ARM GAS  C:\Temp\cc7HZbxb.s 			page 1


   1              		.cpu cortex-m4
   2              		.arch armv7e-m
   3              		.fpu fpv4-sp-d16
   4              		.eabi_attribute 27, 1
   5              		.eabi_attribute 28, 1
   6              		.eabi_attribute 20, 1
   7              		.eabi_attribute 21, 1
   8              		.eabi_attribute 23, 3
   9              		.eabi_attribute 24, 1
  10              		.eabi_attribute 25, 1
  11              		.eabi_attribute 26, 1
  12              		.eabi_attribute 30, 1
  13              		.eabi_attribute 34, 1
  14              		.eabi_attribute 18, 4
  15              		.file	"vl53l1_hist_algos_gen4.c"
  16              		.text
  17              	.Ltext0:
  18              		.cfi_sections	.debug_frame
  19              		.file 1 "Drivers/BSP/Components/vl53l1cb/modules/vl53l1_hist_algos_gen4.c"
  20              		.section	.text.VL53L1_f_032,"ax",%progbits
  21              		.align	1
  22              		.global	VL53L1_f_032
  23              		.syntax unified
  24              		.thumb
  25              		.thumb_func
  27              	VL53L1_f_032:
  28              	.LVL0:
  29              	.LFB3:
   1:Drivers/BSP/Components/vl53l1cb/modules/vl53l1_hist_algos_gen4.c **** /**
   2:Drivers/BSP/Components/vl53l1cb/modules/vl53l1_hist_algos_gen4.c ****  ******************************************************************************
   3:Drivers/BSP/Components/vl53l1cb/modules/vl53l1_hist_algos_gen4.c ****  * Copyright (c) 2020, STMicroelectronics - All Rights Reserved
   4:Drivers/BSP/Components/vl53l1cb/modules/vl53l1_hist_algos_gen4.c **** 
   5:Drivers/BSP/Components/vl53l1cb/modules/vl53l1_hist_algos_gen4.c ****  This file is part of VL53L1 Protected and is licensed 
   6:Drivers/BSP/Components/vl53l1cb/modules/vl53l1_hist_algos_gen4.c ****  'STMicroelectronics Proprietary license'
   7:Drivers/BSP/Components/vl53l1cb/modules/vl53l1_hist_algos_gen4.c **** 
   8:Drivers/BSP/Components/vl53l1cb/modules/vl53l1_hist_algos_gen4.c ****  License terms: STMicroelectronics Proprietary in accordance with licensing
   9:Drivers/BSP/Components/vl53l1cb/modules/vl53l1_hist_algos_gen4.c ****  terms at www.st.com/sla0081
  10:Drivers/BSP/Components/vl53l1cb/modules/vl53l1_hist_algos_gen4.c **** 
  11:Drivers/BSP/Components/vl53l1cb/modules/vl53l1_hist_algos_gen4.c ****  ******************************************************************************
  12:Drivers/BSP/Components/vl53l1cb/modules/vl53l1_hist_algos_gen4.c ****  */
  13:Drivers/BSP/Components/vl53l1cb/modules/vl53l1_hist_algos_gen4.c **** 
  14:Drivers/BSP/Components/vl53l1cb/modules/vl53l1_hist_algos_gen4.c **** 
  15:Drivers/BSP/Components/vl53l1cb/modules/vl53l1_hist_algos_gen4.c **** 
  16:Drivers/BSP/Components/vl53l1cb/modules/vl53l1_hist_algos_gen4.c **** 
  17:Drivers/BSP/Components/vl53l1cb/modules/vl53l1_hist_algos_gen4.c **** #include "vl53l1_types.h"
  18:Drivers/BSP/Components/vl53l1cb/modules/vl53l1_hist_algos_gen4.c **** #include "vl53l1_platform_log.h"
  19:Drivers/BSP/Components/vl53l1cb/modules/vl53l1_hist_algos_gen4.c **** 
  20:Drivers/BSP/Components/vl53l1cb/modules/vl53l1_hist_algos_gen4.c **** #include "vl53l1_core_support.h"
  21:Drivers/BSP/Components/vl53l1cb/modules/vl53l1_hist_algos_gen4.c **** #include "vl53l1_error_codes.h"
  22:Drivers/BSP/Components/vl53l1cb/modules/vl53l1_hist_algos_gen4.c **** 
  23:Drivers/BSP/Components/vl53l1cb/modules/vl53l1_hist_algos_gen4.c **** #include "vl53l1_hist_core.h"
  24:Drivers/BSP/Components/vl53l1cb/modules/vl53l1_hist_algos_gen4.c **** #include "vl53l1_hist_algos_gen3.h"
  25:Drivers/BSP/Components/vl53l1cb/modules/vl53l1_hist_algos_gen4.c **** #include "vl53l1_hist_algos_gen4.h"
  26:Drivers/BSP/Components/vl53l1cb/modules/vl53l1_hist_algos_gen4.c **** #include "vl53l1_sigma_estimate.h"
  27:Drivers/BSP/Components/vl53l1cb/modules/vl53l1_hist_algos_gen4.c **** #include "vl53l1_dmax.h"
  28:Drivers/BSP/Components/vl53l1cb/modules/vl53l1_hist_algos_gen4.c **** #ifdef __KERNEL__
  29:Drivers/BSP/Components/vl53l1cb/modules/vl53l1_hist_algos_gen4.c **** #include <linux/math64.h>
ARM GAS  C:\Temp\cc7HZbxb.s 			page 2


  30:Drivers/BSP/Components/vl53l1cb/modules/vl53l1_hist_algos_gen4.c **** #include <linux/kernel.h>
  31:Drivers/BSP/Components/vl53l1cb/modules/vl53l1_hist_algos_gen4.c **** #endif
  32:Drivers/BSP/Components/vl53l1cb/modules/vl53l1_hist_algos_gen4.c **** 
  33:Drivers/BSP/Components/vl53l1cb/modules/vl53l1_hist_algos_gen4.c **** 
  34:Drivers/BSP/Components/vl53l1cb/modules/vl53l1_hist_algos_gen4.c **** 
  35:Drivers/BSP/Components/vl53l1cb/modules/vl53l1_hist_algos_gen4.c **** #define LOG_FUNCTION_START(fmt, ...) \
  36:Drivers/BSP/Components/vl53l1cb/modules/vl53l1_hist_algos_gen4.c **** 	_LOG_FUNCTION_START(VL53L1_TRACE_MODULE_HISTOGRAM, fmt, ##__VA_ARGS__)
  37:Drivers/BSP/Components/vl53l1cb/modules/vl53l1_hist_algos_gen4.c **** #define LOG_FUNCTION_END(status, ...) \
  38:Drivers/BSP/Components/vl53l1cb/modules/vl53l1_hist_algos_gen4.c **** 	_LOG_FUNCTION_END(VL53L1_TRACE_MODULE_HISTOGRAM, status, ##__VA_ARGS__)
  39:Drivers/BSP/Components/vl53l1cb/modules/vl53l1_hist_algos_gen4.c **** #define LOG_FUNCTION_END_FMT(status, fmt, ...) \
  40:Drivers/BSP/Components/vl53l1cb/modules/vl53l1_hist_algos_gen4.c **** 	_LOG_FUNCTION_END_FMT(VL53L1_TRACE_MODULE_HISTOGRAM, \
  41:Drivers/BSP/Components/vl53l1cb/modules/vl53l1_hist_algos_gen4.c **** 	status, fmt, ##__VA_ARGS__)
  42:Drivers/BSP/Components/vl53l1cb/modules/vl53l1_hist_algos_gen4.c **** 
  43:Drivers/BSP/Components/vl53l1cb/modules/vl53l1_hist_algos_gen4.c **** #define trace_print(level, ...) \
  44:Drivers/BSP/Components/vl53l1cb/modules/vl53l1_hist_algos_gen4.c **** 	_LOG_TRACE_PRINT(VL53L1_TRACE_MODULE_HISTOGRAM, \
  45:Drivers/BSP/Components/vl53l1cb/modules/vl53l1_hist_algos_gen4.c **** 	level, VL53L1_TRACE_FUNCTION_NONE, ##__VA_ARGS__)
  46:Drivers/BSP/Components/vl53l1cb/modules/vl53l1_hist_algos_gen4.c **** 
  47:Drivers/BSP/Components/vl53l1cb/modules/vl53l1_hist_algos_gen4.c **** 
  48:Drivers/BSP/Components/vl53l1cb/modules/vl53l1_hist_algos_gen4.c **** void VL53L1_f_032(
  49:Drivers/BSP/Components/vl53l1cb/modules/vl53l1_hist_algos_gen4.c **** 	VL53L1_hist_gen4_algo_filtered_data_t   *palgo)
  50:Drivers/BSP/Components/vl53l1cb/modules/vl53l1_hist_algos_gen4.c **** {
  30              		.loc 1 50 1 view -0
  31              		.cfi_startproc
  32              		@ args = 0, pretend = 0, frame = 0
  33              		@ frame_needed = 0, uses_anonymous_args = 0
  34              		@ link register save eliminated.
  51:Drivers/BSP/Components/vl53l1cb/modules/vl53l1_hist_algos_gen4.c **** 
  52:Drivers/BSP/Components/vl53l1cb/modules/vl53l1_hist_algos_gen4.c **** 
  53:Drivers/BSP/Components/vl53l1cb/modules/vl53l1_hist_algos_gen4.c **** 	uint8_t  lb                 = 0;
  35              		.loc 1 53 2 view .LVU1
  54:Drivers/BSP/Components/vl53l1cb/modules/vl53l1_hist_algos_gen4.c **** 
  55:Drivers/BSP/Components/vl53l1cb/modules/vl53l1_hist_algos_gen4.c **** 	palgo->VL53L1_p_023              = VL53L1_HISTOGRAM_BUFFER_SIZE;
  36              		.loc 1 55 2 view .LVU2
  37              		.loc 1 55 35 is_stmt 0 view .LVU3
  38 0000 1823     		movs	r3, #24
  39 0002 4370     		strb	r3, [r0, #1]
  56:Drivers/BSP/Components/vl53l1cb/modules/vl53l1_hist_algos_gen4.c **** 	palgo->VL53L1_p_022                = 0;
  40              		.loc 1 56 2 is_stmt 1 view .LVU4
  41              		.loc 1 56 37 is_stmt 0 view .LVU5
  42 0004 0023     		movs	r3, #0
  43 0006 0370     		strb	r3, [r0]
  57:Drivers/BSP/Components/vl53l1cb/modules/vl53l1_hist_algos_gen4.c **** 	palgo->VL53L1_p_024           = 0;
  44              		.loc 1 57 2 is_stmt 1 view .LVU6
  45              		.loc 1 57 32 is_stmt 0 view .LVU7
  46 0008 8370     		strb	r3, [r0, #2]
  58:Drivers/BSP/Components/vl53l1cb/modules/vl53l1_hist_algos_gen4.c **** 
  59:Drivers/BSP/Components/vl53l1cb/modules/vl53l1_hist_algos_gen4.c **** 	for (lb = palgo->VL53L1_p_022; lb < palgo->VL53L1_p_023; lb++) {
  47              		.loc 1 59 2 is_stmt 1 view .LVU8
  48              		.loc 1 59 2 is_stmt 0 view .LVU9
  49 000a 1CE0     		b	.L2
  50              	.LVL1:
  51              	.L3:
  60:Drivers/BSP/Components/vl53l1cb/modules/vl53l1_hist_algos_gen4.c **** 		palgo->VL53L1_p_003[lb]      = 0;
  52              		.loc 1 60 3 is_stmt 1 discriminator 3 view .LVU10
  53              		.loc 1 60 32 is_stmt 0 discriminator 3 view .LVU11
  54 000c 00EB8301 		add	r1, r0, r3, lsl #2
  55 0010 0022     		movs	r2, #0
ARM GAS  C:\Temp\cc7HZbxb.s 			page 3


  56 0012 4A60     		str	r2, [r1, #4]
  61:Drivers/BSP/Components/vl53l1cb/modules/vl53l1_hist_algos_gen4.c **** 		palgo->VL53L1_p_018[lb]      = 0;
  57              		.loc 1 61 3 is_stmt 1 discriminator 3 view .LVU12
  58              		.loc 1 61 32 is_stmt 0 discriminator 3 view .LVU13
  59 0014 03F11801 		add	r1, r3, #24
  60 0018 00EB8101 		add	r1, r0, r1, lsl #2
  61 001c 4A60     		str	r2, [r1, #4]
  62:Drivers/BSP/Components/vl53l1cb/modules/vl53l1_hist_algos_gen4.c **** 		palgo->VL53L1_p_001[lb]      = 0;
  62              		.loc 1 62 3 is_stmt 1 discriminator 3 view .LVU14
  63              		.loc 1 62 32 is_stmt 0 discriminator 3 view .LVU15
  64 001e 03F13001 		add	r1, r3, #48
  65 0022 00EB8101 		add	r1, r0, r1, lsl #2
  66 0026 4A60     		str	r2, [r1, #4]
  63:Drivers/BSP/Components/vl53l1cb/modules/vl53l1_hist_algos_gen4.c **** 		palgo->VL53L1_p_039[lb] = 0;
  67              		.loc 1 63 3 is_stmt 1 discriminator 3 view .LVU16
  68              		.loc 1 63 27 is_stmt 0 discriminator 3 view .LVU17
  69 0028 03F14801 		add	r1, r3, #72
  70 002c 00EB8101 		add	r1, r0, r1, lsl #2
  71 0030 4A60     		str	r2, [r1, #4]
  64:Drivers/BSP/Components/vl53l1cb/modules/vl53l1_hist_algos_gen4.c **** 		palgo->VL53L1_p_040[lb] = 0;
  72              		.loc 1 64 3 is_stmt 1 discriminator 3 view .LVU18
  73              		.loc 1 64 27 is_stmt 0 discriminator 3 view .LVU19
  74 0032 03F16001 		add	r1, r3, #96
  75 0036 00EB8101 		add	r1, r0, r1, lsl #2
  76 003a 4A60     		str	r2, [r1, #4]
  65:Drivers/BSP/Components/vl53l1cb/modules/vl53l1_hist_algos_gen4.c **** 		palgo->VL53L1_p_043[lb]  = 0;
  77              		.loc 1 65 3 is_stmt 1 discriminator 3 view .LVU20
  78              		.loc 1 65 28 is_stmt 0 discriminator 3 view .LVU21
  79 003c C118     		adds	r1, r0, r3
  80 003e 81F8E421 		strb	r2, [r1, #484]
  59:Drivers/BSP/Components/vl53l1cb/modules/vl53l1_hist_algos_gen4.c **** 		palgo->VL53L1_p_003[lb]      = 0;
  81              		.loc 1 59 61 is_stmt 1 discriminator 3 view .LVU22
  82 0042 0133     		adds	r3, r3, #1
  83              	.LVL2:
  59:Drivers/BSP/Components/vl53l1cb/modules/vl53l1_hist_algos_gen4.c **** 		palgo->VL53L1_p_003[lb]      = 0;
  84              		.loc 1 59 61 is_stmt 0 discriminator 3 view .LVU23
  85 0044 DBB2     		uxtb	r3, r3
  86              	.LVL3:
  87              	.L2:
  59:Drivers/BSP/Components/vl53l1cb/modules/vl53l1_hist_algos_gen4.c **** 		palgo->VL53L1_p_003[lb]      = 0;
  88              		.loc 1 59 36 is_stmt 1 discriminator 1 view .LVU24
  89 0046 172B     		cmp	r3, #23
  90 0048 E0D9     		bls	.L3
  66:Drivers/BSP/Components/vl53l1cb/modules/vl53l1_hist_algos_gen4.c **** 	}
  67:Drivers/BSP/Components/vl53l1cb/modules/vl53l1_hist_algos_gen4.c **** }
  91              		.loc 1 67 1 is_stmt 0 view .LVU25
  92 004a 7047     		bx	lr
  93              		.cfi_endproc
  94              	.LFE3:
  96              		.section	.text.VL53L1_f_034,"ax",%progbits
  97              		.align	1
  98              		.global	VL53L1_f_034
  99              		.syntax unified
 100              		.thumb
 101              		.thumb_func
 103              	VL53L1_f_034:
 104              	.LVL4:
ARM GAS  C:\Temp\cc7HZbxb.s 			page 4


 105              	.LFB5:
  68:Drivers/BSP/Components/vl53l1cb/modules/vl53l1_hist_algos_gen4.c **** 
  69:Drivers/BSP/Components/vl53l1cb/modules/vl53l1_hist_algos_gen4.c **** 
  70:Drivers/BSP/Components/vl53l1cb/modules/vl53l1_hist_algos_gen4.c **** VL53L1_Error VL53L1_f_033(
  71:Drivers/BSP/Components/vl53l1cb/modules/vl53l1_hist_algos_gen4.c **** 	VL53L1_dmax_calibration_data_t         *pdmax_cal,
  72:Drivers/BSP/Components/vl53l1cb/modules/vl53l1_hist_algos_gen4.c **** 	VL53L1_hist_gen3_dmax_config_t         *pdmax_cfg,
  73:Drivers/BSP/Components/vl53l1cb/modules/vl53l1_hist_algos_gen4.c **** 	VL53L1_hist_post_process_config_t      *ppost_cfg,
  74:Drivers/BSP/Components/vl53l1cb/modules/vl53l1_hist_algos_gen4.c **** 	VL53L1_histogram_bin_data_t            *pbins_input,
  75:Drivers/BSP/Components/vl53l1cb/modules/vl53l1_hist_algos_gen4.c **** 	VL53L1_histogram_bin_data_t            *pxtalk,
  76:Drivers/BSP/Components/vl53l1cb/modules/vl53l1_hist_algos_gen4.c **** 	VL53L1_hist_gen3_algo_private_data_t   *palgo3,
  77:Drivers/BSP/Components/vl53l1cb/modules/vl53l1_hist_algos_gen4.c **** 	VL53L1_hist_gen4_algo_filtered_data_t  *pfiltered,
  78:Drivers/BSP/Components/vl53l1cb/modules/vl53l1_hist_algos_gen4.c **** 	VL53L1_hist_gen3_dmax_private_data_t   *pdmax_algo,
  79:Drivers/BSP/Components/vl53l1cb/modules/vl53l1_hist_algos_gen4.c **** 	VL53L1_range_results_t                 *presults,
  80:Drivers/BSP/Components/vl53l1cb/modules/vl53l1_hist_algos_gen4.c **** 	uint8_t                                histo_merge_nb)
  81:Drivers/BSP/Components/vl53l1cb/modules/vl53l1_hist_algos_gen4.c **** {
  82:Drivers/BSP/Components/vl53l1cb/modules/vl53l1_hist_algos_gen4.c **** 
  83:Drivers/BSP/Components/vl53l1cb/modules/vl53l1_hist_algos_gen4.c **** 
  84:Drivers/BSP/Components/vl53l1cb/modules/vl53l1_hist_algos_gen4.c **** 	VL53L1_Error  status  = VL53L1_ERROR_NONE;
  85:Drivers/BSP/Components/vl53l1cb/modules/vl53l1_hist_algos_gen4.c **** 
  86:Drivers/BSP/Components/vl53l1cb/modules/vl53l1_hist_algos_gen4.c **** 	VL53L1_hist_pulse_data_t     *ppulse_data;
  87:Drivers/BSP/Components/vl53l1cb/modules/vl53l1_hist_algos_gen4.c **** 	VL53L1_range_data_t          *prange_data;
  88:Drivers/BSP/Components/vl53l1cb/modules/vl53l1_hist_algos_gen4.c **** 
  89:Drivers/BSP/Components/vl53l1cb/modules/vl53l1_hist_algos_gen4.c **** 	uint8_t                       p = 0;
  90:Drivers/BSP/Components/vl53l1cb/modules/vl53l1_hist_algos_gen4.c **** 	VL53L1_histogram_bin_data_t *pB = &(palgo3->VL53L1_p_010);
  91:Drivers/BSP/Components/vl53l1cb/modules/vl53l1_hist_algos_gen4.c **** 
  92:Drivers/BSP/Components/vl53l1cb/modules/vl53l1_hist_algos_gen4.c **** 	LOG_FUNCTION_START("");
  93:Drivers/BSP/Components/vl53l1cb/modules/vl53l1_hist_algos_gen4.c **** 
  94:Drivers/BSP/Components/vl53l1cb/modules/vl53l1_hist_algos_gen4.c **** 
  95:Drivers/BSP/Components/vl53l1cb/modules/vl53l1_hist_algos_gen4.c **** 
  96:Drivers/BSP/Components/vl53l1cb/modules/vl53l1_hist_algos_gen4.c **** 
  97:Drivers/BSP/Components/vl53l1cb/modules/vl53l1_hist_algos_gen4.c **** 
  98:Drivers/BSP/Components/vl53l1cb/modules/vl53l1_hist_algos_gen4.c **** 	VL53L1_f_016(palgo3);
  99:Drivers/BSP/Components/vl53l1cb/modules/vl53l1_hist_algos_gen4.c **** 
 100:Drivers/BSP/Components/vl53l1cb/modules/vl53l1_hist_algos_gen4.c **** 
 101:Drivers/BSP/Components/vl53l1cb/modules/vl53l1_hist_algos_gen4.c **** 
 102:Drivers/BSP/Components/vl53l1cb/modules/vl53l1_hist_algos_gen4.c **** 	memcpy(
 103:Drivers/BSP/Components/vl53l1cb/modules/vl53l1_hist_algos_gen4.c **** 		&(palgo3->VL53L1_p_010),
 104:Drivers/BSP/Components/vl53l1cb/modules/vl53l1_hist_algos_gen4.c **** 		pbins_input,
 105:Drivers/BSP/Components/vl53l1cb/modules/vl53l1_hist_algos_gen4.c **** 		sizeof(VL53L1_histogram_bin_data_t));
 106:Drivers/BSP/Components/vl53l1cb/modules/vl53l1_hist_algos_gen4.c **** 
 107:Drivers/BSP/Components/vl53l1cb/modules/vl53l1_hist_algos_gen4.c **** 
 108:Drivers/BSP/Components/vl53l1cb/modules/vl53l1_hist_algos_gen4.c **** 
 109:Drivers/BSP/Components/vl53l1cb/modules/vl53l1_hist_algos_gen4.c **** 	presults->cfg_device_state = pbins_input->cfg_device_state;
 110:Drivers/BSP/Components/vl53l1cb/modules/vl53l1_hist_algos_gen4.c **** 	presults->rd_device_state  = pbins_input->rd_device_state;
 111:Drivers/BSP/Components/vl53l1cb/modules/vl53l1_hist_algos_gen4.c **** 	presults->zone_id          = pbins_input->zone_id;
 112:Drivers/BSP/Components/vl53l1cb/modules/vl53l1_hist_algos_gen4.c **** 	presults->stream_count     = pbins_input->result__stream_count;
 113:Drivers/BSP/Components/vl53l1cb/modules/vl53l1_hist_algos_gen4.c **** 	presults->wrap_dmax_mm     = 0;
 114:Drivers/BSP/Components/vl53l1cb/modules/vl53l1_hist_algos_gen4.c **** 	presults->max_results      = VL53L1_MAX_RANGE_RESULTS;
 115:Drivers/BSP/Components/vl53l1cb/modules/vl53l1_hist_algos_gen4.c **** 	presults->active_results   = 0;
 116:Drivers/BSP/Components/vl53l1cb/modules/vl53l1_hist_algos_gen4.c **** 
 117:Drivers/BSP/Components/vl53l1cb/modules/vl53l1_hist_algos_gen4.c **** 	for (p = 0; p < VL53L1_MAX_AMBIENT_DMAX_VALUES; p++)
 118:Drivers/BSP/Components/vl53l1cb/modules/vl53l1_hist_algos_gen4.c **** 		presults->VL53L1_p_007[p] = 0;
 119:Drivers/BSP/Components/vl53l1cb/modules/vl53l1_hist_algos_gen4.c **** 
 120:Drivers/BSP/Components/vl53l1cb/modules/vl53l1_hist_algos_gen4.c **** 
 121:Drivers/BSP/Components/vl53l1cb/modules/vl53l1_hist_algos_gen4.c **** 
 122:Drivers/BSP/Components/vl53l1cb/modules/vl53l1_hist_algos_gen4.c **** 	VL53L1_hist_calc_zero_distance_phase(&(palgo3->VL53L1_p_010));
 123:Drivers/BSP/Components/vl53l1cb/modules/vl53l1_hist_algos_gen4.c **** 
ARM GAS  C:\Temp\cc7HZbxb.s 			page 5


 124:Drivers/BSP/Components/vl53l1cb/modules/vl53l1_hist_algos_gen4.c **** 
 125:Drivers/BSP/Components/vl53l1cb/modules/vl53l1_hist_algos_gen4.c **** 
 126:Drivers/BSP/Components/vl53l1cb/modules/vl53l1_hist_algos_gen4.c **** 	VL53L1_hist_estimate_ambient_from_thresholded_bins(
 127:Drivers/BSP/Components/vl53l1cb/modules/vl53l1_hist_algos_gen4.c **** 		(int32_t)ppost_cfg->ambient_thresh_sigma0,
 128:Drivers/BSP/Components/vl53l1cb/modules/vl53l1_hist_algos_gen4.c **** 		&(palgo3->VL53L1_p_010));
 129:Drivers/BSP/Components/vl53l1cb/modules/vl53l1_hist_algos_gen4.c **** 
 130:Drivers/BSP/Components/vl53l1cb/modules/vl53l1_hist_algos_gen4.c **** 	VL53L1_hist_estimate_ambient_from_ambient_bins(
 131:Drivers/BSP/Components/vl53l1cb/modules/vl53l1_hist_algos_gen4.c **** 			&(palgo3->VL53L1_p_010));
 132:Drivers/BSP/Components/vl53l1cb/modules/vl53l1_hist_algos_gen4.c **** 
 133:Drivers/BSP/Components/vl53l1cb/modules/vl53l1_hist_algos_gen4.c **** 
 134:Drivers/BSP/Components/vl53l1cb/modules/vl53l1_hist_algos_gen4.c **** 	VL53L1_hist_remove_ambient_bins(&(palgo3->VL53L1_p_010));
 135:Drivers/BSP/Components/vl53l1cb/modules/vl53l1_hist_algos_gen4.c **** 
 136:Drivers/BSP/Components/vl53l1cb/modules/vl53l1_hist_algos_gen4.c **** 
 137:Drivers/BSP/Components/vl53l1cb/modules/vl53l1_hist_algos_gen4.c **** 	if (ppost_cfg->algo__crosstalk_compensation_enable > 0)
 138:Drivers/BSP/Components/vl53l1cb/modules/vl53l1_hist_algos_gen4.c **** 		VL53L1_f_004(
 139:Drivers/BSP/Components/vl53l1cb/modules/vl53l1_hist_algos_gen4.c **** 				pxtalk,
 140:Drivers/BSP/Components/vl53l1cb/modules/vl53l1_hist_algos_gen4.c **** 				&(palgo3->VL53L1_p_010),
 141:Drivers/BSP/Components/vl53l1cb/modules/vl53l1_hist_algos_gen4.c **** 				&(palgo3->VL53L1_p_038));
 142:Drivers/BSP/Components/vl53l1cb/modules/vl53l1_hist_algos_gen4.c **** 
 143:Drivers/BSP/Components/vl53l1cb/modules/vl53l1_hist_algos_gen4.c **** 
 144:Drivers/BSP/Components/vl53l1cb/modules/vl53l1_hist_algos_gen4.c **** 	pdmax_cfg->ambient_thresh_sigma =
 145:Drivers/BSP/Components/vl53l1cb/modules/vl53l1_hist_algos_gen4.c **** 		ppost_cfg->ambient_thresh_sigma1;
 146:Drivers/BSP/Components/vl53l1cb/modules/vl53l1_hist_algos_gen4.c **** 
 147:Drivers/BSP/Components/vl53l1cb/modules/vl53l1_hist_algos_gen4.c **** 	for (p = 0; p < VL53L1_MAX_AMBIENT_DMAX_VALUES; p++) {
 148:Drivers/BSP/Components/vl53l1cb/modules/vl53l1_hist_algos_gen4.c **** 		if (status == VL53L1_ERROR_NONE) {
 149:Drivers/BSP/Components/vl53l1cb/modules/vl53l1_hist_algos_gen4.c **** 			status =
 150:Drivers/BSP/Components/vl53l1cb/modules/vl53l1_hist_algos_gen4.c **** 			VL53L1_f_001(
 151:Drivers/BSP/Components/vl53l1cb/modules/vl53l1_hist_algos_gen4.c **** 				pdmax_cfg->target_reflectance_for_dmax_calc[p],
 152:Drivers/BSP/Components/vl53l1cb/modules/vl53l1_hist_algos_gen4.c **** 				pdmax_cal,
 153:Drivers/BSP/Components/vl53l1cb/modules/vl53l1_hist_algos_gen4.c **** 				pdmax_cfg,
 154:Drivers/BSP/Components/vl53l1cb/modules/vl53l1_hist_algos_gen4.c **** 				&(palgo3->VL53L1_p_010),
 155:Drivers/BSP/Components/vl53l1cb/modules/vl53l1_hist_algos_gen4.c **** 				pdmax_algo,
 156:Drivers/BSP/Components/vl53l1cb/modules/vl53l1_hist_algos_gen4.c **** 				&(presults->VL53L1_p_007[p]));
 157:Drivers/BSP/Components/vl53l1cb/modules/vl53l1_hist_algos_gen4.c **** 		}
 158:Drivers/BSP/Components/vl53l1cb/modules/vl53l1_hist_algos_gen4.c **** 	}
 159:Drivers/BSP/Components/vl53l1cb/modules/vl53l1_hist_algos_gen4.c **** 
 160:Drivers/BSP/Components/vl53l1cb/modules/vl53l1_hist_algos_gen4.c **** 
 161:Drivers/BSP/Components/vl53l1cb/modules/vl53l1_hist_algos_gen4.c **** 
 162:Drivers/BSP/Components/vl53l1cb/modules/vl53l1_hist_algos_gen4.c **** 
 163:Drivers/BSP/Components/vl53l1cb/modules/vl53l1_hist_algos_gen4.c **** 
 164:Drivers/BSP/Components/vl53l1cb/modules/vl53l1_hist_algos_gen4.c **** 	if (status == VL53L1_ERROR_NONE)
 165:Drivers/BSP/Components/vl53l1cb/modules/vl53l1_hist_algos_gen4.c **** 		status =
 166:Drivers/BSP/Components/vl53l1cb/modules/vl53l1_hist_algos_gen4.c **** 			VL53L1_f_018(
 167:Drivers/BSP/Components/vl53l1cb/modules/vl53l1_hist_algos_gen4.c **** 			ppost_cfg->ambient_thresh_events_scaler,
 168:Drivers/BSP/Components/vl53l1cb/modules/vl53l1_hist_algos_gen4.c **** 			(int32_t)pdmax_cfg->ambient_thresh_sigma,
 169:Drivers/BSP/Components/vl53l1cb/modules/vl53l1_hist_algos_gen4.c **** 			(int32_t)ppost_cfg->min_ambient_thresh_events,
 170:Drivers/BSP/Components/vl53l1cb/modules/vl53l1_hist_algos_gen4.c **** 			ppost_cfg->algo__crosstalk_compensation_enable,
 171:Drivers/BSP/Components/vl53l1cb/modules/vl53l1_hist_algos_gen4.c **** 			&(palgo3->VL53L1_p_010),
 172:Drivers/BSP/Components/vl53l1cb/modules/vl53l1_hist_algos_gen4.c **** 			&(palgo3->VL53L1_p_038),
 173:Drivers/BSP/Components/vl53l1cb/modules/vl53l1_hist_algos_gen4.c **** 			palgo3);
 174:Drivers/BSP/Components/vl53l1cb/modules/vl53l1_hist_algos_gen4.c **** 
 175:Drivers/BSP/Components/vl53l1cb/modules/vl53l1_hist_algos_gen4.c **** 
 176:Drivers/BSP/Components/vl53l1cb/modules/vl53l1_hist_algos_gen4.c **** 
 177:Drivers/BSP/Components/vl53l1cb/modules/vl53l1_hist_algos_gen4.c **** 
 178:Drivers/BSP/Components/vl53l1cb/modules/vl53l1_hist_algos_gen4.c **** 
 179:Drivers/BSP/Components/vl53l1cb/modules/vl53l1_hist_algos_gen4.c **** 	if (status == VL53L1_ERROR_NONE)
 180:Drivers/BSP/Components/vl53l1cb/modules/vl53l1_hist_algos_gen4.c **** 		status =
ARM GAS  C:\Temp\cc7HZbxb.s 			page 6


 181:Drivers/BSP/Components/vl53l1cb/modules/vl53l1_hist_algos_gen4.c **** 			VL53L1_f_019(palgo3);
 182:Drivers/BSP/Components/vl53l1cb/modules/vl53l1_hist_algos_gen4.c **** 
 183:Drivers/BSP/Components/vl53l1cb/modules/vl53l1_hist_algos_gen4.c **** 
 184:Drivers/BSP/Components/vl53l1cb/modules/vl53l1_hist_algos_gen4.c **** 
 185:Drivers/BSP/Components/vl53l1cb/modules/vl53l1_hist_algos_gen4.c **** 	if (status == VL53L1_ERROR_NONE)
 186:Drivers/BSP/Components/vl53l1cb/modules/vl53l1_hist_algos_gen4.c **** 		status =
 187:Drivers/BSP/Components/vl53l1cb/modules/vl53l1_hist_algos_gen4.c **** 			VL53L1_f_020(palgo3);
 188:Drivers/BSP/Components/vl53l1cb/modules/vl53l1_hist_algos_gen4.c **** 
 189:Drivers/BSP/Components/vl53l1cb/modules/vl53l1_hist_algos_gen4.c **** 
 190:Drivers/BSP/Components/vl53l1cb/modules/vl53l1_hist_algos_gen4.c **** 
 191:Drivers/BSP/Components/vl53l1cb/modules/vl53l1_hist_algos_gen4.c **** 	if (status == VL53L1_ERROR_NONE)
 192:Drivers/BSP/Components/vl53l1cb/modules/vl53l1_hist_algos_gen4.c **** 		status =
 193:Drivers/BSP/Components/vl53l1cb/modules/vl53l1_hist_algos_gen4.c **** 			VL53L1_f_021(palgo3);
 194:Drivers/BSP/Components/vl53l1cb/modules/vl53l1_hist_algos_gen4.c **** 
 195:Drivers/BSP/Components/vl53l1cb/modules/vl53l1_hist_algos_gen4.c **** 
 196:Drivers/BSP/Components/vl53l1cb/modules/vl53l1_hist_algos_gen4.c **** 
 197:Drivers/BSP/Components/vl53l1cb/modules/vl53l1_hist_algos_gen4.c **** 	for (p = 0; p < palgo3->VL53L1_p_051; p++) {
 198:Drivers/BSP/Components/vl53l1cb/modules/vl53l1_hist_algos_gen4.c **** 
 199:Drivers/BSP/Components/vl53l1cb/modules/vl53l1_hist_algos_gen4.c **** 		ppulse_data = &(palgo3->VL53L1_p_002[p]);
 200:Drivers/BSP/Components/vl53l1cb/modules/vl53l1_hist_algos_gen4.c **** 
 201:Drivers/BSP/Components/vl53l1cb/modules/vl53l1_hist_algos_gen4.c **** 
 202:Drivers/BSP/Components/vl53l1cb/modules/vl53l1_hist_algos_gen4.c **** 
 203:Drivers/BSP/Components/vl53l1cb/modules/vl53l1_hist_algos_gen4.c **** 		if (status == VL53L1_ERROR_NONE)
 204:Drivers/BSP/Components/vl53l1cb/modules/vl53l1_hist_algos_gen4.c **** 			status =
 205:Drivers/BSP/Components/vl53l1cb/modules/vl53l1_hist_algos_gen4.c **** 				VL53L1_f_022(
 206:Drivers/BSP/Components/vl53l1cb/modules/vl53l1_hist_algos_gen4.c **** 					p,
 207:Drivers/BSP/Components/vl53l1cb/modules/vl53l1_hist_algos_gen4.c **** 					&(palgo3->VL53L1_p_010),
 208:Drivers/BSP/Components/vl53l1cb/modules/vl53l1_hist_algos_gen4.c **** 					palgo3);
 209:Drivers/BSP/Components/vl53l1cb/modules/vl53l1_hist_algos_gen4.c **** 
 210:Drivers/BSP/Components/vl53l1cb/modules/vl53l1_hist_algos_gen4.c **** 
 211:Drivers/BSP/Components/vl53l1cb/modules/vl53l1_hist_algos_gen4.c **** 
 212:Drivers/BSP/Components/vl53l1cb/modules/vl53l1_hist_algos_gen4.c **** 		if (status == VL53L1_ERROR_NONE)
 213:Drivers/BSP/Components/vl53l1cb/modules/vl53l1_hist_algos_gen4.c **** 			status =
 214:Drivers/BSP/Components/vl53l1cb/modules/vl53l1_hist_algos_gen4.c **** 				VL53L1_f_023(
 215:Drivers/BSP/Components/vl53l1cb/modules/vl53l1_hist_algos_gen4.c **** 					p,
 216:Drivers/BSP/Components/vl53l1cb/modules/vl53l1_hist_algos_gen4.c **** 					&(palgo3->VL53L1_p_010),
 217:Drivers/BSP/Components/vl53l1cb/modules/vl53l1_hist_algos_gen4.c **** 					palgo3,
 218:Drivers/BSP/Components/vl53l1cb/modules/vl53l1_hist_algos_gen4.c **** 					pB->VL53L1_p_004,
 219:Drivers/BSP/Components/vl53l1cb/modules/vl53l1_hist_algos_gen4.c **** 					&(palgo3->VL53L1_p_052));
 220:Drivers/BSP/Components/vl53l1cb/modules/vl53l1_hist_algos_gen4.c **** 
 221:Drivers/BSP/Components/vl53l1cb/modules/vl53l1_hist_algos_gen4.c **** 
 222:Drivers/BSP/Components/vl53l1cb/modules/vl53l1_hist_algos_gen4.c **** 
 223:Drivers/BSP/Components/vl53l1cb/modules/vl53l1_hist_algos_gen4.c **** 		if (status == VL53L1_ERROR_NONE) {
 224:Drivers/BSP/Components/vl53l1cb/modules/vl53l1_hist_algos_gen4.c **** 			status =
 225:Drivers/BSP/Components/vl53l1cb/modules/vl53l1_hist_algos_gen4.c **** 				VL53L1_f_023(
 226:Drivers/BSP/Components/vl53l1cb/modules/vl53l1_hist_algos_gen4.c **** 					p,
 227:Drivers/BSP/Components/vl53l1cb/modules/vl53l1_hist_algos_gen4.c **** 					&(palgo3->VL53L1_p_010),
 228:Drivers/BSP/Components/vl53l1cb/modules/vl53l1_hist_algos_gen4.c **** 					palgo3,
 229:Drivers/BSP/Components/vl53l1cb/modules/vl53l1_hist_algos_gen4.c **** 					0,
 230:Drivers/BSP/Components/vl53l1cb/modules/vl53l1_hist_algos_gen4.c **** 					&(palgo3->VL53L1_p_053));
 231:Drivers/BSP/Components/vl53l1cb/modules/vl53l1_hist_algos_gen4.c **** 		}
 232:Drivers/BSP/Components/vl53l1cb/modules/vl53l1_hist_algos_gen4.c **** 
 233:Drivers/BSP/Components/vl53l1cb/modules/vl53l1_hist_algos_gen4.c **** 
 234:Drivers/BSP/Components/vl53l1cb/modules/vl53l1_hist_algos_gen4.c **** 
 235:Drivers/BSP/Components/vl53l1cb/modules/vl53l1_hist_algos_gen4.c **** 		if (status == VL53L1_ERROR_NONE) {
 236:Drivers/BSP/Components/vl53l1cb/modules/vl53l1_hist_algos_gen4.c **** 			status =
 237:Drivers/BSP/Components/vl53l1cb/modules/vl53l1_hist_algos_gen4.c **** 				VL53L1_f_023(
ARM GAS  C:\Temp\cc7HZbxb.s 			page 7


 238:Drivers/BSP/Components/vl53l1cb/modules/vl53l1_hist_algos_gen4.c **** 					p,
 239:Drivers/BSP/Components/vl53l1cb/modules/vl53l1_hist_algos_gen4.c **** 					&(palgo3->VL53L1_p_038),
 240:Drivers/BSP/Components/vl53l1cb/modules/vl53l1_hist_algos_gen4.c **** 					palgo3,
 241:Drivers/BSP/Components/vl53l1cb/modules/vl53l1_hist_algos_gen4.c **** 					0,
 242:Drivers/BSP/Components/vl53l1cb/modules/vl53l1_hist_algos_gen4.c **** 					&(palgo3->VL53L1_p_054));
 243:Drivers/BSP/Components/vl53l1cb/modules/vl53l1_hist_algos_gen4.c **** 		}
 244:Drivers/BSP/Components/vl53l1cb/modules/vl53l1_hist_algos_gen4.c **** 
 245:Drivers/BSP/Components/vl53l1cb/modules/vl53l1_hist_algos_gen4.c **** 
 246:Drivers/BSP/Components/vl53l1cb/modules/vl53l1_hist_algos_gen4.c **** 
 247:Drivers/BSP/Components/vl53l1cb/modules/vl53l1_hist_algos_gen4.c **** 		if (status == VL53L1_ERROR_NONE)
 248:Drivers/BSP/Components/vl53l1cb/modules/vl53l1_hist_algos_gen4.c **** 			status =
 249:Drivers/BSP/Components/vl53l1cb/modules/vl53l1_hist_algos_gen4.c **** 				VL53L1_f_034(
 250:Drivers/BSP/Components/vl53l1cb/modules/vl53l1_hist_algos_gen4.c **** 					p,
 251:Drivers/BSP/Components/vl53l1cb/modules/vl53l1_hist_algos_gen4.c **** 					&(palgo3->VL53L1_p_052),
 252:Drivers/BSP/Components/vl53l1cb/modules/vl53l1_hist_algos_gen4.c **** 					palgo3,
 253:Drivers/BSP/Components/vl53l1cb/modules/vl53l1_hist_algos_gen4.c **** 					pfiltered);
 254:Drivers/BSP/Components/vl53l1cb/modules/vl53l1_hist_algos_gen4.c **** 
 255:Drivers/BSP/Components/vl53l1cb/modules/vl53l1_hist_algos_gen4.c **** 
 256:Drivers/BSP/Components/vl53l1cb/modules/vl53l1_hist_algos_gen4.c **** 
 257:Drivers/BSP/Components/vl53l1cb/modules/vl53l1_hist_algos_gen4.c **** 		if (status == VL53L1_ERROR_NONE)
 258:Drivers/BSP/Components/vl53l1cb/modules/vl53l1_hist_algos_gen4.c **** 			status =
 259:Drivers/BSP/Components/vl53l1cb/modules/vl53l1_hist_algos_gen4.c **** 				VL53L1_f_035(
 260:Drivers/BSP/Components/vl53l1cb/modules/vl53l1_hist_algos_gen4.c **** 					p,
 261:Drivers/BSP/Components/vl53l1cb/modules/vl53l1_hist_algos_gen4.c **** 					ppost_cfg->noise_threshold,
 262:Drivers/BSP/Components/vl53l1cb/modules/vl53l1_hist_algos_gen4.c **** 					pfiltered,
 263:Drivers/BSP/Components/vl53l1cb/modules/vl53l1_hist_algos_gen4.c **** 					palgo3);
 264:Drivers/BSP/Components/vl53l1cb/modules/vl53l1_hist_algos_gen4.c **** 
 265:Drivers/BSP/Components/vl53l1cb/modules/vl53l1_hist_algos_gen4.c **** 		if (status == VL53L1_ERROR_NONE)
 266:Drivers/BSP/Components/vl53l1cb/modules/vl53l1_hist_algos_gen4.c **** 			status =
 267:Drivers/BSP/Components/vl53l1cb/modules/vl53l1_hist_algos_gen4.c **** 			VL53L1_f_026(
 268:Drivers/BSP/Components/vl53l1cb/modules/vl53l1_hist_algos_gen4.c **** 			ppulse_data->VL53L1_p_025,
 269:Drivers/BSP/Components/vl53l1cb/modules/vl53l1_hist_algos_gen4.c **** 			ppost_cfg->sigma_estimator__sigma_ref_mm,
 270:Drivers/BSP/Components/vl53l1cb/modules/vl53l1_hist_algos_gen4.c **** 			palgo3->VL53L1_p_031,
 271:Drivers/BSP/Components/vl53l1cb/modules/vl53l1_hist_algos_gen4.c **** 			ppulse_data->VL53L1_p_055,
 272:Drivers/BSP/Components/vl53l1cb/modules/vl53l1_hist_algos_gen4.c **** 			ppost_cfg->algo__crosstalk_compensation_enable,
 273:Drivers/BSP/Components/vl53l1cb/modules/vl53l1_hist_algos_gen4.c **** 			&(palgo3->VL53L1_p_052),
 274:Drivers/BSP/Components/vl53l1cb/modules/vl53l1_hist_algos_gen4.c **** 			&(palgo3->VL53L1_p_053),
 275:Drivers/BSP/Components/vl53l1cb/modules/vl53l1_hist_algos_gen4.c **** 			&(palgo3->VL53L1_p_054),
 276:Drivers/BSP/Components/vl53l1cb/modules/vl53l1_hist_algos_gen4.c **** 			&(ppulse_data->VL53L1_p_005));
 277:Drivers/BSP/Components/vl53l1cb/modules/vl53l1_hist_algos_gen4.c **** 
 278:Drivers/BSP/Components/vl53l1cb/modules/vl53l1_hist_algos_gen4.c **** 
 279:Drivers/BSP/Components/vl53l1cb/modules/vl53l1_hist_algos_gen4.c **** 
 280:Drivers/BSP/Components/vl53l1cb/modules/vl53l1_hist_algos_gen4.c **** 		if (status == VL53L1_ERROR_NONE)
 281:Drivers/BSP/Components/vl53l1cb/modules/vl53l1_hist_algos_gen4.c **** 			status =
 282:Drivers/BSP/Components/vl53l1cb/modules/vl53l1_hist_algos_gen4.c **** 				VL53L1_f_027(
 283:Drivers/BSP/Components/vl53l1cb/modules/vl53l1_hist_algos_gen4.c **** 					p,
 284:Drivers/BSP/Components/vl53l1cb/modules/vl53l1_hist_algos_gen4.c **** 					1,
 285:Drivers/BSP/Components/vl53l1cb/modules/vl53l1_hist_algos_gen4.c **** 					&(palgo3->VL53L1_p_010),
 286:Drivers/BSP/Components/vl53l1cb/modules/vl53l1_hist_algos_gen4.c **** 					palgo3);
 287:Drivers/BSP/Components/vl53l1cb/modules/vl53l1_hist_algos_gen4.c **** 
 288:Drivers/BSP/Components/vl53l1cb/modules/vl53l1_hist_algos_gen4.c **** 	}
 289:Drivers/BSP/Components/vl53l1cb/modules/vl53l1_hist_algos_gen4.c **** 
 290:Drivers/BSP/Components/vl53l1cb/modules/vl53l1_hist_algos_gen4.c **** 
 291:Drivers/BSP/Components/vl53l1cb/modules/vl53l1_hist_algos_gen4.c **** 
 292:Drivers/BSP/Components/vl53l1cb/modules/vl53l1_hist_algos_gen4.c **** 	if (status == VL53L1_ERROR_NONE)
 293:Drivers/BSP/Components/vl53l1cb/modules/vl53l1_hist_algos_gen4.c **** 		status =
 294:Drivers/BSP/Components/vl53l1cb/modules/vl53l1_hist_algos_gen4.c **** 			VL53L1_f_028(
ARM GAS  C:\Temp\cc7HZbxb.s 			page 8


 295:Drivers/BSP/Components/vl53l1cb/modules/vl53l1_hist_algos_gen4.c **** 				ppost_cfg->hist_target_order,
 296:Drivers/BSP/Components/vl53l1cb/modules/vl53l1_hist_algos_gen4.c **** 				palgo3);
 297:Drivers/BSP/Components/vl53l1cb/modules/vl53l1_hist_algos_gen4.c **** 
 298:Drivers/BSP/Components/vl53l1cb/modules/vl53l1_hist_algos_gen4.c **** 
 299:Drivers/BSP/Components/vl53l1cb/modules/vl53l1_hist_algos_gen4.c **** 
 300:Drivers/BSP/Components/vl53l1cb/modules/vl53l1_hist_algos_gen4.c **** 	for (p = 0; p < palgo3->VL53L1_p_051; p++) {
 301:Drivers/BSP/Components/vl53l1cb/modules/vl53l1_hist_algos_gen4.c **** 
 302:Drivers/BSP/Components/vl53l1cb/modules/vl53l1_hist_algos_gen4.c **** 		ppulse_data = &(palgo3->VL53L1_p_002[p]);
 303:Drivers/BSP/Components/vl53l1cb/modules/vl53l1_hist_algos_gen4.c **** 
 304:Drivers/BSP/Components/vl53l1cb/modules/vl53l1_hist_algos_gen4.c **** 
 305:Drivers/BSP/Components/vl53l1cb/modules/vl53l1_hist_algos_gen4.c **** 		if (!(presults->active_results < presults->max_results))
 306:Drivers/BSP/Components/vl53l1cb/modules/vl53l1_hist_algos_gen4.c **** 			continue;
 307:Drivers/BSP/Components/vl53l1cb/modules/vl53l1_hist_algos_gen4.c **** 
 308:Drivers/BSP/Components/vl53l1cb/modules/vl53l1_hist_algos_gen4.c **** 
 309:Drivers/BSP/Components/vl53l1cb/modules/vl53l1_hist_algos_gen4.c **** 
 310:Drivers/BSP/Components/vl53l1cb/modules/vl53l1_hist_algos_gen4.c **** 
 311:Drivers/BSP/Components/vl53l1cb/modules/vl53l1_hist_algos_gen4.c **** 		if (ppulse_data->VL53L1_p_013 >
 312:Drivers/BSP/Components/vl53l1cb/modules/vl53l1_hist_algos_gen4.c **** 			ppost_cfg->signal_total_events_limit &&
 313:Drivers/BSP/Components/vl53l1cb/modules/vl53l1_hist_algos_gen4.c **** 			ppulse_data->VL53L1_p_025 < 0xFF) {
 314:Drivers/BSP/Components/vl53l1cb/modules/vl53l1_hist_algos_gen4.c **** 
 315:Drivers/BSP/Components/vl53l1cb/modules/vl53l1_hist_algos_gen4.c **** 			prange_data =
 316:Drivers/BSP/Components/vl53l1cb/modules/vl53l1_hist_algos_gen4.c **** 			&(presults->VL53L1_p_002[presults->active_results]);
 317:Drivers/BSP/Components/vl53l1cb/modules/vl53l1_hist_algos_gen4.c **** 
 318:Drivers/BSP/Components/vl53l1cb/modules/vl53l1_hist_algos_gen4.c **** 			if (status == VL53L1_ERROR_NONE)
 319:Drivers/BSP/Components/vl53l1cb/modules/vl53l1_hist_algos_gen4.c **** 				VL53L1_f_029(
 320:Drivers/BSP/Components/vl53l1cb/modules/vl53l1_hist_algos_gen4.c **** 						presults->active_results,
 321:Drivers/BSP/Components/vl53l1cb/modules/vl53l1_hist_algos_gen4.c **** 						ppost_cfg->valid_phase_low,
 322:Drivers/BSP/Components/vl53l1cb/modules/vl53l1_hist_algos_gen4.c **** 						ppost_cfg->valid_phase_high,
 323:Drivers/BSP/Components/vl53l1cb/modules/vl53l1_hist_algos_gen4.c **** 						ppost_cfg->sigma_thresh,
 324:Drivers/BSP/Components/vl53l1cb/modules/vl53l1_hist_algos_gen4.c **** 						&(palgo3->VL53L1_p_010),
 325:Drivers/BSP/Components/vl53l1cb/modules/vl53l1_hist_algos_gen4.c **** 						ppulse_data,
 326:Drivers/BSP/Components/vl53l1cb/modules/vl53l1_hist_algos_gen4.c **** 						prange_data);
 327:Drivers/BSP/Components/vl53l1cb/modules/vl53l1_hist_algos_gen4.c **** 
 328:Drivers/BSP/Components/vl53l1cb/modules/vl53l1_hist_algos_gen4.c **** 			if (status == VL53L1_ERROR_NONE)
 329:Drivers/BSP/Components/vl53l1cb/modules/vl53l1_hist_algos_gen4.c **** 				status =
 330:Drivers/BSP/Components/vl53l1cb/modules/vl53l1_hist_algos_gen4.c **** 				VL53L1_f_011(
 331:Drivers/BSP/Components/vl53l1cb/modules/vl53l1_hist_algos_gen4.c **** 				pB->vcsel_width,
 332:Drivers/BSP/Components/vl53l1cb/modules/vl53l1_hist_algos_gen4.c **** 				pB->VL53L1_p_019,
 333:Drivers/BSP/Components/vl53l1cb/modules/vl53l1_hist_algos_gen4.c **** 				pB->total_periods_elapsed,
 334:Drivers/BSP/Components/vl53l1cb/modules/vl53l1_hist_algos_gen4.c **** 				pB->result__dss_actual_effective_spads,
 335:Drivers/BSP/Components/vl53l1cb/modules/vl53l1_hist_algos_gen4.c **** 				prange_data,
 336:Drivers/BSP/Components/vl53l1cb/modules/vl53l1_hist_algos_gen4.c **** 				histo_merge_nb);
 337:Drivers/BSP/Components/vl53l1cb/modules/vl53l1_hist_algos_gen4.c **** 
 338:Drivers/BSP/Components/vl53l1cb/modules/vl53l1_hist_algos_gen4.c **** 			if (status == VL53L1_ERROR_NONE)
 339:Drivers/BSP/Components/vl53l1cb/modules/vl53l1_hist_algos_gen4.c **** 				VL53L1_f_012(
 340:Drivers/BSP/Components/vl53l1cb/modules/vl53l1_hist_algos_gen4.c **** 					ppost_cfg->gain_factor,
 341:Drivers/BSP/Components/vl53l1cb/modules/vl53l1_hist_algos_gen4.c **** 					ppost_cfg->range_offset_mm,
 342:Drivers/BSP/Components/vl53l1cb/modules/vl53l1_hist_algos_gen4.c **** 					prange_data);
 343:Drivers/BSP/Components/vl53l1cb/modules/vl53l1_hist_algos_gen4.c **** 
 344:Drivers/BSP/Components/vl53l1cb/modules/vl53l1_hist_algos_gen4.c **** 			presults->active_results++;
 345:Drivers/BSP/Components/vl53l1cb/modules/vl53l1_hist_algos_gen4.c **** 		}
 346:Drivers/BSP/Components/vl53l1cb/modules/vl53l1_hist_algos_gen4.c **** 
 347:Drivers/BSP/Components/vl53l1cb/modules/vl53l1_hist_algos_gen4.c **** 	}
 348:Drivers/BSP/Components/vl53l1cb/modules/vl53l1_hist_algos_gen4.c **** 
 349:Drivers/BSP/Components/vl53l1cb/modules/vl53l1_hist_algos_gen4.c **** 
 350:Drivers/BSP/Components/vl53l1cb/modules/vl53l1_hist_algos_gen4.c **** 
 351:Drivers/BSP/Components/vl53l1cb/modules/vl53l1_hist_algos_gen4.c **** 	LOG_FUNCTION_END(status);
ARM GAS  C:\Temp\cc7HZbxb.s 			page 9


 352:Drivers/BSP/Components/vl53l1cb/modules/vl53l1_hist_algos_gen4.c **** 
 353:Drivers/BSP/Components/vl53l1cb/modules/vl53l1_hist_algos_gen4.c **** 	return status;
 354:Drivers/BSP/Components/vl53l1cb/modules/vl53l1_hist_algos_gen4.c **** }
 355:Drivers/BSP/Components/vl53l1cb/modules/vl53l1_hist_algos_gen4.c **** 
 356:Drivers/BSP/Components/vl53l1cb/modules/vl53l1_hist_algos_gen4.c **** 
 357:Drivers/BSP/Components/vl53l1cb/modules/vl53l1_hist_algos_gen4.c **** 
 358:Drivers/BSP/Components/vl53l1cb/modules/vl53l1_hist_algos_gen4.c **** VL53L1_Error VL53L1_f_034(
 359:Drivers/BSP/Components/vl53l1cb/modules/vl53l1_hist_algos_gen4.c **** 	uint8_t                                pulse_no,
 360:Drivers/BSP/Components/vl53l1cb/modules/vl53l1_hist_algos_gen4.c **** 	VL53L1_histogram_bin_data_t           *ppulse,
 361:Drivers/BSP/Components/vl53l1cb/modules/vl53l1_hist_algos_gen4.c **** 	VL53L1_hist_gen3_algo_private_data_t  *palgo3,
 362:Drivers/BSP/Components/vl53l1cb/modules/vl53l1_hist_algos_gen4.c **** 	VL53L1_hist_gen4_algo_filtered_data_t *pfiltered)
 363:Drivers/BSP/Components/vl53l1cb/modules/vl53l1_hist_algos_gen4.c **** {
 106              		.loc 1 363 1 is_stmt 1 view -0
 107              		.cfi_startproc
 108              		@ args = 0, pretend = 0, frame = 16
 109              		@ frame_needed = 0, uses_anonymous_args = 0
 110              		.loc 1 363 1 is_stmt 0 view .LVU27
 111 0000 2DE9F043 		push	{r4, r5, r6, r7, r8, r9, lr}
 112              		.cfi_def_cfa_offset 28
 113              		.cfi_offset 4, -28
 114              		.cfi_offset 5, -24
 115              		.cfi_offset 6, -20
 116              		.cfi_offset 7, -16
 117              		.cfi_offset 8, -12
 118              		.cfi_offset 9, -8
 119              		.cfi_offset 14, -4
 120 0004 87B0     		sub	sp, sp, #28
 121              		.cfi_def_cfa_offset 56
 122 0006 8046     		mov	r8, r0
 123 0008 8946     		mov	r9, r1
 124 000a 1646     		mov	r6, r2
 125 000c 1F46     		mov	r7, r3
 364:Drivers/BSP/Components/vl53l1cb/modules/vl53l1_hist_algos_gen4.c **** 
 365:Drivers/BSP/Components/vl53l1cb/modules/vl53l1_hist_algos_gen4.c **** 
 366:Drivers/BSP/Components/vl53l1cb/modules/vl53l1_hist_algos_gen4.c **** 
 367:Drivers/BSP/Components/vl53l1cb/modules/vl53l1_hist_algos_gen4.c **** 
 368:Drivers/BSP/Components/vl53l1cb/modules/vl53l1_hist_algos_gen4.c **** 	VL53L1_Error  status       = VL53L1_ERROR_NONE;
 126              		.loc 1 368 2 is_stmt 1 view .LVU28
 127              	.LVL5:
 369:Drivers/BSP/Components/vl53l1cb/modules/vl53l1_hist_algos_gen4.c **** 
 370:Drivers/BSP/Components/vl53l1cb/modules/vl53l1_hist_algos_gen4.c **** 	VL53L1_hist_pulse_data_t *pdata = &(palgo3->VL53L1_p_002[pulse_no]);
 128              		.loc 1 370 2 view .LVU29
 371:Drivers/BSP/Components/vl53l1cb/modules/vl53l1_hist_algos_gen4.c **** 
 372:Drivers/BSP/Components/vl53l1cb/modules/vl53l1_hist_algos_gen4.c **** 	uint8_t  lb     = 0;
 129              		.loc 1 372 2 view .LVU30
 373:Drivers/BSP/Components/vl53l1cb/modules/vl53l1_hist_algos_gen4.c **** 	uint8_t  i     = 0;
 130              		.loc 1 373 2 view .LVU31
 374:Drivers/BSP/Components/vl53l1cb/modules/vl53l1_hist_algos_gen4.c **** 	int32_t  suma  = 0;
 131              		.loc 1 374 2 view .LVU32
 132              		.loc 1 374 11 is_stmt 0 view .LVU33
 133 000e 0023     		movs	r3, #0
 134              	.LVL6:
 135              		.loc 1 374 11 view .LVU34
 136 0010 0593     		str	r3, [sp, #20]
 375:Drivers/BSP/Components/vl53l1cb/modules/vl53l1_hist_algos_gen4.c **** 	int32_t  sumb  = 0;
 137              		.loc 1 375 2 is_stmt 1 view .LVU35
 138              		.loc 1 375 11 is_stmt 0 view .LVU36
ARM GAS  C:\Temp\cc7HZbxb.s 			page 10


 139 0012 0493     		str	r3, [sp, #16]
 376:Drivers/BSP/Components/vl53l1cb/modules/vl53l1_hist_algos_gen4.c **** 	int32_t  sumc  = 0;
 140              		.loc 1 376 2 is_stmt 1 view .LVU37
 141              		.loc 1 376 11 is_stmt 0 view .LVU38
 142 0014 0393     		str	r3, [sp, #12]
 377:Drivers/BSP/Components/vl53l1cb/modules/vl53l1_hist_algos_gen4.c **** 
 378:Drivers/BSP/Components/vl53l1cb/modules/vl53l1_hist_algos_gen4.c **** 	LOG_FUNCTION_START("");
 143              		.loc 1 378 24 is_stmt 1 view .LVU39
 379:Drivers/BSP/Components/vl53l1cb/modules/vl53l1_hist_algos_gen4.c **** 
 380:Drivers/BSP/Components/vl53l1cb/modules/vl53l1_hist_algos_gen4.c **** 	pfiltered->VL53L1_p_023    = palgo3->VL53L1_p_023;
 144              		.loc 1 380 2 view .LVU40
 145              		.loc 1 380 37 is_stmt 0 view .LVU41
 146 0016 5378     		ldrb	r3, [r2, #1]	@ zero_extendqisi2
 147              		.loc 1 380 29 view .LVU42
 148 0018 7B70     		strb	r3, [r7, #1]
 381:Drivers/BSP/Components/vl53l1cb/modules/vl53l1_hist_algos_gen4.c **** 	pfiltered->VL53L1_p_022      = palgo3->VL53L1_p_022;
 149              		.loc 1 381 2 is_stmt 1 view .LVU43
 150              		.loc 1 381 39 is_stmt 0 view .LVU44
 151 001a 1378     		ldrb	r3, [r2]	@ zero_extendqisi2
 152              		.loc 1 381 31 view .LVU45
 153 001c 3B70     		strb	r3, [r7]
 382:Drivers/BSP/Components/vl53l1cb/modules/vl53l1_hist_algos_gen4.c **** 	pfiltered->VL53L1_p_024 = palgo3->VL53L1_p_024;
 154              		.loc 1 382 2 is_stmt 1 view .LVU46
 155              		.loc 1 382 34 is_stmt 0 view .LVU47
 156 001e 9378     		ldrb	r3, [r2, #2]	@ zero_extendqisi2
 157              		.loc 1 382 26 view .LVU48
 158 0020 BB70     		strb	r3, [r7, #2]
 383:Drivers/BSP/Components/vl53l1cb/modules/vl53l1_hist_algos_gen4.c **** 
 384:Drivers/BSP/Components/vl53l1cb/modules/vl53l1_hist_algos_gen4.c **** 
 385:Drivers/BSP/Components/vl53l1cb/modules/vl53l1_hist_algos_gen4.c **** 
 386:Drivers/BSP/Components/vl53l1cb/modules/vl53l1_hist_algos_gen4.c **** 	for (lb = pdata->VL53L1_p_015; lb <= pdata->VL53L1_p_016; lb++) {
 159              		.loc 1 386 2 is_stmt 1 view .LVU49
 160              		.loc 1 386 10 is_stmt 0 view .LVU50
 161 0022 00EBC003 		add	r3, r0, r0, lsl #3
 162 0026 02EB8303 		add	r3, r2, r3, lsl #2
 163 002a 93F87C51 		ldrb	r5, [r3, #380]	@ zero_extendqisi2
 164              	.LVL7:
 165              		.loc 1 386 2 view .LVU51
 166 002e 3AE0     		b	.L5
 167              	.LVL8:
 168              	.L6:
 387:Drivers/BSP/Components/vl53l1cb/modules/vl53l1_hist_algos_gen4.c **** 
 388:Drivers/BSP/Components/vl53l1cb/modules/vl53l1_hist_algos_gen4.c **** 		i =  lb  % palgo3->VL53L1_p_031;
 169              		.loc 1 388 3 is_stmt 1 discriminator 3 view .LVU52
 170              		.loc 1 388 20 is_stmt 0 discriminator 3 view .LVU53
 171 0030 F378     		ldrb	r3, [r6, #3]	@ zero_extendqisi2
 172              		.loc 1 388 5 discriminator 3 view .LVU54
 173 0032 B5FBF3F4 		udiv	r4, r5, r3
 174 0036 03FB1454 		mls	r4, r3, r4, r5
 175 003a E4B2     		uxtb	r4, r4
 176              	.LVL9:
 389:Drivers/BSP/Components/vl53l1cb/modules/vl53l1_hist_algos_gen4.c **** 
 390:Drivers/BSP/Components/vl53l1cb/modules/vl53l1_hist_algos_gen4.c **** 
 391:Drivers/BSP/Components/vl53l1cb/modules/vl53l1_hist_algos_gen4.c **** 		VL53L1_f_013(
 177              		.loc 1 391 3 is_stmt 1 discriminator 3 view .LVU55
 178 003c 08EBC803 		add	r3, r8, r8, lsl #3
 179 0040 06EB8303 		add	r3, r6, r3, lsl #2
ARM GAS  C:\Temp\cc7HZbxb.s 			page 11


 180 0044 93F88211 		ldrb	r1, [r3, #386]	@ zero_extendqisi2
 181 0048 03AB     		add	r3, sp, #12
 182 004a 0193     		str	r3, [sp, #4]
 183 004c 04AB     		add	r3, sp, #16
 184 004e 0093     		str	r3, [sp]
 185 0050 05AB     		add	r3, sp, #20
 186 0052 4A46     		mov	r2, r9
 187 0054 2046     		mov	r0, r4
 188 0056 FFF7FEFF 		bl	VL53L1_f_013
 189              	.LVL10:
 392:Drivers/BSP/Components/vl53l1cb/modules/vl53l1_hist_algos_gen4.c **** 				i,
 393:Drivers/BSP/Components/vl53l1cb/modules/vl53l1_hist_algos_gen4.c **** 				pdata->VL53L1_p_055,
 394:Drivers/BSP/Components/vl53l1cb/modules/vl53l1_hist_algos_gen4.c **** 				ppulse,
 395:Drivers/BSP/Components/vl53l1cb/modules/vl53l1_hist_algos_gen4.c **** 				&suma,
 396:Drivers/BSP/Components/vl53l1cb/modules/vl53l1_hist_algos_gen4.c **** 				&sumb,
 397:Drivers/BSP/Components/vl53l1cb/modules/vl53l1_hist_algos_gen4.c **** 				&sumc);
 398:Drivers/BSP/Components/vl53l1cb/modules/vl53l1_hist_algos_gen4.c **** 
 399:Drivers/BSP/Components/vl53l1cb/modules/vl53l1_hist_algos_gen4.c **** 
 400:Drivers/BSP/Components/vl53l1cb/modules/vl53l1_hist_algos_gen4.c **** 		pfiltered->VL53L1_p_003[i] = suma;
 190              		.loc 1 400 3 discriminator 3 view .LVU56
 191              		.loc 1 400 30 is_stmt 0 discriminator 3 view .LVU57
 192 005a 059A     		ldr	r2, [sp, #20]
 193 005c 07EB8403 		add	r3, r7, r4, lsl #2
 194 0060 5A60     		str	r2, [r3, #4]
 401:Drivers/BSP/Components/vl53l1cb/modules/vl53l1_hist_algos_gen4.c **** 		pfiltered->VL53L1_p_018[i] = sumb;
 195              		.loc 1 401 3 is_stmt 1 discriminator 3 view .LVU58
 196              		.loc 1 401 30 is_stmt 0 discriminator 3 view .LVU59
 197 0062 049B     		ldr	r3, [sp, #16]
 198 0064 04F11801 		add	r1, r4, #24
 199 0068 07EB8101 		add	r1, r7, r1, lsl #2
 200 006c 4B60     		str	r3, [r1, #4]
 402:Drivers/BSP/Components/vl53l1cb/modules/vl53l1_hist_algos_gen4.c **** 		pfiltered->VL53L1_p_001[i] = sumc;
 201              		.loc 1 402 3 is_stmt 1 discriminator 3 view .LVU60
 202              		.loc 1 402 30 is_stmt 0 discriminator 3 view .LVU61
 203 006e 0399     		ldr	r1, [sp, #12]
 204 0070 04F13000 		add	r0, r4, #48
 205 0074 07EB8000 		add	r0, r7, r0, lsl #2
 206 0078 4160     		str	r1, [r0, #4]
 403:Drivers/BSP/Components/vl53l1cb/modules/vl53l1_hist_algos_gen4.c **** 
 404:Drivers/BSP/Components/vl53l1cb/modules/vl53l1_hist_algos_gen4.c **** 
 405:Drivers/BSP/Components/vl53l1cb/modules/vl53l1_hist_algos_gen4.c **** 
 406:Drivers/BSP/Components/vl53l1cb/modules/vl53l1_hist_algos_gen4.c **** 		pfiltered->VL53L1_p_039[i] =
 207              		.loc 1 406 3 is_stmt 1 discriminator 3 view .LVU62
 407:Drivers/BSP/Components/vl53l1cb/modules/vl53l1_hist_algos_gen4.c **** 			(suma + sumb) -
 208              		.loc 1 407 10 is_stmt 0 discriminator 3 view .LVU63
 209 007a 02EB030C 		add	ip, r2, r3
 408:Drivers/BSP/Components/vl53l1cb/modules/vl53l1_hist_algos_gen4.c **** 			(sumc + palgo3->VL53L1_p_004);
 210              		.loc 1 408 18 discriminator 3 view .LVU64
 211 007e B068     		ldr	r0, [r6, #8]
 212              		.loc 1 408 10 discriminator 3 view .LVU65
 213 0080 0844     		add	r0, r0, r1
 407:Drivers/BSP/Components/vl53l1cb/modules/vl53l1_hist_algos_gen4.c **** 			(suma + sumb) -
 214              		.loc 1 407 18 discriminator 3 view .LVU66
 215 0082 ACEB000C 		sub	ip, ip, r0
 406:Drivers/BSP/Components/vl53l1cb/modules/vl53l1_hist_algos_gen4.c **** 			(suma + sumb) -
 216              		.loc 1 406 30 discriminator 3 view .LVU67
 217 0086 04F14800 		add	r0, r4, #72
ARM GAS  C:\Temp\cc7HZbxb.s 			page 12


 218 008a 07EB8000 		add	r0, r7, r0, lsl #2
 219 008e C0F804C0 		str	ip, [r0, #4]
 409:Drivers/BSP/Components/vl53l1cb/modules/vl53l1_hist_algos_gen4.c **** 
 410:Drivers/BSP/Components/vl53l1cb/modules/vl53l1_hist_algos_gen4.c **** 
 411:Drivers/BSP/Components/vl53l1cb/modules/vl53l1_hist_algos_gen4.c **** 
 412:Drivers/BSP/Components/vl53l1cb/modules/vl53l1_hist_algos_gen4.c **** 		pfiltered->VL53L1_p_040[i] =
 220              		.loc 1 412 3 is_stmt 1 discriminator 3 view .LVU68
 413:Drivers/BSP/Components/vl53l1cb/modules/vl53l1_hist_algos_gen4.c **** 			(sumb + sumc) -
 221              		.loc 1 413 10 is_stmt 0 discriminator 3 view .LVU69
 222 0092 0B44     		add	r3, r3, r1
 414:Drivers/BSP/Components/vl53l1cb/modules/vl53l1_hist_algos_gen4.c **** 			(suma + palgo3->VL53L1_p_004);
 223              		.loc 1 414 18 discriminator 3 view .LVU70
 224 0094 B168     		ldr	r1, [r6, #8]
 225              		.loc 1 414 10 discriminator 3 view .LVU71
 226 0096 0A44     		add	r2, r2, r1
 413:Drivers/BSP/Components/vl53l1cb/modules/vl53l1_hist_algos_gen4.c **** 			(sumb + sumc) -
 227              		.loc 1 413 18 discriminator 3 view .LVU72
 228 0098 9B1A     		subs	r3, r3, r2
 412:Drivers/BSP/Components/vl53l1cb/modules/vl53l1_hist_algos_gen4.c **** 			(sumb + sumc) -
 229              		.loc 1 412 30 discriminator 3 view .LVU73
 230 009a 6034     		adds	r4, r4, #96
 231              	.LVL11:
 412:Drivers/BSP/Components/vl53l1cb/modules/vl53l1_hist_algos_gen4.c **** 			(sumb + sumc) -
 232              		.loc 1 412 30 discriminator 3 view .LVU74
 233 009c 07EB8404 		add	r4, r7, r4, lsl #2
 234              	.LVL12:
 412:Drivers/BSP/Components/vl53l1cb/modules/vl53l1_hist_algos_gen4.c **** 			(sumb + sumc) -
 235              		.loc 1 412 30 discriminator 3 view .LVU75
 236 00a0 6360     		str	r3, [r4, #4]
 386:Drivers/BSP/Components/vl53l1cb/modules/vl53l1_hist_algos_gen4.c **** 
 237              		.loc 1 386 62 is_stmt 1 discriminator 3 view .LVU76
 238 00a2 0135     		adds	r5, r5, #1
 239              	.LVL13:
 386:Drivers/BSP/Components/vl53l1cb/modules/vl53l1_hist_algos_gen4.c **** 
 240              		.loc 1 386 62 is_stmt 0 discriminator 3 view .LVU77
 241 00a4 EDB2     		uxtb	r5, r5
 242              	.LVL14:
 243              	.L5:
 386:Drivers/BSP/Components/vl53l1cb/modules/vl53l1_hist_algos_gen4.c **** 
 244              		.loc 1 386 36 is_stmt 1 discriminator 1 view .LVU78
 386:Drivers/BSP/Components/vl53l1cb/modules/vl53l1_hist_algos_gen4.c **** 
 245              		.loc 1 386 44 is_stmt 0 discriminator 1 view .LVU79
 246 00a6 08EBC803 		add	r3, r8, r8, lsl #3
 247 00aa 06EB8303 		add	r3, r6, r3, lsl #2
 248 00ae 93F88031 		ldrb	r3, [r3, #384]	@ zero_extendqisi2
 386:Drivers/BSP/Components/vl53l1cb/modules/vl53l1_hist_algos_gen4.c **** 
 249              		.loc 1 386 36 discriminator 1 view .LVU80
 250 00b2 AB42     		cmp	r3, r5
 251 00b4 BCD2     		bcs	.L6
 415:Drivers/BSP/Components/vl53l1cb/modules/vl53l1_hist_algos_gen4.c **** 	}
 416:Drivers/BSP/Components/vl53l1cb/modules/vl53l1_hist_algos_gen4.c **** 
 417:Drivers/BSP/Components/vl53l1cb/modules/vl53l1_hist_algos_gen4.c **** 	return status;
 252              		.loc 1 417 2 is_stmt 1 view .LVU81
 418:Drivers/BSP/Components/vl53l1cb/modules/vl53l1_hist_algos_gen4.c **** }
 253              		.loc 1 418 1 is_stmt 0 view .LVU82
 254 00b6 0020     		movs	r0, #0
 255 00b8 07B0     		add	sp, sp, #28
ARM GAS  C:\Temp\cc7HZbxb.s 			page 13


 256              		.cfi_def_cfa_offset 28
 257              		@ sp needed
 258 00ba BDE8F083 		pop	{r4, r5, r6, r7, r8, r9, pc}
 259              		.loc 1 418 1 view .LVU83
 260              		.cfi_endproc
 261              	.LFE5:
 263              		.global	__aeabi_ldivmod
 264              		.section	.text.VL53L1_f_036,"ax",%progbits
 265              		.align	1
 266              		.global	VL53L1_f_036
 267              		.syntax unified
 268              		.thumb
 269              		.thumb_func
 271              	VL53L1_f_036:
 272              	.LVL15:
 273              	.LFB7:
 419:Drivers/BSP/Components/vl53l1cb/modules/vl53l1_hist_algos_gen4.c **** 
 420:Drivers/BSP/Components/vl53l1cb/modules/vl53l1_hist_algos_gen4.c **** 
 421:Drivers/BSP/Components/vl53l1cb/modules/vl53l1_hist_algos_gen4.c **** VL53L1_Error VL53L1_f_035(
 422:Drivers/BSP/Components/vl53l1cb/modules/vl53l1_hist_algos_gen4.c **** 	uint8_t                                pulse_no,
 423:Drivers/BSP/Components/vl53l1cb/modules/vl53l1_hist_algos_gen4.c **** 	uint16_t                               noise_threshold,
 424:Drivers/BSP/Components/vl53l1cb/modules/vl53l1_hist_algos_gen4.c **** 	VL53L1_hist_gen4_algo_filtered_data_t *pfiltered,
 425:Drivers/BSP/Components/vl53l1cb/modules/vl53l1_hist_algos_gen4.c **** 	VL53L1_hist_gen3_algo_private_data_t  *palgo3)
 426:Drivers/BSP/Components/vl53l1cb/modules/vl53l1_hist_algos_gen4.c **** {
 427:Drivers/BSP/Components/vl53l1cb/modules/vl53l1_hist_algos_gen4.c **** 
 428:Drivers/BSP/Components/vl53l1cb/modules/vl53l1_hist_algos_gen4.c **** 
 429:Drivers/BSP/Components/vl53l1cb/modules/vl53l1_hist_algos_gen4.c **** 
 430:Drivers/BSP/Components/vl53l1cb/modules/vl53l1_hist_algos_gen4.c **** 	VL53L1_Error  status       = VL53L1_ERROR_NONE;
 431:Drivers/BSP/Components/vl53l1cb/modules/vl53l1_hist_algos_gen4.c **** 	VL53L1_Error  func_status  = VL53L1_ERROR_NONE;
 432:Drivers/BSP/Components/vl53l1cb/modules/vl53l1_hist_algos_gen4.c **** 
 433:Drivers/BSP/Components/vl53l1cb/modules/vl53l1_hist_algos_gen4.c **** 	VL53L1_hist_pulse_data_t *pdata = &(palgo3->VL53L1_p_002[pulse_no]);
 434:Drivers/BSP/Components/vl53l1cb/modules/vl53l1_hist_algos_gen4.c **** 
 435:Drivers/BSP/Components/vl53l1cb/modules/vl53l1_hist_algos_gen4.c **** 	uint8_t  lb            = 0;
 436:Drivers/BSP/Components/vl53l1cb/modules/vl53l1_hist_algos_gen4.c **** 	uint8_t  i            = 0;
 437:Drivers/BSP/Components/vl53l1cb/modules/vl53l1_hist_algos_gen4.c **** 	uint8_t  j            = 0;
 438:Drivers/BSP/Components/vl53l1cb/modules/vl53l1_hist_algos_gen4.c **** 
 439:Drivers/BSP/Components/vl53l1cb/modules/vl53l1_hist_algos_gen4.c **** 	SUPPRESS_UNUSED_WARNING(noise_threshold);
 440:Drivers/BSP/Components/vl53l1cb/modules/vl53l1_hist_algos_gen4.c **** 
 441:Drivers/BSP/Components/vl53l1cb/modules/vl53l1_hist_algos_gen4.c **** 	for (lb = pdata->VL53L1_p_015; lb < pdata->VL53L1_p_016; lb++) {
 442:Drivers/BSP/Components/vl53l1cb/modules/vl53l1_hist_algos_gen4.c **** 
 443:Drivers/BSP/Components/vl53l1cb/modules/vl53l1_hist_algos_gen4.c **** 		i =  lb    % palgo3->VL53L1_p_031;
 444:Drivers/BSP/Components/vl53l1cb/modules/vl53l1_hist_algos_gen4.c **** 		j = (lb+1) % palgo3->VL53L1_p_031;
 445:Drivers/BSP/Components/vl53l1cb/modules/vl53l1_hist_algos_gen4.c **** 
 446:Drivers/BSP/Components/vl53l1cb/modules/vl53l1_hist_algos_gen4.c **** 		if (i < palgo3->VL53L1_p_024 &&
 447:Drivers/BSP/Components/vl53l1cb/modules/vl53l1_hist_algos_gen4.c **** 			j < palgo3->VL53L1_p_024) {
 448:Drivers/BSP/Components/vl53l1cb/modules/vl53l1_hist_algos_gen4.c **** 
 449:Drivers/BSP/Components/vl53l1cb/modules/vl53l1_hist_algos_gen4.c **** 			if (pfiltered->VL53L1_p_039[i] == 0 &&
 450:Drivers/BSP/Components/vl53l1cb/modules/vl53l1_hist_algos_gen4.c **** 				pfiltered->VL53L1_p_040[i] == 0)
 451:Drivers/BSP/Components/vl53l1cb/modules/vl53l1_hist_algos_gen4.c **** 
 452:Drivers/BSP/Components/vl53l1cb/modules/vl53l1_hist_algos_gen4.c **** 				pfiltered->VL53L1_p_043[i] = 0;
 453:Drivers/BSP/Components/vl53l1cb/modules/vl53l1_hist_algos_gen4.c **** 
 454:Drivers/BSP/Components/vl53l1cb/modules/vl53l1_hist_algos_gen4.c **** 			else if (pfiltered->VL53L1_p_039[i] >= 0 &&
 455:Drivers/BSP/Components/vl53l1cb/modules/vl53l1_hist_algos_gen4.c **** 					 pfiltered->VL53L1_p_040[i] >= 0)
 456:Drivers/BSP/Components/vl53l1cb/modules/vl53l1_hist_algos_gen4.c **** 				pfiltered->VL53L1_p_043[i] = 1;
 457:Drivers/BSP/Components/vl53l1cb/modules/vl53l1_hist_algos_gen4.c **** 
 458:Drivers/BSP/Components/vl53l1cb/modules/vl53l1_hist_algos_gen4.c **** 			else if (pfiltered->VL53L1_p_039[i] <  0 &&
 459:Drivers/BSP/Components/vl53l1cb/modules/vl53l1_hist_algos_gen4.c **** 					 pfiltered->VL53L1_p_040[i] >= 0 &&
ARM GAS  C:\Temp\cc7HZbxb.s 			page 14


 460:Drivers/BSP/Components/vl53l1cb/modules/vl53l1_hist_algos_gen4.c **** 					 pfiltered->VL53L1_p_039[j] >= 0 &&
 461:Drivers/BSP/Components/vl53l1cb/modules/vl53l1_hist_algos_gen4.c **** 					 pfiltered->VL53L1_p_040[j] <  0)
 462:Drivers/BSP/Components/vl53l1cb/modules/vl53l1_hist_algos_gen4.c **** 				pfiltered->VL53L1_p_043[i] = 1;
 463:Drivers/BSP/Components/vl53l1cb/modules/vl53l1_hist_algos_gen4.c **** 
 464:Drivers/BSP/Components/vl53l1cb/modules/vl53l1_hist_algos_gen4.c **** 			else
 465:Drivers/BSP/Components/vl53l1cb/modules/vl53l1_hist_algos_gen4.c **** 				pfiltered->VL53L1_p_043[i] = 0;
 466:Drivers/BSP/Components/vl53l1cb/modules/vl53l1_hist_algos_gen4.c **** 
 467:Drivers/BSP/Components/vl53l1cb/modules/vl53l1_hist_algos_gen4.c **** 
 468:Drivers/BSP/Components/vl53l1cb/modules/vl53l1_hist_algos_gen4.c **** 			if (pfiltered->VL53L1_p_043[i] > 0) {
 469:Drivers/BSP/Components/vl53l1cb/modules/vl53l1_hist_algos_gen4.c **** 
 470:Drivers/BSP/Components/vl53l1cb/modules/vl53l1_hist_algos_gen4.c **** 				pdata->VL53L1_p_025 = lb;
 471:Drivers/BSP/Components/vl53l1cb/modules/vl53l1_hist_algos_gen4.c **** 
 472:Drivers/BSP/Components/vl53l1cb/modules/vl53l1_hist_algos_gen4.c **** 				func_status =
 473:Drivers/BSP/Components/vl53l1cb/modules/vl53l1_hist_algos_gen4.c **** 					VL53L1_f_036(
 474:Drivers/BSP/Components/vl53l1cb/modules/vl53l1_hist_algos_gen4.c **** 					lb,
 475:Drivers/BSP/Components/vl53l1cb/modules/vl53l1_hist_algos_gen4.c **** 					pfiltered->VL53L1_p_003[i],
 476:Drivers/BSP/Components/vl53l1cb/modules/vl53l1_hist_algos_gen4.c **** 					pfiltered->VL53L1_p_018[i],
 477:Drivers/BSP/Components/vl53l1cb/modules/vl53l1_hist_algos_gen4.c **** 					pfiltered->VL53L1_p_001[i],
 478:Drivers/BSP/Components/vl53l1cb/modules/vl53l1_hist_algos_gen4.c **** 					0,
 479:Drivers/BSP/Components/vl53l1cb/modules/vl53l1_hist_algos_gen4.c **** 					0,
 480:Drivers/BSP/Components/vl53l1cb/modules/vl53l1_hist_algos_gen4.c **** 					0,
 481:Drivers/BSP/Components/vl53l1cb/modules/vl53l1_hist_algos_gen4.c **** 					palgo3->VL53L1_p_004,
 482:Drivers/BSP/Components/vl53l1cb/modules/vl53l1_hist_algos_gen4.c **** 					palgo3->VL53L1_p_031,
 483:Drivers/BSP/Components/vl53l1cb/modules/vl53l1_hist_algos_gen4.c **** 					&(pdata->VL53L1_p_014));
 484:Drivers/BSP/Components/vl53l1cb/modules/vl53l1_hist_algos_gen4.c **** 
 485:Drivers/BSP/Components/vl53l1cb/modules/vl53l1_hist_algos_gen4.c **** 				if (func_status ==
 486:Drivers/BSP/Components/vl53l1cb/modules/vl53l1_hist_algos_gen4.c **** 					VL53L1_ERROR_DIVISION_BY_ZERO)
 487:Drivers/BSP/Components/vl53l1cb/modules/vl53l1_hist_algos_gen4.c **** 					pfiltered->VL53L1_p_043[i] = 0;
 488:Drivers/BSP/Components/vl53l1cb/modules/vl53l1_hist_algos_gen4.c **** 
 489:Drivers/BSP/Components/vl53l1cb/modules/vl53l1_hist_algos_gen4.c **** 			}
 490:Drivers/BSP/Components/vl53l1cb/modules/vl53l1_hist_algos_gen4.c **** 		}
 491:Drivers/BSP/Components/vl53l1cb/modules/vl53l1_hist_algos_gen4.c **** 	}
 492:Drivers/BSP/Components/vl53l1cb/modules/vl53l1_hist_algos_gen4.c **** 
 493:Drivers/BSP/Components/vl53l1cb/modules/vl53l1_hist_algos_gen4.c **** 	return status;
 494:Drivers/BSP/Components/vl53l1cb/modules/vl53l1_hist_algos_gen4.c **** }
 495:Drivers/BSP/Components/vl53l1cb/modules/vl53l1_hist_algos_gen4.c **** 
 496:Drivers/BSP/Components/vl53l1cb/modules/vl53l1_hist_algos_gen4.c **** 
 497:Drivers/BSP/Components/vl53l1cb/modules/vl53l1_hist_algos_gen4.c **** VL53L1_Error VL53L1_f_036(
 498:Drivers/BSP/Components/vl53l1cb/modules/vl53l1_hist_algos_gen4.c **** 	uint8_t   bin,
 499:Drivers/BSP/Components/vl53l1cb/modules/vl53l1_hist_algos_gen4.c **** 	int32_t   VL53L1_p_003,
 500:Drivers/BSP/Components/vl53l1cb/modules/vl53l1_hist_algos_gen4.c **** 	int32_t   VL53L1_p_018,
 501:Drivers/BSP/Components/vl53l1cb/modules/vl53l1_hist_algos_gen4.c **** 	int32_t   VL53L1_p_001,
 502:Drivers/BSP/Components/vl53l1cb/modules/vl53l1_hist_algos_gen4.c **** 	int32_t   ax,
 503:Drivers/BSP/Components/vl53l1cb/modules/vl53l1_hist_algos_gen4.c **** 	int32_t   bx,
 504:Drivers/BSP/Components/vl53l1cb/modules/vl53l1_hist_algos_gen4.c **** 	int32_t   cx,
 505:Drivers/BSP/Components/vl53l1cb/modules/vl53l1_hist_algos_gen4.c **** 	int32_t   VL53L1_p_004,
 506:Drivers/BSP/Components/vl53l1cb/modules/vl53l1_hist_algos_gen4.c **** 	uint8_t   VL53L1_p_031,
 507:Drivers/BSP/Components/vl53l1cb/modules/vl53l1_hist_algos_gen4.c **** 	uint32_t *pmean_phase)
 508:Drivers/BSP/Components/vl53l1cb/modules/vl53l1_hist_algos_gen4.c **** {
 274              		.loc 1 508 1 is_stmt 1 view -0
 275              		.cfi_startproc
 276              		@ args = 24, pretend = 0, frame = 0
 277              		@ frame_needed = 0, uses_anonymous_args = 0
 278              		.loc 1 508 1 is_stmt 0 view .LVU85
 279 0000 2DE9F041 		push	{r4, r5, r6, r7, r8, lr}
 280              		.cfi_def_cfa_offset 24
 281              		.cfi_offset 4, -24
ARM GAS  C:\Temp\cc7HZbxb.s 			page 15


 282              		.cfi_offset 5, -20
 283              		.cfi_offset 6, -16
 284              		.cfi_offset 7, -12
 285              		.cfi_offset 8, -8
 286              		.cfi_offset 14, -4
 287 0004 0446     		mov	r4, r0
 288 0006 069F     		ldr	r7, [sp, #24]
 289 0008 079E     		ldr	r6, [sp, #28]
 290 000a DDF820C0 		ldr	ip, [sp, #32]
 291 000e 099D     		ldr	r5, [sp, #36]
 509:Drivers/BSP/Components/vl53l1cb/modules/vl53l1_hist_algos_gen4.c **** 
 510:Drivers/BSP/Components/vl53l1cb/modules/vl53l1_hist_algos_gen4.c **** 
 511:Drivers/BSP/Components/vl53l1cb/modules/vl53l1_hist_algos_gen4.c **** 	VL53L1_Error  status = VL53L1_ERROR_DIVISION_BY_ZERO;
 292              		.loc 1 511 2 is_stmt 1 view .LVU86
 293              	.LVL16:
 512:Drivers/BSP/Components/vl53l1cb/modules/vl53l1_hist_algos_gen4.c **** 
 513:Drivers/BSP/Components/vl53l1cb/modules/vl53l1_hist_algos_gen4.c **** 	int64_t  mean_phase  = VL53L1_MAX_ALLOWED_PHASE;
 294              		.loc 1 513 2 view .LVU87
 514:Drivers/BSP/Components/vl53l1cb/modules/vl53l1_hist_algos_gen4.c **** 	int32_t  mean_phase32;
 295              		.loc 1 514 2 view .LVU88
 515:Drivers/BSP/Components/vl53l1cb/modules/vl53l1_hist_algos_gen4.c **** 	int64_t  VL53L1_p_041   = 0;
 296              		.loc 1 515 2 view .LVU89
 516:Drivers/BSP/Components/vl53l1cb/modules/vl53l1_hist_algos_gen4.c **** 	int64_t  half_b_minus_amb = 0;
 297              		.loc 1 516 2 view .LVU90
 517:Drivers/BSP/Components/vl53l1cb/modules/vl53l1_hist_algos_gen4.c **** 
 518:Drivers/BSP/Components/vl53l1cb/modules/vl53l1_hist_algos_gen4.c **** 
 519:Drivers/BSP/Components/vl53l1cb/modules/vl53l1_hist_algos_gen4.c **** 	VL53L1_p_041    = 4096 * ((int64_t)VL53L1_p_001 -
 298              		.loc 1 519 2 view .LVU91
 299              		.loc 1 519 28 is_stmt 0 view .LVU92
 300 0010 D817     		asrs	r0, r3, #31
 301              	.LVL17:
 302              		.loc 1 519 50 view .LVU93
 303 0012 B3EB0C03 		subs	r3, r3, ip
 304              	.LVL18:
 305              		.loc 1 519 50 view .LVU94
 306 0016 60EBEC70 		sbc	r0, r0, ip, asr #31
 520:Drivers/BSP/Components/vl53l1cb/modules/vl53l1_hist_algos_gen4.c **** 		(int64_t)cx - (int64_t)VL53L1_p_003 -  (int64_t)ax);
 307              		.loc 1 520 15 view .LVU95
 308 001a 5B1A     		subs	r3, r3, r1
 309 001c 60EBE171 		sbc	r1, r0, r1, asr #31
 310              	.LVL19:
 311              		.loc 1 520 39 view .LVU96
 312 0020 D81B     		subs	r0, r3, r7
 313 0022 61EBE771 		sbc	r1, r1, r7, asr #31
 314              	.LVL20:
 521:Drivers/BSP/Components/vl53l1cb/modules/vl53l1_hist_algos_gen4.c **** 	half_b_minus_amb  = 4096 * ((int64_t)VL53L1_p_018 -
 315              		.loc 1 521 2 is_stmt 1 view .LVU97
 316              		.loc 1 521 30 is_stmt 0 view .LVU98
 317 0026 4FEAE27C 		asr	ip, r2, #31
 318              		.loc 1 521 52 view .LVU99
 319 002a 921B     		subs	r2, r2, r6
 320              	.LVL21:
 321              		.loc 1 521 52 view .LVU100
 322 002c 6CEBE67C 		sbc	ip, ip, r6, asr #31
 522:Drivers/BSP/Components/vl53l1cb/modules/vl53l1_hist_algos_gen4.c **** 		(int64_t)bx - (int64_t)VL53L1_p_004);
 323              		.loc 1 522 17 view .LVU101
 324 0030 4FEAE578 		asr	r8, r5, #31
ARM GAS  C:\Temp\cc7HZbxb.s 			page 16


 325              		.loc 1 522 15 view .LVU102
 326 0034 561B     		subs	r6, r2, r5
 327 0036 6CEBE573 		sbc	r3, ip, r5, asr #31
 521:Drivers/BSP/Components/vl53l1cb/modules/vl53l1_hist_algos_gen4.c **** 	half_b_minus_amb  = 4096 * ((int64_t)VL53L1_p_018 -
 328              		.loc 1 521 20 view .LVU103
 329 003a 4FEA033E 		lsl	lr, r3, #12
 330 003e 4EEA165E 		orr	lr, lr, r6, lsr #20
 331              	.LVL22:
 523:Drivers/BSP/Components/vl53l1cb/modules/vl53l1_hist_algos_gen4.c **** 
 524:Drivers/BSP/Components/vl53l1cb/modules/vl53l1_hist_algos_gen4.c **** 	if (half_b_minus_amb != 0) {
 332              		.loc 1 524 2 is_stmt 1 view .LVU104
 333              		.loc 1 524 5 is_stmt 0 view .LVU105
 334 0042 C445     		cmp	ip, r8
 335 0044 08BF     		it	eq
 336 0046 AA42     		cmpeq	r2, r5
 337 0048 3CD0     		beq	.L11
 338 004a 3703     		lsls	r7, r6, #12
 339              	.LVL23:
 525:Drivers/BSP/Components/vl53l1cb/modules/vl53l1_hist_algos_gen4.c **** 		mean_phase = (4096 * VL53L1_p_041) + half_b_minus_amb;
 340              		.loc 1 525 3 is_stmt 1 view .LVU106
 341              		.loc 1 525 22 is_stmt 0 view .LVU107
 342 004c 0906     		lsls	r1, r1, #24
 343              	.LVL24:
 344              		.loc 1 525 22 view .LVU108
 345 004e 41EA1021 		orr	r1, r1, r0, lsr #8
 346 0052 0006     		lsls	r0, r0, #24
 347              	.LVL25:
 348              		.loc 1 525 14 view .LVU109
 349 0054 C019     		adds	r0, r0, r7
 350              	.LVL26:
 526:Drivers/BSP/Components/vl53l1cb/modules/vl53l1_hist_algos_gen4.c **** 		mean_phase = do_division_s(mean_phase, (half_b_minus_amb * 2));
 351              		.loc 1 526 3 is_stmt 1 view .LVU110
 352              		.loc 1 526 16 is_stmt 0 view .LVU111
 353 0056 4FEA4333 		lsl	r3, r3, #13
 354              		.loc 1 526 14 view .LVU112
 355 005a 4FEA4632 		lsl	r2, r6, #13
 356 005e 43EAD643 		orr	r3, r3, r6, lsr #19
 357 0062 41EB0E01 		adc	r1, r1, lr
 358              	.LVL27:
 359              		.loc 1 526 14 view .LVU113
 360 0066 FFF7FEFF 		bl	__aeabi_ldivmod
 361              	.LVL28:
 527:Drivers/BSP/Components/vl53l1cb/modules/vl53l1_hist_algos_gen4.c **** 		mean_phase += 2048;
 362              		.loc 1 527 3 is_stmt 1 view .LVU114
 363              		.loc 1 527 14 is_stmt 0 view .LVU115
 364 006a 10F50060 		adds	r0, r0, #2048
 365              	.LVL29:
 366              		.loc 1 527 14 view .LVU116
 367 006e 41F10001 		adc	r1, r1, #0
 368              	.LVL30:
 528:Drivers/BSP/Components/vl53l1cb/modules/vl53l1_hist_algos_gen4.c **** 		mean_phase += (4096 * (int64_t)bin);
 369              		.loc 1 528 3 is_stmt 1 view .LVU117
 370              		.loc 1 528 23 is_stmt 0 view .LVU118
 371 0072 2403     		lsls	r4, r4, #12
 372              		.loc 1 528 14 view .LVU119
 373 0074 2418     		adds	r4, r4, r0
 374 0076 41F10001 		adc	r1, r1, #0
ARM GAS  C:\Temp\cc7HZbxb.s 			page 17


 375              	.LVL31:
 529:Drivers/BSP/Components/vl53l1cb/modules/vl53l1_hist_algos_gen4.c **** 
 530:Drivers/BSP/Components/vl53l1cb/modules/vl53l1_hist_algos_gen4.c **** 		mean_phase  = do_division_s((mean_phase + 1), 2);
 376              		.loc 1 530 3 is_stmt 1 view .LVU120
 377              		.loc 1 530 17 is_stmt 0 view .LVU121
 378 007a 601C     		adds	r0, r4, #1
 379 007c 41F10002 		adc	r2, r1, #0
 380              		.loc 1 530 15 view .LVU122
 381 0080 D30F     		lsrs	r3, r2, #31
 382 0082 1B18     		adds	r3, r3, r0
 383 0084 42F10002 		adc	r2, r2, #0
 384 0088 5B08     		lsrs	r3, r3, #1
 385 008a 43EAC273 		orr	r3, r3, r2, lsl #31
 386              	.LVL32:
 531:Drivers/BSP/Components/vl53l1cb/modules/vl53l1_hist_algos_gen4.c **** 
 532:Drivers/BSP/Components/vl53l1cb/modules/vl53l1_hist_algos_gen4.c **** 		if (mean_phase  < 0)
 387              		.loc 1 532 3 is_stmt 1 view .LVU123
 388              		.loc 1 532 6 is_stmt 0 view .LVU124
 389 008e 14F1020F 		cmn	r4, #2
 390 0092 71F1FF32 		sbcs	r2, r1, #-1
 391              	.LVL33:
 392              		.loc 1 532 6 view .LVU125
 393 0096 08DB     		blt	.L12
 533:Drivers/BSP/Components/vl53l1cb/modules/vl53l1_hist_algos_gen4.c **** 			mean_phase = 0;
 534:Drivers/BSP/Components/vl53l1cb/modules/vl53l1_hist_algos_gen4.c **** 		if (mean_phase > VL53L1_MAX_ALLOWED_PHASE)
 394              		.loc 1 534 3 is_stmt 1 view .LVU126
 395              		.loc 1 534 6 is_stmt 0 view .LVU127
 396 0098 0D4A     		ldr	r2, .L15
 397 009a A242     		cmp	r2, r4
 398 009c 4FF00002 		mov	r2, #0
 399 00a0 8A41     		sbcs	r2, r2, r1
 400 00a2 03DA     		bge	.L10
 535:Drivers/BSP/Components/vl53l1cb/modules/vl53l1_hist_algos_gen4.c **** 			mean_phase = VL53L1_MAX_ALLOWED_PHASE;
 401              		.loc 1 535 15 view .LVU128
 402 00a4 4FF6FF73 		movw	r3, #65535
 403              	.LVL34:
 404              		.loc 1 535 15 view .LVU129
 405 00a8 00E0     		b	.L10
 406              	.LVL35:
 407              	.L12:
 533:Drivers/BSP/Components/vl53l1cb/modules/vl53l1_hist_algos_gen4.c **** 			mean_phase = 0;
 408              		.loc 1 533 15 view .LVU130
 409 00aa 0023     		movs	r3, #0
 410              	.LVL36:
 411              	.L10:
 536:Drivers/BSP/Components/vl53l1cb/modules/vl53l1_hist_algos_gen4.c **** 
 537:Drivers/BSP/Components/vl53l1cb/modules/vl53l1_hist_algos_gen4.c **** 		mean_phase32 = (int32_t)mean_phase;
 412              		.loc 1 537 3 is_stmt 1 view .LVU131
 538:Drivers/BSP/Components/vl53l1cb/modules/vl53l1_hist_algos_gen4.c **** 		mean_phase32 = mean_phase32 %
 413              		.loc 1 538 3 view .LVU132
 539:Drivers/BSP/Components/vl53l1cb/modules/vl53l1_hist_algos_gen4.c **** 			((int32_t)VL53L1_p_031 * 2048);
 414              		.loc 1 539 27 is_stmt 0 view .LVU133
 415 00ac 9DF82820 		ldrb	r2, [sp, #40]	@ zero_extendqisi2
 416 00b0 D202     		lsls	r2, r2, #11
 538:Drivers/BSP/Components/vl53l1cb/modules/vl53l1_hist_algos_gen4.c **** 		mean_phase32 = mean_phase32 %
 417              		.loc 1 538 16 view .LVU134
 418 00b2 93FBF2F1 		sdiv	r1, r3, r2
ARM GAS  C:\Temp\cc7HZbxb.s 			page 18


 419 00b6 02FB1133 		mls	r3, r2, r1, r3
 420              	.LVL37:
 540:Drivers/BSP/Components/vl53l1cb/modules/vl53l1_hist_algos_gen4.c **** 		mean_phase = mean_phase32;
 421              		.loc 1 540 3 is_stmt 1 view .LVU135
 541:Drivers/BSP/Components/vl53l1cb/modules/vl53l1_hist_algos_gen4.c **** 
 542:Drivers/BSP/Components/vl53l1cb/modules/vl53l1_hist_algos_gen4.c **** 		status = VL53L1_ERROR_NONE;
 422              		.loc 1 542 3 view .LVU136
 423              		.loc 1 542 10 is_stmt 0 view .LVU137
 424 00ba 0020     		movs	r0, #0
 425              	.LVL38:
 426              	.L9:
 543:Drivers/BSP/Components/vl53l1cb/modules/vl53l1_hist_algos_gen4.c **** 	}
 544:Drivers/BSP/Components/vl53l1cb/modules/vl53l1_hist_algos_gen4.c **** 
 545:Drivers/BSP/Components/vl53l1cb/modules/vl53l1_hist_algos_gen4.c **** 	*pmean_phase = (uint32_t)mean_phase;
 427              		.loc 1 545 2 is_stmt 1 view .LVU138
 428              		.loc 1 545 15 is_stmt 0 view .LVU139
 429 00bc 0B9A     		ldr	r2, [sp, #44]
 430 00be 1360     		str	r3, [r2]
 546:Drivers/BSP/Components/vl53l1cb/modules/vl53l1_hist_algos_gen4.c **** 
 547:Drivers/BSP/Components/vl53l1cb/modules/vl53l1_hist_algos_gen4.c **** 	return status;
 431              		.loc 1 547 2 is_stmt 1 view .LVU140
 548:Drivers/BSP/Components/vl53l1cb/modules/vl53l1_hist_algos_gen4.c **** }
 432              		.loc 1 548 1 is_stmt 0 view .LVU141
 433 00c0 BDE8F081 		pop	{r4, r5, r6, r7, r8, pc}
 434              	.LVL39:
 435              	.L11:
 513:Drivers/BSP/Components/vl53l1cb/modules/vl53l1_hist_algos_gen4.c **** 	int32_t  mean_phase32;
 436              		.loc 1 513 11 view .LVU142
 437 00c4 4FF6FF73 		movw	r3, #65535
 511:Drivers/BSP/Components/vl53l1cb/modules/vl53l1_hist_algos_gen4.c **** 
 438              		.loc 1 511 16 view .LVU143
 439 00c8 6FF00E00 		mvn	r0, #14
 440              	.LVL40:
 511:Drivers/BSP/Components/vl53l1cb/modules/vl53l1_hist_algos_gen4.c **** 
 441              		.loc 1 511 16 view .LVU144
 442 00cc F6E7     		b	.L9
 443              	.L16:
 444 00ce 00BF     		.align	2
 445              	.L15:
 446 00d0 FEFF0100 		.word	131070
 447              		.cfi_endproc
 448              	.LFE7:
 450              		.section	.text.VL53L1_f_035,"ax",%progbits
 451              		.align	1
 452              		.global	VL53L1_f_035
 453              		.syntax unified
 454              		.thumb
 455              		.thumb_func
 457              	VL53L1_f_035:
 458              	.LVL41:
 459              	.LFB6:
 426:Drivers/BSP/Components/vl53l1cb/modules/vl53l1_hist_algos_gen4.c **** 
 460              		.loc 1 426 1 is_stmt 1 view -0
 461              		.cfi_startproc
 462              		@ args = 0, pretend = 0, frame = 0
 463              		@ frame_needed = 0, uses_anonymous_args = 0
 426:Drivers/BSP/Components/vl53l1cb/modules/vl53l1_hist_algos_gen4.c **** 
ARM GAS  C:\Temp\cc7HZbxb.s 			page 19


 464              		.loc 1 426 1 is_stmt 0 view .LVU146
 465 0000 2DE9F041 		push	{r4, r5, r6, r7, r8, lr}
 466              		.cfi_def_cfa_offset 24
 467              		.cfi_offset 4, -24
 468              		.cfi_offset 5, -20
 469              		.cfi_offset 6, -16
 470              		.cfi_offset 7, -12
 471              		.cfi_offset 8, -8
 472              		.cfi_offset 14, -4
 473 0004 86B0     		sub	sp, sp, #24
 474              		.cfi_def_cfa_offset 48
 475 0006 0746     		mov	r7, r0
 476 0008 9046     		mov	r8, r2
 477 000a 1E46     		mov	r6, r3
 430:Drivers/BSP/Components/vl53l1cb/modules/vl53l1_hist_algos_gen4.c **** 	VL53L1_Error  func_status  = VL53L1_ERROR_NONE;
 478              		.loc 1 430 2 is_stmt 1 view .LVU147
 479              	.LVL42:
 431:Drivers/BSP/Components/vl53l1cb/modules/vl53l1_hist_algos_gen4.c **** 
 480              		.loc 1 431 2 view .LVU148
 433:Drivers/BSP/Components/vl53l1cb/modules/vl53l1_hist_algos_gen4.c **** 
 481              		.loc 1 433 2 view .LVU149
 435:Drivers/BSP/Components/vl53l1cb/modules/vl53l1_hist_algos_gen4.c **** 	uint8_t  i            = 0;
 482              		.loc 1 435 2 view .LVU150
 436:Drivers/BSP/Components/vl53l1cb/modules/vl53l1_hist_algos_gen4.c **** 	uint8_t  j            = 0;
 483              		.loc 1 436 2 view .LVU151
 437:Drivers/BSP/Components/vl53l1cb/modules/vl53l1_hist_algos_gen4.c **** 
 484              		.loc 1 437 2 view .LVU152
 439:Drivers/BSP/Components/vl53l1cb/modules/vl53l1_hist_algos_gen4.c **** 
 485              		.loc 1 439 2 view .LVU153
 441:Drivers/BSP/Components/vl53l1cb/modules/vl53l1_hist_algos_gen4.c **** 
 486              		.loc 1 441 2 view .LVU154
 441:Drivers/BSP/Components/vl53l1cb/modules/vl53l1_hist_algos_gen4.c **** 
 487              		.loc 1 441 10 is_stmt 0 view .LVU155
 488 000c 00EBC003 		add	r3, r0, r0, lsl #3
 489              	.LVL43:
 441:Drivers/BSP/Components/vl53l1cb/modules/vl53l1_hist_algos_gen4.c **** 
 490              		.loc 1 441 10 view .LVU156
 491 0010 06EB8303 		add	r3, r6, r3, lsl #2
 492 0014 93F87C41 		ldrb	r4, [r3, #380]	@ zero_extendqisi2
 493              	.LVL44:
 441:Drivers/BSP/Components/vl53l1cb/modules/vl53l1_hist_algos_gen4.c **** 
 494              		.loc 1 441 2 view .LVU157
 495 0018 1DE0     		b	.L18
 496              	.LVL45:
 497              	.L20:
 454:Drivers/BSP/Components/vl53l1cb/modules/vl53l1_hist_algos_gen4.c **** 					 pfiltered->VL53L1_p_040[i] >= 0)
 498              		.loc 1 454 9 is_stmt 1 view .LVU158
 454:Drivers/BSP/Components/vl53l1cb/modules/vl53l1_hist_algos_gen4.c **** 					 pfiltered->VL53L1_p_040[i] >= 0)
 499              		.loc 1 454 12 is_stmt 0 view .LVU159
 500 001a 002A     		cmp	r2, #0
 501 001c 0CDB     		blt	.L22
 455:Drivers/BSP/Components/vl53l1cb/modules/vl53l1_hist_algos_gen4.c **** 				pfiltered->VL53L1_p_043[i] = 1;
 502              		.loc 1 455 30 discriminator 1 view .LVU160
 503 001e 05F16001 		add	r1, r5, #96
 504 0022 08EB8101 		add	r1, r8, r1, lsl #2
 505 0026 4968     		ldr	r1, [r1, #4]
 454:Drivers/BSP/Components/vl53l1cb/modules/vl53l1_hist_algos_gen4.c **** 					 pfiltered->VL53L1_p_040[i] >= 0)
ARM GAS  C:\Temp\cc7HZbxb.s 			page 20


 506              		.loc 1 454 45 discriminator 1 view .LVU161
 507 0028 0029     		cmp	r1, #0
 508 002a 05DB     		blt	.L22
 456:Drivers/BSP/Components/vl53l1cb/modules/vl53l1_hist_algos_gen4.c **** 
 509              		.loc 1 456 5 is_stmt 1 view .LVU162
 456:Drivers/BSP/Components/vl53l1cb/modules/vl53l1_hist_algos_gen4.c **** 
 510              		.loc 1 456 32 is_stmt 0 view .LVU163
 511 002c 08EB0503 		add	r3, r8, r5
 512              	.LVL46:
 456:Drivers/BSP/Components/vl53l1cb/modules/vl53l1_hist_algos_gen4.c **** 
 513              		.loc 1 456 32 view .LVU164
 514 0030 0122     		movs	r2, #1
 515 0032 83F8E421 		strb	r2, [r3, #484]
 516              	.LVL47:
 456:Drivers/BSP/Components/vl53l1cb/modules/vl53l1_hist_algos_gen4.c **** 
 517              		.loc 1 456 32 view .LVU165
 518 0036 06E0     		b	.L21
 519              	.LVL48:
 520              	.L22:
 458:Drivers/BSP/Components/vl53l1cb/modules/vl53l1_hist_algos_gen4.c **** 					 pfiltered->VL53L1_p_040[i] >= 0 &&
 521              		.loc 1 458 9 is_stmt 1 view .LVU166
 458:Drivers/BSP/Components/vl53l1cb/modules/vl53l1_hist_algos_gen4.c **** 					 pfiltered->VL53L1_p_040[i] >= 0 &&
 522              		.loc 1 458 12 is_stmt 0 view .LVU167
 523 0038 002A     		cmp	r2, #0
 524 003a 38DB     		blt	.L26
 525              	.LVL49:
 526              	.L23:
 465:Drivers/BSP/Components/vl53l1cb/modules/vl53l1_hist_algos_gen4.c **** 
 527              		.loc 1 465 5 is_stmt 1 view .LVU168
 465:Drivers/BSP/Components/vl53l1cb/modules/vl53l1_hist_algos_gen4.c **** 
 528              		.loc 1 465 32 is_stmt 0 view .LVU169
 529 003c 08EB0503 		add	r3, r8, r5
 530 0040 0022     		movs	r2, #0
 531 0042 83F8E421 		strb	r2, [r3, #484]
 532              	.LVL50:
 533              	.L21:
 468:Drivers/BSP/Components/vl53l1cb/modules/vl53l1_hist_algos_gen4.c **** 
 534              		.loc 1 468 4 is_stmt 1 view .LVU170
 468:Drivers/BSP/Components/vl53l1cb/modules/vl53l1_hist_algos_gen4.c **** 
 535              		.loc 1 468 31 is_stmt 0 view .LVU171
 536 0046 08EB0503 		add	r3, r8, r5
 537 004a 93F8E431 		ldrb	r3, [r3, #484]	@ zero_extendqisi2
 468:Drivers/BSP/Components/vl53l1cb/modules/vl53l1_hist_algos_gen4.c **** 
 538              		.loc 1 468 7 view .LVU172
 539 004e 002B     		cmp	r3, #0
 540 0050 48D1     		bne	.L27
 541              	.LVL51:
 542              	.L19:
 441:Drivers/BSP/Components/vl53l1cb/modules/vl53l1_hist_algos_gen4.c **** 
 543              		.loc 1 441 61 is_stmt 1 discriminator 2 view .LVU173
 544 0052 0134     		adds	r4, r4, #1
 545              	.LVL52:
 441:Drivers/BSP/Components/vl53l1cb/modules/vl53l1_hist_algos_gen4.c **** 
 546              		.loc 1 441 61 is_stmt 0 discriminator 2 view .LVU174
 547 0054 E4B2     		uxtb	r4, r4
 548              	.LVL53:
 549              	.L18:
ARM GAS  C:\Temp\cc7HZbxb.s 			page 21


 441:Drivers/BSP/Components/vl53l1cb/modules/vl53l1_hist_algos_gen4.c **** 
 550              		.loc 1 441 36 is_stmt 1 discriminator 1 view .LVU175
 441:Drivers/BSP/Components/vl53l1cb/modules/vl53l1_hist_algos_gen4.c **** 
 551              		.loc 1 441 43 is_stmt 0 discriminator 1 view .LVU176
 552 0056 07EBC701 		add	r1, r7, r7, lsl #3
 553 005a 06EB8101 		add	r1, r6, r1, lsl #2
 554 005e 91F88031 		ldrb	r3, [r1, #384]	@ zero_extendqisi2
 441:Drivers/BSP/Components/vl53l1cb/modules/vl53l1_hist_algos_gen4.c **** 
 555              		.loc 1 441 36 discriminator 1 view .LVU177
 556 0062 A342     		cmp	r3, r4
 557 0064 6CD9     		bls	.L28
 443:Drivers/BSP/Components/vl53l1cb/modules/vl53l1_hist_algos_gen4.c **** 		j = (lb+1) % palgo3->VL53L1_p_031;
 558              		.loc 1 443 3 is_stmt 1 view .LVU178
 443:Drivers/BSP/Components/vl53l1cb/modules/vl53l1_hist_algos_gen4.c **** 		j = (lb+1) % palgo3->VL53L1_p_031;
 559              		.loc 1 443 22 is_stmt 0 view .LVU179
 560 0066 F178     		ldrb	r1, [r6, #3]	@ zero_extendqisi2
 443:Drivers/BSP/Components/vl53l1cb/modules/vl53l1_hist_algos_gen4.c **** 		j = (lb+1) % palgo3->VL53L1_p_031;
 561              		.loc 1 443 5 view .LVU180
 562 0068 B4FBF1F5 		udiv	r5, r4, r1
 563 006c 01FB1545 		mls	r5, r1, r5, r4
 564 0070 EDB2     		uxtb	r5, r5
 565              	.LVL54:
 444:Drivers/BSP/Components/vl53l1cb/modules/vl53l1_hist_algos_gen4.c **** 
 566              		.loc 1 444 3 is_stmt 1 view .LVU181
 444:Drivers/BSP/Components/vl53l1cb/modules/vl53l1_hist_algos_gen4.c **** 
 567              		.loc 1 444 10 is_stmt 0 view .LVU182
 568 0072 631C     		adds	r3, r4, #1
 444:Drivers/BSP/Components/vl53l1cb/modules/vl53l1_hist_algos_gen4.c **** 
 569              		.loc 1 444 14 view .LVU183
 570 0074 93FBF1F2 		sdiv	r2, r3, r1
 571 0078 01FB1233 		mls	r3, r1, r2, r3
 444:Drivers/BSP/Components/vl53l1cb/modules/vl53l1_hist_algos_gen4.c **** 
 572              		.loc 1 444 5 view .LVU184
 573 007c D9B2     		uxtb	r1, r3
 574              	.LVL55:
 446:Drivers/BSP/Components/vl53l1cb/modules/vl53l1_hist_algos_gen4.c **** 			j < palgo3->VL53L1_p_024) {
 575              		.loc 1 446 3 is_stmt 1 view .LVU185
 446:Drivers/BSP/Components/vl53l1cb/modules/vl53l1_hist_algos_gen4.c **** 			j < palgo3->VL53L1_p_024) {
 576              		.loc 1 446 17 is_stmt 0 view .LVU186
 577 007e B278     		ldrb	r2, [r6, #2]	@ zero_extendqisi2
 446:Drivers/BSP/Components/vl53l1cb/modules/vl53l1_hist_algos_gen4.c **** 			j < palgo3->VL53L1_p_024) {
 578              		.loc 1 446 6 view .LVU187
 579 0080 AA42     		cmp	r2, r5
 580 0082 E6D9     		bls	.L19
 446:Drivers/BSP/Components/vl53l1cb/modules/vl53l1_hist_algos_gen4.c **** 			j < palgo3->VL53L1_p_024) {
 581              		.loc 1 446 32 discriminator 1 view .LVU188
 582 0084 8A42     		cmp	r2, r1
 583 0086 E4D9     		bls	.L19
 449:Drivers/BSP/Components/vl53l1cb/modules/vl53l1_hist_algos_gen4.c **** 				pfiltered->VL53L1_p_040[i] == 0)
 584              		.loc 1 449 4 is_stmt 1 view .LVU189
 449:Drivers/BSP/Components/vl53l1cb/modules/vl53l1_hist_algos_gen4.c **** 				pfiltered->VL53L1_p_040[i] == 0)
 585              		.loc 1 449 31 is_stmt 0 view .LVU190
 586 0088 05F14802 		add	r2, r5, #72
 587 008c 08EB8202 		add	r2, r8, r2, lsl #2
 588 0090 5268     		ldr	r2, [r2, #4]
 449:Drivers/BSP/Components/vl53l1cb/modules/vl53l1_hist_algos_gen4.c **** 				pfiltered->VL53L1_p_040[i] == 0)
 589              		.loc 1 449 7 view .LVU191
ARM GAS  C:\Temp\cc7HZbxb.s 			page 22


 590 0092 002A     		cmp	r2, #0
 591 0094 C1D1     		bne	.L20
 450:Drivers/BSP/Components/vl53l1cb/modules/vl53l1_hist_algos_gen4.c **** 
 592              		.loc 1 450 28 discriminator 1 view .LVU192
 593 0096 05F16001 		add	r1, r5, #96
 594              	.LVL56:
 450:Drivers/BSP/Components/vl53l1cb/modules/vl53l1_hist_algos_gen4.c **** 
 595              		.loc 1 450 28 discriminator 1 view .LVU193
 596 009a 08EB8101 		add	r1, r8, r1, lsl #2
 597 009e 4968     		ldr	r1, [r1, #4]
 449:Drivers/BSP/Components/vl53l1cb/modules/vl53l1_hist_algos_gen4.c **** 				pfiltered->VL53L1_p_040[i] == 0)
 598              		.loc 1 449 40 discriminator 1 view .LVU194
 599 00a0 0029     		cmp	r1, #0
 600 00a2 BAD1     		bne	.L20
 452:Drivers/BSP/Components/vl53l1cb/modules/vl53l1_hist_algos_gen4.c **** 
 601              		.loc 1 452 5 is_stmt 1 view .LVU195
 452:Drivers/BSP/Components/vl53l1cb/modules/vl53l1_hist_algos_gen4.c **** 
 602              		.loc 1 452 32 is_stmt 0 view .LVU196
 603 00a4 08EB0503 		add	r3, r8, r5
 604              	.LVL57:
 452:Drivers/BSP/Components/vl53l1cb/modules/vl53l1_hist_algos_gen4.c **** 
 605              		.loc 1 452 32 view .LVU197
 606 00a8 83F8E421 		strb	r2, [r3, #484]
 607              	.LVL58:
 452:Drivers/BSP/Components/vl53l1cb/modules/vl53l1_hist_algos_gen4.c **** 
 608              		.loc 1 452 32 view .LVU198
 609 00ac CBE7     		b	.L21
 610              	.LVL59:
 611              	.L26:
 459:Drivers/BSP/Components/vl53l1cb/modules/vl53l1_hist_algos_gen4.c **** 					 pfiltered->VL53L1_p_039[j] >= 0 &&
 612              		.loc 1 459 30 discriminator 1 view .LVU199
 613 00ae 05F16002 		add	r2, r5, #96
 614 00b2 08EB8202 		add	r2, r8, r2, lsl #2
 615 00b6 5268     		ldr	r2, [r2, #4]
 458:Drivers/BSP/Components/vl53l1cb/modules/vl53l1_hist_algos_gen4.c **** 					 pfiltered->VL53L1_p_040[i] >= 0 &&
 616              		.loc 1 458 45 discriminator 1 view .LVU200
 617 00b8 002A     		cmp	r2, #0
 618 00ba BFDB     		blt	.L23
 619 00bc DBB2     		uxtb	r3, r3
 460:Drivers/BSP/Components/vl53l1cb/modules/vl53l1_hist_algos_gen4.c **** 					 pfiltered->VL53L1_p_040[j] <  0)
 620              		.loc 1 460 30 view .LVU201
 621 00be 03F14802 		add	r2, r3, #72
 622 00c2 08EB8202 		add	r2, r8, r2, lsl #2
 623 00c6 5268     		ldr	r2, [r2, #4]
 459:Drivers/BSP/Components/vl53l1cb/modules/vl53l1_hist_algos_gen4.c **** 					 pfiltered->VL53L1_p_039[j] >= 0 &&
 624              		.loc 1 459 39 view .LVU202
 625 00c8 002A     		cmp	r2, #0
 626 00ca B7DB     		blt	.L23
 461:Drivers/BSP/Components/vl53l1cb/modules/vl53l1_hist_algos_gen4.c **** 				pfiltered->VL53L1_p_043[i] = 1;
 627              		.loc 1 461 30 view .LVU203
 628 00cc 6033     		adds	r3, r3, #96
 629              	.LVL60:
 461:Drivers/BSP/Components/vl53l1cb/modules/vl53l1_hist_algos_gen4.c **** 				pfiltered->VL53L1_p_043[i] = 1;
 630              		.loc 1 461 30 view .LVU204
 631 00ce 08EB8303 		add	r3, r8, r3, lsl #2
 632              	.LVL61:
 461:Drivers/BSP/Components/vl53l1cb/modules/vl53l1_hist_algos_gen4.c **** 				pfiltered->VL53L1_p_043[i] = 1;
ARM GAS  C:\Temp\cc7HZbxb.s 			page 23


 633              		.loc 1 461 30 view .LVU205
 634 00d2 5B68     		ldr	r3, [r3, #4]
 460:Drivers/BSP/Components/vl53l1cb/modules/vl53l1_hist_algos_gen4.c **** 					 pfiltered->VL53L1_p_040[j] <  0)
 635              		.loc 1 460 39 view .LVU206
 636 00d4 002B     		cmp	r3, #0
 637 00d6 B1DA     		bge	.L23
 462:Drivers/BSP/Components/vl53l1cb/modules/vl53l1_hist_algos_gen4.c **** 
 638              		.loc 1 462 5 is_stmt 1 view .LVU207
 462:Drivers/BSP/Components/vl53l1cb/modules/vl53l1_hist_algos_gen4.c **** 
 639              		.loc 1 462 32 is_stmt 0 view .LVU208
 640 00d8 08EB0503 		add	r3, r8, r5
 641 00dc 0122     		movs	r2, #1
 642 00de 83F8E421 		strb	r2, [r3, #484]
 643              	.LVL62:
 462:Drivers/BSP/Components/vl53l1cb/modules/vl53l1_hist_algos_gen4.c **** 
 644              		.loc 1 462 32 view .LVU209
 645 00e2 B0E7     		b	.L21
 646              	.L27:
 470:Drivers/BSP/Components/vl53l1cb/modules/vl53l1_hist_algos_gen4.c **** 
 647              		.loc 1 470 5 is_stmt 1 view .LVU210
 470:Drivers/BSP/Components/vl53l1cb/modules/vl53l1_hist_algos_gen4.c **** 
 648              		.loc 1 470 25 is_stmt 0 view .LVU211
 649 00e4 07EBC703 		add	r3, r7, r7, lsl #3
 650 00e8 06EB8303 		add	r3, r6, r3, lsl #2
 651 00ec 83F87E41 		strb	r4, [r3, #382]
 472:Drivers/BSP/Components/vl53l1cb/modules/vl53l1_hist_algos_gen4.c **** 					VL53L1_f_036(
 652              		.loc 1 472 5 is_stmt 1 view .LVU212
 473:Drivers/BSP/Components/vl53l1cb/modules/vl53l1_hist_algos_gen4.c **** 					lb,
 653              		.loc 1 473 6 is_stmt 0 view .LVU213
 654 00f0 05F13000 		add	r0, r5, #48
 655 00f4 08EB8000 		add	r0, r8, r0, lsl #2
 656 00f8 05F11802 		add	r2, r5, #24
 657 00fc 08EB8202 		add	r2, r8, r2, lsl #2
 658 0100 08EB8501 		add	r1, r8, r5, lsl #2
 659 0104 07EBC703 		add	r3, r7, r7, lsl #3
 660 0108 9B00     		lsls	r3, r3, #2
 661 010a 03F5C873 		add	r3, r3, #400
 662 010e 3344     		add	r3, r3, r6
 663 0110 0433     		adds	r3, r3, #4
 664 0112 0593     		str	r3, [sp, #20]
 665 0114 F378     		ldrb	r3, [r6, #3]	@ zero_extendqisi2
 666 0116 0493     		str	r3, [sp, #16]
 667 0118 B368     		ldr	r3, [r6, #8]
 668 011a 0393     		str	r3, [sp, #12]
 669 011c 0023     		movs	r3, #0
 670 011e 0293     		str	r3, [sp, #8]
 671 0120 0193     		str	r3, [sp, #4]
 672 0122 0093     		str	r3, [sp]
 673 0124 4368     		ldr	r3, [r0, #4]
 674 0126 5268     		ldr	r2, [r2, #4]
 675 0128 4968     		ldr	r1, [r1, #4]
 676 012a 2046     		mov	r0, r4
 677 012c FFF7FEFF 		bl	VL53L1_f_036
 678              	.LVL63:
 485:Drivers/BSP/Components/vl53l1cb/modules/vl53l1_hist_algos_gen4.c **** 					VL53L1_ERROR_DIVISION_BY_ZERO)
 679              		.loc 1 485 5 is_stmt 1 view .LVU214
 485:Drivers/BSP/Components/vl53l1cb/modules/vl53l1_hist_algos_gen4.c **** 					VL53L1_ERROR_DIVISION_BY_ZERO)
ARM GAS  C:\Temp\cc7HZbxb.s 			page 24


 680              		.loc 1 485 8 is_stmt 0 view .LVU215
 681 0130 10F10F0F 		cmn	r0, #15
 682 0134 8DD1     		bne	.L19
 487:Drivers/BSP/Components/vl53l1cb/modules/vl53l1_hist_algos_gen4.c **** 
 683              		.loc 1 487 6 is_stmt 1 view .LVU216
 487:Drivers/BSP/Components/vl53l1cb/modules/vl53l1_hist_algos_gen4.c **** 
 684              		.loc 1 487 33 is_stmt 0 view .LVU217
 685 0136 4544     		add	r5, r5, r8
 686              	.LVL64:
 487:Drivers/BSP/Components/vl53l1cb/modules/vl53l1_hist_algos_gen4.c **** 
 687              		.loc 1 487 33 view .LVU218
 688 0138 0023     		movs	r3, #0
 689 013a 85F8E431 		strb	r3, [r5, #484]
 690 013e 88E7     		b	.L19
 691              	.LVL65:
 692              	.L28:
 493:Drivers/BSP/Components/vl53l1cb/modules/vl53l1_hist_algos_gen4.c **** }
 693              		.loc 1 493 2 is_stmt 1 view .LVU219
 494:Drivers/BSP/Components/vl53l1cb/modules/vl53l1_hist_algos_gen4.c **** 
 694              		.loc 1 494 1 is_stmt 0 view .LVU220
 695 0140 0020     		movs	r0, #0
 696 0142 06B0     		add	sp, sp, #24
 697              		.cfi_def_cfa_offset 24
 698              		@ sp needed
 699 0144 BDE8F081 		pop	{r4, r5, r6, r7, r8, pc}
 494:Drivers/BSP/Components/vl53l1cb/modules/vl53l1_hist_algos_gen4.c **** 
 700              		.loc 1 494 1 view .LVU221
 701              		.cfi_endproc
 702              	.LFE6:
 704              		.section	.text.VL53L1_f_033,"ax",%progbits
 705              		.align	1
 706              		.global	VL53L1_f_033
 707              		.syntax unified
 708              		.thumb
 709              		.thumb_func
 711              	VL53L1_f_033:
 712              	.LVL66:
 713              	.LFB4:
  81:Drivers/BSP/Components/vl53l1cb/modules/vl53l1_hist_algos_gen4.c **** 
 714              		.loc 1 81 1 is_stmt 1 view -0
 715              		.cfi_startproc
 716              		@ args = 24, pretend = 0, frame = 8
 717              		@ frame_needed = 0, uses_anonymous_args = 0
  81:Drivers/BSP/Components/vl53l1cb/modules/vl53l1_hist_algos_gen4.c **** 
 718              		.loc 1 81 1 is_stmt 0 view .LVU223
 719 0000 2DE9F04F 		push	{r4, r5, r6, r7, r8, r9, r10, fp, lr}
 720              		.cfi_def_cfa_offset 36
 721              		.cfi_offset 4, -36
 722              		.cfi_offset 5, -32
 723              		.cfi_offset 6, -28
 724              		.cfi_offset 7, -24
 725              		.cfi_offset 8, -20
 726              		.cfi_offset 9, -16
 727              		.cfi_offset 10, -12
 728              		.cfi_offset 11, -8
 729              		.cfi_offset 14, -4
 730 0004 89B0     		sub	sp, sp, #36
ARM GAS  C:\Temp\cc7HZbxb.s 			page 25


 731              		.cfi_def_cfa_offset 72
 732 0006 0690     		str	r0, [sp, #24]
 733 0008 8A46     		mov	r10, r1
 734 000a 9046     		mov	r8, r2
 735 000c 1C46     		mov	r4, r3
 736 000e 139D     		ldr	r5, [sp, #76]
 737 0010 169E     		ldr	r6, [sp, #88]
 738 0012 9DF85CB0 		ldrb	fp, [sp, #92]	@ zero_extendqisi2
  84:Drivers/BSP/Components/vl53l1cb/modules/vl53l1_hist_algos_gen4.c **** 
 739              		.loc 1 84 2 is_stmt 1 view .LVU224
 740              	.LVL67:
  86:Drivers/BSP/Components/vl53l1cb/modules/vl53l1_hist_algos_gen4.c **** 	VL53L1_range_data_t          *prange_data;
 741              		.loc 1 86 2 view .LVU225
  87:Drivers/BSP/Components/vl53l1cb/modules/vl53l1_hist_algos_gen4.c **** 
 742              		.loc 1 87 2 view .LVU226
  89:Drivers/BSP/Components/vl53l1cb/modules/vl53l1_hist_algos_gen4.c **** 	VL53L1_histogram_bin_data_t *pB = &(palgo3->VL53L1_p_010);
 743              		.loc 1 89 2 view .LVU227
  90:Drivers/BSP/Components/vl53l1cb/modules/vl53l1_hist_algos_gen4.c **** 
 744              		.loc 1 90 2 view .LVU228
  92:Drivers/BSP/Components/vl53l1cb/modules/vl53l1_hist_algos_gen4.c **** 
 745              		.loc 1 92 24 view .LVU229
  98:Drivers/BSP/Components/vl53l1cb/modules/vl53l1_hist_algos_gen4.c **** 
 746              		.loc 1 98 2 view .LVU230
 747 0016 2846     		mov	r0, r5
 748              	.LVL68:
  98:Drivers/BSP/Components/vl53l1cb/modules/vl53l1_hist_algos_gen4.c **** 
 749              		.loc 1 98 2 is_stmt 0 view .LVU231
 750 0018 FFF7FEFF 		bl	VL53L1_f_016
 751              	.LVL69:
 102:Drivers/BSP/Components/vl53l1cb/modules/vl53l1_hist_algos_gen4.c **** 		&(palgo3->VL53L1_p_010),
 752              		.loc 1 102 2 is_stmt 1 view .LVU232
 103:Drivers/BSP/Components/vl53l1cb/modules/vl53l1_hist_algos_gen4.c **** 		pbins_input,
 753              		.loc 1 103 3 is_stmt 0 view .LVU233
 754 001c 05F52779 		add	r9, r5, #668
 755              	.LVL70:
 102:Drivers/BSP/Components/vl53l1cb/modules/vl53l1_hist_algos_gen4.c **** 		&(palgo3->VL53L1_p_010),
 756              		.loc 1 102 2 view .LVU234
 757 0020 AC22     		movs	r2, #172
 758 0022 2146     		mov	r1, r4
 759 0024 4846     		mov	r0, r9
 760 0026 FFF7FEFF 		bl	memcpy
 761              	.LVL71:
 109:Drivers/BSP/Components/vl53l1cb/modules/vl53l1_hist_algos_gen4.c **** 	presults->rd_device_state  = pbins_input->rd_device_state;
 762              		.loc 1 109 2 is_stmt 1 view .LVU235
 109:Drivers/BSP/Components/vl53l1cb/modules/vl53l1_hist_algos_gen4.c **** 	presults->rd_device_state  = pbins_input->rd_device_state;
 763              		.loc 1 109 42 is_stmt 0 view .LVU236
 764 002a 2378     		ldrb	r3, [r4]	@ zero_extendqisi2
 109:Drivers/BSP/Components/vl53l1cb/modules/vl53l1_hist_algos_gen4.c **** 	presults->rd_device_state  = pbins_input->rd_device_state;
 765              		.loc 1 109 29 view .LVU237
 766 002c 3370     		strb	r3, [r6]
 110:Drivers/BSP/Components/vl53l1cb/modules/vl53l1_hist_algos_gen4.c **** 	presults->zone_id          = pbins_input->zone_id;
 767              		.loc 1 110 2 is_stmt 1 view .LVU238
 110:Drivers/BSP/Components/vl53l1cb/modules/vl53l1_hist_algos_gen4.c **** 	presults->zone_id          = pbins_input->zone_id;
 768              		.loc 1 110 42 is_stmt 0 view .LVU239
 769 002e 6378     		ldrb	r3, [r4, #1]	@ zero_extendqisi2
 110:Drivers/BSP/Components/vl53l1cb/modules/vl53l1_hist_algos_gen4.c **** 	presults->zone_id          = pbins_input->zone_id;
 770              		.loc 1 110 29 view .LVU240
ARM GAS  C:\Temp\cc7HZbxb.s 			page 26


 771 0030 7370     		strb	r3, [r6, #1]
 111:Drivers/BSP/Components/vl53l1cb/modules/vl53l1_hist_algos_gen4.c **** 	presults->stream_count     = pbins_input->result__stream_count;
 772              		.loc 1 111 2 is_stmt 1 view .LVU241
 111:Drivers/BSP/Components/vl53l1cb/modules/vl53l1_hist_algos_gen4.c **** 	presults->stream_count     = pbins_input->result__stream_count;
 773              		.loc 1 111 42 is_stmt 0 view .LVU242
 774 0032 A378     		ldrb	r3, [r4, #2]	@ zero_extendqisi2
 111:Drivers/BSP/Components/vl53l1cb/modules/vl53l1_hist_algos_gen4.c **** 	presults->stream_count     = pbins_input->result__stream_count;
 775              		.loc 1 111 29 view .LVU243
 776 0034 B370     		strb	r3, [r6, #2]
 112:Drivers/BSP/Components/vl53l1cb/modules/vl53l1_hist_algos_gen4.c **** 	presults->wrap_dmax_mm     = 0;
 777              		.loc 1 112 2 is_stmt 1 view .LVU244
 112:Drivers/BSP/Components/vl53l1cb/modules/vl53l1_hist_algos_gen4.c **** 	presults->wrap_dmax_mm     = 0;
 778              		.loc 1 112 42 is_stmt 0 view .LVU245
 779 0036 94F87B30 		ldrb	r3, [r4, #123]	@ zero_extendqisi2
 112:Drivers/BSP/Components/vl53l1cb/modules/vl53l1_hist_algos_gen4.c **** 	presults->wrap_dmax_mm     = 0;
 780              		.loc 1 112 29 view .LVU246
 781 003a F370     		strb	r3, [r6, #3]
 113:Drivers/BSP/Components/vl53l1cb/modules/vl53l1_hist_algos_gen4.c **** 	presults->max_results      = VL53L1_MAX_RANGE_RESULTS;
 782              		.loc 1 113 2 is_stmt 1 view .LVU247
 113:Drivers/BSP/Components/vl53l1cb/modules/vl53l1_hist_algos_gen4.c **** 	presults->max_results      = VL53L1_MAX_RANGE_RESULTS;
 783              		.loc 1 113 29 is_stmt 0 view .LVU248
 784 003c 0023     		movs	r3, #0
 785 003e F381     		strh	r3, [r6, #14]	@ movhi
 114:Drivers/BSP/Components/vl53l1cb/modules/vl53l1_hist_algos_gen4.c **** 	presults->active_results   = 0;
 786              		.loc 1 114 2 is_stmt 1 view .LVU249
 114:Drivers/BSP/Components/vl53l1cb/modules/vl53l1_hist_algos_gen4.c **** 	presults->active_results   = 0;
 787              		.loc 1 114 29 is_stmt 0 view .LVU250
 788 0040 0422     		movs	r2, #4
 789 0042 7274     		strb	r2, [r6, #17]
 115:Drivers/BSP/Components/vl53l1cb/modules/vl53l1_hist_algos_gen4.c **** 
 790              		.loc 1 115 2 is_stmt 1 view .LVU251
 115:Drivers/BSP/Components/vl53l1cb/modules/vl53l1_hist_algos_gen4.c **** 
 791              		.loc 1 115 29 is_stmt 0 view .LVU252
 792 0044 B374     		strb	r3, [r6, #18]
 117:Drivers/BSP/Components/vl53l1cb/modules/vl53l1_hist_algos_gen4.c **** 		presults->VL53L1_p_007[p] = 0;
 793              		.loc 1 117 2 is_stmt 1 view .LVU253
 117:Drivers/BSP/Components/vl53l1cb/modules/vl53l1_hist_algos_gen4.c **** 		presults->VL53L1_p_007[p] = 0;
 794              		.loc 1 117 2 is_stmt 0 view .LVU254
 795 0046 05E0     		b	.L30
 796              	.LVL72:
 797              	.L31:
 118:Drivers/BSP/Components/vl53l1cb/modules/vl53l1_hist_algos_gen4.c **** 
 798              		.loc 1 118 3 is_stmt 1 discriminator 3 view .LVU255
 118:Drivers/BSP/Components/vl53l1cb/modules/vl53l1_hist_algos_gen4.c **** 
 799              		.loc 1 118 29 is_stmt 0 discriminator 3 view .LVU256
 800 0048 06EB4302 		add	r2, r6, r3, lsl #1
 801 004c 0021     		movs	r1, #0
 802 004e 9180     		strh	r1, [r2, #4]	@ movhi
 117:Drivers/BSP/Components/vl53l1cb/modules/vl53l1_hist_algos_gen4.c **** 		presults->VL53L1_p_007[p] = 0;
 803              		.loc 1 117 51 is_stmt 1 discriminator 3 view .LVU257
 804 0050 0133     		adds	r3, r3, #1
 805              	.LVL73:
 117:Drivers/BSP/Components/vl53l1cb/modules/vl53l1_hist_algos_gen4.c **** 		presults->VL53L1_p_007[p] = 0;
 806              		.loc 1 117 51 is_stmt 0 discriminator 3 view .LVU258
 807 0052 DBB2     		uxtb	r3, r3
 808              	.LVL74:
 809              	.L30:
ARM GAS  C:\Temp\cc7HZbxb.s 			page 27


 117:Drivers/BSP/Components/vl53l1cb/modules/vl53l1_hist_algos_gen4.c **** 		presults->VL53L1_p_007[p] = 0;
 810              		.loc 1 117 16 is_stmt 1 discriminator 1 view .LVU259
 811 0054 042B     		cmp	r3, #4
 812 0056 F7D9     		bls	.L31
 122:Drivers/BSP/Components/vl53l1cb/modules/vl53l1_hist_algos_gen4.c **** 
 813              		.loc 1 122 2 view .LVU260
 814 0058 4846     		mov	r0, r9
 815 005a FFF7FEFF 		bl	VL53L1_hist_calc_zero_distance_phase
 816              	.LVL75:
 126:Drivers/BSP/Components/vl53l1cb/modules/vl53l1_hist_algos_gen4.c **** 		(int32_t)ppost_cfg->ambient_thresh_sigma0,
 817              		.loc 1 126 2 view .LVU261
 818 005e 4946     		mov	r1, r9
 819 0060 98F80500 		ldrb	r0, [r8, #5]	@ zero_extendqisi2
 820 0064 FFF7FEFF 		bl	VL53L1_hist_estimate_ambient_from_thresholded_bins
 821              	.LVL76:
 130:Drivers/BSP/Components/vl53l1cb/modules/vl53l1_hist_algos_gen4.c **** 			&(palgo3->VL53L1_p_010));
 822              		.loc 1 130 2 view .LVU262
 823 0068 4846     		mov	r0, r9
 824 006a FFF7FEFF 		bl	VL53L1_hist_estimate_ambient_from_ambient_bins
 825              	.LVL77:
 134:Drivers/BSP/Components/vl53l1cb/modules/vl53l1_hist_algos_gen4.c **** 
 826              		.loc 1 134 2 view .LVU263
 827 006e 4846     		mov	r0, r9
 828 0070 FFF7FEFF 		bl	VL53L1_hist_remove_ambient_bins
 829              	.LVL78:
 137:Drivers/BSP/Components/vl53l1cb/modules/vl53l1_hist_algos_gen4.c **** 		VL53L1_f_004(
 830              		.loc 1 137 2 view .LVU264
 137:Drivers/BSP/Components/vl53l1cb/modules/vl53l1_hist_algos_gen4.c **** 		VL53L1_f_004(
 831              		.loc 1 137 15 is_stmt 0 view .LVU265
 832 0074 98F82830 		ldrb	r3, [r8, #40]	@ zero_extendqisi2
 137:Drivers/BSP/Components/vl53l1cb/modules/vl53l1_hist_algos_gen4.c **** 		VL53L1_f_004(
 833              		.loc 1 137 5 view .LVU266
 834 0078 4BB9     		cbnz	r3, .L47
 835              	.L32:
 144:Drivers/BSP/Components/vl53l1cb/modules/vl53l1_hist_algos_gen4.c **** 		ppost_cfg->ambient_thresh_sigma1;
 836              		.loc 1 144 2 is_stmt 1 view .LVU267
 145:Drivers/BSP/Components/vl53l1cb/modules/vl53l1_hist_algos_gen4.c **** 
 837              		.loc 1 145 12 is_stmt 0 view .LVU268
 838 007a 98F80630 		ldrb	r3, [r8, #6]	@ zero_extendqisi2
 144:Drivers/BSP/Components/vl53l1cb/modules/vl53l1_hist_algos_gen4.c **** 		ppost_cfg->ambient_thresh_sigma1;
 839              		.loc 1 144 34 view .LVU269
 840 007e 8AF80130 		strb	r3, [r10, #1]
 147:Drivers/BSP/Components/vl53l1cb/modules/vl53l1_hist_algos_gen4.c **** 		if (status == VL53L1_ERROR_NONE) {
 841              		.loc 1 147 2 is_stmt 1 view .LVU270
 842              	.LVL79:
 147:Drivers/BSP/Components/vl53l1cb/modules/vl53l1_hist_algos_gen4.c **** 		if (status == VL53L1_ERROR_NONE) {
 843              		.loc 1 147 9 is_stmt 0 view .LVU271
 844 0082 0024     		movs	r4, #0
 845              	.LVL80:
 147:Drivers/BSP/Components/vl53l1cb/modules/vl53l1_hist_algos_gen4.c **** 		if (status == VL53L1_ERROR_NONE) {
 846              		.loc 1 147 9 view .LVU272
 847 0084 2046     		mov	r0, r4
 848 0086 5F46     		mov	r7, fp
 849 0088 AB46     		mov	fp, r5
 850 008a 159D     		ldr	r5, [sp, #84]
 147:Drivers/BSP/Components/vl53l1cb/modules/vl53l1_hist_algos_gen4.c **** 		if (status == VL53L1_ERROR_NONE) {
 851              		.loc 1 147 2 view .LVU273
ARM GAS  C:\Temp\cc7HZbxb.s 			page 28


 852 008c 08E0     		b	.L33
 853              	.LVL81:
 854              	.L47:
 138:Drivers/BSP/Components/vl53l1cb/modules/vl53l1_hist_algos_gen4.c **** 				pxtalk,
 855              		.loc 1 138 3 is_stmt 1 view .LVU274
 856 008e 05F55272 		add	r2, r5, #840
 857 0092 4946     		mov	r1, r9
 858 0094 1298     		ldr	r0, [sp, #72]
 859 0096 FFF7FEFF 		bl	VL53L1_f_004
 860              	.LVL82:
 861 009a EEE7     		b	.L32
 862              	.LVL83:
 863              	.L34:
 147:Drivers/BSP/Components/vl53l1cb/modules/vl53l1_hist_algos_gen4.c **** 		if (status == VL53L1_ERROR_NONE) {
 864              		.loc 1 147 51 discriminator 2 view .LVU275
 865 009c 0134     		adds	r4, r4, #1
 866              	.LVL84:
 147:Drivers/BSP/Components/vl53l1cb/modules/vl53l1_hist_algos_gen4.c **** 		if (status == VL53L1_ERROR_NONE) {
 867              		.loc 1 147 51 is_stmt 0 discriminator 2 view .LVU276
 868 009e E4B2     		uxtb	r4, r4
 869              	.LVL85:
 870              	.L33:
 147:Drivers/BSP/Components/vl53l1cb/modules/vl53l1_hist_algos_gen4.c **** 		if (status == VL53L1_ERROR_NONE) {
 871              		.loc 1 147 16 is_stmt 1 discriminator 1 view .LVU277
 872 00a0 042C     		cmp	r4, #4
 873 00a2 10D8     		bhi	.L48
 148:Drivers/BSP/Components/vl53l1cb/modules/vl53l1_hist_algos_gen4.c **** 			status =
 874              		.loc 1 148 3 view .LVU278
 148:Drivers/BSP/Components/vl53l1cb/modules/vl53l1_hist_algos_gen4.c **** 			status =
 875              		.loc 1 148 6 is_stmt 0 view .LVU279
 876 00a4 0028     		cmp	r0, #0
 877 00a6 F9D1     		bne	.L34
 149:Drivers/BSP/Components/vl53l1cb/modules/vl53l1_hist_algos_gen4.c **** 			VL53L1_f_001(
 878              		.loc 1 149 4 is_stmt 1 view .LVU280
 150:Drivers/BSP/Components/vl53l1cb/modules/vl53l1_hist_algos_gen4.c **** 				pdmax_cfg->target_reflectance_for_dmax_calc[p],
 879              		.loc 1 150 4 is_stmt 0 view .LVU281
 880 00a8 201D     		adds	r0, r4, #4
 881              	.LVL86:
 150:Drivers/BSP/Components/vl53l1cb/modules/vl53l1_hist_algos_gen4.c **** 				pdmax_cfg->target_reflectance_for_dmax_calc[p],
 882              		.loc 1 150 4 view .LVU282
 883 00aa 0AEB4000 		add	r0, r10, r0, lsl #1
 884 00ae 06EB4403 		add	r3, r6, r4, lsl #1
 885 00b2 0433     		adds	r3, r3, #4
 886 00b4 0193     		str	r3, [sp, #4]
 887 00b6 0095     		str	r5, [sp]
 888 00b8 4B46     		mov	r3, r9
 889 00ba 5246     		mov	r2, r10
 890 00bc 0699     		ldr	r1, [sp, #24]
 891 00be 8088     		ldrh	r0, [r0, #4]
 892 00c0 FFF7FEFF 		bl	VL53L1_f_001
 893              	.LVL87:
 150:Drivers/BSP/Components/vl53l1cb/modules/vl53l1_hist_algos_gen4.c **** 				pdmax_cfg->target_reflectance_for_dmax_calc[p],
 894              		.loc 1 150 4 view .LVU283
 895 00c4 EAE7     		b	.L34
 896              	.L48:
 164:Drivers/BSP/Components/vl53l1cb/modules/vl53l1_hist_algos_gen4.c **** 		status =
 897              		.loc 1 164 5 view .LVU284
ARM GAS  C:\Temp\cc7HZbxb.s 			page 29


 898 00c6 5D46     		mov	r5, fp
 899 00c8 BB46     		mov	fp, r7
 900 00ca 0746     		mov	r7, r0
 164:Drivers/BSP/Components/vl53l1cb/modules/vl53l1_hist_algos_gen4.c **** 		status =
 901              		.loc 1 164 2 is_stmt 1 view .LVU285
 164:Drivers/BSP/Components/vl53l1cb/modules/vl53l1_hist_algos_gen4.c **** 		status =
 902              		.loc 1 164 5 is_stmt 0 view .LVU286
 903 00cc 20B1     		cbz	r0, .L49
 904              	.LVL88:
 905              	.L36:
 185:Drivers/BSP/Components/vl53l1cb/modules/vl53l1_hist_algos_gen4.c **** 		status =
 906              		.loc 1 185 2 is_stmt 1 view .LVU287
 185:Drivers/BSP/Components/vl53l1cb/modules/vl53l1_hist_algos_gen4.c **** 		status =
 907              		.loc 1 185 5 is_stmt 0 view .LVU288
 908 00ce DFB1     		cbz	r7, .L50
 909              	.LVL89:
 910              	.L37:
  84:Drivers/BSP/Components/vl53l1cb/modules/vl53l1_hist_algos_gen4.c **** 
 911              		.loc 1 84 16 discriminator 1 view .LVU289
 912 00d0 0024     		movs	r4, #0
 913              	.LVL90:
  84:Drivers/BSP/Components/vl53l1cb/modules/vl53l1_hist_algos_gen4.c **** 
 914              		.loc 1 84 16 discriminator 1 view .LVU290
 915 00d2 3A46     		mov	r2, r7
 916 00d4 3746     		mov	r7, r6
 917 00d6 24E0     		b	.L38
 918              	.LVL91:
 919              	.L49:
 165:Drivers/BSP/Components/vl53l1cb/modules/vl53l1_hist_algos_gen4.c **** 			VL53L1_f_018(
 920              		.loc 1 165 3 is_stmt 1 view .LVU291
 166:Drivers/BSP/Components/vl53l1cb/modules/vl53l1_hist_algos_gen4.c **** 			ppost_cfg->ambient_thresh_events_scaler,
 921              		.loc 1 166 4 is_stmt 0 view .LVU292
 922 00d8 0295     		str	r5, [sp, #8]
 923 00da 05F55273 		add	r3, r5, #840
 924 00de 0193     		str	r3, [sp, #4]
 925 00e0 CDF80090 		str	r9, [sp]
 926 00e4 98F82830 		ldrb	r3, [r8, #40]	@ zero_extendqisi2
 927 00e8 D8F80C20 		ldr	r2, [r8, #12]
 928 00ec 9AF80110 		ldrb	r1, [r10, #1]	@ zero_extendqisi2
 929 00f0 B8F80800 		ldrh	r0, [r8, #8]
 930              	.LVL92:
 166:Drivers/BSP/Components/vl53l1cb/modules/vl53l1_hist_algos_gen4.c **** 			ppost_cfg->ambient_thresh_events_scaler,
 931              		.loc 1 166 4 view .LVU293
 932 00f4 FFF7FEFF 		bl	VL53L1_f_018
 933              	.LVL93:
 179:Drivers/BSP/Components/vl53l1cb/modules/vl53l1_hist_algos_gen4.c **** 		status =
 934              		.loc 1 179 2 is_stmt 1 view .LVU294
 179:Drivers/BSP/Components/vl53l1cb/modules/vl53l1_hist_algos_gen4.c **** 		status =
 935              		.loc 1 179 5 is_stmt 0 view .LVU295
 936 00f8 0746     		mov	r7, r0
 937 00fa 0028     		cmp	r0, #0
 938 00fc E8D1     		bne	.L37
 180:Drivers/BSP/Components/vl53l1cb/modules/vl53l1_hist_algos_gen4.c **** 			VL53L1_f_019(palgo3);
 939              		.loc 1 180 3 is_stmt 1 view .LVU296
 181:Drivers/BSP/Components/vl53l1cb/modules/vl53l1_hist_algos_gen4.c **** 
 940              		.loc 1 181 4 is_stmt 0 view .LVU297
 941 00fe 2846     		mov	r0, r5
ARM GAS  C:\Temp\cc7HZbxb.s 			page 30


 942              	.LVL94:
 181:Drivers/BSP/Components/vl53l1cb/modules/vl53l1_hist_algos_gen4.c **** 
 943              		.loc 1 181 4 view .LVU298
 944 0100 FFF7FEFF 		bl	VL53L1_f_019
 945              	.LVL95:
 946 0104 0746     		mov	r7, r0
 947              	.LVL96:
 181:Drivers/BSP/Components/vl53l1cb/modules/vl53l1_hist_algos_gen4.c **** 
 948              		.loc 1 181 4 view .LVU299
 949 0106 E2E7     		b	.L36
 950              	.L50:
 186:Drivers/BSP/Components/vl53l1cb/modules/vl53l1_hist_algos_gen4.c **** 			VL53L1_f_020(palgo3);
 951              		.loc 1 186 3 is_stmt 1 view .LVU300
 187:Drivers/BSP/Components/vl53l1cb/modules/vl53l1_hist_algos_gen4.c **** 
 952              		.loc 1 187 4 is_stmt 0 view .LVU301
 953 0108 2846     		mov	r0, r5
 954 010a FFF7FEFF 		bl	VL53L1_f_020
 955              	.LVL97:
 191:Drivers/BSP/Components/vl53l1cb/modules/vl53l1_hist_algos_gen4.c **** 		status =
 956              		.loc 1 191 2 is_stmt 1 view .LVU302
 191:Drivers/BSP/Components/vl53l1cb/modules/vl53l1_hist_algos_gen4.c **** 		status =
 957              		.loc 1 191 5 is_stmt 0 view .LVU303
 958 010e 0746     		mov	r7, r0
 959 0110 0028     		cmp	r0, #0
 960 0112 DDD1     		bne	.L37
 192:Drivers/BSP/Components/vl53l1cb/modules/vl53l1_hist_algos_gen4.c **** 			VL53L1_f_021(palgo3);
 961              		.loc 1 192 3 is_stmt 1 view .LVU304
 193:Drivers/BSP/Components/vl53l1cb/modules/vl53l1_hist_algos_gen4.c **** 
 962              		.loc 1 193 4 is_stmt 0 view .LVU305
 963 0114 2846     		mov	r0, r5
 964              	.LVL98:
 193:Drivers/BSP/Components/vl53l1cb/modules/vl53l1_hist_algos_gen4.c **** 
 965              		.loc 1 193 4 view .LVU306
 966 0116 FFF7FEFF 		bl	VL53L1_f_021
 967              	.LVL99:
 968 011a 0746     		mov	r7, r0
 969              	.LVL100:
 193:Drivers/BSP/Components/vl53l1cb/modules/vl53l1_hist_algos_gen4.c **** 
 970              		.loc 1 193 4 view .LVU307
 971 011c D8E7     		b	.L37
 972              	.LVL101:
 973              	.L39:
 197:Drivers/BSP/Components/vl53l1cb/modules/vl53l1_hist_algos_gen4.c **** 
 974              		.loc 1 197 41 is_stmt 1 discriminator 2 view .LVU308
 975 011e 0134     		adds	r4, r4, #1
 976              	.LVL102:
 197:Drivers/BSP/Components/vl53l1cb/modules/vl53l1_hist_algos_gen4.c **** 
 977              		.loc 1 197 41 is_stmt 0 discriminator 2 view .LVU309
 978 0120 E4B2     		uxtb	r4, r4
 979              	.LVL103:
 980              	.L38:
 197:Drivers/BSP/Components/vl53l1cb/modules/vl53l1_hist_algos_gen4.c **** 
 981              		.loc 1 197 16 is_stmt 1 discriminator 1 view .LVU310
 197:Drivers/BSP/Components/vl53l1cb/modules/vl53l1_hist_algos_gen4.c **** 
 982              		.loc 1 197 24 is_stmt 0 discriminator 1 view .LVU311
 983 0122 95F87A31 		ldrb	r3, [r5, #378]	@ zero_extendqisi2
 197:Drivers/BSP/Components/vl53l1cb/modules/vl53l1_hist_algos_gen4.c **** 
ARM GAS  C:\Temp\cc7HZbxb.s 			page 31


 984              		.loc 1 197 16 discriminator 1 view .LVU312
 985 0126 A342     		cmp	r3, r4
 986 0128 6CD9     		bls	.L51
 199:Drivers/BSP/Components/vl53l1cb/modules/vl53l1_hist_algos_gen4.c **** 
 987              		.loc 1 199 3 is_stmt 1 view .LVU313
 988              	.LVL104:
 203:Drivers/BSP/Components/vl53l1cb/modules/vl53l1_hist_algos_gen4.c **** 			status =
 989              		.loc 1 203 3 view .LVU314
 203:Drivers/BSP/Components/vl53l1cb/modules/vl53l1_hist_algos_gen4.c **** 			status =
 990              		.loc 1 203 6 is_stmt 0 view .LVU315
 991 012a 002A     		cmp	r2, #0
 992 012c F7D1     		bne	.L39
 204:Drivers/BSP/Components/vl53l1cb/modules/vl53l1_hist_algos_gen4.c **** 				VL53L1_f_022(
 993              		.loc 1 204 4 is_stmt 1 view .LVU316
 205:Drivers/BSP/Components/vl53l1cb/modules/vl53l1_hist_algos_gen4.c **** 					p,
 994              		.loc 1 205 5 is_stmt 0 view .LVU317
 995 012e 2A46     		mov	r2, r5
 996              	.LVL105:
 205:Drivers/BSP/Components/vl53l1cb/modules/vl53l1_hist_algos_gen4.c **** 					p,
 997              		.loc 1 205 5 view .LVU318
 998 0130 4946     		mov	r1, r9
 999 0132 2046     		mov	r0, r4
 1000 0134 FFF7FEFF 		bl	VL53L1_f_022
 1001              	.LVL106:
 212:Drivers/BSP/Components/vl53l1cb/modules/vl53l1_hist_algos_gen4.c **** 			status =
 1002              		.loc 1 212 3 is_stmt 1 view .LVU319
 212:Drivers/BSP/Components/vl53l1cb/modules/vl53l1_hist_algos_gen4.c **** 			status =
 1003              		.loc 1 212 6 is_stmt 0 view .LVU320
 1004 0138 0246     		mov	r2, r0
 1005 013a 0028     		cmp	r0, #0
 1006 013c EFD1     		bne	.L39
 213:Drivers/BSP/Components/vl53l1cb/modules/vl53l1_hist_algos_gen4.c **** 				VL53L1_f_023(
 1007              		.loc 1 213 4 is_stmt 1 view .LVU321
 214:Drivers/BSP/Components/vl53l1cb/modules/vl53l1_hist_algos_gen4.c **** 					p,
 1008              		.loc 1 214 5 is_stmt 0 view .LVU322
 1009 013e 05F57D76 		add	r6, r5, #1012
 1010 0142 0096     		str	r6, [sp]
 1011 0144 D5F84033 		ldr	r3, [r5, #832]
 1012 0148 2A46     		mov	r2, r5
 1013 014a 4946     		mov	r1, r9
 1014 014c 2046     		mov	r0, r4
 1015              	.LVL107:
 214:Drivers/BSP/Components/vl53l1cb/modules/vl53l1_hist_algos_gen4.c **** 					p,
 1016              		.loc 1 214 5 view .LVU323
 1017 014e FFF7FEFF 		bl	VL53L1_f_023
 1018              	.LVL108:
 223:Drivers/BSP/Components/vl53l1cb/modules/vl53l1_hist_algos_gen4.c **** 			status =
 1019              		.loc 1 223 3 is_stmt 1 view .LVU324
 223:Drivers/BSP/Components/vl53l1cb/modules/vl53l1_hist_algos_gen4.c **** 			status =
 1020              		.loc 1 223 6 is_stmt 0 view .LVU325
 1021 0152 0246     		mov	r2, r0
 1022 0154 0028     		cmp	r0, #0
 1023 0156 E2D1     		bne	.L39
 224:Drivers/BSP/Components/vl53l1cb/modules/vl53l1_hist_algos_gen4.c **** 				VL53L1_f_023(
 1024              		.loc 1 224 4 is_stmt 1 view .LVU326
 225:Drivers/BSP/Components/vl53l1cb/modules/vl53l1_hist_algos_gen4.c **** 					p,
 1025              		.loc 1 225 5 is_stmt 0 view .LVU327
ARM GAS  C:\Temp\cc7HZbxb.s 			page 32


 1026 0158 05F59463 		add	r3, r5, #1184
 1027 015c 0693     		str	r3, [sp, #24]
 1028 015e 0093     		str	r3, [sp]
 1029 0160 0023     		movs	r3, #0
 1030 0162 2A46     		mov	r2, r5
 1031 0164 4946     		mov	r1, r9
 1032 0166 2046     		mov	r0, r4
 1033              	.LVL109:
 225:Drivers/BSP/Components/vl53l1cb/modules/vl53l1_hist_algos_gen4.c **** 					p,
 1034              		.loc 1 225 5 view .LVU328
 1035 0168 FFF7FEFF 		bl	VL53L1_f_023
 1036              	.LVL110:
 235:Drivers/BSP/Components/vl53l1cb/modules/vl53l1_hist_algos_gen4.c **** 			status =
 1037              		.loc 1 235 3 is_stmt 1 view .LVU329
 235:Drivers/BSP/Components/vl53l1cb/modules/vl53l1_hist_algos_gen4.c **** 			status =
 1038              		.loc 1 235 6 is_stmt 0 view .LVU330
 1039 016c 0246     		mov	r2, r0
 1040 016e 0028     		cmp	r0, #0
 1041 0170 D5D1     		bne	.L39
 236:Drivers/BSP/Components/vl53l1cb/modules/vl53l1_hist_algos_gen4.c **** 				VL53L1_f_023(
 1042              		.loc 1 236 4 is_stmt 1 view .LVU331
 237:Drivers/BSP/Components/vl53l1cb/modules/vl53l1_hist_algos_gen4.c **** 					p,
 1043              		.loc 1 237 5 is_stmt 0 view .LVU332
 1044 0172 05F24C53 		addw	r3, r5, #1356
 1045 0176 0793     		str	r3, [sp, #28]
 1046 0178 0093     		str	r3, [sp]
 1047 017a 0023     		movs	r3, #0
 1048 017c 2A46     		mov	r2, r5
 1049 017e 05F55271 		add	r1, r5, #840
 1050 0182 2046     		mov	r0, r4
 1051              	.LVL111:
 237:Drivers/BSP/Components/vl53l1cb/modules/vl53l1_hist_algos_gen4.c **** 					p,
 1052              		.loc 1 237 5 view .LVU333
 1053 0184 FFF7FEFF 		bl	VL53L1_f_023
 1054              	.LVL112:
 247:Drivers/BSP/Components/vl53l1cb/modules/vl53l1_hist_algos_gen4.c **** 			status =
 1055              		.loc 1 247 3 is_stmt 1 view .LVU334
 247:Drivers/BSP/Components/vl53l1cb/modules/vl53l1_hist_algos_gen4.c **** 			status =
 1056              		.loc 1 247 6 is_stmt 0 view .LVU335
 1057 0188 0246     		mov	r2, r0
 1058 018a 0028     		cmp	r0, #0
 1059 018c C7D1     		bne	.L39
 248:Drivers/BSP/Components/vl53l1cb/modules/vl53l1_hist_algos_gen4.c **** 				VL53L1_f_034(
 1060              		.loc 1 248 4 is_stmt 1 view .LVU336
 249:Drivers/BSP/Components/vl53l1cb/modules/vl53l1_hist_algos_gen4.c **** 					p,
 1061              		.loc 1 249 5 is_stmt 0 view .LVU337
 1062 018e 149B     		ldr	r3, [sp, #80]
 1063 0190 2A46     		mov	r2, r5
 1064 0192 3146     		mov	r1, r6
 1065 0194 2046     		mov	r0, r4
 1066              	.LVL113:
 249:Drivers/BSP/Components/vl53l1cb/modules/vl53l1_hist_algos_gen4.c **** 					p,
 1067              		.loc 1 249 5 view .LVU338
 1068 0196 FFF7FEFF 		bl	VL53L1_f_034
 1069              	.LVL114:
 257:Drivers/BSP/Components/vl53l1cb/modules/vl53l1_hist_algos_gen4.c **** 			status =
 1070              		.loc 1 257 3 is_stmt 1 view .LVU339
ARM GAS  C:\Temp\cc7HZbxb.s 			page 33


 257:Drivers/BSP/Components/vl53l1cb/modules/vl53l1_hist_algos_gen4.c **** 			status =
 1071              		.loc 1 257 6 is_stmt 0 view .LVU340
 1072 019a 0246     		mov	r2, r0
 1073 019c 0028     		cmp	r0, #0
 1074 019e BED1     		bne	.L39
 258:Drivers/BSP/Components/vl53l1cb/modules/vl53l1_hist_algos_gen4.c **** 				VL53L1_f_035(
 1075              		.loc 1 258 4 is_stmt 1 view .LVU341
 259:Drivers/BSP/Components/vl53l1cb/modules/vl53l1_hist_algos_gen4.c **** 					p,
 1076              		.loc 1 259 5 is_stmt 0 view .LVU342
 1077 01a0 2B46     		mov	r3, r5
 1078 01a2 149A     		ldr	r2, [sp, #80]
 1079 01a4 B8F81010 		ldrh	r1, [r8, #16]
 1080 01a8 2046     		mov	r0, r4
 1081              	.LVL115:
 259:Drivers/BSP/Components/vl53l1cb/modules/vl53l1_hist_algos_gen4.c **** 					p,
 1082              		.loc 1 259 5 view .LVU343
 1083 01aa FFF7FEFF 		bl	VL53L1_f_035
 1084              	.LVL116:
 265:Drivers/BSP/Components/vl53l1cb/modules/vl53l1_hist_algos_gen4.c **** 			status =
 1085              		.loc 1 265 3 is_stmt 1 view .LVU344
 265:Drivers/BSP/Components/vl53l1cb/modules/vl53l1_hist_algos_gen4.c **** 			status =
 1086              		.loc 1 265 6 is_stmt 0 view .LVU345
 1087 01ae 0246     		mov	r2, r0
 1088 01b0 0028     		cmp	r0, #0
 1089 01b2 B4D1     		bne	.L39
 266:Drivers/BSP/Components/vl53l1cb/modules/vl53l1_hist_algos_gen4.c **** 			VL53L1_f_026(
 1090              		.loc 1 266 4 is_stmt 1 view .LVU346
 267:Drivers/BSP/Components/vl53l1cb/modules/vl53l1_hist_algos_gen4.c **** 			ppulse_data->VL53L1_p_025,
 1091              		.loc 1 267 4 is_stmt 0 view .LVU347
 1092 01b4 04EBC402 		add	r2, r4, r4, lsl #3
 1093 01b8 05EB8202 		add	r2, r5, r2, lsl #2
 1094 01bc 92F88231 		ldrb	r3, [r2, #386]	@ zero_extendqisi2
 1095 01c0 92F87E01 		ldrb	r0, [r2, #382]	@ zero_extendqisi2
 1096              	.LVL117:
 267:Drivers/BSP/Components/vl53l1cb/modules/vl53l1_hist_algos_gen4.c **** 			ppulse_data->VL53L1_p_025,
 1097              		.loc 1 267 4 view .LVU348
 1098 01c4 04EBC402 		add	r2, r4, r4, lsl #3
 1099 01c8 9200     		lsls	r2, r2, #2
 1100 01ca 02F5CC72 		add	r2, r2, #408
 1101 01ce 2A44     		add	r2, r2, r5
 1102 01d0 0432     		adds	r2, r2, #4
 1103 01d2 0492     		str	r2, [sp, #16]
 1104 01d4 079A     		ldr	r2, [sp, #28]
 1105 01d6 0392     		str	r2, [sp, #12]
 1106 01d8 069A     		ldr	r2, [sp, #24]
 1107 01da 0292     		str	r2, [sp, #8]
 1108 01dc 0196     		str	r6, [sp, #4]
 1109 01de 98F82820 		ldrb	r2, [r8, #40]	@ zero_extendqisi2
 1110 01e2 0092     		str	r2, [sp]
 1111 01e4 EA78     		ldrb	r2, [r5, #3]	@ zero_extendqisi2
 1112 01e6 98F81810 		ldrb	r1, [r8, #24]	@ zero_extendqisi2
 1113 01ea FFF7FEFF 		bl	VL53L1_f_026
 1114              	.LVL118:
 280:Drivers/BSP/Components/vl53l1cb/modules/vl53l1_hist_algos_gen4.c **** 			status =
 1115              		.loc 1 280 3 is_stmt 1 view .LVU349
 280:Drivers/BSP/Components/vl53l1cb/modules/vl53l1_hist_algos_gen4.c **** 			status =
 1116              		.loc 1 280 6 is_stmt 0 view .LVU350
ARM GAS  C:\Temp\cc7HZbxb.s 			page 34


 1117 01ee 0246     		mov	r2, r0
 1118 01f0 0028     		cmp	r0, #0
 1119 01f2 94D1     		bne	.L39
 281:Drivers/BSP/Components/vl53l1cb/modules/vl53l1_hist_algos_gen4.c **** 				VL53L1_f_027(
 1120              		.loc 1 281 4 is_stmt 1 view .LVU351
 282:Drivers/BSP/Components/vl53l1cb/modules/vl53l1_hist_algos_gen4.c **** 					p,
 1121              		.loc 1 282 5 is_stmt 0 view .LVU352
 1122 01f4 2B46     		mov	r3, r5
 1123 01f6 4A46     		mov	r2, r9
 1124 01f8 0121     		movs	r1, #1
 1125 01fa 2046     		mov	r0, r4
 1126              	.LVL119:
 282:Drivers/BSP/Components/vl53l1cb/modules/vl53l1_hist_algos_gen4.c **** 					p,
 1127              		.loc 1 282 5 view .LVU353
 1128 01fc FFF7FEFF 		bl	VL53L1_f_027
 1129              	.LVL120:
 1130 0200 0246     		mov	r2, r0
 1131              	.LVL121:
 282:Drivers/BSP/Components/vl53l1cb/modules/vl53l1_hist_algos_gen4.c **** 					p,
 1132              		.loc 1 282 5 view .LVU354
 1133 0202 8CE7     		b	.L39
 1134              	.LVL122:
 1135              	.L51:
 292:Drivers/BSP/Components/vl53l1cb/modules/vl53l1_hist_algos_gen4.c **** 		status =
 1136              		.loc 1 292 5 view .LVU355
 1137 0204 3E46     		mov	r6, r7
 1138 0206 1746     		mov	r7, r2
 292:Drivers/BSP/Components/vl53l1cb/modules/vl53l1_hist_algos_gen4.c **** 		status =
 1139              		.loc 1 292 2 is_stmt 1 view .LVU356
 292:Drivers/BSP/Components/vl53l1cb/modules/vl53l1_hist_algos_gen4.c **** 		status =
 1140              		.loc 1 292 5 is_stmt 0 view .LVU357
 1141 0208 12B1     		cbz	r2, .L52
 1142              	.LVL123:
 1143              	.L41:
  84:Drivers/BSP/Components/vl53l1cb/modules/vl53l1_hist_algos_gen4.c **** 
 1144              		.loc 1 84 16 discriminator 1 view .LVU358
 1145 020a 0024     		movs	r4, #0
 1146              	.LVL124:
  84:Drivers/BSP/Components/vl53l1cb/modules/vl53l1_hist_algos_gen4.c **** 
 1147              		.loc 1 84 16 discriminator 1 view .LVU359
 1148 020c 0697     		str	r7, [sp, #24]
 1149 020e 12E0     		b	.L42
 1150              	.LVL125:
 1151              	.L52:
 293:Drivers/BSP/Components/vl53l1cb/modules/vl53l1_hist_algos_gen4.c **** 			VL53L1_f_028(
 1152              		.loc 1 293 3 is_stmt 1 view .LVU360
 294:Drivers/BSP/Components/vl53l1cb/modules/vl53l1_hist_algos_gen4.c **** 				ppost_cfg->hist_target_order,
 1153              		.loc 1 294 4 is_stmt 0 view .LVU361
 1154 0210 2946     		mov	r1, r5
 1155 0212 98F80100 		ldrb	r0, [r8, #1]	@ zero_extendqisi2
 1156 0216 FFF7FEFF 		bl	VL53L1_f_028
 1157              	.LVL126:
 294:Drivers/BSP/Components/vl53l1cb/modules/vl53l1_hist_algos_gen4.c **** 				ppost_cfg->hist_target_order,
 1158              		.loc 1 294 4 view .LVU362
 1159 021a 0746     		mov	r7, r0
 1160              	.LVL127:
 294:Drivers/BSP/Components/vl53l1cb/modules/vl53l1_hist_algos_gen4.c **** 				ppost_cfg->hist_target_order,
ARM GAS  C:\Temp\cc7HZbxb.s 			page 35


 1161              		.loc 1 294 4 view .LVU363
 1162 021c F5E7     		b	.L41
 1163              	.LVL128:
 1164              	.L54:
 339:Drivers/BSP/Components/vl53l1cb/modules/vl53l1_hist_algos_gen4.c **** 					ppost_cfg->gain_factor,
 1165              		.loc 1 339 5 is_stmt 1 view .LVU364
 1166 021e 5246     		mov	r2, r10
 1167 0220 B8F91C10 		ldrsh	r1, [r8, #28]
 1168 0224 B8F81E00 		ldrh	r0, [r8, #30]
 1169              	.LVL129:
 339:Drivers/BSP/Components/vl53l1cb/modules/vl53l1_hist_algos_gen4.c **** 					ppost_cfg->gain_factor,
 1170              		.loc 1 339 5 is_stmt 0 view .LVU365
 1171 0228 FFF7FEFF 		bl	VL53L1_f_012
 1172              	.LVL130:
 1173              	.L44:
 344:Drivers/BSP/Components/vl53l1cb/modules/vl53l1_hist_algos_gen4.c **** 		}
 1174              		.loc 1 344 4 is_stmt 1 view .LVU366
 344:Drivers/BSP/Components/vl53l1cb/modules/vl53l1_hist_algos_gen4.c **** 		}
 1175              		.loc 1 344 12 is_stmt 0 view .LVU367
 1176 022c B37C     		ldrb	r3, [r6, #18]	@ zero_extendqisi2
 344:Drivers/BSP/Components/vl53l1cb/modules/vl53l1_hist_algos_gen4.c **** 		}
 1177              		.loc 1 344 28 view .LVU368
 1178 022e 0133     		adds	r3, r3, #1
 1179 0230 B374     		strb	r3, [r6, #18]
 1180              	.LVL131:
 1181              	.L43:
 300:Drivers/BSP/Components/vl53l1cb/modules/vl53l1_hist_algos_gen4.c **** 
 1182              		.loc 1 300 41 is_stmt 1 discriminator 2 view .LVU369
 1183 0232 0134     		adds	r4, r4, #1
 1184              	.LVL132:
 300:Drivers/BSP/Components/vl53l1cb/modules/vl53l1_hist_algos_gen4.c **** 
 1185              		.loc 1 300 41 is_stmt 0 discriminator 2 view .LVU370
 1186 0234 E4B2     		uxtb	r4, r4
 1187              	.LVL133:
 1188              	.L42:
 300:Drivers/BSP/Components/vl53l1cb/modules/vl53l1_hist_algos_gen4.c **** 
 1189              		.loc 1 300 16 is_stmt 1 discriminator 1 view .LVU371
 300:Drivers/BSP/Components/vl53l1cb/modules/vl53l1_hist_algos_gen4.c **** 
 1190              		.loc 1 300 24 is_stmt 0 discriminator 1 view .LVU372
 1191 0236 95F87A31 		ldrb	r3, [r5, #378]	@ zero_extendqisi2
 300:Drivers/BSP/Components/vl53l1cb/modules/vl53l1_hist_algos_gen4.c **** 
 1192              		.loc 1 300 16 discriminator 1 view .LVU373
 1193 023a A342     		cmp	r3, r4
 1194 023c 47D9     		bls	.L53
 302:Drivers/BSP/Components/vl53l1cb/modules/vl53l1_hist_algos_gen4.c **** 
 1195              		.loc 1 302 3 is_stmt 1 view .LVU374
 302:Drivers/BSP/Components/vl53l1cb/modules/vl53l1_hist_algos_gen4.c **** 
 1196              		.loc 1 302 15 is_stmt 0 view .LVU375
 1197 023e 04EBC403 		add	r3, r4, r4, lsl #3
 1198 0242 9B00     		lsls	r3, r3, #2
 1199 0244 03F5BC73 		add	r3, r3, #376
 1200 0248 2B44     		add	r3, r3, r5
 1201 024a 0433     		adds	r3, r3, #4
 1202              	.LVL134:
 305:Drivers/BSP/Components/vl53l1cb/modules/vl53l1_hist_algos_gen4.c **** 			continue;
 1203              		.loc 1 305 3 is_stmt 1 view .LVU376
 305:Drivers/BSP/Components/vl53l1cb/modules/vl53l1_hist_algos_gen4.c **** 			continue;
ARM GAS  C:\Temp\cc7HZbxb.s 			page 36


 1204              		.loc 1 305 17 is_stmt 0 view .LVU377
 1205 024c B07C     		ldrb	r0, [r6, #18]	@ zero_extendqisi2
 305:Drivers/BSP/Components/vl53l1cb/modules/vl53l1_hist_algos_gen4.c **** 			continue;
 1206              		.loc 1 305 44 view .LVU378
 1207 024e 717C     		ldrb	r1, [r6, #17]	@ zero_extendqisi2
 305:Drivers/BSP/Components/vl53l1cb/modules/vl53l1_hist_algos_gen4.c **** 			continue;
 1208              		.loc 1 305 6 view .LVU379
 1209 0250 8842     		cmp	r0, r1
 1210 0252 EED2     		bcs	.L43
 311:Drivers/BSP/Components/vl53l1cb/modules/vl53l1_hist_algos_gen4.c **** 			ppost_cfg->signal_total_events_limit &&
 1211              		.loc 1 311 3 is_stmt 1 view .LVU380
 311:Drivers/BSP/Components/vl53l1cb/modules/vl53l1_hist_algos_gen4.c **** 			ppost_cfg->signal_total_events_limit &&
 1212              		.loc 1 311 18 is_stmt 0 view .LVU381
 1213 0254 04EBC401 		add	r1, r4, r4, lsl #3
 1214 0258 05EB8101 		add	r1, r5, r1, lsl #2
 1215 025c D1F88C11 		ldr	r1, [r1, #396]
 311:Drivers/BSP/Components/vl53l1cb/modules/vl53l1_hist_algos_gen4.c **** 			ppost_cfg->signal_total_events_limit &&
 1216              		.loc 1 311 6 view .LVU382
 1217 0260 D8F81470 		ldr	r7, [r8, #20]
 1218 0264 B942     		cmp	r1, r7
 1219 0266 E4DD     		ble	.L43
 313:Drivers/BSP/Components/vl53l1cb/modules/vl53l1_hist_algos_gen4.c **** 
 1220              		.loc 1 313 15 view .LVU383
 1221 0268 04EBC402 		add	r2, r4, r4, lsl #3
 1222 026c 05EB8202 		add	r2, r5, r2, lsl #2
 1223 0270 92F87E21 		ldrb	r2, [r2, #382]	@ zero_extendqisi2
 312:Drivers/BSP/Components/vl53l1cb/modules/vl53l1_hist_algos_gen4.c **** 			ppulse_data->VL53L1_p_025 < 0xFF) {
 1224              		.loc 1 312 41 view .LVU384
 1225 0274 FF2A     		cmp	r2, #255
 1226 0276 DCD0     		beq	.L43
 315:Drivers/BSP/Components/vl53l1cb/modules/vl53l1_hist_algos_gen4.c **** 			&(presults->VL53L1_p_002[presults->active_results]);
 1227              		.loc 1 315 4 is_stmt 1 view .LVU385
 315:Drivers/BSP/Components/vl53l1cb/modules/vl53l1_hist_algos_gen4.c **** 			&(presults->VL53L1_p_002[presults->active_results]);
 1228              		.loc 1 315 16 is_stmt 0 view .LVU386
 1229 0278 4FF04C0A 		mov	r10, #76
 1230 027c 0AFB00FA 		mul	r10, r10, r0
 1231 0280 0AF1100A 		add	r10, r10, #16
 1232 0284 B244     		add	r10, r10, r6
 1233 0286 0AF1040A 		add	r10, r10, #4
 1234              	.LVL135:
 318:Drivers/BSP/Components/vl53l1cb/modules/vl53l1_hist_algos_gen4.c **** 				VL53L1_f_029(
 1235              		.loc 1 318 4 is_stmt 1 view .LVU387
 318:Drivers/BSP/Components/vl53l1cb/modules/vl53l1_hist_algos_gen4.c **** 				VL53L1_f_029(
 1236              		.loc 1 318 7 is_stmt 0 view .LVU388
 1237 028a 069A     		ldr	r2, [sp, #24]
 1238 028c 002A     		cmp	r2, #0
 1239 028e CDD1     		bne	.L44
 319:Drivers/BSP/Components/vl53l1cb/modules/vl53l1_hist_algos_gen4.c **** 						presults->active_results,
 1240              		.loc 1 319 5 is_stmt 1 view .LVU389
 1241 0290 CDF808A0 		str	r10, [sp, #8]
 1242 0294 0193     		str	r3, [sp, #4]
 1243 0296 CDF80090 		str	r9, [sp]
 1244 029a B8F81A30 		ldrh	r3, [r8, #26]
 1245              	.LVL136:
 319:Drivers/BSP/Components/vl53l1cb/modules/vl53l1_hist_algos_gen4.c **** 						presults->active_results,
 1246              		.loc 1 319 5 is_stmt 0 view .LVU390
 1247 029e 98F82120 		ldrb	r2, [r8, #33]	@ zero_extendqisi2
ARM GAS  C:\Temp\cc7HZbxb.s 			page 37


 1248 02a2 98F82010 		ldrb	r1, [r8, #32]	@ zero_extendqisi2
 1249 02a6 FFF7FEFF 		bl	VL53L1_f_029
 1250              	.LVL137:
 328:Drivers/BSP/Components/vl53l1cb/modules/vl53l1_hist_algos_gen4.c **** 				status =
 1251              		.loc 1 328 4 is_stmt 1 view .LVU391
 329:Drivers/BSP/Components/vl53l1cb/modules/vl53l1_hist_algos_gen4.c **** 				VL53L1_f_011(
 1252              		.loc 1 329 5 view .LVU392
 330:Drivers/BSP/Components/vl53l1cb/modules/vl53l1_hist_algos_gen4.c **** 				pB->vcsel_width,
 1253              		.loc 1 330 5 is_stmt 0 view .LVU393
 1254 02aa CDF804B0 		str	fp, [sp, #4]
 1255 02ae CDF800A0 		str	r10, [sp]
 1256 02b2 B5F81833 		ldrh	r3, [r5, #792]
 1257 02b6 D5F82423 		ldr	r2, [r5, #804]
 1258 02ba B5F82213 		ldrh	r1, [r5, #802]
 1259 02be B5F81E03 		ldrh	r0, [r5, #798]
 1260 02c2 FFF7FEFF 		bl	VL53L1_f_011
 1261              	.LVL138:
 338:Drivers/BSP/Components/vl53l1cb/modules/vl53l1_hist_algos_gen4.c **** 				VL53L1_f_012(
 1262              		.loc 1 338 4 is_stmt 1 view .LVU394
 338:Drivers/BSP/Components/vl53l1cb/modules/vl53l1_hist_algos_gen4.c **** 				VL53L1_f_012(
 1263              		.loc 1 338 7 is_stmt 0 view .LVU395
 1264 02c6 0690     		str	r0, [sp, #24]
 1265 02c8 0028     		cmp	r0, #0
 1266 02ca AFD1     		bne	.L44
 1267 02cc A7E7     		b	.L54
 1268              	.LVL139:
 1269              	.L53:
 354:Drivers/BSP/Components/vl53l1cb/modules/vl53l1_hist_algos_gen4.c **** 
 1270              		.loc 1 354 1 view .LVU396
 1271 02ce 069F     		ldr	r7, [sp, #24]
 351:Drivers/BSP/Components/vl53l1cb/modules/vl53l1_hist_algos_gen4.c **** 
 1272              		.loc 1 351 26 is_stmt 1 view .LVU397
 353:Drivers/BSP/Components/vl53l1cb/modules/vl53l1_hist_algos_gen4.c **** }
 1273              		.loc 1 353 2 view .LVU398
 354:Drivers/BSP/Components/vl53l1cb/modules/vl53l1_hist_algos_gen4.c **** 
 1274              		.loc 1 354 1 is_stmt 0 view .LVU399
 1275 02d0 3846     		mov	r0, r7
 1276 02d2 09B0     		add	sp, sp, #36
 1277              		.cfi_def_cfa_offset 36
 1278              		@ sp needed
 1279 02d4 BDE8F08F 		pop	{r4, r5, r6, r7, r8, r9, r10, fp, pc}
 354:Drivers/BSP/Components/vl53l1cb/modules/vl53l1_hist_algos_gen4.c **** 
 1280              		.loc 1 354 1 view .LVU400
 1281              		.cfi_endproc
 1282              	.LFE4:
 1284              		.text
 1285              	.Letext0:
 1286              		.file 2 "c:\\users\\jessejabezarendse\\appdata\\roaming\\code\\user\\globalstorage\\bmd.stm32-for-
 1287              		.file 3 "c:\\users\\jessejabezarendse\\appdata\\roaming\\code\\user\\globalstorage\\bmd.stm32-for-
 1288              		.file 4 "c:\\users\\jessejabezarendse\\appdata\\roaming\\code\\user\\globalstorage\\bmd.stm32-for-
 1289              		.file 5 "Drivers/BSP/Components/vl53l1cb/modules/vl53l1_ll_device.h"
 1290              		.file 6 "Drivers/BSP/Components/vl53l1cb/modules/vl53l1_dmax_structs.h"
 1291              		.file 7 "Drivers/BSP/Components/vl53l1cb/modules/vl53l1_hist_structs.h"
 1292              		.file 8 "Drivers/BSP/Components/vl53l1cb/modules/vl53l1_error_codes.h"
 1293              		.file 9 "Drivers/BSP/Components/vl53l1cb/modules/vl53l1_ll_def.h"
 1294              		.file 10 "Drivers/BSP/Components/vl53l1cb/modules/vl53l1_hist_private_structs.h"
 1295              		.file 11 "Drivers/BSP/Components/vl53l1cb/modules/vl53l1_dmax_private_structs.h"
ARM GAS  C:\Temp\cc7HZbxb.s 			page 38


 1296              		.file 12 "Drivers/BSP/Components/vl53l1cb/modules/vl53l1_hist_core.h"
 1297              		.file 13 "Drivers/BSP/Components/vl53l1cb/modules/vl53l1_hist_algos_gen3.h"
 1298              		.file 14 "Drivers/BSP/Components/vl53l1cb/modules/vl53l1_dmax.h"
 1299              		.file 15 "Drivers/BSP/Components/vl53l1cb/modules/vl53l1_core_support.h"
 1300              		.file 16 "c:\\users\\jessejabezarendse\\appdata\\roaming\\code\\user\\globalstorage\\bmd.stm32-for
 1301              		.file 17 "<built-in>"
ARM GAS  C:\Temp\cc7HZbxb.s 			page 39

