ARM GAS  C:\Temp\cckbpOon.s 			page 1


   1              		.cpu cortex-m4
   2              		.arch armv7e-m
   3              		.fpu fpv4-sp-d16
   4              		.eabi_attribute 27, 1
   5              		.eabi_attribute 28, 1
   6              		.eabi_attribute 20, 1
   7              		.eabi_attribute 21, 1
   8              		.eabi_attribute 23, 3
   9              		.eabi_attribute 24, 1
  10              		.eabi_attribute 25, 1
  11              		.eabi_attribute 26, 1
  12              		.eabi_attribute 30, 1
  13              		.eabi_attribute 34, 1
  14              		.eabi_attribute 18, 4
  15              		.file	"vl53l1_api_core.c"
  16              		.text
  17              	.Ltext0:
  18              		.cfi_sections	.debug_frame
  19              		.file 1 "Drivers/BSP/Components/vl53l1cb/modules/vl53l1_api_core.c"
  20              		.section	.text.select_offset_per_vcsel,"ax",%progbits
  21              		.align	1
  22              		.syntax unified
  23              		.thumb
  24              		.thumb_func
  26              	select_offset_per_vcsel:
  27              	.LVL0:
  28              	.LFB3:
   1:Drivers/BSP/Components/vl53l1cb/modules/vl53l1_api_core.c **** /**
   2:Drivers/BSP/Components/vl53l1cb/modules/vl53l1_api_core.c ****  ******************************************************************************
   3:Drivers/BSP/Components/vl53l1cb/modules/vl53l1_api_core.c ****  * Copyright (c) 2020, STMicroelectronics - All Rights Reserved
   4:Drivers/BSP/Components/vl53l1cb/modules/vl53l1_api_core.c ****  *
   5:Drivers/BSP/Components/vl53l1cb/modules/vl53l1_api_core.c ****  * This software is licensed under terms that can be found in the LICENSE file
   6:Drivers/BSP/Components/vl53l1cb/modules/vl53l1_api_core.c ****  * in the root directory of this software component.
   7:Drivers/BSP/Components/vl53l1cb/modules/vl53l1_api_core.c ****  * If no LICENSE file comes with this software, it is provided AS-IS.
   8:Drivers/BSP/Components/vl53l1cb/modules/vl53l1_api_core.c ****  *
   9:Drivers/BSP/Components/vl53l1cb/modules/vl53l1_api_core.c ****  ******************************************************************************
  10:Drivers/BSP/Components/vl53l1cb/modules/vl53l1_api_core.c ****  */
  11:Drivers/BSP/Components/vl53l1cb/modules/vl53l1_api_core.c **** 
  12:Drivers/BSP/Components/vl53l1cb/modules/vl53l1_api_core.c **** 
  13:Drivers/BSP/Components/vl53l1cb/modules/vl53l1_api_core.c **** 
  14:Drivers/BSP/Components/vl53l1cb/modules/vl53l1_api_core.c **** 
  15:Drivers/BSP/Components/vl53l1cb/modules/vl53l1_api_core.c **** 
  16:Drivers/BSP/Components/vl53l1cb/modules/vl53l1_api_core.c **** #include "vl53l1_ll_def.h"
  17:Drivers/BSP/Components/vl53l1cb/modules/vl53l1_api_core.c **** #include "vl53l1_ll_device.h"
  18:Drivers/BSP/Components/vl53l1cb/modules/vl53l1_api_core.c **** #include "vl53l1_platform.h"
  19:Drivers/BSP/Components/vl53l1cb/modules/vl53l1_api_core.c **** #include "vl53l1_platform_ipp.h"
  20:Drivers/BSP/Components/vl53l1cb/modules/vl53l1_api_core.c **** #include "vl53l1_register_map.h"
  21:Drivers/BSP/Components/vl53l1cb/modules/vl53l1_api_core.c **** #include "vl53l1_register_settings.h"
  22:Drivers/BSP/Components/vl53l1cb/modules/vl53l1_api_core.c **** #include "vl53l1_register_funcs.h"
  23:Drivers/BSP/Components/vl53l1cb/modules/vl53l1_api_core.c **** #include "vl53l1_hist_map.h"
  24:Drivers/BSP/Components/vl53l1cb/modules/vl53l1_api_core.c **** #include "vl53l1_hist_structs.h"
  25:Drivers/BSP/Components/vl53l1cb/modules/vl53l1_api_core.c **** #include "vl53l1_nvm_map.h"
  26:Drivers/BSP/Components/vl53l1cb/modules/vl53l1_api_core.c **** #include "vl53l1_nvm_structs.h"
  27:Drivers/BSP/Components/vl53l1cb/modules/vl53l1_api_core.c **** #include "vl53l1_nvm.h"
  28:Drivers/BSP/Components/vl53l1cb/modules/vl53l1_api_core.c **** #include "vl53l1_core.h"
  29:Drivers/BSP/Components/vl53l1cb/modules/vl53l1_api_core.c **** #include "vl53l1_wait.h"
  30:Drivers/BSP/Components/vl53l1cb/modules/vl53l1_api_core.c **** #include "vl53l1_zone_presets.h"
ARM GAS  C:\Temp\cckbpOon.s 			page 2


  31:Drivers/BSP/Components/vl53l1cb/modules/vl53l1_api_core.c **** #include "vl53l1_api_preset_modes.h"
  32:Drivers/BSP/Components/vl53l1cb/modules/vl53l1_api_core.c **** #include "vl53l1_silicon_core.h"
  33:Drivers/BSP/Components/vl53l1cb/modules/vl53l1_api_core.c **** #include "vl53l1_api_core.h"
  34:Drivers/BSP/Components/vl53l1cb/modules/vl53l1_api_core.c **** #include "vl53l1_tuning_parm_defaults.h"
  35:Drivers/BSP/Components/vl53l1cb/modules/vl53l1_api_core.c **** 
  36:Drivers/BSP/Components/vl53l1cb/modules/vl53l1_api_core.c **** #ifdef VL53L1_LOG_ENABLE
  37:Drivers/BSP/Components/vl53l1cb/modules/vl53l1_api_core.c **** #include "vl53l1_api_debug.h"
  38:Drivers/BSP/Components/vl53l1cb/modules/vl53l1_api_core.c **** #endif
  39:Drivers/BSP/Components/vl53l1cb/modules/vl53l1_api_core.c **** 
  40:Drivers/BSP/Components/vl53l1cb/modules/vl53l1_api_core.c **** #define LOG_FUNCTION_START(fmt, ...) \
  41:Drivers/BSP/Components/vl53l1cb/modules/vl53l1_api_core.c **** 	_LOG_FUNCTION_START(VL53L1_TRACE_MODULE_CORE, fmt, ##__VA_ARGS__)
  42:Drivers/BSP/Components/vl53l1cb/modules/vl53l1_api_core.c **** #define LOG_FUNCTION_END(status, ...) \
  43:Drivers/BSP/Components/vl53l1cb/modules/vl53l1_api_core.c **** 	_LOG_FUNCTION_END(VL53L1_TRACE_MODULE_CORE, status, ##__VA_ARGS__)
  44:Drivers/BSP/Components/vl53l1cb/modules/vl53l1_api_core.c **** #define LOG_FUNCTION_END_FMT(status, fmt, ...) \
  45:Drivers/BSP/Components/vl53l1cb/modules/vl53l1_api_core.c **** 	_LOG_FUNCTION_END_FMT(VL53L1_TRACE_MODULE_CORE, status, \
  46:Drivers/BSP/Components/vl53l1cb/modules/vl53l1_api_core.c **** 	fmt, ##__VA_ARGS__)
  47:Drivers/BSP/Components/vl53l1cb/modules/vl53l1_api_core.c **** 
  48:Drivers/BSP/Components/vl53l1cb/modules/vl53l1_api_core.c **** #define trace_print(level, ...) \
  49:Drivers/BSP/Components/vl53l1cb/modules/vl53l1_api_core.c **** 	_LOG_TRACE_PRINT(VL53L1_TRACE_MODULE_CORE, \
  50:Drivers/BSP/Components/vl53l1cb/modules/vl53l1_api_core.c **** 	level, VL53L1_TRACE_FUNCTION_NONE, ##__VA_ARGS__)
  51:Drivers/BSP/Components/vl53l1cb/modules/vl53l1_api_core.c **** 
  52:Drivers/BSP/Components/vl53l1cb/modules/vl53l1_api_core.c **** #define VL53L1_MAX_I2C_XFER_SIZE 256
  53:Drivers/BSP/Components/vl53l1cb/modules/vl53l1_api_core.c **** 
  54:Drivers/BSP/Components/vl53l1cb/modules/vl53l1_api_core.c **** static VL53L1_Error select_offset_per_vcsel(VL53L1_LLDriverData_t *pdev,
  55:Drivers/BSP/Components/vl53l1cb/modules/vl53l1_api_core.c **** 		int16_t *poffset) {
  29              		.loc 1 55 21 view -0
  30              		.cfi_startproc
  31              		@ args = 0, pretend = 0, frame = 0
  32              		@ frame_needed = 0, uses_anonymous_args = 0
  33              		@ link register save eliminated.
  34              		.loc 1 55 21 is_stmt 0 view .LVU1
  35 0000 0346     		mov	r3, r0
  56:Drivers/BSP/Components/vl53l1cb/modules/vl53l1_api_core.c **** 	VL53L1_Error status = VL53L1_ERROR_NONE;
  36              		.loc 1 56 2 is_stmt 1 view .LVU2
  37              	.LVL1:
  57:Drivers/BSP/Components/vl53l1cb/modules/vl53l1_api_core.c **** 	int16_t tA, tB;
  38              		.loc 1 57 2 view .LVU3
  58:Drivers/BSP/Components/vl53l1cb/modules/vl53l1_api_core.c **** 	uint8_t isc;
  39              		.loc 1 58 2 view .LVU4
  59:Drivers/BSP/Components/vl53l1cb/modules/vl53l1_api_core.c **** 
  60:Drivers/BSP/Components/vl53l1cb/modules/vl53l1_api_core.c **** 	switch (pdev->preset_mode) {
  40              		.loc 1 60 2 view .LVU5
  41              		.loc 1 60 14 is_stmt 0 view .LVU6
  42 0002 4278     		ldrb	r2, [r0, #1]	@ zero_extendqisi2
  43              		.loc 1 60 2 view .LVU7
  44 0004 1E2A     		cmp	r2, #30
  45 0006 1ED0     		beq	.L2
  46 0008 212A     		cmp	r2, #33
  47 000a 0CD0     		beq	.L3
  48 000c 1B2A     		cmp	r2, #27
  49 000e 22D0     		beq	.L10
  61:Drivers/BSP/Components/vl53l1cb/modules/vl53l1_api_core.c **** 	case VL53L1_DEVICEPRESETMODE_HISTOGRAM_SHORT_RANGE:
  62:Drivers/BSP/Components/vl53l1cb/modules/vl53l1_api_core.c **** 		tA = pdev->per_vcsel_cal_data.short_a_offset_mm;
  63:Drivers/BSP/Components/vl53l1cb/modules/vl53l1_api_core.c **** 		tB = pdev->per_vcsel_cal_data.short_b_offset_mm;
  64:Drivers/BSP/Components/vl53l1cb/modules/vl53l1_api_core.c **** 		break;
  65:Drivers/BSP/Components/vl53l1cb/modules/vl53l1_api_core.c **** 	case VL53L1_DEVICEPRESETMODE_HISTOGRAM_MEDIUM_RANGE:
  66:Drivers/BSP/Components/vl53l1cb/modules/vl53l1_api_core.c **** 		tA = pdev->per_vcsel_cal_data.medium_a_offset_mm;
ARM GAS  C:\Temp\cckbpOon.s 			page 3


  67:Drivers/BSP/Components/vl53l1cb/modules/vl53l1_api_core.c **** 		tB = pdev->per_vcsel_cal_data.medium_b_offset_mm;
  68:Drivers/BSP/Components/vl53l1cb/modules/vl53l1_api_core.c **** 		break;
  69:Drivers/BSP/Components/vl53l1cb/modules/vl53l1_api_core.c **** 	case VL53L1_DEVICEPRESETMODE_HISTOGRAM_LONG_RANGE:
  70:Drivers/BSP/Components/vl53l1cb/modules/vl53l1_api_core.c **** 		tA = pdev->per_vcsel_cal_data.long_a_offset_mm;
  71:Drivers/BSP/Components/vl53l1cb/modules/vl53l1_api_core.c **** 		tB = pdev->per_vcsel_cal_data.long_b_offset_mm;
  72:Drivers/BSP/Components/vl53l1cb/modules/vl53l1_api_core.c **** 		break;
  73:Drivers/BSP/Components/vl53l1cb/modules/vl53l1_api_core.c **** 	default:
  74:Drivers/BSP/Components/vl53l1cb/modules/vl53l1_api_core.c **** 		tA = pdev->per_vcsel_cal_data.long_a_offset_mm;
  50              		.loc 1 74 3 is_stmt 1 view .LVU8
  51              		.loc 1 74 6 is_stmt 0 view .LVU9
  52 0010 00F58052 		add	r2, r0, #4096
  53 0014 B2F980CD 		ldrsh	ip, [r2, #3456]
  54              	.LVL2:
  75:Drivers/BSP/Components/vl53l1cb/modules/vl53l1_api_core.c **** 		tB = pdev->per_vcsel_cal_data.long_b_offset_mm;
  55              		.loc 1 75 3 is_stmt 1 view .LVU10
  56              		.loc 1 75 6 is_stmt 0 view .LVU11
  57 0018 B2F9822D 		ldrsh	r2, [r2, #3458]
  58              	.LVL3:
  76:Drivers/BSP/Components/vl53l1cb/modules/vl53l1_api_core.c **** 		status = VL53L1_ERROR_INVALID_PARAMS;
  59              		.loc 1 76 3 is_stmt 1 view .LVU12
  77:Drivers/BSP/Components/vl53l1cb/modules/vl53l1_api_core.c **** 		*poffset = 0;
  60              		.loc 1 77 3 view .LVU13
  61              		.loc 1 77 12 is_stmt 0 view .LVU14
  62 001c 0020     		movs	r0, #0
  63              	.LVL4:
  64              		.loc 1 77 12 view .LVU15
  65 001e 0880     		strh	r0, [r1]	@ movhi
  78:Drivers/BSP/Components/vl53l1cb/modules/vl53l1_api_core.c **** 		break;
  66              		.loc 1 78 3 is_stmt 1 view .LVU16
  76:Drivers/BSP/Components/vl53l1cb/modules/vl53l1_api_core.c **** 		status = VL53L1_ERROR_INVALID_PARAMS;
  67              		.loc 1 76 10 is_stmt 0 view .LVU17
  68 0020 6FF00300 		mvn	r0, #3
  69              		.loc 1 78 3 view .LVU18
  70 0024 06E0     		b	.L6
  71              	.LVL5:
  72              	.L3:
  62:Drivers/BSP/Components/vl53l1cb/modules/vl53l1_api_core.c **** 		tB = pdev->per_vcsel_cal_data.short_b_offset_mm;
  73              		.loc 1 62 3 is_stmt 1 view .LVU19
  62:Drivers/BSP/Components/vl53l1cb/modules/vl53l1_api_core.c **** 		tB = pdev->per_vcsel_cal_data.short_b_offset_mm;
  74              		.loc 1 62 6 is_stmt 0 view .LVU20
  75 0026 00F58052 		add	r2, r0, #4096
  76 002a B2F978CD 		ldrsh	ip, [r2, #3448]
  77              	.LVL6:
  63:Drivers/BSP/Components/vl53l1cb/modules/vl53l1_api_core.c **** 		break;
  78              		.loc 1 63 3 is_stmt 1 view .LVU21
  63:Drivers/BSP/Components/vl53l1cb/modules/vl53l1_api_core.c **** 		break;
  79              		.loc 1 63 6 is_stmt 0 view .LVU22
  80 002e B2F97A2D 		ldrsh	r2, [r2, #3450]
  81              	.LVL7:
  64:Drivers/BSP/Components/vl53l1cb/modules/vl53l1_api_core.c **** 	case VL53L1_DEVICEPRESETMODE_HISTOGRAM_MEDIUM_RANGE:
  82              		.loc 1 64 3 is_stmt 1 view .LVU23
  56:Drivers/BSP/Components/vl53l1cb/modules/vl53l1_api_core.c **** 	int16_t tA, tB;
  83              		.loc 1 56 15 is_stmt 0 view .LVU24
  84 0032 0020     		movs	r0, #0
  85              	.LVL8:
  86              	.L6:
  79:Drivers/BSP/Components/vl53l1cb/modules/vl53l1_api_core.c **** 	}
ARM GAS  C:\Temp\cckbpOon.s 			page 4


  80:Drivers/BSP/Components/vl53l1cb/modules/vl53l1_api_core.c **** 
  81:Drivers/BSP/Components/vl53l1cb/modules/vl53l1_api_core.c **** 	isc = pdev->ll_state.cfg_internal_stream_count;
  87              		.loc 1 81 2 is_stmt 1 view .LVU25
  88              		.loc 1 81 6 is_stmt 0 view .LVU26
  89 0034 93F82E30 		ldrb	r3, [r3, #46]	@ zero_extendqisi2
  90              	.LVL9:
  82:Drivers/BSP/Components/vl53l1cb/modules/vl53l1_api_core.c **** 	if (status == VL53L1_ERROR_NONE)
  91              		.loc 1 82 2 is_stmt 1 view .LVU27
  92              		.loc 1 82 5 is_stmt 0 view .LVU28
  93 0038 20B9     		cbnz	r0, .L7
  83:Drivers/BSP/Components/vl53l1cb/modules/vl53l1_api_core.c **** 		*poffset = (isc & 0x01) ? tA : tB;
  94              		.loc 1 83 3 is_stmt 1 view .LVU29
  95              		.loc 1 83 12 is_stmt 0 view .LVU30
  96 003a 13F0010F 		tst	r3, #1
  97 003e 00D0     		beq	.L8
  98 0040 6246     		mov	r2, ip
  99              	.LVL10:
 100              	.L8:
 101              		.loc 1 83 12 discriminator 4 view .LVU31
 102 0042 0A80     		strh	r2, [r1]	@ movhi
 103              	.LVL11:
 104              	.L7:
  84:Drivers/BSP/Components/vl53l1cb/modules/vl53l1_api_core.c **** 
  85:Drivers/BSP/Components/vl53l1cb/modules/vl53l1_api_core.c **** 	return status;
 105              		.loc 1 85 2 is_stmt 1 view .LVU32
  86:Drivers/BSP/Components/vl53l1cb/modules/vl53l1_api_core.c **** }
 106              		.loc 1 86 1 is_stmt 0 view .LVU33
 107 0044 7047     		bx	lr
 108              	.LVL12:
 109              	.L2:
  66:Drivers/BSP/Components/vl53l1cb/modules/vl53l1_api_core.c **** 		tB = pdev->per_vcsel_cal_data.medium_b_offset_mm;
 110              		.loc 1 66 3 is_stmt 1 view .LVU34
  66:Drivers/BSP/Components/vl53l1cb/modules/vl53l1_api_core.c **** 		tB = pdev->per_vcsel_cal_data.medium_b_offset_mm;
 111              		.loc 1 66 6 is_stmt 0 view .LVU35
 112 0046 00F58052 		add	r2, r0, #4096
 113 004a B2F97CCD 		ldrsh	ip, [r2, #3452]
 114              	.LVL13:
  67:Drivers/BSP/Components/vl53l1cb/modules/vl53l1_api_core.c **** 		break;
 115              		.loc 1 67 3 is_stmt 1 view .LVU36
  67:Drivers/BSP/Components/vl53l1cb/modules/vl53l1_api_core.c **** 		break;
 116              		.loc 1 67 6 is_stmt 0 view .LVU37
 117 004e B2F97E2D 		ldrsh	r2, [r2, #3454]
 118              	.LVL14:
  68:Drivers/BSP/Components/vl53l1cb/modules/vl53l1_api_core.c **** 	case VL53L1_DEVICEPRESETMODE_HISTOGRAM_LONG_RANGE:
 119              		.loc 1 68 3 is_stmt 1 view .LVU38
  56:Drivers/BSP/Components/vl53l1cb/modules/vl53l1_api_core.c **** 	int16_t tA, tB;
 120              		.loc 1 56 15 is_stmt 0 view .LVU39
 121 0052 0020     		movs	r0, #0
 122              	.LVL15:
  68:Drivers/BSP/Components/vl53l1cb/modules/vl53l1_api_core.c **** 	case VL53L1_DEVICEPRESETMODE_HISTOGRAM_LONG_RANGE:
 123              		.loc 1 68 3 view .LVU40
 124 0054 EEE7     		b	.L6
 125              	.LVL16:
 126              	.L10:
  70:Drivers/BSP/Components/vl53l1cb/modules/vl53l1_api_core.c **** 		tB = pdev->per_vcsel_cal_data.long_b_offset_mm;
 127              		.loc 1 70 3 is_stmt 1 view .LVU41
  70:Drivers/BSP/Components/vl53l1cb/modules/vl53l1_api_core.c **** 		tB = pdev->per_vcsel_cal_data.long_b_offset_mm;
ARM GAS  C:\Temp\cckbpOon.s 			page 5


 128              		.loc 1 70 6 is_stmt 0 view .LVU42
 129 0056 00F58052 		add	r2, r0, #4096
 130 005a B2F980CD 		ldrsh	ip, [r2, #3456]
 131              	.LVL17:
  71:Drivers/BSP/Components/vl53l1cb/modules/vl53l1_api_core.c **** 		break;
 132              		.loc 1 71 3 is_stmt 1 view .LVU43
  71:Drivers/BSP/Components/vl53l1cb/modules/vl53l1_api_core.c **** 		break;
 133              		.loc 1 71 6 is_stmt 0 view .LVU44
 134 005e B2F9822D 		ldrsh	r2, [r2, #3458]
 135              	.LVL18:
  72:Drivers/BSP/Components/vl53l1cb/modules/vl53l1_api_core.c **** 	default:
 136              		.loc 1 72 3 is_stmt 1 view .LVU45
  56:Drivers/BSP/Components/vl53l1cb/modules/vl53l1_api_core.c **** 	int16_t tA, tB;
 137              		.loc 1 56 15 is_stmt 0 view .LVU46
 138 0062 0020     		movs	r0, #0
 139              	.LVL19:
  72:Drivers/BSP/Components/vl53l1cb/modules/vl53l1_api_core.c **** 	default:
 140              		.loc 1 72 3 view .LVU47
 141 0064 E6E7     		b	.L6
 142              		.cfi_endproc
 143              	.LFE3:
 145              		.section	.text.vl53l1_diff_histo_stddev,"ax",%progbits
 146              		.align	1
 147              		.syntax unified
 148              		.thumb
 149              		.thumb_func
 151              	vl53l1_diff_histo_stddev:
 152              	.LVL20:
 153              	.LFB4:
  87:Drivers/BSP/Components/vl53l1cb/modules/vl53l1_api_core.c **** 
  88:Drivers/BSP/Components/vl53l1cb/modules/vl53l1_api_core.c **** static void vl53l1_diff_histo_stddev(VL53L1_LLDriverData_t *pdev,
  89:Drivers/BSP/Components/vl53l1cb/modules/vl53l1_api_core.c **** 	VL53L1_histogram_bin_data_t *pdata, uint8_t timing, uint8_t HighIndex,
  90:Drivers/BSP/Components/vl53l1cb/modules/vl53l1_api_core.c **** 	uint8_t prev_pos, int32_t *pdiff_histo_stddev) {
 154              		.loc 1 90 49 is_stmt 1 view -0
 155              		.cfi_startproc
 156              		@ args = 8, pretend = 0, frame = 0
 157              		@ frame_needed = 0, uses_anonymous_args = 0
 158              		.loc 1 90 49 is_stmt 0 view .LVU49
 159 0000 2DE9F04F 		push	{r4, r5, r6, r7, r8, r9, r10, fp, lr}
 160              		.cfi_def_cfa_offset 36
 161              		.cfi_offset 4, -36
 162              		.cfi_offset 5, -32
 163              		.cfi_offset 6, -28
 164              		.cfi_offset 7, -24
 165              		.cfi_offset 8, -20
 166              		.cfi_offset 9, -16
 167              		.cfi_offset 10, -12
 168              		.cfi_offset 11, -8
 169              		.cfi_offset 14, -4
 170 0004 8B46     		mov	fp, r1
 171 0006 9DF82450 		ldrb	r5, [sp, #36]	@ zero_extendqisi2
 172 000a DDF82880 		ldr	r8, [sp, #40]
  91:Drivers/BSP/Components/vl53l1cb/modules/vl53l1_api_core.c **** 	uint16_t   bin                      = 0;
 173              		.loc 1 91 2 is_stmt 1 view .LVU50
 174              	.LVL21:
  92:Drivers/BSP/Components/vl53l1cb/modules/vl53l1_api_core.c **** 	int32_t    total_rate_pre = 0;
 175              		.loc 1 92 2 view .LVU51
ARM GAS  C:\Temp\cckbpOon.s 			page 6


  93:Drivers/BSP/Components/vl53l1cb/modules/vl53l1_api_core.c **** 	int32_t    total_rate_cur = 0;
 176              		.loc 1 93 2 view .LVU52
  94:Drivers/BSP/Components/vl53l1cb/modules/vl53l1_api_core.c **** 	int32_t    PrevBin, CurrBin;
 177              		.loc 1 94 2 view .LVU53
  95:Drivers/BSP/Components/vl53l1cb/modules/vl53l1_api_core.c **** 	uint8_t    roi = pdev->ll_state.rd_zone_id;
 178              		.loc 1 95 2 view .LVU54
 179              		.loc 1 95 13 is_stmt 0 view .LVU55
 180 000e 90F839E0 		ldrb	lr, [r0, #57]	@ zero_extendqisi2
 181              	.LVL22:
  96:Drivers/BSP/Components/vl53l1cb/modules/vl53l1_api_core.c **** 
  97:Drivers/BSP/Components/vl53l1cb/modules/vl53l1_api_core.c **** 	total_rate_pre = 0;
 182              		.loc 1 97 2 is_stmt 1 view .LVU56
  98:Drivers/BSP/Components/vl53l1cb/modules/vl53l1_api_core.c **** 	total_rate_cur = 0;
 183              		.loc 1 98 2 view .LVU57
  99:Drivers/BSP/Components/vl53l1cb/modules/vl53l1_api_core.c **** 	*pdiff_histo_stddev = 0;
 184              		.loc 1 99 2 view .LVU58
 185              		.loc 1 99 22 is_stmt 0 view .LVU59
 186 0012 0024     		movs	r4, #0
 187 0014 C8F80040 		str	r4, [r8]
 100:Drivers/BSP/Components/vl53l1cb/modules/vl53l1_api_core.c **** 
 101:Drivers/BSP/Components/vl53l1cb/modules/vl53l1_api_core.c **** 
 102:Drivers/BSP/Components/vl53l1cb/modules/vl53l1_api_core.c **** 	for (bin = timing * 4; bin < HighIndex; bin++) {
 188              		.loc 1 102 2 is_stmt 1 view .LVU60
 189              		.loc 1 102 11 is_stmt 0 view .LVU61
 190 0018 9700     		lsls	r7, r2, #2
 191              	.LVL23:
 192              		.loc 1 102 11 view .LVU62
 193 001a B946     		mov	r9, r7
  98:Drivers/BSP/Components/vl53l1cb/modules/vl53l1_api_core.c **** 	*pdiff_histo_stddev = 0;
 194              		.loc 1 98 17 view .LVU63
 195 001c 2646     		mov	r6, r4
 196              		.loc 1 102 2 view .LVU64
 197 001e 1CE0     		b	.L12
 198              	.LVL24:
 199              	.L13:
 103:Drivers/BSP/Components/vl53l1cb/modules/vl53l1_api_core.c **** 		total_rate_pre +=
 200              		.loc 1 103 3 is_stmt 1 discriminator 3 view .LVU65
 104:Drivers/BSP/Components/vl53l1cb/modules/vl53l1_api_core.c **** 		pdev->multi_bins_rec[roi][prev_pos][timing][bin];
 201              		.loc 1 104 46 is_stmt 0 discriminator 3 view .LVU66
 202 0020 02EB420A 		add	r10, r2, r2, lsl #1
 203 0024 05EB450C 		add	ip, r5, r5, lsl #1
 204 0028 4FEA0C1C 		lsl	ip, ip, #4
 205 002c 0CEBCA0C 		add	ip, ip, r10, lsl #3
 206 0030 0EEBCE0A 		add	r10, lr, lr, lsl #3
 207 0034 0CEB4A1C 		add	ip, ip, r10, lsl #5
 208 0038 CC44     		add	ip, ip, r9
 209 003a 0CF5EC6C 		add	ip, ip, #1888
 210 003e 00EB8C0C 		add	ip, r0, ip, lsl #2
 211 0042 DCF804C0 		ldr	ip, [ip, #4]
 103:Drivers/BSP/Components/vl53l1cb/modules/vl53l1_api_core.c **** 		total_rate_pre +=
 212              		.loc 1 103 18 discriminator 3 view .LVU67
 213 0046 6444     		add	r4, r4, ip
 214              	.LVL25:
 105:Drivers/BSP/Components/vl53l1cb/modules/vl53l1_api_core.c **** 		total_rate_cur += pdata->bin_data[bin];
 215              		.loc 1 105 3 is_stmt 1 discriminator 3 view .LVU68
 216              		.loc 1 105 36 is_stmt 0 discriminator 3 view .LVU69
 217 0048 09F1060C 		add	ip, r9, #6
ARM GAS  C:\Temp\cckbpOon.s 			page 7


 218 004c 5BF82CC0 		ldr	ip, [fp, ip, lsl #2]
 219              		.loc 1 105 18 discriminator 3 view .LVU70
 220 0050 6644     		add	r6, r6, ip
 221              	.LVL26:
 102:Drivers/BSP/Components/vl53l1cb/modules/vl53l1_api_core.c **** 		total_rate_pre +=
 222              		.loc 1 102 45 is_stmt 1 discriminator 3 view .LVU71
 223 0052 09F10109 		add	r9, r9, #1
 224              	.LVL27:
 102:Drivers/BSP/Components/vl53l1cb/modules/vl53l1_api_core.c **** 		total_rate_pre +=
 225              		.loc 1 102 45 is_stmt 0 discriminator 3 view .LVU72
 226 0056 1FFA89F9 		uxth	r9, r9
 227              	.LVL28:
 228              	.L12:
 102:Drivers/BSP/Components/vl53l1cb/modules/vl53l1_api_core.c **** 		total_rate_pre +=
 229              		.loc 1 102 29 is_stmt 1 discriminator 1 view .LVU73
 230 005a 4B45     		cmp	r3, r9
 231 005c E0D8     		bhi	.L13
 106:Drivers/BSP/Components/vl53l1cb/modules/vl53l1_api_core.c **** 	}
 107:Drivers/BSP/Components/vl53l1cb/modules/vl53l1_api_core.c **** 
 108:Drivers/BSP/Components/vl53l1cb/modules/vl53l1_api_core.c **** 	if ((total_rate_pre != 0) && (total_rate_cur != 0))
 232              		.loc 1 108 2 view .LVU74
 233              		.loc 1 108 5 is_stmt 0 view .LVU75
 234 005e 04B1     		cbz	r4, .L11
 235              		.loc 1 108 28 discriminator 1 view .LVU76
 236 0060 66BB     		cbnz	r6, .L15
 237              	.LVL29:
 238              	.L11:
 109:Drivers/BSP/Components/vl53l1cb/modules/vl53l1_api_core.c **** 		for (bin = timing * 4; bin < HighIndex; bin++) {
 110:Drivers/BSP/Components/vl53l1cb/modules/vl53l1_api_core.c **** 			PrevBin = pdev->multi_bins_rec[roi][prev_pos][timing][bin];
 111:Drivers/BSP/Components/vl53l1cb/modules/vl53l1_api_core.c **** 			PrevBin = (PrevBin * 1000) / total_rate_pre;
 112:Drivers/BSP/Components/vl53l1cb/modules/vl53l1_api_core.c **** 			CurrBin = pdata->bin_data[bin] * 1000 / total_rate_cur;
 113:Drivers/BSP/Components/vl53l1cb/modules/vl53l1_api_core.c **** 			*pdiff_histo_stddev += (PrevBin - CurrBin) *
 114:Drivers/BSP/Components/vl53l1cb/modules/vl53l1_api_core.c **** 					(PrevBin - CurrBin);
 115:Drivers/BSP/Components/vl53l1cb/modules/vl53l1_api_core.c **** 	}
 116:Drivers/BSP/Components/vl53l1cb/modules/vl53l1_api_core.c **** 
 117:Drivers/BSP/Components/vl53l1cb/modules/vl53l1_api_core.c **** }
 239              		.loc 1 117 1 view .LVU77
 240 0062 BDE8F08F 		pop	{r4, r5, r6, r7, r8, r9, r10, fp, pc}
 241              	.LVL30:
 242              	.L16:
 110:Drivers/BSP/Components/vl53l1cb/modules/vl53l1_api_core.c **** 			PrevBin = (PrevBin * 1000) / total_rate_pre;
 243              		.loc 1 110 4 is_stmt 1 discriminator 3 view .LVU78
 110:Drivers/BSP/Components/vl53l1cb/modules/vl53l1_api_core.c **** 			PrevBin = (PrevBin * 1000) / total_rate_pre;
 244              		.loc 1 110 12 is_stmt 0 discriminator 3 view .LVU79
 245 0066 02EB4209 		add	r9, r2, r2, lsl #1
 246 006a 05EB450C 		add	ip, r5, r5, lsl #1
 247 006e 4FEA0C1C 		lsl	ip, ip, #4
 248 0072 0CEBC90C 		add	ip, ip, r9, lsl #3
 249 0076 0EEBCE09 		add	r9, lr, lr, lsl #3
 250 007a 0CEB491C 		add	ip, ip, r9, lsl #5
 251 007e BC44     		add	ip, ip, r7
 252 0080 0CF5EC6C 		add	ip, ip, #1888
 253 0084 00EB8C0C 		add	ip, r0, ip, lsl #2
 254 0088 DCF804C0 		ldr	ip, [ip, #4]
 255              	.LVL31:
 111:Drivers/BSP/Components/vl53l1cb/modules/vl53l1_api_core.c **** 			CurrBin = pdata->bin_data[bin] * 1000 / total_rate_cur;
 256              		.loc 1 111 4 is_stmt 1 discriminator 3 view .LVU80
ARM GAS  C:\Temp\cckbpOon.s 			page 8


 111:Drivers/BSP/Components/vl53l1cb/modules/vl53l1_api_core.c **** 			CurrBin = pdata->bin_data[bin] * 1000 / total_rate_cur;
 257              		.loc 1 111 23 is_stmt 0 discriminator 3 view .LVU81
 258 008c 4FF47A7A 		mov	r10, #1000
 259 0090 0AFB0CFC 		mul	ip, r10, ip
 260              	.LVL32:
 111:Drivers/BSP/Components/vl53l1cb/modules/vl53l1_api_core.c **** 			CurrBin = pdata->bin_data[bin] * 1000 / total_rate_cur;
 261              		.loc 1 111 12 discriminator 3 view .LVU82
 262 0094 9CFBF4FC 		sdiv	ip, ip, r4
 263              	.LVL33:
 112:Drivers/BSP/Components/vl53l1cb/modules/vl53l1_api_core.c **** 			*pdiff_histo_stddev += (PrevBin - CurrBin) *
 264              		.loc 1 112 4 is_stmt 1 discriminator 3 view .LVU83
 112:Drivers/BSP/Components/vl53l1cb/modules/vl53l1_api_core.c **** 			*pdiff_histo_stddev += (PrevBin - CurrBin) *
 265              		.loc 1 112 29 is_stmt 0 discriminator 3 view .LVU84
 266 0098 07F10609 		add	r9, r7, #6
 267 009c 5BF82990 		ldr	r9, [fp, r9, lsl #2]
 112:Drivers/BSP/Components/vl53l1cb/modules/vl53l1_api_core.c **** 			*pdiff_histo_stddev += (PrevBin - CurrBin) *
 268              		.loc 1 112 35 discriminator 3 view .LVU85
 269 00a0 0AFB09F9 		mul	r9, r10, r9
 112:Drivers/BSP/Components/vl53l1cb/modules/vl53l1_api_core.c **** 			*pdiff_histo_stddev += (PrevBin - CurrBin) *
 270              		.loc 1 112 12 discriminator 3 view .LVU86
 271 00a4 99FBF6F9 		sdiv	r9, r9, r6
 272              	.LVL34:
 113:Drivers/BSP/Components/vl53l1cb/modules/vl53l1_api_core.c **** 					(PrevBin - CurrBin);
 273              		.loc 1 113 4 is_stmt 1 discriminator 3 view .LVU87
 113:Drivers/BSP/Components/vl53l1cb/modules/vl53l1_api_core.c **** 					(PrevBin - CurrBin);
 274              		.loc 1 113 36 is_stmt 0 discriminator 3 view .LVU88
 275 00a8 ACEB090C 		sub	ip, ip, r9
 276              	.LVL35:
 113:Drivers/BSP/Components/vl53l1cb/modules/vl53l1_api_core.c **** 					(PrevBin - CurrBin);
 277              		.loc 1 113 24 discriminator 3 view .LVU89
 278 00ac D8F80010 		ldr	r1, [r8]
 279 00b0 0CFB0C1C 		mla	ip, ip, ip, r1
 280 00b4 C8F800C0 		str	ip, [r8]
 281              	.LVL36:
 109:Drivers/BSP/Components/vl53l1cb/modules/vl53l1_api_core.c **** 			PrevBin = pdev->multi_bins_rec[roi][prev_pos][timing][bin];
 282              		.loc 1 109 46 is_stmt 1 discriminator 3 view .LVU90
 283 00b8 0137     		adds	r7, r7, #1
 284              	.LVL37:
 109:Drivers/BSP/Components/vl53l1cb/modules/vl53l1_api_core.c **** 			PrevBin = pdev->multi_bins_rec[roi][prev_pos][timing][bin];
 285              		.loc 1 109 46 is_stmt 0 discriminator 3 view .LVU91
 286 00ba BFB2     		uxth	r7, r7
 287              	.LVL38:
 288              	.L15:
 109:Drivers/BSP/Components/vl53l1cb/modules/vl53l1_api_core.c **** 			PrevBin = pdev->multi_bins_rec[roi][prev_pos][timing][bin];
 289              		.loc 1 109 30 is_stmt 1 discriminator 1 view .LVU92
 290 00bc BB42     		cmp	r3, r7
 291 00be D2D8     		bhi	.L16
 292 00c0 CFE7     		b	.L11
 293              		.cfi_endproc
 294              	.LFE4:
 296              		.section	.text.VL53L1_unload_patch,"ax",%progbits
 297              		.align	1
 298              		.global	VL53L1_unload_patch
 299              		.syntax unified
 300              		.thumb
 301              		.thumb_func
 303              	VL53L1_unload_patch:
ARM GAS  C:\Temp\cckbpOon.s 			page 9


 304              	.LVL39:
 305              	.LFB7:
 118:Drivers/BSP/Components/vl53l1cb/modules/vl53l1_api_core.c **** 
 119:Drivers/BSP/Components/vl53l1cb/modules/vl53l1_api_core.c **** static void vl53l1_histo_merge(VL53L1_DEV Dev,
 120:Drivers/BSP/Components/vl53l1cb/modules/vl53l1_api_core.c **** 		VL53L1_histogram_bin_data_t *pdata, int32_t *pbin_data) {
 121:Drivers/BSP/Components/vl53l1cb/modules/vl53l1_api_core.c **** 	VL53L1_LLDriverData_t *pdev =
 122:Drivers/BSP/Components/vl53l1cb/modules/vl53l1_api_core.c **** 			VL53L1DevStructGetLLDriverHandle(Dev);
 123:Drivers/BSP/Components/vl53l1cb/modules/vl53l1_api_core.c **** 	uint16_t   bin                      = 0;
 124:Drivers/BSP/Components/vl53l1cb/modules/vl53l1_api_core.c **** 	uint8_t    i                        = 0;
 125:Drivers/BSP/Components/vl53l1cb/modules/vl53l1_api_core.c **** 	int32_t    TuningBinRecSize		    = 0;
 126:Drivers/BSP/Components/vl53l1cb/modules/vl53l1_api_core.c **** 	uint8_t    timing					= 0;
 127:Drivers/BSP/Components/vl53l1cb/modules/vl53l1_api_core.c **** 	int32_t    rmt  = 0;
 128:Drivers/BSP/Components/vl53l1cb/modules/vl53l1_api_core.c **** 	int32_t    diff_histo_stddev		= 0;
 129:Drivers/BSP/Components/vl53l1cb/modules/vl53l1_api_core.c **** 	uint8_t    HighIndex;
 130:Drivers/BSP/Components/vl53l1cb/modules/vl53l1_api_core.c **** 	uint8_t    BuffSize = VL53L1_HISTOGRAM_BUFFER_SIZE;
 131:Drivers/BSP/Components/vl53l1cb/modules/vl53l1_api_core.c **** 	uint8_t    pos;
 132:Drivers/BSP/Components/vl53l1cb/modules/vl53l1_api_core.c **** 	uint8_t    roi = pdev->ll_state.rd_zone_id;
 133:Drivers/BSP/Components/vl53l1cb/modules/vl53l1_api_core.c **** 	int32_t    temp;
 134:Drivers/BSP/Components/vl53l1cb/modules/vl53l1_api_core.c **** 
 135:Drivers/BSP/Components/vl53l1cb/modules/vl53l1_api_core.c **** 	VL53L1_get_tuning_parm(Dev, VL53L1_TUNINGPARM_HIST_MERGE_MAX_SIZE,
 136:Drivers/BSP/Components/vl53l1cb/modules/vl53l1_api_core.c **** 			&TuningBinRecSize);
 137:Drivers/BSP/Components/vl53l1cb/modules/vl53l1_api_core.c **** 
 138:Drivers/BSP/Components/vl53l1cb/modules/vl53l1_api_core.c **** 	VL53L1_get_tuning_parm(Dev, VL53L1_TUNINGPARM_RESET_MERGE_THRESHOLD,
 139:Drivers/BSP/Components/vl53l1cb/modules/vl53l1_api_core.c **** 		&rmt);
 140:Drivers/BSP/Components/vl53l1cb/modules/vl53l1_api_core.c **** 
 141:Drivers/BSP/Components/vl53l1cb/modules/vl53l1_api_core.c **** 
 142:Drivers/BSP/Components/vl53l1cb/modules/vl53l1_api_core.c **** 	if (pdev->ll_state.rd_stream_count == 0)
 143:Drivers/BSP/Components/vl53l1cb/modules/vl53l1_api_core.c **** 		memset(pdev->multi_bins_rec, 0,	sizeof(pdev->multi_bins_rec));
 144:Drivers/BSP/Components/vl53l1cb/modules/vl53l1_api_core.c **** 
 145:Drivers/BSP/Components/vl53l1cb/modules/vl53l1_api_core.c **** 	timing = pdata->number_of_ambient_bins / 4;
 146:Drivers/BSP/Components/vl53l1cb/modules/vl53l1_api_core.c **** 
 147:Drivers/BSP/Components/vl53l1cb/modules/vl53l1_api_core.c **** 
 148:Drivers/BSP/Components/vl53l1cb/modules/vl53l1_api_core.c **** 	diff_histo_stddev = 0;
 149:Drivers/BSP/Components/vl53l1cb/modules/vl53l1_api_core.c **** 	HighIndex = BuffSize;
 150:Drivers/BSP/Components/vl53l1cb/modules/vl53l1_api_core.c **** 	temp = 0;
 151:Drivers/BSP/Components/vl53l1cb/modules/vl53l1_api_core.c **** 
 152:Drivers/BSP/Components/vl53l1cb/modules/vl53l1_api_core.c **** 	for (i = 0; i < VL53L1_HISTOGRAM_BUFFER_SIZE; i++)
 153:Drivers/BSP/Components/vl53l1cb/modules/vl53l1_api_core.c **** 	{
 154:Drivers/BSP/Components/vl53l1cb/modules/vl53l1_api_core.c **** 		if (pdev->multi_bins_rec[roi][0][timing][i] > 0)
 155:Drivers/BSP/Components/vl53l1cb/modules/vl53l1_api_core.c **** 			temp = pdev->multi_bins_rec[roi][0][timing][i];
 156:Drivers/BSP/Components/vl53l1cb/modules/vl53l1_api_core.c **** 	}
 157:Drivers/BSP/Components/vl53l1cb/modules/vl53l1_api_core.c **** 
 158:Drivers/BSP/Components/vl53l1cb/modules/vl53l1_api_core.c **** 	if (temp > 0)
 159:Drivers/BSP/Components/vl53l1cb/modules/vl53l1_api_core.c **** 		vl53l1_diff_histo_stddev(pdev, pdata, timing, HighIndex, 0,	&diff_histo_stddev);
 160:Drivers/BSP/Components/vl53l1cb/modules/vl53l1_api_core.c **** 
 161:Drivers/BSP/Components/vl53l1cb/modules/vl53l1_api_core.c **** 	if (diff_histo_stddev >= rmt)
 162:Drivers/BSP/Components/vl53l1cb/modules/vl53l1_api_core.c **** 				memset(pdev->multi_bins_rec, 0,	sizeof(pdev->multi_bins_rec));
 163:Drivers/BSP/Components/vl53l1cb/modules/vl53l1_api_core.c **** 
 164:Drivers/BSP/Components/vl53l1cb/modules/vl53l1_api_core.c **** 
 165:Drivers/BSP/Components/vl53l1cb/modules/vl53l1_api_core.c **** 
 166:Drivers/BSP/Components/vl53l1cb/modules/vl53l1_api_core.c **** 	for (i = 0; i < BuffSize; i++)
 167:Drivers/BSP/Components/vl53l1cb/modules/vl53l1_api_core.c **** 	{
 168:Drivers/BSP/Components/vl53l1cb/modules/vl53l1_api_core.c **** 		for(pos = 0; pos < TuningBinRecSize - 1; pos++)
 169:Drivers/BSP/Components/vl53l1cb/modules/vl53l1_api_core.c **** 		pdev->multi_bins_rec[roi][TuningBinRecSize - pos - 1][timing][i] =
 170:Drivers/BSP/Components/vl53l1cb/modules/vl53l1_api_core.c **** 			pdev->multi_bins_rec[roi][TuningBinRecSize - pos - 2][timing][i];
 171:Drivers/BSP/Components/vl53l1cb/modules/vl53l1_api_core.c **** 	}
 172:Drivers/BSP/Components/vl53l1cb/modules/vl53l1_api_core.c **** 
ARM GAS  C:\Temp\cckbpOon.s 			page 10


 173:Drivers/BSP/Components/vl53l1cb/modules/vl53l1_api_core.c **** 
 174:Drivers/BSP/Components/vl53l1cb/modules/vl53l1_api_core.c **** 	for (i = 0; i < BuffSize; i++)
 175:Drivers/BSP/Components/vl53l1cb/modules/vl53l1_api_core.c **** 		pdev->multi_bins_rec[roi][0][timing][i] = pdata->bin_data[i];
 176:Drivers/BSP/Components/vl53l1cb/modules/vl53l1_api_core.c **** 
 177:Drivers/BSP/Components/vl53l1cb/modules/vl53l1_api_core.c **** 
 178:Drivers/BSP/Components/vl53l1cb/modules/vl53l1_api_core.c **** 	for (bin = 0; bin < BuffSize; bin++)
 179:Drivers/BSP/Components/vl53l1cb/modules/vl53l1_api_core.c **** 		pbin_data[bin] = 0;
 180:Drivers/BSP/Components/vl53l1cb/modules/vl53l1_api_core.c **** 
 181:Drivers/BSP/Components/vl53l1cb/modules/vl53l1_api_core.c **** 	for (bin = 0; bin < BuffSize; bin++)
 182:Drivers/BSP/Components/vl53l1cb/modules/vl53l1_api_core.c **** 		for (i = 0; i < TuningBinRecSize; i++)
 183:Drivers/BSP/Components/vl53l1cb/modules/vl53l1_api_core.c **** 			pbin_data[bin] +=	(pdev->multi_bins_rec[roi][i][timing][bin]);
 184:Drivers/BSP/Components/vl53l1cb/modules/vl53l1_api_core.c **** 
 185:Drivers/BSP/Components/vl53l1cb/modules/vl53l1_api_core.c **** }
 186:Drivers/BSP/Components/vl53l1cb/modules/vl53l1_api_core.c **** 
 187:Drivers/BSP/Components/vl53l1cb/modules/vl53l1_api_core.c **** VL53L1_Error VL53L1_load_patch(
 188:Drivers/BSP/Components/vl53l1cb/modules/vl53l1_api_core.c **** 	VL53L1_DEV Dev) {
 189:Drivers/BSP/Components/vl53l1cb/modules/vl53l1_api_core.c **** 	VL53L1_Error status = VL53L1_ERROR_NONE;
 190:Drivers/BSP/Components/vl53l1cb/modules/vl53l1_api_core.c **** 	int32_t patch_tuning = 0;
 191:Drivers/BSP/Components/vl53l1cb/modules/vl53l1_api_core.c **** 	uint8_t comms_buffer[256];
 192:Drivers/BSP/Components/vl53l1cb/modules/vl53l1_api_core.c **** 	uint32_t patch_power;
 193:Drivers/BSP/Components/vl53l1cb/modules/vl53l1_api_core.c **** 
 194:Drivers/BSP/Components/vl53l1cb/modules/vl53l1_api_core.c **** 	LOG_FUNCTION_START("");
 195:Drivers/BSP/Components/vl53l1cb/modules/vl53l1_api_core.c **** 
 196:Drivers/BSP/Components/vl53l1cb/modules/vl53l1_api_core.c **** 	if (status == VL53L1_ERROR_NONE)
 197:Drivers/BSP/Components/vl53l1cb/modules/vl53l1_api_core.c **** 		status = VL53L1_WrByte(Dev,
 198:Drivers/BSP/Components/vl53l1cb/modules/vl53l1_api_core.c **** 		VL53L1_FIRMWARE__ENABLE, 0x00);
 199:Drivers/BSP/Components/vl53l1cb/modules/vl53l1_api_core.c **** 
 200:Drivers/BSP/Components/vl53l1cb/modules/vl53l1_api_core.c **** 	if (status == VL53L1_ERROR_NONE)
 201:Drivers/BSP/Components/vl53l1cb/modules/vl53l1_api_core.c **** 		VL53L1_enable_powerforce(Dev);
 202:Drivers/BSP/Components/vl53l1cb/modules/vl53l1_api_core.c **** 
 203:Drivers/BSP/Components/vl53l1cb/modules/vl53l1_api_core.c **** 	VL53L1_get_tuning_parm(Dev, VL53L1_TUNINGPARM_PHASECAL_PATCH_POWER,
 204:Drivers/BSP/Components/vl53l1cb/modules/vl53l1_api_core.c **** 			&patch_tuning);
 205:Drivers/BSP/Components/vl53l1cb/modules/vl53l1_api_core.c **** 
 206:Drivers/BSP/Components/vl53l1cb/modules/vl53l1_api_core.c **** 	switch (patch_tuning) {
 207:Drivers/BSP/Components/vl53l1cb/modules/vl53l1_api_core.c **** 	case 0:
 208:Drivers/BSP/Components/vl53l1cb/modules/vl53l1_api_core.c **** 		patch_power = 0x00;
 209:Drivers/BSP/Components/vl53l1cb/modules/vl53l1_api_core.c **** 		break;
 210:Drivers/BSP/Components/vl53l1cb/modules/vl53l1_api_core.c **** 	case 1:
 211:Drivers/BSP/Components/vl53l1cb/modules/vl53l1_api_core.c **** 		patch_power = 0x10;
 212:Drivers/BSP/Components/vl53l1cb/modules/vl53l1_api_core.c **** 		break;
 213:Drivers/BSP/Components/vl53l1cb/modules/vl53l1_api_core.c **** 	case 2:
 214:Drivers/BSP/Components/vl53l1cb/modules/vl53l1_api_core.c **** 		patch_power = 0x20;
 215:Drivers/BSP/Components/vl53l1cb/modules/vl53l1_api_core.c **** 		break;
 216:Drivers/BSP/Components/vl53l1cb/modules/vl53l1_api_core.c **** 	case 3:
 217:Drivers/BSP/Components/vl53l1cb/modules/vl53l1_api_core.c **** 		patch_power = 0x40;
 218:Drivers/BSP/Components/vl53l1cb/modules/vl53l1_api_core.c **** 		break;
 219:Drivers/BSP/Components/vl53l1cb/modules/vl53l1_api_core.c **** 	default:
 220:Drivers/BSP/Components/vl53l1cb/modules/vl53l1_api_core.c **** 		patch_power = 0x00;
 221:Drivers/BSP/Components/vl53l1cb/modules/vl53l1_api_core.c **** 	}
 222:Drivers/BSP/Components/vl53l1cb/modules/vl53l1_api_core.c **** 
 223:Drivers/BSP/Components/vl53l1cb/modules/vl53l1_api_core.c **** 	if (status == VL53L1_ERROR_NONE) {
 224:Drivers/BSP/Components/vl53l1cb/modules/vl53l1_api_core.c **** 
 225:Drivers/BSP/Components/vl53l1cb/modules/vl53l1_api_core.c **** 		comms_buffer[0] = 0x29;
 226:Drivers/BSP/Components/vl53l1cb/modules/vl53l1_api_core.c **** 		comms_buffer[1] = 0xC9;
 227:Drivers/BSP/Components/vl53l1cb/modules/vl53l1_api_core.c **** 		comms_buffer[2] = 0x0E;
 228:Drivers/BSP/Components/vl53l1cb/modules/vl53l1_api_core.c **** 		comms_buffer[3] = 0x40;
 229:Drivers/BSP/Components/vl53l1cb/modules/vl53l1_api_core.c **** 		comms_buffer[4] = 0x28;
ARM GAS  C:\Temp\cckbpOon.s 			page 11


 230:Drivers/BSP/Components/vl53l1cb/modules/vl53l1_api_core.c **** 		comms_buffer[5] = patch_power;
 231:Drivers/BSP/Components/vl53l1cb/modules/vl53l1_api_core.c **** 
 232:Drivers/BSP/Components/vl53l1cb/modules/vl53l1_api_core.c **** 		status = VL53L1_WriteMulti(Dev,
 233:Drivers/BSP/Components/vl53l1cb/modules/vl53l1_api_core.c **** 		VL53L1_PATCH__OFFSET_0, comms_buffer, 6);
 234:Drivers/BSP/Components/vl53l1cb/modules/vl53l1_api_core.c **** 	}
 235:Drivers/BSP/Components/vl53l1cb/modules/vl53l1_api_core.c **** 
 236:Drivers/BSP/Components/vl53l1cb/modules/vl53l1_api_core.c **** 	if (status == VL53L1_ERROR_NONE) {
 237:Drivers/BSP/Components/vl53l1cb/modules/vl53l1_api_core.c **** 		comms_buffer[0] = 0x03;
 238:Drivers/BSP/Components/vl53l1cb/modules/vl53l1_api_core.c **** 		comms_buffer[1] = 0x6D;
 239:Drivers/BSP/Components/vl53l1cb/modules/vl53l1_api_core.c **** 		comms_buffer[2] = 0x03;
 240:Drivers/BSP/Components/vl53l1cb/modules/vl53l1_api_core.c **** 		comms_buffer[3] = 0x6F;
 241:Drivers/BSP/Components/vl53l1cb/modules/vl53l1_api_core.c **** 		comms_buffer[4] = 0x07;
 242:Drivers/BSP/Components/vl53l1cb/modules/vl53l1_api_core.c **** 		comms_buffer[5] = 0x29;
 243:Drivers/BSP/Components/vl53l1cb/modules/vl53l1_api_core.c **** 		status = VL53L1_WriteMulti(Dev,
 244:Drivers/BSP/Components/vl53l1cb/modules/vl53l1_api_core.c **** 		VL53L1_PATCH__ADDRESS_0, comms_buffer, 6);
 245:Drivers/BSP/Components/vl53l1cb/modules/vl53l1_api_core.c **** 	}
 246:Drivers/BSP/Components/vl53l1cb/modules/vl53l1_api_core.c **** 
 247:Drivers/BSP/Components/vl53l1cb/modules/vl53l1_api_core.c **** 	if (status == VL53L1_ERROR_NONE) {
 248:Drivers/BSP/Components/vl53l1cb/modules/vl53l1_api_core.c **** 		comms_buffer[0] = 0x00;
 249:Drivers/BSP/Components/vl53l1cb/modules/vl53l1_api_core.c **** 		comms_buffer[1] = 0x07;
 250:Drivers/BSP/Components/vl53l1cb/modules/vl53l1_api_core.c **** 		status = VL53L1_WriteMulti(Dev,
 251:Drivers/BSP/Components/vl53l1cb/modules/vl53l1_api_core.c **** 		VL53L1_PATCH__JMP_ENABLES, comms_buffer, 2);
 252:Drivers/BSP/Components/vl53l1cb/modules/vl53l1_api_core.c **** 	}
 253:Drivers/BSP/Components/vl53l1cb/modules/vl53l1_api_core.c **** 
 254:Drivers/BSP/Components/vl53l1cb/modules/vl53l1_api_core.c **** 	if (status == VL53L1_ERROR_NONE) {
 255:Drivers/BSP/Components/vl53l1cb/modules/vl53l1_api_core.c **** 		comms_buffer[0] = 0x00;
 256:Drivers/BSP/Components/vl53l1cb/modules/vl53l1_api_core.c **** 		comms_buffer[1] = 0x07;
 257:Drivers/BSP/Components/vl53l1cb/modules/vl53l1_api_core.c **** 		status = VL53L1_WriteMulti(Dev,
 258:Drivers/BSP/Components/vl53l1cb/modules/vl53l1_api_core.c **** 		VL53L1_PATCH__DATA_ENABLES, comms_buffer, 2);
 259:Drivers/BSP/Components/vl53l1cb/modules/vl53l1_api_core.c **** 	}
 260:Drivers/BSP/Components/vl53l1cb/modules/vl53l1_api_core.c **** 
 261:Drivers/BSP/Components/vl53l1cb/modules/vl53l1_api_core.c **** 	if (status == VL53L1_ERROR_NONE)
 262:Drivers/BSP/Components/vl53l1cb/modules/vl53l1_api_core.c **** 		status = VL53L1_WrByte(Dev,
 263:Drivers/BSP/Components/vl53l1cb/modules/vl53l1_api_core.c **** 		VL53L1_PATCH__CTRL, 0x01);
 264:Drivers/BSP/Components/vl53l1cb/modules/vl53l1_api_core.c **** 
 265:Drivers/BSP/Components/vl53l1cb/modules/vl53l1_api_core.c **** 	if (status == VL53L1_ERROR_NONE)
 266:Drivers/BSP/Components/vl53l1cb/modules/vl53l1_api_core.c **** 		status = VL53L1_WrByte(Dev,
 267:Drivers/BSP/Components/vl53l1cb/modules/vl53l1_api_core.c **** 		VL53L1_FIRMWARE__ENABLE, 0x01);
 268:Drivers/BSP/Components/vl53l1cb/modules/vl53l1_api_core.c **** 
 269:Drivers/BSP/Components/vl53l1cb/modules/vl53l1_api_core.c **** 	LOG_FUNCTION_END(status);
 270:Drivers/BSP/Components/vl53l1cb/modules/vl53l1_api_core.c **** 
 271:Drivers/BSP/Components/vl53l1cb/modules/vl53l1_api_core.c **** 	return status;
 272:Drivers/BSP/Components/vl53l1cb/modules/vl53l1_api_core.c **** }
 273:Drivers/BSP/Components/vl53l1cb/modules/vl53l1_api_core.c **** 
 274:Drivers/BSP/Components/vl53l1cb/modules/vl53l1_api_core.c **** VL53L1_Error VL53L1_unload_patch(
 275:Drivers/BSP/Components/vl53l1cb/modules/vl53l1_api_core.c **** 	VL53L1_DEV Dev) {
 306              		.loc 1 275 18 view -0
 307              		.cfi_startproc
 308              		@ args = 0, pretend = 0, frame = 0
 309              		@ frame_needed = 0, uses_anonymous_args = 0
 310              		.loc 1 275 18 is_stmt 0 view .LVU94
 311 0000 10B5     		push	{r4, lr}
 312              		.cfi_def_cfa_offset 8
 313              		.cfi_offset 4, -8
 314              		.cfi_offset 14, -4
 315 0002 0446     		mov	r4, r0
 276:Drivers/BSP/Components/vl53l1cb/modules/vl53l1_api_core.c **** 	VL53L1_Error status = VL53L1_ERROR_NONE;
ARM GAS  C:\Temp\cckbpOon.s 			page 12


 316              		.loc 1 276 2 is_stmt 1 view .LVU95
 317              	.LVL40:
 277:Drivers/BSP/Components/vl53l1cb/modules/vl53l1_api_core.c **** 
 278:Drivers/BSP/Components/vl53l1cb/modules/vl53l1_api_core.c **** 	if (status == VL53L1_ERROR_NONE)
 318              		.loc 1 278 2 view .LVU96
 279:Drivers/BSP/Components/vl53l1cb/modules/vl53l1_api_core.c **** 		status = VL53L1_WrByte(Dev,
 319              		.loc 1 279 3 view .LVU97
 320              		.loc 1 279 12 is_stmt 0 view .LVU98
 321 0004 0022     		movs	r2, #0
 322 0006 8521     		movs	r1, #133
 323 0008 FFF7FEFF 		bl	VL53L1_WrByte
 324              	.LVL41:
 280:Drivers/BSP/Components/vl53l1cb/modules/vl53l1_api_core.c **** 		VL53L1_FIRMWARE__ENABLE, 0x00);
 281:Drivers/BSP/Components/vl53l1cb/modules/vl53l1_api_core.c **** 
 282:Drivers/BSP/Components/vl53l1cb/modules/vl53l1_api_core.c **** 	if (status == VL53L1_ERROR_NONE)
 325              		.loc 1 282 2 is_stmt 1 view .LVU99
 326              		.loc 1 282 5 is_stmt 0 view .LVU100
 327 000c 08B1     		cbz	r0, .L22
 328              	.L19:
 329              	.LVL42:
 283:Drivers/BSP/Components/vl53l1cb/modules/vl53l1_api_core.c **** 		VL53L1_disable_powerforce(Dev);
 284:Drivers/BSP/Components/vl53l1cb/modules/vl53l1_api_core.c **** 
 285:Drivers/BSP/Components/vl53l1cb/modules/vl53l1_api_core.c **** 	if (status == VL53L1_ERROR_NONE)
 286:Drivers/BSP/Components/vl53l1cb/modules/vl53l1_api_core.c **** 		status = VL53L1_WrByte(Dev,
 287:Drivers/BSP/Components/vl53l1cb/modules/vl53l1_api_core.c **** 		VL53L1_PATCH__CTRL, 0x00);
 288:Drivers/BSP/Components/vl53l1cb/modules/vl53l1_api_core.c **** 
 289:Drivers/BSP/Components/vl53l1cb/modules/vl53l1_api_core.c **** 	if (status == VL53L1_ERROR_NONE)
 330              		.loc 1 289 2 is_stmt 1 view .LVU101
 331              		.loc 1 289 5 is_stmt 0 view .LVU102
 332 000e 50B1     		cbz	r0, .L23
 333              	.L20:
 290:Drivers/BSP/Components/vl53l1cb/modules/vl53l1_api_core.c **** 		status = VL53L1_WrByte(Dev,
 291:Drivers/BSP/Components/vl53l1cb/modules/vl53l1_api_core.c **** 		VL53L1_FIRMWARE__ENABLE, 0x01);
 292:Drivers/BSP/Components/vl53l1cb/modules/vl53l1_api_core.c **** 
 293:Drivers/BSP/Components/vl53l1cb/modules/vl53l1_api_core.c **** 	LOG_FUNCTION_END(status);
 334              		.loc 1 293 26 is_stmt 1 view .LVU103
 294:Drivers/BSP/Components/vl53l1cb/modules/vl53l1_api_core.c **** 
 295:Drivers/BSP/Components/vl53l1cb/modules/vl53l1_api_core.c **** 	return status;
 335              		.loc 1 295 2 view .LVU104
 296:Drivers/BSP/Components/vl53l1cb/modules/vl53l1_api_core.c **** }
 336              		.loc 1 296 1 is_stmt 0 view .LVU105
 337 0010 10BD     		pop	{r4, pc}
 338              	.LVL43:
 339              	.L22:
 283:Drivers/BSP/Components/vl53l1cb/modules/vl53l1_api_core.c **** 
 340              		.loc 1 283 3 is_stmt 1 view .LVU106
 341 0012 2046     		mov	r0, r4
 342 0014 FFF7FEFF 		bl	VL53L1_disable_powerforce
 343              	.LVL44:
 285:Drivers/BSP/Components/vl53l1cb/modules/vl53l1_api_core.c **** 		status = VL53L1_WrByte(Dev,
 344              		.loc 1 285 2 view .LVU107
 286:Drivers/BSP/Components/vl53l1cb/modules/vl53l1_api_core.c **** 		VL53L1_PATCH__CTRL, 0x00);
 345              		.loc 1 286 3 view .LVU108
 286:Drivers/BSP/Components/vl53l1cb/modules/vl53l1_api_core.c **** 		VL53L1_PATCH__CTRL, 0x00);
 346              		.loc 1 286 12 is_stmt 0 view .LVU109
 347 0018 0022     		movs	r2, #0
 348 001a 4FF48E61 		mov	r1, #1136
ARM GAS  C:\Temp\cckbpOon.s 			page 13


 349 001e 2046     		mov	r0, r4
 350 0020 FFF7FEFF 		bl	VL53L1_WrByte
 351              	.LVL45:
 286:Drivers/BSP/Components/vl53l1cb/modules/vl53l1_api_core.c **** 		VL53L1_PATCH__CTRL, 0x00);
 352              		.loc 1 286 12 view .LVU110
 353 0024 F3E7     		b	.L19
 354              	.L23:
 290:Drivers/BSP/Components/vl53l1cb/modules/vl53l1_api_core.c **** 		VL53L1_FIRMWARE__ENABLE, 0x01);
 355              		.loc 1 290 3 is_stmt 1 view .LVU111
 290:Drivers/BSP/Components/vl53l1cb/modules/vl53l1_api_core.c **** 		VL53L1_FIRMWARE__ENABLE, 0x01);
 356              		.loc 1 290 12 is_stmt 0 view .LVU112
 357 0026 0122     		movs	r2, #1
 358 0028 8521     		movs	r1, #133
 359 002a 2046     		mov	r0, r4
 360              	.LVL46:
 290:Drivers/BSP/Components/vl53l1cb/modules/vl53l1_api_core.c **** 		VL53L1_FIRMWARE__ENABLE, 0x01);
 361              		.loc 1 290 12 view .LVU113
 362 002c FFF7FEFF 		bl	VL53L1_WrByte
 363              	.LVL47:
 290:Drivers/BSP/Components/vl53l1cb/modules/vl53l1_api_core.c **** 		VL53L1_FIRMWARE__ENABLE, 0x01);
 364              		.loc 1 290 12 view .LVU114
 365 0030 EEE7     		b	.L20
 366              		.cfi_endproc
 367              	.LFE7:
 369              		.section	.text.VL53L1_get_version,"ax",%progbits
 370              		.align	1
 371              		.global	VL53L1_get_version
 372              		.syntax unified
 373              		.thumb
 374              		.thumb_func
 376              	VL53L1_get_version:
 377              	.LVL48:
 378              	.LFB8:
 297:Drivers/BSP/Components/vl53l1cb/modules/vl53l1_api_core.c **** 
 298:Drivers/BSP/Components/vl53l1cb/modules/vl53l1_api_core.c **** VL53L1_Error VL53L1_get_version(
 299:Drivers/BSP/Components/vl53l1cb/modules/vl53l1_api_core.c **** 	VL53L1_DEV           Dev,
 300:Drivers/BSP/Components/vl53l1cb/modules/vl53l1_api_core.c **** 	VL53L1_ll_version_t *pdata)
 301:Drivers/BSP/Components/vl53l1cb/modules/vl53l1_api_core.c **** {
 379              		.loc 1 301 1 is_stmt 1 view -0
 380              		.cfi_startproc
 381              		@ args = 0, pretend = 0, frame = 0
 382              		@ frame_needed = 0, uses_anonymous_args = 0
 383              		.loc 1 301 1 is_stmt 0 view .LVU116
 384 0000 38B5     		push	{r3, r4, r5, lr}
 385              		.cfi_def_cfa_offset 16
 386              		.cfi_offset 3, -16
 387              		.cfi_offset 4, -12
 388              		.cfi_offset 5, -8
 389              		.cfi_offset 14, -4
 390 0002 0546     		mov	r5, r0
 391 0004 0C46     		mov	r4, r1
 302:Drivers/BSP/Components/vl53l1cb/modules/vl53l1_api_core.c **** 
 303:Drivers/BSP/Components/vl53l1cb/modules/vl53l1_api_core.c **** 
 304:Drivers/BSP/Components/vl53l1cb/modules/vl53l1_api_core.c **** 	VL53L1_LLDriverData_t *pdev = VL53L1DevStructGetLLDriverHandle(Dev);
 392              		.loc 1 304 2 is_stmt 1 view .LVU117
 393              	.LVL49:
 305:Drivers/BSP/Components/vl53l1cb/modules/vl53l1_api_core.c **** 
ARM GAS  C:\Temp\cckbpOon.s 			page 14


 306:Drivers/BSP/Components/vl53l1cb/modules/vl53l1_api_core.c **** 	VL53L1_init_version(Dev);
 394              		.loc 1 306 2 view .LVU118
 395 0006 FFF7FEFF 		bl	VL53L1_init_version
 396              	.LVL50:
 307:Drivers/BSP/Components/vl53l1cb/modules/vl53l1_api_core.c **** 
 308:Drivers/BSP/Components/vl53l1cb/modules/vl53l1_api_core.c **** 	memcpy(pdata, &(pdev->version), sizeof(VL53L1_ll_version_t));
 397              		.loc 1 308 2 view .LVU119
 398 000a EA6B     		ldr	r2, [r5, #60]	@ unaligned
 399 000c 2B6C     		ldr	r3, [r5, #64]	@ unaligned
 400 000e 2260     		str	r2, [r4]	@ unaligned
 401 0010 6360     		str	r3, [r4, #4]	@ unaligned
 309:Drivers/BSP/Components/vl53l1cb/modules/vl53l1_api_core.c **** 
 310:Drivers/BSP/Components/vl53l1cb/modules/vl53l1_api_core.c **** 	return VL53L1_ERROR_NONE;
 402              		.loc 1 310 2 view .LVU120
 311:Drivers/BSP/Components/vl53l1cb/modules/vl53l1_api_core.c **** }
 403              		.loc 1 311 1 is_stmt 0 view .LVU121
 404 0012 0020     		movs	r0, #0
 405 0014 38BD     		pop	{r3, r4, r5, pc}
 406              		.loc 1 311 1 view .LVU122
 407              		.cfi_endproc
 408              	.LFE8:
 410              		.section	.text.VL53L1_get_device_firmware_version,"ax",%progbits
 411              		.align	1
 412              		.global	VL53L1_get_device_firmware_version
 413              		.syntax unified
 414              		.thumb
 415              		.thumb_func
 417              	VL53L1_get_device_firmware_version:
 418              	.LVL51:
 419              	.LFB9:
 312:Drivers/BSP/Components/vl53l1cb/modules/vl53l1_api_core.c **** 
 313:Drivers/BSP/Components/vl53l1cb/modules/vl53l1_api_core.c **** 
 314:Drivers/BSP/Components/vl53l1cb/modules/vl53l1_api_core.c **** VL53L1_Error VL53L1_get_device_firmware_version(
 315:Drivers/BSP/Components/vl53l1cb/modules/vl53l1_api_core.c **** 	VL53L1_DEV        Dev,
 316:Drivers/BSP/Components/vl53l1cb/modules/vl53l1_api_core.c **** 	uint16_t         *pfw_version)
 317:Drivers/BSP/Components/vl53l1cb/modules/vl53l1_api_core.c **** {
 420              		.loc 1 317 1 is_stmt 1 view -0
 421              		.cfi_startproc
 422              		@ args = 0, pretend = 0, frame = 0
 423              		@ frame_needed = 0, uses_anonymous_args = 0
 424              		.loc 1 317 1 is_stmt 0 view .LVU124
 425 0000 38B5     		push	{r3, r4, r5, lr}
 426              		.cfi_def_cfa_offset 16
 427              		.cfi_offset 3, -16
 428              		.cfi_offset 4, -12
 429              		.cfi_offset 5, -8
 430              		.cfi_offset 14, -4
 431 0002 0446     		mov	r4, r0
 432 0004 0D46     		mov	r5, r1
 318:Drivers/BSP/Components/vl53l1cb/modules/vl53l1_api_core.c **** 
 319:Drivers/BSP/Components/vl53l1cb/modules/vl53l1_api_core.c **** 
 320:Drivers/BSP/Components/vl53l1cb/modules/vl53l1_api_core.c **** 	VL53L1_Error  status = VL53L1_ERROR_NONE;
 433              		.loc 1 320 2 is_stmt 1 view .LVU125
 434              	.LVL52:
 321:Drivers/BSP/Components/vl53l1cb/modules/vl53l1_api_core.c **** 
 322:Drivers/BSP/Components/vl53l1cb/modules/vl53l1_api_core.c **** 	LOG_FUNCTION_START("");
 435              		.loc 1 322 24 view .LVU126
ARM GAS  C:\Temp\cckbpOon.s 			page 15


 323:Drivers/BSP/Components/vl53l1cb/modules/vl53l1_api_core.c **** 
 324:Drivers/BSP/Components/vl53l1cb/modules/vl53l1_api_core.c **** 	if (status == VL53L1_ERROR_NONE)
 436              		.loc 1 324 2 view .LVU127
 325:Drivers/BSP/Components/vl53l1cb/modules/vl53l1_api_core.c **** 		status = VL53L1_disable_firmware(Dev);
 437              		.loc 1 325 3 view .LVU128
 438              		.loc 1 325 12 is_stmt 0 view .LVU129
 439 0006 FFF7FEFF 		bl	VL53L1_disable_firmware
 440              	.LVL53:
 326:Drivers/BSP/Components/vl53l1cb/modules/vl53l1_api_core.c **** 
 327:Drivers/BSP/Components/vl53l1cb/modules/vl53l1_api_core.c **** 	if (status == VL53L1_ERROR_NONE)
 441              		.loc 1 327 2 is_stmt 1 view .LVU130
 442              		.loc 1 327 5 is_stmt 0 view .LVU131
 443 000a 00B1     		cbz	r0, .L29
 444              	.LVL54:
 445              	.L27:
 328:Drivers/BSP/Components/vl53l1cb/modules/vl53l1_api_core.c **** 		status = VL53L1_RdWord(
 329:Drivers/BSP/Components/vl53l1cb/modules/vl53l1_api_core.c **** 				Dev,
 330:Drivers/BSP/Components/vl53l1cb/modules/vl53l1_api_core.c **** 				VL53L1_MCU_GENERAL_PURPOSE__GP_0,
 331:Drivers/BSP/Components/vl53l1cb/modules/vl53l1_api_core.c **** 				pfw_version);
 332:Drivers/BSP/Components/vl53l1cb/modules/vl53l1_api_core.c **** 
 333:Drivers/BSP/Components/vl53l1cb/modules/vl53l1_api_core.c **** 	if (status == VL53L1_ERROR_NONE)
 334:Drivers/BSP/Components/vl53l1cb/modules/vl53l1_api_core.c **** 		status = VL53L1_enable_firmware(Dev);
 335:Drivers/BSP/Components/vl53l1cb/modules/vl53l1_api_core.c **** 
 336:Drivers/BSP/Components/vl53l1cb/modules/vl53l1_api_core.c **** 	LOG_FUNCTION_END(status);
 446              		.loc 1 336 26 is_stmt 1 view .LVU132
 337:Drivers/BSP/Components/vl53l1cb/modules/vl53l1_api_core.c **** 
 338:Drivers/BSP/Components/vl53l1cb/modules/vl53l1_api_core.c **** 	return status;
 447              		.loc 1 338 2 view .LVU133
 339:Drivers/BSP/Components/vl53l1cb/modules/vl53l1_api_core.c **** }
 448              		.loc 1 339 1 is_stmt 0 view .LVU134
 449 000c 38BD     		pop	{r3, r4, r5, pc}
 450              	.LVL55:
 451              	.L29:
 328:Drivers/BSP/Components/vl53l1cb/modules/vl53l1_api_core.c **** 		status = VL53L1_RdWord(
 452              		.loc 1 328 3 is_stmt 1 view .LVU135
 328:Drivers/BSP/Components/vl53l1cb/modules/vl53l1_api_core.c **** 		status = VL53L1_RdWord(
 453              		.loc 1 328 12 is_stmt 0 view .LVU136
 454 000e 2A46     		mov	r2, r5
 455 0010 40F22C41 		movw	r1, #1068
 456 0014 2046     		mov	r0, r4
 457 0016 FFF7FEFF 		bl	VL53L1_RdWord
 458              	.LVL56:
 333:Drivers/BSP/Components/vl53l1cb/modules/vl53l1_api_core.c **** 		status = VL53L1_enable_firmware(Dev);
 459              		.loc 1 333 2 is_stmt 1 view .LVU137
 333:Drivers/BSP/Components/vl53l1cb/modules/vl53l1_api_core.c **** 		status = VL53L1_enable_firmware(Dev);
 460              		.loc 1 333 5 is_stmt 0 view .LVU138
 461 001a 0028     		cmp	r0, #0
 462 001c F6D1     		bne	.L27
 334:Drivers/BSP/Components/vl53l1cb/modules/vl53l1_api_core.c **** 
 463              		.loc 1 334 3 is_stmt 1 view .LVU139
 334:Drivers/BSP/Components/vl53l1cb/modules/vl53l1_api_core.c **** 
 464              		.loc 1 334 12 is_stmt 0 view .LVU140
 465 001e 2046     		mov	r0, r4
 466              	.LVL57:
 334:Drivers/BSP/Components/vl53l1cb/modules/vl53l1_api_core.c **** 
 467              		.loc 1 334 12 view .LVU141
 468 0020 FFF7FEFF 		bl	VL53L1_enable_firmware
ARM GAS  C:\Temp\cckbpOon.s 			page 16


 469              	.LVL58:
 334:Drivers/BSP/Components/vl53l1cb/modules/vl53l1_api_core.c **** 
 470              		.loc 1 334 12 view .LVU142
 471 0024 F2E7     		b	.L27
 472              		.cfi_endproc
 473              	.LFE9:
 475              		.section	.text.VL53L1_software_reset,"ax",%progbits
 476              		.align	1
 477              		.global	VL53L1_software_reset
 478              		.syntax unified
 479              		.thumb
 480              		.thumb_func
 482              	VL53L1_software_reset:
 483              	.LVL59:
 484              	.LFB12:
 340:Drivers/BSP/Components/vl53l1cb/modules/vl53l1_api_core.c **** 
 341:Drivers/BSP/Components/vl53l1cb/modules/vl53l1_api_core.c **** 
 342:Drivers/BSP/Components/vl53l1cb/modules/vl53l1_api_core.c **** VL53L1_Error VL53L1_data_init(
 343:Drivers/BSP/Components/vl53l1cb/modules/vl53l1_api_core.c **** 	VL53L1_DEV        Dev,
 344:Drivers/BSP/Components/vl53l1cb/modules/vl53l1_api_core.c **** 	uint8_t           read_p2p_data)
 345:Drivers/BSP/Components/vl53l1cb/modules/vl53l1_api_core.c **** {
 346:Drivers/BSP/Components/vl53l1cb/modules/vl53l1_api_core.c **** 
 347:Drivers/BSP/Components/vl53l1cb/modules/vl53l1_api_core.c **** 
 348:Drivers/BSP/Components/vl53l1cb/modules/vl53l1_api_core.c **** 	VL53L1_Error status       = VL53L1_ERROR_NONE;
 349:Drivers/BSP/Components/vl53l1cb/modules/vl53l1_api_core.c **** 	VL53L1_LLDriverData_t    *pdev =
 350:Drivers/BSP/Components/vl53l1cb/modules/vl53l1_api_core.c **** 			VL53L1DevStructGetLLDriverHandle(Dev);
 351:Drivers/BSP/Components/vl53l1cb/modules/vl53l1_api_core.c **** 	VL53L1_LLDriverResults_t *pres =
 352:Drivers/BSP/Components/vl53l1cb/modules/vl53l1_api_core.c **** 			VL53L1DevStructGetLLResultsHandle(Dev);
 353:Drivers/BSP/Components/vl53l1cb/modules/vl53l1_api_core.c **** 
 354:Drivers/BSP/Components/vl53l1cb/modules/vl53l1_api_core.c **** 
 355:Drivers/BSP/Components/vl53l1cb/modules/vl53l1_api_core.c **** 
 356:Drivers/BSP/Components/vl53l1cb/modules/vl53l1_api_core.c **** 	VL53L1_zone_objects_t    *pobjects;
 357:Drivers/BSP/Components/vl53l1cb/modules/vl53l1_api_core.c **** 
 358:Drivers/BSP/Components/vl53l1cb/modules/vl53l1_api_core.c **** 	uint8_t  i = 0;
 359:Drivers/BSP/Components/vl53l1cb/modules/vl53l1_api_core.c **** 
 360:Drivers/BSP/Components/vl53l1cb/modules/vl53l1_api_core.c **** 	LOG_FUNCTION_START("");
 361:Drivers/BSP/Components/vl53l1cb/modules/vl53l1_api_core.c **** 
 362:Drivers/BSP/Components/vl53l1cb/modules/vl53l1_api_core.c **** 	VL53L1_init_ll_driver_state(
 363:Drivers/BSP/Components/vl53l1cb/modules/vl53l1_api_core.c **** 			Dev,
 364:Drivers/BSP/Components/vl53l1cb/modules/vl53l1_api_core.c **** 			VL53L1_DEVICESTATE_UNKNOWN);
 365:Drivers/BSP/Components/vl53l1cb/modules/vl53l1_api_core.c **** 
 366:Drivers/BSP/Components/vl53l1cb/modules/vl53l1_api_core.c **** 	pres->range_results.max_results    = VL53L1_MAX_RANGE_RESULTS;
 367:Drivers/BSP/Components/vl53l1cb/modules/vl53l1_api_core.c **** 	pres->range_results.active_results = 0;
 368:Drivers/BSP/Components/vl53l1cb/modules/vl53l1_api_core.c **** 	pres->zone_results.max_zones       = VL53L1_MAX_USER_ZONES;
 369:Drivers/BSP/Components/vl53l1cb/modules/vl53l1_api_core.c **** 	pres->zone_results.active_zones    = 0;
 370:Drivers/BSP/Components/vl53l1cb/modules/vl53l1_api_core.c **** 
 371:Drivers/BSP/Components/vl53l1cb/modules/vl53l1_api_core.c **** 	for (i = 0; i < VL53L1_MAX_USER_ZONES; i++) {
 372:Drivers/BSP/Components/vl53l1cb/modules/vl53l1_api_core.c **** 		pobjects = &(pres->zone_results.VL53L1_p_002[i]);
 373:Drivers/BSP/Components/vl53l1cb/modules/vl53l1_api_core.c **** 		pobjects->xmonitor.VL53L1_p_020 = 0;
 374:Drivers/BSP/Components/vl53l1cb/modules/vl53l1_api_core.c **** 		pobjects->xmonitor.VL53L1_p_021  = 0;
 375:Drivers/BSP/Components/vl53l1cb/modules/vl53l1_api_core.c **** 		pobjects->xmonitor.VL53L1_p_014          = 0;
 376:Drivers/BSP/Components/vl53l1cb/modules/vl53l1_api_core.c **** 		pobjects->xmonitor.range_status =
 377:Drivers/BSP/Components/vl53l1cb/modules/vl53l1_api_core.c **** 				VL53L1_DEVICEERROR_NOUPDATE;
 378:Drivers/BSP/Components/vl53l1cb/modules/vl53l1_api_core.c **** 	}
 379:Drivers/BSP/Components/vl53l1cb/modules/vl53l1_api_core.c **** 
 380:Drivers/BSP/Components/vl53l1cb/modules/vl53l1_api_core.c **** 
 381:Drivers/BSP/Components/vl53l1cb/modules/vl53l1_api_core.c **** 
ARM GAS  C:\Temp\cckbpOon.s 			page 17


 382:Drivers/BSP/Components/vl53l1cb/modules/vl53l1_api_core.c **** 	pres->zone_hists.max_zones         = VL53L1_MAX_USER_ZONES;
 383:Drivers/BSP/Components/vl53l1cb/modules/vl53l1_api_core.c **** 	pres->zone_hists.active_zones      = 0;
 384:Drivers/BSP/Components/vl53l1cb/modules/vl53l1_api_core.c **** 
 385:Drivers/BSP/Components/vl53l1cb/modules/vl53l1_api_core.c **** 
 386:Drivers/BSP/Components/vl53l1cb/modules/vl53l1_api_core.c **** 
 387:Drivers/BSP/Components/vl53l1cb/modules/vl53l1_api_core.c **** 	pres->zone_cal.max_zones           = VL53L1_MAX_USER_ZONES;
 388:Drivers/BSP/Components/vl53l1cb/modules/vl53l1_api_core.c **** 	pres->zone_cal.active_zones        = 0;
 389:Drivers/BSP/Components/vl53l1cb/modules/vl53l1_api_core.c **** 	for (i = 0; i < VL53L1_MAX_USER_ZONES; i++) {
 390:Drivers/BSP/Components/vl53l1cb/modules/vl53l1_api_core.c **** 		pres->zone_cal.VL53L1_p_002[i].no_of_samples   = 0;
 391:Drivers/BSP/Components/vl53l1cb/modules/vl53l1_api_core.c **** 		pres->zone_cal.VL53L1_p_002[i].effective_spads = 0;
 392:Drivers/BSP/Components/vl53l1cb/modules/vl53l1_api_core.c **** 		pres->zone_cal.VL53L1_p_002[i].peak_rate_mcps  = 0;
 393:Drivers/BSP/Components/vl53l1cb/modules/vl53l1_api_core.c **** 		pres->zone_cal.VL53L1_p_002[i].median_range_mm = 0;
 394:Drivers/BSP/Components/vl53l1cb/modules/vl53l1_api_core.c **** 		pres->zone_cal.VL53L1_p_002[i].range_mm_offset = 0;
 395:Drivers/BSP/Components/vl53l1cb/modules/vl53l1_api_core.c **** 	}
 396:Drivers/BSP/Components/vl53l1cb/modules/vl53l1_api_core.c **** 
 397:Drivers/BSP/Components/vl53l1cb/modules/vl53l1_api_core.c **** 	pdev->wait_method             = VL53L1_WAIT_METHOD_BLOCKING;
 398:Drivers/BSP/Components/vl53l1cb/modules/vl53l1_api_core.c **** 	pdev->preset_mode   = VL53L1_DEVICEPRESETMODE_STANDARD_RANGING;
 399:Drivers/BSP/Components/vl53l1cb/modules/vl53l1_api_core.c **** 	pdev->zone_preset             = VL53L1_DEVICEZONEPRESET_NONE;
 400:Drivers/BSP/Components/vl53l1cb/modules/vl53l1_api_core.c **** 	pdev->measurement_mode        = VL53L1_DEVICEMEASUREMENTMODE_STOP;
 401:Drivers/BSP/Components/vl53l1cb/modules/vl53l1_api_core.c **** 
 402:Drivers/BSP/Components/vl53l1cb/modules/vl53l1_api_core.c **** 	pdev->offset_calibration_mode =
 403:Drivers/BSP/Components/vl53l1cb/modules/vl53l1_api_core.c **** 		VL53L1_OFFSETCALIBRATIONMODE__MM1_MM2__STANDARD;
 404:Drivers/BSP/Components/vl53l1cb/modules/vl53l1_api_core.c **** 	pdev->offset_correction_mode  =
 405:Drivers/BSP/Components/vl53l1cb/modules/vl53l1_api_core.c **** 		VL53L1_OFFSETCORRECTIONMODE__MM1_MM2_OFFSETS;
 406:Drivers/BSP/Components/vl53l1cb/modules/vl53l1_api_core.c **** 	pdev->dmax_mode  =
 407:Drivers/BSP/Components/vl53l1cb/modules/vl53l1_api_core.c **** 		VL53L1_DEVICEDMAXMODE__FMT_CAL_DATA;
 408:Drivers/BSP/Components/vl53l1cb/modules/vl53l1_api_core.c **** 
 409:Drivers/BSP/Components/vl53l1cb/modules/vl53l1_api_core.c **** 	pdev->phasecal_config_timeout_us  =  1000;
 410:Drivers/BSP/Components/vl53l1cb/modules/vl53l1_api_core.c **** 	pdev->mm_config_timeout_us        =  2000;
 411:Drivers/BSP/Components/vl53l1cb/modules/vl53l1_api_core.c **** 	pdev->range_config_timeout_us     = 13000;
 412:Drivers/BSP/Components/vl53l1cb/modules/vl53l1_api_core.c **** 	pdev->inter_measurement_period_ms =   100;
 413:Drivers/BSP/Components/vl53l1cb/modules/vl53l1_api_core.c **** 	pdev->dss_config__target_total_rate_mcps = 0x0A00;
 414:Drivers/BSP/Components/vl53l1cb/modules/vl53l1_api_core.c **** 	pdev->debug_mode                  =  0x00;
 415:Drivers/BSP/Components/vl53l1cb/modules/vl53l1_api_core.c **** 
 416:Drivers/BSP/Components/vl53l1cb/modules/vl53l1_api_core.c **** 	pdev->offset_results.max_results    = VL53L1_MAX_OFFSET_RANGE_RESULTS;
 417:Drivers/BSP/Components/vl53l1cb/modules/vl53l1_api_core.c **** 	pdev->offset_results.active_results = 0;
 418:Drivers/BSP/Components/vl53l1cb/modules/vl53l1_api_core.c **** 
 419:Drivers/BSP/Components/vl53l1cb/modules/vl53l1_api_core.c **** 
 420:Drivers/BSP/Components/vl53l1cb/modules/vl53l1_api_core.c **** 
 421:Drivers/BSP/Components/vl53l1cb/modules/vl53l1_api_core.c **** 	pdev->gain_cal.standard_ranging_gain_factor =
 422:Drivers/BSP/Components/vl53l1cb/modules/vl53l1_api_core.c **** 			VL53L1_TUNINGPARM_LITE_RANGING_GAIN_FACTOR_DEFAULT;
 423:Drivers/BSP/Components/vl53l1cb/modules/vl53l1_api_core.c **** 	pdev->gain_cal.histogram_ranging_gain_factor =
 424:Drivers/BSP/Components/vl53l1cb/modules/vl53l1_api_core.c **** 			VL53L1_TUNINGPARM_HIST_GAIN_FACTOR_DEFAULT;
 425:Drivers/BSP/Components/vl53l1cb/modules/vl53l1_api_core.c **** 
 426:Drivers/BSP/Components/vl53l1cb/modules/vl53l1_api_core.c **** 
 427:Drivers/BSP/Components/vl53l1cb/modules/vl53l1_api_core.c **** 	VL53L1_init_version(Dev);
 428:Drivers/BSP/Components/vl53l1cb/modules/vl53l1_api_core.c **** 
 429:Drivers/BSP/Components/vl53l1cb/modules/vl53l1_api_core.c **** 
 430:Drivers/BSP/Components/vl53l1cb/modules/vl53l1_api_core.c **** 	memset(pdev->multi_bins_rec, 0, sizeof(pdev->multi_bins_rec));
 431:Drivers/BSP/Components/vl53l1cb/modules/vl53l1_api_core.c **** 
 432:Drivers/BSP/Components/vl53l1cb/modules/vl53l1_api_core.c **** 
 433:Drivers/BSP/Components/vl53l1cb/modules/vl53l1_api_core.c **** 
 434:Drivers/BSP/Components/vl53l1cb/modules/vl53l1_api_core.c **** 	if (read_p2p_data > 0 && status == VL53L1_ERROR_NONE)
 435:Drivers/BSP/Components/vl53l1cb/modules/vl53l1_api_core.c **** 		status = VL53L1_read_p2p_data(Dev);
 436:Drivers/BSP/Components/vl53l1cb/modules/vl53l1_api_core.c **** 
 437:Drivers/BSP/Components/vl53l1cb/modules/vl53l1_api_core.c **** 
 438:Drivers/BSP/Components/vl53l1cb/modules/vl53l1_api_core.c **** 	if (status == VL53L1_ERROR_NONE)
ARM GAS  C:\Temp\cckbpOon.s 			page 18


 439:Drivers/BSP/Components/vl53l1cb/modules/vl53l1_api_core.c **** 		status = VL53L1_init_refspadchar_config_struct(
 440:Drivers/BSP/Components/vl53l1cb/modules/vl53l1_api_core.c **** 			&(pdev->refspadchar));
 441:Drivers/BSP/Components/vl53l1cb/modules/vl53l1_api_core.c **** 
 442:Drivers/BSP/Components/vl53l1cb/modules/vl53l1_api_core.c **** 
 443:Drivers/BSP/Components/vl53l1cb/modules/vl53l1_api_core.c **** 	if (status == VL53L1_ERROR_NONE)
 444:Drivers/BSP/Components/vl53l1cb/modules/vl53l1_api_core.c **** 		status = VL53L1_init_ssc_config_struct(
 445:Drivers/BSP/Components/vl53l1cb/modules/vl53l1_api_core.c **** 			&(pdev->ssc_cfg));
 446:Drivers/BSP/Components/vl53l1cb/modules/vl53l1_api_core.c **** 
 447:Drivers/BSP/Components/vl53l1cb/modules/vl53l1_api_core.c **** 
 448:Drivers/BSP/Components/vl53l1cb/modules/vl53l1_api_core.c **** 	if (status == VL53L1_ERROR_NONE)
 449:Drivers/BSP/Components/vl53l1cb/modules/vl53l1_api_core.c **** 		status = VL53L1_init_xtalk_config_struct(
 450:Drivers/BSP/Components/vl53l1cb/modules/vl53l1_api_core.c **** 			&(pdev->customer),
 451:Drivers/BSP/Components/vl53l1cb/modules/vl53l1_api_core.c **** 			&(pdev->xtalk_cfg));
 452:Drivers/BSP/Components/vl53l1cb/modules/vl53l1_api_core.c **** 
 453:Drivers/BSP/Components/vl53l1cb/modules/vl53l1_api_core.c **** 
 454:Drivers/BSP/Components/vl53l1cb/modules/vl53l1_api_core.c **** 	if (status == VL53L1_ERROR_NONE)
 455:Drivers/BSP/Components/vl53l1cb/modules/vl53l1_api_core.c **** 		status = VL53L1_init_xtalk_extract_config_struct(
 456:Drivers/BSP/Components/vl53l1cb/modules/vl53l1_api_core.c **** 			&(pdev->xtalk_extract_cfg));
 457:Drivers/BSP/Components/vl53l1cb/modules/vl53l1_api_core.c **** 
 458:Drivers/BSP/Components/vl53l1cb/modules/vl53l1_api_core.c **** 
 459:Drivers/BSP/Components/vl53l1cb/modules/vl53l1_api_core.c **** 	if (status == VL53L1_ERROR_NONE)
 460:Drivers/BSP/Components/vl53l1cb/modules/vl53l1_api_core.c **** 		status = VL53L1_init_offset_cal_config_struct(
 461:Drivers/BSP/Components/vl53l1cb/modules/vl53l1_api_core.c **** 		    &(pdev->offsetcal_cfg));
 462:Drivers/BSP/Components/vl53l1cb/modules/vl53l1_api_core.c **** 
 463:Drivers/BSP/Components/vl53l1cb/modules/vl53l1_api_core.c **** 
 464:Drivers/BSP/Components/vl53l1cb/modules/vl53l1_api_core.c **** 	if (status == VL53L1_ERROR_NONE)
 465:Drivers/BSP/Components/vl53l1cb/modules/vl53l1_api_core.c **** 		status = VL53L1_init_zone_cal_config_struct(
 466:Drivers/BSP/Components/vl53l1cb/modules/vl53l1_api_core.c **** 			&(pdev->zonecal_cfg));
 467:Drivers/BSP/Components/vl53l1cb/modules/vl53l1_api_core.c **** 
 468:Drivers/BSP/Components/vl53l1cb/modules/vl53l1_api_core.c **** 
 469:Drivers/BSP/Components/vl53l1cb/modules/vl53l1_api_core.c **** 	if (status == VL53L1_ERROR_NONE)
 470:Drivers/BSP/Components/vl53l1cb/modules/vl53l1_api_core.c **** 		status = VL53L1_init_hist_post_process_config_struct(
 471:Drivers/BSP/Components/vl53l1cb/modules/vl53l1_api_core.c **** 			pdev->xtalk_cfg.global_crosstalk_compensation_enable,
 472:Drivers/BSP/Components/vl53l1cb/modules/vl53l1_api_core.c **** 			&(pdev->histpostprocess));
 473:Drivers/BSP/Components/vl53l1cb/modules/vl53l1_api_core.c **** 
 474:Drivers/BSP/Components/vl53l1cb/modules/vl53l1_api_core.c **** 
 475:Drivers/BSP/Components/vl53l1cb/modules/vl53l1_api_core.c **** 	if (status == VL53L1_ERROR_NONE)
 476:Drivers/BSP/Components/vl53l1cb/modules/vl53l1_api_core.c **** 		status = VL53L1_init_hist_gen3_dmax_config_struct(
 477:Drivers/BSP/Components/vl53l1cb/modules/vl53l1_api_core.c **** 			&(pdev->dmax_cfg));
 478:Drivers/BSP/Components/vl53l1cb/modules/vl53l1_api_core.c **** 
 479:Drivers/BSP/Components/vl53l1cb/modules/vl53l1_api_core.c **** 
 480:Drivers/BSP/Components/vl53l1cb/modules/vl53l1_api_core.c **** 	if (status == VL53L1_ERROR_NONE)
 481:Drivers/BSP/Components/vl53l1cb/modules/vl53l1_api_core.c **** 		status = VL53L1_init_tuning_parm_storage_struct(
 482:Drivers/BSP/Components/vl53l1cb/modules/vl53l1_api_core.c **** 			&(pdev->tuning_parms));
 483:Drivers/BSP/Components/vl53l1cb/modules/vl53l1_api_core.c **** 
 484:Drivers/BSP/Components/vl53l1cb/modules/vl53l1_api_core.c **** 
 485:Drivers/BSP/Components/vl53l1cb/modules/vl53l1_api_core.c **** 
 486:Drivers/BSP/Components/vl53l1cb/modules/vl53l1_api_core.c **** 	if (status == VL53L1_ERROR_NONE)
 487:Drivers/BSP/Components/vl53l1cb/modules/vl53l1_api_core.c **** 		status = VL53L1_set_preset_mode(
 488:Drivers/BSP/Components/vl53l1cb/modules/vl53l1_api_core.c **** 			Dev,
 489:Drivers/BSP/Components/vl53l1cb/modules/vl53l1_api_core.c **** 			pdev->preset_mode,
 490:Drivers/BSP/Components/vl53l1cb/modules/vl53l1_api_core.c **** 			pdev->dss_config__target_total_rate_mcps,
 491:Drivers/BSP/Components/vl53l1cb/modules/vl53l1_api_core.c **** 			pdev->phasecal_config_timeout_us,
 492:Drivers/BSP/Components/vl53l1cb/modules/vl53l1_api_core.c **** 			pdev->mm_config_timeout_us,
 493:Drivers/BSP/Components/vl53l1cb/modules/vl53l1_api_core.c **** 			pdev->range_config_timeout_us,
 494:Drivers/BSP/Components/vl53l1cb/modules/vl53l1_api_core.c **** 			pdev->inter_measurement_period_ms);
 495:Drivers/BSP/Components/vl53l1cb/modules/vl53l1_api_core.c **** 
ARM GAS  C:\Temp\cckbpOon.s 			page 19


 496:Drivers/BSP/Components/vl53l1cb/modules/vl53l1_api_core.c **** 
 497:Drivers/BSP/Components/vl53l1cb/modules/vl53l1_api_core.c **** 	VL53L1_init_histogram_bin_data_struct(
 498:Drivers/BSP/Components/vl53l1cb/modules/vl53l1_api_core.c **** 			0,
 499:Drivers/BSP/Components/vl53l1cb/modules/vl53l1_api_core.c **** 			VL53L1_HISTOGRAM_BUFFER_SIZE,
 500:Drivers/BSP/Components/vl53l1cb/modules/vl53l1_api_core.c **** 			&(pdev->hist_data));
 501:Drivers/BSP/Components/vl53l1cb/modules/vl53l1_api_core.c **** 
 502:Drivers/BSP/Components/vl53l1cb/modules/vl53l1_api_core.c **** 	VL53L1_init_histogram_bin_data_struct(
 503:Drivers/BSP/Components/vl53l1cb/modules/vl53l1_api_core.c **** 			0,
 504:Drivers/BSP/Components/vl53l1cb/modules/vl53l1_api_core.c **** 			VL53L1_HISTOGRAM_BUFFER_SIZE,
 505:Drivers/BSP/Components/vl53l1cb/modules/vl53l1_api_core.c **** 			&(pdev->hist_xtalk));
 506:Drivers/BSP/Components/vl53l1cb/modules/vl53l1_api_core.c **** 
 507:Drivers/BSP/Components/vl53l1cb/modules/vl53l1_api_core.c **** 
 508:Drivers/BSP/Components/vl53l1cb/modules/vl53l1_api_core.c **** 	VL53L1_init_xtalk_bin_data_struct(
 509:Drivers/BSP/Components/vl53l1cb/modules/vl53l1_api_core.c **** 			0,
 510:Drivers/BSP/Components/vl53l1cb/modules/vl53l1_api_core.c **** 			VL53L1_XTALK_HISTO_BINS,
 511:Drivers/BSP/Components/vl53l1cb/modules/vl53l1_api_core.c **** 			&(pdev->xtalk_shapes.xtalk_shape));
 512:Drivers/BSP/Components/vl53l1cb/modules/vl53l1_api_core.c **** 
 513:Drivers/BSP/Components/vl53l1cb/modules/vl53l1_api_core.c **** 
 514:Drivers/BSP/Components/vl53l1cb/modules/vl53l1_api_core.c **** 
 515:Drivers/BSP/Components/vl53l1cb/modules/vl53l1_api_core.c **** 	VL53L1_xtalk_cal_data_init(
 516:Drivers/BSP/Components/vl53l1cb/modules/vl53l1_api_core.c **** 			Dev
 517:Drivers/BSP/Components/vl53l1cb/modules/vl53l1_api_core.c **** 			);
 518:Drivers/BSP/Components/vl53l1cb/modules/vl53l1_api_core.c **** 
 519:Drivers/BSP/Components/vl53l1cb/modules/vl53l1_api_core.c **** 
 520:Drivers/BSP/Components/vl53l1cb/modules/vl53l1_api_core.c **** 
 521:Drivers/BSP/Components/vl53l1cb/modules/vl53l1_api_core.c **** 	VL53L1_dynamic_xtalk_correction_data_init(
 522:Drivers/BSP/Components/vl53l1cb/modules/vl53l1_api_core.c **** 			Dev
 523:Drivers/BSP/Components/vl53l1cb/modules/vl53l1_api_core.c **** 			);
 524:Drivers/BSP/Components/vl53l1cb/modules/vl53l1_api_core.c **** 
 525:Drivers/BSP/Components/vl53l1cb/modules/vl53l1_api_core.c **** 
 526:Drivers/BSP/Components/vl53l1cb/modules/vl53l1_api_core.c **** 
 527:Drivers/BSP/Components/vl53l1cb/modules/vl53l1_api_core.c **** 	VL53L1_low_power_auto_data_init(
 528:Drivers/BSP/Components/vl53l1cb/modules/vl53l1_api_core.c **** 			Dev
 529:Drivers/BSP/Components/vl53l1cb/modules/vl53l1_api_core.c **** 			);
 530:Drivers/BSP/Components/vl53l1cb/modules/vl53l1_api_core.c **** 
 531:Drivers/BSP/Components/vl53l1cb/modules/vl53l1_api_core.c **** #ifdef VL53L1_LOG_ENABLE
 532:Drivers/BSP/Components/vl53l1cb/modules/vl53l1_api_core.c **** 
 533:Drivers/BSP/Components/vl53l1cb/modules/vl53l1_api_core.c **** 
 534:Drivers/BSP/Components/vl53l1cb/modules/vl53l1_api_core.c **** 
 535:Drivers/BSP/Components/vl53l1cb/modules/vl53l1_api_core.c **** 	VL53L1_print_static_nvm_managed(
 536:Drivers/BSP/Components/vl53l1cb/modules/vl53l1_api_core.c **** 		&(pdev->stat_nvm),
 537:Drivers/BSP/Components/vl53l1cb/modules/vl53l1_api_core.c **** 		"data_init():pdev->lldata.stat_nvm.",
 538:Drivers/BSP/Components/vl53l1cb/modules/vl53l1_api_core.c **** 		VL53L1_TRACE_MODULE_DATA_INIT);
 539:Drivers/BSP/Components/vl53l1cb/modules/vl53l1_api_core.c **** 
 540:Drivers/BSP/Components/vl53l1cb/modules/vl53l1_api_core.c **** 	VL53L1_print_customer_nvm_managed(
 541:Drivers/BSP/Components/vl53l1cb/modules/vl53l1_api_core.c **** 		&(pdev->customer),
 542:Drivers/BSP/Components/vl53l1cb/modules/vl53l1_api_core.c **** 		"data_init():pdev->lldata.customer.",
 543:Drivers/BSP/Components/vl53l1cb/modules/vl53l1_api_core.c **** 		VL53L1_TRACE_MODULE_DATA_INIT);
 544:Drivers/BSP/Components/vl53l1cb/modules/vl53l1_api_core.c **** 
 545:Drivers/BSP/Components/vl53l1cb/modules/vl53l1_api_core.c **** 	VL53L1_print_nvm_copy_data(
 546:Drivers/BSP/Components/vl53l1cb/modules/vl53l1_api_core.c **** 		&(pdev->nvm_copy_data),
 547:Drivers/BSP/Components/vl53l1cb/modules/vl53l1_api_core.c **** 		"data_init():pdev->lldata.nvm_copy_data.",
 548:Drivers/BSP/Components/vl53l1cb/modules/vl53l1_api_core.c **** 		VL53L1_TRACE_MODULE_DATA_INIT);
 549:Drivers/BSP/Components/vl53l1cb/modules/vl53l1_api_core.c **** 
 550:Drivers/BSP/Components/vl53l1cb/modules/vl53l1_api_core.c **** 	VL53L1_print_dmax_calibration_data(
 551:Drivers/BSP/Components/vl53l1cb/modules/vl53l1_api_core.c **** 		&(pdev->fmt_dmax_cal),
 552:Drivers/BSP/Components/vl53l1cb/modules/vl53l1_api_core.c **** 		"data_init():pdev->lldata.fmt_dmax_cal.",
ARM GAS  C:\Temp\cckbpOon.s 			page 20


 553:Drivers/BSP/Components/vl53l1cb/modules/vl53l1_api_core.c **** 		VL53L1_TRACE_MODULE_DATA_INIT);
 554:Drivers/BSP/Components/vl53l1cb/modules/vl53l1_api_core.c **** 
 555:Drivers/BSP/Components/vl53l1cb/modules/vl53l1_api_core.c **** 	VL53L1_print_dmax_calibration_data(
 556:Drivers/BSP/Components/vl53l1cb/modules/vl53l1_api_core.c **** 		&(pdev->cust_dmax_cal),
 557:Drivers/BSP/Components/vl53l1cb/modules/vl53l1_api_core.c **** 		"data_init():pdev->lldata.cust_dmax_cal.",
 558:Drivers/BSP/Components/vl53l1cb/modules/vl53l1_api_core.c **** 		VL53L1_TRACE_MODULE_DATA_INIT);
 559:Drivers/BSP/Components/vl53l1cb/modules/vl53l1_api_core.c **** 
 560:Drivers/BSP/Components/vl53l1cb/modules/vl53l1_api_core.c **** 	VL53L1_print_additional_offset_cal_data(
 561:Drivers/BSP/Components/vl53l1cb/modules/vl53l1_api_core.c **** 		&(pdev->add_off_cal_data),
 562:Drivers/BSP/Components/vl53l1cb/modules/vl53l1_api_core.c **** 		"data_init():pdev->lldata.add_off_cal_data.",
 563:Drivers/BSP/Components/vl53l1cb/modules/vl53l1_api_core.c **** 		VL53L1_TRACE_MODULE_DATA_INIT);
 564:Drivers/BSP/Components/vl53l1cb/modules/vl53l1_api_core.c **** 
 565:Drivers/BSP/Components/vl53l1cb/modules/vl53l1_api_core.c **** 	VL53L1_print_user_zone(
 566:Drivers/BSP/Components/vl53l1cb/modules/vl53l1_api_core.c **** 		&(pdev->mm_roi),
 567:Drivers/BSP/Components/vl53l1cb/modules/vl53l1_api_core.c **** 		"data_init():pdev->lldata.mm_roi.",
 568:Drivers/BSP/Components/vl53l1cb/modules/vl53l1_api_core.c **** 		VL53L1_TRACE_MODULE_DATA_INIT);
 569:Drivers/BSP/Components/vl53l1cb/modules/vl53l1_api_core.c **** 
 570:Drivers/BSP/Components/vl53l1cb/modules/vl53l1_api_core.c **** 	VL53L1_print_optical_centre(
 571:Drivers/BSP/Components/vl53l1cb/modules/vl53l1_api_core.c **** 		&(pdev->optical_centre),
 572:Drivers/BSP/Components/vl53l1cb/modules/vl53l1_api_core.c **** 		"data_init():pdev->lldata.optical_centre.",
 573:Drivers/BSP/Components/vl53l1cb/modules/vl53l1_api_core.c **** 		VL53L1_TRACE_MODULE_DATA_INIT);
 574:Drivers/BSP/Components/vl53l1cb/modules/vl53l1_api_core.c **** 
 575:Drivers/BSP/Components/vl53l1cb/modules/vl53l1_api_core.c **** 	VL53L1_print_cal_peak_rate_map(
 576:Drivers/BSP/Components/vl53l1cb/modules/vl53l1_api_core.c **** 		&(pdev->cal_peak_rate_map),
 577:Drivers/BSP/Components/vl53l1cb/modules/vl53l1_api_core.c **** 		"data_init():pdev->lldata.cal_peak_rate_map.",
 578:Drivers/BSP/Components/vl53l1cb/modules/vl53l1_api_core.c **** 		VL53L1_TRACE_MODULE_DATA_INIT);
 579:Drivers/BSP/Components/vl53l1cb/modules/vl53l1_api_core.c **** 
 580:Drivers/BSP/Components/vl53l1cb/modules/vl53l1_api_core.c **** #endif
 581:Drivers/BSP/Components/vl53l1cb/modules/vl53l1_api_core.c **** 
 582:Drivers/BSP/Components/vl53l1cb/modules/vl53l1_api_core.c **** 	LOG_FUNCTION_END(status);
 583:Drivers/BSP/Components/vl53l1cb/modules/vl53l1_api_core.c **** 
 584:Drivers/BSP/Components/vl53l1cb/modules/vl53l1_api_core.c **** 	return status;
 585:Drivers/BSP/Components/vl53l1cb/modules/vl53l1_api_core.c **** }
 586:Drivers/BSP/Components/vl53l1cb/modules/vl53l1_api_core.c **** 
 587:Drivers/BSP/Components/vl53l1cb/modules/vl53l1_api_core.c **** 
 588:Drivers/BSP/Components/vl53l1cb/modules/vl53l1_api_core.c **** VL53L1_Error VL53L1_read_p2p_data(
 589:Drivers/BSP/Components/vl53l1cb/modules/vl53l1_api_core.c **** 	VL53L1_DEV        Dev)
 590:Drivers/BSP/Components/vl53l1cb/modules/vl53l1_api_core.c **** {
 591:Drivers/BSP/Components/vl53l1cb/modules/vl53l1_api_core.c **** 
 592:Drivers/BSP/Components/vl53l1cb/modules/vl53l1_api_core.c **** 
 593:Drivers/BSP/Components/vl53l1cb/modules/vl53l1_api_core.c **** 
 594:Drivers/BSP/Components/vl53l1cb/modules/vl53l1_api_core.c **** 	VL53L1_Error status       = VL53L1_ERROR_NONE;
 595:Drivers/BSP/Components/vl53l1cb/modules/vl53l1_api_core.c **** 	VL53L1_LLDriverData_t *pdev = VL53L1DevStructGetLLDriverHandle(Dev);
 596:Drivers/BSP/Components/vl53l1cb/modules/vl53l1_api_core.c **** 	VL53L1_hist_post_process_config_t *pHP = &(pdev->histpostprocess);
 597:Drivers/BSP/Components/vl53l1cb/modules/vl53l1_api_core.c **** 	VL53L1_customer_nvm_managed_t *pN = &(pdev->customer);
 598:Drivers/BSP/Components/vl53l1cb/modules/vl53l1_api_core.c **** 	VL53L1_additional_offset_cal_data_t *pCD = &(pdev->add_off_cal_data);
 599:Drivers/BSP/Components/vl53l1cb/modules/vl53l1_api_core.c **** 
 600:Drivers/BSP/Components/vl53l1cb/modules/vl53l1_api_core.c **** 	VL53L1_decoded_nvm_fmt_range_data_t fmt_rrd;
 601:Drivers/BSP/Components/vl53l1cb/modules/vl53l1_api_core.c **** 
 602:Drivers/BSP/Components/vl53l1cb/modules/vl53l1_api_core.c **** 	LOG_FUNCTION_START("");
 603:Drivers/BSP/Components/vl53l1cb/modules/vl53l1_api_core.c **** 
 604:Drivers/BSP/Components/vl53l1cb/modules/vl53l1_api_core.c **** 	if (status == VL53L1_ERROR_NONE)
 605:Drivers/BSP/Components/vl53l1cb/modules/vl53l1_api_core.c **** 		status = VL53L1_get_static_nvm_managed(
 606:Drivers/BSP/Components/vl53l1cb/modules/vl53l1_api_core.c **** 						Dev,
 607:Drivers/BSP/Components/vl53l1cb/modules/vl53l1_api_core.c **** 						&(pdev->stat_nvm));
 608:Drivers/BSP/Components/vl53l1cb/modules/vl53l1_api_core.c **** 
 609:Drivers/BSP/Components/vl53l1cb/modules/vl53l1_api_core.c **** 	if (status == VL53L1_ERROR_NONE)
ARM GAS  C:\Temp\cckbpOon.s 			page 21


 610:Drivers/BSP/Components/vl53l1cb/modules/vl53l1_api_core.c **** 		status = VL53L1_get_customer_nvm_managed(
 611:Drivers/BSP/Components/vl53l1cb/modules/vl53l1_api_core.c **** 						Dev,
 612:Drivers/BSP/Components/vl53l1cb/modules/vl53l1_api_core.c **** 						&(pdev->customer));
 613:Drivers/BSP/Components/vl53l1cb/modules/vl53l1_api_core.c **** 
 614:Drivers/BSP/Components/vl53l1cb/modules/vl53l1_api_core.c **** 	if (status == VL53L1_ERROR_NONE) {
 615:Drivers/BSP/Components/vl53l1cb/modules/vl53l1_api_core.c **** 
 616:Drivers/BSP/Components/vl53l1cb/modules/vl53l1_api_core.c **** 		status = VL53L1_get_nvm_copy_data(
 617:Drivers/BSP/Components/vl53l1cb/modules/vl53l1_api_core.c **** 						Dev,
 618:Drivers/BSP/Components/vl53l1cb/modules/vl53l1_api_core.c **** 						&(pdev->nvm_copy_data));
 619:Drivers/BSP/Components/vl53l1cb/modules/vl53l1_api_core.c **** 
 620:Drivers/BSP/Components/vl53l1cb/modules/vl53l1_api_core.c **** 
 621:Drivers/BSP/Components/vl53l1cb/modules/vl53l1_api_core.c **** 		if (status == VL53L1_ERROR_NONE)
 622:Drivers/BSP/Components/vl53l1cb/modules/vl53l1_api_core.c **** 			VL53L1_copy_rtn_good_spads_to_buffer(
 623:Drivers/BSP/Components/vl53l1cb/modules/vl53l1_api_core.c **** 					&(pdev->nvm_copy_data),
 624:Drivers/BSP/Components/vl53l1cb/modules/vl53l1_api_core.c **** 					&(pdev->rtn_good_spads[0]));
 625:Drivers/BSP/Components/vl53l1cb/modules/vl53l1_api_core.c **** 	}
 626:Drivers/BSP/Components/vl53l1cb/modules/vl53l1_api_core.c **** 
 627:Drivers/BSP/Components/vl53l1cb/modules/vl53l1_api_core.c **** 
 628:Drivers/BSP/Components/vl53l1cb/modules/vl53l1_api_core.c **** 
 629:Drivers/BSP/Components/vl53l1cb/modules/vl53l1_api_core.c **** 	if (status == VL53L1_ERROR_NONE) {
 630:Drivers/BSP/Components/vl53l1cb/modules/vl53l1_api_core.c **** 		pHP->algo__crosstalk_compensation_plane_offset_kcps =
 631:Drivers/BSP/Components/vl53l1cb/modules/vl53l1_api_core.c **** 		pN->algo__crosstalk_compensation_plane_offset_kcps;
 632:Drivers/BSP/Components/vl53l1cb/modules/vl53l1_api_core.c **** 		pHP->algo__crosstalk_compensation_x_plane_gradient_kcps =
 633:Drivers/BSP/Components/vl53l1cb/modules/vl53l1_api_core.c **** 		pN->algo__crosstalk_compensation_x_plane_gradient_kcps;
 634:Drivers/BSP/Components/vl53l1cb/modules/vl53l1_api_core.c **** 		pHP->algo__crosstalk_compensation_y_plane_gradient_kcps =
 635:Drivers/BSP/Components/vl53l1cb/modules/vl53l1_api_core.c **** 		pN->algo__crosstalk_compensation_y_plane_gradient_kcps;
 636:Drivers/BSP/Components/vl53l1cb/modules/vl53l1_api_core.c **** 	}
 637:Drivers/BSP/Components/vl53l1cb/modules/vl53l1_api_core.c **** 
 638:Drivers/BSP/Components/vl53l1cb/modules/vl53l1_api_core.c **** 
 639:Drivers/BSP/Components/vl53l1cb/modules/vl53l1_api_core.c **** 	if (status == VL53L1_ERROR_NONE)
 640:Drivers/BSP/Components/vl53l1cb/modules/vl53l1_api_core.c **** 		status =
 641:Drivers/BSP/Components/vl53l1cb/modules/vl53l1_api_core.c **** 			VL53L1_read_nvm_optical_centre(
 642:Drivers/BSP/Components/vl53l1cb/modules/vl53l1_api_core.c **** 				Dev,
 643:Drivers/BSP/Components/vl53l1cb/modules/vl53l1_api_core.c **** 				&(pdev->optical_centre));
 644:Drivers/BSP/Components/vl53l1cb/modules/vl53l1_api_core.c **** 
 645:Drivers/BSP/Components/vl53l1cb/modules/vl53l1_api_core.c **** 
 646:Drivers/BSP/Components/vl53l1cb/modules/vl53l1_api_core.c **** 
 647:Drivers/BSP/Components/vl53l1cb/modules/vl53l1_api_core.c **** 	if (status == VL53L1_ERROR_NONE)
 648:Drivers/BSP/Components/vl53l1cb/modules/vl53l1_api_core.c **** 		status =
 649:Drivers/BSP/Components/vl53l1cb/modules/vl53l1_api_core.c **** 			VL53L1_read_nvm_cal_peak_rate_map(
 650:Drivers/BSP/Components/vl53l1cb/modules/vl53l1_api_core.c **** 				Dev,
 651:Drivers/BSP/Components/vl53l1cb/modules/vl53l1_api_core.c **** 				&(pdev->cal_peak_rate_map));
 652:Drivers/BSP/Components/vl53l1cb/modules/vl53l1_api_core.c **** 
 653:Drivers/BSP/Components/vl53l1cb/modules/vl53l1_api_core.c **** 
 654:Drivers/BSP/Components/vl53l1cb/modules/vl53l1_api_core.c **** 
 655:Drivers/BSP/Components/vl53l1cb/modules/vl53l1_api_core.c **** 	if (status == VL53L1_ERROR_NONE) {
 656:Drivers/BSP/Components/vl53l1cb/modules/vl53l1_api_core.c **** 
 657:Drivers/BSP/Components/vl53l1cb/modules/vl53l1_api_core.c **** 		status =
 658:Drivers/BSP/Components/vl53l1cb/modules/vl53l1_api_core.c **** 			VL53L1_read_nvm_additional_offset_cal_data(
 659:Drivers/BSP/Components/vl53l1cb/modules/vl53l1_api_core.c **** 				Dev,
 660:Drivers/BSP/Components/vl53l1cb/modules/vl53l1_api_core.c **** 				&(pdev->add_off_cal_data));
 661:Drivers/BSP/Components/vl53l1cb/modules/vl53l1_api_core.c **** 
 662:Drivers/BSP/Components/vl53l1cb/modules/vl53l1_api_core.c **** 
 663:Drivers/BSP/Components/vl53l1cb/modules/vl53l1_api_core.c **** 
 664:Drivers/BSP/Components/vl53l1cb/modules/vl53l1_api_core.c **** 		if (pCD->result__mm_inner_peak_signal_count_rtn_mcps == 0 &&
 665:Drivers/BSP/Components/vl53l1cb/modules/vl53l1_api_core.c **** 			pCD->result__mm_outer_peak_signal_count_rtn_mcps == 0) {
 666:Drivers/BSP/Components/vl53l1cb/modules/vl53l1_api_core.c **** 
ARM GAS  C:\Temp\cckbpOon.s 			page 22


 667:Drivers/BSP/Components/vl53l1cb/modules/vl53l1_api_core.c **** 			pCD->result__mm_inner_peak_signal_count_rtn_mcps
 668:Drivers/BSP/Components/vl53l1cb/modules/vl53l1_api_core.c **** 					= 0x0080;
 669:Drivers/BSP/Components/vl53l1cb/modules/vl53l1_api_core.c **** 			pCD->result__mm_outer_peak_signal_count_rtn_mcps
 670:Drivers/BSP/Components/vl53l1cb/modules/vl53l1_api_core.c **** 					= 0x0180;
 671:Drivers/BSP/Components/vl53l1cb/modules/vl53l1_api_core.c **** 
 672:Drivers/BSP/Components/vl53l1cb/modules/vl53l1_api_core.c **** 
 673:Drivers/BSP/Components/vl53l1cb/modules/vl53l1_api_core.c **** 
 674:Drivers/BSP/Components/vl53l1cb/modules/vl53l1_api_core.c **** 			VL53L1_calc_mm_effective_spads(
 675:Drivers/BSP/Components/vl53l1cb/modules/vl53l1_api_core.c **** 			pdev->nvm_copy_data.roi_config__mode_roi_centre_spad,
 676:Drivers/BSP/Components/vl53l1cb/modules/vl53l1_api_core.c **** 			pdev->nvm_copy_data.roi_config__mode_roi_xy_size,
 677:Drivers/BSP/Components/vl53l1cb/modules/vl53l1_api_core.c **** 			0xC7,
 678:Drivers/BSP/Components/vl53l1cb/modules/vl53l1_api_core.c **** 			0xFF,
 679:Drivers/BSP/Components/vl53l1cb/modules/vl53l1_api_core.c **** 			&(pdev->rtn_good_spads[0]),
 680:Drivers/BSP/Components/vl53l1cb/modules/vl53l1_api_core.c **** 			VL53L1_RTN_SPAD_APERTURE_TRANSMISSION,
 681:Drivers/BSP/Components/vl53l1cb/modules/vl53l1_api_core.c **** 			&(pCD->result__mm_inner_actual_effective_spads),
 682:Drivers/BSP/Components/vl53l1cb/modules/vl53l1_api_core.c **** 			&(pCD->result__mm_outer_actual_effective_spads));
 683:Drivers/BSP/Components/vl53l1cb/modules/vl53l1_api_core.c **** 		}
 684:Drivers/BSP/Components/vl53l1cb/modules/vl53l1_api_core.c **** 	}
 685:Drivers/BSP/Components/vl53l1cb/modules/vl53l1_api_core.c **** 
 686:Drivers/BSP/Components/vl53l1cb/modules/vl53l1_api_core.c **** 
 687:Drivers/BSP/Components/vl53l1cb/modules/vl53l1_api_core.c **** 	if (status == VL53L1_ERROR_NONE) {
 688:Drivers/BSP/Components/vl53l1cb/modules/vl53l1_api_core.c **** 
 689:Drivers/BSP/Components/vl53l1cb/modules/vl53l1_api_core.c **** 		status =
 690:Drivers/BSP/Components/vl53l1cb/modules/vl53l1_api_core.c **** 			VL53L1_read_nvm_fmt_range_results_data(
 691:Drivers/BSP/Components/vl53l1cb/modules/vl53l1_api_core.c **** 				Dev,
 692:Drivers/BSP/Components/vl53l1cb/modules/vl53l1_api_core.c **** 				VL53L1_NVM__FMT__RANGE_RESULTS__140MM_DARK,
 693:Drivers/BSP/Components/vl53l1cb/modules/vl53l1_api_core.c **** 				&fmt_rrd);
 694:Drivers/BSP/Components/vl53l1cb/modules/vl53l1_api_core.c **** 
 695:Drivers/BSP/Components/vl53l1cb/modules/vl53l1_api_core.c **** 		if (status == VL53L1_ERROR_NONE) {
 696:Drivers/BSP/Components/vl53l1cb/modules/vl53l1_api_core.c **** 			pdev->fmt_dmax_cal.ref__actual_effective_spads =
 697:Drivers/BSP/Components/vl53l1cb/modules/vl53l1_api_core.c **** 			fmt_rrd.result__actual_effective_rtn_spads;
 698:Drivers/BSP/Components/vl53l1cb/modules/vl53l1_api_core.c **** 			pdev->fmt_dmax_cal.ref__peak_signal_count_rate_mcps =
 699:Drivers/BSP/Components/vl53l1cb/modules/vl53l1_api_core.c **** 			fmt_rrd.result__peak_signal_count_rate_rtn_mcps;
 700:Drivers/BSP/Components/vl53l1cb/modules/vl53l1_api_core.c **** 			pdev->fmt_dmax_cal.ref__distance_mm =
 701:Drivers/BSP/Components/vl53l1cb/modules/vl53l1_api_core.c **** 			fmt_rrd.measured_distance_mm;
 702:Drivers/BSP/Components/vl53l1cb/modules/vl53l1_api_core.c **** 
 703:Drivers/BSP/Components/vl53l1cb/modules/vl53l1_api_core.c **** 
 704:Drivers/BSP/Components/vl53l1cb/modules/vl53l1_api_core.c **** 			if (pdev->cal_peak_rate_map.cal_reflectance_pc != 0) {
 705:Drivers/BSP/Components/vl53l1cb/modules/vl53l1_api_core.c **** 				pdev->fmt_dmax_cal.ref_reflectance_pc =
 706:Drivers/BSP/Components/vl53l1cb/modules/vl53l1_api_core.c **** 				pdev->cal_peak_rate_map.cal_reflectance_pc;
 707:Drivers/BSP/Components/vl53l1cb/modules/vl53l1_api_core.c **** 			} else {
 708:Drivers/BSP/Components/vl53l1cb/modules/vl53l1_api_core.c **** 				pdev->fmt_dmax_cal.ref_reflectance_pc = 0x0014;
 709:Drivers/BSP/Components/vl53l1cb/modules/vl53l1_api_core.c **** 			}
 710:Drivers/BSP/Components/vl53l1cb/modules/vl53l1_api_core.c **** 
 711:Drivers/BSP/Components/vl53l1cb/modules/vl53l1_api_core.c **** 
 712:Drivers/BSP/Components/vl53l1cb/modules/vl53l1_api_core.c **** 			pdev->fmt_dmax_cal.coverglass_transmission = 0x0100;
 713:Drivers/BSP/Components/vl53l1cb/modules/vl53l1_api_core.c **** 		}
 714:Drivers/BSP/Components/vl53l1cb/modules/vl53l1_api_core.c **** 	}
 715:Drivers/BSP/Components/vl53l1cb/modules/vl53l1_api_core.c **** 
 716:Drivers/BSP/Components/vl53l1cb/modules/vl53l1_api_core.c **** 
 717:Drivers/BSP/Components/vl53l1cb/modules/vl53l1_api_core.c **** 	if (status == VL53L1_ERROR_NONE)
 718:Drivers/BSP/Components/vl53l1cb/modules/vl53l1_api_core.c **** 		status =
 719:Drivers/BSP/Components/vl53l1cb/modules/vl53l1_api_core.c **** 			VL53L1_RdWord(
 720:Drivers/BSP/Components/vl53l1cb/modules/vl53l1_api_core.c **** 				Dev,
 721:Drivers/BSP/Components/vl53l1cb/modules/vl53l1_api_core.c **** 				VL53L1_RESULT__OSC_CALIBRATE_VAL,
 722:Drivers/BSP/Components/vl53l1cb/modules/vl53l1_api_core.c **** 				&(pdev->dbg_results.result__osc_calibrate_val));
 723:Drivers/BSP/Components/vl53l1cb/modules/vl53l1_api_core.c **** 
ARM GAS  C:\Temp\cckbpOon.s 			page 23


 724:Drivers/BSP/Components/vl53l1cb/modules/vl53l1_api_core.c **** 
 725:Drivers/BSP/Components/vl53l1cb/modules/vl53l1_api_core.c **** 
 726:Drivers/BSP/Components/vl53l1cb/modules/vl53l1_api_core.c **** 	if (pdev->stat_nvm.osc_measured__fast_osc__frequency < 0x1000) {
 727:Drivers/BSP/Components/vl53l1cb/modules/vl53l1_api_core.c **** 		trace_print(
 728:Drivers/BSP/Components/vl53l1cb/modules/vl53l1_api_core.c **** 			VL53L1_TRACE_LEVEL_WARNING,
 729:Drivers/BSP/Components/vl53l1cb/modules/vl53l1_api_core.c **** 			"\nInvalid %s value (0x%04X) - forcing to 0x%04X\n\n",
 730:Drivers/BSP/Components/vl53l1cb/modules/vl53l1_api_core.c **** 			"pdev->stat_nvm.osc_measured__fast_osc__frequency",
 731:Drivers/BSP/Components/vl53l1cb/modules/vl53l1_api_core.c **** 			pdev->stat_nvm.osc_measured__fast_osc__frequency,
 732:Drivers/BSP/Components/vl53l1cb/modules/vl53l1_api_core.c **** 			0xBCCC);
 733:Drivers/BSP/Components/vl53l1cb/modules/vl53l1_api_core.c **** 		pdev->stat_nvm.osc_measured__fast_osc__frequency = 0xBCCC;
 734:Drivers/BSP/Components/vl53l1cb/modules/vl53l1_api_core.c **** 	}
 735:Drivers/BSP/Components/vl53l1cb/modules/vl53l1_api_core.c **** 
 736:Drivers/BSP/Components/vl53l1cb/modules/vl53l1_api_core.c **** 
 737:Drivers/BSP/Components/vl53l1cb/modules/vl53l1_api_core.c **** 
 738:Drivers/BSP/Components/vl53l1cb/modules/vl53l1_api_core.c **** 	if (status == VL53L1_ERROR_NONE)
 739:Drivers/BSP/Components/vl53l1cb/modules/vl53l1_api_core.c **** 		status =
 740:Drivers/BSP/Components/vl53l1cb/modules/vl53l1_api_core.c **** 			VL53L1_get_mode_mitigation_roi(
 741:Drivers/BSP/Components/vl53l1cb/modules/vl53l1_api_core.c **** 				Dev,
 742:Drivers/BSP/Components/vl53l1cb/modules/vl53l1_api_core.c **** 				&(pdev->mm_roi));
 743:Drivers/BSP/Components/vl53l1cb/modules/vl53l1_api_core.c **** 
 744:Drivers/BSP/Components/vl53l1cb/modules/vl53l1_api_core.c **** 
 745:Drivers/BSP/Components/vl53l1cb/modules/vl53l1_api_core.c **** 
 746:Drivers/BSP/Components/vl53l1cb/modules/vl53l1_api_core.c **** 	if (pdev->optical_centre.x_centre == 0 &&
 747:Drivers/BSP/Components/vl53l1cb/modules/vl53l1_api_core.c **** 		pdev->optical_centre.y_centre == 0) {
 748:Drivers/BSP/Components/vl53l1cb/modules/vl53l1_api_core.c **** 		pdev->optical_centre.x_centre =
 749:Drivers/BSP/Components/vl53l1cb/modules/vl53l1_api_core.c **** 				pdev->mm_roi.x_centre << 4;
 750:Drivers/BSP/Components/vl53l1cb/modules/vl53l1_api_core.c **** 		pdev->optical_centre.y_centre =
 751:Drivers/BSP/Components/vl53l1cb/modules/vl53l1_api_core.c **** 				pdev->mm_roi.y_centre << 4;
 752:Drivers/BSP/Components/vl53l1cb/modules/vl53l1_api_core.c **** 	}
 753:Drivers/BSP/Components/vl53l1cb/modules/vl53l1_api_core.c **** 
 754:Drivers/BSP/Components/vl53l1cb/modules/vl53l1_api_core.c **** 	LOG_FUNCTION_END(status);
 755:Drivers/BSP/Components/vl53l1cb/modules/vl53l1_api_core.c **** 
 756:Drivers/BSP/Components/vl53l1cb/modules/vl53l1_api_core.c **** 	return status;
 757:Drivers/BSP/Components/vl53l1cb/modules/vl53l1_api_core.c **** }
 758:Drivers/BSP/Components/vl53l1cb/modules/vl53l1_api_core.c **** 
 759:Drivers/BSP/Components/vl53l1cb/modules/vl53l1_api_core.c **** 
 760:Drivers/BSP/Components/vl53l1cb/modules/vl53l1_api_core.c **** VL53L1_Error VL53L1_software_reset(
 761:Drivers/BSP/Components/vl53l1cb/modules/vl53l1_api_core.c **** 	VL53L1_DEV    Dev)
 762:Drivers/BSP/Components/vl53l1cb/modules/vl53l1_api_core.c **** {
 485              		.loc 1 762 1 is_stmt 1 view -0
 486              		.cfi_startproc
 487              		@ args = 0, pretend = 0, frame = 0
 488              		@ frame_needed = 0, uses_anonymous_args = 0
 489              		.loc 1 762 1 is_stmt 0 view .LVU144
 490 0000 10B5     		push	{r4, lr}
 491              		.cfi_def_cfa_offset 8
 492              		.cfi_offset 4, -8
 493              		.cfi_offset 14, -4
 494 0002 0446     		mov	r4, r0
 763:Drivers/BSP/Components/vl53l1cb/modules/vl53l1_api_core.c **** 
 764:Drivers/BSP/Components/vl53l1cb/modules/vl53l1_api_core.c **** 
 765:Drivers/BSP/Components/vl53l1cb/modules/vl53l1_api_core.c **** 	VL53L1_Error status       = VL53L1_ERROR_NONE;
 495              		.loc 1 765 2 is_stmt 1 view .LVU145
 496              	.LVL60:
 766:Drivers/BSP/Components/vl53l1cb/modules/vl53l1_api_core.c **** 
 767:Drivers/BSP/Components/vl53l1cb/modules/vl53l1_api_core.c **** 	LOG_FUNCTION_START("");
 497              		.loc 1 767 24 view .LVU146
ARM GAS  C:\Temp\cckbpOon.s 			page 24


 768:Drivers/BSP/Components/vl53l1cb/modules/vl53l1_api_core.c **** 
 769:Drivers/BSP/Components/vl53l1cb/modules/vl53l1_api_core.c **** 
 770:Drivers/BSP/Components/vl53l1cb/modules/vl53l1_api_core.c **** 	if (status == VL53L1_ERROR_NONE)
 498              		.loc 1 770 2 view .LVU147
 771:Drivers/BSP/Components/vl53l1cb/modules/vl53l1_api_core.c **** 		status = VL53L1_WrByte(
 499              		.loc 1 771 3 view .LVU148
 500              		.loc 1 771 12 is_stmt 0 view .LVU149
 501 0004 0022     		movs	r2, #0
 502 0006 1146     		mov	r1, r2
 503 0008 FFF7FEFF 		bl	VL53L1_WrByte
 504              	.LVL61:
 772:Drivers/BSP/Components/vl53l1cb/modules/vl53l1_api_core.c **** 						Dev,
 773:Drivers/BSP/Components/vl53l1cb/modules/vl53l1_api_core.c **** 						VL53L1_SOFT_RESET,
 774:Drivers/BSP/Components/vl53l1cb/modules/vl53l1_api_core.c **** 						0x00);
 775:Drivers/BSP/Components/vl53l1cb/modules/vl53l1_api_core.c **** 
 776:Drivers/BSP/Components/vl53l1cb/modules/vl53l1_api_core.c **** 
 777:Drivers/BSP/Components/vl53l1cb/modules/vl53l1_api_core.c **** 	if (status == VL53L1_ERROR_NONE)
 505              		.loc 1 777 2 is_stmt 1 view .LVU150
 506              		.loc 1 777 5 is_stmt 0 view .LVU151
 507 000c 0346     		mov	r3, r0
 508 000e 10B1     		cbz	r0, .L34
 509              	.LVL62:
 510              	.L31:
 778:Drivers/BSP/Components/vl53l1cb/modules/vl53l1_api_core.c **** 		status =
 779:Drivers/BSP/Components/vl53l1cb/modules/vl53l1_api_core.c **** 			VL53L1_WaitUs(
 780:Drivers/BSP/Components/vl53l1cb/modules/vl53l1_api_core.c **** 				Dev,
 781:Drivers/BSP/Components/vl53l1cb/modules/vl53l1_api_core.c **** 				VL53L1_SOFTWARE_RESET_DURATION_US);
 782:Drivers/BSP/Components/vl53l1cb/modules/vl53l1_api_core.c **** 
 783:Drivers/BSP/Components/vl53l1cb/modules/vl53l1_api_core.c **** 
 784:Drivers/BSP/Components/vl53l1cb/modules/vl53l1_api_core.c **** 	if (status == VL53L1_ERROR_NONE)
 785:Drivers/BSP/Components/vl53l1cb/modules/vl53l1_api_core.c **** 		status = VL53L1_WrByte(
 786:Drivers/BSP/Components/vl53l1cb/modules/vl53l1_api_core.c **** 						Dev,
 787:Drivers/BSP/Components/vl53l1cb/modules/vl53l1_api_core.c **** 						VL53L1_SOFT_RESET,
 788:Drivers/BSP/Components/vl53l1cb/modules/vl53l1_api_core.c **** 						0x01);
 789:Drivers/BSP/Components/vl53l1cb/modules/vl53l1_api_core.c **** 
 790:Drivers/BSP/Components/vl53l1cb/modules/vl53l1_api_core.c **** 
 791:Drivers/BSP/Components/vl53l1cb/modules/vl53l1_api_core.c **** 	if (status == VL53L1_ERROR_NONE)
 511              		.loc 1 791 2 is_stmt 1 view .LVU152
 512              		.loc 1 791 5 is_stmt 0 view .LVU153
 513 0010 7BB1     		cbz	r3, .L35
 514              	.LVL63:
 515              	.L32:
 792:Drivers/BSP/Components/vl53l1cb/modules/vl53l1_api_core.c **** 		status = VL53L1_wait_for_boot_completion(Dev);
 793:Drivers/BSP/Components/vl53l1cb/modules/vl53l1_api_core.c **** 
 794:Drivers/BSP/Components/vl53l1cb/modules/vl53l1_api_core.c **** 	LOG_FUNCTION_END(status);
 516              		.loc 1 794 26 is_stmt 1 view .LVU154
 795:Drivers/BSP/Components/vl53l1cb/modules/vl53l1_api_core.c **** 
 796:Drivers/BSP/Components/vl53l1cb/modules/vl53l1_api_core.c **** 	return status;
 517              		.loc 1 796 2 view .LVU155
 797:Drivers/BSP/Components/vl53l1cb/modules/vl53l1_api_core.c **** }
 518              		.loc 1 797 1 is_stmt 0 view .LVU156
 519 0012 1846     		mov	r0, r3
 520 0014 10BD     		pop	{r4, pc}
 521              	.LVL64:
 522              	.L34:
 778:Drivers/BSP/Components/vl53l1cb/modules/vl53l1_api_core.c **** 			VL53L1_WaitUs(
 523              		.loc 1 778 3 is_stmt 1 view .LVU157
ARM GAS  C:\Temp\cckbpOon.s 			page 25


 779:Drivers/BSP/Components/vl53l1cb/modules/vl53l1_api_core.c **** 				Dev,
 524              		.loc 1 779 4 is_stmt 0 view .LVU158
 525 0016 6421     		movs	r1, #100
 526 0018 2046     		mov	r0, r4
 527              	.LVL65:
 779:Drivers/BSP/Components/vl53l1cb/modules/vl53l1_api_core.c **** 				Dev,
 528              		.loc 1 779 4 view .LVU159
 529 001a FFF7FEFF 		bl	VL53L1_WaitUs
 530              	.LVL66:
 784:Drivers/BSP/Components/vl53l1cb/modules/vl53l1_api_core.c **** 		status = VL53L1_WrByte(
 531              		.loc 1 784 2 is_stmt 1 view .LVU160
 784:Drivers/BSP/Components/vl53l1cb/modules/vl53l1_api_core.c **** 		status = VL53L1_WrByte(
 532              		.loc 1 784 5 is_stmt 0 view .LVU161
 533 001e 0346     		mov	r3, r0
 534 0020 0028     		cmp	r0, #0
 535 0022 F6D1     		bne	.L32
 785:Drivers/BSP/Components/vl53l1cb/modules/vl53l1_api_core.c **** 						Dev,
 536              		.loc 1 785 3 is_stmt 1 view .LVU162
 785:Drivers/BSP/Components/vl53l1cb/modules/vl53l1_api_core.c **** 						Dev,
 537              		.loc 1 785 12 is_stmt 0 view .LVU163
 538 0024 0122     		movs	r2, #1
 539 0026 0021     		movs	r1, #0
 540 0028 2046     		mov	r0, r4
 541              	.LVL67:
 785:Drivers/BSP/Components/vl53l1cb/modules/vl53l1_api_core.c **** 						Dev,
 542              		.loc 1 785 12 view .LVU164
 543 002a FFF7FEFF 		bl	VL53L1_WrByte
 544              	.LVL68:
 545 002e 0346     		mov	r3, r0
 546              	.LVL69:
 785:Drivers/BSP/Components/vl53l1cb/modules/vl53l1_api_core.c **** 						Dev,
 547              		.loc 1 785 12 view .LVU165
 548 0030 EEE7     		b	.L31
 549              	.L35:
 792:Drivers/BSP/Components/vl53l1cb/modules/vl53l1_api_core.c **** 
 550              		.loc 1 792 3 is_stmt 1 view .LVU166
 792:Drivers/BSP/Components/vl53l1cb/modules/vl53l1_api_core.c **** 
 551              		.loc 1 792 12 is_stmt 0 view .LVU167
 552 0032 2046     		mov	r0, r4
 553 0034 FFF7FEFF 		bl	VL53L1_wait_for_boot_completion
 554              	.LVL70:
 792:Drivers/BSP/Components/vl53l1cb/modules/vl53l1_api_core.c **** 
 555              		.loc 1 792 12 view .LVU168
 556 0038 0346     		mov	r3, r0
 557              	.LVL71:
 792:Drivers/BSP/Components/vl53l1cb/modules/vl53l1_api_core.c **** 
 558              		.loc 1 792 12 view .LVU169
 559 003a EAE7     		b	.L32
 560              		.cfi_endproc
 561              	.LFE12:
 563              		.section	.text.VL53L1_set_part_to_part_data,"ax",%progbits
 564              		.align	1
 565              		.global	VL53L1_set_part_to_part_data
 566              		.syntax unified
 567              		.thumb
 568              		.thumb_func
 570              	VL53L1_set_part_to_part_data:
ARM GAS  C:\Temp\cckbpOon.s 			page 26


 571              	.LVL72:
 572              	.LFB13:
 798:Drivers/BSP/Components/vl53l1cb/modules/vl53l1_api_core.c **** 
 799:Drivers/BSP/Components/vl53l1cb/modules/vl53l1_api_core.c **** 
 800:Drivers/BSP/Components/vl53l1cb/modules/vl53l1_api_core.c **** VL53L1_Error VL53L1_set_part_to_part_data(
 801:Drivers/BSP/Components/vl53l1cb/modules/vl53l1_api_core.c **** 	VL53L1_DEV                            Dev,
 802:Drivers/BSP/Components/vl53l1cb/modules/vl53l1_api_core.c **** 	VL53L1_calibration_data_t            *pcal_data)
 803:Drivers/BSP/Components/vl53l1cb/modules/vl53l1_api_core.c **** {
 573              		.loc 1 803 1 is_stmt 1 view -0
 574              		.cfi_startproc
 575              		@ args = 0, pretend = 0, frame = 0
 576              		@ frame_needed = 0, uses_anonymous_args = 0
 577              		.loc 1 803 1 is_stmt 0 view .LVU171
 578 0000 70B5     		push	{r4, r5, r6, lr}
 579              		.cfi_def_cfa_offset 16
 580              		.cfi_offset 4, -16
 581              		.cfi_offset 5, -12
 582              		.cfi_offset 6, -8
 583              		.cfi_offset 14, -4
 584 0002 0D46     		mov	r5, r1
 804:Drivers/BSP/Components/vl53l1cb/modules/vl53l1_api_core.c **** 
 805:Drivers/BSP/Components/vl53l1cb/modules/vl53l1_api_core.c **** 
 806:Drivers/BSP/Components/vl53l1cb/modules/vl53l1_api_core.c **** 	VL53L1_Error  status = VL53L1_ERROR_NONE;
 585              		.loc 1 806 2 is_stmt 1 view .LVU172
 586              	.LVL73:
 807:Drivers/BSP/Components/vl53l1cb/modules/vl53l1_api_core.c **** 	VL53L1_LLDriverData_t *pdev = VL53L1DevStructGetLLDriverHandle(Dev);
 587              		.loc 1 807 2 view .LVU173
 808:Drivers/BSP/Components/vl53l1cb/modules/vl53l1_api_core.c **** 	VL53L1_xtalk_config_t *pC = &(pdev->xtalk_cfg);
 588              		.loc 1 808 2 view .LVU174
 809:Drivers/BSP/Components/vl53l1cb/modules/vl53l1_api_core.c **** 	VL53L1_hist_post_process_config_t *pHP = &(pdev->histpostprocess);
 589              		.loc 1 809 2 view .LVU175
 810:Drivers/BSP/Components/vl53l1cb/modules/vl53l1_api_core.c **** 	VL53L1_customer_nvm_managed_t *pN = &(pdev->customer);
 590              		.loc 1 810 2 view .LVU176
 811:Drivers/BSP/Components/vl53l1cb/modules/vl53l1_api_core.c **** 
 812:Drivers/BSP/Components/vl53l1cb/modules/vl53l1_api_core.c **** 	uint32_t tempu32;
 591              		.loc 1 812 2 view .LVU177
 813:Drivers/BSP/Components/vl53l1cb/modules/vl53l1_api_core.c **** 
 814:Drivers/BSP/Components/vl53l1cb/modules/vl53l1_api_core.c **** 	LOG_FUNCTION_START("");
 592              		.loc 1 814 24 view .LVU178
 815:Drivers/BSP/Components/vl53l1cb/modules/vl53l1_api_core.c **** 
 816:Drivers/BSP/Components/vl53l1cb/modules/vl53l1_api_core.c **** 	if (pcal_data->struct_version !=
 593              		.loc 1 816 2 view .LVU179
 594              		.loc 1 816 15 is_stmt 0 view .LVU180
 595 0004 0968     		ldr	r1, [r1]
 596              	.LVL74:
 597              		.loc 1 816 5 view .LVU181
 598 0006 4C4A     		ldr	r2, .L44
 599 0008 9142     		cmp	r1, r2
 600 000a 40F09180 		bne	.L41
 601 000e 0446     		mov	r4, r0
 817:Drivers/BSP/Components/vl53l1cb/modules/vl53l1_api_core.c **** 		VL53L1_LL_CALIBRATION_DATA_STRUCT_VERSION) {
 818:Drivers/BSP/Components/vl53l1cb/modules/vl53l1_api_core.c **** 		status = VL53L1_ERROR_INVALID_PARAMS;
 819:Drivers/BSP/Components/vl53l1cb/modules/vl53l1_api_core.c **** 	}
 820:Drivers/BSP/Components/vl53l1cb/modules/vl53l1_api_core.c **** 
 821:Drivers/BSP/Components/vl53l1cb/modules/vl53l1_api_core.c **** 	if (status == VL53L1_ERROR_NONE) {
 602              		.loc 1 821 2 is_stmt 1 view .LVU182
 822:Drivers/BSP/Components/vl53l1cb/modules/vl53l1_api_core.c **** 
ARM GAS  C:\Temp\cckbpOon.s 			page 27


 823:Drivers/BSP/Components/vl53l1cb/modules/vl53l1_api_core.c **** 
 824:Drivers/BSP/Components/vl53l1cb/modules/vl53l1_api_core.c **** 		memcpy(
 603              		.loc 1 824 3 view .LVU183
 604 0010 6968     		ldr	r1, [r5, #4]	@ unaligned
 605 0012 AA68     		ldr	r2, [r5, #8]	@ unaligned
 606 0014 EE68     		ldr	r6, [r5, #12]	@ unaligned
 607 0016 2869     		ldr	r0, [r5, #16]	@ unaligned
 608              	.LVL75:
 609              		.loc 1 824 3 is_stmt 0 view .LVU184
 610 0018 2166     		str	r1, [r4, #96]	@ unaligned
 611 001a 6266     		str	r2, [r4, #100]	@ unaligned
 612 001c A666     		str	r6, [r4, #104]	@ unaligned
 613 001e E066     		str	r0, [r4, #108]	@ unaligned
 614 0020 6969     		ldr	r1, [r5, #20]	@ unaligned
 615 0022 AA69     		ldr	r2, [r5, #24]	@ unaligned
 616 0024 2167     		str	r1, [r4, #112]	@ unaligned
 617 0026 6267     		str	r2, [r4, #116]	@ unaligned
 825:Drivers/BSP/Components/vl53l1cb/modules/vl53l1_api_core.c **** 			&(pdev->customer),
 826:Drivers/BSP/Components/vl53l1cb/modules/vl53l1_api_core.c **** 			&(pcal_data->customer),
 827:Drivers/BSP/Components/vl53l1cb/modules/vl53l1_api_core.c **** 			sizeof(VL53L1_customer_nvm_managed_t));
 828:Drivers/BSP/Components/vl53l1cb/modules/vl53l1_api_core.c **** 
 829:Drivers/BSP/Components/vl53l1cb/modules/vl53l1_api_core.c **** 
 830:Drivers/BSP/Components/vl53l1cb/modules/vl53l1_api_core.c **** 		memcpy(
 618              		.loc 1 830 3 is_stmt 1 view .LVU185
 619 0028 2A6B     		ldr	r2, [r5, #48]	@ unaligned
 620 002a 6B6B     		ldr	r3, [r5, #52]	@ unaligned
 621 002c C4F8B420 		str	r2, [r4, #180]	@ unaligned
 622 0030 C4F8B830 		str	r3, [r4, #184]	@ unaligned
 831:Drivers/BSP/Components/vl53l1cb/modules/vl53l1_api_core.c **** 			&(pdev->add_off_cal_data),
 832:Drivers/BSP/Components/vl53l1cb/modules/vl53l1_api_core.c **** 			&(pcal_data->add_off_cal_data),
 833:Drivers/BSP/Components/vl53l1cb/modules/vl53l1_api_core.c **** 			sizeof(VL53L1_additional_offset_cal_data_t));
 834:Drivers/BSP/Components/vl53l1cb/modules/vl53l1_api_core.c **** 
 835:Drivers/BSP/Components/vl53l1cb/modules/vl53l1_api_core.c **** 
 836:Drivers/BSP/Components/vl53l1cb/modules/vl53l1_api_core.c **** 		memcpy(
 623              		.loc 1 836 3 view .LVU186
 624 0034 EA69     		ldr	r2, [r5, #28]	@ unaligned
 625 0036 2B6A     		ldr	r3, [r5, #32]	@ unaligned
 626 0038 C4F8BC20 		str	r2, [r4, #188]	@ unaligned
 627 003c C4F8C030 		str	r3, [r4, #192]	@ unaligned
 628 0040 AB8C     		ldrh	r3, [r5, #36]	@ unaligned
 629 0042 A4F8C430 		strh	r3, [r4, #196]	@ unaligned
 837:Drivers/BSP/Components/vl53l1cb/modules/vl53l1_api_core.c **** 			&(pdev->fmt_dmax_cal),
 838:Drivers/BSP/Components/vl53l1cb/modules/vl53l1_api_core.c **** 			&(pcal_data->fmt_dmax_cal),
 839:Drivers/BSP/Components/vl53l1cb/modules/vl53l1_api_core.c **** 			sizeof(VL53L1_dmax_calibration_data_t));
 840:Drivers/BSP/Components/vl53l1cb/modules/vl53l1_api_core.c **** 
 841:Drivers/BSP/Components/vl53l1cb/modules/vl53l1_api_core.c **** 
 842:Drivers/BSP/Components/vl53l1cb/modules/vl53l1_api_core.c **** 		memcpy(
 630              		.loc 1 842 3 view .LVU187
 631 0046 D5F82620 		ldr	r2, [r5, #38]	@ unaligned
 632 004a D5F82A30 		ldr	r3, [r5, #42]	@ unaligned
 633 004e C4F8C620 		str	r2, [r4, #198]	@ unaligned
 634 0052 C4F8CA30 		str	r3, [r4, #202]	@ unaligned
 635 0056 EB8D     		ldrh	r3, [r5, #46]	@ unaligned
 636 0058 A4F8CE30 		strh	r3, [r4, #206]	@ unaligned
 843:Drivers/BSP/Components/vl53l1cb/modules/vl53l1_api_core.c **** 			&(pdev->cust_dmax_cal),
 844:Drivers/BSP/Components/vl53l1cb/modules/vl53l1_api_core.c **** 			&(pcal_data->cust_dmax_cal),
 845:Drivers/BSP/Components/vl53l1cb/modules/vl53l1_api_core.c **** 			sizeof(VL53L1_dmax_calibration_data_t));
ARM GAS  C:\Temp\cckbpOon.s 			page 28


 846:Drivers/BSP/Components/vl53l1cb/modules/vl53l1_api_core.c **** 
 847:Drivers/BSP/Components/vl53l1cb/modules/vl53l1_api_core.c **** 
 848:Drivers/BSP/Components/vl53l1cb/modules/vl53l1_api_core.c **** 		memcpy(
 637              		.loc 1 848 3 view .LVU188
 638 005c F422     		movs	r2, #244
 639 005e 05F13C01 		add	r1, r5, #60
 640 0062 04F27C50 		addw	r0, r4, #1404
 641 0066 FFF7FEFF 		bl	memcpy
 642              	.LVL76:
 849:Drivers/BSP/Components/vl53l1cb/modules/vl53l1_api_core.c **** 			&(pdev->xtalk_shapes),
 850:Drivers/BSP/Components/vl53l1cb/modules/vl53l1_api_core.c **** 			&(pcal_data->xtalkhisto),
 851:Drivers/BSP/Components/vl53l1cb/modules/vl53l1_api_core.c **** 			sizeof(VL53L1_xtalk_histogram_data_t));
 852:Drivers/BSP/Components/vl53l1cb/modules/vl53l1_api_core.c **** 
 853:Drivers/BSP/Components/vl53l1cb/modules/vl53l1_api_core.c **** 
 854:Drivers/BSP/Components/vl53l1cb/modules/vl53l1_api_core.c **** 		memcpy(
 643              		.loc 1 854 3 view .LVU189
 644 006a D5F83031 		ldr	r3, [r5, #304]	@ unaligned
 645 006e C4F8D030 		str	r3, [r4, #208]	@ unaligned
 855:Drivers/BSP/Components/vl53l1cb/modules/vl53l1_api_core.c **** 			&(pdev->gain_cal),
 856:Drivers/BSP/Components/vl53l1cb/modules/vl53l1_api_core.c **** 			&(pcal_data->gain_cal),
 857:Drivers/BSP/Components/vl53l1cb/modules/vl53l1_api_core.c **** 			sizeof(VL53L1_gain_calibration_data_t));
 858:Drivers/BSP/Components/vl53l1cb/modules/vl53l1_api_core.c **** 
 859:Drivers/BSP/Components/vl53l1cb/modules/vl53l1_api_core.c **** 
 860:Drivers/BSP/Components/vl53l1cb/modules/vl53l1_api_core.c **** 		memcpy(
 646              		.loc 1 860 3 view .LVU190
 861:Drivers/BSP/Components/vl53l1cb/modules/vl53l1_api_core.c **** 			&(pdev->cal_peak_rate_map),
 862:Drivers/BSP/Components/vl53l1cb/modules/vl53l1_api_core.c **** 			&(pcal_data->cal_peak_rate_map),
 647              		.loc 1 862 4 is_stmt 0 view .LVU191
 648 0072 05F59A73 		add	r3, r5, #308
 860:Drivers/BSP/Components/vl53l1cb/modules/vl53l1_api_core.c **** 			&(pdev->cal_peak_rate_map),
 649              		.loc 1 860 3 view .LVU192
 650 0076 04F17802 		add	r2, r4, #120
 651 007a 05F5B276 		add	r6, r5, #356
 652              	.L38:
 653 007e D3F800E0 		ldr	lr, [r3]	@ unaligned
 654 0082 D3F804C0 		ldr	ip, [r3, #4]	@ unaligned
 655 0086 9868     		ldr	r0, [r3, #8]	@ unaligned
 656 0088 D968     		ldr	r1, [r3, #12]	@ unaligned
 657 008a C2F800E0 		str	lr, [r2]	@ unaligned
 658 008e C2F804C0 		str	ip, [r2, #4]	@ unaligned
 659 0092 9060     		str	r0, [r2, #8]	@ unaligned
 660 0094 D160     		str	r1, [r2, #12]	@ unaligned
 661 0096 1033     		adds	r3, r3, #16
 662 0098 1032     		adds	r2, r2, #16
 663 009a B342     		cmp	r3, r6
 664 009c EFD1     		bne	.L38
 665 009e 1868     		ldr	r0, [r3]	@ unaligned
 666 00a0 5968     		ldr	r1, [r3, #4]	@ unaligned
 667 00a2 9B68     		ldr	r3, [r3, #8]	@ unaligned
 668 00a4 1060     		str	r0, [r2]	@ unaligned
 669 00a6 5160     		str	r1, [r2, #4]	@ unaligned
 670 00a8 9360     		str	r3, [r2, #8]	@ unaligned
 863:Drivers/BSP/Components/vl53l1cb/modules/vl53l1_api_core.c **** 			sizeof(VL53L1_cal_peak_rate_map_t));
 864:Drivers/BSP/Components/vl53l1cb/modules/vl53l1_api_core.c **** 
 865:Drivers/BSP/Components/vl53l1cb/modules/vl53l1_api_core.c **** 
 866:Drivers/BSP/Components/vl53l1cb/modules/vl53l1_api_core.c **** 		memcpy(
 671              		.loc 1 866 3 is_stmt 1 view .LVU193
ARM GAS  C:\Temp\cckbpOon.s 			page 29


 867:Drivers/BSP/Components/vl53l1cb/modules/vl53l1_api_core.c **** 			&(pdev->per_vcsel_cal_data),
 672              		.loc 1 867 4 is_stmt 0 view .LVU194
 673 00aa 04F11801 		add	r1, r4, #24
 674 00ae 41F67852 		movw	r2, #7544
 675 00b2 8B18     		adds	r3, r1, r2
 866:Drivers/BSP/Components/vl53l1cb/modules/vl53l1_api_core.c **** 			&(pdev->per_vcsel_cal_data),
 676              		.loc 1 866 3 view .LVU195
 677 00b4 D5F870C1 		ldr	ip, [r5, #368]	@ unaligned
 678 00b8 D5F87461 		ldr	r6, [r5, #372]	@ unaligned
 679 00bc D5F87801 		ldr	r0, [r5, #376]	@ unaligned
 680 00c0 41F802C0 		str	ip, [r1, r2]	@ unaligned
 681 00c4 5E60     		str	r6, [r3, #4]	@ unaligned
 682 00c6 9860     		str	r0, [r3, #8]	@ unaligned
 868:Drivers/BSP/Components/vl53l1cb/modules/vl53l1_api_core.c **** 			&(pcal_data->per_vcsel_cal_data),
 869:Drivers/BSP/Components/vl53l1cb/modules/vl53l1_api_core.c **** 			sizeof(VL53L1_per_vcsel_period_offset_cal_data_t));
 870:Drivers/BSP/Components/vl53l1cb/modules/vl53l1_api_core.c **** 
 871:Drivers/BSP/Components/vl53l1cb/modules/vl53l1_api_core.c **** 
 872:Drivers/BSP/Components/vl53l1cb/modules/vl53l1_api_core.c **** 
 873:Drivers/BSP/Components/vl53l1cb/modules/vl53l1_api_core.c **** 		pC->algo__crosstalk_compensation_plane_offset_kcps =
 683              		.loc 1 873 3 is_stmt 1 view .LVU196
 874:Drivers/BSP/Components/vl53l1cb/modules/vl53l1_api_core.c **** 			pN->algo__crosstalk_compensation_plane_offset_kcps;
 684              		.loc 1 874 6 is_stmt 0 view .LVU197
 685 00c8 B4F86A00 		ldrh	r0, [r4, #106]
 873:Drivers/BSP/Components/vl53l1cb/modules/vl53l1_api_core.c **** 			pN->algo__crosstalk_compensation_plane_offset_kcps;
 686              		.loc 1 873 54 view .LVU198
 687 00cc C4F8EC02 		str	r0, [r4, #748]
 875:Drivers/BSP/Components/vl53l1cb/modules/vl53l1_api_core.c **** 		pC->algo__crosstalk_compensation_x_plane_gradient_kcps =
 688              		.loc 1 875 3 is_stmt 1 view .LVU199
 876:Drivers/BSP/Components/vl53l1cb/modules/vl53l1_api_core.c **** 			pN->algo__crosstalk_compensation_x_plane_gradient_kcps;
 689              		.loc 1 876 6 is_stmt 0 view .LVU200
 690 00d0 B4F96C30 		ldrsh	r3, [r4, #108]
 875:Drivers/BSP/Components/vl53l1cb/modules/vl53l1_api_core.c **** 		pC->algo__crosstalk_compensation_x_plane_gradient_kcps =
 691              		.loc 1 875 58 view .LVU201
 692 00d4 A4F8F032 		strh	r3, [r4, #752]	@ movhi
 877:Drivers/BSP/Components/vl53l1cb/modules/vl53l1_api_core.c **** 		pC->algo__crosstalk_compensation_y_plane_gradient_kcps =
 693              		.loc 1 877 3 is_stmt 1 view .LVU202
 878:Drivers/BSP/Components/vl53l1cb/modules/vl53l1_api_core.c **** 			pN->algo__crosstalk_compensation_y_plane_gradient_kcps;
 694              		.loc 1 878 6 is_stmt 0 view .LVU203
 695 00d8 B4F96E30 		ldrsh	r3, [r4, #110]
 877:Drivers/BSP/Components/vl53l1cb/modules/vl53l1_api_core.c **** 		pC->algo__crosstalk_compensation_y_plane_gradient_kcps =
 696              		.loc 1 877 58 view .LVU204
 697 00dc A4F8F232 		strh	r3, [r4, #754]	@ movhi
 879:Drivers/BSP/Components/vl53l1cb/modules/vl53l1_api_core.c **** 
 880:Drivers/BSP/Components/vl53l1cb/modules/vl53l1_api_core.c **** 		pHP->algo__crosstalk_compensation_plane_offset_kcps =
 698              		.loc 1 880 3 is_stmt 1 view .LVU205
 881:Drivers/BSP/Components/vl53l1cb/modules/vl53l1_api_core.c **** 			VL53L1_calc_crosstalk_plane_offset_with_margin(
 699              		.loc 1 881 4 is_stmt 0 view .LVU206
 700 00e0 B4F9FE12 		ldrsh	r1, [r4, #766]
 701 00e4 FFF7FEFF 		bl	VL53L1_calc_crosstalk_plane_offset_with_margin
 702              	.LVL77:
 880:Drivers/BSP/Components/vl53l1cb/modules/vl53l1_api_core.c **** 			VL53L1_calc_crosstalk_plane_offset_with_margin(
 703              		.loc 1 880 55 view .LVU207
 704 00e8 C4F8A002 		str	r0, [r4, #672]
 882:Drivers/BSP/Components/vl53l1cb/modules/vl53l1_api_core.c **** 			pC->algo__crosstalk_compensation_plane_offset_kcps,
 883:Drivers/BSP/Components/vl53l1cb/modules/vl53l1_api_core.c **** 			pC->histogram_mode_crosstalk_margin_kcps);
 884:Drivers/BSP/Components/vl53l1cb/modules/vl53l1_api_core.c **** 
 885:Drivers/BSP/Components/vl53l1cb/modules/vl53l1_api_core.c **** 		pHP->algo__crosstalk_compensation_x_plane_gradient_kcps =
ARM GAS  C:\Temp\cckbpOon.s 			page 30


 705              		.loc 1 885 3 is_stmt 1 view .LVU208
 886:Drivers/BSP/Components/vl53l1cb/modules/vl53l1_api_core.c **** 			pC->algo__crosstalk_compensation_x_plane_gradient_kcps;
 706              		.loc 1 886 6 is_stmt 0 view .LVU209
 707 00ec B4F9F032 		ldrsh	r3, [r4, #752]
 885:Drivers/BSP/Components/vl53l1cb/modules/vl53l1_api_core.c **** 			pC->algo__crosstalk_compensation_x_plane_gradient_kcps;
 708              		.loc 1 885 59 view .LVU210
 709 00f0 A4F8A432 		strh	r3, [r4, #676]	@ movhi
 887:Drivers/BSP/Components/vl53l1cb/modules/vl53l1_api_core.c **** 		pHP->algo__crosstalk_compensation_y_plane_gradient_kcps =
 710              		.loc 1 887 3 is_stmt 1 view .LVU211
 888:Drivers/BSP/Components/vl53l1cb/modules/vl53l1_api_core.c **** 			pC->algo__crosstalk_compensation_y_plane_gradient_kcps;
 711              		.loc 1 888 6 is_stmt 0 view .LVU212
 712 00f4 B4F9F232 		ldrsh	r3, [r4, #754]
 887:Drivers/BSP/Components/vl53l1cb/modules/vl53l1_api_core.c **** 		pHP->algo__crosstalk_compensation_y_plane_gradient_kcps =
 713              		.loc 1 887 59 view .LVU213
 714 00f8 A4F8A632 		strh	r3, [r4, #678]	@ movhi
 889:Drivers/BSP/Components/vl53l1cb/modules/vl53l1_api_core.c **** 
 890:Drivers/BSP/Components/vl53l1cb/modules/vl53l1_api_core.c **** 
 891:Drivers/BSP/Components/vl53l1cb/modules/vl53l1_api_core.c **** 
 892:Drivers/BSP/Components/vl53l1cb/modules/vl53l1_api_core.c **** 		if (pC->global_crosstalk_compensation_enable == 0x00) {
 715              		.loc 1 892 3 is_stmt 1 view .LVU214
 716              		.loc 1 892 9 is_stmt 0 view .LVU215
 717 00fc 94F8FC32 		ldrb	r3, [r4, #764]	@ zero_extendqisi2
 718              		.loc 1 892 6 view .LVU216
 719 0100 3BB9     		cbnz	r3, .L39
 893:Drivers/BSP/Components/vl53l1cb/modules/vl53l1_api_core.c **** 			pN->algo__crosstalk_compensation_plane_offset_kcps =
 720              		.loc 1 893 4 is_stmt 1 view .LVU217
 721              		.loc 1 893 55 is_stmt 0 view .LVU218
 722 0102 0020     		movs	r0, #0
 723 0104 A4F86A00 		strh	r0, [r4, #106]	@ movhi
 894:Drivers/BSP/Components/vl53l1cb/modules/vl53l1_api_core.c **** 				0x00;
 895:Drivers/BSP/Components/vl53l1cb/modules/vl53l1_api_core.c **** 			pN->algo__crosstalk_compensation_x_plane_gradient_kcps =
 724              		.loc 1 895 4 is_stmt 1 view .LVU219
 725              		.loc 1 895 59 is_stmt 0 view .LVU220
 726 0108 A4F86C00 		strh	r0, [r4, #108]	@ movhi
 896:Drivers/BSP/Components/vl53l1cb/modules/vl53l1_api_core.c **** 				0x00;
 897:Drivers/BSP/Components/vl53l1cb/modules/vl53l1_api_core.c **** 			pN->algo__crosstalk_compensation_y_plane_gradient_kcps =
 727              		.loc 1 897 4 is_stmt 1 view .LVU221
 728              		.loc 1 897 59 is_stmt 0 view .LVU222
 729 010c A4F86E00 		strh	r0, [r4, #110]	@ movhi
 730              	.LVL78:
 731              	.L37:
 898:Drivers/BSP/Components/vl53l1cb/modules/vl53l1_api_core.c **** 				0x00;
 899:Drivers/BSP/Components/vl53l1cb/modules/vl53l1_api_core.c **** 		} else {
 900:Drivers/BSP/Components/vl53l1cb/modules/vl53l1_api_core.c **** 			tempu32 =
 901:Drivers/BSP/Components/vl53l1cb/modules/vl53l1_api_core.c **** 			VL53L1_calc_crosstalk_plane_offset_with_margin(
 902:Drivers/BSP/Components/vl53l1cb/modules/vl53l1_api_core.c **** 			pC->algo__crosstalk_compensation_plane_offset_kcps,
 903:Drivers/BSP/Components/vl53l1cb/modules/vl53l1_api_core.c **** 			pC->lite_mode_crosstalk_margin_kcps);
 904:Drivers/BSP/Components/vl53l1cb/modules/vl53l1_api_core.c **** 
 905:Drivers/BSP/Components/vl53l1cb/modules/vl53l1_api_core.c **** 
 906:Drivers/BSP/Components/vl53l1cb/modules/vl53l1_api_core.c **** 			if (tempu32 > 0xFFFF)
 907:Drivers/BSP/Components/vl53l1cb/modules/vl53l1_api_core.c **** 				tempu32 = 0xFFFF;
 908:Drivers/BSP/Components/vl53l1cb/modules/vl53l1_api_core.c **** 
 909:Drivers/BSP/Components/vl53l1cb/modules/vl53l1_api_core.c **** 			pN->algo__crosstalk_compensation_plane_offset_kcps =
 910:Drivers/BSP/Components/vl53l1cb/modules/vl53l1_api_core.c **** 				(uint16_t)tempu32;
 911:Drivers/BSP/Components/vl53l1cb/modules/vl53l1_api_core.c **** 		}
 912:Drivers/BSP/Components/vl53l1cb/modules/vl53l1_api_core.c **** 	}
 913:Drivers/BSP/Components/vl53l1cb/modules/vl53l1_api_core.c **** 
ARM GAS  C:\Temp\cckbpOon.s 			page 31


 914:Drivers/BSP/Components/vl53l1cb/modules/vl53l1_api_core.c **** 	LOG_FUNCTION_END(status);
 732              		.loc 1 914 26 is_stmt 1 view .LVU223
 915:Drivers/BSP/Components/vl53l1cb/modules/vl53l1_api_core.c **** 
 916:Drivers/BSP/Components/vl53l1cb/modules/vl53l1_api_core.c **** 	return status;
 733              		.loc 1 916 2 view .LVU224
 917:Drivers/BSP/Components/vl53l1cb/modules/vl53l1_api_core.c **** }
 734              		.loc 1 917 1 is_stmt 0 view .LVU225
 735 0110 70BD     		pop	{r4, r5, r6, pc}
 736              	.LVL79:
 737              	.L39:
 900:Drivers/BSP/Components/vl53l1cb/modules/vl53l1_api_core.c **** 			VL53L1_calc_crosstalk_plane_offset_with_margin(
 738              		.loc 1 900 4 is_stmt 1 view .LVU226
 901:Drivers/BSP/Components/vl53l1cb/modules/vl53l1_api_core.c **** 			pC->algo__crosstalk_compensation_plane_offset_kcps,
 739              		.loc 1 901 4 is_stmt 0 view .LVU227
 740 0112 B4F90013 		ldrsh	r1, [r4, #768]
 741 0116 D4F8EC02 		ldr	r0, [r4, #748]
 742 011a FFF7FEFF 		bl	VL53L1_calc_crosstalk_plane_offset_with_margin
 743              	.LVL80:
 906:Drivers/BSP/Components/vl53l1cb/modules/vl53l1_api_core.c **** 				tempu32 = 0xFFFF;
 744              		.loc 1 906 4 is_stmt 1 view .LVU228
 906:Drivers/BSP/Components/vl53l1cb/modules/vl53l1_api_core.c **** 				tempu32 = 0xFFFF;
 745              		.loc 1 906 7 is_stmt 0 view .LVU229
 746 011e B0F5803F 		cmp	r0, #65536
 747 0122 01D3     		bcc	.L40
 907:Drivers/BSP/Components/vl53l1cb/modules/vl53l1_api_core.c **** 
 748              		.loc 1 907 13 view .LVU230
 749 0124 4FF6FF70 		movw	r0, #65535
 750              	.LVL81:
 751              	.L40:
 909:Drivers/BSP/Components/vl53l1cb/modules/vl53l1_api_core.c **** 				(uint16_t)tempu32;
 752              		.loc 1 909 4 is_stmt 1 view .LVU231
 909:Drivers/BSP/Components/vl53l1cb/modules/vl53l1_api_core.c **** 				(uint16_t)tempu32;
 753              		.loc 1 909 55 is_stmt 0 view .LVU232
 754 0128 A4F86A00 		strh	r0, [r4, #106]	@ movhi
 806:Drivers/BSP/Components/vl53l1cb/modules/vl53l1_api_core.c **** 	VL53L1_LLDriverData_t *pdev = VL53L1DevStructGetLLDriverHandle(Dev);
 755              		.loc 1 806 16 view .LVU233
 756 012c 0020     		movs	r0, #0
 757              	.LVL82:
 806:Drivers/BSP/Components/vl53l1cb/modules/vl53l1_api_core.c **** 	VL53L1_LLDriverData_t *pdev = VL53L1DevStructGetLLDriverHandle(Dev);
 758              		.loc 1 806 16 view .LVU234
 759 012e EFE7     		b	.L37
 760              	.LVL83:
 761              	.L41:
 818:Drivers/BSP/Components/vl53l1cb/modules/vl53l1_api_core.c **** 	}
 762              		.loc 1 818 10 view .LVU235
 763 0130 6FF00300 		mvn	r0, #3
 764              	.LVL84:
 818:Drivers/BSP/Components/vl53l1cb/modules/vl53l1_api_core.c **** 	}
 765              		.loc 1 818 10 view .LVU236
 766 0134 ECE7     		b	.L37
 767              	.L45:
 768 0136 00BF     		.align	2
 769              	.L44:
 770 0138 0201ABEC 		.word	-324337406
 771              		.cfi_endproc
 772              	.LFE13:
 774              		.section	.text.VL53L1_get_part_to_part_data,"ax",%progbits
ARM GAS  C:\Temp\cckbpOon.s 			page 32


 775              		.align	1
 776              		.global	VL53L1_get_part_to_part_data
 777              		.syntax unified
 778              		.thumb
 779              		.thumb_func
 781              	VL53L1_get_part_to_part_data:
 782              	.LVL85:
 783              	.LFB14:
 918:Drivers/BSP/Components/vl53l1cb/modules/vl53l1_api_core.c **** 
 919:Drivers/BSP/Components/vl53l1cb/modules/vl53l1_api_core.c **** 
 920:Drivers/BSP/Components/vl53l1cb/modules/vl53l1_api_core.c **** VL53L1_Error VL53L1_get_part_to_part_data(
 921:Drivers/BSP/Components/vl53l1cb/modules/vl53l1_api_core.c **** 	VL53L1_DEV                      Dev,
 922:Drivers/BSP/Components/vl53l1cb/modules/vl53l1_api_core.c **** 	VL53L1_calibration_data_t      *pcal_data)
 923:Drivers/BSP/Components/vl53l1cb/modules/vl53l1_api_core.c **** {
 784              		.loc 1 923 1 is_stmt 1 view -0
 785              		.cfi_startproc
 786              		@ args = 0, pretend = 0, frame = 0
 787              		@ frame_needed = 0, uses_anonymous_args = 0
 788              		.loc 1 923 1 is_stmt 0 view .LVU238
 789 0000 70B5     		push	{r4, r5, r6, lr}
 790              		.cfi_def_cfa_offset 16
 791              		.cfi_offset 4, -16
 792              		.cfi_offset 5, -12
 793              		.cfi_offset 6, -8
 794              		.cfi_offset 14, -4
 795 0002 0446     		mov	r4, r0
 796 0004 0D46     		mov	r5, r1
 924:Drivers/BSP/Components/vl53l1cb/modules/vl53l1_api_core.c **** 
 925:Drivers/BSP/Components/vl53l1cb/modules/vl53l1_api_core.c **** 
 926:Drivers/BSP/Components/vl53l1cb/modules/vl53l1_api_core.c **** 	VL53L1_Error  status = VL53L1_ERROR_NONE;
 797              		.loc 1 926 2 is_stmt 1 view .LVU239
 798              	.LVL86:
 927:Drivers/BSP/Components/vl53l1cb/modules/vl53l1_api_core.c **** 	VL53L1_LLDriverData_t *pdev = VL53L1DevStructGetLLDriverHandle(Dev);
 799              		.loc 1 927 2 view .LVU240
 928:Drivers/BSP/Components/vl53l1cb/modules/vl53l1_api_core.c **** 	VL53L1_xtalk_config_t *pC = &(pdev->xtalk_cfg);
 800              		.loc 1 928 2 view .LVU241
 929:Drivers/BSP/Components/vl53l1cb/modules/vl53l1_api_core.c **** 	VL53L1_customer_nvm_managed_t *pCN = &(pcal_data->customer);
 801              		.loc 1 929 2 view .LVU242
 802              		.loc 1 929 33 is_stmt 0 view .LVU243
 803 0006 0B46     		mov	r3, r1
 804              	.LVL87:
 930:Drivers/BSP/Components/vl53l1cb/modules/vl53l1_api_core.c **** 
 931:Drivers/BSP/Components/vl53l1cb/modules/vl53l1_api_core.c **** 	LOG_FUNCTION_START("");
 805              		.loc 1 931 24 is_stmt 1 view .LVU244
 932:Drivers/BSP/Components/vl53l1cb/modules/vl53l1_api_core.c **** 
 933:Drivers/BSP/Components/vl53l1cb/modules/vl53l1_api_core.c **** 	pcal_data->struct_version =
 806              		.loc 1 933 2 view .LVU245
 807              		.loc 1 933 28 is_stmt 0 view .LVU246
 808 0008 394A     		ldr	r2, .L51
 809 000a 43F8042B 		str	r2, [r3], #4
 810              	.LVL88:
 934:Drivers/BSP/Components/vl53l1cb/modules/vl53l1_api_core.c **** 			VL53L1_LL_CALIBRATION_DATA_STRUCT_VERSION;
 935:Drivers/BSP/Components/vl53l1cb/modules/vl53l1_api_core.c **** 
 936:Drivers/BSP/Components/vl53l1cb/modules/vl53l1_api_core.c **** 
 937:Drivers/BSP/Components/vl53l1cb/modules/vl53l1_api_core.c **** 	memcpy(
 811              		.loc 1 937 2 is_stmt 1 view .LVU247
 812 000e 016E     		ldr	r1, [r0, #96]	@ unaligned
ARM GAS  C:\Temp\cckbpOon.s 			page 33


 813              	.LVL89:
 814              		.loc 1 937 2 is_stmt 0 view .LVU248
 815 0010 426E     		ldr	r2, [r0, #100]	@ unaligned
 816 0012 D0F868C0 		ldr	ip, [r0, #104]	@ unaligned
 817 0016 C06E     		ldr	r0, [r0, #108]	@ unaligned
 818              	.LVL90:
 819              		.loc 1 937 2 view .LVU249
 820 0018 6960     		str	r1, [r5, #4]	@ unaligned
 821 001a 5A60     		str	r2, [r3, #4]	@ unaligned
 822 001c C3F808C0 		str	ip, [r3, #8]	@ unaligned
 823 0020 D860     		str	r0, [r3, #12]	@ unaligned
 824 0022 216F     		ldr	r1, [r4, #112]	@ unaligned
 825 0024 626F     		ldr	r2, [r4, #116]	@ unaligned
 826 0026 1961     		str	r1, [r3, #16]	@ unaligned
 827 0028 5A61     		str	r2, [r3, #20]	@ unaligned
 938:Drivers/BSP/Components/vl53l1cb/modules/vl53l1_api_core.c **** 		&(pcal_data->customer),
 939:Drivers/BSP/Components/vl53l1cb/modules/vl53l1_api_core.c **** 		&(pdev->customer),
 940:Drivers/BSP/Components/vl53l1cb/modules/vl53l1_api_core.c **** 		sizeof(VL53L1_customer_nvm_managed_t));
 941:Drivers/BSP/Components/vl53l1cb/modules/vl53l1_api_core.c **** 
 942:Drivers/BSP/Components/vl53l1cb/modules/vl53l1_api_core.c **** 
 943:Drivers/BSP/Components/vl53l1cb/modules/vl53l1_api_core.c **** 
 944:Drivers/BSP/Components/vl53l1cb/modules/vl53l1_api_core.c **** 
 945:Drivers/BSP/Components/vl53l1cb/modules/vl53l1_api_core.c **** 	if (pC->algo__crosstalk_compensation_plane_offset_kcps > 0xFFFF) {
 828              		.loc 1 945 2 is_stmt 1 view .LVU250
 829              		.loc 1 945 8 is_stmt 0 view .LVU251
 830 002a D4F8EC32 		ldr	r3, [r4, #748]
 831              	.LVL91:
 832              		.loc 1 945 5 view .LVU252
 833 002e B3F5803F 		cmp	r3, #65536
 834 0032 5BD3     		bcc	.L47
 946:Drivers/BSP/Components/vl53l1cb/modules/vl53l1_api_core.c **** 		pCN->algo__crosstalk_compensation_plane_offset_kcps =
 835              		.loc 1 946 3 is_stmt 1 view .LVU253
 836              		.loc 1 946 55 is_stmt 0 view .LVU254
 837 0034 4FF6FF73 		movw	r3, #65535
 838 0038 EB81     		strh	r3, [r5, #14]	@ movhi
 839              	.L48:
 947:Drivers/BSP/Components/vl53l1cb/modules/vl53l1_api_core.c **** 			0xFFFF;
 948:Drivers/BSP/Components/vl53l1cb/modules/vl53l1_api_core.c **** 	} else {
 949:Drivers/BSP/Components/vl53l1cb/modules/vl53l1_api_core.c **** 		pCN->algo__crosstalk_compensation_plane_offset_kcps =
 950:Drivers/BSP/Components/vl53l1cb/modules/vl53l1_api_core.c **** 		(uint16_t)pC->algo__crosstalk_compensation_plane_offset_kcps;
 951:Drivers/BSP/Components/vl53l1cb/modules/vl53l1_api_core.c **** 	}
 952:Drivers/BSP/Components/vl53l1cb/modules/vl53l1_api_core.c **** 	pCN->algo__crosstalk_compensation_x_plane_gradient_kcps =
 840              		.loc 1 952 2 is_stmt 1 view .LVU255
 953:Drivers/BSP/Components/vl53l1cb/modules/vl53l1_api_core.c **** 		pC->algo__crosstalk_compensation_x_plane_gradient_kcps;
 841              		.loc 1 953 5 is_stmt 0 view .LVU256
 842 003a B4F9F032 		ldrsh	r3, [r4, #752]
 952:Drivers/BSP/Components/vl53l1cb/modules/vl53l1_api_core.c **** 		pC->algo__crosstalk_compensation_x_plane_gradient_kcps;
 843              		.loc 1 952 58 view .LVU257
 844 003e 2B82     		strh	r3, [r5, #16]	@ movhi
 954:Drivers/BSP/Components/vl53l1cb/modules/vl53l1_api_core.c **** 	pCN->algo__crosstalk_compensation_y_plane_gradient_kcps =
 845              		.loc 1 954 2 is_stmt 1 view .LVU258
 955:Drivers/BSP/Components/vl53l1cb/modules/vl53l1_api_core.c **** 		pC->algo__crosstalk_compensation_y_plane_gradient_kcps;
 846              		.loc 1 955 5 is_stmt 0 view .LVU259
 847 0040 B4F9F232 		ldrsh	r3, [r4, #754]
 954:Drivers/BSP/Components/vl53l1cb/modules/vl53l1_api_core.c **** 	pCN->algo__crosstalk_compensation_y_plane_gradient_kcps =
 848              		.loc 1 954 58 view .LVU260
 849 0044 6B82     		strh	r3, [r5, #18]	@ movhi
ARM GAS  C:\Temp\cckbpOon.s 			page 34


 956:Drivers/BSP/Components/vl53l1cb/modules/vl53l1_api_core.c **** 
 957:Drivers/BSP/Components/vl53l1cb/modules/vl53l1_api_core.c **** 
 958:Drivers/BSP/Components/vl53l1cb/modules/vl53l1_api_core.c **** 	memcpy(
 850              		.loc 1 958 2 is_stmt 1 view .LVU261
 851 0046 D4F8BC20 		ldr	r2, [r4, #188]	@ unaligned
 852 004a D4F8C030 		ldr	r3, [r4, #192]	@ unaligned
 853 004e EA61     		str	r2, [r5, #28]	@ unaligned
 854 0050 2B62     		str	r3, [r5, #32]	@ unaligned
 855 0052 B4F8C430 		ldrh	r3, [r4, #196]	@ unaligned
 856 0056 AB84     		strh	r3, [r5, #36]	@ unaligned
 959:Drivers/BSP/Components/vl53l1cb/modules/vl53l1_api_core.c **** 		&(pcal_data->fmt_dmax_cal),
 960:Drivers/BSP/Components/vl53l1cb/modules/vl53l1_api_core.c **** 		&(pdev->fmt_dmax_cal),
 961:Drivers/BSP/Components/vl53l1cb/modules/vl53l1_api_core.c **** 		sizeof(VL53L1_dmax_calibration_data_t));
 962:Drivers/BSP/Components/vl53l1cb/modules/vl53l1_api_core.c **** 
 963:Drivers/BSP/Components/vl53l1cb/modules/vl53l1_api_core.c **** 
 964:Drivers/BSP/Components/vl53l1cb/modules/vl53l1_api_core.c **** 	memcpy(
 857              		.loc 1 964 2 view .LVU262
 858 0058 D4F8C620 		ldr	r2, [r4, #198]	@ unaligned
 859 005c D4F8CA30 		ldr	r3, [r4, #202]	@ unaligned
 860 0060 C5F82620 		str	r2, [r5, #38]	@ unaligned
 861 0064 C5F82A30 		str	r3, [r5, #42]	@ unaligned
 862 0068 B4F8CE30 		ldrh	r3, [r4, #206]	@ unaligned
 863 006c EB85     		strh	r3, [r5, #46]	@ unaligned
 965:Drivers/BSP/Components/vl53l1cb/modules/vl53l1_api_core.c **** 		&(pcal_data->cust_dmax_cal),
 966:Drivers/BSP/Components/vl53l1cb/modules/vl53l1_api_core.c **** 		&(pdev->cust_dmax_cal),
 967:Drivers/BSP/Components/vl53l1cb/modules/vl53l1_api_core.c **** 		sizeof(VL53L1_dmax_calibration_data_t));
 968:Drivers/BSP/Components/vl53l1cb/modules/vl53l1_api_core.c **** 
 969:Drivers/BSP/Components/vl53l1cb/modules/vl53l1_api_core.c **** 
 970:Drivers/BSP/Components/vl53l1cb/modules/vl53l1_api_core.c **** 	memcpy(
 864              		.loc 1 970 2 view .LVU263
 865 006e D4F8B420 		ldr	r2, [r4, #180]	@ unaligned
 866 0072 D4F8B830 		ldr	r3, [r4, #184]	@ unaligned
 867 0076 2A63     		str	r2, [r5, #48]	@ unaligned
 868 0078 6B63     		str	r3, [r5, #52]	@ unaligned
 971:Drivers/BSP/Components/vl53l1cb/modules/vl53l1_api_core.c **** 		&(pcal_data->add_off_cal_data),
 972:Drivers/BSP/Components/vl53l1cb/modules/vl53l1_api_core.c **** 		&(pdev->add_off_cal_data),
 973:Drivers/BSP/Components/vl53l1cb/modules/vl53l1_api_core.c **** 		sizeof(VL53L1_additional_offset_cal_data_t));
 974:Drivers/BSP/Components/vl53l1cb/modules/vl53l1_api_core.c **** 
 975:Drivers/BSP/Components/vl53l1cb/modules/vl53l1_api_core.c **** 
 976:Drivers/BSP/Components/vl53l1cb/modules/vl53l1_api_core.c **** 	memcpy(
 869              		.loc 1 976 2 view .LVU264
 870 007a B4F8D830 		ldrh	r3, [r4, #216]	@ unaligned
 871 007e 2B87     		strh	r3, [r5, #56]	@ unaligned
 977:Drivers/BSP/Components/vl53l1cb/modules/vl53l1_api_core.c **** 		&(pcal_data->optical_centre),
 978:Drivers/BSP/Components/vl53l1cb/modules/vl53l1_api_core.c **** 		&(pdev->optical_centre),
 979:Drivers/BSP/Components/vl53l1cb/modules/vl53l1_api_core.c **** 		sizeof(VL53L1_optical_centre_t));
 980:Drivers/BSP/Components/vl53l1cb/modules/vl53l1_api_core.c **** 
 981:Drivers/BSP/Components/vl53l1cb/modules/vl53l1_api_core.c **** 
 982:Drivers/BSP/Components/vl53l1cb/modules/vl53l1_api_core.c **** 	memcpy(
 872              		.loc 1 982 2 view .LVU265
 873 0080 F422     		movs	r2, #244
 874 0082 04F27C51 		addw	r1, r4, #1404
 875 0086 05F13C00 		add	r0, r5, #60
 876 008a FFF7FEFF 		bl	memcpy
 877              	.LVL92:
 983:Drivers/BSP/Components/vl53l1cb/modules/vl53l1_api_core.c **** 		&(pcal_data->xtalkhisto),
 984:Drivers/BSP/Components/vl53l1cb/modules/vl53l1_api_core.c **** 		&(pdev->xtalk_shapes),
ARM GAS  C:\Temp\cckbpOon.s 			page 35


 985:Drivers/BSP/Components/vl53l1cb/modules/vl53l1_api_core.c **** 		sizeof(VL53L1_xtalk_histogram_data_t));
 986:Drivers/BSP/Components/vl53l1cb/modules/vl53l1_api_core.c **** 
 987:Drivers/BSP/Components/vl53l1cb/modules/vl53l1_api_core.c **** 
 988:Drivers/BSP/Components/vl53l1cb/modules/vl53l1_api_core.c **** 	memcpy(
 878              		.loc 1 988 2 view .LVU266
 879 008e D4F8D030 		ldr	r3, [r4, #208]	@ unaligned
 880 0092 C5F83031 		str	r3, [r5, #304]	@ unaligned
 989:Drivers/BSP/Components/vl53l1cb/modules/vl53l1_api_core.c **** 		&(pcal_data->gain_cal),
 990:Drivers/BSP/Components/vl53l1cb/modules/vl53l1_api_core.c **** 		&(pdev->gain_cal),
 991:Drivers/BSP/Components/vl53l1cb/modules/vl53l1_api_core.c **** 		sizeof(VL53L1_gain_calibration_data_t));
 992:Drivers/BSP/Components/vl53l1cb/modules/vl53l1_api_core.c **** 
 993:Drivers/BSP/Components/vl53l1cb/modules/vl53l1_api_core.c **** 
 994:Drivers/BSP/Components/vl53l1cb/modules/vl53l1_api_core.c **** 	memcpy(
 881              		.loc 1 994 2 view .LVU267
 995:Drivers/BSP/Components/vl53l1cb/modules/vl53l1_api_core.c **** 		&(pcal_data->cal_peak_rate_map),
 996:Drivers/BSP/Components/vl53l1cb/modules/vl53l1_api_core.c **** 		&(pdev->cal_peak_rate_map),
 882              		.loc 1 996 3 is_stmt 0 view .LVU268
 883 0096 04F17803 		add	r3, r4, #120
 994:Drivers/BSP/Components/vl53l1cb/modules/vl53l1_api_core.c **** 		&(pcal_data->cal_peak_rate_map),
 884              		.loc 1 994 2 view .LVU269
 885 009a 05F59A72 		add	r2, r5, #308
 886 009e 04F1A801 		add	r1, r4, #168
 887              	.L49:
 888 00a2 1E68     		ldr	r6, [r3]	@ unaligned
 889 00a4 D3F804E0 		ldr	lr, [r3, #4]	@ unaligned
 890 00a8 D3F808C0 		ldr	ip, [r3, #8]	@ unaligned
 891 00ac D868     		ldr	r0, [r3, #12]	@ unaligned
 892 00ae 1660     		str	r6, [r2]	@ unaligned
 893 00b0 C2F804E0 		str	lr, [r2, #4]	@ unaligned
 894 00b4 C2F808C0 		str	ip, [r2, #8]	@ unaligned
 895 00b8 D060     		str	r0, [r2, #12]	@ unaligned
 896 00ba 1033     		adds	r3, r3, #16
 897 00bc 1032     		adds	r2, r2, #16
 898 00be 8B42     		cmp	r3, r1
 899 00c0 EFD1     		bne	.L49
 900 00c2 1868     		ldr	r0, [r3]	@ unaligned
 901 00c4 5968     		ldr	r1, [r3, #4]	@ unaligned
 902 00c6 9B68     		ldr	r3, [r3, #8]	@ unaligned
 903 00c8 1060     		str	r0, [r2]	@ unaligned
 904 00ca 5160     		str	r1, [r2, #4]	@ unaligned
 905 00cc 9360     		str	r3, [r2, #8]	@ unaligned
 997:Drivers/BSP/Components/vl53l1cb/modules/vl53l1_api_core.c **** 		sizeof(VL53L1_cal_peak_rate_map_t));
 998:Drivers/BSP/Components/vl53l1cb/modules/vl53l1_api_core.c **** 
 999:Drivers/BSP/Components/vl53l1cb/modules/vl53l1_api_core.c **** 
1000:Drivers/BSP/Components/vl53l1cb/modules/vl53l1_api_core.c **** 	memcpy(
 906              		.loc 1 1000 2 is_stmt 1 view .LVU270
1001:Drivers/BSP/Components/vl53l1cb/modules/vl53l1_api_core.c **** 		&(pcal_data->per_vcsel_cal_data),
1002:Drivers/BSP/Components/vl53l1cb/modules/vl53l1_api_core.c **** 		&(pdev->per_vcsel_cal_data),
 907              		.loc 1 1002 3 is_stmt 0 view .LVU271
 908 00ce 1834     		adds	r4, r4, #24
 909              	.LVL93:
 910              		.loc 1 1002 3 view .LVU272
 911 00d0 41F67852 		movw	r2, #7544
 912 00d4 A318     		adds	r3, r4, r2
1000:Drivers/BSP/Components/vl53l1cb/modules/vl53l1_api_core.c **** 		&(pcal_data->per_vcsel_cal_data),
 913              		.loc 1 1000 2 view .LVU273
 914 00d6 A158     		ldr	r1, [r4, r2]	@ unaligned
ARM GAS  C:\Temp\cckbpOon.s 			page 36


 915 00d8 5A68     		ldr	r2, [r3, #4]	@ unaligned
 916 00da 9B68     		ldr	r3, [r3, #8]	@ unaligned
 917 00dc C5F87011 		str	r1, [r5, #368]	@ unaligned
 918 00e0 C5F87421 		str	r2, [r5, #372]	@ unaligned
 919 00e4 C5F87831 		str	r3, [r5, #376]	@ unaligned
1003:Drivers/BSP/Components/vl53l1cb/modules/vl53l1_api_core.c **** 		sizeof(VL53L1_per_vcsel_period_offset_cal_data_t));
1004:Drivers/BSP/Components/vl53l1cb/modules/vl53l1_api_core.c **** 
1005:Drivers/BSP/Components/vl53l1cb/modules/vl53l1_api_core.c **** 	LOG_FUNCTION_END(status);
 920              		.loc 1 1005 26 is_stmt 1 view .LVU274
1006:Drivers/BSP/Components/vl53l1cb/modules/vl53l1_api_core.c **** 
1007:Drivers/BSP/Components/vl53l1cb/modules/vl53l1_api_core.c **** 	return status;
 921              		.loc 1 1007 2 view .LVU275
1008:Drivers/BSP/Components/vl53l1cb/modules/vl53l1_api_core.c **** }
 922              		.loc 1 1008 1 is_stmt 0 view .LVU276
 923 00e8 0020     		movs	r0, #0
 924 00ea 70BD     		pop	{r4, r5, r6, pc}
 925              	.LVL94:
 926              	.L47:
 949:Drivers/BSP/Components/vl53l1cb/modules/vl53l1_api_core.c **** 		(uint16_t)pC->algo__crosstalk_compensation_plane_offset_kcps;
 927              		.loc 1 949 3 is_stmt 1 view .LVU277
 949:Drivers/BSP/Components/vl53l1cb/modules/vl53l1_api_core.c **** 		(uint16_t)pC->algo__crosstalk_compensation_plane_offset_kcps;
 928              		.loc 1 949 55 is_stmt 0 view .LVU278
 929 00ec EB81     		strh	r3, [r5, #14]	@ movhi
 930 00ee A4E7     		b	.L48
 931              	.L52:
 932              		.align	2
 933              	.L51:
 934 00f0 0201ABEC 		.word	-324337406
 935              		.cfi_endproc
 936              	.LFE14:
 938              		.section	.text.VL53L1_set_inter_measurement_period_ms,"ax",%progbits
 939              		.align	1
 940              		.global	VL53L1_set_inter_measurement_period_ms
 941              		.syntax unified
 942              		.thumb
 943              		.thumb_func
 945              	VL53L1_set_inter_measurement_period_ms:
 946              	.LVL95:
 947              	.LFB15:
1009:Drivers/BSP/Components/vl53l1cb/modules/vl53l1_api_core.c **** 
1010:Drivers/BSP/Components/vl53l1cb/modules/vl53l1_api_core.c **** 
1011:Drivers/BSP/Components/vl53l1cb/modules/vl53l1_api_core.c **** VL53L1_Error VL53L1_set_inter_measurement_period_ms(
1012:Drivers/BSP/Components/vl53l1cb/modules/vl53l1_api_core.c **** 	VL53L1_DEV              Dev,
1013:Drivers/BSP/Components/vl53l1cb/modules/vl53l1_api_core.c **** 	uint32_t                inter_measurement_period_ms)
1014:Drivers/BSP/Components/vl53l1cb/modules/vl53l1_api_core.c **** {
 948              		.loc 1 1014 1 is_stmt 1 view -0
 949              		.cfi_startproc
 950              		@ args = 0, pretend = 0, frame = 0
 951              		@ frame_needed = 0, uses_anonymous_args = 0
 952              		@ link register save eliminated.
1015:Drivers/BSP/Components/vl53l1cb/modules/vl53l1_api_core.c **** 
1016:Drivers/BSP/Components/vl53l1cb/modules/vl53l1_api_core.c **** 
1017:Drivers/BSP/Components/vl53l1cb/modules/vl53l1_api_core.c **** 	VL53L1_Error  status = VL53L1_ERROR_NONE;
 953              		.loc 1 1017 2 view .LVU280
1018:Drivers/BSP/Components/vl53l1cb/modules/vl53l1_api_core.c **** 	VL53L1_LLDriverData_t *pdev = VL53L1DevStructGetLLDriverHandle(Dev);
 954              		.loc 1 1018 2 view .LVU281
1019:Drivers/BSP/Components/vl53l1cb/modules/vl53l1_api_core.c **** 
ARM GAS  C:\Temp\cckbpOon.s 			page 37


1020:Drivers/BSP/Components/vl53l1cb/modules/vl53l1_api_core.c **** 	LOG_FUNCTION_START("");
 955              		.loc 1 1020 24 view .LVU282
1021:Drivers/BSP/Components/vl53l1cb/modules/vl53l1_api_core.c **** 
1022:Drivers/BSP/Components/vl53l1cb/modules/vl53l1_api_core.c **** 	if (pdev->dbg_results.result__osc_calibrate_val == 0)
 956              		.loc 1 1022 2 view .LVU283
 957              		.loc 1 1022 23 is_stmt 0 view .LVU284
 958 0000 00F58053 		add	r3, r0, #4096
 959 0004 B3F8C433 		ldrh	r3, [r3, #964]
 960              		.loc 1 1022 5 view .LVU285
 961 0008 33B1     		cbz	r3, .L55
1023:Drivers/BSP/Components/vl53l1cb/modules/vl53l1_api_core.c **** 		status = VL53L1_ERROR_DIVISION_BY_ZERO;
1024:Drivers/BSP/Components/vl53l1cb/modules/vl53l1_api_core.c **** 
1025:Drivers/BSP/Components/vl53l1cb/modules/vl53l1_api_core.c **** 	if (status == VL53L1_ERROR_NONE) {
 962              		.loc 1 1025 2 is_stmt 1 view .LVU286
1026:Drivers/BSP/Components/vl53l1cb/modules/vl53l1_api_core.c **** 		pdev->inter_measurement_period_ms = inter_measurement_period_ms;
 963              		.loc 1 1026 3 view .LVU287
 964              		.loc 1 1026 37 is_stmt 0 view .LVU288
 965 000a C162     		str	r1, [r0, #44]
1027:Drivers/BSP/Components/vl53l1cb/modules/vl53l1_api_core.c **** 		pdev->tim_cfg.system__intermeasurement_period =
 966              		.loc 1 1027 3 is_stmt 1 view .LVU289
1028:Drivers/BSP/Components/vl53l1cb/modules/vl53l1_api_core.c **** 			inter_measurement_period_ms *
 967              		.loc 1 1028 32 is_stmt 0 view .LVU290
 968 000c 01FB03F3 		mul	r3, r1, r3
1027:Drivers/BSP/Components/vl53l1cb/modules/vl53l1_api_core.c **** 		pdev->tim_cfg.system__intermeasurement_period =
 969              		.loc 1 1027 49 view .LVU291
 970 0010 C0F8A433 		str	r3, [r0, #932]
1017:Drivers/BSP/Components/vl53l1cb/modules/vl53l1_api_core.c **** 	VL53L1_LLDriverData_t *pdev = VL53L1DevStructGetLLDriverHandle(Dev);
 971              		.loc 1 1017 16 view .LVU292
 972 0014 0020     		movs	r0, #0
 973              	.LVL96:
1017:Drivers/BSP/Components/vl53l1cb/modules/vl53l1_api_core.c **** 	VL53L1_LLDriverData_t *pdev = VL53L1DevStructGetLLDriverHandle(Dev);
 974              		.loc 1 1017 16 view .LVU293
 975 0016 7047     		bx	lr
 976              	.LVL97:
 977              	.L55:
1023:Drivers/BSP/Components/vl53l1cb/modules/vl53l1_api_core.c **** 
 978              		.loc 1 1023 10 view .LVU294
 979 0018 6FF00E00 		mvn	r0, #14
 980              	.LVL98:
1029:Drivers/BSP/Components/vl53l1cb/modules/vl53l1_api_core.c **** 			(uint32_t)pdev->dbg_results.result__osc_calibrate_val;
1030:Drivers/BSP/Components/vl53l1cb/modules/vl53l1_api_core.c **** 	}
1031:Drivers/BSP/Components/vl53l1cb/modules/vl53l1_api_core.c **** 
1032:Drivers/BSP/Components/vl53l1cb/modules/vl53l1_api_core.c **** 	LOG_FUNCTION_END(status);
 981              		.loc 1 1032 26 is_stmt 1 view .LVU295
1033:Drivers/BSP/Components/vl53l1cb/modules/vl53l1_api_core.c **** 
1034:Drivers/BSP/Components/vl53l1cb/modules/vl53l1_api_core.c **** 	return status;
 982              		.loc 1 1034 2 view .LVU296
1035:Drivers/BSP/Components/vl53l1cb/modules/vl53l1_api_core.c **** }
 983              		.loc 1 1035 1 is_stmt 0 view .LVU297
 984 001c 7047     		bx	lr
 985              		.cfi_endproc
 986              	.LFE15:
 988              		.section	.text.VL53L1_get_inter_measurement_period_ms,"ax",%progbits
 989              		.align	1
 990              		.global	VL53L1_get_inter_measurement_period_ms
 991              		.syntax unified
 992              		.thumb
ARM GAS  C:\Temp\cckbpOon.s 			page 38


 993              		.thumb_func
 995              	VL53L1_get_inter_measurement_period_ms:
 996              	.LVL99:
 997              	.LFB16:
1036:Drivers/BSP/Components/vl53l1cb/modules/vl53l1_api_core.c **** 
1037:Drivers/BSP/Components/vl53l1cb/modules/vl53l1_api_core.c **** 
1038:Drivers/BSP/Components/vl53l1cb/modules/vl53l1_api_core.c **** VL53L1_Error VL53L1_get_inter_measurement_period_ms(
1039:Drivers/BSP/Components/vl53l1cb/modules/vl53l1_api_core.c **** 	VL53L1_DEV              Dev,
1040:Drivers/BSP/Components/vl53l1cb/modules/vl53l1_api_core.c **** 	uint32_t               *pinter_measurement_period_ms)
1041:Drivers/BSP/Components/vl53l1cb/modules/vl53l1_api_core.c **** {
 998              		.loc 1 1041 1 is_stmt 1 view -0
 999              		.cfi_startproc
 1000              		@ args = 0, pretend = 0, frame = 0
 1001              		@ frame_needed = 0, uses_anonymous_args = 0
 1002              		@ link register save eliminated.
1042:Drivers/BSP/Components/vl53l1cb/modules/vl53l1_api_core.c **** 
1043:Drivers/BSP/Components/vl53l1cb/modules/vl53l1_api_core.c **** 
1044:Drivers/BSP/Components/vl53l1cb/modules/vl53l1_api_core.c **** 	VL53L1_Error  status = VL53L1_ERROR_NONE;
 1003              		.loc 1 1044 2 view .LVU299
1045:Drivers/BSP/Components/vl53l1cb/modules/vl53l1_api_core.c **** 	VL53L1_LLDriverData_t *pdev = VL53L1DevStructGetLLDriverHandle(Dev);
 1004              		.loc 1 1045 2 view .LVU300
1046:Drivers/BSP/Components/vl53l1cb/modules/vl53l1_api_core.c **** 
1047:Drivers/BSP/Components/vl53l1cb/modules/vl53l1_api_core.c **** 	LOG_FUNCTION_START("");
 1005              		.loc 1 1047 24 view .LVU301
1048:Drivers/BSP/Components/vl53l1cb/modules/vl53l1_api_core.c **** 
1049:Drivers/BSP/Components/vl53l1cb/modules/vl53l1_api_core.c **** 	if (pdev->dbg_results.result__osc_calibrate_val == 0)
 1006              		.loc 1 1049 2 view .LVU302
 1007              		.loc 1 1049 23 is_stmt 0 view .LVU303
 1008 0000 00F58053 		add	r3, r0, #4096
 1009 0004 B3F8C423 		ldrh	r2, [r3, #964]
 1010              		.loc 1 1049 5 view .LVU304
 1011 0008 32B1     		cbz	r2, .L58
1050:Drivers/BSP/Components/vl53l1cb/modules/vl53l1_api_core.c **** 		status = VL53L1_ERROR_DIVISION_BY_ZERO;
1051:Drivers/BSP/Components/vl53l1cb/modules/vl53l1_api_core.c **** 
1052:Drivers/BSP/Components/vl53l1cb/modules/vl53l1_api_core.c **** 	if (status == VL53L1_ERROR_NONE)
 1012              		.loc 1 1052 2 is_stmt 1 view .LVU305
1053:Drivers/BSP/Components/vl53l1cb/modules/vl53l1_api_core.c **** 		*pinter_measurement_period_ms =
 1013              		.loc 1 1053 3 view .LVU306
1054:Drivers/BSP/Components/vl53l1cb/modules/vl53l1_api_core.c **** 			pdev->tim_cfg.system__intermeasurement_period /
 1014              		.loc 1 1054 17 is_stmt 0 view .LVU307
 1015 000a D0F8A433 		ldr	r3, [r0, #932]
 1016              		.loc 1 1054 50 view .LVU308
 1017 000e B3FBF2F3 		udiv	r3, r3, r2
1053:Drivers/BSP/Components/vl53l1cb/modules/vl53l1_api_core.c **** 		*pinter_measurement_period_ms =
 1018              		.loc 1 1053 33 view .LVU309
 1019 0012 0B60     		str	r3, [r1]
1044:Drivers/BSP/Components/vl53l1cb/modules/vl53l1_api_core.c **** 	VL53L1_LLDriverData_t *pdev = VL53L1DevStructGetLLDriverHandle(Dev);
 1020              		.loc 1 1044 16 view .LVU310
 1021 0014 0020     		movs	r0, #0
 1022              	.LVL100:
1044:Drivers/BSP/Components/vl53l1cb/modules/vl53l1_api_core.c **** 	VL53L1_LLDriverData_t *pdev = VL53L1DevStructGetLLDriverHandle(Dev);
 1023              		.loc 1 1044 16 view .LVU311
 1024 0016 7047     		bx	lr
 1025              	.LVL101:
 1026              	.L58:
1050:Drivers/BSP/Components/vl53l1cb/modules/vl53l1_api_core.c **** 
 1027              		.loc 1 1050 10 view .LVU312
ARM GAS  C:\Temp\cckbpOon.s 			page 39


 1028 0018 6FF00E00 		mvn	r0, #14
 1029              	.LVL102:
1055:Drivers/BSP/Components/vl53l1cb/modules/vl53l1_api_core.c **** 			(uint32_t)pdev->dbg_results.result__osc_calibrate_val;
1056:Drivers/BSP/Components/vl53l1cb/modules/vl53l1_api_core.c **** 
1057:Drivers/BSP/Components/vl53l1cb/modules/vl53l1_api_core.c **** 
1058:Drivers/BSP/Components/vl53l1cb/modules/vl53l1_api_core.c **** 	LOG_FUNCTION_END(status);
 1030              		.loc 1 1058 26 is_stmt 1 view .LVU313
1059:Drivers/BSP/Components/vl53l1cb/modules/vl53l1_api_core.c **** 
1060:Drivers/BSP/Components/vl53l1cb/modules/vl53l1_api_core.c **** 	return status;
 1031              		.loc 1 1060 2 view .LVU314
1061:Drivers/BSP/Components/vl53l1cb/modules/vl53l1_api_core.c **** }
 1032              		.loc 1 1061 1 is_stmt 0 view .LVU315
 1033 001c 7047     		bx	lr
 1034              		.cfi_endproc
 1035              	.LFE16:
 1037              		.section	.text.VL53L1_set_timeouts_us,"ax",%progbits
 1038              		.align	1
 1039              		.global	VL53L1_set_timeouts_us
 1040              		.syntax unified
 1041              		.thumb
 1042              		.thumb_func
 1044              	VL53L1_set_timeouts_us:
 1045              	.LVL103:
 1046              	.LFB17:
1062:Drivers/BSP/Components/vl53l1cb/modules/vl53l1_api_core.c **** 
1063:Drivers/BSP/Components/vl53l1cb/modules/vl53l1_api_core.c **** 
1064:Drivers/BSP/Components/vl53l1cb/modules/vl53l1_api_core.c **** VL53L1_Error VL53L1_set_timeouts_us(
1065:Drivers/BSP/Components/vl53l1cb/modules/vl53l1_api_core.c **** 	VL53L1_DEV          Dev,
1066:Drivers/BSP/Components/vl53l1cb/modules/vl53l1_api_core.c **** 	uint32_t            phasecal_config_timeout_us,
1067:Drivers/BSP/Components/vl53l1cb/modules/vl53l1_api_core.c **** 	uint32_t            mm_config_timeout_us,
1068:Drivers/BSP/Components/vl53l1cb/modules/vl53l1_api_core.c **** 	uint32_t            range_config_timeout_us)
1069:Drivers/BSP/Components/vl53l1cb/modules/vl53l1_api_core.c **** {
 1047              		.loc 1 1069 1 is_stmt 1 view -0
 1048              		.cfi_startproc
 1049              		@ args = 0, pretend = 0, frame = 0
 1050              		@ frame_needed = 0, uses_anonymous_args = 0
 1051              		.loc 1 1069 1 is_stmt 0 view .LVU317
 1052 0000 8446     		mov	ip, r0
 1053 0002 0846     		mov	r0, r1
 1054              	.LVL104:
 1055              		.loc 1 1069 1 view .LVU318
 1056 0004 1146     		mov	r1, r2
 1057              	.LVL105:
 1058              		.loc 1 1069 1 view .LVU319
 1059 0006 1A46     		mov	r2, r3
 1060              	.LVL106:
1070:Drivers/BSP/Components/vl53l1cb/modules/vl53l1_api_core.c **** 
1071:Drivers/BSP/Components/vl53l1cb/modules/vl53l1_api_core.c **** 
1072:Drivers/BSP/Components/vl53l1cb/modules/vl53l1_api_core.c **** 	VL53L1_Error  status = VL53L1_ERROR_NONE;
 1061              		.loc 1 1072 2 is_stmt 1 view .LVU320
1073:Drivers/BSP/Components/vl53l1cb/modules/vl53l1_api_core.c **** 	VL53L1_LLDriverData_t *pdev =
 1062              		.loc 1 1073 2 view .LVU321
1074:Drivers/BSP/Components/vl53l1cb/modules/vl53l1_api_core.c **** 			VL53L1DevStructGetLLDriverHandle(Dev);
1075:Drivers/BSP/Components/vl53l1cb/modules/vl53l1_api_core.c **** 
1076:Drivers/BSP/Components/vl53l1cb/modules/vl53l1_api_core.c **** 	LOG_FUNCTION_START("");
 1063              		.loc 1 1076 24 view .LVU322
1077:Drivers/BSP/Components/vl53l1cb/modules/vl53l1_api_core.c **** 
ARM GAS  C:\Temp\cckbpOon.s 			page 40


1078:Drivers/BSP/Components/vl53l1cb/modules/vl53l1_api_core.c **** 	if (pdev->stat_nvm.osc_measured__fast_osc__frequency == 0)
 1064              		.loc 1 1078 2 view .LVU323
 1065              		.loc 1 1078 20 is_stmt 0 view .LVU324
 1066 0008 BCF83E33 		ldrh	r3, [ip, #830]
 1067              	.LVL107:
 1068              		.loc 1 1078 5 view .LVU325
 1069 000c 8BB1     		cbz	r3, .L61
1069:Drivers/BSP/Components/vl53l1cb/modules/vl53l1_api_core.c **** 
 1070              		.loc 1 1069 1 view .LVU326
 1071 000e 10B5     		push	{r4, lr}
 1072              		.cfi_def_cfa_offset 8
 1073              		.cfi_offset 4, -8
 1074              		.cfi_offset 14, -4
 1075 0010 82B0     		sub	sp, sp, #8
 1076              		.cfi_def_cfa_offset 16
1079:Drivers/BSP/Components/vl53l1cb/modules/vl53l1_api_core.c **** 		status = VL53L1_ERROR_DIVISION_BY_ZERO;
1080:Drivers/BSP/Components/vl53l1cb/modules/vl53l1_api_core.c **** 
1081:Drivers/BSP/Components/vl53l1cb/modules/vl53l1_api_core.c **** 	if (status == VL53L1_ERROR_NONE) {
 1077              		.loc 1 1081 2 is_stmt 1 view .LVU327
1082:Drivers/BSP/Components/vl53l1cb/modules/vl53l1_api_core.c **** 
1083:Drivers/BSP/Components/vl53l1cb/modules/vl53l1_api_core.c **** 		pdev->phasecal_config_timeout_us = phasecal_config_timeout_us;
 1078              		.loc 1 1083 3 view .LVU328
 1079              		.loc 1 1083 36 is_stmt 0 view .LVU329
 1080 0012 CCF82000 		str	r0, [ip, #32]
1084:Drivers/BSP/Components/vl53l1cb/modules/vl53l1_api_core.c **** 		pdev->mm_config_timeout_us       = mm_config_timeout_us;
 1081              		.loc 1 1084 3 is_stmt 1 view .LVU330
 1082              		.loc 1 1084 36 is_stmt 0 view .LVU331
 1083 0016 CCF82410 		str	r1, [ip, #36]
1085:Drivers/BSP/Components/vl53l1cb/modules/vl53l1_api_core.c **** 		pdev->range_config_timeout_us    = range_config_timeout_us;
 1084              		.loc 1 1085 3 is_stmt 1 view .LVU332
 1085              		.loc 1 1085 36 is_stmt 0 view .LVU333
 1086 001a CCF82820 		str	r2, [ip, #40]
1086:Drivers/BSP/Components/vl53l1cb/modules/vl53l1_api_core.c **** 
1087:Drivers/BSP/Components/vl53l1cb/modules/vl53l1_api_core.c **** 		status =
 1087              		.loc 1 1087 3 is_stmt 1 view .LVU334
1088:Drivers/BSP/Components/vl53l1cb/modules/vl53l1_api_core.c **** 		VL53L1_calc_timeout_register_values(
 1088              		.loc 1 1088 3 is_stmt 0 view .LVU335
 1089 001e 0CF56574 		add	r4, ip, #916
 1090 0022 0194     		str	r4, [sp, #4]
 1091 0024 0CF27E34 		addw	r4, ip, #894
 1092 0028 0094     		str	r4, [sp]
 1093 002a FFF7FEFF 		bl	VL53L1_calc_timeout_register_values
 1094              	.LVL108:
1089:Drivers/BSP/Components/vl53l1cb/modules/vl53l1_api_core.c **** 			phasecal_config_timeout_us,
1090:Drivers/BSP/Components/vl53l1cb/modules/vl53l1_api_core.c **** 			mm_config_timeout_us,
1091:Drivers/BSP/Components/vl53l1cb/modules/vl53l1_api_core.c **** 			range_config_timeout_us,
1092:Drivers/BSP/Components/vl53l1cb/modules/vl53l1_api_core.c **** 			pdev->stat_nvm.osc_measured__fast_osc__frequency,
1093:Drivers/BSP/Components/vl53l1cb/modules/vl53l1_api_core.c **** 			&(pdev->gen_cfg),
1094:Drivers/BSP/Components/vl53l1cb/modules/vl53l1_api_core.c **** 			&(pdev->tim_cfg));
1095:Drivers/BSP/Components/vl53l1cb/modules/vl53l1_api_core.c **** 	}
1096:Drivers/BSP/Components/vl53l1cb/modules/vl53l1_api_core.c **** 
1097:Drivers/BSP/Components/vl53l1cb/modules/vl53l1_api_core.c **** 	LOG_FUNCTION_END(status);
 1095              		.loc 1 1097 26 is_stmt 1 view .LVU336
1098:Drivers/BSP/Components/vl53l1cb/modules/vl53l1_api_core.c **** 
1099:Drivers/BSP/Components/vl53l1cb/modules/vl53l1_api_core.c **** 	return status;
 1096              		.loc 1 1099 2 view .LVU337
1100:Drivers/BSP/Components/vl53l1cb/modules/vl53l1_api_core.c **** }
ARM GAS  C:\Temp\cckbpOon.s 			page 41


 1097              		.loc 1 1100 1 is_stmt 0 view .LVU338
 1098 002e 02B0     		add	sp, sp, #8
 1099              		.cfi_def_cfa_offset 8
 1100              		@ sp needed
 1101 0030 10BD     		pop	{r4, pc}
 1102              	.LVL109:
 1103              	.L61:
 1104              		.cfi_def_cfa_offset 0
 1105              		.cfi_restore 4
 1106              		.cfi_restore 14
1079:Drivers/BSP/Components/vl53l1cb/modules/vl53l1_api_core.c **** 
 1107              		.loc 1 1079 10 view .LVU339
 1108 0032 6FF00E00 		mvn	r0, #14
 1109              	.LVL110:
1097:Drivers/BSP/Components/vl53l1cb/modules/vl53l1_api_core.c **** 
 1110              		.loc 1 1097 26 is_stmt 1 view .LVU340
1099:Drivers/BSP/Components/vl53l1cb/modules/vl53l1_api_core.c **** }
 1111              		.loc 1 1099 2 view .LVU341
 1112              		.loc 1 1100 1 is_stmt 0 view .LVU342
 1113 0036 7047     		bx	lr
 1114              		.cfi_endproc
 1115              	.LFE17:
 1117              		.section	.text.VL53L1_get_timeouts_us,"ax",%progbits
 1118              		.align	1
 1119              		.global	VL53L1_get_timeouts_us
 1120              		.syntax unified
 1121              		.thumb
 1122              		.thumb_func
 1124              	VL53L1_get_timeouts_us:
 1125              	.LVL111:
 1126              	.LFB18:
1101:Drivers/BSP/Components/vl53l1cb/modules/vl53l1_api_core.c **** 
1102:Drivers/BSP/Components/vl53l1cb/modules/vl53l1_api_core.c **** 
1103:Drivers/BSP/Components/vl53l1cb/modules/vl53l1_api_core.c **** VL53L1_Error VL53L1_get_timeouts_us(
1104:Drivers/BSP/Components/vl53l1cb/modules/vl53l1_api_core.c **** 	VL53L1_DEV           Dev,
1105:Drivers/BSP/Components/vl53l1cb/modules/vl53l1_api_core.c **** 	uint32_t            *pphasecal_config_timeout_us,
1106:Drivers/BSP/Components/vl53l1cb/modules/vl53l1_api_core.c **** 	uint32_t            *pmm_config_timeout_us,
1107:Drivers/BSP/Components/vl53l1cb/modules/vl53l1_api_core.c **** 	uint32_t			*prange_config_timeout_us)
1108:Drivers/BSP/Components/vl53l1cb/modules/vl53l1_api_core.c **** {
 1127              		.loc 1 1108 1 is_stmt 1 view -0
 1128              		.cfi_startproc
 1129              		@ args = 0, pretend = 0, frame = 0
 1130              		@ frame_needed = 0, uses_anonymous_args = 0
 1131              		.loc 1 1108 1 is_stmt 0 view .LVU344
 1132 0000 2DE9F041 		push	{r4, r5, r6, r7, r8, lr}
 1133              		.cfi_def_cfa_offset 24
 1134              		.cfi_offset 4, -24
 1135              		.cfi_offset 5, -20
 1136              		.cfi_offset 6, -16
 1137              		.cfi_offset 7, -12
 1138              		.cfi_offset 8, -8
 1139              		.cfi_offset 14, -4
 1140 0004 0446     		mov	r4, r0
1109:Drivers/BSP/Components/vl53l1cb/modules/vl53l1_api_core.c **** 
1110:Drivers/BSP/Components/vl53l1cb/modules/vl53l1_api_core.c **** 
1111:Drivers/BSP/Components/vl53l1cb/modules/vl53l1_api_core.c **** 	VL53L1_Error  status = VL53L1_ERROR_NONE;
 1141              		.loc 1 1111 2 is_stmt 1 view .LVU345
ARM GAS  C:\Temp\cckbpOon.s 			page 42


 1142              	.LVL112:
1112:Drivers/BSP/Components/vl53l1cb/modules/vl53l1_api_core.c **** 	VL53L1_LLDriverData_t *pdev =
 1143              		.loc 1 1112 2 view .LVU346
1113:Drivers/BSP/Components/vl53l1cb/modules/vl53l1_api_core.c **** 			VL53L1DevStructGetLLDriverHandle(Dev);
1114:Drivers/BSP/Components/vl53l1cb/modules/vl53l1_api_core.c **** 
1115:Drivers/BSP/Components/vl53l1cb/modules/vl53l1_api_core.c **** 	uint32_t  macro_period_us = 0;
 1144              		.loc 1 1115 2 view .LVU347
1116:Drivers/BSP/Components/vl53l1cb/modules/vl53l1_api_core.c **** 	uint16_t  timeout_encoded = 0;
 1145              		.loc 1 1116 2 view .LVU348
1117:Drivers/BSP/Components/vl53l1cb/modules/vl53l1_api_core.c **** 
1118:Drivers/BSP/Components/vl53l1cb/modules/vl53l1_api_core.c **** 	LOG_FUNCTION_START("");
 1146              		.loc 1 1118 24 view .LVU349
1119:Drivers/BSP/Components/vl53l1cb/modules/vl53l1_api_core.c **** 
1120:Drivers/BSP/Components/vl53l1cb/modules/vl53l1_api_core.c **** 	if (pdev->stat_nvm.osc_measured__fast_osc__frequency == 0)
 1147              		.loc 1 1120 2 view .LVU350
 1148              		.loc 1 1120 20 is_stmt 0 view .LVU351
 1149 0006 B0F83E03 		ldrh	r0, [r0, #830]
 1150              	.LVL113:
 1151              		.loc 1 1120 5 view .LVU352
 1152 000a 70B3     		cbz	r0, .L68
 1153 000c 8846     		mov	r8, r1
 1154 000e 1746     		mov	r7, r2
 1155 0010 1E46     		mov	r6, r3
1121:Drivers/BSP/Components/vl53l1cb/modules/vl53l1_api_core.c **** 		status = VL53L1_ERROR_DIVISION_BY_ZERO;
1122:Drivers/BSP/Components/vl53l1cb/modules/vl53l1_api_core.c **** 
1123:Drivers/BSP/Components/vl53l1cb/modules/vl53l1_api_core.c **** 	if (status == VL53L1_ERROR_NONE) {
 1156              		.loc 1 1123 2 is_stmt 1 view .LVU353
1124:Drivers/BSP/Components/vl53l1cb/modules/vl53l1_api_core.c **** 
1125:Drivers/BSP/Components/vl53l1cb/modules/vl53l1_api_core.c **** 
1126:Drivers/BSP/Components/vl53l1cb/modules/vl53l1_api_core.c **** 		macro_period_us =
 1157              		.loc 1 1126 3 view .LVU354
1127:Drivers/BSP/Components/vl53l1cb/modules/vl53l1_api_core.c **** 			VL53L1_calc_macro_period_us(
 1158              		.loc 1 1127 4 is_stmt 0 view .LVU355
 1159 0012 94F89A13 		ldrb	r1, [r4, #922]	@ zero_extendqisi2
 1160              	.LVL114:
 1161              		.loc 1 1127 4 view .LVU356
 1162 0016 FFF7FEFF 		bl	VL53L1_calc_macro_period_us
 1163              	.LVL115:
 1164              		.loc 1 1127 4 view .LVU357
 1165 001a 0546     		mov	r5, r0
 1166              	.LVL116:
1128:Drivers/BSP/Components/vl53l1cb/modules/vl53l1_api_core.c **** 			pdev->stat_nvm.osc_measured__fast_osc__frequency,
1129:Drivers/BSP/Components/vl53l1cb/modules/vl53l1_api_core.c **** 			pdev->tim_cfg.range_config__vcsel_period_a);
1130:Drivers/BSP/Components/vl53l1cb/modules/vl53l1_api_core.c **** 
1131:Drivers/BSP/Components/vl53l1cb/modules/vl53l1_api_core.c **** 
1132:Drivers/BSP/Components/vl53l1cb/modules/vl53l1_api_core.c **** 
1133:Drivers/BSP/Components/vl53l1cb/modules/vl53l1_api_core.c **** 		*pphasecal_config_timeout_us =
 1167              		.loc 1 1133 3 is_stmt 1 view .LVU358
1134:Drivers/BSP/Components/vl53l1cb/modules/vl53l1_api_core.c **** 			VL53L1_calc_timeout_us(
 1168              		.loc 1 1134 4 is_stmt 0 view .LVU359
 1169 001c 0146     		mov	r1, r0
 1170 001e 94F88503 		ldrb	r0, [r4, #901]	@ zero_extendqisi2
 1171              	.LVL117:
 1172              		.loc 1 1134 4 view .LVU360
 1173 0022 FFF7FEFF 		bl	VL53L1_calc_timeout_us
 1174              	.LVL118:
1133:Drivers/BSP/Components/vl53l1cb/modules/vl53l1_api_core.c **** 			VL53L1_calc_timeout_us(
ARM GAS  C:\Temp\cckbpOon.s 			page 43


 1175              		.loc 1 1133 32 view .LVU361
 1176 0026 C8F80000 		str	r0, [r8]
1135:Drivers/BSP/Components/vl53l1cb/modules/vl53l1_api_core.c **** 			(uint32_t)pdev->gen_cfg.phasecal_config__timeout_macrop,
1136:Drivers/BSP/Components/vl53l1cb/modules/vl53l1_api_core.c **** 			macro_period_us);
1137:Drivers/BSP/Components/vl53l1cb/modules/vl53l1_api_core.c **** 
1138:Drivers/BSP/Components/vl53l1cb/modules/vl53l1_api_core.c **** 
1139:Drivers/BSP/Components/vl53l1cb/modules/vl53l1_api_core.c **** 
1140:Drivers/BSP/Components/vl53l1cb/modules/vl53l1_api_core.c **** 		timeout_encoded =
 1177              		.loc 1 1140 3 is_stmt 1 view .LVU362
1141:Drivers/BSP/Components/vl53l1cb/modules/vl53l1_api_core.c **** 			(uint16_t)pdev->tim_cfg.mm_config__timeout_macrop_a_hi;
 1178              		.loc 1 1141 27 is_stmt 0 view .LVU363
 1179 002a 94F89433 		ldrb	r3, [r4, #916]	@ zero_extendqisi2
 1180              	.LVL119:
1142:Drivers/BSP/Components/vl53l1cb/modules/vl53l1_api_core.c **** 		timeout_encoded = (timeout_encoded << 8) +
 1181              		.loc 1 1142 3 is_stmt 1 view .LVU364
1143:Drivers/BSP/Components/vl53l1cb/modules/vl53l1_api_core.c **** 			(uint16_t)pdev->tim_cfg.mm_config__timeout_macrop_a_lo;
 1182              		.loc 1 1143 27 is_stmt 0 view .LVU365
 1183 002e 94F89503 		ldrb	r0, [r4, #917]	@ zero_extendqisi2
1142:Drivers/BSP/Components/vl53l1cb/modules/vl53l1_api_core.c **** 		timeout_encoded = (timeout_encoded << 8) +
 1184              		.loc 1 1142 19 view .LVU366
 1185 0032 00EB0320 		add	r0, r0, r3, lsl #8
 1186              	.LVL120:
1144:Drivers/BSP/Components/vl53l1cb/modules/vl53l1_api_core.c **** 
1145:Drivers/BSP/Components/vl53l1cb/modules/vl53l1_api_core.c **** 		*pmm_config_timeout_us =
 1187              		.loc 1 1145 3 is_stmt 1 view .LVU367
1146:Drivers/BSP/Components/vl53l1cb/modules/vl53l1_api_core.c **** 			VL53L1_calc_decoded_timeout_us(
 1188              		.loc 1 1146 4 is_stmt 0 view .LVU368
 1189 0036 2946     		mov	r1, r5
 1190 0038 80B2     		uxth	r0, r0
 1191              		.loc 1 1146 4 view .LVU369
 1192 003a FFF7FEFF 		bl	VL53L1_calc_decoded_timeout_us
 1193              	.LVL121:
1145:Drivers/BSP/Components/vl53l1cb/modules/vl53l1_api_core.c **** 			VL53L1_calc_decoded_timeout_us(
 1194              		.loc 1 1145 26 view .LVU370
 1195 003e 3860     		str	r0, [r7]
1147:Drivers/BSP/Components/vl53l1cb/modules/vl53l1_api_core.c **** 				timeout_encoded,
1148:Drivers/BSP/Components/vl53l1cb/modules/vl53l1_api_core.c **** 				macro_period_us);
1149:Drivers/BSP/Components/vl53l1cb/modules/vl53l1_api_core.c **** 
1150:Drivers/BSP/Components/vl53l1cb/modules/vl53l1_api_core.c **** 
1151:Drivers/BSP/Components/vl53l1cb/modules/vl53l1_api_core.c **** 
1152:Drivers/BSP/Components/vl53l1cb/modules/vl53l1_api_core.c **** 		timeout_encoded =
 1196              		.loc 1 1152 3 is_stmt 1 view .LVU371
1153:Drivers/BSP/Components/vl53l1cb/modules/vl53l1_api_core.c **** 		(uint16_t)pdev->tim_cfg.range_config__timeout_macrop_a_hi;
 1197              		.loc 1 1153 26 is_stmt 0 view .LVU372
 1198 0040 94F89833 		ldrb	r3, [r4, #920]	@ zero_extendqisi2
 1199              	.LVL122:
1154:Drivers/BSP/Components/vl53l1cb/modules/vl53l1_api_core.c **** 		timeout_encoded = (timeout_encoded << 8) +
 1200              		.loc 1 1154 3 is_stmt 1 view .LVU373
1155:Drivers/BSP/Components/vl53l1cb/modules/vl53l1_api_core.c **** 		(uint16_t)pdev->tim_cfg.range_config__timeout_macrop_a_lo;
 1201              		.loc 1 1155 26 is_stmt 0 view .LVU374
 1202 0044 94F89903 		ldrb	r0, [r4, #921]	@ zero_extendqisi2
1154:Drivers/BSP/Components/vl53l1cb/modules/vl53l1_api_core.c **** 		timeout_encoded = (timeout_encoded << 8) +
 1203              		.loc 1 1154 19 view .LVU375
 1204 0048 00EB0320 		add	r0, r0, r3, lsl #8
 1205              	.LVL123:
1156:Drivers/BSP/Components/vl53l1cb/modules/vl53l1_api_core.c **** 
1157:Drivers/BSP/Components/vl53l1cb/modules/vl53l1_api_core.c **** 		*prange_config_timeout_us =
ARM GAS  C:\Temp\cckbpOon.s 			page 44


 1206              		.loc 1 1157 3 is_stmt 1 view .LVU376
1158:Drivers/BSP/Components/vl53l1cb/modules/vl53l1_api_core.c **** 			VL53L1_calc_decoded_timeout_us(
 1207              		.loc 1 1158 4 is_stmt 0 view .LVU377
 1208 004c 2946     		mov	r1, r5
 1209 004e 80B2     		uxth	r0, r0
 1210              		.loc 1 1158 4 view .LVU378
 1211 0050 FFF7FEFF 		bl	VL53L1_calc_decoded_timeout_us
 1212              	.LVL124:
1157:Drivers/BSP/Components/vl53l1cb/modules/vl53l1_api_core.c **** 			VL53L1_calc_decoded_timeout_us(
 1213              		.loc 1 1157 29 view .LVU379
 1214 0054 3060     		str	r0, [r6]
1159:Drivers/BSP/Components/vl53l1cb/modules/vl53l1_api_core.c **** 				timeout_encoded,
1160:Drivers/BSP/Components/vl53l1cb/modules/vl53l1_api_core.c **** 				macro_period_us);
1161:Drivers/BSP/Components/vl53l1cb/modules/vl53l1_api_core.c **** 
1162:Drivers/BSP/Components/vl53l1cb/modules/vl53l1_api_core.c **** 		pdev->phasecal_config_timeout_us = *pphasecal_config_timeout_us;
 1215              		.loc 1 1162 3 is_stmt 1 view .LVU380
 1216              		.loc 1 1162 38 is_stmt 0 view .LVU381
 1217 0056 D8F80030 		ldr	r3, [r8]
 1218              		.loc 1 1162 36 view .LVU382
 1219 005a 2362     		str	r3, [r4, #32]
1163:Drivers/BSP/Components/vl53l1cb/modules/vl53l1_api_core.c **** 		pdev->mm_config_timeout_us       = *pmm_config_timeout_us;
 1220              		.loc 1 1163 3 is_stmt 1 view .LVU383
 1221              		.loc 1 1163 38 is_stmt 0 view .LVU384
 1222 005c 3B68     		ldr	r3, [r7]
 1223              		.loc 1 1163 36 view .LVU385
 1224 005e 6362     		str	r3, [r4, #36]
1164:Drivers/BSP/Components/vl53l1cb/modules/vl53l1_api_core.c **** 		pdev->range_config_timeout_us    = *prange_config_timeout_us;
 1225              		.loc 1 1164 3 is_stmt 1 view .LVU386
 1226              		.loc 1 1164 38 is_stmt 0 view .LVU387
 1227 0060 3368     		ldr	r3, [r6]
 1228              		.loc 1 1164 36 view .LVU388
 1229 0062 A362     		str	r3, [r4, #40]
1111:Drivers/BSP/Components/vl53l1cb/modules/vl53l1_api_core.c **** 	VL53L1_LLDriverData_t *pdev =
 1230              		.loc 1 1111 16 view .LVU389
 1231 0064 0020     		movs	r0, #0
 1232              	.LVL125:
 1233              	.L67:
1165:Drivers/BSP/Components/vl53l1cb/modules/vl53l1_api_core.c **** 
1166:Drivers/BSP/Components/vl53l1cb/modules/vl53l1_api_core.c **** 	}
1167:Drivers/BSP/Components/vl53l1cb/modules/vl53l1_api_core.c **** 
1168:Drivers/BSP/Components/vl53l1cb/modules/vl53l1_api_core.c **** 	LOG_FUNCTION_END(status);
 1234              		.loc 1 1168 26 is_stmt 1 view .LVU390
1169:Drivers/BSP/Components/vl53l1cb/modules/vl53l1_api_core.c **** 
1170:Drivers/BSP/Components/vl53l1cb/modules/vl53l1_api_core.c **** 	return status;
 1235              		.loc 1 1170 2 view .LVU391
1171:Drivers/BSP/Components/vl53l1cb/modules/vl53l1_api_core.c **** }
 1236              		.loc 1 1171 1 is_stmt 0 view .LVU392
 1237 0066 BDE8F081 		pop	{r4, r5, r6, r7, r8, pc}
 1238              	.LVL126:
 1239              	.L68:
1121:Drivers/BSP/Components/vl53l1cb/modules/vl53l1_api_core.c **** 
 1240              		.loc 1 1121 10 view .LVU393
 1241 006a 6FF00E00 		mvn	r0, #14
 1242 006e FAE7     		b	.L67
 1243              		.cfi_endproc
 1244              	.LFE18:
 1246              		.section	.text.VL53L1_set_calibration_repeat_period,"ax",%progbits
ARM GAS  C:\Temp\cckbpOon.s 			page 45


 1247              		.align	1
 1248              		.global	VL53L1_set_calibration_repeat_period
 1249              		.syntax unified
 1250              		.thumb
 1251              		.thumb_func
 1253              	VL53L1_set_calibration_repeat_period:
 1254              	.LVL127:
 1255              	.LFB19:
1172:Drivers/BSP/Components/vl53l1cb/modules/vl53l1_api_core.c **** 
1173:Drivers/BSP/Components/vl53l1cb/modules/vl53l1_api_core.c **** 
1174:Drivers/BSP/Components/vl53l1cb/modules/vl53l1_api_core.c **** VL53L1_Error VL53L1_set_calibration_repeat_period(
1175:Drivers/BSP/Components/vl53l1cb/modules/vl53l1_api_core.c **** 	VL53L1_DEV          Dev,
1176:Drivers/BSP/Components/vl53l1cb/modules/vl53l1_api_core.c **** 	uint16_t            cal_config__repeat_period)
1177:Drivers/BSP/Components/vl53l1cb/modules/vl53l1_api_core.c **** {
 1256              		.loc 1 1177 1 is_stmt 1 view -0
 1257              		.cfi_startproc
 1258              		@ args = 0, pretend = 0, frame = 0
 1259              		@ frame_needed = 0, uses_anonymous_args = 0
 1260              		@ link register save eliminated.
1178:Drivers/BSP/Components/vl53l1cb/modules/vl53l1_api_core.c **** 
1179:Drivers/BSP/Components/vl53l1cb/modules/vl53l1_api_core.c **** 
1180:Drivers/BSP/Components/vl53l1cb/modules/vl53l1_api_core.c **** 	VL53L1_Error  status = VL53L1_ERROR_NONE;
 1261              		.loc 1 1180 2 view .LVU395
1181:Drivers/BSP/Components/vl53l1cb/modules/vl53l1_api_core.c **** 	VL53L1_LLDriverData_t *pdev =
 1262              		.loc 1 1181 2 view .LVU396
1182:Drivers/BSP/Components/vl53l1cb/modules/vl53l1_api_core.c **** 		VL53L1DevStructGetLLDriverHandle(Dev);
1183:Drivers/BSP/Components/vl53l1cb/modules/vl53l1_api_core.c **** 
1184:Drivers/BSP/Components/vl53l1cb/modules/vl53l1_api_core.c **** 	pdev->gen_cfg.cal_config__repeat_rate = cal_config__repeat_period;
 1263              		.loc 1 1184 2 view .LVU397
 1264              		.loc 1 1184 40 is_stmt 0 view .LVU398
 1265 0000 A0F88213 		strh	r1, [r0, #898]	@ movhi
1185:Drivers/BSP/Components/vl53l1cb/modules/vl53l1_api_core.c **** 
1186:Drivers/BSP/Components/vl53l1cb/modules/vl53l1_api_core.c **** 	return status;
 1266              		.loc 1 1186 2 is_stmt 1 view .LVU399
1187:Drivers/BSP/Components/vl53l1cb/modules/vl53l1_api_core.c **** 
1188:Drivers/BSP/Components/vl53l1cb/modules/vl53l1_api_core.c **** }
 1267              		.loc 1 1188 1 is_stmt 0 view .LVU400
 1268 0004 0020     		movs	r0, #0
 1269              	.LVL128:
 1270              		.loc 1 1188 1 view .LVU401
 1271 0006 7047     		bx	lr
 1272              		.cfi_endproc
 1273              	.LFE19:
 1275              		.section	.text.VL53L1_get_calibration_repeat_period,"ax",%progbits
 1276              		.align	1
 1277              		.global	VL53L1_get_calibration_repeat_period
 1278              		.syntax unified
 1279              		.thumb
 1280              		.thumb_func
 1282              	VL53L1_get_calibration_repeat_period:
 1283              	.LVL129:
 1284              	.LFB20:
1189:Drivers/BSP/Components/vl53l1cb/modules/vl53l1_api_core.c **** 
1190:Drivers/BSP/Components/vl53l1cb/modules/vl53l1_api_core.c **** 
1191:Drivers/BSP/Components/vl53l1cb/modules/vl53l1_api_core.c **** VL53L1_Error VL53L1_get_calibration_repeat_period(
1192:Drivers/BSP/Components/vl53l1cb/modules/vl53l1_api_core.c **** 	VL53L1_DEV          Dev,
1193:Drivers/BSP/Components/vl53l1cb/modules/vl53l1_api_core.c **** 	uint16_t           *pcal_config__repeat_period)
ARM GAS  C:\Temp\cckbpOon.s 			page 46


1194:Drivers/BSP/Components/vl53l1cb/modules/vl53l1_api_core.c **** {
 1285              		.loc 1 1194 1 is_stmt 1 view -0
 1286              		.cfi_startproc
 1287              		@ args = 0, pretend = 0, frame = 0
 1288              		@ frame_needed = 0, uses_anonymous_args = 0
 1289              		@ link register save eliminated.
1195:Drivers/BSP/Components/vl53l1cb/modules/vl53l1_api_core.c **** 
1196:Drivers/BSP/Components/vl53l1cb/modules/vl53l1_api_core.c **** 
1197:Drivers/BSP/Components/vl53l1cb/modules/vl53l1_api_core.c **** 	VL53L1_Error  status = VL53L1_ERROR_NONE;
 1290              		.loc 1 1197 2 view .LVU403
1198:Drivers/BSP/Components/vl53l1cb/modules/vl53l1_api_core.c **** 	VL53L1_LLDriverData_t *pdev =
 1291              		.loc 1 1198 2 view .LVU404
1199:Drivers/BSP/Components/vl53l1cb/modules/vl53l1_api_core.c **** 		VL53L1DevStructGetLLDriverHandle(Dev);
1200:Drivers/BSP/Components/vl53l1cb/modules/vl53l1_api_core.c **** 
1201:Drivers/BSP/Components/vl53l1cb/modules/vl53l1_api_core.c **** 	*pcal_config__repeat_period = pdev->gen_cfg.cal_config__repeat_rate;
 1292              		.loc 1 1201 2 view .LVU405
 1293              		.loc 1 1201 45 is_stmt 0 view .LVU406
 1294 0000 B0F88233 		ldrh	r3, [r0, #898]
 1295              		.loc 1 1201 30 view .LVU407
 1296 0004 0B80     		strh	r3, [r1]	@ movhi
1202:Drivers/BSP/Components/vl53l1cb/modules/vl53l1_api_core.c **** 
1203:Drivers/BSP/Components/vl53l1cb/modules/vl53l1_api_core.c **** 	return status;
 1297              		.loc 1 1203 2 is_stmt 1 view .LVU408
1204:Drivers/BSP/Components/vl53l1cb/modules/vl53l1_api_core.c **** 
1205:Drivers/BSP/Components/vl53l1cb/modules/vl53l1_api_core.c **** }
 1298              		.loc 1 1205 1 is_stmt 0 view .LVU409
 1299 0006 0020     		movs	r0, #0
 1300              	.LVL130:
 1301              		.loc 1 1205 1 view .LVU410
 1302 0008 7047     		bx	lr
 1303              		.cfi_endproc
 1304              	.LFE20:
 1306              		.section	.text.VL53L1_set_sequence_config_bit,"ax",%progbits
 1307              		.align	1
 1308              		.global	VL53L1_set_sequence_config_bit
 1309              		.syntax unified
 1310              		.thumb
 1311              		.thumb_func
 1313              	VL53L1_set_sequence_config_bit:
 1314              	.LVL131:
 1315              	.LFB21:
1206:Drivers/BSP/Components/vl53l1cb/modules/vl53l1_api_core.c **** 
1207:Drivers/BSP/Components/vl53l1cb/modules/vl53l1_api_core.c **** 
1208:Drivers/BSP/Components/vl53l1cb/modules/vl53l1_api_core.c **** VL53L1_Error VL53L1_set_sequence_config_bit(
1209:Drivers/BSP/Components/vl53l1cb/modules/vl53l1_api_core.c **** 	VL53L1_DEV                    Dev,
1210:Drivers/BSP/Components/vl53l1cb/modules/vl53l1_api_core.c **** 	VL53L1_DeviceSequenceConfig   bit_id,
1211:Drivers/BSP/Components/vl53l1cb/modules/vl53l1_api_core.c **** 	uint8_t                       value)
1212:Drivers/BSP/Components/vl53l1cb/modules/vl53l1_api_core.c **** {
 1316              		.loc 1 1212 1 is_stmt 1 view -0
 1317              		.cfi_startproc
 1318              		@ args = 0, pretend = 0, frame = 0
 1319              		@ frame_needed = 0, uses_anonymous_args = 0
 1320              		@ link register save eliminated.
1213:Drivers/BSP/Components/vl53l1cb/modules/vl53l1_api_core.c **** 
1214:Drivers/BSP/Components/vl53l1cb/modules/vl53l1_api_core.c **** 
1215:Drivers/BSP/Components/vl53l1cb/modules/vl53l1_api_core.c **** 	VL53L1_Error  status = VL53L1_ERROR_NONE;
 1321              		.loc 1 1215 2 view .LVU412
ARM GAS  C:\Temp\cckbpOon.s 			page 47


1216:Drivers/BSP/Components/vl53l1cb/modules/vl53l1_api_core.c **** 	VL53L1_LLDriverData_t *pdev =
 1322              		.loc 1 1216 2 view .LVU413
1217:Drivers/BSP/Components/vl53l1cb/modules/vl53l1_api_core.c **** 		VL53L1DevStructGetLLDriverHandle(Dev);
1218:Drivers/BSP/Components/vl53l1cb/modules/vl53l1_api_core.c **** 
1219:Drivers/BSP/Components/vl53l1cb/modules/vl53l1_api_core.c **** 	uint8_t  bit_mask        = 0x01;
 1323              		.loc 1 1219 2 view .LVU414
1220:Drivers/BSP/Components/vl53l1cb/modules/vl53l1_api_core.c **** 	uint8_t  clr_mask        = 0xFF  - bit_mask;
 1324              		.loc 1 1220 2 view .LVU415
1221:Drivers/BSP/Components/vl53l1cb/modules/vl53l1_api_core.c **** 	uint8_t  bit_value       = value & bit_mask;
 1325              		.loc 1 1221 2 view .LVU416
 1326              		.loc 1 1221 11 is_stmt 0 view .LVU417
 1327 0000 02F00102 		and	r2, r2, #1
 1328              	.LVL132:
1222:Drivers/BSP/Components/vl53l1cb/modules/vl53l1_api_core.c **** 
1223:Drivers/BSP/Components/vl53l1cb/modules/vl53l1_api_core.c **** 	if (bit_id <= VL53L1_DEVICESEQUENCECONFIG_RANGE) {
 1329              		.loc 1 1223 2 is_stmt 1 view .LVU418
 1330              		.loc 1 1223 5 is_stmt 0 view .LVU419
 1331 0004 0729     		cmp	r1, #7
 1332 0006 11D8     		bhi	.L75
1224:Drivers/BSP/Components/vl53l1cb/modules/vl53l1_api_core.c **** 
1225:Drivers/BSP/Components/vl53l1cb/modules/vl53l1_api_core.c **** 		if (bit_id > 0) {
 1333              		.loc 1 1225 3 is_stmt 1 view .LVU420
 1334              		.loc 1 1225 6 is_stmt 0 view .LVU421
 1335 0008 39B1     		cbz	r1, .L76
1226:Drivers/BSP/Components/vl53l1cb/modules/vl53l1_api_core.c **** 			bit_mask  = 0x01 << bit_id;
 1336              		.loc 1 1226 4 is_stmt 1 view .LVU422
 1337              		.loc 1 1226 21 is_stmt 0 view .LVU423
 1338 000a 0123     		movs	r3, #1
 1339 000c 8B40     		lsls	r3, r3, r1
 1340              		.loc 1 1226 14 view .LVU424
 1341 000e DBB2     		uxtb	r3, r3
 1342              	.LVL133:
1227:Drivers/BSP/Components/vl53l1cb/modules/vl53l1_api_core.c **** 			bit_value = bit_value << bit_id;
 1343              		.loc 1 1227 4 is_stmt 1 view .LVU425
 1344              		.loc 1 1227 26 is_stmt 0 view .LVU426
 1345 0010 8A40     		lsls	r2, r2, r1
 1346              	.LVL134:
 1347              		.loc 1 1227 14 view .LVU427
 1348 0012 D2B2     		uxtb	r2, r2
 1349              	.LVL135:
1228:Drivers/BSP/Components/vl53l1cb/modules/vl53l1_api_core.c **** 			clr_mask  = 0xFF  - bit_mask;
 1350              		.loc 1 1228 4 is_stmt 1 view .LVU428
 1351              		.loc 1 1228 14 is_stmt 0 view .LVU429
 1352 0014 DB43     		mvns	r3, r3
 1353              	.LVL136:
 1354              		.loc 1 1228 14 view .LVU430
 1355 0016 DBB2     		uxtb	r3, r3
 1356              	.LVL137:
 1357              		.loc 1 1228 14 view .LVU431
 1358 0018 00E0     		b	.L74
 1359              	.LVL138:
 1360              	.L76:
1220:Drivers/BSP/Components/vl53l1cb/modules/vl53l1_api_core.c **** 	uint8_t  bit_value       = value & bit_mask;
 1361              		.loc 1 1220 11 view .LVU432
 1362 001a FE23     		movs	r3, #254
 1363              	.LVL139:
 1364              	.L74:
ARM GAS  C:\Temp\cckbpOon.s 			page 48


1229:Drivers/BSP/Components/vl53l1cb/modules/vl53l1_api_core.c **** 		}
1230:Drivers/BSP/Components/vl53l1cb/modules/vl53l1_api_core.c **** 
1231:Drivers/BSP/Components/vl53l1cb/modules/vl53l1_api_core.c **** 		pdev->dyn_cfg.system__sequence_config =
 1365              		.loc 1 1231 3 is_stmt 1 view .LVU433
1232:Drivers/BSP/Components/vl53l1cb/modules/vl53l1_api_core.c **** 			(pdev->dyn_cfg.system__sequence_config & clr_mask) |
 1366              		.loc 1 1232 18 is_stmt 0 view .LVU434
 1367 001c 90F8BD13 		ldrb	r1, [r0, #957]	@ zero_extendqisi2
 1368              	.LVL140:
1231:Drivers/BSP/Components/vl53l1cb/modules/vl53l1_api_core.c **** 			(pdev->dyn_cfg.system__sequence_config & clr_mask) |
 1369              		.loc 1 1231 41 view .LVU435
 1370 0020 0B40     		ands	r3, r3, r1
 1371              	.LVL141:
1231:Drivers/BSP/Components/vl53l1cb/modules/vl53l1_api_core.c **** 			(pdev->dyn_cfg.system__sequence_config & clr_mask) |
 1372              		.loc 1 1231 41 view .LVU436
 1373 0022 1A43     		orrs	r2, r2, r3
 1374              	.LVL142:
1231:Drivers/BSP/Components/vl53l1cb/modules/vl53l1_api_core.c **** 			(pdev->dyn_cfg.system__sequence_config & clr_mask) |
 1375              		.loc 1 1231 41 view .LVU437
 1376 0024 80F8BD23 		strb	r2, [r0, #957]
1215:Drivers/BSP/Components/vl53l1cb/modules/vl53l1_api_core.c **** 	VL53L1_LLDriverData_t *pdev =
 1377              		.loc 1 1215 16 view .LVU438
 1378 0028 0020     		movs	r0, #0
 1379              	.LVL143:
1215:Drivers/BSP/Components/vl53l1cb/modules/vl53l1_api_core.c **** 	VL53L1_LLDriverData_t *pdev =
 1380              		.loc 1 1215 16 view .LVU439
 1381 002a 7047     		bx	lr
 1382              	.LVL144:
 1383              	.L75:
1233:Drivers/BSP/Components/vl53l1cb/modules/vl53l1_api_core.c **** 			bit_value;
1234:Drivers/BSP/Components/vl53l1cb/modules/vl53l1_api_core.c **** 
1235:Drivers/BSP/Components/vl53l1cb/modules/vl53l1_api_core.c **** 	} else {
1236:Drivers/BSP/Components/vl53l1cb/modules/vl53l1_api_core.c **** 		status = VL53L1_ERROR_INVALID_PARAMS;
 1384              		.loc 1 1236 10 view .LVU440
 1385 002c 6FF00300 		mvn	r0, #3
 1386              	.LVL145:
1237:Drivers/BSP/Components/vl53l1cb/modules/vl53l1_api_core.c **** 	}
1238:Drivers/BSP/Components/vl53l1cb/modules/vl53l1_api_core.c **** 
1239:Drivers/BSP/Components/vl53l1cb/modules/vl53l1_api_core.c **** 	return status;
 1387              		.loc 1 1239 2 is_stmt 1 view .LVU441
1240:Drivers/BSP/Components/vl53l1cb/modules/vl53l1_api_core.c **** 
1241:Drivers/BSP/Components/vl53l1cb/modules/vl53l1_api_core.c **** }
 1388              		.loc 1 1241 1 is_stmt 0 view .LVU442
 1389 0030 7047     		bx	lr
 1390              		.cfi_endproc
 1391              	.LFE21:
 1393              		.section	.text.VL53L1_get_sequence_config_bit,"ax",%progbits
 1394              		.align	1
 1395              		.global	VL53L1_get_sequence_config_bit
 1396              		.syntax unified
 1397              		.thumb
 1398              		.thumb_func
 1400              	VL53L1_get_sequence_config_bit:
 1401              	.LVL146:
 1402              	.LFB22:
1242:Drivers/BSP/Components/vl53l1cb/modules/vl53l1_api_core.c **** 
1243:Drivers/BSP/Components/vl53l1cb/modules/vl53l1_api_core.c **** 
1244:Drivers/BSP/Components/vl53l1cb/modules/vl53l1_api_core.c **** VL53L1_Error VL53L1_get_sequence_config_bit(
ARM GAS  C:\Temp\cckbpOon.s 			page 49


1245:Drivers/BSP/Components/vl53l1cb/modules/vl53l1_api_core.c **** 	VL53L1_DEV                    Dev,
1246:Drivers/BSP/Components/vl53l1cb/modules/vl53l1_api_core.c **** 	VL53L1_DeviceSequenceConfig   bit_id,
1247:Drivers/BSP/Components/vl53l1cb/modules/vl53l1_api_core.c **** 	uint8_t                      *pvalue)
1248:Drivers/BSP/Components/vl53l1cb/modules/vl53l1_api_core.c **** {
 1403              		.loc 1 1248 1 is_stmt 1 view -0
 1404              		.cfi_startproc
 1405              		@ args = 0, pretend = 0, frame = 0
 1406              		@ frame_needed = 0, uses_anonymous_args = 0
 1407              		@ link register save eliminated.
1249:Drivers/BSP/Components/vl53l1cb/modules/vl53l1_api_core.c **** 
1250:Drivers/BSP/Components/vl53l1cb/modules/vl53l1_api_core.c **** 
1251:Drivers/BSP/Components/vl53l1cb/modules/vl53l1_api_core.c **** 	VL53L1_Error  status = VL53L1_ERROR_NONE;
 1408              		.loc 1 1251 2 view .LVU444
1252:Drivers/BSP/Components/vl53l1cb/modules/vl53l1_api_core.c **** 	VL53L1_LLDriverData_t *pdev =
 1409              		.loc 1 1252 2 view .LVU445
1253:Drivers/BSP/Components/vl53l1cb/modules/vl53l1_api_core.c **** 		VL53L1DevStructGetLLDriverHandle(Dev);
1254:Drivers/BSP/Components/vl53l1cb/modules/vl53l1_api_core.c **** 
1255:Drivers/BSP/Components/vl53l1cb/modules/vl53l1_api_core.c **** 	uint8_t  bit_mask        = 0x01;
 1410              		.loc 1 1255 2 view .LVU446
1256:Drivers/BSP/Components/vl53l1cb/modules/vl53l1_api_core.c **** 
1257:Drivers/BSP/Components/vl53l1cb/modules/vl53l1_api_core.c **** 	if (bit_id <= VL53L1_DEVICESEQUENCECONFIG_RANGE) {
 1411              		.loc 1 1257 2 view .LVU447
 1412              		.loc 1 1257 5 is_stmt 0 view .LVU448
 1413 0000 0729     		cmp	r1, #7
 1414 0002 13D8     		bhi	.L80
1258:Drivers/BSP/Components/vl53l1cb/modules/vl53l1_api_core.c **** 
1259:Drivers/BSP/Components/vl53l1cb/modules/vl53l1_api_core.c **** 		if (bit_id > 0)
 1415              		.loc 1 1259 3 is_stmt 1 view .LVU449
 1416              		.loc 1 1259 6 is_stmt 0 view .LVU450
 1417 0004 31B1     		cbz	r1, .L81
1260:Drivers/BSP/Components/vl53l1cb/modules/vl53l1_api_core.c **** 			bit_mask  = 0x01 << bit_id;
 1418              		.loc 1 1260 4 is_stmt 1 view .LVU451
 1419              		.loc 1 1260 21 is_stmt 0 view .LVU452
 1420 0006 4FF0010C 		mov	ip, #1
 1421 000a 0CFA01FC 		lsl	ip, ip, r1
 1422              		.loc 1 1260 14 view .LVU453
 1423 000e 5FFA8CFC 		uxtb	ip, ip
 1424              	.LVL147:
 1425              		.loc 1 1260 14 view .LVU454
 1426 0012 01E0     		b	.L79
 1427              	.LVL148:
 1428              	.L81:
1255:Drivers/BSP/Components/vl53l1cb/modules/vl53l1_api_core.c **** 
 1429              		.loc 1 1255 11 view .LVU455
 1430 0014 4FF0010C 		mov	ip, #1
 1431              	.LVL149:
 1432              	.L79:
1261:Drivers/BSP/Components/vl53l1cb/modules/vl53l1_api_core.c **** 
1262:Drivers/BSP/Components/vl53l1cb/modules/vl53l1_api_core.c **** 		*pvalue =
 1433              		.loc 1 1262 3 is_stmt 1 view .LVU456
1263:Drivers/BSP/Components/vl53l1cb/modules/vl53l1_api_core.c **** 			pdev->dyn_cfg.system__sequence_config & bit_mask;
 1434              		.loc 1 1263 17 is_stmt 0 view .LVU457
 1435 0018 90F8BD33 		ldrb	r3, [r0, #957]	@ zero_extendqisi2
1262:Drivers/BSP/Components/vl53l1cb/modules/vl53l1_api_core.c **** 			pdev->dyn_cfg.system__sequence_config & bit_mask;
 1436              		.loc 1 1262 11 view .LVU458
 1437 001c 03EA0C03 		and	r3, r3, ip
 1438 0020 1370     		strb	r3, [r2]
ARM GAS  C:\Temp\cckbpOon.s 			page 50


1264:Drivers/BSP/Components/vl53l1cb/modules/vl53l1_api_core.c **** 
1265:Drivers/BSP/Components/vl53l1cb/modules/vl53l1_api_core.c **** 		if (bit_id > 0)
 1439              		.loc 1 1265 3 is_stmt 1 view .LVU459
 1440              		.loc 1 1265 6 is_stmt 0 view .LVU460
 1441 0022 31B1     		cbz	r1, .L82
1266:Drivers/BSP/Components/vl53l1cb/modules/vl53l1_api_core.c **** 			*pvalue  = *pvalue >> bit_id;
 1442              		.loc 1 1266 4 is_stmt 1 view .LVU461
 1443              		.loc 1 1266 23 is_stmt 0 view .LVU462
 1444 0024 0B41     		asrs	r3, r3, r1
 1445              		.loc 1 1266 13 view .LVU463
 1446 0026 1370     		strb	r3, [r2]
1251:Drivers/BSP/Components/vl53l1cb/modules/vl53l1_api_core.c **** 	VL53L1_LLDriverData_t *pdev =
 1447              		.loc 1 1251 16 view .LVU464
 1448 0028 0020     		movs	r0, #0
 1449              	.LVL150:
1251:Drivers/BSP/Components/vl53l1cb/modules/vl53l1_api_core.c **** 	VL53L1_LLDriverData_t *pdev =
 1450              		.loc 1 1251 16 view .LVU465
 1451 002a 7047     		bx	lr
 1452              	.LVL151:
 1453              	.L80:
1267:Drivers/BSP/Components/vl53l1cb/modules/vl53l1_api_core.c **** 
1268:Drivers/BSP/Components/vl53l1cb/modules/vl53l1_api_core.c **** 	} else {
1269:Drivers/BSP/Components/vl53l1cb/modules/vl53l1_api_core.c **** 		status = VL53L1_ERROR_INVALID_PARAMS;
 1454              		.loc 1 1269 10 view .LVU466
 1455 002c 6FF00300 		mvn	r0, #3
 1456              	.LVL152:
 1457              		.loc 1 1269 10 view .LVU467
 1458 0030 7047     		bx	lr
 1459              	.LVL153:
 1460              	.L82:
1251:Drivers/BSP/Components/vl53l1cb/modules/vl53l1_api_core.c **** 	VL53L1_LLDriverData_t *pdev =
 1461              		.loc 1 1251 16 view .LVU468
 1462 0032 0020     		movs	r0, #0
 1463              	.LVL154:
1270:Drivers/BSP/Components/vl53l1cb/modules/vl53l1_api_core.c **** 	}
1271:Drivers/BSP/Components/vl53l1cb/modules/vl53l1_api_core.c **** 
1272:Drivers/BSP/Components/vl53l1cb/modules/vl53l1_api_core.c **** 	return status;
 1464              		.loc 1 1272 2 is_stmt 1 view .LVU469
1273:Drivers/BSP/Components/vl53l1cb/modules/vl53l1_api_core.c **** }
 1465              		.loc 1 1273 1 is_stmt 0 view .LVU470
 1466 0034 7047     		bx	lr
 1467              		.cfi_endproc
 1468              	.LFE22:
 1470              		.section	.text.VL53L1_set_interrupt_polarity,"ax",%progbits
 1471              		.align	1
 1472              		.global	VL53L1_set_interrupt_polarity
 1473              		.syntax unified
 1474              		.thumb
 1475              		.thumb_func
 1477              	VL53L1_set_interrupt_polarity:
 1478              	.LVL155:
 1479              	.LFB23:
1274:Drivers/BSP/Components/vl53l1cb/modules/vl53l1_api_core.c **** 
1275:Drivers/BSP/Components/vl53l1cb/modules/vl53l1_api_core.c **** 
1276:Drivers/BSP/Components/vl53l1cb/modules/vl53l1_api_core.c **** VL53L1_Error VL53L1_set_interrupt_polarity(
1277:Drivers/BSP/Components/vl53l1cb/modules/vl53l1_api_core.c **** 	VL53L1_DEV                      Dev,
1278:Drivers/BSP/Components/vl53l1cb/modules/vl53l1_api_core.c **** 	VL53L1_DeviceInterruptPolarity  interrupt_polarity)
ARM GAS  C:\Temp\cckbpOon.s 			page 51


1279:Drivers/BSP/Components/vl53l1cb/modules/vl53l1_api_core.c **** {
 1480              		.loc 1 1279 1 is_stmt 1 view -0
 1481              		.cfi_startproc
 1482              		@ args = 0, pretend = 0, frame = 0
 1483              		@ frame_needed = 0, uses_anonymous_args = 0
 1484              		@ link register save eliminated.
1280:Drivers/BSP/Components/vl53l1cb/modules/vl53l1_api_core.c **** 
1281:Drivers/BSP/Components/vl53l1cb/modules/vl53l1_api_core.c **** 
1282:Drivers/BSP/Components/vl53l1cb/modules/vl53l1_api_core.c **** 	VL53L1_Error  status = VL53L1_ERROR_NONE;
 1485              		.loc 1 1282 2 view .LVU472
1283:Drivers/BSP/Components/vl53l1cb/modules/vl53l1_api_core.c **** 	VL53L1_LLDriverData_t *pdev =
 1486              		.loc 1 1283 2 view .LVU473
1284:Drivers/BSP/Components/vl53l1cb/modules/vl53l1_api_core.c **** 		VL53L1DevStructGetLLDriverHandle(Dev);
1285:Drivers/BSP/Components/vl53l1cb/modules/vl53l1_api_core.c **** 
1286:Drivers/BSP/Components/vl53l1cb/modules/vl53l1_api_core.c **** 	pdev->stat_cfg.gpio_hv_mux__ctrl =
 1487              		.loc 1 1286 2 view .LVU474
1287:Drivers/BSP/Components/vl53l1cb/modules/vl53l1_api_core.c **** 			(pdev->stat_cfg.gpio_hv_mux__ctrl &
 1488              		.loc 1 1287 19 is_stmt 0 view .LVU475
 1489 0000 90F86A33 		ldrb	r3, [r0, #874]	@ zero_extendqisi2
1286:Drivers/BSP/Components/vl53l1cb/modules/vl53l1_api_core.c **** 			(pdev->stat_cfg.gpio_hv_mux__ctrl &
 1490              		.loc 1 1286 35 view .LVU476
 1491 0004 23F01003 		bic	r3, r3, #16
 1492 0008 01F01001 		and	r1, r1, #16
 1493              	.LVL156:
1286:Drivers/BSP/Components/vl53l1cb/modules/vl53l1_api_core.c **** 			(pdev->stat_cfg.gpio_hv_mux__ctrl &
 1494              		.loc 1 1286 35 view .LVU477
 1495 000c 0B43     		orrs	r3, r3, r1
 1496 000e 80F86A33 		strb	r3, [r0, #874]
1288:Drivers/BSP/Components/vl53l1cb/modules/vl53l1_api_core.c **** 			VL53L1_DEVICEINTERRUPTPOLARITY_CLEAR_MASK) |
1289:Drivers/BSP/Components/vl53l1cb/modules/vl53l1_api_core.c **** 			(interrupt_polarity &
1290:Drivers/BSP/Components/vl53l1cb/modules/vl53l1_api_core.c **** 			VL53L1_DEVICEINTERRUPTPOLARITY_BIT_MASK);
1291:Drivers/BSP/Components/vl53l1cb/modules/vl53l1_api_core.c **** 
1292:Drivers/BSP/Components/vl53l1cb/modules/vl53l1_api_core.c **** 	return status;
 1497              		.loc 1 1292 2 is_stmt 1 view .LVU478
1293:Drivers/BSP/Components/vl53l1cb/modules/vl53l1_api_core.c **** 
1294:Drivers/BSP/Components/vl53l1cb/modules/vl53l1_api_core.c **** }
 1498              		.loc 1 1294 1 is_stmt 0 view .LVU479
 1499 0012 0020     		movs	r0, #0
 1500              	.LVL157:
 1501              		.loc 1 1294 1 view .LVU480
 1502 0014 7047     		bx	lr
 1503              		.cfi_endproc
 1504              	.LFE23:
 1506              		.section	.text.VL53L1_set_refspadchar_config_struct,"ax",%progbits
 1507              		.align	1
 1508              		.global	VL53L1_set_refspadchar_config_struct
 1509              		.syntax unified
 1510              		.thumb
 1511              		.thumb_func
 1513              	VL53L1_set_refspadchar_config_struct:
 1514              	.LVL158:
 1515              	.LFB24:
1295:Drivers/BSP/Components/vl53l1cb/modules/vl53l1_api_core.c **** 
1296:Drivers/BSP/Components/vl53l1cb/modules/vl53l1_api_core.c **** 
1297:Drivers/BSP/Components/vl53l1cb/modules/vl53l1_api_core.c **** VL53L1_Error VL53L1_set_refspadchar_config_struct(
1298:Drivers/BSP/Components/vl53l1cb/modules/vl53l1_api_core.c **** 	VL53L1_DEV                     Dev,
1299:Drivers/BSP/Components/vl53l1cb/modules/vl53l1_api_core.c **** 	VL53L1_refspadchar_config_t   *pdata)
ARM GAS  C:\Temp\cckbpOon.s 			page 52


1300:Drivers/BSP/Components/vl53l1cb/modules/vl53l1_api_core.c **** {
 1516              		.loc 1 1300 1 is_stmt 1 view -0
 1517              		.cfi_startproc
 1518              		@ args = 0, pretend = 0, frame = 0
 1519              		@ frame_needed = 0, uses_anonymous_args = 0
 1520              		@ link register save eliminated.
1301:Drivers/BSP/Components/vl53l1cb/modules/vl53l1_api_core.c **** 
1302:Drivers/BSP/Components/vl53l1cb/modules/vl53l1_api_core.c **** 
1303:Drivers/BSP/Components/vl53l1cb/modules/vl53l1_api_core.c **** 	VL53L1_Error  status = VL53L1_ERROR_NONE;
 1521              		.loc 1 1303 2 view .LVU482
1304:Drivers/BSP/Components/vl53l1cb/modules/vl53l1_api_core.c **** 	VL53L1_LLDriverData_t *pdev =
 1522              		.loc 1 1304 2 view .LVU483
1305:Drivers/BSP/Components/vl53l1cb/modules/vl53l1_api_core.c **** 		VL53L1DevStructGetLLDriverHandle(Dev);
1306:Drivers/BSP/Components/vl53l1cb/modules/vl53l1_api_core.c **** 
1307:Drivers/BSP/Components/vl53l1cb/modules/vl53l1_api_core.c **** 	LOG_FUNCTION_START("");
 1523              		.loc 1 1307 24 view .LVU484
1308:Drivers/BSP/Components/vl53l1cb/modules/vl53l1_api_core.c **** 
1309:Drivers/BSP/Components/vl53l1cb/modules/vl53l1_api_core.c **** 	pdev->refspadchar.device_test_mode = pdata->device_test_mode;
 1524              		.loc 1 1309 2 view .LVU485
 1525              		.loc 1 1309 44 is_stmt 0 view .LVU486
 1526 0000 0B78     		ldrb	r3, [r1]	@ zero_extendqisi2
 1527              		.loc 1 1309 37 view .LVU487
 1528 0002 80F85832 		strb	r3, [r0, #600]
1310:Drivers/BSP/Components/vl53l1cb/modules/vl53l1_api_core.c **** 	pdev->refspadchar.VL53L1_p_009     = pdata->VL53L1_p_009;
 1529              		.loc 1 1310 2 is_stmt 1 view .LVU488
 1530              		.loc 1 1310 44 is_stmt 0 view .LVU489
 1531 0006 4B78     		ldrb	r3, [r1, #1]	@ zero_extendqisi2
 1532              		.loc 1 1310 37 view .LVU490
 1533 0008 80F85932 		strb	r3, [r0, #601]
1311:Drivers/BSP/Components/vl53l1cb/modules/vl53l1_api_core.c **** 	pdev->refspadchar.timeout_us       = pdata->timeout_us;
 1534              		.loc 1 1311 2 is_stmt 1 view .LVU491
 1535              		.loc 1 1311 44 is_stmt 0 view .LVU492
 1536 000c 4B68     		ldr	r3, [r1, #4]
 1537              		.loc 1 1311 37 view .LVU493
 1538 000e C0F85C32 		str	r3, [r0, #604]
1312:Drivers/BSP/Components/vl53l1cb/modules/vl53l1_api_core.c **** 	pdev->refspadchar.target_count_rate_mcps    =
 1539              		.loc 1 1312 2 is_stmt 1 view .LVU494
1313:Drivers/BSP/Components/vl53l1cb/modules/vl53l1_api_core.c **** 			pdata->target_count_rate_mcps;
 1540              		.loc 1 1313 9 is_stmt 0 view .LVU495
 1541 0012 0B89     		ldrh	r3, [r1, #8]
1312:Drivers/BSP/Components/vl53l1cb/modules/vl53l1_api_core.c **** 	pdev->refspadchar.target_count_rate_mcps    =
 1542              		.loc 1 1312 46 view .LVU496
 1543 0014 A0F86032 		strh	r3, [r0, #608]	@ movhi
1314:Drivers/BSP/Components/vl53l1cb/modules/vl53l1_api_core.c **** 	pdev->refspadchar.min_count_rate_limit_mcps =
 1544              		.loc 1 1314 2 is_stmt 1 view .LVU497
1315:Drivers/BSP/Components/vl53l1cb/modules/vl53l1_api_core.c **** 			pdata->min_count_rate_limit_mcps;
 1545              		.loc 1 1315 9 is_stmt 0 view .LVU498
 1546 0018 4B89     		ldrh	r3, [r1, #10]
1314:Drivers/BSP/Components/vl53l1cb/modules/vl53l1_api_core.c **** 	pdev->refspadchar.min_count_rate_limit_mcps =
 1547              		.loc 1 1314 46 view .LVU499
 1548 001a A0F86232 		strh	r3, [r0, #610]	@ movhi
1316:Drivers/BSP/Components/vl53l1cb/modules/vl53l1_api_core.c **** 	pdev->refspadchar.max_count_rate_limit_mcps =
 1549              		.loc 1 1316 2 is_stmt 1 view .LVU500
1317:Drivers/BSP/Components/vl53l1cb/modules/vl53l1_api_core.c **** 			pdata->max_count_rate_limit_mcps;
 1550              		.loc 1 1317 9 is_stmt 0 view .LVU501
 1551 001e 8B89     		ldrh	r3, [r1, #12]
1316:Drivers/BSP/Components/vl53l1cb/modules/vl53l1_api_core.c **** 	pdev->refspadchar.max_count_rate_limit_mcps =
ARM GAS  C:\Temp\cckbpOon.s 			page 53


 1552              		.loc 1 1316 46 view .LVU502
 1553 0020 A0F86432 		strh	r3, [r0, #612]	@ movhi
1318:Drivers/BSP/Components/vl53l1cb/modules/vl53l1_api_core.c **** 
1319:Drivers/BSP/Components/vl53l1cb/modules/vl53l1_api_core.c **** 	LOG_FUNCTION_END(status);
 1554              		.loc 1 1319 26 is_stmt 1 view .LVU503
1320:Drivers/BSP/Components/vl53l1cb/modules/vl53l1_api_core.c **** 
1321:Drivers/BSP/Components/vl53l1cb/modules/vl53l1_api_core.c **** 	return status;
 1555              		.loc 1 1321 2 view .LVU504
1322:Drivers/BSP/Components/vl53l1cb/modules/vl53l1_api_core.c **** }
 1556              		.loc 1 1322 1 is_stmt 0 view .LVU505
 1557 0024 0020     		movs	r0, #0
 1558              	.LVL159:
 1559              		.loc 1 1322 1 view .LVU506
 1560 0026 7047     		bx	lr
 1561              		.cfi_endproc
 1562              	.LFE24:
 1564              		.section	.text.VL53L1_get_refspadchar_config_struct,"ax",%progbits
 1565              		.align	1
 1566              		.global	VL53L1_get_refspadchar_config_struct
 1567              		.syntax unified
 1568              		.thumb
 1569              		.thumb_func
 1571              	VL53L1_get_refspadchar_config_struct:
 1572              	.LVL160:
 1573              	.LFB25:
1323:Drivers/BSP/Components/vl53l1cb/modules/vl53l1_api_core.c **** 
1324:Drivers/BSP/Components/vl53l1cb/modules/vl53l1_api_core.c **** VL53L1_Error VL53L1_get_refspadchar_config_struct(
1325:Drivers/BSP/Components/vl53l1cb/modules/vl53l1_api_core.c **** 	VL53L1_DEV                     Dev,
1326:Drivers/BSP/Components/vl53l1cb/modules/vl53l1_api_core.c **** 	VL53L1_refspadchar_config_t   *pdata)
1327:Drivers/BSP/Components/vl53l1cb/modules/vl53l1_api_core.c **** {
 1574              		.loc 1 1327 1 is_stmt 1 view -0
 1575              		.cfi_startproc
 1576              		@ args = 0, pretend = 0, frame = 0
 1577              		@ frame_needed = 0, uses_anonymous_args = 0
 1578              		@ link register save eliminated.
1328:Drivers/BSP/Components/vl53l1cb/modules/vl53l1_api_core.c **** 
1329:Drivers/BSP/Components/vl53l1cb/modules/vl53l1_api_core.c **** 
1330:Drivers/BSP/Components/vl53l1cb/modules/vl53l1_api_core.c **** 	VL53L1_Error  status = VL53L1_ERROR_NONE;
 1579              		.loc 1 1330 2 view .LVU508
1331:Drivers/BSP/Components/vl53l1cb/modules/vl53l1_api_core.c **** 	VL53L1_LLDriverData_t *pdev =
 1580              		.loc 1 1331 2 view .LVU509
1332:Drivers/BSP/Components/vl53l1cb/modules/vl53l1_api_core.c **** 		VL53L1DevStructGetLLDriverHandle(Dev);
1333:Drivers/BSP/Components/vl53l1cb/modules/vl53l1_api_core.c **** 
1334:Drivers/BSP/Components/vl53l1cb/modules/vl53l1_api_core.c **** 	LOG_FUNCTION_START("");
 1581              		.loc 1 1334 24 view .LVU510
1335:Drivers/BSP/Components/vl53l1cb/modules/vl53l1_api_core.c **** 
1336:Drivers/BSP/Components/vl53l1cb/modules/vl53l1_api_core.c **** 	pdata->device_test_mode       = pdev->refspadchar.device_test_mode;
 1582              		.loc 1 1336 2 view .LVU511
 1583              		.loc 1 1336 51 is_stmt 0 view .LVU512
 1584 0000 90F85832 		ldrb	r3, [r0, #600]	@ zero_extendqisi2
 1585              		.loc 1 1336 32 view .LVU513
 1586 0004 0B70     		strb	r3, [r1]
1337:Drivers/BSP/Components/vl53l1cb/modules/vl53l1_api_core.c **** 	pdata->VL53L1_p_009           = pdev->refspadchar.VL53L1_p_009;
 1587              		.loc 1 1337 2 is_stmt 1 view .LVU514
 1588              		.loc 1 1337 51 is_stmt 0 view .LVU515
 1589 0006 90F85932 		ldrb	r3, [r0, #601]	@ zero_extendqisi2
 1590              		.loc 1 1337 32 view .LVU516
ARM GAS  C:\Temp\cckbpOon.s 			page 54


 1591 000a 4B70     		strb	r3, [r1, #1]
1338:Drivers/BSP/Components/vl53l1cb/modules/vl53l1_api_core.c **** 	pdata->timeout_us             = pdev->refspadchar.timeout_us;
 1592              		.loc 1 1338 2 is_stmt 1 view .LVU517
 1593              		.loc 1 1338 51 is_stmt 0 view .LVU518
 1594 000c D0F85C32 		ldr	r3, [r0, #604]
 1595              		.loc 1 1338 32 view .LVU519
 1596 0010 4B60     		str	r3, [r1, #4]
1339:Drivers/BSP/Components/vl53l1cb/modules/vl53l1_api_core.c **** 	pdata->target_count_rate_mcps =
 1597              		.loc 1 1339 2 is_stmt 1 view .LVU520
1340:Drivers/BSP/Components/vl53l1cb/modules/vl53l1_api_core.c **** 			pdev->refspadchar.target_count_rate_mcps;
 1598              		.loc 1 1340 21 is_stmt 0 view .LVU521
 1599 0012 B0F86032 		ldrh	r3, [r0, #608]
1339:Drivers/BSP/Components/vl53l1cb/modules/vl53l1_api_core.c **** 	pdata->target_count_rate_mcps =
 1600              		.loc 1 1339 32 view .LVU522
 1601 0016 0B81     		strh	r3, [r1, #8]	@ movhi
1341:Drivers/BSP/Components/vl53l1cb/modules/vl53l1_api_core.c **** 	pdata->min_count_rate_limit_mcps =
 1602              		.loc 1 1341 2 is_stmt 1 view .LVU523
1342:Drivers/BSP/Components/vl53l1cb/modules/vl53l1_api_core.c **** 			pdev->refspadchar.min_count_rate_limit_mcps;
 1603              		.loc 1 1342 21 is_stmt 0 view .LVU524
 1604 0018 B0F86232 		ldrh	r3, [r0, #610]
1341:Drivers/BSP/Components/vl53l1cb/modules/vl53l1_api_core.c **** 	pdata->min_count_rate_limit_mcps =
 1605              		.loc 1 1341 35 view .LVU525
 1606 001c 4B81     		strh	r3, [r1, #10]	@ movhi
1343:Drivers/BSP/Components/vl53l1cb/modules/vl53l1_api_core.c **** 	pdata->max_count_rate_limit_mcps =
 1607              		.loc 1 1343 2 is_stmt 1 view .LVU526
1344:Drivers/BSP/Components/vl53l1cb/modules/vl53l1_api_core.c **** 			pdev->refspadchar.max_count_rate_limit_mcps;
 1608              		.loc 1 1344 21 is_stmt 0 view .LVU527
 1609 001e B0F86432 		ldrh	r3, [r0, #612]
1343:Drivers/BSP/Components/vl53l1cb/modules/vl53l1_api_core.c **** 	pdata->max_count_rate_limit_mcps =
 1610              		.loc 1 1343 35 view .LVU528
 1611 0022 8B81     		strh	r3, [r1, #12]	@ movhi
1345:Drivers/BSP/Components/vl53l1cb/modules/vl53l1_api_core.c **** 
1346:Drivers/BSP/Components/vl53l1cb/modules/vl53l1_api_core.c **** 	LOG_FUNCTION_END(status);
 1612              		.loc 1 1346 26 is_stmt 1 view .LVU529
1347:Drivers/BSP/Components/vl53l1cb/modules/vl53l1_api_core.c **** 
1348:Drivers/BSP/Components/vl53l1cb/modules/vl53l1_api_core.c **** 	return status;
 1613              		.loc 1 1348 2 view .LVU530
1349:Drivers/BSP/Components/vl53l1cb/modules/vl53l1_api_core.c **** }
 1614              		.loc 1 1349 1 is_stmt 0 view .LVU531
 1615 0024 0020     		movs	r0, #0
 1616              	.LVL161:
 1617              		.loc 1 1349 1 view .LVU532
 1618 0026 7047     		bx	lr
 1619              		.cfi_endproc
 1620              	.LFE25:
 1622              		.section	.text.VL53L1_set_range_ignore_threshold,"ax",%progbits
 1623              		.align	1
 1624              		.global	VL53L1_set_range_ignore_threshold
 1625              		.syntax unified
 1626              		.thumb
 1627              		.thumb_func
 1629              	VL53L1_set_range_ignore_threshold:
 1630              	.LVL162:
 1631              	.LFB26:
1350:Drivers/BSP/Components/vl53l1cb/modules/vl53l1_api_core.c **** 
1351:Drivers/BSP/Components/vl53l1cb/modules/vl53l1_api_core.c **** 
1352:Drivers/BSP/Components/vl53l1cb/modules/vl53l1_api_core.c **** 
ARM GAS  C:\Temp\cckbpOon.s 			page 55


1353:Drivers/BSP/Components/vl53l1cb/modules/vl53l1_api_core.c **** VL53L1_Error VL53L1_set_range_ignore_threshold(
1354:Drivers/BSP/Components/vl53l1cb/modules/vl53l1_api_core.c **** 	VL53L1_DEV              Dev,
1355:Drivers/BSP/Components/vl53l1cb/modules/vl53l1_api_core.c **** 	uint8_t                 range_ignore_thresh_mult,
1356:Drivers/BSP/Components/vl53l1cb/modules/vl53l1_api_core.c **** 	uint16_t                range_ignore_threshold_mcps)
1357:Drivers/BSP/Components/vl53l1cb/modules/vl53l1_api_core.c **** {
 1632              		.loc 1 1357 1 is_stmt 1 view -0
 1633              		.cfi_startproc
 1634              		@ args = 0, pretend = 0, frame = 0
 1635              		@ frame_needed = 0, uses_anonymous_args = 0
 1636              		@ link register save eliminated.
1358:Drivers/BSP/Components/vl53l1cb/modules/vl53l1_api_core.c **** 
1359:Drivers/BSP/Components/vl53l1cb/modules/vl53l1_api_core.c **** 
1360:Drivers/BSP/Components/vl53l1cb/modules/vl53l1_api_core.c **** 	VL53L1_Error  status = VL53L1_ERROR_NONE;
 1637              		.loc 1 1360 2 view .LVU534
1361:Drivers/BSP/Components/vl53l1cb/modules/vl53l1_api_core.c **** 	VL53L1_LLDriverData_t *pdev =
 1638              		.loc 1 1361 2 view .LVU535
1362:Drivers/BSP/Components/vl53l1cb/modules/vl53l1_api_core.c **** 		VL53L1DevStructGetLLDriverHandle(Dev);
1363:Drivers/BSP/Components/vl53l1cb/modules/vl53l1_api_core.c **** 
1364:Drivers/BSP/Components/vl53l1cb/modules/vl53l1_api_core.c **** 	pdev->xtalk_cfg.crosstalk_range_ignore_threshold_rate_mcps =
 1639              		.loc 1 1364 2 view .LVU536
 1640              		.loc 1 1364 61 is_stmt 0 view .LVU537
 1641 0000 A0F80423 		strh	r2, [r0, #772]	@ movhi
1365:Drivers/BSP/Components/vl53l1cb/modules/vl53l1_api_core.c **** 		range_ignore_threshold_mcps;
1366:Drivers/BSP/Components/vl53l1cb/modules/vl53l1_api_core.c **** 
1367:Drivers/BSP/Components/vl53l1cb/modules/vl53l1_api_core.c **** 	pdev->xtalk_cfg.crosstalk_range_ignore_threshold_mult =
 1642              		.loc 1 1367 2 is_stmt 1 view .LVU538
 1643              		.loc 1 1367 56 is_stmt 0 view .LVU539
 1644 0004 80F80213 		strb	r1, [r0, #770]
1368:Drivers/BSP/Components/vl53l1cb/modules/vl53l1_api_core.c **** 		range_ignore_thresh_mult;
1369:Drivers/BSP/Components/vl53l1cb/modules/vl53l1_api_core.c **** 
1370:Drivers/BSP/Components/vl53l1cb/modules/vl53l1_api_core.c **** 	return status;
 1645              		.loc 1 1370 2 is_stmt 1 view .LVU540
1371:Drivers/BSP/Components/vl53l1cb/modules/vl53l1_api_core.c **** 
1372:Drivers/BSP/Components/vl53l1cb/modules/vl53l1_api_core.c **** }
 1646              		.loc 1 1372 1 is_stmt 0 view .LVU541
 1647 0008 0020     		movs	r0, #0
 1648              	.LVL163:
 1649              		.loc 1 1372 1 view .LVU542
 1650 000a 7047     		bx	lr
 1651              		.cfi_endproc
 1652              	.LFE26:
 1654              		.section	.text.VL53L1_get_range_ignore_threshold,"ax",%progbits
 1655              		.align	1
 1656              		.global	VL53L1_get_range_ignore_threshold
 1657              		.syntax unified
 1658              		.thumb
 1659              		.thumb_func
 1661              	VL53L1_get_range_ignore_threshold:
 1662              	.LVL164:
 1663              	.LFB27:
1373:Drivers/BSP/Components/vl53l1cb/modules/vl53l1_api_core.c **** 
1374:Drivers/BSP/Components/vl53l1cb/modules/vl53l1_api_core.c **** VL53L1_Error VL53L1_get_range_ignore_threshold(
1375:Drivers/BSP/Components/vl53l1cb/modules/vl53l1_api_core.c **** 	VL53L1_DEV              Dev,
1376:Drivers/BSP/Components/vl53l1cb/modules/vl53l1_api_core.c **** 	uint8_t                *prange_ignore_thresh_mult,
1377:Drivers/BSP/Components/vl53l1cb/modules/vl53l1_api_core.c **** 	uint16_t               *prange_ignore_threshold_mcps_internal,
1378:Drivers/BSP/Components/vl53l1cb/modules/vl53l1_api_core.c **** 	uint16_t               *prange_ignore_threshold_mcps_current)
1379:Drivers/BSP/Components/vl53l1cb/modules/vl53l1_api_core.c **** {
ARM GAS  C:\Temp\cckbpOon.s 			page 56


 1664              		.loc 1 1379 1 is_stmt 1 view -0
 1665              		.cfi_startproc
 1666              		@ args = 0, pretend = 0, frame = 0
 1667              		@ frame_needed = 0, uses_anonymous_args = 0
 1668              		@ link register save eliminated.
1380:Drivers/BSP/Components/vl53l1cb/modules/vl53l1_api_core.c **** 
1381:Drivers/BSP/Components/vl53l1cb/modules/vl53l1_api_core.c **** 
1382:Drivers/BSP/Components/vl53l1cb/modules/vl53l1_api_core.c **** 	VL53L1_Error  status = VL53L1_ERROR_NONE;
 1669              		.loc 1 1382 2 view .LVU544
1383:Drivers/BSP/Components/vl53l1cb/modules/vl53l1_api_core.c **** 	VL53L1_LLDriverData_t *pdev =
 1670              		.loc 1 1383 2 view .LVU545
1384:Drivers/BSP/Components/vl53l1cb/modules/vl53l1_api_core.c **** 		VL53L1DevStructGetLLDriverHandle(Dev);
1385:Drivers/BSP/Components/vl53l1cb/modules/vl53l1_api_core.c **** 
1386:Drivers/BSP/Components/vl53l1cb/modules/vl53l1_api_core.c **** 	*prange_ignore_thresh_mult =
 1671              		.loc 1 1386 2 view .LVU546
1387:Drivers/BSP/Components/vl53l1cb/modules/vl53l1_api_core.c **** 		pdev->xtalk_cfg.crosstalk_range_ignore_threshold_mult;
 1672              		.loc 1 1387 18 is_stmt 0 view .LVU547
 1673 0000 90F802C3 		ldrb	ip, [r0, #770]	@ zero_extendqisi2
1386:Drivers/BSP/Components/vl53l1cb/modules/vl53l1_api_core.c **** 		pdev->xtalk_cfg.crosstalk_range_ignore_threshold_mult;
 1674              		.loc 1 1386 29 view .LVU548
 1675 0004 81F800C0 		strb	ip, [r1]
1388:Drivers/BSP/Components/vl53l1cb/modules/vl53l1_api_core.c **** 
1389:Drivers/BSP/Components/vl53l1cb/modules/vl53l1_api_core.c **** 	*prange_ignore_threshold_mcps_current =
 1676              		.loc 1 1389 2 is_stmt 1 view .LVU549
1390:Drivers/BSP/Components/vl53l1cb/modules/vl53l1_api_core.c **** 		pdev->stat_cfg.algo__range_ignore_threshold_mcps;
 1677              		.loc 1 1390 17 is_stmt 0 view .LVU550
 1678 0008 B0F87613 		ldrh	r1, [r0, #886]
 1679              	.LVL165:
1389:Drivers/BSP/Components/vl53l1cb/modules/vl53l1_api_core.c **** 		pdev->stat_cfg.algo__range_ignore_threshold_mcps;
 1680              		.loc 1 1389 40 view .LVU551
 1681 000c 1980     		strh	r1, [r3]	@ movhi
1391:Drivers/BSP/Components/vl53l1cb/modules/vl53l1_api_core.c **** 
1392:Drivers/BSP/Components/vl53l1cb/modules/vl53l1_api_core.c **** 	*prange_ignore_threshold_mcps_internal =
 1682              		.loc 1 1392 2 is_stmt 1 view .LVU552
1393:Drivers/BSP/Components/vl53l1cb/modules/vl53l1_api_core.c **** 		pdev->xtalk_cfg.crosstalk_range_ignore_threshold_rate_mcps;
 1683              		.loc 1 1393 18 is_stmt 0 view .LVU553
 1684 000e B0F80433 		ldrh	r3, [r0, #772]
 1685              	.LVL166:
1392:Drivers/BSP/Components/vl53l1cb/modules/vl53l1_api_core.c **** 		pdev->xtalk_cfg.crosstalk_range_ignore_threshold_rate_mcps;
 1686              		.loc 1 1392 41 view .LVU554
 1687 0012 1380     		strh	r3, [r2]	@ movhi
1394:Drivers/BSP/Components/vl53l1cb/modules/vl53l1_api_core.c **** 
1395:Drivers/BSP/Components/vl53l1cb/modules/vl53l1_api_core.c **** 	return status;
 1688              		.loc 1 1395 2 is_stmt 1 view .LVU555
1396:Drivers/BSP/Components/vl53l1cb/modules/vl53l1_api_core.c **** 
1397:Drivers/BSP/Components/vl53l1cb/modules/vl53l1_api_core.c **** }
 1689              		.loc 1 1397 1 is_stmt 0 view .LVU556
 1690 0014 0020     		movs	r0, #0
 1691              	.LVL167:
 1692              		.loc 1 1397 1 view .LVU557
 1693 0016 7047     		bx	lr
 1694              		.cfi_endproc
 1695              	.LFE27:
 1697              		.section	.text.VL53L1_get_interrupt_polarity,"ax",%progbits
 1698              		.align	1
 1699              		.global	VL53L1_get_interrupt_polarity
 1700              		.syntax unified
ARM GAS  C:\Temp\cckbpOon.s 			page 57


 1701              		.thumb
 1702              		.thumb_func
 1704              	VL53L1_get_interrupt_polarity:
 1705              	.LVL168:
 1706              	.LFB28:
1398:Drivers/BSP/Components/vl53l1cb/modules/vl53l1_api_core.c **** 
1399:Drivers/BSP/Components/vl53l1cb/modules/vl53l1_api_core.c **** 
1400:Drivers/BSP/Components/vl53l1cb/modules/vl53l1_api_core.c **** 
1401:Drivers/BSP/Components/vl53l1cb/modules/vl53l1_api_core.c **** VL53L1_Error VL53L1_get_interrupt_polarity(
1402:Drivers/BSP/Components/vl53l1cb/modules/vl53l1_api_core.c **** 	VL53L1_DEV                       Dev,
1403:Drivers/BSP/Components/vl53l1cb/modules/vl53l1_api_core.c **** 	VL53L1_DeviceInterruptPolarity  *pinterrupt_polarity)
1404:Drivers/BSP/Components/vl53l1cb/modules/vl53l1_api_core.c **** {
 1707              		.loc 1 1404 1 is_stmt 1 view -0
 1708              		.cfi_startproc
 1709              		@ args = 0, pretend = 0, frame = 0
 1710              		@ frame_needed = 0, uses_anonymous_args = 0
 1711              		@ link register save eliminated.
1405:Drivers/BSP/Components/vl53l1cb/modules/vl53l1_api_core.c **** 
1406:Drivers/BSP/Components/vl53l1cb/modules/vl53l1_api_core.c **** 
1407:Drivers/BSP/Components/vl53l1cb/modules/vl53l1_api_core.c **** 	VL53L1_Error  status = VL53L1_ERROR_NONE;
 1712              		.loc 1 1407 2 view .LVU559
1408:Drivers/BSP/Components/vl53l1cb/modules/vl53l1_api_core.c **** 	VL53L1_LLDriverData_t *pdev =
 1713              		.loc 1 1408 2 view .LVU560
1409:Drivers/BSP/Components/vl53l1cb/modules/vl53l1_api_core.c **** 		VL53L1DevStructGetLLDriverHandle(Dev);
1410:Drivers/BSP/Components/vl53l1cb/modules/vl53l1_api_core.c **** 
1411:Drivers/BSP/Components/vl53l1cb/modules/vl53l1_api_core.c **** 	*pinterrupt_polarity =
 1714              		.loc 1 1411 2 view .LVU561
1412:Drivers/BSP/Components/vl53l1cb/modules/vl53l1_api_core.c **** 		pdev->stat_cfg.gpio_hv_mux__ctrl &
 1715              		.loc 1 1412 17 is_stmt 0 view .LVU562
 1716 0000 90F86A33 		ldrb	r3, [r0, #874]	@ zero_extendqisi2
 1717              		.loc 1 1412 36 view .LVU563
 1718 0004 03F01003 		and	r3, r3, #16
1411:Drivers/BSP/Components/vl53l1cb/modules/vl53l1_api_core.c **** 		pdev->stat_cfg.gpio_hv_mux__ctrl &
 1719              		.loc 1 1411 23 view .LVU564
 1720 0008 0B70     		strb	r3, [r1]
1413:Drivers/BSP/Components/vl53l1cb/modules/vl53l1_api_core.c **** 		VL53L1_DEVICEINTERRUPTPOLARITY_BIT_MASK;
1414:Drivers/BSP/Components/vl53l1cb/modules/vl53l1_api_core.c **** 
1415:Drivers/BSP/Components/vl53l1cb/modules/vl53l1_api_core.c **** 	return status;
 1721              		.loc 1 1415 2 is_stmt 1 view .LVU565
1416:Drivers/BSP/Components/vl53l1cb/modules/vl53l1_api_core.c **** 
1417:Drivers/BSP/Components/vl53l1cb/modules/vl53l1_api_core.c **** }
 1722              		.loc 1 1417 1 is_stmt 0 view .LVU566
 1723 000a 0020     		movs	r0, #0
 1724              	.LVL169:
 1725              		.loc 1 1417 1 view .LVU567
 1726 000c 7047     		bx	lr
 1727              		.cfi_endproc
 1728              	.LFE28:
 1730              		.section	.text.VL53L1_set_user_zone,"ax",%progbits
 1731              		.align	1
 1732              		.global	VL53L1_set_user_zone
 1733              		.syntax unified
 1734              		.thumb
 1735              		.thumb_func
 1737              	VL53L1_set_user_zone:
 1738              	.LVL170:
 1739              	.LFB29:
ARM GAS  C:\Temp\cckbpOon.s 			page 58


1418:Drivers/BSP/Components/vl53l1cb/modules/vl53l1_api_core.c **** 
1419:Drivers/BSP/Components/vl53l1cb/modules/vl53l1_api_core.c **** 
1420:Drivers/BSP/Components/vl53l1cb/modules/vl53l1_api_core.c **** VL53L1_Error VL53L1_set_user_zone(
1421:Drivers/BSP/Components/vl53l1cb/modules/vl53l1_api_core.c **** 	VL53L1_DEV              Dev,
1422:Drivers/BSP/Components/vl53l1cb/modules/vl53l1_api_core.c **** 	VL53L1_user_zone_t     *puser_zone)
1423:Drivers/BSP/Components/vl53l1cb/modules/vl53l1_api_core.c **** {
 1740              		.loc 1 1423 1 is_stmt 1 view -0
 1741              		.cfi_startproc
 1742              		@ args = 0, pretend = 0, frame = 0
 1743              		@ frame_needed = 0, uses_anonymous_args = 0
 1744              		.loc 1 1423 1 is_stmt 0 view .LVU569
 1745 0000 38B5     		push	{r3, r4, r5, lr}
 1746              		.cfi_def_cfa_offset 16
 1747              		.cfi_offset 3, -16
 1748              		.cfi_offset 4, -12
 1749              		.cfi_offset 5, -8
 1750              		.cfi_offset 14, -4
 1751 0002 0546     		mov	r5, r0
 1752 0004 0C46     		mov	r4, r1
1424:Drivers/BSP/Components/vl53l1cb/modules/vl53l1_api_core.c **** 
1425:Drivers/BSP/Components/vl53l1cb/modules/vl53l1_api_core.c **** 
1426:Drivers/BSP/Components/vl53l1cb/modules/vl53l1_api_core.c **** 	VL53L1_Error  status = VL53L1_ERROR_NONE;
 1753              		.loc 1 1426 2 is_stmt 1 view .LVU570
 1754              	.LVL171:
1427:Drivers/BSP/Components/vl53l1cb/modules/vl53l1_api_core.c **** 	VL53L1_LLDriverData_t *pdev = VL53L1DevStructGetLLDriverHandle(Dev);
 1755              		.loc 1 1427 2 view .LVU571
1428:Drivers/BSP/Components/vl53l1cb/modules/vl53l1_api_core.c **** 
1429:Drivers/BSP/Components/vl53l1cb/modules/vl53l1_api_core.c **** 	LOG_FUNCTION_START("");
 1756              		.loc 1 1429 24 view .LVU572
1430:Drivers/BSP/Components/vl53l1cb/modules/vl53l1_api_core.c **** 
1431:Drivers/BSP/Components/vl53l1cb/modules/vl53l1_api_core.c **** 
1432:Drivers/BSP/Components/vl53l1cb/modules/vl53l1_api_core.c **** 	VL53L1_encode_row_col(
 1757              		.loc 1 1432 2 view .LVU573
 1758 0006 00F2BB32 		addw	r2, r0, #955
 1759 000a 0978     		ldrb	r1, [r1]	@ zero_extendqisi2
 1760              	.LVL172:
 1761              		.loc 1 1432 2 is_stmt 0 view .LVU574
 1762 000c 6078     		ldrb	r0, [r4, #1]	@ zero_extendqisi2
 1763              	.LVL173:
 1764              		.loc 1 1432 2 view .LVU575
 1765 000e FFF7FEFF 		bl	VL53L1_encode_row_col
 1766              	.LVL174:
1433:Drivers/BSP/Components/vl53l1cb/modules/vl53l1_api_core.c **** 		puser_zone->y_centre,
1434:Drivers/BSP/Components/vl53l1cb/modules/vl53l1_api_core.c **** 		puser_zone->x_centre,
1435:Drivers/BSP/Components/vl53l1cb/modules/vl53l1_api_core.c **** 		&(pdev->dyn_cfg.roi_config__user_roi_centre_spad));
1436:Drivers/BSP/Components/vl53l1cb/modules/vl53l1_api_core.c **** 
1437:Drivers/BSP/Components/vl53l1cb/modules/vl53l1_api_core.c **** 
1438:Drivers/BSP/Components/vl53l1cb/modules/vl53l1_api_core.c **** 	VL53L1_encode_zone_size(
 1767              		.loc 1 1438 2 is_stmt 1 view .LVU576
 1768 0012 05F56F72 		add	r2, r5, #956
 1769 0016 E178     		ldrb	r1, [r4, #3]	@ zero_extendqisi2
 1770 0018 A078     		ldrb	r0, [r4, #2]	@ zero_extendqisi2
 1771 001a FFF7FEFF 		bl	VL53L1_encode_zone_size
 1772              	.LVL175:
1439:Drivers/BSP/Components/vl53l1cb/modules/vl53l1_api_core.c **** 		puser_zone->width,
1440:Drivers/BSP/Components/vl53l1cb/modules/vl53l1_api_core.c **** 		puser_zone->height,
1441:Drivers/BSP/Components/vl53l1cb/modules/vl53l1_api_core.c **** 		&(pdev->dyn_cfg.roi_config__user_roi_requested_global_xy_size));
ARM GAS  C:\Temp\cckbpOon.s 			page 59


1442:Drivers/BSP/Components/vl53l1cb/modules/vl53l1_api_core.c **** 
1443:Drivers/BSP/Components/vl53l1cb/modules/vl53l1_api_core.c **** 
1444:Drivers/BSP/Components/vl53l1cb/modules/vl53l1_api_core.c **** 
1445:Drivers/BSP/Components/vl53l1cb/modules/vl53l1_api_core.c **** 	LOG_FUNCTION_END(status);
 1773              		.loc 1 1445 26 view .LVU577
1446:Drivers/BSP/Components/vl53l1cb/modules/vl53l1_api_core.c **** 
1447:Drivers/BSP/Components/vl53l1cb/modules/vl53l1_api_core.c **** 	return status;
 1774              		.loc 1 1447 2 view .LVU578
1448:Drivers/BSP/Components/vl53l1cb/modules/vl53l1_api_core.c **** }
 1775              		.loc 1 1448 1 is_stmt 0 view .LVU579
 1776 001e 0020     		movs	r0, #0
 1777 0020 38BD     		pop	{r3, r4, r5, pc}
 1778              		.loc 1 1448 1 view .LVU580
 1779              		.cfi_endproc
 1780              	.LFE29:
 1782              		.section	.text.VL53L1_get_user_zone,"ax",%progbits
 1783              		.align	1
 1784              		.global	VL53L1_get_user_zone
 1785              		.syntax unified
 1786              		.thumb
 1787              		.thumb_func
 1789              	VL53L1_get_user_zone:
 1790              	.LVL176:
 1791              	.LFB30:
1449:Drivers/BSP/Components/vl53l1cb/modules/vl53l1_api_core.c **** 
1450:Drivers/BSP/Components/vl53l1cb/modules/vl53l1_api_core.c **** 
1451:Drivers/BSP/Components/vl53l1cb/modules/vl53l1_api_core.c **** VL53L1_Error VL53L1_get_user_zone(
1452:Drivers/BSP/Components/vl53l1cb/modules/vl53l1_api_core.c **** 	VL53L1_DEV              Dev,
1453:Drivers/BSP/Components/vl53l1cb/modules/vl53l1_api_core.c **** 	VL53L1_user_zone_t     *puser_zone)
1454:Drivers/BSP/Components/vl53l1cb/modules/vl53l1_api_core.c **** {
 1792              		.loc 1 1454 1 is_stmt 1 view -0
 1793              		.cfi_startproc
 1794              		@ args = 0, pretend = 0, frame = 0
 1795              		@ frame_needed = 0, uses_anonymous_args = 0
 1796              		.loc 1 1454 1 is_stmt 0 view .LVU582
 1797 0000 38B5     		push	{r3, r4, r5, lr}
 1798              		.cfi_def_cfa_offset 16
 1799              		.cfi_offset 3, -16
 1800              		.cfi_offset 4, -12
 1801              		.cfi_offset 5, -8
 1802              		.cfi_offset 14, -4
 1803 0002 0546     		mov	r5, r0
 1804 0004 0C46     		mov	r4, r1
1455:Drivers/BSP/Components/vl53l1cb/modules/vl53l1_api_core.c **** 
1456:Drivers/BSP/Components/vl53l1cb/modules/vl53l1_api_core.c **** 
1457:Drivers/BSP/Components/vl53l1cb/modules/vl53l1_api_core.c **** 	VL53L1_Error  status = VL53L1_ERROR_NONE;
 1805              		.loc 1 1457 2 is_stmt 1 view .LVU583
 1806              	.LVL177:
1458:Drivers/BSP/Components/vl53l1cb/modules/vl53l1_api_core.c **** 	VL53L1_LLDriverData_t *pdev = VL53L1DevStructGetLLDriverHandle(Dev);
 1807              		.loc 1 1458 2 view .LVU584
1459:Drivers/BSP/Components/vl53l1cb/modules/vl53l1_api_core.c **** 
1460:Drivers/BSP/Components/vl53l1cb/modules/vl53l1_api_core.c **** 	LOG_FUNCTION_START("");
 1808              		.loc 1 1460 24 view .LVU585
1461:Drivers/BSP/Components/vl53l1cb/modules/vl53l1_api_core.c **** 
1462:Drivers/BSP/Components/vl53l1cb/modules/vl53l1_api_core.c **** 
1463:Drivers/BSP/Components/vl53l1cb/modules/vl53l1_api_core.c **** 	VL53L1_decode_row_col(
 1809              		.loc 1 1463 2 view .LVU586
ARM GAS  C:\Temp\cckbpOon.s 			page 60


 1810 0006 0A46     		mov	r2, r1
 1811 0008 0131     		adds	r1, r1, #1
 1812              	.LVL178:
 1813              		.loc 1 1463 2 is_stmt 0 view .LVU587
 1814 000a 90F8BB03 		ldrb	r0, [r0, #955]	@ zero_extendqisi2
 1815              	.LVL179:
 1816              		.loc 1 1463 2 view .LVU588
 1817 000e FFF7FEFF 		bl	VL53L1_decode_row_col
 1818              	.LVL180:
1464:Drivers/BSP/Components/vl53l1cb/modules/vl53l1_api_core.c **** 			pdev->dyn_cfg.roi_config__user_roi_centre_spad,
1465:Drivers/BSP/Components/vl53l1cb/modules/vl53l1_api_core.c **** 			&(puser_zone->y_centre),
1466:Drivers/BSP/Components/vl53l1cb/modules/vl53l1_api_core.c **** 			&(puser_zone->x_centre));
1467:Drivers/BSP/Components/vl53l1cb/modules/vl53l1_api_core.c **** 
1468:Drivers/BSP/Components/vl53l1cb/modules/vl53l1_api_core.c **** 
1469:Drivers/BSP/Components/vl53l1cb/modules/vl53l1_api_core.c **** 	VL53L1_decode_zone_size(
 1819              		.loc 1 1469 2 is_stmt 1 view .LVU589
 1820 0012 E21C     		adds	r2, r4, #3
 1821 0014 A11C     		adds	r1, r4, #2
 1822 0016 95F8BC03 		ldrb	r0, [r5, #956]	@ zero_extendqisi2
 1823 001a FFF7FEFF 		bl	VL53L1_decode_zone_size
 1824              	.LVL181:
1470:Drivers/BSP/Components/vl53l1cb/modules/vl53l1_api_core.c **** 		pdev->dyn_cfg.roi_config__user_roi_requested_global_xy_size,
1471:Drivers/BSP/Components/vl53l1cb/modules/vl53l1_api_core.c **** 		&(puser_zone->width),
1472:Drivers/BSP/Components/vl53l1cb/modules/vl53l1_api_core.c **** 		&(puser_zone->height));
1473:Drivers/BSP/Components/vl53l1cb/modules/vl53l1_api_core.c **** 
1474:Drivers/BSP/Components/vl53l1cb/modules/vl53l1_api_core.c **** 	LOG_FUNCTION_END(status);
 1825              		.loc 1 1474 26 view .LVU590
1475:Drivers/BSP/Components/vl53l1cb/modules/vl53l1_api_core.c **** 
1476:Drivers/BSP/Components/vl53l1cb/modules/vl53l1_api_core.c **** 	return status;
 1826              		.loc 1 1476 2 view .LVU591
1477:Drivers/BSP/Components/vl53l1cb/modules/vl53l1_api_core.c **** }
 1827              		.loc 1 1477 1 is_stmt 0 view .LVU592
 1828 001e 0020     		movs	r0, #0
 1829 0020 38BD     		pop	{r3, r4, r5, pc}
 1830              		.loc 1 1477 1 view .LVU593
 1831              		.cfi_endproc
 1832              	.LFE30:
 1834              		.section	.text.VL53L1_get_mode_mitigation_roi,"ax",%progbits
 1835              		.align	1
 1836              		.global	VL53L1_get_mode_mitigation_roi
 1837              		.syntax unified
 1838              		.thumb
 1839              		.thumb_func
 1841              	VL53L1_get_mode_mitigation_roi:
 1842              	.LVL182:
 1843              	.LFB31:
1478:Drivers/BSP/Components/vl53l1cb/modules/vl53l1_api_core.c **** 
1479:Drivers/BSP/Components/vl53l1cb/modules/vl53l1_api_core.c **** 
1480:Drivers/BSP/Components/vl53l1cb/modules/vl53l1_api_core.c **** 
1481:Drivers/BSP/Components/vl53l1cb/modules/vl53l1_api_core.c **** VL53L1_Error VL53L1_get_mode_mitigation_roi(
1482:Drivers/BSP/Components/vl53l1cb/modules/vl53l1_api_core.c **** 	VL53L1_DEV              Dev,
1483:Drivers/BSP/Components/vl53l1cb/modules/vl53l1_api_core.c **** 	VL53L1_user_zone_t     *pmm_roi)
1484:Drivers/BSP/Components/vl53l1cb/modules/vl53l1_api_core.c **** {
 1844              		.loc 1 1484 1 is_stmt 1 view -0
 1845              		.cfi_startproc
 1846              		@ args = 0, pretend = 0, frame = 8
 1847              		@ frame_needed = 0, uses_anonymous_args = 0
ARM GAS  C:\Temp\cckbpOon.s 			page 61


 1848              		.loc 1 1484 1 is_stmt 0 view .LVU595
 1849 0000 70B5     		push	{r4, r5, r6, lr}
 1850              		.cfi_def_cfa_offset 16
 1851              		.cfi_offset 4, -16
 1852              		.cfi_offset 5, -12
 1853              		.cfi_offset 6, -8
 1854              		.cfi_offset 14, -4
 1855 0002 82B0     		sub	sp, sp, #8
 1856              		.cfi_def_cfa_offset 24
 1857 0004 0546     		mov	r5, r0
 1858 0006 0C46     		mov	r4, r1
1485:Drivers/BSP/Components/vl53l1cb/modules/vl53l1_api_core.c **** 
1486:Drivers/BSP/Components/vl53l1cb/modules/vl53l1_api_core.c **** 
1487:Drivers/BSP/Components/vl53l1cb/modules/vl53l1_api_core.c **** 	VL53L1_Error  status = VL53L1_ERROR_NONE;
 1859              		.loc 1 1487 2 is_stmt 1 view .LVU596
 1860              	.LVL183:
1488:Drivers/BSP/Components/vl53l1cb/modules/vl53l1_api_core.c **** 	VL53L1_LLDriverData_t *pdev = VL53L1DevStructGetLLDriverHandle(Dev);
 1861              		.loc 1 1488 2 view .LVU597
1489:Drivers/BSP/Components/vl53l1cb/modules/vl53l1_api_core.c **** 
1490:Drivers/BSP/Components/vl53l1cb/modules/vl53l1_api_core.c **** 	uint8_t  x       = 0;
 1862              		.loc 1 1490 2 view .LVU598
 1863              		.loc 1 1490 11 is_stmt 0 view .LVU599
 1864 0008 0026     		movs	r6, #0
 1865 000a 8DF80760 		strb	r6, [sp, #7]
1491:Drivers/BSP/Components/vl53l1cb/modules/vl53l1_api_core.c **** 	uint8_t  y       = 0;
 1866              		.loc 1 1491 2 is_stmt 1 view .LVU600
 1867              		.loc 1 1491 11 is_stmt 0 view .LVU601
 1868 000e 8DF80660 		strb	r6, [sp, #6]
1492:Drivers/BSP/Components/vl53l1cb/modules/vl53l1_api_core.c **** 	uint8_t  xy_size = 0;
 1869              		.loc 1 1492 2 is_stmt 1 view .LVU602
 1870              	.LVL184:
1493:Drivers/BSP/Components/vl53l1cb/modules/vl53l1_api_core.c **** 
1494:Drivers/BSP/Components/vl53l1cb/modules/vl53l1_api_core.c **** 	LOG_FUNCTION_START("");
 1871              		.loc 1 1494 24 view .LVU603
1495:Drivers/BSP/Components/vl53l1cb/modules/vl53l1_api_core.c **** 
1496:Drivers/BSP/Components/vl53l1cb/modules/vl53l1_api_core.c **** 
1497:Drivers/BSP/Components/vl53l1cb/modules/vl53l1_api_core.c **** 	VL53L1_decode_row_col(
 1872              		.loc 1 1497 2 view .LVU604
 1873 0012 0DF10702 		add	r2, sp, #7
 1874 0016 0DF10601 		add	r1, sp, #6
 1875              	.LVL185:
 1876              		.loc 1 1497 2 is_stmt 0 view .LVU605
 1877 001a 90F82204 		ldrb	r0, [r0, #1058]	@ zero_extendqisi2
 1878              	.LVL186:
 1879              		.loc 1 1497 2 view .LVU606
 1880 001e FFF7FEFF 		bl	VL53L1_decode_row_col
 1881              	.LVL187:
1498:Drivers/BSP/Components/vl53l1cb/modules/vl53l1_api_core.c **** 			pdev->nvm_copy_data.roi_config__mode_roi_centre_spad,
1499:Drivers/BSP/Components/vl53l1cb/modules/vl53l1_api_core.c **** 			&y,
1500:Drivers/BSP/Components/vl53l1cb/modules/vl53l1_api_core.c **** 			&x);
1501:Drivers/BSP/Components/vl53l1cb/modules/vl53l1_api_core.c **** 
1502:Drivers/BSP/Components/vl53l1cb/modules/vl53l1_api_core.c **** 	pmm_roi->x_centre = x;
 1882              		.loc 1 1502 2 is_stmt 1 view .LVU607
 1883              		.loc 1 1502 20 is_stmt 0 view .LVU608
 1884 0022 9DF80730 		ldrb	r3, [sp, #7]	@ zero_extendqisi2
 1885 0026 2370     		strb	r3, [r4]
1503:Drivers/BSP/Components/vl53l1cb/modules/vl53l1_api_core.c **** 	pmm_roi->y_centre = y;
ARM GAS  C:\Temp\cckbpOon.s 			page 62


 1886              		.loc 1 1503 2 is_stmt 1 view .LVU609
 1887              		.loc 1 1503 20 is_stmt 0 view .LVU610
 1888 0028 9DF80630 		ldrb	r3, [sp, #6]	@ zero_extendqisi2
 1889 002c 6370     		strb	r3, [r4, #1]
1504:Drivers/BSP/Components/vl53l1cb/modules/vl53l1_api_core.c **** 
1505:Drivers/BSP/Components/vl53l1cb/modules/vl53l1_api_core.c **** 
1506:Drivers/BSP/Components/vl53l1cb/modules/vl53l1_api_core.c **** 	xy_size = pdev->nvm_copy_data.roi_config__mode_roi_xy_size;
 1890              		.loc 1 1506 2 is_stmt 1 view .LVU611
 1891              		.loc 1 1506 10 is_stmt 0 view .LVU612
 1892 002e 95F82334 		ldrb	r3, [r5, #1059]	@ zero_extendqisi2
 1893              	.LVL188:
1507:Drivers/BSP/Components/vl53l1cb/modules/vl53l1_api_core.c **** 
1508:Drivers/BSP/Components/vl53l1cb/modules/vl53l1_api_core.c **** 	pmm_roi->height = xy_size >> 4;
 1894              		.loc 1 1508 2 is_stmt 1 view .LVU613
 1895              		.loc 1 1508 18 is_stmt 0 view .LVU614
 1896 0032 1A09     		lsrs	r2, r3, #4
 1897 0034 E270     		strb	r2, [r4, #3]
1509:Drivers/BSP/Components/vl53l1cb/modules/vl53l1_api_core.c **** 	pmm_roi->width  = xy_size & 0x0F;
 1898              		.loc 1 1509 2 is_stmt 1 view .LVU615
 1899              		.loc 1 1509 28 is_stmt 0 view .LVU616
 1900 0036 03F00F03 		and	r3, r3, #15
 1901              	.LVL189:
 1902              		.loc 1 1509 18 view .LVU617
 1903 003a A370     		strb	r3, [r4, #2]
1510:Drivers/BSP/Components/vl53l1cb/modules/vl53l1_api_core.c **** 
1511:Drivers/BSP/Components/vl53l1cb/modules/vl53l1_api_core.c **** 	LOG_FUNCTION_END(status);
 1904              		.loc 1 1511 26 is_stmt 1 view .LVU618
1512:Drivers/BSP/Components/vl53l1cb/modules/vl53l1_api_core.c **** 
1513:Drivers/BSP/Components/vl53l1cb/modules/vl53l1_api_core.c **** 	return status;
 1905              		.loc 1 1513 2 view .LVU619
1514:Drivers/BSP/Components/vl53l1cb/modules/vl53l1_api_core.c **** }
 1906              		.loc 1 1514 1 is_stmt 0 view .LVU620
 1907 003c 3046     		mov	r0, r6
 1908 003e 02B0     		add	sp, sp, #8
 1909              		.cfi_def_cfa_offset 16
 1910              		@ sp needed
 1911 0040 70BD     		pop	{r4, r5, r6, pc}
 1912              		.loc 1 1514 1 view .LVU621
 1913              		.cfi_endproc
 1914              	.LFE31:
 1916              		.section	.text.VL53L1_read_p2p_data,"ax",%progbits
 1917              		.align	1
 1918              		.global	VL53L1_read_p2p_data
 1919              		.syntax unified
 1920              		.thumb
 1921              		.thumb_func
 1923              	VL53L1_read_p2p_data:
 1924              	.LVL190:
 1925              	.LFB11:
 590:Drivers/BSP/Components/vl53l1cb/modules/vl53l1_api_core.c **** 
 1926              		.loc 1 590 1 is_stmt 1 view -0
 1927              		.cfi_startproc
 1928              		@ args = 0, pretend = 0, frame = 16
 1929              		@ frame_needed = 0, uses_anonymous_args = 0
 590:Drivers/BSP/Components/vl53l1cb/modules/vl53l1_api_core.c **** 
 1930              		.loc 1 590 1 is_stmt 0 view .LVU623
 1931 0000 F0B5     		push	{r4, r5, r6, r7, lr}
ARM GAS  C:\Temp\cckbpOon.s 			page 63


 1932              		.cfi_def_cfa_offset 20
 1933              		.cfi_offset 4, -20
 1934              		.cfi_offset 5, -16
 1935              		.cfi_offset 6, -12
 1936              		.cfi_offset 7, -8
 1937              		.cfi_offset 14, -4
 1938 0002 89B0     		sub	sp, sp, #36
 1939              		.cfi_def_cfa_offset 56
 1940 0004 0446     		mov	r4, r0
 594:Drivers/BSP/Components/vl53l1cb/modules/vl53l1_api_core.c **** 	VL53L1_LLDriverData_t *pdev = VL53L1DevStructGetLLDriverHandle(Dev);
 1941              		.loc 1 594 2 is_stmt 1 view .LVU624
 1942              	.LVL191:
 595:Drivers/BSP/Components/vl53l1cb/modules/vl53l1_api_core.c **** 	VL53L1_hist_post_process_config_t *pHP = &(pdev->histpostprocess);
 1943              		.loc 1 595 2 view .LVU625
 596:Drivers/BSP/Components/vl53l1cb/modules/vl53l1_api_core.c **** 	VL53L1_customer_nvm_managed_t *pN = &(pdev->customer);
 1944              		.loc 1 596 2 view .LVU626
 597:Drivers/BSP/Components/vl53l1cb/modules/vl53l1_api_core.c **** 	VL53L1_additional_offset_cal_data_t *pCD = &(pdev->add_off_cal_data);
 1945              		.loc 1 597 2 view .LVU627
 598:Drivers/BSP/Components/vl53l1cb/modules/vl53l1_api_core.c **** 
 1946              		.loc 1 598 2 view .LVU628
 598:Drivers/BSP/Components/vl53l1cb/modules/vl53l1_api_core.c **** 
 1947              		.loc 1 598 39 is_stmt 0 view .LVU629
 1948 0006 00F1B406 		add	r6, r0, #180
 1949              	.LVL192:
 600:Drivers/BSP/Components/vl53l1cb/modules/vl53l1_api_core.c **** 
 1950              		.loc 1 600 2 is_stmt 1 view .LVU630
 602:Drivers/BSP/Components/vl53l1cb/modules/vl53l1_api_core.c **** 
 1951              		.loc 1 602 24 view .LVU631
 604:Drivers/BSP/Components/vl53l1cb/modules/vl53l1_api_core.c **** 		status = VL53L1_get_static_nvm_managed(
 1952              		.loc 1 604 2 view .LVU632
 605:Drivers/BSP/Components/vl53l1cb/modules/vl53l1_api_core.c **** 						Dev,
 1953              		.loc 1 605 3 view .LVU633
 605:Drivers/BSP/Components/vl53l1cb/modules/vl53l1_api_core.c **** 						Dev,
 1954              		.loc 1 605 12 is_stmt 0 view .LVU634
 1955 000a 00F54E71 		add	r1, r0, #824
 1956 000e FFF7FEFF 		bl	VL53L1_get_static_nvm_managed
 1957              	.LVL193:
 609:Drivers/BSP/Components/vl53l1cb/modules/vl53l1_api_core.c **** 		status = VL53L1_get_customer_nvm_managed(
 1958              		.loc 1 609 2 is_stmt 1 view .LVU635
 609:Drivers/BSP/Components/vl53l1cb/modules/vl53l1_api_core.c **** 		status = VL53L1_get_customer_nvm_managed(
 1959              		.loc 1 609 5 is_stmt 0 view .LVU636
 1960 0012 0546     		mov	r5, r0
 1961 0014 E0B1     		cbz	r0, .L105
 1962              	.LVL194:
 1963              	.L96:
 629:Drivers/BSP/Components/vl53l1cb/modules/vl53l1_api_core.c **** 		pHP->algo__crosstalk_compensation_plane_offset_kcps =
 1964              		.loc 1 629 2 is_stmt 1 view .LVU637
 629:Drivers/BSP/Components/vl53l1cb/modules/vl53l1_api_core.c **** 		pHP->algo__crosstalk_compensation_plane_offset_kcps =
 1965              		.loc 1 629 5 is_stmt 0 view .LVU638
 1966 0016 95B3     		cbz	r5, .L106
 1967              	.LVL195:
 1968              	.L97:
 726:Drivers/BSP/Components/vl53l1cb/modules/vl53l1_api_core.c **** 		trace_print(
 1969              		.loc 1 726 2 is_stmt 1 view .LVU639
 726:Drivers/BSP/Components/vl53l1cb/modules/vl53l1_api_core.c **** 		trace_print(
 1970              		.loc 1 726 20 is_stmt 0 view .LVU640
 1971 0018 B4F83E33 		ldrh	r3, [r4, #830]
ARM GAS  C:\Temp\cckbpOon.s 			page 64


 726:Drivers/BSP/Components/vl53l1cb/modules/vl53l1_api_core.c **** 		trace_print(
 1972              		.loc 1 726 5 view .LVU641
 1973 001c B3F5805F 		cmp	r3, #4096
 1974 0020 03D2     		bcs	.L101
 732:Drivers/BSP/Components/vl53l1cb/modules/vl53l1_api_core.c **** 		pdev->stat_nvm.osc_measured__fast_osc__frequency = 0xBCCC;
 1975              		.loc 1 732 11 is_stmt 1 view .LVU642
 733:Drivers/BSP/Components/vl53l1cb/modules/vl53l1_api_core.c **** 	}
 1976              		.loc 1 733 3 view .LVU643
 733:Drivers/BSP/Components/vl53l1cb/modules/vl53l1_api_core.c **** 	}
 1977              		.loc 1 733 52 is_stmt 0 view .LVU644
 1978 0022 4BF6CC43 		movw	r3, #48332
 1979 0026 A4F83E33 		strh	r3, [r4, #830]	@ movhi
 1980              	.L101:
 738:Drivers/BSP/Components/vl53l1cb/modules/vl53l1_api_core.c **** 		status =
 1981              		.loc 1 738 2 is_stmt 1 view .LVU645
 738:Drivers/BSP/Components/vl53l1cb/modules/vl53l1_api_core.c **** 		status =
 1982              		.loc 1 738 5 is_stmt 0 view .LVU646
 1983 002a 002D     		cmp	r5, #0
 1984 002c 00F09680 		beq	.L107
 1985              	.LVL196:
 1986              	.L102:
 746:Drivers/BSP/Components/vl53l1cb/modules/vl53l1_api_core.c **** 		pdev->optical_centre.y_centre == 0) {
 1987              		.loc 1 746 2 is_stmt 1 view .LVU647
 746:Drivers/BSP/Components/vl53l1cb/modules/vl53l1_api_core.c **** 		pdev->optical_centre.y_centre == 0) {
 1988              		.loc 1 746 41 is_stmt 0 view .LVU648
 1989 0030 B4F8D830 		ldrh	r3, [r4, #216]	@ unaligned
 746:Drivers/BSP/Components/vl53l1cb/modules/vl53l1_api_core.c **** 		pdev->optical_centre.y_centre == 0) {
 1990              		.loc 1 746 5 view .LVU649
 1991 0034 4BB9     		cbnz	r3, .L103
 748:Drivers/BSP/Components/vl53l1cb/modules/vl53l1_api_core.c **** 				pdev->mm_roi.x_centre << 4;
 1992              		.loc 1 748 3 is_stmt 1 view .LVU650
 749:Drivers/BSP/Components/vl53l1cb/modules/vl53l1_api_core.c **** 		pdev->optical_centre.y_centre =
 1993              		.loc 1 749 17 is_stmt 0 view .LVU651
 1994 0036 94F8D430 		ldrb	r3, [r4, #212]	@ zero_extendqisi2
 749:Drivers/BSP/Components/vl53l1cb/modules/vl53l1_api_core.c **** 		pdev->optical_centre.y_centre =
 1995              		.loc 1 749 27 view .LVU652
 1996 003a 1B01     		lsls	r3, r3, #4
 748:Drivers/BSP/Components/vl53l1cb/modules/vl53l1_api_core.c **** 				pdev->mm_roi.x_centre << 4;
 1997              		.loc 1 748 33 view .LVU653
 1998 003c 84F8D830 		strb	r3, [r4, #216]
 750:Drivers/BSP/Components/vl53l1cb/modules/vl53l1_api_core.c **** 				pdev->mm_roi.y_centre << 4;
 1999              		.loc 1 750 3 is_stmt 1 view .LVU654
 751:Drivers/BSP/Components/vl53l1cb/modules/vl53l1_api_core.c **** 	}
 2000              		.loc 1 751 17 is_stmt 0 view .LVU655
 2001 0040 94F8D530 		ldrb	r3, [r4, #213]	@ zero_extendqisi2
 751:Drivers/BSP/Components/vl53l1cb/modules/vl53l1_api_core.c **** 	}
 2002              		.loc 1 751 27 view .LVU656
 2003 0044 1B01     		lsls	r3, r3, #4
 750:Drivers/BSP/Components/vl53l1cb/modules/vl53l1_api_core.c **** 				pdev->mm_roi.y_centre << 4;
 2004              		.loc 1 750 33 view .LVU657
 2005 0046 84F8D930 		strb	r3, [r4, #217]
 2006              	.L103:
 754:Drivers/BSP/Components/vl53l1cb/modules/vl53l1_api_core.c **** 
 2007              		.loc 1 754 26 is_stmt 1 view .LVU658
 756:Drivers/BSP/Components/vl53l1cb/modules/vl53l1_api_core.c **** }
 2008              		.loc 1 756 2 view .LVU659
 757:Drivers/BSP/Components/vl53l1cb/modules/vl53l1_api_core.c **** 
ARM GAS  C:\Temp\cckbpOon.s 			page 65


 2009              		.loc 1 757 1 is_stmt 0 view .LVU660
 2010 004a 2846     		mov	r0, r5
 2011 004c 09B0     		add	sp, sp, #36
 2012              		.cfi_remember_state
 2013              		.cfi_def_cfa_offset 20
 2014              		@ sp needed
 2015 004e F0BD     		pop	{r4, r5, r6, r7, pc}
 2016              	.LVL197:
 2017              	.L105:
 2018              		.cfi_restore_state
 610:Drivers/BSP/Components/vl53l1cb/modules/vl53l1_api_core.c **** 						Dev,
 2019              		.loc 1 610 3 is_stmt 1 view .LVU661
 610:Drivers/BSP/Components/vl53l1cb/modules/vl53l1_api_core.c **** 						Dev,
 2020              		.loc 1 610 12 is_stmt 0 view .LVU662
 2021 0050 04F16001 		add	r1, r4, #96
 2022 0054 2046     		mov	r0, r4
 2023              	.LVL198:
 610:Drivers/BSP/Components/vl53l1cb/modules/vl53l1_api_core.c **** 						Dev,
 2024              		.loc 1 610 12 view .LVU663
 2025 0056 FFF7FEFF 		bl	VL53L1_get_customer_nvm_managed
 2026              	.LVL199:
 614:Drivers/BSP/Components/vl53l1cb/modules/vl53l1_api_core.c **** 
 2027              		.loc 1 614 2 is_stmt 1 view .LVU664
 614:Drivers/BSP/Components/vl53l1cb/modules/vl53l1_api_core.c **** 
 2028              		.loc 1 614 5 is_stmt 0 view .LVU665
 2029 005a 0546     		mov	r5, r0
 2030 005c 0028     		cmp	r0, #0
 2031 005e DBD1     		bne	.L97
 616:Drivers/BSP/Components/vl53l1cb/modules/vl53l1_api_core.c **** 						Dev,
 2032              		.loc 1 616 3 is_stmt 1 view .LVU666
 616:Drivers/BSP/Components/vl53l1cb/modules/vl53l1_api_core.c **** 						Dev,
 2033              		.loc 1 616 12 is_stmt 0 view .LVU667
 2034 0060 04F2F237 		addw	r7, r4, #1010
 2035 0064 3946     		mov	r1, r7
 2036 0066 2046     		mov	r0, r4
 2037              	.LVL200:
 616:Drivers/BSP/Components/vl53l1cb/modules/vl53l1_api_core.c **** 						Dev,
 2038              		.loc 1 616 12 view .LVU668
 2039 0068 FFF7FEFF 		bl	VL53L1_get_nvm_copy_data
 2040              	.LVL201:
 621:Drivers/BSP/Components/vl53l1cb/modules/vl53l1_api_core.c **** 			VL53L1_copy_rtn_good_spads_to_buffer(
 2041              		.loc 1 621 3 is_stmt 1 view .LVU669
 621:Drivers/BSP/Components/vl53l1cb/modules/vl53l1_api_core.c **** 			VL53L1_copy_rtn_good_spads_to_buffer(
 2042              		.loc 1 621 6 is_stmt 0 view .LVU670
 2043 006c 0546     		mov	r5, r0
 2044 006e 0028     		cmp	r0, #0
 2045 0070 D2D1     		bne	.L97
 622:Drivers/BSP/Components/vl53l1cb/modules/vl53l1_api_core.c **** 					&(pdev->nvm_copy_data),
 2046              		.loc 1 622 4 is_stmt 1 view .LVU671
 2047 0072 04F50E71 		add	r1, r4, #568
 2048 0076 3846     		mov	r0, r7
 2049              	.LVL202:
 622:Drivers/BSP/Components/vl53l1cb/modules/vl53l1_api_core.c **** 					&(pdev->nvm_copy_data),
 2050              		.loc 1 622 4 is_stmt 0 view .LVU672
 2051 0078 FFF7FEFF 		bl	VL53L1_copy_rtn_good_spads_to_buffer
 2052              	.LVL203:
 2053 007c CBE7     		b	.L96
ARM GAS  C:\Temp\cckbpOon.s 			page 66


 2054              	.LVL204:
 2055              	.L106:
 630:Drivers/BSP/Components/vl53l1cb/modules/vl53l1_api_core.c **** 		pN->algo__crosstalk_compensation_plane_offset_kcps;
 2056              		.loc 1 630 3 is_stmt 1 view .LVU673
 631:Drivers/BSP/Components/vl53l1cb/modules/vl53l1_api_core.c **** 		pHP->algo__crosstalk_compensation_x_plane_gradient_kcps =
 2057              		.loc 1 631 5 is_stmt 0 view .LVU674
 2058 007e B4F86A30 		ldrh	r3, [r4, #106]
 630:Drivers/BSP/Components/vl53l1cb/modules/vl53l1_api_core.c **** 		pN->algo__crosstalk_compensation_plane_offset_kcps;
 2059              		.loc 1 630 55 view .LVU675
 2060 0082 C4F8A032 		str	r3, [r4, #672]
 632:Drivers/BSP/Components/vl53l1cb/modules/vl53l1_api_core.c **** 		pN->algo__crosstalk_compensation_x_plane_gradient_kcps;
 2061              		.loc 1 632 3 is_stmt 1 view .LVU676
 633:Drivers/BSP/Components/vl53l1cb/modules/vl53l1_api_core.c **** 		pHP->algo__crosstalk_compensation_y_plane_gradient_kcps =
 2062              		.loc 1 633 5 is_stmt 0 view .LVU677
 2063 0086 B4F96C30 		ldrsh	r3, [r4, #108]
 632:Drivers/BSP/Components/vl53l1cb/modules/vl53l1_api_core.c **** 		pN->algo__crosstalk_compensation_x_plane_gradient_kcps;
 2064              		.loc 1 632 59 view .LVU678
 2065 008a A4F8A432 		strh	r3, [r4, #676]	@ movhi
 634:Drivers/BSP/Components/vl53l1cb/modules/vl53l1_api_core.c **** 		pN->algo__crosstalk_compensation_y_plane_gradient_kcps;
 2066              		.loc 1 634 3 is_stmt 1 view .LVU679
 635:Drivers/BSP/Components/vl53l1cb/modules/vl53l1_api_core.c **** 	}
 2067              		.loc 1 635 5 is_stmt 0 view .LVU680
 2068 008e B4F96E30 		ldrsh	r3, [r4, #110]
 634:Drivers/BSP/Components/vl53l1cb/modules/vl53l1_api_core.c **** 		pN->algo__crosstalk_compensation_y_plane_gradient_kcps;
 2069              		.loc 1 634 59 view .LVU681
 2070 0092 A4F8A632 		strh	r3, [r4, #678]	@ movhi
 639:Drivers/BSP/Components/vl53l1cb/modules/vl53l1_api_core.c **** 		status =
 2071              		.loc 1 639 2 is_stmt 1 view .LVU682
 640:Drivers/BSP/Components/vl53l1cb/modules/vl53l1_api_core.c **** 			VL53L1_read_nvm_optical_centre(
 2072              		.loc 1 640 3 view .LVU683
 641:Drivers/BSP/Components/vl53l1cb/modules/vl53l1_api_core.c **** 				Dev,
 2073              		.loc 1 641 4 is_stmt 0 view .LVU684
 2074 0096 04F1D801 		add	r1, r4, #216
 2075 009a 2046     		mov	r0, r4
 2076 009c FFF7FEFF 		bl	VL53L1_read_nvm_optical_centre
 2077              	.LVL205:
 647:Drivers/BSP/Components/vl53l1cb/modules/vl53l1_api_core.c **** 		status =
 2078              		.loc 1 647 2 is_stmt 1 view .LVU685
