ARM GAS  C:\Temp\cc1zxvPB.s 			page 1


   1              		.cpu cortex-m4
   2              		.arch armv7e-m
   3              		.fpu fpv4-sp-d16
   4              		.eabi_attribute 27, 1
   5              		.eabi_attribute 28, 1
   6              		.eabi_attribute 20, 1
   7              		.eabi_attribute 21, 1
   8              		.eabi_attribute 23, 3
   9              		.eabi_attribute 24, 1
  10              		.eabi_attribute 25, 1
  11              		.eabi_attribute 26, 1
  12              		.eabi_attribute 30, 1
  13              		.eabi_attribute 34, 1
  14              		.eabi_attribute 18, 4
  15              		.file	"vl53l8cx_api.c"
  16              		.text
  17              	.Ltext0:
  18              		.cfi_sections	.debug_frame
  19              		.file 1 "Drivers/BSP/Components/vl53l8cx/modules/vl53l8cx_api.c"
  20              		.section	.text._vl53l8cx_poll_for_mcu_boot,"ax",%progbits
  21              		.align	1
  22              		.syntax unified
  23              		.thumb
  24              		.thumb_func
  26              	_vl53l8cx_poll_for_mcu_boot:
  27              	.LVL0:
  28              	.LFB1:
   1:Drivers/BSP/Components/vl53l8cx/modules/vl53l8cx_api.c **** /**
   2:Drivers/BSP/Components/vl53l8cx/modules/vl53l8cx_api.c ****   *
   3:Drivers/BSP/Components/vl53l8cx/modules/vl53l8cx_api.c ****   * Copyright (c) 2021 STMicroelectronics.
   4:Drivers/BSP/Components/vl53l8cx/modules/vl53l8cx_api.c ****   * All rights reserved.
   5:Drivers/BSP/Components/vl53l8cx/modules/vl53l8cx_api.c ****   *
   6:Drivers/BSP/Components/vl53l8cx/modules/vl53l8cx_api.c ****   * This software is licensed under terms that can be found in the LICENSE file
   7:Drivers/BSP/Components/vl53l8cx/modules/vl53l8cx_api.c ****   * in the root directory of this software component.
   8:Drivers/BSP/Components/vl53l8cx/modules/vl53l8cx_api.c ****   * If no LICENSE file comes with this software, it is provided AS-IS.
   9:Drivers/BSP/Components/vl53l8cx/modules/vl53l8cx_api.c ****   *
  10:Drivers/BSP/Components/vl53l8cx/modules/vl53l8cx_api.c ****   ******************************************************************************
  11:Drivers/BSP/Components/vl53l8cx/modules/vl53l8cx_api.c ****   */
  12:Drivers/BSP/Components/vl53l8cx/modules/vl53l8cx_api.c **** 
  13:Drivers/BSP/Components/vl53l8cx/modules/vl53l8cx_api.c **** #include <stdlib.h>
  14:Drivers/BSP/Components/vl53l8cx/modules/vl53l8cx_api.c **** #include <string.h>
  15:Drivers/BSP/Components/vl53l8cx/modules/vl53l8cx_api.c **** #include "vl53l8cx_api.h"
  16:Drivers/BSP/Components/vl53l8cx/modules/vl53l8cx_api.c **** #include "vl53l8cx_buffers.h"
  17:Drivers/BSP/Components/vl53l8cx/modules/vl53l8cx_api.c **** 
  18:Drivers/BSP/Components/vl53l8cx/modules/vl53l8cx_api.c **** /**
  19:Drivers/BSP/Components/vl53l8cx/modules/vl53l8cx_api.c ****  * @brief Inner function, not available outside this file. This function is used
  20:Drivers/BSP/Components/vl53l8cx/modules/vl53l8cx_api.c ****  * to wait for an answer from VL53L8CX sensor.
  21:Drivers/BSP/Components/vl53l8cx/modules/vl53l8cx_api.c ****  */
  22:Drivers/BSP/Components/vl53l8cx/modules/vl53l8cx_api.c **** 
  23:Drivers/BSP/Components/vl53l8cx/modules/vl53l8cx_api.c **** static uint8_t _vl53l8cx_poll_for_answer(
  24:Drivers/BSP/Components/vl53l8cx/modules/vl53l8cx_api.c **** 		VL53L8CX_Configuration	*p_dev,
  25:Drivers/BSP/Components/vl53l8cx/modules/vl53l8cx_api.c **** 		uint8_t					size,
  26:Drivers/BSP/Components/vl53l8cx/modules/vl53l8cx_api.c **** 		uint8_t					pos,
  27:Drivers/BSP/Components/vl53l8cx/modules/vl53l8cx_api.c **** 		uint16_t				address,
  28:Drivers/BSP/Components/vl53l8cx/modules/vl53l8cx_api.c **** 		uint8_t					mask,
  29:Drivers/BSP/Components/vl53l8cx/modules/vl53l8cx_api.c **** 		uint8_t					expected_value)
  30:Drivers/BSP/Components/vl53l8cx/modules/vl53l8cx_api.c **** {
ARM GAS  C:\Temp\cc1zxvPB.s 			page 2


  31:Drivers/BSP/Components/vl53l8cx/modules/vl53l8cx_api.c **** 	uint8_t status = VL53L8CX_STATUS_OK;
  32:Drivers/BSP/Components/vl53l8cx/modules/vl53l8cx_api.c **** 	uint8_t timeout = 0;
  33:Drivers/BSP/Components/vl53l8cx/modules/vl53l8cx_api.c **** 
  34:Drivers/BSP/Components/vl53l8cx/modules/vl53l8cx_api.c **** 	do {
  35:Drivers/BSP/Components/vl53l8cx/modules/vl53l8cx_api.c **** 		status |= VL53L8CX_RdMulti(&(p_dev->platform), address,
  36:Drivers/BSP/Components/vl53l8cx/modules/vl53l8cx_api.c **** 				p_dev->temp_buffer, size);
  37:Drivers/BSP/Components/vl53l8cx/modules/vl53l8cx_api.c **** 		status |= VL53L8CX_WaitMs(&(p_dev->platform), 10);
  38:Drivers/BSP/Components/vl53l8cx/modules/vl53l8cx_api.c **** 
  39:Drivers/BSP/Components/vl53l8cx/modules/vl53l8cx_api.c **** 		if(timeout >= (uint8_t)200)	/* 2s timeout */
  40:Drivers/BSP/Components/vl53l8cx/modules/vl53l8cx_api.c **** 		{
  41:Drivers/BSP/Components/vl53l8cx/modules/vl53l8cx_api.c **** 			status |= (uint8_t)VL53L8CX_STATUS_TIMEOUT_ERROR;
  42:Drivers/BSP/Components/vl53l8cx/modules/vl53l8cx_api.c **** 			break;
  43:Drivers/BSP/Components/vl53l8cx/modules/vl53l8cx_api.c **** 		}else if((size >= (uint8_t)4) 
  44:Drivers/BSP/Components/vl53l8cx/modules/vl53l8cx_api.c ****                          && (p_dev->temp_buffer[2] >= (uint8_t)0x7f))
  45:Drivers/BSP/Components/vl53l8cx/modules/vl53l8cx_api.c **** 		{
  46:Drivers/BSP/Components/vl53l8cx/modules/vl53l8cx_api.c **** 			status |= VL53L8CX_MCU_ERROR;
  47:Drivers/BSP/Components/vl53l8cx/modules/vl53l8cx_api.c **** 			break;
  48:Drivers/BSP/Components/vl53l8cx/modules/vl53l8cx_api.c **** 		}
  49:Drivers/BSP/Components/vl53l8cx/modules/vl53l8cx_api.c **** 		else
  50:Drivers/BSP/Components/vl53l8cx/modules/vl53l8cx_api.c **** 		{
  51:Drivers/BSP/Components/vl53l8cx/modules/vl53l8cx_api.c **** 			timeout++;
  52:Drivers/BSP/Components/vl53l8cx/modules/vl53l8cx_api.c **** 		}
  53:Drivers/BSP/Components/vl53l8cx/modules/vl53l8cx_api.c **** 	}while ((p_dev->temp_buffer[pos] & mask) != expected_value);
  54:Drivers/BSP/Components/vl53l8cx/modules/vl53l8cx_api.c **** 
  55:Drivers/BSP/Components/vl53l8cx/modules/vl53l8cx_api.c **** 	return status;
  56:Drivers/BSP/Components/vl53l8cx/modules/vl53l8cx_api.c **** }
  57:Drivers/BSP/Components/vl53l8cx/modules/vl53l8cx_api.c **** 
  58:Drivers/BSP/Components/vl53l8cx/modules/vl53l8cx_api.c **** /*
  59:Drivers/BSP/Components/vl53l8cx/modules/vl53l8cx_api.c ****  * Inner function, not available outside this file. This function is used to
  60:Drivers/BSP/Components/vl53l8cx/modules/vl53l8cx_api.c ****  * wait for the MCU to boot.
  61:Drivers/BSP/Components/vl53l8cx/modules/vl53l8cx_api.c ****  */
  62:Drivers/BSP/Components/vl53l8cx/modules/vl53l8cx_api.c **** static uint8_t _vl53l8cx_poll_for_mcu_boot(
  63:Drivers/BSP/Components/vl53l8cx/modules/vl53l8cx_api.c ****               VL53L8CX_Configuration      *p_dev)
  64:Drivers/BSP/Components/vl53l8cx/modules/vl53l8cx_api.c **** {
  29              		.loc 1 64 1 view -0
  30              		.cfi_startproc
  31              		@ args = 0, pretend = 0, frame = 8
  32              		@ frame_needed = 0, uses_anonymous_args = 0
  33              		.loc 1 64 1 is_stmt 0 view .LVU1
  34 0000 70B5     		push	{r4, r5, r6, lr}
  35              		.cfi_def_cfa_offset 16
  36              		.cfi_offset 4, -16
  37              		.cfi_offset 5, -12
  38              		.cfi_offset 6, -8
  39              		.cfi_offset 14, -4
  40 0002 82B0     		sub	sp, sp, #8
  41              		.cfi_def_cfa_offset 24
  42 0004 0646     		mov	r6, r0
  65:Drivers/BSP/Components/vl53l8cx/modules/vl53l8cx_api.c ****    uint8_t go2_status0, go2_status1, status = VL53L8CX_STATUS_OK;
  43              		.loc 1 65 4 is_stmt 1 view .LVU2
  44              	.LVL1:
  66:Drivers/BSP/Components/vl53l8cx/modules/vl53l8cx_api.c ****    uint16_t timeout = 0;
  45              		.loc 1 66 4 view .LVU3
  46              		.loc 1 66 13 is_stmt 0 view .LVU4
  47 0006 0024     		movs	r4, #0
  65:Drivers/BSP/Components/vl53l8cx/modules/vl53l8cx_api.c ****    uint8_t go2_status0, go2_status1, status = VL53L8CX_STATUS_OK;
  48              		.loc 1 65 38 view .LVU5
ARM GAS  C:\Temp\cc1zxvPB.s 			page 3


  49 0008 2546     		mov	r5, r4
  50 000a 0DE0     		b	.L4
  51              	.LVL2:
  52              	.L2:
  67:Drivers/BSP/Components/vl53l8cx/modules/vl53l8cx_api.c **** 
  68:Drivers/BSP/Components/vl53l8cx/modules/vl53l8cx_api.c ****    do {
  69:Drivers/BSP/Components/vl53l8cx/modules/vl53l8cx_api.c **** 		status |= VL53L8CX_RdByte(&(p_dev->platform), 0x06, &go2_status0);
  70:Drivers/BSP/Components/vl53l8cx/modules/vl53l8cx_api.c **** 		if((go2_status0 & (uint8_t)0x80) != (uint8_t)0){
  71:Drivers/BSP/Components/vl53l8cx/modules/vl53l8cx_api.c **** 			status |= VL53L8CX_RdByte(&(p_dev->platform), 0x07, &go2_status1);
  72:Drivers/BSP/Components/vl53l8cx/modules/vl53l8cx_api.c ****             if(go2_status1 & (uint8_t)0x01)
  73:Drivers/BSP/Components/vl53l8cx/modules/vl53l8cx_api.c ****             {
  74:Drivers/BSP/Components/vl53l8cx/modules/vl53l8cx_api.c ****             	status |= VL53L8CX_STATUS_OK;
  75:Drivers/BSP/Components/vl53l8cx/modules/vl53l8cx_api.c ****     			break;
  76:Drivers/BSP/Components/vl53l8cx/modules/vl53l8cx_api.c ****             }
  77:Drivers/BSP/Components/vl53l8cx/modules/vl53l8cx_api.c **** 		}
  78:Drivers/BSP/Components/vl53l8cx/modules/vl53l8cx_api.c **** 		(void)VL53L8CX_WaitMs(&(p_dev->platform), 1);
  53              		.loc 1 78 3 is_stmt 1 view .LVU6
  54              		.loc 1 78 9 is_stmt 0 view .LVU7
  55 000c 0121     		movs	r1, #1
  56 000e 3046     		mov	r0, r6
  57 0010 FFF7FEFF 		bl	VL53L8CX_WaitMs
  58              	.LVL3:
  79:Drivers/BSP/Components/vl53l8cx/modules/vl53l8cx_api.c **** 		timeout++;
  59              		.loc 1 79 3 is_stmt 1 view .LVU8
  60              		.loc 1 79 10 is_stmt 0 view .LVU9
  61 0014 0134     		adds	r4, r4, #1
  62              	.LVL4:
  63              		.loc 1 79 10 view .LVU10
  64 0016 A4B2     		uxth	r4, r4
  65              	.LVL5:
  80:Drivers/BSP/Components/vl53l8cx/modules/vl53l8cx_api.c **** 
  81:Drivers/BSP/Components/vl53l8cx/modules/vl53l8cx_api.c **** 		if((go2_status0 & (uint8_t)0x1) != (uint8_t)0){
  66              		.loc 1 81 3 is_stmt 1 view .LVU11
  67              		.loc 1 81 19 is_stmt 0 view .LVU12
  68 0018 9DF80730 		ldrb	r3, [sp, #7]	@ zero_extendqisi2
  69              		.loc 1 81 5 view .LVU13
  70 001c 13F0010F 		tst	r3, #1
  71 0020 1BD1     		bne	.L3
  82:Drivers/BSP/Components/vl53l8cx/modules/vl53l8cx_api.c **** 			break;
  83:Drivers/BSP/Components/vl53l8cx/modules/vl53l8cx_api.c **** 		}
  84:Drivers/BSP/Components/vl53l8cx/modules/vl53l8cx_api.c **** 	}while (timeout < (uint16_t)500);
  72              		.loc 1 84 18 is_stmt 1 view .LVU14
  73 0022 B4F5FA7F 		cmp	r4, #500
  74 0026 18D2     		bcs	.L3
  75              	.LVL6:
  76              	.L4:
  68:Drivers/BSP/Components/vl53l8cx/modules/vl53l8cx_api.c **** 		status |= VL53L8CX_RdByte(&(p_dev->platform), 0x06, &go2_status0);
  77              		.loc 1 68 4 view .LVU15
  69:Drivers/BSP/Components/vl53l8cx/modules/vl53l8cx_api.c **** 		if((go2_status0 & (uint8_t)0x80) != (uint8_t)0){
  78              		.loc 1 69 3 view .LVU16
  69:Drivers/BSP/Components/vl53l8cx/modules/vl53l8cx_api.c **** 		if((go2_status0 & (uint8_t)0x80) != (uint8_t)0){
  79              		.loc 1 69 13 is_stmt 0 view .LVU17
  80 0028 0DF10702 		add	r2, sp, #7
  81 002c 0621     		movs	r1, #6
  82 002e 3046     		mov	r0, r6
  83 0030 FFF7FEFF 		bl	VL53L8CX_RdByte
  84              	.LVL7:
ARM GAS  C:\Temp\cc1zxvPB.s 			page 4


  69:Drivers/BSP/Components/vl53l8cx/modules/vl53l8cx_api.c **** 		if((go2_status0 & (uint8_t)0x80) != (uint8_t)0){
  85              		.loc 1 69 10 view .LVU18
  86 0034 2843     		orrs	r0, r0, r5
  87 0036 C5B2     		uxtb	r5, r0
  88              	.LVL8:
  70:Drivers/BSP/Components/vl53l8cx/modules/vl53l8cx_api.c **** 			status |= VL53L8CX_RdByte(&(p_dev->platform), 0x07, &go2_status1);
  89              		.loc 1 70 3 is_stmt 1 view .LVU19
  70:Drivers/BSP/Components/vl53l8cx/modules/vl53l8cx_api.c **** 			status |= VL53L8CX_RdByte(&(p_dev->platform), 0x07, &go2_status1);
  90              		.loc 1 70 36 is_stmt 0 view .LVU20
  91 0038 9DF90730 		ldrsb	r3, [sp, #7]
  70:Drivers/BSP/Components/vl53l8cx/modules/vl53l8cx_api.c **** 			status |= VL53L8CX_RdByte(&(p_dev->platform), 0x07, &go2_status1);
  92              		.loc 1 70 5 view .LVU21
  93 003c 002B     		cmp	r3, #0
  94 003e E5DA     		bge	.L2
  71:Drivers/BSP/Components/vl53l8cx/modules/vl53l8cx_api.c ****             if(go2_status1 & (uint8_t)0x01)
  95              		.loc 1 71 4 is_stmt 1 view .LVU22
  71:Drivers/BSP/Components/vl53l8cx/modules/vl53l8cx_api.c ****             if(go2_status1 & (uint8_t)0x01)
  96              		.loc 1 71 14 is_stmt 0 view .LVU23
  97 0040 0DF10602 		add	r2, sp, #6
  98 0044 0721     		movs	r1, #7
  99 0046 3046     		mov	r0, r6
 100 0048 FFF7FEFF 		bl	VL53L8CX_RdByte
 101              	.LVL9:
  71:Drivers/BSP/Components/vl53l8cx/modules/vl53l8cx_api.c ****             if(go2_status1 & (uint8_t)0x01)
 102              		.loc 1 71 11 view .LVU24
 103 004c 2843     		orrs	r0, r0, r5
 104 004e C5B2     		uxtb	r5, r0
 105              	.LVL10:
  72:Drivers/BSP/Components/vl53l8cx/modules/vl53l8cx_api.c ****             {
 106              		.loc 1 72 13 is_stmt 1 view .LVU25
  72:Drivers/BSP/Components/vl53l8cx/modules/vl53l8cx_api.c ****             {
 107              		.loc 1 72 28 is_stmt 0 view .LVU26
 108 0050 9DF80630 		ldrb	r3, [sp, #6]	@ zero_extendqisi2
  72:Drivers/BSP/Components/vl53l8cx/modules/vl53l8cx_api.c ****             {
 109              		.loc 1 72 15 view .LVU27
 110 0054 13F0010F 		tst	r3, #1
 111 0058 D8D0     		beq	.L2
 112              	.L3:
  85:Drivers/BSP/Components/vl53l8cx/modules/vl53l8cx_api.c **** 
  86:Drivers/BSP/Components/vl53l8cx/modules/vl53l8cx_api.c ****    return status;
 113              		.loc 1 86 4 is_stmt 1 view .LVU28
  87:Drivers/BSP/Components/vl53l8cx/modules/vl53l8cx_api.c **** }
 114              		.loc 1 87 1 is_stmt 0 view .LVU29
 115 005a 2846     		mov	r0, r5
 116 005c 02B0     		add	sp, sp, #8
 117              		.cfi_def_cfa_offset 16
 118              		@ sp needed
 119 005e 70BD     		pop	{r4, r5, r6, pc}
 120              		.loc 1 87 1 view .LVU30
 121              		.cfi_endproc
 122              	.LFE1:
 124              		.section	.text._vl53l8cx_poll_for_answer,"ax",%progbits
 125              		.align	1
 126              		.syntax unified
 127              		.thumb
 128              		.thumb_func
 130              	_vl53l8cx_poll_for_answer:
ARM GAS  C:\Temp\cc1zxvPB.s 			page 5


 131              	.LVL11:
 132              	.LFB0:
  30:Drivers/BSP/Components/vl53l8cx/modules/vl53l8cx_api.c **** 	uint8_t status = VL53L8CX_STATUS_OK;
 133              		.loc 1 30 1 is_stmt 1 view -0
 134              		.cfi_startproc
 135              		@ args = 8, pretend = 0, frame = 0
 136              		@ frame_needed = 0, uses_anonymous_args = 0
  30:Drivers/BSP/Components/vl53l8cx/modules/vl53l8cx_api.c **** 	uint8_t status = VL53L8CX_STATUS_OK;
 137              		.loc 1 30 1 is_stmt 0 view .LVU32
 138 0000 2DE9F84F 		push	{r3, r4, r5, r6, r7, r8, r9, r10, fp, lr}
 139              		.cfi_def_cfa_offset 40
 140              		.cfi_offset 3, -40
 141              		.cfi_offset 4, -36
 142              		.cfi_offset 5, -32
 143              		.cfi_offset 6, -28
 144              		.cfi_offset 7, -24
 145              		.cfi_offset 8, -20
 146              		.cfi_offset 9, -16
 147              		.cfi_offset 10, -12
 148              		.cfi_offset 11, -8
 149              		.cfi_offset 14, -4
 150 0004 0646     		mov	r6, r0
 151 0006 0F46     		mov	r7, r1
 152 0008 9146     		mov	r9, r2
 153 000a 9846     		mov	r8, r3
 154 000c 9DF828B0 		ldrb	fp, [sp, #40]	@ zero_extendqisi2
 155 0010 9DF82CA0 		ldrb	r10, [sp, #44]	@ zero_extendqisi2
  31:Drivers/BSP/Components/vl53l8cx/modules/vl53l8cx_api.c **** 	uint8_t timeout = 0;
 156              		.loc 1 31 2 is_stmt 1 view .LVU33
 157              	.LVL12:
  32:Drivers/BSP/Components/vl53l8cx/modules/vl53l8cx_api.c **** 
 158              		.loc 1 32 2 view .LVU34
  32:Drivers/BSP/Components/vl53l8cx/modules/vl53l8cx_api.c **** 
 159              		.loc 1 32 10 is_stmt 0 view .LVU35
 160 0014 0025     		movs	r5, #0
  31:Drivers/BSP/Components/vl53l8cx/modules/vl53l8cx_api.c **** 	uint8_t timeout = 0;
 161              		.loc 1 31 10 view .LVU36
 162 0016 2C46     		mov	r4, r5
 163 0018 0CE0     		b	.L10
 164              	.LVL13:
 165              	.L12:
  41:Drivers/BSP/Components/vl53l8cx/modules/vl53l8cx_api.c **** 			break;
 166              		.loc 1 41 4 is_stmt 1 view .LVU37
  41:Drivers/BSP/Components/vl53l8cx/modules/vl53l8cx_api.c **** 			break;
 167              		.loc 1 41 11 is_stmt 0 view .LVU38
 168 001a 44F00104 		orr	r4, r4, #1
 169              	.LVL14:
  42:Drivers/BSP/Components/vl53l8cx/modules/vl53l8cx_api.c **** 		}else if((size >= (uint8_t)4) 
 170              		.loc 1 42 4 is_stmt 1 view .LVU39
 171 001e 22E0     		b	.L8
 172              	.L9:
  51:Drivers/BSP/Components/vl53l8cx/modules/vl53l8cx_api.c **** 		}
 173              		.loc 1 51 4 view .LVU40
  51:Drivers/BSP/Components/vl53l8cx/modules/vl53l8cx_api.c **** 		}
 174              		.loc 1 51 11 is_stmt 0 view .LVU41
 175 0020 0135     		adds	r5, r5, #1
 176              	.LVL15:
ARM GAS  C:\Temp\cc1zxvPB.s 			page 6


  51:Drivers/BSP/Components/vl53l8cx/modules/vl53l8cx_api.c **** 		}
 177              		.loc 1 51 11 view .LVU42
 178 0022 EDB2     		uxtb	r5, r5
 179              	.LVL16:
  53:Drivers/BSP/Components/vl53l8cx/modules/vl53l8cx_api.c **** 
 180              		.loc 1 53 43 is_stmt 1 view .LVU43
  53:Drivers/BSP/Components/vl53l8cx/modules/vl53l8cx_api.c **** 
 181              		.loc 1 53 29 is_stmt 0 view .LVU44
 182 0024 06EB0903 		add	r3, r6, r9
 183 0028 93F81035 		ldrb	r3, [r3, #1296]	@ zero_extendqisi2
  53:Drivers/BSP/Components/vl53l8cx/modules/vl53l8cx_api.c **** 
 184              		.loc 1 53 43 view .LVU45
 185 002c 03EA0B03 		and	r3, r3, fp
 186 0030 5345     		cmp	r3, r10
 187 0032 18D0     		beq	.L8
 188              	.LVL17:
 189              	.L10:
  34:Drivers/BSP/Components/vl53l8cx/modules/vl53l8cx_api.c **** 		status |= VL53L8CX_RdMulti(&(p_dev->platform), address,
 190              		.loc 1 34 2 is_stmt 1 view .LVU46
  35:Drivers/BSP/Components/vl53l8cx/modules/vl53l8cx_api.c **** 				p_dev->temp_buffer, size);
 191              		.loc 1 35 3 view .LVU47
  35:Drivers/BSP/Components/vl53l8cx/modules/vl53l8cx_api.c **** 				p_dev->temp_buffer, size);
 192              		.loc 1 35 13 is_stmt 0 view .LVU48
 193 0034 3B46     		mov	r3, r7
 194 0036 06F5A262 		add	r2, r6, #1296
 195 003a 4146     		mov	r1, r8
 196 003c 3046     		mov	r0, r6
 197 003e FFF7FEFF 		bl	VL53L8CX_RdMulti
 198              	.LVL18:
  35:Drivers/BSP/Components/vl53l8cx/modules/vl53l8cx_api.c **** 				p_dev->temp_buffer, size);
 199              		.loc 1 35 10 view .LVU49
 200 0042 0443     		orrs	r4, r4, r0
 201              	.LVL19:
  35:Drivers/BSP/Components/vl53l8cx/modules/vl53l8cx_api.c **** 				p_dev->temp_buffer, size);
 202              		.loc 1 35 10 view .LVU50
 203 0044 E4B2     		uxtb	r4, r4
 204              	.LVL20:
  37:Drivers/BSP/Components/vl53l8cx/modules/vl53l8cx_api.c **** 
 205              		.loc 1 37 3 is_stmt 1 view .LVU51
  37:Drivers/BSP/Components/vl53l8cx/modules/vl53l8cx_api.c **** 
 206              		.loc 1 37 13 is_stmt 0 view .LVU52
 207 0046 0A21     		movs	r1, #10
 208 0048 3046     		mov	r0, r6
 209 004a FFF7FEFF 		bl	VL53L8CX_WaitMs
 210              	.LVL21:
  37:Drivers/BSP/Components/vl53l8cx/modules/vl53l8cx_api.c **** 
 211              		.loc 1 37 10 view .LVU53
 212 004e 0443     		orrs	r4, r4, r0
 213              	.LVL22:
  37:Drivers/BSP/Components/vl53l8cx/modules/vl53l8cx_api.c **** 
 214              		.loc 1 37 10 view .LVU54
 215 0050 E4B2     		uxtb	r4, r4
 216              	.LVL23:
  39:Drivers/BSP/Components/vl53l8cx/modules/vl53l8cx_api.c **** 		{
 217              		.loc 1 39 3 is_stmt 1 view .LVU55
  39:Drivers/BSP/Components/vl53l8cx/modules/vl53l8cx_api.c **** 		{
 218              		.loc 1 39 5 is_stmt 0 view .LVU56
ARM GAS  C:\Temp\cc1zxvPB.s 			page 7


 219 0052 C72D     		cmp	r5, #199
 220 0054 E1D8     		bhi	.L12
  43:Drivers/BSP/Components/vl53l8cx/modules/vl53l8cx_api.c ****                          && (p_dev->temp_buffer[2] >= (uint8_t)0x7f))
 221              		.loc 1 43 9 is_stmt 1 view .LVU57
  43:Drivers/BSP/Components/vl53l8cx/modules/vl53l8cx_api.c ****                          && (p_dev->temp_buffer[2] >= (uint8_t)0x7f))
 222              		.loc 1 43 11 is_stmt 0 view .LVU58
 223 0056 032F     		cmp	r7, #3
 224 0058 E2D9     		bls	.L9
  44:Drivers/BSP/Components/vl53l8cx/modules/vl53l8cx_api.c **** 		{
 225              		.loc 1 44 48 view .LVU59
 226 005a 96F81235 		ldrb	r3, [r6, #1298]	@ zero_extendqisi2
  44:Drivers/BSP/Components/vl53l8cx/modules/vl53l8cx_api.c **** 		{
 227              		.loc 1 44 26 view .LVU60
 228 005e 7E2B     		cmp	r3, #126
 229 0060 DED9     		bls	.L9
  46:Drivers/BSP/Components/vl53l8cx/modules/vl53l8cx_api.c **** 			break;
 230              		.loc 1 46 4 is_stmt 1 view .LVU61
  46:Drivers/BSP/Components/vl53l8cx/modules/vl53l8cx_api.c **** 			break;
 231              		.loc 1 46 11 is_stmt 0 view .LVU62
 232 0062 44F04204 		orr	r4, r4, #66
 233              	.LVL24:
  47:Drivers/BSP/Components/vl53l8cx/modules/vl53l8cx_api.c **** 		}
 234              		.loc 1 47 4 is_stmt 1 view .LVU63
 235              	.L8:
  55:Drivers/BSP/Components/vl53l8cx/modules/vl53l8cx_api.c **** }
 236              		.loc 1 55 2 view .LVU64
  56:Drivers/BSP/Components/vl53l8cx/modules/vl53l8cx_api.c **** 
 237              		.loc 1 56 1 is_stmt 0 view .LVU65
 238 0066 2046     		mov	r0, r4
 239 0068 BDE8F88F 		pop	{r3, r4, r5, r6, r7, r8, r9, r10, fp, pc}
  56:Drivers/BSP/Components/vl53l8cx/modules/vl53l8cx_api.c **** 
 240              		.loc 1 56 1 view .LVU66
 241              		.cfi_endproc
 242              	.LFE0:
 244              		.section	.text._vl53l8cx_send_offset_data,"ax",%progbits
 245              		.align	1
 246              		.syntax unified
 247              		.thumb
 248              		.thumb_func
 250              	_vl53l8cx_send_offset_data:
 251              	.LVL25:
 252              	.LFB2:
  88:Drivers/BSP/Components/vl53l8cx/modules/vl53l8cx_api.c **** 
  89:Drivers/BSP/Components/vl53l8cx/modules/vl53l8cx_api.c **** /**
  90:Drivers/BSP/Components/vl53l8cx/modules/vl53l8cx_api.c ****  * @brief Inner function, not available outside this file. This function is used
  91:Drivers/BSP/Components/vl53l8cx/modules/vl53l8cx_api.c ****  * to set the offset data gathered from NVM.
  92:Drivers/BSP/Components/vl53l8cx/modules/vl53l8cx_api.c ****  */
  93:Drivers/BSP/Components/vl53l8cx/modules/vl53l8cx_api.c **** 
  94:Drivers/BSP/Components/vl53l8cx/modules/vl53l8cx_api.c **** static uint8_t _vl53l8cx_send_offset_data(
  95:Drivers/BSP/Components/vl53l8cx/modules/vl53l8cx_api.c **** 		VL53L8CX_Configuration		*p_dev,
  96:Drivers/BSP/Components/vl53l8cx/modules/vl53l8cx_api.c **** 		uint8_t						resolution)
  97:Drivers/BSP/Components/vl53l8cx/modules/vl53l8cx_api.c **** {
 253              		.loc 1 97 1 is_stmt 1 view -0
 254              		.cfi_startproc
 255              		@ args = 0, pretend = 0, frame = 400
 256              		@ frame_needed = 0, uses_anonymous_args = 0
 257              		.loc 1 97 1 is_stmt 0 view .LVU68
ARM GAS  C:\Temp\cc1zxvPB.s 			page 8


 258 0000 2DE9F04F 		push	{r4, r5, r6, r7, r8, r9, r10, fp, lr}
 259              		.cfi_def_cfa_offset 36
 260              		.cfi_offset 4, -36
 261              		.cfi_offset 5, -32
 262              		.cfi_offset 6, -28
 263              		.cfi_offset 7, -24
 264              		.cfi_offset 8, -20
 265              		.cfi_offset 9, -16
 266              		.cfi_offset 10, -12
 267              		.cfi_offset 11, -8
 268              		.cfi_offset 14, -4
 269 0004 E7B0     		sub	sp, sp, #412
 270              		.cfi_def_cfa_offset 448
 271 0006 0446     		mov	r4, r0
 272 0008 0E46     		mov	r6, r1
  98:Drivers/BSP/Components/vl53l8cx/modules/vl53l8cx_api.c **** 	uint8_t status = VL53L8CX_STATUS_OK;
 273              		.loc 1 98 2 is_stmt 1 view .LVU69
 274              	.LVL26:
  99:Drivers/BSP/Components/vl53l8cx/modules/vl53l8cx_api.c **** 	uint32_t signal_grid[64];
 275              		.loc 1 99 2 view .LVU70
 100:Drivers/BSP/Components/vl53l8cx/modules/vl53l8cx_api.c **** 	int16_t range_grid[64];
 276              		.loc 1 100 2 view .LVU71
 101:Drivers/BSP/Components/vl53l8cx/modules/vl53l8cx_api.c **** 	uint8_t dss_4x4[] = {0x0F, 0x04, 0x04, 0x00, 0x08, 0x10, 0x10, 0x07};
 277              		.loc 1 101 2 view .LVU72
 278              		.loc 1 101 10 is_stmt 0 view .LVU73
 279 000a 04AA     		add	r2, sp, #16
 280 000c 5A4B     		ldr	r3, .L26
 281 000e 93E80300 		ldm	r3, {r0, r1}
 282              	.LVL27:
 283              		.loc 1 101 10 view .LVU74
 284 0012 82E80300 		stm	r2, {r0, r1}
 102:Drivers/BSP/Components/vl53l8cx/modules/vl53l8cx_api.c **** 	uint8_t footer[] = {0x00, 0x00, 0x00, 0x0F, 0x03, 0x01, 0x01, 0xE4};
 285              		.loc 1 102 2 is_stmt 1 view .LVU75
 286              		.loc 1 102 10 is_stmt 0 view .LVU76
 287 0016 02AA     		add	r2, sp, #8
 288 0018 0833     		adds	r3, r3, #8
 289 001a 93E80300 		ldm	r3, {r0, r1}
 290 001e 82E80300 		stm	r2, {r0, r1}
 103:Drivers/BSP/Components/vl53l8cx/modules/vl53l8cx_api.c **** 	int8_t i, j;
 291              		.loc 1 103 2 is_stmt 1 view .LVU77
 104:Drivers/BSP/Components/vl53l8cx/modules/vl53l8cx_api.c **** 	uint16_t k;
 292              		.loc 1 104 2 view .LVU78
 105:Drivers/BSP/Components/vl53l8cx/modules/vl53l8cx_api.c **** 
 106:Drivers/BSP/Components/vl53l8cx/modules/vl53l8cx_api.c **** 	(void)memcpy(p_dev->temp_buffer,
 293              		.loc 1 106 2 view .LVU79
 294              		.loc 1 106 20 is_stmt 0 view .LVU80
 295 0022 04F5A265 		add	r5, r4, #1296
 296              		.loc 1 106 8 view .LVU81
 297 0026 4FF4F472 		mov	r2, #488
 298 002a 04F12001 		add	r1, r4, #32
 299 002e 2846     		mov	r0, r5
 300 0030 FFF7FEFF 		bl	memcpy
 301              	.LVL28:
 107:Drivers/BSP/Components/vl53l8cx/modules/vl53l8cx_api.c ****                p_dev->offset_data, VL53L8CX_OFFSET_BUFFER_SIZE);
 108:Drivers/BSP/Components/vl53l8cx/modules/vl53l8cx_api.c **** 
 109:Drivers/BSP/Components/vl53l8cx/modules/vl53l8cx_api.c **** 	/* Data extrapolation is required for 4X4 offset */
 110:Drivers/BSP/Components/vl53l8cx/modules/vl53l8cx_api.c **** 	if(resolution == (uint8_t)VL53L8CX_RESOLUTION_4X4){
ARM GAS  C:\Temp\cc1zxvPB.s 			page 9


 302              		.loc 1 110 2 is_stmt 1 view .LVU82
 303              		.loc 1 110 4 is_stmt 0 view .LVU83
 304 0034 102E     		cmp	r6, #16
 305 0036 01D0     		beq	.L23
 306              	.L14:
 111:Drivers/BSP/Components/vl53l8cx/modules/vl53l8cx_api.c **** 		(void)memcpy(&(p_dev->temp_buffer[0x10]), dss_4x4, sizeof(dss_4x4));
 112:Drivers/BSP/Components/vl53l8cx/modules/vl53l8cx_api.c **** 		VL53L8CX_SwapBuffer(p_dev->temp_buffer, VL53L8CX_OFFSET_BUFFER_SIZE);
 113:Drivers/BSP/Components/vl53l8cx/modules/vl53l8cx_api.c **** 		(void)memcpy(signal_grid,&(p_dev->temp_buffer[0x3C]),
 114:Drivers/BSP/Components/vl53l8cx/modules/vl53l8cx_api.c **** 			sizeof(signal_grid));
 115:Drivers/BSP/Components/vl53l8cx/modules/vl53l8cx_api.c **** 		(void)memcpy(range_grid,&(p_dev->temp_buffer[0x140]),
 116:Drivers/BSP/Components/vl53l8cx/modules/vl53l8cx_api.c **** 			sizeof(range_grid));
 117:Drivers/BSP/Components/vl53l8cx/modules/vl53l8cx_api.c **** 
 118:Drivers/BSP/Components/vl53l8cx/modules/vl53l8cx_api.c **** 		for (j = 0; j < (int8_t)4; j++)
 307              		.loc 1 118 10 discriminator 1 view .LVU84
 308 0038 0023     		movs	r3, #0
 309 003a 7AE0     		b	.L19
 310              	.L23:
 111:Drivers/BSP/Components/vl53l8cx/modules/vl53l8cx_api.c **** 		(void)memcpy(&(p_dev->temp_buffer[0x10]), dss_4x4, sizeof(dss_4x4));
 311              		.loc 1 111 3 is_stmt 1 view .LVU85
 111:Drivers/BSP/Components/vl53l8cx/modules/vl53l8cx_api.c **** 		(void)memcpy(&(p_dev->temp_buffer[0x10]), dss_4x4, sizeof(dss_4x4));
 312              		.loc 1 111 9 is_stmt 0 view .LVU86
 313 003c 04AB     		add	r3, sp, #16
 314 003e 03CB     		ldmia	r3!, {r0, r1}
 315 0040 C4F82005 		str	r0, [r4, #1312]	@ unaligned
 316 0044 C4F82415 		str	r1, [r4, #1316]	@ unaligned
 112:Drivers/BSP/Components/vl53l8cx/modules/vl53l8cx_api.c **** 		(void)memcpy(signal_grid,&(p_dev->temp_buffer[0x3C]),
 317              		.loc 1 112 3 is_stmt 1 view .LVU87
 318 0048 4FF4F471 		mov	r1, #488
 319 004c 2846     		mov	r0, r5
 320 004e FFF7FEFF 		bl	VL53L8CX_SwapBuffer
 321              	.LVL29:
 113:Drivers/BSP/Components/vl53l8cx/modules/vl53l8cx_api.c **** 			sizeof(signal_grid));
 322              		.loc 1 113 3 view .LVU88
 113:Drivers/BSP/Components/vl53l8cx/modules/vl53l8cx_api.c **** 			sizeof(signal_grid));
 323              		.loc 1 113 28 is_stmt 0 view .LVU89
 324 0052 04F24C57 		addw	r7, r4, #1356
 113:Drivers/BSP/Components/vl53l8cx/modules/vl53l8cx_api.c **** 			sizeof(signal_grid));
 325              		.loc 1 113 9 view .LVU90
 326 0056 4FF48072 		mov	r2, #256
 327 005a 3946     		mov	r1, r7
 328 005c 26A8     		add	r0, sp, #152
 329 005e FFF7FEFF 		bl	memcpy
 330              	.LVL30:
 115:Drivers/BSP/Components/vl53l8cx/modules/vl53l8cx_api.c **** 			sizeof(range_grid));
 331              		.loc 1 115 3 is_stmt 1 view .LVU91
 115:Drivers/BSP/Components/vl53l8cx/modules/vl53l8cx_api.c **** 			sizeof(range_grid));
 332              		.loc 1 115 27 is_stmt 0 view .LVU92
 333 0062 04F5CA6B 		add	fp, r4, #1616
 115:Drivers/BSP/Components/vl53l8cx/modules/vl53l8cx_api.c **** 			sizeof(range_grid));
 334              		.loc 1 115 9 view .LVU93
 335 0066 8022     		movs	r2, #128
 336 0068 5946     		mov	r1, fp
 337 006a 06A8     		add	r0, sp, #24
 338 006c FFF7FEFF 		bl	memcpy
 339              	.LVL31:
 340              		.loc 1 118 3 is_stmt 1 view .LVU94
 341              		.loc 1 118 10 is_stmt 0 view .LVU95
ARM GAS  C:\Temp\cc1zxvPB.s 			page 10


 342 0070 0020     		movs	r0, #0
 343              		.loc 1 118 3 view .LVU96
 344 0072 35E0     		b	.L15
 345              	.LVL32:
 346              	.L16:
 119:Drivers/BSP/Components/vl53l8cx/modules/vl53l8cx_api.c **** 		{
 120:Drivers/BSP/Components/vl53l8cx/modules/vl53l8cx_api.c **** 			for (i = 0; i < (int8_t)4 ; i++)
 121:Drivers/BSP/Components/vl53l8cx/modules/vl53l8cx_api.c **** 			{
 122:Drivers/BSP/Components/vl53l8cx/modules/vl53l8cx_api.c **** 				signal_grid[i+(4*j)] =
 123:Drivers/BSP/Components/vl53l8cx/modules/vl53l8cx_api.c **** 				(signal_grid[(2*i)+(16*j)+ (int8_t)0]
 124:Drivers/BSP/Components/vl53l8cx/modules/vl53l8cx_api.c **** 				+ signal_grid[(2*i)+(16*j)+(int8_t)1]
 125:Drivers/BSP/Components/vl53l8cx/modules/vl53l8cx_api.c **** 				+ signal_grid[(2*i)+(16*j)+(int8_t)8]
 126:Drivers/BSP/Components/vl53l8cx/modules/vl53l8cx_api.c **** 				+ signal_grid[(2*i)+(16*j)+(int8_t)9])
 127:Drivers/BSP/Components/vl53l8cx/modules/vl53l8cx_api.c ****                                   /(uint32_t)4;
 128:Drivers/BSP/Components/vl53l8cx/modules/vl53l8cx_api.c **** 				range_grid[i+(4*j)] =
 129:Drivers/BSP/Components/vl53l8cx/modules/vl53l8cx_api.c **** 				(range_grid[(2*i)+(16*j)]
 130:Drivers/BSP/Components/vl53l8cx/modules/vl53l8cx_api.c **** 				+ range_grid[(2*i)+(16*j)+1]
 131:Drivers/BSP/Components/vl53l8cx/modules/vl53l8cx_api.c **** 				+ range_grid[(2*i)+(16*j)+8]
 132:Drivers/BSP/Components/vl53l8cx/modules/vl53l8cx_api.c **** 				+ range_grid[(2*i)+(16*j)+9])
 133:Drivers/BSP/Components/vl53l8cx/modules/vl53l8cx_api.c ****                                   /(int16_t)4;
 347              		.loc 1 133 35 discriminator 3 view .LVU97
 348 0074 9B10     		asrs	r3, r3, #2
 128:Drivers/BSP/Components/vl53l8cx/modules/vl53l8cx_api.c **** 				(range_grid[(2*i)+(16*j)]
 349              		.loc 1 128 25 discriminator 3 view .LVU98
 350 0076 06AA     		add	r2, sp, #24
 351 0078 22F81930 		strh	r3, [r2, r9, lsl #1]	@ movhi
 120:Drivers/BSP/Components/vl53l8cx/modules/vl53l8cx_api.c **** 			{
 352              		.loc 1 120 33 is_stmt 1 discriminator 3 view .LVU99
 353 007c 0131     		adds	r1, r1, #1
 354              	.LVL33:
 120:Drivers/BSP/Components/vl53l8cx/modules/vl53l8cx_api.c **** 			{
 355              		.loc 1 120 33 is_stmt 0 discriminator 3 view .LVU100
 356 007e 49B2     		sxtb	r1, r1
 357              	.LVL34:
 358              	.L18:
 120:Drivers/BSP/Components/vl53l8cx/modules/vl53l8cx_api.c **** 			{
 359              		.loc 1 120 18 is_stmt 1 discriminator 1 view .LVU101
 360 0080 0329     		cmp	r1, #3
 361 0082 2BDC     		bgt	.L24
 122:Drivers/BSP/Components/vl53l8cx/modules/vl53l8cx_api.c **** 				(signal_grid[(2*i)+(16*j)+ (int8_t)0]
 362              		.loc 1 122 5 discriminator 3 view .LVU102
 123:Drivers/BSP/Components/vl53l8cx/modules/vl53l8cx_api.c **** 				+ signal_grid[(2*i)+(16*j)+(int8_t)1]
 363              		.loc 1 123 23 is_stmt 0 discriminator 3 view .LVU103
 364 0084 01EBC002 		add	r2, r1, r0, lsl #3
 123:Drivers/BSP/Components/vl53l8cx/modules/vl53l8cx_api.c **** 				+ signal_grid[(2*i)+(16*j)+(int8_t)1]
 365              		.loc 1 123 30 discriminator 3 view .LVU104
 366 0088 4FEA420E 		lsl	lr, r2, #1
 123:Drivers/BSP/Components/vl53l8cx/modules/vl53l8cx_api.c **** 				+ signal_grid[(2*i)+(16*j)+(int8_t)1]
 367              		.loc 1 123 17 discriminator 3 view .LVU105
 368 008c 0DF1980C 		add	ip, sp, #152
 369 0090 5CF82E30 		ldr	r3, [ip, lr, lsl #2]
 124:Drivers/BSP/Components/vl53l8cx/modules/vl53l8cx_api.c **** 				+ signal_grid[(2*i)+(16*j)+(int8_t)8]
 370              		.loc 1 124 31 discriminator 3 view .LVU106
 371 0094 0EF10108 		add	r8, lr, #1
 124:Drivers/BSP/Components/vl53l8cx/modules/vl53l8cx_api.c **** 				+ signal_grid[(2*i)+(16*j)+(int8_t)8]
 372              		.loc 1 124 5 discriminator 3 view .LVU107
 373 0098 5CF82860 		ldr	r6, [ip, r8, lsl #2]
ARM GAS  C:\Temp\cc1zxvPB.s 			page 11


 374 009c 3344     		add	r3, r3, r6
 125:Drivers/BSP/Components/vl53l8cx/modules/vl53l8cx_api.c **** 				+ signal_grid[(2*i)+(16*j)+(int8_t)9])
 375              		.loc 1 125 31 discriminator 3 view .LVU108
 376 009e 0432     		adds	r2, r2, #4
 377 00a0 5200     		lsls	r2, r2, #1
 125:Drivers/BSP/Components/vl53l8cx/modules/vl53l8cx_api.c **** 				+ signal_grid[(2*i)+(16*j)+(int8_t)9])
 378              		.loc 1 125 5 discriminator 3 view .LVU109
 379 00a2 5CF82260 		ldr	r6, [ip, r2, lsl #2]
 380 00a6 3344     		add	r3, r3, r6
 126:Drivers/BSP/Components/vl53l8cx/modules/vl53l8cx_api.c ****                                   /(uint32_t)4;
 381              		.loc 1 126 31 discriminator 3 view .LVU110
 382 00a8 0EF1090A 		add	r10, lr, #9
 126:Drivers/BSP/Components/vl53l8cx/modules/vl53l8cx_api.c ****                                   /(uint32_t)4;
 383              		.loc 1 126 5 discriminator 3 view .LVU111
 384 00ac 5CF82A60 		ldr	r6, [ip, r10, lsl #2]
 385 00b0 3344     		add	r3, r3, r6
 122:Drivers/BSP/Components/vl53l8cx/modules/vl53l8cx_api.c **** 				(signal_grid[(2*i)+(16*j)+ (int8_t)0]
 386              		.loc 1 122 18 discriminator 3 view .LVU112
 387 00b2 01EB8009 		add	r9, r1, r0, lsl #2
 127:Drivers/BSP/Components/vl53l8cx/modules/vl53l8cx_api.c **** 				range_grid[i+(4*j)] =
 388              		.loc 1 127 35 discriminator 3 view .LVU113
 389 00b6 9B08     		lsrs	r3, r3, #2
 122:Drivers/BSP/Components/vl53l8cx/modules/vl53l8cx_api.c **** 				(signal_grid[(2*i)+(16*j)+ (int8_t)0]
 390              		.loc 1 122 26 discriminator 3 view .LVU114
 391 00b8 4CF82930 		str	r3, [ip, r9, lsl #2]
 128:Drivers/BSP/Components/vl53l8cx/modules/vl53l8cx_api.c **** 				(range_grid[(2*i)+(16*j)]
 392              		.loc 1 128 5 is_stmt 1 discriminator 3 view .LVU115
 129:Drivers/BSP/Components/vl53l8cx/modules/vl53l8cx_api.c **** 				+ range_grid[(2*i)+(16*j)+1]
 393              		.loc 1 129 16 is_stmt 0 discriminator 3 view .LVU116
 394 00bc 0DF1180C 		add	ip, sp, #24
 395 00c0 3CF91E30 		ldrsh	r3, [ip, lr, lsl #1]
 130:Drivers/BSP/Components/vl53l8cx/modules/vl53l8cx_api.c **** 				+ range_grid[(2*i)+(16*j)+8]
 396              		.loc 1 130 17 discriminator 3 view .LVU117
 397 00c4 3CF918E0 		ldrsh	lr, [ip, r8, lsl #1]
 130:Drivers/BSP/Components/vl53l8cx/modules/vl53l8cx_api.c **** 				+ range_grid[(2*i)+(16*j)+8]
 398              		.loc 1 130 5 discriminator 3 view .LVU118
 399 00c8 7344     		add	r3, r3, lr
 131:Drivers/BSP/Components/vl53l8cx/modules/vl53l8cx_api.c **** 				+ range_grid[(2*i)+(16*j)+9])
 400              		.loc 1 131 17 discriminator 3 view .LVU119
 401 00ca 3CF91220 		ldrsh	r2, [ip, r2, lsl #1]
 131:Drivers/BSP/Components/vl53l8cx/modules/vl53l8cx_api.c **** 				+ range_grid[(2*i)+(16*j)+9])
 402              		.loc 1 131 5 discriminator 3 view .LVU120
 403 00ce 1344     		add	r3, r3, r2
 132:Drivers/BSP/Components/vl53l8cx/modules/vl53l8cx_api.c ****                                   /(int16_t)4;
 404              		.loc 1 132 17 discriminator 3 view .LVU121
 405 00d0 3CF91A20 		ldrsh	r2, [ip, r10, lsl #1]
 406              		.loc 1 133 35 discriminator 3 view .LVU122
 407 00d4 9B18     		adds	r3, r3, r2
 408 00d6 CDD5     		bpl	.L16
 409 00d8 0333     		adds	r3, r3, #3
 410 00da CBE7     		b	.L16
 411              	.L24:
 118:Drivers/BSP/Components/vl53l8cx/modules/vl53l8cx_api.c **** 		{
 412              		.loc 1 118 31 is_stmt 1 discriminator 2 view .LVU123
 413 00dc 0130     		adds	r0, r0, #1
 414              	.LVL35:
 118:Drivers/BSP/Components/vl53l8cx/modules/vl53l8cx_api.c **** 		{
ARM GAS  C:\Temp\cc1zxvPB.s 			page 12


 415              		.loc 1 118 31 is_stmt 0 discriminator 2 view .LVU124
 416 00de 40B2     		sxtb	r0, r0
 417              	.LVL36:
 418              	.L15:
 118:Drivers/BSP/Components/vl53l8cx/modules/vl53l8cx_api.c **** 		{
 419              		.loc 1 118 17 is_stmt 1 discriminator 1 view .LVU125
 420 00e0 0328     		cmp	r0, #3
 421 00e2 01DC     		bgt	.L25
 120:Drivers/BSP/Components/vl53l8cx/modules/vl53l8cx_api.c **** 			{
 422              		.loc 1 120 11 is_stmt 0 view .LVU126
 423 00e4 0021     		movs	r1, #0
 424 00e6 CBE7     		b	.L18
 425              	.L25:
 134:Drivers/BSP/Components/vl53l8cx/modules/vl53l8cx_api.c **** 			}
 135:Drivers/BSP/Components/vl53l8cx/modules/vl53l8cx_api.c **** 		}
 136:Drivers/BSP/Components/vl53l8cx/modules/vl53l8cx_api.c **** 	    (void)memset(&range_grid[0x10], 0, (uint16_t)96);
 426              		.loc 1 136 6 is_stmt 1 view .LVU127
 427              		.loc 1 136 12 is_stmt 0 view .LVU128
 428 00e8 6022     		movs	r2, #96
 429 00ea 0021     		movs	r1, #0
 430 00ec 0EA8     		add	r0, sp, #56
 431              	.LVL37:
 432              		.loc 1 136 12 view .LVU129
 433 00ee FFF7FEFF 		bl	memset
 434              	.LVL38:
 137:Drivers/BSP/Components/vl53l8cx/modules/vl53l8cx_api.c **** 	    (void)memset(&signal_grid[0x10], 0, (uint16_t)192);
 435              		.loc 1 137 6 is_stmt 1 view .LVU130
 436              		.loc 1 137 12 is_stmt 0 view .LVU131
 437 00f2 C022     		movs	r2, #192
 438 00f4 0021     		movs	r1, #0
 439 00f6 36A8     		add	r0, sp, #216
 440 00f8 FFF7FEFF 		bl	memset
 441              	.LVL39:
 138:Drivers/BSP/Components/vl53l8cx/modules/vl53l8cx_api.c ****             (void)memcpy(&(p_dev->temp_buffer[0x3C]),
 442              		.loc 1 138 13 is_stmt 1 view .LVU132
 443              		.loc 1 138 19 is_stmt 0 view .LVU133
 444 00fc 4FF48072 		mov	r2, #256
 445 0100 26A9     		add	r1, sp, #152
 446 0102 3846     		mov	r0, r7
 447 0104 FFF7FEFF 		bl	memcpy
 448              	.LVL40:
 139:Drivers/BSP/Components/vl53l8cx/modules/vl53l8cx_api.c **** 		signal_grid, sizeof(signal_grid));
 140:Drivers/BSP/Components/vl53l8cx/modules/vl53l8cx_api.c ****             (void)memcpy(&(p_dev->temp_buffer[0x140]),
 449              		.loc 1 140 13 is_stmt 1 view .LVU134
 450              		.loc 1 140 19 is_stmt 0 view .LVU135
 451 0108 8022     		movs	r2, #128
 452 010a 06A9     		add	r1, sp, #24
 453 010c 5846     		mov	r0, fp
 454 010e FFF7FEFF 		bl	memcpy
 455              	.LVL41:
 141:Drivers/BSP/Components/vl53l8cx/modules/vl53l8cx_api.c **** 		range_grid, sizeof(range_grid));
 142:Drivers/BSP/Components/vl53l8cx/modules/vl53l8cx_api.c ****             VL53L8CX_SwapBuffer(p_dev->temp_buffer, VL53L8CX_OFFSET_BUFFER_SIZE);
 456              		.loc 1 142 13 is_stmt 1 view .LVU136
 457 0112 4FF4F471 		mov	r1, #488
 458 0116 2846     		mov	r0, r5
 459 0118 FFF7FEFF 		bl	VL53L8CX_SwapBuffer
 460              	.LVL42:
ARM GAS  C:\Temp\cc1zxvPB.s 			page 13


 461 011c 8CE7     		b	.L14
 462              	.LVL43:
 463              	.L20:
 143:Drivers/BSP/Components/vl53l8cx/modules/vl53l8cx_api.c **** 	}
 144:Drivers/BSP/Components/vl53l8cx/modules/vl53l8cx_api.c **** 
 145:Drivers/BSP/Components/vl53l8cx/modules/vl53l8cx_api.c **** 	for(k = 0; k < (VL53L8CX_OFFSET_BUFFER_SIZE - (uint16_t)4); k++)
 146:Drivers/BSP/Components/vl53l8cx/modules/vl53l8cx_api.c **** 	{
 147:Drivers/BSP/Components/vl53l8cx/modules/vl53l8cx_api.c **** 		p_dev->temp_buffer[k] = p_dev->temp_buffer[k + (uint16_t)8];
 464              		.loc 1 147 3 discriminator 3 view .LVU137
 465              		.loc 1 147 48 is_stmt 0 discriminator 3 view .LVU138
 466 011e 03F10802 		add	r2, r3, #8
 467              		.loc 1 147 45 discriminator 3 view .LVU139
 468 0122 2244     		add	r2, r2, r4
 469 0124 92F81015 		ldrb	r1, [r2, #1296]	@ zero_extendqisi2
 470              		.loc 1 147 25 discriminator 3 view .LVU140
 471 0128 E218     		adds	r2, r4, r3
 472 012a 82F81015 		strb	r1, [r2, #1296]
 145:Drivers/BSP/Components/vl53l8cx/modules/vl53l8cx_api.c **** 	{
 473              		.loc 1 145 63 is_stmt 1 discriminator 3 view .LVU141
 474 012e 0133     		adds	r3, r3, #1
 475              	.LVL44:
 145:Drivers/BSP/Components/vl53l8cx/modules/vl53l8cx_api.c **** 	{
 476              		.loc 1 145 63 is_stmt 0 discriminator 3 view .LVU142
 477 0130 9BB2     		uxth	r3, r3
 478              	.LVL45:
 479              	.L19:
 145:Drivers/BSP/Components/vl53l8cx/modules/vl53l8cx_api.c **** 	{
 480              		.loc 1 145 15 is_stmt 1 discriminator 1 view .LVU143
 481 0132 B3F5F27F 		cmp	r3, #484
 482 0136 F2D3     		bcc	.L20
 148:Drivers/BSP/Components/vl53l8cx/modules/vl53l8cx_api.c **** 	}
 149:Drivers/BSP/Components/vl53l8cx/modules/vl53l8cx_api.c **** 
 150:Drivers/BSP/Components/vl53l8cx/modules/vl53l8cx_api.c **** 	(void)memcpy(&(p_dev->temp_buffer[0x1E0]), footer, 8);
 483              		.loc 1 150 2 view .LVU144
 484              		.loc 1 150 8 is_stmt 0 view .LVU145
 485 0138 02AB     		add	r3, sp, #8
 486              	.LVL46:
 487              		.loc 1 150 8 view .LVU146
 488 013a 03CB     		ldmia	r3!, {r0, r1}
 489 013c C4F8F006 		str	r0, [r4, #1776]	@ unaligned
 490 0140 C4F8F416 		str	r1, [r4, #1780]	@ unaligned
 151:Drivers/BSP/Components/vl53l8cx/modules/vl53l8cx_api.c **** 	status |= VL53L8CX_WrMulti(&(p_dev->platform), 0x2e18, p_dev->temp_buffer,
 491              		.loc 1 151 2 is_stmt 1 view .LVU147
 492              		.loc 1 151 12 is_stmt 0 view .LVU148
 493 0144 4FF4F473 		mov	r3, #488
 494 0148 2A46     		mov	r2, r5
 495 014a 42F61861 		movw	r1, #11800
 496 014e 2046     		mov	r0, r4
 497 0150 FFF7FEFF 		bl	VL53L8CX_WrMulti
 498              	.LVL47:
 499 0154 0546     		mov	r5, r0
 500              	.LVL48:
 152:Drivers/BSP/Components/vl53l8cx/modules/vl53l8cx_api.c **** 		VL53L8CX_OFFSET_BUFFER_SIZE);
 153:Drivers/BSP/Components/vl53l8cx/modules/vl53l8cx_api.c **** 	status |=_vl53l8cx_poll_for_answer(p_dev, 4, 1,
 501              		.loc 1 153 2 is_stmt 1 view .LVU149
 502              		.loc 1 153 11 is_stmt 0 view .LVU150
 503 0156 0323     		movs	r3, #3
ARM GAS  C:\Temp\cc1zxvPB.s 			page 14


 504 0158 0193     		str	r3, [sp, #4]
 505 015a FF23     		movs	r3, #255
 506 015c 0093     		str	r3, [sp]
 507 015e 4FF43053 		mov	r3, #11264
 508 0162 0122     		movs	r2, #1
 509 0164 0421     		movs	r1, #4
 510 0166 2046     		mov	r0, r4
 511 0168 FFF7FEFF 		bl	_vl53l8cx_poll_for_answer
 512              	.LVL49:
 513              		.loc 1 153 9 view .LVU151
 514 016c 2843     		orrs	r0, r0, r5
 515              	.LVL50:
 154:Drivers/BSP/Components/vl53l8cx/modules/vl53l8cx_api.c **** 		VL53L8CX_UI_CMD_STATUS, 0xff, 0x03);
 155:Drivers/BSP/Components/vl53l8cx/modules/vl53l8cx_api.c **** 
 156:Drivers/BSP/Components/vl53l8cx/modules/vl53l8cx_api.c **** 	return status;
 516              		.loc 1 156 2 is_stmt 1 view .LVU152
 157:Drivers/BSP/Components/vl53l8cx/modules/vl53l8cx_api.c **** }
 517              		.loc 1 157 1 is_stmt 0 view .LVU153
 518 016e C0B2     		uxtb	r0, r0
 519              		.loc 1 157 1 view .LVU154
 520 0170 67B0     		add	sp, sp, #412
 521              		.cfi_def_cfa_offset 36
 522              		@ sp needed
 523 0172 BDE8F08F 		pop	{r4, r5, r6, r7, r8, r9, r10, fp, pc}
 524              	.LVL51:
 525              	.L27:
 526              		.loc 1 157 1 view .LVU155
 527 0176 00BF     		.align	2
 528              	.L26:
 529 0178 00000000 		.word	.LANCHOR0
 530              		.cfi_endproc
 531              	.LFE2:
 533              		.section	.rodata._vl53l8cx_send_xtalk_data.str1.4,"aMS",%progbits,1
 534              		.align	2
 535              	.LC4:
 536 0000 0F040417 		.ascii	"\017\004\004\027\010\020\020\007\000"
 536      08101007 
 536      00
 537              		.section	.text._vl53l8cx_send_xtalk_data,"ax",%progbits
 538              		.align	1
 539              		.syntax unified
 540              		.thumb
 541              		.thumb_func
 543              	_vl53l8cx_send_xtalk_data:
 544              	.LVL52:
 545              	.LFB3:
 158:Drivers/BSP/Components/vl53l8cx/modules/vl53l8cx_api.c **** 
 159:Drivers/BSP/Components/vl53l8cx/modules/vl53l8cx_api.c **** /**
 160:Drivers/BSP/Components/vl53l8cx/modules/vl53l8cx_api.c ****  * @brief Inner function, not available outside this file. This function is used
 161:Drivers/BSP/Components/vl53l8cx/modules/vl53l8cx_api.c ****  * to set the Xtalk data from generic configuration, or user's calibration.
 162:Drivers/BSP/Components/vl53l8cx/modules/vl53l8cx_api.c ****  */
 163:Drivers/BSP/Components/vl53l8cx/modules/vl53l8cx_api.c **** 
 164:Drivers/BSP/Components/vl53l8cx/modules/vl53l8cx_api.c **** static uint8_t _vl53l8cx_send_xtalk_data(
 165:Drivers/BSP/Components/vl53l8cx/modules/vl53l8cx_api.c **** 		VL53L8CX_Configuration		*p_dev,
 166:Drivers/BSP/Components/vl53l8cx/modules/vl53l8cx_api.c **** 		uint8_t				resolution)
 167:Drivers/BSP/Components/vl53l8cx/modules/vl53l8cx_api.c **** {
 546              		.loc 1 167 1 is_stmt 1 view -0
ARM GAS  C:\Temp\cc1zxvPB.s 			page 15


 547              		.cfi_startproc
 548              		@ args = 0, pretend = 0, frame = 280
 549              		@ frame_needed = 0, uses_anonymous_args = 0
 550              		.loc 1 167 1 is_stmt 0 view .LVU157
 551 0000 F0B5     		push	{r4, r5, r6, r7, lr}
 552              		.cfi_def_cfa_offset 20
 553              		.cfi_offset 4, -20
 554              		.cfi_offset 5, -16
 555              		.cfi_offset 6, -12
 556              		.cfi_offset 7, -8
 557              		.cfi_offset 14, -4
 558 0002 C9B0     		sub	sp, sp, #292
 559              		.cfi_def_cfa_offset 312
 560 0004 0446     		mov	r4, r0
 561 0006 0E46     		mov	r6, r1
 168:Drivers/BSP/Components/vl53l8cx/modules/vl53l8cx_api.c **** 	uint8_t status = VL53L8CX_STATUS_OK;
 562              		.loc 1 168 2 is_stmt 1 view .LVU158
 563              	.LVL53:
 169:Drivers/BSP/Components/vl53l8cx/modules/vl53l8cx_api.c **** 	uint8_t res4x4[] = {0x0F, 0x04, 0x04, 0x17, 0x08, 0x10, 0x10, 0x07};
 564              		.loc 1 169 2 view .LVU159
 565              		.loc 1 169 10 is_stmt 0 view .LVU160
 566 0008 444B     		ldr	r3, .L37
 567 000a 93E80300 		ldm	r3, {r0, r1}
 568              	.LVL54:
 569              		.loc 1 169 10 view .LVU161
 570 000e 48AB     		add	r3, sp, #288
 571 0010 03E90300 		stmdb	r3, {r0, r1}
 170:Drivers/BSP/Components/vl53l8cx/modules/vl53l8cx_api.c **** 	uint8_t dss_4x4[] = {0x00, 0x78, 0x00, 0x08, 0x00, 0x00, 0x00, 0x08};
 572              		.loc 1 170 2 is_stmt 1 view .LVU162
 573              		.loc 1 170 10 is_stmt 0 view .LVU163
 574 0014 44AB     		add	r3, sp, #272
 575 0016 424A     		ldr	r2, .L37+4
 576 0018 92E80300 		ldm	r2, {r0, r1}
 577 001c 83E80300 		stm	r3, {r0, r1}
 171:Drivers/BSP/Components/vl53l8cx/modules/vl53l8cx_api.c **** 	uint8_t profile_4x4[] = {0xA0, 0xFC, 0x01, 0x00};
 578              		.loc 1 171 2 is_stmt 1 view .LVU164
 579              		.loc 1 171 10 is_stmt 0 view .LVU165
 580 0020 404B     		ldr	r3, .L37+8
 581 0022 4393     		str	r3, [sp, #268]
 172:Drivers/BSP/Components/vl53l8cx/modules/vl53l8cx_api.c **** 	uint32_t signal_grid[64];
 582              		.loc 1 172 2 is_stmt 1 view .LVU166
 173:Drivers/BSP/Components/vl53l8cx/modules/vl53l8cx_api.c **** 	int8_t i, j;
 583              		.loc 1 173 2 view .LVU167
 174:Drivers/BSP/Components/vl53l8cx/modules/vl53l8cx_api.c **** 
 175:Drivers/BSP/Components/vl53l8cx/modules/vl53l8cx_api.c **** 	(void)memcpy(p_dev->temp_buffer, &(p_dev->xtalk_data[0]),
 584              		.loc 1 175 2 view .LVU168
 585              		.loc 1 175 20 is_stmt 0 view .LVU169
 586 0024 04F5A265 		add	r5, r4, #1296
 587              		.loc 1 175 8 view .LVU170
 588 0028 4FF44272 		mov	r2, #776
 589 002c 04F50271 		add	r1, r4, #520
 590 0030 2846     		mov	r0, r5
 591 0032 FFF7FEFF 		bl	memcpy
 592              	.LVL55:
 176:Drivers/BSP/Components/vl53l8cx/modules/vl53l8cx_api.c **** 		VL53L8CX_XTALK_BUFFER_SIZE);
 177:Drivers/BSP/Components/vl53l8cx/modules/vl53l8cx_api.c **** 
 178:Drivers/BSP/Components/vl53l8cx/modules/vl53l8cx_api.c **** 	/* Data extrapolation is required for 4X4 Xtalk */
ARM GAS  C:\Temp\cc1zxvPB.s 			page 16


 179:Drivers/BSP/Components/vl53l8cx/modules/vl53l8cx_api.c **** 	if(resolution == (uint8_t)VL53L8CX_RESOLUTION_4X4)
 593              		.loc 1 179 2 is_stmt 1 view .LVU171
 594              		.loc 1 179 4 is_stmt 0 view .LVU172
 595 0036 102E     		cmp	r6, #16
 596 0038 17D0     		beq	.L35
 597              	.L29:
 180:Drivers/BSP/Components/vl53l8cx/modules/vl53l8cx_api.c **** 	{
 181:Drivers/BSP/Components/vl53l8cx/modules/vl53l8cx_api.c **** 		(void)memcpy(&(p_dev->temp_buffer[0x8]),
 182:Drivers/BSP/Components/vl53l8cx/modules/vl53l8cx_api.c **** 			res4x4, sizeof(res4x4));
 183:Drivers/BSP/Components/vl53l8cx/modules/vl53l8cx_api.c **** 		(void)memcpy(&(p_dev->temp_buffer[0x020]),
 184:Drivers/BSP/Components/vl53l8cx/modules/vl53l8cx_api.c **** 			dss_4x4, sizeof(dss_4x4));
 185:Drivers/BSP/Components/vl53l8cx/modules/vl53l8cx_api.c **** 
 186:Drivers/BSP/Components/vl53l8cx/modules/vl53l8cx_api.c **** 		VL53L8CX_SwapBuffer(p_dev->temp_buffer, VL53L8CX_XTALK_BUFFER_SIZE);
 187:Drivers/BSP/Components/vl53l8cx/modules/vl53l8cx_api.c **** 		(void)memcpy(signal_grid, &(p_dev->temp_buffer[0x34]),
 188:Drivers/BSP/Components/vl53l8cx/modules/vl53l8cx_api.c **** 			sizeof(signal_grid));
 189:Drivers/BSP/Components/vl53l8cx/modules/vl53l8cx_api.c **** 
 190:Drivers/BSP/Components/vl53l8cx/modules/vl53l8cx_api.c **** 		for (j = 0; j < (int8_t)4; j++)
 191:Drivers/BSP/Components/vl53l8cx/modules/vl53l8cx_api.c **** 		{
 192:Drivers/BSP/Components/vl53l8cx/modules/vl53l8cx_api.c **** 			for (i = 0; i < (int8_t)4 ; i++)
 193:Drivers/BSP/Components/vl53l8cx/modules/vl53l8cx_api.c **** 			{
 194:Drivers/BSP/Components/vl53l8cx/modules/vl53l8cx_api.c **** 				signal_grid[i+(4*j)] =
 195:Drivers/BSP/Components/vl53l8cx/modules/vl53l8cx_api.c **** 				(signal_grid[(2*i)+(16*j)+0]
 196:Drivers/BSP/Components/vl53l8cx/modules/vl53l8cx_api.c **** 				+ signal_grid[(2*i)+(16*j)+1]
 197:Drivers/BSP/Components/vl53l8cx/modules/vl53l8cx_api.c **** 				+ signal_grid[(2*i)+(16*j)+8]
 198:Drivers/BSP/Components/vl53l8cx/modules/vl53l8cx_api.c **** 				+ signal_grid[(2*i)+(16*j)+9])/(uint32_t)4;
 199:Drivers/BSP/Components/vl53l8cx/modules/vl53l8cx_api.c **** 			}
 200:Drivers/BSP/Components/vl53l8cx/modules/vl53l8cx_api.c **** 		}
 201:Drivers/BSP/Components/vl53l8cx/modules/vl53l8cx_api.c **** 	    (void)memset(&signal_grid[0x10], 0, (uint32_t)192);
 202:Drivers/BSP/Components/vl53l8cx/modules/vl53l8cx_api.c **** 	    (void)memcpy(&(p_dev->temp_buffer[0x34]),
 203:Drivers/BSP/Components/vl53l8cx/modules/vl53l8cx_api.c ****                   signal_grid, sizeof(signal_grid));
 204:Drivers/BSP/Components/vl53l8cx/modules/vl53l8cx_api.c **** 	    VL53L8CX_SwapBuffer(p_dev->temp_buffer, VL53L8CX_XTALK_BUFFER_SIZE);
 205:Drivers/BSP/Components/vl53l8cx/modules/vl53l8cx_api.c **** 	    (void)memcpy(&(p_dev->temp_buffer[0x134]),
 206:Drivers/BSP/Components/vl53l8cx/modules/vl53l8cx_api.c **** 	    profile_4x4, sizeof(profile_4x4));
 207:Drivers/BSP/Components/vl53l8cx/modules/vl53l8cx_api.c **** 	    (void)memset(&(p_dev->temp_buffer[0x078]),0 ,
 208:Drivers/BSP/Components/vl53l8cx/modules/vl53l8cx_api.c ****                          (uint32_t)4*sizeof(uint8_t));
 209:Drivers/BSP/Components/vl53l8cx/modules/vl53l8cx_api.c **** 	}
 210:Drivers/BSP/Components/vl53l8cx/modules/vl53l8cx_api.c **** 
 211:Drivers/BSP/Components/vl53l8cx/modules/vl53l8cx_api.c **** 	status |= VL53L8CX_WrMulti(&(p_dev->platform), 0x2cf8,
 598              		.loc 1 211 2 is_stmt 1 view .LVU173
 599              		.loc 1 211 12 is_stmt 0 view .LVU174
 600 003a 4FF44273 		mov	r3, #776
 601 003e 2A46     		mov	r2, r5
 602 0040 42F6F841 		movw	r1, #11512
 603 0044 2046     		mov	r0, r4
 604 0046 FFF7FEFF 		bl	VL53L8CX_WrMulti
 605              	.LVL56:
 606 004a 0546     		mov	r5, r0
 607              	.LVL57:
 212:Drivers/BSP/Components/vl53l8cx/modules/vl53l8cx_api.c **** 			p_dev->temp_buffer, VL53L8CX_XTALK_BUFFER_SIZE);
 213:Drivers/BSP/Components/vl53l8cx/modules/vl53l8cx_api.c **** 	status |=_vl53l8cx_poll_for_answer(p_dev, 4, 1,
 608              		.loc 1 213 2 is_stmt 1 view .LVU175
 609              		.loc 1 213 11 is_stmt 0 view .LVU176
 610 004c 0323     		movs	r3, #3
 611 004e 0193     		str	r3, [sp, #4]
 612 0050 FF23     		movs	r3, #255
 613 0052 0093     		str	r3, [sp]
 614 0054 4FF43053 		mov	r3, #11264
ARM GAS  C:\Temp\cc1zxvPB.s 			page 17


 615 0058 0122     		movs	r2, #1
 616 005a 0421     		movs	r1, #4
 617 005c 2046     		mov	r0, r4
 618 005e FFF7FEFF 		bl	_vl53l8cx_poll_for_answer
 619              	.LVL58:
 620              		.loc 1 213 9 view .LVU177
 621 0062 2843     		orrs	r0, r0, r5
 622              	.LVL59:
 214:Drivers/BSP/Components/vl53l8cx/modules/vl53l8cx_api.c **** 			VL53L8CX_UI_CMD_STATUS, 0xff, 0x03);
 215:Drivers/BSP/Components/vl53l8cx/modules/vl53l8cx_api.c **** 
 216:Drivers/BSP/Components/vl53l8cx/modules/vl53l8cx_api.c **** 	return status;
 623              		.loc 1 216 2 is_stmt 1 view .LVU178
 217:Drivers/BSP/Components/vl53l8cx/modules/vl53l8cx_api.c **** }
 624              		.loc 1 217 1 is_stmt 0 view .LVU179
 625 0064 C0B2     		uxtb	r0, r0
 626              		.loc 1 217 1 view .LVU180
 627 0066 49B0     		add	sp, sp, #292
 628              		.cfi_remember_state
 629              		.cfi_def_cfa_offset 20
 630              		@ sp needed
 631 0068 F0BD     		pop	{r4, r5, r6, r7, pc}
 632              	.LVL60:
 633              	.L35:
 634              		.cfi_restore_state
 181:Drivers/BSP/Components/vl53l8cx/modules/vl53l8cx_api.c **** 			res4x4, sizeof(res4x4));
 635              		.loc 1 181 3 is_stmt 1 view .LVU181
 181:Drivers/BSP/Components/vl53l8cx/modules/vl53l8cx_api.c **** 			res4x4, sizeof(res4x4));
 636              		.loc 1 181 9 is_stmt 0 view .LVU182
 637 006a 46AB     		add	r3, sp, #280
 638 006c 03CB     		ldmia	r3!, {r0, r1}
 639 006e C4F81805 		str	r0, [r4, #1304]	@ unaligned
 640 0072 C4F81C15 		str	r1, [r4, #1308]	@ unaligned
 183:Drivers/BSP/Components/vl53l8cx/modules/vl53l8cx_api.c **** 			dss_4x4, sizeof(dss_4x4));
 641              		.loc 1 183 3 is_stmt 1 view .LVU183
 183:Drivers/BSP/Components/vl53l8cx/modules/vl53l8cx_api.c **** 			dss_4x4, sizeof(dss_4x4));
 642              		.loc 1 183 9 is_stmt 0 view .LVU184
 643 0076 44AB     		add	r3, sp, #272
 644 0078 03CB     		ldmia	r3!, {r0, r1}
 645 007a C4F83005 		str	r0, [r4, #1328]	@ unaligned
 646 007e C4F83415 		str	r1, [r4, #1332]	@ unaligned
 186:Drivers/BSP/Components/vl53l8cx/modules/vl53l8cx_api.c **** 		(void)memcpy(signal_grid, &(p_dev->temp_buffer[0x34]),
 647              		.loc 1 186 3 is_stmt 1 view .LVU185
 648 0082 4FF44271 		mov	r1, #776
 649 0086 2846     		mov	r0, r5
 650 0088 FFF7FEFF 		bl	VL53L8CX_SwapBuffer
 651              	.LVL61:
 187:Drivers/BSP/Components/vl53l8cx/modules/vl53l8cx_api.c **** 			sizeof(signal_grid));
 652              		.loc 1 187 3 view .LVU186
 187:Drivers/BSP/Components/vl53l8cx/modules/vl53l8cx_api.c **** 			sizeof(signal_grid));
 653              		.loc 1 187 29 is_stmt 0 view .LVU187
 654 008c 04F24456 		addw	r6, r4, #1348
 187:Drivers/BSP/Components/vl53l8cx/modules/vl53l8cx_api.c **** 			sizeof(signal_grid));
 655              		.loc 1 187 9 view .LVU188
 656 0090 4FF48072 		mov	r2, #256
 657 0094 3146     		mov	r1, r6
 658 0096 03A8     		add	r0, sp, #12
 659 0098 FFF7FEFF 		bl	memcpy
ARM GAS  C:\Temp\cc1zxvPB.s 			page 18


 660              	.LVL62:
 190:Drivers/BSP/Components/vl53l8cx/modules/vl53l8cx_api.c **** 		{
 661              		.loc 1 190 3 is_stmt 1 view .LVU189
 190:Drivers/BSP/Components/vl53l8cx/modules/vl53l8cx_api.c **** 		{
 662              		.loc 1 190 10 is_stmt 0 view .LVU190
 663 009c 4FF0000E 		mov	lr, #0
 190:Drivers/BSP/Components/vl53l8cx/modules/vl53l8cx_api.c **** 		{
 664              		.loc 1 190 3 view .LVU191
 665 00a0 20E0     		b	.L30
 666              	.LVL63:
 667              	.L31:
 194:Drivers/BSP/Components/vl53l8cx/modules/vl53l8cx_api.c **** 				(signal_grid[(2*i)+(16*j)+0]
 668              		.loc 1 194 5 is_stmt 1 discriminator 3 view .LVU192
 195:Drivers/BSP/Components/vl53l8cx/modules/vl53l8cx_api.c **** 				+ signal_grid[(2*i)+(16*j)+1]
 669              		.loc 1 195 23 is_stmt 0 discriminator 3 view .LVU193
 670 00a2 02EBCE0C 		add	ip, r2, lr, lsl #3
 195:Drivers/BSP/Components/vl53l8cx/modules/vl53l8cx_api.c **** 				+ signal_grid[(2*i)+(16*j)+1]
 671              		.loc 1 195 30 discriminator 3 view .LVU194
 672 00a6 4FEA4C00 		lsl	r0, ip, #1
 195:Drivers/BSP/Components/vl53l8cx/modules/vl53l8cx_api.c **** 				+ signal_grid[(2*i)+(16*j)+1]
 673              		.loc 1 195 17 discriminator 3 view .LVU195
 674 00aa 03A9     		add	r1, sp, #12
 675 00ac 51F82030 		ldr	r3, [r1, r0, lsl #2]
 196:Drivers/BSP/Components/vl53l8cx/modules/vl53l8cx_api.c **** 				+ signal_grid[(2*i)+(16*j)+8]
 676              		.loc 1 196 31 discriminator 3 view .LVU196
 677 00b0 471C     		adds	r7, r0, #1
 196:Drivers/BSP/Components/vl53l8cx/modules/vl53l8cx_api.c **** 				+ signal_grid[(2*i)+(16*j)+8]
 678              		.loc 1 196 18 discriminator 3 view .LVU197
 679 00b2 51F82770 		ldr	r7, [r1, r7, lsl #2]
 196:Drivers/BSP/Components/vl53l8cx/modules/vl53l8cx_api.c **** 				+ signal_grid[(2*i)+(16*j)+8]
 680              		.loc 1 196 5 discriminator 3 view .LVU198
 681 00b6 3B44     		add	r3, r3, r7
 197:Drivers/BSP/Components/vl53l8cx/modules/vl53l8cx_api.c **** 				+ signal_grid[(2*i)+(16*j)+9])/(uint32_t)4;
 682              		.loc 1 197 31 discriminator 3 view .LVU199
 683 00b8 0CF1040C 		add	ip, ip, #4
 197:Drivers/BSP/Components/vl53l8cx/modules/vl53l8cx_api.c **** 				+ signal_grid[(2*i)+(16*j)+9])/(uint32_t)4;
 684              		.loc 1 197 18 discriminator 3 view .LVU200
 685 00bc 51F83C70 		ldr	r7, [r1, ip, lsl #3]
 197:Drivers/BSP/Components/vl53l8cx/modules/vl53l8cx_api.c **** 				+ signal_grid[(2*i)+(16*j)+9])/(uint32_t)4;
 686              		.loc 1 197 5 discriminator 3 view .LVU201
 687 00c0 3B44     		add	r3, r3, r7
 198:Drivers/BSP/Components/vl53l8cx/modules/vl53l8cx_api.c **** 			}
 688              		.loc 1 198 31 discriminator 3 view .LVU202
 689 00c2 0930     		adds	r0, r0, #9
 198:Drivers/BSP/Components/vl53l8cx/modules/vl53l8cx_api.c **** 			}
 690              		.loc 1 198 18 discriminator 3 view .LVU203
 691 00c4 51F82000 		ldr	r0, [r1, r0, lsl #2]
 198:Drivers/BSP/Components/vl53l8cx/modules/vl53l8cx_api.c **** 			}
 692              		.loc 1 198 5 discriminator 3 view .LVU204
 693 00c8 0344     		add	r3, r3, r0
 194:Drivers/BSP/Components/vl53l8cx/modules/vl53l8cx_api.c **** 				(signal_grid[(2*i)+(16*j)+0]
 694              		.loc 1 194 18 discriminator 3 view .LVU205
 695 00ca 02EB8E00 		add	r0, r2, lr, lsl #2
 198:Drivers/BSP/Components/vl53l8cx/modules/vl53l8cx_api.c **** 			}
 696              		.loc 1 198 35 discriminator 3 view .LVU206
 697 00ce 9B08     		lsrs	r3, r3, #2
 194:Drivers/BSP/Components/vl53l8cx/modules/vl53l8cx_api.c **** 				(signal_grid[(2*i)+(16*j)+0]
ARM GAS  C:\Temp\cc1zxvPB.s 			page 19


 698              		.loc 1 194 26 discriminator 3 view .LVU207
 699 00d0 41F82030 		str	r3, [r1, r0, lsl #2]
 192:Drivers/BSP/Components/vl53l8cx/modules/vl53l8cx_api.c **** 			{
 700              		.loc 1 192 33 is_stmt 1 discriminator 3 view .LVU208
 701 00d4 0132     		adds	r2, r2, #1
 702              	.LVL64:
 192:Drivers/BSP/Components/vl53l8cx/modules/vl53l8cx_api.c **** 			{
 703              		.loc 1 192 33 is_stmt 0 discriminator 3 view .LVU209
 704 00d6 52B2     		sxtb	r2, r2
 705              	.LVL65:
 706              	.L32:
 192:Drivers/BSP/Components/vl53l8cx/modules/vl53l8cx_api.c **** 			{
 707              		.loc 1 192 18 is_stmt 1 discriminator 1 view .LVU210
 708 00d8 032A     		cmp	r2, #3
 709 00da E2DD     		ble	.L31
 190:Drivers/BSP/Components/vl53l8cx/modules/vl53l8cx_api.c **** 		{
 710              		.loc 1 190 31 discriminator 2 view .LVU211
 711 00dc 0EF1010E 		add	lr, lr, #1
 712              	.LVL66:
 190:Drivers/BSP/Components/vl53l8cx/modules/vl53l8cx_api.c **** 		{
 713              		.loc 1 190 31 is_stmt 0 discriminator 2 view .LVU212
 714 00e0 4FFA8EFE 		sxtb	lr, lr
 715              	.LVL67:
 716              	.L30:
 190:Drivers/BSP/Components/vl53l8cx/modules/vl53l8cx_api.c **** 		{
 717              		.loc 1 190 17 is_stmt 1 discriminator 1 view .LVU213
 718 00e4 BEF1030F 		cmp	lr, #3
 719 00e8 01DC     		bgt	.L36
 192:Drivers/BSP/Components/vl53l8cx/modules/vl53l8cx_api.c **** 			{
 720              		.loc 1 192 11 is_stmt 0 view .LVU214
 721 00ea 0022     		movs	r2, #0
 722 00ec F4E7     		b	.L32
 723              	.L36:
 201:Drivers/BSP/Components/vl53l8cx/modules/vl53l8cx_api.c **** 	    (void)memcpy(&(p_dev->temp_buffer[0x34]),
 724              		.loc 1 201 6 is_stmt 1 view .LVU215
 201:Drivers/BSP/Components/vl53l8cx/modules/vl53l8cx_api.c **** 	    (void)memcpy(&(p_dev->temp_buffer[0x34]),
 725              		.loc 1 201 12 is_stmt 0 view .LVU216
 726 00ee C022     		movs	r2, #192
 727 00f0 0021     		movs	r1, #0
 728 00f2 13A8     		add	r0, sp, #76
 729 00f4 FFF7FEFF 		bl	memset
 730              	.LVL68:
 202:Drivers/BSP/Components/vl53l8cx/modules/vl53l8cx_api.c ****                   signal_grid, sizeof(signal_grid));
 731              		.loc 1 202 6 is_stmt 1 view .LVU217
 202:Drivers/BSP/Components/vl53l8cx/modules/vl53l8cx_api.c ****                   signal_grid, sizeof(signal_grid));
 732              		.loc 1 202 12 is_stmt 0 view .LVU218
 733 00f8 4FF48072 		mov	r2, #256
 734 00fc 03A9     		add	r1, sp, #12
 735 00fe 3046     		mov	r0, r6
 736 0100 FFF7FEFF 		bl	memcpy
 737              	.LVL69:
 204:Drivers/BSP/Components/vl53l8cx/modules/vl53l8cx_api.c **** 	    (void)memcpy(&(p_dev->temp_buffer[0x134]),
 738              		.loc 1 204 6 is_stmt 1 view .LVU219
 739 0104 4FF44271 		mov	r1, #776
 740 0108 2846     		mov	r0, r5
 741 010a FFF7FEFF 		bl	VL53L8CX_SwapBuffer
 742              	.LVL70:
ARM GAS  C:\Temp\cc1zxvPB.s 			page 20


 205:Drivers/BSP/Components/vl53l8cx/modules/vl53l8cx_api.c **** 	    profile_4x4, sizeof(profile_4x4));
 743              		.loc 1 205 6 view .LVU220
 205:Drivers/BSP/Components/vl53l8cx/modules/vl53l8cx_api.c **** 	    profile_4x4, sizeof(profile_4x4));
 744              		.loc 1 205 12 is_stmt 0 view .LVU221
 745 010e 439B     		ldr	r3, [sp, #268]
 746 0110 C4F84436 		str	r3, [r4, #1604]	@ unaligned
 207:Drivers/BSP/Components/vl53l8cx/modules/vl53l8cx_api.c ****                          (uint32_t)4*sizeof(uint8_t));
 747              		.loc 1 207 6 is_stmt 1 view .LVU222
 207:Drivers/BSP/Components/vl53l8cx/modules/vl53l8cx_api.c ****                          (uint32_t)4*sizeof(uint8_t));
 748              		.loc 1 207 12 is_stmt 0 view .LVU223
 749 0114 0023     		movs	r3, #0
 750 0116 C4F88835 		str	r3, [r4, #1416]	@ unaligned
 751 011a 8EE7     		b	.L29
 752              	.L38:
 753              		.align	2
 754              	.L37:
 755 011c 00000000 		.word	.LC4
 756 0120 10000000 		.word	.LANCHOR0+16
 757 0124 A0FC0100 		.word	130208
 758              		.cfi_endproc
 759              	.LFE3:
 761              		.section	.text.vl53l8cx_is_alive,"ax",%progbits
 762              		.align	1
 763              		.global	vl53l8cx_is_alive
 764              		.syntax unified
 765              		.thumb
 766              		.thumb_func
 768              	vl53l8cx_is_alive:
 769              	.LVL71:
 770              	.LFB4:
 218:Drivers/BSP/Components/vl53l8cx/modules/vl53l8cx_api.c **** 
 219:Drivers/BSP/Components/vl53l8cx/modules/vl53l8cx_api.c **** uint8_t vl53l8cx_is_alive(
 220:Drivers/BSP/Components/vl53l8cx/modules/vl53l8cx_api.c **** 		VL53L8CX_Configuration		*p_dev,
 221:Drivers/BSP/Components/vl53l8cx/modules/vl53l8cx_api.c **** 		uint8_t				*p_is_alive)
 222:Drivers/BSP/Components/vl53l8cx/modules/vl53l8cx_api.c **** {
 771              		.loc 1 222 1 is_stmt 1 view -0
 772              		.cfi_startproc
 773              		@ args = 0, pretend = 0, frame = 8
 774              		@ frame_needed = 0, uses_anonymous_args = 0
 775              		.loc 1 222 1 is_stmt 0 view .LVU225
 776 0000 70B5     		push	{r4, r5, r6, lr}
 777              		.cfi_def_cfa_offset 16
 778              		.cfi_offset 4, -16
 779              		.cfi_offset 5, -12
 780              		.cfi_offset 6, -8
 781              		.cfi_offset 14, -4
 782 0002 82B0     		sub	sp, sp, #8
 783              		.cfi_def_cfa_offset 24
 784 0004 0646     		mov	r6, r0
 785 0006 0D46     		mov	r5, r1
 223:Drivers/BSP/Components/vl53l8cx/modules/vl53l8cx_api.c **** 	uint8_t status = VL53L8CX_STATUS_OK;
 786              		.loc 1 223 2 is_stmt 1 view .LVU226
 787              	.LVL72:
 224:Drivers/BSP/Components/vl53l8cx/modules/vl53l8cx_api.c **** 	uint8_t device_id, revision_id;
 788              		.loc 1 224 2 view .LVU227
 225:Drivers/BSP/Components/vl53l8cx/modules/vl53l8cx_api.c **** 
 226:Drivers/BSP/Components/vl53l8cx/modules/vl53l8cx_api.c **** 	status |= VL53L8CX_WrByte(&(p_dev->platform), 0x7fff, 0x00);
ARM GAS  C:\Temp\cc1zxvPB.s 			page 21


 789              		.loc 1 226 2 view .LVU228
 790              		.loc 1 226 12 is_stmt 0 view .LVU229
 791 0008 0022     		movs	r2, #0
 792 000a 47F6FF71 		movw	r1, #32767
 793              	.LVL73:
 794              		.loc 1 226 12 view .LVU230
 795 000e FFF7FEFF 		bl	VL53L8CX_WrByte
 796              	.LVL74:
 797              		.loc 1 226 12 view .LVU231
 798 0012 0446     		mov	r4, r0
 799              	.LVL75:
 227:Drivers/BSP/Components/vl53l8cx/modules/vl53l8cx_api.c **** 	status |= VL53L8CX_RdByte(&(p_dev->platform), 0, &device_id);
 800              		.loc 1 227 2 is_stmt 1 view .LVU232
 801              		.loc 1 227 12 is_stmt 0 view .LVU233
 802 0014 0DF10702 		add	r2, sp, #7
 803 0018 0021     		movs	r1, #0
 804 001a 3046     		mov	r0, r6
 805 001c FFF7FEFF 		bl	VL53L8CX_RdByte
 806              	.LVL76:
 807              		.loc 1 227 9 view .LVU234
 808 0020 0443     		orrs	r4, r4, r0
 809              	.LVL77:
 810              		.loc 1 227 9 view .LVU235
 811 0022 E4B2     		uxtb	r4, r4
 812              	.LVL78:
 228:Drivers/BSP/Components/vl53l8cx/modules/vl53l8cx_api.c **** 	status |= VL53L8CX_RdByte(&(p_dev->platform), 1, &revision_id);
 813              		.loc 1 228 2 is_stmt 1 view .LVU236
 814              		.loc 1 228 12 is_stmt 0 view .LVU237
 815 0024 0DF10602 		add	r2, sp, #6
 816 0028 0121     		movs	r1, #1
 817 002a 3046     		mov	r0, r6
 818 002c FFF7FEFF 		bl	VL53L8CX_RdByte
 819              	.LVL79:
 820              		.loc 1 228 9 view .LVU238
 821 0030 0443     		orrs	r4, r4, r0
 822              	.LVL80:
 823              		.loc 1 228 9 view .LVU239
 824 0032 E4B2     		uxtb	r4, r4
 825              	.LVL81:
 229:Drivers/BSP/Components/vl53l8cx/modules/vl53l8cx_api.c **** 	status |= VL53L8CX_WrByte(&(p_dev->platform), 0x7fff, 0x02);
 826              		.loc 1 229 2 is_stmt 1 view .LVU240
 827              		.loc 1 229 12 is_stmt 0 view .LVU241
 828 0034 0222     		movs	r2, #2
 829 0036 47F6FF71 		movw	r1, #32767
 830 003a 3046     		mov	r0, r6
 831 003c FFF7FEFF 		bl	VL53L8CX_WrByte
 832              	.LVL82:
 833              		.loc 1 229 9 view .LVU242
 834 0040 2043     		orrs	r0, r0, r4
 835 0042 C0B2     		uxtb	r0, r0
 836              	.LVL83:
 230:Drivers/BSP/Components/vl53l8cx/modules/vl53l8cx_api.c **** 
 231:Drivers/BSP/Components/vl53l8cx/modules/vl53l8cx_api.c **** 	if((device_id == (uint8_t)0xF0) && (revision_id == (uint8_t)0x0C))
 837              		.loc 1 231 2 is_stmt 1 view .LVU243
 838              		.loc 1 231 16 is_stmt 0 view .LVU244
 839 0044 9DF80730 		ldrb	r3, [sp, #7]	@ zero_extendqisi2
 840              		.loc 1 231 4 view .LVU245
ARM GAS  C:\Temp\cc1zxvPB.s 			page 22


 841 0048 F02B     		cmp	r3, #240
 842 004a 03D0     		beq	.L43
 843              	.L40:
 232:Drivers/BSP/Components/vl53l8cx/modules/vl53l8cx_api.c **** 	{
 233:Drivers/BSP/Components/vl53l8cx/modules/vl53l8cx_api.c **** 		*p_is_alive = 1;
 234:Drivers/BSP/Components/vl53l8cx/modules/vl53l8cx_api.c **** 	}
 235:Drivers/BSP/Components/vl53l8cx/modules/vl53l8cx_api.c **** 	else
 236:Drivers/BSP/Components/vl53l8cx/modules/vl53l8cx_api.c **** 	{
 237:Drivers/BSP/Components/vl53l8cx/modules/vl53l8cx_api.c **** 		*p_is_alive = 0;
 844              		.loc 1 237 3 is_stmt 1 view .LVU246
 845              		.loc 1 237 15 is_stmt 0 view .LVU247
 846 004c 0023     		movs	r3, #0
 847 004e 2B70     		strb	r3, [r5]
 848              	.L41:
 238:Drivers/BSP/Components/vl53l8cx/modules/vl53l8cx_api.c **** 	}
 239:Drivers/BSP/Components/vl53l8cx/modules/vl53l8cx_api.c **** 
 240:Drivers/BSP/Components/vl53l8cx/modules/vl53l8cx_api.c **** 	return status;
 849              		.loc 1 240 2 is_stmt 1 view .LVU248
 241:Drivers/BSP/Components/vl53l8cx/modules/vl53l8cx_api.c **** }
 850              		.loc 1 241 1 is_stmt 0 view .LVU249
 851 0050 02B0     		add	sp, sp, #8
 852              		.cfi_remember_state
 853              		.cfi_def_cfa_offset 16
 854              		@ sp needed
 855 0052 70BD     		pop	{r4, r5, r6, pc}
 856              	.LVL84:
 857              	.L43:
 858              		.cfi_restore_state
 231:Drivers/BSP/Components/vl53l8cx/modules/vl53l8cx_api.c **** 	{
 859              		.loc 1 231 50 discriminator 1 view .LVU250
 860 0054 9DF80630 		ldrb	r3, [sp, #6]	@ zero_extendqisi2
 231:Drivers/BSP/Components/vl53l8cx/modules/vl53l8cx_api.c **** 	{
 861              		.loc 1 231 34 discriminator 1 view .LVU251
 862 0058 0C2B     		cmp	r3, #12
 863 005a F7D1     		bne	.L40
 233:Drivers/BSP/Components/vl53l8cx/modules/vl53l8cx_api.c **** 	}
 864              		.loc 1 233 3 is_stmt 1 view .LVU252
 233:Drivers/BSP/Components/vl53l8cx/modules/vl53l8cx_api.c **** 	}
 865              		.loc 1 233 15 is_stmt 0 view .LVU253
 866 005c 0123     		movs	r3, #1
 867 005e 2B70     		strb	r3, [r5]
 868 0060 F6E7     		b	.L41
 869              		.cfi_endproc
 870              	.LFE4:
 872              		.section	.text.vl53l8cx_set_i2c_address,"ax",%progbits
 873              		.align	1
 874              		.global	vl53l8cx_set_i2c_address
 875              		.syntax unified
 876              		.thumb
 877              		.thumb_func
 879              	vl53l8cx_set_i2c_address:
 880              	.LVL85:
 881              	.LFB6:
 242:Drivers/BSP/Components/vl53l8cx/modules/vl53l8cx_api.c **** 
 243:Drivers/BSP/Components/vl53l8cx/modules/vl53l8cx_api.c **** uint8_t vl53l8cx_init(
 244:Drivers/BSP/Components/vl53l8cx/modules/vl53l8cx_api.c **** 		VL53L8CX_Configuration		*p_dev)
 245:Drivers/BSP/Components/vl53l8cx/modules/vl53l8cx_api.c **** {
ARM GAS  C:\Temp\cc1zxvPB.s 			page 23


 246:Drivers/BSP/Components/vl53l8cx/modules/vl53l8cx_api.c **** 	uint8_t tmp, status = VL53L8CX_STATUS_OK;
 247:Drivers/BSP/Components/vl53l8cx/modules/vl53l8cx_api.c **** 	uint8_t pipe_ctrl[] = {VL53L8CX_NB_TARGET_PER_ZONE, 0x00, 0x01, 0x00};
 248:Drivers/BSP/Components/vl53l8cx/modules/vl53l8cx_api.c **** 	uint32_t single_range = 0x01;
 249:Drivers/BSP/Components/vl53l8cx/modules/vl53l8cx_api.c **** 	uint32_t crc_checksum = 0x00;
 250:Drivers/BSP/Components/vl53l8cx/modules/vl53l8cx_api.c **** 
 251:Drivers/BSP/Components/vl53l8cx/modules/vl53l8cx_api.c **** 	p_dev->default_xtalk = (uint8_t*)VL53L8CX_DEFAULT_XTALK;
 252:Drivers/BSP/Components/vl53l8cx/modules/vl53l8cx_api.c **** 	p_dev->default_configuration = (uint8_t*)VL53L8CX_DEFAULT_CONFIGURATION;
 253:Drivers/BSP/Components/vl53l8cx/modules/vl53l8cx_api.c **** 	p_dev->is_auto_stop_enabled = (uint8_t)0x0;
 254:Drivers/BSP/Components/vl53l8cx/modules/vl53l8cx_api.c **** 
 255:Drivers/BSP/Components/vl53l8cx/modules/vl53l8cx_api.c **** 	/* SW reboot sequence */
 256:Drivers/BSP/Components/vl53l8cx/modules/vl53l8cx_api.c **** 	status |= VL53L8CX_WrByte(&(p_dev->platform), 0x7fff, 0x00);
 257:Drivers/BSP/Components/vl53l8cx/modules/vl53l8cx_api.c **** 	status |= VL53L8CX_WrByte(&(p_dev->platform), 0x0009, 0x04);
 258:Drivers/BSP/Components/vl53l8cx/modules/vl53l8cx_api.c **** 	status |= VL53L8CX_WrByte(&(p_dev->platform), 0x000F, 0x40);
 259:Drivers/BSP/Components/vl53l8cx/modules/vl53l8cx_api.c **** 	status |= VL53L8CX_WrByte(&(p_dev->platform), 0x000A, 0x03);
 260:Drivers/BSP/Components/vl53l8cx/modules/vl53l8cx_api.c **** 	status |= VL53L8CX_RdByte(&(p_dev->platform), 0x7FFF, &tmp);
 261:Drivers/BSP/Components/vl53l8cx/modules/vl53l8cx_api.c **** 	status |= VL53L8CX_WrByte(&(p_dev->platform), 0x000C, 0x01);
 262:Drivers/BSP/Components/vl53l8cx/modules/vl53l8cx_api.c **** 
 263:Drivers/BSP/Components/vl53l8cx/modules/vl53l8cx_api.c **** 	status |= VL53L8CX_WrByte(&(p_dev->platform), 0x0101, 0x00);
 264:Drivers/BSP/Components/vl53l8cx/modules/vl53l8cx_api.c **** 	status |= VL53L8CX_WrByte(&(p_dev->platform), 0x0102, 0x00);
 265:Drivers/BSP/Components/vl53l8cx/modules/vl53l8cx_api.c **** 	status |= VL53L8CX_WrByte(&(p_dev->platform), 0x010A, 0x01);
 266:Drivers/BSP/Components/vl53l8cx/modules/vl53l8cx_api.c **** 	status |= VL53L8CX_WrByte(&(p_dev->platform), 0x4002, 0x01);
 267:Drivers/BSP/Components/vl53l8cx/modules/vl53l8cx_api.c **** 	status |= VL53L8CX_WrByte(&(p_dev->platform), 0x4002, 0x00);
 268:Drivers/BSP/Components/vl53l8cx/modules/vl53l8cx_api.c **** 	status |= VL53L8CX_WrByte(&(p_dev->platform), 0x010A, 0x03);
 269:Drivers/BSP/Components/vl53l8cx/modules/vl53l8cx_api.c **** 	status |= VL53L8CX_WrByte(&(p_dev->platform), 0x0103, 0x01);
 270:Drivers/BSP/Components/vl53l8cx/modules/vl53l8cx_api.c **** 	status |= VL53L8CX_WrByte(&(p_dev->platform), 0x000C, 0x00);
 271:Drivers/BSP/Components/vl53l8cx/modules/vl53l8cx_api.c **** 	status |= VL53L8CX_WrByte(&(p_dev->platform), 0x000F, 0x43);
 272:Drivers/BSP/Components/vl53l8cx/modules/vl53l8cx_api.c **** 	status |= VL53L8CX_WaitMs(&(p_dev->platform), 1);
 273:Drivers/BSP/Components/vl53l8cx/modules/vl53l8cx_api.c **** 
 274:Drivers/BSP/Components/vl53l8cx/modules/vl53l8cx_api.c **** 	status |= VL53L8CX_WrByte(&(p_dev->platform), 0x000F, 0x40);
 275:Drivers/BSP/Components/vl53l8cx/modules/vl53l8cx_api.c **** 	status |= VL53L8CX_WrByte(&(p_dev->platform), 0x000A, 0x01);
 276:Drivers/BSP/Components/vl53l8cx/modules/vl53l8cx_api.c **** 	status |= VL53L8CX_WaitMs(&(p_dev->platform), 100);
 277:Drivers/BSP/Components/vl53l8cx/modules/vl53l8cx_api.c **** 
 278:Drivers/BSP/Components/vl53l8cx/modules/vl53l8cx_api.c **** 	/* Wait for sensor booted (several ms required to get sensor ready ) */
 279:Drivers/BSP/Components/vl53l8cx/modules/vl53l8cx_api.c **** 	status |= VL53L8CX_WrByte(&(p_dev->platform), 0x7fff, 0x00);
 280:Drivers/BSP/Components/vl53l8cx/modules/vl53l8cx_api.c **** 	status |= _vl53l8cx_poll_for_answer(p_dev, 1, 0, 0x06, 0xff, 1);
 281:Drivers/BSP/Components/vl53l8cx/modules/vl53l8cx_api.c **** 	if(status != (uint8_t)0){
 282:Drivers/BSP/Components/vl53l8cx/modules/vl53l8cx_api.c **** 		goto exit;
 283:Drivers/BSP/Components/vl53l8cx/modules/vl53l8cx_api.c **** 	}
 284:Drivers/BSP/Components/vl53l8cx/modules/vl53l8cx_api.c **** 
 285:Drivers/BSP/Components/vl53l8cx/modules/vl53l8cx_api.c **** 	status |= VL53L8CX_WrByte(&(p_dev->platform), 0x000E, 0x01);
 286:Drivers/BSP/Components/vl53l8cx/modules/vl53l8cx_api.c **** 	status |= VL53L8CX_WrByte(&(p_dev->platform), 0x7fff, 0x02);
 287:Drivers/BSP/Components/vl53l8cx/modules/vl53l8cx_api.c **** 
 288:Drivers/BSP/Components/vl53l8cx/modules/vl53l8cx_api.c **** 	/* Enable FW access */
 289:Drivers/BSP/Components/vl53l8cx/modules/vl53l8cx_api.c **** 	status |= VL53L8CX_WrByte(&(p_dev->platform), 0x7fff, 0x01);
 290:Drivers/BSP/Components/vl53l8cx/modules/vl53l8cx_api.c **** 	status |= VL53L8CX_WrByte(&(p_dev->platform), 0x06, 0x01);
 291:Drivers/BSP/Components/vl53l8cx/modules/vl53l8cx_api.c **** 	status |= _vl53l8cx_poll_for_answer(p_dev, 1, 0, 0x21, 0xFF, 0x4);
 292:Drivers/BSP/Components/vl53l8cx/modules/vl53l8cx_api.c **** 
 293:Drivers/BSP/Components/vl53l8cx/modules/vl53l8cx_api.c **** 	status |= VL53L8CX_WrByte(&(p_dev->platform), 0x7fff, 0x00);
 294:Drivers/BSP/Components/vl53l8cx/modules/vl53l8cx_api.c **** 
 295:Drivers/BSP/Components/vl53l8cx/modules/vl53l8cx_api.c **** 	/* Enable host access to GO1 */
 296:Drivers/BSP/Components/vl53l8cx/modules/vl53l8cx_api.c **** 	status |= VL53L8CX_RdByte(&(p_dev->platform), 0x7fff, &tmp);
 297:Drivers/BSP/Components/vl53l8cx/modules/vl53l8cx_api.c **** 	status |= VL53L8CX_WrByte(&(p_dev->platform), 0x0C, 0x01);
 298:Drivers/BSP/Components/vl53l8cx/modules/vl53l8cx_api.c **** 
 299:Drivers/BSP/Components/vl53l8cx/modules/vl53l8cx_api.c **** 	/* Power ON status */
 300:Drivers/BSP/Components/vl53l8cx/modules/vl53l8cx_api.c **** 	status |= VL53L8CX_WrByte(&(p_dev->platform), 0x7fff, 0x00);
 301:Drivers/BSP/Components/vl53l8cx/modules/vl53l8cx_api.c **** 	status |= VL53L8CX_WrByte(&(p_dev->platform), 0x101, 0x00);
 302:Drivers/BSP/Components/vl53l8cx/modules/vl53l8cx_api.c **** 	status |= VL53L8CX_WrByte(&(p_dev->platform), 0x102, 0x00);
ARM GAS  C:\Temp\cc1zxvPB.s 			page 24


 303:Drivers/BSP/Components/vl53l8cx/modules/vl53l8cx_api.c **** 	status |= VL53L8CX_WrByte(&(p_dev->platform), 0x010A, 0x01);
 304:Drivers/BSP/Components/vl53l8cx/modules/vl53l8cx_api.c **** 	status |= VL53L8CX_WrByte(&(p_dev->platform), 0x4002, 0x01);
 305:Drivers/BSP/Components/vl53l8cx/modules/vl53l8cx_api.c **** 	status |= VL53L8CX_WrByte(&(p_dev->platform), 0x4002, 0x00);
 306:Drivers/BSP/Components/vl53l8cx/modules/vl53l8cx_api.c **** 	status |= VL53L8CX_WrByte(&(p_dev->platform), 0x010A, 0x03);
 307:Drivers/BSP/Components/vl53l8cx/modules/vl53l8cx_api.c **** 	status |= VL53L8CX_WrByte(&(p_dev->platform), 0x103, 0x01);
 308:Drivers/BSP/Components/vl53l8cx/modules/vl53l8cx_api.c **** 	status |= VL53L8CX_WrByte(&(p_dev->platform), 0x400F, 0x00);
 309:Drivers/BSP/Components/vl53l8cx/modules/vl53l8cx_api.c **** 	status |= VL53L8CX_WrByte(&(p_dev->platform), 0x21A, 0x43);
 310:Drivers/BSP/Components/vl53l8cx/modules/vl53l8cx_api.c **** 	status |= VL53L8CX_WrByte(&(p_dev->platform), 0x21A, 0x03);
 311:Drivers/BSP/Components/vl53l8cx/modules/vl53l8cx_api.c **** 	status |= VL53L8CX_WrByte(&(p_dev->platform), 0x21A, 0x01);
 312:Drivers/BSP/Components/vl53l8cx/modules/vl53l8cx_api.c **** 	status |= VL53L8CX_WrByte(&(p_dev->platform), 0x21A, 0x00);
 313:Drivers/BSP/Components/vl53l8cx/modules/vl53l8cx_api.c **** 	status |= VL53L8CX_WrByte(&(p_dev->platform), 0x219, 0x00);
 314:Drivers/BSP/Components/vl53l8cx/modules/vl53l8cx_api.c **** 	status |= VL53L8CX_WrByte(&(p_dev->platform), 0x21B, 0x00);
 315:Drivers/BSP/Components/vl53l8cx/modules/vl53l8cx_api.c **** 
 316:Drivers/BSP/Components/vl53l8cx/modules/vl53l8cx_api.c **** 	/* Wake up MCU */
 317:Drivers/BSP/Components/vl53l8cx/modules/vl53l8cx_api.c **** 	status |= VL53L8CX_WrByte(&(p_dev->platform), 0x7fff, 0x00);
 318:Drivers/BSP/Components/vl53l8cx/modules/vl53l8cx_api.c **** 	status |= VL53L8CX_RdByte(&(p_dev->platform), 0x7fff, &tmp);
 319:Drivers/BSP/Components/vl53l8cx/modules/vl53l8cx_api.c **** 	status |= VL53L8CX_WrByte(&(p_dev->platform), 0x7fff, 0x01);
 320:Drivers/BSP/Components/vl53l8cx/modules/vl53l8cx_api.c **** 
 321:Drivers/BSP/Components/vl53l8cx/modules/vl53l8cx_api.c **** 	/* Download FW into VL53L8CX */
 322:Drivers/BSP/Components/vl53l8cx/modules/vl53l8cx_api.c **** 	status |= VL53L8CX_WrByte(&(p_dev->platform), 0x7fff, 0x09);
 323:Drivers/BSP/Components/vl53l8cx/modules/vl53l8cx_api.c **** 	status |= VL53L8CX_WrMulti(&(p_dev->platform),0,
 324:Drivers/BSP/Components/vl53l8cx/modules/vl53l8cx_api.c **** 		(uint8_t*)&VL53L8CX_FIRMWARE[0],0x8000);
 325:Drivers/BSP/Components/vl53l8cx/modules/vl53l8cx_api.c **** 	status |= VL53L8CX_WrByte(&(p_dev->platform), 0x7fff, 0x0a);
 326:Drivers/BSP/Components/vl53l8cx/modules/vl53l8cx_api.c **** 	status |= VL53L8CX_WrMulti(&(p_dev->platform),0,
 327:Drivers/BSP/Components/vl53l8cx/modules/vl53l8cx_api.c **** 		(uint8_t*)&VL53L8CX_FIRMWARE[0x8000],0x8000);
 328:Drivers/BSP/Components/vl53l8cx/modules/vl53l8cx_api.c **** 	status |= VL53L8CX_WrByte(&(p_dev->platform), 0x7fff, 0x0b);
 329:Drivers/BSP/Components/vl53l8cx/modules/vl53l8cx_api.c **** 	status |= VL53L8CX_WrMulti(&(p_dev->platform),0,
 330:Drivers/BSP/Components/vl53l8cx/modules/vl53l8cx_api.c **** 		(uint8_t*)&VL53L8CX_FIRMWARE[0x10000],0x5000);
 331:Drivers/BSP/Components/vl53l8cx/modules/vl53l8cx_api.c **** 	status |= VL53L8CX_WrByte(&(p_dev->platform), 0x7fff, 0x01);
 332:Drivers/BSP/Components/vl53l8cx/modules/vl53l8cx_api.c **** 
 333:Drivers/BSP/Components/vl53l8cx/modules/vl53l8cx_api.c **** 	/* Check if FW correctly downloaded */
 334:Drivers/BSP/Components/vl53l8cx/modules/vl53l8cx_api.c **** 	status |= VL53L8CX_WrByte(&(p_dev->platform), 0x7fff, 0x01);
 335:Drivers/BSP/Components/vl53l8cx/modules/vl53l8cx_api.c **** 	status |= VL53L8CX_WrByte(&(p_dev->platform), 0x06, 0x03);
 336:Drivers/BSP/Components/vl53l8cx/modules/vl53l8cx_api.c **** 
 337:Drivers/BSP/Components/vl53l8cx/modules/vl53l8cx_api.c **** 	status |= VL53L8CX_WaitMs(&(p_dev->platform), 5);
 338:Drivers/BSP/Components/vl53l8cx/modules/vl53l8cx_api.c **** 	status |= VL53L8CX_WrByte(&(p_dev->platform), 0x7fff, 0x00);
 339:Drivers/BSP/Components/vl53l8cx/modules/vl53l8cx_api.c **** 	status |= VL53L8CX_RdByte(&(p_dev->platform), 0x7fff, &tmp);
 340:Drivers/BSP/Components/vl53l8cx/modules/vl53l8cx_api.c **** 	status |= VL53L8CX_WrByte(&(p_dev->platform), 0x0C, 0x01);
 341:Drivers/BSP/Components/vl53l8cx/modules/vl53l8cx_api.c **** 
 342:Drivers/BSP/Components/vl53l8cx/modules/vl53l8cx_api.c **** 	/* Reset MCU and wait boot */
 343:Drivers/BSP/Components/vl53l8cx/modules/vl53l8cx_api.c **** 	status |= VL53L8CX_WrByte(&(p_dev->platform), 0x7FFF, 0x00);
 344:Drivers/BSP/Components/vl53l8cx/modules/vl53l8cx_api.c **** 	status |= VL53L8CX_WrByte(&(p_dev->platform), 0x114, 0x00);
 345:Drivers/BSP/Components/vl53l8cx/modules/vl53l8cx_api.c **** 	status |= VL53L8CX_WrByte(&(p_dev->platform), 0x115, 0x00);
 346:Drivers/BSP/Components/vl53l8cx/modules/vl53l8cx_api.c **** 	status |= VL53L8CX_WrByte(&(p_dev->platform), 0x116, 0x42);
 347:Drivers/BSP/Components/vl53l8cx/modules/vl53l8cx_api.c **** 	status |= VL53L8CX_WrByte(&(p_dev->platform), 0x117, 0x00);
 348:Drivers/BSP/Components/vl53l8cx/modules/vl53l8cx_api.c **** 	status |= VL53L8CX_WrByte(&(p_dev->platform), 0x0B, 0x00);
 349:Drivers/BSP/Components/vl53l8cx/modules/vl53l8cx_api.c **** 	status |= VL53L8CX_RdByte(&(p_dev->platform), 0x7fff, &tmp);
 350:Drivers/BSP/Components/vl53l8cx/modules/vl53l8cx_api.c **** 	status |= VL53L8CX_WrByte(&(p_dev->platform), 0x0C, 0x00);
 351:Drivers/BSP/Components/vl53l8cx/modules/vl53l8cx_api.c **** 	status |= VL53L8CX_WrByte(&(p_dev->platform), 0x0B, 0x01);
 352:Drivers/BSP/Components/vl53l8cx/modules/vl53l8cx_api.c **** 
 353:Drivers/BSP/Components/vl53l8cx/modules/vl53l8cx_api.c **** 	status |= _vl53l8cx_poll_for_mcu_boot(p_dev);
 354:Drivers/BSP/Components/vl53l8cx/modules/vl53l8cx_api.c **** 	if(status != (uint8_t)0){
 355:Drivers/BSP/Components/vl53l8cx/modules/vl53l8cx_api.c **** 		goto exit;
 356:Drivers/BSP/Components/vl53l8cx/modules/vl53l8cx_api.c **** 	}
 357:Drivers/BSP/Components/vl53l8cx/modules/vl53l8cx_api.c **** 
 358:Drivers/BSP/Components/vl53l8cx/modules/vl53l8cx_api.c **** 	status |= VL53L8CX_WrByte(&(p_dev->platform), 0x7fff, 0x02);
 359:Drivers/BSP/Components/vl53l8cx/modules/vl53l8cx_api.c **** 
ARM GAS  C:\Temp\cc1zxvPB.s 			page 25


 360:Drivers/BSP/Components/vl53l8cx/modules/vl53l8cx_api.c **** 	/* Firmware checksum */
 361:Drivers/BSP/Components/vl53l8cx/modules/vl53l8cx_api.c **** 	status |= VL53L8CX_RdMulti(&(p_dev->platform), (uint16_t)(0x812FFC & 0xFFFF),
 362:Drivers/BSP/Components/vl53l8cx/modules/vl53l8cx_api.c **** 			p_dev->temp_buffer, 4);
 363:Drivers/BSP/Components/vl53l8cx/modules/vl53l8cx_api.c **** 	VL53L8CX_SwapBuffer(p_dev->temp_buffer, 4);
 364:Drivers/BSP/Components/vl53l8cx/modules/vl53l8cx_api.c **** 	memcpy((uint8_t*)&crc_checksum, &(p_dev->temp_buffer[0]), 4);
 365:Drivers/BSP/Components/vl53l8cx/modules/vl53l8cx_api.c **** 	if (crc_checksum != (uint32_t)0xc0b6c9e)
 366:Drivers/BSP/Components/vl53l8cx/modules/vl53l8cx_api.c **** 	{
 367:Drivers/BSP/Components/vl53l8cx/modules/vl53l8cx_api.c **** 		status |= VL53L8CX_STATUS_FW_CHECKSUM_FAIL;
 368:Drivers/BSP/Components/vl53l8cx/modules/vl53l8cx_api.c **** 		goto exit;
 369:Drivers/BSP/Components/vl53l8cx/modules/vl53l8cx_api.c **** 	}
 370:Drivers/BSP/Components/vl53l8cx/modules/vl53l8cx_api.c **** 
 371:Drivers/BSP/Components/vl53l8cx/modules/vl53l8cx_api.c **** 	/* Get offset NVM data and store them into the offset buffer */
 372:Drivers/BSP/Components/vl53l8cx/modules/vl53l8cx_api.c **** 	status |= VL53L8CX_WrMulti(&(p_dev->platform), 0x2fd8,
 373:Drivers/BSP/Components/vl53l8cx/modules/vl53l8cx_api.c **** 		(uint8_t*)VL53L8CX_GET_NVM_CMD, sizeof(VL53L8CX_GET_NVM_CMD));
 374:Drivers/BSP/Components/vl53l8cx/modules/vl53l8cx_api.c **** 	status |= _vl53l8cx_poll_for_answer(p_dev, 4, 0,
 375:Drivers/BSP/Components/vl53l8cx/modules/vl53l8cx_api.c **** 		VL53L8CX_UI_CMD_STATUS, 0xff, 2);
 376:Drivers/BSP/Components/vl53l8cx/modules/vl53l8cx_api.c **** 	status |= VL53L8CX_RdMulti(&(p_dev->platform), VL53L8CX_UI_CMD_START,
 377:Drivers/BSP/Components/vl53l8cx/modules/vl53l8cx_api.c **** 		p_dev->temp_buffer, VL53L8CX_NVM_DATA_SIZE);
 378:Drivers/BSP/Components/vl53l8cx/modules/vl53l8cx_api.c **** 	(void)memcpy(p_dev->offset_data, p_dev->temp_buffer,
 379:Drivers/BSP/Components/vl53l8cx/modules/vl53l8cx_api.c **** 		VL53L8CX_OFFSET_BUFFER_SIZE);
 380:Drivers/BSP/Components/vl53l8cx/modules/vl53l8cx_api.c **** 	status |= _vl53l8cx_send_offset_data(p_dev, VL53L8CX_RESOLUTION_4X4);
 381:Drivers/BSP/Components/vl53l8cx/modules/vl53l8cx_api.c **** 
 382:Drivers/BSP/Components/vl53l8cx/modules/vl53l8cx_api.c **** 	/* Set default Xtalk shape. Send Xtalk to sensor */
 383:Drivers/BSP/Components/vl53l8cx/modules/vl53l8cx_api.c **** 	(void)memcpy(p_dev->xtalk_data, (uint8_t*)VL53L8CX_DEFAULT_XTALK,
 384:Drivers/BSP/Components/vl53l8cx/modules/vl53l8cx_api.c **** 		VL53L8CX_XTALK_BUFFER_SIZE);
 385:Drivers/BSP/Components/vl53l8cx/modules/vl53l8cx_api.c **** 	status |= _vl53l8cx_send_xtalk_data(p_dev, VL53L8CX_RESOLUTION_4X4);
 386:Drivers/BSP/Components/vl53l8cx/modules/vl53l8cx_api.c **** 
 387:Drivers/BSP/Components/vl53l8cx/modules/vl53l8cx_api.c **** 	/* Send default configuration to VL53L8CX firmware */
 388:Drivers/BSP/Components/vl53l8cx/modules/vl53l8cx_api.c **** 	status |= VL53L8CX_WrMulti(&(p_dev->platform), 0x2c34,
 389:Drivers/BSP/Components/vl53l8cx/modules/vl53l8cx_api.c **** 		p_dev->default_configuration,
 390:Drivers/BSP/Components/vl53l8cx/modules/vl53l8cx_api.c **** 		sizeof(VL53L8CX_DEFAULT_CONFIGURATION));
 391:Drivers/BSP/Components/vl53l8cx/modules/vl53l8cx_api.c **** 	status |= _vl53l8cx_poll_for_answer(p_dev, 4, 1,
 392:Drivers/BSP/Components/vl53l8cx/modules/vl53l8cx_api.c **** 		VL53L8CX_UI_CMD_STATUS, 0xff, 0x03);
 393:Drivers/BSP/Components/vl53l8cx/modules/vl53l8cx_api.c **** 
 394:Drivers/BSP/Components/vl53l8cx/modules/vl53l8cx_api.c **** 	status |= vl53l8cx_dci_write_data(p_dev, (uint8_t*)&pipe_ctrl,
 395:Drivers/BSP/Components/vl53l8cx/modules/vl53l8cx_api.c **** 		VL53L8CX_DCI_PIPE_CONTROL, (uint16_t)sizeof(pipe_ctrl));
 396:Drivers/BSP/Components/vl53l8cx/modules/vl53l8cx_api.c **** #if VL53L8CX_NB_TARGET_PER_ZONE != 1
 397:Drivers/BSP/Components/vl53l8cx/modules/vl53l8cx_api.c **** 	tmp = VL53L8CX_NB_TARGET_PER_ZONE;
 398:Drivers/BSP/Components/vl53l8cx/modules/vl53l8cx_api.c **** 	status |= vl53l8cx_dci_replace_data(p_dev, p_dev->temp_buffer,
 399:Drivers/BSP/Components/vl53l8cx/modules/vl53l8cx_api.c **** 		VL53L8CX_DCI_FW_NB_TARGET, 16,
 400:Drivers/BSP/Components/vl53l8cx/modules/vl53l8cx_api.c **** 	(uint8_t*)&tmp, 1, 0x0C);
 401:Drivers/BSP/Components/vl53l8cx/modules/vl53l8cx_api.c **** #endif
 402:Drivers/BSP/Components/vl53l8cx/modules/vl53l8cx_api.c **** 
 403:Drivers/BSP/Components/vl53l8cx/modules/vl53l8cx_api.c **** 	status |= vl53l8cx_dci_write_data(p_dev, (uint8_t*)&single_range,
 404:Drivers/BSP/Components/vl53l8cx/modules/vl53l8cx_api.c **** 			VL53L8CX_DCI_SINGLE_RANGE,
 405:Drivers/BSP/Components/vl53l8cx/modules/vl53l8cx_api.c **** 			(uint16_t)sizeof(single_range));
 406:Drivers/BSP/Components/vl53l8cx/modules/vl53l8cx_api.c **** 
 407:Drivers/BSP/Components/vl53l8cx/modules/vl53l8cx_api.c **** exit:
 408:Drivers/BSP/Components/vl53l8cx/modules/vl53l8cx_api.c **** 	return status;
 409:Drivers/BSP/Components/vl53l8cx/modules/vl53l8cx_api.c **** }
 410:Drivers/BSP/Components/vl53l8cx/modules/vl53l8cx_api.c **** 
 411:Drivers/BSP/Components/vl53l8cx/modules/vl53l8cx_api.c **** uint8_t vl53l8cx_set_i2c_address(
 412:Drivers/BSP/Components/vl53l8cx/modules/vl53l8cx_api.c **** 		VL53L8CX_Configuration		*p_dev,
 413:Drivers/BSP/Components/vl53l8cx/modules/vl53l8cx_api.c **** 		uint16_t		        i2c_address)
 414:Drivers/BSP/Components/vl53l8cx/modules/vl53l8cx_api.c **** {
 882              		.loc 1 414 1 is_stmt 1 view -0
 883              		.cfi_startproc
ARM GAS  C:\Temp\cc1zxvPB.s 			page 26


 884              		@ args = 0, pretend = 0, frame = 0
 885              		@ frame_needed = 0, uses_anonymous_args = 0
 886              		.loc 1 414 1 is_stmt 0 view .LVU255
 887 0000 70B5     		push	{r4, r5, r6, lr}
 888              		.cfi_def_cfa_offset 16
 889              		.cfi_offset 4, -16
 890              		.cfi_offset 5, -12
 891              		.cfi_offset 6, -8
 892              		.cfi_offset 14, -4
 893 0002 0546     		mov	r5, r0
 894 0004 0E46     		mov	r6, r1
 415:Drivers/BSP/Components/vl53l8cx/modules/vl53l8cx_api.c **** 	uint8_t status = VL53L8CX_STATUS_OK;
 895              		.loc 1 415 2 is_stmt 1 view .LVU256
 896              	.LVL86:
 416:Drivers/BSP/Components/vl53l8cx/modules/vl53l8cx_api.c **** 
 417:Drivers/BSP/Components/vl53l8cx/modules/vl53l8cx_api.c **** 	status |= VL53L8CX_WrByte(&(p_dev->platform), 0x7fff, 0x00);
 897              		.loc 1 417 2 view .LVU257
 898              		.loc 1 417 12 is_stmt 0 view .LVU258
 899 0006 0022     		movs	r2, #0
 900 0008 47F6FF71 		movw	r1, #32767
 901              	.LVL87:
 902              		.loc 1 417 12 view .LVU259
 903 000c FFF7FEFF 		bl	VL53L8CX_WrByte
 904              	.LVL88:
 905              		.loc 1 417 12 view .LVU260
 906 0010 0446     		mov	r4, r0
 907              	.LVL89:
 418:Drivers/BSP/Components/vl53l8cx/modules/vl53l8cx_api.c **** 	status |= VL53L8CX_WrByte(&(p_dev->platform), 0x4, (uint8_t)(i2c_address >> 1));
 908              		.loc 1 418 2 is_stmt 1 view .LVU261
 909              		.loc 1 418 12 is_stmt 0 view .LVU262
 910 0012 C6F34702 		ubfx	r2, r6, #1, #8
 911 0016 0421     		movs	r1, #4
 912 0018 2846     		mov	r0, r5
 913 001a FFF7FEFF 		bl	VL53L8CX_WrByte
 914              	.LVL90:
 915              		.loc 1 418 9 view .LVU263
 916 001e 0443     		orrs	r4, r4, r0
 917              	.LVL91:
 918              		.loc 1 418 9 view .LVU264
 919 0020 E4B2     		uxtb	r4, r4
 920              	.LVL92:
 419:Drivers/BSP/Components/vl53l8cx/modules/vl53l8cx_api.c **** 	p_dev->platform.address = i2c_address;
 921              		.loc 1 419 2 is_stmt 1 view .LVU265
 922              		.loc 1 419 26 is_stmt 0 view .LVU266
 923 0022 2E80     		strh	r6, [r5]	@ movhi
 420:Drivers/BSP/Components/vl53l8cx/modules/vl53l8cx_api.c **** 	status |= VL53L8CX_WrByte(&(p_dev->platform), 0x7fff, 0x02);
 924              		.loc 1 420 2 is_stmt 1 view .LVU267
 925              		.loc 1 420 12 is_stmt 0 view .LVU268
 926 0024 0222     		movs	r2, #2
 927 0026 47F6FF71 		movw	r1, #32767
 928 002a 2846     		mov	r0, r5
 929 002c FFF7FEFF 		bl	VL53L8CX_WrByte
 930              	.LVL93:
 931              		.loc 1 420 9 view .LVU269
 932 0030 2043     		orrs	r0, r0, r4
 933              	.LVL94:
 421:Drivers/BSP/Components/vl53l8cx/modules/vl53l8cx_api.c **** 
ARM GAS  C:\Temp\cc1zxvPB.s 			page 27


 422:Drivers/BSP/Components/vl53l8cx/modules/vl53l8cx_api.c **** 	return status;
 934              		.loc 1 422 2 is_stmt 1 view .LVU270
 423:Drivers/BSP/Components/vl53l8cx/modules/vl53l8cx_api.c **** }
 935              		.loc 1 423 1 is_stmt 0 view .LVU271
 936 0032 C0B2     		uxtb	r0, r0
 937              		.loc 1 423 1 view .LVU272
 938 0034 70BD     		pop	{r4, r5, r6, pc}
 939              		.loc 1 423 1 view .LVU273
 940              		.cfi_endproc
 941              	.LFE6:
 943              		.section	.text.vl53l8cx_get_power_mode,"ax",%progbits
 944              		.align	1
 945              		.global	vl53l8cx_get_power_mode
 946              		.syntax unified
 947              		.thumb
 948              		.thumb_func
 950              	vl53l8cx_get_power_mode:
 951              	.LVL95:
 952              	.LFB7:
 424:Drivers/BSP/Components/vl53l8cx/modules/vl53l8cx_api.c **** 
 425:Drivers/BSP/Components/vl53l8cx/modules/vl53l8cx_api.c **** uint8_t vl53l8cx_get_power_mode(
 426:Drivers/BSP/Components/vl53l8cx/modules/vl53l8cx_api.c **** 		VL53L8CX_Configuration		*p_dev,
 427:Drivers/BSP/Components/vl53l8cx/modules/vl53l8cx_api.c **** 		uint8_t				*p_power_mode)
 428:Drivers/BSP/Components/vl53l8cx/modules/vl53l8cx_api.c **** {
 953              		.loc 1 428 1 is_stmt 1 view -0
 954              		.cfi_startproc
 955              		@ args = 0, pretend = 0, frame = 8
 956              		@ frame_needed = 0, uses_anonymous_args = 0
 957              		.loc 1 428 1 is_stmt 0 view .LVU275
 958 0000 70B5     		push	{r4, r5, r6, lr}
 959              		.cfi_def_cfa_offset 16
 960              		.cfi_offset 4, -16
 961              		.cfi_offset 5, -12
 962              		.cfi_offset 6, -8
 963              		.cfi_offset 14, -4
 964 0002 82B0     		sub	sp, sp, #8
 965              		.cfi_def_cfa_offset 24
 966 0004 0546     		mov	r5, r0
 967 0006 0E46     		mov	r6, r1
 429:Drivers/BSP/Components/vl53l8cx/modules/vl53l8cx_api.c **** 	uint8_t tmp, status = VL53L8CX_STATUS_OK;
 968              		.loc 1 429 2 is_stmt 1 view .LVU276
 969              	.LVL96:
 430:Drivers/BSP/Components/vl53l8cx/modules/vl53l8cx_api.c **** 
 431:Drivers/BSP/Components/vl53l8cx/modules/vl53l8cx_api.c **** 	status |= VL53L8CX_WrByte(&(p_dev->platform), 0x7FFF, 0x00);
 970              		.loc 1 431 2 view .LVU277
 971              		.loc 1 431 12 is_stmt 0 view .LVU278
 972 0008 0022     		movs	r2, #0
 973 000a 47F6FF71 		movw	r1, #32767
 974              	.LVL97:
 975              		.loc 1 431 12 view .LVU279
 976 000e FFF7FEFF 		bl	VL53L8CX_WrByte
 977              	.LVL98:
 978              		.loc 1 431 12 view .LVU280
 979 0012 0446     		mov	r4, r0
 980              	.LVL99:
 432:Drivers/BSP/Components/vl53l8cx/modules/vl53l8cx_api.c **** 	status |= VL53L8CX_RdByte(&(p_dev->platform), 0x009, &tmp);
 981              		.loc 1 432 2 is_stmt 1 view .LVU281
ARM GAS  C:\Temp\cc1zxvPB.s 			page 28


 982              		.loc 1 432 12 is_stmt 0 view .LVU282
 983 0014 0DF10702 		add	r2, sp, #7
 984 0018 0921     		movs	r1, #9
 985 001a 2846     		mov	r0, r5
 986 001c FFF7FEFF 		bl	VL53L8CX_RdByte
 987              	.LVL100:
 988              		.loc 1 432 9 view .LVU283
 989 0020 0443     		orrs	r4, r4, r0
 990              	.LVL101:
 991              		.loc 1 432 9 view .LVU284
 992 0022 E4B2     		uxtb	r4, r4
 993              	.LVL102:
 433:Drivers/BSP/Components/vl53l8cx/modules/vl53l8cx_api.c **** 
 434:Drivers/BSP/Components/vl53l8cx/modules/vl53l8cx_api.c **** 	switch(tmp)
 994              		.loc 1 434 2 is_stmt 1 view .LVU285
 995 0024 9DF80730 		ldrb	r3, [sp, #7]	@ zero_extendqisi2
 996 0028 022B     		cmp	r3, #2
 997 002a 0DD0     		beq	.L47
 998 002c 042B     		cmp	r3, #4
 999 002e 1DD1     		bne	.L48
 435:Drivers/BSP/Components/vl53l8cx/modules/vl53l8cx_api.c **** 	{
 436:Drivers/BSP/Components/vl53l8cx/modules/vl53l8cx_api.c **** 		case 0x4:
 437:Drivers/BSP/Components/vl53l8cx/modules/vl53l8cx_api.c **** 			*p_power_mode = VL53L8CX_POWER_MODE_WAKEUP;
 1000              		.loc 1 437 4 view .LVU286
 1001              		.loc 1 437 18 is_stmt 0 view .LVU287
 1002 0030 0123     		movs	r3, #1
 1003 0032 3370     		strb	r3, [r6]
 438:Drivers/BSP/Components/vl53l8cx/modules/vl53l8cx_api.c **** 			break;
 1004              		.loc 1 438 4 is_stmt 1 view .LVU288
 1005              	.LVL103:
 1006              	.L49:
 439:Drivers/BSP/Components/vl53l8cx/modules/vl53l8cx_api.c **** 		case 0x2:
 440:Drivers/BSP/Components/vl53l8cx/modules/vl53l8cx_api.c **** 			status |= VL53L8CX_RdByte(&(p_dev->platform), 0x000F, &tmp);
 441:Drivers/BSP/Components/vl53l8cx/modules/vl53l8cx_api.c **** 			if(tmp == 0x43)
 442:Drivers/BSP/Components/vl53l8cx/modules/vl53l8cx_api.c **** 			{
 443:Drivers/BSP/Components/vl53l8cx/modules/vl53l8cx_api.c **** 				*p_power_mode = VL53L8CX_POWER_MODE_DEEP_SLEEP;
 444:Drivers/BSP/Components/vl53l8cx/modules/vl53l8cx_api.c **** 			}
 445:Drivers/BSP/Components/vl53l8cx/modules/vl53l8cx_api.c **** 			else
 446:Drivers/BSP/Components/vl53l8cx/modules/vl53l8cx_api.c **** 			{
 447:Drivers/BSP/Components/vl53l8cx/modules/vl53l8cx_api.c **** 				*p_power_mode = VL53L8CX_POWER_MODE_SLEEP;
 448:Drivers/BSP/Components/vl53l8cx/modules/vl53l8cx_api.c **** 			}
 449:Drivers/BSP/Components/vl53l8cx/modules/vl53l8cx_api.c **** 
 450:Drivers/BSP/Components/vl53l8cx/modules/vl53l8cx_api.c **** 			break;
 451:Drivers/BSP/Components/vl53l8cx/modules/vl53l8cx_api.c **** 		default:
 452:Drivers/BSP/Components/vl53l8cx/modules/vl53l8cx_api.c **** 			*p_power_mode = 0;
 453:Drivers/BSP/Components/vl53l8cx/modules/vl53l8cx_api.c **** 			status = VL53L8CX_STATUS_ERROR;
 454:Drivers/BSP/Components/vl53l8cx/modules/vl53l8cx_api.c **** 			break;
 455:Drivers/BSP/Components/vl53l8cx/modules/vl53l8cx_api.c **** 	}
 456:Drivers/BSP/Components/vl53l8cx/modules/vl53l8cx_api.c **** 
 457:Drivers/BSP/Components/vl53l8cx/modules/vl53l8cx_api.c **** 	status |= VL53L8CX_WrByte(&(p_dev->platform), 0x7FFF, 0x02);
 1007              		.loc 1 457 2 view .LVU289
 1008              		.loc 1 457 12 is_stmt 0 view .LVU290
 1009 0034 0222     		movs	r2, #2
 1010 0036 47F6FF71 		movw	r1, #32767
 1011 003a 2846     		mov	r0, r5
 1012 003c FFF7FEFF 		bl	VL53L8CX_WrByte
 1013              	.LVL104:
ARM GAS  C:\Temp\cc1zxvPB.s 			page 29


 1014              		.loc 1 457 9 view .LVU291
 1015 0040 2043     		orrs	r0, r0, r4
 1016              	.LVL105:
 458:Drivers/BSP/Components/vl53l8cx/modules/vl53l8cx_api.c **** 
 459:Drivers/BSP/Components/vl53l8cx/modules/vl53l8cx_api.c **** 	return status;
 1017              		.loc 1 459 2 is_stmt 1 view .LVU292
 460:Drivers/BSP/Components/vl53l8cx/modules/vl53l8cx_api.c **** }
 1018              		.loc 1 460 1 is_stmt 0 view .LVU293
 1019 0042 C0B2     		uxtb	r0, r0
 1020              		.loc 1 460 1 view .LVU294
 1021 0044 02B0     		add	sp, sp, #8
 1022              		.cfi_remember_state
 1023              		.cfi_def_cfa_offset 16
 1024              		@ sp needed
 1025 0046 70BD     		pop	{r4, r5, r6, pc}
 1026              	.LVL106:
 1027              	.L47:
 1028              		.cfi_restore_state
 440:Drivers/BSP/Components/vl53l8cx/modules/vl53l8cx_api.c **** 			if(tmp == 0x43)
 1029              		.loc 1 440 4 is_stmt 1 view .LVU295
 440:Drivers/BSP/Components/vl53l8cx/modules/vl53l8cx_api.c **** 			if(tmp == 0x43)
 1030              		.loc 1 440 14 is_stmt 0 view .LVU296
 1031 0048 0DF10702 		add	r2, sp, #7
 1032 004c 0F21     		movs	r1, #15
 1033 004e 2846     		mov	r0, r5
 1034 0050 FFF7FEFF 		bl	VL53L8CX_RdByte
 1035              	.LVL107:
 440:Drivers/BSP/Components/vl53l8cx/modules/vl53l8cx_api.c **** 			if(tmp == 0x43)
 1036              		.loc 1 440 11 view .LVU297
 1037 0054 2043     		orrs	r0, r0, r4
 1038 0056 C4B2     		uxtb	r4, r0
 1039              	.LVL108:
 441:Drivers/BSP/Components/vl53l8cx/modules/vl53l8cx_api.c **** 			{
 1040              		.loc 1 441 4 is_stmt 1 view .LVU298
 441:Drivers/BSP/Components/vl53l8cx/modules/vl53l8cx_api.c **** 			{
 1041              		.loc 1 441 11 is_stmt 0 view .LVU299
 1042 0058 9DF80730 		ldrb	r3, [sp, #7]	@ zero_extendqisi2
 441:Drivers/BSP/Components/vl53l8cx/modules/vl53l8cx_api.c **** 			{
 1043              		.loc 1 441 6 view .LVU300
 1044 005c 432B     		cmp	r3, #67
 1045 005e 02D0     		beq	.L52
 447:Drivers/BSP/Components/vl53l8cx/modules/vl53l8cx_api.c **** 			}
 1046              		.loc 1 447 5 is_stmt 1 view .LVU301
 447:Drivers/BSP/Components/vl53l8cx/modules/vl53l8cx_api.c **** 			}
 1047              		.loc 1 447 19 is_stmt 0 view .LVU302
 1048 0060 0023     		movs	r3, #0
 1049 0062 3370     		strb	r3, [r6]
 1050 0064 E6E7     		b	.L49
 1051              	.L52:
 443:Drivers/BSP/Components/vl53l8cx/modules/vl53l8cx_api.c **** 			}
 1052              		.loc 1 443 5 is_stmt 1 view .LVU303
 443:Drivers/BSP/Components/vl53l8cx/modules/vl53l8cx_api.c **** 			}
 1053              		.loc 1 443 19 is_stmt 0 view .LVU304
 1054 0066 0223     		movs	r3, #2
 1055 0068 3370     		strb	r3, [r6]
 1056 006a E3E7     		b	.L49
 1057              	.L48:
ARM GAS  C:\Temp\cc1zxvPB.s 			page 30


 452:Drivers/BSP/Components/vl53l8cx/modules/vl53l8cx_api.c **** 			status = VL53L8CX_STATUS_ERROR;
 1058              		.loc 1 452 4 is_stmt 1 view .LVU305
 452:Drivers/BSP/Components/vl53l8cx/modules/vl53l8cx_api.c **** 			status = VL53L8CX_STATUS_ERROR;
 1059              		.loc 1 452 18 is_stmt 0 view .LVU306
 1060 006c 0023     		movs	r3, #0
 1061 006e 3370     		strb	r3, [r6]
 453:Drivers/BSP/Components/vl53l8cx/modules/vl53l8cx_api.c **** 			break;
 1062              		.loc 1 453 4 is_stmt 1 view .LVU307
 1063              	.LVL109:
 454:Drivers/BSP/Components/vl53l8cx/modules/vl53l8cx_api.c **** 	}
 1064              		.loc 1 454 4 view .LVU308
 453:Drivers/BSP/Components/vl53l8cx/modules/vl53l8cx_api.c **** 			break;
 1065              		.loc 1 453 11 is_stmt 0 view .LVU309
 1066 0070 FF24     		movs	r4, #255
 454:Drivers/BSP/Components/vl53l8cx/modules/vl53l8cx_api.c **** 	}
 1067              		.loc 1 454 4 view .LVU310
 1068 0072 DFE7     		b	.L49
 1069              		.cfi_endproc
 1070              	.LFE7:
 1072              		.section	.text.vl53l8cx_stop_ranging,"ax",%progbits
 1073              		.align	1
 1074              		.global	vl53l8cx_stop_ranging
 1075              		.syntax unified
 1076              		.thumb
 1077              		.thumb_func
 1079              	vl53l8cx_stop_ranging:
 1080              	.LVL110:
 1081              	.LFB10:
 461:Drivers/BSP/Components/vl53l8cx/modules/vl53l8cx_api.c **** 
 462:Drivers/BSP/Components/vl53l8cx/modules/vl53l8cx_api.c **** uint8_t vl53l8cx_set_power_mode(
 463:Drivers/BSP/Components/vl53l8cx/modules/vl53l8cx_api.c **** 		VL53L8CX_Configuration		*p_dev,
 464:Drivers/BSP/Components/vl53l8cx/modules/vl53l8cx_api.c **** 		uint8_t			        power_mode)
 465:Drivers/BSP/Components/vl53l8cx/modules/vl53l8cx_api.c **** {
 466:Drivers/BSP/Components/vl53l8cx/modules/vl53l8cx_api.c **** 	uint8_t current_power_mode, stored_mode, status = VL53L8CX_STATUS_OK;
 467:Drivers/BSP/Components/vl53l8cx/modules/vl53l8cx_api.c **** 
 468:Drivers/BSP/Components/vl53l8cx/modules/vl53l8cx_api.c **** 	status |= vl53l8cx_get_power_mode(p_dev, &current_power_mode);
 469:Drivers/BSP/Components/vl53l8cx/modules/vl53l8cx_api.c **** 	if(power_mode != current_power_mode)
 470:Drivers/BSP/Components/vl53l8cx/modules/vl53l8cx_api.c **** 	{
 471:Drivers/BSP/Components/vl53l8cx/modules/vl53l8cx_api.c **** 	switch(power_mode)
 472:Drivers/BSP/Components/vl53l8cx/modules/vl53l8cx_api.c **** 	{
 473:Drivers/BSP/Components/vl53l8cx/modules/vl53l8cx_api.c **** 		case VL53L8CX_POWER_MODE_WAKEUP:
 474:Drivers/BSP/Components/vl53l8cx/modules/vl53l8cx_api.c **** 			status |= VL53L8CX_WrByte(&(p_dev->platform), 0x7FFF, 0x00);
 475:Drivers/BSP/Components/vl53l8cx/modules/vl53l8cx_api.c **** 			status |= VL53L8CX_WrByte(&(p_dev->platform), 0x09, 0x04);
 476:Drivers/BSP/Components/vl53l8cx/modules/vl53l8cx_api.c **** 			status |= VL53L8CX_RdByte(&(p_dev->platform), 0x000F, &stored_mode);
 477:Drivers/BSP/Components/vl53l8cx/modules/vl53l8cx_api.c **** 			if(stored_mode == 0x43) /* Only for deep sleep mode */
 478:Drivers/BSP/Components/vl53l8cx/modules/vl53l8cx_api.c **** 			{
 479:Drivers/BSP/Components/vl53l8cx/modules/vl53l8cx_api.c **** 				status |= VL53L8CX_WrByte(&(p_dev->platform), 0x000F, 0x40);
 480:Drivers/BSP/Components/vl53l8cx/modules/vl53l8cx_api.c **** 			}
 481:Drivers/BSP/Components/vl53l8cx/modules/vl53l8cx_api.c **** 			status |= _vl53l8cx_poll_for_answer(
 482:Drivers/BSP/Components/vl53l8cx/modules/vl53l8cx_api.c **** 						p_dev, 1, 0, 0x06, 0x01, 1);
 483:Drivers/BSP/Components/vl53l8cx/modules/vl53l8cx_api.c **** 			if(stored_mode == 0x43) /* Only for deep sleep mode */
 484:Drivers/BSP/Components/vl53l8cx/modules/vl53l8cx_api.c **** 			{
 485:Drivers/BSP/Components/vl53l8cx/modules/vl53l8cx_api.c **** 				status |= vl53l8cx_init(p_dev);
 486:Drivers/BSP/Components/vl53l8cx/modules/vl53l8cx_api.c **** 			}
 487:Drivers/BSP/Components/vl53l8cx/modules/vl53l8cx_api.c **** 			break;
 488:Drivers/BSP/Components/vl53l8cx/modules/vl53l8cx_api.c **** 
 489:Drivers/BSP/Components/vl53l8cx/modules/vl53l8cx_api.c **** 		case VL53L8CX_POWER_MODE_SLEEP:
ARM GAS  C:\Temp\cc1zxvPB.s 			page 31


 490:Drivers/BSP/Components/vl53l8cx/modules/vl53l8cx_api.c **** 			status |= VL53L8CX_WrByte(&(p_dev->platform), 0x7FFF, 0x00);
 491:Drivers/BSP/Components/vl53l8cx/modules/vl53l8cx_api.c **** 			status |= VL53L8CX_WrByte(&(p_dev->platform), 0x09, 0x02);
 492:Drivers/BSP/Components/vl53l8cx/modules/vl53l8cx_api.c **** 			status |= _vl53l8cx_poll_for_answer(
 493:Drivers/BSP/Components/vl53l8cx/modules/vl53l8cx_api.c **** 						p_dev, 1, 0, 0x06, 0x01, 0);
 494:Drivers/BSP/Components/vl53l8cx/modules/vl53l8cx_api.c **** 			break;
 495:Drivers/BSP/Components/vl53l8cx/modules/vl53l8cx_api.c **** 
 496:Drivers/BSP/Components/vl53l8cx/modules/vl53l8cx_api.c **** 		case VL53L8CX_POWER_MODE_DEEP_SLEEP:
 497:Drivers/BSP/Components/vl53l8cx/modules/vl53l8cx_api.c **** 			status |= VL53L8CX_WrByte(&(p_dev->platform), 0x7FFF, 0x00);
 498:Drivers/BSP/Components/vl53l8cx/modules/vl53l8cx_api.c **** 			status |= VL53L8CX_WrByte(&(p_dev->platform), 0x09, 0x02);
 499:Drivers/BSP/Components/vl53l8cx/modules/vl53l8cx_api.c **** 			status |= _vl53l8cx_poll_for_answer(
 500:Drivers/BSP/Components/vl53l8cx/modules/vl53l8cx_api.c **** 					p_dev, 1, 0, 0x06, 0x01, 0);
 501:Drivers/BSP/Components/vl53l8cx/modules/vl53l8cx_api.c **** 			status |= VL53L8CX_WrByte(&(p_dev->platform), 0x000F, 0x43);
 502:Drivers/BSP/Components/vl53l8cx/modules/vl53l8cx_api.c **** 			break;
 503:Drivers/BSP/Components/vl53l8cx/modules/vl53l8cx_api.c **** 
 504:Drivers/BSP/Components/vl53l8cx/modules/vl53l8cx_api.c **** 		default:
 505:Drivers/BSP/Components/vl53l8cx/modules/vl53l8cx_api.c **** 			status = VL53L8CX_STATUS_ERROR;
 506:Drivers/BSP/Components/vl53l8cx/modules/vl53l8cx_api.c **** 			break;
 507:Drivers/BSP/Components/vl53l8cx/modules/vl53l8cx_api.c **** 		}
 508:Drivers/BSP/Components/vl53l8cx/modules/vl53l8cx_api.c **** 		status |= VL53L8CX_WrByte(&(p_dev->platform), 0x7FFF, 0x02);
 509:Drivers/BSP/Components/vl53l8cx/modules/vl53l8cx_api.c **** 	}
 510:Drivers/BSP/Components/vl53l8cx/modules/vl53l8cx_api.c **** 
 511:Drivers/BSP/Components/vl53l8cx/modules/vl53l8cx_api.c **** 	return status;
 512:Drivers/BSP/Components/vl53l8cx/modules/vl53l8cx_api.c **** }
 513:Drivers/BSP/Components/vl53l8cx/modules/vl53l8cx_api.c **** 
 514:Drivers/BSP/Components/vl53l8cx/modules/vl53l8cx_api.c **** uint8_t vl53l8cx_start_ranging(
 515:Drivers/BSP/Components/vl53l8cx/modules/vl53l8cx_api.c **** 		VL53L8CX_Configuration		*p_dev)
 516:Drivers/BSP/Components/vl53l8cx/modules/vl53l8cx_api.c **** {
 517:Drivers/BSP/Components/vl53l8cx/modules/vl53l8cx_api.c **** 	uint8_t resolution, status = VL53L8CX_STATUS_OK;
 518:Drivers/BSP/Components/vl53l8cx/modules/vl53l8cx_api.c **** 	uint16_t tmp;
 519:Drivers/BSP/Components/vl53l8cx/modules/vl53l8cx_api.c **** 	uint32_t i;
 520:Drivers/BSP/Components/vl53l8cx/modules/vl53l8cx_api.c **** 	uint32_t header_config[2] = {0, 0};
 521:Drivers/BSP/Components/vl53l8cx/modules/vl53l8cx_api.c **** 
 522:Drivers/BSP/Components/vl53l8cx/modules/vl53l8cx_api.c **** 	union Block_header *bh_ptr;
 523:Drivers/BSP/Components/vl53l8cx/modules/vl53l8cx_api.c **** 	uint8_t cmd[] = {0x00, 0x03, 0x00, 0x00};
 524:Drivers/BSP/Components/vl53l8cx/modules/vl53l8cx_api.c **** 
 525:Drivers/BSP/Components/vl53l8cx/modules/vl53l8cx_api.c **** 	status |= vl53l8cx_get_resolution(p_dev, &resolution);
 526:Drivers/BSP/Components/vl53l8cx/modules/vl53l8cx_api.c **** 	p_dev->data_read_size = 0;
 527:Drivers/BSP/Components/vl53l8cx/modules/vl53l8cx_api.c **** 	p_dev->streamcount = 255;
 528:Drivers/BSP/Components/vl53l8cx/modules/vl53l8cx_api.c **** 
 529:Drivers/BSP/Components/vl53l8cx/modules/vl53l8cx_api.c **** 	/* Enable mandatory output (meta and common data) */
 530:Drivers/BSP/Components/vl53l8cx/modules/vl53l8cx_api.c **** 	uint32_t output_bh_enable[] = {
 531:Drivers/BSP/Components/vl53l8cx/modules/vl53l8cx_api.c **** 		0x00000007U,
 532:Drivers/BSP/Components/vl53l8cx/modules/vl53l8cx_api.c **** 		0x00000000U,
 533:Drivers/BSP/Components/vl53l8cx/modules/vl53l8cx_api.c **** 		0x00000000U,
 534:Drivers/BSP/Components/vl53l8cx/modules/vl53l8cx_api.c **** 		0xC0000000U};
 535:Drivers/BSP/Components/vl53l8cx/modules/vl53l8cx_api.c **** 
 536:Drivers/BSP/Components/vl53l8cx/modules/vl53l8cx_api.c **** 	/* Send addresses of possible output */
 537:Drivers/BSP/Components/vl53l8cx/modules/vl53l8cx_api.c **** 	uint32_t output[] ={VL53L8CX_START_BH,
 538:Drivers/BSP/Components/vl53l8cx/modules/vl53l8cx_api.c **** 		VL53L8CX_METADATA_BH,
 539:Drivers/BSP/Components/vl53l8cx/modules/vl53l8cx_api.c **** 		VL53L8CX_COMMONDATA_BH,
 540:Drivers/BSP/Components/vl53l8cx/modules/vl53l8cx_api.c **** 		VL53L8CX_AMBIENT_RATE_BH,
 541:Drivers/BSP/Components/vl53l8cx/modules/vl53l8cx_api.c **** 		VL53L8CX_SPAD_COUNT_BH,
 542:Drivers/BSP/Components/vl53l8cx/modules/vl53l8cx_api.c **** 		VL53L8CX_NB_TARGET_DETECTED_BH,
 543:Drivers/BSP/Components/vl53l8cx/modules/vl53l8cx_api.c **** 		VL53L8CX_SIGNAL_RATE_BH,
 544:Drivers/BSP/Components/vl53l8cx/modules/vl53l8cx_api.c **** 		VL53L8CX_RANGE_SIGMA_MM_BH,
 545:Drivers/BSP/Components/vl53l8cx/modules/vl53l8cx_api.c **** 		VL53L8CX_DISTANCE_BH,
 546:Drivers/BSP/Components/vl53l8cx/modules/vl53l8cx_api.c **** 		VL53L8CX_REFLECTANCE_BH,
ARM GAS  C:\Temp\cc1zxvPB.s 			page 32


 547:Drivers/BSP/Components/vl53l8cx/modules/vl53l8cx_api.c **** 		VL53L8CX_TARGET_STATUS_BH,
 548:Drivers/BSP/Components/vl53l8cx/modules/vl53l8cx_api.c **** 		VL53L8CX_MOTION_DETECT_BH};
 549:Drivers/BSP/Components/vl53l8cx/modules/vl53l8cx_api.c **** 
 550:Drivers/BSP/Components/vl53l8cx/modules/vl53l8cx_api.c **** 	/* Enable selected outputs in the 'platform.h' file */
 551:Drivers/BSP/Components/vl53l8cx/modules/vl53l8cx_api.c **** #ifndef VL53L8CX_DISABLE_AMBIENT_PER_SPAD
 552:Drivers/BSP/Components/vl53l8cx/modules/vl53l8cx_api.c **** 	output_bh_enable[0] += (uint32_t)8;
 553:Drivers/BSP/Components/vl53l8cx/modules/vl53l8cx_api.c **** #endif
 554:Drivers/BSP/Components/vl53l8cx/modules/vl53l8cx_api.c **** #ifndef VL53L8CX_DISABLE_NB_SPADS_ENABLED
 555:Drivers/BSP/Components/vl53l8cx/modules/vl53l8cx_api.c **** 	output_bh_enable[0] += (uint32_t)16;
 556:Drivers/BSP/Components/vl53l8cx/modules/vl53l8cx_api.c **** #endif
 557:Drivers/BSP/Components/vl53l8cx/modules/vl53l8cx_api.c **** #ifndef VL53L8CX_DISABLE_NB_TARGET_DETECTED
 558:Drivers/BSP/Components/vl53l8cx/modules/vl53l8cx_api.c **** 	output_bh_enable[0] += (uint32_t)32;
 559:Drivers/BSP/Components/vl53l8cx/modules/vl53l8cx_api.c **** #endif
 560:Drivers/BSP/Components/vl53l8cx/modules/vl53l8cx_api.c **** #ifndef VL53L8CX_DISABLE_SIGNAL_PER_SPAD
 561:Drivers/BSP/Components/vl53l8cx/modules/vl53l8cx_api.c **** 	output_bh_enable[0] += (uint32_t)64;
 562:Drivers/BSP/Components/vl53l8cx/modules/vl53l8cx_api.c **** #endif
 563:Drivers/BSP/Components/vl53l8cx/modules/vl53l8cx_api.c **** #ifndef VL53L8CX_DISABLE_RANGE_SIGMA_MM
 564:Drivers/BSP/Components/vl53l8cx/modules/vl53l8cx_api.c **** 	output_bh_enable[0] += (uint32_t)128;
 565:Drivers/BSP/Components/vl53l8cx/modules/vl53l8cx_api.c **** #endif
 566:Drivers/BSP/Components/vl53l8cx/modules/vl53l8cx_api.c **** #ifndef VL53L8CX_DISABLE_DISTANCE_MM
 567:Drivers/BSP/Components/vl53l8cx/modules/vl53l8cx_api.c **** 	output_bh_enable[0] += (uint32_t)256;
 568:Drivers/BSP/Components/vl53l8cx/modules/vl53l8cx_api.c **** #endif
 569:Drivers/BSP/Components/vl53l8cx/modules/vl53l8cx_api.c **** #ifndef VL53L8CX_DISABLE_REFLECTANCE_PERCENT
 570:Drivers/BSP/Components/vl53l8cx/modules/vl53l8cx_api.c **** 	output_bh_enable[0] += (uint32_t)512;
 571:Drivers/BSP/Components/vl53l8cx/modules/vl53l8cx_api.c **** #endif
 572:Drivers/BSP/Components/vl53l8cx/modules/vl53l8cx_api.c **** #ifndef VL53L8CX_DISABLE_TARGET_STATUS
 573:Drivers/BSP/Components/vl53l8cx/modules/vl53l8cx_api.c **** 	output_bh_enable[0] += (uint32_t)1024;
 574:Drivers/BSP/Components/vl53l8cx/modules/vl53l8cx_api.c **** #endif
 575:Drivers/BSP/Components/vl53l8cx/modules/vl53l8cx_api.c **** #ifndef VL53L8CX_DISABLE_MOTION_INDICATOR
 576:Drivers/BSP/Components/vl53l8cx/modules/vl53l8cx_api.c **** 	output_bh_enable[0] += (uint32_t)2048;
 577:Drivers/BSP/Components/vl53l8cx/modules/vl53l8cx_api.c **** #endif
 578:Drivers/BSP/Components/vl53l8cx/modules/vl53l8cx_api.c **** 
 579:Drivers/BSP/Components/vl53l8cx/modules/vl53l8cx_api.c **** 	/* Update data size */
 580:Drivers/BSP/Components/vl53l8cx/modules/vl53l8cx_api.c **** 	for (i = 0; i < (uint32_t)(sizeof(output)/sizeof(uint32_t)); i++)
 581:Drivers/BSP/Components/vl53l8cx/modules/vl53l8cx_api.c **** 	{
 582:Drivers/BSP/Components/vl53l8cx/modules/vl53l8cx_api.c **** 		if ((output[i] == (uint8_t)0) 
 583:Drivers/BSP/Components/vl53l8cx/modules/vl53l8cx_api.c ****                     || ((output_bh_enable[i/(uint32_t)32]
 584:Drivers/BSP/Components/vl53l8cx/modules/vl53l8cx_api.c ****                          &((uint32_t)1 << (i%(uint32_t)32))) == (uint32_t)0))
 585:Drivers/BSP/Components/vl53l8cx/modules/vl53l8cx_api.c **** 		{
 586:Drivers/BSP/Components/vl53l8cx/modules/vl53l8cx_api.c **** 			continue;
 587:Drivers/BSP/Components/vl53l8cx/modules/vl53l8cx_api.c **** 		}
 588:Drivers/BSP/Components/vl53l8cx/modules/vl53l8cx_api.c **** 
 589:Drivers/BSP/Components/vl53l8cx/modules/vl53l8cx_api.c **** 		bh_ptr = (union Block_header *)&(output[i]);
 590:Drivers/BSP/Components/vl53l8cx/modules/vl53l8cx_api.c **** 		if (((uint8_t)bh_ptr->type >= (uint8_t)0x1) 
 591:Drivers/BSP/Components/vl53l8cx/modules/vl53l8cx_api.c ****                     && ((uint8_t)bh_ptr->type < (uint8_t)0x0d))
 592:Drivers/BSP/Components/vl53l8cx/modules/vl53l8cx_api.c **** 		{
 593:Drivers/BSP/Components/vl53l8cx/modules/vl53l8cx_api.c **** 			if ((bh_ptr->idx >= (uint16_t)0x54d0) 
 594:Drivers/BSP/Components/vl53l8cx/modules/vl53l8cx_api.c ****                             && (bh_ptr->idx < (uint16_t)(0x54d0 + 960)))
 595:Drivers/BSP/Components/vl53l8cx/modules/vl53l8cx_api.c **** 			{
 596:Drivers/BSP/Components/vl53l8cx/modules/vl53l8cx_api.c **** 				bh_ptr->size = resolution;
 597:Drivers/BSP/Components/vl53l8cx/modules/vl53l8cx_api.c **** 			}
 598:Drivers/BSP/Components/vl53l8cx/modules/vl53l8cx_api.c **** 			else
 599:Drivers/BSP/Components/vl53l8cx/modules/vl53l8cx_api.c **** 			{
 600:Drivers/BSP/Components/vl53l8cx/modules/vl53l8cx_api.c **** 				bh_ptr->size = (uint16_t)((uint16_t)resolution
 601:Drivers/BSP/Components/vl53l8cx/modules/vl53l8cx_api.c ****                                   * (uint16_t)VL53L8CX_NB_TARGET_PER_ZONE);
 602:Drivers/BSP/Components/vl53l8cx/modules/vl53l8cx_api.c **** 			}
 603:Drivers/BSP/Components/vl53l8cx/modules/vl53l8cx_api.c **** 			p_dev->data_read_size += bh_ptr->type * bh_ptr->size;
ARM GAS  C:\Temp\cc1zxvPB.s 			page 33


 604:Drivers/BSP/Components/vl53l8cx/modules/vl53l8cx_api.c **** 		}
 605:Drivers/BSP/Components/vl53l8cx/modules/vl53l8cx_api.c **** 		else
 606:Drivers/BSP/Components/vl53l8cx/modules/vl53l8cx_api.c **** 		{
 607:Drivers/BSP/Components/vl53l8cx/modules/vl53l8cx_api.c **** 			p_dev->data_read_size += bh_ptr->size;
 608:Drivers/BSP/Components/vl53l8cx/modules/vl53l8cx_api.c **** 		}
 609:Drivers/BSP/Components/vl53l8cx/modules/vl53l8cx_api.c **** 		p_dev->data_read_size += (uint32_t)4;
 610:Drivers/BSP/Components/vl53l8cx/modules/vl53l8cx_api.c **** 	}
 611:Drivers/BSP/Components/vl53l8cx/modules/vl53l8cx_api.c **** 	p_dev->data_read_size += (uint32_t)24;
 612:Drivers/BSP/Components/vl53l8cx/modules/vl53l8cx_api.c **** 
 613:Drivers/BSP/Components/vl53l8cx/modules/vl53l8cx_api.c **** 	status |= vl53l8cx_dci_write_data(p_dev,
 614:Drivers/BSP/Components/vl53l8cx/modules/vl53l8cx_api.c **** 			(uint8_t*)&(output), VL53L8CX_DCI_OUTPUT_LIST,
 615:Drivers/BSP/Components/vl53l8cx/modules/vl53l8cx_api.c **** 			(uint16_t)sizeof(output));
 616:Drivers/BSP/Components/vl53l8cx/modules/vl53l8cx_api.c **** 
 617:Drivers/BSP/Components/vl53l8cx/modules/vl53l8cx_api.c **** 	header_config[0] = p_dev->data_read_size;
 618:Drivers/BSP/Components/vl53l8cx/modules/vl53l8cx_api.c **** 	header_config[1] = i + (uint32_t)1;
 619:Drivers/BSP/Components/vl53l8cx/modules/vl53l8cx_api.c **** 
 620:Drivers/BSP/Components/vl53l8cx/modules/vl53l8cx_api.c **** 	status |= vl53l8cx_dci_write_data(p_dev,
 621:Drivers/BSP/Components/vl53l8cx/modules/vl53l8cx_api.c **** 			(uint8_t*)&(header_config), VL53L8CX_DCI_OUTPUT_CONFIG,
 622:Drivers/BSP/Components/vl53l8cx/modules/vl53l8cx_api.c **** 			(uint16_t)sizeof(header_config));
 623:Drivers/BSP/Components/vl53l8cx/modules/vl53l8cx_api.c **** 
 624:Drivers/BSP/Components/vl53l8cx/modules/vl53l8cx_api.c **** 	status |= vl53l8cx_dci_write_data(p_dev,
 625:Drivers/BSP/Components/vl53l8cx/modules/vl53l8cx_api.c **** 			(uint8_t*)&(output_bh_enable), VL53L8CX_DCI_OUTPUT_ENABLES,
 626:Drivers/BSP/Components/vl53l8cx/modules/vl53l8cx_api.c **** 			(uint16_t)sizeof(output_bh_enable));
 627:Drivers/BSP/Components/vl53l8cx/modules/vl53l8cx_api.c **** 
 628:Drivers/BSP/Components/vl53l8cx/modules/vl53l8cx_api.c **** 	/* Start xshut bypass (interrupt mode) */
 629:Drivers/BSP/Components/vl53l8cx/modules/vl53l8cx_api.c **** 	status |= VL53L8CX_WrByte(&(p_dev->platform), 0x7fff, 0x00);
 630:Drivers/BSP/Components/vl53l8cx/modules/vl53l8cx_api.c **** 	status |= VL53L8CX_WrByte(&(p_dev->platform), 0x09, 0x05);
 631:Drivers/BSP/Components/vl53l8cx/modules/vl53l8cx_api.c **** 	status |= VL53L8CX_WrByte(&(p_dev->platform), 0x7fff, 0x02);
 632:Drivers/BSP/Components/vl53l8cx/modules/vl53l8cx_api.c **** 
 633:Drivers/BSP/Components/vl53l8cx/modules/vl53l8cx_api.c **** 	/* Start ranging session */
 634:Drivers/BSP/Components/vl53l8cx/modules/vl53l8cx_api.c **** 	status |= VL53L8CX_WrMulti(&(p_dev->platform), VL53L8CX_UI_CMD_END -
 635:Drivers/BSP/Components/vl53l8cx/modules/vl53l8cx_api.c **** 			(uint16_t)(4 - 1), (uint8_t*)cmd, sizeof(cmd));
 636:Drivers/BSP/Components/vl53l8cx/modules/vl53l8cx_api.c **** 	status |= _vl53l8cx_poll_for_answer(p_dev, 4, 1,
 637:Drivers/BSP/Components/vl53l8cx/modules/vl53l8cx_api.c **** 			VL53L8CX_UI_CMD_STATUS, 0xff, 0x03);
 638:Drivers/BSP/Components/vl53l8cx/modules/vl53l8cx_api.c **** 
 639:Drivers/BSP/Components/vl53l8cx/modules/vl53l8cx_api.c **** 	/* Read ui range data content and compare if data size is the correct one */
 640:Drivers/BSP/Components/vl53l8cx/modules/vl53l8cx_api.c **** 	status |= vl53l8cx_dci_read_data(p_dev,
 641:Drivers/BSP/Components/vl53l8cx/modules/vl53l8cx_api.c **** 			(uint8_t*)p_dev->temp_buffer, 0x5440, 12);
 642:Drivers/BSP/Components/vl53l8cx/modules/vl53l8cx_api.c **** 	(void)memcpy(&tmp, &(p_dev->temp_buffer[0x8]), sizeof(tmp));
 643:Drivers/BSP/Components/vl53l8cx/modules/vl53l8cx_api.c **** 	if(tmp != p_dev->data_read_size)
 644:Drivers/BSP/Components/vl53l8cx/modules/vl53l8cx_api.c **** 	{
 645:Drivers/BSP/Components/vl53l8cx/modules/vl53l8cx_api.c **** 		status |= VL53L8CX_STATUS_ERROR;
 646:Drivers/BSP/Components/vl53l8cx/modules/vl53l8cx_api.c **** 	}
 647:Drivers/BSP/Components/vl53l8cx/modules/vl53l8cx_api.c **** 
 648:Drivers/BSP/Components/vl53l8cx/modules/vl53l8cx_api.c **** 	/* Ensure that there is no laser safety fault */
 649:Drivers/BSP/Components/vl53l8cx/modules/vl53l8cx_api.c **** 	status |= vl53l8cx_dci_read_data(p_dev,
 650:Drivers/BSP/Components/vl53l8cx/modules/vl53l8cx_api.c **** 			(uint8_t*)p_dev->temp_buffer, 0xE0C4, 8);
 651:Drivers/BSP/Components/vl53l8cx/modules/vl53l8cx_api.c **** 	if((uint8_t)p_dev->temp_buffer[0x6] != (uint8_t)0)
 652:Drivers/BSP/Components/vl53l8cx/modules/vl53l8cx_api.c **** 	{
 653:Drivers/BSP/Components/vl53l8cx/modules/vl53l8cx_api.c **** 		status |= VL53L8CX_STATUS_LASER_SAFETY;
 654:Drivers/BSP/Components/vl53l8cx/modules/vl53l8cx_api.c **** 	}
 655:Drivers/BSP/Components/vl53l8cx/modules/vl53l8cx_api.c **** 
 656:Drivers/BSP/Components/vl53l8cx/modules/vl53l8cx_api.c **** 	return status;
 657:Drivers/BSP/Components/vl53l8cx/modules/vl53l8cx_api.c **** }
 658:Drivers/BSP/Components/vl53l8cx/modules/vl53l8cx_api.c **** 
 659:Drivers/BSP/Components/vl53l8cx/modules/vl53l8cx_api.c **** uint8_t vl53l8cx_stop_ranging(
 660:Drivers/BSP/Components/vl53l8cx/modules/vl53l8cx_api.c **** 		VL53L8CX_Configuration		*p_dev)
ARM GAS  C:\Temp\cc1zxvPB.s 			page 34


 661:Drivers/BSP/Components/vl53l8cx/modules/vl53l8cx_api.c **** {
 1082              		.loc 1 661 1 is_stmt 1 view -0
 1083              		.cfi_startproc
 1084              		@ args = 0, pretend = 0, frame = 8
 1085              		@ frame_needed = 0, uses_anonymous_args = 0
 1086              		.loc 1 661 1 is_stmt 0 view .LVU312
 1087 0000 70B5     		push	{r4, r5, r6, lr}
 1088              		.cfi_def_cfa_offset 16
 1089              		.cfi_offset 4, -16
 1090              		.cfi_offset 5, -12
 1091              		.cfi_offset 6, -8
 1092              		.cfi_offset 14, -4
 1093 0002 82B0     		sub	sp, sp, #8
 1094              		.cfi_def_cfa_offset 24
 1095 0004 0546     		mov	r5, r0
 662:Drivers/BSP/Components/vl53l8cx/modules/vl53l8cx_api.c **** 	uint8_t tmp = 0, status = VL53L8CX_STATUS_OK;
 1096              		.loc 1 662 2 is_stmt 1 view .LVU313
 1097              		.loc 1 662 10 is_stmt 0 view .LVU314
 1098 0006 0023     		movs	r3, #0
 1099 0008 8DF80730 		strb	r3, [sp, #7]
 1100              	.LVL111:
 663:Drivers/BSP/Components/vl53l8cx/modules/vl53l8cx_api.c **** 	uint16_t timeout = 0;
 1101              		.loc 1 663 2 is_stmt 1 view .LVU315
 664:Drivers/BSP/Components/vl53l8cx/modules/vl53l8cx_api.c **** 	uint32_t auto_stop_flag = 0;
 1102              		.loc 1 664 2 view .LVU316
 1103              		.loc 1 664 11 is_stmt 0 view .LVU317
 1104 000c 0093     		str	r3, [sp]
 665:Drivers/BSP/Components/vl53l8cx/modules/vl53l8cx_api.c **** 
 666:Drivers/BSP/Components/vl53l8cx/modules/vl53l8cx_api.c **** 	status |= VL53L8CX_RdMulti(&(p_dev->platform),
 1105              		.loc 1 666 2 is_stmt 1 view .LVU318
 1106              		.loc 1 666 12 is_stmt 0 view .LVU319
 1107 000e 0423     		movs	r3, #4
 1108 0010 6A46     		mov	r2, sp
 1109 0012 42F6FC71 		movw	r1, #12284
 1110 0016 FFF7FEFF 		bl	VL53L8CX_RdMulti
 1111              	.LVL112:
 1112              		.loc 1 666 12 view .LVU320
 1113 001a 0446     		mov	r4, r0
 1114              	.LVL113:
 667:Drivers/BSP/Components/vl53l8cx/modules/vl53l8cx_api.c ****                           0x2FFC, (uint8_t*)&auto_stop_flag, 4);
 668:Drivers/BSP/Components/vl53l8cx/modules/vl53l8cx_api.c **** 	if((auto_stop_flag != (uint32_t)0x4FF)
 1115              		.loc 1 668 2 is_stmt 1 view .LVU321
 1116              		.loc 1 668 4 is_stmt 0 view .LVU322
 1117 001c 009A     		ldr	r2, [sp]
 1118 001e 40F2FF43 		movw	r3, #1279
 1119 0022 9A42     		cmp	r2, r3
 1120 0024 02D0     		beq	.L54
 669:Drivers/BSP/Components/vl53l8cx/modules/vl53l8cx_api.c **** 			&& (p_dev->is_auto_stop_enabled == (uint8_t)0))
 1121              		.loc 1 669 13 view .LVU323
 1122 0026 95F81039 		ldrb	r3, [r5, #2320]	@ zero_extendqisi2
 1123              		.loc 1 669 4 view .LVU324
 1124 002a 93B3     		cbz	r3, .L59
 1125              	.LVL114:
 1126              	.L54:
 670:Drivers/BSP/Components/vl53l8cx/modules/vl53l8cx_api.c **** 	{
 671:Drivers/BSP/Components/vl53l8cx/modules/vl53l8cx_api.c **** 	        status |= VL53L8CX_WrByte(&(p_dev->platform), 0x7fff, 0x00);
 672:Drivers/BSP/Components/vl53l8cx/modules/vl53l8cx_api.c **** 
ARM GAS  C:\Temp\cc1zxvPB.s 			page 35


 673:Drivers/BSP/Components/vl53l8cx/modules/vl53l8cx_api.c **** 	        /* Provoke MCU stop */
 674:Drivers/BSP/Components/vl53l8cx/modules/vl53l8cx_api.c **** 	        status |= VL53L8CX_WrByte(&(p_dev->platform), 0x15, 0x16);
 675:Drivers/BSP/Components/vl53l8cx/modules/vl53l8cx_api.c **** 	        status |= VL53L8CX_WrByte(&(p_dev->platform), 0x14, 0x01);
 676:Drivers/BSP/Components/vl53l8cx/modules/vl53l8cx_api.c **** 
 677:Drivers/BSP/Components/vl53l8cx/modules/vl53l8cx_api.c **** 	        /* Poll for G02 status 0 MCU stop */
 678:Drivers/BSP/Components/vl53l8cx/modules/vl53l8cx_api.c **** 	        while(((tmp & (uint8_t)0x80) >> 7) == (uint8_t)0x00)
 679:Drivers/BSP/Components/vl53l8cx/modules/vl53l8cx_api.c **** 	        {
 680:Drivers/BSP/Components/vl53l8cx/modules/vl53l8cx_api.c **** 	        	status |= VL53L8CX_RdByte(&(p_dev->platform), 0x6, &tmp);
 681:Drivers/BSP/Components/vl53l8cx/modules/vl53l8cx_api.c **** 	        	status |= VL53L8CX_WaitMs(&(p_dev->platform), 10);
 682:Drivers/BSP/Components/vl53l8cx/modules/vl53l8cx_api.c **** 	        	timeout++;	/* Timeout reached after 5 seconds */
 683:Drivers/BSP/Components/vl53l8cx/modules/vl53l8cx_api.c **** 
 684:Drivers/BSP/Components/vl53l8cx/modules/vl53l8cx_api.c **** 	        	if(timeout > (uint16_t)500)
 685:Drivers/BSP/Components/vl53l8cx/modules/vl53l8cx_api.c **** 				{
 686:Drivers/BSP/Components/vl53l8cx/modules/vl53l8cx_api.c **** 					status |= tmp;
 687:Drivers/BSP/Components/vl53l8cx/modules/vl53l8cx_api.c **** 					break;
 688:Drivers/BSP/Components/vl53l8cx/modules/vl53l8cx_api.c **** 				}
 689:Drivers/BSP/Components/vl53l8cx/modules/vl53l8cx_api.c ****         	}
 690:Drivers/BSP/Components/vl53l8cx/modules/vl53l8cx_api.c ****         }
 691:Drivers/BSP/Components/vl53l8cx/modules/vl53l8cx_api.c **** 
 692:Drivers/BSP/Components/vl53l8cx/modules/vl53l8cx_api.c **** 	/* Check GO2 status 1 if status is still OK */
 693:Drivers/BSP/Components/vl53l8cx/modules/vl53l8cx_api.c **** 	status |= VL53L8CX_RdByte(&(p_dev->platform), 0x6, &tmp);
 1127              		.loc 1 693 2 is_stmt 1 view .LVU325
 1128              		.loc 1 693 12 is_stmt 0 view .LVU326
 1129 002c 0DF10702 		add	r2, sp, #7
 1130 0030 0621     		movs	r1, #6
 1131 0032 2846     		mov	r0, r5
 1132 0034 FFF7FEFF 		bl	VL53L8CX_RdByte
 1133              	.LVL115:
 1134              		.loc 1 693 9 view .LVU327
 1135 0038 0443     		orrs	r4, r4, r0
 1136              	.LVL116:
 1137              		.loc 1 693 9 view .LVU328
 1138 003a E4B2     		uxtb	r4, r4
 1139              	.LVL117:
 694:Drivers/BSP/Components/vl53l8cx/modules/vl53l8cx_api.c **** 	if((tmp & (uint8_t)0x80) != (uint8_t)0){
 1140              		.loc 1 694 2 is_stmt 1 view .LVU329
 1141              		.loc 1 694 27 is_stmt 0 view .LVU330
 1142 003c 9DF90730 		ldrsb	r3, [sp, #7]
 1143              		.loc 1 694 4 view .LVU331
 1144 0040 002B     		cmp	r3, #0
 1145 0042 58DB     		blt	.L60
 1146              	.L57:
 695:Drivers/BSP/Components/vl53l8cx/modules/vl53l8cx_api.c **** 		status |= VL53L8CX_RdByte(&(p_dev->platform), 0x7, &tmp);
 696:Drivers/BSP/Components/vl53l8cx/modules/vl53l8cx_api.c **** 		if((tmp != (uint8_t)0x84) && (tmp != (uint8_t)0x85)){
 697:Drivers/BSP/Components/vl53l8cx/modules/vl53l8cx_api.c **** 		   status |= tmp;
 698:Drivers/BSP/Components/vl53l8cx/modules/vl53l8cx_api.c **** 		}
 699:Drivers/BSP/Components/vl53l8cx/modules/vl53l8cx_api.c **** 	}
 700:Drivers/BSP/Components/vl53l8cx/modules/vl53l8cx_api.c **** 
 701:Drivers/BSP/Components/vl53l8cx/modules/vl53l8cx_api.c **** 	/* Undo MCU stop */
 702:Drivers/BSP/Components/vl53l8cx/modules/vl53l8cx_api.c **** 	status |= VL53L8CX_WrByte(&(p_dev->platform), 0x7fff, 0x00);
 1147              		.loc 1 702 2 is_stmt 1 view .LVU332
 1148              		.loc 1 702 12 is_stmt 0 view .LVU333
 1149 0044 0022     		movs	r2, #0
 1150 0046 47F6FF71 		movw	r1, #32767
 1151 004a 2846     		mov	r0, r5
 1152 004c FFF7FEFF 		bl	VL53L8CX_WrByte
 1153              	.LVL118:
ARM GAS  C:\Temp\cc1zxvPB.s 			page 36


 1154              		.loc 1 702 9 view .LVU334
 1155 0050 0443     		orrs	r4, r4, r0
 1156              	.LVL119:
 1157              		.loc 1 702 9 view .LVU335
 1158 0052 E4B2     		uxtb	r4, r4
 1159              	.LVL120:
 703:Drivers/BSP/Components/vl53l8cx/modules/vl53l8cx_api.c **** 	status |= VL53L8CX_WrByte(&(p_dev->platform), 0x14, 0x00);
 1160              		.loc 1 703 2 is_stmt 1 view .LVU336
 1161              		.loc 1 703 12 is_stmt 0 view .LVU337
 1162 0054 0022     		movs	r2, #0
 1163 0056 1421     		movs	r1, #20
 1164 0058 2846     		mov	r0, r5
 1165 005a FFF7FEFF 		bl	VL53L8CX_WrByte
 1166              	.LVL121:
 1167              		.loc 1 703 9 view .LVU338
 1168 005e 0443     		orrs	r4, r4, r0
 1169              	.LVL122:
 1170              		.loc 1 703 9 view .LVU339
 1171 0060 E4B2     		uxtb	r4, r4
 1172              	.LVL123:
 704:Drivers/BSP/Components/vl53l8cx/modules/vl53l8cx_api.c **** 	status |= VL53L8CX_WrByte(&(p_dev->platform), 0x15, 0x00);
 1173              		.loc 1 704 2 is_stmt 1 view .LVU340
 1174              		.loc 1 704 12 is_stmt 0 view .LVU341
 1175 0062 0022     		movs	r2, #0
 1176 0064 1521     		movs	r1, #21
 1177 0066 2846     		mov	r0, r5
 1178 0068 FFF7FEFF 		bl	VL53L8CX_WrByte
 1179              	.LVL124:
 1180              		.loc 1 704 9 view .LVU342
 1181 006c 0443     		orrs	r4, r4, r0
 1182              	.LVL125:
 1183              		.loc 1 704 9 view .LVU343
 1184 006e E4B2     		uxtb	r4, r4
 1185              	.LVL126:
 705:Drivers/BSP/Components/vl53l8cx/modules/vl53l8cx_api.c **** 
 706:Drivers/BSP/Components/vl53l8cx/modules/vl53l8cx_api.c **** 	/* Stop xshut bypass */
 707:Drivers/BSP/Components/vl53l8cx/modules/vl53l8cx_api.c **** 	status |= VL53L8CX_WrByte(&(p_dev->platform), 0x09, 0x04);
 1186              		.loc 1 707 2 is_stmt 1 view .LVU344
 1187              		.loc 1 707 12 is_stmt 0 view .LVU345
 1188 0070 0422     		movs	r2, #4
 1189 0072 0921     		movs	r1, #9
 1190 0074 2846     		mov	r0, r5
 1191 0076 FFF7FEFF 		bl	VL53L8CX_WrByte
 1192              	.LVL127:
 1193              		.loc 1 707 9 view .LVU346
 1194 007a 0443     		orrs	r4, r4, r0
 1195              	.LVL128:
 1196              		.loc 1 707 9 view .LVU347
 1197 007c E4B2     		uxtb	r4, r4
 1198              	.LVL129:
 708:Drivers/BSP/Components/vl53l8cx/modules/vl53l8cx_api.c **** 	status |= VL53L8CX_WrByte(&(p_dev->platform), 0x7fff, 0x02);
 1199              		.loc 1 708 2 is_stmt 1 view .LVU348
 1200              		.loc 1 708 12 is_stmt 0 view .LVU349
 1201 007e 0222     		movs	r2, #2
 1202 0080 47F6FF71 		movw	r1, #32767
 1203 0084 2846     		mov	r0, r5
 1204 0086 FFF7FEFF 		bl	VL53L8CX_WrByte
ARM GAS  C:\Temp\cc1zxvPB.s 			page 37


 1205              	.LVL130:
 1206              		.loc 1 708 9 view .LVU350
 1207 008a 2043     		orrs	r0, r0, r4
 1208              	.LVL131:
 709:Drivers/BSP/Components/vl53l8cx/modules/vl53l8cx_api.c **** 
 710:Drivers/BSP/Components/vl53l8cx/modules/vl53l8cx_api.c **** 	return status;
 1209              		.loc 1 710 2 is_stmt 1 view .LVU351
 711:Drivers/BSP/Components/vl53l8cx/modules/vl53l8cx_api.c **** }
 1210              		.loc 1 711 1 is_stmt 0 view .LVU352
 1211 008c C0B2     		uxtb	r0, r0
 1212              		.loc 1 711 1 view .LVU353
 1213 008e 02B0     		add	sp, sp, #8
 1214              		.cfi_remember_state
 1215              		.cfi_def_cfa_offset 16
 1216              		@ sp needed
 1217 0090 70BD     		pop	{r4, r5, r6, pc}
 1218              	.LVL132:
 1219              	.L59:
 1220              		.cfi_restore_state
 671:Drivers/BSP/Components/vl53l8cx/modules/vl53l8cx_api.c **** 
 1221              		.loc 1 671 10 is_stmt 1 view .LVU354
 671:Drivers/BSP/Components/vl53l8cx/modules/vl53l8cx_api.c **** 
 1222              		.loc 1 671 20 is_stmt 0 view .LVU355
 1223 0092 0022     		movs	r2, #0
 1224 0094 47F6FF71 		movw	r1, #32767
 1225 0098 2846     		mov	r0, r5
 1226 009a FFF7FEFF 		bl	VL53L8CX_WrByte
 1227              	.LVL133:
 671:Drivers/BSP/Components/vl53l8cx/modules/vl53l8cx_api.c **** 
 1228              		.loc 1 671 17 view .LVU356
 1229 009e 0443     		orrs	r4, r4, r0
 1230              	.LVL134:
 671:Drivers/BSP/Components/vl53l8cx/modules/vl53l8cx_api.c **** 
 1231              		.loc 1 671 17 view .LVU357
 1232 00a0 E4B2     		uxtb	r4, r4
 1233              	.LVL135:
 674:Drivers/BSP/Components/vl53l8cx/modules/vl53l8cx_api.c **** 	        status |= VL53L8CX_WrByte(&(p_dev->platform), 0x14, 0x01);
 1234              		.loc 1 674 10 is_stmt 1 view .LVU358
 674:Drivers/BSP/Components/vl53l8cx/modules/vl53l8cx_api.c **** 	        status |= VL53L8CX_WrByte(&(p_dev->platform), 0x14, 0x01);
 1235              		.loc 1 674 20 is_stmt 0 view .LVU359
 1236 00a2 1622     		movs	r2, #22
 1237 00a4 1521     		movs	r1, #21
 1238 00a6 2846     		mov	r0, r5
 1239 00a8 FFF7FEFF 		bl	VL53L8CX_WrByte
 1240              	.LVL136:
 674:Drivers/BSP/Components/vl53l8cx/modules/vl53l8cx_api.c **** 	        status |= VL53L8CX_WrByte(&(p_dev->platform), 0x14, 0x01);
 1241              		.loc 1 674 17 view .LVU360
 1242 00ac 0443     		orrs	r4, r4, r0
 1243              	.LVL137:
 674:Drivers/BSP/Components/vl53l8cx/modules/vl53l8cx_api.c **** 	        status |= VL53L8CX_WrByte(&(p_dev->platform), 0x14, 0x01);
 1244              		.loc 1 674 17 view .LVU361
 1245 00ae E4B2     		uxtb	r4, r4
 1246              	.LVL138:
 675:Drivers/BSP/Components/vl53l8cx/modules/vl53l8cx_api.c **** 
 1247              		.loc 1 675 10 is_stmt 1 view .LVU362
 675:Drivers/BSP/Components/vl53l8cx/modules/vl53l8cx_api.c **** 
 1248              		.loc 1 675 20 is_stmt 0 view .LVU363
ARM GAS  C:\Temp\cc1zxvPB.s 			page 38


 1249 00b0 0122     		movs	r2, #1
 1250 00b2 1421     		movs	r1, #20
 1251 00b4 2846     		mov	r0, r5
 1252 00b6 FFF7FEFF 		bl	VL53L8CX_WrByte
 1253              	.LVL139:
 675:Drivers/BSP/Components/vl53l8cx/modules/vl53l8cx_api.c **** 
 1254              		.loc 1 675 17 view .LVU364
 1255 00ba 0443     		orrs	r4, r4, r0
 1256              	.LVL140:
 675:Drivers/BSP/Components/vl53l8cx/modules/vl53l8cx_api.c **** 
 1257              		.loc 1 675 17 view .LVU365
 1258 00bc E4B2     		uxtb	r4, r4
 1259              	.LVL141:
 678:Drivers/BSP/Components/vl53l8cx/modules/vl53l8cx_api.c **** 	        {
 1260              		.loc 1 678 10 is_stmt 1 view .LVU366
 663:Drivers/BSP/Components/vl53l8cx/modules/vl53l8cx_api.c **** 	uint32_t auto_stop_flag = 0;
 1261              		.loc 1 663 11 is_stmt 0 view .LVU367
 1262 00be 0026     		movs	r6, #0
 1263              	.LVL142:
 1264              	.L55:
 678:Drivers/BSP/Components/vl53l8cx/modules/vl53l8cx_api.c **** 	        {
 1265              		.loc 1 678 45 is_stmt 1 view .LVU368
 1266 00c0 9DF90730 		ldrsb	r3, [sp, #7]
 1267 00c4 002B     		cmp	r3, #0
 1268 00c6 B1DB     		blt	.L54
 680:Drivers/BSP/Components/vl53l8cx/modules/vl53l8cx_api.c **** 	        	status |= VL53L8CX_WaitMs(&(p_dev->platform), 10);
 1269              		.loc 1 680 11 view .LVU369
 680:Drivers/BSP/Components/vl53l8cx/modules/vl53l8cx_api.c **** 	        	status |= VL53L8CX_WaitMs(&(p_dev->platform), 10);
 1270              		.loc 1 680 21 is_stmt 0 view .LVU370
 1271 00c8 0DF10702 		add	r2, sp, #7
 1272 00cc 0621     		movs	r1, #6
 1273 00ce 2846     		mov	r0, r5
 1274 00d0 FFF7FEFF 		bl	VL53L8CX_RdByte
 1275              	.LVL143:
 680:Drivers/BSP/Components/vl53l8cx/modules/vl53l8cx_api.c **** 	        	status |= VL53L8CX_WaitMs(&(p_dev->platform), 10);
 1276              		.loc 1 680 18 view .LVU371
 1277 00d4 0443     		orrs	r4, r4, r0
 1278              	.LVL144:
 680:Drivers/BSP/Components/vl53l8cx/modules/vl53l8cx_api.c **** 	        	status |= VL53L8CX_WaitMs(&(p_dev->platform), 10);
 1279              		.loc 1 680 18 view .LVU372
 1280 00d6 E4B2     		uxtb	r4, r4
 1281              	.LVL145:
 681:Drivers/BSP/Components/vl53l8cx/modules/vl53l8cx_api.c **** 	        	timeout++;	/* Timeout reached after 5 seconds */
 1282              		.loc 1 681 11 is_stmt 1 view .LVU373
 681:Drivers/BSP/Components/vl53l8cx/modules/vl53l8cx_api.c **** 	        	timeout++;	/* Timeout reached after 5 seconds */
 1283              		.loc 1 681 21 is_stmt 0 view .LVU374
 1284 00d8 0A21     		movs	r1, #10
 1285 00da 2846     		mov	r0, r5
 1286 00dc FFF7FEFF 		bl	VL53L8CX_WaitMs
 1287              	.LVL146:
 681:Drivers/BSP/Components/vl53l8cx/modules/vl53l8cx_api.c **** 	        	timeout++;	/* Timeout reached after 5 seconds */
 1288              		.loc 1 681 18 view .LVU375
 1289 00e0 0443     		orrs	r4, r4, r0
 1290              	.LVL147:
 681:Drivers/BSP/Components/vl53l8cx/modules/vl53l8cx_api.c **** 	        	timeout++;	/* Timeout reached after 5 seconds */
 1291              		.loc 1 681 18 view .LVU376
 1292 00e2 E4B2     		uxtb	r4, r4
ARM GAS  C:\Temp\cc1zxvPB.s 			page 39


 1293              	.LVL148:
 682:Drivers/BSP/Components/vl53l8cx/modules/vl53l8cx_api.c **** 
 1294              		.loc 1 682 11 is_stmt 1 view .LVU377
 682:Drivers/BSP/Components/vl53l8cx/modules/vl53l8cx_api.c **** 
 1295              		.loc 1 682 18 is_stmt 0 view .LVU378
 1296 00e4 0136     		adds	r6, r6, #1
 1297              	.LVL149:
 682:Drivers/BSP/Components/vl53l8cx/modules/vl53l8cx_api.c **** 
 1298              		.loc 1 682 18 view .LVU379
 1299 00e6 B6B2     		uxth	r6, r6
 1300              	.LVL150:
 684:Drivers/BSP/Components/vl53l8cx/modules/vl53l8cx_api.c **** 				{
 1301              		.loc 1 684 11 is_stmt 1 view .LVU380
 684:Drivers/BSP/Components/vl53l8cx/modules/vl53l8cx_api.c **** 				{
 1302              		.loc 1 684 13 is_stmt 0 view .LVU381
 1303 00e8 B6F5FA7F 		cmp	r6, #500
 1304 00ec E8D9     		bls	.L55
 686:Drivers/BSP/Components/vl53l8cx/modules/vl53l8cx_api.c **** 					break;
 1305              		.loc 1 686 6 is_stmt 1 view .LVU382
 686:Drivers/BSP/Components/vl53l8cx/modules/vl53l8cx_api.c **** 					break;
 1306              		.loc 1 686 13 is_stmt 0 view .LVU383
 1307 00ee 9DF80730 		ldrb	r3, [sp, #7]	@ zero_extendqisi2
 1308 00f2 1C43     		orrs	r4, r4, r3
 1309              	.LVL151:
 687:Drivers/BSP/Components/vl53l8cx/modules/vl53l8cx_api.c **** 				}
 1310              		.loc 1 687 6 is_stmt 1 view .LVU384
 1311 00f4 9AE7     		b	.L54
 1312              	.LVL152:
 1313              	.L60:
 695:Drivers/BSP/Components/vl53l8cx/modules/vl53l8cx_api.c **** 		if((tmp != (uint8_t)0x84) && (tmp != (uint8_t)0x85)){
 1314              		.loc 1 695 3 view .LVU385
 695:Drivers/BSP/Components/vl53l8cx/modules/vl53l8cx_api.c **** 		if((tmp != (uint8_t)0x84) && (tmp != (uint8_t)0x85)){
 1315              		.loc 1 695 13 is_stmt 0 view .LVU386
 1316 00f6 0DF10702 		add	r2, sp, #7
 1317 00fa 0721     		movs	r1, #7
 1318 00fc 2846     		mov	r0, r5
 1319 00fe FFF7FEFF 		bl	VL53L8CX_RdByte
 1320              	.LVL153:
 695:Drivers/BSP/Components/vl53l8cx/modules/vl53l8cx_api.c **** 		if((tmp != (uint8_t)0x84) && (tmp != (uint8_t)0x85)){
 1321              		.loc 1 695 10 view .LVU387
 1322 0102 0443     		orrs	r4, r4, r0
 1323              	.LVL154:
 695:Drivers/BSP/Components/vl53l8cx/modules/vl53l8cx_api.c **** 		if((tmp != (uint8_t)0x84) && (tmp != (uint8_t)0x85)){
 1324              		.loc 1 695 10 view .LVU388
 1325 0104 E4B2     		uxtb	r4, r4
 1326              	.LVL155:
 696:Drivers/BSP/Components/vl53l8cx/modules/vl53l8cx_api.c **** 		   status |= tmp;
 1327              		.loc 1 696 3 is_stmt 1 view .LVU389
 696:Drivers/BSP/Components/vl53l8cx/modules/vl53l8cx_api.c **** 		   status |= tmp;
 1328              		.loc 1 696 29 is_stmt 0 view .LVU390
 1329 0106 9DF80720 		ldrb	r2, [sp, #7]	@ zero_extendqisi2
 1330 010a 02F17C03 		add	r3, r2, #124
 1331 010e DBB2     		uxtb	r3, r3
 696:Drivers/BSP/Components/vl53l8cx/modules/vl53l8cx_api.c **** 		   status |= tmp;
 1332              		.loc 1 696 5 view .LVU391
 1333 0110 012B     		cmp	r3, #1
 1334 0112 97D9     		bls	.L57
ARM GAS  C:\Temp\cc1zxvPB.s 			page 40


 697:Drivers/BSP/Components/vl53l8cx/modules/vl53l8cx_api.c **** 		}
 1335              		.loc 1 697 6 is_stmt 1 view .LVU392
 697:Drivers/BSP/Components/vl53l8cx/modules/vl53l8cx_api.c **** 		}
 1336              		.loc 1 697 13 is_stmt 0 view .LVU393
 1337 0114 1443     		orrs	r4, r4, r2
 1338              	.LVL156:
 697:Drivers/BSP/Components/vl53l8cx/modules/vl53l8cx_api.c **** 		}
 1339              		.loc 1 697 13 view .LVU394
 1340 0116 95E7     		b	.L57
 1341              		.cfi_endproc
 1342              	.LFE10:
 1344              		.section	.text.vl53l8cx_check_data_ready,"ax",%progbits
 1345              		.align	1
 1346              		.global	vl53l8cx_check_data_ready
 1347              		.syntax unified
 1348              		.thumb
 1349              		.thumb_func
 1351              	vl53l8cx_check_data_ready:
 1352              	.LVL157:
 1353              	.LFB11:
 712:Drivers/BSP/Components/vl53l8cx/modules/vl53l8cx_api.c **** 
 713:Drivers/BSP/Components/vl53l8cx/modules/vl53l8cx_api.c **** uint8_t vl53l8cx_check_data_ready(
 714:Drivers/BSP/Components/vl53l8cx/modules/vl53l8cx_api.c **** 		VL53L8CX_Configuration		*p_dev,
 715:Drivers/BSP/Components/vl53l8cx/modules/vl53l8cx_api.c **** 		uint8_t				*p_isReady)
 716:Drivers/BSP/Components/vl53l8cx/modules/vl53l8cx_api.c **** {
 1354              		.loc 1 716 1 is_stmt 1 view -0
 1355              		.cfi_startproc
 1356              		@ args = 0, pretend = 0, frame = 0
 1357              		@ frame_needed = 0, uses_anonymous_args = 0
 1358              		.loc 1 716 1 is_stmt 0 view .LVU396
 1359 0000 38B5     		push	{r3, r4, r5, lr}
 1360              		.cfi_def_cfa_offset 16
 1361              		.cfi_offset 3, -16
 1362              		.cfi_offset 4, -12
 1363              		.cfi_offset 5, -8
 1364              		.cfi_offset 14, -4
 1365 0002 0446     		mov	r4, r0
 1366 0004 0D46     		mov	r5, r1
 717:Drivers/BSP/Components/vl53l8cx/modules/vl53l8cx_api.c **** 	uint8_t status = VL53L8CX_STATUS_OK;
 1367              		.loc 1 717 2 is_stmt 1 view .LVU397
 1368              	.LVL158:
 718:Drivers/BSP/Components/vl53l8cx/modules/vl53l8cx_api.c **** 
 719:Drivers/BSP/Components/vl53l8cx/modules/vl53l8cx_api.c **** 	status |= VL53L8CX_RdMulti(&(p_dev->platform), 0x0, p_dev->temp_buffer, 4);
 1369              		.loc 1 719 2 view .LVU398
 1370              		.loc 1 719 12 is_stmt 0 view .LVU399
 1371 0006 0423     		movs	r3, #4
 1372 0008 00F5A262 		add	r2, r0, #1296
 1373 000c 0021     		movs	r1, #0
 1374              	.LVL159:
 1375              		.loc 1 719 12 view .LVU400
 1376 000e FFF7FEFF 		bl	VL53L8CX_RdMulti
 1377              	.LVL160:
 720:Drivers/BSP/Components/vl53l8cx/modules/vl53l8cx_api.c **** 
 721:Drivers/BSP/Components/vl53l8cx/modules/vl53l8cx_api.c **** 	if((p_dev->temp_buffer[0] != p_dev->streamcount)
 1378              		.loc 1 721 2 is_stmt 1 view .LVU401
 1379              		.loc 1 721 24 is_stmt 0 view .LVU402
 1380 0012 94F81035 		ldrb	r3, [r4, #1296]	@ zero_extendqisi2
ARM GAS  C:\Temp\cc1zxvPB.s 			page 41


 1381              		.loc 1 721 36 view .LVU403
 1382 0016 227C     		ldrb	r2, [r4, #16]	@ zero_extendqisi2
 1383              		.loc 1 721 4 view .LVU404
 1384 0018 9342     		cmp	r3, r2
 1385 001a 05D0     		beq	.L62
 722:Drivers/BSP/Components/vl53l8cx/modules/vl53l8cx_api.c **** 			&& (p_dev->temp_buffer[0] != (uint8_t)255)
 1386              		.loc 1 722 4 view .LVU405
 1387 001c FF2B     		cmp	r3, #255
 1388 001e 03D0     		beq	.L62
 723:Drivers/BSP/Components/vl53l8cx/modules/vl53l8cx_api.c **** 			&& (p_dev->temp_buffer[1] == (uint8_t)0x5)
 1389              		.loc 1 723 26 view .LVU406
 1390 0020 94F81135 		ldrb	r3, [r4, #1297]	@ zero_extendqisi2
 1391              		.loc 1 723 4 view .LVU407
 1392 0024 052B     		cmp	r3, #5
 1393 0026 06D0     		beq	.L66
 1394              	.L62:
 724:Drivers/BSP/Components/vl53l8cx/modules/vl53l8cx_api.c **** 			&& ((p_dev->temp_buffer[2] & (uint8_t)0x5) == (uint8_t)0x5)
 725:Drivers/BSP/Components/vl53l8cx/modules/vl53l8cx_api.c **** 			&& ((p_dev->temp_buffer[3] & (uint8_t)0x10) ==(uint8_t)0x10)
 726:Drivers/BSP/Components/vl53l8cx/modules/vl53l8cx_api.c **** 			)
 727:Drivers/BSP/Components/vl53l8cx/modules/vl53l8cx_api.c **** 	{
 728:Drivers/BSP/Components/vl53l8cx/modules/vl53l8cx_api.c **** 		*p_isReady = (uint8_t)1;
 729:Drivers/BSP/Components/vl53l8cx/modules/vl53l8cx_api.c **** 		 p_dev->streamcount = p_dev->temp_buffer[0];
 730:Drivers/BSP/Components/vl53l8cx/modules/vl53l8cx_api.c **** 	}
 731:Drivers/BSP/Components/vl53l8cx/modules/vl53l8cx_api.c **** 	else
 732:Drivers/BSP/Components/vl53l8cx/modules/vl53l8cx_api.c **** 	{
 733:Drivers/BSP/Components/vl53l8cx/modules/vl53l8cx_api.c ****         if ((p_dev->temp_buffer[3] & (uint8_t)0x80) != (uint8_t)0)
 1395              		.loc 1 733 9 is_stmt 1 view .LVU408
 1396              		.loc 1 733 53 is_stmt 0 view .LVU409
 1397 0028 94F91335 		ldrsb	r3, [r4, #1299]
 1398              		.loc 1 733 12 view .LVU410
 1399 002c 002B     		cmp	r3, #0
 1400 002e 13DB     		blt	.L67
 1401              	.L64:
 734:Drivers/BSP/Components/vl53l8cx/modules/vl53l8cx_api.c ****         {
 735:Drivers/BSP/Components/vl53l8cx/modules/vl53l8cx_api.c ****         	status |= p_dev->temp_buffer[2];	/* Return GO2 error status */
 736:Drivers/BSP/Components/vl53l8cx/modules/vl53l8cx_api.c ****         }
 737:Drivers/BSP/Components/vl53l8cx/modules/vl53l8cx_api.c **** 
 738:Drivers/BSP/Components/vl53l8cx/modules/vl53l8cx_api.c **** 		*p_isReady = 0;
 1402              		.loc 1 738 3 is_stmt 1 view .LVU411
 1403              		.loc 1 738 14 is_stmt 0 view .LVU412
 1404 0030 0023     		movs	r3, #0
 1405 0032 2B70     		strb	r3, [r5]
 1406              	.L63:
 739:Drivers/BSP/Components/vl53l8cx/modules/vl53l8cx_api.c **** 	}
 740:Drivers/BSP/Components/vl53l8cx/modules/vl53l8cx_api.c **** 
 741:Drivers/BSP/Components/vl53l8cx/modules/vl53l8cx_api.c **** 	return status;
 1407              		.loc 1 741 2 is_stmt 1 view .LVU413
 742:Drivers/BSP/Components/vl53l8cx/modules/vl53l8cx_api.c **** }
 1408              		.loc 1 742 1 is_stmt 0 view .LVU414
 1409 0034 38BD     		pop	{r3, r4, r5, pc}
 1410              	.LVL161:
 1411              	.L66:
 724:Drivers/BSP/Components/vl53l8cx/modules/vl53l8cx_api.c **** 			&& ((p_dev->temp_buffer[3] & (uint8_t)0x10) ==(uint8_t)0x10)
 1412              		.loc 1 724 27 view .LVU415
 1413 0036 94F81235 		ldrb	r3, [r4, #1298]	@ zero_extendqisi2
 724:Drivers/BSP/Components/vl53l8cx/modules/vl53l8cx_api.c **** 			&& ((p_dev->temp_buffer[3] & (uint8_t)0x10) ==(uint8_t)0x10)
 1414              		.loc 1 724 4 view .LVU416
ARM GAS  C:\Temp\cc1zxvPB.s 			page 42


 1415 003a 03F00503 		and	r3, r3, #5
 1416 003e 052B     		cmp	r3, #5
 1417 0040 F2D1     		bne	.L62
 725:Drivers/BSP/Components/vl53l8cx/modules/vl53l8cx_api.c **** 			)
 1418              		.loc 1 725 27 view .LVU417
 1419 0042 94F81335 		ldrb	r3, [r4, #1299]	@ zero_extendqisi2
 725:Drivers/BSP/Components/vl53l8cx/modules/vl53l8cx_api.c **** 			)
 1420              		.loc 1 725 4 view .LVU418
 1421 0046 13F0100F 		tst	r3, #16
 1422 004a EDD0     		beq	.L62
 728:Drivers/BSP/Components/vl53l8cx/modules/vl53l8cx_api.c **** 		 p_dev->streamcount = p_dev->temp_buffer[0];
 1423              		.loc 1 728 3 is_stmt 1 view .LVU419
 728:Drivers/BSP/Components/vl53l8cx/modules/vl53l8cx_api.c **** 		 p_dev->streamcount = p_dev->temp_buffer[0];
 1424              		.loc 1 728 14 is_stmt 0 view .LVU420
 1425 004c 0123     		movs	r3, #1
 1426 004e 2B70     		strb	r3, [r5]
 729:Drivers/BSP/Components/vl53l8cx/modules/vl53l8cx_api.c **** 	}
 1427              		.loc 1 729 4 is_stmt 1 view .LVU421
 729:Drivers/BSP/Components/vl53l8cx/modules/vl53l8cx_api.c **** 	}
 1428              		.loc 1 729 43 is_stmt 0 view .LVU422
 1429 0050 94F81035 		ldrb	r3, [r4, #1296]	@ zero_extendqisi2
 729:Drivers/BSP/Components/vl53l8cx/modules/vl53l8cx_api.c **** 	}
 1430              		.loc 1 729 23 view .LVU423
 1431 0054 2374     		strb	r3, [r4, #16]
 1432 0056 EDE7     		b	.L63
 1433              	.L67:
 735:Drivers/BSP/Components/vl53l8cx/modules/vl53l8cx_api.c ****         }
 1434              		.loc 1 735 10 is_stmt 1 view .LVU424
 735:Drivers/BSP/Components/vl53l8cx/modules/vl53l8cx_api.c ****         }
 1435              		.loc 1 735 38 is_stmt 0 view .LVU425
 1436 0058 94F81235 		ldrb	r3, [r4, #1298]	@ zero_extendqisi2
 735:Drivers/BSP/Components/vl53l8cx/modules/vl53l8cx_api.c ****         }
 1437              		.loc 1 735 17 view .LVU426
 1438 005c 1843     		orrs	r0, r0, r3
 1439              	.LVL162:
 735:Drivers/BSP/Components/vl53l8cx/modules/vl53l8cx_api.c ****         }
 1440              		.loc 1 735 17 view .LVU427
 1441 005e C0B2     		uxtb	r0, r0
 1442              	.LVL163:
 735:Drivers/BSP/Components/vl53l8cx/modules/vl53l8cx_api.c ****         }
 1443              		.loc 1 735 17 view .LVU428
 1444 0060 E6E7     		b	.L64
 1445              		.cfi_endproc
 1446              	.LFE11:
 1448              		.section	.text.vl53l8cx_get_ranging_data,"ax",%progbits
 1449              		.align	1
 1450              		.global	vl53l8cx_get_ranging_data
 1451              		.syntax unified
 1452              		.thumb
 1453              		.thumb_func
 1455              	vl53l8cx_get_ranging_data:
 1456              	.LVL164:
 1457              	.LFB12:
 743:Drivers/BSP/Components/vl53l8cx/modules/vl53l8cx_api.c **** 
 744:Drivers/BSP/Components/vl53l8cx/modules/vl53l8cx_api.c **** uint8_t vl53l8cx_get_ranging_data(
 745:Drivers/BSP/Components/vl53l8cx/modules/vl53l8cx_api.c **** 		VL53L8CX_Configuration		*p_dev,
 746:Drivers/BSP/Components/vl53l8cx/modules/vl53l8cx_api.c **** 		VL53L8CX_ResultsData		*p_results)
ARM GAS  C:\Temp\cc1zxvPB.s 			page 43


 747:Drivers/BSP/Components/vl53l8cx/modules/vl53l8cx_api.c **** {
 1458              		.loc 1 747 1 is_stmt 1 view -0
 1459              		.cfi_startproc
 1460              		@ args = 0, pretend = 0, frame = 0
 1461              		@ frame_needed = 0, uses_anonymous_args = 0
 1462              		.loc 1 747 1 is_stmt 0 view .LVU430
 1463 0000 2DE9F041 		push	{r4, r5, r6, r7, r8, lr}
 1464              		.cfi_def_cfa_offset 24
 1465              		.cfi_offset 4, -24
 1466              		.cfi_offset 5, -20
 1467              		.cfi_offset 6, -16
 1468              		.cfi_offset 7, -12
 1469              		.cfi_offset 8, -8
 1470              		.cfi_offset 14, -4
 1471 0004 0546     		mov	r5, r0
 1472 0006 0C46     		mov	r4, r1
 748:Drivers/BSP/Components/vl53l8cx/modules/vl53l8cx_api.c **** 	uint8_t status = VL53L8CX_STATUS_OK;
 1473              		.loc 1 748 2 is_stmt 1 view .LVU431
 1474              	.LVL165:
 749:Drivers/BSP/Components/vl53l8cx/modules/vl53l8cx_api.c **** 	uint16_t header_id, footer_id;
 1475              		.loc 1 749 2 view .LVU432
 750:Drivers/BSP/Components/vl53l8cx/modules/vl53l8cx_api.c **** 	union Block_header *bh_ptr;
 1476              		.loc 1 750 2 view .LVU433
 751:Drivers/BSP/Components/vl53l8cx/modules/vl53l8cx_api.c **** 	uint32_t i, j, msize;
 1477              		.loc 1 751 2 view .LVU434
 752:Drivers/BSP/Components/vl53l8cx/modules/vl53l8cx_api.c **** 	status |= VL53L8CX_RdMulti(&(p_dev->platform), 0x0,
 1478              		.loc 1 752 2 view .LVU435
 753:Drivers/BSP/Components/vl53l8cx/modules/vl53l8cx_api.c **** 			p_dev->temp_buffer, p_dev->data_read_size);
 1479              		.loc 1 753 9 is_stmt 0 view .LVU436
 1480 0008 00F5A267 		add	r7, r0, #1296
 752:Drivers/BSP/Components/vl53l8cx/modules/vl53l8cx_api.c **** 	status |= VL53L8CX_RdMulti(&(p_dev->platform), 0x0,
 1481              		.loc 1 752 12 view .LVU437
 1482 000c 4369     		ldr	r3, [r0, #20]
 1483 000e 3A46     		mov	r2, r7
 1484 0010 0021     		movs	r1, #0
 1485              	.LVL166:
 752:Drivers/BSP/Components/vl53l8cx/modules/vl53l8cx_api.c **** 	status |= VL53L8CX_RdMulti(&(p_dev->platform), 0x0,
 1486              		.loc 1 752 12 view .LVU438
 1487 0012 FFF7FEFF 		bl	VL53L8CX_RdMulti
 1488              	.LVL167:
 752:Drivers/BSP/Components/vl53l8cx/modules/vl53l8cx_api.c **** 	status |= VL53L8CX_RdMulti(&(p_dev->platform), 0x0,
 1489              		.loc 1 752 12 view .LVU439
 1490 0016 0646     		mov	r6, r0
 1491              	.LVL168:
 754:Drivers/BSP/Components/vl53l8cx/modules/vl53l8cx_api.c **** 	p_dev->streamcount = p_dev->temp_buffer[0];
 1492              		.loc 1 754 2 is_stmt 1 view .LVU440
 1493              		.loc 1 754 41 is_stmt 0 view .LVU441
 1494 0018 95F81035 		ldrb	r3, [r5, #1296]	@ zero_extendqisi2
 1495              		.loc 1 754 21 view .LVU442
 1496 001c 2B74     		strb	r3, [r5, #16]
 755:Drivers/BSP/Components/vl53l8cx/modules/vl53l8cx_api.c **** 	VL53L8CX_SwapBuffer(p_dev->temp_buffer, (uint16_t)p_dev->data_read_size);
 1497              		.loc 1 755 2 is_stmt 1 view .LVU443
 1498 001e A98A     		ldrh	r1, [r5, #20]
 1499 0020 3846     		mov	r0, r7
 1500 0022 FFF7FEFF 		bl	VL53L8CX_SwapBuffer
 1501              	.LVL169:
 756:Drivers/BSP/Components/vl53l8cx/modules/vl53l8cx_api.c **** 
ARM GAS  C:\Temp\cc1zxvPB.s 			page 44


 757:Drivers/BSP/Components/vl53l8cx/modules/vl53l8cx_api.c **** 	/* Start conversion at position 16 to avoid headers */
 758:Drivers/BSP/Components/vl53l8cx/modules/vl53l8cx_api.c **** 	for (i = (uint32_t)16; i 
 1502              		.loc 1 758 2 view .LVU444
 1503              		.loc 1 758 9 is_stmt 0 view .LVU445
 1504 0026 4FF01008 		mov	r8, #16
 1505              		.loc 1 758 2 view .LVU446
 1506 002a 19E0     		b	.L69
 1507              	.LVL170:
 1508              	.L70:
 759:Drivers/BSP/Components/vl53l8cx/modules/vl53l8cx_api.c ****              < (uint32_t)p_dev->data_read_size; i+=(uint32_t)4)
 760:Drivers/BSP/Components/vl53l8cx/modules/vl53l8cx_api.c **** 	{
 761:Drivers/BSP/Components/vl53l8cx/modules/vl53l8cx_api.c **** 		bh_ptr = (union Block_header *)&(p_dev->temp_buffer[i]);
 762:Drivers/BSP/Components/vl53l8cx/modules/vl53l8cx_api.c **** 		if ((bh_ptr->type > (uint32_t)0x1) 
 763:Drivers/BSP/Components/vl53l8cx/modules/vl53l8cx_api.c ****                     && (bh_ptr->type < (uint32_t)0xd))
 764:Drivers/BSP/Components/vl53l8cx/modules/vl53l8cx_api.c **** 		{
 765:Drivers/BSP/Components/vl53l8cx/modules/vl53l8cx_api.c **** 			msize = bh_ptr->type * bh_ptr->size;
 766:Drivers/BSP/Components/vl53l8cx/modules/vl53l8cx_api.c **** 		}
 767:Drivers/BSP/Components/vl53l8cx/modules/vl53l8cx_api.c **** 		else
 768:Drivers/BSP/Components/vl53l8cx/modules/vl53l8cx_api.c **** 		{
 769:Drivers/BSP/Components/vl53l8cx/modules/vl53l8cx_api.c **** 			msize = bh_ptr->size;
 1509              		.loc 1 769 4 is_stmt 1 view .LVU447
 1510              		.loc 1 769 18 is_stmt 0 view .LVU448
 1511 002c EF5A     		ldrh	r7, [r5, r3]
 1512 002e C7F30B17 		ubfx	r7, r7, #4, #12
 1513              	.LVL171:
 1514              		.loc 1 769 18 view .LVU449
 1515 0032 29E0     		b	.L71
 1516              	.L73:
 770:Drivers/BSP/Components/vl53l8cx/modules/vl53l8cx_api.c **** 		}
 771:Drivers/BSP/Components/vl53l8cx/modules/vl53l8cx_api.c **** 
 772:Drivers/BSP/Components/vl53l8cx/modules/vl53l8cx_api.c **** 		switch(bh_ptr->idx){
 1517              		.loc 1 772 3 view .LVU450
 1518 0034 4EF28402 		movw	r2, #57476
 1519 0038 9342     		cmp	r3, r2
 1520 003a 0ED1     		bne	.L76
 773:Drivers/BSP/Components/vl53l8cx/modules/vl53l8cx_api.c **** 			case VL53L8CX_METADATA_IDX:
 774:Drivers/BSP/Components/vl53l8cx/modules/vl53l8cx_api.c **** 				p_results->silicon_temp_degc =
 775:Drivers/BSP/Components/vl53l8cx/modules/vl53l8cx_api.c **** 						(int8_t)p_dev->temp_buffer[i + (uint32_t)12];
 776:Drivers/BSP/Components/vl53l8cx/modules/vl53l8cx_api.c **** 				break;
 777:Drivers/BSP/Components/vl53l8cx/modules/vl53l8cx_api.c **** 
 778:Drivers/BSP/Components/vl53l8cx/modules/vl53l8cx_api.c **** #ifndef VL53L8CX_DISABLE_AMBIENT_PER_SPAD
 779:Drivers/BSP/Components/vl53l8cx/modules/vl53l8cx_api.c **** 			case VL53L8CX_AMBIENT_RATE_IDX:
 780:Drivers/BSP/Components/vl53l8cx/modules/vl53l8cx_api.c **** 				(void)memcpy(p_results->ambient_per_spad,
 781:Drivers/BSP/Components/vl53l8cx/modules/vl53l8cx_api.c **** 				&(p_dev->temp_buffer[i + (uint32_t)4]), msize);
 782:Drivers/BSP/Components/vl53l8cx/modules/vl53l8cx_api.c **** 				break;
 783:Drivers/BSP/Components/vl53l8cx/modules/vl53l8cx_api.c **** #endif
 784:Drivers/BSP/Components/vl53l8cx/modules/vl53l8cx_api.c **** #ifndef VL53L8CX_DISABLE_NB_SPADS_ENABLED
 785:Drivers/BSP/Components/vl53l8cx/modules/vl53l8cx_api.c **** 			case VL53L8CX_SPAD_COUNT_IDX:
 786:Drivers/BSP/Components/vl53l8cx/modules/vl53l8cx_api.c **** 				(void)memcpy(p_results->nb_spads_enabled,
 787:Drivers/BSP/Components/vl53l8cx/modules/vl53l8cx_api.c **** 				&(p_dev->temp_buffer[i + (uint32_t)4]), msize);
 788:Drivers/BSP/Components/vl53l8cx/modules/vl53l8cx_api.c **** 				break;
 789:Drivers/BSP/Components/vl53l8cx/modules/vl53l8cx_api.c **** #endif
 790:Drivers/BSP/Components/vl53l8cx/modules/vl53l8cx_api.c **** #ifndef VL53L8CX_DISABLE_NB_TARGET_DETECTED
 791:Drivers/BSP/Components/vl53l8cx/modules/vl53l8cx_api.c **** 			case VL53L8CX_NB_TARGET_DETECTED_IDX:
 792:Drivers/BSP/Components/vl53l8cx/modules/vl53l8cx_api.c **** 				(void)memcpy(p_results->nb_target_detected,
 793:Drivers/BSP/Components/vl53l8cx/modules/vl53l8cx_api.c **** 				&(p_dev->temp_buffer[i + (uint32_t)4]), msize);
 794:Drivers/BSP/Components/vl53l8cx/modules/vl53l8cx_api.c **** 				break;
ARM GAS  C:\Temp\cc1zxvPB.s 			page 45


 795:Drivers/BSP/Components/vl53l8cx/modules/vl53l8cx_api.c **** #endif
 796:Drivers/BSP/Components/vl53l8cx/modules/vl53l8cx_api.c **** #ifndef VL53L8CX_DISABLE_SIGNAL_PER_SPAD
 797:Drivers/BSP/Components/vl53l8cx/modules/vl53l8cx_api.c **** 			case VL53L8CX_SIGNAL_RATE_IDX:
 798:Drivers/BSP/Components/vl53l8cx/modules/vl53l8cx_api.c **** 				(void)memcpy(p_results->signal_per_spad,
 799:Drivers/BSP/Components/vl53l8cx/modules/vl53l8cx_api.c **** 				&(p_dev->temp_buffer[i + (uint32_t)4]), msize);
 800:Drivers/BSP/Components/vl53l8cx/modules/vl53l8cx_api.c **** 				break;
 801:Drivers/BSP/Components/vl53l8cx/modules/vl53l8cx_api.c **** #endif
 802:Drivers/BSP/Components/vl53l8cx/modules/vl53l8cx_api.c **** #ifndef VL53L8CX_DISABLE_RANGE_SIGMA_MM
 803:Drivers/BSP/Components/vl53l8cx/modules/vl53l8cx_api.c **** 			case VL53L8CX_RANGE_SIGMA_MM_IDX:
 804:Drivers/BSP/Components/vl53l8cx/modules/vl53l8cx_api.c **** 				(void)memcpy(p_results->range_sigma_mm,
 805:Drivers/BSP/Components/vl53l8cx/modules/vl53l8cx_api.c **** 				&(p_dev->temp_buffer[i + (uint32_t)4]), msize);
 806:Drivers/BSP/Components/vl53l8cx/modules/vl53l8cx_api.c **** 				break;
 807:Drivers/BSP/Components/vl53l8cx/modules/vl53l8cx_api.c **** #endif
 808:Drivers/BSP/Components/vl53l8cx/modules/vl53l8cx_api.c **** #ifndef VL53L8CX_DISABLE_DISTANCE_MM
 809:Drivers/BSP/Components/vl53l8cx/modules/vl53l8cx_api.c **** 			case VL53L8CX_DISTANCE_IDX:
 810:Drivers/BSP/Components/vl53l8cx/modules/vl53l8cx_api.c **** 				(void)memcpy(p_results->distance_mm,
 811:Drivers/BSP/Components/vl53l8cx/modules/vl53l8cx_api.c **** 				&(p_dev->temp_buffer[i + (uint32_t)4]), msize);
 812:Drivers/BSP/Components/vl53l8cx/modules/vl53l8cx_api.c **** 				break;
 813:Drivers/BSP/Components/vl53l8cx/modules/vl53l8cx_api.c **** #endif
 814:Drivers/BSP/Components/vl53l8cx/modules/vl53l8cx_api.c **** #ifndef VL53L8CX_DISABLE_REFLECTANCE_PERCENT
 815:Drivers/BSP/Components/vl53l8cx/modules/vl53l8cx_api.c **** 			case VL53L8CX_REFLECTANCE_EST_PC_IDX:
 816:Drivers/BSP/Components/vl53l8cx/modules/vl53l8cx_api.c **** 				(void)memcpy(p_results->reflectance,
 817:Drivers/BSP/Components/vl53l8cx/modules/vl53l8cx_api.c **** 				&(p_dev->temp_buffer[i + (uint32_t)4]), msize);
 818:Drivers/BSP/Components/vl53l8cx/modules/vl53l8cx_api.c **** 				break;
 819:Drivers/BSP/Components/vl53l8cx/modules/vl53l8cx_api.c **** #endif
 820:Drivers/BSP/Components/vl53l8cx/modules/vl53l8cx_api.c **** #ifndef VL53L8CX_DISABLE_TARGET_STATUS
 821:Drivers/BSP/Components/vl53l8cx/modules/vl53l8cx_api.c **** 			case VL53L8CX_TARGET_STATUS_IDX:
 822:Drivers/BSP/Components/vl53l8cx/modules/vl53l8cx_api.c **** 				(void)memcpy(p_results->target_status,
 1521              		.loc 1 822 5 is_stmt 1 view .LVU451
 823:Drivers/BSP/Components/vl53l8cx/modules/vl53l8cx_api.c **** 				&(p_dev->temp_buffer[i + (uint32_t)4]), msize);
 1522              		.loc 1 823 5 is_stmt 0 view .LVU452
 1523 003c 08F21451 		addw	r1, r8, #1300
 1524              	.LVL172:
 822:Drivers/BSP/Components/vl53l8cx/modules/vl53l8cx_api.c **** 				&(p_dev->temp_buffer[i + (uint32_t)4]), msize);
 1525              		.loc 1 822 11 view .LVU453
 1526 0040 3A46     		mov	r2, r7
 1527 0042 2944     		add	r1, r1, r5
 1528 0044 04F1C200 		add	r0, r4, #194
 1529 0048 FFF7FEFF 		bl	memcpy
 1530              	.LVL173:
 824:Drivers/BSP/Components/vl53l8cx/modules/vl53l8cx_api.c **** 				break;
 1531              		.loc 1 824 5 is_stmt 1 view .LVU454
 1532 004c 05E0     		b	.L76
 1533              	.LVL174:
 1534              	.L74:
 774:Drivers/BSP/Components/vl53l8cx/modules/vl53l8cx_api.c **** 						(int8_t)p_dev->temp_buffer[i + (uint32_t)12];
 1535              		.loc 1 774 5 view .LVU455
 775:Drivers/BSP/Components/vl53l8cx/modules/vl53l8cx_api.c **** 				break;
 1536              		.loc 1 775 36 is_stmt 0 view .LVU456
 1537 004e 08F10C03 		add	r3, r8, #12
 775:Drivers/BSP/Components/vl53l8cx/modules/vl53l8cx_api.c **** 				break;
 1538              		.loc 1 775 33 view .LVU457
 1539 0052 2B44     		add	r3, r3, r5
 775:Drivers/BSP/Components/vl53l8cx/modules/vl53l8cx_api.c **** 				break;
 1540              		.loc 1 775 7 view .LVU458
 1541 0054 93F91035 		ldrsb	r3, [r3, #1296]
 774:Drivers/BSP/Components/vl53l8cx/modules/vl53l8cx_api.c **** 						(int8_t)p_dev->temp_buffer[i + (uint32_t)12];
ARM GAS  C:\Temp\cc1zxvPB.s 			page 46


 1542              		.loc 1 774 34 view .LVU459
 1543 0058 2370     		strb	r3, [r4]
 776:Drivers/BSP/Components/vl53l8cx/modules/vl53l8cx_api.c **** 
 1544              		.loc 1 776 5 is_stmt 1 view .LVU460
 1545              	.LVL175:
 1546              	.L76:
 825:Drivers/BSP/Components/vl53l8cx/modules/vl53l8cx_api.c **** #endif
 826:Drivers/BSP/Components/vl53l8cx/modules/vl53l8cx_api.c **** #ifndef VL53L8CX_DISABLE_MOTION_INDICATOR
 827:Drivers/BSP/Components/vl53l8cx/modules/vl53l8cx_api.c **** 			case VL53L8CX_MOTION_DETEC_IDX:
 828:Drivers/BSP/Components/vl53l8cx/modules/vl53l8cx_api.c **** 				(void)memcpy(&p_results->motion_indicator,
 829:Drivers/BSP/Components/vl53l8cx/modules/vl53l8cx_api.c **** 				&(p_dev->temp_buffer[i + (uint32_t)4]), msize);
 830:Drivers/BSP/Components/vl53l8cx/modules/vl53l8cx_api.c **** 				break;
 831:Drivers/BSP/Components/vl53l8cx/modules/vl53l8cx_api.c **** #endif
 832:Drivers/BSP/Components/vl53l8cx/modules/vl53l8cx_api.c **** 			default:
 833:Drivers/BSP/Components/vl53l8cx/modules/vl53l8cx_api.c **** 				break;
 834:Drivers/BSP/Components/vl53l8cx/modules/vl53l8cx_api.c **** 		}
 835:Drivers/BSP/Components/vl53l8cx/modules/vl53l8cx_api.c **** 		i += msize;
 1547              		.loc 1 835 3 view .LVU461
 1548              		.loc 1 835 5 is_stmt 0 view .LVU462
 1549 005a 4744     		add	r7, r7, r8
 1550              	.LVL176:
 759:Drivers/BSP/Components/vl53l8cx/modules/vl53l8cx_api.c **** 	{
 1551              		.loc 1 759 50 is_stmt 1 view .LVU463
 1552 005c 07F10408 		add	r8, r7, #4
 1553              	.LVL177:
 1554              	.L69:
 759:Drivers/BSP/Components/vl53l8cx/modules/vl53l8cx_api.c **** 	{
 1555              		.loc 1 759 14 discriminator 1 view .LVU464
 759:Drivers/BSP/Components/vl53l8cx/modules/vl53l8cx_api.c **** 	{
 1556              		.loc 1 759 31 is_stmt 0 discriminator 1 view .LVU465
 1557 0060 6B69     		ldr	r3, [r5, #20]
 759:Drivers/BSP/Components/vl53l8cx/modules/vl53l8cx_api.c **** 	{
 1558              		.loc 1 759 14 discriminator 1 view .LVU466
 1559 0062 4345     		cmp	r3, r8
 1560 0064 2FD9     		bls	.L90
 761:Drivers/BSP/Components/vl53l8cx/modules/vl53l8cx_api.c **** 		if ((bh_ptr->type > (uint32_t)0x1) 
 1561              		.loc 1 761 3 is_stmt 1 view .LVU467
 761:Drivers/BSP/Components/vl53l8cx/modules/vl53l8cx_api.c **** 		if ((bh_ptr->type > (uint32_t)0x1) 
 1562              		.loc 1 761 10 is_stmt 0 view .LVU468
 1563 0066 08F5A263 		add	r3, r8, #1296
 1564 006a E918     		adds	r1, r5, r3
 1565              	.LVL178:
 762:Drivers/BSP/Components/vl53l8cx/modules/vl53l8cx_api.c ****                     && (bh_ptr->type < (uint32_t)0xd))
 1566              		.loc 1 762 3 is_stmt 1 view .LVU469
 762:Drivers/BSP/Components/vl53l8cx/modules/vl53l8cx_api.c ****                     && (bh_ptr->type < (uint32_t)0xd))
 1567              		.loc 1 762 14 is_stmt 0 view .LVU470
 1568 006c EF5C     		ldrb	r7, [r5, r3]	@ zero_extendqisi2
 1569 006e 07F00F07 		and	r7, r7, #15
 763:Drivers/BSP/Components/vl53l8cx/modules/vl53l8cx_api.c **** 		{
 1570              		.loc 1 763 21 view .LVU471
 1571 0072 07F10E02 		add	r2, r7, #14
 1572 0076 02F00F02 		and	r2, r2, #15
 762:Drivers/BSP/Components/vl53l8cx/modules/vl53l8cx_api.c ****                     && (bh_ptr->type < (uint32_t)0xd))
 1573              		.loc 1 762 6 view .LVU472
 1574 007a 0A2A     		cmp	r2, #10
 1575 007c D6D8     		bhi	.L70
 765:Drivers/BSP/Components/vl53l8cx/modules/vl53l8cx_api.c **** 		}
ARM GAS  C:\Temp\cc1zxvPB.s 			page 47


 1576              		.loc 1 765 4 is_stmt 1 view .LVU473
 765:Drivers/BSP/Components/vl53l8cx/modules/vl53l8cx_api.c **** 		}
 1577              		.loc 1 765 33 is_stmt 0 view .LVU474
 1578 007e EB5A     		ldrh	r3, [r5, r3]
 1579 0080 C3F30B13 		ubfx	r3, r3, #4, #12
 765:Drivers/BSP/Components/vl53l8cx/modules/vl53l8cx_api.c **** 		}
 1580              		.loc 1 765 25 view .LVU475
 1581 0084 03FB07F7 		mul	r7, r3, r7
 1582              	.LVL179:
 1583              	.L71:
 772:Drivers/BSP/Components/vl53l8cx/modules/vl53l8cx_api.c **** 			case VL53L8CX_METADATA_IDX:
 1584              		.loc 1 772 3 is_stmt 1 view .LVU476
 772:Drivers/BSP/Components/vl53l8cx/modules/vl53l8cx_api.c **** 			case VL53L8CX_METADATA_IDX:
 1585              		.loc 1 772 16 is_stmt 0 view .LVU477
 1586 0088 4B88     		ldrh	r3, [r1, #2]
 772:Drivers/BSP/Components/vl53l8cx/modules/vl53l8cx_api.c **** 			case VL53L8CX_METADATA_IDX:
 1587              		.loc 1 772 3 view .LVU478
 1588 008a 4DF64472 		movw	r2, #57156
 1589 008e 9342     		cmp	r3, r2
 1590 0090 10D0     		beq	.L72
 772:Drivers/BSP/Components/vl53l8cx/modules/vl53l8cx_api.c **** 			case VL53L8CX_METADATA_IDX:
 1591              		.loc 1 772 3 view .LVU479
 1592 0092 CFD8     		bhi	.L73
 1593 0094 45F2B442 		movw	r2, #21684
 1594 0098 9342     		cmp	r3, r2
 1595 009a D8D0     		beq	.L74
 1596 009c 4DF68432 		movw	r2, #56196
 1597 00a0 9342     		cmp	r3, r2
 1598 00a2 DAD1     		bne	.L76
 792:Drivers/BSP/Components/vl53l8cx/modules/vl53l8cx_api.c **** 				&(p_dev->temp_buffer[i + (uint32_t)4]), msize);
 1599              		.loc 1 792 5 is_stmt 1 view .LVU480
 793:Drivers/BSP/Components/vl53l8cx/modules/vl53l8cx_api.c **** 				break;
 1600              		.loc 1 793 5 is_stmt 0 view .LVU481
 1601 00a4 08F21451 		addw	r1, r8, #1300
 1602              	.LVL180:
 792:Drivers/BSP/Components/vl53l8cx/modules/vl53l8cx_api.c **** 				&(p_dev->temp_buffer[i + (uint32_t)4]), msize);
 1603              		.loc 1 792 11 view .LVU482
 1604 00a8 3A46     		mov	r2, r7
 1605 00aa 2944     		add	r1, r1, r5
 1606 00ac 601C     		adds	r0, r4, #1
 1607 00ae FFF7FEFF 		bl	memcpy
 1608              	.LVL181:
 794:Drivers/BSP/Components/vl53l8cx/modules/vl53l8cx_api.c **** #endif
 1609              		.loc 1 794 5 is_stmt 1 view .LVU483
 1610 00b2 D2E7     		b	.L76
 1611              	.LVL182:
 1612              	.L72:
 810:Drivers/BSP/Components/vl53l8cx/modules/vl53l8cx_api.c **** 				&(p_dev->temp_buffer[i + (uint32_t)4]), msize);
 1613              		.loc 1 810 5 view .LVU484
 811:Drivers/BSP/Components/vl53l8cx/modules/vl53l8cx_api.c **** 				break;
 1614              		.loc 1 811 5 is_stmt 0 view .LVU485
 1615 00b4 08F21451 		addw	r1, r8, #1300
 1616              	.LVL183:
 810:Drivers/BSP/Components/vl53l8cx/modules/vl53l8cx_api.c **** 				&(p_dev->temp_buffer[i + (uint32_t)4]), msize);
 1617              		.loc 1 810 11 view .LVU486
 1618 00b8 3A46     		mov	r2, r7
 1619 00ba 2944     		add	r1, r1, r5
ARM GAS  C:\Temp\cc1zxvPB.s 			page 48


 1620 00bc 04F14200 		add	r0, r4, #66
 1621 00c0 FFF7FEFF 		bl	memcpy
 1622              	.LVL184:
 812:Drivers/BSP/Components/vl53l8cx/modules/vl53l8cx_api.c **** #endif
 1623              		.loc 1 812 5 is_stmt 1 view .LVU487
 1624 00c4 C9E7     		b	.L76
 1625              	.LVL185:
 1626              	.L90:
 836:Drivers/BSP/Components/vl53l8cx/modules/vl53l8cx_api.c **** 	}
 837:Drivers/BSP/Components/vl53l8cx/modules/vl53l8cx_api.c **** 
 838:Drivers/BSP/Components/vl53l8cx/modules/vl53l8cx_api.c **** #ifndef VL53L8CX_USE_RAW_FORMAT
 839:Drivers/BSP/Components/vl53l8cx/modules/vl53l8cx_api.c **** 
 840:Drivers/BSP/Components/vl53l8cx/modules/vl53l8cx_api.c **** 	/* Convert data into their real format */
 841:Drivers/BSP/Components/vl53l8cx/modules/vl53l8cx_api.c **** #ifndef VL53L8CX_DISABLE_AMBIENT_PER_SPAD
 842:Drivers/BSP/Components/vl53l8cx/modules/vl53l8cx_api.c **** 	for(i = 0; i < (uint32_t)VL53L8CX_RESOLUTION_8X8; i++)
 843:Drivers/BSP/Components/vl53l8cx/modules/vl53l8cx_api.c **** 	{
 844:Drivers/BSP/Components/vl53l8cx/modules/vl53l8cx_api.c **** 		p_results->ambient_per_spad[i] /= (uint32_t)2048;
 845:Drivers/BSP/Components/vl53l8cx/modules/vl53l8cx_api.c **** 	}
 846:Drivers/BSP/Components/vl53l8cx/modules/vl53l8cx_api.c **** #endif
 847:Drivers/BSP/Components/vl53l8cx/modules/vl53l8cx_api.c **** 
 848:Drivers/BSP/Components/vl53l8cx/modules/vl53l8cx_api.c **** 	for(i = 0; i < (uint32_t)(VL53L8CX_RESOLUTION_8X8
 1627              		.loc 1 848 8 is_stmt 0 view .LVU488
 1628 00c6 0021     		movs	r1, #0
 1629 00c8 02E0     		b	.L79
 1630              	.LVL186:
 1631              	.L80:
 849:Drivers/BSP/Components/vl53l8cx/modules/vl53l8cx_api.c **** 			*VL53L8CX_NB_TARGET_PER_ZONE); i++)
 850:Drivers/BSP/Components/vl53l8cx/modules/vl53l8cx_api.c **** 	{
 851:Drivers/BSP/Components/vl53l8cx/modules/vl53l8cx_api.c **** #ifndef VL53L8CX_DISABLE_DISTANCE_MM
 852:Drivers/BSP/Components/vl53l8cx/modules/vl53l8cx_api.c **** 		p_results->distance_mm[i] /= 4;
 1632              		.loc 1 852 29 view .LVU489
 1633 00ca 9210     		asrs	r2, r2, #2
 1634 00cc 5A80     		strh	r2, [r3, #2]	@ movhi
 849:Drivers/BSP/Components/vl53l8cx/modules/vl53l8cx_api.c **** 			*VL53L8CX_NB_TARGET_PER_ZONE); i++)
 1635              		.loc 1 849 36 is_stmt 1 view .LVU490
 1636 00ce 0131     		adds	r1, r1, #1
 1637              	.LVL187:
 1638              	.L79:
 848:Drivers/BSP/Components/vl53l8cx/modules/vl53l8cx_api.c **** 			*VL53L8CX_NB_TARGET_PER_ZONE); i++)
 1639              		.loc 1 848 15 discriminator 1 view .LVU491
 1640 00d0 3F29     		cmp	r1, #63
 1641 00d2 0AD8     		bhi	.L91
 1642              		.loc 1 852 3 view .LVU492
 1643              		.loc 1 852 25 is_stmt 0 view .LVU493
 1644 00d4 01F12003 		add	r3, r1, #32
 1645 00d8 04EB4303 		add	r3, r4, r3, lsl #1
 1646 00dc B3F90200 		ldrsh	r0, [r3, #2]
 1647              		.loc 1 852 29 view .LVU494
 1648 00e0 0246     		mov	r2, r0
 1649 00e2 0028     		cmp	r0, #0
 1650 00e4 F1DA     		bge	.L80
 1651 00e6 C21C     		adds	r2, r0, #3
 1652 00e8 EFE7     		b	.L80
 1653              	.L91:
 853:Drivers/BSP/Components/vl53l8cx/modules/vl53l8cx_api.c **** #endif
 854:Drivers/BSP/Components/vl53l8cx/modules/vl53l8cx_api.c **** #ifndef VL53L8CX_DISABLE_REFLECTANCE_PERCENT
 855:Drivers/BSP/Components/vl53l8cx/modules/vl53l8cx_api.c **** 		p_results->reflectance[i] /= (uint8_t)2;
ARM GAS  C:\Temp\cc1zxvPB.s 			page 49


 856:Drivers/BSP/Components/vl53l8cx/modules/vl53l8cx_api.c **** #endif
 857:Drivers/BSP/Components/vl53l8cx/modules/vl53l8cx_api.c **** #ifndef VL53L8CX_DISABLE_RANGE_SIGMA_MM
 858:Drivers/BSP/Components/vl53l8cx/modules/vl53l8cx_api.c **** 		p_results->range_sigma_mm[i] /= (uint16_t)128;
 859:Drivers/BSP/Components/vl53l8cx/modules/vl53l8cx_api.c **** #endif
 860:Drivers/BSP/Components/vl53l8cx/modules/vl53l8cx_api.c **** #ifndef VL53L8CX_DISABLE_SIGNAL_PER_SPAD
 861:Drivers/BSP/Components/vl53l8cx/modules/vl53l8cx_api.c **** 		p_results->signal_per_spad[i] /= (uint32_t)2048;
 862:Drivers/BSP/Components/vl53l8cx/modules/vl53l8cx_api.c **** #endif
 863:Drivers/BSP/Components/vl53l8cx/modules/vl53l8cx_api.c **** 	}
 864:Drivers/BSP/Components/vl53l8cx/modules/vl53l8cx_api.c **** 
 865:Drivers/BSP/Components/vl53l8cx/modules/vl53l8cx_api.c **** 	/* Set target status to 255 if no target is detected for this zone */
 866:Drivers/BSP/Components/vl53l8cx/modules/vl53l8cx_api.c **** #ifndef VL53L8CX_DISABLE_NB_TARGET_DETECTED
 867:Drivers/BSP/Components/vl53l8cx/modules/vl53l8cx_api.c **** 	for(i = 0; i < (uint32_t)VL53L8CX_RESOLUTION_8X8; i++)
 1654              		.loc 1 867 8 view .LVU495
 1655 00ea 0023     		movs	r3, #0
 1656 00ec 08E0     		b	.L82
 1657              	.LVL188:
 1658              	.L85:
 868:Drivers/BSP/Components/vl53l8cx/modules/vl53l8cx_api.c **** 	{
 869:Drivers/BSP/Components/vl53l8cx/modules/vl53l8cx_api.c **** 		if(p_results->nb_target_detected[i] == (uint8_t)0){
 870:Drivers/BSP/Components/vl53l8cx/modules/vl53l8cx_api.c **** 			for(j = 0; j < (uint32_t)
 871:Drivers/BSP/Components/vl53l8cx/modules/vl53l8cx_api.c **** 				VL53L8CX_NB_TARGET_PER_ZONE; j++)
 872:Drivers/BSP/Components/vl53l8cx/modules/vl53l8cx_api.c **** 			{
 873:Drivers/BSP/Components/vl53l8cx/modules/vl53l8cx_api.c **** #ifndef VL53L8CX_DISABLE_TARGET_STATUS
 874:Drivers/BSP/Components/vl53l8cx/modules/vl53l8cx_api.c **** 				p_results->target_status
 1659              		.loc 1 874 5 is_stmt 1 view .LVU496
 875:Drivers/BSP/Components/vl53l8cx/modules/vl53l8cx_api.c **** 				[((uint32_t)VL53L8CX_NB_TARGET_PER_ZONE
 876:Drivers/BSP/Components/vl53l8cx/modules/vl53l8cx_api.c **** 					*(uint32_t)i) + j]=(uint8_t)255;
 1660              		.loc 1 876 20 is_stmt 0 view .LVU497
 1661 00ee 9918     		adds	r1, r3, r2
 1662              		.loc 1 876 24 view .LVU498
 1663 00f0 2144     		add	r1, r1, r4
 1664 00f2 FF20     		movs	r0, #255
 1665 00f4 81F8C200 		strb	r0, [r1, #194]
 871:Drivers/BSP/Components/vl53l8cx/modules/vl53l8cx_api.c **** 			{
 1666              		.loc 1 871 35 is_stmt 1 view .LVU499
 1667 00f8 0132     		adds	r2, r2, #1
 1668              	.LVL189:
 1669              	.L83:
 870:Drivers/BSP/Components/vl53l8cx/modules/vl53l8cx_api.c **** 				VL53L8CX_NB_TARGET_PER_ZONE; j++)
 1670              		.loc 1 870 17 discriminator 1 view .LVU500
 1671 00fa 002A     		cmp	r2, #0
 1672 00fc F7D0     		beq	.L85
 1673              	.LVL190:
 1674              	.L84:
 867:Drivers/BSP/Components/vl53l8cx/modules/vl53l8cx_api.c **** 	{
 1675              		.loc 1 867 53 discriminator 2 view .LVU501
 1676 00fe 0133     		adds	r3, r3, #1
 1677              	.LVL191:
 1678              	.L82:
 867:Drivers/BSP/Components/vl53l8cx/modules/vl53l8cx_api.c **** 	{
 1679              		.loc 1 867 15 discriminator 1 view .LVU502
 1680 0100 3F2B     		cmp	r3, #63
 1681 0102 05D8     		bhi	.L92
 869:Drivers/BSP/Components/vl53l8cx/modules/vl53l8cx_api.c **** 			for(j = 0; j < (uint32_t)
 1682              		.loc 1 869 3 view .LVU503
 869:Drivers/BSP/Components/vl53l8cx/modules/vl53l8cx_api.c **** 			for(j = 0; j < (uint32_t)
 1683              		.loc 1 869 35 is_stmt 0 view .LVU504
ARM GAS  C:\Temp\cc1zxvPB.s 			page 50


 1684 0104 E218     		adds	r2, r4, r3
 1685 0106 5278     		ldrb	r2, [r2, #1]	@ zero_extendqisi2
 869:Drivers/BSP/Components/vl53l8cx/modules/vl53l8cx_api.c **** 			for(j = 0; j < (uint32_t)
 1686              		.loc 1 869 5 view .LVU505
 1687 0108 002A     		cmp	r2, #0
 1688 010a F8D1     		bne	.L84
 870:Drivers/BSP/Components/vl53l8cx/modules/vl53l8cx_api.c **** 				VL53L8CX_NB_TARGET_PER_ZONE; j++)
 1689              		.loc 1 870 10 view .LVU506
 1690 010c 0022     		movs	r2, #0
 1691 010e F4E7     		b	.L83
 1692              	.L92:
 877:Drivers/BSP/Components/vl53l8cx/modules/vl53l8cx_api.c **** #endif
 878:Drivers/BSP/Components/vl53l8cx/modules/vl53l8cx_api.c **** 			}
 879:Drivers/BSP/Components/vl53l8cx/modules/vl53l8cx_api.c **** 		}
 880:Drivers/BSP/Components/vl53l8cx/modules/vl53l8cx_api.c **** 	}
 881:Drivers/BSP/Components/vl53l8cx/modules/vl53l8cx_api.c **** #endif
 882:Drivers/BSP/Components/vl53l8cx/modules/vl53l8cx_api.c **** 
 883:Drivers/BSP/Components/vl53l8cx/modules/vl53l8cx_api.c **** #ifndef VL53L8CX_DISABLE_MOTION_INDICATOR
 884:Drivers/BSP/Components/vl53l8cx/modules/vl53l8cx_api.c **** 	for(i = 0; i < (uint32_t)32; i++)
 885:Drivers/BSP/Components/vl53l8cx/modules/vl53l8cx_api.c **** 	{
 886:Drivers/BSP/Components/vl53l8cx/modules/vl53l8cx_api.c **** 		p_results->motion_indicator.motion[i] /= (uint32_t)65535;
 887:Drivers/BSP/Components/vl53l8cx/modules/vl53l8cx_api.c **** 	}
 888:Drivers/BSP/Components/vl53l8cx/modules/vl53l8cx_api.c **** #endif
 889:Drivers/BSP/Components/vl53l8cx/modules/vl53l8cx_api.c **** 
 890:Drivers/BSP/Components/vl53l8cx/modules/vl53l8cx_api.c **** #endif
 891:Drivers/BSP/Components/vl53l8cx/modules/vl53l8cx_api.c **** 
 892:Drivers/BSP/Components/vl53l8cx/modules/vl53l8cx_api.c **** 	/* Check if footer id and header id are matching. This allows to detect
 893:Drivers/BSP/Components/vl53l8cx/modules/vl53l8cx_api.c **** 	 * corrupted frames */
 894:Drivers/BSP/Components/vl53l8cx/modules/vl53l8cx_api.c **** 	header_id = ((uint16_t)(p_dev->temp_buffer[0x8])<<8) & 0xFF00U;
 1693              		.loc 1 894 2 is_stmt 1 view .LVU507
 1694              		.loc 1 894 44 is_stmt 0 view .LVU508
 1695 0110 95F81835 		ldrb	r3, [r5, #1304]	@ zero_extendqisi2
 1696              	.LVL192:
 895:Drivers/BSP/Components/vl53l8cx/modules/vl53l8cx_api.c **** 	header_id |= ((uint16_t)(p_dev->temp_buffer[0x9])) & 0x00FFU;
 1697              		.loc 1 895 2 is_stmt 1 view .LVU509
 1698              		.loc 1 895 45 is_stmt 0 view .LVU510
 1699 0114 95F81925 		ldrb	r2, [r5, #1305]	@ zero_extendqisi2
 1700              		.loc 1 895 12 view .LVU511
 1701 0118 42EA0322 		orr	r2, r2, r3, lsl #8
 1702              	.LVL193:
 896:Drivers/BSP/Components/vl53l8cx/modules/vl53l8cx_api.c **** 
 897:Drivers/BSP/Components/vl53l8cx/modules/vl53l8cx_api.c **** 	footer_id = ((uint16_t)(p_dev->temp_buffer[p_dev->data_read_size
 1703              		.loc 1 897 2 is_stmt 1 view .LVU512
 1704              		.loc 1 897 50 is_stmt 0 view .LVU513
 1705 011c 6B69     		ldr	r3, [r5, #20]
 898:Drivers/BSP/Components/vl53l8cx/modules/vl53l8cx_api.c **** 		- (uint32_t)4]) << 8) & 0xFF00U;
 1706              		.loc 1 898 3 view .LVU514
 1707 011e 191F     		subs	r1, r3, #4
 897:Drivers/BSP/Components/vl53l8cx/modules/vl53l8cx_api.c **** 		- (uint32_t)4]) << 8) & 0xFF00U;
 1708              		.loc 1 897 44 view .LVU515
 1709 0120 2944     		add	r1, r1, r5
 1710 0122 91F81015 		ldrb	r1, [r1, #1296]	@ zero_extendqisi2
 1711              	.LVL194:
 899:Drivers/BSP/Components/vl53l8cx/modules/vl53l8cx_api.c **** 	footer_id |= ((uint16_t)(p_dev->temp_buffer[p_dev->data_read_size
 1712              		.loc 1 899 2 is_stmt 1 view .LVU516
 900:Drivers/BSP/Components/vl53l8cx/modules/vl53l8cx_api.c **** 		- (uint32_t)3])) & 0xFFU;
 1713              		.loc 1 900 3 is_stmt 0 view .LVU517
ARM GAS  C:\Temp\cc1zxvPB.s 			page 51


 1714 0126 033B     		subs	r3, r3, #3
 899:Drivers/BSP/Components/vl53l8cx/modules/vl53l8cx_api.c **** 	footer_id |= ((uint16_t)(p_dev->temp_buffer[p_dev->data_read_size
 1715              		.loc 1 899 45 view .LVU518
 1716 0128 1D44     		add	r5, r5, r3
 1717              	.LVL195:
 899:Drivers/BSP/Components/vl53l8cx/modules/vl53l8cx_api.c **** 	footer_id |= ((uint16_t)(p_dev->temp_buffer[p_dev->data_read_size
 1718              		.loc 1 899 45 view .LVU519
 1719 012a 95F81035 		ldrb	r3, [r5, #1296]	@ zero_extendqisi2
 899:Drivers/BSP/Components/vl53l8cx/modules/vl53l8cx_api.c **** 	footer_id |= ((uint16_t)(p_dev->temp_buffer[p_dev->data_read_size
 1720              		.loc 1 899 12 view .LVU520
 1721 012e 43EA0123 		orr	r3, r3, r1, lsl #8
 1722              	.LVL196:
 901:Drivers/BSP/Components/vl53l8cx/modules/vl53l8cx_api.c **** 
 902:Drivers/BSP/Components/vl53l8cx/modules/vl53l8cx_api.c **** 	if(header_id != footer_id)
 1723              		.loc 1 902 2 is_stmt 1 view .LVU521
 1724              		.loc 1 902 4 is_stmt 0 view .LVU522
 1725 0132 9A42     		cmp	r2, r3
 1726 0134 02D0     		beq	.L87
 903:Drivers/BSP/Components/vl53l8cx/modules/vl53l8cx_api.c **** 	{
 904:Drivers/BSP/Components/vl53l8cx/modules/vl53l8cx_api.c **** 		status |= VL53L8CX_STATUS_CORRUPTED_FRAME;
 1727              		.loc 1 904 3 is_stmt 1 view .LVU523
 1728              		.loc 1 904 10 is_stmt 0 view .LVU524
 1729 0136 46F00206 		orr	r6, r6, #2
 1730              	.LVL197:
 1731              		.loc 1 904 10 view .LVU525
 1732 013a F6B2     		uxtb	r6, r6
 1733              	.LVL198:
 1734              	.L87:
 905:Drivers/BSP/Components/vl53l8cx/modules/vl53l8cx_api.c **** 	}
 906:Drivers/BSP/Components/vl53l8cx/modules/vl53l8cx_api.c **** 
 907:Drivers/BSP/Components/vl53l8cx/modules/vl53l8cx_api.c **** 	return status;
 1735              		.loc 1 907 2 is_stmt 1 view .LVU526
 908:Drivers/BSP/Components/vl53l8cx/modules/vl53l8cx_api.c **** }
 1736              		.loc 1 908 1 is_stmt 0 view .LVU527
 1737 013c 3046     		mov	r0, r6
 1738 013e BDE8F081 		pop	{r4, r5, r6, r7, r8, pc}
 1739              		.loc 1 908 1 view .LVU528
 1740              		.cfi_endproc
 1741              	.LFE12:
 1743              		.section	.text.vl53l8cx_dci_read_data,"ax",%progbits
 1744              		.align	1
 1745              		.global	vl53l8cx_dci_read_data
 1746              		.syntax unified
 1747              		.thumb
 1748              		.thumb_func
 1750              	vl53l8cx_dci_read_data:
 1751              	.LVL199:
 1752              	.LFB29:
 909:Drivers/BSP/Components/vl53l8cx/modules/vl53l8cx_api.c **** 
 910:Drivers/BSP/Components/vl53l8cx/modules/vl53l8cx_api.c **** uint8_t vl53l8cx_get_resolution(
 911:Drivers/BSP/Components/vl53l8cx/modules/vl53l8cx_api.c **** 		VL53L8CX_Configuration		*p_dev,
 912:Drivers/BSP/Components/vl53l8cx/modules/vl53l8cx_api.c **** 		uint8_t				*p_resolution)
 913:Drivers/BSP/Components/vl53l8cx/modules/vl53l8cx_api.c **** {
 914:Drivers/BSP/Components/vl53l8cx/modules/vl53l8cx_api.c **** 	uint8_t status = VL53L8CX_STATUS_OK;
 915:Drivers/BSP/Components/vl53l8cx/modules/vl53l8cx_api.c **** 
 916:Drivers/BSP/Components/vl53l8cx/modules/vl53l8cx_api.c **** 	status |= vl53l8cx_dci_read_data(p_dev, p_dev->temp_buffer,
 917:Drivers/BSP/Components/vl53l8cx/modules/vl53l8cx_api.c **** 			VL53L8CX_DCI_ZONE_CONFIG, 8);
ARM GAS  C:\Temp\cc1zxvPB.s 			page 52


 918:Drivers/BSP/Components/vl53l8cx/modules/vl53l8cx_api.c **** 	*p_resolution = p_dev->temp_buffer[0x00]*p_dev->temp_buffer[0x01];
 919:Drivers/BSP/Components/vl53l8cx/modules/vl53l8cx_api.c **** 
 920:Drivers/BSP/Components/vl53l8cx/modules/vl53l8cx_api.c **** 	return status;
 921:Drivers/BSP/Components/vl53l8cx/modules/vl53l8cx_api.c **** }
 922:Drivers/BSP/Components/vl53l8cx/modules/vl53l8cx_api.c **** 
 923:Drivers/BSP/Components/vl53l8cx/modules/vl53l8cx_api.c **** 
 924:Drivers/BSP/Components/vl53l8cx/modules/vl53l8cx_api.c **** 
 925:Drivers/BSP/Components/vl53l8cx/modules/vl53l8cx_api.c **** uint8_t vl53l8cx_set_resolution(
 926:Drivers/BSP/Components/vl53l8cx/modules/vl53l8cx_api.c **** 		VL53L8CX_Configuration 		 *p_dev,
 927:Drivers/BSP/Components/vl53l8cx/modules/vl53l8cx_api.c **** 		uint8_t				resolution)
 928:Drivers/BSP/Components/vl53l8cx/modules/vl53l8cx_api.c **** {
 929:Drivers/BSP/Components/vl53l8cx/modules/vl53l8cx_api.c **** 	uint8_t status = VL53L8CX_STATUS_OK;
 930:Drivers/BSP/Components/vl53l8cx/modules/vl53l8cx_api.c **** 
 931:Drivers/BSP/Components/vl53l8cx/modules/vl53l8cx_api.c **** 	switch(resolution){
 932:Drivers/BSP/Components/vl53l8cx/modules/vl53l8cx_api.c **** 		case VL53L8CX_RESOLUTION_4X4:
 933:Drivers/BSP/Components/vl53l8cx/modules/vl53l8cx_api.c **** 			status |= vl53l8cx_dci_read_data(p_dev,
 934:Drivers/BSP/Components/vl53l8cx/modules/vl53l8cx_api.c **** 					p_dev->temp_buffer,
 935:Drivers/BSP/Components/vl53l8cx/modules/vl53l8cx_api.c **** 					VL53L8CX_DCI_DSS_CONFIG, 16);
 936:Drivers/BSP/Components/vl53l8cx/modules/vl53l8cx_api.c **** 			p_dev->temp_buffer[0x04] = 64;
 937:Drivers/BSP/Components/vl53l8cx/modules/vl53l8cx_api.c **** 			p_dev->temp_buffer[0x06] = 64;
 938:Drivers/BSP/Components/vl53l8cx/modules/vl53l8cx_api.c **** 			p_dev->temp_buffer[0x09] = 4;
 939:Drivers/BSP/Components/vl53l8cx/modules/vl53l8cx_api.c **** 			status |= vl53l8cx_dci_write_data(p_dev,
 940:Drivers/BSP/Components/vl53l8cx/modules/vl53l8cx_api.c **** 					p_dev->temp_buffer,
 941:Drivers/BSP/Components/vl53l8cx/modules/vl53l8cx_api.c **** 					VL53L8CX_DCI_DSS_CONFIG, 16);
 942:Drivers/BSP/Components/vl53l8cx/modules/vl53l8cx_api.c **** 
 943:Drivers/BSP/Components/vl53l8cx/modules/vl53l8cx_api.c **** 			status |= vl53l8cx_dci_read_data(p_dev,
 944:Drivers/BSP/Components/vl53l8cx/modules/vl53l8cx_api.c **** 					p_dev->temp_buffer,
 945:Drivers/BSP/Components/vl53l8cx/modules/vl53l8cx_api.c **** 					VL53L8CX_DCI_ZONE_CONFIG, 8);
 946:Drivers/BSP/Components/vl53l8cx/modules/vl53l8cx_api.c **** 			p_dev->temp_buffer[0x00] = 4;
 947:Drivers/BSP/Components/vl53l8cx/modules/vl53l8cx_api.c **** 			p_dev->temp_buffer[0x01] = 4;
 948:Drivers/BSP/Components/vl53l8cx/modules/vl53l8cx_api.c **** 			p_dev->temp_buffer[0x04] = 8;
 949:Drivers/BSP/Components/vl53l8cx/modules/vl53l8cx_api.c **** 			p_dev->temp_buffer[0x05] = 8;
 950:Drivers/BSP/Components/vl53l8cx/modules/vl53l8cx_api.c **** 			status |= vl53l8cx_dci_write_data(p_dev,
 951:Drivers/BSP/Components/vl53l8cx/modules/vl53l8cx_api.c **** 					p_dev->temp_buffer,
 952:Drivers/BSP/Components/vl53l8cx/modules/vl53l8cx_api.c **** 					VL53L8CX_DCI_ZONE_CONFIG, 8);
 953:Drivers/BSP/Components/vl53l8cx/modules/vl53l8cx_api.c **** 			break;
 954:Drivers/BSP/Components/vl53l8cx/modules/vl53l8cx_api.c **** 
 955:Drivers/BSP/Components/vl53l8cx/modules/vl53l8cx_api.c **** 		case VL53L8CX_RESOLUTION_8X8:
 956:Drivers/BSP/Components/vl53l8cx/modules/vl53l8cx_api.c **** 			status |= vl53l8cx_dci_read_data(p_dev,
 957:Drivers/BSP/Components/vl53l8cx/modules/vl53l8cx_api.c **** 					p_dev->temp_buffer,
 958:Drivers/BSP/Components/vl53l8cx/modules/vl53l8cx_api.c **** 					VL53L8CX_DCI_DSS_CONFIG, 16);
 959:Drivers/BSP/Components/vl53l8cx/modules/vl53l8cx_api.c **** 			p_dev->temp_buffer[0x04] = 16;
 960:Drivers/BSP/Components/vl53l8cx/modules/vl53l8cx_api.c **** 			p_dev->temp_buffer[0x06] = 16;
 961:Drivers/BSP/Components/vl53l8cx/modules/vl53l8cx_api.c **** 			p_dev->temp_buffer[0x09] = 1;
 962:Drivers/BSP/Components/vl53l8cx/modules/vl53l8cx_api.c **** 			status |= vl53l8cx_dci_write_data(p_dev,
 963:Drivers/BSP/Components/vl53l8cx/modules/vl53l8cx_api.c **** 					p_dev->temp_buffer,
 964:Drivers/BSP/Components/vl53l8cx/modules/vl53l8cx_api.c **** 					VL53L8CX_DCI_DSS_CONFIG, 16);
 965:Drivers/BSP/Components/vl53l8cx/modules/vl53l8cx_api.c **** 
 966:Drivers/BSP/Components/vl53l8cx/modules/vl53l8cx_api.c **** 			status |= vl53l8cx_dci_read_data(p_dev,
 967:Drivers/BSP/Components/vl53l8cx/modules/vl53l8cx_api.c **** 					p_dev->temp_buffer,
 968:Drivers/BSP/Components/vl53l8cx/modules/vl53l8cx_api.c **** 					VL53L8CX_DCI_ZONE_CONFIG, 8);
 969:Drivers/BSP/Components/vl53l8cx/modules/vl53l8cx_api.c **** 			p_dev->temp_buffer[0x00] = 8;
 970:Drivers/BSP/Components/vl53l8cx/modules/vl53l8cx_api.c **** 			p_dev->temp_buffer[0x01] = 8;
 971:Drivers/BSP/Components/vl53l8cx/modules/vl53l8cx_api.c **** 			p_dev->temp_buffer[0x04] = 4;
 972:Drivers/BSP/Components/vl53l8cx/modules/vl53l8cx_api.c **** 			p_dev->temp_buffer[0x05] = 4;
 973:Drivers/BSP/Components/vl53l8cx/modules/vl53l8cx_api.c **** 			status |= vl53l8cx_dci_write_data(p_dev,
 974:Drivers/BSP/Components/vl53l8cx/modules/vl53l8cx_api.c **** 					p_dev->temp_buffer,
ARM GAS  C:\Temp\cc1zxvPB.s 			page 53


 975:Drivers/BSP/Components/vl53l8cx/modules/vl53l8cx_api.c **** 					VL53L8CX_DCI_ZONE_CONFIG, 8);
 976:Drivers/BSP/Components/vl53l8cx/modules/vl53l8cx_api.c **** 
 977:Drivers/BSP/Components/vl53l8cx/modules/vl53l8cx_api.c **** 			break;
 978:Drivers/BSP/Components/vl53l8cx/modules/vl53l8cx_api.c **** 
 979:Drivers/BSP/Components/vl53l8cx/modules/vl53l8cx_api.c **** 		default:
 980:Drivers/BSP/Components/vl53l8cx/modules/vl53l8cx_api.c **** 			status = VL53L8CX_STATUS_INVALID_PARAM;
 981:Drivers/BSP/Components/vl53l8cx/modules/vl53l8cx_api.c **** 			break;
 982:Drivers/BSP/Components/vl53l8cx/modules/vl53l8cx_api.c **** 		}
 983:Drivers/BSP/Components/vl53l8cx/modules/vl53l8cx_api.c **** 
 984:Drivers/BSP/Components/vl53l8cx/modules/vl53l8cx_api.c **** 	status |= _vl53l8cx_send_offset_data(p_dev, resolution);
 985:Drivers/BSP/Components/vl53l8cx/modules/vl53l8cx_api.c **** 	status |= _vl53l8cx_send_xtalk_data(p_dev, resolution);
 986:Drivers/BSP/Components/vl53l8cx/modules/vl53l8cx_api.c **** 
 987:Drivers/BSP/Components/vl53l8cx/modules/vl53l8cx_api.c **** 	return status;
 988:Drivers/BSP/Components/vl53l8cx/modules/vl53l8cx_api.c **** }
 989:Drivers/BSP/Components/vl53l8cx/modules/vl53l8cx_api.c **** 
 990:Drivers/BSP/Components/vl53l8cx/modules/vl53l8cx_api.c **** uint8_t vl53l8cx_get_ranging_frequency_hz(
 991:Drivers/BSP/Components/vl53l8cx/modules/vl53l8cx_api.c **** 		VL53L8CX_Configuration		*p_dev,
 992:Drivers/BSP/Components/vl53l8cx/modules/vl53l8cx_api.c **** 		uint8_t				*p_frequency_hz)
 993:Drivers/BSP/Components/vl53l8cx/modules/vl53l8cx_api.c **** {
 994:Drivers/BSP/Components/vl53l8cx/modules/vl53l8cx_api.c **** 	uint8_t status = VL53L8CX_STATUS_OK;
 995:Drivers/BSP/Components/vl53l8cx/modules/vl53l8cx_api.c **** 
 996:Drivers/BSP/Components/vl53l8cx/modules/vl53l8cx_api.c **** 	status |= vl53l8cx_dci_read_data(p_dev, (uint8_t*)p_dev->temp_buffer,
 997:Drivers/BSP/Components/vl53l8cx/modules/vl53l8cx_api.c **** 			VL53L8CX_DCI_FREQ_HZ, 4);
 998:Drivers/BSP/Components/vl53l8cx/modules/vl53l8cx_api.c **** 	*p_frequency_hz = p_dev->temp_buffer[0x01];
 999:Drivers/BSP/Components/vl53l8cx/modules/vl53l8cx_api.c **** 
1000:Drivers/BSP/Components/vl53l8cx/modules/vl53l8cx_api.c **** 	return status;
1001:Drivers/BSP/Components/vl53l8cx/modules/vl53l8cx_api.c **** }
1002:Drivers/BSP/Components/vl53l8cx/modules/vl53l8cx_api.c **** 
1003:Drivers/BSP/Components/vl53l8cx/modules/vl53l8cx_api.c **** uint8_t vl53l8cx_set_ranging_frequency_hz(
1004:Drivers/BSP/Components/vl53l8cx/modules/vl53l8cx_api.c **** 		VL53L8CX_Configuration		*p_dev,
1005:Drivers/BSP/Components/vl53l8cx/modules/vl53l8cx_api.c **** 		uint8_t				frequency_hz)
1006:Drivers/BSP/Components/vl53l8cx/modules/vl53l8cx_api.c **** {
1007:Drivers/BSP/Components/vl53l8cx/modules/vl53l8cx_api.c **** 	uint8_t status = VL53L8CX_STATUS_OK;
1008:Drivers/BSP/Components/vl53l8cx/modules/vl53l8cx_api.c **** 
1009:Drivers/BSP/Components/vl53l8cx/modules/vl53l8cx_api.c **** 	status |= vl53l8cx_dci_replace_data(p_dev, p_dev->temp_buffer,
1010:Drivers/BSP/Components/vl53l8cx/modules/vl53l8cx_api.c **** 					VL53L8CX_DCI_FREQ_HZ, 4,
1011:Drivers/BSP/Components/vl53l8cx/modules/vl53l8cx_api.c **** 					(uint8_t*)&frequency_hz, 1, 0x01);
1012:Drivers/BSP/Components/vl53l8cx/modules/vl53l8cx_api.c **** 
1013:Drivers/BSP/Components/vl53l8cx/modules/vl53l8cx_api.c **** 	return status;
1014:Drivers/BSP/Components/vl53l8cx/modules/vl53l8cx_api.c **** }
1015:Drivers/BSP/Components/vl53l8cx/modules/vl53l8cx_api.c **** 
1016:Drivers/BSP/Components/vl53l8cx/modules/vl53l8cx_api.c **** uint8_t vl53l8cx_get_integration_time_ms(
1017:Drivers/BSP/Components/vl53l8cx/modules/vl53l8cx_api.c **** 		VL53L8CX_Configuration		*p_dev,
1018:Drivers/BSP/Components/vl53l8cx/modules/vl53l8cx_api.c **** 		uint32_t			*p_time_ms)
1019:Drivers/BSP/Components/vl53l8cx/modules/vl53l8cx_api.c **** {
1020:Drivers/BSP/Components/vl53l8cx/modules/vl53l8cx_api.c **** 	uint8_t status = VL53L8CX_STATUS_OK;
1021:Drivers/BSP/Components/vl53l8cx/modules/vl53l8cx_api.c **** 
1022:Drivers/BSP/Components/vl53l8cx/modules/vl53l8cx_api.c **** 	status |= vl53l8cx_dci_read_data(p_dev, (uint8_t*)p_dev->temp_buffer,
1023:Drivers/BSP/Components/vl53l8cx/modules/vl53l8cx_api.c **** 			VL53L8CX_DCI_INT_TIME, 20);
1024:Drivers/BSP/Components/vl53l8cx/modules/vl53l8cx_api.c **** 
1025:Drivers/BSP/Components/vl53l8cx/modules/vl53l8cx_api.c **** 	(void)memcpy(p_time_ms, &(p_dev->temp_buffer[0x0]), 4);
1026:Drivers/BSP/Components/vl53l8cx/modules/vl53l8cx_api.c **** 	*p_time_ms /= (uint32_t)1000;
1027:Drivers/BSP/Components/vl53l8cx/modules/vl53l8cx_api.c **** 
1028:Drivers/BSP/Components/vl53l8cx/modules/vl53l8cx_api.c **** 	return status;
1029:Drivers/BSP/Components/vl53l8cx/modules/vl53l8cx_api.c **** }
1030:Drivers/BSP/Components/vl53l8cx/modules/vl53l8cx_api.c **** 
1031:Drivers/BSP/Components/vl53l8cx/modules/vl53l8cx_api.c **** uint8_t vl53l8cx_set_integration_time_ms(
ARM GAS  C:\Temp\cc1zxvPB.s 			page 54


1032:Drivers/BSP/Components/vl53l8cx/modules/vl53l8cx_api.c **** 		VL53L8CX_Configuration		*p_dev,
1033:Drivers/BSP/Components/vl53l8cx/modules/vl53l8cx_api.c **** 		uint32_t			integration_time_ms)
1034:Drivers/BSP/Components/vl53l8cx/modules/vl53l8cx_api.c **** {
1035:Drivers/BSP/Components/vl53l8cx/modules/vl53l8cx_api.c **** 	uint8_t status = VL53L8CX_STATUS_OK;
1036:Drivers/BSP/Components/vl53l8cx/modules/vl53l8cx_api.c ****         uint32_t integration = integration_time_ms;
1037:Drivers/BSP/Components/vl53l8cx/modules/vl53l8cx_api.c **** 
1038:Drivers/BSP/Components/vl53l8cx/modules/vl53l8cx_api.c **** 	/* Integration time must be between 2ms and 1000ms */
1039:Drivers/BSP/Components/vl53l8cx/modules/vl53l8cx_api.c **** 	if((integration < (uint32_t)2)
1040:Drivers/BSP/Components/vl53l8cx/modules/vl53l8cx_api.c ****            || (integration > (uint32_t)1000))
1041:Drivers/BSP/Components/vl53l8cx/modules/vl53l8cx_api.c **** 	{
1042:Drivers/BSP/Components/vl53l8cx/modules/vl53l8cx_api.c **** 		status |= VL53L8CX_STATUS_INVALID_PARAM;
1043:Drivers/BSP/Components/vl53l8cx/modules/vl53l8cx_api.c **** 	}else
1044:Drivers/BSP/Components/vl53l8cx/modules/vl53l8cx_api.c **** 	{
1045:Drivers/BSP/Components/vl53l8cx/modules/vl53l8cx_api.c **** 		integration *= (uint32_t)1000;
1046:Drivers/BSP/Components/vl53l8cx/modules/vl53l8cx_api.c **** 
1047:Drivers/BSP/Components/vl53l8cx/modules/vl53l8cx_api.c **** 		status |= vl53l8cx_dci_replace_data(p_dev, p_dev->temp_buffer,
1048:Drivers/BSP/Components/vl53l8cx/modules/vl53l8cx_api.c **** 				VL53L8CX_DCI_INT_TIME, 20,
1049:Drivers/BSP/Components/vl53l8cx/modules/vl53l8cx_api.c **** 				(uint8_t*)&integration, 4, 0x00);
1050:Drivers/BSP/Components/vl53l8cx/modules/vl53l8cx_api.c **** 	}
1051:Drivers/BSP/Components/vl53l8cx/modules/vl53l8cx_api.c **** 
1052:Drivers/BSP/Components/vl53l8cx/modules/vl53l8cx_api.c **** 	return status;
1053:Drivers/BSP/Components/vl53l8cx/modules/vl53l8cx_api.c **** }
1054:Drivers/BSP/Components/vl53l8cx/modules/vl53l8cx_api.c **** 
1055:Drivers/BSP/Components/vl53l8cx/modules/vl53l8cx_api.c **** uint8_t vl53l8cx_get_sharpener_percent(
1056:Drivers/BSP/Components/vl53l8cx/modules/vl53l8cx_api.c **** 		VL53L8CX_Configuration		*p_dev,
1057:Drivers/BSP/Components/vl53l8cx/modules/vl53l8cx_api.c **** 		uint8_t				*p_sharpener_percent)
1058:Drivers/BSP/Components/vl53l8cx/modules/vl53l8cx_api.c **** {
1059:Drivers/BSP/Components/vl53l8cx/modules/vl53l8cx_api.c **** 	uint8_t status = VL53L8CX_STATUS_OK;
1060:Drivers/BSP/Components/vl53l8cx/modules/vl53l8cx_api.c **** 
1061:Drivers/BSP/Components/vl53l8cx/modules/vl53l8cx_api.c **** 	status |= vl53l8cx_dci_read_data(p_dev,p_dev->temp_buffer,
1062:Drivers/BSP/Components/vl53l8cx/modules/vl53l8cx_api.c **** 			VL53L8CX_DCI_SHARPENER, 16);
1063:Drivers/BSP/Components/vl53l8cx/modules/vl53l8cx_api.c **** 
1064:Drivers/BSP/Components/vl53l8cx/modules/vl53l8cx_api.c **** 	*p_sharpener_percent = (p_dev->temp_buffer[0xD]
1065:Drivers/BSP/Components/vl53l8cx/modules/vl53l8cx_api.c ****                                 *(uint8_t)100)/(uint8_t)255;
1066:Drivers/BSP/Components/vl53l8cx/modules/vl53l8cx_api.c **** 
1067:Drivers/BSP/Components/vl53l8cx/modules/vl53l8cx_api.c **** 	return status;
1068:Drivers/BSP/Components/vl53l8cx/modules/vl53l8cx_api.c **** }
1069:Drivers/BSP/Components/vl53l8cx/modules/vl53l8cx_api.c **** 
1070:Drivers/BSP/Components/vl53l8cx/modules/vl53l8cx_api.c **** uint8_t vl53l8cx_set_sharpener_percent(
1071:Drivers/BSP/Components/vl53l8cx/modules/vl53l8cx_api.c **** 		VL53L8CX_Configuration		*p_dev,
1072:Drivers/BSP/Components/vl53l8cx/modules/vl53l8cx_api.c **** 		uint8_t				sharpener_percent)
1073:Drivers/BSP/Components/vl53l8cx/modules/vl53l8cx_api.c **** {
1074:Drivers/BSP/Components/vl53l8cx/modules/vl53l8cx_api.c **** 	uint8_t status = VL53L8CX_STATUS_OK;
1075:Drivers/BSP/Components/vl53l8cx/modules/vl53l8cx_api.c ****         uint8_t sharpener;
1076:Drivers/BSP/Components/vl53l8cx/modules/vl53l8cx_api.c **** 
1077:Drivers/BSP/Components/vl53l8cx/modules/vl53l8cx_api.c **** 	if(sharpener_percent >= (uint8_t)100)
1078:Drivers/BSP/Components/vl53l8cx/modules/vl53l8cx_api.c **** 	{
1079:Drivers/BSP/Components/vl53l8cx/modules/vl53l8cx_api.c **** 		status |= VL53L8CX_STATUS_INVALID_PARAM;
1080:Drivers/BSP/Components/vl53l8cx/modules/vl53l8cx_api.c **** 	}
1081:Drivers/BSP/Components/vl53l8cx/modules/vl53l8cx_api.c **** 	else
1082:Drivers/BSP/Components/vl53l8cx/modules/vl53l8cx_api.c **** 	{
1083:Drivers/BSP/Components/vl53l8cx/modules/vl53l8cx_api.c **** 		sharpener = (sharpener_percent*(uint8_t)255)/(uint8_t)100;
1084:Drivers/BSP/Components/vl53l8cx/modules/vl53l8cx_api.c **** 		status |= vl53l8cx_dci_replace_data(p_dev, p_dev->temp_buffer,
1085:Drivers/BSP/Components/vl53l8cx/modules/vl53l8cx_api.c **** 				VL53L8CX_DCI_SHARPENER, 16,
1086:Drivers/BSP/Components/vl53l8cx/modules/vl53l8cx_api.c ****                                 (uint8_t*)&sharpener, 1, 0xD);
1087:Drivers/BSP/Components/vl53l8cx/modules/vl53l8cx_api.c **** 	}
1088:Drivers/BSP/Components/vl53l8cx/modules/vl53l8cx_api.c **** 
ARM GAS  C:\Temp\cc1zxvPB.s 			page 55


1089:Drivers/BSP/Components/vl53l8cx/modules/vl53l8cx_api.c **** 	return status;
1090:Drivers/BSP/Components/vl53l8cx/modules/vl53l8cx_api.c **** }
1091:Drivers/BSP/Components/vl53l8cx/modules/vl53l8cx_api.c **** 
1092:Drivers/BSP/Components/vl53l8cx/modules/vl53l8cx_api.c **** uint8_t vl53l8cx_get_target_order(
1093:Drivers/BSP/Components/vl53l8cx/modules/vl53l8cx_api.c **** 		VL53L8CX_Configuration		*p_dev,
1094:Drivers/BSP/Components/vl53l8cx/modules/vl53l8cx_api.c **** 		uint8_t				*p_target_order)
1095:Drivers/BSP/Components/vl53l8cx/modules/vl53l8cx_api.c **** {
1096:Drivers/BSP/Components/vl53l8cx/modules/vl53l8cx_api.c **** 	uint8_t status = VL53L8CX_STATUS_OK;
1097:Drivers/BSP/Components/vl53l8cx/modules/vl53l8cx_api.c **** 
1098:Drivers/BSP/Components/vl53l8cx/modules/vl53l8cx_api.c **** 	status |= vl53l8cx_dci_read_data(p_dev, (uint8_t*)p_dev->temp_buffer,
1099:Drivers/BSP/Components/vl53l8cx/modules/vl53l8cx_api.c **** 			VL53L8CX_DCI_TARGET_ORDER, 4);
1100:Drivers/BSP/Components/vl53l8cx/modules/vl53l8cx_api.c **** 	*p_target_order = (uint8_t)p_dev->temp_buffer[0x0];
1101:Drivers/BSP/Components/vl53l8cx/modules/vl53l8cx_api.c **** 
1102:Drivers/BSP/Components/vl53l8cx/modules/vl53l8cx_api.c **** 	return status;
1103:Drivers/BSP/Components/vl53l8cx/modules/vl53l8cx_api.c **** }
1104:Drivers/BSP/Components/vl53l8cx/modules/vl53l8cx_api.c **** 
1105:Drivers/BSP/Components/vl53l8cx/modules/vl53l8cx_api.c **** uint8_t vl53l8cx_set_target_order(
1106:Drivers/BSP/Components/vl53l8cx/modules/vl53l8cx_api.c **** 		VL53L8CX_Configuration		*p_dev,
1107:Drivers/BSP/Components/vl53l8cx/modules/vl53l8cx_api.c **** 		uint8_t				target_order)
1108:Drivers/BSP/Components/vl53l8cx/modules/vl53l8cx_api.c **** {
1109:Drivers/BSP/Components/vl53l8cx/modules/vl53l8cx_api.c **** 	uint8_t status = VL53L8CX_STATUS_OK;
1110:Drivers/BSP/Components/vl53l8cx/modules/vl53l8cx_api.c **** 
1111:Drivers/BSP/Components/vl53l8cx/modules/vl53l8cx_api.c **** 	if((target_order == (uint8_t)VL53L8CX_TARGET_ORDER_CLOSEST)
1112:Drivers/BSP/Components/vl53l8cx/modules/vl53l8cx_api.c **** 		|| (target_order == (uint8_t)VL53L8CX_TARGET_ORDER_STRONGEST))
1113:Drivers/BSP/Components/vl53l8cx/modules/vl53l8cx_api.c **** 	{
1114:Drivers/BSP/Components/vl53l8cx/modules/vl53l8cx_api.c **** 		status |= vl53l8cx_dci_replace_data(p_dev, p_dev->temp_buffer,
1115:Drivers/BSP/Components/vl53l8cx/modules/vl53l8cx_api.c **** 				VL53L8CX_DCI_TARGET_ORDER, 4,
1116:Drivers/BSP/Components/vl53l8cx/modules/vl53l8cx_api.c ****                                 (uint8_t*)&target_order, 1, 0x0);
1117:Drivers/BSP/Components/vl53l8cx/modules/vl53l8cx_api.c **** 	}else
1118:Drivers/BSP/Components/vl53l8cx/modules/vl53l8cx_api.c **** 	{
1119:Drivers/BSP/Components/vl53l8cx/modules/vl53l8cx_api.c **** 		status |= VL53L8CX_STATUS_INVALID_PARAM;
1120:Drivers/BSP/Components/vl53l8cx/modules/vl53l8cx_api.c **** 	}
1121:Drivers/BSP/Components/vl53l8cx/modules/vl53l8cx_api.c **** 
1122:Drivers/BSP/Components/vl53l8cx/modules/vl53l8cx_api.c **** 	return status;
1123:Drivers/BSP/Components/vl53l8cx/modules/vl53l8cx_api.c **** }
1124:Drivers/BSP/Components/vl53l8cx/modules/vl53l8cx_api.c **** 
1125:Drivers/BSP/Components/vl53l8cx/modules/vl53l8cx_api.c **** uint8_t vl53l8cx_get_ranging_mode(
1126:Drivers/BSP/Components/vl53l8cx/modules/vl53l8cx_api.c **** 		VL53L8CX_Configuration		*p_dev,
1127:Drivers/BSP/Components/vl53l8cx/modules/vl53l8cx_api.c **** 		uint8_t				*p_ranging_mode)
1128:Drivers/BSP/Components/vl53l8cx/modules/vl53l8cx_api.c **** {
1129:Drivers/BSP/Components/vl53l8cx/modules/vl53l8cx_api.c **** 	uint8_t status = VL53L8CX_STATUS_OK;
1130:Drivers/BSP/Components/vl53l8cx/modules/vl53l8cx_api.c **** 
1131:Drivers/BSP/Components/vl53l8cx/modules/vl53l8cx_api.c **** 	status |= vl53l8cx_dci_read_data(p_dev, p_dev->temp_buffer,
1132:Drivers/BSP/Components/vl53l8cx/modules/vl53l8cx_api.c **** 			VL53L8CX_DCI_RANGING_MODE, 8);
1133:Drivers/BSP/Components/vl53l8cx/modules/vl53l8cx_api.c **** 
1134:Drivers/BSP/Components/vl53l8cx/modules/vl53l8cx_api.c **** 	if(p_dev->temp_buffer[0x01] == (uint8_t)0x1)
1135:Drivers/BSP/Components/vl53l8cx/modules/vl53l8cx_api.c **** 	{
1136:Drivers/BSP/Components/vl53l8cx/modules/vl53l8cx_api.c **** 		*p_ranging_mode = VL53L8CX_RANGING_MODE_CONTINUOUS;
1137:Drivers/BSP/Components/vl53l8cx/modules/vl53l8cx_api.c **** 	}
1138:Drivers/BSP/Components/vl53l8cx/modules/vl53l8cx_api.c **** 	else
1139:Drivers/BSP/Components/vl53l8cx/modules/vl53l8cx_api.c **** 	{
1140:Drivers/BSP/Components/vl53l8cx/modules/vl53l8cx_api.c **** 		*p_ranging_mode = VL53L8CX_RANGING_MODE_AUTONOMOUS;
1141:Drivers/BSP/Components/vl53l8cx/modules/vl53l8cx_api.c **** 	}
1142:Drivers/BSP/Components/vl53l8cx/modules/vl53l8cx_api.c **** 
1143:Drivers/BSP/Components/vl53l8cx/modules/vl53l8cx_api.c **** 	return status;
1144:Drivers/BSP/Components/vl53l8cx/modules/vl53l8cx_api.c **** }
1145:Drivers/BSP/Components/vl53l8cx/modules/vl53l8cx_api.c **** 
ARM GAS  C:\Temp\cc1zxvPB.s 			page 56


1146:Drivers/BSP/Components/vl53l8cx/modules/vl53l8cx_api.c **** uint8_t vl53l8cx_set_ranging_mode(
1147:Drivers/BSP/Components/vl53l8cx/modules/vl53l8cx_api.c **** 		VL53L8CX_Configuration		*p_dev,
1148:Drivers/BSP/Components/vl53l8cx/modules/vl53l8cx_api.c **** 		uint8_t				ranging_mode)
1149:Drivers/BSP/Components/vl53l8cx/modules/vl53l8cx_api.c **** {
1150:Drivers/BSP/Components/vl53l8cx/modules/vl53l8cx_api.c **** 	uint8_t status = VL53L8CX_STATUS_OK;
1151:Drivers/BSP/Components/vl53l8cx/modules/vl53l8cx_api.c **** 	uint32_t single_range = 0x00;
1152:Drivers/BSP/Components/vl53l8cx/modules/vl53l8cx_api.c **** 
1153:Drivers/BSP/Components/vl53l8cx/modules/vl53l8cx_api.c **** 	status |= vl53l8cx_dci_read_data(p_dev, p_dev->temp_buffer,
1154:Drivers/BSP/Components/vl53l8cx/modules/vl53l8cx_api.c **** 			VL53L8CX_DCI_RANGING_MODE, 8);
1155:Drivers/BSP/Components/vl53l8cx/modules/vl53l8cx_api.c **** 
1156:Drivers/BSP/Components/vl53l8cx/modules/vl53l8cx_api.c **** 	switch(ranging_mode)
1157:Drivers/BSP/Components/vl53l8cx/modules/vl53l8cx_api.c **** 	{
1158:Drivers/BSP/Components/vl53l8cx/modules/vl53l8cx_api.c **** 		case VL53L8CX_RANGING_MODE_CONTINUOUS:
1159:Drivers/BSP/Components/vl53l8cx/modules/vl53l8cx_api.c **** 			p_dev->temp_buffer[0x01] = 0x1;
1160:Drivers/BSP/Components/vl53l8cx/modules/vl53l8cx_api.c **** 			p_dev->temp_buffer[0x03] = 0x3;
1161:Drivers/BSP/Components/vl53l8cx/modules/vl53l8cx_api.c **** 			single_range = 0x00;
1162:Drivers/BSP/Components/vl53l8cx/modules/vl53l8cx_api.c **** 			break;
1163:Drivers/BSP/Components/vl53l8cx/modules/vl53l8cx_api.c **** 
1164:Drivers/BSP/Components/vl53l8cx/modules/vl53l8cx_api.c **** 		case VL53L8CX_RANGING_MODE_AUTONOMOUS:
1165:Drivers/BSP/Components/vl53l8cx/modules/vl53l8cx_api.c **** 			p_dev->temp_buffer[0x01] = 0x3;
1166:Drivers/BSP/Components/vl53l8cx/modules/vl53l8cx_api.c **** 			p_dev->temp_buffer[0x03] = 0x2;
1167:Drivers/BSP/Components/vl53l8cx/modules/vl53l8cx_api.c **** 			single_range = 0x01;
1168:Drivers/BSP/Components/vl53l8cx/modules/vl53l8cx_api.c **** 			break;
1169:Drivers/BSP/Components/vl53l8cx/modules/vl53l8cx_api.c **** 
1170:Drivers/BSP/Components/vl53l8cx/modules/vl53l8cx_api.c **** 		default:
1171:Drivers/BSP/Components/vl53l8cx/modules/vl53l8cx_api.c **** 			status = VL53L8CX_STATUS_INVALID_PARAM;
1172:Drivers/BSP/Components/vl53l8cx/modules/vl53l8cx_api.c **** 			break;
1173:Drivers/BSP/Components/vl53l8cx/modules/vl53l8cx_api.c **** 	}
1174:Drivers/BSP/Components/vl53l8cx/modules/vl53l8cx_api.c **** 
1175:Drivers/BSP/Components/vl53l8cx/modules/vl53l8cx_api.c **** 	status |= vl53l8cx_dci_write_data(p_dev, p_dev->temp_buffer,
1176:Drivers/BSP/Components/vl53l8cx/modules/vl53l8cx_api.c **** 			VL53L8CX_DCI_RANGING_MODE, (uint16_t)8);
1177:Drivers/BSP/Components/vl53l8cx/modules/vl53l8cx_api.c **** 
1178:Drivers/BSP/Components/vl53l8cx/modules/vl53l8cx_api.c **** 	status |= vl53l8cx_dci_write_data(p_dev, (uint8_t*)&single_range,
1179:Drivers/BSP/Components/vl53l8cx/modules/vl53l8cx_api.c **** 			VL53L8CX_DCI_SINGLE_RANGE,
1180:Drivers/BSP/Components/vl53l8cx/modules/vl53l8cx_api.c ****                         (uint16_t)sizeof(single_range));
1181:Drivers/BSP/Components/vl53l8cx/modules/vl53l8cx_api.c **** 
1182:Drivers/BSP/Components/vl53l8cx/modules/vl53l8cx_api.c **** 	return status;
1183:Drivers/BSP/Components/vl53l8cx/modules/vl53l8cx_api.c **** }
1184:Drivers/BSP/Components/vl53l8cx/modules/vl53l8cx_api.c **** 
1185:Drivers/BSP/Components/vl53l8cx/modules/vl53l8cx_api.c **** uint8_t vl53l8cx_get_external_sync_pin_enable(
1186:Drivers/BSP/Components/vl53l8cx/modules/vl53l8cx_api.c **** 		VL53L8CX_Configuration		*p_dev,
1187:Drivers/BSP/Components/vl53l8cx/modules/vl53l8cx_api.c **** 		uint8_t				*p_is_sync_pin_enabled)
1188:Drivers/BSP/Components/vl53l8cx/modules/vl53l8cx_api.c **** {
1189:Drivers/BSP/Components/vl53l8cx/modules/vl53l8cx_api.c **** 	uint8_t status = VL53L8CX_STATUS_OK;
1190:Drivers/BSP/Components/vl53l8cx/modules/vl53l8cx_api.c **** 
1191:Drivers/BSP/Components/vl53l8cx/modules/vl53l8cx_api.c **** 	status |= vl53l8cx_dci_read_data(p_dev, p_dev->temp_buffer,
1192:Drivers/BSP/Components/vl53l8cx/modules/vl53l8cx_api.c **** 			VL53L8CX_DCI_SYNC_PIN, 4);
1193:Drivers/BSP/Components/vl53l8cx/modules/vl53l8cx_api.c **** 
1194:Drivers/BSP/Components/vl53l8cx/modules/vl53l8cx_api.c **** 	/* Check bit 1 value (get sync pause bit) */
1195:Drivers/BSP/Components/vl53l8cx/modules/vl53l8cx_api.c **** 	if((p_dev->temp_buffer[3] & (uint8_t)0x2) != (uint8_t)0)
1196:Drivers/BSP/Components/vl53l8cx/modules/vl53l8cx_api.c **** 	{
1197:Drivers/BSP/Components/vl53l8cx/modules/vl53l8cx_api.c **** 		*p_is_sync_pin_enabled = (uint8_t)1;
1198:Drivers/BSP/Components/vl53l8cx/modules/vl53l8cx_api.c **** 	}
1199:Drivers/BSP/Components/vl53l8cx/modules/vl53l8cx_api.c **** 	else
1200:Drivers/BSP/Components/vl53l8cx/modules/vl53l8cx_api.c **** 	{
1201:Drivers/BSP/Components/vl53l8cx/modules/vl53l8cx_api.c **** 		*p_is_sync_pin_enabled = (uint8_t)0;
1202:Drivers/BSP/Components/vl53l8cx/modules/vl53l8cx_api.c **** 	}
ARM GAS  C:\Temp\cc1zxvPB.s 			page 57


1203:Drivers/BSP/Components/vl53l8cx/modules/vl53l8cx_api.c **** 
1204:Drivers/BSP/Components/vl53l8cx/modules/vl53l8cx_api.c **** 	return status;
1205:Drivers/BSP/Components/vl53l8cx/modules/vl53l8cx_api.c **** }
1206:Drivers/BSP/Components/vl53l8cx/modules/vl53l8cx_api.c **** 
1207:Drivers/BSP/Components/vl53l8cx/modules/vl53l8cx_api.c **** uint8_t vl53l8cx_set_external_sync_pin_enable(
1208:Drivers/BSP/Components/vl53l8cx/modules/vl53l8cx_api.c **** 		VL53L8CX_Configuration		*p_dev,
1209:Drivers/BSP/Components/vl53l8cx/modules/vl53l8cx_api.c **** 		uint8_t				enable_sync_pin)
1210:Drivers/BSP/Components/vl53l8cx/modules/vl53l8cx_api.c **** {
1211:Drivers/BSP/Components/vl53l8cx/modules/vl53l8cx_api.c **** 	uint8_t status = VL53L8CX_STATUS_OK;
1212:Drivers/BSP/Components/vl53l8cx/modules/vl53l8cx_api.c ****         uint32_t tmp;
1213:Drivers/BSP/Components/vl53l8cx/modules/vl53l8cx_api.c **** 
1214:Drivers/BSP/Components/vl53l8cx/modules/vl53l8cx_api.c **** 	status |= vl53l8cx_dci_read_data(p_dev, p_dev->temp_buffer,
1215:Drivers/BSP/Components/vl53l8cx/modules/vl53l8cx_api.c **** 			VL53L8CX_DCI_SYNC_PIN, 4);
1216:Drivers/BSP/Components/vl53l8cx/modules/vl53l8cx_api.c ****         tmp = (uint32_t)p_dev->temp_buffer[3];
1217:Drivers/BSP/Components/vl53l8cx/modules/vl53l8cx_api.c **** 
1218:Drivers/BSP/Components/vl53l8cx/modules/vl53l8cx_api.c **** 	/* Update bit 1 with mask (set sync pause bit) */
1219:Drivers/BSP/Components/vl53l8cx/modules/vl53l8cx_api.c **** 	if(enable_sync_pin == (uint8_t)0)
1220:Drivers/BSP/Components/vl53l8cx/modules/vl53l8cx_api.c **** 	{
1221:Drivers/BSP/Components/vl53l8cx/modules/vl53l8cx_api.c ****                 tmp &= ~(1UL << 1);
1222:Drivers/BSP/Components/vl53l8cx/modules/vl53l8cx_api.c **** 
1223:Drivers/BSP/Components/vl53l8cx/modules/vl53l8cx_api.c **** 	}
1224:Drivers/BSP/Components/vl53l8cx/modules/vl53l8cx_api.c **** 	else
1225:Drivers/BSP/Components/vl53l8cx/modules/vl53l8cx_api.c **** 	{
1226:Drivers/BSP/Components/vl53l8cx/modules/vl53l8cx_api.c ****                 tmp |= 1UL << 1;
1227:Drivers/BSP/Components/vl53l8cx/modules/vl53l8cx_api.c **** 	}
1228:Drivers/BSP/Components/vl53l8cx/modules/vl53l8cx_api.c **** 
1229:Drivers/BSP/Components/vl53l8cx/modules/vl53l8cx_api.c ****         p_dev->temp_buffer[3] = (uint8_t)tmp;
1230:Drivers/BSP/Components/vl53l8cx/modules/vl53l8cx_api.c **** 	status |= vl53l8cx_dci_write_data(p_dev, p_dev->temp_buffer,
1231:Drivers/BSP/Components/vl53l8cx/modules/vl53l8cx_api.c **** 			VL53L8CX_DCI_SYNC_PIN, 4);
1232:Drivers/BSP/Components/vl53l8cx/modules/vl53l8cx_api.c **** 
1233:Drivers/BSP/Components/vl53l8cx/modules/vl53l8cx_api.c **** 	return status;
1234:Drivers/BSP/Components/vl53l8cx/modules/vl53l8cx_api.c **** }
1235:Drivers/BSP/Components/vl53l8cx/modules/vl53l8cx_api.c **** 
1236:Drivers/BSP/Components/vl53l8cx/modules/vl53l8cx_api.c **** uint8_t vl53l8cx_get_VHV_repeat_count(
1237:Drivers/BSP/Components/vl53l8cx/modules/vl53l8cx_api.c **** 		VL53L8CX_Configuration *p_dev,
1238:Drivers/BSP/Components/vl53l8cx/modules/vl53l8cx_api.c **** 		uint32_t *p_repeat_count)
1239:Drivers/BSP/Components/vl53l8cx/modules/vl53l8cx_api.c **** {
1240:Drivers/BSP/Components/vl53l8cx/modules/vl53l8cx_api.c **** 	uint8_t status = VL53L8CX_STATUS_OK;
1241:Drivers/BSP/Components/vl53l8cx/modules/vl53l8cx_api.c **** 	status |= vl53l8cx_dci_read_data(p_dev, (uint8_t*)p_dev->temp_buffer,
1242:Drivers/BSP/Components/vl53l8cx/modules/vl53l8cx_api.c **** 			VL53L8CX_DCI_VHV_CONFIG, 16);
1243:Drivers/BSP/Components/vl53l8cx/modules/vl53l8cx_api.c **** 
1244:Drivers/BSP/Components/vl53l8cx/modules/vl53l8cx_api.c **** 	*p_repeat_count = ((uint32_t)p_dev->temp_buffer[7] << 24)
1245:Drivers/BSP/Components/vl53l8cx/modules/vl53l8cx_api.c **** 			| ((uint32_t)p_dev->temp_buffer[6]  << 16)
1246:Drivers/BSP/Components/vl53l8cx/modules/vl53l8cx_api.c **** 			| ((uint32_t)p_dev->temp_buffer[5]  << 8)
1247:Drivers/BSP/Components/vl53l8cx/modules/vl53l8cx_api.c **** 			| (uint32_t)p_dev->temp_buffer[4];
1248:Drivers/BSP/Components/vl53l8cx/modules/vl53l8cx_api.c **** 
1249:Drivers/BSP/Components/vl53l8cx/modules/vl53l8cx_api.c **** 	return status;
1250:Drivers/BSP/Components/vl53l8cx/modules/vl53l8cx_api.c **** }
1251:Drivers/BSP/Components/vl53l8cx/modules/vl53l8cx_api.c **** 
1252:Drivers/BSP/Components/vl53l8cx/modules/vl53l8cx_api.c **** uint8_t vl53l8cx_set_VHV_repeat_count(
1253:Drivers/BSP/Components/vl53l8cx/modules/vl53l8cx_api.c **** 		VL53L8CX_Configuration *p_dev,
1254:Drivers/BSP/Components/vl53l8cx/modules/vl53l8cx_api.c **** 		uint32_t repeat_count)
1255:Drivers/BSP/Components/vl53l8cx/modules/vl53l8cx_api.c **** {
1256:Drivers/BSP/Components/vl53l8cx/modules/vl53l8cx_api.c **** 	uint8_t status = VL53L8CX_STATUS_OK;
1257:Drivers/BSP/Components/vl53l8cx/modules/vl53l8cx_api.c **** 	status |= vl53l8cx_dci_replace_data(p_dev, p_dev->temp_buffer,
1258:Drivers/BSP/Components/vl53l8cx/modules/vl53l8cx_api.c **** 			VL53L8CX_DCI_VHV_CONFIG, 16, (uint8_t*)&repeat_count, 4, 0x4);
1259:Drivers/BSP/Components/vl53l8cx/modules/vl53l8cx_api.c **** 	return status;
ARM GAS  C:\Temp\cc1zxvPB.s 			page 58


1260:Drivers/BSP/Components/vl53l8cx/modules/vl53l8cx_api.c **** }
1261:Drivers/BSP/Components/vl53l8cx/modules/vl53l8cx_api.c **** 
1262:Drivers/BSP/Components/vl53l8cx/modules/vl53l8cx_api.c **** uint8_t vl53l8cx_dci_read_data(
1263:Drivers/BSP/Components/vl53l8cx/modules/vl53l8cx_api.c **** 		VL53L8CX_Configuration		*p_dev,
1264:Drivers/BSP/Components/vl53l8cx/modules/vl53l8cx_api.c **** 		uint8_t				*data,
1265:Drivers/BSP/Components/vl53l8cx/modules/vl53l8cx_api.c **** 		uint32_t			index,
1266:Drivers/BSP/Components/vl53l8cx/modules/vl53l8cx_api.c **** 		uint16_t			data_size)
1267:Drivers/BSP/Components/vl53l8cx/modules/vl53l8cx_api.c **** {
 1753              		.loc 1 1267 1 is_stmt 1 view -0
 1754              		.cfi_startproc
 1755              		@ args = 0, pretend = 0, frame = 16
 1756              		@ frame_needed = 0, uses_anonymous_args = 0
 1757              		.loc 1 1267 1 is_stmt 0 view .LVU530
 1758 0000 2DE9F041 		push	{r4, r5, r6, r7, r8, lr}
 1759              		.cfi_def_cfa_offset 24
 1760              		.cfi_offset 4, -24
 1761              		.cfi_offset 5, -20
 1762              		.cfi_offset 6, -16
 1763              		.cfi_offset 7, -12
 1764              		.cfi_offset 8, -8
 1765              		.cfi_offset 14, -4
 1766 0004 86B0     		sub	sp, sp, #24
 1767              		.cfi_def_cfa_offset 48
 1768 0006 0546     		mov	r5, r0
 1769 0008 0E46     		mov	r6, r1
 1770 000a 1746     		mov	r7, r2
 1771 000c 1C46     		mov	r4, r3
1268:Drivers/BSP/Components/vl53l8cx/modules/vl53l8cx_api.c **** 	int16_t i;
 1772              		.loc 1 1268 2 is_stmt 1 view .LVU531
1269:Drivers/BSP/Components/vl53l8cx/modules/vl53l8cx_api.c **** 	uint8_t status = VL53L8CX_STATUS_OK;
 1773              		.loc 1 1269 2 view .LVU532
 1774              	.LVL200:
1270:Drivers/BSP/Components/vl53l8cx/modules/vl53l8cx_api.c ****         uint32_t rd_size = (uint32_t) data_size + (uint32_t)12;
 1775              		.loc 1 1270 9 view .LVU533
 1776              		.loc 1 1270 18 is_stmt 0 view .LVU534
 1777 000e 03F10C08 		add	r8, r3, #12
 1778              	.LVL201:
1271:Drivers/BSP/Components/vl53l8cx/modules/vl53l8cx_api.c **** 	uint8_t cmd[] = {0x00, 0x00, 0x00, 0x00,
 1779              		.loc 1 1271 2 is_stmt 1 view .LVU535
 1780              		.loc 1 1271 10 is_stmt 0 view .LVU536
 1781 0012 284B     		ldr	r3, .L100
 1782              	.LVL202:
 1783              		.loc 1 1271 10 view .LVU537
 1784 0014 93E80700 		ldm	r3, {r0, r1, r2}
 1785              	.LVL203:
 1786              		.loc 1 1271 10 view .LVU538
 1787 0018 06AB     		add	r3, sp, #24
 1788 001a 03E90700 		stmdb	r3, {r0, r1, r2}
1272:Drivers/BSP/Components/vl53l8cx/modules/vl53l8cx_api.c **** 			0x00, 0x00, 0x00, 0x0f,
1273:Drivers/BSP/Components/vl53l8cx/modules/vl53l8cx_api.c **** 			0x00, 0x02, 0x00, 0x08};
1274:Drivers/BSP/Components/vl53l8cx/modules/vl53l8cx_api.c **** 
1275:Drivers/BSP/Components/vl53l8cx/modules/vl53l8cx_api.c **** 	/* Check if tmp buffer is large enough */
1276:Drivers/BSP/Components/vl53l8cx/modules/vl53l8cx_api.c **** 	if((data_size + (uint16_t)12)>(uint16_t)VL53L8CX_TEMPORARY_BUFFER_SIZE)
 1789              		.loc 1 1276 2 is_stmt 1 view .LVU539
 1790              		.loc 1 1276 4 is_stmt 0 view .LVU540
 1791 001e B4F57D7F 		cmp	r4, #1012
 1792 0022 04D9     		bls	.L99
ARM GAS  C:\Temp\cc1zxvPB.s 			page 59


1277:Drivers/BSP/Components/vl53l8cx/modules/vl53l8cx_api.c **** 	{
1278:Drivers/BSP/Components/vl53l8cx/modules/vl53l8cx_api.c **** 		status |= VL53L8CX_STATUS_ERROR;
 1793              		.loc 1 1278 10 view .LVU541
 1794 0024 FF27     		movs	r7, #255
 1795              	.LVL204:
 1796              	.L94:
1279:Drivers/BSP/Components/vl53l8cx/modules/vl53l8cx_api.c **** 	}
1280:Drivers/BSP/Components/vl53l8cx/modules/vl53l8cx_api.c **** 	else
1281:Drivers/BSP/Components/vl53l8cx/modules/vl53l8cx_api.c **** 	{
1282:Drivers/BSP/Components/vl53l8cx/modules/vl53l8cx_api.c **** 		cmd[0] = (uint8_t)(index >> 8);	
1283:Drivers/BSP/Components/vl53l8cx/modules/vl53l8cx_api.c **** 		cmd[1] = (uint8_t)(index & (uint32_t)0xff);			
1284:Drivers/BSP/Components/vl53l8cx/modules/vl53l8cx_api.c **** 		cmd[2] = (uint8_t)((data_size & (uint16_t)0xff0) >> 4);
1285:Drivers/BSP/Components/vl53l8cx/modules/vl53l8cx_api.c **** 		cmd[3] = (uint8_t)((data_size & (uint16_t)0xf) << 4);
1286:Drivers/BSP/Components/vl53l8cx/modules/vl53l8cx_api.c **** 
1287:Drivers/BSP/Components/vl53l8cx/modules/vl53l8cx_api.c **** 	/* Request data reading from FW */
1288:Drivers/BSP/Components/vl53l8cx/modules/vl53l8cx_api.c **** 		status |= VL53L8CX_WrMulti(&(p_dev->platform),
1289:Drivers/BSP/Components/vl53l8cx/modules/vl53l8cx_api.c **** 			(VL53L8CX_UI_CMD_END-(uint16_t)11),cmd, sizeof(cmd));
1290:Drivers/BSP/Components/vl53l8cx/modules/vl53l8cx_api.c **** 		status |= _vl53l8cx_poll_for_answer(p_dev, 4, 1,
1291:Drivers/BSP/Components/vl53l8cx/modules/vl53l8cx_api.c **** 			VL53L8CX_UI_CMD_STATUS,
1292:Drivers/BSP/Components/vl53l8cx/modules/vl53l8cx_api.c **** 			0xff, 0x03);
1293:Drivers/BSP/Components/vl53l8cx/modules/vl53l8cx_api.c **** 
1294:Drivers/BSP/Components/vl53l8cx/modules/vl53l8cx_api.c **** 	/* Read new data sent (4 bytes header + data_size + 8 bytes footer) */
1295:Drivers/BSP/Components/vl53l8cx/modules/vl53l8cx_api.c **** 		status |= VL53L8CX_RdMulti(&(p_dev->platform), VL53L8CX_UI_CMD_START,
1296:Drivers/BSP/Components/vl53l8cx/modules/vl53l8cx_api.c **** 			p_dev->temp_buffer, rd_size);
1297:Drivers/BSP/Components/vl53l8cx/modules/vl53l8cx_api.c **** 		VL53L8CX_SwapBuffer(p_dev->temp_buffer, data_size + (uint16_t)12);
1298:Drivers/BSP/Components/vl53l8cx/modules/vl53l8cx_api.c **** 
1299:Drivers/BSP/Components/vl53l8cx/modules/vl53l8cx_api.c **** 	/* Copy data from FW into input structure (-4 bytes to remove header) */
1300:Drivers/BSP/Components/vl53l8cx/modules/vl53l8cx_api.c **** 		for(i = 0 ; i < (int16_t)data_size;i++){
1301:Drivers/BSP/Components/vl53l8cx/modules/vl53l8cx_api.c **** 			data[i] = p_dev->temp_buffer[i + 4];
1302:Drivers/BSP/Components/vl53l8cx/modules/vl53l8cx_api.c **** 		}
1303:Drivers/BSP/Components/vl53l8cx/modules/vl53l8cx_api.c **** 	}
1304:Drivers/BSP/Components/vl53l8cx/modules/vl53l8cx_api.c **** 
1305:Drivers/BSP/Components/vl53l8cx/modules/vl53l8cx_api.c **** 	return status;
 1797              		.loc 1 1305 2 is_stmt 1 view .LVU542
1306:Drivers/BSP/Components/vl53l8cx/modules/vl53l8cx_api.c **** }
 1798              		.loc 1 1306 1 is_stmt 0 view .LVU543
 1799 0026 3846     		mov	r0, r7
 1800 0028 06B0     		add	sp, sp, #24
 1801              		.cfi_remember_state
 1802              		.cfi_def_cfa_offset 24
 1803              		@ sp needed
 1804 002a BDE8F081 		pop	{r4, r5, r6, r7, r8, pc}
 1805              	.LVL205:
 1806              	.L99:
 1807              		.cfi_restore_state
1282:Drivers/BSP/Components/vl53l8cx/modules/vl53l8cx_api.c **** 		cmd[1] = (uint8_t)(index & (uint32_t)0xff);			
 1808              		.loc 1 1282 3 is_stmt 1 view .LVU544
1282:Drivers/BSP/Components/vl53l8cx/modules/vl53l8cx_api.c **** 		cmd[1] = (uint8_t)(index & (uint32_t)0xff);			
 1809              		.loc 1 1282 12 is_stmt 0 view .LVU545
 1810 002e C7F30723 		ubfx	r3, r7, #8, #8
1282:Drivers/BSP/Components/vl53l8cx/modules/vl53l8cx_api.c **** 		cmd[1] = (uint8_t)(index & (uint32_t)0xff);			
 1811              		.loc 1 1282 10 view .LVU546
 1812 0032 8DF80C30 		strb	r3, [sp, #12]
1283:Drivers/BSP/Components/vl53l8cx/modules/vl53l8cx_api.c **** 		cmd[2] = (uint8_t)((data_size & (uint16_t)0xff0) >> 4);
 1813              		.loc 1 1283 3 is_stmt 1 view .LVU547
1283:Drivers/BSP/Components/vl53l8cx/modules/vl53l8cx_api.c **** 		cmd[2] = (uint8_t)((data_size & (uint16_t)0xff0) >> 4);
 1814              		.loc 1 1283 10 is_stmt 0 view .LVU548
ARM GAS  C:\Temp\cc1zxvPB.s 			page 60


 1815 0036 8DF80D70 		strb	r7, [sp, #13]
1284:Drivers/BSP/Components/vl53l8cx/modules/vl53l8cx_api.c **** 		cmd[3] = (uint8_t)((data_size & (uint16_t)0xf) << 4);
 1816              		.loc 1 1284 3 is_stmt 1 view .LVU549
1284:Drivers/BSP/Components/vl53l8cx/modules/vl53l8cx_api.c **** 		cmd[3] = (uint8_t)((data_size & (uint16_t)0xf) << 4);
 1817              		.loc 1 1284 12 is_stmt 0 view .LVU550
 1818 003a C4F30713 		ubfx	r3, r4, #4, #8
1284:Drivers/BSP/Components/vl53l8cx/modules/vl53l8cx_api.c **** 		cmd[3] = (uint8_t)((data_size & (uint16_t)0xf) << 4);
 1819              		.loc 1 1284 10 view .LVU551
 1820 003e 8DF80E30 		strb	r3, [sp, #14]
1285:Drivers/BSP/Components/vl53l8cx/modules/vl53l8cx_api.c **** 
 1821              		.loc 1 1285 3 is_stmt 1 view .LVU552
1285:Drivers/BSP/Components/vl53l8cx/modules/vl53l8cx_api.c **** 
 1822              		.loc 1 1285 33 is_stmt 0 view .LVU553
 1823 0042 E3B2     		uxtb	r3, r4
1285:Drivers/BSP/Components/vl53l8cx/modules/vl53l8cx_api.c **** 
 1824              		.loc 1 1285 12 view .LVU554
 1825 0044 1B01     		lsls	r3, r3, #4
1285:Drivers/BSP/Components/vl53l8cx/modules/vl53l8cx_api.c **** 
 1826              		.loc 1 1285 10 view .LVU555
 1827 0046 8DF80F30 		strb	r3, [sp, #15]
1288:Drivers/BSP/Components/vl53l8cx/modules/vl53l8cx_api.c **** 			(VL53L8CX_UI_CMD_END-(uint16_t)11),cmd, sizeof(cmd));
 1828              		.loc 1 1288 3 is_stmt 1 view .LVU556
1288:Drivers/BSP/Components/vl53l8cx/modules/vl53l8cx_api.c **** 			(VL53L8CX_UI_CMD_END-(uint16_t)11),cmd, sizeof(cmd));
 1829              		.loc 1 1288 13 is_stmt 0 view .LVU557
 1830 004a 0C23     		movs	r3, #12
 1831 004c 0DEB0302 		add	r2, sp, r3
 1832 0050 42F6F471 		movw	r1, #12276
 1833 0054 2846     		mov	r0, r5
 1834 0056 FFF7FEFF 		bl	VL53L8CX_WrMulti
 1835              	.LVL206:
 1836 005a 0746     		mov	r7, r0
 1837              	.LVL207:
1290:Drivers/BSP/Components/vl53l8cx/modules/vl53l8cx_api.c **** 			VL53L8CX_UI_CMD_STATUS,
 1838              		.loc 1 1290 3 is_stmt 1 view .LVU558
1290:Drivers/BSP/Components/vl53l8cx/modules/vl53l8cx_api.c **** 			VL53L8CX_UI_CMD_STATUS,
 1839              		.loc 1 1290 13 is_stmt 0 view .LVU559
 1840 005c 0323     		movs	r3, #3
 1841 005e 0193     		str	r3, [sp, #4]
 1842 0060 FF23     		movs	r3, #255
 1843 0062 0093     		str	r3, [sp]
 1844 0064 4FF43053 		mov	r3, #11264
 1845 0068 0122     		movs	r2, #1
 1846 006a 0421     		movs	r1, #4
 1847 006c 2846     		mov	r0, r5
 1848 006e FFF7FEFF 		bl	_vl53l8cx_poll_for_answer
 1849              	.LVL208:
1290:Drivers/BSP/Components/vl53l8cx/modules/vl53l8cx_api.c **** 			VL53L8CX_UI_CMD_STATUS,
 1850              		.loc 1 1290 10 view .LVU560
 1851 0072 0743     		orrs	r7, r7, r0
 1852              	.LVL209:
1290:Drivers/BSP/Components/vl53l8cx/modules/vl53l8cx_api.c **** 			VL53L8CX_UI_CMD_STATUS,
 1853              		.loc 1 1290 10 view .LVU561
 1854 0074 FFB2     		uxtb	r7, r7
 1855              	.LVL210:
1295:Drivers/BSP/Components/vl53l8cx/modules/vl53l8cx_api.c **** 			p_dev->temp_buffer, rd_size);
 1856              		.loc 1 1295 3 is_stmt 1 view .LVU562
1296:Drivers/BSP/Components/vl53l8cx/modules/vl53l8cx_api.c **** 		VL53L8CX_SwapBuffer(p_dev->temp_buffer, data_size + (uint16_t)12);
ARM GAS  C:\Temp\cc1zxvPB.s 			page 61


 1857              		.loc 1 1296 9 is_stmt 0 view .LVU563
 1858 0076 05F5A262 		add	r2, r5, #1296
1295:Drivers/BSP/Components/vl53l8cx/modules/vl53l8cx_api.c **** 			p_dev->temp_buffer, rd_size);
 1859              		.loc 1 1295 13 view .LVU564
 1860 007a 4346     		mov	r3, r8
 1861 007c 9046     		mov	r8, r2
 1862              	.LVL211:
1295:Drivers/BSP/Components/vl53l8cx/modules/vl53l8cx_api.c **** 			p_dev->temp_buffer, rd_size);
 1863              		.loc 1 1295 13 view .LVU565
 1864 007e 42F60441 		movw	r1, #11268
 1865 0082 2846     		mov	r0, r5
 1866 0084 FFF7FEFF 		bl	VL53L8CX_RdMulti
 1867              	.LVL212:
1295:Drivers/BSP/Components/vl53l8cx/modules/vl53l8cx_api.c **** 			p_dev->temp_buffer, rd_size);
 1868              		.loc 1 1295 10 view .LVU566
 1869 0088 0743     		orrs	r7, r7, r0
 1870              	.LVL213:
1295:Drivers/BSP/Components/vl53l8cx/modules/vl53l8cx_api.c **** 			p_dev->temp_buffer, rd_size);
 1871              		.loc 1 1295 10 view .LVU567
 1872 008a FFB2     		uxtb	r7, r7
 1873              	.LVL214:
1297:Drivers/BSP/Components/vl53l8cx/modules/vl53l8cx_api.c **** 
 1874              		.loc 1 1297 3 is_stmt 1 view .LVU568
 1875 008c 04F10C01 		add	r1, r4, #12
 1876 0090 89B2     		uxth	r1, r1
 1877 0092 4046     		mov	r0, r8
 1878 0094 FFF7FEFF 		bl	VL53L8CX_SwapBuffer
 1879              	.LVL215:
1300:Drivers/BSP/Components/vl53l8cx/modules/vl53l8cx_api.c **** 			data[i] = p_dev->temp_buffer[i + 4];
 1880              		.loc 1 1300 3 view .LVU569
1300:Drivers/BSP/Components/vl53l8cx/modules/vl53l8cx_api.c **** 			data[i] = p_dev->temp_buffer[i + 4];
 1881              		.loc 1 1300 9 is_stmt 0 view .LVU570
 1882 0098 0022     		movs	r2, #0
1300:Drivers/BSP/Components/vl53l8cx/modules/vl53l8cx_api.c **** 			data[i] = p_dev->temp_buffer[i + 4];
 1883              		.loc 1 1300 3 view .LVU571
 1884 009a 07E0     		b	.L95
 1885              	.LVL216:
 1886              	.L96:
1301:Drivers/BSP/Components/vl53l8cx/modules/vl53l8cx_api.c **** 		}
 1887              		.loc 1 1301 4 is_stmt 1 discriminator 3 view .LVU572
1301:Drivers/BSP/Components/vl53l8cx/modules/vl53l8cx_api.c **** 		}
 1888              		.loc 1 1301 35 is_stmt 0 discriminator 3 view .LVU573
 1889 009c 02F1040C 		add	ip, r2, #4
1301:Drivers/BSP/Components/vl53l8cx/modules/vl53l8cx_api.c **** 		}
 1890              		.loc 1 1301 32 discriminator 3 view .LVU574
 1891 00a0 AC44     		add	ip, ip, r5
 1892 00a2 9CF81035 		ldrb	r3, [ip, #1296]	@ zero_extendqisi2
1301:Drivers/BSP/Components/vl53l8cx/modules/vl53l8cx_api.c **** 		}
 1893              		.loc 1 1301 12 discriminator 3 view .LVU575
 1894 00a6 B354     		strb	r3, [r6, r2]
1300:Drivers/BSP/Components/vl53l8cx/modules/vl53l8cx_api.c **** 			data[i] = p_dev->temp_buffer[i + 4];
 1895              		.loc 1 1300 39 is_stmt 1 discriminator 3 view .LVU576
 1896 00a8 0132     		adds	r2, r2, #1
 1897              	.LVL217:
1300:Drivers/BSP/Components/vl53l8cx/modules/vl53l8cx_api.c **** 			data[i] = p_dev->temp_buffer[i + 4];
 1898              		.loc 1 1300 39 is_stmt 0 discriminator 3 view .LVU577
 1899 00aa 12B2     		sxth	r2, r2
ARM GAS  C:\Temp\cc1zxvPB.s 			page 62


 1900              	.LVL218:
 1901              	.L95:
1300:Drivers/BSP/Components/vl53l8cx/modules/vl53l8cx_api.c **** 			data[i] = p_dev->temp_buffer[i + 4];
 1902              		.loc 1 1300 17 is_stmt 1 discriminator 1 view .LVU578
 1903 00ac 23B2     		sxth	r3, r4
 1904 00ae 9342     		cmp	r3, r2
 1905 00b0 F4DC     		bgt	.L96
 1906 00b2 B8E7     		b	.L94
 1907              	.L101:
 1908              		.align	2
 1909              	.L100:
 1910 00b4 18000000 		.word	.LANCHOR0+24
 1911              		.cfi_endproc
 1912              	.LFE29:
 1914              		.section	.text.vl53l8cx_get_resolution,"ax",%progbits
 1915              		.align	1
 1916              		.global	vl53l8cx_get_resolution
 1917              		.syntax unified
 1918              		.thumb
 1919              		.thumb_func
 1921              	vl53l8cx_get_resolution:
 1922              	.LVL219:
 1923              	.LFB13:
 913:Drivers/BSP/Components/vl53l8cx/modules/vl53l8cx_api.c **** 	uint8_t status = VL53L8CX_STATUS_OK;
 1924              		.loc 1 913 1 view -0
 1925              		.cfi_startproc
 1926              		@ args = 0, pretend = 0, frame = 0
 1927              		@ frame_needed = 0, uses_anonymous_args = 0
 913:Drivers/BSP/Components/vl53l8cx/modules/vl53l8cx_api.c **** 	uint8_t status = VL53L8CX_STATUS_OK;
 1928              		.loc 1 913 1 is_stmt 0 view .LVU580
 1929 0000 38B5     		push	{r3, r4, r5, lr}
 1930              		.cfi_def_cfa_offset 16
 1931              		.cfi_offset 3, -16
 1932              		.cfi_offset 4, -12
 1933              		.cfi_offset 5, -8
 1934              		.cfi_offset 14, -4
 1935 0002 0446     		mov	r4, r0
 1936 0004 0D46     		mov	r5, r1
 914:Drivers/BSP/Components/vl53l8cx/modules/vl53l8cx_api.c **** 
 1937              		.loc 1 914 2 is_stmt 1 view .LVU581
 1938              	.LVL220:
 916:Drivers/BSP/Components/vl53l8cx/modules/vl53l8cx_api.c **** 			VL53L8CX_DCI_ZONE_CONFIG, 8);
 1939              		.loc 1 916 2 view .LVU582
 916:Drivers/BSP/Components/vl53l8cx/modules/vl53l8cx_api.c **** 			VL53L8CX_DCI_ZONE_CONFIG, 8);
 1940              		.loc 1 916 12 is_stmt 0 view .LVU583
 1941 0006 0823     		movs	r3, #8
 1942 0008 45F25042 		movw	r2, #21584
 1943 000c 00F5A261 		add	r1, r0, #1296
 1944              	.LVL221:
 916:Drivers/BSP/Components/vl53l8cx/modules/vl53l8cx_api.c **** 			VL53L8CX_DCI_ZONE_CONFIG, 8);
 1945              		.loc 1 916 12 view .LVU584
 1946 0010 FFF7FEFF 		bl	vl53l8cx_dci_read_data
 1947              	.LVL222:
 918:Drivers/BSP/Components/vl53l8cx/modules/vl53l8cx_api.c **** 
 1948              		.loc 1 918 2 is_stmt 1 view .LVU585
 918:Drivers/BSP/Components/vl53l8cx/modules/vl53l8cx_api.c **** 
 1949              		.loc 1 918 36 is_stmt 0 view .LVU586
ARM GAS  C:\Temp\cc1zxvPB.s 			page 63


 1950 0014 94F81035 		ldrb	r3, [r4, #1296]	@ zero_extendqisi2
 918:Drivers/BSP/Components/vl53l8cx/modules/vl53l8cx_api.c **** 
 1951              		.loc 1 918 61 view .LVU587
 1952 0018 94F81125 		ldrb	r2, [r4, #1297]	@ zero_extendqisi2
 918:Drivers/BSP/Components/vl53l8cx/modules/vl53l8cx_api.c **** 
 1953              		.loc 1 918 42 view .LVU588
 1954 001c 13FB02F3 		smulbb	r3, r3, r2
 918:Drivers/BSP/Components/vl53l8cx/modules/vl53l8cx_api.c **** 
 1955              		.loc 1 918 16 view .LVU589
 1956 0020 2B70     		strb	r3, [r5]
 920:Drivers/BSP/Components/vl53l8cx/modules/vl53l8cx_api.c **** }
 1957              		.loc 1 920 2 is_stmt 1 view .LVU590
 921:Drivers/BSP/Components/vl53l8cx/modules/vl53l8cx_api.c **** 
 1958              		.loc 1 921 1 is_stmt 0 view .LVU591
 1959 0022 38BD     		pop	{r3, r4, r5, pc}
 921:Drivers/BSP/Components/vl53l8cx/modules/vl53l8cx_api.c **** 
 1960              		.loc 1 921 1 view .LVU592
 1961              		.cfi_endproc
 1962              	.LFE13:
 1964              		.section	.text.vl53l8cx_get_ranging_frequency_hz,"ax",%progbits
 1965              		.align	1
 1966              		.global	vl53l8cx_get_ranging_frequency_hz
 1967              		.syntax unified
 1968              		.thumb
 1969              		.thumb_func
 1971              	vl53l8cx_get_ranging_frequency_hz:
 1972              	.LVL223:
 1973              	.LFB15:
 993:Drivers/BSP/Components/vl53l8cx/modules/vl53l8cx_api.c **** 	uint8_t status = VL53L8CX_STATUS_OK;
 1974              		.loc 1 993 1 is_stmt 1 view -0
 1975              		.cfi_startproc
 1976              		@ args = 0, pretend = 0, frame = 0
 1977              		@ frame_needed = 0, uses_anonymous_args = 0
 993:Drivers/BSP/Components/vl53l8cx/modules/vl53l8cx_api.c **** 	uint8_t status = VL53L8CX_STATUS_OK;
 1978              		.loc 1 993 1 is_stmt 0 view .LVU594
 1979 0000 38B5     		push	{r3, r4, r5, lr}
 1980              		.cfi_def_cfa_offset 16
 1981              		.cfi_offset 3, -16
 1982              		.cfi_offset 4, -12
 1983              		.cfi_offset 5, -8
 1984              		.cfi_offset 14, -4
 1985 0002 0446     		mov	r4, r0
 1986 0004 0D46     		mov	r5, r1
 994:Drivers/BSP/Components/vl53l8cx/modules/vl53l8cx_api.c **** 
 1987              		.loc 1 994 2 is_stmt 1 view .LVU595
 1988              	.LVL224:
 996:Drivers/BSP/Components/vl53l8cx/modules/vl53l8cx_api.c **** 			VL53L8CX_DCI_FREQ_HZ, 4);
 1989              		.loc 1 996 2 view .LVU596
 996:Drivers/BSP/Components/vl53l8cx/modules/vl53l8cx_api.c **** 			VL53L8CX_DCI_FREQ_HZ, 4);
 1990              		.loc 1 996 12 is_stmt 0 view .LVU597
 1991 0006 0423     		movs	r3, #4
 1992 0008 45F25842 		movw	r2, #21592
 1993 000c 00F5A261 		add	r1, r0, #1296
 1994              	.LVL225:
 996:Drivers/BSP/Components/vl53l8cx/modules/vl53l8cx_api.c **** 			VL53L8CX_DCI_FREQ_HZ, 4);
 1995              		.loc 1 996 12 view .LVU598
 1996 0010 FFF7FEFF 		bl	vl53l8cx_dci_read_data
ARM GAS  C:\Temp\cc1zxvPB.s 			page 64


 1997              	.LVL226:
 998:Drivers/BSP/Components/vl53l8cx/modules/vl53l8cx_api.c **** 
 1998              		.loc 1 998 2 is_stmt 1 view .LVU599
 998:Drivers/BSP/Components/vl53l8cx/modules/vl53l8cx_api.c **** 
 1999              		.loc 1 998 38 is_stmt 0 view .LVU600
 2000 0014 94F81135 		ldrb	r3, [r4, #1297]	@ zero_extendqisi2
 998:Drivers/BSP/Components/vl53l8cx/modules/vl53l8cx_api.c **** 
 2001              		.loc 1 998 18 view .LVU601
 2002 0018 2B70     		strb	r3, [r5]
1000:Drivers/BSP/Components/vl53l8cx/modules/vl53l8cx_api.c **** }
 2003              		.loc 1 1000 2 is_stmt 1 view .LVU602
1001:Drivers/BSP/Components/vl53l8cx/modules/vl53l8cx_api.c **** 
 2004              		.loc 1 1001 1 is_stmt 0 view .LVU603
 2005 001a 38BD     		pop	{r3, r4, r5, pc}
1001:Drivers/BSP/Components/vl53l8cx/modules/vl53l8cx_api.c **** 
 2006              		.loc 1 1001 1 view .LVU604
 2007              		.cfi_endproc
 2008              	.LFE15:
 2010              		.section	.text.vl53l8cx_get_integration_time_ms,"ax",%progbits
 2011              		.align	1
 2012              		.global	vl53l8cx_get_integration_time_ms
 2013              		.syntax unified
 2014              		.thumb
 2015              		.thumb_func
 2017              	vl53l8cx_get_integration_time_ms:
 2018              	.LVL227:
 2019              	.LFB17:
1019:Drivers/BSP/Components/vl53l8cx/modules/vl53l8cx_api.c **** 	uint8_t status = VL53L8CX_STATUS_OK;
 2020              		.loc 1 1019 1 is_stmt 1 view -0
 2021              		.cfi_startproc
 2022              		@ args = 0, pretend = 0, frame = 0
 2023              		@ frame_needed = 0, uses_anonymous_args = 0
1019:Drivers/BSP/Components/vl53l8cx/modules/vl53l8cx_api.c **** 	uint8_t status = VL53L8CX_STATUS_OK;
 2024              		.loc 1 1019 1 is_stmt 0 view .LVU606
 2025 0000 38B5     		push	{r3, r4, r5, lr}
 2026              		.cfi_def_cfa_offset 16
 2027              		.cfi_offset 3, -16
 2028              		.cfi_offset 4, -12
 2029              		.cfi_offset 5, -8
 2030              		.cfi_offset 14, -4
 2031 0002 0546     		mov	r5, r0
 2032 0004 0C46     		mov	r4, r1
1020:Drivers/BSP/Components/vl53l8cx/modules/vl53l8cx_api.c **** 
 2033              		.loc 1 1020 2 is_stmt 1 view .LVU607
 2034              	.LVL228:
1022:Drivers/BSP/Components/vl53l8cx/modules/vl53l8cx_api.c **** 			VL53L8CX_DCI_INT_TIME, 20);
 2035              		.loc 1 1022 2 view .LVU608
1022:Drivers/BSP/Components/vl53l8cx/modules/vl53l8cx_api.c **** 			VL53L8CX_DCI_INT_TIME, 20);
 2036              		.loc 1 1022 12 is_stmt 0 view .LVU609
 2037 0006 1423     		movs	r3, #20
 2038 0008 45F25C42 		movw	r2, #21596
 2039 000c 00F5A261 		add	r1, r0, #1296
 2040              	.LVL229:
1022:Drivers/BSP/Components/vl53l8cx/modules/vl53l8cx_api.c **** 			VL53L8CX_DCI_INT_TIME, 20);
 2041              		.loc 1 1022 12 view .LVU610
 2042 0010 FFF7FEFF 		bl	vl53l8cx_dci_read_data
 2043              	.LVL230:
ARM GAS  C:\Temp\cc1zxvPB.s 			page 65


1025:Drivers/BSP/Components/vl53l8cx/modules/vl53l8cx_api.c **** 	*p_time_ms /= (uint32_t)1000;
 2044              		.loc 1 1025 2 is_stmt 1 view .LVU611
1025:Drivers/BSP/Components/vl53l8cx/modules/vl53l8cx_api.c **** 	*p_time_ms /= (uint32_t)1000;
 2045              		.loc 1 1025 8 is_stmt 0 view .LVU612
 2046 0014 D5F81035 		ldr	r3, [r5, #1296]	@ unaligned
 2047 0018 2360     		str	r3, [r4]	@ unaligned
1026:Drivers/BSP/Components/vl53l8cx/modules/vl53l8cx_api.c **** 
 2048              		.loc 1 1026 2 is_stmt 1 view .LVU613
1026:Drivers/BSP/Components/vl53l8cx/modules/vl53l8cx_api.c **** 
 2049              		.loc 1 1026 13 is_stmt 0 view .LVU614
 2050 001a 034A     		ldr	r2, .L108
 2051 001c A2FB0323 		umull	r2, r3, r2, r3
 2052 0020 9B09     		lsrs	r3, r3, #6
 2053 0022 2360     		str	r3, [r4]
1028:Drivers/BSP/Components/vl53l8cx/modules/vl53l8cx_api.c **** }
 2054              		.loc 1 1028 2 is_stmt 1 view .LVU615
1029:Drivers/BSP/Components/vl53l8cx/modules/vl53l8cx_api.c **** 
 2055              		.loc 1 1029 1 is_stmt 0 view .LVU616
 2056 0024 38BD     		pop	{r3, r4, r5, pc}
 2057              	.LVL231:
 2058              	.L109:
1029:Drivers/BSP/Components/vl53l8cx/modules/vl53l8cx_api.c **** 
 2059              		.loc 1 1029 1 view .LVU617
 2060 0026 00BF     		.align	2
 2061              	.L108:
 2062 0028 D34D6210 		.word	274877907
 2063              		.cfi_endproc
 2064              	.LFE17:
 2066              		.section	.text.vl53l8cx_get_sharpener_percent,"ax",%progbits
 2067              		.align	1
 2068              		.global	vl53l8cx_get_sharpener_percent
 2069              		.syntax unified
 2070              		.thumb
 2071              		.thumb_func
 2073              	vl53l8cx_get_sharpener_percent:
 2074              	.LVL232:
 2075              	.LFB19:
1058:Drivers/BSP/Components/vl53l8cx/modules/vl53l8cx_api.c **** 	uint8_t status = VL53L8CX_STATUS_OK;
 2076              		.loc 1 1058 1 is_stmt 1 view -0
 2077              		.cfi_startproc
 2078              		@ args = 0, pretend = 0, frame = 0
 2079              		@ frame_needed = 0, uses_anonymous_args = 0
1058:Drivers/BSP/Components/vl53l8cx/modules/vl53l8cx_api.c **** 	uint8_t status = VL53L8CX_STATUS_OK;
 2080              		.loc 1 1058 1 is_stmt 0 view .LVU619
 2081 0000 38B5     		push	{r3, r4, r5, lr}
 2082              		.cfi_def_cfa_offset 16
 2083              		.cfi_offset 3, -16
 2084              		.cfi_offset 4, -12
 2085              		.cfi_offset 5, -8
 2086              		.cfi_offset 14, -4
 2087 0002 0446     		mov	r4, r0
 2088 0004 0D46     		mov	r5, r1
1059:Drivers/BSP/Components/vl53l8cx/modules/vl53l8cx_api.c **** 
 2089              		.loc 1 1059 2 is_stmt 1 view .LVU620
 2090              	.LVL233:
1061:Drivers/BSP/Components/vl53l8cx/modules/vl53l8cx_api.c **** 			VL53L8CX_DCI_SHARPENER, 16);
 2091              		.loc 1 1061 2 view .LVU621
ARM GAS  C:\Temp\cc1zxvPB.s 			page 66


1061:Drivers/BSP/Components/vl53l8cx/modules/vl53l8cx_api.c **** 			VL53L8CX_DCI_SHARPENER, 16);
 2092              		.loc 1 1061 12 is_stmt 0 view .LVU622
 2093 0006 1023     		movs	r3, #16
 2094 0008 4AF6D862 		movw	r2, #44760
 2095 000c 00F5A261 		add	r1, r0, #1296
 2096              	.LVL234:
1061:Drivers/BSP/Components/vl53l8cx/modules/vl53l8cx_api.c **** 			VL53L8CX_DCI_SHARPENER, 16);
 2097              		.loc 1 1061 12 view .LVU623
 2098 0010 FFF7FEFF 		bl	vl53l8cx_dci_read_data
 2099              	.LVL235:
1064:Drivers/BSP/Components/vl53l8cx/modules/vl53l8cx_api.c ****                                 *(uint8_t)100)/(uint8_t)255;
 2100              		.loc 1 1064 2 is_stmt 1 view .LVU624
1064:Drivers/BSP/Components/vl53l8cx/modules/vl53l8cx_api.c ****                                 *(uint8_t)100)/(uint8_t)255;
 2101              		.loc 1 1064 44 is_stmt 0 view .LVU625
 2102 0014 94F81D25 		ldrb	r2, [r4, #1309]	@ zero_extendqisi2
1065:Drivers/BSP/Components/vl53l8cx/modules/vl53l8cx_api.c **** 
 2103              		.loc 1 1065 33 view .LVU626
 2104 0018 6423     		movs	r3, #100
 2105 001a 03FB02F2 		mul	r2, r3, r2
1065:Drivers/BSP/Components/vl53l8cx/modules/vl53l8cx_api.c **** 
 2106              		.loc 1 1065 47 view .LVU627
 2107 001e 034B     		ldr	r3, .L112
 2108 0020 83FB0213 		smull	r1, r3, r3, r2
 2109 0024 1344     		add	r3, r3, r2
 2110 0026 DB11     		asrs	r3, r3, #7
1064:Drivers/BSP/Components/vl53l8cx/modules/vl53l8cx_api.c ****                                 *(uint8_t)100)/(uint8_t)255;
 2111              		.loc 1 1064 23 view .LVU628
 2112 0028 2B70     		strb	r3, [r5]
1067:Drivers/BSP/Components/vl53l8cx/modules/vl53l8cx_api.c **** }
 2113              		.loc 1 1067 2 is_stmt 1 view .LVU629
1068:Drivers/BSP/Components/vl53l8cx/modules/vl53l8cx_api.c **** 
 2114              		.loc 1 1068 1 is_stmt 0 view .LVU630
 2115 002a 38BD     		pop	{r3, r4, r5, pc}
 2116              	.LVL236:
 2117              	.L113:
1068:Drivers/BSP/Components/vl53l8cx/modules/vl53l8cx_api.c **** 
 2118              		.loc 1 1068 1 view .LVU631
 2119              		.align	2
 2120              	.L112:
 2121 002c 81808080 		.word	-2139062143
 2122              		.cfi_endproc
 2123              	.LFE19:
 2125              		.section	.text.vl53l8cx_get_target_order,"ax",%progbits
 2126              		.align	1
 2127              		.global	vl53l8cx_get_target_order
 2128              		.syntax unified
 2129              		.thumb
 2130              		.thumb_func
 2132              	vl53l8cx_get_target_order:
 2133              	.LVL237:
 2134              	.LFB21:
1095:Drivers/BSP/Components/vl53l8cx/modules/vl53l8cx_api.c **** 	uint8_t status = VL53L8CX_STATUS_OK;
 2135              		.loc 1 1095 1 is_stmt 1 view -0
 2136              		.cfi_startproc
 2137              		@ args = 0, pretend = 0, frame = 0
 2138              		@ frame_needed = 0, uses_anonymous_args = 0
1095:Drivers/BSP/Components/vl53l8cx/modules/vl53l8cx_api.c **** 	uint8_t status = VL53L8CX_STATUS_OK;
ARM GAS  C:\Temp\cc1zxvPB.s 			page 67


 2139              		.loc 1 1095 1 is_stmt 0 view .LVU633
 2140 0000 38B5     		push	{r3, r4, r5, lr}
 2141              		.cfi_def_cfa_offset 16
 2142              		.cfi_offset 3, -16
 2143              		.cfi_offset 4, -12
 2144              		.cfi_offset 5, -8
 2145              		.cfi_offset 14, -4
 2146 0002 0446     		mov	r4, r0
 2147 0004 0D46     		mov	r5, r1
1096:Drivers/BSP/Components/vl53l8cx/modules/vl53l8cx_api.c **** 
 2148              		.loc 1 1096 2 is_stmt 1 view .LVU634
 2149              	.LVL238:
1098:Drivers/BSP/Components/vl53l8cx/modules/vl53l8cx_api.c **** 			VL53L8CX_DCI_TARGET_ORDER, 4);
 2150              		.loc 1 1098 2 view .LVU635
1098:Drivers/BSP/Components/vl53l8cx/modules/vl53l8cx_api.c **** 			VL53L8CX_DCI_TARGET_ORDER, 4);
 2151              		.loc 1 1098 12 is_stmt 0 view .LVU636
 2152 0006 0423     		movs	r3, #4
 2153 0008 4AF66462 		movw	r2, #44644
 2154 000c 00F5A261 		add	r1, r0, #1296
 2155              	.LVL239:
1098:Drivers/BSP/Components/vl53l8cx/modules/vl53l8cx_api.c **** 			VL53L8CX_DCI_TARGET_ORDER, 4);
 2156              		.loc 1 1098 12 view .LVU637
 2157 0010 FFF7FEFF 		bl	vl53l8cx_dci_read_data
 2158              	.LVL240:
1100:Drivers/BSP/Components/vl53l8cx/modules/vl53l8cx_api.c **** 
 2159              		.loc 1 1100 2 is_stmt 1 view .LVU638
1100:Drivers/BSP/Components/vl53l8cx/modules/vl53l8cx_api.c **** 
 2160              		.loc 1 1100 47 is_stmt 0 view .LVU639
 2161 0014 94F81035 		ldrb	r3, [r4, #1296]	@ zero_extendqisi2
1100:Drivers/BSP/Components/vl53l8cx/modules/vl53l8cx_api.c **** 
 2162              		.loc 1 1100 18 view .LVU640
 2163 0018 2B70     		strb	r3, [r5]
1102:Drivers/BSP/Components/vl53l8cx/modules/vl53l8cx_api.c **** }
 2164              		.loc 1 1102 2 is_stmt 1 view .LVU641
1103:Drivers/BSP/Components/vl53l8cx/modules/vl53l8cx_api.c **** 
 2165              		.loc 1 1103 1 is_stmt 0 view .LVU642
 2166 001a 38BD     		pop	{r3, r4, r5, pc}
1103:Drivers/BSP/Components/vl53l8cx/modules/vl53l8cx_api.c **** 
 2167              		.loc 1 1103 1 view .LVU643
 2168              		.cfi_endproc
 2169              	.LFE21:
 2171              		.section	.text.vl53l8cx_get_ranging_mode,"ax",%progbits
 2172              		.align	1
 2173              		.global	vl53l8cx_get_ranging_mode
 2174              		.syntax unified
 2175              		.thumb
 2176              		.thumb_func
 2178              	vl53l8cx_get_ranging_mode:
 2179              	.LVL241:
 2180              	.LFB23:
1128:Drivers/BSP/Components/vl53l8cx/modules/vl53l8cx_api.c **** 	uint8_t status = VL53L8CX_STATUS_OK;
 2181              		.loc 1 1128 1 is_stmt 1 view -0
 2182              		.cfi_startproc
 2183              		@ args = 0, pretend = 0, frame = 0
 2184              		@ frame_needed = 0, uses_anonymous_args = 0
1128:Drivers/BSP/Components/vl53l8cx/modules/vl53l8cx_api.c **** 	uint8_t status = VL53L8CX_STATUS_OK;
 2185              		.loc 1 1128 1 is_stmt 0 view .LVU645
ARM GAS  C:\Temp\cc1zxvPB.s 			page 68


 2186 0000 38B5     		push	{r3, r4, r5, lr}
 2187              		.cfi_def_cfa_offset 16
 2188              		.cfi_offset 3, -16
 2189              		.cfi_offset 4, -12
 2190              		.cfi_offset 5, -8
 2191              		.cfi_offset 14, -4
 2192 0002 0446     		mov	r4, r0
 2193 0004 0D46     		mov	r5, r1
1129:Drivers/BSP/Components/vl53l8cx/modules/vl53l8cx_api.c **** 
 2194              		.loc 1 1129 2 is_stmt 1 view .LVU646
 2195              	.LVL242:
1131:Drivers/BSP/Components/vl53l8cx/modules/vl53l8cx_api.c **** 			VL53L8CX_DCI_RANGING_MODE, 8);
 2196              		.loc 1 1131 2 view .LVU647
1131:Drivers/BSP/Components/vl53l8cx/modules/vl53l8cx_api.c **** 			VL53L8CX_DCI_RANGING_MODE, 8);
 2197              		.loc 1 1131 12 is_stmt 0 view .LVU648
 2198 0006 0823     		movs	r3, #8
 2199 0008 4AF63052 		movw	r2, #44336
 2200 000c 00F5A261 		add	r1, r0, #1296
 2201              	.LVL243:
1131:Drivers/BSP/Components/vl53l8cx/modules/vl53l8cx_api.c **** 			VL53L8CX_DCI_RANGING_MODE, 8);
 2202              		.loc 1 1131 12 view .LVU649
 2203 0010 FFF7FEFF 		bl	vl53l8cx_dci_read_data
 2204              	.LVL244:
1134:Drivers/BSP/Components/vl53l8cx/modules/vl53l8cx_api.c **** 	{
 2205              		.loc 1 1134 2 is_stmt 1 view .LVU650
1134:Drivers/BSP/Components/vl53l8cx/modules/vl53l8cx_api.c **** 	{
 2206              		.loc 1 1134 23 is_stmt 0 view .LVU651
 2207 0014 94F81135 		ldrb	r3, [r4, #1297]	@ zero_extendqisi2
1134:Drivers/BSP/Components/vl53l8cx/modules/vl53l8cx_api.c **** 	{
 2208              		.loc 1 1134 4 view .LVU652
 2209 0018 012B     		cmp	r3, #1
 2210 001a 02D0     		beq	.L120
1140:Drivers/BSP/Components/vl53l8cx/modules/vl53l8cx_api.c **** 	}
 2211              		.loc 1 1140 3 is_stmt 1 view .LVU653
