ARM GAS  C:\Temp\cc80ShlR.s 			page 1


   1              		.cpu cortex-m4
   2              		.arch armv7e-m
   3              		.fpu fpv4-sp-d16
   4              		.eabi_attribute 27, 1
   5              		.eabi_attribute 28, 1
   6              		.eabi_attribute 20, 1
   7              		.eabi_attribute 21, 1
   8              		.eabi_attribute 23, 3
   9              		.eabi_attribute 24, 1
  10              		.eabi_attribute 25, 1
  11              		.eabi_attribute 26, 1
  12              		.eabi_attribute 30, 1
  13              		.eabi_attribute 34, 1
  14              		.eabi_attribute 18, 4
  15              		.file	"vl53l1_hist_algos_gen3.c"
  16              		.text
  17              	.Ltext0:
  18              		.cfi_sections	.debug_frame
  19              		.file 1 "Drivers/BSP/Components/vl53l1cb/modules/vl53l1_hist_algos_gen3.c"
  20              		.section	.text.VL53L1_f_016,"ax",%progbits
  21              		.align	1
  22              		.global	VL53L1_f_016
  23              		.syntax unified
  24              		.thumb
  25              		.thumb_func
  27              	VL53L1_f_016:
  28              	.LVL0:
  29              	.LFB3:
   1:Drivers/BSP/Components/vl53l1cb/modules/vl53l1_hist_algos_gen3.c **** /**
   2:Drivers/BSP/Components/vl53l1cb/modules/vl53l1_hist_algos_gen3.c ****  ******************************************************************************
   3:Drivers/BSP/Components/vl53l1cb/modules/vl53l1_hist_algos_gen3.c ****  * Copyright (c) 2020, STMicroelectronics - All Rights Reserved
   4:Drivers/BSP/Components/vl53l1cb/modules/vl53l1_hist_algos_gen3.c **** 
   5:Drivers/BSP/Components/vl53l1cb/modules/vl53l1_hist_algos_gen3.c ****  This file is part of VL53L1 Protected and is licensed 
   6:Drivers/BSP/Components/vl53l1cb/modules/vl53l1_hist_algos_gen3.c ****  'STMicroelectronics Proprietary license'
   7:Drivers/BSP/Components/vl53l1cb/modules/vl53l1_hist_algos_gen3.c **** 
   8:Drivers/BSP/Components/vl53l1cb/modules/vl53l1_hist_algos_gen3.c ****  License terms: STMicroelectronics Proprietary in accordance with licensing
   9:Drivers/BSP/Components/vl53l1cb/modules/vl53l1_hist_algos_gen3.c ****  terms at www.st.com/sla0081
  10:Drivers/BSP/Components/vl53l1cb/modules/vl53l1_hist_algos_gen3.c **** 
  11:Drivers/BSP/Components/vl53l1cb/modules/vl53l1_hist_algos_gen3.c ****  ******************************************************************************
  12:Drivers/BSP/Components/vl53l1cb/modules/vl53l1_hist_algos_gen3.c ****  */
  13:Drivers/BSP/Components/vl53l1cb/modules/vl53l1_hist_algos_gen3.c **** 
  14:Drivers/BSP/Components/vl53l1cb/modules/vl53l1_hist_algos_gen3.c **** 
  15:Drivers/BSP/Components/vl53l1cb/modules/vl53l1_hist_algos_gen3.c **** 
  16:Drivers/BSP/Components/vl53l1cb/modules/vl53l1_hist_algos_gen3.c **** 
  17:Drivers/BSP/Components/vl53l1cb/modules/vl53l1_hist_algos_gen3.c **** #include "vl53l1_types.h"
  18:Drivers/BSP/Components/vl53l1cb/modules/vl53l1_hist_algos_gen3.c **** #include "vl53l1_platform_log.h"
  19:Drivers/BSP/Components/vl53l1cb/modules/vl53l1_hist_algos_gen3.c **** 
  20:Drivers/BSP/Components/vl53l1cb/modules/vl53l1_hist_algos_gen3.c **** #include "vl53l1_core_support.h"
  21:Drivers/BSP/Components/vl53l1cb/modules/vl53l1_hist_algos_gen3.c **** #include "vl53l1_error_codes.h"
  22:Drivers/BSP/Components/vl53l1cb/modules/vl53l1_hist_algos_gen3.c **** 
  23:Drivers/BSP/Components/vl53l1cb/modules/vl53l1_hist_algos_gen3.c **** #include "vl53l1_hist_core.h"
  24:Drivers/BSP/Components/vl53l1cb/modules/vl53l1_hist_algos_gen3.c **** #include "vl53l1_hist_algos_gen3.h"
  25:Drivers/BSP/Components/vl53l1cb/modules/vl53l1_hist_algos_gen3.c **** #include "vl53l1_sigma_estimate.h"
  26:Drivers/BSP/Components/vl53l1cb/modules/vl53l1_hist_algos_gen3.c **** #include "vl53l1_dmax.h"
  27:Drivers/BSP/Components/vl53l1cb/modules/vl53l1_hist_algos_gen3.c **** 
  28:Drivers/BSP/Components/vl53l1cb/modules/vl53l1_hist_algos_gen3.c **** 
  29:Drivers/BSP/Components/vl53l1cb/modules/vl53l1_hist_algos_gen3.c **** 
ARM GAS  C:\Temp\cc80ShlR.s 			page 2


  30:Drivers/BSP/Components/vl53l1cb/modules/vl53l1_hist_algos_gen3.c **** #define LOG_FUNCTION_START(fmt, ...) \
  31:Drivers/BSP/Components/vl53l1cb/modules/vl53l1_hist_algos_gen3.c **** 	_LOG_FUNCTION_START(VL53L1_TRACE_MODULE_HISTOGRAM, fmt, ##__VA_ARGS__)
  32:Drivers/BSP/Components/vl53l1cb/modules/vl53l1_hist_algos_gen3.c **** #define LOG_FUNCTION_END(status, ...) \
  33:Drivers/BSP/Components/vl53l1cb/modules/vl53l1_hist_algos_gen3.c **** 	_LOG_FUNCTION_END(VL53L1_TRACE_MODULE_HISTOGRAM, status, ##__VA_ARGS__)
  34:Drivers/BSP/Components/vl53l1cb/modules/vl53l1_hist_algos_gen3.c **** #define LOG_FUNCTION_END_FMT(status, fmt, ...) \
  35:Drivers/BSP/Components/vl53l1cb/modules/vl53l1_hist_algos_gen3.c **** 	_LOG_FUNCTION_END_FMT(VL53L1_TRACE_MODULE_HISTOGRAM,\
  36:Drivers/BSP/Components/vl53l1cb/modules/vl53l1_hist_algos_gen3.c **** 	status, fmt, ##__VA_ARGS__)
  37:Drivers/BSP/Components/vl53l1cb/modules/vl53l1_hist_algos_gen3.c **** 
  38:Drivers/BSP/Components/vl53l1cb/modules/vl53l1_hist_algos_gen3.c **** #define trace_print(level, ...) \
  39:Drivers/BSP/Components/vl53l1cb/modules/vl53l1_hist_algos_gen3.c **** 	_LOG_TRACE_PRINT(VL53L1_TRACE_MODULE_HISTOGRAM, \
  40:Drivers/BSP/Components/vl53l1cb/modules/vl53l1_hist_algos_gen3.c **** 	level, VL53L1_TRACE_FUNCTION_NONE, ##__VA_ARGS__)
  41:Drivers/BSP/Components/vl53l1cb/modules/vl53l1_hist_algos_gen3.c **** 
  42:Drivers/BSP/Components/vl53l1cb/modules/vl53l1_hist_algos_gen3.c **** 
  43:Drivers/BSP/Components/vl53l1cb/modules/vl53l1_hist_algos_gen3.c **** void VL53L1_f_016(
  44:Drivers/BSP/Components/vl53l1cb/modules/vl53l1_hist_algos_gen3.c **** 	VL53L1_hist_gen3_algo_private_data_t   *palgo)
  45:Drivers/BSP/Components/vl53l1cb/modules/vl53l1_hist_algos_gen3.c **** {
  30              		.loc 1 45 1 view -0
  31              		.cfi_startproc
  32              		@ args = 0, pretend = 0, frame = 0
  33              		@ frame_needed = 0, uses_anonymous_args = 0
  34              		.loc 1 45 1 is_stmt 0 view .LVU1
  35 0000 38B5     		push	{r3, r4, r5, lr}
  36              		.cfi_def_cfa_offset 16
  37              		.cfi_offset 3, -16
  38              		.cfi_offset 4, -12
  39              		.cfi_offset 5, -8
  40              		.cfi_offset 14, -4
  41 0002 0446     		mov	r4, r0
  46:Drivers/BSP/Components/vl53l1cb/modules/vl53l1_hist_algos_gen3.c **** 
  47:Drivers/BSP/Components/vl53l1cb/modules/vl53l1_hist_algos_gen3.c **** 
  48:Drivers/BSP/Components/vl53l1cb/modules/vl53l1_hist_algos_gen3.c **** 	uint8_t  lb                 = 0;
  42              		.loc 1 48 2 is_stmt 1 view .LVU2
  43              	.LVL1:
  49:Drivers/BSP/Components/vl53l1cb/modules/vl53l1_hist_algos_gen3.c **** 
  50:Drivers/BSP/Components/vl53l1cb/modules/vl53l1_hist_algos_gen3.c **** 	palgo->VL53L1_p_023              = VL53L1_HISTOGRAM_BUFFER_SIZE;
  44              		.loc 1 50 2 view .LVU3
  45              		.loc 1 50 35 is_stmt 0 view .LVU4
  46 0004 1823     		movs	r3, #24
  47 0006 4370     		strb	r3, [r0, #1]
  51:Drivers/BSP/Components/vl53l1cb/modules/vl53l1_hist_algos_gen3.c **** 	palgo->VL53L1_p_022                = 0;
  48              		.loc 1 51 2 is_stmt 1 view .LVU5
  49              		.loc 1 51 37 is_stmt 0 view .LVU6
  50 0008 0023     		movs	r3, #0
  51 000a 0370     		strb	r3, [r0]
  52:Drivers/BSP/Components/vl53l1cb/modules/vl53l1_hist_algos_gen3.c **** 	palgo->VL53L1_p_024           = 0;
  52              		.loc 1 52 2 is_stmt 1 view .LVU7
  53              		.loc 1 52 32 is_stmt 0 view .LVU8
  54 000c 8370     		strb	r3, [r0, #2]
  53:Drivers/BSP/Components/vl53l1cb/modules/vl53l1_hist_algos_gen3.c **** 	palgo->VL53L1_p_045         = 0;
  55              		.loc 1 53 2 is_stmt 1 view .LVU9
  56              		.loc 1 53 30 is_stmt 0 view .LVU10
  57 000e 0371     		strb	r3, [r0, #4]
  54:Drivers/BSP/Components/vl53l1cb/modules/vl53l1_hist_algos_gen3.c **** 	palgo->VL53L1_p_004   = 0;
  58              		.loc 1 54 2 is_stmt 1 view .LVU11
  59              		.loc 1 54 24 is_stmt 0 view .LVU12
  60 0010 8360     		str	r3, [r0, #8]
  55:Drivers/BSP/Components/vl53l1cb/modules/vl53l1_hist_algos_gen3.c **** 	palgo->VL53L1_p_032 = 0;
ARM GAS  C:\Temp\cc80ShlR.s 			page 3


  61              		.loc 1 55 2 is_stmt 1 view .LVU13
  62              		.loc 1 55 22 is_stmt 0 view .LVU14
  63 0012 C360     		str	r3, [r0, #12]
  56:Drivers/BSP/Components/vl53l1cb/modules/vl53l1_hist_algos_gen3.c **** 
  57:Drivers/BSP/Components/vl53l1cb/modules/vl53l1_hist_algos_gen3.c **** 	for (lb = palgo->VL53L1_p_022; lb < palgo->VL53L1_p_023; lb++) {
  64              		.loc 1 57 2 is_stmt 1 view .LVU15
  65              		.loc 1 57 2 is_stmt 0 view .LVU16
  66 0014 10E0     		b	.L2
  67              	.LVL2:
  68              	.L3:
  58:Drivers/BSP/Components/vl53l1cb/modules/vl53l1_hist_algos_gen3.c **** 		palgo->VL53L1_p_043[lb]      = 0;
  69              		.loc 1 58 3 is_stmt 1 discriminator 3 view .LVU17
  70              		.loc 1 58 32 is_stmt 0 discriminator 3 view .LVU18
  71 0016 E118     		adds	r1, r4, r3
  72 0018 0022     		movs	r2, #0
  73 001a 0A74     		strb	r2, [r1, #16]
  59:Drivers/BSP/Components/vl53l1cb/modules/vl53l1_hist_algos_gen3.c **** 		palgo->VL53L1_p_046[lb] = 0;
  74              		.loc 1 59 3 is_stmt 1 discriminator 3 view .LVU19
  75              		.loc 1 59 27 is_stmt 0 discriminator 3 view .LVU20
  76 001c 81F82820 		strb	r2, [r1, #40]
  60:Drivers/BSP/Components/vl53l1cb/modules/vl53l1_hist_algos_gen3.c **** 		palgo->VL53L1_p_047[lb]     = 0;
  77              		.loc 1 60 3 is_stmt 1 discriminator 3 view .LVU21
  78              		.loc 1 60 31 is_stmt 0 discriminator 3 view .LVU22
  79 0020 81F84020 		strb	r2, [r1, #64]
  61:Drivers/BSP/Components/vl53l1cb/modules/vl53l1_hist_algos_gen3.c **** 		palgo->VL53L1_p_048[lb]      = 0;
  80              		.loc 1 61 3 is_stmt 1 discriminator 3 view .LVU23
  81              		.loc 1 61 32 is_stmt 0 discriminator 3 view .LVU24
  82 0024 03F12E01 		add	r1, r3, #46
  83 0028 44F82120 		str	r2, [r4, r1, lsl #2]
  62:Drivers/BSP/Components/vl53l1cb/modules/vl53l1_hist_algos_gen3.c **** 		palgo->VL53L1_p_008[lb]     = 0;
  84              		.loc 1 62 3 is_stmt 1 discriminator 3 view .LVU25
  85              		.loc 1 62 31 is_stmt 0 discriminator 3 view .LVU26
  86 002c 03F14601 		add	r1, r3, #70
  87 0030 44F82120 		str	r2, [r4, r1, lsl #2]
  57:Drivers/BSP/Components/vl53l1cb/modules/vl53l1_hist_algos_gen3.c **** 		palgo->VL53L1_p_043[lb]      = 0;
  88              		.loc 1 57 61 is_stmt 1 discriminator 3 view .LVU27
  89 0034 0133     		adds	r3, r3, #1
  90              	.LVL3:
  57:Drivers/BSP/Components/vl53l1cb/modules/vl53l1_hist_algos_gen3.c **** 		palgo->VL53L1_p_043[lb]      = 0;
  91              		.loc 1 57 61 is_stmt 0 discriminator 3 view .LVU28
  92 0036 DBB2     		uxtb	r3, r3
  93              	.LVL4:
  94              	.L2:
  57:Drivers/BSP/Components/vl53l1cb/modules/vl53l1_hist_algos_gen3.c **** 		palgo->VL53L1_p_043[lb]      = 0;
  95              		.loc 1 57 36 is_stmt 1 discriminator 1 view .LVU29
  96 0038 172B     		cmp	r3, #23
  97 003a ECD9     		bls	.L3
  63:Drivers/BSP/Components/vl53l1cb/modules/vl53l1_hist_algos_gen3.c **** 	}
  64:Drivers/BSP/Components/vl53l1cb/modules/vl53l1_hist_algos_gen3.c **** 
  65:Drivers/BSP/Components/vl53l1cb/modules/vl53l1_hist_algos_gen3.c **** 	palgo->VL53L1_p_049 = 0;
  98              		.loc 1 65 2 view .LVU30
  99              		.loc 1 65 22 is_stmt 0 view .LVU31
 100 003c 0025     		movs	r5, #0
 101 003e 84F87851 		strb	r5, [r4, #376]
  66:Drivers/BSP/Components/vl53l1cb/modules/vl53l1_hist_algos_gen3.c **** 	palgo->VL53L1_p_050               = VL53L1_D_001;
 102              		.loc 1 66 2 is_stmt 1 view .LVU32
 103              		.loc 1 66 36 is_stmt 0 view .LVU33
ARM GAS  C:\Temp\cc80ShlR.s 			page 4


 104 0042 0823     		movs	r3, #8
 105              	.LVL5:
 106              		.loc 1 66 36 view .LVU34
 107 0044 84F87931 		strb	r3, [r4, #377]
  67:Drivers/BSP/Components/vl53l1cb/modules/vl53l1_hist_algos_gen3.c **** 	palgo->VL53L1_p_051             = 0;
 108              		.loc 1 67 2 is_stmt 1 view .LVU35
 109              		.loc 1 67 34 is_stmt 0 view .LVU36
 110 0048 84F87A51 		strb	r5, [r4, #378]
  68:Drivers/BSP/Components/vl53l1cb/modules/vl53l1_hist_algos_gen3.c **** 
  69:Drivers/BSP/Components/vl53l1cb/modules/vl53l1_hist_algos_gen3.c **** 
  70:Drivers/BSP/Components/vl53l1cb/modules/vl53l1_hist_algos_gen3.c **** 
  71:Drivers/BSP/Components/vl53l1cb/modules/vl53l1_hist_algos_gen3.c **** 	VL53L1_init_histogram_bin_data_struct(
 111              		.loc 1 71 2 is_stmt 1 view .LVU37
 112 004c 04F52772 		add	r2, r4, #668
 113 0050 1821     		movs	r1, #24
 114 0052 2846     		mov	r0, r5
 115              	.LVL6:
 116              		.loc 1 71 2 is_stmt 0 view .LVU38
 117 0054 FFF7FEFF 		bl	VL53L1_init_histogram_bin_data_struct
 118              	.LVL7:
  72:Drivers/BSP/Components/vl53l1cb/modules/vl53l1_hist_algos_gen3.c **** 		0,
  73:Drivers/BSP/Components/vl53l1cb/modules/vl53l1_hist_algos_gen3.c **** 		VL53L1_HISTOGRAM_BUFFER_SIZE,
  74:Drivers/BSP/Components/vl53l1cb/modules/vl53l1_hist_algos_gen3.c **** 		&(palgo->VL53L1_p_010));
  75:Drivers/BSP/Components/vl53l1cb/modules/vl53l1_hist_algos_gen3.c **** 	VL53L1_init_histogram_bin_data_struct(
 119              		.loc 1 75 2 is_stmt 1 view .LVU39
 120 0058 04F55272 		add	r2, r4, #840
 121 005c 1821     		movs	r1, #24
 122 005e 2846     		mov	r0, r5
 123 0060 FFF7FEFF 		bl	VL53L1_init_histogram_bin_data_struct
 124              	.LVL8:
  76:Drivers/BSP/Components/vl53l1cb/modules/vl53l1_hist_algos_gen3.c **** 		0,
  77:Drivers/BSP/Components/vl53l1cb/modules/vl53l1_hist_algos_gen3.c **** 		VL53L1_HISTOGRAM_BUFFER_SIZE,
  78:Drivers/BSP/Components/vl53l1cb/modules/vl53l1_hist_algos_gen3.c **** 		&(palgo->VL53L1_p_038));
  79:Drivers/BSP/Components/vl53l1cb/modules/vl53l1_hist_algos_gen3.c **** 	VL53L1_init_histogram_bin_data_struct(
 125              		.loc 1 79 2 view .LVU40
 126 0064 04F57D72 		add	r2, r4, #1012
 127 0068 1821     		movs	r1, #24
 128 006a 2846     		mov	r0, r5
 129 006c FFF7FEFF 		bl	VL53L1_init_histogram_bin_data_struct
 130              	.LVL9:
  80:Drivers/BSP/Components/vl53l1cb/modules/vl53l1_hist_algos_gen3.c **** 		0,
  81:Drivers/BSP/Components/vl53l1cb/modules/vl53l1_hist_algos_gen3.c **** 		VL53L1_HISTOGRAM_BUFFER_SIZE,
  82:Drivers/BSP/Components/vl53l1cb/modules/vl53l1_hist_algos_gen3.c **** 		&(palgo->VL53L1_p_052));
  83:Drivers/BSP/Components/vl53l1cb/modules/vl53l1_hist_algos_gen3.c **** 	VL53L1_init_histogram_bin_data_struct(
 131              		.loc 1 83 2 view .LVU41
 132 0070 04F59462 		add	r2, r4, #1184
 133 0074 1821     		movs	r1, #24
 134 0076 2846     		mov	r0, r5
 135 0078 FFF7FEFF 		bl	VL53L1_init_histogram_bin_data_struct
 136              	.LVL10:
  84:Drivers/BSP/Components/vl53l1cb/modules/vl53l1_hist_algos_gen3.c **** 		0,
  85:Drivers/BSP/Components/vl53l1cb/modules/vl53l1_hist_algos_gen3.c **** 		VL53L1_HISTOGRAM_BUFFER_SIZE,
  86:Drivers/BSP/Components/vl53l1cb/modules/vl53l1_hist_algos_gen3.c **** 		&(palgo->VL53L1_p_053));
  87:Drivers/BSP/Components/vl53l1cb/modules/vl53l1_hist_algos_gen3.c **** 	VL53L1_init_histogram_bin_data_struct(
 137              		.loc 1 87 2 view .LVU42
 138 007c 04F24C52 		addw	r2, r4, #1356
 139 0080 1821     		movs	r1, #24
ARM GAS  C:\Temp\cc80ShlR.s 			page 5


 140 0082 2846     		mov	r0, r5
 141 0084 FFF7FEFF 		bl	VL53L1_init_histogram_bin_data_struct
 142              	.LVL11:
  88:Drivers/BSP/Components/vl53l1cb/modules/vl53l1_hist_algos_gen3.c **** 		0,
  89:Drivers/BSP/Components/vl53l1cb/modules/vl53l1_hist_algos_gen3.c **** 		VL53L1_HISTOGRAM_BUFFER_SIZE,
  90:Drivers/BSP/Components/vl53l1cb/modules/vl53l1_hist_algos_gen3.c **** 		&(palgo->VL53L1_p_054));
  91:Drivers/BSP/Components/vl53l1cb/modules/vl53l1_hist_algos_gen3.c **** }
 143              		.loc 1 91 1 is_stmt 0 view .LVU43
 144 0088 38BD     		pop	{r3, r4, r5, pc}
 145              		.loc 1 91 1 view .LVU44
 146              		.cfi_endproc
 147              	.LFE3:
 149              		.section	.text.VL53L1_f_018,"ax",%progbits
 150              		.align	1
 151              		.global	VL53L1_f_018
 152              		.syntax unified
 153              		.thumb
 154              		.thumb_func
 156              	VL53L1_f_018:
 157              	.LVL12:
 158              	.LFB4:
  92:Drivers/BSP/Components/vl53l1cb/modules/vl53l1_hist_algos_gen3.c **** 
  93:Drivers/BSP/Components/vl53l1cb/modules/vl53l1_hist_algos_gen3.c **** 
  94:Drivers/BSP/Components/vl53l1cb/modules/vl53l1_hist_algos_gen3.c **** 
  95:Drivers/BSP/Components/vl53l1cb/modules/vl53l1_hist_algos_gen3.c **** VL53L1_Error VL53L1_f_018(
  96:Drivers/BSP/Components/vl53l1cb/modules/vl53l1_hist_algos_gen3.c **** 	uint16_t                          ambient_threshold_events_scaler,
  97:Drivers/BSP/Components/vl53l1cb/modules/vl53l1_hist_algos_gen3.c **** 	int32_t                           ambient_threshold_sigma,
  98:Drivers/BSP/Components/vl53l1cb/modules/vl53l1_hist_algos_gen3.c **** 	int32_t                           min_ambient_threshold_events,
  99:Drivers/BSP/Components/vl53l1cb/modules/vl53l1_hist_algos_gen3.c **** 	uint8_t                           algo__crosstalk_compensation_enable,
 100:Drivers/BSP/Components/vl53l1cb/modules/vl53l1_hist_algos_gen3.c **** 	VL53L1_histogram_bin_data_t           *pbins,
 101:Drivers/BSP/Components/vl53l1cb/modules/vl53l1_hist_algos_gen3.c **** 	VL53L1_histogram_bin_data_t           *pxtalk,
 102:Drivers/BSP/Components/vl53l1cb/modules/vl53l1_hist_algos_gen3.c **** 	VL53L1_hist_gen3_algo_private_data_t  *palgo)
 103:Drivers/BSP/Components/vl53l1cb/modules/vl53l1_hist_algos_gen3.c **** {
 159              		.loc 1 103 1 is_stmt 1 view -0
 160              		.cfi_startproc
 161              		@ args = 12, pretend = 0, frame = 8
 162              		@ frame_needed = 0, uses_anonymous_args = 0
 163              		.loc 1 103 1 is_stmt 0 view .LVU46
 164 0000 2DE9F04F 		push	{r4, r5, r6, r7, r8, r9, r10, fp, lr}
 165              		.cfi_def_cfa_offset 36
 166              		.cfi_offset 4, -36
 167              		.cfi_offset 5, -32
 168              		.cfi_offset 6, -28
 169              		.cfi_offset 7, -24
 170              		.cfi_offset 8, -20
 171              		.cfi_offset 9, -16
 172              		.cfi_offset 10, -12
 173              		.cfi_offset 11, -8
 174              		.cfi_offset 14, -4
 175 0004 83B0     		sub	sp, sp, #12
 176              		.cfi_def_cfa_offset 48
 177 0006 0446     		mov	r4, r0
 178 0008 8A46     		mov	r10, r1
 179 000a 9146     		mov	r9, r2
 180 000c 0193     		str	r3, [sp, #4]
 181 000e 0C9D     		ldr	r5, [sp, #48]
 182 0010 DDF834B0 		ldr	fp, [sp, #52]
ARM GAS  C:\Temp\cc80ShlR.s 			page 6


 183 0014 0E9E     		ldr	r6, [sp, #56]
 104:Drivers/BSP/Components/vl53l1cb/modules/vl53l1_hist_algos_gen3.c **** 
 105:Drivers/BSP/Components/vl53l1cb/modules/vl53l1_hist_algos_gen3.c **** 
 106:Drivers/BSP/Components/vl53l1cb/modules/vl53l1_hist_algos_gen3.c **** 
 107:Drivers/BSP/Components/vl53l1cb/modules/vl53l1_hist_algos_gen3.c **** 	VL53L1_Error  status  = VL53L1_ERROR_NONE;
 184              		.loc 1 107 2 is_stmt 1 view .LVU47
 185              	.LVL13:
 108:Drivers/BSP/Components/vl53l1cb/modules/vl53l1_hist_algos_gen3.c **** 	uint8_t  lb            = 0;
 186              		.loc 1 108 2 view .LVU48
 109:Drivers/BSP/Components/vl53l1cb/modules/vl53l1_hist_algos_gen3.c **** 	uint8_t  VL53L1_p_001            = 0;
 187              		.loc 1 109 2 view .LVU49
 110:Drivers/BSP/Components/vl53l1cb/modules/vl53l1_hist_algos_gen3.c **** 	int64_t  tmp          = 0;
 188              		.loc 1 110 2 view .LVU50
 111:Drivers/BSP/Components/vl53l1cb/modules/vl53l1_hist_algos_gen3.c **** 	int32_t  amb_events   = 0;
 189              		.loc 1 111 2 view .LVU51
 112:Drivers/BSP/Components/vl53l1cb/modules/vl53l1_hist_algos_gen3.c **** 	int32_t  VL53L1_p_008       = 0;
 190              		.loc 1 112 2 view .LVU52
 113:Drivers/BSP/Components/vl53l1cb/modules/vl53l1_hist_algos_gen3.c **** 	int32_t  samples      = 0;
 191              		.loc 1 113 2 view .LVU53
 114:Drivers/BSP/Components/vl53l1cb/modules/vl53l1_hist_algos_gen3.c **** 
 115:Drivers/BSP/Components/vl53l1cb/modules/vl53l1_hist_algos_gen3.c **** 	LOG_FUNCTION_START("");
 192              		.loc 1 115 24 view .LVU54
 116:Drivers/BSP/Components/vl53l1cb/modules/vl53l1_hist_algos_gen3.c **** 
 117:Drivers/BSP/Components/vl53l1cb/modules/vl53l1_hist_algos_gen3.c **** 
 118:Drivers/BSP/Components/vl53l1cb/modules/vl53l1_hist_algos_gen3.c **** 	palgo->VL53L1_p_023            = pbins->VL53L1_p_023;
 193              		.loc 1 118 2 view .LVU55
 194              		.loc 1 118 40 is_stmt 0 view .LVU56
 195 0016 6B7A     		ldrb	r3, [r5, #9]	@ zero_extendqisi2
 196              	.LVL14:
 197              		.loc 1 118 33 view .LVU57
 198 0018 7370     		strb	r3, [r6, #1]
 119:Drivers/BSP/Components/vl53l1cb/modules/vl53l1_hist_algos_gen3.c **** 	palgo->VL53L1_p_022              = pbins->VL53L1_p_022;
 199              		.loc 1 119 2 is_stmt 1 view .LVU58
 200              		.loc 1 119 42 is_stmt 0 view .LVU59
 201 001a 2B7A     		ldrb	r3, [r5, #8]	@ zero_extendqisi2
 202              		.loc 1 119 35 view .LVU60
 203 001c 3370     		strb	r3, [r6]
 120:Drivers/BSP/Components/vl53l1cb/modules/vl53l1_hist_algos_gen3.c **** 	palgo->VL53L1_p_024         = pbins->VL53L1_p_024;
 204              		.loc 1 120 2 is_stmt 1 view .LVU61
 205              		.loc 1 120 37 is_stmt 0 view .LVU62
 206 001e AB7A     		ldrb	r3, [r5, #10]	@ zero_extendqisi2
 207              		.loc 1 120 30 view .LVU63
 208 0020 B370     		strb	r3, [r6, #2]
 121:Drivers/BSP/Components/vl53l1cb/modules/vl53l1_hist_algos_gen3.c **** 	palgo->VL53L1_p_004 = pbins->VL53L1_p_004;
 209              		.loc 1 121 2 is_stmt 1 view .LVU64
 210              		.loc 1 121 29 is_stmt 0 view .LVU65
 211 0022 D5F8A430 		ldr	r3, [r5, #164]
 212              		.loc 1 121 22 view .LVU66
 213 0026 B360     		str	r3, [r6, #8]
 122:Drivers/BSP/Components/vl53l1cb/modules/vl53l1_hist_algos_gen3.c **** 
 123:Drivers/BSP/Components/vl53l1cb/modules/vl53l1_hist_algos_gen3.c **** 
 124:Drivers/BSP/Components/vl53l1cb/modules/vl53l1_hist_algos_gen3.c **** 
 125:Drivers/BSP/Components/vl53l1cb/modules/vl53l1_hist_algos_gen3.c **** 	palgo->VL53L1_p_031 =
 214              		.loc 1 125 2 is_stmt 1 view .LVU67
 126:Drivers/BSP/Components/vl53l1cb/modules/vl53l1_hist_algos_gen3.c **** 			VL53L1_decode_vcsel_period(pbins->VL53L1_p_009);
 215              		.loc 1 126 4 is_stmt 0 view .LVU68
 216 0028 95F88400 		ldrb	r0, [r5, #132]	@ zero_extendqisi2
ARM GAS  C:\Temp\cc80ShlR.s 			page 7


 217              	.LVL15:
 218              		.loc 1 126 4 view .LVU69
 219 002c FFF7FEFF 		bl	VL53L1_decode_vcsel_period
 220              	.LVL16:
 125:Drivers/BSP/Components/vl53l1cb/modules/vl53l1_hist_algos_gen3.c **** 			VL53L1_decode_vcsel_period(pbins->VL53L1_p_009);
 221              		.loc 1 125 22 view .LVU70
 222 0030 F070     		strb	r0, [r6, #3]
 127:Drivers/BSP/Components/vl53l1cb/modules/vl53l1_hist_algos_gen3.c **** 
 128:Drivers/BSP/Components/vl53l1cb/modules/vl53l1_hist_algos_gen3.c **** 
 129:Drivers/BSP/Components/vl53l1cb/modules/vl53l1_hist_algos_gen3.c **** 
 130:Drivers/BSP/Components/vl53l1cb/modules/vl53l1_hist_algos_gen3.c **** 	tmp  = (int64_t)pbins->VL53L1_p_004;
 223              		.loc 1 130 2 is_stmt 1 view .LVU71
 224              		.loc 1 130 23 is_stmt 0 view .LVU72
 225 0032 D5F8A430 		ldr	r3, [r5, #164]
 226              		.loc 1 130 7 view .LVU73
 227 0036 D917     		asrs	r1, r3, #31
 228              	.LVL17:
 131:Drivers/BSP/Components/vl53l1cb/modules/vl53l1_hist_algos_gen3.c **** 	tmp *= (int64_t)ambient_threshold_events_scaler;
 229              		.loc 1 131 2 is_stmt 1 view .LVU74
 230              		.loc 1 131 6 is_stmt 0 view .LVU75
 231 0038 A4FB0332 		umull	r3, r2, r4, r3
 232              	.LVL18:
 233              		.loc 1 131 6 view .LVU76
 234 003c 04FB0122 		mla	r2, r4, r1, r2
 235              	.LVL19:
 132:Drivers/BSP/Components/vl53l1cb/modules/vl53l1_hist_algos_gen3.c **** 	tmp += 2048;
 236              		.loc 1 132 2 is_stmt 1 view .LVU77
 237              		.loc 1 132 6 is_stmt 0 view .LVU78
 238 0040 13F50063 		adds	r3, r3, #2048
 239              	.LVL20:
 240              		.loc 1 132 6 view .LVU79
 241 0044 42F10002 		adc	r2, r2, #0
 242              	.LVL21:
 133:Drivers/BSP/Components/vl53l1cb/modules/vl53l1_hist_algos_gen3.c **** 	tmp = do_division_s(tmp, 4096);
 243              		.loc 1 133 2 is_stmt 1 view .LVU80
 244              		.loc 1 133 6 is_stmt 0 view .LVU81
 245 0048 1146     		mov	r1, r2
 246 004a 002A     		cmp	r2, #0
 247 004c 04DB     		blt	.L20
 248              	.LVL22:
 249              	.L6:
 250              		.loc 1 133 6 view .LVU82
 251 004e 1B0B     		lsrs	r3, r3, #12
 252              	.LVL23:
 134:Drivers/BSP/Components/vl53l1cb/modules/vl53l1_hist_algos_gen3.c **** 	amb_events = (int32_t)tmp;
 253              		.loc 1 134 2 is_stmt 1 view .LVU83
 254              		.loc 1 134 13 is_stmt 0 view .LVU84
 255 0050 43EA0158 		orr	r8, r3, r1, lsl #20
 256              	.LVL24:
 135:Drivers/BSP/Components/vl53l1cb/modules/vl53l1_hist_algos_gen3.c **** 
 136:Drivers/BSP/Components/vl53l1cb/modules/vl53l1_hist_algos_gen3.c **** 
 137:Drivers/BSP/Components/vl53l1cb/modules/vl53l1_hist_algos_gen3.c **** 
 138:Drivers/BSP/Components/vl53l1cb/modules/vl53l1_hist_algos_gen3.c **** 	for (lb = 0; lb < pbins->VL53L1_p_024; lb++) {
 257              		.loc 1 138 2 is_stmt 1 view .LVU85
 258              		.loc 1 138 10 is_stmt 0 view .LVU86
 259 0054 0024     		movs	r4, #0
 260              		.loc 1 138 2 view .LVU87
ARM GAS  C:\Temp\cc80ShlR.s 			page 8


 261 0056 1DE0     		b	.L7
 262              	.LVL25:
 263              	.L20:
 133:Drivers/BSP/Components/vl53l1cb/modules/vl53l1_hist_algos_gen3.c **** 	amb_events = (int32_t)tmp;
 264              		.loc 1 133 6 view .LVU88
 265 0058 40F6FF71 		movw	r1, #4095
 266              	.LVL26:
 133:Drivers/BSP/Components/vl53l1cb/modules/vl53l1_hist_algos_gen3.c **** 	amb_events = (int32_t)tmp;
 267              		.loc 1 133 6 view .LVU89
 268 005c 5B18     		adds	r3, r3, r1
 269              	.LVL27:
 133:Drivers/BSP/Components/vl53l1cb/modules/vl53l1_hist_algos_gen3.c **** 	amb_events = (int32_t)tmp;
 270              		.loc 1 133 6 view .LVU90
 271 005e 42F10001 		adc	r1, r2, #0
 272 0062 F4E7     		b	.L6
 273              	.LVL28:
 274              	.L9:
 139:Drivers/BSP/Components/vl53l1cb/modules/vl53l1_hist_algos_gen3.c **** 
 140:Drivers/BSP/Components/vl53l1cb/modules/vl53l1_hist_algos_gen3.c **** 		VL53L1_p_001 = lb >> 2;
 141:Drivers/BSP/Components/vl53l1cb/modules/vl53l1_hist_algos_gen3.c **** 		samples = (int32_t)pbins->bin_rep[VL53L1_p_001];
 142:Drivers/BSP/Components/vl53l1cb/modules/vl53l1_hist_algos_gen3.c **** 
 143:Drivers/BSP/Components/vl53l1cb/modules/vl53l1_hist_algos_gen3.c **** 		if (samples > 0) {
 144:Drivers/BSP/Components/vl53l1cb/modules/vl53l1_hist_algos_gen3.c **** 
 145:Drivers/BSP/Components/vl53l1cb/modules/vl53l1_hist_algos_gen3.c **** 			if (lb < pxtalk->VL53L1_p_024 &&
 146:Drivers/BSP/Components/vl53l1cb/modules/vl53l1_hist_algos_gen3.c **** 				algo__crosstalk_compensation_enable > 0)
 147:Drivers/BSP/Components/vl53l1cb/modules/vl53l1_hist_algos_gen3.c **** 				VL53L1_p_008 = samples * (amb_events +
 148:Drivers/BSP/Components/vl53l1cb/modules/vl53l1_hist_algos_gen3.c **** 					pxtalk->bin_data[lb]);
 149:Drivers/BSP/Components/vl53l1cb/modules/vl53l1_hist_algos_gen3.c **** 			else
 150:Drivers/BSP/Components/vl53l1cb/modules/vl53l1_hist_algos_gen3.c **** 				VL53L1_p_008 = samples *  amb_events;
 275              		.loc 1 150 5 is_stmt 1 view .LVU91
 276              		.loc 1 150 18 is_stmt 0 view .LVU92
 277 0064 07FB08F0 		mul	r0, r7, r8
 278              	.LVL29:
 279              	.L10:
 151:Drivers/BSP/Components/vl53l1cb/modules/vl53l1_hist_algos_gen3.c **** 
 152:Drivers/BSP/Components/vl53l1cb/modules/vl53l1_hist_algos_gen3.c **** 			VL53L1_p_008  = VL53L1_isqrt(VL53L1_p_008);
 280              		.loc 1 152 4 is_stmt 1 view .LVU93
 281              		.loc 1 152 20 is_stmt 0 view .LVU94
 282 0068 FFF7FEFF 		bl	VL53L1_isqrt
 283              	.LVL30:
 153:Drivers/BSP/Components/vl53l1cb/modules/vl53l1_hist_algos_gen3.c **** 
 154:Drivers/BSP/Components/vl53l1cb/modules/vl53l1_hist_algos_gen3.c **** 			VL53L1_p_008 += (samples/2);
 284              		.loc 1 154 4 is_stmt 1 view .LVU95
 285              		.loc 1 154 17 is_stmt 0 view .LVU96
 286 006c 00EB5703 		add	r3, r0, r7, lsr #1
 287              	.LVL31:
 155:Drivers/BSP/Components/vl53l1cb/modules/vl53l1_hist_algos_gen3.c **** 			VL53L1_p_008 /= samples;
 288              		.loc 1 155 4 is_stmt 1 view .LVU97
 289              		.loc 1 155 17 is_stmt 0 view .LVU98
 290 0070 93FBF7F3 		sdiv	r3, r3, r7
 291              	.LVL32:
 156:Drivers/BSP/Components/vl53l1cb/modules/vl53l1_hist_algos_gen3.c **** 			VL53L1_p_008 *= ambient_threshold_sigma;
 292              		.loc 1 156 4 is_stmt 1 view .LVU99
 293              		.loc 1 156 17 is_stmt 0 view .LVU100
 294 0074 0AFB03F3 		mul	r3, r10, r3
 295              	.LVL33:
 157:Drivers/BSP/Components/vl53l1cb/modules/vl53l1_hist_algos_gen3.c **** 			VL53L1_p_008 += 8;
ARM GAS  C:\Temp\cc80ShlR.s 			page 9


 296              		.loc 1 157 4 is_stmt 1 view .LVU101
 158:Drivers/BSP/Components/vl53l1cb/modules/vl53l1_hist_algos_gen3.c **** 			VL53L1_p_008 /= 16;
 297              		.loc 1 158 4 view .LVU102
 298              		.loc 1 158 17 is_stmt 0 view .LVU103
 299 0078 0833     		adds	r3, r3, #8
 300              	.LVL34:
 301              		.loc 1 158 17 view .LVU104
 302 007a 21D4     		bmi	.L21
 303              	.LVL35:
 304              	.L11:
 159:Drivers/BSP/Components/vl53l1cb/modules/vl53l1_hist_algos_gen3.c **** 			VL53L1_p_008 += amb_events;
 305              		.loc 1 159 4 is_stmt 1 view .LVU105
 306              		.loc 1 159 17 is_stmt 0 view .LVU106
 307 007c 08EB2313 		add	r3, r8, r3, asr #4
 308              	.LVL36:
 160:Drivers/BSP/Components/vl53l1cb/modules/vl53l1_hist_algos_gen3.c **** 
 161:Drivers/BSP/Components/vl53l1cb/modules/vl53l1_hist_algos_gen3.c **** 			if (VL53L1_p_008 < min_ambient_threshold_events)
 309              		.loc 1 161 4 is_stmt 1 view .LVU107
 310              		.loc 1 161 7 is_stmt 0 view .LVU108
 311 0080 4B45     		cmp	r3, r9
 312 0082 00DA     		bge	.L12
 162:Drivers/BSP/Components/vl53l1cb/modules/vl53l1_hist_algos_gen3.c **** 				VL53L1_p_008 = min_ambient_threshold_events;
 313              		.loc 1 162 18 view .LVU109
 314 0084 4B46     		mov	r3, r9
 315              	.LVL37:
 316              	.L12:
 163:Drivers/BSP/Components/vl53l1cb/modules/vl53l1_hist_algos_gen3.c **** 
 164:Drivers/BSP/Components/vl53l1cb/modules/vl53l1_hist_algos_gen3.c **** 			palgo->VL53L1_p_056[lb]             = VL53L1_p_008;
 317              		.loc 1 164 4 is_stmt 1 view .LVU110
 318              		.loc 1 164 40 is_stmt 0 view .LVU111
 319 0086 04F11602 		add	r2, r4, #22
 320 008a 46F82230 		str	r3, [r6, r2, lsl #2]
 165:Drivers/BSP/Components/vl53l1cb/modules/vl53l1_hist_algos_gen3.c **** 			palgo->VL53L1_p_032 = VL53L1_p_008;
 321              		.loc 1 165 4 is_stmt 1 view .LVU112
 322              		.loc 1 165 24 is_stmt 0 view .LVU113
 323 008e F360     		str	r3, [r6, #12]
 324              	.LVL38:
 325              	.L8:
 138:Drivers/BSP/Components/vl53l1cb/modules/vl53l1_hist_algos_gen3.c **** 
 326              		.loc 1 138 43 is_stmt 1 discriminator 2 view .LVU114
 327 0090 0134     		adds	r4, r4, #1
 328              	.LVL39:
 138:Drivers/BSP/Components/vl53l1cb/modules/vl53l1_hist_algos_gen3.c **** 
 329              		.loc 1 138 43 is_stmt 0 discriminator 2 view .LVU115
 330 0092 E4B2     		uxtb	r4, r4
 331              	.LVL40:
 332              	.L7:
 138:Drivers/BSP/Components/vl53l1cb/modules/vl53l1_hist_algos_gen3.c **** 
 333              		.loc 1 138 18 is_stmt 1 discriminator 1 view .LVU116
 138:Drivers/BSP/Components/vl53l1cb/modules/vl53l1_hist_algos_gen3.c **** 
 334              		.loc 1 138 25 is_stmt 0 discriminator 1 view .LVU117
 335 0094 AB7A     		ldrb	r3, [r5, #10]	@ zero_extendqisi2
 138:Drivers/BSP/Components/vl53l1cb/modules/vl53l1_hist_algos_gen3.c **** 
 336              		.loc 1 138 18 discriminator 1 view .LVU118
 337 0096 A342     		cmp	r3, r4
 338 0098 14D9     		bls	.L22
 140:Drivers/BSP/Components/vl53l1cb/modules/vl53l1_hist_algos_gen3.c **** 		samples = (int32_t)pbins->bin_rep[VL53L1_p_001];
ARM GAS  C:\Temp\cc80ShlR.s 			page 10


 339              		.loc 1 140 3 is_stmt 1 view .LVU119
 340              	.LVL41:
 141:Drivers/BSP/Components/vl53l1cb/modules/vl53l1_hist_algos_gen3.c **** 
 341              		.loc 1 141 3 view .LVU120
 141:Drivers/BSP/Components/vl53l1cb/modules/vl53l1_hist_algos_gen3.c **** 
 342              		.loc 1 141 36 is_stmt 0 view .LVU121
 343 009a 05EB9403 		add	r3, r5, r4, lsr #2
 344 009e 9F7C     		ldrb	r7, [r3, #18]	@ zero_extendqisi2
 345              	.LVL42:
 143:Drivers/BSP/Components/vl53l1cb/modules/vl53l1_hist_algos_gen3.c **** 
 346              		.loc 1 143 3 is_stmt 1 view .LVU122
 143:Drivers/BSP/Components/vl53l1cb/modules/vl53l1_hist_algos_gen3.c **** 
 347              		.loc 1 143 6 is_stmt 0 view .LVU123
 348 00a0 002F     		cmp	r7, #0
 349 00a2 F5D0     		beq	.L8
 145:Drivers/BSP/Components/vl53l1cb/modules/vl53l1_hist_algos_gen3.c **** 				algo__crosstalk_compensation_enable > 0)
 350              		.loc 1 145 4 is_stmt 1 view .LVU124
 145:Drivers/BSP/Components/vl53l1cb/modules/vl53l1_hist_algos_gen3.c **** 				algo__crosstalk_compensation_enable > 0)
 351              		.loc 1 145 19 is_stmt 0 view .LVU125
 352 00a4 9BF80A30 		ldrb	r3, [fp, #10]	@ zero_extendqisi2
 145:Drivers/BSP/Components/vl53l1cb/modules/vl53l1_hist_algos_gen3.c **** 				algo__crosstalk_compensation_enable > 0)
 353              		.loc 1 145 7 view .LVU126
 354 00a8 A342     		cmp	r3, r4
 355 00aa DBD9     		bls	.L9
 145:Drivers/BSP/Components/vl53l1cb/modules/vl53l1_hist_algos_gen3.c **** 				algo__crosstalk_compensation_enable > 0)
 356              		.loc 1 145 34 discriminator 1 view .LVU127
 357 00ac 019B     		ldr	r3, [sp, #4]
 358 00ae 002B     		cmp	r3, #0
 359 00b0 D8D0     		beq	.L9
 147:Drivers/BSP/Components/vl53l1cb/modules/vl53l1_hist_algos_gen3.c **** 					pxtalk->bin_data[lb]);
 360              		.loc 1 147 5 is_stmt 1 view .LVU128
 148:Drivers/BSP/Components/vl53l1cb/modules/vl53l1_hist_algos_gen3.c **** 			else
 361              		.loc 1 148 22 is_stmt 0 view .LVU129
 362 00b2 A31D     		adds	r3, r4, #6
 363 00b4 5BF82300 		ldr	r0, [fp, r3, lsl #2]
 147:Drivers/BSP/Components/vl53l1cb/modules/vl53l1_hist_algos_gen3.c **** 					pxtalk->bin_data[lb]);
 364              		.loc 1 147 42 view .LVU130
 365 00b8 4044     		add	r0, r0, r8
 147:Drivers/BSP/Components/vl53l1cb/modules/vl53l1_hist_algos_gen3.c **** 					pxtalk->bin_data[lb]);
 366              		.loc 1 147 18 view .LVU131
 367 00ba 07FB00F0 		mul	r0, r7, r0
 368              	.LVL43:
 147:Drivers/BSP/Components/vl53l1cb/modules/vl53l1_hist_algos_gen3.c **** 					pxtalk->bin_data[lb]);
 369              		.loc 1 147 18 view .LVU132
 370 00be D3E7     		b	.L10
 371              	.LVL44:
 372              	.L21:
 158:Drivers/BSP/Components/vl53l1cb/modules/vl53l1_hist_algos_gen3.c **** 			VL53L1_p_008 += amb_events;
 373              		.loc 1 158 17 view .LVU133
 374 00c0 0F33     		adds	r3, r3, #15
 375              	.LVL45:
 158:Drivers/BSP/Components/vl53l1cb/modules/vl53l1_hist_algos_gen3.c **** 			VL53L1_p_008 += amb_events;
 376              		.loc 1 158 17 view .LVU134
 377 00c2 DBE7     		b	.L11
 378              	.LVL46:
 379              	.L22:
 166:Drivers/BSP/Components/vl53l1cb/modules/vl53l1_hist_algos_gen3.c **** 		}
ARM GAS  C:\Temp\cc80ShlR.s 			page 11


 167:Drivers/BSP/Components/vl53l1cb/modules/vl53l1_hist_algos_gen3.c **** 
 168:Drivers/BSP/Components/vl53l1cb/modules/vl53l1_hist_algos_gen3.c **** 
 169:Drivers/BSP/Components/vl53l1cb/modules/vl53l1_hist_algos_gen3.c **** 
 170:Drivers/BSP/Components/vl53l1cb/modules/vl53l1_hist_algos_gen3.c **** 	}
 171:Drivers/BSP/Components/vl53l1cb/modules/vl53l1_hist_algos_gen3.c **** 
 172:Drivers/BSP/Components/vl53l1cb/modules/vl53l1_hist_algos_gen3.c **** 
 173:Drivers/BSP/Components/vl53l1cb/modules/vl53l1_hist_algos_gen3.c **** 
 174:Drivers/BSP/Components/vl53l1cb/modules/vl53l1_hist_algos_gen3.c **** 	palgo->VL53L1_p_045 = 0;
 380              		.loc 1 174 2 is_stmt 1 view .LVU135
 381              		.loc 1 174 22 is_stmt 0 view .LVU136
 382 00c4 0023     		movs	r3, #0
 383 00c6 3371     		strb	r3, [r6, #4]
 175:Drivers/BSP/Components/vl53l1cb/modules/vl53l1_hist_algos_gen3.c **** 
 176:Drivers/BSP/Components/vl53l1cb/modules/vl53l1_hist_algos_gen3.c **** 	for (lb = pbins->VL53L1_p_022; lb < pbins->VL53L1_p_024; lb++) {
 384              		.loc 1 176 2 is_stmt 1 view .LVU137
 385              		.loc 1 176 10 is_stmt 0 view .LVU138
 386 00c8 2B7A     		ldrb	r3, [r5, #8]	@ zero_extendqisi2
 387              	.LVL47:
 388              		.loc 1 176 2 view .LVU139
 389 00ca 06E0     		b	.L14
 390              	.L15:
 177:Drivers/BSP/Components/vl53l1cb/modules/vl53l1_hist_algos_gen3.c **** 
 178:Drivers/BSP/Components/vl53l1cb/modules/vl53l1_hist_algos_gen3.c **** 		if (pbins->bin_data[lb] > palgo->VL53L1_p_056[lb]) {
 179:Drivers/BSP/Components/vl53l1cb/modules/vl53l1_hist_algos_gen3.c **** 			palgo->VL53L1_p_043[lb]      = 1;
 180:Drivers/BSP/Components/vl53l1cb/modules/vl53l1_hist_algos_gen3.c **** 			palgo->VL53L1_p_046[lb] = 1;
 181:Drivers/BSP/Components/vl53l1cb/modules/vl53l1_hist_algos_gen3.c **** 			palgo->VL53L1_p_045++;
 182:Drivers/BSP/Components/vl53l1cb/modules/vl53l1_hist_algos_gen3.c **** 		} else {
 183:Drivers/BSP/Components/vl53l1cb/modules/vl53l1_hist_algos_gen3.c **** 			palgo->VL53L1_p_043[lb]      = 0;
 391              		.loc 1 183 4 is_stmt 1 view .LVU140
 392              		.loc 1 183 33 is_stmt 0 view .LVU141
 393 00cc F218     		adds	r2, r6, r3
 394 00ce 0021     		movs	r1, #0
 395 00d0 1174     		strb	r1, [r2, #16]
 184:Drivers/BSP/Components/vl53l1cb/modules/vl53l1_hist_algos_gen3.c **** 			palgo->VL53L1_p_046[lb] = 0;
 396              		.loc 1 184 4 is_stmt 1 view .LVU142
 397              		.loc 1 184 28 is_stmt 0 view .LVU143
 398 00d2 82F82810 		strb	r1, [r2, #40]
 399              	.L16:
 176:Drivers/BSP/Components/vl53l1cb/modules/vl53l1_hist_algos_gen3.c **** 
 400              		.loc 1 176 61 is_stmt 1 discriminator 2 view .LVU144
 401 00d6 0133     		adds	r3, r3, #1
 402              	.LVL48:
 176:Drivers/BSP/Components/vl53l1cb/modules/vl53l1_hist_algos_gen3.c **** 
 403              		.loc 1 176 61 is_stmt 0 discriminator 2 view .LVU145
 404 00d8 DBB2     		uxtb	r3, r3
 405              	.LVL49:
 406              	.L14:
 176:Drivers/BSP/Components/vl53l1cb/modules/vl53l1_hist_algos_gen3.c **** 
 407              		.loc 1 176 36 is_stmt 1 discriminator 1 view .LVU146
 176:Drivers/BSP/Components/vl53l1cb/modules/vl53l1_hist_algos_gen3.c **** 
 408              		.loc 1 176 43 is_stmt 0 discriminator 1 view .LVU147
 409 00da AA7A     		ldrb	r2, [r5, #10]	@ zero_extendqisi2
 176:Drivers/BSP/Components/vl53l1cb/modules/vl53l1_hist_algos_gen3.c **** 
 410              		.loc 1 176 36 discriminator 1 view .LVU148
 411 00dc 9A42     		cmp	r2, r3
 412 00de 11D9     		bls	.L23
 178:Drivers/BSP/Components/vl53l1cb/modules/vl53l1_hist_algos_gen3.c **** 			palgo->VL53L1_p_043[lb]      = 1;
ARM GAS  C:\Temp\cc80ShlR.s 			page 12


 413              		.loc 1 178 3 is_stmt 1 view .LVU149
 178:Drivers/BSP/Components/vl53l1cb/modules/vl53l1_hist_algos_gen3.c **** 			palgo->VL53L1_p_043[lb]      = 1;
 414              		.loc 1 178 22 is_stmt 0 view .LVU150
 415 00e0 9A1D     		adds	r2, r3, #6
 416 00e2 55F82210 		ldr	r1, [r5, r2, lsl #2]
 178:Drivers/BSP/Components/vl53l1cb/modules/vl53l1_hist_algos_gen3.c **** 			palgo->VL53L1_p_043[lb]      = 1;
 417              		.loc 1 178 48 view .LVU151
 418 00e6 03F11602 		add	r2, r3, #22
 419 00ea 56F82220 		ldr	r2, [r6, r2, lsl #2]
 178:Drivers/BSP/Components/vl53l1cb/modules/vl53l1_hist_algos_gen3.c **** 			palgo->VL53L1_p_043[lb]      = 1;
 420              		.loc 1 178 6 view .LVU152
 421 00ee 9142     		cmp	r1, r2
 422 00f0 ECDD     		ble	.L15
 179:Drivers/BSP/Components/vl53l1cb/modules/vl53l1_hist_algos_gen3.c **** 			palgo->VL53L1_p_046[lb] = 1;
 423              		.loc 1 179 4 is_stmt 1 view .LVU153
 179:Drivers/BSP/Components/vl53l1cb/modules/vl53l1_hist_algos_gen3.c **** 			palgo->VL53L1_p_046[lb] = 1;
 424              		.loc 1 179 33 is_stmt 0 view .LVU154
 425 00f2 F218     		adds	r2, r6, r3
 426 00f4 0121     		movs	r1, #1
 427 00f6 1174     		strb	r1, [r2, #16]
 180:Drivers/BSP/Components/vl53l1cb/modules/vl53l1_hist_algos_gen3.c **** 			palgo->VL53L1_p_045++;
 428              		.loc 1 180 4 is_stmt 1 view .LVU155
 180:Drivers/BSP/Components/vl53l1cb/modules/vl53l1_hist_algos_gen3.c **** 			palgo->VL53L1_p_045++;
 429              		.loc 1 180 28 is_stmt 0 view .LVU156
 430 00f8 82F82810 		strb	r1, [r2, #40]
 181:Drivers/BSP/Components/vl53l1cb/modules/vl53l1_hist_algos_gen3.c **** 		} else {
 431              		.loc 1 181 4 is_stmt 1 view .LVU157
 181:Drivers/BSP/Components/vl53l1cb/modules/vl53l1_hist_algos_gen3.c **** 		} else {
 432              		.loc 1 181 9 is_stmt 0 view .LVU158
 433 00fc 3279     		ldrb	r2, [r6, #4]	@ zero_extendqisi2
 181:Drivers/BSP/Components/vl53l1cb/modules/vl53l1_hist_algos_gen3.c **** 		} else {
 434              		.loc 1 181 23 view .LVU159
 435 00fe 0A44     		add	r2, r2, r1
 436 0100 3271     		strb	r2, [r6, #4]
 437 0102 E8E7     		b	.L16
 438              	.L23:
 185:Drivers/BSP/Components/vl53l1cb/modules/vl53l1_hist_algos_gen3.c **** 		}
 186:Drivers/BSP/Components/vl53l1cb/modules/vl53l1_hist_algos_gen3.c **** 	}
 187:Drivers/BSP/Components/vl53l1cb/modules/vl53l1_hist_algos_gen3.c **** 
 188:Drivers/BSP/Components/vl53l1cb/modules/vl53l1_hist_algos_gen3.c **** 	LOG_FUNCTION_END(status);
 439              		.loc 1 188 26 is_stmt 1 view .LVU160
 189:Drivers/BSP/Components/vl53l1cb/modules/vl53l1_hist_algos_gen3.c **** 
 190:Drivers/BSP/Components/vl53l1cb/modules/vl53l1_hist_algos_gen3.c **** 	return status;
 440              		.loc 1 190 2 view .LVU161
 191:Drivers/BSP/Components/vl53l1cb/modules/vl53l1_hist_algos_gen3.c **** 
 192:Drivers/BSP/Components/vl53l1cb/modules/vl53l1_hist_algos_gen3.c **** }
 441              		.loc 1 192 1 is_stmt 0 view .LVU162
 442 0104 0020     		movs	r0, #0
 443 0106 03B0     		add	sp, sp, #12
 444              		.cfi_def_cfa_offset 36
 445              		@ sp needed
 446 0108 BDE8F08F 		pop	{r4, r5, r6, r7, r8, r9, r10, fp, pc}
 447              		.loc 1 192 1 view .LVU163
 448              		.cfi_endproc
 449              	.LFE4:
 451              		.section	.text.VL53L1_f_019,"ax",%progbits
 452              		.align	1
ARM GAS  C:\Temp\cc80ShlR.s 			page 13


 453              		.global	VL53L1_f_019
 454              		.syntax unified
 455              		.thumb
 456              		.thumb_func
 458              	VL53L1_f_019:
 459              	.LVL50:
 460              	.LFB5:
 193:Drivers/BSP/Components/vl53l1cb/modules/vl53l1_hist_algos_gen3.c **** 
 194:Drivers/BSP/Components/vl53l1cb/modules/vl53l1_hist_algos_gen3.c **** 
 195:Drivers/BSP/Components/vl53l1cb/modules/vl53l1_hist_algos_gen3.c **** 
 196:Drivers/BSP/Components/vl53l1cb/modules/vl53l1_hist_algos_gen3.c **** 
 197:Drivers/BSP/Components/vl53l1cb/modules/vl53l1_hist_algos_gen3.c **** VL53L1_Error VL53L1_f_019(
 198:Drivers/BSP/Components/vl53l1cb/modules/vl53l1_hist_algos_gen3.c **** 	VL53L1_hist_gen3_algo_private_data_t  *palgo)
 199:Drivers/BSP/Components/vl53l1cb/modules/vl53l1_hist_algos_gen3.c **** {
 461              		.loc 1 199 1 is_stmt 1 view -0
 462              		.cfi_startproc
 463              		@ args = 0, pretend = 0, frame = 0
 464              		@ frame_needed = 0, uses_anonymous_args = 0
 465              		.loc 1 199 1 is_stmt 0 view .LVU165
 466 0000 10B5     		push	{r4, lr}
 467              		.cfi_def_cfa_offset 8
 468              		.cfi_offset 4, -8
 469              		.cfi_offset 14, -4
 200:Drivers/BSP/Components/vl53l1cb/modules/vl53l1_hist_algos_gen3.c **** 
 201:Drivers/BSP/Components/vl53l1cb/modules/vl53l1_hist_algos_gen3.c **** 
 202:Drivers/BSP/Components/vl53l1cb/modules/vl53l1_hist_algos_gen3.c **** 
 203:Drivers/BSP/Components/vl53l1cb/modules/vl53l1_hist_algos_gen3.c **** 	VL53L1_Error  status  = VL53L1_ERROR_NONE;
 470              		.loc 1 203 2 is_stmt 1 view .LVU166
 471              	.LVL51:
 204:Drivers/BSP/Components/vl53l1cb/modules/vl53l1_hist_algos_gen3.c **** 
 205:Drivers/BSP/Components/vl53l1cb/modules/vl53l1_hist_algos_gen3.c **** 	uint8_t  i            = 0;
 472              		.loc 1 205 2 view .LVU167
 206:Drivers/BSP/Components/vl53l1cb/modules/vl53l1_hist_algos_gen3.c **** 	uint8_t  j            = 0;
 473              		.loc 1 206 2 view .LVU168
 207:Drivers/BSP/Components/vl53l1cb/modules/vl53l1_hist_algos_gen3.c **** 	uint8_t  found        = 0;
 474              		.loc 1 207 2 view .LVU169
 208:Drivers/BSP/Components/vl53l1cb/modules/vl53l1_hist_algos_gen3.c **** 
 209:Drivers/BSP/Components/vl53l1cb/modules/vl53l1_hist_algos_gen3.c **** 	LOG_FUNCTION_START("");
 475              		.loc 1 209 24 view .LVU170
 210:Drivers/BSP/Components/vl53l1cb/modules/vl53l1_hist_algos_gen3.c **** 
 211:Drivers/BSP/Components/vl53l1cb/modules/vl53l1_hist_algos_gen3.c **** 	palgo->VL53L1_p_049 = 0;
 476              		.loc 1 211 2 view .LVU171
 477              		.loc 1 211 22 is_stmt 0 view .LVU172
 478 0002 0023     		movs	r3, #0
 479 0004 80F87831 		strb	r3, [r0, #376]
 212:Drivers/BSP/Components/vl53l1cb/modules/vl53l1_hist_algos_gen3.c **** 
 213:Drivers/BSP/Components/vl53l1cb/modules/vl53l1_hist_algos_gen3.c **** 	for (i = 0; i < palgo->VL53L1_p_031; i++) {
 480              		.loc 1 213 2 is_stmt 1 view .LVU173
 207:Drivers/BSP/Components/vl53l1cb/modules/vl53l1_hist_algos_gen3.c **** 
 481              		.loc 1 207 11 is_stmt 0 view .LVU174
 482 0008 1C46     		mov	r4, r3
 483              		.loc 1 213 2 view .LVU175
 484 000a 01E0     		b	.L25
 485              	.LVL52:
 486              	.L26:
 487              		.loc 1 213 40 is_stmt 1 discriminator 2 view .LVU176
 488 000c 0133     		adds	r3, r3, #1
ARM GAS  C:\Temp\cc80ShlR.s 			page 14


 489              	.LVL53:
 490              		.loc 1 213 40 is_stmt 0 discriminator 2 view .LVU177
 491 000e DBB2     		uxtb	r3, r3
 492              	.LVL54:
 493              	.L25:
 494              		.loc 1 213 16 is_stmt 1 discriminator 1 view .LVU178
 495              		.loc 1 213 23 is_stmt 0 discriminator 1 view .LVU179
 496 0010 C178     		ldrb	r1, [r0, #3]	@ zero_extendqisi2
 497              		.loc 1 213 16 discriminator 1 view .LVU180
 498 0012 9942     		cmp	r1, r3
 499 0014 1DD9     		bls	.L29
 214:Drivers/BSP/Components/vl53l1cb/modules/vl53l1_hist_algos_gen3.c **** 
 215:Drivers/BSP/Components/vl53l1cb/modules/vl53l1_hist_algos_gen3.c **** 		j = (i + 1) % palgo->VL53L1_p_031;
 500              		.loc 1 215 3 is_stmt 1 view .LVU181
 501              		.loc 1 215 10 is_stmt 0 view .LVU182
 502 0016 9E46     		mov	lr, r3
 503 0018 5A1C     		adds	r2, r3, #1
 504              		.loc 1 215 15 view .LVU183
 505 001a 92FBF1FC 		sdiv	ip, r2, r1
 506 001e 01FB1C22 		mls	r2, r1, ip, r2
 507              		.loc 1 215 5 view .LVU184
 508 0022 5FFA82FC 		uxtb	ip, r2
 509              	.LVL55:
 216:Drivers/BSP/Components/vl53l1cb/modules/vl53l1_hist_algos_gen3.c **** 
 217:Drivers/BSP/Components/vl53l1cb/modules/vl53l1_hist_algos_gen3.c **** 
 218:Drivers/BSP/Components/vl53l1cb/modules/vl53l1_hist_algos_gen3.c **** 
 219:Drivers/BSP/Components/vl53l1cb/modules/vl53l1_hist_algos_gen3.c **** 		if (i < palgo->VL53L1_p_024 && j < palgo->VL53L1_p_024) {
 510              		.loc 1 219 3 is_stmt 1 view .LVU185
 511              		.loc 1 219 16 is_stmt 0 view .LVU186
 512 0026 8178     		ldrb	r1, [r0, #2]	@ zero_extendqisi2
 513              		.loc 1 219 6 view .LVU187
 514 0028 9942     		cmp	r1, r3
 515 002a EFD9     		bls	.L26
 516              		.loc 1 219 31 discriminator 1 view .LVU188
 517 002c 6145     		cmp	r1, ip
 518 002e EDD9     		bls	.L26
 220:Drivers/BSP/Components/vl53l1cb/modules/vl53l1_hist_algos_gen3.c **** 			if (palgo->VL53L1_p_046[i] == 0 &&
 519              		.loc 1 220 4 is_stmt 1 view .LVU189
 520              		.loc 1 220 27 is_stmt 0 view .LVU190
 521 0030 8644     		add	lr, lr, r0
 522 0032 9EF82810 		ldrb	r1, [lr, #40]	@ zero_extendqisi2
 523              		.loc 1 220 7 view .LVU191
 524 0036 0029     		cmp	r1, #0
 525 0038 E8D1     		bne	.L26
 221:Drivers/BSP/Components/vl53l1cb/modules/vl53l1_hist_algos_gen3.c **** 				palgo->VL53L1_p_046[j] == 1 &&
 526              		.loc 1 221 24 discriminator 1 view .LVU192
 527 003a 50FA82F2 		uxtab	r2, r0, r2
 528 003e 92F82820 		ldrb	r2, [r2, #40]	@ zero_extendqisi2
 220:Drivers/BSP/Components/vl53l1cb/modules/vl53l1_hist_algos_gen3.c **** 			if (palgo->VL53L1_p_046[i] == 0 &&
 529              		.loc 1 220 36 discriminator 1 view .LVU193
 530 0042 012A     		cmp	r2, #1
 531 0044 E2D1     		bne	.L26
 532              		.loc 1 221 33 view .LVU194
 533 0046 002C     		cmp	r4, #0
 534 0048 E0D1     		bne	.L26
 222:Drivers/BSP/Components/vl53l1cb/modules/vl53l1_hist_algos_gen3.c **** 				found == 0) {
 223:Drivers/BSP/Components/vl53l1cb/modules/vl53l1_hist_algos_gen3.c **** 				palgo->VL53L1_p_049 = i;
ARM GAS  C:\Temp\cc80ShlR.s 			page 15


 535              		.loc 1 223 5 is_stmt 1 view .LVU195
 536              		.loc 1 223 25 is_stmt 0 view .LVU196
 537 004a 80F87831 		strb	r3, [r0, #376]
 224:Drivers/BSP/Components/vl53l1cb/modules/vl53l1_hist_algos_gen3.c **** 				found = 1;
 538              		.loc 1 224 5 is_stmt 1 view .LVU197
 539              	.LVL56:
 540              		.loc 1 224 11 is_stmt 0 view .LVU198
 541 004e 1446     		mov	r4, r2
 542 0050 DCE7     		b	.L26
 543              	.LVL57:
 544              	.L29:
 225:Drivers/BSP/Components/vl53l1cb/modules/vl53l1_hist_algos_gen3.c **** 			}
 226:Drivers/BSP/Components/vl53l1cb/modules/vl53l1_hist_algos_gen3.c **** 		}
 227:Drivers/BSP/Components/vl53l1cb/modules/vl53l1_hist_algos_gen3.c **** 	}
 228:Drivers/BSP/Components/vl53l1cb/modules/vl53l1_hist_algos_gen3.c **** 
 229:Drivers/BSP/Components/vl53l1cb/modules/vl53l1_hist_algos_gen3.c **** 	LOG_FUNCTION_END(status);
 545              		.loc 1 229 26 is_stmt 1 view .LVU199
 230:Drivers/BSP/Components/vl53l1cb/modules/vl53l1_hist_algos_gen3.c **** 
 231:Drivers/BSP/Components/vl53l1cb/modules/vl53l1_hist_algos_gen3.c **** 	return status;
 546              		.loc 1 231 2 view .LVU200
 232:Drivers/BSP/Components/vl53l1cb/modules/vl53l1_hist_algos_gen3.c **** }
 547              		.loc 1 232 1 is_stmt 0 view .LVU201
 548 0052 0020     		movs	r0, #0
 549              	.LVL58:
 550              		.loc 1 232 1 view .LVU202
 551 0054 10BD     		pop	{r4, pc}
 552              		.loc 1 232 1 view .LVU203
 553              		.cfi_endproc
 554              	.LFE5:
 556              		.section	.text.VL53L1_f_020,"ax",%progbits
 557              		.align	1
 558              		.global	VL53L1_f_020
 559              		.syntax unified
 560              		.thumb
 561              		.thumb_func
 563              	VL53L1_f_020:
 564              	.LVL59:
 565              	.LFB6:
 233:Drivers/BSP/Components/vl53l1cb/modules/vl53l1_hist_algos_gen3.c **** 
 234:Drivers/BSP/Components/vl53l1cb/modules/vl53l1_hist_algos_gen3.c **** 
 235:Drivers/BSP/Components/vl53l1cb/modules/vl53l1_hist_algos_gen3.c **** VL53L1_Error VL53L1_f_020(
 236:Drivers/BSP/Components/vl53l1cb/modules/vl53l1_hist_algos_gen3.c **** 	VL53L1_hist_gen3_algo_private_data_t  *palgo)
 237:Drivers/BSP/Components/vl53l1cb/modules/vl53l1_hist_algos_gen3.c **** {
 566              		.loc 1 237 1 is_stmt 1 view -0
 567              		.cfi_startproc
 568              		@ args = 0, pretend = 0, frame = 0
 569              		@ frame_needed = 0, uses_anonymous_args = 0
 570              		.loc 1 237 1 is_stmt 0 view .LVU205
 571 0000 10B5     		push	{r4, lr}
 572              		.cfi_def_cfa_offset 8
 573              		.cfi_offset 4, -8
 574              		.cfi_offset 14, -4
 238:Drivers/BSP/Components/vl53l1cb/modules/vl53l1_hist_algos_gen3.c **** 
 239:Drivers/BSP/Components/vl53l1cb/modules/vl53l1_hist_algos_gen3.c **** 
 240:Drivers/BSP/Components/vl53l1cb/modules/vl53l1_hist_algos_gen3.c **** 
 241:Drivers/BSP/Components/vl53l1cb/modules/vl53l1_hist_algos_gen3.c **** 	VL53L1_Error  status  = VL53L1_ERROR_NONE;
 575              		.loc 1 241 2 is_stmt 1 view .LVU206
ARM GAS  C:\Temp\cc80ShlR.s 			page 16


 576              	.LVL60:
 242:Drivers/BSP/Components/vl53l1cb/modules/vl53l1_hist_algos_gen3.c **** 	uint8_t  i            = 0;
 577              		.loc 1 242 2 view .LVU207
 243:Drivers/BSP/Components/vl53l1cb/modules/vl53l1_hist_algos_gen3.c **** 	uint8_t  j            = 0;
 578              		.loc 1 243 2 view .LVU208
 244:Drivers/BSP/Components/vl53l1cb/modules/vl53l1_hist_algos_gen3.c **** 	uint8_t  lb            = 0;
 579              		.loc 1 244 2 view .LVU209
 245:Drivers/BSP/Components/vl53l1cb/modules/vl53l1_hist_algos_gen3.c **** 
 246:Drivers/BSP/Components/vl53l1cb/modules/vl53l1_hist_algos_gen3.c **** 	LOG_FUNCTION_START("");
 580              		.loc 1 246 24 view .LVU210
 247:Drivers/BSP/Components/vl53l1cb/modules/vl53l1_hist_algos_gen3.c **** 
 248:Drivers/BSP/Components/vl53l1cb/modules/vl53l1_hist_algos_gen3.c **** 	for (lb = palgo->VL53L1_p_049;
 581              		.loc 1 248 2 view .LVU211
 582              		.loc 1 248 10 is_stmt 0 view .LVU212
 583 0002 90F878E1 		ldrb	lr, [r0, #376]	@ zero_extendqisi2
 584              	.LVL61:
 585              		.loc 1 248 10 view .LVU213
 586 0006 7346     		mov	r3, lr
 587              		.loc 1 248 2 view .LVU214
 588 0008 0FE0     		b	.L31
 589              	.LVL62:
 590              	.L33:
 249:Drivers/BSP/Components/vl53l1cb/modules/vl53l1_hist_algos_gen3.c **** 		lb < (palgo->VL53L1_p_049 +
 250:Drivers/BSP/Components/vl53l1cb/modules/vl53l1_hist_algos_gen3.c **** 		palgo->VL53L1_p_031);
 251:Drivers/BSP/Components/vl53l1cb/modules/vl53l1_hist_algos_gen3.c **** 		lb++) {
 252:Drivers/BSP/Components/vl53l1cb/modules/vl53l1_hist_algos_gen3.c **** 
 253:Drivers/BSP/Components/vl53l1cb/modules/vl53l1_hist_algos_gen3.c **** 
 254:Drivers/BSP/Components/vl53l1cb/modules/vl53l1_hist_algos_gen3.c **** 
 255:Drivers/BSP/Components/vl53l1cb/modules/vl53l1_hist_algos_gen3.c **** 		i =  lb      % palgo->VL53L1_p_031;
 256:Drivers/BSP/Components/vl53l1cb/modules/vl53l1_hist_algos_gen3.c **** 		j = (lb + 1) % palgo->VL53L1_p_031;
 257:Drivers/BSP/Components/vl53l1cb/modules/vl53l1_hist_algos_gen3.c **** 
 258:Drivers/BSP/Components/vl53l1cb/modules/vl53l1_hist_algos_gen3.c **** 
 259:Drivers/BSP/Components/vl53l1cb/modules/vl53l1_hist_algos_gen3.c **** 
 260:Drivers/BSP/Components/vl53l1cb/modules/vl53l1_hist_algos_gen3.c **** 		if (i < palgo->VL53L1_p_024 && j < palgo->VL53L1_p_024) {
 261:Drivers/BSP/Components/vl53l1cb/modules/vl53l1_hist_algos_gen3.c **** 
 262:Drivers/BSP/Components/vl53l1cb/modules/vl53l1_hist_algos_gen3.c **** 			if (palgo->VL53L1_p_046[i] == 0 &&
 263:Drivers/BSP/Components/vl53l1cb/modules/vl53l1_hist_algos_gen3.c **** 				palgo->VL53L1_p_046[j] == 1)
 264:Drivers/BSP/Components/vl53l1cb/modules/vl53l1_hist_algos_gen3.c **** 				palgo->VL53L1_p_051++;
 265:Drivers/BSP/Components/vl53l1cb/modules/vl53l1_hist_algos_gen3.c **** 
 266:Drivers/BSP/Components/vl53l1cb/modules/vl53l1_hist_algos_gen3.c **** 			if (palgo->VL53L1_p_051 > palgo->VL53L1_p_050)
 591              		.loc 1 266 4 is_stmt 1 view .LVU215
 592              		.loc 1 266 13 is_stmt 0 view .LVU216
 593 000a 90F87AC1 		ldrb	ip, [r0, #378]	@ zero_extendqisi2
 594              		.loc 1 266 35 view .LVU217
 595 000e 90F87941 		ldrb	r4, [r0, #377]	@ zero_extendqisi2
 596              		.loc 1 266 7 view .LVU218
 597 0012 A445     		cmp	ip, r4
 598 0014 01D9     		bls	.L34
 267:Drivers/BSP/Components/vl53l1cb/modules/vl53l1_hist_algos_gen3.c **** 				palgo->VL53L1_p_051 = palgo->VL53L1_p_050;
 599              		.loc 1 267 5 is_stmt 1 view .LVU219
 600              		.loc 1 267 25 is_stmt 0 view .LVU220
 601 0016 80F87A41 		strb	r4, [r0, #378]
 602              	.L34:
 268:Drivers/BSP/Components/vl53l1cb/modules/vl53l1_hist_algos_gen3.c **** 
 269:Drivers/BSP/Components/vl53l1cb/modules/vl53l1_hist_algos_gen3.c **** 			if (palgo->VL53L1_p_046[i] > 0)
 603              		.loc 1 269 4 is_stmt 1 view .LVU221
 604              		.loc 1 269 7 is_stmt 0 view .LVU222
ARM GAS  C:\Temp\cc80ShlR.s 			page 17


 605 001a 71B3     		cbz	r1, .L35
 270:Drivers/BSP/Components/vl53l1cb/modules/vl53l1_hist_algos_gen3.c **** 				palgo->VL53L1_p_047[i] = palgo->VL53L1_p_051;
 606              		.loc 1 270 5 is_stmt 1 view .LVU223
 607              		.loc 1 270 35 is_stmt 0 view .LVU224
 608 001c 90F87A11 		ldrb	r1, [r0, #378]	@ zero_extendqisi2
 609              		.loc 1 270 28 view .LVU225
 610 0020 0244     		add	r2, r2, r0
 611              	.LVL63:
 612              		.loc 1 270 28 view .LVU226
 613 0022 82F84010 		strb	r1, [r2, #64]
 614              	.LVL64:
 615              	.L32:
 251:Drivers/BSP/Components/vl53l1cb/modules/vl53l1_hist_algos_gen3.c **** 
 616              		.loc 1 251 5 is_stmt 1 view .LVU227
 617 0026 0133     		adds	r3, r3, #1
 618              	.LVL65:
 251:Drivers/BSP/Components/vl53l1cb/modules/vl53l1_hist_algos_gen3.c **** 
 619              		.loc 1 251 5 is_stmt 0 view .LVU228
 620 0028 DBB2     		uxtb	r3, r3
 621              	.LVL66:
 622              	.L31:
 249:Drivers/BSP/Components/vl53l1cb/modules/vl53l1_hist_algos_gen3.c **** 		palgo->VL53L1_p_031);
 623              		.loc 1 249 6 is_stmt 1 view .LVU229
 250:Drivers/BSP/Components/vl53l1cb/modules/vl53l1_hist_algos_gen3.c **** 		lb++) {
 624              		.loc 1 250 8 is_stmt 0 view .LVU230
 625 002a C178     		ldrb	r1, [r0, #3]	@ zero_extendqisi2
 249:Drivers/BSP/Components/vl53l1cb/modules/vl53l1_hist_algos_gen3.c **** 		palgo->VL53L1_p_031);
 626              		.loc 1 249 29 view .LVU231
 627 002c 0EEB0102 		add	r2, lr, r1
 249:Drivers/BSP/Components/vl53l1cb/modules/vl53l1_hist_algos_gen3.c **** 		palgo->VL53L1_p_031);
 628              		.loc 1 249 6 view .LVU232
 629 0030 9342     		cmp	r3, r2
 630 0032 27DA     		bge	.L38
 255:Drivers/BSP/Components/vl53l1cb/modules/vl53l1_hist_algos_gen3.c **** 		j = (lb + 1) % palgo->VL53L1_p_031;
 631              		.loc 1 255 3 is_stmt 1 view .LVU233
 255:Drivers/BSP/Components/vl53l1cb/modules/vl53l1_hist_algos_gen3.c **** 		j = (lb + 1) % palgo->VL53L1_p_031;
 632              		.loc 1 255 5 is_stmt 0 view .LVU234
 633 0034 B3FBF1F2 		udiv	r2, r3, r1
 634 0038 01FB1232 		mls	r2, r1, r2, r3
 635 003c D2B2     		uxtb	r2, r2
 636              	.LVL67:
 256:Drivers/BSP/Components/vl53l1cb/modules/vl53l1_hist_algos_gen3.c **** 
 637              		.loc 1 256 3 is_stmt 1 view .LVU235
 256:Drivers/BSP/Components/vl53l1cb/modules/vl53l1_hist_algos_gen3.c **** 
 638              		.loc 1 256 11 is_stmt 0 view .LVU236
 639 003e 03F1010C 		add	ip, r3, #1
 256:Drivers/BSP/Components/vl53l1cb/modules/vl53l1_hist_algos_gen3.c **** 
 640              		.loc 1 256 16 view .LVU237
 641 0042 9CFBF1F4 		sdiv	r4, ip, r1
 642 0046 01FB14CC 		mls	ip, r1, r4, ip
 256:Drivers/BSP/Components/vl53l1cb/modules/vl53l1_hist_algos_gen3.c **** 
 643              		.loc 1 256 5 view .LVU238
 644 004a 5FFA8CF4 		uxtb	r4, ip
 645              	.LVL68:
 260:Drivers/BSP/Components/vl53l1cb/modules/vl53l1_hist_algos_gen3.c **** 
 646              		.loc 1 260 3 is_stmt 1 view .LVU239
 260:Drivers/BSP/Components/vl53l1cb/modules/vl53l1_hist_algos_gen3.c **** 
ARM GAS  C:\Temp\cc80ShlR.s 			page 18


 647              		.loc 1 260 16 is_stmt 0 view .LVU240
 648 004e 8178     		ldrb	r1, [r0, #2]	@ zero_extendqisi2
 260:Drivers/BSP/Components/vl53l1cb/modules/vl53l1_hist_algos_gen3.c **** 
 649              		.loc 1 260 6 view .LVU241
 650 0050 9142     		cmp	r1, r2
 651 0052 E8D9     		bls	.L32
 260:Drivers/BSP/Components/vl53l1cb/modules/vl53l1_hist_algos_gen3.c **** 
 652              		.loc 1 260 31 discriminator 1 view .LVU242
 653 0054 A142     		cmp	r1, r4
 654 0056 E6D9     		bls	.L32
 262:Drivers/BSP/Components/vl53l1cb/modules/vl53l1_hist_algos_gen3.c **** 				palgo->VL53L1_p_046[j] == 1)
 655              		.loc 1 262 4 is_stmt 1 view .LVU243
 262:Drivers/BSP/Components/vl53l1cb/modules/vl53l1_hist_algos_gen3.c **** 				palgo->VL53L1_p_046[j] == 1)
 656              		.loc 1 262 27 is_stmt 0 view .LVU244
 657 0058 8118     		adds	r1, r0, r2
 658 005a 91F82810 		ldrb	r1, [r1, #40]	@ zero_extendqisi2
 262:Drivers/BSP/Components/vl53l1cb/modules/vl53l1_hist_algos_gen3.c **** 				palgo->VL53L1_p_046[j] == 1)
 659              		.loc 1 262 7 view .LVU245
 660 005e 0029     		cmp	r1, #0
 661 0060 D3D1     		bne	.L33
 263:Drivers/BSP/Components/vl53l1cb/modules/vl53l1_hist_algos_gen3.c **** 				palgo->VL53L1_p_051++;
 662              		.loc 1 263 24 discriminator 1 view .LVU246
 663 0062 50FA8CFC 		uxtab	ip, r0, ip
 664 0066 9CF82840 		ldrb	r4, [ip, #40]	@ zero_extendqisi2
 665              	.LVL69:
 262:Drivers/BSP/Components/vl53l1cb/modules/vl53l1_hist_algos_gen3.c **** 				palgo->VL53L1_p_046[j] == 1)
 666              		.loc 1 262 36 discriminator 1 view .LVU247
 667 006a 012C     		cmp	r4, #1
 668 006c CDD1     		bne	.L33
 264:Drivers/BSP/Components/vl53l1cb/modules/vl53l1_hist_algos_gen3.c **** 
 669              		.loc 1 264 5 is_stmt 1 view .LVU248
 264:Drivers/BSP/Components/vl53l1cb/modules/vl53l1_hist_algos_gen3.c **** 
 670              		.loc 1 264 10 is_stmt 0 view .LVU249
 671 006e 90F87A41 		ldrb	r4, [r0, #378]	@ zero_extendqisi2
 264:Drivers/BSP/Components/vl53l1cb/modules/vl53l1_hist_algos_gen3.c **** 
 672              		.loc 1 264 24 view .LVU250
 673 0072 0134     		adds	r4, r4, #1
 674 0074 80F87A41 		strb	r4, [r0, #378]
 675 0078 C7E7     		b	.L33
 676              	.L35:
 271:Drivers/BSP/Components/vl53l1cb/modules/vl53l1_hist_algos_gen3.c **** 			else
 272:Drivers/BSP/Components/vl53l1cb/modules/vl53l1_hist_algos_gen3.c **** 				palgo->VL53L1_p_047[i] = 0;
 677              		.loc 1 272 5 is_stmt 1 view .LVU251
 678              		.loc 1 272 28 is_stmt 0 view .LVU252
 679 007a 0244     		add	r2, r2, r0
 680              	.LVL70:
 681              		.loc 1 272 28 view .LVU253
 682 007c 0021     		movs	r1, #0
 683 007e 82F84010 		strb	r1, [r2, #64]
 684              	.LVL71:
 685              		.loc 1 272 28 view .LVU254
 686 0082 D0E7     		b	.L32
 687              	.LVL72:
 688              	.L38:
 273:Drivers/BSP/Components/vl53l1cb/modules/vl53l1_hist_algos_gen3.c **** 		}
 274:Drivers/BSP/Components/vl53l1cb/modules/vl53l1_hist_algos_gen3.c **** 
 275:Drivers/BSP/Components/vl53l1cb/modules/vl53l1_hist_algos_gen3.c **** 	}
ARM GAS  C:\Temp\cc80ShlR.s 			page 19


 276:Drivers/BSP/Components/vl53l1cb/modules/vl53l1_hist_algos_gen3.c **** 
 277:Drivers/BSP/Components/vl53l1cb/modules/vl53l1_hist_algos_gen3.c **** 	LOG_FUNCTION_END(status);
 689              		.loc 1 277 26 is_stmt 1 view .LVU255
 278:Drivers/BSP/Components/vl53l1cb/modules/vl53l1_hist_algos_gen3.c **** 
 279:Drivers/BSP/Components/vl53l1cb/modules/vl53l1_hist_algos_gen3.c **** 	return status;
 690              		.loc 1 279 2 view .LVU256
 280:Drivers/BSP/Components/vl53l1cb/modules/vl53l1_hist_algos_gen3.c **** 
 281:Drivers/BSP/Components/vl53l1cb/modules/vl53l1_hist_algos_gen3.c **** }
 691              		.loc 1 281 1 is_stmt 0 view .LVU257
 692 0084 0020     		movs	r0, #0
 693              	.LVL73:
 694              		.loc 1 281 1 view .LVU258
 695 0086 10BD     		pop	{r4, pc}
 696              		.cfi_endproc
 697              	.LFE6:
 699              		.section	.text.VL53L1_f_021,"ax",%progbits
 700              		.align	1
 701              		.global	VL53L1_f_021
 702              		.syntax unified
 703              		.thumb
 704              		.thumb_func
 706              	VL53L1_f_021:
 707              	.LVL74:
 708              	.LFB7:
 282:Drivers/BSP/Components/vl53l1cb/modules/vl53l1_hist_algos_gen3.c **** 
 283:Drivers/BSP/Components/vl53l1cb/modules/vl53l1_hist_algos_gen3.c **** 
 284:Drivers/BSP/Components/vl53l1cb/modules/vl53l1_hist_algos_gen3.c **** VL53L1_Error VL53L1_f_021(
 285:Drivers/BSP/Components/vl53l1cb/modules/vl53l1_hist_algos_gen3.c **** 	VL53L1_hist_gen3_algo_private_data_t  *palgo)
 286:Drivers/BSP/Components/vl53l1cb/modules/vl53l1_hist_algos_gen3.c **** {
 709              		.loc 1 286 1 is_stmt 1 view -0
 710              		.cfi_startproc
 711              		@ args = 0, pretend = 0, frame = 0
 712              		@ frame_needed = 0, uses_anonymous_args = 0
 713              		.loc 1 286 1 is_stmt 0 view .LVU260
 714 0000 F0B5     		push	{r4, r5, r6, r7, lr}
 715              		.cfi_def_cfa_offset 20
 716              		.cfi_offset 4, -20
 717              		.cfi_offset 5, -16
 718              		.cfi_offset 6, -12
 719              		.cfi_offset 7, -8
 720              		.cfi_offset 14, -4
 287:Drivers/BSP/Components/vl53l1cb/modules/vl53l1_hist_algos_gen3.c **** 
 288:Drivers/BSP/Components/vl53l1cb/modules/vl53l1_hist_algos_gen3.c **** 
 289:Drivers/BSP/Components/vl53l1cb/modules/vl53l1_hist_algos_gen3.c **** 
 290:Drivers/BSP/Components/vl53l1cb/modules/vl53l1_hist_algos_gen3.c **** 	VL53L1_Error  status  = VL53L1_ERROR_NONE;
 721              		.loc 1 290 2 is_stmt 1 view .LVU261
 722              	.LVL75:
 291:Drivers/BSP/Components/vl53l1cb/modules/vl53l1_hist_algos_gen3.c **** 
 292:Drivers/BSP/Components/vl53l1cb/modules/vl53l1_hist_algos_gen3.c **** 	uint8_t  i            = 0;
 723              		.loc 1 292 2 view .LVU262
 293:Drivers/BSP/Components/vl53l1cb/modules/vl53l1_hist_algos_gen3.c **** 	uint8_t  j            = 0;
 724              		.loc 1 293 2 view .LVU263
 294:Drivers/BSP/Components/vl53l1cb/modules/vl53l1_hist_algos_gen3.c **** 	uint8_t  blb            = 0;
 725              		.loc 1 294 2 view .LVU264
 295:Drivers/BSP/Components/vl53l1cb/modules/vl53l1_hist_algos_gen3.c **** 	uint8_t  pulse_no     = 0;
 726              		.loc 1 295 2 view .LVU265
 296:Drivers/BSP/Components/vl53l1cb/modules/vl53l1_hist_algos_gen3.c **** 
ARM GAS  C:\Temp\cc80ShlR.s 			page 20


 297:Drivers/BSP/Components/vl53l1cb/modules/vl53l1_hist_algos_gen3.c **** 	uint8_t  max_filter_half_width = 0;
 727              		.loc 1 297 2 view .LVU266
 298:Drivers/BSP/Components/vl53l1cb/modules/vl53l1_hist_algos_gen3.c **** 
 299:Drivers/BSP/Components/vl53l1cb/modules/vl53l1_hist_algos_gen3.c **** 	VL53L1_hist_pulse_data_t *pdata;
 728              		.loc 1 299 2 view .LVU267
 300:Drivers/BSP/Components/vl53l1cb/modules/vl53l1_hist_algos_gen3.c **** 
 301:Drivers/BSP/Components/vl53l1cb/modules/vl53l1_hist_algos_gen3.c **** 	LOG_FUNCTION_START("");
 729              		.loc 1 301 24 view .LVU268
 302:Drivers/BSP/Components/vl53l1cb/modules/vl53l1_hist_algos_gen3.c **** 
 303:Drivers/BSP/Components/vl53l1cb/modules/vl53l1_hist_algos_gen3.c **** 
 304:Drivers/BSP/Components/vl53l1cb/modules/vl53l1_hist_algos_gen3.c **** 
 305:Drivers/BSP/Components/vl53l1cb/modules/vl53l1_hist_algos_gen3.c **** 	max_filter_half_width = palgo->VL53L1_p_031 - 1;
 730              		.loc 1 305 2 view .LVU269
 731              		.loc 1 305 31 is_stmt 0 view .LVU270
 732 0002 90F803E0 		ldrb	lr, [r0, #3]	@ zero_extendqisi2
 733              		.loc 1 305 24 view .LVU271
 734 0006 0EF1FF35 		add	r5, lr, #-1
 735              	.LVL76:
 306:Drivers/BSP/Components/vl53l1cb/modules/vl53l1_hist_algos_gen3.c **** 	max_filter_half_width = max_filter_half_width >> 1;
 736              		.loc 1 306 2 is_stmt 1 view .LVU272
 737              		.loc 1 306 24 is_stmt 0 view .LVU273
 738 000a C5F34605 		ubfx	r5, r5, #1, #7
 739              	.LVL77:
 307:Drivers/BSP/Components/vl53l1cb/modules/vl53l1_hist_algos_gen3.c **** 
 308:Drivers/BSP/Components/vl53l1cb/modules/vl53l1_hist_algos_gen3.c **** 	for (blb = palgo->VL53L1_p_049;
 740              		.loc 1 308 2 is_stmt 1 view .LVU274
 741              		.loc 1 308 11 is_stmt 0 view .LVU275
 742 000e 90F87841 		ldrb	r4, [r0, #376]	@ zero_extendqisi2
 743              	.LVL78:
 744              		.loc 1 308 11 view .LVU276
 745 0012 2346     		mov	r3, r4
 746              		.loc 1 308 2 view .LVU277
 747 0014 01E0     		b	.L40
 748              	.LVL79:
 749              	.L41:
 309:Drivers/BSP/Components/vl53l1cb/modules/vl53l1_hist_algos_gen3.c **** 		blb < (palgo->VL53L1_p_049 +
 310:Drivers/BSP/Components/vl53l1cb/modules/vl53l1_hist_algos_gen3.c **** 		palgo->VL53L1_p_031);
 311:Drivers/BSP/Components/vl53l1cb/modules/vl53l1_hist_algos_gen3.c **** 		blb++) {
 750              		.loc 1 311 6 is_stmt 1 view .LVU278
 751 0016 0133     		adds	r3, r3, #1
 752              	.LVL80:
 753              		.loc 1 311 6 is_stmt 0 view .LVU279
 754 0018 DBB2     		uxtb	r3, r3
 755              	.LVL81:
 756              	.L40:
 309:Drivers/BSP/Components/vl53l1cb/modules/vl53l1_hist_algos_gen3.c **** 		blb < (palgo->VL53L1_p_049 +
 757              		.loc 1 309 7 is_stmt 1 view .LVU280
 309:Drivers/BSP/Components/vl53l1cb/modules/vl53l1_hist_algos_gen3.c **** 		blb < (palgo->VL53L1_p_049 +
 758              		.loc 1 309 30 is_stmt 0 view .LVU281
 759 001a 04EB0E02 		add	r2, r4, lr
 309:Drivers/BSP/Components/vl53l1cb/modules/vl53l1_hist_algos_gen3.c **** 		blb < (palgo->VL53L1_p_049 +
 760              		.loc 1 309 7 view .LVU282
 761 001e 9342     		cmp	r3, r2
 762 0020 5CDA     		bge	.L45
 312:Drivers/BSP/Components/vl53l1cb/modules/vl53l1_hist_algos_gen3.c **** 
 313:Drivers/BSP/Components/vl53l1cb/modules/vl53l1_hist_algos_gen3.c **** 
 314:Drivers/BSP/Components/vl53l1cb/modules/vl53l1_hist_algos_gen3.c **** 
ARM GAS  C:\Temp\cc80ShlR.s 			page 21


 315:Drivers/BSP/Components/vl53l1cb/modules/vl53l1_hist_algos_gen3.c **** 		i =  blb      % palgo->VL53L1_p_031;
 763              		.loc 1 315 3 is_stmt 1 view .LVU283
 764              		.loc 1 315 5 is_stmt 0 view .LVU284
 765 0022 B3FBFEF2 		udiv	r2, r3, lr
 766 0026 0EFB1232 		mls	r2, lr, r2, r3
 767 002a D2B2     		uxtb	r2, r2
 768              	.LVL82:
 316:Drivers/BSP/Components/vl53l1cb/modules/vl53l1_hist_algos_gen3.c **** 		j = (blb + 1) % palgo->VL53L1_p_031;
 769              		.loc 1 316 3 is_stmt 1 view .LVU285
 770              		.loc 1 316 12 is_stmt 0 view .LVU286
 771 002c 591C     		adds	r1, r3, #1
 772              		.loc 1 316 17 view .LVU287
 773 002e 91FBFEFC 		sdiv	ip, r1, lr
 774 0032 0EFB1C11 		mls	r1, lr, ip, r1
 775              		.loc 1 316 5 view .LVU288
 776 0036 CEB2     		uxtb	r6, r1
 777              	.LVL83:
 317:Drivers/BSP/Components/vl53l1cb/modules/vl53l1_hist_algos_gen3.c **** 
 318:Drivers/BSP/Components/vl53l1cb/modules/vl53l1_hist_algos_gen3.c **** 
 319:Drivers/BSP/Components/vl53l1cb/modules/vl53l1_hist_algos_gen3.c **** 
 320:Drivers/BSP/Components/vl53l1cb/modules/vl53l1_hist_algos_gen3.c **** 		if (i < palgo->VL53L1_p_024 &&
 778              		.loc 1 320 3 is_stmt 1 view .LVU289
 779              		.loc 1 320 16 is_stmt 0 view .LVU290
 780 0038 90F802C0 		ldrb	ip, [r0, #2]	@ zero_extendqisi2
 781              		.loc 1 320 6 view .LVU291
 782 003c 9445     		cmp	ip, r2
 783 003e EAD9     		bls	.L41
 784              		.loc 1 320 31 discriminator 1 view .LVU292
 785 0040 B445     		cmp	ip, r6
 786 0042 E8D9     		bls	.L41
 321:Drivers/BSP/Components/vl53l1cb/modules/vl53l1_hist_algos_gen3.c **** 				j < palgo->VL53L1_p_024) {
 322:Drivers/BSP/Components/vl53l1cb/modules/vl53l1_hist_algos_gen3.c **** 
 323:Drivers/BSP/Components/vl53l1cb/modules/vl53l1_hist_algos_gen3.c **** 
 324:Drivers/BSP/Components/vl53l1cb/modules/vl53l1_hist_algos_gen3.c **** 
 325:Drivers/BSP/Components/vl53l1cb/modules/vl53l1_hist_algos_gen3.c **** 			if (palgo->VL53L1_p_047[i] == 0 &&
 787              		.loc 1 325 4 is_stmt 1 view .LVU293
 788              		.loc 1 325 27 is_stmt 0 view .LVU294
 789 0044 0244     		add	r2, r2, r0
 790              	.LVL84:
 791              		.loc 1 325 27 view .LVU295
 792 0046 92F84020 		ldrb	r2, [r2, #64]	@ zero_extendqisi2
 793              		.loc 1 325 7 view .LVU296
 794 004a DAB9     		cbnz	r2, .L42
 326:Drivers/BSP/Components/vl53l1cb/modules/vl53l1_hist_algos_gen3.c **** 					palgo->VL53L1_p_047[j] > 0) {
 795              		.loc 1 326 25 discriminator 1 view .LVU297
 796 004c 50FA81F6 		uxtab	r6, r0, r1
 797              	.LVL85:
 798              		.loc 1 326 25 discriminator 1 view .LVU298
 799 0050 96F84060 		ldrb	r6, [r6, #64]	@ zero_extendqisi2
 325:Drivers/BSP/Components/vl53l1cb/modules/vl53l1_hist_algos_gen3.c **** 					palgo->VL53L1_p_047[j] > 0) {
 800              		.loc 1 325 36 discriminator 1 view .LVU299
 801 0054 B6B1     		cbz	r6, .L42
 327:Drivers/BSP/Components/vl53l1cb/modules/vl53l1_hist_algos_gen3.c **** 
 328:Drivers/BSP/Components/vl53l1cb/modules/vl53l1_hist_algos_gen3.c **** 				pulse_no = palgo->VL53L1_p_047[j] - 1;
 802              		.loc 1 328 5 is_stmt 1 view .LVU300
 803              		.loc 1 328 14 is_stmt 0 view .LVU301
 804 0056 013E     		subs	r6, r6, #1
ARM GAS  C:\Temp\cc80ShlR.s 			page 22


 805 0058 F6B2     		uxtb	r6, r6
 806              	.LVL86:
 329:Drivers/BSP/Components/vl53l1cb/modules/vl53l1_hist_algos_gen3.c **** 
 330:Drivers/BSP/Components/vl53l1cb/modules/vl53l1_hist_algos_gen3.c **** 				if (pulse_no < palgo->VL53L1_p_050) {
 807              		.loc 1 330 5 is_stmt 1 view .LVU302
 808              		.loc 1 330 25 is_stmt 0 view .LVU303
 809 005a 90F879C1 		ldrb	ip, [r0, #377]	@ zero_extendqisi2
 810              		.loc 1 330 8 view .LVU304
 811 005e B445     		cmp	ip, r6
 812 0060 10D9     		bls	.L42
 331:Drivers/BSP/Components/vl53l1cb/modules/vl53l1_hist_algos_gen3.c **** 					pdata = &(palgo->VL53L1_p_002[pulse_no]);
 813              		.loc 1 331 6 is_stmt 1 view .LVU305
 814              	.LVL87:
 332:Drivers/BSP/Components/vl53l1cb/modules/vl53l1_hist_algos_gen3.c **** 					pdata->VL53L1_p_015 = blb;
 815              		.loc 1 332 6 view .LVU306
 816              		.loc 1 332 26 is_stmt 0 view .LVU307
 817 0062 06EBC60C 		add	ip, r6, r6, lsl #3
 818 0066 00EB8C0C 		add	ip, r0, ip, lsl #2
 819 006a 8CF87C31 		strb	r3, [ip, #380]
 333:Drivers/BSP/Components/vl53l1cb/modules/vl53l1_hist_algos_gen3.c **** 					pdata->VL53L1_p_022    = blb + 1;
 820              		.loc 1 333 6 is_stmt 1 view .LVU308
 821              		.loc 1 333 35 is_stmt 0 view .LVU309
 822 006e 5F1C     		adds	r7, r3, #1
 823              		.loc 1 333 29 view .LVU310
 824 0070 8CF87D71 		strb	r7, [ip, #381]
 334:Drivers/BSP/Components/vl53l1cb/modules/vl53l1_hist_algos_gen3.c **** 					pdata->VL53L1_p_025   = 0xFF;
 825              		.loc 1 334 6 is_stmt 1 view .LVU311
 826              		.loc 1 334 28 is_stmt 0 view .LVU312
 827 0074 FF27     		movs	r7, #255
 828 0076 8CF87E71 		strb	r7, [ip, #382]
 335:Drivers/BSP/Components/vl53l1cb/modules/vl53l1_hist_algos_gen3.c **** 					pdata->VL53L1_p_026     = 0;
 829              		.loc 1 335 6 is_stmt 1 view .LVU313
 830              		.loc 1 335 30 is_stmt 0 view .LVU314
 831 007a 0027     		movs	r7, #0
 832 007c 8CF87F71 		strb	r7, [ip, #383]
 336:Drivers/BSP/Components/vl53l1cb/modules/vl53l1_hist_algos_gen3.c **** 					pdata->VL53L1_p_016   = 0;
 833              		.loc 1 336 6 is_stmt 1 view .LVU315
 834              		.loc 1 336 28 is_stmt 0 view .LVU316
 835 0080 8CF88071 		strb	r7, [ip, #384]
 836              	.LVL88:
 837              	.L42:
 337:Drivers/BSP/Components/vl53l1cb/modules/vl53l1_hist_algos_gen3.c **** 				}
 338:Drivers/BSP/Components/vl53l1cb/modules/vl53l1_hist_algos_gen3.c **** 			}
 339:Drivers/BSP/Components/vl53l1cb/modules/vl53l1_hist_algos_gen3.c **** 
 340:Drivers/BSP/Components/vl53l1cb/modules/vl53l1_hist_algos_gen3.c **** 
 341:Drivers/BSP/Components/vl53l1cb/modules/vl53l1_hist_algos_gen3.c **** 
 342:Drivers/BSP/Components/vl53l1cb/modules/vl53l1_hist_algos_gen3.c **** 			if (palgo->VL53L1_p_047[i] > 0
 838              		.loc 1 342 4 is_stmt 1 view .LVU317
 839              		.loc 1 342 7 is_stmt 0 view .LVU318
 840 0084 002A     		cmp	r2, #0
 841 0086 C6D0     		beq	.L41
 343:Drivers/BSP/Components/vl53l1cb/modules/vl53l1_hist_algos_gen3.c **** 				&& palgo->VL53L1_p_047[j] == 0) {
 842              		.loc 1 343 27 view .LVU319
 843 0088 50FA81F1 		uxtab	r1, r0, r1
 844              	.LVL89:
 845              		.loc 1 343 27 view .LVU320
 846 008c 91F84010 		ldrb	r1, [r1, #64]	@ zero_extendqisi2
ARM GAS  C:\Temp\cc80ShlR.s 			page 23


 847              		.loc 1 343 5 view .LVU321
 848 0090 0029     		cmp	r1, #0
 849 0092 C0D1     		bne	.L41
 344:Drivers/BSP/Components/vl53l1cb/modules/vl53l1_hist_algos_gen3.c **** 
 345:Drivers/BSP/Components/vl53l1cb/modules/vl53l1_hist_algos_gen3.c **** 				pulse_no = palgo->VL53L1_p_047[i] - 1;
 850              		.loc 1 345 5 is_stmt 1 view .LVU322
 851              		.loc 1 345 14 is_stmt 0 view .LVU323
 852 0094 013A     		subs	r2, r2, #1
 853 0096 D2B2     		uxtb	r2, r2
 854              	.LVL90:
 346:Drivers/BSP/Components/vl53l1cb/modules/vl53l1_hist_algos_gen3.c **** 
 347:Drivers/BSP/Components/vl53l1cb/modules/vl53l1_hist_algos_gen3.c **** 				if (pulse_no < palgo->VL53L1_p_050) {
 855              		.loc 1 347 5 is_stmt 1 view .LVU324
 856              		.loc 1 347 25 is_stmt 0 view .LVU325
 857 0098 90F87911 		ldrb	r1, [r0, #377]	@ zero_extendqisi2
 858              		.loc 1 347 8 view .LVU326
 859 009c 9142     		cmp	r1, r2
 860 009e BAD9     		bls	.L41
 348:Drivers/BSP/Components/vl53l1cb/modules/vl53l1_hist_algos_gen3.c **** 					pdata = &(palgo->VL53L1_p_002[pulse_no]);
 861              		.loc 1 348 6 is_stmt 1 view .LVU327
 862              	.LVL91:
 349:Drivers/BSP/Components/vl53l1cb/modules/vl53l1_hist_algos_gen3.c **** 					pdata->VL53L1_p_026    = blb;
 863              		.loc 1 349 6 view .LVU328
 864              		.loc 1 349 29 is_stmt 0 view .LVU329
 865 00a0 02EBC206 		add	r6, r2, r2, lsl #3
 866 00a4 00EB8606 		add	r6, r0, r6, lsl #2
 867 00a8 86F87F31 		strb	r3, [r6, #383]
 350:Drivers/BSP/Components/vl53l1cb/modules/vl53l1_hist_algos_gen3.c **** 					pdata->VL53L1_p_016  = blb + 1;
 868              		.loc 1 350 6 is_stmt 1 view .LVU330
 869              		.loc 1 350 33 is_stmt 0 view .LVU331
 870 00ac 591C     		adds	r1, r3, #1
 871 00ae C9B2     		uxtb	r1, r1
 872              		.loc 1 350 27 view .LVU332
 873 00b0 86F88011 		strb	r1, [r6, #384]
 351:Drivers/BSP/Components/vl53l1cb/modules/vl53l1_hist_algos_gen3.c **** 
 352:Drivers/BSP/Components/vl53l1cb/modules/vl53l1_hist_algos_gen3.c **** 					pdata->VL53L1_p_027 =
 874              		.loc 1 352 6 is_stmt 1 view .LVU333
 353:Drivers/BSP/Components/vl53l1cb/modules/vl53l1_hist_algos_gen3.c **** 						(pdata->VL53L1_p_026 + 1) -
 354:Drivers/BSP/Components/vl53l1cb/modules/vl53l1_hist_algos_gen3.c **** 						pdata->VL53L1_p_022;
 875              		.loc 1 354 12 is_stmt 0 view .LVU334
 876 00b4 96F87DC1 		ldrb	ip, [r6, #381]	@ zero_extendqisi2
 353:Drivers/BSP/Components/vl53l1cb/modules/vl53l1_hist_algos_gen3.c **** 						(pdata->VL53L1_p_026 + 1) -
 877              		.loc 1 353 33 view .LVU335
 878 00b8 A3EB0C0C 		sub	ip, r3, ip
 879 00bc 0CF1010C 		add	ip, ip, #1
 352:Drivers/BSP/Components/vl53l1cb/modules/vl53l1_hist_algos_gen3.c **** 						(pdata->VL53L1_p_026 + 1) -
 880              		.loc 1 352 26 view .LVU336
 881 00c0 86F881C1 		strb	ip, [r6, #385]
 355:Drivers/BSP/Components/vl53l1cb/modules/vl53l1_hist_algos_gen3.c **** 					pdata->VL53L1_p_055 =
 882              		.loc 1 355 6 is_stmt 1 view .LVU337
 356:Drivers/BSP/Components/vl53l1cb/modules/vl53l1_hist_algos_gen3.c **** 						(pdata->VL53L1_p_016 + 1) -
 357:Drivers/BSP/Components/vl53l1cb/modules/vl53l1_hist_algos_gen3.c **** 						pdata->VL53L1_p_015;
 883              		.loc 1 357 12 is_stmt 0 view .LVU338
 884 00c4 96F87C71 		ldrb	r7, [r6, #380]	@ zero_extendqisi2
 356:Drivers/BSP/Components/vl53l1cb/modules/vl53l1_hist_algos_gen3.c **** 						(pdata->VL53L1_p_016 + 1) -
 885              		.loc 1 356 33 view .LVU339
 886 00c8 C91B     		subs	r1, r1, r7
ARM GAS  C:\Temp\cc80ShlR.s 			page 24


 887 00ca 0131     		adds	r1, r1, #1
 888 00cc C9B2     		uxtb	r1, r1
 355:Drivers/BSP/Components/vl53l1cb/modules/vl53l1_hist_algos_gen3.c **** 					pdata->VL53L1_p_055 =
 889              		.loc 1 355 26 view .LVU340
 890 00ce 86F88211 		strb	r1, [r6, #386]
 358:Drivers/BSP/Components/vl53l1cb/modules/vl53l1_hist_algos_gen3.c **** 
 359:Drivers/BSP/Components/vl53l1cb/modules/vl53l1_hist_algos_gen3.c **** 					if (pdata->VL53L1_p_055 >
 891              		.loc 1 359 6 is_stmt 1 view .LVU341
 892              		.loc 1 359 9 is_stmt 0 view .LVU342
 893 00d2 A942     		cmp	r1, r5
 894 00d4 9FD9     		bls	.L41
 360:Drivers/BSP/Components/vl53l1cb/modules/vl53l1_hist_algos_gen3.c **** 						max_filter_half_width)
 361:Drivers/BSP/Components/vl53l1cb/modules/vl53l1_hist_algos_gen3.c **** 						pdata->VL53L1_p_055 =
 895              		.loc 1 361 7 is_stmt 1 view .LVU343
 896              		.loc 1 361 27 is_stmt 0 view .LVU344
 897 00d6 86F88251 		strb	r5, [r6, #386]
 898 00da 9CE7     		b	.L41
 899              	.LVL92:
 900              	.L45:
 362:Drivers/BSP/Components/vl53l1cb/modules/vl53l1_hist_algos_gen3.c **** 						max_filter_half_width;
 363:Drivers/BSP/Components/vl53l1cb/modules/vl53l1_hist_algos_gen3.c **** 				}
 364:Drivers/BSP/Components/vl53l1cb/modules/vl53l1_hist_algos_gen3.c **** 
 365:Drivers/BSP/Components/vl53l1cb/modules/vl53l1_hist_algos_gen3.c **** 			}
 366:Drivers/BSP/Components/vl53l1cb/modules/vl53l1_hist_algos_gen3.c **** 		}
 367:Drivers/BSP/Components/vl53l1cb/modules/vl53l1_hist_algos_gen3.c **** 	}
 368:Drivers/BSP/Components/vl53l1cb/modules/vl53l1_hist_algos_gen3.c **** 
 369:Drivers/BSP/Components/vl53l1cb/modules/vl53l1_hist_algos_gen3.c **** 	LOG_FUNCTION_END(status);
 901              		.loc 1 369 26 is_stmt 1 view .LVU345
 370:Drivers/BSP/Components/vl53l1cb/modules/vl53l1_hist_algos_gen3.c **** 
 371:Drivers/BSP/Components/vl53l1cb/modules/vl53l1_hist_algos_gen3.c **** 	return status;
 902              		.loc 1 371 2 view .LVU346
 372:Drivers/BSP/Components/vl53l1cb/modules/vl53l1_hist_algos_gen3.c **** 
 373:Drivers/BSP/Components/vl53l1cb/modules/vl53l1_hist_algos_gen3.c **** }
 903              		.loc 1 373 1 is_stmt 0 view .LVU347
 904 00dc 0020     		movs	r0, #0
 905              	.LVL93:
 906              		.loc 1 373 1 view .LVU348
 907 00de F0BD     		pop	{r4, r5, r6, r7, pc}
 908              		.loc 1 373 1 view .LVU349
 909              		.cfi_endproc
 910              	.LFE7:
 912              		.section	.text.VL53L1_f_028,"ax",%progbits
 913              		.align	1
 914              		.global	VL53L1_f_028
 915              		.syntax unified
 916              		.thumb
 917              		.thumb_func
 919              	VL53L1_f_028:
 920              	.LVL94:
 921              	.LFB8:
 374:Drivers/BSP/Components/vl53l1cb/modules/vl53l1_hist_algos_gen3.c **** 
 375:Drivers/BSP/Components/vl53l1cb/modules/vl53l1_hist_algos_gen3.c **** 
 376:Drivers/BSP/Components/vl53l1cb/modules/vl53l1_hist_algos_gen3.c **** VL53L1_Error VL53L1_f_028(
 377:Drivers/BSP/Components/vl53l1cb/modules/vl53l1_hist_algos_gen3.c **** 	VL53L1_HistTargetOrder                target_order,
 378:Drivers/BSP/Components/vl53l1cb/modules/vl53l1_hist_algos_gen3.c **** 	VL53L1_hist_gen3_algo_private_data_t  *palgo)
 379:Drivers/BSP/Components/vl53l1cb/modules/vl53l1_hist_algos_gen3.c **** {
 922              		.loc 1 379 1 is_stmt 1 view -0
ARM GAS  C:\Temp\cc80ShlR.s 			page 25


 923              		.cfi_startproc
 924              		@ args = 0, pretend = 0, frame = 40
 925              		@ frame_needed = 0, uses_anonymous_args = 0
 380:Drivers/BSP/Components/vl53l1cb/modules/vl53l1_hist_algos_gen3.c **** 
 381:Drivers/BSP/Components/vl53l1cb/modules/vl53l1_hist_algos_gen3.c **** 
 382:Drivers/BSP/Components/vl53l1cb/modules/vl53l1_hist_algos_gen3.c **** 
 383:Drivers/BSP/Components/vl53l1cb/modules/vl53l1_hist_algos_gen3.c **** 	VL53L1_Error  status  = VL53L1_ERROR_NONE;
 926              		.loc 1 383 2 view .LVU351
 384:Drivers/BSP/Components/vl53l1cb/modules/vl53l1_hist_algos_gen3.c **** 
 385:Drivers/BSP/Components/vl53l1cb/modules/vl53l1_hist_algos_gen3.c **** 	VL53L1_hist_pulse_data_t  tmp;
 927              		.loc 1 385 2 view .LVU352
 386:Drivers/BSP/Components/vl53l1cb/modules/vl53l1_hist_algos_gen3.c **** 	VL53L1_hist_pulse_data_t *ptmp = &tmp;
 928              		.loc 1 386 2 view .LVU353
 387:Drivers/BSP/Components/vl53l1cb/modules/vl53l1_hist_algos_gen3.c **** 	VL53L1_hist_pulse_data_t *p0;
 929              		.loc 1 387 2 view .LVU354
 388:Drivers/BSP/Components/vl53l1cb/modules/vl53l1_hist_algos_gen3.c **** 	VL53L1_hist_pulse_data_t *p1;
 930              		.loc 1 388 2 view .LVU355
 389:Drivers/BSP/Components/vl53l1cb/modules/vl53l1_hist_algos_gen3.c **** 
 390:Drivers/BSP/Components/vl53l1cb/modules/vl53l1_hist_algos_gen3.c **** 	uint8_t i       = 0;
 931              		.loc 1 390 2 view .LVU356
 391:Drivers/BSP/Components/vl53l1cb/modules/vl53l1_hist_algos_gen3.c **** 	uint8_t swapped = 1;
 932              		.loc 1 391 2 view .LVU357
 392:Drivers/BSP/Components/vl53l1cb/modules/vl53l1_hist_algos_gen3.c **** 
 393:Drivers/BSP/Components/vl53l1cb/modules/vl53l1_hist_algos_gen3.c **** 	LOG_FUNCTION_START("");
 933              		.loc 1 393 24 view .LVU358
 394:Drivers/BSP/Components/vl53l1cb/modules/vl53l1_hist_algos_gen3.c **** 
 395:Drivers/BSP/Components/vl53l1cb/modules/vl53l1_hist_algos_gen3.c **** 	if (!(palgo->VL53L1_p_051 > 1))
 934              		.loc 1 395 2 view .LVU359
 935              		.loc 1 395 13 is_stmt 0 view .LVU360
 936 0000 91F87A31 		ldrb	r3, [r1, #378]	@ zero_extendqisi2
 937              		.loc 1 395 5 view .LVU361
 938 0004 012B     		cmp	r3, #1
 939 0006 40F2D480 		bls	.L61
 379:Drivers/BSP/Components/vl53l1cb/modules/vl53l1_hist_algos_gen3.c **** 
 940              		.loc 1 379 1 view .LVU362
 941 000a 2DE9F04F 		push	{r4, r5, r6, r7, r8, r9, r10, fp, lr}
 942              		.cfi_def_cfa_offset 36
 943              		.cfi_offset 4, -36
 944              		.cfi_offset 5, -32
 945              		.cfi_offset 6, -28
 946              		.cfi_offset 7, -24
 947              		.cfi_offset 8, -20
 948              		.cfi_offset 9, -16
 949              		.cfi_offset 10, -12
 950              		.cfi_offset 11, -8
 951              		.cfi_offset 14, -4
 952 000e 8BB0     		sub	sp, sp, #44
 953              		.cfi_def_cfa_offset 80
 954 0010 0546     		mov	r5, r0
 955 0012 0C46     		mov	r4, r1
 391:Drivers/BSP/Components/vl53l1cb/modules/vl53l1_hist_algos_gen3.c **** 
 956              		.loc 1 391 10 view .LVU363
 957 0014 0126     		movs	r6, #1
 958 0016 C4E0     		b	.L48
 959              	.LVL95:
 960              	.L65:
 396:Drivers/BSP/Components/vl53l1cb/modules/vl53l1_hist_algos_gen3.c **** 		goto ENDFUNC;
ARM GAS  C:\Temp\cc80ShlR.s 			page 26


 397:Drivers/BSP/Components/vl53l1cb/modules/vl53l1_hist_algos_gen3.c **** 
 398:Drivers/BSP/Components/vl53l1cb/modules/vl53l1_hist_algos_gen3.c **** 	while (swapped > 0) {
 399:Drivers/BSP/Components/vl53l1cb/modules/vl53l1_hist_algos_gen3.c **** 
 400:Drivers/BSP/Components/vl53l1cb/modules/vl53l1_hist_algos_gen3.c **** 		swapped = 0;
 401:Drivers/BSP/Components/vl53l1cb/modules/vl53l1_hist_algos_gen3.c **** 
 402:Drivers/BSP/Components/vl53l1cb/modules/vl53l1_hist_algos_gen3.c **** 		for (i = 1; i < palgo->VL53L1_p_051; i++) {
 403:Drivers/BSP/Components/vl53l1cb/modules/vl53l1_hist_algos_gen3.c **** 
 404:Drivers/BSP/Components/vl53l1cb/modules/vl53l1_hist_algos_gen3.c **** 			p0 = &(palgo->VL53L1_p_002[i-1]);
 405:Drivers/BSP/Components/vl53l1cb/modules/vl53l1_hist_algos_gen3.c **** 			p1 = &(palgo->VL53L1_p_002[i]);
 406:Drivers/BSP/Components/vl53l1cb/modules/vl53l1_hist_algos_gen3.c **** 
 407:Drivers/BSP/Components/vl53l1cb/modules/vl53l1_hist_algos_gen3.c **** 
 408:Drivers/BSP/Components/vl53l1cb/modules/vl53l1_hist_algos_gen3.c **** 
 409:Drivers/BSP/Components/vl53l1cb/modules/vl53l1_hist_algos_gen3.c **** 			if (target_order
 410:Drivers/BSP/Components/vl53l1cb/modules/vl53l1_hist_algos_gen3.c **** 			== VL53L1_HIST_TARGET_ORDER__STRONGEST_FIRST) {
 411:Drivers/BSP/Components/vl53l1cb/modules/vl53l1_hist_algos_gen3.c **** 
 412:Drivers/BSP/Components/vl53l1cb/modules/vl53l1_hist_algos_gen3.c **** 				if (p0->VL53L1_p_013 <
 961              		.loc 1 412 5 is_stmt 1 view .LVU364
 962              		.loc 1 412 11 is_stmt 0 view .LVU365
 963 0018 02EBC202 		add	r2, r2, r2, lsl #3
 964 001c 04EB8202 		add	r2, r4, r2, lsl #2
 965 0020 D2F88C21 		ldr	r2, [r2, #396]
 413:Drivers/BSP/Components/vl53l1cb/modules/vl53l1_hist_algos_gen3.c **** 						p1->VL53L1_p_013) {
 966              		.loc 1 413 9 view .LVU366
 967 0024 0EEBCE03 		add	r3, lr, lr, lsl #3
 968 0028 04EB8303 		add	r3, r4, r3, lsl #2
 969 002c D3F88C31 		ldr	r3, [r3, #396]
 412:Drivers/BSP/Components/vl53l1cb/modules/vl53l1_hist_algos_gen3.c **** 						p1->VL53L1_p_013) {
 970              		.loc 1 412 8 view .LVU367
 971 0030 9A42     		cmp	r2, r3
 972 0032 80F28480 		bge	.L50
 414:Drivers/BSP/Components/vl53l1cb/modules/vl53l1_hist_algos_gen3.c **** 
 415:Drivers/BSP/Components/vl53l1cb/modules/vl53l1_hist_algos_gen3.c **** 
 416:Drivers/BSP/Components/vl53l1cb/modules/vl53l1_hist_algos_gen3.c **** 
 417:Drivers/BSP/Components/vl53l1cb/modules/vl53l1_hist_algos_gen3.c **** 					memcpy(ptmp,
 973              		.loc 1 417 6 is_stmt 1 view .LVU368
 974 0036 B846     		mov	r8, r7
 975 0038 0DF1040A 		add	r10, sp, #4
 976 003c 07F1200B 		add	fp, r7, #32
 977              	.LVL96:
 978              	.L51:
 979              		.loc 1 417 6 is_stmt 0 view .LVU369
 980 0040 D146     		mov	r9, r10
 981 0042 D8F80000 		ldr	r0, [r8]	@ unaligned
 982 0046 D8F80410 		ldr	r1, [r8, #4]	@ unaligned
 983 004a D8F80820 		ldr	r2, [r8, #8]	@ unaligned
 984 004e D8F80C30 		ldr	r3, [r8, #12]	@ unaligned
 985 0052 A9E80F00 		stmia	r9!, {r0, r1, r2, r3}
 986 0056 08F11008 		add	r8, r8, #16
 987 005a CA46     		mov	r10, r9
 988 005c D845     		cmp	r8, fp
 989 005e EFD1     		bne	.L51
 990 0060 D8F80000 		ldr	r0, [r8]	@ unaligned
 991 0064 C9F80000 		str	r0, [r9]
 418:Drivers/BSP/Components/vl53l1cb/modules/vl53l1_hist_algos_gen3.c **** 					p1, sizeof(VL53L1_hist_pulse_data_t));
 419:Drivers/BSP/Components/vl53l1cb/modules/vl53l1_hist_algos_gen3.c **** 					memcpy(p1,
 992              		.loc 1 419 6 is_stmt 1 view .LVU370
 993 0068 6246     		mov	r2, ip
ARM GAS  C:\Temp\cc80ShlR.s 			page 27


 994 006a 3B46     		mov	r3, r7
 995 006c 0CF12009 		add	r9, ip, #32
 996              	.LVL97:
 997              	.L52:
 998              		.loc 1 419 6 is_stmt 0 view .LVU371
 999 0070 D2F80080 		ldr	r8, [r2]	@ unaligned
 1000 0074 5768     		ldr	r7, [r2, #4]	@ unaligned
 1001 0076 9068     		ldr	r0, [r2, #8]	@ unaligned
 1002 0078 D168     		ldr	r1, [r2, #12]	@ unaligned
 1003 007a C3F80080 		str	r8, [r3]	@ unaligned
 1004 007e 5F60     		str	r7, [r3, #4]	@ unaligned
 1005 0080 9860     		str	r0, [r3, #8]	@ unaligned
 1006 0082 D960     		str	r1, [r3, #12]	@ unaligned
 1007 0084 1032     		adds	r2, r2, #16
 1008 0086 1033     		adds	r3, r3, #16
 1009 0088 4A45     		cmp	r2, r9
 1010 008a F1D1     		bne	.L52
 1011 008c 1268     		ldr	r2, [r2]	@ unaligned
 1012 008e 1A60     		str	r2, [r3]	@ unaligned
 420:Drivers/BSP/Components/vl53l1cb/modules/vl53l1_hist_algos_gen3.c **** 					p0, sizeof(VL53L1_hist_pulse_data_t));
 421:Drivers/BSP/Components/vl53l1cb/modules/vl53l1_hist_algos_gen3.c **** 					memcpy(p0,
 1013              		.loc 1 421 6 is_stmt 1 view .LVU372
 1014 0090 0DF10408 		add	r8, sp, #4
 1015 0094 0DF12409 		add	r9, sp, #36
 1016              	.LVL98:
 1017              	.L53:
 1018              		.loc 1 421 6 is_stmt 0 view .LVU373
 1019 0098 4746     		mov	r7, r8
 1020 009a 0FCF     		ldmia	r7!, {r0, r1, r2, r3}
 1021 009c CCF80000 		str	r0, [ip]	@ unaligned
 1022 00a0 CCF80410 		str	r1, [ip, #4]	@ unaligned
 1023 00a4 CCF80820 		str	r2, [ip, #8]	@ unaligned
 1024 00a8 CCF80C30 		str	r3, [ip, #12]	@ unaligned
 1025 00ac B846     		mov	r8, r7
 1026 00ae 0CF1100C 		add	ip, ip, #16
 1027 00b2 4F45     		cmp	r7, r9
 1028 00b4 F0D1     		bne	.L53
 1029 00b6 3868     		ldr	r0, [r7]
 1030 00b8 CCF80000 		str	r0, [ip]	@ unaligned
 422:Drivers/BSP/Components/vl53l1cb/modules/vl53l1_hist_algos_gen3.c **** 					ptmp, sizeof(VL53L1_hist_pulse_data_t));
 423:Drivers/BSP/Components/vl53l1cb/modules/vl53l1_hist_algos_gen3.c **** 
 424:Drivers/BSP/Components/vl53l1cb/modules/vl53l1_hist_algos_gen3.c **** 					swapped = 1;
 1031              		.loc 1 424 6 is_stmt 1 view .LVU374
 1032              	.LVL99:
 1033              		.loc 1 424 14 is_stmt 0 view .LVU375
 1034 00bc 3146     		mov	r1, r6
 1035 00be 3EE0     		b	.L50
 1036              	.LVL100:
 1037              	.L54:
 425:Drivers/BSP/Components/vl53l1cb/modules/vl53l1_hist_algos_gen3.c **** 				}
 426:Drivers/BSP/Components/vl53l1cb/modules/vl53l1_hist_algos_gen3.c **** 
 427:Drivers/BSP/Components/vl53l1cb/modules/vl53l1_hist_algos_gen3.c **** 			} else {
 428:Drivers/BSP/Components/vl53l1cb/modules/vl53l1_hist_algos_gen3.c **** 
 429:Drivers/BSP/Components/vl53l1cb/modules/vl53l1_hist_algos_gen3.c **** 				if (p0->VL53L1_p_014 > p1->VL53L1_p_014) {
 430:Drivers/BSP/Components/vl53l1cb/modules/vl53l1_hist_algos_gen3.c **** 
 431:Drivers/BSP/Components/vl53l1cb/modules/vl53l1_hist_algos_gen3.c **** 
 432:Drivers/BSP/Components/vl53l1cb/modules/vl53l1_hist_algos_gen3.c **** 
ARM GAS  C:\Temp\cc80ShlR.s 			page 28


 433:Drivers/BSP/Components/vl53l1cb/modules/vl53l1_hist_algos_gen3.c **** 					memcpy(ptmp,
 1038              		.loc 1 433 6 view .LVU376
 1039 00c0 D146     		mov	r9, r10
 1040 00c2 D8F80000 		ldr	r0, [r8]	@ unaligned
 1041 00c6 D8F80410 		ldr	r1, [r8, #4]	@ unaligned
 1042 00ca D8F80820 		ldr	r2, [r8, #8]	@ unaligned
 1043 00ce D8F80C30 		ldr	r3, [r8, #12]	@ unaligned
 1044 00d2 A9E80F00 		stmia	r9!, {r0, r1, r2, r3}
 1045 00d6 08F11008 		add	r8, r8, #16
 1046 00da CA46     		mov	r10, r9
 1047 00dc D845     		cmp	r8, fp
 1048 00de EFD1     		bne	.L54
 1049 00e0 D8F80000 		ldr	r0, [r8]	@ unaligned
 1050 00e4 C9F80000 		str	r0, [r9]
 434:Drivers/BSP/Components/vl53l1cb/modules/vl53l1_hist_algos_gen3.c **** 					p1, sizeof(VL53L1_hist_pulse_data_t));
 435:Drivers/BSP/Components/vl53l1cb/modules/vl53l1_hist_algos_gen3.c **** 					memcpy(p1,
 1051              		.loc 1 435 6 is_stmt 1 view .LVU377
 1052 00e8 6246     		mov	r2, ip
 1053 00ea 3B46     		mov	r3, r7
 1054 00ec 0CF12009 		add	r9, ip, #32
 1055              	.LVL101:
 1056              	.L55:
 1057              		.loc 1 435 6 is_stmt 0 view .LVU378
 1058 00f0 D2F80080 		ldr	r8, [r2]	@ unaligned
 1059 00f4 5768     		ldr	r7, [r2, #4]	@ unaligned
 1060 00f6 9068     		ldr	r0, [r2, #8]	@ unaligned
 1061 00f8 D168     		ldr	r1, [r2, #12]	@ unaligned
 1062 00fa C3F80080 		str	r8, [r3]	@ unaligned
 1063 00fe 5F60     		str	r7, [r3, #4]	@ unaligned
 1064 0100 9860     		str	r0, [r3, #8]	@ unaligned
 1065 0102 D960     		str	r1, [r3, #12]	@ unaligned
 1066 0104 1032     		adds	r2, r2, #16
 1067 0106 1033     		adds	r3, r3, #16
 1068 0108 4A45     		cmp	r2, r9
 1069 010a F1D1     		bne	.L55
 1070 010c 1268     		ldr	r2, [r2]	@ unaligned
 1071 010e 1A60     		str	r2, [r3]	@ unaligned
 436:Drivers/BSP/Components/vl53l1cb/modules/vl53l1_hist_algos_gen3.c **** 					p0,   sizeof(VL53L1_hist_pulse_data_t));
 437:Drivers/BSP/Components/vl53l1cb/modules/vl53l1_hist_algos_gen3.c **** 					memcpy(p0,
 1072              		.loc 1 437 6 is_stmt 1 view .LVU379
 1073 0110 0DF10408 		add	r8, sp, #4
 1074 0114 0DF12409 		add	r9, sp, #36
 1075              	.LVL102:
 1076              	.L56:
 1077              		.loc 1 437 6 is_stmt 0 view .LVU380
 1078 0118 4746     		mov	r7, r8
 1079 011a 0FCF     		ldmia	r7!, {r0, r1, r2, r3}
 1080 011c CCF80000 		str	r0, [ip]	@ unaligned
 1081 0120 CCF80410 		str	r1, [ip, #4]	@ unaligned
 1082 0124 CCF80820 		str	r2, [ip, #8]	@ unaligned
 1083 0128 CCF80C30 		str	r3, [ip, #12]	@ unaligned
 1084 012c B846     		mov	r8, r7
 1085 012e 0CF1100C 		add	ip, ip, #16
 1086 0132 4F45     		cmp	r7, r9
 1087 0134 F0D1     		bne	.L56
 1088 0136 3868     		ldr	r0, [r7]
 1089 0138 CCF80000 		str	r0, [ip]	@ unaligned
ARM GAS  C:\Temp\cc80ShlR.s 			page 29


 438:Drivers/BSP/Components/vl53l1cb/modules/vl53l1_hist_algos_gen3.c **** 					ptmp, sizeof(VL53L1_hist_pulse_data_t));
 439:Drivers/BSP/Components/vl53l1cb/modules/vl53l1_hist_algos_gen3.c **** 
 440:Drivers/BSP/Components/vl53l1cb/modules/vl53l1_hist_algos_gen3.c **** 					swapped = 1;
 1090              		.loc 1 440 6 is_stmt 1 view .LVU381
 1091              	.LVL103:
 1092              		.loc 1 440 14 is_stmt 0 view .LVU382
 1093 013c 3146     		mov	r1, r6
 1094              	.LVL104:
 1095              	.L50:
 402:Drivers/BSP/Components/vl53l1cb/modules/vl53l1_hist_algos_gen3.c **** 
 1096              		.loc 1 402 41 is_stmt 1 discriminator 2 view .LVU383
 1097 013e 0EF1010E 		add	lr, lr, #1
 1098              	.LVL105:
 402:Drivers/BSP/Components/vl53l1cb/modules/vl53l1_hist_algos_gen3.c **** 
 1099              		.loc 1 402 41 is_stmt 0 discriminator 2 view .LVU384
 1100 0142 5FFA8EFE 		uxtb	lr, lr
 1101              	.LVL106:
 1102              	.L58:
 402:Drivers/BSP/Components/vl53l1cb/modules/vl53l1_hist_algos_gen3.c **** 
 1103              		.loc 1 402 17 is_stmt 1 discriminator 1 view .LVU385
 402:Drivers/BSP/Components/vl53l1cb/modules/vl53l1_hist_algos_gen3.c **** 
 1104              		.loc 1 402 24 is_stmt 0 discriminator 1 view .LVU386
 1105 0146 94F87A31 		ldrb	r3, [r4, #378]	@ zero_extendqisi2
 402:Drivers/BSP/Components/vl53l1cb/modules/vl53l1_hist_algos_gen3.c **** 
 1106              		.loc 1 402 17 discriminator 1 view .LVU387
 1107 014a 7345     		cmp	r3, lr
 1108 014c 28D9     		bls	.L64
 404:Drivers/BSP/Components/vl53l1cb/modules/vl53l1_hist_algos_gen3.c **** 			p1 = &(palgo->VL53L1_p_002[i]);
 1109              		.loc 1 404 4 is_stmt 1 view .LVU388
 404:Drivers/BSP/Components/vl53l1cb/modules/vl53l1_hist_algos_gen3.c **** 			p1 = &(palgo->VL53L1_p_002[i]);
 1110              		.loc 1 404 32 is_stmt 0 view .LVU389
 1111 014e 0EF1FF32 		add	r2, lr, #-1
 404:Drivers/BSP/Components/vl53l1cb/modules/vl53l1_hist_algos_gen3.c **** 			p1 = &(palgo->VL53L1_p_002[i]);
 1112              		.loc 1 404 7 view .LVU390
 1113 0152 02EBC20C 		add	ip, r2, r2, lsl #3
 1114 0156 4FEA8C0C 		lsl	ip, ip, #2
 1115 015a 0CF5BC7C 		add	ip, ip, #376
 1116 015e A444     		add	ip, ip, r4
 1117 0160 0CF1040C 		add	ip, ip, #4
 1118              	.LVL107:
 405:Drivers/BSP/Components/vl53l1cb/modules/vl53l1_hist_algos_gen3.c **** 
 1119              		.loc 1 405 4 is_stmt 1 view .LVU391
 405:Drivers/BSP/Components/vl53l1cb/modules/vl53l1_hist_algos_gen3.c **** 
 1120              		.loc 1 405 7 is_stmt 0 view .LVU392
 1121 0164 0EEBCE03 		add	r3, lr, lr, lsl #3
 1122 0168 9B00     		lsls	r3, r3, #2
 1123 016a 03F5BC73 		add	r3, r3, #376
 1124 016e 2344     		add	r3, r3, r4
 1125 0170 1F1D     		adds	r7, r3, #4
 1126              	.LVL108:
 409:Drivers/BSP/Components/vl53l1cb/modules/vl53l1_hist_algos_gen3.c **** 			== VL53L1_HIST_TARGET_ORDER__STRONGEST_FIRST) {
 1127              		.loc 1 409 4 is_stmt 1 view .LVU393
 409:Drivers/BSP/Components/vl53l1cb/modules/vl53l1_hist_algos_gen3.c **** 			== VL53L1_HIST_TARGET_ORDER__STRONGEST_FIRST) {
 1128              		.loc 1 409 7 is_stmt 0 view .LVU394
 1129 0172 022D     		cmp	r5, #2
 1130 0174 3FF450AF 		beq	.L65
 429:Drivers/BSP/Components/vl53l1cb/modules/vl53l1_hist_algos_gen3.c **** 
ARM GAS  C:\Temp\cc80ShlR.s 			page 30


 1131              		.loc 1 429 5 is_stmt 1 view .LVU395
 429:Drivers/BSP/Components/vl53l1cb/modules/vl53l1_hist_algos_gen3.c **** 
 1132              		.loc 1 429 11 is_stmt 0 view .LVU396
 1133 0178 02EBC202 		add	r2, r2, r2, lsl #3
 1134 017c 04EB8202 		add	r2, r4, r2, lsl #2
 1135 0180 D2F89421 		ldr	r2, [r2, #404]
 429:Drivers/BSP/Components/vl53l1cb/modules/vl53l1_hist_algos_gen3.c **** 
 1136              		.loc 1 429 30 view .LVU397
 1137 0184 0EEBCE03 		add	r3, lr, lr, lsl #3
 1138 0188 04EB8303 		add	r3, r4, r3, lsl #2
 1139 018c D3F89431 		ldr	r3, [r3, #404]
 429:Drivers/BSP/Components/vl53l1cb/modules/vl53l1_hist_algos_gen3.c **** 
 1140              		.loc 1 429 8 view .LVU398
 1141 0190 9A42     		cmp	r2, r3
 1142 0192 D4D9     		bls	.L50
 433:Drivers/BSP/Components/vl53l1cb/modules/vl53l1_hist_algos_gen3.c **** 					p1, sizeof(VL53L1_hist_pulse_data_t));
 1143              		.loc 1 433 6 is_stmt 1 view .LVU399
 1144 0194 B846     		mov	r8, r7
 1145 0196 0DF1040A 		add	r10, sp, #4
 1146 019a 07F1200B 		add	fp, r7, #32
 1147 019e 8FE7     		b	.L54
 1148              	.LVL109:
 1149              	.L64:
 433:Drivers/BSP/Components/vl53l1cb/modules/vl53l1_hist_algos_gen3.c **** 					p1, sizeof(VL53L1_hist_pulse_data_t));
 1150              		.loc 1 433 6 is_stmt 0 view .LVU400
 1151 01a0 0E46     		mov	r6, r1
 1152              	.LVL110:
 1153              	.L48:
 398:Drivers/BSP/Components/vl53l1cb/modules/vl53l1_hist_algos_gen3.c **** 
 1154              		.loc 1 398 17 is_stmt 1 view .LVU401
 1155 01a2 16B1     		cbz	r6, .L66
 402:Drivers/BSP/Components/vl53l1cb/modules/vl53l1_hist_algos_gen3.c **** 
 1156              		.loc 1 402 10 is_stmt 0 view .LVU402
 1157 01a4 B646     		mov	lr, r6
 400:Drivers/BSP/Components/vl53l1cb/modules/vl53l1_hist_algos_gen3.c **** 
 1158              		.loc 1 400 11 view .LVU403
 1159 01a6 0021     		movs	r1, #0
 1160 01a8 CDE7     		b	.L58
 1161              	.L66:
 1162              	.L47:
 441:Drivers/BSP/Components/vl53l1cb/modules/vl53l1_hist_algos_gen3.c **** 				}
 442:Drivers/BSP/Components/vl53l1cb/modules/vl53l1_hist_algos_gen3.c **** 
 443:Drivers/BSP/Components/vl53l1cb/modules/vl53l1_hist_algos_gen3.c **** 			}
 444:Drivers/BSP/Components/vl53l1cb/modules/vl53l1_hist_algos_gen3.c **** 		}
 445:Drivers/BSP/Components/vl53l1cb/modules/vl53l1_hist_algos_gen3.c **** 	}
 446:Drivers/BSP/Components/vl53l1cb/modules/vl53l1_hist_algos_gen3.c **** 
 447:Drivers/BSP/Components/vl53l1cb/modules/vl53l1_hist_algos_gen3.c **** ENDFUNC:
 448:Drivers/BSP/Components/vl53l1cb/modules/vl53l1_hist_algos_gen3.c **** 	LOG_FUNCTION_END(status);
 1163              		.loc 1 448 26 is_stmt 1 view .LVU404
 449:Drivers/BSP/Components/vl53l1cb/modules/vl53l1_hist_algos_gen3.c **** 
 450:Drivers/BSP/Components/vl53l1cb/modules/vl53l1_hist_algos_gen3.c **** 	return status;
 1164              		.loc 1 450 2 view .LVU405
 451:Drivers/BSP/Components/vl53l1cb/modules/vl53l1_hist_algos_gen3.c **** 
 452:Drivers/BSP/Components/vl53l1cb/modules/vl53l1_hist_algos_gen3.c **** }
 1165              		.loc 1 452 1 is_stmt 0 view .LVU406
 1166 01aa 0020     		movs	r0, #0
 1167 01ac 0BB0     		add	sp, sp, #44
ARM GAS  C:\Temp\cc80ShlR.s 			page 31


 1168              		.cfi_def_cfa_offset 36
 1169              		@ sp needed
 1170 01ae BDE8F08F 		pop	{r4, r5, r6, r7, r8, r9, r10, fp, pc}
 1171              	.LVL111:
 1172              	.L61:
 1173              		.cfi_def_cfa_offset 0
 1174              		.cfi_restore 4
 1175              		.cfi_restore 5
 1176              		.cfi_restore 6
 1177              		.cfi_restore 7
 1178              		.cfi_restore 8
 1179              		.cfi_restore 9
 1180              		.cfi_restore 10
 1181              		.cfi_restore 11
 1182              		.cfi_restore 14
 448:Drivers/BSP/Components/vl53l1cb/modules/vl53l1_hist_algos_gen3.c **** 
 1183              		.loc 1 448 26 is_stmt 1 view .LVU407
 450:Drivers/BSP/Components/vl53l1cb/modules/vl53l1_hist_algos_gen3.c **** 
 1184              		.loc 1 450 2 view .LVU408
 1185              		.loc 1 452 1 is_stmt 0 view .LVU409
 1186 01b2 0020     		movs	r0, #0
 1187              	.LVL112:
 1188              		.loc 1 452 1 view .LVU410
 1189 01b4 7047     		bx	lr
 1190              		.cfi_endproc
 1191              	.LFE8:
 1193              		.section	.text.VL53L1_f_022,"ax",%progbits
 1194              		.align	1
 1195              		.global	VL53L1_f_022
 1196              		.syntax unified
 1197              		.thumb
 1198              		.thumb_func
 1200              	VL53L1_f_022:
 1201              	.LVL113:
 1202              	.LFB9:
 453:Drivers/BSP/Components/vl53l1cb/modules/vl53l1_hist_algos_gen3.c **** 
 454:Drivers/BSP/Components/vl53l1cb/modules/vl53l1_hist_algos_gen3.c **** 
 455:Drivers/BSP/Components/vl53l1cb/modules/vl53l1_hist_algos_gen3.c **** VL53L1_Error VL53L1_f_022(
 456:Drivers/BSP/Components/vl53l1cb/modules/vl53l1_hist_algos_gen3.c **** 	uint8_t                                pulse_no,
 457:Drivers/BSP/Components/vl53l1cb/modules/vl53l1_hist_algos_gen3.c **** 	VL53L1_histogram_bin_data_t           *pbins,
 458:Drivers/BSP/Components/vl53l1cb/modules/vl53l1_hist_algos_gen3.c **** 	VL53L1_hist_gen3_algo_private_data_t  *palgo)
 459:Drivers/BSP/Components/vl53l1cb/modules/vl53l1_hist_algos_gen3.c **** {
 1203              		.loc 1 459 1 is_stmt 1 view -0
 1204              		.cfi_startproc
 1205              		@ args = 0, pretend = 0, frame = 0
 1206              		@ frame_needed = 0, uses_anonymous_args = 0
 1207              		.loc 1 459 1 is_stmt 0 view .LVU412
 1208 0000 10B5     		push	{r4, lr}
 1209              		.cfi_def_cfa_offset 8
 1210              		.cfi_offset 4, -8
 1211              		.cfi_offset 14, -4
 460:Drivers/BSP/Components/vl53l1cb/modules/vl53l1_hist_algos_gen3.c **** 
 461:Drivers/BSP/Components/vl53l1cb/modules/vl53l1_hist_algos_gen3.c **** 
 462:Drivers/BSP/Components/vl53l1cb/modules/vl53l1_hist_algos_gen3.c **** 	VL53L1_Error  status  = VL53L1_ERROR_NONE;
 1212              		.loc 1 462 2 is_stmt 1 view .LVU413
 1213              	.LVL114:
 463:Drivers/BSP/Components/vl53l1cb/modules/vl53l1_hist_algos_gen3.c **** 
ARM GAS  C:\Temp\cc80ShlR.s 			page 32


 464:Drivers/BSP/Components/vl53l1cb/modules/vl53l1_hist_algos_gen3.c **** 	uint8_t  i            = 0;
 1214              		.loc 1 464 2 view .LVU414
 465:Drivers/BSP/Components/vl53l1cb/modules/vl53l1_hist_algos_gen3.c **** 	uint8_t  lb            = 0;
 1215              		.loc 1 465 2 view .LVU415
 466:Drivers/BSP/Components/vl53l1cb/modules/vl53l1_hist_algos_gen3.c **** 
 467:Drivers/BSP/Components/vl53l1cb/modules/vl53l1_hist_algos_gen3.c **** 	VL53L1_hist_pulse_data_t *pdata = &(palgo->VL53L1_p_002[pulse_no]);
 1216              		.loc 1 467 2 view .LVU416
 468:Drivers/BSP/Components/vl53l1cb/modules/vl53l1_hist_algos_gen3.c **** 
 469:Drivers/BSP/Components/vl53l1cb/modules/vl53l1_hist_algos_gen3.c **** 	LOG_FUNCTION_START("");
 1217              		.loc 1 469 24 view .LVU417
 470:Drivers/BSP/Components/vl53l1cb/modules/vl53l1_hist_algos_gen3.c **** 
 471:Drivers/BSP/Components/vl53l1cb/modules/vl53l1_hist_algos_gen3.c **** 
 472:Drivers/BSP/Components/vl53l1cb/modules/vl53l1_hist_algos_gen3.c **** 
 473:Drivers/BSP/Components/vl53l1cb/modules/vl53l1_hist_algos_gen3.c **** 	pdata->VL53L1_p_021  = 0;
 1218              		.loc 1 473 2 view .LVU418
 1219              		.loc 1 473 23 is_stmt 0 view .LVU419
 1220 0002 00EBC003 		add	r3, r0, r0, lsl #3
 1221 0006 02EB8303 		add	r3, r2, r3, lsl #2
 1222 000a 0024     		movs	r4, #0
 1223 000c C3F88841 		str	r4, [r3, #392]
 474:Drivers/BSP/Components/vl53l1cb/modules/vl53l1_hist_algos_gen3.c **** 	pdata->VL53L1_p_020 = 0;
 1224              		.loc 1 474 2 is_stmt 1 view .LVU420
 1225              		.loc 1 474 22 is_stmt 0 view .LVU421
 1226 0010 C3F88441 		str	r4, [r3, #388]
 475:Drivers/BSP/Components/vl53l1cb/modules/vl53l1_hist_algos_gen3.c **** 
 476:Drivers/BSP/Components/vl53l1cb/modules/vl53l1_hist_algos_gen3.c **** 	for (lb = pdata->VL53L1_p_015; lb <= pdata->VL53L1_p_016; lb++) {
 1227              		.loc 1 476 2 is_stmt 1 view .LVU422
 1228              		.loc 1 476 10 is_stmt 0 view .LVU423
 1229 0014 93F87CC1 		ldrb	ip, [r3, #380]	@ zero_extendqisi2
 1230              	.LVL115:
 1231              		.loc 1 476 2 view .LVU424
 1232 0018 1CE0     		b	.L68
 1233              	.LVL116:
 1234              	.L69:
 477:Drivers/BSP/Components/vl53l1cb/modules/vl53l1_hist_algos_gen3.c **** 		i =  lb % palgo->VL53L1_p_031;
 1235              		.loc 1 477 3 is_stmt 1 discriminator 3 view .LVU425
 1236              		.loc 1 477 18 is_stmt 0 discriminator 3 view .LVU426
 1237 001a 92F803E0 		ldrb	lr, [r2, #3]	@ zero_extendqisi2
 1238              		.loc 1 477 5 discriminator 3 view .LVU427
 1239 001e BCFBFEF3 		udiv	r3, ip, lr
 1240 0022 0EFB13C3 		mls	r3, lr, r3, ip
 1241 0026 DBB2     		uxtb	r3, r3
 1242              	.LVL117:
 478:Drivers/BSP/Components/vl53l1cb/modules/vl53l1_hist_algos_gen3.c **** 		pdata->VL53L1_p_021  += pbins->bin_data[i];
 1243              		.loc 1 478 3 is_stmt 1 discriminator 3 view .LVU428
 1244              		.loc 1 478 8 is_stmt 0 discriminator 3 view .LVU429
 1245 0028 00EBC00E 		add	lr, r0, r0, lsl #3
 1246 002c 02EB8E0E 		add	lr, r2, lr, lsl #2
 1247              		.loc 1 478 42 discriminator 3 view .LVU430
 1248 0030 0633     		adds	r3, r3, #6
 1249              	.LVL118:
 1250              		.loc 1 478 42 discriminator 3 view .LVU431
 1251 0032 51F82330 		ldr	r3, [r1, r3, lsl #2]
 1252              	.LVL119:
 1253              		.loc 1 478 24 discriminator 3 view .LVU432
 1254 0036 DEF88841 		ldr	r4, [lr, #392]
 1255 003a 2344     		add	r3, r3, r4
ARM GAS  C:\Temp\cc80ShlR.s 			page 33


 1256 003c CEF88831 		str	r3, [lr, #392]
 1257              	.LVL120:
 479:Drivers/BSP/Components/vl53l1cb/modules/vl53l1_hist_algos_gen3.c **** 		pdata->VL53L1_p_020 += palgo->VL53L1_p_004;
 1258              		.loc 1 479 3 is_stmt 1 discriminator 3 view .LVU433
 1259              		.loc 1 479 8 is_stmt 0 discriminator 3 view .LVU434
 1260 0040 DEF88431 		ldr	r3, [lr, #388]
 1261              		.loc 1 479 23 discriminator 3 view .LVU435
 1262 0044 9468     		ldr	r4, [r2, #8]
 1263 0046 2344     		add	r3, r3, r4
 1264 0048 CEF88431 		str	r3, [lr, #388]
 476:Drivers/BSP/Components/vl53l1cb/modules/vl53l1_hist_algos_gen3.c **** 		i =  lb % palgo->VL53L1_p_031;
 1265              		.loc 1 476 62 is_stmt 1 discriminator 3 view .LVU436
 1266 004c 0CF1010C 		add	ip, ip, #1
 1267              	.LVL121:
 476:Drivers/BSP/Components/vl53l1cb/modules/vl53l1_hist_algos_gen3.c **** 		i =  lb % palgo->VL53L1_p_031;
 1268              		.loc 1 476 62 is_stmt 0 discriminator 3 view .LVU437
 1269 0050 5FFA8CFC 		uxtb	ip, ip
 1270              	.LVL122:
 1271              	.L68:
 476:Drivers/BSP/Components/vl53l1cb/modules/vl53l1_hist_algos_gen3.c **** 		i =  lb % palgo->VL53L1_p_031;
 1272              		.loc 1 476 36 is_stmt 1 discriminator 1 view .LVU438
 476:Drivers/BSP/Components/vl53l1cb/modules/vl53l1_hist_algos_gen3.c **** 		i =  lb % palgo->VL53L1_p_031;
 1273              		.loc 1 476 44 is_stmt 0 discriminator 1 view .LVU439
 1274 0054 00EBC003 		add	r3, r0, r0, lsl #3
 1275 0058 02EB8303 		add	r3, r2, r3, lsl #2
 1276 005c 93F88031 		ldrb	r3, [r3, #384]	@ zero_extendqisi2
 476:Drivers/BSP/Components/vl53l1cb/modules/vl53l1_hist_algos_gen3.c **** 		i =  lb % palgo->VL53L1_p_031;
 1277              		.loc 1 476 36 discriminator 1 view .LVU440
 1278 0060 6345     		cmp	r3, ip
 1279 0062 DAD2     		bcs	.L69
 480:Drivers/BSP/Components/vl53l1cb/modules/vl53l1_hist_algos_gen3.c **** 	}
 481:Drivers/BSP/Components/vl53l1cb/modules/vl53l1_hist_algos_gen3.c **** 
 482:Drivers/BSP/Components/vl53l1cb/modules/vl53l1_hist_algos_gen3.c **** 
 483:Drivers/BSP/Components/vl53l1cb/modules/vl53l1_hist_algos_gen3.c **** 
 484:Drivers/BSP/Components/vl53l1cb/modules/vl53l1_hist_algos_gen3.c **** 	pdata->VL53L1_p_013 =
 1280              		.loc 1 484 2 is_stmt 1 view .LVU441
 485:Drivers/BSP/Components/vl53l1cb/modules/vl53l1_hist_algos_gen3.c **** 		pdata->VL53L1_p_021 - pdata->VL53L1_p_020;
 1281              		.loc 1 485 8 is_stmt 0 view .LVU442
 1282 0064 00EBC003 		add	r3, r0, r0, lsl #3
 1283 0068 02EB8303 		add	r3, r2, r3, lsl #2
 1284 006c D3F88811 		ldr	r1, [r3, #392]
 1285              	.LVL123:
 1286              		.loc 1 485 30 view .LVU443
 1287 0070 D3F88431 		ldr	r3, [r3, #388]
 1288              		.loc 1 485 23 view .LVU444
 1289 0074 CB1A     		subs	r3, r1, r3
 484:Drivers/BSP/Components/vl53l1cb/modules/vl53l1_hist_algos_gen3.c **** 		pdata->VL53L1_p_021 - pdata->VL53L1_p_020;
 1290              		.loc 1 484 22 view .LVU445
 1291 0076 00EBC000 		add	r0, r0, r0, lsl #3
 1292              	.LVL124:
 484:Drivers/BSP/Components/vl53l1cb/modules/vl53l1_hist_algos_gen3.c **** 		pdata->VL53L1_p_021 - pdata->VL53L1_p_020;
 1293              		.loc 1 484 22 view .LVU446
 1294 007a 02EB8002 		add	r2, r2, r0, lsl #2
 1295              	.LVL125:
 484:Drivers/BSP/Components/vl53l1cb/modules/vl53l1_hist_algos_gen3.c **** 		pdata->VL53L1_p_021 - pdata->VL53L1_p_020;
 1296              		.loc 1 484 22 view .LVU447
 1297 007e C2F88C31 		str	r3, [r2, #396]
ARM GAS  C:\Temp\cc80ShlR.s 			page 34


 486:Drivers/BSP/Components/vl53l1cb/modules/vl53l1_hist_algos_gen3.c **** 
 487:Drivers/BSP/Components/vl53l1cb/modules/vl53l1_hist_algos_gen3.c **** 	LOG_FUNCTION_END(status);
 1298              		.loc 1 487 26 is_stmt 1 view .LVU448
 488:Drivers/BSP/Components/vl53l1cb/modules/vl53l1_hist_algos_gen3.c **** 
 489:Drivers/BSP/Components/vl53l1cb/modules/vl53l1_hist_algos_gen3.c **** 	return status;
 1299              		.loc 1 489 2 view .LVU449
 490:Drivers/BSP/Components/vl53l1cb/modules/vl53l1_hist_algos_gen3.c **** }
 1300              		.loc 1 490 1 is_stmt 0 view .LVU450
 1301 0082 0020     		movs	r0, #0
 1302 0084 10BD     		pop	{r4, pc}
 1303              		.cfi_endproc
 1304              	.LFE9:
 1306              		.global	__aeabi_ldivmod
 1307              		.section	.text.VL53L1_f_030,"ax",%progbits
 1308              		.align	1
 1309              		.global	VL53L1_f_030
 1310              		.syntax unified
 1311              		.thumb
 1312              		.thumb_func
 1314              	VL53L1_f_030:
 1315              	.LVL126:
 1316              	.LFB11:
 491:Drivers/BSP/Components/vl53l1cb/modules/vl53l1_hist_algos_gen3.c **** 
 492:Drivers/BSP/Components/vl53l1cb/modules/vl53l1_hist_algos_gen3.c **** 
 493:Drivers/BSP/Components/vl53l1cb/modules/vl53l1_hist_algos_gen3.c **** VL53L1_Error VL53L1_f_027(
 494:Drivers/BSP/Components/vl53l1cb/modules/vl53l1_hist_algos_gen3.c **** 	uint8_t                                pulse_no,
 495:Drivers/BSP/Components/vl53l1cb/modules/vl53l1_hist_algos_gen3.c **** 	uint8_t                                clip_events,
 496:Drivers/BSP/Components/vl53l1cb/modules/vl53l1_hist_algos_gen3.c **** 	VL53L1_histogram_bin_data_t           *pbins,
 497:Drivers/BSP/Components/vl53l1cb/modules/vl53l1_hist_algos_gen3.c **** 	VL53L1_hist_gen3_algo_private_data_t  *palgo)
 498:Drivers/BSP/Components/vl53l1cb/modules/vl53l1_hist_algos_gen3.c **** {
 499:Drivers/BSP/Components/vl53l1cb/modules/vl53l1_hist_algos_gen3.c **** 
 500:Drivers/BSP/Components/vl53l1cb/modules/vl53l1_hist_algos_gen3.c **** 
 501:Drivers/BSP/Components/vl53l1cb/modules/vl53l1_hist_algos_gen3.c **** 	VL53L1_Error  status  = VL53L1_ERROR_NONE;
 502:Drivers/BSP/Components/vl53l1cb/modules/vl53l1_hist_algos_gen3.c **** 
 503:Drivers/BSP/Components/vl53l1cb/modules/vl53l1_hist_algos_gen3.c **** 	uint8_t   i            = 0;
 504:Drivers/BSP/Components/vl53l1cb/modules/vl53l1_hist_algos_gen3.c **** 	int16_t   VL53L1_p_015 = 0;
 505:Drivers/BSP/Components/vl53l1cb/modules/vl53l1_hist_algos_gen3.c **** 	int16_t   VL53L1_p_016   = 0;
 506:Drivers/BSP/Components/vl53l1cb/modules/vl53l1_hist_algos_gen3.c **** 	int16_t   window_width = 0;
 507:Drivers/BSP/Components/vl53l1cb/modules/vl53l1_hist_algos_gen3.c **** 	uint32_t  tmp_phase    = 0;
 508:Drivers/BSP/Components/vl53l1cb/modules/vl53l1_hist_algos_gen3.c **** 
 509:Drivers/BSP/Components/vl53l1cb/modules/vl53l1_hist_algos_gen3.c **** 	VL53L1_hist_pulse_data_t *pdata = &(palgo->VL53L1_p_002[pulse_no]);
 510:Drivers/BSP/Components/vl53l1cb/modules/vl53l1_hist_algos_gen3.c **** 
 511:Drivers/BSP/Components/vl53l1cb/modules/vl53l1_hist_algos_gen3.c **** 	LOG_FUNCTION_START("");
 512:Drivers/BSP/Components/vl53l1cb/modules/vl53l1_hist_algos_gen3.c **** 
 513:Drivers/BSP/Components/vl53l1cb/modules/vl53l1_hist_algos_gen3.c **** 
 514:Drivers/BSP/Components/vl53l1cb/modules/vl53l1_hist_algos_gen3.c **** 
 515:Drivers/BSP/Components/vl53l1cb/modules/vl53l1_hist_algos_gen3.c **** 	if (pdata->VL53L1_p_025 == 0xFF)
 516:Drivers/BSP/Components/vl53l1cb/modules/vl53l1_hist_algos_gen3.c **** 		pdata->VL53L1_p_025 = 1;
 517:Drivers/BSP/Components/vl53l1cb/modules/vl53l1_hist_algos_gen3.c **** 
 518:Drivers/BSP/Components/vl53l1cb/modules/vl53l1_hist_algos_gen3.c **** 	i = pdata->VL53L1_p_025 % palgo->VL53L1_p_031;
 519:Drivers/BSP/Components/vl53l1cb/modules/vl53l1_hist_algos_gen3.c **** 
 520:Drivers/BSP/Components/vl53l1cb/modules/vl53l1_hist_algos_gen3.c **** 	VL53L1_p_015  = (int16_t)i;
 521:Drivers/BSP/Components/vl53l1cb/modules/vl53l1_hist_algos_gen3.c **** 	VL53L1_p_015 += (int16_t)pdata->VL53L1_p_015;
 522:Drivers/BSP/Components/vl53l1cb/modules/vl53l1_hist_algos_gen3.c **** 	VL53L1_p_015 -= (int16_t)pdata->VL53L1_p_025;
 523:Drivers/BSP/Components/vl53l1cb/modules/vl53l1_hist_algos_gen3.c **** 
 524:Drivers/BSP/Components/vl53l1cb/modules/vl53l1_hist_algos_gen3.c **** 	VL53L1_p_016    = (int16_t)i;
 525:Drivers/BSP/Components/vl53l1cb/modules/vl53l1_hist_algos_gen3.c **** 	VL53L1_p_016   += (int16_t)pdata->VL53L1_p_016;
ARM GAS  C:\Temp\cc80ShlR.s 			page 35


 526:Drivers/BSP/Components/vl53l1cb/modules/vl53l1_hist_algos_gen3.c **** 	VL53L1_p_016   -= (int16_t)pdata->VL53L1_p_025;
 527:Drivers/BSP/Components/vl53l1cb/modules/vl53l1_hist_algos_gen3.c **** 
 528:Drivers/BSP/Components/vl53l1cb/modules/vl53l1_hist_algos_gen3.c **** 
 529:Drivers/BSP/Components/vl53l1cb/modules/vl53l1_hist_algos_gen3.c **** 	window_width = VL53L1_p_016 - VL53L1_p_015;
 530:Drivers/BSP/Components/vl53l1cb/modules/vl53l1_hist_algos_gen3.c **** 	if (window_width > 3)
 531:Drivers/BSP/Components/vl53l1cb/modules/vl53l1_hist_algos_gen3.c **** 		window_width = 3;
 532:Drivers/BSP/Components/vl53l1cb/modules/vl53l1_hist_algos_gen3.c **** 
 533:Drivers/BSP/Components/vl53l1cb/modules/vl53l1_hist_algos_gen3.c **** 	status =
 534:Drivers/BSP/Components/vl53l1cb/modules/vl53l1_hist_algos_gen3.c **** 		VL53L1_f_030(
 535:Drivers/BSP/Components/vl53l1cb/modules/vl53l1_hist_algos_gen3.c **** 			VL53L1_p_015,
 536:Drivers/BSP/Components/vl53l1cb/modules/vl53l1_hist_algos_gen3.c **** 			VL53L1_p_015 + window_width,
 537:Drivers/BSP/Components/vl53l1cb/modules/vl53l1_hist_algos_gen3.c **** 			palgo->VL53L1_p_031,
 538:Drivers/BSP/Components/vl53l1cb/modules/vl53l1_hist_algos_gen3.c **** 			clip_events,
 539:Drivers/BSP/Components/vl53l1cb/modules/vl53l1_hist_algos_gen3.c **** 			pbins,
 540:Drivers/BSP/Components/vl53l1cb/modules/vl53l1_hist_algos_gen3.c **** 			&(pdata->VL53L1_p_028));
 541:Drivers/BSP/Components/vl53l1cb/modules/vl53l1_hist_algos_gen3.c **** 
 542:Drivers/BSP/Components/vl53l1cb/modules/vl53l1_hist_algos_gen3.c **** 
 543:Drivers/BSP/Components/vl53l1cb/modules/vl53l1_hist_algos_gen3.c **** 	if (status == VL53L1_ERROR_NONE)
 544:Drivers/BSP/Components/vl53l1cb/modules/vl53l1_hist_algos_gen3.c **** 		status =
 545:Drivers/BSP/Components/vl53l1cb/modules/vl53l1_hist_algos_gen3.c **** 			VL53L1_f_030(
 546:Drivers/BSP/Components/vl53l1cb/modules/vl53l1_hist_algos_gen3.c **** 				VL53L1_p_016 - window_width,
 547:Drivers/BSP/Components/vl53l1cb/modules/vl53l1_hist_algos_gen3.c **** 				VL53L1_p_016,
 548:Drivers/BSP/Components/vl53l1cb/modules/vl53l1_hist_algos_gen3.c **** 				palgo->VL53L1_p_031,
 549:Drivers/BSP/Components/vl53l1cb/modules/vl53l1_hist_algos_gen3.c **** 				clip_events,
 550:Drivers/BSP/Components/vl53l1cb/modules/vl53l1_hist_algos_gen3.c **** 				pbins,
 551:Drivers/BSP/Components/vl53l1cb/modules/vl53l1_hist_algos_gen3.c **** 				&(pdata->VL53L1_p_029));
 552:Drivers/BSP/Components/vl53l1cb/modules/vl53l1_hist_algos_gen3.c **** 
 553:Drivers/BSP/Components/vl53l1cb/modules/vl53l1_hist_algos_gen3.c **** 
 554:Drivers/BSP/Components/vl53l1cb/modules/vl53l1_hist_algos_gen3.c **** 	if (pdata->VL53L1_p_028 > pdata->VL53L1_p_029) {
 555:Drivers/BSP/Components/vl53l1cb/modules/vl53l1_hist_algos_gen3.c **** 		tmp_phase        = pdata->VL53L1_p_028;
 556:Drivers/BSP/Components/vl53l1cb/modules/vl53l1_hist_algos_gen3.c **** 		pdata->VL53L1_p_028 = pdata->VL53L1_p_029;
 557:Drivers/BSP/Components/vl53l1cb/modules/vl53l1_hist_algos_gen3.c **** 		pdata->VL53L1_p_029 = tmp_phase;
 558:Drivers/BSP/Components/vl53l1cb/modules/vl53l1_hist_algos_gen3.c **** 	}
 559:Drivers/BSP/Components/vl53l1cb/modules/vl53l1_hist_algos_gen3.c **** 
 560:Drivers/BSP/Components/vl53l1cb/modules/vl53l1_hist_algos_gen3.c **** 
 561:Drivers/BSP/Components/vl53l1cb/modules/vl53l1_hist_algos_gen3.c **** 	if (pdata->VL53L1_p_014 < pdata->VL53L1_p_028)
 562:Drivers/BSP/Components/vl53l1cb/modules/vl53l1_hist_algos_gen3.c **** 		pdata->VL53L1_p_028 = pdata->VL53L1_p_014;
 563:Drivers/BSP/Components/vl53l1cb/modules/vl53l1_hist_algos_gen3.c **** 
 564:Drivers/BSP/Components/vl53l1cb/modules/vl53l1_hist_algos_gen3.c **** 
 565:Drivers/BSP/Components/vl53l1cb/modules/vl53l1_hist_algos_gen3.c **** 	if (pdata->VL53L1_p_014 > pdata->VL53L1_p_029)
 566:Drivers/BSP/Components/vl53l1cb/modules/vl53l1_hist_algos_gen3.c **** 		pdata->VL53L1_p_029 = pdata->VL53L1_p_014;
 567:Drivers/BSP/Components/vl53l1cb/modules/vl53l1_hist_algos_gen3.c **** 
 568:Drivers/BSP/Components/vl53l1cb/modules/vl53l1_hist_algos_gen3.c **** 	LOG_FUNCTION_END(status);
 569:Drivers/BSP/Components/vl53l1cb/modules/vl53l1_hist_algos_gen3.c **** 
 570:Drivers/BSP/Components/vl53l1cb/modules/vl53l1_hist_algos_gen3.c **** 	return status;
 571:Drivers/BSP/Components/vl53l1cb/modules/vl53l1_hist_algos_gen3.c **** }
 572:Drivers/BSP/Components/vl53l1cb/modules/vl53l1_hist_algos_gen3.c **** 
 573:Drivers/BSP/Components/vl53l1cb/modules/vl53l1_hist_algos_gen3.c **** 
 574:Drivers/BSP/Components/vl53l1cb/modules/vl53l1_hist_algos_gen3.c **** VL53L1_Error VL53L1_f_030(
 575:Drivers/BSP/Components/vl53l1cb/modules/vl53l1_hist_algos_gen3.c **** 	int16_t                            VL53L1_p_022,
 576:Drivers/BSP/Components/vl53l1cb/modules/vl53l1_hist_algos_gen3.c **** 	int16_t                            VL53L1_p_026,
 577:Drivers/BSP/Components/vl53l1cb/modules/vl53l1_hist_algos_gen3.c **** 	uint8_t                            VL53L1_p_031,
 578:Drivers/BSP/Components/vl53l1cb/modules/vl53l1_hist_algos_gen3.c **** 	uint8_t                            clip_events,
 579:Drivers/BSP/Components/vl53l1cb/modules/vl53l1_hist_algos_gen3.c **** 	VL53L1_histogram_bin_data_t       *pbins,
 580:Drivers/BSP/Components/vl53l1cb/modules/vl53l1_hist_algos_gen3.c **** 	uint32_t                          *pphase)
 581:Drivers/BSP/Components/vl53l1cb/modules/vl53l1_hist_algos_gen3.c **** {
 1317              		.loc 1 581 1 is_stmt 1 view -0
ARM GAS  C:\Temp\cc80ShlR.s 			page 36


 1318              		.cfi_startproc
 1319              		@ args = 8, pretend = 0, frame = 0
 1320              		@ frame_needed = 0, uses_anonymous_args = 0
 1321              		.loc 1 581 1 is_stmt 0 view .LVU452
 1322 0000 2DE9F84F 		push	{r3, r4, r5, r6, r7, r8, r9, r10, fp, lr}
 1323              		.cfi_def_cfa_offset 40
 1324              		.cfi_offset 3, -40
 1325              		.cfi_offset 4, -36
 1326              		.cfi_offset 5, -32
 1327              		.cfi_offset 6, -28
 1328              		.cfi_offset 7, -24
 1329              		.cfi_offset 8, -20
 1330              		.cfi_offset 9, -16
 1331              		.cfi_offset 10, -12
 1332              		.cfi_offset 11, -8
 1333              		.cfi_offset 14, -4
 1334 0004 1C46     		mov	r4, r3
 1335 0006 0A9F     		ldr	r7, [sp, #40]
 1336 0008 DDF82C80 		ldr	r8, [sp, #44]
 582:Drivers/BSP/Components/vl53l1cb/modules/vl53l1_hist_algos_gen3.c **** 
 583:Drivers/BSP/Components/vl53l1cb/modules/vl53l1_hist_algos_gen3.c **** 
 584:Drivers/BSP/Components/vl53l1cb/modules/vl53l1_hist_algos_gen3.c **** 	VL53L1_Error  status  = VL53L1_ERROR_NONE;
 1337              		.loc 1 584 2 is_stmt 1 view .LVU453
 1338              	.LVL127:
 585:Drivers/BSP/Components/vl53l1cb/modules/vl53l1_hist_algos_gen3.c **** 
 586:Drivers/BSP/Components/vl53l1cb/modules/vl53l1_hist_algos_gen3.c **** 	int16_t  i            = 0;
 1339              		.loc 1 586 2 view .LVU454
 587:Drivers/BSP/Components/vl53l1cb/modules/vl53l1_hist_algos_gen3.c **** 	int16_t  lb            = 0;
 1340              		.loc 1 587 2 view .LVU455
 588:Drivers/BSP/Components/vl53l1cb/modules/vl53l1_hist_algos_gen3.c **** 
 589:Drivers/BSP/Components/vl53l1cb/modules/vl53l1_hist_algos_gen3.c **** 	int64_t VL53L1_p_008        = 0;
 1341              		.loc 1 589 2 view .LVU456
 590:Drivers/BSP/Components/vl53l1cb/modules/vl53l1_hist_algos_gen3.c **** 	int64_t event_sum     = 0;
 1342              		.loc 1 590 2 view .LVU457
 591:Drivers/BSP/Components/vl53l1cb/modules/vl53l1_hist_algos_gen3.c **** 	int64_t weighted_sum  = 0;
 1343              		.loc 1 591 2 view .LVU458
 592:Drivers/BSP/Components/vl53l1cb/modules/vl53l1_hist_algos_gen3.c **** 
 593:Drivers/BSP/Components/vl53l1cb/modules/vl53l1_hist_algos_gen3.c **** 	LOG_FUNCTION_START("");
 1344              		.loc 1 593 24 view .LVU459
 594:Drivers/BSP/Components/vl53l1cb/modules/vl53l1_hist_algos_gen3.c **** 
 595:Drivers/BSP/Components/vl53l1cb/modules/vl53l1_hist_algos_gen3.c **** 	*pphase = VL53L1_MAX_ALLOWED_PHASE;
 1345              		.loc 1 595 2 view .LVU460
 1346              		.loc 1 595 10 is_stmt 0 view .LVU461
 1347 000c 4FF6FF73 		movw	r3, #65535
 1348              	.LVL128:
 1349              		.loc 1 595 10 view .LVU462
 1350 0010 C8F80030 		str	r3, [r8]
 596:Drivers/BSP/Components/vl53l1cb/modules/vl53l1_hist_algos_gen3.c **** 
 597:Drivers/BSP/Components/vl53l1cb/modules/vl53l1_hist_algos_gen3.c **** 	if (VL53L1_p_031 != 0)
 1351              		.loc 1 597 2 is_stmt 1 view .LVU463
 1352              		.loc 1 597 5 is_stmt 0 view .LVU464
 1353 0014 002A     		cmp	r2, #0
 1354 0016 49D1     		bne	.L80
 1355              	.LVL129:
 1356              	.L73:
 598:Drivers/BSP/Components/vl53l1cb/modules/vl53l1_hist_algos_gen3.c **** 	for (lb = VL53L1_p_022; lb <= VL53L1_p_026; lb++) {
 599:Drivers/BSP/Components/vl53l1cb/modules/vl53l1_hist_algos_gen3.c **** 
ARM GAS  C:\Temp\cc80ShlR.s 			page 37


 600:Drivers/BSP/Components/vl53l1cb/modules/vl53l1_hist_algos_gen3.c **** 		if (lb < 0)
 601:Drivers/BSP/Components/vl53l1cb/modules/vl53l1_hist_algos_gen3.c **** 			i = lb + (int16_t)VL53L1_p_031;
 602:Drivers/BSP/Components/vl53l1cb/modules/vl53l1_hist_algos_gen3.c **** 		else
 603:Drivers/BSP/Components/vl53l1cb/modules/vl53l1_hist_algos_gen3.c **** 			i = lb % (int16_t)VL53L1_p_031;
 604:Drivers/BSP/Components/vl53l1cb/modules/vl53l1_hist_algos_gen3.c **** 
 605:Drivers/BSP/Components/vl53l1cb/modules/vl53l1_hist_algos_gen3.c **** 		if ((i >= 0) && (i < VL53L1_HISTOGRAM_BUFFER_SIZE)) {
 606:Drivers/BSP/Components/vl53l1cb/modules/vl53l1_hist_algos_gen3.c **** 			VL53L1_p_008 =
 607:Drivers/BSP/Components/vl53l1cb/modules/vl53l1_hist_algos_gen3.c **** 				(int64_t)pbins->bin_data[i] -
 608:Drivers/BSP/Components/vl53l1cb/modules/vl53l1_hist_algos_gen3.c **** 				(int64_t)pbins->VL53L1_p_004;
 609:Drivers/BSP/Components/vl53l1cb/modules/vl53l1_hist_algos_gen3.c **** 
 610:Drivers/BSP/Components/vl53l1cb/modules/vl53l1_hist_algos_gen3.c **** 			if (clip_events > 0 && VL53L1_p_008 < 0)
 611:Drivers/BSP/Components/vl53l1cb/modules/vl53l1_hist_algos_gen3.c **** 				VL53L1_p_008 = 0;
 612:Drivers/BSP/Components/vl53l1cb/modules/vl53l1_hist_algos_gen3.c **** 			event_sum += VL53L1_p_008;
 613:Drivers/BSP/Components/vl53l1cb/modules/vl53l1_hist_algos_gen3.c **** 			weighted_sum +=
 614:Drivers/BSP/Components/vl53l1cb/modules/vl53l1_hist_algos_gen3.c **** 				(VL53L1_p_008 * (1024 + (2048*(int64_t)lb)));
 615:Drivers/BSP/Components/vl53l1cb/modules/vl53l1_hist_algos_gen3.c **** 		}
 616:Drivers/BSP/Components/vl53l1cb/modules/vl53l1_hist_algos_gen3.c **** 
 617:Drivers/BSP/Components/vl53l1cb/modules/vl53l1_hist_algos_gen3.c **** 		trace_print(
 618:Drivers/BSP/Components/vl53l1cb/modules/vl53l1_hist_algos_gen3.c **** 			VL53L1_TRACE_LEVEL_INFO,
 619:Drivers/BSP/Components/vl53l1cb/modules/vl53l1_hist_algos_gen3.c **** 			"\tb = %5d : i = %5d : VL53L1_p_008 = %8d,",
 620:Drivers/BSP/Components/vl53l1cb/modules/vl53l1_hist_algos_gen3.c **** 			lb, i, VL53L1_p_008);
 621:Drivers/BSP/Components/vl53l1cb/modules/vl53l1_hist_algos_gen3.c **** 
 622:Drivers/BSP/Components/vl53l1cb/modules/vl53l1_hist_algos_gen3.c **** 		trace_print(
 623:Drivers/BSP/Components/vl53l1cb/modules/vl53l1_hist_algos_gen3.c **** 			VL53L1_TRACE_LEVEL_INFO,
 624:Drivers/BSP/Components/vl53l1cb/modules/vl53l1_hist_algos_gen3.c **** 			" event_sum = %8d, weighted_sum = %8d\n",
 625:Drivers/BSP/Components/vl53l1cb/modules/vl53l1_hist_algos_gen3.c **** 			event_sum, weighted_sum);
 626:Drivers/BSP/Components/vl53l1cb/modules/vl53l1_hist_algos_gen3.c **** 	}
 627:Drivers/BSP/Components/vl53l1cb/modules/vl53l1_hist_algos_gen3.c **** 
 628:Drivers/BSP/Components/vl53l1cb/modules/vl53l1_hist_algos_gen3.c **** 	if (event_sum  > 0) {
 629:Drivers/BSP/Components/vl53l1cb/modules/vl53l1_hist_algos_gen3.c **** 		weighted_sum += do_division_s(event_sum, 2);
 630:Drivers/BSP/Components/vl53l1cb/modules/vl53l1_hist_algos_gen3.c **** 		weighted_sum = do_division_s(weighted_sum, event_sum);
 631:Drivers/BSP/Components/vl53l1cb/modules/vl53l1_hist_algos_gen3.c **** 		if (weighted_sum < 0)
 632:Drivers/BSP/Components/vl53l1cb/modules/vl53l1_hist_algos_gen3.c **** 			weighted_sum = 0;
 633:Drivers/BSP/Components/vl53l1cb/modules/vl53l1_hist_algos_gen3.c **** 		*pphase = (uint32_t)weighted_sum;
 634:Drivers/BSP/Components/vl53l1cb/modules/vl53l1_hist_algos_gen3.c **** 	}
 635:Drivers/BSP/Components/vl53l1cb/modules/vl53l1_hist_algos_gen3.c **** 
 636:Drivers/BSP/Components/vl53l1cb/modules/vl53l1_hist_algos_gen3.c **** 	LOG_FUNCTION_END(status);
 1357              		.loc 1 636 26 is_stmt 1 view .LVU465
 637:Drivers/BSP/Components/vl53l1cb/modules/vl53l1_hist_algos_gen3.c **** 
 638:Drivers/BSP/Components/vl53l1cb/modules/vl53l1_hist_algos_gen3.c **** 	return status;
 1358              		.loc 1 638 2 view .LVU466
 639:Drivers/BSP/Components/vl53l1cb/modules/vl53l1_hist_algos_gen3.c **** }
 1359              		.loc 1 639 1 is_stmt 0 view .LVU467
 1360 0018 0020     		movs	r0, #0
 1361 001a BDE8F88F 		pop	{r3, r4, r5, r6, r7, r8, r9, r10, fp, pc}
 1362              	.LVL130:
 1363              	.L85:
 601:Drivers/BSP/Components/vl53l1cb/modules/vl53l1_hist_algos_gen3.c **** 		else
 1364              		.loc 1 601 4 is_stmt 1 view .LVU468
 601:Drivers/BSP/Components/vl53l1cb/modules/vl53l1_hist_algos_gen3.c **** 		else
 1365              		.loc 1 601 11 is_stmt 0 view .LVU469
 1366 001e 05EB000C 		add	ip, r5, r0
 601:Drivers/BSP/Components/vl53l1cb/modules/vl53l1_hist_algos_gen3.c **** 		else
 1367              		.loc 1 601 6 view .LVU470
 1368 0022 0FFA8CFC 		sxth	ip, ip
 1369              	.LVL131:
 601:Drivers/BSP/Components/vl53l1cb/modules/vl53l1_hist_algos_gen3.c **** 		else
ARM GAS  C:\Temp\cc80ShlR.s 			page 38


 1370              		.loc 1 601 6 view .LVU471
 1371 0026 27E0     		b	.L75
 1372              	.LVL132:
 1373              	.L77:
 612:Drivers/BSP/Components/vl53l1cb/modules/vl53l1_hist_algos_gen3.c **** 			weighted_sum +=
 1374              		.loc 1 612 4 is_stmt 1 view .LVU472
 612:Drivers/BSP/Components/vl53l1cb/modules/vl53l1_hist_algos_gen3.c **** 			weighted_sum +=
 1375              		.loc 1 612 14 is_stmt 0 view .LVU473
 1376 0028 19EB0202 		adds	r2, r9, r2
 1377              	.LVL133:
 612:Drivers/BSP/Components/vl53l1cb/modules/vl53l1_hist_algos_gen3.c **** 			weighted_sum +=
 1378              		.loc 1 612 14 view .LVU474
 1379 002c 4AEB0303 		adc	r3, r10, r3
 1380              	.LVL134:
 613:Drivers/BSP/Components/vl53l1cb/modules/vl53l1_hist_algos_gen3.c **** 				(VL53L1_p_008 * (1024 + (2048*(int64_t)lb)));
 1381              		.loc 1 613 4 is_stmt 1 view .LVU475
 614:Drivers/BSP/Components/vl53l1cb/modules/vl53l1_hist_algos_gen3.c **** 		}
 1382              		.loc 1 614 35 is_stmt 0 view .LVU476
 1383 0030 4FEAE07B 		asr	fp, r0, #31
 614:Drivers/BSP/Components/vl53l1cb/modules/vl53l1_hist_algos_gen3.c **** 		}
 1384              		.loc 1 614 34 view .LVU477
 1385 0034 4FEACB2B 		lsl	fp, fp, #11
 1386 0038 4BEA505B 		orr	fp, fp, r0, lsr #21
 1387 003c 4FEAC02C 		lsl	ip, r0, #11
 614:Drivers/BSP/Components/vl53l1cb/modules/vl53l1_hist_algos_gen3.c **** 		}
 1388              		.loc 1 614 27 view .LVU478
 1389 0040 1CF5806C 		adds	ip, ip, #1024
 1390 0044 4BF1000B 		adc	fp, fp, #0
 614:Drivers/BSP/Components/vl53l1cb/modules/vl53l1_hist_algos_gen3.c **** 		}
 1391              		.loc 1 614 19 view .LVU479
 1392 0048 0CFB0AFA 		mul	r10, ip, r10
 1393              	.LVL135:
 614:Drivers/BSP/Components/vl53l1cb/modules/vl53l1_hist_algos_gen3.c **** 		}
 1394              		.loc 1 614 19 view .LVU480
 1395 004c 09FB0BAA 		mla	r10, r9, fp, r10
 1396 0050 ACFB09C9 		umull	ip, r9, ip, r9
 614:Drivers/BSP/Components/vl53l1cb/modules/vl53l1_hist_algos_gen3.c **** 		}
 1397              		.loc 1 614 19 view .LVU481
 1398 0054 CA44     		add	r10, r10, r9
 613:Drivers/BSP/Components/vl53l1cb/modules/vl53l1_hist_algos_gen3.c **** 				(VL53L1_p_008 * (1024 + (2048*(int64_t)lb)));
 1399              		.loc 1 613 17 view .LVU482
 1400 0056 1CEB0E0C 		adds	ip, ip, lr
 1401 005a E646     		mov	lr, ip
 1402              	.LVL136:
 613:Drivers/BSP/Components/vl53l1cb/modules/vl53l1_hist_algos_gen3.c **** 				(VL53L1_p_008 * (1024 + (2048*(int64_t)lb)));
 1403              		.loc 1 613 17 view .LVU483
 1404 005c 4AEB0606 		adc	r6, r10, r6
 1405              	.LVL137:
 1406              	.L76:
 620:Drivers/BSP/Components/vl53l1cb/modules/vl53l1_hist_algos_gen3.c **** 
 1407              		.loc 1 620 24 is_stmt 1 discriminator 2 view .LVU484
 625:Drivers/BSP/Components/vl53l1cb/modules/vl53l1_hist_algos_gen3.c **** 	}
 1408              		.loc 1 625 28 discriminator 2 view .LVU485
 598:Drivers/BSP/Components/vl53l1cb/modules/vl53l1_hist_algos_gen3.c **** 
 1409              		.loc 1 598 48 discriminator 2 view .LVU486
 1410 0060 0130     		adds	r0, r0, #1
 1411              	.LVL138:
ARM GAS  C:\Temp\cc80ShlR.s 			page 39


 598:Drivers/BSP/Components/vl53l1cb/modules/vl53l1_hist_algos_gen3.c **** 
 1412              		.loc 1 598 48 is_stmt 0 discriminator 2 view .LVU487
 1413 0062 00B2     		sxth	r0, r0
 1414              	.LVL139:
 1415              	.L72:
 598:Drivers/BSP/Components/vl53l1cb/modules/vl53l1_hist_algos_gen3.c **** 
 1416              		.loc 1 598 29 is_stmt 1 discriminator 1 view .LVU488
 1417 0064 8842     		cmp	r0, r1
 1418 0066 28DC     		bgt	.L84
 600:Drivers/BSP/Components/vl53l1cb/modules/vl53l1_hist_algos_gen3.c **** 			i = lb + (int16_t)VL53L1_p_031;
 1419              		.loc 1 600 3 view .LVU489
 600:Drivers/BSP/Components/vl53l1cb/modules/vl53l1_hist_algos_gen3.c **** 			i = lb + (int16_t)VL53L1_p_031;
 1420              		.loc 1 600 6 is_stmt 0 view .LVU490
 1421 0068 0028     		cmp	r0, #0
 1422 006a D8DB     		blt	.L85
 603:Drivers/BSP/Components/vl53l1cb/modules/vl53l1_hist_algos_gen3.c **** 
 1423              		.loc 1 603 4 is_stmt 1 view .LVU491
 603:Drivers/BSP/Components/vl53l1cb/modules/vl53l1_hist_algos_gen3.c **** 
 1424              		.loc 1 603 11 is_stmt 0 view .LVU492
 1425 006c 90FBF5FC 		sdiv	ip, r0, r5
 1426 0070 05FB1C0C 		mls	ip, r5, ip, r0
 603:Drivers/BSP/Components/vl53l1cb/modules/vl53l1_hist_algos_gen3.c **** 
 1427              		.loc 1 603 6 view .LVU493
 1428 0074 0FFA8CFC 		sxth	ip, ip
 1429              	.LVL140:
 1430              	.L75:
 605:Drivers/BSP/Components/vl53l1cb/modules/vl53l1_hist_algos_gen3.c **** 			VL53L1_p_008 =
 1431              		.loc 1 605 3 is_stmt 1 view .LVU494
 605:Drivers/BSP/Components/vl53l1cb/modules/vl53l1_hist_algos_gen3.c **** 			VL53L1_p_008 =
 1432              		.loc 1 605 16 is_stmt 0 view .LVU495
 1433 0078 1FFA8CF9 		uxth	r9, ip
 605:Drivers/BSP/Components/vl53l1cb/modules/vl53l1_hist_algos_gen3.c **** 			VL53L1_p_008 =
 1434              		.loc 1 605 6 view .LVU496
 1435 007c B9F1170F 		cmp	r9, #23
 1436 0080 EED8     		bhi	.L76
 606:Drivers/BSP/Components/vl53l1cb/modules/vl53l1_hist_algos_gen3.c **** 				(int64_t)pbins->bin_data[i] -
 1437              		.loc 1 606 4 is_stmt 1 view .LVU497
 607:Drivers/BSP/Components/vl53l1cb/modules/vl53l1_hist_algos_gen3.c **** 				(int64_t)pbins->VL53L1_p_004;
 1438              		.loc 1 607 29 is_stmt 0 view .LVU498
 1439 0082 0CF1060C 		add	ip, ip, #6
 1440              	.LVL141:
 607:Drivers/BSP/Components/vl53l1cb/modules/vl53l1_hist_algos_gen3.c **** 				(int64_t)pbins->VL53L1_p_004;
 1441              		.loc 1 607 29 view .LVU499
 1442 0086 57F82C90 		ldr	r9, [r7, ip, lsl #2]
 1443              	.LVL142:
 607:Drivers/BSP/Components/vl53l1cb/modules/vl53l1_hist_algos_gen3.c **** 				(int64_t)pbins->VL53L1_p_004;
 1444              		.loc 1 607 5 view .LVU500
 1445 008a 4FEAE97A 		asr	r10, r9, #31
 608:Drivers/BSP/Components/vl53l1cb/modules/vl53l1_hist_algos_gen3.c **** 
 1446              		.loc 1 608 19 view .LVU501
 1447 008e D7F8A4C0 		ldr	ip, [r7, #164]
 606:Drivers/BSP/Components/vl53l1cb/modules/vl53l1_hist_algos_gen3.c **** 				(int64_t)pbins->bin_data[i] -
 1448              		.loc 1 606 17 view .LVU502
 1449 0092 B9EB0C09 		subs	r9, r9, ip
 1450 0096 6AEBEC7A 		sbc	r10, r10, ip, asr #31
 1451              	.LVL143:
 610:Drivers/BSP/Components/vl53l1cb/modules/vl53l1_hist_algos_gen3.c **** 				VL53L1_p_008 = 0;
ARM GAS  C:\Temp\cc80ShlR.s 			page 40


 1452              		.loc 1 610 4 is_stmt 1 view .LVU503
 610:Drivers/BSP/Components/vl53l1cb/modules/vl53l1_hist_algos_gen3.c **** 				VL53L1_p_008 = 0;
 1453              		.loc 1 610 7 is_stmt 0 view .LVU504
 1454 009a 002C     		cmp	r4, #0
 1455 009c C4D0     		beq	.L77
 610:Drivers/BSP/Components/vl53l1cb/modules/vl53l1_hist_algos_gen3.c **** 				VL53L1_p_008 = 0;
 1456              		.loc 1 610 24 discriminator 1 view .LVU505
 1457 009e BAF1000F 		cmp	r10, #0
 1458 00a2 C1DA     		bge	.L77
 611:Drivers/BSP/Components/vl53l1cb/modules/vl53l1_hist_algos_gen3.c **** 			event_sum += VL53L1_p_008;
 1459              		.loc 1 611 18 view .LVU506
 1460 00a4 4FF00009 		mov	r9, #0
 1461              	.LVL144:
 611:Drivers/BSP/Components/vl53l1cb/modules/vl53l1_hist_algos_gen3.c **** 			event_sum += VL53L1_p_008;
 1462              		.loc 1 611 18 view .LVU507
 1463 00a8 CA46     		mov	r10, r9
 1464 00aa BDE7     		b	.L77
 1465              	.LVL145:
 1466              	.L80:
 611:Drivers/BSP/Components/vl53l1cb/modules/vl53l1_hist_algos_gen3.c **** 			event_sum += VL53L1_p_008;
 1467              		.loc 1 611 18 view .LVU508
 1468 00ac 1546     		mov	r5, r2
 591:Drivers/BSP/Components/vl53l1cb/modules/vl53l1_hist_algos_gen3.c **** 
 1469              		.loc 1 591 10 view .LVU509
 1470 00ae 4FF0000E 		mov	lr, #0
 1471 00b2 7646     		mov	r6, lr
 590:Drivers/BSP/Components/vl53l1cb/modules/vl53l1_hist_algos_gen3.c **** 	int64_t weighted_sum  = 0;
 1472              		.loc 1 590 10 view .LVU510
 1473 00b4 7246     		mov	r2, lr
 1474              	.LVL146:
 590:Drivers/BSP/Components/vl53l1cb/modules/vl53l1_hist_algos_gen3.c **** 	int64_t weighted_sum  = 0;
 1475              		.loc 1 590 10 view .LVU511
 1476 00b6 7346     		mov	r3, lr
 1477 00b8 D4E7     		b	.L72
 1478              	.LVL147:
 1479              	.L84:
 628:Drivers/BSP/Components/vl53l1cb/modules/vl53l1_hist_algos_gen3.c **** 		weighted_sum += do_division_s(event_sum, 2);
 1480              		.loc 1 628 2 is_stmt 1 view .LVU512
 628:Drivers/BSP/Components/vl53l1cb/modules/vl53l1_hist_algos_gen3.c **** 		weighted_sum += do_division_s(event_sum, 2);
 1481              		.loc 1 628 5 is_stmt 0 view .LVU513
 1482 00ba 012A     		cmp	r2, #1
 1483 00bc 73F10001 		sbcs	r1, r3, #0
 1484              	.LVL148:
 628:Drivers/BSP/Components/vl53l1cb/modules/vl53l1_hist_algos_gen3.c **** 		weighted_sum += do_division_s(event_sum, 2);
 1485              		.loc 1 628 5 view .LVU514
 1486 00c0 AADB     		blt	.L73
 629:Drivers/BSP/Components/vl53l1cb/modules/vl53l1_hist_algos_gen3.c **** 		weighted_sum = do_division_s(weighted_sum, event_sum);
 1487              		.loc 1 629 3 is_stmt 1 view .LVU515
 629:Drivers/BSP/Components/vl53l1cb/modules/vl53l1_hist_algos_gen3.c **** 		weighted_sum = do_division_s(weighted_sum, event_sum);
 1488              		.loc 1 629 19 is_stmt 0 view .LVU516
 1489 00c2 D80F     		lsrs	r0, r3, #31
 1490              	.LVL149:
 629:Drivers/BSP/Components/vl53l1cb/modules/vl53l1_hist_algos_gen3.c **** 		weighted_sum = do_division_s(weighted_sum, event_sum);
 1491              		.loc 1 629 19 view .LVU517
 1492 00c4 8018     		adds	r0, r0, r2
 1493 00c6 43F10001 		adc	r1, r3, #0
 1494 00ca 4008     		lsrs	r0, r0, #1
ARM GAS  C:\Temp\cc80ShlR.s 			page 41


 1495 00cc 40EAC170 		orr	r0, r0, r1, lsl #31
 629:Drivers/BSP/Components/vl53l1cb/modules/vl53l1_hist_algos_gen3.c **** 		weighted_sum = do_division_s(weighted_sum, event_sum);
 1496              		.loc 1 629 16 view .LVU518
 1497 00d0 10EB0E00 		adds	r0, r0, lr
 1498              	.LVL150:
 630:Drivers/BSP/Components/vl53l1cb/modules/vl53l1_hist_algos_gen3.c **** 		if (weighted_sum < 0)
 1499              		.loc 1 630 3 is_stmt 1 view .LVU519
 630:Drivers/BSP/Components/vl53l1cb/modules/vl53l1_hist_algos_gen3.c **** 		if (weighted_sum < 0)
 1500              		.loc 1 630 16 is_stmt 0 view .LVU520
 1501 00d4 46EB6101 		adc	r1, r6, r1, asr #1
 1502              	.LVL151:
 630:Drivers/BSP/Components/vl53l1cb/modules/vl53l1_hist_algos_gen3.c **** 		if (weighted_sum < 0)
 1503              		.loc 1 630 16 view .LVU521
 1504 00d8 FFF7FEFF 		bl	__aeabi_ldivmod
 1505              	.LVL152:
 631:Drivers/BSP/Components/vl53l1cb/modules/vl53l1_hist_algos_gen3.c **** 			weighted_sum = 0;
 1506              		.loc 1 631 3 is_stmt 1 view .LVU522
 631:Drivers/BSP/Components/vl53l1cb/modules/vl53l1_hist_algos_gen3.c **** 			weighted_sum = 0;
 1507              		.loc 1 631 6 is_stmt 0 view .LVU523
 1508 00dc 0029     		cmp	r1, #0
 1509 00de 02DB     		blt	.L86
 1510              	.LVL153:
 1511              	.L79:
 633:Drivers/BSP/Components/vl53l1cb/modules/vl53l1_hist_algos_gen3.c **** 	}
 1512              		.loc 1 633 3 is_stmt 1 view .LVU524
 633:Drivers/BSP/Components/vl53l1cb/modules/vl53l1_hist_algos_gen3.c **** 	}
 1513              		.loc 1 633 11 is_stmt 0 view .LVU525
 1514 00e0 C8F80000 		str	r0, [r8]
 1515 00e4 98E7     		b	.L73
 1516              	.LVL154:
 1517              	.L86:
 632:Drivers/BSP/Components/vl53l1cb/modules/vl53l1_hist_algos_gen3.c **** 		*pphase = (uint32_t)weighted_sum;
 1518              		.loc 1 632 17 view .LVU526
 1519 00e6 0020     		movs	r0, #0
 1520              	.LVL155:
 632:Drivers/BSP/Components/vl53l1cb/modules/vl53l1_hist_algos_gen3.c **** 		*pphase = (uint32_t)weighted_sum;
 1521              		.loc 1 632 17 view .LVU527
 1522 00e8 FAE7     		b	.L79
 1523              		.cfi_endproc
 1524              	.LFE11:
 1526              		.section	.text.VL53L1_f_027,"ax",%progbits
 1527              		.align	1
 1528              		.global	VL53L1_f_027
 1529              		.syntax unified
 1530              		.thumb
 1531              		.thumb_func
 1533              	VL53L1_f_027:
 1534              	.LVL156:
 1535              	.LFB10:
 498:Drivers/BSP/Components/vl53l1cb/modules/vl53l1_hist_algos_gen3.c **** 
 1536              		.loc 1 498 1 is_stmt 1 view -0
 1537              		.cfi_startproc
 1538              		@ args = 0, pretend = 0, frame = 0
 1539              		@ frame_needed = 0, uses_anonymous_args = 0
 498:Drivers/BSP/Components/vl53l1cb/modules/vl53l1_hist_algos_gen3.c **** 
 1540              		.loc 1 498 1 is_stmt 0 view .LVU529
 1541 0000 2DE9F047 		push	{r4, r5, r6, r7, r8, r9, r10, lr}
ARM GAS  C:\Temp\cc80ShlR.s 			page 42


 1542              		.cfi_def_cfa_offset 32
 1543              		.cfi_offset 4, -32
 1544              		.cfi_offset 5, -28
 1545              		.cfi_offset 6, -24
 1546              		.cfi_offset 7, -20
 1547              		.cfi_offset 8, -16
 1548              		.cfi_offset 9, -12
 1549              		.cfi_offset 10, -8
 1550              		.cfi_offset 14, -4
 1551 0004 82B0     		sub	sp, sp, #8
 1552              		.cfi_def_cfa_offset 40
 1553 0006 0446     		mov	r4, r0
 1554 0008 0F46     		mov	r7, r1
 1555 000a 9046     		mov	r8, r2
 1556 000c 1D46     		mov	r5, r3
 501:Drivers/BSP/Components/vl53l1cb/modules/vl53l1_hist_algos_gen3.c **** 
 1557              		.loc 1 501 2 is_stmt 1 view .LVU530
 1558              	.LVL157:
 503:Drivers/BSP/Components/vl53l1cb/modules/vl53l1_hist_algos_gen3.c **** 	int16_t   VL53L1_p_015 = 0;
 1559              		.loc 1 503 2 view .LVU531
 504:Drivers/BSP/Components/vl53l1cb/modules/vl53l1_hist_algos_gen3.c **** 	int16_t   VL53L1_p_016   = 0;
 1560              		.loc 1 504 2 view .LVU532
 505:Drivers/BSP/Components/vl53l1cb/modules/vl53l1_hist_algos_gen3.c **** 	int16_t   window_width = 0;
 1561              		.loc 1 505 2 view .LVU533
 506:Drivers/BSP/Components/vl53l1cb/modules/vl53l1_hist_algos_gen3.c **** 	uint32_t  tmp_phase    = 0;
 1562              		.loc 1 506 2 view .LVU534
 507:Drivers/BSP/Components/vl53l1cb/modules/vl53l1_hist_algos_gen3.c **** 
 1563              		.loc 1 507 2 view .LVU535
 509:Drivers/BSP/Components/vl53l1cb/modules/vl53l1_hist_algos_gen3.c **** 
 1564              		.loc 1 509 2 view .LVU536
 511:Drivers/BSP/Components/vl53l1cb/modules/vl53l1_hist_algos_gen3.c **** 
 1565              		.loc 1 511 24 view .LVU537
 515:Drivers/BSP/Components/vl53l1cb/modules/vl53l1_hist_algos_gen3.c **** 		pdata->VL53L1_p_025 = 1;
 1566              		.loc 1 515 2 view .LVU538
 515:Drivers/BSP/Components/vl53l1cb/modules/vl53l1_hist_algos_gen3.c **** 		pdata->VL53L1_p_025 = 1;
 1567              		.loc 1 515 11 is_stmt 0 view .LVU539
 1568 000e 00EBC003 		add	r3, r0, r0, lsl #3
 1569              	.LVL158:
 515:Drivers/BSP/Components/vl53l1cb/modules/vl53l1_hist_algos_gen3.c **** 		pdata->VL53L1_p_025 = 1;
 1570              		.loc 1 515 11 view .LVU540
 1571 0012 05EB8303 		add	r3, r5, r3, lsl #2
 1572 0016 93F87E31 		ldrb	r3, [r3, #382]	@ zero_extendqisi2
 515:Drivers/BSP/Components/vl53l1cb/modules/vl53l1_hist_algos_gen3.c **** 		pdata->VL53L1_p_025 = 1;
 1573              		.loc 1 515 5 view .LVU541
 1574 001a FF2B     		cmp	r3, #255
 1575 001c 67D0     		beq	.L96
 1576              	.LVL159:
 1577              	.L88:
 518:Drivers/BSP/Components/vl53l1cb/modules/vl53l1_hist_algos_gen3.c **** 
 1578              		.loc 1 518 2 is_stmt 1 view .LVU542
 518:Drivers/BSP/Components/vl53l1cb/modules/vl53l1_hist_algos_gen3.c **** 
 1579              		.loc 1 518 11 is_stmt 0 view .LVU543
 1580 001e 04EBC40E 		add	lr, r4, r4, lsl #3
 1581 0022 05EB8E0E 		add	lr, r5, lr, lsl #2
 1582 0026 9EF87EC1 		ldrb	ip, [lr, #382]	@ zero_extendqisi2
 518:Drivers/BSP/Components/vl53l1cb/modules/vl53l1_hist_algos_gen3.c **** 
 1583              		.loc 1 518 33 view .LVU544
ARM GAS  C:\Temp\cc80ShlR.s 			page 43


 1584 002a EA78     		ldrb	r2, [r5, #3]	@ zero_extendqisi2
 518:Drivers/BSP/Components/vl53l1cb/modules/vl53l1_hist_algos_gen3.c **** 
 1585              		.loc 1 518 4 view .LVU545
 1586 002c BCFBF2F6 		udiv	r6, ip, r2
 1587 0030 02FB16C6 		mls	r6, r2, r6, ip
 1588 0034 F6B2     		uxtb	r6, r6
 1589              	.LVL160:
 520:Drivers/BSP/Components/vl53l1cb/modules/vl53l1_hist_algos_gen3.c **** 	VL53L1_p_015 += (int16_t)pdata->VL53L1_p_015;
 1590              		.loc 1 520 2 is_stmt 1 view .LVU546
 521:Drivers/BSP/Components/vl53l1cb/modules/vl53l1_hist_algos_gen3.c **** 	VL53L1_p_015 -= (int16_t)pdata->VL53L1_p_025;
 1591              		.loc 1 521 2 view .LVU547
 521:Drivers/BSP/Components/vl53l1cb/modules/vl53l1_hist_algos_gen3.c **** 	VL53L1_p_015 -= (int16_t)pdata->VL53L1_p_025;
 1592              		.loc 1 521 32 is_stmt 0 view .LVU548
 1593 0036 9EF87C31 		ldrb	r3, [lr, #380]	@ zero_extendqisi2
 521:Drivers/BSP/Components/vl53l1cb/modules/vl53l1_hist_algos_gen3.c **** 	VL53L1_p_015 -= (int16_t)pdata->VL53L1_p_025;
 1594              		.loc 1 521 15 view .LVU549
 1595 003a 3344     		add	r3, r3, r6
 1596              	.LVL161:
 522:Drivers/BSP/Components/vl53l1cb/modules/vl53l1_hist_algos_gen3.c **** 
 1597              		.loc 1 522 2 is_stmt 1 view .LVU550
 522:Drivers/BSP/Components/vl53l1cb/modules/vl53l1_hist_algos_gen3.c **** 
 1598              		.loc 1 522 15 is_stmt 0 view .LVU551
 1599 003c A3EB0C00 		sub	r0, r3, ip
 1600              	.LVL162:
 522:Drivers/BSP/Components/vl53l1cb/modules/vl53l1_hist_algos_gen3.c **** 
 1601              		.loc 1 522 15 view .LVU552
 1602 0040 81B2     		uxth	r1, r0
 1603              	.LVL163:
 524:Drivers/BSP/Components/vl53l1cb/modules/vl53l1_hist_algos_gen3.c **** 	VL53L1_p_016   += (int16_t)pdata->VL53L1_p_016;
 1604              		.loc 1 524 2 is_stmt 1 view .LVU553
 525:Drivers/BSP/Components/vl53l1cb/modules/vl53l1_hist_algos_gen3.c **** 	VL53L1_p_016   -= (int16_t)pdata->VL53L1_p_025;
 1605              		.loc 1 525 2 view .LVU554
 525:Drivers/BSP/Components/vl53l1cb/modules/vl53l1_hist_algos_gen3.c **** 	VL53L1_p_016   -= (int16_t)pdata->VL53L1_p_025;
 1606              		.loc 1 525 34 is_stmt 0 view .LVU555
 1607 0042 9EF880E1 		ldrb	lr, [lr, #384]	@ zero_extendqisi2
 525:Drivers/BSP/Components/vl53l1cb/modules/vl53l1_hist_algos_gen3.c **** 	VL53L1_p_016   -= (int16_t)pdata->VL53L1_p_025;
 1608              		.loc 1 525 17 view .LVU556
 1609 0046 7644     		add	r6, r6, lr
 1610              	.LVL164:
 526:Drivers/BSP/Components/vl53l1cb/modules/vl53l1_hist_algos_gen3.c **** 
 1611              		.loc 1 526 2 is_stmt 1 view .LVU557
 526:Drivers/BSP/Components/vl53l1cb/modules/vl53l1_hist_algos_gen3.c **** 
 1612              		.loc 1 526 17 is_stmt 0 view .LVU558
 1613 0048 A6EB0C06 		sub	r6, r6, ip
 1614              	.LVL165:
 526:Drivers/BSP/Components/vl53l1cb/modules/vl53l1_hist_algos_gen3.c **** 
 1615              		.loc 1 526 17 view .LVU559
 1616 004c 1FFA86F9 		uxth	r9, r6
 1617              	.LVL166:
 529:Drivers/BSP/Components/vl53l1cb/modules/vl53l1_hist_algos_gen3.c **** 	if (window_width > 3)
 1618              		.loc 1 529 2 is_stmt 1 view .LVU560
 529:Drivers/BSP/Components/vl53l1cb/modules/vl53l1_hist_algos_gen3.c **** 	if (window_width > 3)
 1619              		.loc 1 529 30 is_stmt 0 view .LVU561
 1620 0050 ACEB030C 		sub	ip, ip, r3
 1621              	.LVL167:
 529:Drivers/BSP/Components/vl53l1cb/modules/vl53l1_hist_algos_gen3.c **** 	if (window_width > 3)
 1622              		.loc 1 529 30 view .LVU562
ARM GAS  C:\Temp\cc80ShlR.s 			page 44


 1623 0054 CC44     		add	ip, ip, r9
 529:Drivers/BSP/Components/vl53l1cb/modules/vl53l1_hist_algos_gen3.c **** 	if (window_width > 3)
 1624              		.loc 1 529 15 view .LVU563
 1625 0056 0FFA8CFC 		sxth	ip, ip
 1626              	.LVL168:
 530:Drivers/BSP/Components/vl53l1cb/modules/vl53l1_hist_algos_gen3.c **** 		window_width = 3;
 1627              		.loc 1 530 2 is_stmt 1 view .LVU564
 530:Drivers/BSP/Components/vl53l1cb/modules/vl53l1_hist_algos_gen3.c **** 		window_width = 3;
 1628              		.loc 1 530 5 is_stmt 0 view .LVU565
 1629 005a BCF1030F 		cmp	ip, #3
 1630 005e 01DD     		ble	.L89
 531:Drivers/BSP/Components/vl53l1cb/modules/vl53l1_hist_algos_gen3.c **** 
 1631              		.loc 1 531 16 view .LVU566
 1632 0060 4FF0030C 		mov	ip, #3
 1633              	.LVL169:
 1634              	.L89:
 533:Drivers/BSP/Components/vl53l1cb/modules/vl53l1_hist_algos_gen3.c **** 		VL53L1_f_030(
 1635              		.loc 1 533 2 is_stmt 1 view .LVU567
 536:Drivers/BSP/Components/vl53l1cb/modules/vl53l1_hist_algos_gen3.c **** 			palgo->VL53L1_p_031,
 1636              		.loc 1 536 17 is_stmt 0 view .LVU568
 1637 0064 1FFA8CFA 		uxth	r10, ip
 1638 0068 5144     		add	r1, r1, r10
 534:Drivers/BSP/Components/vl53l1cb/modules/vl53l1_hist_algos_gen3.c **** 			VL53L1_p_015,
 1639              		.loc 1 534 3 view .LVU569
 1640 006a 04EBC403 		add	r3, r4, r4, lsl #3
 1641 006e 9B00     		lsls	r3, r3, #2
 1642 0070 03F5C473 		add	r3, r3, #392
 1643 0074 2B44     		add	r3, r3, r5
 1644 0076 0833     		adds	r3, r3, #8
 1645 0078 0193     		str	r3, [sp, #4]
 1646              	.LVL170:
 534:Drivers/BSP/Components/vl53l1cb/modules/vl53l1_hist_algos_gen3.c **** 			VL53L1_p_015,
 1647              		.loc 1 534 3 view .LVU570
 1648 007a CDF80080 		str	r8, [sp]
 1649 007e 3B46     		mov	r3, r7
 1650 0080 09B2     		sxth	r1, r1
 1651 0082 FFF7FEFF 		bl	VL53L1_f_030
 1652              	.LVL171:
 543:Drivers/BSP/Components/vl53l1cb/modules/vl53l1_hist_algos_gen3.c **** 		status =
 1653              		.loc 1 543 2 is_stmt 1 view .LVU571
 543:Drivers/BSP/Components/vl53l1cb/modules/vl53l1_hist_algos_gen3.c **** 		status =
 1654              		.loc 1 543 5 is_stmt 0 view .LVU572
 1655 0086 D0B3     		cbz	r0, .L97
 1656              	.L90:
 554:Drivers/BSP/Components/vl53l1cb/modules/vl53l1_hist_algos_gen3.c **** 		tmp_phase        = pdata->VL53L1_p_028;
 1657              		.loc 1 554 2 is_stmt 1 view .LVU573
 554:Drivers/BSP/Components/vl53l1cb/modules/vl53l1_hist_algos_gen3.c **** 		tmp_phase        = pdata->VL53L1_p_028;
 1658              		.loc 1 554 11 is_stmt 0 view .LVU574
 1659 0088 04EBC403 		add	r3, r4, r4, lsl #3
 1660 008c 05EB8303 		add	r3, r5, r3, lsl #2
 1661 0090 D3F89021 		ldr	r2, [r3, #400]
 554:Drivers/BSP/Components/vl53l1cb/modules/vl53l1_hist_algos_gen3.c **** 		tmp_phase        = pdata->VL53L1_p_028;
 1662              		.loc 1 554 33 view .LVU575
 1663 0094 D3F89811 		ldr	r1, [r3, #408]
 554:Drivers/BSP/Components/vl53l1cb/modules/vl53l1_hist_algos_gen3.c **** 		tmp_phase        = pdata->VL53L1_p_028;
 1664              		.loc 1 554 5 view .LVU576
 1665 0098 8A42     		cmp	r2, r1
ARM GAS  C:\Temp\cc80ShlR.s 			page 45


 1666 009a 07D9     		bls	.L91
 555:Drivers/BSP/Components/vl53l1cb/modules/vl53l1_hist_algos_gen3.c **** 		pdata->VL53L1_p_028 = pdata->VL53L1_p_029;
 1667              		.loc 1 555 3 is_stmt 1 view .LVU577
 1668              	.LVL172:
 556:Drivers/BSP/Components/vl53l1cb/modules/vl53l1_hist_algos_gen3.c **** 		pdata->VL53L1_p_029 = tmp_phase;
 1669              		.loc 1 556 3 view .LVU578
 556:Drivers/BSP/Components/vl53l1cb/modules/vl53l1_hist_algos_gen3.c **** 		pdata->VL53L1_p_029 = tmp_phase;
 1670              		.loc 1 556 23 is_stmt 0 view .LVU579
 1671 009c 04EBC403 		add	r3, r4, r4, lsl #3
 1672 00a0 05EB8303 		add	r3, r5, r3, lsl #2
 1673 00a4 C3F89011 		str	r1, [r3, #400]
 557:Drivers/BSP/Components/vl53l1cb/modules/vl53l1_hist_algos_gen3.c **** 	}
 1674              		.loc 1 557 3 is_stmt 1 view .LVU580
 557:Drivers/BSP/Components/vl53l1cb/modules/vl53l1_hist_algos_gen3.c **** 	}
 1675              		.loc 1 557 23 is_stmt 0 view .LVU581
 1676 00a8 C3F89821 		str	r2, [r3, #408]
 1677              	.LVL173:
 1678              	.L91:
 561:Drivers/BSP/Components/vl53l1cb/modules/vl53l1_hist_algos_gen3.c **** 		pdata->VL53L1_p_028 = pdata->VL53L1_p_014;
 1679              		.loc 1 561 2 is_stmt 1 view .LVU582
 561:Drivers/BSP/Components/vl53l1cb/modules/vl53l1_hist_algos_gen3.c **** 		pdata->VL53L1_p_028 = pdata->VL53L1_p_014;
 1680              		.loc 1 561 11 is_stmt 0 view .LVU583
 1681 00ac 04EBC403 		add	r3, r4, r4, lsl #3
 1682 00b0 05EB8303 		add	r3, r5, r3, lsl #2
 1683 00b4 D3F89421 		ldr	r2, [r3, #404]
 561:Drivers/BSP/Components/vl53l1cb/modules/vl53l1_hist_algos_gen3.c **** 		pdata->VL53L1_p_028 = pdata->VL53L1_p_014;
 1684              		.loc 1 561 33 view .LVU584
 1685 00b8 D3F89031 		ldr	r3, [r3, #400]
 561:Drivers/BSP/Components/vl53l1cb/modules/vl53l1_hist_algos_gen3.c **** 		pdata->VL53L1_p_028 = pdata->VL53L1_p_014;
 1686              		.loc 1 561 5 view .LVU585
 1687 00bc 9A42     		cmp	r2, r3
 1688 00be 05D2     		bcs	.L92
 562:Drivers/BSP/Components/vl53l1cb/modules/vl53l1_hist_algos_gen3.c **** 
 1689              		.loc 1 562 3 is_stmt 1 view .LVU586
 562:Drivers/BSP/Components/vl53l1cb/modules/vl53l1_hist_algos_gen3.c **** 
 1690              		.loc 1 562 23 is_stmt 0 view .LVU587
 1691 00c0 04EBC403 		add	r3, r4, r4, lsl #3
 1692 00c4 05EB8303 		add	r3, r5, r3, lsl #2
 1693 00c8 C3F89021 		str	r2, [r3, #400]
 1694              	.L92:
 565:Drivers/BSP/Components/vl53l1cb/modules/vl53l1_hist_algos_gen3.c **** 		pdata->VL53L1_p_029 = pdata->VL53L1_p_014;
 1695              		.loc 1 565 2 is_stmt 1 view .LVU588
 565:Drivers/BSP/Components/vl53l1cb/modules/vl53l1_hist_algos_gen3.c **** 		pdata->VL53L1_p_029 = pdata->VL53L1_p_014;
 1696              		.loc 1 565 33 is_stmt 0 view .LVU589
 1697 00cc 04EBC403 		add	r3, r4, r4, lsl #3
 1698 00d0 05EB8303 		add	r3, r5, r3, lsl #2
 1699 00d4 D3F89831 		ldr	r3, [r3, #408]
 565:Drivers/BSP/Components/vl53l1cb/modules/vl53l1_hist_algos_gen3.c **** 		pdata->VL53L1_p_029 = pdata->VL53L1_p_014;
 1700              		.loc 1 565 5 view .LVU590
 1701 00d8 9A42     		cmp	r2, r3
 1702 00da 05D9     		bls	.L93
 566:Drivers/BSP/Components/vl53l1cb/modules/vl53l1_hist_algos_gen3.c **** 
 1703              		.loc 1 566 3 is_stmt 1 view .LVU591
 566:Drivers/BSP/Components/vl53l1cb/modules/vl53l1_hist_algos_gen3.c **** 
 1704              		.loc 1 566 23 is_stmt 0 view .LVU592
 1705 00dc 04EBC404 		add	r4, r4, r4, lsl #3
 1706              	.LVL174:
ARM GAS  C:\Temp\cc80ShlR.s 			page 46


 566:Drivers/BSP/Components/vl53l1cb/modules/vl53l1_hist_algos_gen3.c **** 
 1707              		.loc 1 566 23 view .LVU593
 1708 00e0 05EB8405 		add	r5, r5, r4, lsl #2
 1709              	.LVL175:
 566:Drivers/BSP/Components/vl53l1cb/modules/vl53l1_hist_algos_gen3.c **** 
 1710              		.loc 1 566 23 view .LVU594
 1711 00e4 C5F89821 		str	r2, [r5, #408]
 1712              	.L93:
 568:Drivers/BSP/Components/vl53l1cb/modules/vl53l1_hist_algos_gen3.c **** 
 1713              		.loc 1 568 26 is_stmt 1 view .LVU595
 570:Drivers/BSP/Components/vl53l1cb/modules/vl53l1_hist_algos_gen3.c **** }
 1714              		.loc 1 570 2 view .LVU596
 571:Drivers/BSP/Components/vl53l1cb/modules/vl53l1_hist_algos_gen3.c **** 
 1715              		.loc 1 571 1 is_stmt 0 view .LVU597
 1716 00e8 02B0     		add	sp, sp, #8
 1717              		.cfi_remember_state
 1718              		.cfi_def_cfa_offset 32
 1719              		@ sp needed
 1720 00ea BDE8F087 		pop	{r4, r5, r6, r7, r8, r9, r10, pc}
 1721              	.LVL176:
 1722              	.L96:
 1723              		.cfi_restore_state
 516:Drivers/BSP/Components/vl53l1cb/modules/vl53l1_hist_algos_gen3.c **** 
 1724              		.loc 1 516 3 is_stmt 1 view .LVU598
 516:Drivers/BSP/Components/vl53l1cb/modules/vl53l1_hist_algos_gen3.c **** 
 1725              		.loc 1 516 23 is_stmt 0 view .LVU599
 1726 00ee 00EBC003 		add	r3, r0, r0, lsl #3
 1727 00f2 05EB8303 		add	r3, r5, r3, lsl #2
 1728 00f6 0122     		movs	r2, #1
 1729              	.LVL177:
 516:Drivers/BSP/Components/vl53l1cb/modules/vl53l1_hist_algos_gen3.c **** 
 1730              		.loc 1 516 23 view .LVU600
 1731 00f8 83F87E21 		strb	r2, [r3, #382]
 1732 00fc 8FE7     		b	.L88
 1733              	.LVL178:
 1734              	.L97:
 544:Drivers/BSP/Components/vl53l1cb/modules/vl53l1_hist_algos_gen3.c **** 			VL53L1_f_030(
 1735              		.loc 1 544 3 is_stmt 1 view .LVU601
 546:Drivers/BSP/Components/vl53l1cb/modules/vl53l1_hist_algos_gen3.c **** 				VL53L1_p_016,
 1736              		.loc 1 546 18 is_stmt 0 view .LVU602
 1737 00fe A9EB0A00 		sub	r0, r9, r10
 1738              	.LVL179:
 545:Drivers/BSP/Components/vl53l1cb/modules/vl53l1_hist_algos_gen3.c **** 				VL53L1_p_016 - window_width,
 1739              		.loc 1 545 4 view .LVU603
 1740 0102 04EBC403 		add	r3, r4, r4, lsl #3
 1741 0106 9B00     		lsls	r3, r3, #2
 1742 0108 03F5C873 		add	r3, r3, #400
 1743 010c 2B44     		add	r3, r3, r5
 1744 010e 0833     		adds	r3, r3, #8
 1745 0110 0193     		str	r3, [sp, #4]
 1746 0112 CDF80080 		str	r8, [sp]
 1747 0116 3B46     		mov	r3, r7
 1748 0118 EA78     		ldrb	r2, [r5, #3]	@ zero_extendqisi2
 1749 011a 3146     		mov	r1, r6
 1750 011c 00B2     		sxth	r0, r0
 1751 011e FFF7FEFF 		bl	VL53L1_f_030
 1752              	.LVL180:
ARM GAS  C:\Temp\cc80ShlR.s 			page 47


 545:Drivers/BSP/Components/vl53l1cb/modules/vl53l1_hist_algos_gen3.c **** 				VL53L1_p_016 - window_width,
 1753              		.loc 1 545 4 view .LVU604
 1754 0122 B1E7     		b	.L90
 1755              		.cfi_endproc
 1756              	.LFE10:
 1758              		.section	.text.VL53L1_f_023,"ax",%progbits
 1759              		.align	1
 1760              		.global	VL53L1_f_023
 1761              		.syntax unified
 1762              		.thumb
 1763              		.thumb_func
 1765              	VL53L1_f_023:
 1766              	.LVL181:
 1767              	.LFB12:
 640:Drivers/BSP/Components/vl53l1cb/modules/vl53l1_hist_algos_gen3.c **** 
 641:Drivers/BSP/Components/vl53l1cb/modules/vl53l1_hist_algos_gen3.c **** 
 642:Drivers/BSP/Components/vl53l1cb/modules/vl53l1_hist_algos_gen3.c **** VL53L1_Error VL53L1_f_023(
 643:Drivers/BSP/Components/vl53l1cb/modules/vl53l1_hist_algos_gen3.c **** 	uint8_t                                pulse_no,
 644:Drivers/BSP/Components/vl53l1cb/modules/vl53l1_hist_algos_gen3.c **** 	VL53L1_histogram_bin_data_t           *pbins,
 645:Drivers/BSP/Components/vl53l1cb/modules/vl53l1_hist_algos_gen3.c **** 	VL53L1_hist_gen3_algo_private_data_t  *palgo,
 646:Drivers/BSP/Components/vl53l1cb/modules/vl53l1_hist_algos_gen3.c **** 	int32_t                                pad_value,
 647:Drivers/BSP/Components/vl53l1cb/modules/vl53l1_hist_algos_gen3.c **** 	VL53L1_histogram_bin_data_t           *ppulse)
 648:Drivers/BSP/Components/vl53l1cb/modules/vl53l1_hist_algos_gen3.c **** {
 1768              		.loc 1 648 1 is_stmt 1 view -0
 1769              		.cfi_startproc
 1770              		@ args = 4, pretend = 0, frame = 0
 1771              		@ frame_needed = 0, uses_anonymous_args = 0
 1772              		.loc 1 648 1 is_stmt 0 view .LVU606
 1773 0000 F8B5     		push	{r3, r4, r5, r6, r7, lr}
 1774              		.cfi_def_cfa_offset 24
 1775              		.cfi_offset 3, -24
 1776              		.cfi_offset 4, -20
 1777              		.cfi_offset 5, -16
 1778              		.cfi_offset 6, -12
 1779              		.cfi_offset 7, -8
 1780              		.cfi_offset 14, -4
 1781 0002 0546     		mov	r5, r0
 1782 0004 1446     		mov	r4, r2
 1783 0006 1F46     		mov	r7, r3
 1784 0008 069E     		ldr	r6, [sp, #24]
 649:Drivers/BSP/Components/vl53l1cb/modules/vl53l1_hist_algos_gen3.c **** 
 650:Drivers/BSP/Components/vl53l1cb/modules/vl53l1_hist_algos_gen3.c **** 
 651:Drivers/BSP/Components/vl53l1cb/modules/vl53l1_hist_algos_gen3.c **** 
 652:Drivers/BSP/Components/vl53l1cb/modules/vl53l1_hist_algos_gen3.c **** 	VL53L1_Error  status  = VL53L1_ERROR_NONE;
 1785              		.loc 1 652 2 is_stmt 1 view .LVU607
 1786              	.LVL182:
 653:Drivers/BSP/Components/vl53l1cb/modules/vl53l1_hist_algos_gen3.c **** 
 654:Drivers/BSP/Components/vl53l1cb/modules/vl53l1_hist_algos_gen3.c **** 	uint8_t  i            = 0;
 1787              		.loc 1 654 2 view .LVU608
 655:Drivers/BSP/Components/vl53l1cb/modules/vl53l1_hist_algos_gen3.c **** 	uint8_t  lb            = 0;
 1788              		.loc 1 655 2 view .LVU609
 656:Drivers/BSP/Components/vl53l1cb/modules/vl53l1_hist_algos_gen3.c **** 
 657:Drivers/BSP/Components/vl53l1cb/modules/vl53l1_hist_algos_gen3.c **** 	VL53L1_hist_pulse_data_t *pdata = &(palgo->VL53L1_p_002[pulse_no]);
 1789              		.loc 1 657 2 view .LVU610
 658:Drivers/BSP/Components/vl53l1cb/modules/vl53l1_hist_algos_gen3.c **** 
 659:Drivers/BSP/Components/vl53l1cb/modules/vl53l1_hist_algos_gen3.c **** 	LOG_FUNCTION_START("");
 1790              		.loc 1 659 24 view .LVU611
ARM GAS  C:\Temp\cc80ShlR.s 			page 48


 660:Drivers/BSP/Components/vl53l1cb/modules/vl53l1_hist_algos_gen3.c **** 
 661:Drivers/BSP/Components/vl53l1cb/modules/vl53l1_hist_algos_gen3.c **** 
 662:Drivers/BSP/Components/vl53l1cb/modules/vl53l1_hist_algos_gen3.c **** 
 663:Drivers/BSP/Components/vl53l1cb/modules/vl53l1_hist_algos_gen3.c **** 	memcpy(ppulse, pbins, sizeof(VL53L1_histogram_bin_data_t));
 1791              		.loc 1 663 2 view .LVU612
 1792 000a AC22     		movs	r2, #172
 1793              	.LVL183:
 1794              		.loc 1 663 2 is_stmt 0 view .LVU613
 1795 000c 3046     		mov	r0, r6
 1796              	.LVL184:
 1797              		.loc 1 663 2 view .LVU614
 1798 000e FFF7FEFF 		bl	memcpy
 1799              	.LVL185:
 664:Drivers/BSP/Components/vl53l1cb/modules/vl53l1_hist_algos_gen3.c **** 
 665:Drivers/BSP/Components/vl53l1cb/modules/vl53l1_hist_algos_gen3.c **** 
 666:Drivers/BSP/Components/vl53l1cb/modules/vl53l1_hist_algos_gen3.c **** 
 667:Drivers/BSP/Components/vl53l1cb/modules/vl53l1_hist_algos_gen3.c **** 	for (lb = palgo->VL53L1_p_049;
 1800              		.loc 1 667 2 is_stmt 1 view .LVU615
 1801              		.loc 1 667 10 is_stmt 0 view .LVU616
 1802 0012 94F87811 		ldrb	r1, [r4, #376]	@ zero_extendqisi2
 1803              	.LVL186:
 1804              		.loc 1 667 2 view .LVU617
 1805 0016 0EE0     		b	.L99
 1806              	.LVL187:
 1807              	.L100:
 668:Drivers/BSP/Components/vl53l1cb/modules/vl53l1_hist_algos_gen3.c **** 		lb < (palgo->VL53L1_p_049 +
 669:Drivers/BSP/Components/vl53l1cb/modules/vl53l1_hist_algos_gen3.c **** 		palgo->VL53L1_p_031);
 670:Drivers/BSP/Components/vl53l1cb/modules/vl53l1_hist_algos_gen3.c **** 		lb++) {
 671:Drivers/BSP/Components/vl53l1cb/modules/vl53l1_hist_algos_gen3.c **** 
 672:Drivers/BSP/Components/vl53l1cb/modules/vl53l1_hist_algos_gen3.c **** 		if (lb < pdata->VL53L1_p_015 || lb > pdata->VL53L1_p_016) {
 673:Drivers/BSP/Components/vl53l1cb/modules/vl53l1_hist_algos_gen3.c **** 			i =  lb % palgo->VL53L1_p_031;
 1808              		.loc 1 673 4 is_stmt 1 view .LVU618
 1809              		.loc 1 673 6 is_stmt 0 view .LVU619
 1810 0018 B1FBF2FC 		udiv	ip, r1, r2
 1811 001c 02FB1C1C 		mls	ip, r2, ip, r1
 1812 0020 5FFA8CFC 		uxtb	ip, ip
 1813              	.LVL188:
 674:Drivers/BSP/Components/vl53l1cb/modules/vl53l1_hist_algos_gen3.c **** 			if (i < ppulse->VL53L1_p_024)
 1814              		.loc 1 674 4 is_stmt 1 view .LVU620
 1815              		.loc 1 674 18 is_stmt 0 view .LVU621
 1816 0024 B37A     		ldrb	r3, [r6, #10]	@ zero_extendqisi2
 1817              		.loc 1 674 7 view .LVU622
 1818 0026 6345     		cmp	r3, ip
 1819 0028 03D9     		bls	.L101
 675:Drivers/BSP/Components/vl53l1cb/modules/vl53l1_hist_algos_gen3.c **** 				ppulse->bin_data[i] = pad_value;
 1820              		.loc 1 675 5 is_stmt 1 view .LVU623
 1821              		.loc 1 675 25 is_stmt 0 view .LVU624
 1822 002a 0CF1060C 		add	ip, ip, #6
 1823              	.LVL189:
 1824              		.loc 1 675 25 view .LVU625
 1825 002e 46F82C70 		str	r7, [r6, ip, lsl #2]
 1826              	.LVL190:
 1827              	.L101:
 670:Drivers/BSP/Components/vl53l1cb/modules/vl53l1_hist_algos_gen3.c **** 
 1828              		.loc 1 670 5 is_stmt 1 view .LVU626
 1829 0032 0131     		adds	r1, r1, #1
 1830              	.LVL191:
ARM GAS  C:\Temp\cc80ShlR.s 			page 49


 670:Drivers/BSP/Components/vl53l1cb/modules/vl53l1_hist_algos_gen3.c **** 
 1831              		.loc 1 670 5 is_stmt 0 view .LVU627
 1832 0034 C9B2     		uxtb	r1, r1
 1833              	.LVL192:
 1834              	.L99:
 668:Drivers/BSP/Components/vl53l1cb/modules/vl53l1_hist_algos_gen3.c **** 		palgo->VL53L1_p_031);
 1835              		.loc 1 668 6 is_stmt 1 view .LVU628
 668:Drivers/BSP/Components/vl53l1cb/modules/vl53l1_hist_algos_gen3.c **** 		palgo->VL53L1_p_031);
 1836              		.loc 1 668 14 is_stmt 0 view .LVU629
 1837 0036 94F87831 		ldrb	r3, [r4, #376]	@ zero_extendqisi2
 669:Drivers/BSP/Components/vl53l1cb/modules/vl53l1_hist_algos_gen3.c **** 		lb++) {
 1838              		.loc 1 669 8 view .LVU630
 1839 003a E278     		ldrb	r2, [r4, #3]	@ zero_extendqisi2
 668:Drivers/BSP/Components/vl53l1cb/modules/vl53l1_hist_algos_gen3.c **** 		palgo->VL53L1_p_031);
 1840              		.loc 1 668 29 view .LVU631
 1841 003c 1344     		add	r3, r3, r2
 668:Drivers/BSP/Components/vl53l1cb/modules/vl53l1_hist_algos_gen3.c **** 		palgo->VL53L1_p_031);
 1842              		.loc 1 668 6 view .LVU632
 1843 003e 9942     		cmp	r1, r3
 1844 0040 10DA     		bge	.L104
 672:Drivers/BSP/Components/vl53l1cb/modules/vl53l1_hist_algos_gen3.c **** 			i =  lb % palgo->VL53L1_p_031;
 1845              		.loc 1 672 3 is_stmt 1 view .LVU633
 672:Drivers/BSP/Components/vl53l1cb/modules/vl53l1_hist_algos_gen3.c **** 			i =  lb % palgo->VL53L1_p_031;
 1846              		.loc 1 672 17 is_stmt 0 view .LVU634
 1847 0042 05EBC503 		add	r3, r5, r5, lsl #3
 1848 0046 04EB8303 		add	r3, r4, r3, lsl #2
 1849 004a 93F87C31 		ldrb	r3, [r3, #380]	@ zero_extendqisi2
 672:Drivers/BSP/Components/vl53l1cb/modules/vl53l1_hist_algos_gen3.c **** 			i =  lb % palgo->VL53L1_p_031;
 1850              		.loc 1 672 6 view .LVU635
 1851 004e 8B42     		cmp	r3, r1
 1852 0050 E2D8     		bhi	.L100
 672:Drivers/BSP/Components/vl53l1cb/modules/vl53l1_hist_algos_gen3.c **** 			i =  lb % palgo->VL53L1_p_031;
 1853              		.loc 1 672 45 discriminator 1 view .LVU636
 1854 0052 05EBC503 		add	r3, r5, r5, lsl #3
 1855 0056 04EB8303 		add	r3, r4, r3, lsl #2
 1856 005a 93F88031 		ldrb	r3, [r3, #384]	@ zero_extendqisi2
 672:Drivers/BSP/Components/vl53l1cb/modules/vl53l1_hist_algos_gen3.c **** 			i =  lb % palgo->VL53L1_p_031;
 1857              		.loc 1 672 32 discriminator 1 view .LVU637
 1858 005e 8B42     		cmp	r3, r1
 1859 0060 E7D2     		bcs	.L101
 1860 0062 D9E7     		b	.L100
 1861              	.L104:
 676:Drivers/BSP/Components/vl53l1cb/modules/vl53l1_hist_algos_gen3.c **** 		}
 677:Drivers/BSP/Components/vl53l1cb/modules/vl53l1_hist_algos_gen3.c **** 	}
 678:Drivers/BSP/Components/vl53l1cb/modules/vl53l1_hist_algos_gen3.c **** 
 679:Drivers/BSP/Components/vl53l1cb/modules/vl53l1_hist_algos_gen3.c **** 	LOG_FUNCTION_END(status);
 1862              		.loc 1 679 26 is_stmt 1 view .LVU638
 680:Drivers/BSP/Components/vl53l1cb/modules/vl53l1_hist_algos_gen3.c **** 
 681:Drivers/BSP/Components/vl53l1cb/modules/vl53l1_hist_algos_gen3.c **** 	return status;
 1863              		.loc 1 681 2 view .LVU639
 682:Drivers/BSP/Components/vl53l1cb/modules/vl53l1_hist_algos_gen3.c **** }
 1864              		.loc 1 682 1 is_stmt 0 view .LVU640
 1865 0064 0020     		movs	r0, #0
 1866 0066 F8BD     		pop	{r3, r4, r5, r6, r7, pc}
 1867              		.loc 1 682 1 view .LVU641
 1868              		.cfi_endproc
 1869              	.LFE12:
ARM GAS  C:\Temp\cc80ShlR.s 			page 50


 1871              		.section	.text.VL53L1_f_026,"ax",%progbits
 1872              		.align	1
 1873              		.global	VL53L1_f_026
 1874              		.syntax unified
 1875              		.thumb
 1876              		.thumb_func
 1878              	VL53L1_f_026:
 1879              	.LVL193:
 1880              	.LFB13:
 683:Drivers/BSP/Components/vl53l1cb/modules/vl53l1_hist_algos_gen3.c **** 
 684:Drivers/BSP/Components/vl53l1cb/modules/vl53l1_hist_algos_gen3.c **** 
 685:Drivers/BSP/Components/vl53l1cb/modules/vl53l1_hist_algos_gen3.c **** VL53L1_Error VL53L1_f_026(
 686:Drivers/BSP/Components/vl53l1cb/modules/vl53l1_hist_algos_gen3.c **** 	uint8_t                       bin,
 687:Drivers/BSP/Components/vl53l1cb/modules/vl53l1_hist_algos_gen3.c **** 	uint8_t                       sigma_estimator__sigma_ref_mm,
 688:Drivers/BSP/Components/vl53l1cb/modules/vl53l1_hist_algos_gen3.c **** 	uint8_t                       VL53L1_p_031,
 689:Drivers/BSP/Components/vl53l1cb/modules/vl53l1_hist_algos_gen3.c **** 	uint8_t                       VL53L1_p_055,
 690:Drivers/BSP/Components/vl53l1cb/modules/vl53l1_hist_algos_gen3.c **** 	uint8_t                       crosstalk_compensation_enable,
 691:Drivers/BSP/Components/vl53l1cb/modules/vl53l1_hist_algos_gen3.c **** 	VL53L1_histogram_bin_data_t  *phist_data_ap,
 692:Drivers/BSP/Components/vl53l1cb/modules/vl53l1_hist_algos_gen3.c **** 	VL53L1_histogram_bin_data_t  *phist_data_zp,
 693:Drivers/BSP/Components/vl53l1cb/modules/vl53l1_hist_algos_gen3.c **** 	VL53L1_histogram_bin_data_t  *pxtalk_hist,
 694:Drivers/BSP/Components/vl53l1cb/modules/vl53l1_hist_algos_gen3.c **** 	uint16_t                     *psigma_est)
 695:Drivers/BSP/Components/vl53l1cb/modules/vl53l1_hist_algos_gen3.c **** {
 1881              		.loc 1 695 1 is_stmt 1 view -0
 1882              		.cfi_startproc
 1883              		@ args = 20, pretend = 0, frame = 32
 1884              		@ frame_needed = 0, uses_anonymous_args = 0
 1885              		.loc 1 695 1 is_stmt 0 view .LVU643
 1886 0000 2DE9F047 		push	{r4, r5, r6, r7, r8, r9, r10, lr}
 1887              		.cfi_def_cfa_offset 32
 1888              		.cfi_offset 4, -32
 1889              		.cfi_offset 5, -28
 1890              		.cfi_offset 6, -24
 1891              		.cfi_offset 7, -20
 1892              		.cfi_offset 8, -16
 1893              		.cfi_offset 9, -12
 1894              		.cfi_offset 10, -8
 1895              		.cfi_offset 14, -4
 1896 0004 90B0     		sub	sp, sp, #64
 1897              		.cfi_def_cfa_offset 96
 1898 0006 9DF860A0 		ldrb	r10, [sp, #96]	@ zero_extendqisi2
 1899 000a DDF86490 		ldr	r9, [sp, #100]
 1900 000e 1C9F     		ldr	r7, [sp, #112]
 696:Drivers/BSP/Components/vl53l1cb/modules/vl53l1_hist_algos_gen3.c **** 
 697:Drivers/BSP/Components/vl53l1cb/modules/vl53l1_hist_algos_gen3.c **** 
 698:Drivers/BSP/Components/vl53l1cb/modules/vl53l1_hist_algos_gen3.c **** 	VL53L1_Error status      = VL53L1_ERROR_NONE;
 1901              		.loc 1 698 2 is_stmt 1 view .LVU644
 1902              	.LVL194:
 699:Drivers/BSP/Components/vl53l1cb/modules/vl53l1_hist_algos_gen3.c **** 	VL53L1_Error func_status = VL53L1_ERROR_NONE;
 1903              		.loc 1 699 2 view .LVU645
 700:Drivers/BSP/Components/vl53l1cb/modules/vl53l1_hist_algos_gen3.c **** 
 701:Drivers/BSP/Components/vl53l1cb/modules/vl53l1_hist_algos_gen3.c **** 	uint8_t  i    = 0;
 1904              		.loc 1 701 2 view .LVU646
 702:Drivers/BSP/Components/vl53l1cb/modules/vl53l1_hist_algos_gen3.c **** 	int32_t  VL53L1_p_003    = 0;
 1905              		.loc 1 702 2 view .LVU647
 1906              		.loc 1 702 11 is_stmt 0 view .LVU648
 1907 0010 0025     		movs	r5, #0
 1908 0012 0F95     		str	r5, [sp, #60]
ARM GAS  C:\Temp\cc80ShlR.s 			page 51


 703:Drivers/BSP/Components/vl53l1cb/modules/vl53l1_hist_algos_gen3.c **** 	int32_t  VL53L1_p_018    = 0;
 1909              		.loc 1 703 2 is_stmt 1 view .LVU649
 1910              		.loc 1 703 11 is_stmt 0 view .LVU650
 1911 0014 0E95     		str	r5, [sp, #56]
 704:Drivers/BSP/Components/vl53l1cb/modules/vl53l1_hist_algos_gen3.c **** 	int32_t  VL53L1_p_001    = 0;
 1912              		.loc 1 704 2 is_stmt 1 view .LVU651
 1913              		.loc 1 704 11 is_stmt 0 view .LVU652
 1914 0016 0D95     		str	r5, [sp, #52]
 705:Drivers/BSP/Components/vl53l1cb/modules/vl53l1_hist_algos_gen3.c **** 	int32_t  a_zp = 0;
 1915              		.loc 1 705 2 is_stmt 1 view .LVU653
 1916              		.loc 1 705 11 is_stmt 0 view .LVU654
 1917 0018 0C95     		str	r5, [sp, #48]
 706:Drivers/BSP/Components/vl53l1cb/modules/vl53l1_hist_algos_gen3.c **** 	int32_t  c_zp = 0;
 1918              		.loc 1 706 2 is_stmt 1 view .LVU655
 1919              		.loc 1 706 11 is_stmt 0 view .LVU656
 1920 001a 0B95     		str	r5, [sp, #44]
 707:Drivers/BSP/Components/vl53l1cb/modules/vl53l1_hist_algos_gen3.c **** 	int32_t  ax   = 0;
 1921              		.loc 1 707 2 is_stmt 1 view .LVU657
 1922              		.loc 1 707 11 is_stmt 0 view .LVU658
 1923 001c 0A95     		str	r5, [sp, #40]
 708:Drivers/BSP/Components/vl53l1cb/modules/vl53l1_hist_algos_gen3.c **** 	int32_t  bx   = 0;
 1924              		.loc 1 708 2 is_stmt 1 view .LVU659
 1925              		.loc 1 708 11 is_stmt 0 view .LVU660
 1926 001e 0995     		str	r5, [sp, #36]
 709:Drivers/BSP/Components/vl53l1cb/modules/vl53l1_hist_algos_gen3.c **** 	int32_t  cx   = 0;
 1927              		.loc 1 709 2 is_stmt 1 view .LVU661
 1928              		.loc 1 709 11 is_stmt 0 view .LVU662
 1929 0020 0895     		str	r5, [sp, #32]
 710:Drivers/BSP/Components/vl53l1cb/modules/vl53l1_hist_algos_gen3.c **** 
 711:Drivers/BSP/Components/vl53l1cb/modules/vl53l1_hist_algos_gen3.c **** 
 712:Drivers/BSP/Components/vl53l1cb/modules/vl53l1_hist_algos_gen3.c **** 	if (VL53L1_p_031 == 0) {
 1930              		.loc 1 712 2 is_stmt 1 view .LVU663
 1931              		.loc 1 712 5 is_stmt 0 view .LVU664
 1932 0022 002A     		cmp	r2, #0
 1933 0024 3BD0     		beq	.L111
 1934 0026 8846     		mov	r8, r1
 1935 0028 1E46     		mov	r6, r3
 1936 002a 1346     		mov	r3, r2
 1937              	.LVL195:
 713:Drivers/BSP/Components/vl53l1cb/modules/vl53l1_hist_algos_gen3.c **** 		*psigma_est = 0xFFFF;
 714:Drivers/BSP/Components/vl53l1cb/modules/vl53l1_hist_algos_gen3.c **** 		return VL53L1_ERROR_DIVISION_BY_ZERO;
 715:Drivers/BSP/Components/vl53l1cb/modules/vl53l1_hist_algos_gen3.c **** 	}
 716:Drivers/BSP/Components/vl53l1cb/modules/vl53l1_hist_algos_gen3.c **** 	i = bin % VL53L1_p_031;
 1938              		.loc 1 716 2 is_stmt 1 view .LVU665
 1939              		.loc 1 716 4 is_stmt 0 view .LVU666
 1940 002c B0FBF2F2 		udiv	r2, r0, r2
 1941              	.LVL196:
 1942              		.loc 1 716 4 view .LVU667
 1943 0030 03FB1204 		mls	r4, r3, r2, r0
 1944 0034 E4B2     		uxtb	r4, r4
 1945              	.LVL197:
 717:Drivers/BSP/Components/vl53l1cb/modules/vl53l1_hist_algos_gen3.c **** 
 718:Drivers/BSP/Components/vl53l1cb/modules/vl53l1_hist_algos_gen3.c **** 
 719:Drivers/BSP/Components/vl53l1cb/modules/vl53l1_hist_algos_gen3.c **** 
 720:Drivers/BSP/Components/vl53l1cb/modules/vl53l1_hist_algos_gen3.c **** 	VL53L1_f_013(
 1946              		.loc 1 720 2 is_stmt 1 view .LVU668
 1947 0036 0BAB     		add	r3, sp, #44
ARM GAS  C:\Temp\cc80ShlR.s 			page 52


 1948 0038 0193     		str	r3, [sp, #4]
 1949 003a 0EAD     		add	r5, sp, #56
 1950 003c 0095     		str	r5, [sp]
 1951 003e 0CAB     		add	r3, sp, #48
 1952 0040 1A9A     		ldr	r2, [sp, #104]
 1953 0042 3146     		mov	r1, r6
 1954              	.LVL198:
 1955              		.loc 1 720 2 is_stmt 0 view .LVU669
 1956 0044 2046     		mov	r0, r4
 1957              	.LVL199:
 1958              		.loc 1 720 2 view .LVU670
 1959 0046 FFF7FEFF 		bl	VL53L1_f_013
 1960              	.LVL200:
 721:Drivers/BSP/Components/vl53l1cb/modules/vl53l1_hist_algos_gen3.c **** 			i,
 722:Drivers/BSP/Components/vl53l1cb/modules/vl53l1_hist_algos_gen3.c **** 			VL53L1_p_055,
 723:Drivers/BSP/Components/vl53l1cb/modules/vl53l1_hist_algos_gen3.c **** 			phist_data_zp,
 724:Drivers/BSP/Components/vl53l1cb/modules/vl53l1_hist_algos_gen3.c **** 			&a_zp,
 725:Drivers/BSP/Components/vl53l1cb/modules/vl53l1_hist_algos_gen3.c **** 			&VL53L1_p_018,
 726:Drivers/BSP/Components/vl53l1cb/modules/vl53l1_hist_algos_gen3.c **** 			&c_zp);
 727:Drivers/BSP/Components/vl53l1cb/modules/vl53l1_hist_algos_gen3.c **** 
 728:Drivers/BSP/Components/vl53l1cb/modules/vl53l1_hist_algos_gen3.c **** 
 729:Drivers/BSP/Components/vl53l1cb/modules/vl53l1_hist_algos_gen3.c **** 
 730:Drivers/BSP/Components/vl53l1cb/modules/vl53l1_hist_algos_gen3.c **** 	VL53L1_f_013(
 1961              		.loc 1 730 2 is_stmt 1 view .LVU671
 1962 004a 0DAB     		add	r3, sp, #52
 1963 004c 0193     		str	r3, [sp, #4]
 1964 004e 0095     		str	r5, [sp]
 1965 0050 0FAB     		add	r3, sp, #60
 1966 0052 4A46     		mov	r2, r9
 1967 0054 3146     		mov	r1, r6
 1968 0056 2046     		mov	r0, r4
 1969 0058 FFF7FEFF 		bl	VL53L1_f_013
 1970              	.LVL201:
 731:Drivers/BSP/Components/vl53l1cb/modules/vl53l1_hist_algos_gen3.c **** 			i,
 732:Drivers/BSP/Components/vl53l1cb/modules/vl53l1_hist_algos_gen3.c **** 			VL53L1_p_055,
 733:Drivers/BSP/Components/vl53l1cb/modules/vl53l1_hist_algos_gen3.c **** 			phist_data_ap,
 734:Drivers/BSP/Components/vl53l1cb/modules/vl53l1_hist_algos_gen3.c **** 			&VL53L1_p_003,
 735:Drivers/BSP/Components/vl53l1cb/modules/vl53l1_hist_algos_gen3.c **** 			&VL53L1_p_018,
 736:Drivers/BSP/Components/vl53l1cb/modules/vl53l1_hist_algos_gen3.c **** 			&VL53L1_p_001);
 737:Drivers/BSP/Components/vl53l1cb/modules/vl53l1_hist_algos_gen3.c **** 
 738:Drivers/BSP/Components/vl53l1cb/modules/vl53l1_hist_algos_gen3.c **** 	if (crosstalk_compensation_enable > 0)
 1971              		.loc 1 738 2 view .LVU672
 1972              		.loc 1 738 5 is_stmt 0 view .LVU673
 1973 005c BAF1000F 		cmp	r10, #0
 1974 0060 23D1     		bne	.L112
 1975              	.L108:
 739:Drivers/BSP/Components/vl53l1cb/modules/vl53l1_hist_algos_gen3.c **** 		VL53L1_f_013(
 740:Drivers/BSP/Components/vl53l1cb/modules/vl53l1_hist_algos_gen3.c **** 				i,
 741:Drivers/BSP/Components/vl53l1cb/modules/vl53l1_hist_algos_gen3.c **** 				VL53L1_p_055,
 742:Drivers/BSP/Components/vl53l1cb/modules/vl53l1_hist_algos_gen3.c **** 				pxtalk_hist,
 743:Drivers/BSP/Components/vl53l1cb/modules/vl53l1_hist_algos_gen3.c **** 				&ax,
 744:Drivers/BSP/Components/vl53l1cb/modules/vl53l1_hist_algos_gen3.c **** 				&bx,
 745:Drivers/BSP/Components/vl53l1cb/modules/vl53l1_hist_algos_gen3.c **** 				&cx);
 746:Drivers/BSP/Components/vl53l1cb/modules/vl53l1_hist_algos_gen3.c **** 
 747:Drivers/BSP/Components/vl53l1cb/modules/vl53l1_hist_algos_gen3.c **** 
 748:Drivers/BSP/Components/vl53l1cb/modules/vl53l1_hist_algos_gen3.c **** 
 749:Drivers/BSP/Components/vl53l1cb/modules/vl53l1_hist_algos_gen3.c **** 
ARM GAS  C:\Temp\cc80ShlR.s 			page 53


 750:Drivers/BSP/Components/vl53l1cb/modules/vl53l1_hist_algos_gen3.c **** 
 751:Drivers/BSP/Components/vl53l1cb/modules/vl53l1_hist_algos_gen3.c **** 
 752:Drivers/BSP/Components/vl53l1cb/modules/vl53l1_hist_algos_gen3.c **** 
 753:Drivers/BSP/Components/vl53l1cb/modules/vl53l1_hist_algos_gen3.c **** 	func_status =
 1976              		.loc 1 753 2 is_stmt 1 view .LVU674
 754:Drivers/BSP/Components/vl53l1cb/modules/vl53l1_hist_algos_gen3.c **** 		VL53L1_f_014(
 755:Drivers/BSP/Components/vl53l1cb/modules/vl53l1_hist_algos_gen3.c **** 			sigma_estimator__sigma_ref_mm,
 756:Drivers/BSP/Components/vl53l1cb/modules/vl53l1_hist_algos_gen3.c **** 			(uint32_t)VL53L1_p_003,
 757:Drivers/BSP/Components/vl53l1cb/modules/vl53l1_hist_algos_gen3.c **** 			(uint32_t)VL53L1_p_018,
 758:Drivers/BSP/Components/vl53l1cb/modules/vl53l1_hist_algos_gen3.c **** 			(uint32_t)VL53L1_p_001,
 759:Drivers/BSP/Components/vl53l1cb/modules/vl53l1_hist_algos_gen3.c **** 			(uint32_t)a_zp,
 760:Drivers/BSP/Components/vl53l1cb/modules/vl53l1_hist_algos_gen3.c **** 			(uint32_t)c_zp,
 761:Drivers/BSP/Components/vl53l1cb/modules/vl53l1_hist_algos_gen3.c **** 			(uint32_t)bx,
 762:Drivers/BSP/Components/vl53l1cb/modules/vl53l1_hist_algos_gen3.c **** 			(uint32_t)ax,
 763:Drivers/BSP/Components/vl53l1cb/modules/vl53l1_hist_algos_gen3.c **** 			(uint32_t)cx,
 764:Drivers/BSP/Components/vl53l1cb/modules/vl53l1_hist_algos_gen3.c **** 			(uint32_t)phist_data_ap->VL53L1_p_004,
 1977              		.loc 1 764 27 is_stmt 0 view .LVU675
 1978 0062 D9F8A430 		ldr	r3, [r9, #164]
 754:Drivers/BSP/Components/vl53l1cb/modules/vl53l1_hist_algos_gen3.c **** 		VL53L1_f_014(
 1979              		.loc 1 754 3 view .LVU676
 1980 0066 0797     		str	r7, [sp, #28]
 1981 0068 B9F88620 		ldrh	r2, [r9, #134]
 1982 006c 0692     		str	r2, [sp, #24]
 1983 006e 0593     		str	r3, [sp, #20]
 1984 0070 089B     		ldr	r3, [sp, #32]
 1985 0072 0493     		str	r3, [sp, #16]
 1986 0074 0A9B     		ldr	r3, [sp, #40]
 1987 0076 0393     		str	r3, [sp, #12]
 1988 0078 099B     		ldr	r3, [sp, #36]
 1989 007a 0293     		str	r3, [sp, #8]
 1990 007c 0B9B     		ldr	r3, [sp, #44]
 1991 007e 0193     		str	r3, [sp, #4]
 1992 0080 0C9B     		ldr	r3, [sp, #48]
 1993 0082 0093     		str	r3, [sp]
 1994 0084 0D9B     		ldr	r3, [sp, #52]
 1995 0086 0E9A     		ldr	r2, [sp, #56]
 1996 0088 0F99     		ldr	r1, [sp, #60]
 1997 008a 4046     		mov	r0, r8
 1998 008c FFF7FEFF 		bl	VL53L1_f_014
 1999              	.LVL202:
 765:Drivers/BSP/Components/vl53l1cb/modules/vl53l1_hist_algos_gen3.c **** 			phist_data_ap->VL53L1_p_019,
 766:Drivers/BSP/Components/vl53l1cb/modules/vl53l1_hist_algos_gen3.c **** 			psigma_est);
 767:Drivers/BSP/Components/vl53l1cb/modules/vl53l1_hist_algos_gen3.c **** 
 768:Drivers/BSP/Components/vl53l1cb/modules/vl53l1_hist_algos_gen3.c **** 
 769:Drivers/BSP/Components/vl53l1cb/modules/vl53l1_hist_algos_gen3.c **** 
 770:Drivers/BSP/Components/vl53l1cb/modules/vl53l1_hist_algos_gen3.c **** 
 771:Drivers/BSP/Components/vl53l1cb/modules/vl53l1_hist_algos_gen3.c **** 	if (func_status == VL53L1_ERROR_DIVISION_BY_ZERO)
 2000              		.loc 1 771 2 is_stmt 1 view .LVU677
 2001              		.loc 1 771 5 is_stmt 0 view .LVU678
 2002 0090 10F10F0F 		cmn	r0, #15
 2003 0094 14D0     		beq	.L113
 772:Drivers/BSP/Components/vl53l1cb/modules/vl53l1_hist_algos_gen3.c **** 		*psigma_est = 0xFFFF;
 773:Drivers/BSP/Components/vl53l1cb/modules/vl53l1_hist_algos_gen3.c **** 
 774:Drivers/BSP/Components/vl53l1cb/modules/vl53l1_hist_algos_gen3.c **** 
 775:Drivers/BSP/Components/vl53l1cb/modules/vl53l1_hist_algos_gen3.c **** 	return status;
 2004              		.loc 1 775 9 view .LVU679
 2005 0096 0020     		movs	r0, #0
ARM GAS  C:\Temp\cc80ShlR.s 			page 54


 2006              	.LVL203:
 2007              	.L107:
 776:Drivers/BSP/Components/vl53l1cb/modules/vl53l1_hist_algos_gen3.c **** }
 2008              		.loc 1 776 1 view .LVU680
 2009 0098 10B0     		add	sp, sp, #64
 2010              		.cfi_remember_state
 2011              		.cfi_def_cfa_offset 32
 2012              		@ sp needed
 2013 009a BDE8F087 		pop	{r4, r5, r6, r7, r8, r9, r10, pc}
 2014              	.LVL204:
 2015              	.L111:
 2016              		.cfi_restore_state
 713:Drivers/BSP/Components/vl53l1cb/modules/vl53l1_hist_algos_gen3.c **** 		return VL53L1_ERROR_DIVISION_BY_ZERO;
 2017              		.loc 1 713 3 is_stmt 1 view .LVU681
 713:Drivers/BSP/Components/vl53l1cb/modules/vl53l1_hist_algos_gen3.c **** 		return VL53L1_ERROR_DIVISION_BY_ZERO;
 2018              		.loc 1 713 15 is_stmt 0 view .LVU682
 2019 009e 4FF6FF73 		movw	r3, #65535
 2020              	.LVL205:
 713:Drivers/BSP/Components/vl53l1cb/modules/vl53l1_hist_algos_gen3.c **** 		return VL53L1_ERROR_DIVISION_BY_ZERO;
 2021              		.loc 1 713 15 view .LVU683
 2022 00a2 3B80     		strh	r3, [r7]	@ movhi
 714:Drivers/BSP/Components/vl53l1cb/modules/vl53l1_hist_algos_gen3.c **** 	}
 2023              		.loc 1 714 3 is_stmt 1 view .LVU684
 714:Drivers/BSP/Components/vl53l1cb/modules/vl53l1_hist_algos_gen3.c **** 	}
 2024              		.loc 1 714 10 is_stmt 0 view .LVU685
 2025 00a4 6FF00E00 		mvn	r0, #14
 2026              	.LVL206:
 714:Drivers/BSP/Components/vl53l1cb/modules/vl53l1_hist_algos_gen3.c **** 	}
 2027              		.loc 1 714 10 view .LVU686
 2028 00a8 F6E7     		b	.L107
 2029              	.LVL207:
 2030              	.L112:
 739:Drivers/BSP/Components/vl53l1cb/modules/vl53l1_hist_algos_gen3.c **** 				i,
 2031              		.loc 1 739 3 is_stmt 1 view .LVU687
 2032 00aa 08AB     		add	r3, sp, #32
 2033 00ac 0193     		str	r3, [sp, #4]
 2034 00ae 09AB     		add	r3, sp, #36
 2035 00b0 0093     		str	r3, [sp]
 2036 00b2 0AAB     		add	r3, sp, #40
 2037 00b4 1B9A     		ldr	r2, [sp, #108]
 2038 00b6 3146     		mov	r1, r6
 2039 00b8 2046     		mov	r0, r4
 2040 00ba FFF7FEFF 		bl	VL53L1_f_013
 2041              	.LVL208:
 2042 00be D0E7     		b	.L108
 2043              	.LVL209:
 2044              	.L113:
 772:Drivers/BSP/Components/vl53l1cb/modules/vl53l1_hist_algos_gen3.c **** 
 2045              		.loc 1 772 3 view .LVU688
 772:Drivers/BSP/Components/vl53l1cb/modules/vl53l1_hist_algos_gen3.c **** 
 2046              		.loc 1 772 15 is_stmt 0 view .LVU689
 2047 00c0 4FF6FF73 		movw	r3, #65535
 2048 00c4 3B80     		strh	r3, [r7]	@ movhi
 775:Drivers/BSP/Components/vl53l1cb/modules/vl53l1_hist_algos_gen3.c **** }
 2049              		.loc 1 775 9 view .LVU690
 2050 00c6 0020     		movs	r0, #0
 2051              	.LVL210:
ARM GAS  C:\Temp\cc80ShlR.s 			page 55


 775:Drivers/BSP/Components/vl53l1cb/modules/vl53l1_hist_algos_gen3.c **** }
 2052              		.loc 1 775 9 view .LVU691
 2053 00c8 E6E7     		b	.L107
 2054              		.cfi_endproc
 2055              	.LFE13:
 2057              		.section	.text.VL53L1_f_029,"ax",%progbits
 2058              		.align	1
 2059              		.global	VL53L1_f_029
 2060              		.syntax unified
 2061              		.thumb
 2062              		.thumb_func
 2064              	VL53L1_f_029:
 2065              	.LVL211:
 2066              	.LFB14:
 777:Drivers/BSP/Components/vl53l1cb/modules/vl53l1_hist_algos_gen3.c **** 
 778:Drivers/BSP/Components/vl53l1cb/modules/vl53l1_hist_algos_gen3.c **** 
 779:Drivers/BSP/Components/vl53l1cb/modules/vl53l1_hist_algos_gen3.c **** void VL53L1_f_029(
 780:Drivers/BSP/Components/vl53l1cb/modules/vl53l1_hist_algos_gen3.c **** 	uint8_t                      range_id,
 781:Drivers/BSP/Components/vl53l1cb/modules/vl53l1_hist_algos_gen3.c **** 	uint8_t                      valid_phase_low,
 782:Drivers/BSP/Components/vl53l1cb/modules/vl53l1_hist_algos_gen3.c **** 	uint8_t                      valid_phase_high,
 783:Drivers/BSP/Components/vl53l1cb/modules/vl53l1_hist_algos_gen3.c **** 	uint16_t                     sigma_thres,
 784:Drivers/BSP/Components/vl53l1cb/modules/vl53l1_hist_algos_gen3.c **** 	VL53L1_histogram_bin_data_t *pbins,
 785:Drivers/BSP/Components/vl53l1cb/modules/vl53l1_hist_algos_gen3.c **** 	VL53L1_hist_pulse_data_t    *ppulse,
 786:Drivers/BSP/Components/vl53l1cb/modules/vl53l1_hist_algos_gen3.c **** 	VL53L1_range_data_t         *pdata)
 787:Drivers/BSP/Components/vl53l1cb/modules/vl53l1_hist_algos_gen3.c **** {
 2067              		.loc 1 787 1 is_stmt 1 view -0
 2068              		.cfi_startproc
 2069              		@ args = 12, pretend = 0, frame = 0
 2070              		@ frame_needed = 0, uses_anonymous_args = 0
 2071              		.loc 1 787 1 is_stmt 0 view .LVU693
 2072 0000 F0B5     		push	{r4, r5, r6, r7, lr}
 2073              		.cfi_def_cfa_offset 20
 2074              		.cfi_offset 4, -20
 2075              		.cfi_offset 5, -16
 2076              		.cfi_offset 6, -12
 2077              		.cfi_offset 7, -8
 2078              		.cfi_offset 14, -4
 2079 0002 059E     		ldr	r6, [sp, #20]
 2080 0004 069D     		ldr	r5, [sp, #24]
 2081 0006 079C     		ldr	r4, [sp, #28]
 788:Drivers/BSP/Components/vl53l1cb/modules/vl53l1_hist_algos_gen3.c **** 
 789:Drivers/BSP/Components/vl53l1cb/modules/vl53l1_hist_algos_gen3.c **** 	uint16_t  lower_phase_limit = 0;
 2082              		.loc 1 789 2 is_stmt 1 view .LVU694
 2083              	.LVL212:
 790:Drivers/BSP/Components/vl53l1cb/modules/vl53l1_hist_algos_gen3.c **** 	uint16_t  upper_phase_limit = 0;
 2084              		.loc 1 790 2 view .LVU695
 791:Drivers/BSP/Components/vl53l1cb/modules/vl53l1_hist_algos_gen3.c **** 
 792:Drivers/BSP/Components/vl53l1cb/modules/vl53l1_hist_algos_gen3.c **** 
 793:Drivers/BSP/Components/vl53l1cb/modules/vl53l1_hist_algos_gen3.c **** 
 794:Drivers/BSP/Components/vl53l1cb/modules/vl53l1_hist_algos_gen3.c **** 	pdata->range_id              = range_id;
 2085              		.loc 1 794 2 view .LVU696
 2086              		.loc 1 794 31 is_stmt 0 view .LVU697
 2087 0008 2070     		strb	r0, [r4]
 795:Drivers/BSP/Components/vl53l1cb/modules/vl53l1_hist_algos_gen3.c **** 	pdata->time_stamp            = 0;
 2088              		.loc 1 795 2 is_stmt 1 view .LVU698
 2089              		.loc 1 795 31 is_stmt 0 view .LVU699
 2090 000a 0020     		movs	r0, #0
ARM GAS  C:\Temp\cc80ShlR.s 			page 56


 2091              	.LVL213:
 2092              		.loc 1 795 31 view .LVU700
 2093 000c 6060     		str	r0, [r4, #4]
 796:Drivers/BSP/Components/vl53l1cb/modules/vl53l1_hist_algos_gen3.c **** 
 797:Drivers/BSP/Components/vl53l1cb/modules/vl53l1_hist_algos_gen3.c **** 	pdata->VL53L1_p_015          = ppulse->VL53L1_p_015;
 2094              		.loc 1 797 2 is_stmt 1 view .LVU701
 2095              		.loc 1 797 39 is_stmt 0 view .LVU702
 2096 000e 2878     		ldrb	r0, [r5]	@ zero_extendqisi2
 2097              		.loc 1 797 31 view .LVU703
 2098 0010 2072     		strb	r0, [r4, #8]
 798:Drivers/BSP/Components/vl53l1cb/modules/vl53l1_hist_algos_gen3.c **** 	pdata->VL53L1_p_022             = ppulse->VL53L1_p_022;
 2099              		.loc 1 798 2 is_stmt 1 view .LVU704
 2100              		.loc 1 798 42 is_stmt 0 view .LVU705
 2101 0012 6878     		ldrb	r0, [r5, #1]	@ zero_extendqisi2
 2102              		.loc 1 798 34 view .LVU706
 2103 0014 6072     		strb	r0, [r4, #9]
 799:Drivers/BSP/Components/vl53l1cb/modules/vl53l1_hist_algos_gen3.c **** 	pdata->VL53L1_p_025            = ppulse->VL53L1_p_025;
 2104              		.loc 1 799 2 is_stmt 1 view .LVU707
 2105              		.loc 1 799 41 is_stmt 0 view .LVU708
 2106 0016 A878     		ldrb	r0, [r5, #2]	@ zero_extendqisi2
 2107              		.loc 1 799 33 view .LVU709
 2108 0018 A072     		strb	r0, [r4, #10]
 800:Drivers/BSP/Components/vl53l1cb/modules/vl53l1_hist_algos_gen3.c **** 	pdata->VL53L1_p_026              = ppulse->VL53L1_p_026;
 2109              		.loc 1 800 2 is_stmt 1 view .LVU710
 2110              		.loc 1 800 43 is_stmt 0 view .LVU711
 2111 001a E878     		ldrb	r0, [r5, #3]	@ zero_extendqisi2
 2112              		.loc 1 800 35 view .LVU712
 2113 001c E072     		strb	r0, [r4, #11]
 801:Drivers/BSP/Components/vl53l1cb/modules/vl53l1_hist_algos_gen3.c **** 	pdata->VL53L1_p_016            = ppulse->VL53L1_p_016;
 2114              		.loc 1 801 2 is_stmt 1 view .LVU713
 2115              		.loc 1 801 41 is_stmt 0 view .LVU714
 2116 001e 2879     		ldrb	r0, [r5, #4]	@ zero_extendqisi2
 2117              		.loc 1 801 33 view .LVU715
 2118 0020 2073     		strb	r0, [r4, #12]
 802:Drivers/BSP/Components/vl53l1cb/modules/vl53l1_hist_algos_gen3.c **** 	pdata->VL53L1_p_027             = ppulse->VL53L1_p_027;
 2119              		.loc 1 802 2 is_stmt 1 view .LVU716
 2120              		.loc 1 802 42 is_stmt 0 view .LVU717
 2121 0022 6879     		ldrb	r0, [r5, #5]	@ zero_extendqisi2
 2122              		.loc 1 802 34 view .LVU718
 2123 0024 6073     		strb	r0, [r4, #13]
 803:Drivers/BSP/Components/vl53l1cb/modules/vl53l1_hist_algos_gen3.c **** 
 804:Drivers/BSP/Components/vl53l1cb/modules/vl53l1_hist_algos_gen3.c **** 
 805:Drivers/BSP/Components/vl53l1cb/modules/vl53l1_hist_algos_gen3.c **** 
 806:Drivers/BSP/Components/vl53l1cb/modules/vl53l1_hist_algos_gen3.c **** 	pdata->VL53L1_p_030  =
 2124              		.loc 1 806 2 is_stmt 1 view .LVU719
 807:Drivers/BSP/Components/vl53l1cb/modules/vl53l1_hist_algos_gen3.c **** 		(ppulse->VL53L1_p_016 + 1) - ppulse->VL53L1_p_015;
 2125              		.loc 1 807 10 is_stmt 0 view .LVU720
 2126 0026 2879     		ldrb	r0, [r5, #4]	@ zero_extendqisi2
 2127              		.loc 1 807 38 view .LVU721
 2128 0028 95F800C0 		ldrb	ip, [r5]	@ zero_extendqisi2
 2129              		.loc 1 807 30 view .LVU722
 2130 002c A0EB0C00 		sub	r0, r0, ip
 2131 0030 0130     		adds	r0, r0, #1
 806:Drivers/BSP/Components/vl53l1cb/modules/vl53l1_hist_algos_gen3.c **** 		(ppulse->VL53L1_p_016 + 1) - ppulse->VL53L1_p_015;
 2132              		.loc 1 806 23 view .LVU723
 2133 0032 2074     		strb	r0, [r4, #16]
 808:Drivers/BSP/Components/vl53l1cb/modules/vl53l1_hist_algos_gen3.c **** 
ARM GAS  C:\Temp\cc80ShlR.s 			page 57


 809:Drivers/BSP/Components/vl53l1cb/modules/vl53l1_hist_algos_gen3.c **** 
 810:Drivers/BSP/Components/vl53l1cb/modules/vl53l1_hist_algos_gen3.c **** 
 811:Drivers/BSP/Components/vl53l1cb/modules/vl53l1_hist_algos_gen3.c **** 	pdata->zero_distance_phase   = pbins->zero_distance_phase;
 2134              		.loc 1 811 2 is_stmt 1 view .LVU724
 2135              		.loc 1 811 38 is_stmt 0 view .LVU725
 2136 0034 B6F89C00 		ldrh	r0, [r6, #156]
 2137              		.loc 1 811 31 view .LVU726
 2138 0038 A082     		strh	r0, [r4, #20]	@ movhi
 812:Drivers/BSP/Components/vl53l1cb/modules/vl53l1_hist_algos_gen3.c **** 	pdata->VL53L1_p_005              = ppulse->VL53L1_p_005;
 2139              		.loc 1 812 2 is_stmt 1 view .LVU727
 2140              		.loc 1 812 43 is_stmt 0 view .LVU728
 2141 003a B5F820C0 		ldrh	ip, [r5, #32]
 2142              		.loc 1 812 35 view .LVU729
 2143 003e A4F83CC0 		strh	ip, [r4, #60]	@ movhi
 813:Drivers/BSP/Components/vl53l1cb/modules/vl53l1_hist_algos_gen3.c **** 	pdata->VL53L1_p_028             = (uint16_t)ppulse->VL53L1_p_028;
 2144              		.loc 1 813 2 is_stmt 1 view .LVU730
 2145              		.loc 1 813 36 is_stmt 0 view .LVU731
 2146 0042 B5F814C0 		ldrh	ip, [r5, #20]
 2147              		.loc 1 813 34 view .LVU732
 2148 0046 A4F83EC0 		strh	ip, [r4, #62]	@ movhi
 814:Drivers/BSP/Components/vl53l1cb/modules/vl53l1_hist_algos_gen3.c **** 	pdata->VL53L1_p_014          = (uint16_t)ppulse->VL53L1_p_014;
 2149              		.loc 1 814 2 is_stmt 1 view .LVU733
 2150              		.loc 1 814 33 is_stmt 0 view .LVU734
 2151 004a B5F818C0 		ldrh	ip, [r5, #24]
 2152              		.loc 1 814 31 view .LVU735
 2153 004e A4F840C0 		strh	ip, [r4, #64]	@ movhi
 815:Drivers/BSP/Components/vl53l1cb/modules/vl53l1_hist_algos_gen3.c **** 	pdata->VL53L1_p_029             = (uint16_t)ppulse->VL53L1_p_029;
 2154              		.loc 1 815 2 is_stmt 1 view .LVU736
 2155              		.loc 1 815 36 is_stmt 0 view .LVU737
 2156 0052 B5F81CE0 		ldrh	lr, [r5, #28]
 2157              		.loc 1 815 34 view .LVU738
 2158 0056 A4F842E0 		strh	lr, [r4, #66]	@ movhi
 816:Drivers/BSP/Components/vl53l1cb/modules/vl53l1_hist_algos_gen3.c **** 	pdata->VL53L1_p_021  = (uint32_t)ppulse->VL53L1_p_021;
 2159              		.loc 1 816 2 is_stmt 1 view .LVU739
 2160              		.loc 1 816 23 is_stmt 0 view .LVU740
 2161 005a EF68     		ldr	r7, [r5, #12]
 2162 005c A762     		str	r7, [r4, #40]
 817:Drivers/BSP/Components/vl53l1cb/modules/vl53l1_hist_algos_gen3.c **** 	pdata->VL53L1_p_013   = ppulse->VL53L1_p_013;
 2163              		.loc 1 817 2 is_stmt 1 view .LVU741
 2164              		.loc 1 817 24 is_stmt 0 view .LVU742
 2165 005e 2F69     		ldr	r7, [r5, #16]
 2166 0060 E762     		str	r7, [r4, #44]
 818:Drivers/BSP/Components/vl53l1cb/modules/vl53l1_hist_algos_gen3.c **** 	pdata->VL53L1_p_020 = (uint32_t)ppulse->VL53L1_p_020;
 2167              		.loc 1 818 2 is_stmt 1 view .LVU743
 2168              		.loc 1 818 22 is_stmt 0 view .LVU744
 2169 0062 AF68     		ldr	r7, [r5, #8]
 2170 0064 6762     		str	r7, [r4, #36]
 819:Drivers/BSP/Components/vl53l1cb/modules/vl53l1_hist_algos_gen3.c **** 	pdata->total_periods_elapsed = pbins->total_periods_elapsed;
 2171              		.loc 1 819 2 is_stmt 1 view .LVU745
 2172              		.loc 1 819 31 is_stmt 0 view .LVU746
 2173 0066 D6F88870 		ldr	r7, [r6, #136]
 2174 006a A761     		str	r7, [r4, #24]
 820:Drivers/BSP/Components/vl53l1cb/modules/vl53l1_hist_algos_gen3.c **** 
 821:Drivers/BSP/Components/vl53l1cb/modules/vl53l1_hist_algos_gen3.c **** 
 822:Drivers/BSP/Components/vl53l1cb/modules/vl53l1_hist_algos_gen3.c **** 
 823:Drivers/BSP/Components/vl53l1cb/modules/vl53l1_hist_algos_gen3.c **** 	pdata->range_status = VL53L1_DEVICEERROR_RANGECOMPLETE_NO_WRAP_CHECK;
 2175              		.loc 1 823 2 is_stmt 1 view .LVU747
ARM GAS  C:\Temp\cc80ShlR.s 			page 58


 2176              		.loc 1 823 22 is_stmt 0 view .LVU748
 2177 006c 4FF0130E 		mov	lr, #19
 2178 0070 84F84AE0 		strb	lr, [r4, #74]
 824:Drivers/BSP/Components/vl53l1cb/modules/vl53l1_hist_algos_gen3.c **** 
 825:Drivers/BSP/Components/vl53l1cb/modules/vl53l1_hist_algos_gen3.c **** 
 826:Drivers/BSP/Components/vl53l1cb/modules/vl53l1_hist_algos_gen3.c **** 	if (sigma_thres > 0 &&
 2179              		.loc 1 826 2 is_stmt 1 view .LVU749
 2180              		.loc 1 826 5 is_stmt 0 view .LVU750
 2181 0074 3BB1     		cbz	r3, .L115
 2182 0076 9E46     		mov	lr, r3
 827:Drivers/BSP/Components/vl53l1cb/modules/vl53l1_hist_algos_gen3.c **** 		(uint32_t)ppulse->VL53L1_p_005 > ((uint32_t)sigma_thres << 5))
 2183              		.loc 1 827 19 discriminator 1 view .LVU751
 2184 0078 2B8C     		ldrh	r3, [r5, #32]
 2185              	.LVL214:
 826:Drivers/BSP/Components/vl53l1cb/modules/vl53l1_hist_algos_gen3.c **** 		(uint32_t)ppulse->VL53L1_p_005 > ((uint32_t)sigma_thres << 5))
 2186              		.loc 1 826 22 discriminator 1 view .LVU752
 2187 007a B3EB4E1F 		cmp	r3, lr, lsl #5
 2188 007e 02D9     		bls	.L115
 828:Drivers/BSP/Components/vl53l1cb/modules/vl53l1_hist_algos_gen3.c **** 		pdata->range_status = VL53L1_DEVICEERROR_SIGMATHRESHOLDCHECK;
 2189              		.loc 1 828 3 is_stmt 1 view .LVU753
 2190              		.loc 1 828 23 is_stmt 0 view .LVU754
 2191 0080 0623     		movs	r3, #6
 2192 0082 84F84A30 		strb	r3, [r4, #74]
 2193              	.L115:
 829:Drivers/BSP/Components/vl53l1cb/modules/vl53l1_hist_algos_gen3.c **** 
 830:Drivers/BSP/Components/vl53l1cb/modules/vl53l1_hist_algos_gen3.c **** 
 831:Drivers/BSP/Components/vl53l1cb/modules/vl53l1_hist_algos_gen3.c **** 
 832:Drivers/BSP/Components/vl53l1cb/modules/vl53l1_hist_algos_gen3.c **** 	lower_phase_limit  = (uint8_t)valid_phase_low << 8;
 2194              		.loc 1 832 2 is_stmt 1 view .LVU755
 2195              		.loc 1 832 21 is_stmt 0 view .LVU756
 2196 0086 0B02     		lsls	r3, r1, #8
 2197              	.LVL215:
 833:Drivers/BSP/Components/vl53l1cb/modules/vl53l1_hist_algos_gen3.c **** 	if (lower_phase_limit < pdata->zero_distance_phase)
 2198              		.loc 1 833 2 is_stmt 1 view .LVU757
 2199              		.loc 1 833 5 is_stmt 0 view .LVU758
 2200 0088 B0EB012F 		cmp	r0, r1, lsl #8
 2201 008c 0ED9     		bls	.L119
 834:Drivers/BSP/Components/vl53l1cb/modules/vl53l1_hist_algos_gen3.c **** 		lower_phase_limit =
 2202              		.loc 1 834 3 is_stmt 1 view .LVU759
 2203              		.loc 1 834 21 is_stmt 0 view .LVU760
 2204 008e C01A     		subs	r0, r0, r3
 2205 0090 80B2     		uxth	r0, r0
 2206              	.LVL216:
 2207              	.L116:
 835:Drivers/BSP/Components/vl53l1cb/modules/vl53l1_hist_algos_gen3.c **** 			pdata->zero_distance_phase -
 836:Drivers/BSP/Components/vl53l1cb/modules/vl53l1_hist_algos_gen3.c **** 			lower_phase_limit;
 837:Drivers/BSP/Components/vl53l1cb/modules/vl53l1_hist_algos_gen3.c **** 	else
 838:Drivers/BSP/Components/vl53l1cb/modules/vl53l1_hist_algos_gen3.c **** 		lower_phase_limit  = 0;
 839:Drivers/BSP/Components/vl53l1cb/modules/vl53l1_hist_algos_gen3.c **** 
 840:Drivers/BSP/Components/vl53l1cb/modules/vl53l1_hist_algos_gen3.c **** 	upper_phase_limit  = (uint8_t)valid_phase_high << 8;
 2208              		.loc 1 840 2 is_stmt 1 view .LVU761
 841:Drivers/BSP/Components/vl53l1cb/modules/vl53l1_hist_algos_gen3.c **** 	upper_phase_limit += pbins->zero_distance_phase;
 2209              		.loc 1 841 2 view .LVU762
 2210              		.loc 1 841 28 is_stmt 0 view .LVU763
 2211 0092 B6F89C30 		ldrh	r3, [r6, #156]
 2212              		.loc 1 841 20 view .LVU764
 2213 0096 03EB0223 		add	r3, r3, r2, lsl #8
ARM GAS  C:\Temp\cc80ShlR.s 			page 59


 2214 009a 9BB2     		uxth	r3, r3
 2215              	.LVL217:
 842:Drivers/BSP/Components/vl53l1cb/modules/vl53l1_hist_algos_gen3.c **** 
 843:Drivers/BSP/Components/vl53l1cb/modules/vl53l1_hist_algos_gen3.c **** 	if (pdata->VL53L1_p_014 < lower_phase_limit ||
 2216              		.loc 1 843 2 is_stmt 1 view .LVU765
 2217              		.loc 1 843 5 is_stmt 0 view .LVU766
 2218 009c 8445     		cmp	ip, r0
 2219 009e 01D3     		bcc	.L117
 2220              		.loc 1 843 46 discriminator 1 view .LVU767
 2221 00a0 9C45     		cmp	ip, r3
 2222 00a2 02D9     		bls	.L114
 2223              	.L117:
 844:Drivers/BSP/Components/vl53l1cb/modules/vl53l1_hist_algos_gen3.c **** 		pdata->VL53L1_p_014 > upper_phase_limit)
 845:Drivers/BSP/Components/vl53l1cb/modules/vl53l1_hist_algos_gen3.c **** 		pdata->range_status = VL53L1_DEVICEERROR_RANGEPHASECHECK;
 2224              		.loc 1 845 3 is_stmt 1 view .LVU768
 2225              		.loc 1 845 23 is_stmt 0 view .LVU769
 2226 00a4 0523     		movs	r3, #5
 2227              	.LVL218:
 2228              		.loc 1 845 23 view .LVU770
 2229 00a6 84F84A30 		strb	r3, [r4, #74]
 2230              	.LVL219:
 2231              	.L114:
 846:Drivers/BSP/Components/vl53l1cb/modules/vl53l1_hist_algos_gen3.c **** 
 847:Drivers/BSP/Components/vl53l1cb/modules/vl53l1_hist_algos_gen3.c **** }
 2232              		.loc 1 847 1 view .LVU771
 2233 00aa F0BD     		pop	{r4, r5, r6, r7, pc}
 2234              	.LVL220:
 2235              	.L119:
 838:Drivers/BSP/Components/vl53l1cb/modules/vl53l1_hist_algos_gen3.c **** 
 2236              		.loc 1 838 22 view .LVU772
 2237 00ac 0020     		movs	r0, #0
 2238 00ae F0E7     		b	.L116
 2239              		.cfi_endproc
 2240              	.LFE14:
 2242              		.text
 2243              	.Letext0:
 2244              		.file 2 "c:\\users\\jessejabezarendse\\appdata\\roaming\\code\\user\\globalstorage\\bmd.stm32-for-
 2245              		.file 3 "c:\\users\\jessejabezarendse\\appdata\\roaming\\code\\user\\globalstorage\\bmd.stm32-for-
 2246              		.file 4 "c:\\users\\jessejabezarendse\\appdata\\roaming\\code\\user\\globalstorage\\bmd.stm32-for-
 2247              		.file 5 "Drivers/BSP/Components/vl53l1cb/modules/vl53l1_ll_device.h"
 2248              		.file 6 "Drivers/BSP/Components/vl53l1cb/modules/vl53l1_hist_structs.h"
 2249              		.file 7 "Drivers/BSP/Components/vl53l1cb/modules/vl53l1_error_codes.h"
 2250              		.file 8 "Drivers/BSP/Components/vl53l1cb/modules/vl53l1_ll_def.h"
 2251              		.file 9 "Drivers/BSP/Components/vl53l1cb/modules/vl53l1_hist_private_structs.h"
 2252              		.file 10 "Drivers/BSP/Components/vl53l1cb/modules/vl53l1_sigma_estimate.h"
 2253              		.file 11 "c:\\users\\jessejabezarendse\\appdata\\roaming\\code\\user\\globalstorage\\bmd.stm32-for
 2254              		.file 12 "Drivers/BSP/Components/vl53l1cb/modules/vl53l1_core_support.h"
 2255              		.file 13 "Drivers/BSP/Components/vl53l1cb/modules/vl53l1_hist_core.h"
 2256              		.file 14 "<built-in>"
ARM GAS  C:\Temp\cc80ShlR.s 			page 60

