ARM GAS  C:\Temp\ccoVuBOW.s 			page 1


   1              		.cpu cortex-m4
   2              		.arch armv7e-m
   3              		.fpu fpv4-sp-d16
   4              		.eabi_attribute 27, 1
   5              		.eabi_attribute 28, 1
   6              		.eabi_attribute 20, 1
   7              		.eabi_attribute 21, 1
   8              		.eabi_attribute 23, 3
   9              		.eabi_attribute 24, 1
  10              		.eabi_attribute 25, 1
  11              		.eabi_attribute 26, 1
  12              		.eabi_attribute 30, 1
  13              		.eabi_attribute 34, 1
  14              		.eabi_attribute 18, 4
  15              		.file	"app_tof.c"
  16              		.text
  17              	.Ltext0:
  18              		.cfi_sections	.debug_frame
  19              		.file 1 "TOF/App/app_tof.c"
  20              		.section	.rodata.MX_53L1A2_MultiSensorRanging_Init.str1.4,"aMS",%progbits,1
  21              		.align	2
  22              	.LC0:
  23 0000 35334C31 		.ascii	"53L1A2 Multi Sensor Ranging demo application\000"
  23      4132204D 
  23      756C7469 
  23      2053656E 
  23      736F7220 
  24 002d 000000   		.align	2
  25              	.LC1:
  26 0030 546F4620 		.ascii	"ToF sensor %d - ID: %04lX\012\000"
  26      73656E73 
  26      6F722025 
  26      64202D20 
  26      49443A20 
  27              		.section	.text.MX_53L1A2_MultiSensorRanging_Init,"ax",%progbits
  28              		.align	1
  29              		.syntax unified
  30              		.thumb
  31              		.thumb_func
  33              	MX_53L1A2_MultiSensorRanging_Init:
  34              	.LFB139:
   1:TOF/App/app_tof.c **** /**
   2:TOF/App/app_tof.c ****   ******************************************************************************
   3:TOF/App/app_tof.c ****   * @file          : app_tof.c
   4:TOF/App/app_tof.c ****   * @author        : IMG SW Application Team
   5:TOF/App/app_tof.c ****   * @brief         : This file provides code for the configuration
   6:TOF/App/app_tof.c ****   *                  of the STMicroelectronics.X-CUBE-TOF1.3.4.2 instances.
   7:TOF/App/app_tof.c ****   ******************************************************************************
   8:TOF/App/app_tof.c ****   *
   9:TOF/App/app_tof.c ****   * @attention
  10:TOF/App/app_tof.c ****   *
  11:TOF/App/app_tof.c ****   * Copyright (c) 2023 STMicroelectronics.
  12:TOF/App/app_tof.c ****   * All rights reserved.
  13:TOF/App/app_tof.c ****   *
  14:TOF/App/app_tof.c ****   * This software is licensed under terms that can be found in the LICENSE file
  15:TOF/App/app_tof.c ****   * in the root directory of this software component.
  16:TOF/App/app_tof.c ****   * If no LICENSE file comes with this software, it is provided AS-IS.
ARM GAS  C:\Temp\ccoVuBOW.s 			page 2


  17:TOF/App/app_tof.c ****   *
  18:TOF/App/app_tof.c ****   ******************************************************************************
  19:TOF/App/app_tof.c ****   */
  20:TOF/App/app_tof.c **** 
  21:TOF/App/app_tof.c **** #ifdef __cplusplus
  22:TOF/App/app_tof.c **** extern "C" {
  23:TOF/App/app_tof.c **** #endif
  24:TOF/App/app_tof.c **** 
  25:TOF/App/app_tof.c **** /* Includes ------------------------------------------------------------------*/
  26:TOF/App/app_tof.c **** #include "app_tof.h"
  27:TOF/App/app_tof.c **** #include "main.h"
  28:TOF/App/app_tof.c **** #include <stdio.h>
  29:TOF/App/app_tof.c **** 
  30:TOF/App/app_tof.c **** #include "53l1a2_ranging_sensor.h"
  31:TOF/App/app_tof.c **** #include "stm32f4xx_nucleo.h"
  32:TOF/App/app_tof.c **** 
  33:TOF/App/app_tof.c **** /* Private typedef -----------------------------------------------------------*/
  34:TOF/App/app_tof.c **** 
  35:TOF/App/app_tof.c **** /* Private define ------------------------------------------------------------*/
  36:TOF/App/app_tof.c **** #define TIMING_BUDGET (30U) /* 16 ms < TimingBudget < 500 ms */
  37:TOF/App/app_tof.c **** #define POLLING_PERIOD (250U) /* refresh rate for polling mode (ms, shall be consistent with Timing
  38:TOF/App/app_tof.c **** 
  39:TOF/App/app_tof.c **** /* Private variables ---------------------------------------------------------*/
  40:TOF/App/app_tof.c **** static int32_t status = 0;
  41:TOF/App/app_tof.c **** static uint8_t ToF_Present[RANGING_SENSOR_INSTANCES_NBR] = {0};
  42:TOF/App/app_tof.c **** volatile uint8_t ToF_EventDetected = 0;
  43:TOF/App/app_tof.c **** 
  44:TOF/App/app_tof.c **** static const char *TofDevStr[] =
  45:TOF/App/app_tof.c **** {
  46:TOF/App/app_tof.c ****   [VL53L1A2_DEV_LEFT] = "LEFT",
  47:TOF/App/app_tof.c ****   [VL53L1A2_DEV_CENTER] = "CENTER",
  48:TOF/App/app_tof.c ****   [VL53L1A2_DEV_RIGHT] = "RIGHT"
  49:TOF/App/app_tof.c **** };
  50:TOF/App/app_tof.c **** 
  51:TOF/App/app_tof.c **** /* Private function prototypes -----------------------------------------------*/
  52:TOF/App/app_tof.c **** static void MX_53L1A2_MultiSensorRanging_Init(void);
  53:TOF/App/app_tof.c **** static void MX_53L1A2_MultiSensorRanging_Process(void);
  54:TOF/App/app_tof.c **** static void print_result(RANGING_SENSOR_Result_t *Result);
  55:TOF/App/app_tof.c **** 
  56:TOF/App/app_tof.c **** void MX_TOF_Init(void)
  57:TOF/App/app_tof.c **** {
  58:TOF/App/app_tof.c ****   /* USER CODE BEGIN SV */
  59:TOF/App/app_tof.c **** 
  60:TOF/App/app_tof.c ****   /* USER CODE END SV */
  61:TOF/App/app_tof.c **** 
  62:TOF/App/app_tof.c ****   /* USER CODE BEGIN TOF_Init_PreTreatment */
  63:TOF/App/app_tof.c **** 
  64:TOF/App/app_tof.c ****   /* USER CODE END TOF_Init_PreTreatment */
  65:TOF/App/app_tof.c **** 
  66:TOF/App/app_tof.c ****   /* Initialize the peripherals and the TOF components */
  67:TOF/App/app_tof.c **** 
  68:TOF/App/app_tof.c ****   MX_53L1A2_MultiSensorRanging_Init();
  69:TOF/App/app_tof.c **** 
  70:TOF/App/app_tof.c ****   /* USER CODE BEGIN TOF_Init_PostTreatment */
  71:TOF/App/app_tof.c **** 
  72:TOF/App/app_tof.c ****   /* USER CODE END TOF_Init_PostTreatment */
  73:TOF/App/app_tof.c **** }
ARM GAS  C:\Temp\ccoVuBOW.s 			page 3


  74:TOF/App/app_tof.c **** 
  75:TOF/App/app_tof.c **** /*
  76:TOF/App/app_tof.c ****  * LM background task
  77:TOF/App/app_tof.c ****  */
  78:TOF/App/app_tof.c **** void MX_TOF_Process(void)
  79:TOF/App/app_tof.c **** {
  80:TOF/App/app_tof.c ****   /* USER CODE BEGIN TOF_Process_PreTreatment */
  81:TOF/App/app_tof.c **** 
  82:TOF/App/app_tof.c ****   /* USER CODE END TOF_Process_PreTreatment */
  83:TOF/App/app_tof.c **** 
  84:TOF/App/app_tof.c ****   MX_53L1A2_MultiSensorRanging_Process();
  85:TOF/App/app_tof.c **** 
  86:TOF/App/app_tof.c ****   /* USER CODE BEGIN TOF_Process_PostTreatment */
  87:TOF/App/app_tof.c **** 
  88:TOF/App/app_tof.c ****   /* USER CODE END TOF_Process_PostTreatment */
  89:TOF/App/app_tof.c **** }
  90:TOF/App/app_tof.c **** 
  91:TOF/App/app_tof.c **** static void MX_53L1A2_MultiSensorRanging_Init(void)
  92:TOF/App/app_tof.c **** {
  35              		.loc 1 92 1 view -0
  36              		.cfi_startproc
  37              		@ args = 0, pretend = 0, frame = 8
  38              		@ frame_needed = 0, uses_anonymous_args = 0
  39 0000 10B5     		push	{r4, lr}
  40              		.cfi_def_cfa_offset 8
  41              		.cfi_offset 4, -8
  42              		.cfi_offset 14, -4
  43 0002 82B0     		sub	sp, sp, #8
  44              		.cfi_def_cfa_offset 16
  93:TOF/App/app_tof.c ****   uint8_t device;
  45              		.loc 1 93 3 view .LVU1
  94:TOF/App/app_tof.c ****   uint16_t i2c_addr;
  46              		.loc 1 94 3 view .LVU2
  95:TOF/App/app_tof.c ****   uint32_t id;
  47              		.loc 1 95 3 view .LVU3
  96:TOF/App/app_tof.c **** 
  97:TOF/App/app_tof.c ****   /* Initialize Virtual COM Port */
  98:TOF/App/app_tof.c ****   BSP_COM_Init(COM1);
  48              		.loc 1 98 3 view .LVU4
  49 0004 0020     		movs	r0, #0
  50 0006 FFF7FEFF 		bl	BSP_COM_Init
  51              	.LVL0:
  99:TOF/App/app_tof.c **** 
 100:TOF/App/app_tof.c ****   printf("53L1A2 Multi Sensor Ranging demo application\n");
  52              		.loc 1 100 3 view .LVU5
  53 000a 1B48     		ldr	r0, .L9
  54 000c FFF7FEFF 		bl	puts
  55              	.LVL1:
 101:TOF/App/app_tof.c **** 
 102:TOF/App/app_tof.c ****   /* put all the devices in shutdown mode */
 103:TOF/App/app_tof.c ****   for (device = 0; device < RANGING_SENSOR_INSTANCES_NBR; device++)
  56              		.loc 1 103 3 view .LVU6
  57              		.loc 1 103 15 is_stmt 0 view .LVU7
  58 0010 0024     		movs	r4, #0
  59              		.loc 1 103 3 view .LVU8
  60 0012 05E0     		b	.L2
  61              	.LVL2:
ARM GAS  C:\Temp\ccoVuBOW.s 			page 4


  62              	.L3:
 104:TOF/App/app_tof.c ****   {
 105:TOF/App/app_tof.c ****     VL53L1A2_RANGING_SENSOR_SetPowerMode(device, RANGING_SENSOR_POWERMODE_OFF);
  63              		.loc 1 105 5 is_stmt 1 discriminator 3 view .LVU9
  64 0014 0121     		movs	r1, #1
  65 0016 2046     		mov	r0, r4
  66 0018 FFF7FEFF 		bl	VL53L1A2_RANGING_SENSOR_SetPowerMode
  67              	.LVL3:
 103:TOF/App/app_tof.c ****   {
  68              		.loc 1 103 65 discriminator 3 view .LVU10
  69 001c 0134     		adds	r4, r4, #1
  70              	.LVL4:
 103:TOF/App/app_tof.c ****   {
  71              		.loc 1 103 65 is_stmt 0 discriminator 3 view .LVU11
  72 001e E4B2     		uxtb	r4, r4
  73              	.LVL5:
  74              	.L2:
 103:TOF/App/app_tof.c ****   {
  75              		.loc 1 103 27 is_stmt 1 discriminator 1 view .LVU12
  76 0020 022C     		cmp	r4, #2
  77 0022 F7D9     		bls	.L3
 106:TOF/App/app_tof.c ****   }
 107:TOF/App/app_tof.c **** 
 108:TOF/App/app_tof.c ****   /* power on the devices one at a time, initialize them and change their address.
 109:TOF/App/app_tof.c ****    * once the address is updated, the communication with the devices is checked
 110:TOF/App/app_tof.c ****    * reading its ID.
 111:TOF/App/app_tof.c ****    */
 112:TOF/App/app_tof.c ****   for (device = 0; device < RANGING_SENSOR_INSTANCES_NBR; device++)
  78              		.loc 1 112 15 is_stmt 0 view .LVU13
  79 0024 0024     		movs	r4, #0
  80              	.LVL6:
  81              		.loc 1 112 15 view .LVU14
  82 0026 01E0     		b	.L4
  83              	.LVL7:
  84              	.L5:
  85              		.loc 1 112 65 is_stmt 1 discriminator 2 view .LVU15
  86 0028 0134     		adds	r4, r4, #1
  87              	.LVL8:
  88              		.loc 1 112 65 is_stmt 0 discriminator 2 view .LVU16
  89 002a E4B2     		uxtb	r4, r4
  90              	.LVL9:
  91              	.L4:
  92              		.loc 1 112 27 is_stmt 1 discriminator 1 view .LVU17
  93 002c 022C     		cmp	r4, #2
  94 002e 20D8     		bhi	.L8
 113:TOF/App/app_tof.c ****   {
 114:TOF/App/app_tof.c ****     VL53L1A2_RANGING_SENSOR_SetPowerMode(device, RANGING_SENSOR_POWERMODE_ON);
  95              		.loc 1 114 5 view .LVU18
  96 0030 0021     		movs	r1, #0
  97 0032 2046     		mov	r0, r4
  98 0034 FFF7FEFF 		bl	VL53L1A2_RANGING_SENSOR_SetPowerMode
  99              	.LVL10:
 115:TOF/App/app_tof.c ****     status = VL53L1A2_RANGING_SENSOR_Init(device);
 100              		.loc 1 115 5 view .LVU19
 101              		.loc 1 115 14 is_stmt 0 view .LVU20
 102 0038 2046     		mov	r0, r4
 103 003a FFF7FEFF 		bl	VL53L1A2_RANGING_SENSOR_Init
ARM GAS  C:\Temp\ccoVuBOW.s 			page 5


 104              	.LVL11:
 105              		.loc 1 115 12 view .LVU21
 106 003e 0F4B     		ldr	r3, .L9+4
 107 0040 1860     		str	r0, [r3]
 116:TOF/App/app_tof.c **** 
 117:TOF/App/app_tof.c ****     /* 0: not detected, 1: detected */
 118:TOF/App/app_tof.c ****     ToF_Present[device] = (status != BSP_ERROR_NONE) ? 0 : 1;
 108              		.loc 1 118 5 is_stmt 1 view .LVU22
 109              		.loc 1 118 58 is_stmt 0 view .LVU23
 110 0042 B0FA80F0 		clz	r0, r0
 111 0046 4009     		lsrs	r0, r0, #5
 112              		.loc 1 118 25 view .LVU24
 113 0048 0D4B     		ldr	r3, .L9+8
 114 004a 1855     		strb	r0, [r3, r4]
 119:TOF/App/app_tof.c **** 
 120:TOF/App/app_tof.c ****     /* skip this device if init not successful */
 121:TOF/App/app_tof.c ****     if (ToF_Present[device] == 0) { continue; }
 115              		.loc 1 121 5 is_stmt 1 view .LVU25
 116              		.loc 1 121 8 is_stmt 0 view .LVU26
 117 004c 0028     		cmp	r0, #0
 118 004e EBD0     		beq	.L5
 122:TOF/App/app_tof.c **** 
 123:TOF/App/app_tof.c ****     /* left: 0x54, center: 0x56, right: 0x58 */
 124:TOF/App/app_tof.c ****     i2c_addr = (RANGING_SENSOR_VL53L1CB_ADDRESS + (device + 1) * 2);
 119              		.loc 1 124 5 is_stmt 1 view .LVU27
 120              		.loc 1 124 49 is_stmt 0 view .LVU28
 121 0050 04F12A01 		add	r1, r4, #42
 122              		.loc 1 124 14 view .LVU29
 123 0054 4900     		lsls	r1, r1, #1
 124 0056 89B2     		uxth	r1, r1
 125              	.LVL12:
 125:TOF/App/app_tof.c ****     VL53L1A2_RANGING_SENSOR_SetAddress(device, i2c_addr);
 126              		.loc 1 125 5 is_stmt 1 view .LVU30
 127 0058 2046     		mov	r0, r4
 128 005a FFF7FEFF 		bl	VL53L1A2_RANGING_SENSOR_SetAddress
 129              	.LVL13:
 126:TOF/App/app_tof.c **** 
 127:TOF/App/app_tof.c ****     /* check the communication with the device reading the ID */
 128:TOF/App/app_tof.c ****     VL53L1A2_RANGING_SENSOR_ReadID(device, &id);
 130              		.loc 1 128 5 view .LVU31
 131 005e 01A9     		add	r1, sp, #4
 132 0060 2046     		mov	r0, r4
 133 0062 FFF7FEFF 		bl	VL53L1A2_RANGING_SENSOR_ReadID
 134              	.LVL14:
 129:TOF/App/app_tof.c ****     printf("ToF sensor %d - ID: %04lX\n", device, (unsigned long)id);
 135              		.loc 1 129 5 view .LVU32
 136 0066 019A     		ldr	r2, [sp, #4]
 137 0068 2146     		mov	r1, r4
 138 006a 0648     		ldr	r0, .L9+12
 139 006c FFF7FEFF 		bl	printf
 140              	.LVL15:
 141 0070 DAE7     		b	.L5
 142              	.LVL16:
 143              	.L8:
 130:TOF/App/app_tof.c ****   }
 131:TOF/App/app_tof.c **** }
 144              		.loc 1 131 1 is_stmt 0 view .LVU33
ARM GAS  C:\Temp\ccoVuBOW.s 			page 6


 145 0072 02B0     		add	sp, sp, #8
 146              		.cfi_def_cfa_offset 8
 147              		@ sp needed
 148 0074 10BD     		pop	{r4, pc}
 149              	.LVL17:
 150              	.L10:
 151              		.loc 1 131 1 view .LVU34
 152 0076 00BF     		.align	2
 153              	.L9:
 154 0078 00000000 		.word	.LC0
 155 007c 00000000 		.word	status
 156 0080 00000000 		.word	ToF_Present
 157 0084 30000000 		.word	.LC1
 158              		.cfi_endproc
 159              	.LFE139:
 161              		.section	.rodata.print_result.str1.4,"aMS",%progbits,1
 162              		.align	2
 163              	.LC2:
 164 0000 53746174 		.ascii	"Status = %2ld, Distance = %5ld mm\000"
 164      7573203D 
 164      2025326C 
 164      642C2044 
 164      69737461 
 165              		.section	.text.print_result,"ax",%progbits
 166              		.align	1
 167              		.syntax unified
 168              		.thumb
 169              		.thumb_func
 171              	print_result:
 172              	.LVL18:
 173              	.LFB141:
 132:TOF/App/app_tof.c **** 
 133:TOF/App/app_tof.c **** static void MX_53L1A2_MultiSensorRanging_Process(void)
 134:TOF/App/app_tof.c **** {
 135:TOF/App/app_tof.c ****   uint8_t i;
 136:TOF/App/app_tof.c **** 
 137:TOF/App/app_tof.c ****   static RANGING_SENSOR_Result_t Result;
 138:TOF/App/app_tof.c ****   static RANGING_SENSOR_ProfileConfig_t Profile;
 139:TOF/App/app_tof.c **** 
 140:TOF/App/app_tof.c ****   Profile.RangingProfile = RS_MULTI_TARGET_MEDIUM_RANGE;
 141:TOF/App/app_tof.c ****   Profile.TimingBudget = TIMING_BUDGET;
 142:TOF/App/app_tof.c ****   Profile.Frequency = 0; /* Induces intermeasurement period, set to ZERO for normal ranging */
 143:TOF/App/app_tof.c ****   Profile.EnableAmbient = 0; /* Enable: 1, Disable: 0 */
 144:TOF/App/app_tof.c ****   Profile.EnableSignal = 0; /* Enable: 1, Disable: 0 */
 145:TOF/App/app_tof.c **** 
 146:TOF/App/app_tof.c ****   for (i = 0; i < RANGING_SENSOR_INSTANCES_NBR; i++)
 147:TOF/App/app_tof.c ****   {
 148:TOF/App/app_tof.c ****     /* skip this device if not detected */
 149:TOF/App/app_tof.c ****     if (ToF_Present[i] != 1) { continue; }
 150:TOF/App/app_tof.c **** 
 151:TOF/App/app_tof.c ****     VL53L1A2_RANGING_SENSOR_ConfigProfile(i, &Profile);
 152:TOF/App/app_tof.c ****     status = VL53L1A2_RANGING_SENSOR_Start(i, RS_MODE_BLOCKING_CONTINUOUS);
 153:TOF/App/app_tof.c **** 
 154:TOF/App/app_tof.c ****     if (status != BSP_ERROR_NONE)
 155:TOF/App/app_tof.c ****     {
 156:TOF/App/app_tof.c ****       printf("VL53L1A2_RANGING_SENSOR_Start failed\n");
 157:TOF/App/app_tof.c ****       while (1);
ARM GAS  C:\Temp\ccoVuBOW.s 			page 7


 158:TOF/App/app_tof.c ****     }
 159:TOF/App/app_tof.c ****   }
 160:TOF/App/app_tof.c **** 
 161:TOF/App/app_tof.c ****   while (1)
 162:TOF/App/app_tof.c ****   {
 163:TOF/App/app_tof.c ****     /* polling mode */
 164:TOF/App/app_tof.c ****     for (i = 0; i < RANGING_SENSOR_INSTANCES_NBR; i++)
 165:TOF/App/app_tof.c ****     {
 166:TOF/App/app_tof.c ****       status = VL53L1A2_RANGING_SENSOR_GetDistance(i, &Result);
 167:TOF/App/app_tof.c **** 
 168:TOF/App/app_tof.c ****       if (status == BSP_ERROR_NONE)
 169:TOF/App/app_tof.c ****       {
 170:TOF/App/app_tof.c ****         printf("%s\t - ", TofDevStr[i]);
 171:TOF/App/app_tof.c ****         print_result(&Result);
 172:TOF/App/app_tof.c ****         HAL_Delay(POLLING_PERIOD);
 173:TOF/App/app_tof.c ****       }
 174:TOF/App/app_tof.c ****     }
 175:TOF/App/app_tof.c ****     printf("\n");
 176:TOF/App/app_tof.c ****   }
 177:TOF/App/app_tof.c **** }
 178:TOF/App/app_tof.c **** 
 179:TOF/App/app_tof.c **** static void print_result(RANGING_SENSOR_Result_t *Result)
 180:TOF/App/app_tof.c **** {
 174              		.loc 1 180 1 is_stmt 1 view -0
 175              		.cfi_startproc
 176              		@ args = 0, pretend = 0, frame = 0
 177              		@ frame_needed = 0, uses_anonymous_args = 0
 178              		.loc 1 180 1 is_stmt 0 view .LVU36
 179 0000 38B5     		push	{r3, r4, r5, lr}
 180              		.cfi_def_cfa_offset 16
 181              		.cfi_offset 3, -16
 182              		.cfi_offset 4, -12
 183              		.cfi_offset 5, -8
 184              		.cfi_offset 14, -4
 185 0002 0546     		mov	r5, r0
 181:TOF/App/app_tof.c ****   uint8_t i;
 186              		.loc 1 181 3 is_stmt 1 view .LVU37
 182:TOF/App/app_tof.c **** 
 183:TOF/App/app_tof.c ****   for (i = 0; i < RANGING_SENSOR_MAX_NB_ZONES; i++)
 187              		.loc 1 183 3 view .LVU38
 188              	.LVL19:
 189              		.loc 1 183 10 is_stmt 0 view .LVU39
 190 0004 0024     		movs	r4, #0
 191              	.LVL20:
 192              	.L12:
 193              		.loc 1 183 17 is_stmt 1 discriminator 1 view .LVU40
 194 0006 1CB1     		cbz	r4, .L13
 184:TOF/App/app_tof.c ****   {
 185:TOF/App/app_tof.c ****     printf("Status = %2ld, Distance = %5ld mm",
 186:TOF/App/app_tof.c ****            (long)Result->ZoneResult[i].Status[0],
 187:TOF/App/app_tof.c ****            (long)Result->ZoneResult[i].Distance[0]);
 188:TOF/App/app_tof.c ****   }
 189:TOF/App/app_tof.c ****   printf("\n");
 195              		.loc 1 189 3 view .LVU41
 196 0008 0A20     		movs	r0, #10
 197 000a FFF7FEFF 		bl	putchar
 198              	.LVL21:
ARM GAS  C:\Temp\ccoVuBOW.s 			page 8


 190:TOF/App/app_tof.c **** }
 199              		.loc 1 190 1 is_stmt 0 view .LVU42
 200 000e 38BD     		pop	{r3, r4, r5, pc}
 201              	.LVL22:
 202              	.L13:
 185:TOF/App/app_tof.c ****            (long)Result->ZoneResult[i].Status[0],
 203              		.loc 1 185 5 is_stmt 1 discriminator 3 view .LVU43
 186:TOF/App/app_tof.c ****            (long)Result->ZoneResult[i].Distance[0]);
 204              		.loc 1 186 46 is_stmt 0 discriminator 3 view .LVU44
 205 0010 04EB0413 		add	r3, r4, r4, lsl #4
 206 0014 05EB8303 		add	r3, r5, r3, lsl #2
 185:TOF/App/app_tof.c ****            (long)Result->ZoneResult[i].Status[0],
 207              		.loc 1 185 5 discriminator 3 view .LVU45
 208 0018 9A68     		ldr	r2, [r3, #8]
 209 001a 9969     		ldr	r1, [r3, #24]
 210 001c 0248     		ldr	r0, .L15
 211 001e FFF7FEFF 		bl	printf
 212              	.LVL23:
 183:TOF/App/app_tof.c ****   {
 213              		.loc 1 183 49 is_stmt 1 discriminator 3 view .LVU46
 214 0022 0134     		adds	r4, r4, #1
 215              	.LVL24:
 183:TOF/App/app_tof.c ****   {
 216              		.loc 1 183 49 is_stmt 0 discriminator 3 view .LVU47
 217 0024 E4B2     		uxtb	r4, r4
 218              	.LVL25:
 183:TOF/App/app_tof.c ****   {
 219              		.loc 1 183 49 discriminator 3 view .LVU48
 220 0026 EEE7     		b	.L12
 221              	.L16:
 222              		.align	2
 223              	.L15:
 224 0028 00000000 		.word	.LC2
 225              		.cfi_endproc
 226              	.LFE141:
 228              		.section	.rodata.MX_53L1A2_MultiSensorRanging_Process.str1.4,"aMS",%progbits,1
 229              		.align	2
 230              	.LC3:
 231 0000 564C3533 		.ascii	"VL53L1A2_RANGING_SENSOR_Start failed\000"
 231      4C314132 
 231      5F52414E 
 231      47494E47 
 231      5F53454E 
 232 0025 000000   		.align	2
 233              	.LC4:
 234 0028 25730920 		.ascii	"%s\011 - \000"
 234      2D2000
 235              		.section	.text.MX_53L1A2_MultiSensorRanging_Process,"ax",%progbits
 236              		.align	1
 237              		.syntax unified
 238              		.thumb
 239              		.thumb_func
 241              	MX_53L1A2_MultiSensorRanging_Process:
 242              	.LFB140:
 134:TOF/App/app_tof.c ****   uint8_t i;
 243              		.loc 1 134 1 is_stmt 1 view -0
 244              		.cfi_startproc
ARM GAS  C:\Temp\ccoVuBOW.s 			page 9


 245              		@ args = 0, pretend = 0, frame = 0
 246              		@ frame_needed = 0, uses_anonymous_args = 0
 247 0000 10B5     		push	{r4, lr}
 248              		.cfi_def_cfa_offset 8
 249              		.cfi_offset 4, -8
 250              		.cfi_offset 14, -4
 135:TOF/App/app_tof.c **** 
 251              		.loc 1 135 3 view .LVU50
 137:TOF/App/app_tof.c ****   static RANGING_SENSOR_ProfileConfig_t Profile;
 252              		.loc 1 137 3 view .LVU51
 138:TOF/App/app_tof.c **** 
 253              		.loc 1 138 3 view .LVU52
 140:TOF/App/app_tof.c ****   Profile.TimingBudget = TIMING_BUDGET;
 254              		.loc 1 140 3 view .LVU53
 140:TOF/App/app_tof.c ****   Profile.TimingBudget = TIMING_BUDGET;
 255              		.loc 1 140 26 is_stmt 0 view .LVU54
 256 0002 204B     		ldr	r3, .L28
 257 0004 0222     		movs	r2, #2
 258 0006 1A60     		str	r2, [r3]
 141:TOF/App/app_tof.c ****   Profile.Frequency = 0; /* Induces intermeasurement period, set to ZERO for normal ranging */
 259              		.loc 1 141 3 is_stmt 1 view .LVU55
 141:TOF/App/app_tof.c ****   Profile.Frequency = 0; /* Induces intermeasurement period, set to ZERO for normal ranging */
 260              		.loc 1 141 24 is_stmt 0 view .LVU56
 261 0008 1E22     		movs	r2, #30
 262 000a 5A60     		str	r2, [r3, #4]
 142:TOF/App/app_tof.c ****   Profile.EnableAmbient = 0; /* Enable: 1, Disable: 0 */
 263              		.loc 1 142 3 is_stmt 1 view .LVU57
 142:TOF/App/app_tof.c ****   Profile.EnableAmbient = 0; /* Enable: 1, Disable: 0 */
 264              		.loc 1 142 21 is_stmt 0 view .LVU58
 265 000c 0024     		movs	r4, #0
 266 000e 9C60     		str	r4, [r3, #8]
 143:TOF/App/app_tof.c ****   Profile.EnableSignal = 0; /* Enable: 1, Disable: 0 */
 267              		.loc 1 143 3 is_stmt 1 view .LVU59
 143:TOF/App/app_tof.c ****   Profile.EnableSignal = 0; /* Enable: 1, Disable: 0 */
 268              		.loc 1 143 25 is_stmt 0 view .LVU60
 269 0010 DC60     		str	r4, [r3, #12]
 144:TOF/App/app_tof.c **** 
 270              		.loc 1 144 3 is_stmt 1 view .LVU61
 144:TOF/App/app_tof.c **** 
 271              		.loc 1 144 24 is_stmt 0 view .LVU62
 272 0012 1C61     		str	r4, [r3, #16]
 146:TOF/App/app_tof.c ****   {
 273              		.loc 1 146 3 is_stmt 1 view .LVU63
 274              	.LVL26:
 146:TOF/App/app_tof.c ****   {
 275              		.loc 1 146 3 is_stmt 0 view .LVU64
 276 0014 01E0     		b	.L18
 277              	.LVL27:
 278              	.L19:
 146:TOF/App/app_tof.c ****   {
 279              		.loc 1 146 50 is_stmt 1 discriminator 2 view .LVU65
 280 0016 0134     		adds	r4, r4, #1
 281              	.LVL28:
 146:TOF/App/app_tof.c ****   {
 282              		.loc 1 146 50 is_stmt 0 discriminator 2 view .LVU66
 283 0018 E4B2     		uxtb	r4, r4
 284              	.LVL29:
ARM GAS  C:\Temp\ccoVuBOW.s 			page 10


 285              	.L18:
 146:TOF/App/app_tof.c ****   {
 286              		.loc 1 146 17 is_stmt 1 discriminator 1 view .LVU67
 287 001a 022C     		cmp	r4, #2
 288 001c 2FD8     		bhi	.L25
 149:TOF/App/app_tof.c **** 
 289              		.loc 1 149 5 view .LVU68
 149:TOF/App/app_tof.c **** 
 290              		.loc 1 149 20 is_stmt 0 view .LVU69
 291 001e 1A4B     		ldr	r3, .L28+4
 292 0020 1B5D     		ldrb	r3, [r3, r4]	@ zero_extendqisi2
 149:TOF/App/app_tof.c **** 
 293              		.loc 1 149 8 view .LVU70
 294 0022 012B     		cmp	r3, #1
 295 0024 F7D1     		bne	.L19
 151:TOF/App/app_tof.c ****     status = VL53L1A2_RANGING_SENSOR_Start(i, RS_MODE_BLOCKING_CONTINUOUS);
 296              		.loc 1 151 5 is_stmt 1 view .LVU71
 297 0026 1749     		ldr	r1, .L28
 298 0028 2046     		mov	r0, r4
 299 002a FFF7FEFF 		bl	VL53L1A2_RANGING_SENSOR_ConfigProfile
 300              	.LVL30:
 152:TOF/App/app_tof.c **** 
 301              		.loc 1 152 5 view .LVU72
 152:TOF/App/app_tof.c **** 
 302              		.loc 1 152 14 is_stmt 0 view .LVU73
 303 002e 0121     		movs	r1, #1
 304 0030 2046     		mov	r0, r4
 305 0032 FFF7FEFF 		bl	VL53L1A2_RANGING_SENSOR_Start
 306              	.LVL31:
 152:TOF/App/app_tof.c **** 
 307              		.loc 1 152 12 view .LVU74
 308 0036 154B     		ldr	r3, .L28+8
 309 0038 1860     		str	r0, [r3]
 154:TOF/App/app_tof.c ****     {
 310              		.loc 1 154 5 is_stmt 1 view .LVU75
 154:TOF/App/app_tof.c ****     {
 311              		.loc 1 154 8 is_stmt 0 view .LVU76
 312 003a 0028     		cmp	r0, #0
 313 003c EBD0     		beq	.L19
 156:TOF/App/app_tof.c ****       while (1);
 314              		.loc 1 156 7 is_stmt 1 view .LVU77
 315 003e 1448     		ldr	r0, .L28+12
 316 0040 FFF7FEFF 		bl	puts
 317              	.LVL32:
 318              	.L20:
 157:TOF/App/app_tof.c ****     }
 319              		.loc 1 157 7 discriminator 1 view .LVU78
 157:TOF/App/app_tof.c ****     }
 320              		.loc 1 157 13 discriminator 1 view .LVU79
 321 0044 FEE7     		b	.L20
 322              	.L23:
 164:TOF/App/app_tof.c ****     {
 323              		.loc 1 164 52 discriminator 2 view .LVU80
 324 0046 0134     		adds	r4, r4, #1
 325              	.LVL33:
 164:TOF/App/app_tof.c ****     {
 326              		.loc 1 164 52 is_stmt 0 discriminator 2 view .LVU81
ARM GAS  C:\Temp\ccoVuBOW.s 			page 11


 327 0048 E4B2     		uxtb	r4, r4
 328              	.LVL34:
 329              	.L22:
 164:TOF/App/app_tof.c ****     {
 330              		.loc 1 164 19 is_stmt 1 discriminator 1 view .LVU82
 331 004a 022C     		cmp	r4, #2
 332 004c 14D8     		bhi	.L27
 166:TOF/App/app_tof.c **** 
 333              		.loc 1 166 7 view .LVU83
 166:TOF/App/app_tof.c **** 
 334              		.loc 1 166 16 is_stmt 0 view .LVU84
 335 004e 1149     		ldr	r1, .L28+16
 336 0050 2046     		mov	r0, r4
 337 0052 FFF7FEFF 		bl	VL53L1A2_RANGING_SENSOR_GetDistance
 338              	.LVL35:
 166:TOF/App/app_tof.c **** 
 339              		.loc 1 166 14 view .LVU85
 340 0056 0D4B     		ldr	r3, .L28+8
 341 0058 1860     		str	r0, [r3]
 168:TOF/App/app_tof.c ****       {
 342              		.loc 1 168 7 is_stmt 1 view .LVU86
 168:TOF/App/app_tof.c ****       {
 343              		.loc 1 168 10 is_stmt 0 view .LVU87
 344 005a 0028     		cmp	r0, #0
 345 005c F3D1     		bne	.L23
 170:TOF/App/app_tof.c ****         print_result(&Result);
 346              		.loc 1 170 9 is_stmt 1 view .LVU88
 347 005e 0E4B     		ldr	r3, .L28+20
 348 0060 53F82410 		ldr	r1, [r3, r4, lsl #2]
 349 0064 0D48     		ldr	r0, .L28+24
 350 0066 FFF7FEFF 		bl	printf
 351              	.LVL36:
 171:TOF/App/app_tof.c ****         HAL_Delay(POLLING_PERIOD);
 352              		.loc 1 171 9 view .LVU89
 353 006a 0A48     		ldr	r0, .L28+16
 354 006c FFF7FEFF 		bl	print_result
 355              	.LVL37:
 172:TOF/App/app_tof.c ****       }
 356              		.loc 1 172 9 view .LVU90
 357 0070 FA20     		movs	r0, #250
 358 0072 FFF7FEFF 		bl	HAL_Delay
 359              	.LVL38:
 360 0076 E6E7     		b	.L23
 361              	.L27:
 175:TOF/App/app_tof.c ****   }
 362              		.loc 1 175 5 view .LVU91
 363 0078 0A20     		movs	r0, #10
 364 007a FFF7FEFF 		bl	putchar
 365              	.LVL39:
 161:TOF/App/app_tof.c ****   {
 366              		.loc 1 161 9 view .LVU92
 367              	.L25:
 161:TOF/App/app_tof.c ****   {
 368              		.loc 1 161 3 view .LVU93
 164:TOF/App/app_tof.c ****     {
 369              		.loc 1 164 5 view .LVU94
 164:TOF/App/app_tof.c ****     {
ARM GAS  C:\Temp\ccoVuBOW.s 			page 12


 370              		.loc 1 164 12 is_stmt 0 view .LVU95
 371 007e 0024     		movs	r4, #0
 164:TOF/App/app_tof.c ****     {
 372              		.loc 1 164 5 view .LVU96
 373 0080 E3E7     		b	.L22
 374              	.L29:
 375 0082 00BF     		.align	2
 376              	.L28:
 377 0084 00000000 		.word	Profile.1
 378 0088 00000000 		.word	ToF_Present
 379 008c 00000000 		.word	status
 380 0090 00000000 		.word	.LC3
 381 0094 00000000 		.word	Result.0
 382 0098 00000000 		.word	TofDevStr
 383 009c 28000000 		.word	.LC4
 384              		.cfi_endproc
 385              	.LFE140:
 387              		.section	.text.MX_TOF_Init,"ax",%progbits
 388              		.align	1
 389              		.global	MX_TOF_Init
 390              		.syntax unified
 391              		.thumb
 392              		.thumb_func
 394              	MX_TOF_Init:
 395              	.LFB137:
  57:TOF/App/app_tof.c ****   /* USER CODE BEGIN SV */
 396              		.loc 1 57 1 is_stmt 1 view -0
 397              		.cfi_startproc
 398              		@ args = 0, pretend = 0, frame = 0
 399              		@ frame_needed = 0, uses_anonymous_args = 0
 400 0000 08B5     		push	{r3, lr}
 401              		.cfi_def_cfa_offset 8
 402              		.cfi_offset 3, -8
 403              		.cfi_offset 14, -4
  68:TOF/App/app_tof.c **** 
 404              		.loc 1 68 3 view .LVU98
 405 0002 FFF7FEFF 		bl	MX_53L1A2_MultiSensorRanging_Init
 406              	.LVL40:
  73:TOF/App/app_tof.c **** 
 407              		.loc 1 73 1 is_stmt 0 view .LVU99
 408 0006 08BD     		pop	{r3, pc}
 409              		.cfi_endproc
 410              	.LFE137:
 412              		.section	.text.MX_TOF_Process,"ax",%progbits
 413              		.align	1
 414              		.global	MX_TOF_Process
 415              		.syntax unified
 416              		.thumb
 417              		.thumb_func
 419              	MX_TOF_Process:
 420              	.LFB138:
  79:TOF/App/app_tof.c ****   /* USER CODE BEGIN TOF_Process_PreTreatment */
 421              		.loc 1 79 1 is_stmt 1 view -0
 422              		.cfi_startproc
 423              		@ Volatile: function does not return.
 424              		@ args = 0, pretend = 0, frame = 0
 425              		@ frame_needed = 0, uses_anonymous_args = 0
ARM GAS  C:\Temp\ccoVuBOW.s 			page 13


 426 0000 08B5     		push	{r3, lr}
 427              		.cfi_def_cfa_offset 8
 428              		.cfi_offset 3, -8
 429              		.cfi_offset 14, -4
  84:TOF/App/app_tof.c **** 
 430              		.loc 1 84 3 view .LVU101
 431 0002 FFF7FEFF 		bl	MX_53L1A2_MultiSensorRanging_Process
 432              	.LVL41:
 433              		.cfi_endproc
 434              	.LFE138:
 436              		.section	.bss.Result.0,"aw",%nobits
 437              		.align	2
 440              	Result.0:
 441 0000 00000000 		.space	72
 441      00000000 
 441      00000000 
 441      00000000 
 441      00000000 
 442              		.section	.bss.Profile.1,"aw",%nobits
 443              		.align	2
 446              	Profile.1:
 447 0000 00000000 		.space	20
 447      00000000 
 447      00000000 
 447      00000000 
 447      00000000 
 448              		.section	.rodata.str1.4,"aMS",%progbits,1
 449              		.align	2
 450              	.LC5:
 451 0000 4C454654 		.ascii	"LEFT\000"
 451      00
 452 0005 000000   		.align	2
 453              	.LC6:
 454 0008 43454E54 		.ascii	"CENTER\000"
 454      455200
 455 000f 00       		.align	2
 456              	.LC7:
 457 0010 52494748 		.ascii	"RIGHT\000"
 457      5400
 458              		.section	.rodata.TofDevStr,"a"
 459              		.align	2
 462              	TofDevStr:
 463 0000 00000000 		.word	.LC5
 464 0004 08000000 		.word	.LC6
 465 0008 10000000 		.word	.LC7
 466              		.global	ToF_EventDetected
 467              		.section	.bss.ToF_EventDetected,"aw",%nobits
 470              	ToF_EventDetected:
 471 0000 00       		.space	1
 472              		.section	.bss.ToF_Present,"aw",%nobits
 473              		.align	2
 476              	ToF_Present:
 477 0000 000000   		.space	3
 478              		.section	.bss.status,"aw",%nobits
 479              		.align	2
 482              	status:
 483 0000 00000000 		.space	4
ARM GAS  C:\Temp\ccoVuBOW.s 			page 14


 484              		.text
 485              	.Letext0:
 486              		.file 2 "c:\\users\\jessejabezarendse\\appdata\\roaming\\code\\user\\globalstorage\\bmd.stm32-for-
 487              		.file 3 "c:\\users\\jessejabezarendse\\appdata\\roaming\\code\\user\\globalstorage\\bmd.stm32-for-
 488              		.file 4 "Drivers/BSP/STM32F4xx_Nucleo/stm32f4xx_nucleo.h"
 489              		.file 5 "c:\\users\\jessejabezarendse\\appdata\\roaming\\code\\user\\globalstorage\\bmd.stm32-for-
 490              		.file 6 "Drivers/BSP/Components/vl53l1cb/modules/vl53l1_def.h"
 491              		.file 7 "Drivers/BSP/53L1A2/53l1a2_ranging_sensor.h"
 492              		.file 8 "c:\\users\\jessejabezarendse\\appdata\\roaming\\code\\user\\globalstorage\\bmd.stm32-for-
 493              		.file 9 "<built-in>"
 494              		.file 10 "Drivers/BSP/53L1A2/53l1a2.h"
 495              		.file 11 "Drivers/STM32F4xx_HAL_Driver/Inc/stm32f4xx_hal.h"
ARM GAS  C:\Temp\ccoVuBOW.s 			page 15

