ARM GAS  C:\Temp\cc9qwmi1.s 			page 1


   1              		.cpu cortex-m4
   2              		.arch armv7e-m
   3              		.fpu fpv4-sp-d16
   4              		.eabi_attribute 27, 1
   5              		.eabi_attribute 28, 1
   6              		.eabi_attribute 20, 1
   7              		.eabi_attribute 21, 1
   8              		.eabi_attribute 23, 3
   9              		.eabi_attribute 24, 1
  10              		.eabi_attribute 25, 1
  11              		.eabi_attribute 26, 1
  12              		.eabi_attribute 30, 1
  13              		.eabi_attribute 34, 1
  14              		.eabi_attribute 18, 4
  15              		.file	"stm32f4xx_nucleo.c"
  16              		.text
  17              	.Ltext0:
  18              		.cfi_sections	.debug_frame
  19              		.file 1 "Drivers/BSP/STM32F4xx_Nucleo/stm32f4xx_nucleo.c"
  20              		.section	.text.USART2_MspInit,"ax",%progbits
  21              		.align	1
  22              		.syntax unified
  23              		.thumb
  24              		.thumb_func
  26              	USART2_MspInit:
  27              	.LVL0:
  28              	.LFB140:
   1:Drivers/BSP/STM32F4xx_Nucleo/stm32f4xx_nucleo.c **** /* USER CODE BEGIN Header */
   2:Drivers/BSP/STM32F4xx_Nucleo/stm32f4xx_nucleo.c **** /**
   3:Drivers/BSP/STM32F4xx_Nucleo/stm32f4xx_nucleo.c ****   ******************************************************************************
   4:Drivers/BSP/STM32F4xx_Nucleo/stm32f4xx_nucleo.c ****   * @file  : stm32f4xx_nucleo.c
   5:Drivers/BSP/STM32F4xx_Nucleo/stm32f4xx_nucleo.c ****   * @brief : Source file for the BSP Common driver
   6:Drivers/BSP/STM32F4xx_Nucleo/stm32f4xx_nucleo.c ****   ******************************************************************************
   7:Drivers/BSP/STM32F4xx_Nucleo/stm32f4xx_nucleo.c ****   * @attention
   8:Drivers/BSP/STM32F4xx_Nucleo/stm32f4xx_nucleo.c ****   *
   9:Drivers/BSP/STM32F4xx_Nucleo/stm32f4xx_nucleo.c ****   * Copyright (c) 2024 STMicroelectronics.
  10:Drivers/BSP/STM32F4xx_Nucleo/stm32f4xx_nucleo.c ****   * All rights reserved.
  11:Drivers/BSP/STM32F4xx_Nucleo/stm32f4xx_nucleo.c ****   *
  12:Drivers/BSP/STM32F4xx_Nucleo/stm32f4xx_nucleo.c ****   * This software is licensed under terms that can be found in the LICENSE file
  13:Drivers/BSP/STM32F4xx_Nucleo/stm32f4xx_nucleo.c ****   * in the root directory of this software component.
  14:Drivers/BSP/STM32F4xx_Nucleo/stm32f4xx_nucleo.c ****   * If no LICENSE file comes with this software, it is provided AS-IS.
  15:Drivers/BSP/STM32F4xx_Nucleo/stm32f4xx_nucleo.c ****   *
  16:Drivers/BSP/STM32F4xx_Nucleo/stm32f4xx_nucleo.c ****   ******************************************************************************
  17:Drivers/BSP/STM32F4xx_Nucleo/stm32f4xx_nucleo.c **** */
  18:Drivers/BSP/STM32F4xx_Nucleo/stm32f4xx_nucleo.c **** /* USER CODE END Header */
  19:Drivers/BSP/STM32F4xx_Nucleo/stm32f4xx_nucleo.c **** 
  20:Drivers/BSP/STM32F4xx_Nucleo/stm32f4xx_nucleo.c **** /* Includes ------------------------------------------------------------------*/
  21:Drivers/BSP/STM32F4xx_Nucleo/stm32f4xx_nucleo.c **** #include "stm32f4xx_nucleo.h"
  22:Drivers/BSP/STM32F4xx_Nucleo/stm32f4xx_nucleo.c **** 
  23:Drivers/BSP/STM32F4xx_Nucleo/stm32f4xx_nucleo.c **** /** @defgroup BSP BSP
  24:Drivers/BSP/STM32F4xx_Nucleo/stm32f4xx_nucleo.c ****  * @{
  25:Drivers/BSP/STM32F4xx_Nucleo/stm32f4xx_nucleo.c ****  */
  26:Drivers/BSP/STM32F4xx_Nucleo/stm32f4xx_nucleo.c **** 
  27:Drivers/BSP/STM32F4xx_Nucleo/stm32f4xx_nucleo.c **** /** @defgroup STM32F4XX_NUCLEO STM32F4XX_NUCLEO
  28:Drivers/BSP/STM32F4xx_Nucleo/stm32f4xx_nucleo.c ****  * @{
  29:Drivers/BSP/STM32F4xx_Nucleo/stm32f4xx_nucleo.c ****  */
  30:Drivers/BSP/STM32F4xx_Nucleo/stm32f4xx_nucleo.c **** 
ARM GAS  C:\Temp\cc9qwmi1.s 			page 2


  31:Drivers/BSP/STM32F4xx_Nucleo/stm32f4xx_nucleo.c **** /** @defgroup STM32F4XX_NUCLEO_LOW_LEVEL STM32F4XX_NUCLEO LOW LEVEL
  32:Drivers/BSP/STM32F4xx_Nucleo/stm32f4xx_nucleo.c ****  *  @brief This file provides set of firmware functions to manage Leds and push-button
  33:Drivers/BSP/STM32F4xx_Nucleo/stm32f4xx_nucleo.c ****  *         available on STM32F4xx-Nucleo Kit from STMicroelectronics.
  34:Drivers/BSP/STM32F4xx_Nucleo/stm32f4xx_nucleo.c ****  * @{
  35:Drivers/BSP/STM32F4xx_Nucleo/stm32f4xx_nucleo.c ****  */
  36:Drivers/BSP/STM32F4xx_Nucleo/stm32f4xx_nucleo.c **** 
  37:Drivers/BSP/STM32F4xx_Nucleo/stm32f4xx_nucleo.c **** /**
  38:Drivers/BSP/STM32F4xx_Nucleo/stm32f4xx_nucleo.c ****  * @}
  39:Drivers/BSP/STM32F4xx_Nucleo/stm32f4xx_nucleo.c ****  */
  40:Drivers/BSP/STM32F4xx_Nucleo/stm32f4xx_nucleo.c **** 
  41:Drivers/BSP/STM32F4xx_Nucleo/stm32f4xx_nucleo.c **** /** @defgroup STM32F4XX_NUCLEO_LOW_LEVEL_Private_Defines STM32F4XX_NUCLEO LOW LEVEL Private Defines
  42:Drivers/BSP/STM32F4xx_Nucleo/stm32f4xx_nucleo.c ****  * @{
  43:Drivers/BSP/STM32F4xx_Nucleo/stm32f4xx_nucleo.c ****  */
  44:Drivers/BSP/STM32F4xx_Nucleo/stm32f4xx_nucleo.c **** 
  45:Drivers/BSP/STM32F4xx_Nucleo/stm32f4xx_nucleo.c **** /** @defgroup STM32F4XX_NUCLEO_LOW_LEVEL_FunctionPrototypes STM32F4XX_NUCLEO LOW LEVEL Private Func
  46:Drivers/BSP/STM32F4xx_Nucleo/stm32f4xx_nucleo.c ****  * @{
  47:Drivers/BSP/STM32F4xx_Nucleo/stm32f4xx_nucleo.c ****  */
  48:Drivers/BSP/STM32F4xx_Nucleo/stm32f4xx_nucleo.c **** 
  49:Drivers/BSP/STM32F4xx_Nucleo/stm32f4xx_nucleo.c **** /**
  50:Drivers/BSP/STM32F4xx_Nucleo/stm32f4xx_nucleo.c ****  * @}
  51:Drivers/BSP/STM32F4xx_Nucleo/stm32f4xx_nucleo.c ****  */
  52:Drivers/BSP/STM32F4xx_Nucleo/stm32f4xx_nucleo.c **** 
  53:Drivers/BSP/STM32F4xx_Nucleo/stm32f4xx_nucleo.c **** /** @defgroup STM32F4XX_NUCLEO_LOW_LEVEL_Private_Variables STM32F4XX_NUCLEO LOW LEVEL Private Varia
  54:Drivers/BSP/STM32F4xx_Nucleo/stm32f4xx_nucleo.c ****  * @{
  55:Drivers/BSP/STM32F4xx_Nucleo/stm32f4xx_nucleo.c ****  */
  56:Drivers/BSP/STM32F4xx_Nucleo/stm32f4xx_nucleo.c **** 
  57:Drivers/BSP/STM32F4xx_Nucleo/stm32f4xx_nucleo.c **** USART_TypeDef* COM_USART[COMn] = {COM1_UART};
  58:Drivers/BSP/STM32F4xx_Nucleo/stm32f4xx_nucleo.c **** UART_HandleTypeDef hcom_uart[COMn];
  59:Drivers/BSP/STM32F4xx_Nucleo/stm32f4xx_nucleo.c **** #if (USE_COM_LOG > 0)
  60:Drivers/BSP/STM32F4xx_Nucleo/stm32f4xx_nucleo.c **** static COM_TypeDef COM_ActiveLogPort;
  61:Drivers/BSP/STM32F4xx_Nucleo/stm32f4xx_nucleo.c **** #endif
  62:Drivers/BSP/STM32F4xx_Nucleo/stm32f4xx_nucleo.c **** #if (USE_HAL_UART_REGISTER_CALLBACKS == 1U)
  63:Drivers/BSP/STM32F4xx_Nucleo/stm32f4xx_nucleo.c **** static uint32_t IsUsart2MspCbValid = 0;
  64:Drivers/BSP/STM32F4xx_Nucleo/stm32f4xx_nucleo.c **** #endif
  65:Drivers/BSP/STM32F4xx_Nucleo/stm32f4xx_nucleo.c **** __weak HAL_StatusTypeDef MX_USART2_UART_Init(UART_HandleTypeDef* huart);
  66:Drivers/BSP/STM32F4xx_Nucleo/stm32f4xx_nucleo.c **** /**
  67:Drivers/BSP/STM32F4xx_Nucleo/stm32f4xx_nucleo.c ****  * @}
  68:Drivers/BSP/STM32F4xx_Nucleo/stm32f4xx_nucleo.c ****  */
  69:Drivers/BSP/STM32F4xx_Nucleo/stm32f4xx_nucleo.c **** 
  70:Drivers/BSP/STM32F4xx_Nucleo/stm32f4xx_nucleo.c **** /** @defgroup STM32F4XX_NUCLEO_LOW_LEVEL_Private_Functions STM32F4XX_NUCLEO LOW LEVEL Private Funct
  71:Drivers/BSP/STM32F4xx_Nucleo/stm32f4xx_nucleo.c ****  * @{
  72:Drivers/BSP/STM32F4xx_Nucleo/stm32f4xx_nucleo.c ****  */
  73:Drivers/BSP/STM32F4xx_Nucleo/stm32f4xx_nucleo.c **** #if (USE_BSP_COM_FEATURE > 0)
  74:Drivers/BSP/STM32F4xx_Nucleo/stm32f4xx_nucleo.c **** static void USART2_MspInit(UART_HandleTypeDef *huart);
  75:Drivers/BSP/STM32F4xx_Nucleo/stm32f4xx_nucleo.c **** static void USART2_MspDeInit(UART_HandleTypeDef *huart);
  76:Drivers/BSP/STM32F4xx_Nucleo/stm32f4xx_nucleo.c **** #endif
  77:Drivers/BSP/STM32F4xx_Nucleo/stm32f4xx_nucleo.c **** /**
  78:Drivers/BSP/STM32F4xx_Nucleo/stm32f4xx_nucleo.c ****  * @brief  This method returns the STM32F4xx NUCLEO BSP Driver revision
  79:Drivers/BSP/STM32F4xx_Nucleo/stm32f4xx_nucleo.c ****  * @retval version: 0xXYZR (8bits for each decimal, R for RC)
  80:Drivers/BSP/STM32F4xx_Nucleo/stm32f4xx_nucleo.c ****  */
  81:Drivers/BSP/STM32F4xx_Nucleo/stm32f4xx_nucleo.c **** int32_t BSP_GetVersion(void)
  82:Drivers/BSP/STM32F4xx_Nucleo/stm32f4xx_nucleo.c **** {
  83:Drivers/BSP/STM32F4xx_Nucleo/stm32f4xx_nucleo.c ****   return (int32_t)__STM32F4XX_NUCLEO_BSP_VERSION;
  84:Drivers/BSP/STM32F4xx_Nucleo/stm32f4xx_nucleo.c **** }
  85:Drivers/BSP/STM32F4xx_Nucleo/stm32f4xx_nucleo.c **** 
  86:Drivers/BSP/STM32F4xx_Nucleo/stm32f4xx_nucleo.c **** #if (USE_BSP_COM_FEATURE > 0)
  87:Drivers/BSP/STM32F4xx_Nucleo/stm32f4xx_nucleo.c **** /**
ARM GAS  C:\Temp\cc9qwmi1.s 			page 3


  88:Drivers/BSP/STM32F4xx_Nucleo/stm32f4xx_nucleo.c ****  * @brief  Configures COM port.
  89:Drivers/BSP/STM32F4xx_Nucleo/stm32f4xx_nucleo.c ****  * @param  COM: COM port to be configured.
  90:Drivers/BSP/STM32F4xx_Nucleo/stm32f4xx_nucleo.c ****  *              This parameter can be COM1
  91:Drivers/BSP/STM32F4xx_Nucleo/stm32f4xx_nucleo.c ****  * @param  UART_Init: Pointer to a UART_HandleTypeDef structure that contains the
  92:Drivers/BSP/STM32F4xx_Nucleo/stm32f4xx_nucleo.c ****  *                    configuration information for the specified USART peripheral.
  93:Drivers/BSP/STM32F4xx_Nucleo/stm32f4xx_nucleo.c ****  * @retval BSP error code
  94:Drivers/BSP/STM32F4xx_Nucleo/stm32f4xx_nucleo.c ****  */
  95:Drivers/BSP/STM32F4xx_Nucleo/stm32f4xx_nucleo.c **** int32_t BSP_COM_Init(COM_TypeDef COM)
  96:Drivers/BSP/STM32F4xx_Nucleo/stm32f4xx_nucleo.c **** {
  97:Drivers/BSP/STM32F4xx_Nucleo/stm32f4xx_nucleo.c ****   int32_t ret = BSP_ERROR_NONE;
  98:Drivers/BSP/STM32F4xx_Nucleo/stm32f4xx_nucleo.c **** 
  99:Drivers/BSP/STM32F4xx_Nucleo/stm32f4xx_nucleo.c ****   if(COM > COMn)
 100:Drivers/BSP/STM32F4xx_Nucleo/stm32f4xx_nucleo.c ****   {
 101:Drivers/BSP/STM32F4xx_Nucleo/stm32f4xx_nucleo.c ****     ret = BSP_ERROR_WRONG_PARAM;
 102:Drivers/BSP/STM32F4xx_Nucleo/stm32f4xx_nucleo.c ****   }
 103:Drivers/BSP/STM32F4xx_Nucleo/stm32f4xx_nucleo.c ****   else
 104:Drivers/BSP/STM32F4xx_Nucleo/stm32f4xx_nucleo.c ****   {
 105:Drivers/BSP/STM32F4xx_Nucleo/stm32f4xx_nucleo.c ****      hcom_uart[COM].Instance = COM_USART[COM];
 106:Drivers/BSP/STM32F4xx_Nucleo/stm32f4xx_nucleo.c **** #if (USE_HAL_UART_REGISTER_CALLBACKS == 0U)
 107:Drivers/BSP/STM32F4xx_Nucleo/stm32f4xx_nucleo.c ****     /* Init the UART Msp */
 108:Drivers/BSP/STM32F4xx_Nucleo/stm32f4xx_nucleo.c ****     USART2_MspInit(&hcom_uart[COM]);
 109:Drivers/BSP/STM32F4xx_Nucleo/stm32f4xx_nucleo.c **** #else
 110:Drivers/BSP/STM32F4xx_Nucleo/stm32f4xx_nucleo.c ****     if(IsUsart2MspCbValid == 0U)
 111:Drivers/BSP/STM32F4xx_Nucleo/stm32f4xx_nucleo.c ****     {
 112:Drivers/BSP/STM32F4xx_Nucleo/stm32f4xx_nucleo.c ****       if(BSP_COM_RegisterDefaultMspCallbacks(COM) != BSP_ERROR_NONE)
 113:Drivers/BSP/STM32F4xx_Nucleo/stm32f4xx_nucleo.c ****       {
 114:Drivers/BSP/STM32F4xx_Nucleo/stm32f4xx_nucleo.c ****         return BSP_ERROR_MSP_FAILURE;
 115:Drivers/BSP/STM32F4xx_Nucleo/stm32f4xx_nucleo.c ****       }
 116:Drivers/BSP/STM32F4xx_Nucleo/stm32f4xx_nucleo.c ****     }
 117:Drivers/BSP/STM32F4xx_Nucleo/stm32f4xx_nucleo.c **** #endif
 118:Drivers/BSP/STM32F4xx_Nucleo/stm32f4xx_nucleo.c ****     if (MX_USART2_UART_Init(&hcom_uart[COM]))
 119:Drivers/BSP/STM32F4xx_Nucleo/stm32f4xx_nucleo.c ****     {
 120:Drivers/BSP/STM32F4xx_Nucleo/stm32f4xx_nucleo.c ****       ret = BSP_ERROR_PERIPH_FAILURE;
 121:Drivers/BSP/STM32F4xx_Nucleo/stm32f4xx_nucleo.c ****     }
 122:Drivers/BSP/STM32F4xx_Nucleo/stm32f4xx_nucleo.c ****   }
 123:Drivers/BSP/STM32F4xx_Nucleo/stm32f4xx_nucleo.c **** 
 124:Drivers/BSP/STM32F4xx_Nucleo/stm32f4xx_nucleo.c ****   return ret;
 125:Drivers/BSP/STM32F4xx_Nucleo/stm32f4xx_nucleo.c **** }
 126:Drivers/BSP/STM32F4xx_Nucleo/stm32f4xx_nucleo.c **** 
 127:Drivers/BSP/STM32F4xx_Nucleo/stm32f4xx_nucleo.c **** /**
 128:Drivers/BSP/STM32F4xx_Nucleo/stm32f4xx_nucleo.c ****  * @brief  DeInit COM port.
 129:Drivers/BSP/STM32F4xx_Nucleo/stm32f4xx_nucleo.c ****  * @param  COM COM port to be configured.
 130:Drivers/BSP/STM32F4xx_Nucleo/stm32f4xx_nucleo.c ****  *             This parameter can be COM1
 131:Drivers/BSP/STM32F4xx_Nucleo/stm32f4xx_nucleo.c ****  * @retval BSP status
 132:Drivers/BSP/STM32F4xx_Nucleo/stm32f4xx_nucleo.c ****  */
 133:Drivers/BSP/STM32F4xx_Nucleo/stm32f4xx_nucleo.c **** int32_t BSP_COM_DeInit(COM_TypeDef COM)
 134:Drivers/BSP/STM32F4xx_Nucleo/stm32f4xx_nucleo.c **** {
 135:Drivers/BSP/STM32F4xx_Nucleo/stm32f4xx_nucleo.c ****   int32_t ret = BSP_ERROR_NONE;
 136:Drivers/BSP/STM32F4xx_Nucleo/stm32f4xx_nucleo.c **** 
 137:Drivers/BSP/STM32F4xx_Nucleo/stm32f4xx_nucleo.c ****   if(COM > COMn)
 138:Drivers/BSP/STM32F4xx_Nucleo/stm32f4xx_nucleo.c ****   {
 139:Drivers/BSP/STM32F4xx_Nucleo/stm32f4xx_nucleo.c ****     ret = BSP_ERROR_WRONG_PARAM;
 140:Drivers/BSP/STM32F4xx_Nucleo/stm32f4xx_nucleo.c ****   }
 141:Drivers/BSP/STM32F4xx_Nucleo/stm32f4xx_nucleo.c ****   else
 142:Drivers/BSP/STM32F4xx_Nucleo/stm32f4xx_nucleo.c ****   {
 143:Drivers/BSP/STM32F4xx_Nucleo/stm32f4xx_nucleo.c ****     /* USART configuration */
 144:Drivers/BSP/STM32F4xx_Nucleo/stm32f4xx_nucleo.c ****     hcom_uart[COM].Instance = COM_USART[COM];
ARM GAS  C:\Temp\cc9qwmi1.s 			page 4


 145:Drivers/BSP/STM32F4xx_Nucleo/stm32f4xx_nucleo.c **** 
 146:Drivers/BSP/STM32F4xx_Nucleo/stm32f4xx_nucleo.c ****     #if (USE_HAL_UART_REGISTER_CALLBACKS == 0U)
 147:Drivers/BSP/STM32F4xx_Nucleo/stm32f4xx_nucleo.c ****       USART2_MspDeInit(&hcom_uart[COM]);
 148:Drivers/BSP/STM32F4xx_Nucleo/stm32f4xx_nucleo.c ****     #endif /* (USE_HAL_UART_REGISTER_CALLBACKS == 0U) */
 149:Drivers/BSP/STM32F4xx_Nucleo/stm32f4xx_nucleo.c **** 
 150:Drivers/BSP/STM32F4xx_Nucleo/stm32f4xx_nucleo.c ****     if(HAL_UART_DeInit(&hcom_uart[COM]) != HAL_OK)
 151:Drivers/BSP/STM32F4xx_Nucleo/stm32f4xx_nucleo.c ****     {
 152:Drivers/BSP/STM32F4xx_Nucleo/stm32f4xx_nucleo.c ****       ret = BSP_ERROR_PERIPH_FAILURE;
 153:Drivers/BSP/STM32F4xx_Nucleo/stm32f4xx_nucleo.c ****     }
 154:Drivers/BSP/STM32F4xx_Nucleo/stm32f4xx_nucleo.c ****   }
 155:Drivers/BSP/STM32F4xx_Nucleo/stm32f4xx_nucleo.c **** 
 156:Drivers/BSP/STM32F4xx_Nucleo/stm32f4xx_nucleo.c ****   return ret;
 157:Drivers/BSP/STM32F4xx_Nucleo/stm32f4xx_nucleo.c **** }
 158:Drivers/BSP/STM32F4xx_Nucleo/stm32f4xx_nucleo.c **** 
 159:Drivers/BSP/STM32F4xx_Nucleo/stm32f4xx_nucleo.c **** /**
 160:Drivers/BSP/STM32F4xx_Nucleo/stm32f4xx_nucleo.c ****  * @brief  Configures COM port.
 161:Drivers/BSP/STM32F4xx_Nucleo/stm32f4xx_nucleo.c ****  * @param  huart USART handle
 162:Drivers/BSP/STM32F4xx_Nucleo/stm32f4xx_nucleo.c ****  *               This parameter can be COM1
 163:Drivers/BSP/STM32F4xx_Nucleo/stm32f4xx_nucleo.c ****  * @param  COM_Init Pointer to a UART_HandleTypeDef structure that contains the
 164:Drivers/BSP/STM32F4xx_Nucleo/stm32f4xx_nucleo.c ****  *                  configuration information for the specified USART peripheral.
 165:Drivers/BSP/STM32F4xx_Nucleo/stm32f4xx_nucleo.c ****  * @retval HAL error code
 166:Drivers/BSP/STM32F4xx_Nucleo/stm32f4xx_nucleo.c ****  */
 167:Drivers/BSP/STM32F4xx_Nucleo/stm32f4xx_nucleo.c **** 
 168:Drivers/BSP/STM32F4xx_Nucleo/stm32f4xx_nucleo.c **** /* USART2 init function */
 169:Drivers/BSP/STM32F4xx_Nucleo/stm32f4xx_nucleo.c **** 
 170:Drivers/BSP/STM32F4xx_Nucleo/stm32f4xx_nucleo.c **** __weak HAL_StatusTypeDef MX_USART2_UART_Init(UART_HandleTypeDef* huart)
 171:Drivers/BSP/STM32F4xx_Nucleo/stm32f4xx_nucleo.c **** {
 172:Drivers/BSP/STM32F4xx_Nucleo/stm32f4xx_nucleo.c ****   HAL_StatusTypeDef ret = HAL_OK;
 173:Drivers/BSP/STM32F4xx_Nucleo/stm32f4xx_nucleo.c **** 
 174:Drivers/BSP/STM32F4xx_Nucleo/stm32f4xx_nucleo.c ****   huart->Instance = USART2;
 175:Drivers/BSP/STM32F4xx_Nucleo/stm32f4xx_nucleo.c ****   huart->Init.BaudRate = 1843200;
 176:Drivers/BSP/STM32F4xx_Nucleo/stm32f4xx_nucleo.c ****   huart->Init.WordLength = UART_WORDLENGTH_9B;
 177:Drivers/BSP/STM32F4xx_Nucleo/stm32f4xx_nucleo.c ****   huart->Init.StopBits = UART_STOPBITS_2;
 178:Drivers/BSP/STM32F4xx_Nucleo/stm32f4xx_nucleo.c ****   huart->Init.Parity = UART_PARITY_EVEN;
 179:Drivers/BSP/STM32F4xx_Nucleo/stm32f4xx_nucleo.c ****   huart->Init.Mode = UART_MODE_TX_RX;
 180:Drivers/BSP/STM32F4xx_Nucleo/stm32f4xx_nucleo.c ****   huart->Init.HwFlowCtl = UART_HWCONTROL_NONE;
 181:Drivers/BSP/STM32F4xx_Nucleo/stm32f4xx_nucleo.c ****   huart->Init.OverSampling = UART_OVERSAMPLING_16;
 182:Drivers/BSP/STM32F4xx_Nucleo/stm32f4xx_nucleo.c ****   if (HAL_UART_Init(huart) != HAL_OK)
 183:Drivers/BSP/STM32F4xx_Nucleo/stm32f4xx_nucleo.c ****   {
 184:Drivers/BSP/STM32F4xx_Nucleo/stm32f4xx_nucleo.c ****     ret = HAL_ERROR;
 185:Drivers/BSP/STM32F4xx_Nucleo/stm32f4xx_nucleo.c ****   }
 186:Drivers/BSP/STM32F4xx_Nucleo/stm32f4xx_nucleo.c **** 
 187:Drivers/BSP/STM32F4xx_Nucleo/stm32f4xx_nucleo.c ****   return ret;
 188:Drivers/BSP/STM32F4xx_Nucleo/stm32f4xx_nucleo.c **** }
 189:Drivers/BSP/STM32F4xx_Nucleo/stm32f4xx_nucleo.c **** 
 190:Drivers/BSP/STM32F4xx_Nucleo/stm32f4xx_nucleo.c **** #endif
 191:Drivers/BSP/STM32F4xx_Nucleo/stm32f4xx_nucleo.c **** #if (USE_HAL_UART_REGISTER_CALLBACKS == 1U)
 192:Drivers/BSP/STM32F4xx_Nucleo/stm32f4xx_nucleo.c **** /**
 193:Drivers/BSP/STM32F4xx_Nucleo/stm32f4xx_nucleo.c ****  * @brief Register Default USART2 Bus Msp Callbacks
 194:Drivers/BSP/STM32F4xx_Nucleo/stm32f4xx_nucleo.c ****  * @retval BSP status
 195:Drivers/BSP/STM32F4xx_Nucleo/stm32f4xx_nucleo.c ****  */
 196:Drivers/BSP/STM32F4xx_Nucleo/stm32f4xx_nucleo.c **** int32_t BSP_COM_RegisterDefaultMspCallbacks(COM_TypeDef COM)
 197:Drivers/BSP/STM32F4xx_Nucleo/stm32f4xx_nucleo.c **** {
 198:Drivers/BSP/STM32F4xx_Nucleo/stm32f4xx_nucleo.c ****   int32_t ret = BSP_ERROR_NONE;
 199:Drivers/BSP/STM32F4xx_Nucleo/stm32f4xx_nucleo.c **** 
 200:Drivers/BSP/STM32F4xx_Nucleo/stm32f4xx_nucleo.c ****   if(COM >= COMn)
 201:Drivers/BSP/STM32F4xx_Nucleo/stm32f4xx_nucleo.c ****   {
ARM GAS  C:\Temp\cc9qwmi1.s 			page 5


 202:Drivers/BSP/STM32F4xx_Nucleo/stm32f4xx_nucleo.c ****     ret = BSP_ERROR_WRONG_PARAM;
 203:Drivers/BSP/STM32F4xx_Nucleo/stm32f4xx_nucleo.c ****   }
 204:Drivers/BSP/STM32F4xx_Nucleo/stm32f4xx_nucleo.c ****   else
 205:Drivers/BSP/STM32F4xx_Nucleo/stm32f4xx_nucleo.c ****   {
 206:Drivers/BSP/STM32F4xx_Nucleo/stm32f4xx_nucleo.c **** 
 207:Drivers/BSP/STM32F4xx_Nucleo/stm32f4xx_nucleo.c ****     __HAL_UART_RESET_HANDLE_STATE(&hcom_uart[COM]);
 208:Drivers/BSP/STM32F4xx_Nucleo/stm32f4xx_nucleo.c **** 
 209:Drivers/BSP/STM32F4xx_Nucleo/stm32f4xx_nucleo.c ****     /* Register default MspInit/MspDeInit Callback */
 210:Drivers/BSP/STM32F4xx_Nucleo/stm32f4xx_nucleo.c ****     if(HAL_UART_RegisterCallback(&hcom_uart[COM], HAL_UART_MSPINIT_CB_ID, USART2_MspInit) != HAL_OK
 211:Drivers/BSP/STM32F4xx_Nucleo/stm32f4xx_nucleo.c ****     {
 212:Drivers/BSP/STM32F4xx_Nucleo/stm32f4xx_nucleo.c ****       ret = BSP_ERROR_PERIPH_FAILURE;
 213:Drivers/BSP/STM32F4xx_Nucleo/stm32f4xx_nucleo.c ****     }
 214:Drivers/BSP/STM32F4xx_Nucleo/stm32f4xx_nucleo.c ****     else if(HAL_UART_RegisterCallback(&hcom_uart[COM], HAL_UART_MSPDEINIT_CB_ID, USART2_MspDeInit) 
 215:Drivers/BSP/STM32F4xx_Nucleo/stm32f4xx_nucleo.c ****     {
 216:Drivers/BSP/STM32F4xx_Nucleo/stm32f4xx_nucleo.c ****       ret = BSP_ERROR_PERIPH_FAILURE;
 217:Drivers/BSP/STM32F4xx_Nucleo/stm32f4xx_nucleo.c ****     }
 218:Drivers/BSP/STM32F4xx_Nucleo/stm32f4xx_nucleo.c ****     else
 219:Drivers/BSP/STM32F4xx_Nucleo/stm32f4xx_nucleo.c ****     {
 220:Drivers/BSP/STM32F4xx_Nucleo/stm32f4xx_nucleo.c ****       IsUsart2MspCbValid = 1U;
 221:Drivers/BSP/STM32F4xx_Nucleo/stm32f4xx_nucleo.c ****     }
 222:Drivers/BSP/STM32F4xx_Nucleo/stm32f4xx_nucleo.c ****   }
 223:Drivers/BSP/STM32F4xx_Nucleo/stm32f4xx_nucleo.c **** 
 224:Drivers/BSP/STM32F4xx_Nucleo/stm32f4xx_nucleo.c ****   /* BSP status */
 225:Drivers/BSP/STM32F4xx_Nucleo/stm32f4xx_nucleo.c ****   return ret;
 226:Drivers/BSP/STM32F4xx_Nucleo/stm32f4xx_nucleo.c **** }
 227:Drivers/BSP/STM32F4xx_Nucleo/stm32f4xx_nucleo.c **** 
 228:Drivers/BSP/STM32F4xx_Nucleo/stm32f4xx_nucleo.c **** /**
 229:Drivers/BSP/STM32F4xx_Nucleo/stm32f4xx_nucleo.c ****  * @brief Register USART2 Bus Msp Callback registering
 230:Drivers/BSP/STM32F4xx_Nucleo/stm32f4xx_nucleo.c ****  * @param Callbacks pointer to USART2 MspInit/MspDeInit callback functions
 231:Drivers/BSP/STM32F4xx_Nucleo/stm32f4xx_nucleo.c ****  * @retval BSP status
 232:Drivers/BSP/STM32F4xx_Nucleo/stm32f4xx_nucleo.c ****  */
 233:Drivers/BSP/STM32F4xx_Nucleo/stm32f4xx_nucleo.c **** int32_t BSP_COM_RegisterMspCallbacks (COM_TypeDef COM , BSP_COM_Cb_t *Callback)
 234:Drivers/BSP/STM32F4xx_Nucleo/stm32f4xx_nucleo.c **** {
 235:Drivers/BSP/STM32F4xx_Nucleo/stm32f4xx_nucleo.c ****   int32_t ret = BSP_ERROR_NONE;
 236:Drivers/BSP/STM32F4xx_Nucleo/stm32f4xx_nucleo.c **** 
 237:Drivers/BSP/STM32F4xx_Nucleo/stm32f4xx_nucleo.c ****   if(COM >= COMn)
 238:Drivers/BSP/STM32F4xx_Nucleo/stm32f4xx_nucleo.c ****   {
 239:Drivers/BSP/STM32F4xx_Nucleo/stm32f4xx_nucleo.c ****     ret = BSP_ERROR_WRONG_PARAM;
 240:Drivers/BSP/STM32F4xx_Nucleo/stm32f4xx_nucleo.c ****   }
 241:Drivers/BSP/STM32F4xx_Nucleo/stm32f4xx_nucleo.c ****   else
 242:Drivers/BSP/STM32F4xx_Nucleo/stm32f4xx_nucleo.c ****   {
 243:Drivers/BSP/STM32F4xx_Nucleo/stm32f4xx_nucleo.c ****     __HAL_UART_RESET_HANDLE_STATE(&hcom_uart[COM]);
 244:Drivers/BSP/STM32F4xx_Nucleo/stm32f4xx_nucleo.c **** 
 245:Drivers/BSP/STM32F4xx_Nucleo/stm32f4xx_nucleo.c ****     /* Register MspInit/MspDeInit Callbacks */
 246:Drivers/BSP/STM32F4xx_Nucleo/stm32f4xx_nucleo.c ****     if(HAL_UART_RegisterCallback(&hcom_uart[COM], HAL_UART_MSPINIT_CB_ID, Callback->pMspInitCb) != 
 247:Drivers/BSP/STM32F4xx_Nucleo/stm32f4xx_nucleo.c ****     {
 248:Drivers/BSP/STM32F4xx_Nucleo/stm32f4xx_nucleo.c ****       ret = BSP_ERROR_PERIPH_FAILURE;
 249:Drivers/BSP/STM32F4xx_Nucleo/stm32f4xx_nucleo.c ****     }
 250:Drivers/BSP/STM32F4xx_Nucleo/stm32f4xx_nucleo.c ****     else if(HAL_UART_RegisterCallback(&hcom_uart[COM], HAL_UART_MSPDEINIT_CB_ID, Callback->pMspDeIn
 251:Drivers/BSP/STM32F4xx_Nucleo/stm32f4xx_nucleo.c ****     {
 252:Drivers/BSP/STM32F4xx_Nucleo/stm32f4xx_nucleo.c ****       ret = BSP_ERROR_PERIPH_FAILURE;
 253:Drivers/BSP/STM32F4xx_Nucleo/stm32f4xx_nucleo.c ****     }
 254:Drivers/BSP/STM32F4xx_Nucleo/stm32f4xx_nucleo.c ****     else
 255:Drivers/BSP/STM32F4xx_Nucleo/stm32f4xx_nucleo.c ****     {
 256:Drivers/BSP/STM32F4xx_Nucleo/stm32f4xx_nucleo.c ****       IsUsart2MspCbValid = 1U;
 257:Drivers/BSP/STM32F4xx_Nucleo/stm32f4xx_nucleo.c ****     }
 258:Drivers/BSP/STM32F4xx_Nucleo/stm32f4xx_nucleo.c ****   }
ARM GAS  C:\Temp\cc9qwmi1.s 			page 6


 259:Drivers/BSP/STM32F4xx_Nucleo/stm32f4xx_nucleo.c **** 
 260:Drivers/BSP/STM32F4xx_Nucleo/stm32f4xx_nucleo.c ****   /* BSP status */
 261:Drivers/BSP/STM32F4xx_Nucleo/stm32f4xx_nucleo.c ****   return ret;
 262:Drivers/BSP/STM32F4xx_Nucleo/stm32f4xx_nucleo.c **** }
 263:Drivers/BSP/STM32F4xx_Nucleo/stm32f4xx_nucleo.c **** #endif /* USE_HAL_UART_REGISTER_CALLBACKS */
 264:Drivers/BSP/STM32F4xx_Nucleo/stm32f4xx_nucleo.c **** 
 265:Drivers/BSP/STM32F4xx_Nucleo/stm32f4xx_nucleo.c **** #if (USE_COM_LOG > 0)
 266:Drivers/BSP/STM32F4xx_Nucleo/stm32f4xx_nucleo.c **** /**
 267:Drivers/BSP/STM32F4xx_Nucleo/stm32f4xx_nucleo.c ****  * @brief  Select the active COM port.
 268:Drivers/BSP/STM32F4xx_Nucleo/stm32f4xx_nucleo.c ****  * @param  COM COM port to be activated.
 269:Drivers/BSP/STM32F4xx_Nucleo/stm32f4xx_nucleo.c ****  *             This parameter can be COM1
 270:Drivers/BSP/STM32F4xx_Nucleo/stm32f4xx_nucleo.c ****  * @retval BSP status
 271:Drivers/BSP/STM32F4xx_Nucleo/stm32f4xx_nucleo.c ****  */
 272:Drivers/BSP/STM32F4xx_Nucleo/stm32f4xx_nucleo.c **** int32_t BSP_COM_SelectLogPort(COM_TypeDef COM)
 273:Drivers/BSP/STM32F4xx_Nucleo/stm32f4xx_nucleo.c **** {
 274:Drivers/BSP/STM32F4xx_Nucleo/stm32f4xx_nucleo.c ****   if(COM_ActiveLogPort != COM)
 275:Drivers/BSP/STM32F4xx_Nucleo/stm32f4xx_nucleo.c ****   {
 276:Drivers/BSP/STM32F4xx_Nucleo/stm32f4xx_nucleo.c ****     COM_ActiveLogPort = COM;
 277:Drivers/BSP/STM32F4xx_Nucleo/stm32f4xx_nucleo.c ****   }
 278:Drivers/BSP/STM32F4xx_Nucleo/stm32f4xx_nucleo.c ****   return BSP_ERROR_NONE;
 279:Drivers/BSP/STM32F4xx_Nucleo/stm32f4xx_nucleo.c **** }
 280:Drivers/BSP/STM32F4xx_Nucleo/stm32f4xx_nucleo.c **** 
 281:Drivers/BSP/STM32F4xx_Nucleo/stm32f4xx_nucleo.c **** #if defined(__CC_ARM) /* For arm compiler 5 */
 282:Drivers/BSP/STM32F4xx_Nucleo/stm32f4xx_nucleo.c **** #if !defined(__MICROLIB) /* If not Microlib */
 283:Drivers/BSP/STM32F4xx_Nucleo/stm32f4xx_nucleo.c **** 
 284:Drivers/BSP/STM32F4xx_Nucleo/stm32f4xx_nucleo.c **** struct __FILE
 285:Drivers/BSP/STM32F4xx_Nucleo/stm32f4xx_nucleo.c **** {
 286:Drivers/BSP/STM32F4xx_Nucleo/stm32f4xx_nucleo.c ****   int dummyVar; //Just for the sake of redefining __FILE, we won't we using it anyways ;)
 287:Drivers/BSP/STM32F4xx_Nucleo/stm32f4xx_nucleo.c **** };
 288:Drivers/BSP/STM32F4xx_Nucleo/stm32f4xx_nucleo.c **** 
 289:Drivers/BSP/STM32F4xx_Nucleo/stm32f4xx_nucleo.c **** FILE __stdout;
 290:Drivers/BSP/STM32F4xx_Nucleo/stm32f4xx_nucleo.c **** 
 291:Drivers/BSP/STM32F4xx_Nucleo/stm32f4xx_nucleo.c **** #endif /* If not Microlib */
 292:Drivers/BSP/STM32F4xx_Nucleo/stm32f4xx_nucleo.c **** #elif defined(__ARMCC_VERSION) && (__ARMCC_VERSION >= 6010050) /* For arm compiler 6 */
 293:Drivers/BSP/STM32F4xx_Nucleo/stm32f4xx_nucleo.c **** #if !defined(__MICROLIB) /* If not Microlib */
 294:Drivers/BSP/STM32F4xx_Nucleo/stm32f4xx_nucleo.c **** 
 295:Drivers/BSP/STM32F4xx_Nucleo/stm32f4xx_nucleo.c **** FILE __stdout;
 296:Drivers/BSP/STM32F4xx_Nucleo/stm32f4xx_nucleo.c **** 
 297:Drivers/BSP/STM32F4xx_Nucleo/stm32f4xx_nucleo.c **** #endif /* If not Microlib */
 298:Drivers/BSP/STM32F4xx_Nucleo/stm32f4xx_nucleo.c **** #endif /* For arm compiler 5 */
 299:Drivers/BSP/STM32F4xx_Nucleo/stm32f4xx_nucleo.c **** #if defined(__ICCARM__) /* For IAR */
 300:Drivers/BSP/STM32F4xx_Nucleo/stm32f4xx_nucleo.c **** size_t __write(int Handle, const unsigned char *Buf, size_t Bufsize)
 301:Drivers/BSP/STM32F4xx_Nucleo/stm32f4xx_nucleo.c **** {
 302:Drivers/BSP/STM32F4xx_Nucleo/stm32f4xx_nucleo.c ****   int i;
 303:Drivers/BSP/STM32F4xx_Nucleo/stm32f4xx_nucleo.c **** 
 304:Drivers/BSP/STM32F4xx_Nucleo/stm32f4xx_nucleo.c ****   for(i=0; i<Bufsize; i++)
 305:Drivers/BSP/STM32F4xx_Nucleo/stm32f4xx_nucleo.c ****   {
 306:Drivers/BSP/STM32F4xx_Nucleo/stm32f4xx_nucleo.c ****     (void)HAL_UART_Transmit(&hcom_uart[COM_ActiveLogPort], (uint8_t *)&Buf[i], 1, COM_POLL_TIMEOUT)
 307:Drivers/BSP/STM32F4xx_Nucleo/stm32f4xx_nucleo.c ****   }
 308:Drivers/BSP/STM32F4xx_Nucleo/stm32f4xx_nucleo.c **** 
 309:Drivers/BSP/STM32F4xx_Nucleo/stm32f4xx_nucleo.c ****   return Bufsize;
 310:Drivers/BSP/STM32F4xx_Nucleo/stm32f4xx_nucleo.c **** }
 311:Drivers/BSP/STM32F4xx_Nucleo/stm32f4xx_nucleo.c **** #elif defined(__CC_ARM) || (defined(__ARMCC_VERSION) && (__ARMCC_VERSION >= 6010050)) /* For ARM Co
 312:Drivers/BSP/STM32F4xx_Nucleo/stm32f4xx_nucleo.c **** int fputc (int ch, FILE *f)
 313:Drivers/BSP/STM32F4xx_Nucleo/stm32f4xx_nucleo.c **** {
 314:Drivers/BSP/STM32F4xx_Nucleo/stm32f4xx_nucleo.c ****   (void)HAL_UART_Transmit(&hcom_uart[COM_ActiveLogPort], (uint8_t *)&ch, 1, COM_POLL_TIMEOUT);
 315:Drivers/BSP/STM32F4xx_Nucleo/stm32f4xx_nucleo.c ****   return ch;
ARM GAS  C:\Temp\cc9qwmi1.s 			page 7


 316:Drivers/BSP/STM32F4xx_Nucleo/stm32f4xx_nucleo.c **** }
 317:Drivers/BSP/STM32F4xx_Nucleo/stm32f4xx_nucleo.c **** #else /* For GCC Toolchains */
 318:Drivers/BSP/STM32F4xx_Nucleo/stm32f4xx_nucleo.c **** int __io_putchar (int ch)
 319:Drivers/BSP/STM32F4xx_Nucleo/stm32f4xx_nucleo.c **** {
 320:Drivers/BSP/STM32F4xx_Nucleo/stm32f4xx_nucleo.c ****   (void)HAL_UART_Transmit(&hcom_uart[COM_ActiveLogPort], (uint8_t *)&ch, 1, COM_POLL_TIMEOUT);
 321:Drivers/BSP/STM32F4xx_Nucleo/stm32f4xx_nucleo.c ****   return ch;
 322:Drivers/BSP/STM32F4xx_Nucleo/stm32f4xx_nucleo.c **** }
 323:Drivers/BSP/STM32F4xx_Nucleo/stm32f4xx_nucleo.c **** #endif /* For IAR */
 324:Drivers/BSP/STM32F4xx_Nucleo/stm32f4xx_nucleo.c **** #endif /* USE_COM_LOG */
 325:Drivers/BSP/STM32F4xx_Nucleo/stm32f4xx_nucleo.c **** /**
 326:Drivers/BSP/STM32F4xx_Nucleo/stm32f4xx_nucleo.c ****  * @brief  Initializes USART2 MSP.
 327:Drivers/BSP/STM32F4xx_Nucleo/stm32f4xx_nucleo.c ****  * @param  huart USART2 handle
 328:Drivers/BSP/STM32F4xx_Nucleo/stm32f4xx_nucleo.c ****  * @retval None
 329:Drivers/BSP/STM32F4xx_Nucleo/stm32f4xx_nucleo.c ****  */
 330:Drivers/BSP/STM32F4xx_Nucleo/stm32f4xx_nucleo.c **** DMA_HandleTypeDef hdma_usart2_rx;
 331:Drivers/BSP/STM32F4xx_Nucleo/stm32f4xx_nucleo.c **** 
 332:Drivers/BSP/STM32F4xx_Nucleo/stm32f4xx_nucleo.c **** static void USART2_MspInit(UART_HandleTypeDef* uartHandle)
 333:Drivers/BSP/STM32F4xx_Nucleo/stm32f4xx_nucleo.c **** {
  29              		.loc 1 333 1 view -0
  30              		.cfi_startproc
  31              		@ args = 0, pretend = 0, frame = 32
  32              		@ frame_needed = 0, uses_anonymous_args = 0
  33              		.loc 1 333 1 is_stmt 0 view .LVU1
  34 0000 2DE9F041 		push	{r4, r5, r6, r7, r8, lr}
  35              		.cfi_def_cfa_offset 24
  36              		.cfi_offset 4, -24
  37              		.cfi_offset 5, -20
  38              		.cfi_offset 6, -16
  39              		.cfi_offset 7, -12
  40              		.cfi_offset 8, -8
  41              		.cfi_offset 14, -4
  42 0004 88B0     		sub	sp, sp, #32
  43              		.cfi_def_cfa_offset 56
  44 0006 0646     		mov	r6, r0
 334:Drivers/BSP/STM32F4xx_Nucleo/stm32f4xx_nucleo.c ****   GPIO_InitTypeDef GPIO_InitStruct;
  45              		.loc 1 334 3 is_stmt 1 view .LVU2
 335:Drivers/BSP/STM32F4xx_Nucleo/stm32f4xx_nucleo.c ****   /* USER CODE BEGIN USART2_MspInit 0 */
 336:Drivers/BSP/STM32F4xx_Nucleo/stm32f4xx_nucleo.c **** 
 337:Drivers/BSP/STM32F4xx_Nucleo/stm32f4xx_nucleo.c ****   /* USER CODE END USART2_MspInit 0 */
 338:Drivers/BSP/STM32F4xx_Nucleo/stm32f4xx_nucleo.c ****     /* Enable Peripheral clock */
 339:Drivers/BSP/STM32F4xx_Nucleo/stm32f4xx_nucleo.c ****     __HAL_RCC_USART2_CLK_ENABLE();
  46              		.loc 1 339 5 view .LVU3
  47              	.LBB2:
  48              		.loc 1 339 5 view .LVU4
  49 0008 0025     		movs	r5, #0
  50 000a 0195     		str	r5, [sp, #4]
  51              		.loc 1 339 5 view .LVU5
  52 000c 234B     		ldr	r3, .L3
  53 000e 1A6C     		ldr	r2, [r3, #64]
  54 0010 42F40032 		orr	r2, r2, #131072
  55 0014 1A64     		str	r2, [r3, #64]
  56              		.loc 1 339 5 view .LVU6
  57 0016 1A6C     		ldr	r2, [r3, #64]
  58 0018 02F40032 		and	r2, r2, #131072
  59 001c 0192     		str	r2, [sp, #4]
  60              		.loc 1 339 5 view .LVU7
  61 001e 019A     		ldr	r2, [sp, #4]
ARM GAS  C:\Temp\cc9qwmi1.s 			page 8


  62              	.LBE2:
  63              		.loc 1 339 5 view .LVU8
 340:Drivers/BSP/STM32F4xx_Nucleo/stm32f4xx_nucleo.c **** 
 341:Drivers/BSP/STM32F4xx_Nucleo/stm32f4xx_nucleo.c ****     __HAL_RCC_GPIOA_CLK_ENABLE();
  64              		.loc 1 341 5 view .LVU9
  65              	.LBB3:
  66              		.loc 1 341 5 view .LVU10
  67 0020 0295     		str	r5, [sp, #8]
  68              		.loc 1 341 5 view .LVU11
  69 0022 1A6B     		ldr	r2, [r3, #48]
  70 0024 42F00102 		orr	r2, r2, #1
  71 0028 1A63     		str	r2, [r3, #48]
  72              		.loc 1 341 5 view .LVU12
  73 002a 1B6B     		ldr	r3, [r3, #48]
  74 002c 03F00103 		and	r3, r3, #1
  75 0030 0293     		str	r3, [sp, #8]
  76              		.loc 1 341 5 view .LVU13
  77 0032 029B     		ldr	r3, [sp, #8]
  78              	.LBE3:
  79              		.loc 1 341 5 view .LVU14
 342:Drivers/BSP/STM32F4xx_Nucleo/stm32f4xx_nucleo.c ****     /**USART2 GPIO Configuration
 343:Drivers/BSP/STM32F4xx_Nucleo/stm32f4xx_nucleo.c ****     PA2     ------> USART2_TX
 344:Drivers/BSP/STM32F4xx_Nucleo/stm32f4xx_nucleo.c ****     PA3     ------> USART2_RX
 345:Drivers/BSP/STM32F4xx_Nucleo/stm32f4xx_nucleo.c ****     */
 346:Drivers/BSP/STM32F4xx_Nucleo/stm32f4xx_nucleo.c ****     GPIO_InitStruct.Pin = BUS_USART2_TX_GPIO_PIN;
  80              		.loc 1 346 5 view .LVU15
  81              		.loc 1 346 25 is_stmt 0 view .LVU16
  82 0034 0423     		movs	r3, #4
  83 0036 0393     		str	r3, [sp, #12]
 347:Drivers/BSP/STM32F4xx_Nucleo/stm32f4xx_nucleo.c ****     GPIO_InitStruct.Mode = GPIO_MODE_AF_PP;
  84              		.loc 1 347 5 is_stmt 1 view .LVU17
  85              		.loc 1 347 26 is_stmt 0 view .LVU18
  86 0038 4FF00208 		mov	r8, #2
  87 003c CDF81080 		str	r8, [sp, #16]
 348:Drivers/BSP/STM32F4xx_Nucleo/stm32f4xx_nucleo.c ****     GPIO_InitStruct.Pull = GPIO_NOPULL;
  88              		.loc 1 348 5 is_stmt 1 view .LVU19
  89              		.loc 1 348 26 is_stmt 0 view .LVU20
  90 0040 0595     		str	r5, [sp, #20]
 349:Drivers/BSP/STM32F4xx_Nucleo/stm32f4xx_nucleo.c ****     GPIO_InitStruct.Speed = GPIO_SPEED_FREQ_LOW;
  91              		.loc 1 349 5 is_stmt 1 view .LVU21
  92              		.loc 1 349 27 is_stmt 0 view .LVU22
  93 0042 0695     		str	r5, [sp, #24]
 350:Drivers/BSP/STM32F4xx_Nucleo/stm32f4xx_nucleo.c ****     GPIO_InitStruct.Alternate = BUS_USART2_TX_GPIO_AF;
  94              		.loc 1 350 5 is_stmt 1 view .LVU23
  95              		.loc 1 350 31 is_stmt 0 view .LVU24
  96 0044 0727     		movs	r7, #7
  97 0046 0797     		str	r7, [sp, #28]
 351:Drivers/BSP/STM32F4xx_Nucleo/stm32f4xx_nucleo.c ****     HAL_GPIO_Init(BUS_USART2_TX_GPIO_PORT, &GPIO_InitStruct);
  98              		.loc 1 351 5 is_stmt 1 view .LVU25
  99 0048 154C     		ldr	r4, .L3+4
 100 004a 03A9     		add	r1, sp, #12
 101 004c 2046     		mov	r0, r4
 102              	.LVL1:
 103              		.loc 1 351 5 is_stmt 0 view .LVU26
 104 004e FFF7FEFF 		bl	HAL_GPIO_Init
 105              	.LVL2:
 352:Drivers/BSP/STM32F4xx_Nucleo/stm32f4xx_nucleo.c **** 
ARM GAS  C:\Temp\cc9qwmi1.s 			page 9


 353:Drivers/BSP/STM32F4xx_Nucleo/stm32f4xx_nucleo.c ****     GPIO_InitStruct.Pin = BUS_USART2_RX_GPIO_PIN;
 106              		.loc 1 353 5 is_stmt 1 view .LVU27
 107              		.loc 1 353 25 is_stmt 0 view .LVU28
 108 0052 0823     		movs	r3, #8
 109 0054 0393     		str	r3, [sp, #12]
 354:Drivers/BSP/STM32F4xx_Nucleo/stm32f4xx_nucleo.c ****     GPIO_InitStruct.Mode = GPIO_MODE_AF_PP;
 110              		.loc 1 354 5 is_stmt 1 view .LVU29
 111              		.loc 1 354 26 is_stmt 0 view .LVU30
 112 0056 CDF81080 		str	r8, [sp, #16]
 355:Drivers/BSP/STM32F4xx_Nucleo/stm32f4xx_nucleo.c ****     GPIO_InitStruct.Pull = GPIO_NOPULL;
 113              		.loc 1 355 5 is_stmt 1 view .LVU31
 114              		.loc 1 355 26 is_stmt 0 view .LVU32
 115 005a 0595     		str	r5, [sp, #20]
 356:Drivers/BSP/STM32F4xx_Nucleo/stm32f4xx_nucleo.c ****     GPIO_InitStruct.Speed = GPIO_SPEED_FREQ_LOW;
 116              		.loc 1 356 5 is_stmt 1 view .LVU33
 117              		.loc 1 356 27 is_stmt 0 view .LVU34
 118 005c 0695     		str	r5, [sp, #24]
 357:Drivers/BSP/STM32F4xx_Nucleo/stm32f4xx_nucleo.c ****     GPIO_InitStruct.Alternate = BUS_USART2_RX_GPIO_AF;
 119              		.loc 1 357 5 is_stmt 1 view .LVU35
 120              		.loc 1 357 31 is_stmt 0 view .LVU36
 121 005e 0797     		str	r7, [sp, #28]
 358:Drivers/BSP/STM32F4xx_Nucleo/stm32f4xx_nucleo.c ****     HAL_GPIO_Init(BUS_USART2_RX_GPIO_PORT, &GPIO_InitStruct);
 122              		.loc 1 358 5 is_stmt 1 view .LVU37
 123 0060 03A9     		add	r1, sp, #12
 124 0062 2046     		mov	r0, r4
 125 0064 FFF7FEFF 		bl	HAL_GPIO_Init
 126              	.LVL3:
 359:Drivers/BSP/STM32F4xx_Nucleo/stm32f4xx_nucleo.c **** 
 360:Drivers/BSP/STM32F4xx_Nucleo/stm32f4xx_nucleo.c ****     /* Peripheral DMA init*/
 361:Drivers/BSP/STM32F4xx_Nucleo/stm32f4xx_nucleo.c **** 
 362:Drivers/BSP/STM32F4xx_Nucleo/stm32f4xx_nucleo.c ****     hdma_usart2_rx.Instance = DMA1_Stream5;
 127              		.loc 1 362 5 view .LVU38
 128              		.loc 1 362 29 is_stmt 0 view .LVU39
 129 0068 0E4C     		ldr	r4, .L3+8
 130 006a 0F4B     		ldr	r3, .L3+12
 131 006c 2360     		str	r3, [r4]
 363:Drivers/BSP/STM32F4xx_Nucleo/stm32f4xx_nucleo.c ****     hdma_usart2_rx.Init.Channel = DMA_CHANNEL_4;
 132              		.loc 1 363 5 is_stmt 1 view .LVU40
 133              		.loc 1 363 33 is_stmt 0 view .LVU41
 134 006e 4FF00063 		mov	r3, #134217728
 135 0072 6360     		str	r3, [r4, #4]
 364:Drivers/BSP/STM32F4xx_Nucleo/stm32f4xx_nucleo.c ****     hdma_usart2_rx.Init.Direction = DMA_PERIPH_TO_MEMORY;
 136              		.loc 1 364 5 is_stmt 1 view .LVU42
 137              		.loc 1 364 35 is_stmt 0 view .LVU43
 138 0074 A560     		str	r5, [r4, #8]
 365:Drivers/BSP/STM32F4xx_Nucleo/stm32f4xx_nucleo.c ****     hdma_usart2_rx.Init.PeriphInc = DMA_PINC_DISABLE;
 139              		.loc 1 365 5 is_stmt 1 view .LVU44
 140              		.loc 1 365 35 is_stmt 0 view .LVU45
 141 0076 E560     		str	r5, [r4, #12]
 366:Drivers/BSP/STM32F4xx_Nucleo/stm32f4xx_nucleo.c ****     hdma_usart2_rx.Init.MemInc = DMA_MINC_ENABLE;
 142              		.loc 1 366 5 is_stmt 1 view .LVU46
 143              		.loc 1 366 32 is_stmt 0 view .LVU47
 144 0078 4FF48063 		mov	r3, #1024
 145 007c 2361     		str	r3, [r4, #16]
 367:Drivers/BSP/STM32F4xx_Nucleo/stm32f4xx_nucleo.c ****     hdma_usart2_rx.Init.PeriphDataAlignment = DMA_PDATAALIGN_BYTE;
 146              		.loc 1 367 5 is_stmt 1 view .LVU48
 147              		.loc 1 367 45 is_stmt 0 view .LVU49
ARM GAS  C:\Temp\cc9qwmi1.s 			page 10


 148 007e 6561     		str	r5, [r4, #20]
 368:Drivers/BSP/STM32F4xx_Nucleo/stm32f4xx_nucleo.c ****     hdma_usart2_rx.Init.MemDataAlignment = DMA_MDATAALIGN_BYTE;
 149              		.loc 1 368 5 is_stmt 1 view .LVU50
 150              		.loc 1 368 42 is_stmt 0 view .LVU51
 151 0080 A561     		str	r5, [r4, #24]
 369:Drivers/BSP/STM32F4xx_Nucleo/stm32f4xx_nucleo.c ****     hdma_usart2_rx.Init.Mode = DMA_CIRCULAR;
 152              		.loc 1 369 5 is_stmt 1 view .LVU52
 153              		.loc 1 369 30 is_stmt 0 view .LVU53
 154 0082 4FF48073 		mov	r3, #256
 155 0086 E361     		str	r3, [r4, #28]
 370:Drivers/BSP/STM32F4xx_Nucleo/stm32f4xx_nucleo.c ****     hdma_usart2_rx.Init.Priority = DMA_PRIORITY_LOW;
 156              		.loc 1 370 5 is_stmt 1 view .LVU54
 157              		.loc 1 370 34 is_stmt 0 view .LVU55
 158 0088 2562     		str	r5, [r4, #32]
 371:Drivers/BSP/STM32F4xx_Nucleo/stm32f4xx_nucleo.c ****     hdma_usart2_rx.Init.FIFOMode = DMA_FIFOMODE_DISABLE;
 159              		.loc 1 371 5 is_stmt 1 view .LVU56
 160              		.loc 1 371 34 is_stmt 0 view .LVU57
 161 008a 6562     		str	r5, [r4, #36]
 372:Drivers/BSP/STM32F4xx_Nucleo/stm32f4xx_nucleo.c ****     HAL_DMA_Init(&hdma_usart2_rx);
 162              		.loc 1 372 5 is_stmt 1 view .LVU58
 163 008c 2046     		mov	r0, r4
 164 008e FFF7FEFF 		bl	HAL_DMA_Init
 165              	.LVL4:
 373:Drivers/BSP/STM32F4xx_Nucleo/stm32f4xx_nucleo.c **** 
 374:Drivers/BSP/STM32F4xx_Nucleo/stm32f4xx_nucleo.c ****   __HAL_LINKDMA(uartHandle,hdmarx,hdma_usart2_rx);
 166              		.loc 1 374 3 view .LVU59
 167              		.loc 1 374 3 view .LVU60
 168 0092 F463     		str	r4, [r6, #60]
 169              		.loc 1 374 3 view .LVU61
 170 0094 A663     		str	r6, [r4, #56]
 171              		.loc 1 374 3 view .LVU62
 375:Drivers/BSP/STM32F4xx_Nucleo/stm32f4xx_nucleo.c **** 
 376:Drivers/BSP/STM32F4xx_Nucleo/stm32f4xx_nucleo.c ****   /* USER CODE BEGIN USART2_MspInit 1 */
 377:Drivers/BSP/STM32F4xx_Nucleo/stm32f4xx_nucleo.c **** 
 378:Drivers/BSP/STM32F4xx_Nucleo/stm32f4xx_nucleo.c ****   /* USER CODE END USART2_MspInit 1 */
 379:Drivers/BSP/STM32F4xx_Nucleo/stm32f4xx_nucleo.c **** }
 172              		.loc 1 379 1 is_stmt 0 view .LVU63
 173 0096 08B0     		add	sp, sp, #32
 174              		.cfi_def_cfa_offset 24
 175              		@ sp needed
 176 0098 BDE8F081 		pop	{r4, r5, r6, r7, r8, pc}
 177              	.LVL5:
 178              	.L4:
 179              		.loc 1 379 1 view .LVU64
 180              		.align	2
 181              	.L3:
 182 009c 00380240 		.word	1073887232
 183 00a0 00000240 		.word	1073872896
 184 00a4 00000000 		.word	hdma_usart2_rx
 185 00a8 88600240 		.word	1073897608
 186              		.cfi_endproc
 187              	.LFE140:
 189              		.section	.text.USART2_MspDeInit,"ax",%progbits
 190              		.align	1
 191              		.syntax unified
 192              		.thumb
 193              		.thumb_func
ARM GAS  C:\Temp\cc9qwmi1.s 			page 11


 195              	USART2_MspDeInit:
 196              	.LVL6:
 197              	.LFB141:
 380:Drivers/BSP/STM32F4xx_Nucleo/stm32f4xx_nucleo.c **** 
 381:Drivers/BSP/STM32F4xx_Nucleo/stm32f4xx_nucleo.c **** static void USART2_MspDeInit(UART_HandleTypeDef* uartHandle)
 382:Drivers/BSP/STM32F4xx_Nucleo/stm32f4xx_nucleo.c **** {
 198              		.loc 1 382 1 is_stmt 1 view -0
 199              		.cfi_startproc
 200              		@ args = 0, pretend = 0, frame = 0
 201              		@ frame_needed = 0, uses_anonymous_args = 0
 202              		.loc 1 382 1 is_stmt 0 view .LVU66
 203 0000 38B5     		push	{r3, r4, r5, lr}
 204              		.cfi_def_cfa_offset 16
 205              		.cfi_offset 3, -16
 206              		.cfi_offset 4, -12
 207              		.cfi_offset 5, -8
 208              		.cfi_offset 14, -4
 209 0002 0446     		mov	r4, r0
 383:Drivers/BSP/STM32F4xx_Nucleo/stm32f4xx_nucleo.c ****   /* USER CODE BEGIN USART2_MspDeInit 0 */
 384:Drivers/BSP/STM32F4xx_Nucleo/stm32f4xx_nucleo.c **** 
 385:Drivers/BSP/STM32F4xx_Nucleo/stm32f4xx_nucleo.c ****   /* USER CODE END USART2_MspDeInit 0 */
 386:Drivers/BSP/STM32F4xx_Nucleo/stm32f4xx_nucleo.c ****     /* Peripheral clock disable */
 387:Drivers/BSP/STM32F4xx_Nucleo/stm32f4xx_nucleo.c ****     __HAL_RCC_USART2_CLK_DISABLE();
 210              		.loc 1 387 5 is_stmt 1 view .LVU67
 211 0004 084A     		ldr	r2, .L7
 212 0006 136C     		ldr	r3, [r2, #64]
 213 0008 23F40033 		bic	r3, r3, #131072
 214 000c 1364     		str	r3, [r2, #64]
 388:Drivers/BSP/STM32F4xx_Nucleo/stm32f4xx_nucleo.c **** 
 389:Drivers/BSP/STM32F4xx_Nucleo/stm32f4xx_nucleo.c ****     /**USART2 GPIO Configuration
 390:Drivers/BSP/STM32F4xx_Nucleo/stm32f4xx_nucleo.c ****     PA2     ------> USART2_TX
 391:Drivers/BSP/STM32F4xx_Nucleo/stm32f4xx_nucleo.c ****     PA3     ------> USART2_RX
 392:Drivers/BSP/STM32F4xx_Nucleo/stm32f4xx_nucleo.c ****     */
 393:Drivers/BSP/STM32F4xx_Nucleo/stm32f4xx_nucleo.c ****     HAL_GPIO_DeInit(BUS_USART2_TX_GPIO_PORT, BUS_USART2_TX_GPIO_PIN);
 215              		.loc 1 393 5 view .LVU68
 216 000e 074D     		ldr	r5, .L7+4
 217 0010 0421     		movs	r1, #4
 218 0012 2846     		mov	r0, r5
 219              	.LVL7:
 220              		.loc 1 393 5 is_stmt 0 view .LVU69
 221 0014 FFF7FEFF 		bl	HAL_GPIO_DeInit
 222              	.LVL8:
 394:Drivers/BSP/STM32F4xx_Nucleo/stm32f4xx_nucleo.c **** 
 395:Drivers/BSP/STM32F4xx_Nucleo/stm32f4xx_nucleo.c ****     HAL_GPIO_DeInit(BUS_USART2_RX_GPIO_PORT, BUS_USART2_RX_GPIO_PIN);
 223              		.loc 1 395 5 is_stmt 1 view .LVU70
 224 0018 0821     		movs	r1, #8
 225 001a 2846     		mov	r0, r5
 226 001c FFF7FEFF 		bl	HAL_GPIO_DeInit
 227              	.LVL9:
 396:Drivers/BSP/STM32F4xx_Nucleo/stm32f4xx_nucleo.c **** 
 397:Drivers/BSP/STM32F4xx_Nucleo/stm32f4xx_nucleo.c ****     /* Peripheral DMA DeInit*/
 398:Drivers/BSP/STM32F4xx_Nucleo/stm32f4xx_nucleo.c ****     HAL_DMA_DeInit(uartHandle->hdmarx);
 228              		.loc 1 398 5 view .LVU71
 229 0020 E06B     		ldr	r0, [r4, #60]
 230 0022 FFF7FEFF 		bl	HAL_DMA_DeInit
 231              	.LVL10:
 399:Drivers/BSP/STM32F4xx_Nucleo/stm32f4xx_nucleo.c ****   /* USER CODE BEGIN USART2_MspDeInit 1 */
ARM GAS  C:\Temp\cc9qwmi1.s 			page 12


 400:Drivers/BSP/STM32F4xx_Nucleo/stm32f4xx_nucleo.c **** 
 401:Drivers/BSP/STM32F4xx_Nucleo/stm32f4xx_nucleo.c ****   /* USER CODE END USART2_MspDeInit 1 */
 402:Drivers/BSP/STM32F4xx_Nucleo/stm32f4xx_nucleo.c **** }
 232              		.loc 1 402 1 is_stmt 0 view .LVU72
 233 0026 38BD     		pop	{r3, r4, r5, pc}
 234              	.LVL11:
 235              	.L8:
 236              		.loc 1 402 1 view .LVU73
 237              		.align	2
 238              	.L7:
 239 0028 00380240 		.word	1073887232
 240 002c 00000240 		.word	1073872896
 241              		.cfi_endproc
 242              	.LFE141:
 244              		.section	.text.BSP_GetVersion,"ax",%progbits
 245              		.align	1
 246              		.global	BSP_GetVersion
 247              		.syntax unified
 248              		.thumb
 249              		.thumb_func
 251              	BSP_GetVersion:
 252              	.LFB134:
  82:Drivers/BSP/STM32F4xx_Nucleo/stm32f4xx_nucleo.c ****   return (int32_t)__STM32F4XX_NUCLEO_BSP_VERSION;
 253              		.loc 1 82 1 is_stmt 1 view -0
 254              		.cfi_startproc
 255              		@ args = 0, pretend = 0, frame = 0
 256              		@ frame_needed = 0, uses_anonymous_args = 0
 257              		@ link register save eliminated.
  83:Drivers/BSP/STM32F4xx_Nucleo/stm32f4xx_nucleo.c **** }
 258              		.loc 1 83 3 view .LVU75
  84:Drivers/BSP/STM32F4xx_Nucleo/stm32f4xx_nucleo.c **** 
 259              		.loc 1 84 1 is_stmt 0 view .LVU76
 260 0000 4FF08070 		mov	r0, #16777216
 261 0004 7047     		bx	lr
 262              		.cfi_endproc
 263              	.LFE134:
 265              		.section	.text.BSP_COM_DeInit,"ax",%progbits
 266              		.align	1
 267              		.global	BSP_COM_DeInit
 268              		.syntax unified
 269              		.thumb
 270              		.thumb_func
 272              	BSP_COM_DeInit:
 273              	.LVL12:
 274              	.LFB136:
 134:Drivers/BSP/STM32F4xx_Nucleo/stm32f4xx_nucleo.c ****   int32_t ret = BSP_ERROR_NONE;
 275              		.loc 1 134 1 is_stmt 1 view -0
 276              		.cfi_startproc
 277              		@ args = 0, pretend = 0, frame = 0
 278              		@ frame_needed = 0, uses_anonymous_args = 0
 135:Drivers/BSP/STM32F4xx_Nucleo/stm32f4xx_nucleo.c **** 
 279              		.loc 1 135 3 view .LVU78
 137:Drivers/BSP/STM32F4xx_Nucleo/stm32f4xx_nucleo.c ****   {
 280              		.loc 1 137 3 view .LVU79
 137:Drivers/BSP/STM32F4xx_Nucleo/stm32f4xx_nucleo.c ****   {
 281              		.loc 1 137 5 is_stmt 0 view .LVU80
 282 0000 0128     		cmp	r0, #1
ARM GAS  C:\Temp\cc9qwmi1.s 			page 13


 283 0002 12D8     		bhi	.L12
 134:Drivers/BSP/STM32F4xx_Nucleo/stm32f4xx_nucleo.c ****   int32_t ret = BSP_ERROR_NONE;
 284              		.loc 1 134 1 view .LVU81
 285 0004 10B5     		push	{r4, lr}
 286              		.cfi_def_cfa_offset 8
 287              		.cfi_offset 4, -8
 288              		.cfi_offset 14, -4
 144:Drivers/BSP/STM32F4xx_Nucleo/stm32f4xx_nucleo.c **** 
 289              		.loc 1 144 5 is_stmt 1 view .LVU82
 144:Drivers/BSP/STM32F4xx_Nucleo/stm32f4xx_nucleo.c **** 
 290              		.loc 1 144 40 is_stmt 0 view .LVU83
 291 0006 0C4B     		ldr	r3, .L18
 292 0008 53F82020 		ldr	r2, [r3, r0, lsl #2]
 144:Drivers/BSP/STM32F4xx_Nucleo/stm32f4xx_nucleo.c **** 
 293              		.loc 1 144 29 view .LVU84
 294 000c 0B4C     		ldr	r4, .L18+4
 295 000e 00EBC003 		add	r3, r0, r0, lsl #3
 296 0012 44F83320 		str	r2, [r4, r3, lsl #3]
 147:Drivers/BSP/STM32F4xx_Nucleo/stm32f4xx_nucleo.c ****     #endif /* (USE_HAL_UART_REGISTER_CALLBACKS == 0U) */
 297              		.loc 1 147 7 is_stmt 1 view .LVU85
 298 0016 04EBC304 		add	r4, r4, r3, lsl #3
 299 001a 2046     		mov	r0, r4
 300              	.LVL13:
 147:Drivers/BSP/STM32F4xx_Nucleo/stm32f4xx_nucleo.c ****     #endif /* (USE_HAL_UART_REGISTER_CALLBACKS == 0U) */
 301              		.loc 1 147 7 is_stmt 0 view .LVU86
 302 001c FFF7FEFF 		bl	USART2_MspDeInit
 303              	.LVL14:
 150:Drivers/BSP/STM32F4xx_Nucleo/stm32f4xx_nucleo.c ****     {
 304              		.loc 1 150 5 is_stmt 1 view .LVU87
 150:Drivers/BSP/STM32F4xx_Nucleo/stm32f4xx_nucleo.c ****     {
 305              		.loc 1 150 8 is_stmt 0 view .LVU88
 306 0020 2046     		mov	r0, r4
 307 0022 FFF7FEFF 		bl	HAL_UART_DeInit
 308              	.LVL15:
 150:Drivers/BSP/STM32F4xx_Nucleo/stm32f4xx_nucleo.c ****     {
 309              		.loc 1 150 7 view .LVU89
 310 0026 18B9     		cbnz	r0, .L13
 311              	.LVL16:
 312              	.L10:
 157:Drivers/BSP/STM32F4xx_Nucleo/stm32f4xx_nucleo.c **** 
 313              		.loc 1 157 1 view .LVU90
 314 0028 10BD     		pop	{r4, pc}
 315              	.LVL17:
 316              	.L12:
 317              		.cfi_def_cfa_offset 0
 318              		.cfi_restore 4
 319              		.cfi_restore 14
 139:Drivers/BSP/STM32F4xx_Nucleo/stm32f4xx_nucleo.c ****   }
 320              		.loc 1 139 9 view .LVU91
 321 002a 6FF00100 		mvn	r0, #1
 322              	.LVL18:
 157:Drivers/BSP/STM32F4xx_Nucleo/stm32f4xx_nucleo.c **** 
 323              		.loc 1 157 1 view .LVU92
 324 002e 7047     		bx	lr
 325              	.L13:
 326              		.cfi_def_cfa_offset 8
 327              		.cfi_offset 4, -8
ARM GAS  C:\Temp\cc9qwmi1.s 			page 14


 328              		.cfi_offset 14, -4
 152:Drivers/BSP/STM32F4xx_Nucleo/stm32f4xx_nucleo.c ****     }
 329              		.loc 1 152 11 view .LVU93
 330 0030 6FF00300 		mvn	r0, #3
 331              	.LVL19:
 156:Drivers/BSP/STM32F4xx_Nucleo/stm32f4xx_nucleo.c **** }
 332              		.loc 1 156 3 is_stmt 1 view .LVU94
 156:Drivers/BSP/STM32F4xx_Nucleo/stm32f4xx_nucleo.c **** }
 333              		.loc 1 156 10 is_stmt 0 view .LVU95
 334 0034 F8E7     		b	.L10
 335              	.L19:
 336 0036 00BF     		.align	2
 337              	.L18:
 338 0038 00000000 		.word	COM_USART
 339 003c 00000000 		.word	hcom_uart
 340              		.cfi_endproc
 341              	.LFE136:
 343              		.section	.text.MX_USART2_UART_Init,"ax",%progbits
 344              		.align	1
 345              		.weak	MX_USART2_UART_Init
 346              		.syntax unified
 347              		.thumb
 348              		.thumb_func
 350              	MX_USART2_UART_Init:
 351              	.LVL20:
 352              	.LFB137:
 171:Drivers/BSP/STM32F4xx_Nucleo/stm32f4xx_nucleo.c ****   HAL_StatusTypeDef ret = HAL_OK;
 353              		.loc 1 171 1 is_stmt 1 view -0
 354              		.cfi_startproc
 355              		@ args = 0, pretend = 0, frame = 0
 356              		@ frame_needed = 0, uses_anonymous_args = 0
 171:Drivers/BSP/STM32F4xx_Nucleo/stm32f4xx_nucleo.c ****   HAL_StatusTypeDef ret = HAL_OK;
 357              		.loc 1 171 1 is_stmt 0 view .LVU97
 358 0000 08B5     		push	{r3, lr}
 359              		.cfi_def_cfa_offset 8
 360              		.cfi_offset 3, -8
 361              		.cfi_offset 14, -4
 172:Drivers/BSP/STM32F4xx_Nucleo/stm32f4xx_nucleo.c **** 
 362              		.loc 1 172 3 is_stmt 1 view .LVU98
 363              	.LVL21:
 174:Drivers/BSP/STM32F4xx_Nucleo/stm32f4xx_nucleo.c ****   huart->Init.BaudRate = 1843200;
 364              		.loc 1 174 3 view .LVU99
 174:Drivers/BSP/STM32F4xx_Nucleo/stm32f4xx_nucleo.c ****   huart->Init.BaudRate = 1843200;
 365              		.loc 1 174 19 is_stmt 0 view .LVU100
 366 0002 0C4A     		ldr	r2, .L24
 367 0004 0260     		str	r2, [r0]
 175:Drivers/BSP/STM32F4xx_Nucleo/stm32f4xx_nucleo.c ****   huart->Init.WordLength = UART_WORDLENGTH_9B;
 368              		.loc 1 175 3 is_stmt 1 view .LVU101
 175:Drivers/BSP/STM32F4xx_Nucleo/stm32f4xx_nucleo.c ****   huart->Init.WordLength = UART_WORDLENGTH_9B;
 369              		.loc 1 175 24 is_stmt 0 view .LVU102
 370 0006 4FF4E112 		mov	r2, #1843200
 371 000a 4260     		str	r2, [r0, #4]
 176:Drivers/BSP/STM32F4xx_Nucleo/stm32f4xx_nucleo.c ****   huart->Init.StopBits = UART_STOPBITS_2;
 372              		.loc 1 176 3 is_stmt 1 view .LVU103
 176:Drivers/BSP/STM32F4xx_Nucleo/stm32f4xx_nucleo.c ****   huart->Init.StopBits = UART_STOPBITS_2;
 373              		.loc 1 176 26 is_stmt 0 view .LVU104
 374 000c 4FF48052 		mov	r2, #4096
ARM GAS  C:\Temp\cc9qwmi1.s 			page 15


 375 0010 8260     		str	r2, [r0, #8]
 177:Drivers/BSP/STM32F4xx_Nucleo/stm32f4xx_nucleo.c ****   huart->Init.Parity = UART_PARITY_EVEN;
 376              		.loc 1 177 3 is_stmt 1 view .LVU105
 177:Drivers/BSP/STM32F4xx_Nucleo/stm32f4xx_nucleo.c ****   huart->Init.Parity = UART_PARITY_EVEN;
 377              		.loc 1 177 24 is_stmt 0 view .LVU106
 378 0012 4FF40052 		mov	r2, #8192
 379 0016 C260     		str	r2, [r0, #12]
 178:Drivers/BSP/STM32F4xx_Nucleo/stm32f4xx_nucleo.c ****   huart->Init.Mode = UART_MODE_TX_RX;
 380              		.loc 1 178 3 is_stmt 1 view .LVU107
 178:Drivers/BSP/STM32F4xx_Nucleo/stm32f4xx_nucleo.c ****   huart->Init.Mode = UART_MODE_TX_RX;
 381              		.loc 1 178 22 is_stmt 0 view .LVU108
 382 0018 4FF48062 		mov	r2, #1024
 383 001c 0261     		str	r2, [r0, #16]
 179:Drivers/BSP/STM32F4xx_Nucleo/stm32f4xx_nucleo.c ****   huart->Init.HwFlowCtl = UART_HWCONTROL_NONE;
 384              		.loc 1 179 3 is_stmt 1 view .LVU109
 179:Drivers/BSP/STM32F4xx_Nucleo/stm32f4xx_nucleo.c ****   huart->Init.HwFlowCtl = UART_HWCONTROL_NONE;
 385              		.loc 1 179 20 is_stmt 0 view .LVU110
 386 001e 0C22     		movs	r2, #12
 387 0020 4261     		str	r2, [r0, #20]
 180:Drivers/BSP/STM32F4xx_Nucleo/stm32f4xx_nucleo.c ****   huart->Init.OverSampling = UART_OVERSAMPLING_16;
 388              		.loc 1 180 3 is_stmt 1 view .LVU111
 180:Drivers/BSP/STM32F4xx_Nucleo/stm32f4xx_nucleo.c ****   huart->Init.OverSampling = UART_OVERSAMPLING_16;
 389              		.loc 1 180 25 is_stmt 0 view .LVU112
 390 0022 0022     		movs	r2, #0
 391 0024 8261     		str	r2, [r0, #24]
 181:Drivers/BSP/STM32F4xx_Nucleo/stm32f4xx_nucleo.c ****   if (HAL_UART_Init(huart) != HAL_OK)
 392              		.loc 1 181 3 is_stmt 1 view .LVU113
 181:Drivers/BSP/STM32F4xx_Nucleo/stm32f4xx_nucleo.c ****   if (HAL_UART_Init(huart) != HAL_OK)
 393              		.loc 1 181 28 is_stmt 0 view .LVU114
 394 0026 C261     		str	r2, [r0, #28]
 182:Drivers/BSP/STM32F4xx_Nucleo/stm32f4xx_nucleo.c ****   {
 395              		.loc 1 182 3 is_stmt 1 view .LVU115
 182:Drivers/BSP/STM32F4xx_Nucleo/stm32f4xx_nucleo.c ****   {
 396              		.loc 1 182 7 is_stmt 0 view .LVU116
 397 0028 FFF7FEFF 		bl	HAL_UART_Init
 398              	.LVL22:
 182:Drivers/BSP/STM32F4xx_Nucleo/stm32f4xx_nucleo.c ****   {
 399              		.loc 1 182 6 view .LVU117
 400 002c 00B1     		cbz	r0, .L21
 184:Drivers/BSP/STM32F4xx_Nucleo/stm32f4xx_nucleo.c ****   }
 401              		.loc 1 184 9 view .LVU118
 402 002e 0120     		movs	r0, #1
 403              	.L21:
 404              	.LVL23:
 187:Drivers/BSP/STM32F4xx_Nucleo/stm32f4xx_nucleo.c **** }
 405              		.loc 1 187 3 is_stmt 1 view .LVU119
 188:Drivers/BSP/STM32F4xx_Nucleo/stm32f4xx_nucleo.c **** 
 406              		.loc 1 188 1 is_stmt 0 view .LVU120
 407 0030 08BD     		pop	{r3, pc}
 408              	.L25:
 409 0032 00BF     		.align	2
 410              	.L24:
 411 0034 00440040 		.word	1073759232
 412              		.cfi_endproc
 413              	.LFE137:
 415              		.section	.text.BSP_COM_Init,"ax",%progbits
 416              		.align	1
ARM GAS  C:\Temp\cc9qwmi1.s 			page 16


 417              		.global	BSP_COM_Init
 418              		.syntax unified
 419              		.thumb
 420              		.thumb_func
 422              	BSP_COM_Init:
 423              	.LVL24:
 424              	.LFB135:
  96:Drivers/BSP/STM32F4xx_Nucleo/stm32f4xx_nucleo.c ****   int32_t ret = BSP_ERROR_NONE;
 425              		.loc 1 96 1 is_stmt 1 view -0
 426              		.cfi_startproc
 427              		@ args = 0, pretend = 0, frame = 0
 428              		@ frame_needed = 0, uses_anonymous_args = 0
  97:Drivers/BSP/STM32F4xx_Nucleo/stm32f4xx_nucleo.c **** 
 429              		.loc 1 97 3 view .LVU122
  99:Drivers/BSP/STM32F4xx_Nucleo/stm32f4xx_nucleo.c ****   {
 430              		.loc 1 99 3 view .LVU123
  99:Drivers/BSP/STM32F4xx_Nucleo/stm32f4xx_nucleo.c ****   {
 431              		.loc 1 99 5 is_stmt 0 view .LVU124
 432 0000 0128     		cmp	r0, #1
 433 0002 12D8     		bhi	.L28
  96:Drivers/BSP/STM32F4xx_Nucleo/stm32f4xx_nucleo.c ****   int32_t ret = BSP_ERROR_NONE;
 434              		.loc 1 96 1 view .LVU125
 435 0004 10B5     		push	{r4, lr}
 436              		.cfi_def_cfa_offset 8
 437              		.cfi_offset 4, -8
 438              		.cfi_offset 14, -4
 105:Drivers/BSP/STM32F4xx_Nucleo/stm32f4xx_nucleo.c **** #if (USE_HAL_UART_REGISTER_CALLBACKS == 0U)
 439              		.loc 1 105 6 is_stmt 1 view .LVU126
 105:Drivers/BSP/STM32F4xx_Nucleo/stm32f4xx_nucleo.c **** #if (USE_HAL_UART_REGISTER_CALLBACKS == 0U)
 440              		.loc 1 105 41 is_stmt 0 view .LVU127
 441 0006 0C4B     		ldr	r3, .L34
 442 0008 53F82020 		ldr	r2, [r3, r0, lsl #2]
 105:Drivers/BSP/STM32F4xx_Nucleo/stm32f4xx_nucleo.c **** #if (USE_HAL_UART_REGISTER_CALLBACKS == 0U)
 443              		.loc 1 105 30 view .LVU128
 444 000c 0B4C     		ldr	r4, .L34+4
 445 000e 00EBC003 		add	r3, r0, r0, lsl #3
 446 0012 44F83320 		str	r2, [r4, r3, lsl #3]
 108:Drivers/BSP/STM32F4xx_Nucleo/stm32f4xx_nucleo.c **** #else
 447              		.loc 1 108 5 is_stmt 1 view .LVU129
 448 0016 04EBC304 		add	r4, r4, r3, lsl #3
 449 001a 2046     		mov	r0, r4
 450              	.LVL25:
 108:Drivers/BSP/STM32F4xx_Nucleo/stm32f4xx_nucleo.c **** #else
 451              		.loc 1 108 5 is_stmt 0 view .LVU130
 452 001c FFF7FEFF 		bl	USART2_MspInit
 453              	.LVL26:
 118:Drivers/BSP/STM32F4xx_Nucleo/stm32f4xx_nucleo.c ****     {
 454              		.loc 1 118 5 is_stmt 1 view .LVU131
 118:Drivers/BSP/STM32F4xx_Nucleo/stm32f4xx_nucleo.c ****     {
 455              		.loc 1 118 9 is_stmt 0 view .LVU132
 456 0020 2046     		mov	r0, r4
 457 0022 FFF7FEFF 		bl	MX_USART2_UART_Init
 458              	.LVL27:
 118:Drivers/BSP/STM32F4xx_Nucleo/stm32f4xx_nucleo.c ****     {
 459              		.loc 1 118 8 view .LVU133
 460 0026 18B9     		cbnz	r0, .L29
 461              	.LVL28:
ARM GAS  C:\Temp\cc9qwmi1.s 			page 17


 462              	.L26:
 125:Drivers/BSP/STM32F4xx_Nucleo/stm32f4xx_nucleo.c **** 
 463              		.loc 1 125 1 view .LVU134
 464 0028 10BD     		pop	{r4, pc}
 465              	.LVL29:
 466              	.L28:
 467              		.cfi_def_cfa_offset 0
 468              		.cfi_restore 4
 469              		.cfi_restore 14
 101:Drivers/BSP/STM32F4xx_Nucleo/stm32f4xx_nucleo.c ****   }
 470              		.loc 1 101 9 view .LVU135
 471 002a 6FF00100 		mvn	r0, #1
 472              	.LVL30:
 125:Drivers/BSP/STM32F4xx_Nucleo/stm32f4xx_nucleo.c **** 
 473              		.loc 1 125 1 view .LVU136
 474 002e 7047     		bx	lr
 475              	.L29:
 476              		.cfi_def_cfa_offset 8
 477              		.cfi_offset 4, -8
 478              		.cfi_offset 14, -4
 120:Drivers/BSP/STM32F4xx_Nucleo/stm32f4xx_nucleo.c ****     }
 479              		.loc 1 120 11 view .LVU137
 480 0030 6FF00300 		mvn	r0, #3
 481              	.LVL31:
 124:Drivers/BSP/STM32F4xx_Nucleo/stm32f4xx_nucleo.c **** }
 482              		.loc 1 124 3 is_stmt 1 view .LVU138
 124:Drivers/BSP/STM32F4xx_Nucleo/stm32f4xx_nucleo.c **** }
 483              		.loc 1 124 10 is_stmt 0 view .LVU139
 484 0034 F8E7     		b	.L26
 485              	.L35:
 486 0036 00BF     		.align	2
 487              	.L34:
 488 0038 00000000 		.word	COM_USART
 489 003c 00000000 		.word	hcom_uart
 490              		.cfi_endproc
 491              	.LFE135:
 493              		.section	.text.BSP_COM_SelectLogPort,"ax",%progbits
 494              		.align	1
 495              		.global	BSP_COM_SelectLogPort
 496              		.syntax unified
 497              		.thumb
 498              		.thumb_func
 500              	BSP_COM_SelectLogPort:
 501              	.LVL32:
 502              	.LFB138:
 273:Drivers/BSP/STM32F4xx_Nucleo/stm32f4xx_nucleo.c ****   if(COM_ActiveLogPort != COM)
 503              		.loc 1 273 1 is_stmt 1 view -0
 504              		.cfi_startproc
 505              		@ args = 0, pretend = 0, frame = 0
 506              		@ frame_needed = 0, uses_anonymous_args = 0
 507              		@ link register save eliminated.
 274:Drivers/BSP/STM32F4xx_Nucleo/stm32f4xx_nucleo.c ****   {
 508              		.loc 1 274 3 view .LVU141
 274:Drivers/BSP/STM32F4xx_Nucleo/stm32f4xx_nucleo.c ****   {
 509              		.loc 1 274 24 is_stmt 0 view .LVU142
 510 0000 034B     		ldr	r3, .L38
 511 0002 1B78     		ldrb	r3, [r3]	@ zero_extendqisi2
ARM GAS  C:\Temp\cc9qwmi1.s 			page 18


 274:Drivers/BSP/STM32F4xx_Nucleo/stm32f4xx_nucleo.c ****   {
 512              		.loc 1 274 5 view .LVU143
 513 0004 8342     		cmp	r3, r0
 514 0006 01D0     		beq	.L37
 276:Drivers/BSP/STM32F4xx_Nucleo/stm32f4xx_nucleo.c ****   }
 515              		.loc 1 276 5 is_stmt 1 view .LVU144
 276:Drivers/BSP/STM32F4xx_Nucleo/stm32f4xx_nucleo.c ****   }
 516              		.loc 1 276 23 is_stmt 0 view .LVU145
 517 0008 014B     		ldr	r3, .L38
 518 000a 1870     		strb	r0, [r3]
 519              	.L37:
 278:Drivers/BSP/STM32F4xx_Nucleo/stm32f4xx_nucleo.c **** }
 520              		.loc 1 278 3 is_stmt 1 view .LVU146
 279:Drivers/BSP/STM32F4xx_Nucleo/stm32f4xx_nucleo.c **** 
 521              		.loc 1 279 1 is_stmt 0 view .LVU147
 522 000c 0020     		movs	r0, #0
 523              	.LVL33:
 279:Drivers/BSP/STM32F4xx_Nucleo/stm32f4xx_nucleo.c **** 
 524              		.loc 1 279 1 view .LVU148
 525 000e 7047     		bx	lr
 526              	.L39:
 527              		.align	2
 528              	.L38:
 529 0010 00000000 		.word	COM_ActiveLogPort
 530              		.cfi_endproc
 531              	.LFE138:
 533              		.section	.text.__io_putchar,"ax",%progbits
 534              		.align	1
 535              		.global	__io_putchar
 536              		.syntax unified
 537              		.thumb
 538              		.thumb_func
 540              	__io_putchar:
 541              	.LVL34:
 542              	.LFB139:
 319:Drivers/BSP/STM32F4xx_Nucleo/stm32f4xx_nucleo.c ****   (void)HAL_UART_Transmit(&hcom_uart[COM_ActiveLogPort], (uint8_t *)&ch, 1, COM_POLL_TIMEOUT);
 543              		.loc 1 319 1 is_stmt 1 view -0
 544              		.cfi_startproc
 545              		@ args = 0, pretend = 0, frame = 8
 546              		@ frame_needed = 0, uses_anonymous_args = 0
 319:Drivers/BSP/STM32F4xx_Nucleo/stm32f4xx_nucleo.c ****   (void)HAL_UART_Transmit(&hcom_uart[COM_ActiveLogPort], (uint8_t *)&ch, 1, COM_POLL_TIMEOUT);
 547              		.loc 1 319 1 is_stmt 0 view .LVU150
 548 0000 10B5     		push	{r4, lr}
 549              		.cfi_def_cfa_offset 8
 550              		.cfi_offset 4, -8
 551              		.cfi_offset 14, -4
 552 0002 82B0     		sub	sp, sp, #8
 553              		.cfi_def_cfa_offset 16
 554 0004 0190     		str	r0, [sp, #4]
 320:Drivers/BSP/STM32F4xx_Nucleo/stm32f4xx_nucleo.c ****   return ch;
 555              		.loc 1 320 3 is_stmt 1 view .LVU151
 320:Drivers/BSP/STM32F4xx_Nucleo/stm32f4xx_nucleo.c ****   return ch;
 556              		.loc 1 320 37 is_stmt 0 view .LVU152
 557 0006 084B     		ldr	r3, .L42
 558 0008 1B78     		ldrb	r3, [r3]	@ zero_extendqisi2
 320:Drivers/BSP/STM32F4xx_Nucleo/stm32f4xx_nucleo.c ****   return ch;
 559              		.loc 1 320 9 view .LVU153
ARM GAS  C:\Temp\cc9qwmi1.s 			page 19


 560 000a 03EBC303 		add	r3, r3, r3, lsl #3
 561 000e D800     		lsls	r0, r3, #3
 562              	.LVL35:
 320:Drivers/BSP/STM32F4xx_Nucleo/stm32f4xx_nucleo.c ****   return ch;
 563              		.loc 1 320 9 view .LVU154
 564 0010 4FF47A73 		mov	r3, #1000
 565 0014 0122     		movs	r2, #1
 566 0016 01A9     		add	r1, sp, #4
 567              	.LVL36:
 320:Drivers/BSP/STM32F4xx_Nucleo/stm32f4xx_nucleo.c ****   return ch;
 568              		.loc 1 320 9 view .LVU155
 569 0018 044C     		ldr	r4, .L42+4
 570 001a 2044     		add	r0, r0, r4
 571 001c FFF7FEFF 		bl	HAL_UART_Transmit
 572              	.LVL37:
 321:Drivers/BSP/STM32F4xx_Nucleo/stm32f4xx_nucleo.c **** }
 573              		.loc 1 321 3 is_stmt 1 view .LVU156
 322:Drivers/BSP/STM32F4xx_Nucleo/stm32f4xx_nucleo.c **** #endif /* For IAR */
 574              		.loc 1 322 1 is_stmt 0 view .LVU157
 575 0020 0198     		ldr	r0, [sp, #4]
 576 0022 02B0     		add	sp, sp, #8
 577              		.cfi_def_cfa_offset 8
 578              		@ sp needed
 579 0024 10BD     		pop	{r4, pc}
 580              	.L43:
 581 0026 00BF     		.align	2
 582              	.L42:
 583 0028 00000000 		.word	COM_ActiveLogPort
 584 002c 00000000 		.word	hcom_uart
 585              		.cfi_endproc
 586              	.LFE139:
 588              		.global	hdma_usart2_rx
 589              		.section	.bss.hdma_usart2_rx,"aw",%nobits
 590              		.align	2
 593              	hdma_usart2_rx:
 594 0000 00000000 		.space	96
 594      00000000 
 594      00000000 
 594      00000000 
 594      00000000 
 595              		.section	.bss.COM_ActiveLogPort,"aw",%nobits
 598              	COM_ActiveLogPort:
 599 0000 00       		.space	1
 600              		.global	hcom_uart
 601              		.section	.bss.hcom_uart,"aw",%nobits
 602              		.align	2
 605              	hcom_uart:
 606 0000 00000000 		.space	72
 606      00000000 
 606      00000000 
 606      00000000 
 606      00000000 
 607              		.global	COM_USART
 608              		.section	.data.COM_USART,"aw"
 609              		.align	2
 612              	COM_USART:
 613 0000 00440040 		.word	1073759232
ARM GAS  C:\Temp\cc9qwmi1.s 			page 20


 614              		.text
 615              	.Letext0:
 616              		.file 2 "c:\\users\\jessejabezarendse\\appdata\\roaming\\code\\user\\globalstorage\\bmd.stm32-for-
 617              		.file 3 "c:\\users\\jessejabezarendse\\appdata\\roaming\\code\\user\\globalstorage\\bmd.stm32-for-
 618              		.file 4 "Drivers/CMSIS/Device/ST/STM32F4xx/Include/stm32f411xe.h"
 619              		.file 5 "Drivers/STM32F4xx_HAL_Driver/Inc/stm32f4xx_hal_def.h"
 620              		.file 6 "Drivers/STM32F4xx_HAL_Driver/Inc/stm32f4xx_hal_gpio.h"
 621              		.file 7 "Drivers/STM32F4xx_HAL_Driver/Inc/stm32f4xx_hal_dma.h"
 622              		.file 8 "Drivers/STM32F4xx_HAL_Driver/Inc/stm32f4xx_hal_uart.h"
 623              		.file 9 "Drivers/BSP/STM32F4xx_Nucleo/stm32f4xx_nucleo.h"
ARM GAS  C:\Temp\cc9qwmi1.s 			page 21

