ARM GAS  C:\Temp\cckYGZGE.s 			page 1


   1              		.cpu cortex-m4
   2              		.arch armv7e-m
   3              		.fpu fpv4-sp-d16
   4              		.eabi_attribute 27, 1
   5              		.eabi_attribute 28, 1
   6              		.eabi_attribute 20, 1
   7              		.eabi_attribute 21, 1
   8              		.eabi_attribute 23, 3
   9              		.eabi_attribute 24, 1
  10              		.eabi_attribute 25, 1
  11              		.eabi_attribute 26, 1
  12              		.eabi_attribute 30, 1
  13              		.eabi_attribute 34, 1
  14              		.eabi_attribute 18, 4
  15              		.file	"app_mems.c"
  16              		.text
  17              	.Ltext0:
  18              		.cfi_sections	.debug_frame
  19              		.file 1 "MEMS/App/app_mems.c"
  20              		.global	__aeabi_i2d
  21              		.global	__aeabi_ddiv
  22              		.global	__aeabi_f2d
  23              		.global	__aeabi_dadd
  24              		.global	__aeabi_d2f
  25              		.global	__aeabi_dmul
  26              		.global	__aeabi_d2iz
  27              		.section	.text.floatToInt,"ax",%progbits
  28              		.align	1
  29              		.syntax unified
  30              		.thumb
  31              		.thumb_func
  33              	floatToInt:
  34              	.LVL0:
  35              	.LFB142:
   1:MEMS/App/app_mems.c **** /**
   2:MEMS/App/app_mems.c ****   ******************************************************************************
   3:MEMS/App/app_mems.c ****   * File Name          : app_mems.c
   4:MEMS/App/app_mems.c ****   * Description        : This file provides code for the configuration
   5:MEMS/App/app_mems.c ****   *                      of the STMicroelectronics.X-CUBE-MEMS1.10.0.0 instances.
   6:MEMS/App/app_mems.c ****   ******************************************************************************
   7:MEMS/App/app_mems.c ****   * @attention
   8:MEMS/App/app_mems.c ****   *
   9:MEMS/App/app_mems.c ****   * Copyright (c) 2024 STMicroelectronics.
  10:MEMS/App/app_mems.c ****   * All rights reserved.
  11:MEMS/App/app_mems.c ****   *
  12:MEMS/App/app_mems.c ****   * This software is licensed under terms that can be found in the LICENSE file
  13:MEMS/App/app_mems.c ****   * in the root directory of this software component.
  14:MEMS/App/app_mems.c ****   * If no LICENSE file comes with this software, it is provided AS-IS.
  15:MEMS/App/app_mems.c ****   *
  16:MEMS/App/app_mems.c ****   ******************************************************************************
  17:MEMS/App/app_mems.c ****   */
  18:MEMS/App/app_mems.c **** 
  19:MEMS/App/app_mems.c **** #ifdef __cplusplus
  20:MEMS/App/app_mems.c **** extern "C" {
  21:MEMS/App/app_mems.c **** #endif
  22:MEMS/App/app_mems.c **** 
  23:MEMS/App/app_mems.c **** /* Includes ------------------------------------------------------------------*/
ARM GAS  C:\Temp\cckYGZGE.s 			page 2


  24:MEMS/App/app_mems.c **** #include "app_mems.h"
  25:MEMS/App/app_mems.c **** #include "main.h"
  26:MEMS/App/app_mems.c **** #include <stdio.h>
  27:MEMS/App/app_mems.c **** 
  28:MEMS/App/app_mems.c **** #include "iks02a1_motion_sensors.h"
  29:MEMS/App/app_mems.c **** #include "stm32f4xx_nucleo.h"
  30:MEMS/App/app_mems.c **** #include "math.h"
  31:MEMS/App/app_mems.c **** 
  32:MEMS/App/app_mems.c **** /* Private typedef -----------------------------------------------------------*/
  33:MEMS/App/app_mems.c **** typedef struct displayFloatToInt_s {
  34:MEMS/App/app_mems.c ****   int8_t sign; /* 0 means positive, 1 means negative*/
  35:MEMS/App/app_mems.c ****   uint32_t  out_int;
  36:MEMS/App/app_mems.c ****   uint32_t  out_dec;
  37:MEMS/App/app_mems.c **** } displayFloatToInt_t;
  38:MEMS/App/app_mems.c **** 
  39:MEMS/App/app_mems.c **** /* Private define ------------------------------------------------------------*/
  40:MEMS/App/app_mems.c **** #define MAX_BUF_SIZE 256
  41:MEMS/App/app_mems.c **** 
  42:MEMS/App/app_mems.c **** /* Private variables ---------------------------------------------------------*/
  43:MEMS/App/app_mems.c **** static volatile uint8_t PushButtonDetected = 0;
  44:MEMS/App/app_mems.c **** static uint8_t verbose = 1;  /* Verbose output to UART terminal ON/OFF. */
  45:MEMS/App/app_mems.c **** static IKS02A1_MOTION_SENSOR_Capabilities_t MotionCapabilities[IKS02A1_MOTION_INSTANCES_NBR];
  46:MEMS/App/app_mems.c **** static char dataOut[MAX_BUF_SIZE];
  47:MEMS/App/app_mems.c **** static int32_t PushButtonState = GPIO_PIN_RESET;
  48:MEMS/App/app_mems.c **** 
  49:MEMS/App/app_mems.c **** /* Private function prototypes -----------------------------------------------*/
  50:MEMS/App/app_mems.c **** static void floatToInt(float in, displayFloatToInt_t *out_value, int32_t dec_prec);
  51:MEMS/App/app_mems.c **** static void Accelero_Sensor_Handler(uint32_t Instance);
  52:MEMS/App/app_mems.c **** static void Gyro_Sensor_Handler(uint32_t Instance);
  53:MEMS/App/app_mems.c **** static void Magneto_Sensor_Handler(uint32_t Instance);
  54:MEMS/App/app_mems.c **** static void MX_IKS02A1_DataLogTerminal_Init(void);
  55:MEMS/App/app_mems.c **** static void MX_IKS02A1_DataLogTerminal_Process(void);
  56:MEMS/App/app_mems.c **** 
  57:MEMS/App/app_mems.c **** void MX_MEMS_Init(void)
  58:MEMS/App/app_mems.c **** {
  59:MEMS/App/app_mems.c ****   /* USER CODE BEGIN SV */
  60:MEMS/App/app_mems.c **** 
  61:MEMS/App/app_mems.c ****   /* USER CODE END SV */
  62:MEMS/App/app_mems.c **** 
  63:MEMS/App/app_mems.c ****   /* USER CODE BEGIN MEMS_Init_PreTreatment */
  64:MEMS/App/app_mems.c **** 
  65:MEMS/App/app_mems.c ****   /* USER CODE END MEMS_Init_PreTreatment */
  66:MEMS/App/app_mems.c **** 
  67:MEMS/App/app_mems.c ****   /* Initialize the peripherals and the MEMS components */
  68:MEMS/App/app_mems.c **** 
  69:MEMS/App/app_mems.c ****   MX_IKS02A1_DataLogTerminal_Init();
  70:MEMS/App/app_mems.c **** 
  71:MEMS/App/app_mems.c ****   /* USER CODE BEGIN MEMS_Init_PostTreatment */
  72:MEMS/App/app_mems.c **** 
  73:MEMS/App/app_mems.c ****   /* USER CODE END MEMS_Init_PostTreatment */
  74:MEMS/App/app_mems.c **** }
  75:MEMS/App/app_mems.c **** 
  76:MEMS/App/app_mems.c **** /*
  77:MEMS/App/app_mems.c ****  * LM background task
  78:MEMS/App/app_mems.c ****  */
  79:MEMS/App/app_mems.c **** void MX_MEMS_Process(void)
  80:MEMS/App/app_mems.c **** {
ARM GAS  C:\Temp\cckYGZGE.s 			page 3


  81:MEMS/App/app_mems.c ****   /* USER CODE BEGIN MEMS_Process_PreTreatment */
  82:MEMS/App/app_mems.c **** 
  83:MEMS/App/app_mems.c ****   /* USER CODE END MEMS_Process_PreTreatment */
  84:MEMS/App/app_mems.c **** 
  85:MEMS/App/app_mems.c ****   MX_IKS02A1_DataLogTerminal_Process();
  86:MEMS/App/app_mems.c **** 
  87:MEMS/App/app_mems.c ****   /* USER CODE BEGIN MEMS_Process_PostTreatment */
  88:MEMS/App/app_mems.c **** 
  89:MEMS/App/app_mems.c ****   /* USER CODE END MEMS_Process_PostTreatment */
  90:MEMS/App/app_mems.c **** }
  91:MEMS/App/app_mems.c **** 
  92:MEMS/App/app_mems.c **** /**
  93:MEMS/App/app_mems.c ****   * @brief  Initialize the DataLogTerminal application
  94:MEMS/App/app_mems.c ****   * @retval None
  95:MEMS/App/app_mems.c ****   */
  96:MEMS/App/app_mems.c **** void MX_IKS02A1_DataLogTerminal_Init(void)
  97:MEMS/App/app_mems.c **** {
  98:MEMS/App/app_mems.c ****   displayFloatToInt_t out_value_odr;
  99:MEMS/App/app_mems.c ****   int i;
 100:MEMS/App/app_mems.c **** 
 101:MEMS/App/app_mems.c ****   /* Initialize LED */
 102:MEMS/App/app_mems.c ****   BSP_LED_Init(LED2);
 103:MEMS/App/app_mems.c **** 
 104:MEMS/App/app_mems.c ****   /* Initialize button */
 105:MEMS/App/app_mems.c ****   BSP_PB_Init(BUTTON_KEY, BUTTON_MODE_EXTI);
 106:MEMS/App/app_mems.c **** 
 107:MEMS/App/app_mems.c ****   /* Check what is the Push Button State when the button is not pressed. It can change across famil
 108:MEMS/App/app_mems.c ****   PushButtonState = (BSP_PB_GetState(BUTTON_KEY)) ?  0 : 1;
 109:MEMS/App/app_mems.c **** 
 110:MEMS/App/app_mems.c ****   /* Initialize Virtual COM Port */
 111:MEMS/App/app_mems.c ****   BSP_COM_Init(COM1);
 112:MEMS/App/app_mems.c **** 
 113:MEMS/App/app_mems.c ****   IKS02A1_MOTION_SENSOR_Init(IKS02A1_ISM330DHCX_0, MOTION_ACCELERO | MOTION_GYRO);
 114:MEMS/App/app_mems.c **** 
 115:MEMS/App/app_mems.c ****   IKS02A1_MOTION_SENSOR_Init(IKS02A1_IIS2DLPC_0, MOTION_ACCELERO);
 116:MEMS/App/app_mems.c **** 
 117:MEMS/App/app_mems.c ****   IKS02A1_MOTION_SENSOR_Init(IKS02A1_IIS2MDC_0, MOTION_MAGNETO);
 118:MEMS/App/app_mems.c **** 
 119:MEMS/App/app_mems.c ****   for(i = 0; i < IKS02A1_MOTION_INSTANCES_NBR; i++)
 120:MEMS/App/app_mems.c ****   {
 121:MEMS/App/app_mems.c ****     IKS02A1_MOTION_SENSOR_GetCapabilities(i, &MotionCapabilities[i]);
 122:MEMS/App/app_mems.c ****     snprintf(dataOut, MAX_BUF_SIZE,
 123:MEMS/App/app_mems.c ****              "\r\nMotion Sensor Instance %d capabilities: \r\n ACCELEROMETER: %d\r\n GYROSCOPE: %d\
 124:MEMS/App/app_mems.c ****              i, MotionCapabilities[i].Acc, MotionCapabilities[i].Gyro, MotionCapabilities[i].Magnet
 125:MEMS/App/app_mems.c ****     printf("%s", dataOut);
 126:MEMS/App/app_mems.c ****     floatToInt(MotionCapabilities[i].AccMaxOdr, &out_value_odr, 3);
 127:MEMS/App/app_mems.c ****     snprintf(dataOut, MAX_BUF_SIZE, " MAX ACC ODR: %d.%03d Hz, MAX ACC FS: %d\r\n", (int)out_value_
 128:MEMS/App/app_mems.c ****              (int)out_value_odr.out_dec, (int)MotionCapabilities[i].AccMaxFS);
 129:MEMS/App/app_mems.c ****     printf("%s", dataOut);
 130:MEMS/App/app_mems.c ****     floatToInt(MotionCapabilities[i].GyroMaxOdr, &out_value_odr, 3);
 131:MEMS/App/app_mems.c ****     snprintf(dataOut, MAX_BUF_SIZE, " MAX GYRO ODR: %d.%03d Hz, MAX GYRO FS: %d\r\n", (int)out_valu
 132:MEMS/App/app_mems.c ****              (int)out_value_odr.out_dec, (int)MotionCapabilities[i].GyroMaxFS);
 133:MEMS/App/app_mems.c ****     printf("%s", dataOut);
 134:MEMS/App/app_mems.c ****     floatToInt(MotionCapabilities[i].MagMaxOdr, &out_value_odr, 3);
 135:MEMS/App/app_mems.c ****     snprintf(dataOut, MAX_BUF_SIZE, " MAX MAG ODR: %d.%03d Hz, MAX MAG FS: %d\r\n", (int)out_value_
 136:MEMS/App/app_mems.c ****              (int)out_value_odr.out_dec, (int)MotionCapabilities[i].MagMaxFS);
 137:MEMS/App/app_mems.c ****     printf("%s", dataOut);
ARM GAS  C:\Temp\cckYGZGE.s 			page 4


 138:MEMS/App/app_mems.c ****   }
 139:MEMS/App/app_mems.c **** }
 140:MEMS/App/app_mems.c **** 
 141:MEMS/App/app_mems.c **** /**
 142:MEMS/App/app_mems.c ****   * @brief  BSP Push Button callback
 143:MEMS/App/app_mems.c ****   * @param  Button Specifies the pin connected EXTI line
 144:MEMS/App/app_mems.c ****   * @retval None.
 145:MEMS/App/app_mems.c ****   */
 146:MEMS/App/app_mems.c **** void BSP_PB_Callback(Button_TypeDef Button)
 147:MEMS/App/app_mems.c **** {
 148:MEMS/App/app_mems.c ****   PushButtonDetected = 1;
 149:MEMS/App/app_mems.c **** }
 150:MEMS/App/app_mems.c **** 
 151:MEMS/App/app_mems.c **** /**
 152:MEMS/App/app_mems.c ****   * @brief  Process of the DataLogTerminal application
 153:MEMS/App/app_mems.c ****   * @retval None
 154:MEMS/App/app_mems.c ****   */
 155:MEMS/App/app_mems.c **** void MX_IKS02A1_DataLogTerminal_Process(void)
 156:MEMS/App/app_mems.c **** {
 157:MEMS/App/app_mems.c ****   int i;
 158:MEMS/App/app_mems.c **** 
 159:MEMS/App/app_mems.c ****   if (PushButtonDetected != 0U)
 160:MEMS/App/app_mems.c ****   {
 161:MEMS/App/app_mems.c ****     /* Debouncing */
 162:MEMS/App/app_mems.c ****     HAL_Delay(50);
 163:MEMS/App/app_mems.c **** 
 164:MEMS/App/app_mems.c ****     /* Wait until the button is released */
 165:MEMS/App/app_mems.c ****     while ((BSP_PB_GetState( BUTTON_KEY ) == PushButtonState));
 166:MEMS/App/app_mems.c **** 
 167:MEMS/App/app_mems.c ****     /* Debouncing */
 168:MEMS/App/app_mems.c ****     HAL_Delay(50);
 169:MEMS/App/app_mems.c **** 
 170:MEMS/App/app_mems.c ****     /* Reset Interrupt flag */
 171:MEMS/App/app_mems.c ****     PushButtonDetected = 0;
 172:MEMS/App/app_mems.c **** 
 173:MEMS/App/app_mems.c ****     /* Do nothing */
 174:MEMS/App/app_mems.c ****   }
 175:MEMS/App/app_mems.c **** 
 176:MEMS/App/app_mems.c ****   for(i = 0; i < IKS02A1_MOTION_INSTANCES_NBR; i++)
 177:MEMS/App/app_mems.c ****   {
 178:MEMS/App/app_mems.c ****     if(MotionCapabilities[i].Acc)
 179:MEMS/App/app_mems.c ****     {
 180:MEMS/App/app_mems.c ****       Accelero_Sensor_Handler(i);
 181:MEMS/App/app_mems.c ****     }
 182:MEMS/App/app_mems.c ****     if(MotionCapabilities[i].Gyro)
 183:MEMS/App/app_mems.c ****     {
 184:MEMS/App/app_mems.c ****       Gyro_Sensor_Handler(i);
 185:MEMS/App/app_mems.c ****     }
 186:MEMS/App/app_mems.c ****     if(MotionCapabilities[i].Magneto)
 187:MEMS/App/app_mems.c ****     {
 188:MEMS/App/app_mems.c ****       Magneto_Sensor_Handler(i);
 189:MEMS/App/app_mems.c ****     }
 190:MEMS/App/app_mems.c ****   }
 191:MEMS/App/app_mems.c **** 
 192:MEMS/App/app_mems.c ****   HAL_Delay( 1000 );
 193:MEMS/App/app_mems.c **** }
 194:MEMS/App/app_mems.c **** 
ARM GAS  C:\Temp\cckYGZGE.s 			page 5


 195:MEMS/App/app_mems.c **** /**
 196:MEMS/App/app_mems.c ****   * @brief  Splits a float into two integer values.
 197:MEMS/App/app_mems.c ****   * @param  in the float value as input
 198:MEMS/App/app_mems.c ****   * @param  out_value the pointer to the output integer structure
 199:MEMS/App/app_mems.c ****   * @param  dec_prec the decimal precision to be used
 200:MEMS/App/app_mems.c ****   * @retval None
 201:MEMS/App/app_mems.c ****   */
 202:MEMS/App/app_mems.c **** static void floatToInt(float in, displayFloatToInt_t *out_value, int32_t dec_prec)
 203:MEMS/App/app_mems.c **** {
  36              		.loc 1 203 1 view -0
  37              		.cfi_startproc
  38              		@ args = 0, pretend = 0, frame = 0
  39              		@ frame_needed = 0, uses_anonymous_args = 0
  40              		.loc 1 203 1 is_stmt 0 view .LVU1
  41 0000 D0B5     		push	{r4, r6, r7, lr}
  42              		.cfi_def_cfa_offset 16
  43              		.cfi_offset 4, -16
  44              		.cfi_offset 6, -12
  45              		.cfi_offset 7, -8
  46              		.cfi_offset 14, -4
  47 0002 2DED068B 		vpush.64	{d8, d9, d10}
  48              		.cfi_def_cfa_offset 40
  49              		.cfi_offset 80, -40
  50              		.cfi_offset 81, -36
  51              		.cfi_offset 82, -32
  52              		.cfi_offset 83, -28
  53              		.cfi_offset 84, -24
  54              		.cfi_offset 85, -20
  55 0006 B0EE408A 		vmov.f32	s16, s0
  56 000a 0446     		mov	r4, r0
  57 000c 0846     		mov	r0, r1
  58              	.LVL1:
 204:MEMS/App/app_mems.c ****   if(in >= 0.0f)
  59              		.loc 1 204 3 is_stmt 1 view .LVU2
  60              		.loc 1 204 5 is_stmt 0 view .LVU3
  61 000e B5EEC00A 		vcmpe.f32	s0, #0
  62 0012 F1EE10FA 		vmrs	APSR_nzcv, FPSCR
  63 0016 47DB     		blt	.L6
 205:MEMS/App/app_mems.c ****   {
 206:MEMS/App/app_mems.c ****     out_value->sign = 0;
  64              		.loc 1 206 5 is_stmt 1 view .LVU4
  65              		.loc 1 206 21 is_stmt 0 view .LVU5
  66 0018 0023     		movs	r3, #0
  67 001a 2370     		strb	r3, [r4]
  68              	.LVL2:
  69              	.L4:
 207:MEMS/App/app_mems.c ****   }else
 208:MEMS/App/app_mems.c ****   {
 209:MEMS/App/app_mems.c ****     out_value->sign = 1;
 210:MEMS/App/app_mems.c ****     in = -in;
 211:MEMS/App/app_mems.c ****   }
 212:MEMS/App/app_mems.c **** 
 213:MEMS/App/app_mems.c ****   in = in + (0.5f / pow(10, dec_prec));
  70              		.loc 1 213 3 is_stmt 1 view .LVU6
  71              		.loc 1 213 21 is_stmt 0 view .LVU7
  72 001c FFF7FEFF 		bl	__aeabi_i2d
  73              	.LVL3:
ARM GAS  C:\Temp\cckYGZGE.s 			page 6


  74              		.loc 1 213 21 view .LVU8
  75 0020 41EC190B 		vmov	d9, r0, r1
  76 0024 9FED24AB 		vldr.64	d10, .L8
  77 0028 B0EE491A 		vmov.f32	s2, s18
  78 002c F0EE691A 		vmov.f32	s3, s19
  79 0030 B0EE4A0A 		vmov.f32	s0, s20
  80 0034 F0EE6A0A 		vmov.f32	s1, s21
  81 0038 FFF7FEFF 		bl	pow
  82              	.LVL4:
  83 003c 53EC102B 		vmov	r2, r3, d0
  84              		.loc 1 213 19 view .LVU9
  85 0040 0020     		movs	r0, #0
  86 0042 1F49     		ldr	r1, .L8+8
  87 0044 FFF7FEFF 		bl	__aeabi_ddiv
  88              	.LVL5:
  89 0048 0646     		mov	r6, r0
  90 004a 0F46     		mov	r7, r1
  91              		.loc 1 213 11 view .LVU10
  92 004c 18EE100A 		vmov	r0, s16
  93 0050 FFF7FEFF 		bl	__aeabi_f2d
  94              	.LVL6:
  95 0054 3246     		mov	r2, r6
  96 0056 3B46     		mov	r3, r7
  97 0058 FFF7FEFF 		bl	__aeabi_dadd
  98              	.LVL7:
  99              		.loc 1 213 6 view .LVU11
 100 005c FFF7FEFF 		bl	__aeabi_d2f
 101              	.LVL8:
 102 0060 07EE900A 		vmov	s15, r0
 103              	.LVL9:
 214:MEMS/App/app_mems.c ****   out_value->out_int = (int32_t)in;
 104              		.loc 1 214 3 is_stmt 1 view .LVU12
 105              		.loc 1 214 24 is_stmt 0 view .LVU13
 106 0064 BDEEE77A 		vcvt.s32.f32	s14, s15
 107              		.loc 1 214 22 view .LVU14
 108 0068 84ED017A 		vstr.32	s14, [r4, #4]	@ int
 215:MEMS/App/app_mems.c ****   in = in - (float)(out_value->out_int);
 109              		.loc 1 215 3 is_stmt 1 view .LVU15
 110              		.loc 1 215 13 is_stmt 0 view .LVU16
 111 006c B8EE477A 		vcvt.f32.u32	s14, s14
 112              		.loc 1 215 6 view .LVU17
 113 0070 37EEC78A 		vsub.f32	s16, s15, s14
 114              	.LVL10:
 216:MEMS/App/app_mems.c ****   out_value->out_dec = (int32_t)trunc(in * pow(10, dec_prec));
 115              		.loc 1 216 3 is_stmt 1 view .LVU18
 116              		.loc 1 216 44 is_stmt 0 view .LVU19
 117 0074 B0EE491A 		vmov.f32	s2, s18
 118 0078 F0EE691A 		vmov.f32	s3, s19
 119 007c B0EE4A0A 		vmov.f32	s0, s20
 120 0080 F0EE6A0A 		vmov.f32	s1, s21
 121 0084 FFF7FEFF 		bl	pow
 122              	.LVL11:
 123 0088 57EC106B 		vmov	r6, r7, d0
 124              		.loc 1 216 42 view .LVU20
 125 008c 18EE100A 		vmov	r0, s16
 126 0090 FFF7FEFF 		bl	__aeabi_f2d
 127              	.LVL12:
ARM GAS  C:\Temp\cckYGZGE.s 			page 7


 128 0094 3246     		mov	r2, r6
 129 0096 3B46     		mov	r3, r7
 130 0098 FFF7FEFF 		bl	__aeabi_dmul
 131              	.LVL13:
 132              		.loc 1 216 24 view .LVU21
 133 009c FFF7FEFF 		bl	__aeabi_d2iz
 134              	.LVL14:
 135              		.loc 1 216 22 view .LVU22
 136 00a0 A060     		str	r0, [r4, #8]
 217:MEMS/App/app_mems.c **** }
 137              		.loc 1 217 1 view .LVU23
 138 00a2 BDEC068B 		vldm	sp!, {d8-d10}
 139              		.cfi_remember_state
 140              		.cfi_restore 84
 141              		.cfi_restore 85
 142              		.cfi_restore 82
 143              		.cfi_restore 83
 144              		.cfi_restore 80
 145              		.cfi_restore 81
 146              		.cfi_def_cfa_offset 16
 147              	.LVL15:
 148              		.loc 1 217 1 view .LVU24
 149 00a6 D0BD     		pop	{r4, r6, r7, pc}
 150              	.LVL16:
 151              	.L6:
 152              		.cfi_restore_state
 209:MEMS/App/app_mems.c ****     in = -in;
 153              		.loc 1 209 5 is_stmt 1 view .LVU25
 209:MEMS/App/app_mems.c ****     in = -in;
 154              		.loc 1 209 21 is_stmt 0 view .LVU26
 155 00a8 0123     		movs	r3, #1
 156 00aa 2370     		strb	r3, [r4]
 210:MEMS/App/app_mems.c ****   }
 157              		.loc 1 210 5 is_stmt 1 view .LVU27
 210:MEMS/App/app_mems.c ****   }
 158              		.loc 1 210 8 is_stmt 0 view .LVU28
 159 00ac B1EE408A 		vneg.f32	s16, s0
 160              	.LVL17:
 210:MEMS/App/app_mems.c ****   }
 161              		.loc 1 210 8 view .LVU29
 162 00b0 B4E7     		b	.L4
 163              	.L9:
 164 00b2 00BFAFF3 		.align	3
 164      0080
 165              	.L8:
 166 00b8 00000000 		.word	0
 167 00bc 00002440 		.word	1076101120
 168 00c0 0000E03F 		.word	1071644672
 169              		.cfi_endproc
 170              	.LFE142:
 172              		.section	.rodata.MX_IKS02A1_DataLogTerminal_Init.str1.4,"aMS",%progbits,1
 173              		.align	2
 174              	.LC0:
 175 0000 0D0A4D6F 		.ascii	"\015\012Motion Sensor Instance %d capabilities: \015"
 175      74696F6E 
 175      2053656E 
 175      736F7220 
ARM GAS  C:\Temp\cckYGZGE.s 			page 8


 175      496E7374 
 176 002b 0A204143 		.ascii	"\012 ACCELEROMETER: %d\015\012 GYROSCOPE: %d\015\012"
 176      43454C45 
 176      524F4D45 
 176      5445523A 
 176      2025640D 
 177 0050 204D4147 		.ascii	" MAGNETOMETER: %d\015\012 LOW POWER: %d\015\012\000"
 177      4E45544F 
 177      4D455445 
 177      523A2025 
 177      640D0A20 
 178              		.align	2
 179              	.LC1:
 180 0074 257300   		.ascii	"%s\000"
 181 0077 00       		.align	2
 182              	.LC2:
 183 0078 204D4158 		.ascii	" MAX ACC ODR: %d.%03d Hz, MAX ACC FS: %d\015\012\000"
 183      20414343 
 183      204F4452 
 183      3A202564 
 183      2E253033 
 184 00a3 00       		.align	2
 185              	.LC3:
 186 00a4 204D4158 		.ascii	" MAX GYRO ODR: %d.%03d Hz, MAX GYRO FS: %d\015\012\000"
 186      20475952 
 186      4F204F44 
 186      523A2025 
 186      642E2530 
 187 00d1 000000   		.align	2
 188              	.LC4:
 189 00d4 204D4158 		.ascii	" MAX MAG ODR: %d.%03d Hz, MAX MAG FS: %d\015\012\000"
 189      204D4147 
 189      204F4452 
 189      3A202564 
 189      2E253033 
 190              		.section	.text.MX_IKS02A1_DataLogTerminal_Init,"ax",%progbits
 191              		.align	1
 192              		.syntax unified
 193              		.thumb
 194              		.thumb_func
 196              	MX_IKS02A1_DataLogTerminal_Init:
 197              	.LFB139:
  97:MEMS/App/app_mems.c ****   displayFloatToInt_t out_value_odr;
 198              		.loc 1 97 1 is_stmt 1 view -0
 199              		.cfi_startproc
 200              		@ args = 0, pretend = 0, frame = 16
 201              		@ frame_needed = 0, uses_anonymous_args = 0
 202 0000 F0B5     		push	{r4, r5, r6, r7, lr}
 203              		.cfi_def_cfa_offset 20
 204              		.cfi_offset 4, -20
 205              		.cfi_offset 5, -16
 206              		.cfi_offset 6, -12
 207              		.cfi_offset 7, -8
 208              		.cfi_offset 14, -4
 209 0002 89B0     		sub	sp, sp, #36
 210              		.cfi_def_cfa_offset 56
  98:MEMS/App/app_mems.c ****   int i;
ARM GAS  C:\Temp\cckYGZGE.s 			page 9


 211              		.loc 1 98 3 view .LVU31
  99:MEMS/App/app_mems.c **** 
 212              		.loc 1 99 3 view .LVU32
 102:MEMS/App/app_mems.c **** 
 213              		.loc 1 102 3 view .LVU33
 214 0004 0020     		movs	r0, #0
 215 0006 FFF7FEFF 		bl	BSP_LED_Init
 216              	.LVL18:
 105:MEMS/App/app_mems.c **** 
 217              		.loc 1 105 3 view .LVU34
 218 000a 0121     		movs	r1, #1
 219 000c 0020     		movs	r0, #0
 220 000e FFF7FEFF 		bl	BSP_PB_Init
 221              	.LVL19:
 108:MEMS/App/app_mems.c **** 
 222              		.loc 1 108 3 view .LVU35
 108:MEMS/App/app_mems.c **** 
 223              		.loc 1 108 22 is_stmt 0 view .LVU36
 224 0012 0020     		movs	r0, #0
 225 0014 FFF7FEFF 		bl	BSP_PB_GetState
 226              	.LVL20:
 108:MEMS/App/app_mems.c **** 
 227              		.loc 1 108 56 view .LVU37
 228 0018 B0FA80F0 		clz	r0, r0
 229 001c 4009     		lsrs	r0, r0, #5
 108:MEMS/App/app_mems.c **** 
 230              		.loc 1 108 19 view .LVU38
 231 001e 3B4B     		ldr	r3, .L14
 232 0020 1860     		str	r0, [r3]
 111:MEMS/App/app_mems.c **** 
 233              		.loc 1 111 3 is_stmt 1 view .LVU39
 234 0022 0020     		movs	r0, #0
 235 0024 FFF7FEFF 		bl	BSP_COM_Init
 236              	.LVL21:
 113:MEMS/App/app_mems.c **** 
 237              		.loc 1 113 3 view .LVU40
 238 0028 0321     		movs	r1, #3
 239 002a 0020     		movs	r0, #0
 240 002c FFF7FEFF 		bl	IKS02A1_MOTION_SENSOR_Init
 241              	.LVL22:
 115:MEMS/App/app_mems.c **** 
 242              		.loc 1 115 3 view .LVU41
 243 0030 0221     		movs	r1, #2
 244 0032 0120     		movs	r0, #1
 245 0034 FFF7FEFF 		bl	IKS02A1_MOTION_SENSOR_Init
 246              	.LVL23:
 117:MEMS/App/app_mems.c **** 
 247              		.loc 1 117 3 view .LVU42
 248 0038 0421     		movs	r1, #4
 249 003a 0220     		movs	r0, #2
 250 003c FFF7FEFF 		bl	IKS02A1_MOTION_SENSOR_Init
 251              	.LVL24:
 119:MEMS/App/app_mems.c ****   {
 252              		.loc 1 119 3 view .LVU43
 119:MEMS/App/app_mems.c ****   {
 253              		.loc 1 119 9 is_stmt 0 view .LVU44
 254 0040 0026     		movs	r6, #0
ARM GAS  C:\Temp\cckYGZGE.s 			page 10


 119:MEMS/App/app_mems.c ****   {
 255              		.loc 1 119 3 view .LVU45
 256 0042 5EE0     		b	.L11
 257              	.LVL25:
 258              	.L12:
 121:MEMS/App/app_mems.c ****     snprintf(dataOut, MAX_BUF_SIZE,
 259              		.loc 1 121 5 is_stmt 1 discriminator 3 view .LVU46
 260 0044 C6EBC604 		rsb	r4, r6, r6, lsl #3
 261 0048 A700     		lsls	r7, r4, #2
 262 004a 314D     		ldr	r5, .L14+4
 263 004c 05EB8404 		add	r4, r5, r4, lsl #2
 264 0050 2146     		mov	r1, r4
 265 0052 3046     		mov	r0, r6
 266 0054 FFF7FEFF 		bl	IKS02A1_MOTION_SENSOR_GetCapabilities
 267              	.LVL26:
 122:MEMS/App/app_mems.c ****              "\r\nMotion Sensor Instance %d capabilities: \r\n ACCELEROMETER: %d\r\n GYROSCOPE: %d\
 268              		.loc 1 122 5 discriminator 3 view .LVU47
 124:MEMS/App/app_mems.c ****     printf("%s", dataOut);
 269              		.loc 1 124 38 is_stmt 0 discriminator 3 view .LVU48
 270 0058 EB5D     		ldrb	r3, [r5, r7]	@ zero_extendqisi2
 124:MEMS/App/app_mems.c ****     printf("%s", dataOut);
 271              		.loc 1 124 65 discriminator 3 view .LVU49
 272 005a 6278     		ldrb	r2, [r4, #1]	@ zero_extendqisi2
 124:MEMS/App/app_mems.c ****     printf("%s", dataOut);
 273              		.loc 1 124 93 discriminator 3 view .LVU50
 274 005c A178     		ldrb	r1, [r4, #2]	@ zero_extendqisi2
 124:MEMS/App/app_mems.c ****     printf("%s", dataOut);
 275              		.loc 1 124 124 discriminator 3 view .LVU51
 276 005e E078     		ldrb	r0, [r4, #3]	@ zero_extendqisi2
 122:MEMS/App/app_mems.c ****              "\r\nMotion Sensor Instance %d capabilities: \r\n ACCELEROMETER: %d\r\n GYROSCOPE: %d\
 277              		.loc 1 122 5 discriminator 3 view .LVU52
 278 0060 2C4D     		ldr	r5, .L14+8
 279 0062 0390     		str	r0, [sp, #12]
 280 0064 0291     		str	r1, [sp, #8]
 281 0066 0192     		str	r2, [sp, #4]
 282 0068 0093     		str	r3, [sp]
 283 006a 3346     		mov	r3, r6
 284 006c 2A4A     		ldr	r2, .L14+12
 285 006e 4FF48071 		mov	r1, #256
 286 0072 2846     		mov	r0, r5
 287 0074 FFF7FEFF 		bl	snprintf
 288              	.LVL27:
 125:MEMS/App/app_mems.c ****     floatToInt(MotionCapabilities[i].AccMaxOdr, &out_value_odr, 3);
 289              		.loc 1 125 5 is_stmt 1 discriminator 3 view .LVU53
 290 0078 284F     		ldr	r7, .L14+16
 291 007a 2946     		mov	r1, r5
 292 007c 3846     		mov	r0, r7
 293 007e FFF7FEFF 		bl	printf
 294              	.LVL28:
 126:MEMS/App/app_mems.c ****     snprintf(dataOut, MAX_BUF_SIZE, " MAX ACC ODR: %d.%03d Hz, MAX ACC FS: %d\r\n", (int)out_value_
 295              		.loc 1 126 5 discriminator 3 view .LVU54
 296 0082 0321     		movs	r1, #3
 297 0084 05A8     		add	r0, sp, #20
 298 0086 94ED050A 		vldr.32	s0, [r4, #20]
 299 008a FFF7FEFF 		bl	floatToInt
 300              	.LVL29:
 127:MEMS/App/app_mems.c ****              (int)out_value_odr.out_dec, (int)MotionCapabilities[i].AccMaxFS);
ARM GAS  C:\Temp\cckYGZGE.s 			page 11


 301              		.loc 1 127 5 discriminator 3 view .LVU55
 128:MEMS/App/app_mems.c ****     printf("%s", dataOut);
 302              		.loc 1 128 68 is_stmt 0 discriminator 3 view .LVU56
 303 008e A368     		ldr	r3, [r4, #8]
 127:MEMS/App/app_mems.c ****              (int)out_value_odr.out_dec, (int)MotionCapabilities[i].AccMaxFS);
 304              		.loc 1 127 5 discriminator 3 view .LVU57
 305 0090 0193     		str	r3, [sp, #4]
 306 0092 079B     		ldr	r3, [sp, #28]
 307 0094 0093     		str	r3, [sp]
 308 0096 069B     		ldr	r3, [sp, #24]
 309 0098 214A     		ldr	r2, .L14+20
 310 009a 4FF48071 		mov	r1, #256
 311 009e 2846     		mov	r0, r5
 312 00a0 FFF7FEFF 		bl	snprintf
 313              	.LVL30:
 129:MEMS/App/app_mems.c ****     floatToInt(MotionCapabilities[i].GyroMaxOdr, &out_value_odr, 3);
 314              		.loc 1 129 5 is_stmt 1 discriminator 3 view .LVU58
 315 00a4 2946     		mov	r1, r5
 316 00a6 3846     		mov	r0, r7
 317 00a8 FFF7FEFF 		bl	printf
 318              	.LVL31:
 130:MEMS/App/app_mems.c ****     snprintf(dataOut, MAX_BUF_SIZE, " MAX GYRO ODR: %d.%03d Hz, MAX GYRO FS: %d\r\n", (int)out_valu
 319              		.loc 1 130 5 discriminator 3 view .LVU59
 320 00ac 0321     		movs	r1, #3
 321 00ae 05A8     		add	r0, sp, #20
 322 00b0 94ED040A 		vldr.32	s0, [r4, #16]
 323 00b4 FFF7FEFF 		bl	floatToInt
 324              	.LVL32:
 131:MEMS/App/app_mems.c ****              (int)out_value_odr.out_dec, (int)MotionCapabilities[i].GyroMaxFS);
 325              		.loc 1 131 5 discriminator 3 view .LVU60
 132:MEMS/App/app_mems.c ****     printf("%s", dataOut);
 326              		.loc 1 132 68 is_stmt 0 discriminator 3 view .LVU61
 327 00b8 6368     		ldr	r3, [r4, #4]
 131:MEMS/App/app_mems.c ****              (int)out_value_odr.out_dec, (int)MotionCapabilities[i].GyroMaxFS);
 328              		.loc 1 131 5 discriminator 3 view .LVU62
 329 00ba 0193     		str	r3, [sp, #4]
 330 00bc 079B     		ldr	r3, [sp, #28]
 331 00be 0093     		str	r3, [sp]
 332 00c0 069B     		ldr	r3, [sp, #24]
 333 00c2 184A     		ldr	r2, .L14+24
 334 00c4 4FF48071 		mov	r1, #256
 335 00c8 2846     		mov	r0, r5
 336 00ca FFF7FEFF 		bl	snprintf
 337              	.LVL33:
 133:MEMS/App/app_mems.c ****     floatToInt(MotionCapabilities[i].MagMaxOdr, &out_value_odr, 3);
 338              		.loc 1 133 5 is_stmt 1 discriminator 3 view .LVU63
 339 00ce 2946     		mov	r1, r5
 340 00d0 3846     		mov	r0, r7
 341 00d2 FFF7FEFF 		bl	printf
 342              	.LVL34:
 134:MEMS/App/app_mems.c ****     snprintf(dataOut, MAX_BUF_SIZE, " MAX MAG ODR: %d.%03d Hz, MAX MAG FS: %d\r\n", (int)out_value_
 343              		.loc 1 134 5 discriminator 3 view .LVU64
 344 00d6 0321     		movs	r1, #3
 345 00d8 05A8     		add	r0, sp, #20
 346 00da 94ED060A 		vldr.32	s0, [r4, #24]
 347 00de FFF7FEFF 		bl	floatToInt
 348              	.LVL35:
ARM GAS  C:\Temp\cckYGZGE.s 			page 12


 135:MEMS/App/app_mems.c ****              (int)out_value_odr.out_dec, (int)MotionCapabilities[i].MagMaxFS);
 349              		.loc 1 135 5 discriminator 3 view .LVU65
 136:MEMS/App/app_mems.c ****     printf("%s", dataOut);
 350              		.loc 1 136 68 is_stmt 0 discriminator 3 view .LVU66
 351 00e2 E368     		ldr	r3, [r4, #12]
 135:MEMS/App/app_mems.c ****              (int)out_value_odr.out_dec, (int)MotionCapabilities[i].MagMaxFS);
 352              		.loc 1 135 5 discriminator 3 view .LVU67
 353 00e4 0193     		str	r3, [sp, #4]
 354 00e6 079B     		ldr	r3, [sp, #28]
 355 00e8 0093     		str	r3, [sp]
 356 00ea 069B     		ldr	r3, [sp, #24]
 357 00ec 0E4A     		ldr	r2, .L14+28
 358 00ee 4FF48071 		mov	r1, #256
 359 00f2 2846     		mov	r0, r5
 360 00f4 FFF7FEFF 		bl	snprintf
 361              	.LVL36:
 137:MEMS/App/app_mems.c ****   }
 362              		.loc 1 137 5 is_stmt 1 discriminator 3 view .LVU68
 363 00f8 2946     		mov	r1, r5
 364 00fa 3846     		mov	r0, r7
 365 00fc FFF7FEFF 		bl	printf
 366              	.LVL37:
 119:MEMS/App/app_mems.c ****   {
 367              		.loc 1 119 49 discriminator 3 view .LVU69
 368 0100 0136     		adds	r6, r6, #1
 369              	.LVL38:
 370              	.L11:
 119:MEMS/App/app_mems.c ****   {
 371              		.loc 1 119 16 discriminator 1 view .LVU70
 372 0102 022E     		cmp	r6, #2
 373 0104 9EDD     		ble	.L12
 139:MEMS/App/app_mems.c **** 
 374              		.loc 1 139 1 is_stmt 0 view .LVU71
 375 0106 09B0     		add	sp, sp, #36
 376              		.cfi_def_cfa_offset 20
 377              		@ sp needed
 378 0108 F0BD     		pop	{r4, r5, r6, r7, pc}
 379              	.LVL39:
 380              	.L15:
 139:MEMS/App/app_mems.c **** 
 381              		.loc 1 139 1 view .LVU72
 382 010a 00BF     		.align	2
 383              	.L14:
 384 010c 00000000 		.word	PushButtonState
 385 0110 00000000 		.word	MotionCapabilities
 386 0114 00000000 		.word	dataOut
 387 0118 00000000 		.word	.LC0
 388 011c 74000000 		.word	.LC1
 389 0120 78000000 		.word	.LC2
 390 0124 A4000000 		.word	.LC3
 391 0128 D4000000 		.word	.LC4
 392              		.cfi_endproc
 393              	.LFE139:
 395              		.section	.rodata.Accelero_Sensor_Handler.str1.4,"aMS",%progbits,1
 396              		.align	2
 397              	.LC5:
 398 0000 0D0A4143 		.ascii	"\015\012ACC[%d]: Error\015\012\000"
ARM GAS  C:\Temp\cckYGZGE.s 			page 13


 398      435B2564 
 398      5D3A2045 
 398      72726F72 
 398      0D0A00
 399 0013 00       		.align	2
 400              	.LC6:
 401 0014 0D0A4143 		.ascii	"\015\012ACC_X[%d]: %d, ACC_Y[%d]: %d, ACC_Z[%d]: %d"
 401      435F585B 
 401      25645D3A 
 401      2025642C 
 401      20414343 
 402 0041 0D0A00   		.ascii	"\015\012\000"
 403              		.align	2
 404              	.LC7:
 405 0044 57484F41 		.ascii	"WHOAMI[%d]: Error\015\012\000"
 405      4D495B25 
 405      645D3A20 
 405      4572726F 
 405      720D0A00 
 406              		.align	2
 407              	.LC8:
 408 0058 57484F41 		.ascii	"WHOAMI[%d]: 0x%x\015\012\000"
 408      4D495B25 
 408      645D3A20 
 408      30782578 
 408      0D0A00
 409 006b 00       		.align	2
 410              	.LC9:
 411 006c 4F44525B 		.ascii	"ODR[%d]: ERROR\015\012\000"
 411      25645D3A 
 411      20455252 
 411      4F520D0A 
 411      00
 412 007d 000000   		.align	2
 413              	.LC10:
 414 0080 4F44525B 		.ascii	"ODR[%d]: %d.%03d Hz\015\012\000"
 414      25645D3A 
 414      2025642E 
 414      25303364 
 414      20487A0D 
 415 0096 0000     		.align	2
 416              	.LC11:
 417 0098 46535B25 		.ascii	"FS[%d]: ERROR\015\012\000"
 417      645D3A20 
 417      4552524F 
 417      520D0A00 
 418              		.align	2
 419              	.LC12:
 420 00a8 46535B25 		.ascii	"FS[%d]: %d g\015\012\000"
 420      645D3A20 
 420      25642067 
 420      0D0A00
 421              		.section	.text.Accelero_Sensor_Handler,"ax",%progbits
 422              		.align	1
 423              		.syntax unified
 424              		.thumb
 425              		.thumb_func
ARM GAS  C:\Temp\cckYGZGE.s 			page 14


 427              	Accelero_Sensor_Handler:
 428              	.LVL40:
 429              	.LFB143:
 218:MEMS/App/app_mems.c **** 
 219:MEMS/App/app_mems.c **** /**
 220:MEMS/App/app_mems.c ****   * @brief  Handles the accelerometer axes data getting/sending
 221:MEMS/App/app_mems.c ****   * @param  Instance the device instance
 222:MEMS/App/app_mems.c ****   * @retval None
 223:MEMS/App/app_mems.c ****   */
 224:MEMS/App/app_mems.c **** static void Accelero_Sensor_Handler(uint32_t Instance)
 225:MEMS/App/app_mems.c **** {
 430              		.loc 1 225 1 is_stmt 1 view -0
 431              		.cfi_startproc
 432              		@ args = 0, pretend = 0, frame = 40
 433              		@ frame_needed = 0, uses_anonymous_args = 0
 434              		.loc 1 225 1 is_stmt 0 view .LVU74
 435 0000 10B5     		push	{r4, lr}
 436              		.cfi_def_cfa_offset 8
 437              		.cfi_offset 4, -8
 438              		.cfi_offset 14, -4
 439 0002 90B0     		sub	sp, sp, #64
 440              		.cfi_def_cfa_offset 72
 441 0004 0446     		mov	r4, r0
 226:MEMS/App/app_mems.c ****   float odr;
 442              		.loc 1 226 3 is_stmt 1 view .LVU75
 227:MEMS/App/app_mems.c ****   int32_t fullScale;
 443              		.loc 1 227 3 view .LVU76
 228:MEMS/App/app_mems.c ****   IKS02A1_MOTION_SENSOR_Axes_t acceleration;
 444              		.loc 1 228 3 view .LVU77
 229:MEMS/App/app_mems.c ****   displayFloatToInt_t out_value;
 445              		.loc 1 229 3 view .LVU78
 230:MEMS/App/app_mems.c ****   uint8_t whoami;
 446              		.loc 1 230 3 view .LVU79
 231:MEMS/App/app_mems.c **** 
 232:MEMS/App/app_mems.c ****   if (IKS02A1_MOTION_SENSOR_GetAxes(Instance, MOTION_ACCELERO, &acceleration))
 447              		.loc 1 232 3 view .LVU80
 448              		.loc 1 232 7 is_stmt 0 view .LVU81
 449 0006 0BAA     		add	r2, sp, #44
 450 0008 0221     		movs	r1, #2
 451 000a FFF7FEFF 		bl	IKS02A1_MOTION_SENSOR_GetAxes
 452              	.LVL41:
 453              		.loc 1 232 6 view .LVU82
 454 000e 0028     		cmp	r0, #0
 455 0010 42D0     		beq	.L17
 233:MEMS/App/app_mems.c ****   {
 234:MEMS/App/app_mems.c ****     snprintf(dataOut, MAX_BUF_SIZE, "\r\nACC[%d]: Error\r\n", (int)Instance);
 456              		.loc 1 234 5 is_stmt 1 view .LVU83
 457 0012 2346     		mov	r3, r4
 458 0014 3C4A     		ldr	r2, .L26
 459 0016 4FF48071 		mov	r1, #256
 460 001a 3C48     		ldr	r0, .L26+4
 461 001c FFF7FEFF 		bl	snprintf
 462              	.LVL42:
 463              	.L18:
 235:MEMS/App/app_mems.c ****   }
 236:MEMS/App/app_mems.c ****   else
 237:MEMS/App/app_mems.c ****   {
ARM GAS  C:\Temp\cckYGZGE.s 			page 15


 238:MEMS/App/app_mems.c ****     snprintf(dataOut, MAX_BUF_SIZE, "\r\nACC_X[%d]: %d, ACC_Y[%d]: %d, ACC_Z[%d]: %d\r\n", (int)Ins
 239:MEMS/App/app_mems.c ****              (int)acceleration.x, (int)Instance, (int)acceleration.y, (int)Instance, (int)accelerat
 240:MEMS/App/app_mems.c ****   }
 241:MEMS/App/app_mems.c **** 
 242:MEMS/App/app_mems.c ****   printf("%s", dataOut);
 464              		.loc 1 242 3 view .LVU84
 465 0020 3A49     		ldr	r1, .L26+4
 466 0022 3B48     		ldr	r0, .L26+8
 467 0024 FFF7FEFF 		bl	printf
 468              	.LVL43:
 243:MEMS/App/app_mems.c **** 
 244:MEMS/App/app_mems.c ****   if (verbose == 1)
 469              		.loc 1 244 3 view .LVU85
 245:MEMS/App/app_mems.c ****   {
 246:MEMS/App/app_mems.c ****     if (IKS02A1_MOTION_SENSOR_ReadID(Instance, &whoami))
 470              		.loc 1 246 5 view .LVU86
 471              		.loc 1 246 9 is_stmt 0 view .LVU87
 472 0028 0DF11F01 		add	r1, sp, #31
 473 002c 2046     		mov	r0, r4
 474 002e FFF7FEFF 		bl	IKS02A1_MOTION_SENSOR_ReadID
 475              	.LVL44:
 476              		.loc 1 246 8 view .LVU88
 477 0032 0028     		cmp	r0, #0
 478 0034 40D0     		beq	.L19
 247:MEMS/App/app_mems.c ****     {
 248:MEMS/App/app_mems.c ****       snprintf(dataOut, MAX_BUF_SIZE, "WHOAMI[%d]: Error\r\n", (int)Instance);
 479              		.loc 1 248 7 is_stmt 1 view .LVU89
 480 0036 2346     		mov	r3, r4
 481 0038 364A     		ldr	r2, .L26+12
 482 003a 4FF48071 		mov	r1, #256
 483 003e 3348     		ldr	r0, .L26+4
 484 0040 FFF7FEFF 		bl	snprintf
 485              	.LVL45:
 486              	.L20:
 249:MEMS/App/app_mems.c ****     }
 250:MEMS/App/app_mems.c ****     else
 251:MEMS/App/app_mems.c ****     {
 252:MEMS/App/app_mems.c ****       snprintf(dataOut, MAX_BUF_SIZE, "WHOAMI[%d]: 0x%x\r\n", (int)Instance, (int)whoami);
 253:MEMS/App/app_mems.c ****     }
 254:MEMS/App/app_mems.c **** 
 255:MEMS/App/app_mems.c ****     printf("%s", dataOut);
 487              		.loc 1 255 5 view .LVU90
 488 0044 3149     		ldr	r1, .L26+4
 489 0046 3248     		ldr	r0, .L26+8
 490 0048 FFF7FEFF 		bl	printf
 491              	.LVL46:
 256:MEMS/App/app_mems.c **** 
 257:MEMS/App/app_mems.c ****     if (IKS02A1_MOTION_SENSOR_GetOutputDataRate(Instance, MOTION_ACCELERO, &odr))
 492              		.loc 1 257 5 view .LVU91
 493              		.loc 1 257 9 is_stmt 0 view .LVU92
 494 004c 0FAA     		add	r2, sp, #60
 495 004e 0221     		movs	r1, #2
 496 0050 2046     		mov	r0, r4
 497 0052 FFF7FEFF 		bl	IKS02A1_MOTION_SENSOR_GetOutputDataRate
 498              	.LVL47:
 499              		.loc 1 257 8 view .LVU93
 500 0056 0028     		cmp	r0, #0
ARM GAS  C:\Temp\cckYGZGE.s 			page 16


 501 0058 39D0     		beq	.L21
 258:MEMS/App/app_mems.c ****     {
 259:MEMS/App/app_mems.c ****       snprintf(dataOut, MAX_BUF_SIZE, "ODR[%d]: ERROR\r\n", (int)Instance);
 502              		.loc 1 259 7 is_stmt 1 view .LVU94
 503 005a 2346     		mov	r3, r4
 504 005c 2E4A     		ldr	r2, .L26+16
 505 005e 4FF48071 		mov	r1, #256
 506 0062 2A48     		ldr	r0, .L26+4
 507 0064 FFF7FEFF 		bl	snprintf
 508              	.LVL48:
 509              	.L22:
 260:MEMS/App/app_mems.c ****     }
 261:MEMS/App/app_mems.c ****     else
 262:MEMS/App/app_mems.c ****     {
 263:MEMS/App/app_mems.c ****       floatToInt(odr, &out_value, 3);
 264:MEMS/App/app_mems.c ****       snprintf(dataOut, MAX_BUF_SIZE, "ODR[%d]: %d.%03d Hz\r\n", (int)Instance, (int)out_value.out_
 265:MEMS/App/app_mems.c ****                (int)out_value.out_dec);
 266:MEMS/App/app_mems.c ****     }
 267:MEMS/App/app_mems.c **** 
 268:MEMS/App/app_mems.c ****     printf("%s", dataOut);
 510              		.loc 1 268 5 view .LVU95
 511 0068 2849     		ldr	r1, .L26+4
 512 006a 2948     		ldr	r0, .L26+8
 513 006c FFF7FEFF 		bl	printf
 514              	.LVL49:
 269:MEMS/App/app_mems.c **** 
 270:MEMS/App/app_mems.c ****     if (IKS02A1_MOTION_SENSOR_GetFullScale(Instance, MOTION_ACCELERO, &fullScale))
 515              		.loc 1 270 5 view .LVU96
 516              		.loc 1 270 9 is_stmt 0 view .LVU97
 517 0070 0EAA     		add	r2, sp, #56
 518 0072 0221     		movs	r1, #2
 519 0074 2046     		mov	r0, r4
 520 0076 FFF7FEFF 		bl	IKS02A1_MOTION_SENSOR_GetFullScale
 521              	.LVL50:
 522              		.loc 1 270 8 view .LVU98
 523 007a 0028     		cmp	r0, #0
 524 007c 39D0     		beq	.L23
 271:MEMS/App/app_mems.c ****     {
 272:MEMS/App/app_mems.c ****       snprintf(dataOut, MAX_BUF_SIZE, "FS[%d]: ERROR\r\n", (int)Instance);
 525              		.loc 1 272 7 is_stmt 1 view .LVU99
 526 007e 2346     		mov	r3, r4
 527 0080 264A     		ldr	r2, .L26+20
 528 0082 4FF48071 		mov	r1, #256
 529 0086 2148     		ldr	r0, .L26+4
 530 0088 FFF7FEFF 		bl	snprintf
 531              	.LVL51:
 532              	.L24:
 273:MEMS/App/app_mems.c ****     }
 274:MEMS/App/app_mems.c ****     else
 275:MEMS/App/app_mems.c ****     {
 276:MEMS/App/app_mems.c ****       snprintf(dataOut, MAX_BUF_SIZE, "FS[%d]: %d g\r\n", (int)Instance, (int)fullScale);
 277:MEMS/App/app_mems.c ****     }
 278:MEMS/App/app_mems.c **** 
 279:MEMS/App/app_mems.c ****     printf("%s", dataOut);
 533              		.loc 1 279 5 view .LVU100
 534 008c 1F49     		ldr	r1, .L26+4
 535 008e 2048     		ldr	r0, .L26+8
ARM GAS  C:\Temp\cckYGZGE.s 			page 17


 536 0090 FFF7FEFF 		bl	printf
 537              	.LVL52:
 280:MEMS/App/app_mems.c ****   }
 281:MEMS/App/app_mems.c **** }
 538              		.loc 1 281 1 is_stmt 0 view .LVU101
 539 0094 10B0     		add	sp, sp, #64
 540              		.cfi_remember_state
 541              		.cfi_def_cfa_offset 8
 542              		@ sp needed
 543 0096 10BD     		pop	{r4, pc}
 544              	.LVL53:
 545              	.L17:
 546              		.cfi_restore_state
 238:MEMS/App/app_mems.c ****              (int)acceleration.x, (int)Instance, (int)acceleration.y, (int)Instance, (int)accelerat
 547              		.loc 1 238 5 is_stmt 1 view .LVU102
 548 0098 0D9B     		ldr	r3, [sp, #52]
 549 009a 0493     		str	r3, [sp, #16]
 550 009c 0394     		str	r4, [sp, #12]
 551 009e 0C9B     		ldr	r3, [sp, #48]
 552 00a0 0293     		str	r3, [sp, #8]
 553 00a2 0194     		str	r4, [sp, #4]
 554 00a4 0B9B     		ldr	r3, [sp, #44]
 555 00a6 0093     		str	r3, [sp]
 556 00a8 2346     		mov	r3, r4
 557 00aa 1D4A     		ldr	r2, .L26+24
 558 00ac 4FF48071 		mov	r1, #256
 559 00b0 1648     		ldr	r0, .L26+4
 560 00b2 FFF7FEFF 		bl	snprintf
 561              	.LVL54:
 562 00b6 B3E7     		b	.L18
 563              	.L19:
 252:MEMS/App/app_mems.c ****     }
 564              		.loc 1 252 7 view .LVU103
 565 00b8 9DF81F30 		ldrb	r3, [sp, #31]	@ zero_extendqisi2
 566 00bc 0093     		str	r3, [sp]
 567 00be 2346     		mov	r3, r4
 568 00c0 184A     		ldr	r2, .L26+28
 569 00c2 4FF48071 		mov	r1, #256
 570 00c6 1148     		ldr	r0, .L26+4
 571 00c8 FFF7FEFF 		bl	snprintf
 572              	.LVL55:
 573 00cc BAE7     		b	.L20
 574              	.L21:
 263:MEMS/App/app_mems.c ****       snprintf(dataOut, MAX_BUF_SIZE, "ODR[%d]: %d.%03d Hz\r\n", (int)Instance, (int)out_value.out_
 575              		.loc 1 263 7 view .LVU104
 576 00ce 0321     		movs	r1, #3
 577 00d0 08A8     		add	r0, sp, #32
 578 00d2 9DED0F0A 		vldr.32	s0, [sp, #60]
 579 00d6 FFF7FEFF 		bl	floatToInt
 580              	.LVL56:
 264:MEMS/App/app_mems.c ****                (int)out_value.out_dec);
 581              		.loc 1 264 7 view .LVU105
 582 00da 0A9B     		ldr	r3, [sp, #40]
 583 00dc 0193     		str	r3, [sp, #4]
 584 00de 099B     		ldr	r3, [sp, #36]
 585 00e0 0093     		str	r3, [sp]
 586 00e2 2346     		mov	r3, r4
ARM GAS  C:\Temp\cckYGZGE.s 			page 18


 587 00e4 104A     		ldr	r2, .L26+32
 588 00e6 4FF48071 		mov	r1, #256
 589 00ea 0848     		ldr	r0, .L26+4
 590 00ec FFF7FEFF 		bl	snprintf
 591              	.LVL57:
 592 00f0 BAE7     		b	.L22
 593              	.L23:
 276:MEMS/App/app_mems.c ****     }
 594              		.loc 1 276 7 view .LVU106
 595 00f2 0E9B     		ldr	r3, [sp, #56]
 596 00f4 0093     		str	r3, [sp]
 597 00f6 2346     		mov	r3, r4
 598 00f8 0C4A     		ldr	r2, .L26+36
 599 00fa 4FF48071 		mov	r1, #256
 600 00fe 0348     		ldr	r0, .L26+4
 601 0100 FFF7FEFF 		bl	snprintf
 602              	.LVL58:
 603 0104 C2E7     		b	.L24
 604              	.L27:
 605 0106 00BF     		.align	2
 606              	.L26:
 607 0108 00000000 		.word	.LC5
 608 010c 00000000 		.word	dataOut
 609 0110 74000000 		.word	.LC1
 610 0114 44000000 		.word	.LC7
 611 0118 6C000000 		.word	.LC9
 612 011c 98000000 		.word	.LC11
 613 0120 14000000 		.word	.LC6
 614 0124 58000000 		.word	.LC8
 615 0128 80000000 		.word	.LC10
 616 012c A8000000 		.word	.LC12
 617              		.cfi_endproc
 618              	.LFE143:
 620              		.section	.rodata.Gyro_Sensor_Handler.str1.4,"aMS",%progbits,1
 621              		.align	2
 622              	.LC13:
 623 0000 0D0A4759 		.ascii	"\015\012GYR[%d]: Error\015\012\000"
 623      525B2564 
 623      5D3A2045 
 623      72726F72 
 623      0D0A00
 624 0013 00       		.align	2
 625              	.LC14:
 626 0014 0D0A4759 		.ascii	"\015\012GYR_X[%d]: %d, GYR_Y[%d]: %d, GYR_Z[%d]: %d"
 626      525F585B 
 626      25645D3A 
 626      2025642C 
 626      20475952 
 627 0041 0D0A00   		.ascii	"\015\012\000"
 628              		.align	2
 629              	.LC15:
 630 0044 46535B25 		.ascii	"FS[%d]: %d dps\015\012\000"
 630      645D3A20 
 630      25642064 
 630      70730D0A 
 630      00
 631              		.section	.text.Gyro_Sensor_Handler,"ax",%progbits
ARM GAS  C:\Temp\cckYGZGE.s 			page 19


 632              		.align	1
 633              		.syntax unified
 634              		.thumb
 635              		.thumb_func
 637              	Gyro_Sensor_Handler:
 638              	.LVL59:
 639              	.LFB144:
 282:MEMS/App/app_mems.c **** 
 283:MEMS/App/app_mems.c **** /**
 284:MEMS/App/app_mems.c ****   * @brief  Handles the gyroscope axes data getting/sending
 285:MEMS/App/app_mems.c ****   * @param  Instance the device instance
 286:MEMS/App/app_mems.c ****   * @retval None
 287:MEMS/App/app_mems.c ****   */
 288:MEMS/App/app_mems.c **** static void Gyro_Sensor_Handler(uint32_t Instance)
 289:MEMS/App/app_mems.c **** {
 640              		.loc 1 289 1 view -0
 641              		.cfi_startproc
 642              		@ args = 0, pretend = 0, frame = 40
 643              		@ frame_needed = 0, uses_anonymous_args = 0
 644              		.loc 1 289 1 is_stmt 0 view .LVU108
 645 0000 10B5     		push	{r4, lr}
 646              		.cfi_def_cfa_offset 8
 647              		.cfi_offset 4, -8
 648              		.cfi_offset 14, -4
 649 0002 90B0     		sub	sp, sp, #64
 650              		.cfi_def_cfa_offset 72
 651 0004 0446     		mov	r4, r0
 290:MEMS/App/app_mems.c ****   float odr;
 652              		.loc 1 290 3 is_stmt 1 view .LVU109
 291:MEMS/App/app_mems.c ****   int32_t fullScale;
 653              		.loc 1 291 3 view .LVU110
 292:MEMS/App/app_mems.c ****   IKS02A1_MOTION_SENSOR_Axes_t angular_velocity;
 654              		.loc 1 292 3 view .LVU111
 293:MEMS/App/app_mems.c ****   displayFloatToInt_t out_value;
 655              		.loc 1 293 3 view .LVU112
 294:MEMS/App/app_mems.c ****   uint8_t whoami;
 656              		.loc 1 294 3 view .LVU113
 295:MEMS/App/app_mems.c **** 
 296:MEMS/App/app_mems.c ****   if (IKS02A1_MOTION_SENSOR_GetAxes(Instance, MOTION_GYRO, &angular_velocity))
 657              		.loc 1 296 3 view .LVU114
 658              		.loc 1 296 7 is_stmt 0 view .LVU115
 659 0006 0BAA     		add	r2, sp, #44
 660 0008 0121     		movs	r1, #1
 661 000a FFF7FEFF 		bl	IKS02A1_MOTION_SENSOR_GetAxes
 662              	.LVL60:
 663              		.loc 1 296 6 view .LVU116
 664 000e 0028     		cmp	r0, #0
 665 0010 42D0     		beq	.L29
 297:MEMS/App/app_mems.c ****   {
 298:MEMS/App/app_mems.c ****     snprintf(dataOut, MAX_BUF_SIZE, "\r\nGYR[%d]: Error\r\n", (int)Instance);
 666              		.loc 1 298 5 is_stmt 1 view .LVU117
 667 0012 2346     		mov	r3, r4
 668 0014 3C4A     		ldr	r2, .L38
 669 0016 4FF48071 		mov	r1, #256
 670 001a 3C48     		ldr	r0, .L38+4
 671 001c FFF7FEFF 		bl	snprintf
 672              	.LVL61:
ARM GAS  C:\Temp\cckYGZGE.s 			page 20


 673              	.L30:
 299:MEMS/App/app_mems.c ****   }
 300:MEMS/App/app_mems.c ****   else
 301:MEMS/App/app_mems.c ****   {
 302:MEMS/App/app_mems.c ****     snprintf(dataOut, MAX_BUF_SIZE, "\r\nGYR_X[%d]: %d, GYR_Y[%d]: %d, GYR_Z[%d]: %d\r\n", (int)Ins
 303:MEMS/App/app_mems.c ****              (int)angular_velocity.x, (int)Instance, (int)angular_velocity.y, (int)Instance, (int)a
 304:MEMS/App/app_mems.c ****   }
 305:MEMS/App/app_mems.c **** 
 306:MEMS/App/app_mems.c ****   printf("%s", dataOut);
 674              		.loc 1 306 3 view .LVU118
 675 0020 3A49     		ldr	r1, .L38+4
 676 0022 3B48     		ldr	r0, .L38+8
 677 0024 FFF7FEFF 		bl	printf
 678              	.LVL62:
 307:MEMS/App/app_mems.c **** 
 308:MEMS/App/app_mems.c ****   if (verbose == 1)
 679              		.loc 1 308 3 view .LVU119
 309:MEMS/App/app_mems.c ****   {
 310:MEMS/App/app_mems.c ****     if (IKS02A1_MOTION_SENSOR_ReadID(Instance, &whoami))
 680              		.loc 1 310 5 view .LVU120
 681              		.loc 1 310 9 is_stmt 0 view .LVU121
 682 0028 0DF11F01 		add	r1, sp, #31
 683 002c 2046     		mov	r0, r4
 684 002e FFF7FEFF 		bl	IKS02A1_MOTION_SENSOR_ReadID
 685              	.LVL63:
 686              		.loc 1 310 8 view .LVU122
 687 0032 0028     		cmp	r0, #0
 688 0034 40D0     		beq	.L31
 311:MEMS/App/app_mems.c ****     {
 312:MEMS/App/app_mems.c ****       snprintf(dataOut, MAX_BUF_SIZE, "WHOAMI[%d]: Error\r\n", (int)Instance);
 689              		.loc 1 312 7 is_stmt 1 view .LVU123
 690 0036 2346     		mov	r3, r4
 691 0038 364A     		ldr	r2, .L38+12
 692 003a 4FF48071 		mov	r1, #256
 693 003e 3348     		ldr	r0, .L38+4
 694 0040 FFF7FEFF 		bl	snprintf
 695              	.LVL64:
 696              	.L32:
 313:MEMS/App/app_mems.c ****     }
 314:MEMS/App/app_mems.c ****     else
 315:MEMS/App/app_mems.c ****     {
 316:MEMS/App/app_mems.c ****       snprintf(dataOut, MAX_BUF_SIZE, "WHOAMI[%d]: 0x%x\r\n", (int)Instance, (int)whoami);
 317:MEMS/App/app_mems.c ****     }
 318:MEMS/App/app_mems.c **** 
 319:MEMS/App/app_mems.c ****     printf("%s", dataOut);
 697              		.loc 1 319 5 view .LVU124
 698 0044 3149     		ldr	r1, .L38+4
 699 0046 3248     		ldr	r0, .L38+8
 700 0048 FFF7FEFF 		bl	printf
 701              	.LVL65:
 320:MEMS/App/app_mems.c **** 
 321:MEMS/App/app_mems.c ****     if (IKS02A1_MOTION_SENSOR_GetOutputDataRate(Instance, MOTION_GYRO, &odr))
 702              		.loc 1 321 5 view .LVU125
 703              		.loc 1 321 9 is_stmt 0 view .LVU126
 704 004c 0FAA     		add	r2, sp, #60
 705 004e 0121     		movs	r1, #1
 706 0050 2046     		mov	r0, r4
ARM GAS  C:\Temp\cckYGZGE.s 			page 21


 707 0052 FFF7FEFF 		bl	IKS02A1_MOTION_SENSOR_GetOutputDataRate
 708              	.LVL66:
 709              		.loc 1 321 8 view .LVU127
 710 0056 0028     		cmp	r0, #0
 711 0058 39D0     		beq	.L33
 322:MEMS/App/app_mems.c ****     {
 323:MEMS/App/app_mems.c ****       snprintf(dataOut, MAX_BUF_SIZE, "ODR[%d]: ERROR\r\n", (int)Instance);
 712              		.loc 1 323 7 is_stmt 1 view .LVU128
 713 005a 2346     		mov	r3, r4
 714 005c 2E4A     		ldr	r2, .L38+16
 715 005e 4FF48071 		mov	r1, #256
 716 0062 2A48     		ldr	r0, .L38+4
 717 0064 FFF7FEFF 		bl	snprintf
 718              	.LVL67:
 719              	.L34:
 324:MEMS/App/app_mems.c ****     }
 325:MEMS/App/app_mems.c ****     else
 326:MEMS/App/app_mems.c ****     {
 327:MEMS/App/app_mems.c ****       floatToInt(odr, &out_value, 3);
 328:MEMS/App/app_mems.c ****       snprintf(dataOut, MAX_BUF_SIZE, "ODR[%d]: %d.%03d Hz\r\n", (int)Instance, (int)out_value.out_
 329:MEMS/App/app_mems.c ****                (int)out_value.out_dec);
 330:MEMS/App/app_mems.c ****     }
 331:MEMS/App/app_mems.c **** 
 332:MEMS/App/app_mems.c ****     printf("%s", dataOut);
 720              		.loc 1 332 5 view .LVU129
 721 0068 2849     		ldr	r1, .L38+4
 722 006a 2948     		ldr	r0, .L38+8
 723 006c FFF7FEFF 		bl	printf
 724              	.LVL68:
 333:MEMS/App/app_mems.c **** 
 334:MEMS/App/app_mems.c ****     if (IKS02A1_MOTION_SENSOR_GetFullScale(Instance, MOTION_GYRO, &fullScale))
 725              		.loc 1 334 5 view .LVU130
 726              		.loc 1 334 9 is_stmt 0 view .LVU131
 727 0070 0EAA     		add	r2, sp, #56
 728 0072 0121     		movs	r1, #1
 729 0074 2046     		mov	r0, r4
 730 0076 FFF7FEFF 		bl	IKS02A1_MOTION_SENSOR_GetFullScale
 731              	.LVL69:
 732              		.loc 1 334 8 view .LVU132
 733 007a 0028     		cmp	r0, #0
 734 007c 39D0     		beq	.L35
 335:MEMS/App/app_mems.c ****     {
 336:MEMS/App/app_mems.c ****       snprintf(dataOut, MAX_BUF_SIZE, "FS[%d]: ERROR\r\n", (int)Instance);
 735              		.loc 1 336 7 is_stmt 1 view .LVU133
 736 007e 2346     		mov	r3, r4
 737 0080 264A     		ldr	r2, .L38+20
 738 0082 4FF48071 		mov	r1, #256
 739 0086 2148     		ldr	r0, .L38+4
 740 0088 FFF7FEFF 		bl	snprintf
 741              	.LVL70:
 742              	.L36:
 337:MEMS/App/app_mems.c ****     }
 338:MEMS/App/app_mems.c ****     else
 339:MEMS/App/app_mems.c ****     {
 340:MEMS/App/app_mems.c ****       snprintf(dataOut, MAX_BUF_SIZE, "FS[%d]: %d dps\r\n", (int)Instance, (int)fullScale);
 341:MEMS/App/app_mems.c ****     }
 342:MEMS/App/app_mems.c **** 
ARM GAS  C:\Temp\cckYGZGE.s 			page 22


 343:MEMS/App/app_mems.c ****     printf("%s", dataOut);
 743              		.loc 1 343 5 view .LVU134
 744 008c 1F49     		ldr	r1, .L38+4
 745 008e 2048     		ldr	r0, .L38+8
 746 0090 FFF7FEFF 		bl	printf
 747              	.LVL71:
 344:MEMS/App/app_mems.c ****   }
 345:MEMS/App/app_mems.c **** }
 748              		.loc 1 345 1 is_stmt 0 view .LVU135
 749 0094 10B0     		add	sp, sp, #64
 750              		.cfi_remember_state
 751              		.cfi_def_cfa_offset 8
 752              		@ sp needed
 753 0096 10BD     		pop	{r4, pc}
 754              	.LVL72:
 755              	.L29:
 756              		.cfi_restore_state
 302:MEMS/App/app_mems.c ****              (int)angular_velocity.x, (int)Instance, (int)angular_velocity.y, (int)Instance, (int)a
 757              		.loc 1 302 5 is_stmt 1 view .LVU136
 758 0098 0D9B     		ldr	r3, [sp, #52]
 759 009a 0493     		str	r3, [sp, #16]
 760 009c 0394     		str	r4, [sp, #12]
 761 009e 0C9B     		ldr	r3, [sp, #48]
 762 00a0 0293     		str	r3, [sp, #8]
 763 00a2 0194     		str	r4, [sp, #4]
 764 00a4 0B9B     		ldr	r3, [sp, #44]
 765 00a6 0093     		str	r3, [sp]
 766 00a8 2346     		mov	r3, r4
 767 00aa 1D4A     		ldr	r2, .L38+24
 768 00ac 4FF48071 		mov	r1, #256
 769 00b0 1648     		ldr	r0, .L38+4
 770 00b2 FFF7FEFF 		bl	snprintf
 771              	.LVL73:
 772 00b6 B3E7     		b	.L30
 773              	.L31:
 316:MEMS/App/app_mems.c ****     }
 774              		.loc 1 316 7 view .LVU137
 775 00b8 9DF81F30 		ldrb	r3, [sp, #31]	@ zero_extendqisi2
 776 00bc 0093     		str	r3, [sp]
 777 00be 2346     		mov	r3, r4
 778 00c0 184A     		ldr	r2, .L38+28
 779 00c2 4FF48071 		mov	r1, #256
 780 00c6 1148     		ldr	r0, .L38+4
 781 00c8 FFF7FEFF 		bl	snprintf
 782              	.LVL74:
 783 00cc BAE7     		b	.L32
 784              	.L33:
 327:MEMS/App/app_mems.c ****       snprintf(dataOut, MAX_BUF_SIZE, "ODR[%d]: %d.%03d Hz\r\n", (int)Instance, (int)out_value.out_
 785              		.loc 1 327 7 view .LVU138
 786 00ce 0321     		movs	r1, #3
 787 00d0 08A8     		add	r0, sp, #32
 788 00d2 9DED0F0A 		vldr.32	s0, [sp, #60]
 789 00d6 FFF7FEFF 		bl	floatToInt
 790              	.LVL75:
 328:MEMS/App/app_mems.c ****                (int)out_value.out_dec);
 791              		.loc 1 328 7 view .LVU139
 792 00da 0A9B     		ldr	r3, [sp, #40]
ARM GAS  C:\Temp\cckYGZGE.s 			page 23


 793 00dc 0193     		str	r3, [sp, #4]
 794 00de 099B     		ldr	r3, [sp, #36]
 795 00e0 0093     		str	r3, [sp]
 796 00e2 2346     		mov	r3, r4
 797 00e4 104A     		ldr	r2, .L38+32
 798 00e6 4FF48071 		mov	r1, #256
 799 00ea 0848     		ldr	r0, .L38+4
 800 00ec FFF7FEFF 		bl	snprintf
 801              	.LVL76:
 802 00f0 BAE7     		b	.L34
 803              	.L35:
 340:MEMS/App/app_mems.c ****     }
 804              		.loc 1 340 7 view .LVU140
 805 00f2 0E9B     		ldr	r3, [sp, #56]
 806 00f4 0093     		str	r3, [sp]
 807 00f6 2346     		mov	r3, r4
 808 00f8 0C4A     		ldr	r2, .L38+36
 809 00fa 4FF48071 		mov	r1, #256
 810 00fe 0348     		ldr	r0, .L38+4
 811 0100 FFF7FEFF 		bl	snprintf
 812              	.LVL77:
 813 0104 C2E7     		b	.L36
 814              	.L39:
 815 0106 00BF     		.align	2
 816              	.L38:
 817 0108 00000000 		.word	.LC13
 818 010c 00000000 		.word	dataOut
 819 0110 74000000 		.word	.LC1
 820 0114 44000000 		.word	.LC7
 821 0118 6C000000 		.word	.LC9
 822 011c 98000000 		.word	.LC11
 823 0120 14000000 		.word	.LC14
 824 0124 58000000 		.word	.LC8
 825 0128 80000000 		.word	.LC10
 826 012c 44000000 		.word	.LC15
 827              		.cfi_endproc
 828              	.LFE144:
 830              		.section	.rodata.Magneto_Sensor_Handler.str1.4,"aMS",%progbits,1
 831              		.align	2
 832              	.LC16:
 833 0000 0D0A4D41 		.ascii	"\015\012MAG[%d]: Error\015\012\000"
 833      475B2564 
 833      5D3A2045 
 833      72726F72 
 833      0D0A00
 834 0013 00       		.align	2
 835              	.LC17:
 836 0014 0D0A4D41 		.ascii	"\015\012MAG_X[%d]: %d, MAG_Y[%d]: %d, MAG_Z[%d]: %d"
 836      475F585B 
 836      25645D3A 
 836      2025642C 
 836      204D4147 
 837 0041 0D0A00   		.ascii	"\015\012\000"
 838              		.align	2
 839              	.LC18:
 840 0044 46535B25 		.ascii	"FS[%d]: %d gauss\015\012\000"
 840      645D3A20 
ARM GAS  C:\Temp\cckYGZGE.s 			page 24


 840      25642067 
 840      61757373 
 840      0D0A00
 841              		.section	.text.Magneto_Sensor_Handler,"ax",%progbits
 842              		.align	1
 843              		.syntax unified
 844              		.thumb
 845              		.thumb_func
 847              	Magneto_Sensor_Handler:
 848              	.LVL78:
 849              	.LFB145:
 346:MEMS/App/app_mems.c **** 
 347:MEMS/App/app_mems.c **** /**
 348:MEMS/App/app_mems.c ****   * @brief  Handles the magneto axes data getting/sending
 349:MEMS/App/app_mems.c ****   * @param  Instance the device instance
 350:MEMS/App/app_mems.c ****   * @retval None
 351:MEMS/App/app_mems.c ****   */
 352:MEMS/App/app_mems.c **** static void Magneto_Sensor_Handler(uint32_t Instance)
 353:MEMS/App/app_mems.c **** {
 850              		.loc 1 353 1 view -0
 851              		.cfi_startproc
 852              		@ args = 0, pretend = 0, frame = 40
 853              		@ frame_needed = 0, uses_anonymous_args = 0
 854              		.loc 1 353 1 is_stmt 0 view .LVU142
 855 0000 10B5     		push	{r4, lr}
 856              		.cfi_def_cfa_offset 8
 857              		.cfi_offset 4, -8
 858              		.cfi_offset 14, -4
 859 0002 90B0     		sub	sp, sp, #64
 860              		.cfi_def_cfa_offset 72
 861 0004 0446     		mov	r4, r0
 354:MEMS/App/app_mems.c ****   float odr;
 862              		.loc 1 354 3 is_stmt 1 view .LVU143
 355:MEMS/App/app_mems.c ****   int32_t fullScale;
 863              		.loc 1 355 3 view .LVU144
 356:MEMS/App/app_mems.c ****   IKS02A1_MOTION_SENSOR_Axes_t magnetic_field;
 864              		.loc 1 356 3 view .LVU145
 357:MEMS/App/app_mems.c ****   displayFloatToInt_t out_value;
 865              		.loc 1 357 3 view .LVU146
 358:MEMS/App/app_mems.c ****   uint8_t whoami;
 866              		.loc 1 358 3 view .LVU147
 359:MEMS/App/app_mems.c **** 
 360:MEMS/App/app_mems.c ****   if (IKS02A1_MOTION_SENSOR_GetAxes(Instance, MOTION_MAGNETO, &magnetic_field))
 867              		.loc 1 360 3 view .LVU148
 868              		.loc 1 360 7 is_stmt 0 view .LVU149
 869 0006 0BAA     		add	r2, sp, #44
 870 0008 0421     		movs	r1, #4
 871 000a FFF7FEFF 		bl	IKS02A1_MOTION_SENSOR_GetAxes
 872              	.LVL79:
 873              		.loc 1 360 6 view .LVU150
 874 000e 0028     		cmp	r0, #0
 875 0010 42D0     		beq	.L41
 361:MEMS/App/app_mems.c ****   {
 362:MEMS/App/app_mems.c ****     snprintf(dataOut, MAX_BUF_SIZE, "\r\nMAG[%d]: Error\r\n", (int)Instance);
 876              		.loc 1 362 5 is_stmt 1 view .LVU151
 877 0012 2346     		mov	r3, r4
 878 0014 3C4A     		ldr	r2, .L50
ARM GAS  C:\Temp\cckYGZGE.s 			page 25


 879 0016 4FF48071 		mov	r1, #256
 880 001a 3C48     		ldr	r0, .L50+4
 881 001c FFF7FEFF 		bl	snprintf
 882              	.LVL80:
 883              	.L42:
 363:MEMS/App/app_mems.c ****   }
 364:MEMS/App/app_mems.c ****   else
 365:MEMS/App/app_mems.c ****   {
 366:MEMS/App/app_mems.c ****     snprintf(dataOut, MAX_BUF_SIZE, "\r\nMAG_X[%d]: %d, MAG_Y[%d]: %d, MAG_Z[%d]: %d\r\n", (int)Ins
 367:MEMS/App/app_mems.c ****              (int)magnetic_field.x, (int)Instance, (int)magnetic_field.y, (int)Instance, (int)magne
 368:MEMS/App/app_mems.c ****   }
 369:MEMS/App/app_mems.c **** 
 370:MEMS/App/app_mems.c ****   printf("%s", dataOut);
 884              		.loc 1 370 3 view .LVU152
 885 0020 3A49     		ldr	r1, .L50+4
 886 0022 3B48     		ldr	r0, .L50+8
 887 0024 FFF7FEFF 		bl	printf
 888              	.LVL81:
 371:MEMS/App/app_mems.c **** 
 372:MEMS/App/app_mems.c ****   if (verbose == 1)
 889              		.loc 1 372 3 view .LVU153
 373:MEMS/App/app_mems.c ****   {
 374:MEMS/App/app_mems.c ****     if (IKS02A1_MOTION_SENSOR_ReadID(Instance, &whoami))
 890              		.loc 1 374 5 view .LVU154
 891              		.loc 1 374 9 is_stmt 0 view .LVU155
 892 0028 0DF11F01 		add	r1, sp, #31
 893 002c 2046     		mov	r0, r4
 894 002e FFF7FEFF 		bl	IKS02A1_MOTION_SENSOR_ReadID
 895              	.LVL82:
 896              		.loc 1 374 8 view .LVU156
 897 0032 0028     		cmp	r0, #0
 898 0034 40D0     		beq	.L43
 375:MEMS/App/app_mems.c ****     {
 376:MEMS/App/app_mems.c ****       snprintf(dataOut, MAX_BUF_SIZE, "WHOAMI[%d]: Error\r\n", (int)Instance);
 899              		.loc 1 376 7 is_stmt 1 view .LVU157
 900 0036 2346     		mov	r3, r4
 901 0038 364A     		ldr	r2, .L50+12
 902 003a 4FF48071 		mov	r1, #256
 903 003e 3348     		ldr	r0, .L50+4
 904 0040 FFF7FEFF 		bl	snprintf
 905              	.LVL83:
 906              	.L44:
 377:MEMS/App/app_mems.c ****     }
 378:MEMS/App/app_mems.c ****     else
 379:MEMS/App/app_mems.c ****     {
 380:MEMS/App/app_mems.c ****       snprintf(dataOut, MAX_BUF_SIZE, "WHOAMI[%d]: 0x%x\r\n", (int)Instance, (int)whoami);
 381:MEMS/App/app_mems.c ****     }
 382:MEMS/App/app_mems.c **** 
 383:MEMS/App/app_mems.c ****     printf("%s", dataOut);
 907              		.loc 1 383 5 view .LVU158
 908 0044 3149     		ldr	r1, .L50+4
 909 0046 3248     		ldr	r0, .L50+8
 910 0048 FFF7FEFF 		bl	printf
 911              	.LVL84:
 384:MEMS/App/app_mems.c **** 
 385:MEMS/App/app_mems.c ****     if (IKS02A1_MOTION_SENSOR_GetOutputDataRate(Instance, MOTION_MAGNETO, &odr))
 912              		.loc 1 385 5 view .LVU159
ARM GAS  C:\Temp\cckYGZGE.s 			page 26


 913              		.loc 1 385 9 is_stmt 0 view .LVU160
 914 004c 0FAA     		add	r2, sp, #60
 915 004e 0421     		movs	r1, #4
 916 0050 2046     		mov	r0, r4
 917 0052 FFF7FEFF 		bl	IKS02A1_MOTION_SENSOR_GetOutputDataRate
 918              	.LVL85:
 919              		.loc 1 385 8 view .LVU161
 920 0056 0028     		cmp	r0, #0
 921 0058 39D0     		beq	.L45
 386:MEMS/App/app_mems.c ****     {
 387:MEMS/App/app_mems.c ****       snprintf(dataOut, MAX_BUF_SIZE, "ODR[%d]: ERROR\r\n", (int)Instance);
 922              		.loc 1 387 7 is_stmt 1 view .LVU162
 923 005a 2346     		mov	r3, r4
 924 005c 2E4A     		ldr	r2, .L50+16
 925 005e 4FF48071 		mov	r1, #256
 926 0062 2A48     		ldr	r0, .L50+4
 927 0064 FFF7FEFF 		bl	snprintf
 928              	.LVL86:
 929              	.L46:
 388:MEMS/App/app_mems.c ****     }
 389:MEMS/App/app_mems.c ****     else
 390:MEMS/App/app_mems.c ****     {
 391:MEMS/App/app_mems.c ****       floatToInt(odr, &out_value, 3);
 392:MEMS/App/app_mems.c ****       snprintf(dataOut, MAX_BUF_SIZE, "ODR[%d]: %d.%03d Hz\r\n", (int)Instance, (int)out_value.out_
 393:MEMS/App/app_mems.c ****                (int)out_value.out_dec);
 394:MEMS/App/app_mems.c ****     }
 395:MEMS/App/app_mems.c **** 
 396:MEMS/App/app_mems.c ****     printf("%s", dataOut);
 930              		.loc 1 396 5 view .LVU163
 931 0068 2849     		ldr	r1, .L50+4
 932 006a 2948     		ldr	r0, .L50+8
 933 006c FFF7FEFF 		bl	printf
 934              	.LVL87:
 397:MEMS/App/app_mems.c **** 
 398:MEMS/App/app_mems.c ****     if (IKS02A1_MOTION_SENSOR_GetFullScale(Instance, MOTION_MAGNETO, &fullScale))
 935              		.loc 1 398 5 view .LVU164
 936              		.loc 1 398 9 is_stmt 0 view .LVU165
 937 0070 0EAA     		add	r2, sp, #56
 938 0072 0421     		movs	r1, #4
 939 0074 2046     		mov	r0, r4
 940 0076 FFF7FEFF 		bl	IKS02A1_MOTION_SENSOR_GetFullScale
 941              	.LVL88:
 942              		.loc 1 398 8 view .LVU166
 943 007a 0028     		cmp	r0, #0
 944 007c 39D0     		beq	.L47
 399:MEMS/App/app_mems.c ****     {
 400:MEMS/App/app_mems.c ****       snprintf(dataOut, MAX_BUF_SIZE, "FS[%d]: ERROR\r\n", (int)Instance);
 945              		.loc 1 400 7 is_stmt 1 view .LVU167
 946 007e 2346     		mov	r3, r4
 947 0080 264A     		ldr	r2, .L50+20
 948 0082 4FF48071 		mov	r1, #256
 949 0086 2148     		ldr	r0, .L50+4
 950 0088 FFF7FEFF 		bl	snprintf
 951              	.LVL89:
 952              	.L48:
 401:MEMS/App/app_mems.c ****     }
 402:MEMS/App/app_mems.c ****     else
ARM GAS  C:\Temp\cckYGZGE.s 			page 27


 403:MEMS/App/app_mems.c ****     {
 404:MEMS/App/app_mems.c ****       snprintf(dataOut, MAX_BUF_SIZE, "FS[%d]: %d gauss\r\n", (int)Instance, (int)fullScale);
 405:MEMS/App/app_mems.c ****     }
 406:MEMS/App/app_mems.c **** 
 407:MEMS/App/app_mems.c ****     printf("%s", dataOut);
 953              		.loc 1 407 5 view .LVU168
 954 008c 1F49     		ldr	r1, .L50+4
 955 008e 2048     		ldr	r0, .L50+8
 956 0090 FFF7FEFF 		bl	printf
 957              	.LVL90:
 408:MEMS/App/app_mems.c ****   }
 409:MEMS/App/app_mems.c **** }
 958              		.loc 1 409 1 is_stmt 0 view .LVU169
 959 0094 10B0     		add	sp, sp, #64
 960              		.cfi_remember_state
 961              		.cfi_def_cfa_offset 8
 962              		@ sp needed
 963 0096 10BD     		pop	{r4, pc}
 964              	.LVL91:
 965              	.L41:
 966              		.cfi_restore_state
 366:MEMS/App/app_mems.c ****              (int)magnetic_field.x, (int)Instance, (int)magnetic_field.y, (int)Instance, (int)magne
 967              		.loc 1 366 5 is_stmt 1 view .LVU170
 968 0098 0D9B     		ldr	r3, [sp, #52]
 969 009a 0493     		str	r3, [sp, #16]
 970 009c 0394     		str	r4, [sp, #12]
 971 009e 0C9B     		ldr	r3, [sp, #48]
 972 00a0 0293     		str	r3, [sp, #8]
 973 00a2 0194     		str	r4, [sp, #4]
 974 00a4 0B9B     		ldr	r3, [sp, #44]
 975 00a6 0093     		str	r3, [sp]
 976 00a8 2346     		mov	r3, r4
 977 00aa 1D4A     		ldr	r2, .L50+24
 978 00ac 4FF48071 		mov	r1, #256
 979 00b0 1648     		ldr	r0, .L50+4
 980 00b2 FFF7FEFF 		bl	snprintf
 981              	.LVL92:
 982 00b6 B3E7     		b	.L42
 983              	.L43:
 380:MEMS/App/app_mems.c ****     }
 984              		.loc 1 380 7 view .LVU171
 985 00b8 9DF81F30 		ldrb	r3, [sp, #31]	@ zero_extendqisi2
 986 00bc 0093     		str	r3, [sp]
 987 00be 2346     		mov	r3, r4
 988 00c0 184A     		ldr	r2, .L50+28
 989 00c2 4FF48071 		mov	r1, #256
 990 00c6 1148     		ldr	r0, .L50+4
 991 00c8 FFF7FEFF 		bl	snprintf
 992              	.LVL93:
 993 00cc BAE7     		b	.L44
 994              	.L45:
 391:MEMS/App/app_mems.c ****       snprintf(dataOut, MAX_BUF_SIZE, "ODR[%d]: %d.%03d Hz\r\n", (int)Instance, (int)out_value.out_
 995              		.loc 1 391 7 view .LVU172
 996 00ce 0321     		movs	r1, #3
 997 00d0 08A8     		add	r0, sp, #32
 998 00d2 9DED0F0A 		vldr.32	s0, [sp, #60]
 999 00d6 FFF7FEFF 		bl	floatToInt
ARM GAS  C:\Temp\cckYGZGE.s 			page 28


 1000              	.LVL94:
 392:MEMS/App/app_mems.c ****                (int)out_value.out_dec);
 1001              		.loc 1 392 7 view .LVU173
 1002 00da 0A9B     		ldr	r3, [sp, #40]
 1003 00dc 0193     		str	r3, [sp, #4]
 1004 00de 099B     		ldr	r3, [sp, #36]
 1005 00e0 0093     		str	r3, [sp]
 1006 00e2 2346     		mov	r3, r4
 1007 00e4 104A     		ldr	r2, .L50+32
 1008 00e6 4FF48071 		mov	r1, #256
 1009 00ea 0848     		ldr	r0, .L50+4
 1010 00ec FFF7FEFF 		bl	snprintf
 1011              	.LVL95:
 1012 00f0 BAE7     		b	.L46
 1013              	.L47:
 404:MEMS/App/app_mems.c ****     }
 1014              		.loc 1 404 7 view .LVU174
 1015 00f2 0E9B     		ldr	r3, [sp, #56]
 1016 00f4 0093     		str	r3, [sp]
 1017 00f6 2346     		mov	r3, r4
 1018 00f8 0C4A     		ldr	r2, .L50+36
 1019 00fa 4FF48071 		mov	r1, #256
 1020 00fe 0348     		ldr	r0, .L50+4
 1021 0100 FFF7FEFF 		bl	snprintf
 1022              	.LVL96:
 1023 0104 C2E7     		b	.L48
 1024              	.L51:
 1025 0106 00BF     		.align	2
 1026              	.L50:
 1027 0108 00000000 		.word	.LC16
 1028 010c 00000000 		.word	dataOut
 1029 0110 74000000 		.word	.LC1
 1030 0114 44000000 		.word	.LC7
 1031 0118 6C000000 		.word	.LC9
 1032 011c 98000000 		.word	.LC11
 1033 0120 14000000 		.word	.LC17
 1034 0124 58000000 		.word	.LC8
 1035 0128 80000000 		.word	.LC10
 1036 012c 44000000 		.word	.LC18
 1037              		.cfi_endproc
 1038              	.LFE145:
 1040              		.section	.text.MX_IKS02A1_DataLogTerminal_Process,"ax",%progbits
 1041              		.align	1
 1042              		.syntax unified
 1043              		.thumb
 1044              		.thumb_func
 1046              	MX_IKS02A1_DataLogTerminal_Process:
 1047              	.LFB141:
 156:MEMS/App/app_mems.c ****   int i;
 1048              		.loc 1 156 1 view -0
 1049              		.cfi_startproc
 1050              		@ args = 0, pretend = 0, frame = 0
 1051              		@ frame_needed = 0, uses_anonymous_args = 0
 1052 0000 10B5     		push	{r4, lr}
 1053              		.cfi_def_cfa_offset 8
 1054              		.cfi_offset 4, -8
 1055              		.cfi_offset 14, -4
ARM GAS  C:\Temp\cckYGZGE.s 			page 29


 157:MEMS/App/app_mems.c **** 
 1056              		.loc 1 157 3 view .LVU176
 159:MEMS/App/app_mems.c ****   {
 1057              		.loc 1 159 3 view .LVU177
 159:MEMS/App/app_mems.c ****   {
 1058              		.loc 1 159 26 is_stmt 0 view .LVU178
 1059 0002 204B     		ldr	r3, .L65
 1060 0004 1B78     		ldrb	r3, [r3]	@ zero_extendqisi2
 159:MEMS/App/app_mems.c ****   {
 1061              		.loc 1 159 6 view .LVU179
 1062 0006 0BB9     		cbnz	r3, .L61
 1063              	.L53:
 156:MEMS/App/app_mems.c ****   int i;
 1064              		.loc 1 156 1 discriminator 1 view .LVU180
 1065 0008 0024     		movs	r4, #0
 1066 000a 19E0     		b	.L55
 1067              	.L61:
 162:MEMS/App/app_mems.c **** 
 1068              		.loc 1 162 5 is_stmt 1 view .LVU181
 1069 000c 3220     		movs	r0, #50
 1070 000e FFF7FEFF 		bl	HAL_Delay
 1071              	.LVL97:
 165:MEMS/App/app_mems.c **** 
 1072              		.loc 1 165 5 view .LVU182
 1073              	.L54:
 165:MEMS/App/app_mems.c **** 
 1074              		.loc 1 165 43 discriminator 1 view .LVU183
 165:MEMS/App/app_mems.c **** 
 1075              		.loc 1 165 13 is_stmt 0 discriminator 1 view .LVU184
 1076 0012 0020     		movs	r0, #0
 1077 0014 FFF7FEFF 		bl	BSP_PB_GetState
 1078              	.LVL98:
 165:MEMS/App/app_mems.c **** 
 1079              		.loc 1 165 43 discriminator 1 view .LVU185
 1080 0018 1B4B     		ldr	r3, .L65+4
 1081 001a 1B68     		ldr	r3, [r3]
 1082 001c 9842     		cmp	r0, r3
 1083 001e F8D0     		beq	.L54
 168:MEMS/App/app_mems.c **** 
 1084              		.loc 1 168 5 is_stmt 1 view .LVU186
 1085 0020 3220     		movs	r0, #50
 1086 0022 FFF7FEFF 		bl	HAL_Delay
 1087              	.LVL99:
 171:MEMS/App/app_mems.c **** 
 1088              		.loc 1 171 5 view .LVU187
 171:MEMS/App/app_mems.c **** 
 1089              		.loc 1 171 24 is_stmt 0 view .LVU188
 1090 0026 174B     		ldr	r3, .L65
 1091 0028 0022     		movs	r2, #0
 1092 002a 1A70     		strb	r2, [r3]
 1093 002c ECE7     		b	.L53
 1094              	.LVL100:
 1095              	.L63:
 180:MEMS/App/app_mems.c ****     }
 1096              		.loc 1 180 7 is_stmt 1 view .LVU189
 1097 002e 2046     		mov	r0, r4
 1098 0030 FFF7FEFF 		bl	Accelero_Sensor_Handler
ARM GAS  C:\Temp\cckYGZGE.s 			page 30


 1099              	.LVL101:
 1100 0034 0DE0     		b	.L56
 1101              	.L64:
 184:MEMS/App/app_mems.c ****     }
 1102              		.loc 1 184 7 view .LVU190
 1103 0036 2046     		mov	r0, r4
 1104 0038 FFF7FEFF 		bl	Gyro_Sensor_Handler
 1105              	.LVL102:
 1106 003c 11E0     		b	.L57
 1107              	.L58:
 176:MEMS/App/app_mems.c ****   {
 1108              		.loc 1 176 49 discriminator 2 view .LVU191
 1109 003e 0134     		adds	r4, r4, #1
 1110              	.LVL103:
 1111              	.L55:
 176:MEMS/App/app_mems.c ****   {
 1112              		.loc 1 176 16 discriminator 1 view .LVU192
 1113 0040 022C     		cmp	r4, #2
 1114 0042 1ADC     		bgt	.L62
 178:MEMS/App/app_mems.c ****     {
 1115              		.loc 1 178 5 view .LVU193
 178:MEMS/App/app_mems.c ****     {
 1116              		.loc 1 178 29 is_stmt 0 view .LVU194
 1117 0044 C4EBC403 		rsb	r3, r4, r4, lsl #3
 1118 0048 104A     		ldr	r2, .L65+8
 1119 004a 12F82330 		ldrb	r3, [r2, r3, lsl #2]	@ zero_extendqisi2
 178:MEMS/App/app_mems.c ****     {
 1120              		.loc 1 178 7 view .LVU195
 1121 004e 002B     		cmp	r3, #0
 1122 0050 EDD1     		bne	.L63
 1123              	.L56:
 182:MEMS/App/app_mems.c ****     {
 1124              		.loc 1 182 5 is_stmt 1 view .LVU196
 182:MEMS/App/app_mems.c ****     {
 1125              		.loc 1 182 29 is_stmt 0 view .LVU197
 1126 0052 C4EBC402 		rsb	r2, r4, r4, lsl #3
 1127 0056 0D4B     		ldr	r3, .L65+8
 1128 0058 03EB8203 		add	r3, r3, r2, lsl #2
 1129 005c 5B78     		ldrb	r3, [r3, #1]	@ zero_extendqisi2
 182:MEMS/App/app_mems.c ****     {
 1130              		.loc 1 182 7 view .LVU198
 1131 005e 002B     		cmp	r3, #0
 1132 0060 E9D1     		bne	.L64
 1133              	.L57:
 186:MEMS/App/app_mems.c ****     {
 1134              		.loc 1 186 5 is_stmt 1 view .LVU199
 186:MEMS/App/app_mems.c ****     {
 1135              		.loc 1 186 29 is_stmt 0 view .LVU200
 1136 0062 C4EBC402 		rsb	r2, r4, r4, lsl #3
 1137 0066 094B     		ldr	r3, .L65+8
 1138 0068 03EB8203 		add	r3, r3, r2, lsl #2
 1139 006c 9B78     		ldrb	r3, [r3, #2]	@ zero_extendqisi2
 186:MEMS/App/app_mems.c ****     {
 1140              		.loc 1 186 7 view .LVU201
 1141 006e 002B     		cmp	r3, #0
 1142 0070 E5D0     		beq	.L58
 188:MEMS/App/app_mems.c ****     }
ARM GAS  C:\Temp\cckYGZGE.s 			page 31


 1143              		.loc 1 188 7 is_stmt 1 view .LVU202
 1144 0072 2046     		mov	r0, r4
 1145 0074 FFF7FEFF 		bl	Magneto_Sensor_Handler
 1146              	.LVL104:
 1147 0078 E1E7     		b	.L58
 1148              	.L62:
 192:MEMS/App/app_mems.c **** }
 1149              		.loc 1 192 3 view .LVU203
 1150 007a 4FF47A70 		mov	r0, #1000
 1151 007e FFF7FEFF 		bl	HAL_Delay
 1152              	.LVL105:
 193:MEMS/App/app_mems.c **** 
 1153              		.loc 1 193 1 is_stmt 0 view .LVU204
 1154 0082 10BD     		pop	{r4, pc}
 1155              	.LVL106:
 1156              	.L66:
 193:MEMS/App/app_mems.c **** 
 1157              		.loc 1 193 1 view .LVU205
 1158              		.align	2
 1159              	.L65:
 1160 0084 00000000 		.word	PushButtonDetected
 1161 0088 00000000 		.word	PushButtonState
 1162 008c 00000000 		.word	MotionCapabilities
 1163              		.cfi_endproc
 1164              	.LFE141:
 1166              		.section	.text.MX_MEMS_Init,"ax",%progbits
 1167              		.align	1
 1168              		.global	MX_MEMS_Init
 1169              		.syntax unified
 1170              		.thumb
 1171              		.thumb_func
 1173              	MX_MEMS_Init:
 1174              	.LFB137:
  58:MEMS/App/app_mems.c ****   /* USER CODE BEGIN SV */
 1175              		.loc 1 58 1 is_stmt 1 view -0
 1176              		.cfi_startproc
 1177              		@ args = 0, pretend = 0, frame = 0
 1178              		@ frame_needed = 0, uses_anonymous_args = 0
 1179 0000 08B5     		push	{r3, lr}
 1180              		.cfi_def_cfa_offset 8
 1181              		.cfi_offset 3, -8
 1182              		.cfi_offset 14, -4
  69:MEMS/App/app_mems.c **** 
 1183              		.loc 1 69 3 view .LVU207
 1184 0002 FFF7FEFF 		bl	MX_IKS02A1_DataLogTerminal_Init
 1185              	.LVL107:
  74:MEMS/App/app_mems.c **** 
 1186              		.loc 1 74 1 is_stmt 0 view .LVU208
 1187 0006 08BD     		pop	{r3, pc}
 1188              		.cfi_endproc
 1189              	.LFE137:
 1191              		.section	.text.MX_MEMS_Process,"ax",%progbits
 1192              		.align	1
 1193              		.global	MX_MEMS_Process
 1194              		.syntax unified
 1195              		.thumb
 1196              		.thumb_func
ARM GAS  C:\Temp\cckYGZGE.s 			page 32


 1198              	MX_MEMS_Process:
 1199              	.LFB138:
  80:MEMS/App/app_mems.c ****   /* USER CODE BEGIN MEMS_Process_PreTreatment */
 1200              		.loc 1 80 1 is_stmt 1 view -0
 1201              		.cfi_startproc
 1202              		@ args = 0, pretend = 0, frame = 0
 1203              		@ frame_needed = 0, uses_anonymous_args = 0
 1204 0000 08B5     		push	{r3, lr}
 1205              		.cfi_def_cfa_offset 8
 1206              		.cfi_offset 3, -8
 1207              		.cfi_offset 14, -4
  85:MEMS/App/app_mems.c **** 
 1208              		.loc 1 85 3 view .LVU210
 1209 0002 FFF7FEFF 		bl	MX_IKS02A1_DataLogTerminal_Process
 1210              	.LVL108:
  90:MEMS/App/app_mems.c **** 
 1211              		.loc 1 90 1 is_stmt 0 view .LVU211
 1212 0006 08BD     		pop	{r3, pc}
 1213              		.cfi_endproc
 1214              	.LFE138:
 1216              		.section	.text.BSP_PB_Callback,"ax",%progbits
 1217              		.align	1
 1218              		.global	BSP_PB_Callback
 1219              		.syntax unified
 1220              		.thumb
 1221              		.thumb_func
 1223              	BSP_PB_Callback:
 1224              	.LVL109:
 1225              	.LFB140:
 147:MEMS/App/app_mems.c ****   PushButtonDetected = 1;
 1226              		.loc 1 147 1 is_stmt 1 view -0
 1227              		.cfi_startproc
 1228              		@ args = 0, pretend = 0, frame = 0
 1229              		@ frame_needed = 0, uses_anonymous_args = 0
 1230              		@ link register save eliminated.
 148:MEMS/App/app_mems.c **** }
 1231              		.loc 1 148 3 view .LVU213
 148:MEMS/App/app_mems.c **** }
 1232              		.loc 1 148 22 is_stmt 0 view .LVU214
 1233 0000 014B     		ldr	r3, .L72
 1234 0002 0122     		movs	r2, #1
 1235 0004 1A70     		strb	r2, [r3]
 149:MEMS/App/app_mems.c **** 
 1236              		.loc 1 149 1 view .LVU215
 1237 0006 7047     		bx	lr
 1238              	.L73:
 1239              		.align	2
 1240              	.L72:
 1241 0008 00000000 		.word	PushButtonDetected
 1242              		.cfi_endproc
 1243              	.LFE140:
 1245              		.section	.bss.PushButtonState,"aw",%nobits
 1246              		.align	2
 1249              	PushButtonState:
 1250 0000 00000000 		.space	4
 1251              		.section	.bss.dataOut,"aw",%nobits
 1252              		.align	2
ARM GAS  C:\Temp\cckYGZGE.s 			page 33


 1255              	dataOut:
 1256 0000 00000000 		.space	256
 1256      00000000 
 1256      00000000 
 1256      00000000 
 1256      00000000 
 1257              		.section	.bss.MotionCapabilities,"aw",%nobits
 1258              		.align	2
 1261              	MotionCapabilities:
 1262 0000 00000000 		.space	84
 1262      00000000 
 1262      00000000 
 1262      00000000 
 1262      00000000 
 1263              		.section	.bss.PushButtonDetected,"aw",%nobits
 1266              	PushButtonDetected:
 1267 0000 00       		.space	1
 1268              		.text
 1269              	.Letext0:
 1270              		.file 2 "c:\\users\\jessejabezarendse\\appdata\\roaming\\code\\user\\globalstorage\\bmd.stm32-for-
 1271              		.file 3 "c:\\users\\jessejabezarendse\\appdata\\roaming\\code\\user\\globalstorage\\bmd.stm32-for-
 1272              		.file 4 "c:\\users\\jessejabezarendse\\appdata\\roaming\\code\\user\\globalstorage\\bmd.stm32-for-
 1273              		.file 5 "Drivers/STM32F4xx_HAL_Driver/Inc/stm32f4xx_hal_gpio.h"
 1274              		.file 6 "Drivers/BSP/STM32F4xx_Nucleo/stm32f4xx_nucleo.h"
 1275              		.file 7 "Drivers/BSP/IKS02A1/iks02a1_motion_sensors.h"
 1276              		.file 8 "c:\\users\\jessejabezarendse\\appdata\\roaming\\code\\user\\globalstorage\\bmd.stm32-for-
 1277              		.file 9 "Drivers/STM32F4xx_HAL_Driver/Inc/stm32f4xx_hal.h"
 1278              		.file 10 "c:\\users\\jessejabezarendse\\appdata\\roaming\\code\\user\\globalstorage\\bmd.stm32-for
ARM GAS  C:\Temp\cckYGZGE.s 			page 34

