ARM GAS  C:\Temp\ccMpj0h9.s 			page 1


   1              		.cpu cortex-m4
   2              		.arch armv7e-m
   3              		.fpu fpv4-sp-d16
   4              		.eabi_attribute 27, 1
   5              		.eabi_attribute 28, 1
   6              		.eabi_attribute 20, 1
   7              		.eabi_attribute 21, 1
   8              		.eabi_attribute 23, 3
   9              		.eabi_attribute 24, 1
  10              		.eabi_attribute 25, 1
  11              		.eabi_attribute 26, 1
  12              		.eabi_attribute 30, 1
  13              		.eabi_attribute 34, 1
  14              		.eabi_attribute 18, 4
  15              		.file	"vl53l1_api.c"
  16              		.text
  17              	.Ltext0:
  18              		.cfi_sections	.debug_frame
  19              		.file 1 "Drivers/BSP/Components/vl53l1cb/modules/vl53l1_api.c"
  20              		.section	.text.CheckValidRectRoi,"ax",%progbits
  21              		.align	1
  22              		.syntax unified
  23              		.thumb
  24              		.thumb_func
  26              	CheckValidRectRoi:
  27              	.LFB4:
   1:Drivers/BSP/Components/vl53l1cb/modules/vl53l1_api.c **** /**
   2:Drivers/BSP/Components/vl53l1cb/modules/vl53l1_api.c ****  ******************************************************************************
   3:Drivers/BSP/Components/vl53l1cb/modules/vl53l1_api.c ****  * Copyright (c) 2020, STMicroelectronics - All Rights Reserved
   4:Drivers/BSP/Components/vl53l1cb/modules/vl53l1_api.c ****  *
   5:Drivers/BSP/Components/vl53l1cb/modules/vl53l1_api.c ****  * This software is licensed under terms that can be found in the LICENSE file
   6:Drivers/BSP/Components/vl53l1cb/modules/vl53l1_api.c ****  * in the root directory of this software component.
   7:Drivers/BSP/Components/vl53l1cb/modules/vl53l1_api.c ****  * If no LICENSE file comes with this software, it is provided AS-IS.
   8:Drivers/BSP/Components/vl53l1cb/modules/vl53l1_api.c ****  *
   9:Drivers/BSP/Components/vl53l1cb/modules/vl53l1_api.c ****  ******************************************************************************
  10:Drivers/BSP/Components/vl53l1cb/modules/vl53l1_api.c ****  */
  11:Drivers/BSP/Components/vl53l1cb/modules/vl53l1_api.c **** 
  12:Drivers/BSP/Components/vl53l1cb/modules/vl53l1_api.c **** 
  13:Drivers/BSP/Components/vl53l1cb/modules/vl53l1_api.c **** 
  14:Drivers/BSP/Components/vl53l1cb/modules/vl53l1_api.c **** 
  15:Drivers/BSP/Components/vl53l1cb/modules/vl53l1_api.c **** #include "vl53l1_api.h"
  16:Drivers/BSP/Components/vl53l1cb/modules/vl53l1_api.c **** #include "vl53l1_api_strings.h"
  17:Drivers/BSP/Components/vl53l1cb/modules/vl53l1_api.c **** #include "vl53l1_register_settings.h"
  18:Drivers/BSP/Components/vl53l1cb/modules/vl53l1_api.c **** #include "vl53l1_register_funcs.h"
  19:Drivers/BSP/Components/vl53l1cb/modules/vl53l1_api.c **** #include "vl53l1_core.h"
  20:Drivers/BSP/Components/vl53l1cb/modules/vl53l1_api.c **** #include "vl53l1_api_calibration.h"
  21:Drivers/BSP/Components/vl53l1cb/modules/vl53l1_api.c **** #include "vl53l1_wait.h"
  22:Drivers/BSP/Components/vl53l1cb/modules/vl53l1_api.c **** #include "vl53l1_preset_setup.h"
  23:Drivers/BSP/Components/vl53l1cb/modules/vl53l1_api.c **** #include "vl53l1_api_debug.h"
  24:Drivers/BSP/Components/vl53l1cb/modules/vl53l1_api.c **** #include "vl53l1_api_core.h"
  25:Drivers/BSP/Components/vl53l1cb/modules/vl53l1_api.c **** #include "vl53l1_nvm.h"
  26:Drivers/BSP/Components/vl53l1cb/modules/vl53l1_api.c **** 
  27:Drivers/BSP/Components/vl53l1cb/modules/vl53l1_api.c **** 
  28:Drivers/BSP/Components/vl53l1cb/modules/vl53l1_api.c **** #define ZONE_CHECK VL53L1_MAX_USER_ZONES
  29:Drivers/BSP/Components/vl53l1cb/modules/vl53l1_api.c **** 
  30:Drivers/BSP/Components/vl53l1cb/modules/vl53l1_api.c **** #if ZONE_CHECK < 5
  31:Drivers/BSP/Components/vl53l1cb/modules/vl53l1_api.c **** #error Must define at least 5 zones in MAX_USER_ZONES constant
ARM GAS  C:\Temp\ccMpj0h9.s 			page 2


  32:Drivers/BSP/Components/vl53l1cb/modules/vl53l1_api.c **** #endif
  33:Drivers/BSP/Components/vl53l1cb/modules/vl53l1_api.c **** 
  34:Drivers/BSP/Components/vl53l1cb/modules/vl53l1_api.c **** #define LOG_FUNCTION_START(fmt, ...) \
  35:Drivers/BSP/Components/vl53l1cb/modules/vl53l1_api.c **** 	_LOG_FUNCTION_START(VL53L1_TRACE_MODULE_API, fmt, ##__VA_ARGS__)
  36:Drivers/BSP/Components/vl53l1cb/modules/vl53l1_api.c **** #define LOG_FUNCTION_END(status, ...) \
  37:Drivers/BSP/Components/vl53l1cb/modules/vl53l1_api.c **** 	_LOG_FUNCTION_END(VL53L1_TRACE_MODULE_API, status, ##__VA_ARGS__)
  38:Drivers/BSP/Components/vl53l1cb/modules/vl53l1_api.c **** #define LOG_FUNCTION_END_FMT(status, fmt, ...) \
  39:Drivers/BSP/Components/vl53l1cb/modules/vl53l1_api.c **** 	_LOG_FUNCTION_END_FMT(VL53L1_TRACE_MODULE_API, status, \
  40:Drivers/BSP/Components/vl53l1cb/modules/vl53l1_api.c **** 			fmt, ##__VA_ARGS__)
  41:Drivers/BSP/Components/vl53l1cb/modules/vl53l1_api.c **** 
  42:Drivers/BSP/Components/vl53l1cb/modules/vl53l1_api.c **** #ifdef VL53L1_LOG_ENABLE
  43:Drivers/BSP/Components/vl53l1cb/modules/vl53l1_api.c **** #define trace_print(level, ...) trace_print_module_function(\
  44:Drivers/BSP/Components/vl53l1cb/modules/vl53l1_api.c **** 		VL53L1_TRACE_MODULE_API, level, VL53L1_TRACE_FUNCTION_NONE, \
  45:Drivers/BSP/Components/vl53l1cb/modules/vl53l1_api.c **** 		##__VA_ARGS__)
  46:Drivers/BSP/Components/vl53l1cb/modules/vl53l1_api.c **** #endif
  47:Drivers/BSP/Components/vl53l1cb/modules/vl53l1_api.c **** 
  48:Drivers/BSP/Components/vl53l1cb/modules/vl53l1_api.c **** #ifndef MIN
  49:Drivers/BSP/Components/vl53l1cb/modules/vl53l1_api.c **** #define MIN(v1, v2) ((v1) < (v2) ? (v1) : (v2))
  50:Drivers/BSP/Components/vl53l1cb/modules/vl53l1_api.c **** #endif
  51:Drivers/BSP/Components/vl53l1cb/modules/vl53l1_api.c **** #ifndef MAX
  52:Drivers/BSP/Components/vl53l1cb/modules/vl53l1_api.c **** #define MAX(v1, v2) ((v1) < (v2) ? (v2) : (v1))
  53:Drivers/BSP/Components/vl53l1cb/modules/vl53l1_api.c **** #endif
  54:Drivers/BSP/Components/vl53l1cb/modules/vl53l1_api.c **** 
  55:Drivers/BSP/Components/vl53l1cb/modules/vl53l1_api.c **** #define DMAX_REFLECTANCE_IDX 2
  56:Drivers/BSP/Components/vl53l1cb/modules/vl53l1_api.c **** 
  57:Drivers/BSP/Components/vl53l1cb/modules/vl53l1_api.c **** 
  58:Drivers/BSP/Components/vl53l1cb/modules/vl53l1_api.c **** 
  59:Drivers/BSP/Components/vl53l1cb/modules/vl53l1_api.c **** #define LOWPOWER_AUTO_VHV_LOOP_DURATION_US 245
  60:Drivers/BSP/Components/vl53l1cb/modules/vl53l1_api.c **** #define LOWPOWER_AUTO_OVERHEAD_BEFORE_A_RANGING 1448
  61:Drivers/BSP/Components/vl53l1cb/modules/vl53l1_api.c **** #define LOWPOWER_AUTO_OVERHEAD_BETWEEN_A_B_RANGING 2100
  62:Drivers/BSP/Components/vl53l1cb/modules/vl53l1_api.c **** 
  63:Drivers/BSP/Components/vl53l1cb/modules/vl53l1_api.c **** #define FDA_MAX_TIMING_BUDGET_US 550000
  64:Drivers/BSP/Components/vl53l1cb/modules/vl53l1_api.c **** 
  65:Drivers/BSP/Components/vl53l1cb/modules/vl53l1_api.c **** 
  66:Drivers/BSP/Components/vl53l1cb/modules/vl53l1_api.c **** 
  67:Drivers/BSP/Components/vl53l1cb/modules/vl53l1_api.c **** 
  68:Drivers/BSP/Components/vl53l1cb/modules/vl53l1_api.c **** 
  69:Drivers/BSP/Components/vl53l1cb/modules/vl53l1_api.c **** 
  70:Drivers/BSP/Components/vl53l1cb/modules/vl53l1_api.c **** static int32_t BDTable[VL53L1_TUNING_MAX_TUNABLE_KEY] = {
  71:Drivers/BSP/Components/vl53l1cb/modules/vl53l1_api.c **** 		TUNING_VERSION,
  72:Drivers/BSP/Components/vl53l1cb/modules/vl53l1_api.c **** 		TUNING_PROXY_MIN,
  73:Drivers/BSP/Components/vl53l1cb/modules/vl53l1_api.c **** 		TUNING_SINGLE_TARGET_XTALK_TARGET_DISTANCE_MM,
  74:Drivers/BSP/Components/vl53l1cb/modules/vl53l1_api.c **** 		TUNING_SINGLE_TARGET_XTALK_SAMPLE_NUMBER,
  75:Drivers/BSP/Components/vl53l1cb/modules/vl53l1_api.c **** 		TUNING_MIN_AMBIENT_DMAX_VALID,
  76:Drivers/BSP/Components/vl53l1cb/modules/vl53l1_api.c **** 		TUNING_MAX_SIMPLE_OFFSET_CALIBRATION_SAMPLE_NUMBER,
  77:Drivers/BSP/Components/vl53l1cb/modules/vl53l1_api.c **** 		TUNING_XTALK_FULL_ROI_TARGET_DISTANCE_MM,
  78:Drivers/BSP/Components/vl53l1cb/modules/vl53l1_api.c **** 		TUNING_SIMPLE_OFFSET_CALIBRATION_REPEAT,
  79:Drivers/BSP/Components/vl53l1cb/modules/vl53l1_api.c **** 		TUNING_XTALK_FULL_ROI_BIN_SUM_MARGIN,
  80:Drivers/BSP/Components/vl53l1cb/modules/vl53l1_api.c **** 		TUNING_XTALK_FULL_ROI_DEFAULT_OFFSET,
  81:Drivers/BSP/Components/vl53l1cb/modules/vl53l1_api.c **** 		TUNING_ZERO_DISTANCE_OFFSET_NON_LINEAR_FACTOR_DEFAULT,
  82:Drivers/BSP/Components/vl53l1cb/modules/vl53l1_api.c **** };
  83:Drivers/BSP/Components/vl53l1cb/modules/vl53l1_api.c **** 
  84:Drivers/BSP/Components/vl53l1cb/modules/vl53l1_api.c **** 
  85:Drivers/BSP/Components/vl53l1cb/modules/vl53l1_api.c **** static VL53L1_Error SingleTargetXTalkCalibration(VL53L1_DEV Dev)
  86:Drivers/BSP/Components/vl53l1cb/modules/vl53l1_api.c **** {
  87:Drivers/BSP/Components/vl53l1cb/modules/vl53l1_api.c **** 	VL53L1_Error Status = VL53L1_ERROR_NONE;
  88:Drivers/BSP/Components/vl53l1cb/modules/vl53l1_api.c **** 
ARM GAS  C:\Temp\ccMpj0h9.s 			page 3


  89:Drivers/BSP/Components/vl53l1cb/modules/vl53l1_api.c **** 	uint32_t sum_ranging = 0;
  90:Drivers/BSP/Components/vl53l1cb/modules/vl53l1_api.c **** 	uint32_t sum_spads = 0;
  91:Drivers/BSP/Components/vl53l1cb/modules/vl53l1_api.c **** 	FixPoint1616_t sum_signalRate = 0;
  92:Drivers/BSP/Components/vl53l1cb/modules/vl53l1_api.c **** 	FixPoint1616_t total_count = 0;
  93:Drivers/BSP/Components/vl53l1cb/modules/vl53l1_api.c **** 	uint8_t xtalk_meas = 0;
  94:Drivers/BSP/Components/vl53l1cb/modules/vl53l1_api.c **** 	uint8_t xtalk_measmax =
  95:Drivers/BSP/Components/vl53l1cb/modules/vl53l1_api.c **** 		BDTable[VL53L1_TUNING_SINGLE_TARGET_XTALK_SAMPLE_NUMBER];
  96:Drivers/BSP/Components/vl53l1cb/modules/vl53l1_api.c **** 	VL53L1_RangingMeasurementData_t RMData;
  97:Drivers/BSP/Components/vl53l1cb/modules/vl53l1_api.c **** 	FixPoint1616_t xTalkStoredMeanSignalRate;
  98:Drivers/BSP/Components/vl53l1cb/modules/vl53l1_api.c **** 	FixPoint1616_t xTalkStoredMeanRange;
  99:Drivers/BSP/Components/vl53l1cb/modules/vl53l1_api.c **** 	FixPoint1616_t xTalkStoredMeanRtnSpads;
 100:Drivers/BSP/Components/vl53l1cb/modules/vl53l1_api.c **** 	uint32_t xTalkStoredMeanRtnSpadsAsInt;
 101:Drivers/BSP/Components/vl53l1cb/modules/vl53l1_api.c **** 	uint32_t xTalkCalDistanceAsInt;
 102:Drivers/BSP/Components/vl53l1cb/modules/vl53l1_api.c **** 	FixPoint1616_t XTalkCompensationRateMegaCps;
 103:Drivers/BSP/Components/vl53l1cb/modules/vl53l1_api.c **** 	uint32_t signalXTalkTotalPerSpad;
 104:Drivers/BSP/Components/vl53l1cb/modules/vl53l1_api.c **** 	VL53L1_PresetModes PresetMode;
 105:Drivers/BSP/Components/vl53l1cb/modules/vl53l1_api.c **** 	VL53L1_CalibrationData_t  CalibrationData;
 106:Drivers/BSP/Components/vl53l1cb/modules/vl53l1_api.c **** 	VL53L1_CustomerNvmManaged_t *pC;
 107:Drivers/BSP/Components/vl53l1cb/modules/vl53l1_api.c **** 
 108:Drivers/BSP/Components/vl53l1cb/modules/vl53l1_api.c **** 
 109:Drivers/BSP/Components/vl53l1cb/modules/vl53l1_api.c **** 	LOG_FUNCTION_START("");
 110:Drivers/BSP/Components/vl53l1cb/modules/vl53l1_api.c **** 
 111:Drivers/BSP/Components/vl53l1cb/modules/vl53l1_api.c **** 
 112:Drivers/BSP/Components/vl53l1cb/modules/vl53l1_api.c **** 	PresetMode = VL53L1DevDataGet(Dev, CurrentParameters.PresetMode);
 113:Drivers/BSP/Components/vl53l1cb/modules/vl53l1_api.c **** 
 114:Drivers/BSP/Components/vl53l1cb/modules/vl53l1_api.c **** 	if ((PresetMode != VL53L1_PRESETMODE_AUTONOMOUS) &&
 115:Drivers/BSP/Components/vl53l1cb/modules/vl53l1_api.c **** 		(PresetMode != VL53L1_PRESETMODE_LOWPOWER_AUTONOMOUS) &&
 116:Drivers/BSP/Components/vl53l1cb/modules/vl53l1_api.c **** 		(PresetMode != VL53L1_PRESETMODE_LITE_RANGING)) {
 117:Drivers/BSP/Components/vl53l1cb/modules/vl53l1_api.c **** 		Status = VL53L1_ERROR_MODE_NOT_SUPPORTED;
 118:Drivers/BSP/Components/vl53l1cb/modules/vl53l1_api.c **** 		goto ENDFUNC;
 119:Drivers/BSP/Components/vl53l1cb/modules/vl53l1_api.c **** 	}
 120:Drivers/BSP/Components/vl53l1cb/modules/vl53l1_api.c **** 
 121:Drivers/BSP/Components/vl53l1cb/modules/vl53l1_api.c **** 
 122:Drivers/BSP/Components/vl53l1cb/modules/vl53l1_api.c **** 	Status = VL53L1_disable_xtalk_compensation(Dev);
 123:Drivers/BSP/Components/vl53l1cb/modules/vl53l1_api.c **** 
 124:Drivers/BSP/Components/vl53l1cb/modules/vl53l1_api.c **** 	if (Status != VL53L1_ERROR_NONE)
 125:Drivers/BSP/Components/vl53l1cb/modules/vl53l1_api.c **** 		goto ENDFUNC;
 126:Drivers/BSP/Components/vl53l1cb/modules/vl53l1_api.c **** 
 127:Drivers/BSP/Components/vl53l1cb/modules/vl53l1_api.c **** 	Status = VL53L1_StartMeasurement(Dev);
 128:Drivers/BSP/Components/vl53l1cb/modules/vl53l1_api.c **** 
 129:Drivers/BSP/Components/vl53l1cb/modules/vl53l1_api.c **** 	if (Status != VL53L1_ERROR_NONE)
 130:Drivers/BSP/Components/vl53l1cb/modules/vl53l1_api.c **** 		goto ENDFUNC;
 131:Drivers/BSP/Components/vl53l1cb/modules/vl53l1_api.c **** 
 132:Drivers/BSP/Components/vl53l1cb/modules/vl53l1_api.c **** 
 133:Drivers/BSP/Components/vl53l1cb/modules/vl53l1_api.c **** 	VL53L1_WaitMeasurementDataReady(Dev);
 134:Drivers/BSP/Components/vl53l1cb/modules/vl53l1_api.c **** 	VL53L1_GetRangingMeasurementData(Dev, &RMData);
 135:Drivers/BSP/Components/vl53l1cb/modules/vl53l1_api.c **** 	VL53L1_ClearInterruptAndStartMeasurement(Dev);
 136:Drivers/BSP/Components/vl53l1cb/modules/vl53l1_api.c **** 
 137:Drivers/BSP/Components/vl53l1cb/modules/vl53l1_api.c **** 	sum_ranging = 0;
 138:Drivers/BSP/Components/vl53l1cb/modules/vl53l1_api.c **** 	sum_spads = 0;
 139:Drivers/BSP/Components/vl53l1cb/modules/vl53l1_api.c **** 	sum_signalRate = 0;
 140:Drivers/BSP/Components/vl53l1cb/modules/vl53l1_api.c **** 	total_count = 0;
 141:Drivers/BSP/Components/vl53l1cb/modules/vl53l1_api.c **** 	for (xtalk_meas = 0; xtalk_meas < xtalk_measmax; xtalk_meas++) {
 142:Drivers/BSP/Components/vl53l1cb/modules/vl53l1_api.c **** 		VL53L1_WaitMeasurementDataReady(Dev);
 143:Drivers/BSP/Components/vl53l1cb/modules/vl53l1_api.c **** 		VL53L1_GetRangingMeasurementData(Dev, &RMData);
 144:Drivers/BSP/Components/vl53l1cb/modules/vl53l1_api.c **** 		VL53L1_ClearInterruptAndStartMeasurement(Dev);
 145:Drivers/BSP/Components/vl53l1cb/modules/vl53l1_api.c **** 		if (RMData.RangeStatus == VL53L1_RANGESTATUS_RANGE_VALID) {
ARM GAS  C:\Temp\ccMpj0h9.s 			page 4


 146:Drivers/BSP/Components/vl53l1cb/modules/vl53l1_api.c **** 			sum_ranging += RMData.RangeMilliMeter;
 147:Drivers/BSP/Components/vl53l1cb/modules/vl53l1_api.c **** 			sum_signalRate += RMData.SignalRateRtnMegaCps;
 148:Drivers/BSP/Components/vl53l1cb/modules/vl53l1_api.c **** 			sum_spads += RMData.EffectiveSpadRtnCount / 256;
 149:Drivers/BSP/Components/vl53l1cb/modules/vl53l1_api.c **** 			total_count++;
 150:Drivers/BSP/Components/vl53l1cb/modules/vl53l1_api.c **** 		}
 151:Drivers/BSP/Components/vl53l1cb/modules/vl53l1_api.c **** 	}
 152:Drivers/BSP/Components/vl53l1cb/modules/vl53l1_api.c **** 	Status = VL53L1_StopMeasurement(Dev);
 153:Drivers/BSP/Components/vl53l1cb/modules/vl53l1_api.c **** 
 154:Drivers/BSP/Components/vl53l1cb/modules/vl53l1_api.c **** 	if (total_count > 0) {
 155:Drivers/BSP/Components/vl53l1cb/modules/vl53l1_api.c **** 
 156:Drivers/BSP/Components/vl53l1cb/modules/vl53l1_api.c **** 		xTalkStoredMeanSignalRate = sum_signalRate / total_count;
 157:Drivers/BSP/Components/vl53l1cb/modules/vl53l1_api.c **** 		xTalkStoredMeanRange = (FixPoint1616_t)(sum_ranging << 16);
 158:Drivers/BSP/Components/vl53l1cb/modules/vl53l1_api.c **** 		xTalkStoredMeanRange /= total_count;
 159:Drivers/BSP/Components/vl53l1cb/modules/vl53l1_api.c **** 		xTalkStoredMeanRtnSpads = (FixPoint1616_t)(sum_spads << 16);
 160:Drivers/BSP/Components/vl53l1cb/modules/vl53l1_api.c **** 		xTalkStoredMeanRtnSpads /= total_count;
 161:Drivers/BSP/Components/vl53l1cb/modules/vl53l1_api.c **** 
 162:Drivers/BSP/Components/vl53l1cb/modules/vl53l1_api.c **** 
 163:Drivers/BSP/Components/vl53l1cb/modules/vl53l1_api.c **** 		xTalkStoredMeanRtnSpadsAsInt = (xTalkStoredMeanRtnSpads +
 164:Drivers/BSP/Components/vl53l1cb/modules/vl53l1_api.c **** 			0x8000) >> 16;
 165:Drivers/BSP/Components/vl53l1cb/modules/vl53l1_api.c **** 
 166:Drivers/BSP/Components/vl53l1cb/modules/vl53l1_api.c **** 
 167:Drivers/BSP/Components/vl53l1cb/modules/vl53l1_api.c **** 		 xTalkCalDistanceAsInt = ((uint32_t)BDTable[
 168:Drivers/BSP/Components/vl53l1cb/modules/vl53l1_api.c **** 			VL53L1_TUNING_SINGLE_TARGET_XTALK_TARGET_DISTANCE_MM]);
 169:Drivers/BSP/Components/vl53l1cb/modules/vl53l1_api.c **** 		if (xTalkStoredMeanRtnSpadsAsInt == 0 ||
 170:Drivers/BSP/Components/vl53l1cb/modules/vl53l1_api.c **** 		xTalkCalDistanceAsInt == 0 ||
 171:Drivers/BSP/Components/vl53l1cb/modules/vl53l1_api.c **** 		xTalkStoredMeanRange >= (xTalkCalDistanceAsInt << 16)) {
 172:Drivers/BSP/Components/vl53l1cb/modules/vl53l1_api.c **** 			XTalkCompensationRateMegaCps = 0;
 173:Drivers/BSP/Components/vl53l1cb/modules/vl53l1_api.c **** 		} else {
 174:Drivers/BSP/Components/vl53l1cb/modules/vl53l1_api.c **** 
 175:Drivers/BSP/Components/vl53l1cb/modules/vl53l1_api.c **** 			signalXTalkTotalPerSpad = (xTalkStoredMeanSignalRate) /
 176:Drivers/BSP/Components/vl53l1cb/modules/vl53l1_api.c **** 				xTalkStoredMeanRtnSpadsAsInt;
 177:Drivers/BSP/Components/vl53l1cb/modules/vl53l1_api.c **** 
 178:Drivers/BSP/Components/vl53l1cb/modules/vl53l1_api.c **** 
 179:Drivers/BSP/Components/vl53l1cb/modules/vl53l1_api.c **** 			signalXTalkTotalPerSpad *= (((uint32_t)1 << 16) -
 180:Drivers/BSP/Components/vl53l1cb/modules/vl53l1_api.c **** 				(xTalkStoredMeanRange / xTalkCalDistanceAsInt));
 181:Drivers/BSP/Components/vl53l1cb/modules/vl53l1_api.c **** 
 182:Drivers/BSP/Components/vl53l1cb/modules/vl53l1_api.c **** 
 183:Drivers/BSP/Components/vl53l1cb/modules/vl53l1_api.c **** 			XTalkCompensationRateMegaCps = (signalXTalkTotalPerSpad
 184:Drivers/BSP/Components/vl53l1cb/modules/vl53l1_api.c **** 				+ 0x8000) >> 16;
 185:Drivers/BSP/Components/vl53l1cb/modules/vl53l1_api.c **** 		}
 186:Drivers/BSP/Components/vl53l1cb/modules/vl53l1_api.c **** 
 187:Drivers/BSP/Components/vl53l1cb/modules/vl53l1_api.c **** 
 188:Drivers/BSP/Components/vl53l1cb/modules/vl53l1_api.c **** 		Status = VL53L1_GetCalibrationData(Dev, &CalibrationData);
 189:Drivers/BSP/Components/vl53l1cb/modules/vl53l1_api.c **** 
 190:Drivers/BSP/Components/vl53l1cb/modules/vl53l1_api.c **** 		if (Status != VL53L1_ERROR_NONE)
 191:Drivers/BSP/Components/vl53l1cb/modules/vl53l1_api.c **** 			goto ENDFUNC;
 192:Drivers/BSP/Components/vl53l1cb/modules/vl53l1_api.c **** 
 193:Drivers/BSP/Components/vl53l1cb/modules/vl53l1_api.c **** 		pC = &CalibrationData.customer;
 194:Drivers/BSP/Components/vl53l1cb/modules/vl53l1_api.c **** 
 195:Drivers/BSP/Components/vl53l1cb/modules/vl53l1_api.c **** 		pC->algo__crosstalk_compensation_plane_offset_kcps =
 196:Drivers/BSP/Components/vl53l1cb/modules/vl53l1_api.c **** 			(uint32_t)(1000 * ((XTalkCompensationRateMegaCps  +
 197:Drivers/BSP/Components/vl53l1cb/modules/vl53l1_api.c **** 				((uint32_t)1<<6)) >> (16-9)));
 198:Drivers/BSP/Components/vl53l1cb/modules/vl53l1_api.c **** 
 199:Drivers/BSP/Components/vl53l1cb/modules/vl53l1_api.c **** 		Status = VL53L1_SetCalibrationData(Dev, &CalibrationData);
 200:Drivers/BSP/Components/vl53l1cb/modules/vl53l1_api.c **** 
 201:Drivers/BSP/Components/vl53l1cb/modules/vl53l1_api.c **** 		if (Status != VL53L1_ERROR_NONE)
 202:Drivers/BSP/Components/vl53l1cb/modules/vl53l1_api.c **** 			goto ENDFUNC;
ARM GAS  C:\Temp\ccMpj0h9.s 			page 5


 203:Drivers/BSP/Components/vl53l1cb/modules/vl53l1_api.c **** 
 204:Drivers/BSP/Components/vl53l1cb/modules/vl53l1_api.c **** 		Status = VL53L1_enable_xtalk_compensation(Dev);
 205:Drivers/BSP/Components/vl53l1cb/modules/vl53l1_api.c **** 
 206:Drivers/BSP/Components/vl53l1cb/modules/vl53l1_api.c **** 	} else
 207:Drivers/BSP/Components/vl53l1cb/modules/vl53l1_api.c **** 
 208:Drivers/BSP/Components/vl53l1cb/modules/vl53l1_api.c **** 		Status = VL53L1_ERROR_XTALK_EXTRACTION_NO_SAMPLE_FAIL;
 209:Drivers/BSP/Components/vl53l1cb/modules/vl53l1_api.c **** 
 210:Drivers/BSP/Components/vl53l1cb/modules/vl53l1_api.c **** ENDFUNC:
 211:Drivers/BSP/Components/vl53l1cb/modules/vl53l1_api.c **** 	LOG_FUNCTION_END(Status);
 212:Drivers/BSP/Components/vl53l1cb/modules/vl53l1_api.c **** 	return Status;
 213:Drivers/BSP/Components/vl53l1cb/modules/vl53l1_api.c **** 
 214:Drivers/BSP/Components/vl53l1cb/modules/vl53l1_api.c **** }
 215:Drivers/BSP/Components/vl53l1cb/modules/vl53l1_api.c **** 
 216:Drivers/BSP/Components/vl53l1cb/modules/vl53l1_api.c **** 
 217:Drivers/BSP/Components/vl53l1cb/modules/vl53l1_api.c **** static VL53L1_Error CheckValidRectRoi(VL53L1_UserRoi_t ROI)
 218:Drivers/BSP/Components/vl53l1cb/modules/vl53l1_api.c **** {
  28              		.loc 1 218 1 view -0
  29              		.cfi_startproc
  30              		@ args = 0, pretend = 0, frame = 8
  31              		@ frame_needed = 0, uses_anonymous_args = 0
  32              		@ link register save eliminated.
  33 0000 82B0     		sub	sp, sp, #8
  34              		.cfi_def_cfa_offset 8
  35 0002 0190     		str	r0, [sp, #4]
 219:Drivers/BSP/Components/vl53l1cb/modules/vl53l1_api.c **** 	VL53L1_Error Status = VL53L1_ERROR_NONE;
  36              		.loc 1 219 2 view .LVU1
  37              	.LVL0:
 220:Drivers/BSP/Components/vl53l1cb/modules/vl53l1_api.c **** 
 221:Drivers/BSP/Components/vl53l1cb/modules/vl53l1_api.c **** 	LOG_FUNCTION_START("");
  38              		.loc 1 221 24 view .LVU2
 222:Drivers/BSP/Components/vl53l1cb/modules/vl53l1_api.c **** 
 223:Drivers/BSP/Components/vl53l1cb/modules/vl53l1_api.c **** 
 224:Drivers/BSP/Components/vl53l1cb/modules/vl53l1_api.c **** 	if ((ROI.TopLeftX > 15) || (ROI.TopLeftY > 15) ||
  39              		.loc 1 224 2 view .LVU3
  40              		.loc 1 224 10 is_stmt 0 view .LVU4
  41 0004 9DF80430 		ldrb	r3, [sp, #4]	@ zero_extendqisi2
  42              		.loc 1 224 5 view .LVU5
  43 0008 0F2B     		cmp	r3, #15
  44 000a 0DD8     		bhi	.L4
  45              		.loc 1 224 33 discriminator 1 view .LVU6
  46 000c 9DF80520 		ldrb	r2, [sp, #5]	@ zero_extendqisi2
  47              		.loc 1 224 26 discriminator 1 view .LVU7
  48 0010 0F2A     		cmp	r2, #15
  49 0012 17D8     		bhi	.L5
 225:Drivers/BSP/Components/vl53l1cb/modules/vl53l1_api.c **** 		(ROI.BotRightX > 15) || (ROI.BotRightY > 15))
  50              		.loc 1 225 7 discriminator 2 view .LVU8
  51 0014 9DF80620 		ldrb	r2, [sp, #6]	@ zero_extendqisi2
 224:Drivers/BSP/Components/vl53l1cb/modules/vl53l1_api.c **** 		(ROI.BotRightX > 15) || (ROI.BotRightY > 15))
  52              		.loc 1 224 49 discriminator 2 view .LVU9
  53 0018 0F2A     		cmp	r2, #15
  54 001a 16D8     		bhi	.L6
  55              		.loc 1 225 31 view .LVU10
  56 001c 9DF80720 		ldrb	r2, [sp, #7]	@ zero_extendqisi2
  57              		.loc 1 225 24 view .LVU11
  58 0020 0F2A     		cmp	r2, #15
  59 0022 15D8     		bhi	.L7
 219:Drivers/BSP/Components/vl53l1cb/modules/vl53l1_api.c **** 
ARM GAS  C:\Temp\ccMpj0h9.s 			page 6


  60              		.loc 1 219 15 view .LVU12
  61 0024 0020     		movs	r0, #0
  62 0026 01E0     		b	.L2
  63              	.L4:
 226:Drivers/BSP/Components/vl53l1cb/modules/vl53l1_api.c **** 		Status = VL53L1_ERROR_INVALID_PARAMS;
  64              		.loc 1 226 10 view .LVU13
  65 0028 6FF00300 		mvn	r0, #3
  66              	.L2:
  67              	.LVL1:
 227:Drivers/BSP/Components/vl53l1cb/modules/vl53l1_api.c **** 
 228:Drivers/BSP/Components/vl53l1cb/modules/vl53l1_api.c **** 	if ((ROI.TopLeftX > ROI.BotRightX) || (ROI.TopLeftY < ROI.BotRightY))
  68              		.loc 1 228 2 is_stmt 1 view .LVU14
  69              		.loc 1 228 25 is_stmt 0 view .LVU15
  70 002c 9DF80620 		ldrb	r2, [sp, #6]	@ zero_extendqisi2
  71              		.loc 1 228 5 view .LVU16
  72 0030 9342     		cmp	r3, r2
  73 0032 10D8     		bhi	.L8
  74              		.loc 1 228 44 discriminator 1 view .LVU17
  75 0034 9DF80520 		ldrb	r2, [sp, #5]	@ zero_extendqisi2
  76              		.loc 1 228 59 discriminator 1 view .LVU18
  77 0038 9DF80730 		ldrb	r3, [sp, #7]	@ zero_extendqisi2
  78              		.loc 1 228 37 discriminator 1 view .LVU19
  79 003c 9A42     		cmp	r2, r3
  80 003e 0DD3     		bcc	.L11
  81              	.LVL2:
  82              	.L3:
 229:Drivers/BSP/Components/vl53l1cb/modules/vl53l1_api.c **** 		Status = VL53L1_ERROR_INVALID_PARAMS;
 230:Drivers/BSP/Components/vl53l1cb/modules/vl53l1_api.c **** 
 231:Drivers/BSP/Components/vl53l1cb/modules/vl53l1_api.c **** 	LOG_FUNCTION_END(Status);
  83              		.loc 1 231 26 is_stmt 1 view .LVU20
 232:Drivers/BSP/Components/vl53l1cb/modules/vl53l1_api.c **** 	return Status;
  84              		.loc 1 232 2 view .LVU21
 233:Drivers/BSP/Components/vl53l1cb/modules/vl53l1_api.c **** }
  85              		.loc 1 233 1 is_stmt 0 view .LVU22
  86 0040 02B0     		add	sp, sp, #8
  87              		.cfi_remember_state
  88              		.cfi_def_cfa_offset 0
  89              		@ sp needed
  90 0042 7047     		bx	lr
  91              	.LVL3:
  92              	.L5:
  93              		.cfi_restore_state
 226:Drivers/BSP/Components/vl53l1cb/modules/vl53l1_api.c **** 
  94              		.loc 1 226 10 view .LVU23
  95 0044 6FF00300 		mvn	r0, #3
  96 0048 F0E7     		b	.L2
  97              	.L6:
  98 004a 6FF00300 		mvn	r0, #3
  99 004e EDE7     		b	.L2
 100              	.L7:
 101 0050 6FF00300 		mvn	r0, #3
 102 0054 EAE7     		b	.L2
 103              	.LVL4:
 104              	.L8:
 229:Drivers/BSP/Components/vl53l1cb/modules/vl53l1_api.c **** 
 105              		.loc 1 229 10 view .LVU24
 106 0056 6FF00300 		mvn	r0, #3
ARM GAS  C:\Temp\ccMpj0h9.s 			page 7


 107              	.LVL5:
 229:Drivers/BSP/Components/vl53l1cb/modules/vl53l1_api.c **** 
 108              		.loc 1 229 10 view .LVU25
 109 005a F1E7     		b	.L3
 110              	.LVL6:
 111              	.L11:
 229:Drivers/BSP/Components/vl53l1cb/modules/vl53l1_api.c **** 
 112              		.loc 1 229 10 view .LVU26
 113 005c 6FF00300 		mvn	r0, #3
 114              	.LVL7:
 229:Drivers/BSP/Components/vl53l1cb/modules/vl53l1_api.c **** 
 115              		.loc 1 229 10 view .LVU27
 116 0060 EEE7     		b	.L3
 117              		.cfi_endproc
 118              	.LFE4:
 120              		.section	.text.ConvertModeToLLD,"ax",%progbits
 121              		.align	1
 122              		.syntax unified
 123              		.thumb
 124              		.thumb_func
 126              	ConvertModeToLLD:
 127              	.LVL8:
 128              	.LFB5:
 234:Drivers/BSP/Components/vl53l1cb/modules/vl53l1_api.c **** 
 235:Drivers/BSP/Components/vl53l1cb/modules/vl53l1_api.c **** static VL53L1_GPIO_Interrupt_Mode ConvertModeToLLD(VL53L1_Error *pStatus,
 236:Drivers/BSP/Components/vl53l1cb/modules/vl53l1_api.c **** 		VL53L1_ThresholdMode CrossMode)
 237:Drivers/BSP/Components/vl53l1cb/modules/vl53l1_api.c **** {
 129              		.loc 1 237 1 is_stmt 1 view -0
 130              		.cfi_startproc
 131              		@ args = 0, pretend = 0, frame = 0
 132              		@ frame_needed = 0, uses_anonymous_args = 0
 133              		@ link register save eliminated.
 134              		.loc 1 237 1 is_stmt 0 view .LVU29
 135 0000 0346     		mov	r3, r0
 136 0002 0846     		mov	r0, r1
 137              	.LVL9:
 238:Drivers/BSP/Components/vl53l1cb/modules/vl53l1_api.c **** 	VL53L1_GPIO_Interrupt_Mode Mode;
 138              		.loc 1 238 2 is_stmt 1 view .LVU30
 239:Drivers/BSP/Components/vl53l1cb/modules/vl53l1_api.c **** 
 240:Drivers/BSP/Components/vl53l1cb/modules/vl53l1_api.c **** 	switch (CrossMode) {
 139              		.loc 1 240 2 view .LVU31
 140 0004 0329     		cmp	r1, #3
 141 0006 03D8     		bhi	.L13
 142 0008 DFE801F0 		tbb	[pc, r1]
 143              	.L15:
 144 000c 05       		.byte	(.L14-.L15)/2
 145 000d 05       		.byte	(.L14-.L15)/2
 146 000e 05       		.byte	(.L14-.L15)/2
 147 000f 05       		.byte	(.L14-.L15)/2
 148              		.p2align 1
 149              	.L13:
 241:Drivers/BSP/Components/vl53l1cb/modules/vl53l1_api.c **** 	case VL53L1_THRESHOLD_CROSSED_LOW:
 242:Drivers/BSP/Components/vl53l1cb/modules/vl53l1_api.c **** 		Mode = VL53L1_GPIOINTMODE_LEVEL_LOW;
 243:Drivers/BSP/Components/vl53l1cb/modules/vl53l1_api.c **** 		break;
 244:Drivers/BSP/Components/vl53l1cb/modules/vl53l1_api.c **** 	case VL53L1_THRESHOLD_CROSSED_HIGH:
 245:Drivers/BSP/Components/vl53l1cb/modules/vl53l1_api.c **** 		Mode = VL53L1_GPIOINTMODE_LEVEL_HIGH;
 246:Drivers/BSP/Components/vl53l1cb/modules/vl53l1_api.c **** 		break;
ARM GAS  C:\Temp\ccMpj0h9.s 			page 8


 247:Drivers/BSP/Components/vl53l1cb/modules/vl53l1_api.c **** 	case VL53L1_THRESHOLD_OUT_OF_WINDOW:
 248:Drivers/BSP/Components/vl53l1cb/modules/vl53l1_api.c **** 		Mode = VL53L1_GPIOINTMODE_OUT_OF_WINDOW;
 249:Drivers/BSP/Components/vl53l1cb/modules/vl53l1_api.c **** 		break;
 250:Drivers/BSP/Components/vl53l1cb/modules/vl53l1_api.c **** 	case VL53L1_THRESHOLD_IN_WINDOW:
 251:Drivers/BSP/Components/vl53l1cb/modules/vl53l1_api.c **** 		Mode = VL53L1_GPIOINTMODE_IN_WINDOW;
 252:Drivers/BSP/Components/vl53l1cb/modules/vl53l1_api.c **** 		break;
 253:Drivers/BSP/Components/vl53l1cb/modules/vl53l1_api.c **** 	default:
 254:Drivers/BSP/Components/vl53l1cb/modules/vl53l1_api.c **** 
 255:Drivers/BSP/Components/vl53l1cb/modules/vl53l1_api.c **** 		Mode = VL53L1_GPIOINTMODE_LEVEL_HIGH;
 150              		.loc 1 255 3 view .LVU32
 151              	.LVL10:
 256:Drivers/BSP/Components/vl53l1cb/modules/vl53l1_api.c **** 		*pStatus = VL53L1_ERROR_INVALID_PARAMS;
 152              		.loc 1 256 3 view .LVU33
 153              		.loc 1 256 12 is_stmt 0 view .LVU34
 154 0010 FC22     		movs	r2, #252
 155 0012 1A70     		strb	r2, [r3]
 255:Drivers/BSP/Components/vl53l1cb/modules/vl53l1_api.c **** 		*pStatus = VL53L1_ERROR_INVALID_PARAMS;
 156              		.loc 1 255 8 view .LVU35
 157 0014 0120     		movs	r0, #1
 158              	.LVL11:
 159              	.L14:
 257:Drivers/BSP/Components/vl53l1cb/modules/vl53l1_api.c **** 	}
 258:Drivers/BSP/Components/vl53l1cb/modules/vl53l1_api.c **** 	return Mode;
 160              		.loc 1 258 2 is_stmt 1 view .LVU36
 259:Drivers/BSP/Components/vl53l1cb/modules/vl53l1_api.c **** }
 161              		.loc 1 259 1 is_stmt 0 view .LVU37
 162 0016 7047     		bx	lr
 163              		.cfi_endproc
 164              	.LFE5:
 166              		.section	.text.ConvertModeFromLLD,"ax",%progbits
 167              		.align	1
 168              		.syntax unified
 169              		.thumb
 170              		.thumb_func
 172              	ConvertModeFromLLD:
 173              	.LVL12:
 174              	.LFB6:
 260:Drivers/BSP/Components/vl53l1cb/modules/vl53l1_api.c **** 
 261:Drivers/BSP/Components/vl53l1cb/modules/vl53l1_api.c **** static VL53L1_ThresholdMode ConvertModeFromLLD(VL53L1_Error *pStatus,
 262:Drivers/BSP/Components/vl53l1cb/modules/vl53l1_api.c **** 		VL53L1_GPIO_Interrupt_Mode CrossMode)
 263:Drivers/BSP/Components/vl53l1cb/modules/vl53l1_api.c **** {
 175              		.loc 1 263 1 is_stmt 1 view -0
 176              		.cfi_startproc
 177              		@ args = 0, pretend = 0, frame = 0
 178              		@ frame_needed = 0, uses_anonymous_args = 0
 179              		@ link register save eliminated.
 180              		.loc 1 263 1 is_stmt 0 view .LVU39
 181 0000 0346     		mov	r3, r0
 182 0002 0846     		mov	r0, r1
 183              	.LVL13:
 264:Drivers/BSP/Components/vl53l1cb/modules/vl53l1_api.c **** 	VL53L1_ThresholdMode Mode;
 184              		.loc 1 264 2 is_stmt 1 view .LVU40
 265:Drivers/BSP/Components/vl53l1cb/modules/vl53l1_api.c **** 
 266:Drivers/BSP/Components/vl53l1cb/modules/vl53l1_api.c **** 	switch (CrossMode) {
 185              		.loc 1 266 2 view .LVU41
 186 0004 0329     		cmp	r1, #3
 187 0006 03D8     		bhi	.L18
ARM GAS  C:\Temp\ccMpj0h9.s 			page 9


 188 0008 DFE801F0 		tbb	[pc, r1]
 189              	.L20:
 190 000c 05       		.byte	(.L19-.L20)/2
 191 000d 05       		.byte	(.L19-.L20)/2
 192 000e 05       		.byte	(.L19-.L20)/2
 193 000f 05       		.byte	(.L19-.L20)/2
 194              		.p2align 1
 195              	.L18:
 267:Drivers/BSP/Components/vl53l1cb/modules/vl53l1_api.c **** 	case VL53L1_GPIOINTMODE_LEVEL_LOW:
 268:Drivers/BSP/Components/vl53l1cb/modules/vl53l1_api.c **** 		Mode = VL53L1_THRESHOLD_CROSSED_LOW;
 269:Drivers/BSP/Components/vl53l1cb/modules/vl53l1_api.c **** 		break;
 270:Drivers/BSP/Components/vl53l1cb/modules/vl53l1_api.c **** 	case VL53L1_GPIOINTMODE_LEVEL_HIGH:
 271:Drivers/BSP/Components/vl53l1cb/modules/vl53l1_api.c **** 		Mode = VL53L1_THRESHOLD_CROSSED_HIGH;
 272:Drivers/BSP/Components/vl53l1cb/modules/vl53l1_api.c **** 		break;
 273:Drivers/BSP/Components/vl53l1cb/modules/vl53l1_api.c **** 	case VL53L1_GPIOINTMODE_OUT_OF_WINDOW:
 274:Drivers/BSP/Components/vl53l1cb/modules/vl53l1_api.c **** 		Mode = VL53L1_THRESHOLD_OUT_OF_WINDOW;
 275:Drivers/BSP/Components/vl53l1cb/modules/vl53l1_api.c **** 		break;
 276:Drivers/BSP/Components/vl53l1cb/modules/vl53l1_api.c **** 	case VL53L1_GPIOINTMODE_IN_WINDOW:
 277:Drivers/BSP/Components/vl53l1cb/modules/vl53l1_api.c **** 		Mode = VL53L1_THRESHOLD_IN_WINDOW;
 278:Drivers/BSP/Components/vl53l1cb/modules/vl53l1_api.c **** 		break;
 279:Drivers/BSP/Components/vl53l1cb/modules/vl53l1_api.c **** 	default:
 280:Drivers/BSP/Components/vl53l1cb/modules/vl53l1_api.c **** 
 281:Drivers/BSP/Components/vl53l1cb/modules/vl53l1_api.c **** 		Mode = VL53L1_THRESHOLD_CROSSED_HIGH;
 196              		.loc 1 281 3 view .LVU42
 197              	.LVL14:
 282:Drivers/BSP/Components/vl53l1cb/modules/vl53l1_api.c **** 		*pStatus = VL53L1_ERROR_UNDEFINED;
 198              		.loc 1 282 3 view .LVU43
 199              		.loc 1 282 12 is_stmt 0 view .LVU44
 200 0010 FD22     		movs	r2, #253
 201 0012 1A70     		strb	r2, [r3]
 281:Drivers/BSP/Components/vl53l1cb/modules/vl53l1_api.c **** 		*pStatus = VL53L1_ERROR_UNDEFINED;
 202              		.loc 1 281 8 view .LVU45
 203 0014 0120     		movs	r0, #1
 204              	.LVL15:
 205              	.L19:
 283:Drivers/BSP/Components/vl53l1cb/modules/vl53l1_api.c **** 	}
 284:Drivers/BSP/Components/vl53l1cb/modules/vl53l1_api.c **** 	return Mode;
 206              		.loc 1 284 2 is_stmt 1 view .LVU46
 285:Drivers/BSP/Components/vl53l1cb/modules/vl53l1_api.c **** }
 207              		.loc 1 285 1 is_stmt 0 view .LVU47
 208 0016 7047     		bx	lr
 209              		.cfi_endproc
 210              	.LFE6:
 212              		.section	.rodata.ComputeDevicePresetMode.str1.4,"aMS",%progbits,1
 213              		.align	2
 214              	.LC0:
 215 0000 02010300 		.ascii	"\002\001\003\000"
 216              		.align	2
 217              	.LC1:
 218 0004 211E1B00 		.ascii	"!\036\033\000"
 219              		.align	2
 220              	.LC2:
 221 0008 19181A00 		.ascii	"\031\030\032\000"
 222              		.align	2
 223              	.LC3:
 224 000c 07060800 		.ascii	"\007\006\010\000"
 225              		.align	2
ARM GAS  C:\Temp\ccMpj0h9.s 			page 10


 226              	.LC4:
 227 0010 24252600 		.ascii	"$%&\000"
 228              		.section	.text.ComputeDevicePresetMode,"ax",%progbits
 229              		.align	1
 230              		.syntax unified
 231              		.thumb
 232              		.thumb_func
 234              	ComputeDevicePresetMode:
 235              	.LVL16:
 236              	.LFB19:
 286:Drivers/BSP/Components/vl53l1cb/modules/vl53l1_api.c **** 
 287:Drivers/BSP/Components/vl53l1cb/modules/vl53l1_api.c **** 
 288:Drivers/BSP/Components/vl53l1cb/modules/vl53l1_api.c **** 
 289:Drivers/BSP/Components/vl53l1cb/modules/vl53l1_api.c **** VL53L1_Error VL53L1_GetVersion(VL53L1_Version_t *pVersion)
 290:Drivers/BSP/Components/vl53l1cb/modules/vl53l1_api.c **** {
 291:Drivers/BSP/Components/vl53l1cb/modules/vl53l1_api.c **** 	VL53L1_Error Status = VL53L1_ERROR_NONE;
 292:Drivers/BSP/Components/vl53l1cb/modules/vl53l1_api.c **** 
 293:Drivers/BSP/Components/vl53l1cb/modules/vl53l1_api.c **** 	LOG_FUNCTION_START("");
 294:Drivers/BSP/Components/vl53l1cb/modules/vl53l1_api.c **** 
 295:Drivers/BSP/Components/vl53l1cb/modules/vl53l1_api.c **** 	pVersion->major = VL53L1_IMPLEMENTATION_VER_MAJOR;
 296:Drivers/BSP/Components/vl53l1cb/modules/vl53l1_api.c **** 	pVersion->minor = VL53L1_IMPLEMENTATION_VER_MINOR;
 297:Drivers/BSP/Components/vl53l1cb/modules/vl53l1_api.c **** 	pVersion->build = VL53L1_IMPLEMENTATION_VER_SUB;
 298:Drivers/BSP/Components/vl53l1cb/modules/vl53l1_api.c **** 
 299:Drivers/BSP/Components/vl53l1cb/modules/vl53l1_api.c **** 	pVersion->revision = VL53L1_IMPLEMENTATION_VER_REVISION;
 300:Drivers/BSP/Components/vl53l1cb/modules/vl53l1_api.c **** 
 301:Drivers/BSP/Components/vl53l1cb/modules/vl53l1_api.c **** 	LOG_FUNCTION_END(Status);
 302:Drivers/BSP/Components/vl53l1cb/modules/vl53l1_api.c **** 	return Status;
 303:Drivers/BSP/Components/vl53l1cb/modules/vl53l1_api.c **** }
 304:Drivers/BSP/Components/vl53l1cb/modules/vl53l1_api.c **** 
 305:Drivers/BSP/Components/vl53l1cb/modules/vl53l1_api.c **** VL53L1_Error VL53L1_GetProductRevision(VL53L1_DEV Dev,
 306:Drivers/BSP/Components/vl53l1cb/modules/vl53l1_api.c **** 	uint8_t *pProductRevisionMajor, uint8_t *pProductRevisionMinor)
 307:Drivers/BSP/Components/vl53l1cb/modules/vl53l1_api.c **** {
 308:Drivers/BSP/Components/vl53l1cb/modules/vl53l1_api.c **** 	VL53L1_Error Status = VL53L1_ERROR_NONE;
 309:Drivers/BSP/Components/vl53l1cb/modules/vl53l1_api.c **** 	uint8_t revision_id;
 310:Drivers/BSP/Components/vl53l1cb/modules/vl53l1_api.c **** 	VL53L1_LLDriverData_t   *pLLData;
 311:Drivers/BSP/Components/vl53l1cb/modules/vl53l1_api.c **** 
 312:Drivers/BSP/Components/vl53l1cb/modules/vl53l1_api.c **** 	LOG_FUNCTION_START("");
 313:Drivers/BSP/Components/vl53l1cb/modules/vl53l1_api.c **** 
 314:Drivers/BSP/Components/vl53l1cb/modules/vl53l1_api.c **** 	pLLData =  VL53L1DevStructGetLLDriverHandle(Dev);
 315:Drivers/BSP/Components/vl53l1cb/modules/vl53l1_api.c **** 	revision_id = pLLData->nvm_copy_data.identification__revision_id;
 316:Drivers/BSP/Components/vl53l1cb/modules/vl53l1_api.c **** 	*pProductRevisionMajor = 1;
 317:Drivers/BSP/Components/vl53l1cb/modules/vl53l1_api.c **** 	*pProductRevisionMinor = (revision_id & 0xF0) >> 4;
 318:Drivers/BSP/Components/vl53l1cb/modules/vl53l1_api.c **** 
 319:Drivers/BSP/Components/vl53l1cb/modules/vl53l1_api.c **** 	LOG_FUNCTION_END(Status);
 320:Drivers/BSP/Components/vl53l1cb/modules/vl53l1_api.c **** 	return Status;
 321:Drivers/BSP/Components/vl53l1cb/modules/vl53l1_api.c **** 
 322:Drivers/BSP/Components/vl53l1cb/modules/vl53l1_api.c **** }
 323:Drivers/BSP/Components/vl53l1cb/modules/vl53l1_api.c **** 
 324:Drivers/BSP/Components/vl53l1cb/modules/vl53l1_api.c **** VL53L1_Error VL53L1_GetDeviceInfo(VL53L1_DEV Dev,
 325:Drivers/BSP/Components/vl53l1cb/modules/vl53l1_api.c **** 	VL53L1_DeviceInfo_t *pVL53L1_DeviceInfo)
 326:Drivers/BSP/Components/vl53l1cb/modules/vl53l1_api.c **** {
 327:Drivers/BSP/Components/vl53l1cb/modules/vl53l1_api.c **** 	VL53L1_Error Status = VL53L1_ERROR_NONE;
 328:Drivers/BSP/Components/vl53l1cb/modules/vl53l1_api.c **** 	uint8_t revision_id;
 329:Drivers/BSP/Components/vl53l1cb/modules/vl53l1_api.c **** 	VL53L1_LLDriverData_t   *pLLData;
 330:Drivers/BSP/Components/vl53l1cb/modules/vl53l1_api.c **** 
 331:Drivers/BSP/Components/vl53l1cb/modules/vl53l1_api.c **** 	LOG_FUNCTION_START("");
 332:Drivers/BSP/Components/vl53l1cb/modules/vl53l1_api.c **** 
ARM GAS  C:\Temp\ccMpj0h9.s 			page 11


 333:Drivers/BSP/Components/vl53l1cb/modules/vl53l1_api.c **** 	pLLData =  VL53L1DevStructGetLLDriverHandle(Dev);
 334:Drivers/BSP/Components/vl53l1cb/modules/vl53l1_api.c **** 
 335:Drivers/BSP/Components/vl53l1cb/modules/vl53l1_api.c **** 	strncpy(pVL53L1_DeviceInfo->ProductId, "",
 336:Drivers/BSP/Components/vl53l1cb/modules/vl53l1_api.c **** 			VL53L1_DEVINFO_STRLEN-1);
 337:Drivers/BSP/Components/vl53l1cb/modules/vl53l1_api.c **** 	pVL53L1_DeviceInfo->ProductType =
 338:Drivers/BSP/Components/vl53l1cb/modules/vl53l1_api.c **** 			pLLData->nvm_copy_data.identification__module_type;
 339:Drivers/BSP/Components/vl53l1cb/modules/vl53l1_api.c **** 
 340:Drivers/BSP/Components/vl53l1cb/modules/vl53l1_api.c **** 	revision_id = pLLData->nvm_copy_data.identification__revision_id;
 341:Drivers/BSP/Components/vl53l1cb/modules/vl53l1_api.c **** 	pVL53L1_DeviceInfo->ProductRevisionMajor = 1;
 342:Drivers/BSP/Components/vl53l1cb/modules/vl53l1_api.c **** 	pVL53L1_DeviceInfo->ProductRevisionMinor = (revision_id & 0xF0) >> 4;
 343:Drivers/BSP/Components/vl53l1cb/modules/vl53l1_api.c **** 
 344:Drivers/BSP/Components/vl53l1cb/modules/vl53l1_api.c **** #ifndef VL53L1_USE_EMPTY_STRING
 345:Drivers/BSP/Components/vl53l1cb/modules/vl53l1_api.c **** 	if (pVL53L1_DeviceInfo->ProductRevisionMinor == 0)
 346:Drivers/BSP/Components/vl53l1cb/modules/vl53l1_api.c **** 		strncpy(pVL53L1_DeviceInfo->Name,
 347:Drivers/BSP/Components/vl53l1cb/modules/vl53l1_api.c **** 				VL53L1_STRING_DEVICE_INFO_NAME0,
 348:Drivers/BSP/Components/vl53l1cb/modules/vl53l1_api.c **** 				VL53L1_DEVINFO_STRLEN-1);
 349:Drivers/BSP/Components/vl53l1cb/modules/vl53l1_api.c **** 	else
 350:Drivers/BSP/Components/vl53l1cb/modules/vl53l1_api.c **** 		strncpy(pVL53L1_DeviceInfo->Name,
 351:Drivers/BSP/Components/vl53l1cb/modules/vl53l1_api.c **** 				VL53L1_STRING_DEVICE_INFO_NAME1,
 352:Drivers/BSP/Components/vl53l1cb/modules/vl53l1_api.c **** 				VL53L1_DEVINFO_STRLEN-1);
 353:Drivers/BSP/Components/vl53l1cb/modules/vl53l1_api.c **** 	strncpy(pVL53L1_DeviceInfo->Type,
 354:Drivers/BSP/Components/vl53l1cb/modules/vl53l1_api.c **** 			VL53L1_STRING_DEVICE_INFO_TYPE,
 355:Drivers/BSP/Components/vl53l1cb/modules/vl53l1_api.c **** 			VL53L1_DEVINFO_STRLEN-1);
 356:Drivers/BSP/Components/vl53l1cb/modules/vl53l1_api.c **** 
 357:Drivers/BSP/Components/vl53l1cb/modules/vl53l1_api.c **** 	if (pVL53L1_DeviceInfo->ProductType == 0xAA) {
 358:Drivers/BSP/Components/vl53l1cb/modules/vl53l1_api.c **** 		pVL53L1_DeviceInfo->Name[5] = '3';
 359:Drivers/BSP/Components/vl53l1cb/modules/vl53l1_api.c **** 		pVL53L1_DeviceInfo->Type[5] = '3';
 360:Drivers/BSP/Components/vl53l1cb/modules/vl53l1_api.c **** 	}
 361:Drivers/BSP/Components/vl53l1cb/modules/vl53l1_api.c **** #else
 362:Drivers/BSP/Components/vl53l1cb/modules/vl53l1_api.c **** 	pVL53L1_DeviceInfo->Name[0] = 0;
 363:Drivers/BSP/Components/vl53l1cb/modules/vl53l1_api.c **** 	pVL53L1_DeviceInfo->Type[0] = 0;
 364:Drivers/BSP/Components/vl53l1cb/modules/vl53l1_api.c **** #endif
 365:Drivers/BSP/Components/vl53l1cb/modules/vl53l1_api.c **** 
 366:Drivers/BSP/Components/vl53l1cb/modules/vl53l1_api.c **** 	LOG_FUNCTION_END(Status);
 367:Drivers/BSP/Components/vl53l1cb/modules/vl53l1_api.c **** 	return Status;
 368:Drivers/BSP/Components/vl53l1cb/modules/vl53l1_api.c **** }
 369:Drivers/BSP/Components/vl53l1cb/modules/vl53l1_api.c **** 
 370:Drivers/BSP/Components/vl53l1cb/modules/vl53l1_api.c **** VL53L1_Error VL53L1_GetUID(VL53L1_DEV Dev, uint64_t *pUid)
 371:Drivers/BSP/Components/vl53l1cb/modules/vl53l1_api.c **** {
 372:Drivers/BSP/Components/vl53l1cb/modules/vl53l1_api.c **** 	VL53L1_Error Status = VL53L1_ERROR_NONE;
 373:Drivers/BSP/Components/vl53l1cb/modules/vl53l1_api.c **** 	uint8_t fmtdata[8];
 374:Drivers/BSP/Components/vl53l1cb/modules/vl53l1_api.c **** 
 375:Drivers/BSP/Components/vl53l1cb/modules/vl53l1_api.c **** 	LOG_FUNCTION_START("");
 376:Drivers/BSP/Components/vl53l1cb/modules/vl53l1_api.c **** 
 377:Drivers/BSP/Components/vl53l1cb/modules/vl53l1_api.c **** 	Status = VL53L1_read_nvm_raw_data(Dev,
 378:Drivers/BSP/Components/vl53l1cb/modules/vl53l1_api.c **** 			(uint8_t)(0x1F8 >> 2),
 379:Drivers/BSP/Components/vl53l1cb/modules/vl53l1_api.c **** 			(uint8_t)(8 >> 2),
 380:Drivers/BSP/Components/vl53l1cb/modules/vl53l1_api.c **** 			fmtdata);
 381:Drivers/BSP/Components/vl53l1cb/modules/vl53l1_api.c **** 	memcpy(pUid, fmtdata, sizeof(uint64_t));
 382:Drivers/BSP/Components/vl53l1cb/modules/vl53l1_api.c **** 
 383:Drivers/BSP/Components/vl53l1cb/modules/vl53l1_api.c **** 	LOG_FUNCTION_END(Status);
 384:Drivers/BSP/Components/vl53l1cb/modules/vl53l1_api.c **** 	return Status;
 385:Drivers/BSP/Components/vl53l1cb/modules/vl53l1_api.c **** }
 386:Drivers/BSP/Components/vl53l1cb/modules/vl53l1_api.c **** 
 387:Drivers/BSP/Components/vl53l1cb/modules/vl53l1_api.c **** VL53L1_Error VL53L1_GetRangeStatusString(uint8_t RangeStatus,
 388:Drivers/BSP/Components/vl53l1cb/modules/vl53l1_api.c **** 	char *pRangeStatusString)
 389:Drivers/BSP/Components/vl53l1cb/modules/vl53l1_api.c **** {
ARM GAS  C:\Temp\ccMpj0h9.s 			page 12


 390:Drivers/BSP/Components/vl53l1cb/modules/vl53l1_api.c **** 	VL53L1_Error Status = VL53L1_ERROR_NONE;
 391:Drivers/BSP/Components/vl53l1cb/modules/vl53l1_api.c **** 
 392:Drivers/BSP/Components/vl53l1cb/modules/vl53l1_api.c **** 	LOG_FUNCTION_START("");
 393:Drivers/BSP/Components/vl53l1cb/modules/vl53l1_api.c **** 
 394:Drivers/BSP/Components/vl53l1cb/modules/vl53l1_api.c **** 	Status = VL53L1_get_range_status_string(RangeStatus,
 395:Drivers/BSP/Components/vl53l1cb/modules/vl53l1_api.c **** 		pRangeStatusString);
 396:Drivers/BSP/Components/vl53l1cb/modules/vl53l1_api.c **** 
 397:Drivers/BSP/Components/vl53l1cb/modules/vl53l1_api.c **** 	LOG_FUNCTION_END(Status);
 398:Drivers/BSP/Components/vl53l1cb/modules/vl53l1_api.c **** 	return Status;
 399:Drivers/BSP/Components/vl53l1cb/modules/vl53l1_api.c **** }
 400:Drivers/BSP/Components/vl53l1cb/modules/vl53l1_api.c **** 
 401:Drivers/BSP/Components/vl53l1cb/modules/vl53l1_api.c **** VL53L1_Error VL53L1_GetPalErrorString(VL53L1_Error PalErrorCode,
 402:Drivers/BSP/Components/vl53l1cb/modules/vl53l1_api.c **** 	char *pPalErrorString)
 403:Drivers/BSP/Components/vl53l1cb/modules/vl53l1_api.c **** {
 404:Drivers/BSP/Components/vl53l1cb/modules/vl53l1_api.c **** 	VL53L1_Error Status = VL53L1_ERROR_NONE;
 405:Drivers/BSP/Components/vl53l1cb/modules/vl53l1_api.c **** 
 406:Drivers/BSP/Components/vl53l1cb/modules/vl53l1_api.c **** 	LOG_FUNCTION_START("");
 407:Drivers/BSP/Components/vl53l1cb/modules/vl53l1_api.c **** 
 408:Drivers/BSP/Components/vl53l1cb/modules/vl53l1_api.c **** 	Status = VL53L1_get_pal_error_string(PalErrorCode, pPalErrorString);
 409:Drivers/BSP/Components/vl53l1cb/modules/vl53l1_api.c **** 
 410:Drivers/BSP/Components/vl53l1cb/modules/vl53l1_api.c **** 	LOG_FUNCTION_END(Status);
 411:Drivers/BSP/Components/vl53l1cb/modules/vl53l1_api.c **** 	return Status;
 412:Drivers/BSP/Components/vl53l1cb/modules/vl53l1_api.c **** }
 413:Drivers/BSP/Components/vl53l1cb/modules/vl53l1_api.c **** 
 414:Drivers/BSP/Components/vl53l1cb/modules/vl53l1_api.c **** VL53L1_Error VL53L1_GetPalStateString(VL53L1_State PalStateCode,
 415:Drivers/BSP/Components/vl53l1cb/modules/vl53l1_api.c **** 	char *pPalStateString)
 416:Drivers/BSP/Components/vl53l1cb/modules/vl53l1_api.c **** {
 417:Drivers/BSP/Components/vl53l1cb/modules/vl53l1_api.c **** 	VL53L1_Error Status = VL53L1_ERROR_NONE;
 418:Drivers/BSP/Components/vl53l1cb/modules/vl53l1_api.c **** 
 419:Drivers/BSP/Components/vl53l1cb/modules/vl53l1_api.c **** 	LOG_FUNCTION_START("");
 420:Drivers/BSP/Components/vl53l1cb/modules/vl53l1_api.c **** 
 421:Drivers/BSP/Components/vl53l1cb/modules/vl53l1_api.c **** 	Status = VL53L1_get_pal_state_string(PalStateCode, pPalStateString);
 422:Drivers/BSP/Components/vl53l1cb/modules/vl53l1_api.c **** 
 423:Drivers/BSP/Components/vl53l1cb/modules/vl53l1_api.c **** 	LOG_FUNCTION_END(Status);
 424:Drivers/BSP/Components/vl53l1cb/modules/vl53l1_api.c **** 	return Status;
 425:Drivers/BSP/Components/vl53l1cb/modules/vl53l1_api.c **** }
 426:Drivers/BSP/Components/vl53l1cb/modules/vl53l1_api.c **** 
 427:Drivers/BSP/Components/vl53l1cb/modules/vl53l1_api.c **** VL53L1_Error VL53L1_GetPalState(VL53L1_DEV Dev, VL53L1_State *pPalState)
 428:Drivers/BSP/Components/vl53l1cb/modules/vl53l1_api.c **** {
 429:Drivers/BSP/Components/vl53l1cb/modules/vl53l1_api.c **** 	VL53L1_Error Status = VL53L1_ERROR_NONE;
 430:Drivers/BSP/Components/vl53l1cb/modules/vl53l1_api.c **** 
 431:Drivers/BSP/Components/vl53l1cb/modules/vl53l1_api.c **** 	LOG_FUNCTION_START("");
 432:Drivers/BSP/Components/vl53l1cb/modules/vl53l1_api.c **** 
 433:Drivers/BSP/Components/vl53l1cb/modules/vl53l1_api.c **** 	*pPalState = VL53L1DevDataGet(Dev, PalState);
 434:Drivers/BSP/Components/vl53l1cb/modules/vl53l1_api.c **** 
 435:Drivers/BSP/Components/vl53l1cb/modules/vl53l1_api.c **** 	LOG_FUNCTION_END(Status);
 436:Drivers/BSP/Components/vl53l1cb/modules/vl53l1_api.c **** 	return Status;
 437:Drivers/BSP/Components/vl53l1cb/modules/vl53l1_api.c **** }
 438:Drivers/BSP/Components/vl53l1cb/modules/vl53l1_api.c **** 
 439:Drivers/BSP/Components/vl53l1cb/modules/vl53l1_api.c **** 
 440:Drivers/BSP/Components/vl53l1cb/modules/vl53l1_api.c **** 
 441:Drivers/BSP/Components/vl53l1cb/modules/vl53l1_api.c **** 
 442:Drivers/BSP/Components/vl53l1cb/modules/vl53l1_api.c **** VL53L1_Error VL53L1_SetDeviceAddress(VL53L1_DEV Dev, uint8_t DeviceAddress)
 443:Drivers/BSP/Components/vl53l1cb/modules/vl53l1_api.c **** {
 444:Drivers/BSP/Components/vl53l1cb/modules/vl53l1_api.c **** 	VL53L1_Error Status = VL53L1_ERROR_NONE;
 445:Drivers/BSP/Components/vl53l1cb/modules/vl53l1_api.c **** 	VL53L1_LLDriverData_t *pdev = VL53L1DevStructGetLLDriverHandle(Dev);
 446:Drivers/BSP/Components/vl53l1cb/modules/vl53l1_api.c **** 	VL53L1_static_nvm_managed_t  *pdata = &(pdev->stat_nvm);
ARM GAS  C:\Temp\ccMpj0h9.s 			page 13


 447:Drivers/BSP/Components/vl53l1cb/modules/vl53l1_api.c **** 
 448:Drivers/BSP/Components/vl53l1cb/modules/vl53l1_api.c **** 	LOG_FUNCTION_START("");
 449:Drivers/BSP/Components/vl53l1cb/modules/vl53l1_api.c **** 
 450:Drivers/BSP/Components/vl53l1cb/modules/vl53l1_api.c **** 	Status = VL53L1_WrByte(Dev, VL53L1_I2C_SLAVE__DEVICE_ADDRESS,
 451:Drivers/BSP/Components/vl53l1cb/modules/vl53l1_api.c **** 			DeviceAddress / 2);
 452:Drivers/BSP/Components/vl53l1cb/modules/vl53l1_api.c **** 
 453:Drivers/BSP/Components/vl53l1cb/modules/vl53l1_api.c **** 	pdata->i2c_slave__device_address = (DeviceAddress / 2) & 0x7F;
 454:Drivers/BSP/Components/vl53l1cb/modules/vl53l1_api.c **** 
 455:Drivers/BSP/Components/vl53l1cb/modules/vl53l1_api.c **** 	LOG_FUNCTION_END(Status);
 456:Drivers/BSP/Components/vl53l1cb/modules/vl53l1_api.c **** 	return Status;
 457:Drivers/BSP/Components/vl53l1cb/modules/vl53l1_api.c **** }
 458:Drivers/BSP/Components/vl53l1cb/modules/vl53l1_api.c **** 
 459:Drivers/BSP/Components/vl53l1cb/modules/vl53l1_api.c **** VL53L1_Error VL53L1_DataInit(VL53L1_DEV Dev)
 460:Drivers/BSP/Components/vl53l1cb/modules/vl53l1_api.c **** {
 461:Drivers/BSP/Components/vl53l1cb/modules/vl53l1_api.c **** 	VL53L1_Error Status = VL53L1_ERROR_NONE;
 462:Drivers/BSP/Components/vl53l1cb/modules/vl53l1_api.c **** 	uint8_t i;
 463:Drivers/BSP/Components/vl53l1cb/modules/vl53l1_api.c **** 	VL53L1_LLDriverData_t *pdev;
 464:Drivers/BSP/Components/vl53l1cb/modules/vl53l1_api.c **** 
 465:Drivers/BSP/Components/vl53l1cb/modules/vl53l1_api.c **** 	LOG_FUNCTION_START("");
 466:Drivers/BSP/Components/vl53l1cb/modules/vl53l1_api.c **** 
 467:Drivers/BSP/Components/vl53l1cb/modules/vl53l1_api.c **** 
 468:Drivers/BSP/Components/vl53l1cb/modules/vl53l1_api.c **** #ifdef USE_I2C_2V8
 469:Drivers/BSP/Components/vl53l1cb/modules/vl53l1_api.c **** 	Status = VL53L1_RdByte(Dev, VL53L1_PAD_I2C_HV__EXTSUP_CONFIG, &i);
 470:Drivers/BSP/Components/vl53l1cb/modules/vl53l1_api.c **** 	if (Status == VL53L1_ERROR_NONE) {
 471:Drivers/BSP/Components/vl53l1cb/modules/vl53l1_api.c **** 		i = (i & 0xfe) | 0x01;
 472:Drivers/BSP/Components/vl53l1cb/modules/vl53l1_api.c **** 		Status = VL53L1_WrByte(Dev, VL53L1_PAD_I2C_HV__EXTSUP_CONFIG,
 473:Drivers/BSP/Components/vl53l1cb/modules/vl53l1_api.c **** 				i);
 474:Drivers/BSP/Components/vl53l1cb/modules/vl53l1_api.c **** 	}
 475:Drivers/BSP/Components/vl53l1cb/modules/vl53l1_api.c **** #endif
 476:Drivers/BSP/Components/vl53l1cb/modules/vl53l1_api.c **** 
 477:Drivers/BSP/Components/vl53l1cb/modules/vl53l1_api.c **** 	if (Status == VL53L1_ERROR_NONE)
 478:Drivers/BSP/Components/vl53l1cb/modules/vl53l1_api.c **** 		Status = VL53L1_data_init(Dev, 1);
 479:Drivers/BSP/Components/vl53l1cb/modules/vl53l1_api.c **** 
 480:Drivers/BSP/Components/vl53l1cb/modules/vl53l1_api.c **** 	if (Status == VL53L1_ERROR_NONE) {
 481:Drivers/BSP/Components/vl53l1cb/modules/vl53l1_api.c **** 		pdev = VL53L1DevStructGetLLDriverHandle(Dev);
 482:Drivers/BSP/Components/vl53l1cb/modules/vl53l1_api.c **** 		memset(&pdev->per_vcsel_cal_data, 0,
 483:Drivers/BSP/Components/vl53l1cb/modules/vl53l1_api.c **** 				sizeof(pdev->per_vcsel_cal_data));
 484:Drivers/BSP/Components/vl53l1cb/modules/vl53l1_api.c **** 	}
 485:Drivers/BSP/Components/vl53l1cb/modules/vl53l1_api.c **** 
 486:Drivers/BSP/Components/vl53l1cb/modules/vl53l1_api.c **** 	if (Status == VL53L1_ERROR_NONE)
 487:Drivers/BSP/Components/vl53l1cb/modules/vl53l1_api.c **** 		VL53L1DevDataSet(Dev, PalState, VL53L1_STATE_WAIT_STATICINIT);
 488:Drivers/BSP/Components/vl53l1cb/modules/vl53l1_api.c **** 
 489:Drivers/BSP/Components/vl53l1cb/modules/vl53l1_api.c **** 
 490:Drivers/BSP/Components/vl53l1cb/modules/vl53l1_api.c **** 	for (i = 0; i < VL53L1_CHECKENABLE_NUMBER_OF_CHECKS; i++) {
 491:Drivers/BSP/Components/vl53l1cb/modules/vl53l1_api.c **** 		if (Status == VL53L1_ERROR_NONE)
 492:Drivers/BSP/Components/vl53l1cb/modules/vl53l1_api.c **** 			Status |= VL53L1_SetLimitCheckEnable(Dev, i, 1);
 493:Drivers/BSP/Components/vl53l1cb/modules/vl53l1_api.c **** 		else
 494:Drivers/BSP/Components/vl53l1cb/modules/vl53l1_api.c **** 			break;
 495:Drivers/BSP/Components/vl53l1cb/modules/vl53l1_api.c **** 
 496:Drivers/BSP/Components/vl53l1cb/modules/vl53l1_api.c **** 	}
 497:Drivers/BSP/Components/vl53l1cb/modules/vl53l1_api.c **** 
 498:Drivers/BSP/Components/vl53l1cb/modules/vl53l1_api.c **** 
 499:Drivers/BSP/Components/vl53l1cb/modules/vl53l1_api.c **** 	if (Status == VL53L1_ERROR_NONE) {
 500:Drivers/BSP/Components/vl53l1cb/modules/vl53l1_api.c **** 		Status = VL53L1_set_dmax_mode(Dev,
 501:Drivers/BSP/Components/vl53l1cb/modules/vl53l1_api.c **** 				VL53L1_DEVICEDMAXMODE__CUST_CAL_DATA);
 502:Drivers/BSP/Components/vl53l1cb/modules/vl53l1_api.c **** 	}
 503:Drivers/BSP/Components/vl53l1cb/modules/vl53l1_api.c **** 
ARM GAS  C:\Temp\ccMpj0h9.s 			page 14


 504:Drivers/BSP/Components/vl53l1cb/modules/vl53l1_api.c **** 
 505:Drivers/BSP/Components/vl53l1cb/modules/vl53l1_api.c **** 	LOG_FUNCTION_END(Status);
 506:Drivers/BSP/Components/vl53l1cb/modules/vl53l1_api.c **** 	return Status;
 507:Drivers/BSP/Components/vl53l1cb/modules/vl53l1_api.c **** }
 508:Drivers/BSP/Components/vl53l1cb/modules/vl53l1_api.c **** 
 509:Drivers/BSP/Components/vl53l1cb/modules/vl53l1_api.c **** 
 510:Drivers/BSP/Components/vl53l1cb/modules/vl53l1_api.c **** VL53L1_Error VL53L1_StaticInit(VL53L1_DEV Dev)
 511:Drivers/BSP/Components/vl53l1cb/modules/vl53l1_api.c **** {
 512:Drivers/BSP/Components/vl53l1cb/modules/vl53l1_api.c **** 	VL53L1_Error Status = VL53L1_ERROR_NONE;
 513:Drivers/BSP/Components/vl53l1cb/modules/vl53l1_api.c **** 	uint8_t  measurement_mode;
 514:Drivers/BSP/Components/vl53l1cb/modules/vl53l1_api.c **** 
 515:Drivers/BSP/Components/vl53l1cb/modules/vl53l1_api.c **** 	LOG_FUNCTION_START("");
 516:Drivers/BSP/Components/vl53l1cb/modules/vl53l1_api.c **** 
 517:Drivers/BSP/Components/vl53l1cb/modules/vl53l1_api.c **** 	VL53L1DevDataSet(Dev, PalState, VL53L1_STATE_IDLE);
 518:Drivers/BSP/Components/vl53l1cb/modules/vl53l1_api.c **** 
 519:Drivers/BSP/Components/vl53l1cb/modules/vl53l1_api.c **** 	measurement_mode  = VL53L1_DEVICEMEASUREMENTMODE_BACKTOBACK;
 520:Drivers/BSP/Components/vl53l1cb/modules/vl53l1_api.c **** 	VL53L1DevDataSet(Dev, LLData.measurement_mode, measurement_mode);
 521:Drivers/BSP/Components/vl53l1cb/modules/vl53l1_api.c **** 
 522:Drivers/BSP/Components/vl53l1cb/modules/vl53l1_api.c **** 	Status = VL53L1_SetPresetMode(Dev,
 523:Drivers/BSP/Components/vl53l1cb/modules/vl53l1_api.c **** 			VL53L1_PRESETMODE_RANGING);
 524:Drivers/BSP/Components/vl53l1cb/modules/vl53l1_api.c **** 	VL53L1_SetDistanceMode(Dev,
 525:Drivers/BSP/Components/vl53l1cb/modules/vl53l1_api.c **** 			VL53L1_DISTANCEMODE_MEDIUM);
 526:Drivers/BSP/Components/vl53l1cb/modules/vl53l1_api.c **** 	VL53L1DevDataSet(Dev, CurrentParameters.OutputMode,
 527:Drivers/BSP/Components/vl53l1cb/modules/vl53l1_api.c **** 			VL53L1_OUTPUTMODE_NEAREST);
 528:Drivers/BSP/Components/vl53l1cb/modules/vl53l1_api.c **** 	VL53L1_SmudgeCorrectionEnable(Dev,
 529:Drivers/BSP/Components/vl53l1cb/modules/vl53l1_api.c **** 			VL53L1_SMUDGE_CORRECTION_NONE);
 530:Drivers/BSP/Components/vl53l1cb/modules/vl53l1_api.c **** 
 531:Drivers/BSP/Components/vl53l1cb/modules/vl53l1_api.c **** 	LOG_FUNCTION_END(Status);
 532:Drivers/BSP/Components/vl53l1cb/modules/vl53l1_api.c **** 	return Status;
 533:Drivers/BSP/Components/vl53l1cb/modules/vl53l1_api.c **** }
 534:Drivers/BSP/Components/vl53l1cb/modules/vl53l1_api.c **** 
 535:Drivers/BSP/Components/vl53l1cb/modules/vl53l1_api.c **** VL53L1_Error VL53L1_WaitDeviceBooted(VL53L1_DEV Dev)
 536:Drivers/BSP/Components/vl53l1cb/modules/vl53l1_api.c **** {
 537:Drivers/BSP/Components/vl53l1cb/modules/vl53l1_api.c **** 	VL53L1_Error Status = VL53L1_ERROR_NONE;
 538:Drivers/BSP/Components/vl53l1cb/modules/vl53l1_api.c **** 
 539:Drivers/BSP/Components/vl53l1cb/modules/vl53l1_api.c **** 	LOG_FUNCTION_START("");
 540:Drivers/BSP/Components/vl53l1cb/modules/vl53l1_api.c **** 
 541:Drivers/BSP/Components/vl53l1cb/modules/vl53l1_api.c **** 	Status = VL53L1_poll_for_boot_completion(Dev,
 542:Drivers/BSP/Components/vl53l1cb/modules/vl53l1_api.c **** 			VL53L1_BOOT_COMPLETION_POLLING_TIMEOUT_MS);
 543:Drivers/BSP/Components/vl53l1cb/modules/vl53l1_api.c **** 
 544:Drivers/BSP/Components/vl53l1cb/modules/vl53l1_api.c **** 	LOG_FUNCTION_END(Status);
 545:Drivers/BSP/Components/vl53l1cb/modules/vl53l1_api.c **** 	return Status;
 546:Drivers/BSP/Components/vl53l1cb/modules/vl53l1_api.c **** }
 547:Drivers/BSP/Components/vl53l1cb/modules/vl53l1_api.c **** 
 548:Drivers/BSP/Components/vl53l1cb/modules/vl53l1_api.c **** 
 549:Drivers/BSP/Components/vl53l1cb/modules/vl53l1_api.c **** 
 550:Drivers/BSP/Components/vl53l1cb/modules/vl53l1_api.c **** 
 551:Drivers/BSP/Components/vl53l1cb/modules/vl53l1_api.c **** static VL53L1_Error ComputeDevicePresetMode(
 552:Drivers/BSP/Components/vl53l1cb/modules/vl53l1_api.c **** 		VL53L1_PresetModes PresetMode,
 553:Drivers/BSP/Components/vl53l1cb/modules/vl53l1_api.c **** 		VL53L1_DistanceModes DistanceMode,
 554:Drivers/BSP/Components/vl53l1cb/modules/vl53l1_api.c **** 		VL53L1_DevicePresetModes *pDevicePresetMode)
 555:Drivers/BSP/Components/vl53l1cb/modules/vl53l1_api.c **** {
 237              		.loc 1 555 1 is_stmt 1 view -0
 238              		.cfi_startproc
 239              		@ args = 0, pretend = 0, frame = 24
 240              		@ frame_needed = 0, uses_anonymous_args = 0
 241              		@ link register save eliminated.
ARM GAS  C:\Temp\ccMpj0h9.s 			page 15


 242              		.loc 1 555 1 is_stmt 0 view .LVU49
 243 0000 86B0     		sub	sp, sp, #24
 244              		.cfi_def_cfa_offset 24
 556:Drivers/BSP/Components/vl53l1cb/modules/vl53l1_api.c **** 	VL53L1_Error Status = VL53L1_ERROR_NONE;
 245              		.loc 1 556 2 is_stmt 1 view .LVU50
 246              	.LVL17:
 557:Drivers/BSP/Components/vl53l1cb/modules/vl53l1_api.c **** 
 558:Drivers/BSP/Components/vl53l1cb/modules/vl53l1_api.c **** 	uint8_t DistIdx;
 247              		.loc 1 558 2 view .LVU51
 559:Drivers/BSP/Components/vl53l1cb/modules/vl53l1_api.c **** 	VL53L1_DevicePresetModes LightModes[3] = {
 248              		.loc 1 559 2 view .LVU52
 249              		.loc 1 559 27 is_stmt 0 view .LVU53
 250 0002 334B     		ldr	r3, .L37
 251 0004 1B68     		ldr	r3, [r3]
 252 0006 ADF81430 		strh	r3, [sp, #20]	@ movhi
 253 000a 1B0C     		lsrs	r3, r3, #16
 254 000c 8DF81630 		strb	r3, [sp, #22]
 560:Drivers/BSP/Components/vl53l1cb/modules/vl53l1_api.c **** 		VL53L1_DEVICEPRESETMODE_STANDARD_RANGING_SHORT_RANGE,
 561:Drivers/BSP/Components/vl53l1cb/modules/vl53l1_api.c **** 		VL53L1_DEVICEPRESETMODE_STANDARD_RANGING,
 562:Drivers/BSP/Components/vl53l1cb/modules/vl53l1_api.c **** 		VL53L1_DEVICEPRESETMODE_STANDARD_RANGING_LONG_RANGE};
 563:Drivers/BSP/Components/vl53l1cb/modules/vl53l1_api.c **** 
 564:Drivers/BSP/Components/vl53l1cb/modules/vl53l1_api.c **** 	VL53L1_DevicePresetModes RangingModes[3] = {
 255              		.loc 1 564 2 is_stmt 1 view .LVU54
 256              		.loc 1 564 27 is_stmt 0 view .LVU55
 257 0010 304B     		ldr	r3, .L37+4
 258 0012 1B68     		ldr	r3, [r3]
 259 0014 ADF81030 		strh	r3, [sp, #16]	@ movhi
 260 0018 1B0C     		lsrs	r3, r3, #16
 261 001a 8DF81230 		strb	r3, [sp, #18]
 565:Drivers/BSP/Components/vl53l1cb/modules/vl53l1_api.c **** 		VL53L1_DEVICEPRESETMODE_HISTOGRAM_SHORT_RANGE,
 566:Drivers/BSP/Components/vl53l1cb/modules/vl53l1_api.c **** 		VL53L1_DEVICEPRESETMODE_HISTOGRAM_MEDIUM_RANGE,
 567:Drivers/BSP/Components/vl53l1cb/modules/vl53l1_api.c **** 		VL53L1_DEVICEPRESETMODE_HISTOGRAM_LONG_RANGE};
 568:Drivers/BSP/Components/vl53l1cb/modules/vl53l1_api.c **** 
 569:Drivers/BSP/Components/vl53l1cb/modules/vl53l1_api.c **** 	VL53L1_DevicePresetModes ScanningModes[3] = {
 262              		.loc 1 569 2 is_stmt 1 view .LVU56
 263              		.loc 1 569 27 is_stmt 0 view .LVU57
 264 001e 2E4B     		ldr	r3, .L37+8
 265 0020 1B68     		ldr	r3, [r3]
 266 0022 ADF80C30 		strh	r3, [sp, #12]	@ movhi
 267 0026 1B0C     		lsrs	r3, r3, #16
 268 0028 8DF80E30 		strb	r3, [sp, #14]
 570:Drivers/BSP/Components/vl53l1cb/modules/vl53l1_api.c **** 		VL53L1_DEVICEPRESETMODE_HISTOGRAM_MULTIZONE_SHORT_RANGE,
 571:Drivers/BSP/Components/vl53l1cb/modules/vl53l1_api.c **** 		VL53L1_DEVICEPRESETMODE_HISTOGRAM_MULTIZONE,
 572:Drivers/BSP/Components/vl53l1cb/modules/vl53l1_api.c **** 		VL53L1_DEVICEPRESETMODE_HISTOGRAM_MULTIZONE_LONG_RANGE};
 573:Drivers/BSP/Components/vl53l1cb/modules/vl53l1_api.c **** 
 574:Drivers/BSP/Components/vl53l1cb/modules/vl53l1_api.c **** 	VL53L1_DevicePresetModes TimedModes[3] = {
 269              		.loc 1 574 2 is_stmt 1 view .LVU58
 270              		.loc 1 574 27 is_stmt 0 view .LVU59
 271 002c 2B4B     		ldr	r3, .L37+12
 272 002e 1B68     		ldr	r3, [r3]
 273 0030 ADF80830 		strh	r3, [sp, #8]	@ movhi
 274 0034 1B0C     		lsrs	r3, r3, #16
 275 0036 8DF80A30 		strb	r3, [sp, #10]
 575:Drivers/BSP/Components/vl53l1cb/modules/vl53l1_api.c **** 		VL53L1_DEVICEPRESETMODE_TIMED_RANGING_SHORT_RANGE,
 576:Drivers/BSP/Components/vl53l1cb/modules/vl53l1_api.c **** 		VL53L1_DEVICEPRESETMODE_TIMED_RANGING,
 577:Drivers/BSP/Components/vl53l1cb/modules/vl53l1_api.c **** 		VL53L1_DEVICEPRESETMODE_TIMED_RANGING_LONG_RANGE};
 578:Drivers/BSP/Components/vl53l1cb/modules/vl53l1_api.c **** 
ARM GAS  C:\Temp\ccMpj0h9.s 			page 16


 579:Drivers/BSP/Components/vl53l1cb/modules/vl53l1_api.c **** 	VL53L1_DevicePresetModes LowPowerTimedModes[3] = {
 276              		.loc 1 579 2 is_stmt 1 view .LVU60
 277              		.loc 1 579 27 is_stmt 0 view .LVU61
 278 003a 294B     		ldr	r3, .L37+16
 279 003c 1B68     		ldr	r3, [r3]
 280 003e ADF80430 		strh	r3, [sp, #4]	@ movhi
 281 0042 1B0C     		lsrs	r3, r3, #16
 282 0044 8DF80630 		strb	r3, [sp, #6]
 580:Drivers/BSP/Components/vl53l1cb/modules/vl53l1_api.c **** 		VL53L1_DEVICEPRESETMODE_LOWPOWERAUTO_SHORT_RANGE,
 581:Drivers/BSP/Components/vl53l1cb/modules/vl53l1_api.c **** 		VL53L1_DEVICEPRESETMODE_LOWPOWERAUTO_MEDIUM_RANGE,
 582:Drivers/BSP/Components/vl53l1cb/modules/vl53l1_api.c **** 		VL53L1_DEVICEPRESETMODE_LOWPOWERAUTO_LONG_RANGE};
 583:Drivers/BSP/Components/vl53l1cb/modules/vl53l1_api.c **** 
 584:Drivers/BSP/Components/vl53l1cb/modules/vl53l1_api.c **** 	*pDevicePresetMode = VL53L1_DEVICEPRESETMODE_STANDARD_RANGING;
 283              		.loc 1 584 2 is_stmt 1 view .LVU62
 284              		.loc 1 584 21 is_stmt 0 view .LVU63
 285 0048 0123     		movs	r3, #1
 286 004a 1370     		strb	r3, [r2]
 585:Drivers/BSP/Components/vl53l1cb/modules/vl53l1_api.c **** 
 586:Drivers/BSP/Components/vl53l1cb/modules/vl53l1_api.c **** 	switch (DistanceMode) {
 287              		.loc 1 586 2 is_stmt 1 view .LVU64
 288 004c 9942     		cmp	r1, r3
 289 004e 0BD0     		beq	.L33
 290 0050 0229     		cmp	r1, #2
 291 0052 0BD1     		bne	.L34
 292              	.L23:
 293              	.LVL18:
 587:Drivers/BSP/Components/vl53l1cb/modules/vl53l1_api.c **** 	case VL53L1_DISTANCEMODE_SHORT:
 588:Drivers/BSP/Components/vl53l1cb/modules/vl53l1_api.c **** 		DistIdx = 0;
 589:Drivers/BSP/Components/vl53l1cb/modules/vl53l1_api.c **** 		break;
 590:Drivers/BSP/Components/vl53l1cb/modules/vl53l1_api.c **** 	case VL53L1_DISTANCEMODE_MEDIUM:
 591:Drivers/BSP/Components/vl53l1cb/modules/vl53l1_api.c **** 		DistIdx = 1;
 592:Drivers/BSP/Components/vl53l1cb/modules/vl53l1_api.c **** 		break;
 593:Drivers/BSP/Components/vl53l1cb/modules/vl53l1_api.c **** 	default:
 594:Drivers/BSP/Components/vl53l1cb/modules/vl53l1_api.c **** 		DistIdx = 2;
 595:Drivers/BSP/Components/vl53l1cb/modules/vl53l1_api.c **** 	}
 596:Drivers/BSP/Components/vl53l1cb/modules/vl53l1_api.c **** 
 597:Drivers/BSP/Components/vl53l1cb/modules/vl53l1_api.c **** 	switch (PresetMode) {
 294              		.loc 1 597 2 view .LVU65
 295 0054 0138     		subs	r0, r0, #1
 296              	.LVL19:
 297              		.loc 1 597 2 is_stmt 0 view .LVU66
 298 0056 0828     		cmp	r0, #8
 299 0058 36D8     		bhi	.L35
 300 005a DFE800F0 		tbb	[pc, r0]
 301              	.LVL20:
 302              	.L26:
 303 005e 11       		.byte	(.L32-.L26)/2
 304 005f 18       		.byte	(.L31-.L26)/2
 305 0060 1F       		.byte	(.L30-.L26)/2
 306 0061 09       		.byte	(.L29-.L26)/2
 307 0062 35       		.byte	(.L35-.L26)/2
 308 0063 35       		.byte	(.L35-.L26)/2
 309 0064 2D       		.byte	(.L28-.L26)/2
 310 0065 26       		.byte	(.L27-.L26)/2
 311 0066 31       		.byte	(.L25-.L26)/2
 312 0067 00       		.p2align 1
 313              	.L33:
ARM GAS  C:\Temp\ccMpj0h9.s 			page 17


 586:Drivers/BSP/Components/vl53l1cb/modules/vl53l1_api.c **** 	case VL53L1_DISTANCEMODE_SHORT:
 314              		.loc 1 586 2 view .LVU67
 315 0068 0023     		movs	r3, #0
 316 006a F3E7     		b	.L23
 317              	.L34:
 594:Drivers/BSP/Components/vl53l1cb/modules/vl53l1_api.c **** 	}
 318              		.loc 1 594 11 view .LVU68
 319 006c 0223     		movs	r3, #2
 320 006e F1E7     		b	.L23
 321              	.LVL21:
 322              	.L29:
 598:Drivers/BSP/Components/vl53l1cb/modules/vl53l1_api.c **** 	case VL53L1_PRESETMODE_LITE_RANGING:
 599:Drivers/BSP/Components/vl53l1cb/modules/vl53l1_api.c **** 		*pDevicePresetMode = LightModes[DistIdx];
 323              		.loc 1 599 3 is_stmt 1 view .LVU69
 324              		.loc 1 599 34 is_stmt 0 view .LVU70
 325 0070 1833     		adds	r3, r3, #24
 326              	.LVL22:
 327              		.loc 1 599 34 view .LVU71
 328 0072 6B44     		add	r3, sp, r3
 329 0074 13F8043C 		ldrb	r3, [r3, #-4]	@ zero_extendqisi2
 330              		.loc 1 599 22 view .LVU72
 331 0078 1370     		strb	r3, [r2]
 600:Drivers/BSP/Components/vl53l1cb/modules/vl53l1_api.c **** 		break;
 332              		.loc 1 600 3 is_stmt 1 view .LVU73
 556:Drivers/BSP/Components/vl53l1cb/modules/vl53l1_api.c **** 
 333              		.loc 1 556 15 is_stmt 0 view .LVU74
 334 007a 0020     		movs	r0, #0
 335              	.L24:
 336              	.LVL23:
 601:Drivers/BSP/Components/vl53l1cb/modules/vl53l1_api.c **** 
 602:Drivers/BSP/Components/vl53l1cb/modules/vl53l1_api.c **** 	case VL53L1_PRESETMODE_RANGING:
 603:Drivers/BSP/Components/vl53l1cb/modules/vl53l1_api.c **** 		*pDevicePresetMode = RangingModes[DistIdx];
 604:Drivers/BSP/Components/vl53l1cb/modules/vl53l1_api.c **** 		break;
 605:Drivers/BSP/Components/vl53l1cb/modules/vl53l1_api.c **** 
 606:Drivers/BSP/Components/vl53l1cb/modules/vl53l1_api.c **** 	case VL53L1_PRESETMODE_MULTIZONES_SCANNING:
 607:Drivers/BSP/Components/vl53l1cb/modules/vl53l1_api.c **** 		*pDevicePresetMode = ScanningModes[DistIdx];
 608:Drivers/BSP/Components/vl53l1cb/modules/vl53l1_api.c **** 		break;
 609:Drivers/BSP/Components/vl53l1cb/modules/vl53l1_api.c **** 
 610:Drivers/BSP/Components/vl53l1cb/modules/vl53l1_api.c **** 	case VL53L1_PRESETMODE_AUTONOMOUS:
 611:Drivers/BSP/Components/vl53l1cb/modules/vl53l1_api.c **** 		*pDevicePresetMode = TimedModes[DistIdx];
 612:Drivers/BSP/Components/vl53l1cb/modules/vl53l1_api.c **** 		break;
 613:Drivers/BSP/Components/vl53l1cb/modules/vl53l1_api.c **** 
 614:Drivers/BSP/Components/vl53l1cb/modules/vl53l1_api.c **** 	case VL53L1_PRESETMODE_LOWPOWER_AUTONOMOUS:
 615:Drivers/BSP/Components/vl53l1cb/modules/vl53l1_api.c **** 		*pDevicePresetMode = LowPowerTimedModes[DistIdx];
 616:Drivers/BSP/Components/vl53l1cb/modules/vl53l1_api.c **** 		break;
 617:Drivers/BSP/Components/vl53l1cb/modules/vl53l1_api.c **** 	case VL53L1_PRESETMODE_OLT:
 618:Drivers/BSP/Components/vl53l1cb/modules/vl53l1_api.c **** 		*pDevicePresetMode = VL53L1_DEVICEPRESETMODE_OLT;
 619:Drivers/BSP/Components/vl53l1cb/modules/vl53l1_api.c **** 		break;
 620:Drivers/BSP/Components/vl53l1cb/modules/vl53l1_api.c **** 	case VL53L1_PRESETMODE_PROXY_RANGING_MODE:
 621:Drivers/BSP/Components/vl53l1cb/modules/vl53l1_api.c **** 		*pDevicePresetMode =
 622:Drivers/BSP/Components/vl53l1cb/modules/vl53l1_api.c **** 			VL53L1_DEVICEPRESETMODE_SPECIAL_HISTOGRAM_SHORT_RANGE;
 623:Drivers/BSP/Components/vl53l1cb/modules/vl53l1_api.c **** 		break;
 624:Drivers/BSP/Components/vl53l1cb/modules/vl53l1_api.c **** 
 625:Drivers/BSP/Components/vl53l1cb/modules/vl53l1_api.c **** 	default:
 626:Drivers/BSP/Components/vl53l1cb/modules/vl53l1_api.c **** 
 627:Drivers/BSP/Components/vl53l1cb/modules/vl53l1_api.c **** 		Status = VL53L1_ERROR_MODE_NOT_SUPPORTED;
 628:Drivers/BSP/Components/vl53l1cb/modules/vl53l1_api.c **** 	}
ARM GAS  C:\Temp\ccMpj0h9.s 			page 18


 629:Drivers/BSP/Components/vl53l1cb/modules/vl53l1_api.c **** 
 630:Drivers/BSP/Components/vl53l1cb/modules/vl53l1_api.c **** 	return Status;
 337              		.loc 1 630 2 is_stmt 1 view .LVU75
 631:Drivers/BSP/Components/vl53l1cb/modules/vl53l1_api.c **** }
 338              		.loc 1 631 1 is_stmt 0 view .LVU76
 339 007c 06B0     		add	sp, sp, #24
 340              		.cfi_remember_state
 341              		.cfi_def_cfa_offset 0
 342              		@ sp needed
 343 007e 7047     		bx	lr
 344              	.LVL24:
 345              	.L32:
 346              		.cfi_restore_state
 603:Drivers/BSP/Components/vl53l1cb/modules/vl53l1_api.c **** 		break;
 347              		.loc 1 603 3 is_stmt 1 view .LVU77
 603:Drivers/BSP/Components/vl53l1cb/modules/vl53l1_api.c **** 		break;
 348              		.loc 1 603 36 is_stmt 0 view .LVU78
 349 0080 1833     		adds	r3, r3, #24
 350              	.LVL25:
 603:Drivers/BSP/Components/vl53l1cb/modules/vl53l1_api.c **** 		break;
 351              		.loc 1 603 36 view .LVU79
 352 0082 6B44     		add	r3, sp, r3
 353 0084 13F8083C 		ldrb	r3, [r3, #-8]	@ zero_extendqisi2
 603:Drivers/BSP/Components/vl53l1cb/modules/vl53l1_api.c **** 		break;
 354              		.loc 1 603 22 view .LVU80
 355 0088 1370     		strb	r3, [r2]
 604:Drivers/BSP/Components/vl53l1cb/modules/vl53l1_api.c **** 
 356              		.loc 1 604 3 is_stmt 1 view .LVU81
 556:Drivers/BSP/Components/vl53l1cb/modules/vl53l1_api.c **** 
 357              		.loc 1 556 15 is_stmt 0 view .LVU82
 358 008a 0020     		movs	r0, #0
 604:Drivers/BSP/Components/vl53l1cb/modules/vl53l1_api.c **** 
 359              		.loc 1 604 3 view .LVU83
 360 008c F6E7     		b	.L24
 361              	.LVL26:
 362              	.L31:
 607:Drivers/BSP/Components/vl53l1cb/modules/vl53l1_api.c **** 		break;
 363              		.loc 1 607 3 is_stmt 1 view .LVU84
 607:Drivers/BSP/Components/vl53l1cb/modules/vl53l1_api.c **** 		break;
 364              		.loc 1 607 37 is_stmt 0 view .LVU85
 365 008e 1833     		adds	r3, r3, #24
 366              	.LVL27:
 607:Drivers/BSP/Components/vl53l1cb/modules/vl53l1_api.c **** 		break;
 367              		.loc 1 607 37 view .LVU86
 368 0090 6B44     		add	r3, sp, r3
 369 0092 13F80C3C 		ldrb	r3, [r3, #-12]	@ zero_extendqisi2
 607:Drivers/BSP/Components/vl53l1cb/modules/vl53l1_api.c **** 		break;
 370              		.loc 1 607 22 view .LVU87
 371 0096 1370     		strb	r3, [r2]
 608:Drivers/BSP/Components/vl53l1cb/modules/vl53l1_api.c **** 
 372              		.loc 1 608 3 is_stmt 1 view .LVU88
 556:Drivers/BSP/Components/vl53l1cb/modules/vl53l1_api.c **** 
 373              		.loc 1 556 15 is_stmt 0 view .LVU89
 374 0098 0020     		movs	r0, #0
 608:Drivers/BSP/Components/vl53l1cb/modules/vl53l1_api.c **** 
 375              		.loc 1 608 3 view .LVU90
 376 009a EFE7     		b	.L24
ARM GAS  C:\Temp\ccMpj0h9.s 			page 19


 377              	.LVL28:
 378              	.L30:
 611:Drivers/BSP/Components/vl53l1cb/modules/vl53l1_api.c **** 		break;
 379              		.loc 1 611 3 is_stmt 1 view .LVU91
 611:Drivers/BSP/Components/vl53l1cb/modules/vl53l1_api.c **** 		break;
 380              		.loc 1 611 34 is_stmt 0 view .LVU92
 381 009c 1833     		adds	r3, r3, #24
 382              	.LVL29:
 611:Drivers/BSP/Components/vl53l1cb/modules/vl53l1_api.c **** 		break;
 383              		.loc 1 611 34 view .LVU93
 384 009e 6B44     		add	r3, sp, r3
 385 00a0 13F8103C 		ldrb	r3, [r3, #-16]	@ zero_extendqisi2
 611:Drivers/BSP/Components/vl53l1cb/modules/vl53l1_api.c **** 		break;
 386              		.loc 1 611 22 view .LVU94
 387 00a4 1370     		strb	r3, [r2]
 612:Drivers/BSP/Components/vl53l1cb/modules/vl53l1_api.c **** 
 388              		.loc 1 612 3 is_stmt 1 view .LVU95
 556:Drivers/BSP/Components/vl53l1cb/modules/vl53l1_api.c **** 
 389              		.loc 1 556 15 is_stmt 0 view .LVU96
 390 00a6 0020     		movs	r0, #0
 612:Drivers/BSP/Components/vl53l1cb/modules/vl53l1_api.c **** 
 391              		.loc 1 612 3 view .LVU97
 392 00a8 E8E7     		b	.L24
 393              	.LVL30:
 394              	.L27:
 615:Drivers/BSP/Components/vl53l1cb/modules/vl53l1_api.c **** 		break;
 395              		.loc 1 615 3 is_stmt 1 view .LVU98
 615:Drivers/BSP/Components/vl53l1cb/modules/vl53l1_api.c **** 		break;
 396              		.loc 1 615 42 is_stmt 0 view .LVU99
 397 00aa 1833     		adds	r3, r3, #24
 398              	.LVL31:
 615:Drivers/BSP/Components/vl53l1cb/modules/vl53l1_api.c **** 		break;
 399              		.loc 1 615 42 view .LVU100
 400 00ac 6B44     		add	r3, sp, r3
 401 00ae 13F8143C 		ldrb	r3, [r3, #-20]	@ zero_extendqisi2
 615:Drivers/BSP/Components/vl53l1cb/modules/vl53l1_api.c **** 		break;
 402              		.loc 1 615 22 view .LVU101
 403 00b2 1370     		strb	r3, [r2]
 616:Drivers/BSP/Components/vl53l1cb/modules/vl53l1_api.c **** 	case VL53L1_PRESETMODE_OLT:
 404              		.loc 1 616 3 is_stmt 1 view .LVU102
 556:Drivers/BSP/Components/vl53l1cb/modules/vl53l1_api.c **** 
 405              		.loc 1 556 15 is_stmt 0 view .LVU103
 406 00b4 0020     		movs	r0, #0
 616:Drivers/BSP/Components/vl53l1cb/modules/vl53l1_api.c **** 	case VL53L1_PRESETMODE_OLT:
 407              		.loc 1 616 3 view .LVU104
 408 00b6 E1E7     		b	.L24
 409              	.LVL32:
 410              	.L28:
 618:Drivers/BSP/Components/vl53l1cb/modules/vl53l1_api.c **** 		break;
 411              		.loc 1 618 3 is_stmt 1 view .LVU105
 618:Drivers/BSP/Components/vl53l1cb/modules/vl53l1_api.c **** 		break;
 412              		.loc 1 618 22 is_stmt 0 view .LVU106
 413 00b8 1123     		movs	r3, #17
 414              	.LVL33:
 618:Drivers/BSP/Components/vl53l1cb/modules/vl53l1_api.c **** 		break;
 415              		.loc 1 618 22 view .LVU107
 416 00ba 1370     		strb	r3, [r2]
ARM GAS  C:\Temp\ccMpj0h9.s 			page 20


 619:Drivers/BSP/Components/vl53l1cb/modules/vl53l1_api.c **** 	case VL53L1_PRESETMODE_PROXY_RANGING_MODE:
 417              		.loc 1 619 3 is_stmt 1 view .LVU108
 556:Drivers/BSP/Components/vl53l1cb/modules/vl53l1_api.c **** 
 418              		.loc 1 556 15 is_stmt 0 view .LVU109
 419 00bc 0020     		movs	r0, #0
 619:Drivers/BSP/Components/vl53l1cb/modules/vl53l1_api.c **** 	case VL53L1_PRESETMODE_PROXY_RANGING_MODE:
 420              		.loc 1 619 3 view .LVU110
 421 00be DDE7     		b	.L24
 422              	.LVL34:
 423              	.L25:
 621:Drivers/BSP/Components/vl53l1cb/modules/vl53l1_api.c **** 			VL53L1_DEVICEPRESETMODE_SPECIAL_HISTOGRAM_SHORT_RANGE;
 424              		.loc 1 621 3 is_stmt 1 view .LVU111
 621:Drivers/BSP/Components/vl53l1cb/modules/vl53l1_api.c **** 			VL53L1_DEVICEPRESETMODE_SPECIAL_HISTOGRAM_SHORT_RANGE;
 425              		.loc 1 621 22 is_stmt 0 view .LVU112
 426 00c0 2723     		movs	r3, #39
 427              	.LVL35:
 621:Drivers/BSP/Components/vl53l1cb/modules/vl53l1_api.c **** 			VL53L1_DEVICEPRESETMODE_SPECIAL_HISTOGRAM_SHORT_RANGE;
 428              		.loc 1 621 22 view .LVU113
 429 00c2 1370     		strb	r3, [r2]
 623:Drivers/BSP/Components/vl53l1cb/modules/vl53l1_api.c **** 
 430              		.loc 1 623 3 is_stmt 1 view .LVU114
 556:Drivers/BSP/Components/vl53l1cb/modules/vl53l1_api.c **** 
 431              		.loc 1 556 15 is_stmt 0 view .LVU115
 432 00c4 0020     		movs	r0, #0
 623:Drivers/BSP/Components/vl53l1cb/modules/vl53l1_api.c **** 
 433              		.loc 1 623 3 view .LVU116
 434 00c6 D9E7     		b	.L24
 435              	.LVL36:
 436              	.L35:
 597:Drivers/BSP/Components/vl53l1cb/modules/vl53l1_api.c **** 	case VL53L1_PRESETMODE_LITE_RANGING:
 437              		.loc 1 597 2 view .LVU117
 438 00c8 6FF00700 		mvn	r0, #7
 439 00cc D6E7     		b	.L24
 440              	.L38:
 441 00ce 00BF     		.align	2
 442              	.L37:
 443 00d0 00000000 		.word	.LC0
 444 00d4 04000000 		.word	.LC1
 445 00d8 08000000 		.word	.LC2
 446 00dc 0C000000 		.word	.LC3
 447 00e0 10000000 		.word	.LC4
 448              		.cfi_endproc
 449              	.LFE19:
 451              		.section	.text.GenNewPresetMode,"ax",%progbits
 452              		.align	1
 453              		.syntax unified
 454              		.thumb
 455              		.thumb_func
 457              	GenNewPresetMode:
 458              	.LVL37:
 459              	.LFB56:
 632:Drivers/BSP/Components/vl53l1cb/modules/vl53l1_api.c **** 
 633:Drivers/BSP/Components/vl53l1cb/modules/vl53l1_api.c **** static VL53L1_Error SetPresetMode(VL53L1_DEV Dev,
 634:Drivers/BSP/Components/vl53l1cb/modules/vl53l1_api.c **** 		VL53L1_PresetModes PresetMode,
 635:Drivers/BSP/Components/vl53l1cb/modules/vl53l1_api.c **** 		VL53L1_DistanceModes DistanceMode,
 636:Drivers/BSP/Components/vl53l1cb/modules/vl53l1_api.c **** 		uint32_t inter_measurement_period_ms)
 637:Drivers/BSP/Components/vl53l1cb/modules/vl53l1_api.c **** {
ARM GAS  C:\Temp\ccMpj0h9.s 			page 21


 638:Drivers/BSP/Components/vl53l1cb/modules/vl53l1_api.c **** 	VL53L1_Error Status = VL53L1_ERROR_NONE;
 639:Drivers/BSP/Components/vl53l1cb/modules/vl53l1_api.c **** 	VL53L1_DevicePresetModes   device_preset_mode;
 640:Drivers/BSP/Components/vl53l1cb/modules/vl53l1_api.c **** 	uint8_t measurement_mode;
 641:Drivers/BSP/Components/vl53l1cb/modules/vl53l1_api.c **** 	uint16_t dss_config__target_total_rate_mcps = 0;
 642:Drivers/BSP/Components/vl53l1cb/modules/vl53l1_api.c **** 	uint32_t phasecal_config_timeout_us = 0;
 643:Drivers/BSP/Components/vl53l1cb/modules/vl53l1_api.c **** 	uint32_t mm_config_timeout_us = 0;
 644:Drivers/BSP/Components/vl53l1cb/modules/vl53l1_api.c **** 	uint32_t lld_range_config_timeout_us = 0;
 645:Drivers/BSP/Components/vl53l1cb/modules/vl53l1_api.c **** 
 646:Drivers/BSP/Components/vl53l1cb/modules/vl53l1_api.c **** 	LOG_FUNCTION_START("%d", (int)PresetMode);
 647:Drivers/BSP/Components/vl53l1cb/modules/vl53l1_api.c **** 
 648:Drivers/BSP/Components/vl53l1cb/modules/vl53l1_api.c **** 	if ((PresetMode == VL53L1_PRESETMODE_AUTONOMOUS) ||
 649:Drivers/BSP/Components/vl53l1cb/modules/vl53l1_api.c **** 		(PresetMode == VL53L1_PRESETMODE_LOWPOWER_AUTONOMOUS))
 650:Drivers/BSP/Components/vl53l1cb/modules/vl53l1_api.c **** 		measurement_mode  = VL53L1_DEVICEMEASUREMENTMODE_TIMED;
 651:Drivers/BSP/Components/vl53l1cb/modules/vl53l1_api.c **** 	else
 652:Drivers/BSP/Components/vl53l1cb/modules/vl53l1_api.c **** 		measurement_mode  = VL53L1_DEVICEMEASUREMENTMODE_BACKTOBACK;
 653:Drivers/BSP/Components/vl53l1cb/modules/vl53l1_api.c **** 
 654:Drivers/BSP/Components/vl53l1cb/modules/vl53l1_api.c **** 
 655:Drivers/BSP/Components/vl53l1cb/modules/vl53l1_api.c **** 	Status = ComputeDevicePresetMode(PresetMode, DistanceMode,
 656:Drivers/BSP/Components/vl53l1cb/modules/vl53l1_api.c **** 			&device_preset_mode);
 657:Drivers/BSP/Components/vl53l1cb/modules/vl53l1_api.c **** 
 658:Drivers/BSP/Components/vl53l1cb/modules/vl53l1_api.c **** 	if (Status == VL53L1_ERROR_NONE)
 659:Drivers/BSP/Components/vl53l1cb/modules/vl53l1_api.c **** 		Status =  VL53L1_get_preset_mode_timing_cfg(Dev,
 660:Drivers/BSP/Components/vl53l1cb/modules/vl53l1_api.c **** 				device_preset_mode,
 661:Drivers/BSP/Components/vl53l1cb/modules/vl53l1_api.c **** 				&dss_config__target_total_rate_mcps,
 662:Drivers/BSP/Components/vl53l1cb/modules/vl53l1_api.c **** 				&phasecal_config_timeout_us,
 663:Drivers/BSP/Components/vl53l1cb/modules/vl53l1_api.c **** 				&mm_config_timeout_us,
 664:Drivers/BSP/Components/vl53l1cb/modules/vl53l1_api.c **** 				&lld_range_config_timeout_us);
 665:Drivers/BSP/Components/vl53l1cb/modules/vl53l1_api.c **** 
 666:Drivers/BSP/Components/vl53l1cb/modules/vl53l1_api.c **** 	if (Status == VL53L1_ERROR_NONE)
 667:Drivers/BSP/Components/vl53l1cb/modules/vl53l1_api.c **** 		Status = VL53L1_set_preset_mode(
 668:Drivers/BSP/Components/vl53l1cb/modules/vl53l1_api.c **** 				Dev,
 669:Drivers/BSP/Components/vl53l1cb/modules/vl53l1_api.c **** 				device_preset_mode,
 670:Drivers/BSP/Components/vl53l1cb/modules/vl53l1_api.c **** 				dss_config__target_total_rate_mcps,
 671:Drivers/BSP/Components/vl53l1cb/modules/vl53l1_api.c **** 				phasecal_config_timeout_us,
 672:Drivers/BSP/Components/vl53l1cb/modules/vl53l1_api.c **** 				mm_config_timeout_us,
 673:Drivers/BSP/Components/vl53l1cb/modules/vl53l1_api.c **** 				lld_range_config_timeout_us,
 674:Drivers/BSP/Components/vl53l1cb/modules/vl53l1_api.c **** 				inter_measurement_period_ms);
 675:Drivers/BSP/Components/vl53l1cb/modules/vl53l1_api.c **** 
 676:Drivers/BSP/Components/vl53l1cb/modules/vl53l1_api.c **** 	if (Status == VL53L1_ERROR_NONE)
 677:Drivers/BSP/Components/vl53l1cb/modules/vl53l1_api.c **** 		VL53L1DevDataSet(Dev, LLData.measurement_mode,
 678:Drivers/BSP/Components/vl53l1cb/modules/vl53l1_api.c **** 				measurement_mode);
 679:Drivers/BSP/Components/vl53l1cb/modules/vl53l1_api.c **** 
 680:Drivers/BSP/Components/vl53l1cb/modules/vl53l1_api.c **** 	if (Status == VL53L1_ERROR_NONE)
 681:Drivers/BSP/Components/vl53l1cb/modules/vl53l1_api.c **** 		VL53L1DevDataSet(Dev, CurrentParameters.PresetMode, PresetMode);
 682:Drivers/BSP/Components/vl53l1cb/modules/vl53l1_api.c **** 
 683:Drivers/BSP/Components/vl53l1cb/modules/vl53l1_api.c **** 	VL53L1DevDataSet(Dev, CurrentParameters.OutputMode,
 684:Drivers/BSP/Components/vl53l1cb/modules/vl53l1_api.c **** 			VL53L1_OUTPUTMODE_NEAREST);
 685:Drivers/BSP/Components/vl53l1cb/modules/vl53l1_api.c **** 	LOG_FUNCTION_END(Status);
 686:Drivers/BSP/Components/vl53l1cb/modules/vl53l1_api.c **** 	return Status;
 687:Drivers/BSP/Components/vl53l1cb/modules/vl53l1_api.c **** }
 688:Drivers/BSP/Components/vl53l1cb/modules/vl53l1_api.c **** 
 689:Drivers/BSP/Components/vl53l1cb/modules/vl53l1_api.c **** 
 690:Drivers/BSP/Components/vl53l1cb/modules/vl53l1_api.c **** VL53L1_Error VL53L1_SetPresetMode(VL53L1_DEV Dev, VL53L1_PresetModes PresetMode)
 691:Drivers/BSP/Components/vl53l1cb/modules/vl53l1_api.c **** {
 692:Drivers/BSP/Components/vl53l1cb/modules/vl53l1_api.c **** 	VL53L1_Error Status = VL53L1_ERROR_NONE;
 693:Drivers/BSP/Components/vl53l1cb/modules/vl53l1_api.c **** 	VL53L1_DistanceModes DistanceMode = VL53L1_DISTANCEMODE_LONG;
 694:Drivers/BSP/Components/vl53l1cb/modules/vl53l1_api.c **** 
ARM GAS  C:\Temp\ccMpj0h9.s 			page 22


 695:Drivers/BSP/Components/vl53l1cb/modules/vl53l1_api.c **** 	LOG_FUNCTION_START("%d", (int)PresetMode);
 696:Drivers/BSP/Components/vl53l1cb/modules/vl53l1_api.c **** 
 697:Drivers/BSP/Components/vl53l1cb/modules/vl53l1_api.c **** 
 698:Drivers/BSP/Components/vl53l1cb/modules/vl53l1_api.c **** 	Status = VL53L1_low_power_auto_data_init(Dev);
 699:Drivers/BSP/Components/vl53l1cb/modules/vl53l1_api.c **** 
 700:Drivers/BSP/Components/vl53l1cb/modules/vl53l1_api.c **** 	if (PresetMode == VL53L1_PRESETMODE_PROXY_RANGING_MODE)
 701:Drivers/BSP/Components/vl53l1cb/modules/vl53l1_api.c **** 		DistanceMode = VL53L1_DISTANCEMODE_SHORT;
 702:Drivers/BSP/Components/vl53l1cb/modules/vl53l1_api.c **** 	Status = SetPresetMode(Dev,
 703:Drivers/BSP/Components/vl53l1cb/modules/vl53l1_api.c **** 			PresetMode,
 704:Drivers/BSP/Components/vl53l1cb/modules/vl53l1_api.c **** 			DistanceMode,
 705:Drivers/BSP/Components/vl53l1cb/modules/vl53l1_api.c **** 			1000);
 706:Drivers/BSP/Components/vl53l1cb/modules/vl53l1_api.c **** 
 707:Drivers/BSP/Components/vl53l1cb/modules/vl53l1_api.c **** 	if (Status == VL53L1_ERROR_NONE) {
 708:Drivers/BSP/Components/vl53l1cb/modules/vl53l1_api.c **** 		if ((PresetMode == VL53L1_PRESETMODE_LITE_RANGING) ||
 709:Drivers/BSP/Components/vl53l1cb/modules/vl53l1_api.c **** 			(PresetMode == VL53L1_PRESETMODE_AUTONOMOUS) ||
 710:Drivers/BSP/Components/vl53l1cb/modules/vl53l1_api.c **** 			(PresetMode == VL53L1_PRESETMODE_LOWPOWER_AUTONOMOUS))
 711:Drivers/BSP/Components/vl53l1cb/modules/vl53l1_api.c **** 			Status = VL53L1_SetMeasurementTimingBudgetMicroSeconds(
 712:Drivers/BSP/Components/vl53l1cb/modules/vl53l1_api.c **** 				Dev, 41000);
 713:Drivers/BSP/Components/vl53l1cb/modules/vl53l1_api.c **** 		else
 714:Drivers/BSP/Components/vl53l1cb/modules/vl53l1_api.c **** 
 715:Drivers/BSP/Components/vl53l1cb/modules/vl53l1_api.c **** 			Status = VL53L1_SetMeasurementTimingBudgetMicroSeconds(
 716:Drivers/BSP/Components/vl53l1cb/modules/vl53l1_api.c **** 				Dev, 33333);
 717:Drivers/BSP/Components/vl53l1cb/modules/vl53l1_api.c **** 	}
 718:Drivers/BSP/Components/vl53l1cb/modules/vl53l1_api.c **** 
 719:Drivers/BSP/Components/vl53l1cb/modules/vl53l1_api.c **** 	if (Status == VL53L1_ERROR_NONE) {
 720:Drivers/BSP/Components/vl53l1cb/modules/vl53l1_api.c **** 
 721:Drivers/BSP/Components/vl53l1cb/modules/vl53l1_api.c **** 		Status = VL53L1_SetInterMeasurementPeriodMilliSeconds(Dev,
 722:Drivers/BSP/Components/vl53l1cb/modules/vl53l1_api.c **** 				1000);
 723:Drivers/BSP/Components/vl53l1cb/modules/vl53l1_api.c **** 	}
 724:Drivers/BSP/Components/vl53l1cb/modules/vl53l1_api.c **** 
 725:Drivers/BSP/Components/vl53l1cb/modules/vl53l1_api.c **** 	LOG_FUNCTION_END(Status);
 726:Drivers/BSP/Components/vl53l1cb/modules/vl53l1_api.c **** 	return Status;
 727:Drivers/BSP/Components/vl53l1cb/modules/vl53l1_api.c **** }
 728:Drivers/BSP/Components/vl53l1cb/modules/vl53l1_api.c **** 
 729:Drivers/BSP/Components/vl53l1cb/modules/vl53l1_api.c **** 
 730:Drivers/BSP/Components/vl53l1cb/modules/vl53l1_api.c **** VL53L1_Error VL53L1_GetPresetMode(VL53L1_DEV Dev,
 731:Drivers/BSP/Components/vl53l1cb/modules/vl53l1_api.c **** 	VL53L1_PresetModes *pPresetMode)
 732:Drivers/BSP/Components/vl53l1cb/modules/vl53l1_api.c **** {
 733:Drivers/BSP/Components/vl53l1cb/modules/vl53l1_api.c **** 	VL53L1_Error Status = VL53L1_ERROR_NONE;
 734:Drivers/BSP/Components/vl53l1cb/modules/vl53l1_api.c **** 
 735:Drivers/BSP/Components/vl53l1cb/modules/vl53l1_api.c **** 	LOG_FUNCTION_START("");
 736:Drivers/BSP/Components/vl53l1cb/modules/vl53l1_api.c **** 
 737:Drivers/BSP/Components/vl53l1cb/modules/vl53l1_api.c **** 	*pPresetMode = VL53L1DevDataGet(Dev, CurrentParameters.PresetMode);
 738:Drivers/BSP/Components/vl53l1cb/modules/vl53l1_api.c **** 
 739:Drivers/BSP/Components/vl53l1cb/modules/vl53l1_api.c **** 	LOG_FUNCTION_END(Status);
 740:Drivers/BSP/Components/vl53l1cb/modules/vl53l1_api.c **** 	return Status;
 741:Drivers/BSP/Components/vl53l1cb/modules/vl53l1_api.c **** }
 742:Drivers/BSP/Components/vl53l1cb/modules/vl53l1_api.c **** 
 743:Drivers/BSP/Components/vl53l1cb/modules/vl53l1_api.c **** VL53L1_Error VL53L1_SetDistanceMode(VL53L1_DEV Dev,
 744:Drivers/BSP/Components/vl53l1cb/modules/vl53l1_api.c **** 		VL53L1_DistanceModes DistanceMode)
 745:Drivers/BSP/Components/vl53l1cb/modules/vl53l1_api.c **** {
 746:Drivers/BSP/Components/vl53l1cb/modules/vl53l1_api.c **** 	VL53L1_Error Status = VL53L1_ERROR_NONE;
 747:Drivers/BSP/Components/vl53l1cb/modules/vl53l1_api.c **** 	VL53L1_PresetModes PresetMode;
 748:Drivers/BSP/Components/vl53l1cb/modules/vl53l1_api.c **** 	uint32_t inter_measurement_period_ms;
 749:Drivers/BSP/Components/vl53l1cb/modules/vl53l1_api.c **** 	uint32_t TimingBudget = 0;
 750:Drivers/BSP/Components/vl53l1cb/modules/vl53l1_api.c **** 	uint32_t MmTimeoutUs = 0;
 751:Drivers/BSP/Components/vl53l1cb/modules/vl53l1_api.c **** 	uint32_t PhaseCalTimeoutUs = 0;
ARM GAS  C:\Temp\ccMpj0h9.s 			page 23


 752:Drivers/BSP/Components/vl53l1cb/modules/vl53l1_api.c **** 	VL53L1_zone_config_t zone_config;
 753:Drivers/BSP/Components/vl53l1cb/modules/vl53l1_api.c **** 
 754:Drivers/BSP/Components/vl53l1cb/modules/vl53l1_api.c **** 	LOG_FUNCTION_START("%d", (int)DistanceMode);
 755:Drivers/BSP/Components/vl53l1cb/modules/vl53l1_api.c **** 
 756:Drivers/BSP/Components/vl53l1cb/modules/vl53l1_api.c **** 	PresetMode = VL53L1DevDataGet(Dev, CurrentParameters.PresetMode);
 757:Drivers/BSP/Components/vl53l1cb/modules/vl53l1_api.c **** 
 758:Drivers/BSP/Components/vl53l1cb/modules/vl53l1_api.c **** 
 759:Drivers/BSP/Components/vl53l1cb/modules/vl53l1_api.c **** 
 760:Drivers/BSP/Components/vl53l1cb/modules/vl53l1_api.c **** 	if ((PresetMode == VL53L1_PRESETMODE_PROXY_RANGING_MODE) &&
 761:Drivers/BSP/Components/vl53l1cb/modules/vl53l1_api.c **** 		(DistanceMode != VL53L1_DISTANCEMODE_SHORT))
 762:Drivers/BSP/Components/vl53l1cb/modules/vl53l1_api.c **** 		return VL53L1_ERROR_INVALID_PARAMS;
 763:Drivers/BSP/Components/vl53l1cb/modules/vl53l1_api.c **** 	if ((DistanceMode != VL53L1_DISTANCEMODE_SHORT) &&
 764:Drivers/BSP/Components/vl53l1cb/modules/vl53l1_api.c **** 		(DistanceMode != VL53L1_DISTANCEMODE_MEDIUM) &&
 765:Drivers/BSP/Components/vl53l1cb/modules/vl53l1_api.c **** 		(DistanceMode != VL53L1_DISTANCEMODE_LONG))
 766:Drivers/BSP/Components/vl53l1cb/modules/vl53l1_api.c **** 		return VL53L1_ERROR_INVALID_PARAMS;
 767:Drivers/BSP/Components/vl53l1cb/modules/vl53l1_api.c **** 
 768:Drivers/BSP/Components/vl53l1cb/modules/vl53l1_api.c **** 	if (Status == VL53L1_ERROR_NONE)
 769:Drivers/BSP/Components/vl53l1cb/modules/vl53l1_api.c **** 		Status = VL53L1_get_zone_config(Dev, &zone_config);
 770:Drivers/BSP/Components/vl53l1cb/modules/vl53l1_api.c **** 
 771:Drivers/BSP/Components/vl53l1cb/modules/vl53l1_api.c **** 	inter_measurement_period_ms =  VL53L1DevDataGet(Dev,
 772:Drivers/BSP/Components/vl53l1cb/modules/vl53l1_api.c **** 				LLData.inter_measurement_period_ms);
 773:Drivers/BSP/Components/vl53l1cb/modules/vl53l1_api.c **** 
 774:Drivers/BSP/Components/vl53l1cb/modules/vl53l1_api.c **** 	if (Status == VL53L1_ERROR_NONE)
 775:Drivers/BSP/Components/vl53l1cb/modules/vl53l1_api.c **** 		Status = VL53L1_get_timeouts_us(Dev, &PhaseCalTimeoutUs,
 776:Drivers/BSP/Components/vl53l1cb/modules/vl53l1_api.c **** 			&MmTimeoutUs, &TimingBudget);
 777:Drivers/BSP/Components/vl53l1cb/modules/vl53l1_api.c **** 
 778:Drivers/BSP/Components/vl53l1cb/modules/vl53l1_api.c **** 	if (Status == VL53L1_ERROR_NONE)
 779:Drivers/BSP/Components/vl53l1cb/modules/vl53l1_api.c **** 		Status = SetPresetMode(Dev,
 780:Drivers/BSP/Components/vl53l1cb/modules/vl53l1_api.c **** 				PresetMode,
 781:Drivers/BSP/Components/vl53l1cb/modules/vl53l1_api.c **** 				DistanceMode,
 782:Drivers/BSP/Components/vl53l1cb/modules/vl53l1_api.c **** 				inter_measurement_period_ms);
 783:Drivers/BSP/Components/vl53l1cb/modules/vl53l1_api.c **** 
 784:Drivers/BSP/Components/vl53l1cb/modules/vl53l1_api.c **** 	if (Status == VL53L1_ERROR_NONE) {
 785:Drivers/BSP/Components/vl53l1cb/modules/vl53l1_api.c **** 		VL53L1DevDataSet(Dev, CurrentParameters.DistanceMode,
 786:Drivers/BSP/Components/vl53l1cb/modules/vl53l1_api.c **** 				DistanceMode);
 787:Drivers/BSP/Components/vl53l1cb/modules/vl53l1_api.c **** 	}
 788:Drivers/BSP/Components/vl53l1cb/modules/vl53l1_api.c **** 
 789:Drivers/BSP/Components/vl53l1cb/modules/vl53l1_api.c **** 	if (Status == VL53L1_ERROR_NONE) {
 790:Drivers/BSP/Components/vl53l1cb/modules/vl53l1_api.c **** 		Status = VL53L1_set_timeouts_us(Dev, PhaseCalTimeoutUs,
 791:Drivers/BSP/Components/vl53l1cb/modules/vl53l1_api.c **** 			MmTimeoutUs, TimingBudget);
 792:Drivers/BSP/Components/vl53l1cb/modules/vl53l1_api.c **** 
 793:Drivers/BSP/Components/vl53l1cb/modules/vl53l1_api.c **** 		if (Status == VL53L1_ERROR_NONE)
 794:Drivers/BSP/Components/vl53l1cb/modules/vl53l1_api.c **** 			VL53L1DevDataSet(Dev, LLData.range_config_timeout_us,
 795:Drivers/BSP/Components/vl53l1cb/modules/vl53l1_api.c **** 				TimingBudget);
 796:Drivers/BSP/Components/vl53l1cb/modules/vl53l1_api.c **** 	}
 797:Drivers/BSP/Components/vl53l1cb/modules/vl53l1_api.c **** 
 798:Drivers/BSP/Components/vl53l1cb/modules/vl53l1_api.c **** 	if (Status == VL53L1_ERROR_NONE)
 799:Drivers/BSP/Components/vl53l1cb/modules/vl53l1_api.c **** 		Status = VL53L1_set_zone_config(Dev, &zone_config);
 800:Drivers/BSP/Components/vl53l1cb/modules/vl53l1_api.c **** 
 801:Drivers/BSP/Components/vl53l1cb/modules/vl53l1_api.c **** 	LOG_FUNCTION_END(Status);
 802:Drivers/BSP/Components/vl53l1cb/modules/vl53l1_api.c **** 	return Status;
 803:Drivers/BSP/Components/vl53l1cb/modules/vl53l1_api.c **** }
 804:Drivers/BSP/Components/vl53l1cb/modules/vl53l1_api.c **** 
 805:Drivers/BSP/Components/vl53l1cb/modules/vl53l1_api.c **** VL53L1_Error VL53L1_GetDistanceMode(VL53L1_DEV Dev,
 806:Drivers/BSP/Components/vl53l1cb/modules/vl53l1_api.c **** 	VL53L1_DistanceModes *pDistanceMode)
 807:Drivers/BSP/Components/vl53l1cb/modules/vl53l1_api.c **** {
 808:Drivers/BSP/Components/vl53l1cb/modules/vl53l1_api.c **** 	VL53L1_Error Status = VL53L1_ERROR_NONE;
ARM GAS  C:\Temp\ccMpj0h9.s 			page 24


 809:Drivers/BSP/Components/vl53l1cb/modules/vl53l1_api.c **** 
 810:Drivers/BSP/Components/vl53l1cb/modules/vl53l1_api.c **** 	LOG_FUNCTION_START("");
 811:Drivers/BSP/Components/vl53l1cb/modules/vl53l1_api.c **** 
 812:Drivers/BSP/Components/vl53l1cb/modules/vl53l1_api.c **** 	*pDistanceMode = VL53L1DevDataGet(Dev, CurrentParameters.DistanceMode);
 813:Drivers/BSP/Components/vl53l1cb/modules/vl53l1_api.c **** 
 814:Drivers/BSP/Components/vl53l1cb/modules/vl53l1_api.c **** 	LOG_FUNCTION_END(Status);
 815:Drivers/BSP/Components/vl53l1cb/modules/vl53l1_api.c **** 	return Status;
 816:Drivers/BSP/Components/vl53l1cb/modules/vl53l1_api.c **** }
 817:Drivers/BSP/Components/vl53l1cb/modules/vl53l1_api.c **** 
 818:Drivers/BSP/Components/vl53l1cb/modules/vl53l1_api.c **** VL53L1_Error VL53L1_SetOutputMode(VL53L1_DEV Dev,
 819:Drivers/BSP/Components/vl53l1cb/modules/vl53l1_api.c **** 		VL53L1_OutputModes OutputMode)
 820:Drivers/BSP/Components/vl53l1cb/modules/vl53l1_api.c **** {
 821:Drivers/BSP/Components/vl53l1cb/modules/vl53l1_api.c **** 	VL53L1_Error Status = VL53L1_ERROR_NONE;
 822:Drivers/BSP/Components/vl53l1cb/modules/vl53l1_api.c **** 
 823:Drivers/BSP/Components/vl53l1cb/modules/vl53l1_api.c **** 	LOG_FUNCTION_START("");
 824:Drivers/BSP/Components/vl53l1cb/modules/vl53l1_api.c **** 
 825:Drivers/BSP/Components/vl53l1cb/modules/vl53l1_api.c **** 	if ((OutputMode != VL53L1_OUTPUTMODE_NEAREST) &&
 826:Drivers/BSP/Components/vl53l1cb/modules/vl53l1_api.c **** 		(OutputMode != VL53L1_OUTPUTMODE_STRONGEST))
 827:Drivers/BSP/Components/vl53l1cb/modules/vl53l1_api.c **** 		Status = VL53L1_ERROR_MODE_NOT_SUPPORTED;
 828:Drivers/BSP/Components/vl53l1cb/modules/vl53l1_api.c **** 	else
 829:Drivers/BSP/Components/vl53l1cb/modules/vl53l1_api.c **** 		VL53L1DevDataSet(Dev, CurrentParameters.OutputMode, OutputMode);
 830:Drivers/BSP/Components/vl53l1cb/modules/vl53l1_api.c **** 
 831:Drivers/BSP/Components/vl53l1cb/modules/vl53l1_api.c **** 	LOG_FUNCTION_END(Status);
 832:Drivers/BSP/Components/vl53l1cb/modules/vl53l1_api.c **** 	return Status;
 833:Drivers/BSP/Components/vl53l1cb/modules/vl53l1_api.c **** }
 834:Drivers/BSP/Components/vl53l1cb/modules/vl53l1_api.c **** 
 835:Drivers/BSP/Components/vl53l1cb/modules/vl53l1_api.c **** VL53L1_Error VL53L1_GetOutputMode(VL53L1_DEV Dev,
 836:Drivers/BSP/Components/vl53l1cb/modules/vl53l1_api.c **** 		VL53L1_OutputModes *pOutputMode)
 837:Drivers/BSP/Components/vl53l1cb/modules/vl53l1_api.c **** {
 838:Drivers/BSP/Components/vl53l1cb/modules/vl53l1_api.c **** 	VL53L1_Error Status = VL53L1_ERROR_NONE;
 839:Drivers/BSP/Components/vl53l1cb/modules/vl53l1_api.c **** 
 840:Drivers/BSP/Components/vl53l1cb/modules/vl53l1_api.c **** 	LOG_FUNCTION_START("");
 841:Drivers/BSP/Components/vl53l1cb/modules/vl53l1_api.c **** 
 842:Drivers/BSP/Components/vl53l1cb/modules/vl53l1_api.c **** 	*pOutputMode = VL53L1DevDataGet(Dev, CurrentParameters.OutputMode);
 843:Drivers/BSP/Components/vl53l1cb/modules/vl53l1_api.c **** 
 844:Drivers/BSP/Components/vl53l1cb/modules/vl53l1_api.c **** 	LOG_FUNCTION_END(Status);
 845:Drivers/BSP/Components/vl53l1cb/modules/vl53l1_api.c **** 	return Status;
 846:Drivers/BSP/Components/vl53l1cb/modules/vl53l1_api.c **** }
 847:Drivers/BSP/Components/vl53l1cb/modules/vl53l1_api.c **** 
 848:Drivers/BSP/Components/vl53l1cb/modules/vl53l1_api.c **** 
 849:Drivers/BSP/Components/vl53l1cb/modules/vl53l1_api.c **** 
 850:Drivers/BSP/Components/vl53l1cb/modules/vl53l1_api.c **** VL53L1_Error VL53L1_SetMeasurementTimingBudgetMicroSeconds(VL53L1_DEV Dev,
 851:Drivers/BSP/Components/vl53l1cb/modules/vl53l1_api.c **** 	uint32_t MeasurementTimingBudgetMicroSeconds)
 852:Drivers/BSP/Components/vl53l1cb/modules/vl53l1_api.c **** {
 853:Drivers/BSP/Components/vl53l1cb/modules/vl53l1_api.c **** 	VL53L1_Error Status = VL53L1_ERROR_NONE;
 854:Drivers/BSP/Components/vl53l1cb/modules/vl53l1_api.c **** 	uint8_t Mm1Enabled = 0;
 855:Drivers/BSP/Components/vl53l1cb/modules/vl53l1_api.c **** 	uint8_t Mm2Enabled = 0;
 856:Drivers/BSP/Components/vl53l1cb/modules/vl53l1_api.c **** 	uint32_t TimingGuard;
 857:Drivers/BSP/Components/vl53l1cb/modules/vl53l1_api.c **** 	uint32_t divisor;
 858:Drivers/BSP/Components/vl53l1cb/modules/vl53l1_api.c **** 	uint32_t TimingBudget = 0;
 859:Drivers/BSP/Components/vl53l1cb/modules/vl53l1_api.c **** 	uint32_t MmTimeoutUs = 0;
 860:Drivers/BSP/Components/vl53l1cb/modules/vl53l1_api.c **** 	VL53L1_PresetModes PresetMode;
 861:Drivers/BSP/Components/vl53l1cb/modules/vl53l1_api.c **** 	uint32_t PhaseCalTimeoutUs = 0;
 862:Drivers/BSP/Components/vl53l1cb/modules/vl53l1_api.c **** 	uint32_t vhv;
 863:Drivers/BSP/Components/vl53l1cb/modules/vl53l1_api.c **** 	int32_t vhv_loops;
 864:Drivers/BSP/Components/vl53l1cb/modules/vl53l1_api.c **** 	uint32_t FDAMaxTimingBudgetUs = FDA_MAX_TIMING_BUDGET_US;
 865:Drivers/BSP/Components/vl53l1cb/modules/vl53l1_api.c **** 
ARM GAS  C:\Temp\ccMpj0h9.s 			page 25


 866:Drivers/BSP/Components/vl53l1cb/modules/vl53l1_api.c **** 	LOG_FUNCTION_START("");
 867:Drivers/BSP/Components/vl53l1cb/modules/vl53l1_api.c **** 
 868:Drivers/BSP/Components/vl53l1cb/modules/vl53l1_api.c **** 
 869:Drivers/BSP/Components/vl53l1cb/modules/vl53l1_api.c **** 	if (MeasurementTimingBudgetMicroSeconds > 10000000)
 870:Drivers/BSP/Components/vl53l1cb/modules/vl53l1_api.c **** 		Status = VL53L1_ERROR_INVALID_PARAMS;
 871:Drivers/BSP/Components/vl53l1cb/modules/vl53l1_api.c **** 
 872:Drivers/BSP/Components/vl53l1cb/modules/vl53l1_api.c **** 	if (Status == VL53L1_ERROR_NONE) {
 873:Drivers/BSP/Components/vl53l1cb/modules/vl53l1_api.c **** 		Status = VL53L1_GetSequenceStepEnable(Dev,
 874:Drivers/BSP/Components/vl53l1cb/modules/vl53l1_api.c **** 			VL53L1_SEQUENCESTEP_MM1, &Mm1Enabled);
 875:Drivers/BSP/Components/vl53l1cb/modules/vl53l1_api.c **** 	}
 876:Drivers/BSP/Components/vl53l1cb/modules/vl53l1_api.c **** 
 877:Drivers/BSP/Components/vl53l1cb/modules/vl53l1_api.c **** 	if (Status == VL53L1_ERROR_NONE) {
 878:Drivers/BSP/Components/vl53l1cb/modules/vl53l1_api.c **** 		Status = VL53L1_GetSequenceStepEnable(Dev,
 879:Drivers/BSP/Components/vl53l1cb/modules/vl53l1_api.c **** 			VL53L1_SEQUENCESTEP_MM2, &Mm2Enabled);
 880:Drivers/BSP/Components/vl53l1cb/modules/vl53l1_api.c **** 	}
 881:Drivers/BSP/Components/vl53l1cb/modules/vl53l1_api.c **** 
 882:Drivers/BSP/Components/vl53l1cb/modules/vl53l1_api.c **** 	if (Status == VL53L1_ERROR_NONE)
 883:Drivers/BSP/Components/vl53l1cb/modules/vl53l1_api.c **** 		Status = VL53L1_get_timeouts_us(Dev,
 884:Drivers/BSP/Components/vl53l1cb/modules/vl53l1_api.c **** 			&PhaseCalTimeoutUs,
 885:Drivers/BSP/Components/vl53l1cb/modules/vl53l1_api.c **** 			&MmTimeoutUs,
 886:Drivers/BSP/Components/vl53l1cb/modules/vl53l1_api.c **** 			&TimingBudget);
 887:Drivers/BSP/Components/vl53l1cb/modules/vl53l1_api.c **** 
 888:Drivers/BSP/Components/vl53l1cb/modules/vl53l1_api.c **** 	if (Status == VL53L1_ERROR_NONE) {
 889:Drivers/BSP/Components/vl53l1cb/modules/vl53l1_api.c **** 		PresetMode = VL53L1DevDataGet(Dev,
 890:Drivers/BSP/Components/vl53l1cb/modules/vl53l1_api.c **** 				CurrentParameters.PresetMode);
 891:Drivers/BSP/Components/vl53l1cb/modules/vl53l1_api.c **** 
 892:Drivers/BSP/Components/vl53l1cb/modules/vl53l1_api.c **** 		TimingGuard = 0;
 893:Drivers/BSP/Components/vl53l1cb/modules/vl53l1_api.c **** 		divisor = 1;
 894:Drivers/BSP/Components/vl53l1cb/modules/vl53l1_api.c **** 		switch (PresetMode) {
 895:Drivers/BSP/Components/vl53l1cb/modules/vl53l1_api.c **** 		case VL53L1_PRESETMODE_LITE_RANGING:
 896:Drivers/BSP/Components/vl53l1cb/modules/vl53l1_api.c **** 			if ((Mm1Enabled == 1) || (Mm2Enabled == 1))
 897:Drivers/BSP/Components/vl53l1cb/modules/vl53l1_api.c **** 				TimingGuard = 5000;
 898:Drivers/BSP/Components/vl53l1cb/modules/vl53l1_api.c **** 			else
 899:Drivers/BSP/Components/vl53l1cb/modules/vl53l1_api.c **** 				TimingGuard = 1000;
 900:Drivers/BSP/Components/vl53l1cb/modules/vl53l1_api.c **** 		break;
 901:Drivers/BSP/Components/vl53l1cb/modules/vl53l1_api.c **** 
 902:Drivers/BSP/Components/vl53l1cb/modules/vl53l1_api.c **** 		case VL53L1_PRESETMODE_AUTONOMOUS:
 903:Drivers/BSP/Components/vl53l1cb/modules/vl53l1_api.c **** 			FDAMaxTimingBudgetUs *= 2;
 904:Drivers/BSP/Components/vl53l1cb/modules/vl53l1_api.c **** 			if ((Mm1Enabled == 1) || (Mm2Enabled == 1))
 905:Drivers/BSP/Components/vl53l1cb/modules/vl53l1_api.c **** 				TimingGuard = 26600;
 906:Drivers/BSP/Components/vl53l1cb/modules/vl53l1_api.c **** 			else
 907:Drivers/BSP/Components/vl53l1cb/modules/vl53l1_api.c **** 				TimingGuard = 21600;
 908:Drivers/BSP/Components/vl53l1cb/modules/vl53l1_api.c **** 			divisor = 2;
 909:Drivers/BSP/Components/vl53l1cb/modules/vl53l1_api.c **** 		break;
 910:Drivers/BSP/Components/vl53l1cb/modules/vl53l1_api.c **** 
 911:Drivers/BSP/Components/vl53l1cb/modules/vl53l1_api.c **** 		case VL53L1_PRESETMODE_LOWPOWER_AUTONOMOUS:
 912:Drivers/BSP/Components/vl53l1cb/modules/vl53l1_api.c **** 			FDAMaxTimingBudgetUs *= 2;
 913:Drivers/BSP/Components/vl53l1cb/modules/vl53l1_api.c **** 			vhv = LOWPOWER_AUTO_VHV_LOOP_DURATION_US;
 914:Drivers/BSP/Components/vl53l1cb/modules/vl53l1_api.c **** 			VL53L1_get_tuning_parm(Dev,
 915:Drivers/BSP/Components/vl53l1cb/modules/vl53l1_api.c **** 				VL53L1_TUNINGPARM_LOWPOWERAUTO_VHV_LOOP_BOUND,
 916:Drivers/BSP/Components/vl53l1cb/modules/vl53l1_api.c **** 				&vhv_loops);
 917:Drivers/BSP/Components/vl53l1cb/modules/vl53l1_api.c **** 			if (vhv_loops > 0) {
 918:Drivers/BSP/Components/vl53l1cb/modules/vl53l1_api.c **** 				vhv += vhv_loops *
 919:Drivers/BSP/Components/vl53l1cb/modules/vl53l1_api.c **** 					LOWPOWER_AUTO_VHV_LOOP_DURATION_US;
 920:Drivers/BSP/Components/vl53l1cb/modules/vl53l1_api.c **** 			}
 921:Drivers/BSP/Components/vl53l1cb/modules/vl53l1_api.c **** 			TimingGuard = LOWPOWER_AUTO_OVERHEAD_BEFORE_A_RANGING +
 922:Drivers/BSP/Components/vl53l1cb/modules/vl53l1_api.c **** 				LOWPOWER_AUTO_OVERHEAD_BETWEEN_A_B_RANGING +
ARM GAS  C:\Temp\ccMpj0h9.s 			page 26


 923:Drivers/BSP/Components/vl53l1cb/modules/vl53l1_api.c **** 				vhv;
 924:Drivers/BSP/Components/vl53l1cb/modules/vl53l1_api.c **** 			divisor = 2;
 925:Drivers/BSP/Components/vl53l1cb/modules/vl53l1_api.c **** 		break;
 926:Drivers/BSP/Components/vl53l1cb/modules/vl53l1_api.c **** 
 927:Drivers/BSP/Components/vl53l1cb/modules/vl53l1_api.c **** 		case VL53L1_PRESETMODE_RANGING:
 928:Drivers/BSP/Components/vl53l1cb/modules/vl53l1_api.c **** 		case VL53L1_PRESETMODE_MULTIZONES_SCANNING:
 929:Drivers/BSP/Components/vl53l1cb/modules/vl53l1_api.c **** 		case VL53L1_PRESETMODE_PROXY_RANGING_MODE:
 930:Drivers/BSP/Components/vl53l1cb/modules/vl53l1_api.c **** 			TimingGuard = 1700;
 931:Drivers/BSP/Components/vl53l1cb/modules/vl53l1_api.c **** 			divisor = 6;
 932:Drivers/BSP/Components/vl53l1cb/modules/vl53l1_api.c **** 		break;
 933:Drivers/BSP/Components/vl53l1cb/modules/vl53l1_api.c **** 
 934:Drivers/BSP/Components/vl53l1cb/modules/vl53l1_api.c **** 		case VL53L1_PRESETMODE_OLT:
 935:Drivers/BSP/Components/vl53l1cb/modules/vl53l1_api.c **** 			TimingGuard = MmTimeoutUs + 5000;
 936:Drivers/BSP/Components/vl53l1cb/modules/vl53l1_api.c **** 		break;
 937:Drivers/BSP/Components/vl53l1cb/modules/vl53l1_api.c **** 		default:
 938:Drivers/BSP/Components/vl53l1cb/modules/vl53l1_api.c **** 
 939:Drivers/BSP/Components/vl53l1cb/modules/vl53l1_api.c **** 			Status = VL53L1_ERROR_MODE_NOT_SUPPORTED;
 940:Drivers/BSP/Components/vl53l1cb/modules/vl53l1_api.c **** 		}
 941:Drivers/BSP/Components/vl53l1cb/modules/vl53l1_api.c **** 
 942:Drivers/BSP/Components/vl53l1cb/modules/vl53l1_api.c **** 		if (MeasurementTimingBudgetMicroSeconds <= TimingGuard)
 943:Drivers/BSP/Components/vl53l1cb/modules/vl53l1_api.c **** 			Status = VL53L1_ERROR_INVALID_PARAMS;
 944:Drivers/BSP/Components/vl53l1cb/modules/vl53l1_api.c **** 		else {
 945:Drivers/BSP/Components/vl53l1cb/modules/vl53l1_api.c **** 			TimingBudget = (MeasurementTimingBudgetMicroSeconds
 946:Drivers/BSP/Components/vl53l1cb/modules/vl53l1_api.c **** 					- TimingGuard);
 947:Drivers/BSP/Components/vl53l1cb/modules/vl53l1_api.c **** 		}
 948:Drivers/BSP/Components/vl53l1cb/modules/vl53l1_api.c **** 
 949:Drivers/BSP/Components/vl53l1cb/modules/vl53l1_api.c **** 		if (Status == VL53L1_ERROR_NONE) {
 950:Drivers/BSP/Components/vl53l1cb/modules/vl53l1_api.c **** 			if (TimingBudget > FDAMaxTimingBudgetUs)
 951:Drivers/BSP/Components/vl53l1cb/modules/vl53l1_api.c **** 				Status = VL53L1_ERROR_INVALID_PARAMS;
 952:Drivers/BSP/Components/vl53l1cb/modules/vl53l1_api.c **** 			else {
 953:Drivers/BSP/Components/vl53l1cb/modules/vl53l1_api.c **** 				TimingBudget /= divisor;
 954:Drivers/BSP/Components/vl53l1cb/modules/vl53l1_api.c **** 				Status = VL53L1_set_timeouts_us(
 955:Drivers/BSP/Components/vl53l1cb/modules/vl53l1_api.c **** 					Dev,
 956:Drivers/BSP/Components/vl53l1cb/modules/vl53l1_api.c **** 					PhaseCalTimeoutUs,
 957:Drivers/BSP/Components/vl53l1cb/modules/vl53l1_api.c **** 					MmTimeoutUs,
 958:Drivers/BSP/Components/vl53l1cb/modules/vl53l1_api.c **** 					TimingBudget);
 959:Drivers/BSP/Components/vl53l1cb/modules/vl53l1_api.c **** 			}
 960:Drivers/BSP/Components/vl53l1cb/modules/vl53l1_api.c **** 
 961:Drivers/BSP/Components/vl53l1cb/modules/vl53l1_api.c **** 			if (Status == VL53L1_ERROR_NONE)
 962:Drivers/BSP/Components/vl53l1cb/modules/vl53l1_api.c **** 				VL53L1DevDataSet(Dev,
 963:Drivers/BSP/Components/vl53l1cb/modules/vl53l1_api.c **** 					LLData.range_config_timeout_us,
 964:Drivers/BSP/Components/vl53l1cb/modules/vl53l1_api.c **** 					TimingBudget);
 965:Drivers/BSP/Components/vl53l1cb/modules/vl53l1_api.c **** 		}
 966:Drivers/BSP/Components/vl53l1cb/modules/vl53l1_api.c **** 	}
 967:Drivers/BSP/Components/vl53l1cb/modules/vl53l1_api.c **** 	if (Status == VL53L1_ERROR_NONE) {
 968:Drivers/BSP/Components/vl53l1cb/modules/vl53l1_api.c **** 		VL53L1DevDataSet(Dev,
 969:Drivers/BSP/Components/vl53l1cb/modules/vl53l1_api.c **** 			CurrentParameters.MeasurementTimingBudgetMicroSeconds,
 970:Drivers/BSP/Components/vl53l1cb/modules/vl53l1_api.c **** 			MeasurementTimingBudgetMicroSeconds);
 971:Drivers/BSP/Components/vl53l1cb/modules/vl53l1_api.c **** 	}
 972:Drivers/BSP/Components/vl53l1cb/modules/vl53l1_api.c **** 
 973:Drivers/BSP/Components/vl53l1cb/modules/vl53l1_api.c **** 	LOG_FUNCTION_END(Status);
 974:Drivers/BSP/Components/vl53l1cb/modules/vl53l1_api.c **** 	return Status;
 975:Drivers/BSP/Components/vl53l1cb/modules/vl53l1_api.c **** }
 976:Drivers/BSP/Components/vl53l1cb/modules/vl53l1_api.c **** 
 977:Drivers/BSP/Components/vl53l1cb/modules/vl53l1_api.c **** 
 978:Drivers/BSP/Components/vl53l1cb/modules/vl53l1_api.c **** VL53L1_Error VL53L1_GetMeasurementTimingBudgetMicroSeconds(VL53L1_DEV Dev,
 979:Drivers/BSP/Components/vl53l1cb/modules/vl53l1_api.c **** 	uint32_t *pMeasurementTimingBudgetMicroSeconds)
ARM GAS  C:\Temp\ccMpj0h9.s 			page 27


 980:Drivers/BSP/Components/vl53l1cb/modules/vl53l1_api.c **** {
 981:Drivers/BSP/Components/vl53l1cb/modules/vl53l1_api.c **** 	VL53L1_Error Status = VL53L1_ERROR_NONE;
 982:Drivers/BSP/Components/vl53l1cb/modules/vl53l1_api.c **** 	uint8_t Mm1Enabled = 0;
 983:Drivers/BSP/Components/vl53l1cb/modules/vl53l1_api.c **** 	uint8_t Mm2Enabled = 0;
 984:Drivers/BSP/Components/vl53l1cb/modules/vl53l1_api.c **** 	uint32_t  MmTimeoutUs = 0;
 985:Drivers/BSP/Components/vl53l1cb/modules/vl53l1_api.c **** 	uint32_t  RangeTimeoutUs = 0;
 986:Drivers/BSP/Components/vl53l1cb/modules/vl53l1_api.c **** 	uint32_t  MeasTimingBdg = 0;
 987:Drivers/BSP/Components/vl53l1cb/modules/vl53l1_api.c **** 	uint32_t PhaseCalTimeoutUs = 0;
 988:Drivers/BSP/Components/vl53l1cb/modules/vl53l1_api.c **** 	VL53L1_PresetModes PresetMode;
 989:Drivers/BSP/Components/vl53l1cb/modules/vl53l1_api.c **** 	uint32_t TimingGuard;
 990:Drivers/BSP/Components/vl53l1cb/modules/vl53l1_api.c **** 	uint32_t vhv;
 991:Drivers/BSP/Components/vl53l1cb/modules/vl53l1_api.c **** 	int32_t vhv_loops;
 992:Drivers/BSP/Components/vl53l1cb/modules/vl53l1_api.c **** 
 993:Drivers/BSP/Components/vl53l1cb/modules/vl53l1_api.c **** 	LOG_FUNCTION_START("");
 994:Drivers/BSP/Components/vl53l1cb/modules/vl53l1_api.c **** 
 995:Drivers/BSP/Components/vl53l1cb/modules/vl53l1_api.c **** 	*pMeasurementTimingBudgetMicroSeconds = 0;
 996:Drivers/BSP/Components/vl53l1cb/modules/vl53l1_api.c **** 
 997:Drivers/BSP/Components/vl53l1cb/modules/vl53l1_api.c **** 	if (Status == VL53L1_ERROR_NONE)
 998:Drivers/BSP/Components/vl53l1cb/modules/vl53l1_api.c **** 		Status = VL53L1_GetSequenceStepEnable(Dev,
 999:Drivers/BSP/Components/vl53l1cb/modules/vl53l1_api.c **** 			VL53L1_SEQUENCESTEP_MM1, &Mm1Enabled);
1000:Drivers/BSP/Components/vl53l1cb/modules/vl53l1_api.c **** 
1001:Drivers/BSP/Components/vl53l1cb/modules/vl53l1_api.c **** 	if (Status == VL53L1_ERROR_NONE)
1002:Drivers/BSP/Components/vl53l1cb/modules/vl53l1_api.c **** 		Status = VL53L1_GetSequenceStepEnable(Dev,
1003:Drivers/BSP/Components/vl53l1cb/modules/vl53l1_api.c **** 			VL53L1_SEQUENCESTEP_MM2, &Mm2Enabled);
1004:Drivers/BSP/Components/vl53l1cb/modules/vl53l1_api.c **** 
1005:Drivers/BSP/Components/vl53l1cb/modules/vl53l1_api.c **** 	if (Status == VL53L1_ERROR_NONE)
1006:Drivers/BSP/Components/vl53l1cb/modules/vl53l1_api.c **** 		Status = VL53L1_get_timeouts_us(Dev,
1007:Drivers/BSP/Components/vl53l1cb/modules/vl53l1_api.c **** 			&PhaseCalTimeoutUs,
1008:Drivers/BSP/Components/vl53l1cb/modules/vl53l1_api.c **** 			&MmTimeoutUs,
1009:Drivers/BSP/Components/vl53l1cb/modules/vl53l1_api.c **** 			&RangeTimeoutUs);
1010:Drivers/BSP/Components/vl53l1cb/modules/vl53l1_api.c **** 
1011:Drivers/BSP/Components/vl53l1cb/modules/vl53l1_api.c **** 	if (Status == VL53L1_ERROR_NONE) {
1012:Drivers/BSP/Components/vl53l1cb/modules/vl53l1_api.c **** 		PresetMode = VL53L1DevDataGet(Dev,
1013:Drivers/BSP/Components/vl53l1cb/modules/vl53l1_api.c **** 				CurrentParameters.PresetMode);
1014:Drivers/BSP/Components/vl53l1cb/modules/vl53l1_api.c **** 
1015:Drivers/BSP/Components/vl53l1cb/modules/vl53l1_api.c **** 		switch (PresetMode) {
1016:Drivers/BSP/Components/vl53l1cb/modules/vl53l1_api.c **** 		case VL53L1_PRESETMODE_LITE_RANGING:
1017:Drivers/BSP/Components/vl53l1cb/modules/vl53l1_api.c **** 			if ((Mm1Enabled == 1) || (Mm2Enabled == 1))
1018:Drivers/BSP/Components/vl53l1cb/modules/vl53l1_api.c **** 				MeasTimingBdg = RangeTimeoutUs + 5000;
1019:Drivers/BSP/Components/vl53l1cb/modules/vl53l1_api.c **** 			else
1020:Drivers/BSP/Components/vl53l1cb/modules/vl53l1_api.c **** 				MeasTimingBdg = RangeTimeoutUs + 1000;
1021:Drivers/BSP/Components/vl53l1cb/modules/vl53l1_api.c **** 
1022:Drivers/BSP/Components/vl53l1cb/modules/vl53l1_api.c **** 		break;
1023:Drivers/BSP/Components/vl53l1cb/modules/vl53l1_api.c **** 
1024:Drivers/BSP/Components/vl53l1cb/modules/vl53l1_api.c **** 		case VL53L1_PRESETMODE_AUTONOMOUS:
1025:Drivers/BSP/Components/vl53l1cb/modules/vl53l1_api.c **** 			if ((Mm1Enabled == 1) || (Mm2Enabled == 1))
1026:Drivers/BSP/Components/vl53l1cb/modules/vl53l1_api.c **** 				MeasTimingBdg = 2 * RangeTimeoutUs + 26600;
1027:Drivers/BSP/Components/vl53l1cb/modules/vl53l1_api.c **** 			else
1028:Drivers/BSP/Components/vl53l1cb/modules/vl53l1_api.c **** 				MeasTimingBdg = 2 * RangeTimeoutUs + 21600;
1029:Drivers/BSP/Components/vl53l1cb/modules/vl53l1_api.c **** 
1030:Drivers/BSP/Components/vl53l1cb/modules/vl53l1_api.c **** 		break;
1031:Drivers/BSP/Components/vl53l1cb/modules/vl53l1_api.c **** 
1032:Drivers/BSP/Components/vl53l1cb/modules/vl53l1_api.c **** 		case VL53L1_PRESETMODE_LOWPOWER_AUTONOMOUS:
1033:Drivers/BSP/Components/vl53l1cb/modules/vl53l1_api.c **** 			vhv = LOWPOWER_AUTO_VHV_LOOP_DURATION_US;
1034:Drivers/BSP/Components/vl53l1cb/modules/vl53l1_api.c **** 			VL53L1_get_tuning_parm(Dev,
1035:Drivers/BSP/Components/vl53l1cb/modules/vl53l1_api.c **** 				VL53L1_TUNINGPARM_LOWPOWERAUTO_VHV_LOOP_BOUND,
1036:Drivers/BSP/Components/vl53l1cb/modules/vl53l1_api.c **** 				&vhv_loops);
ARM GAS  C:\Temp\ccMpj0h9.s 			page 28


1037:Drivers/BSP/Components/vl53l1cb/modules/vl53l1_api.c **** 			if (vhv_loops > 0) {
1038:Drivers/BSP/Components/vl53l1cb/modules/vl53l1_api.c **** 				vhv += vhv_loops *
1039:Drivers/BSP/Components/vl53l1cb/modules/vl53l1_api.c **** 					LOWPOWER_AUTO_VHV_LOOP_DURATION_US;
1040:Drivers/BSP/Components/vl53l1cb/modules/vl53l1_api.c **** 			}
1041:Drivers/BSP/Components/vl53l1cb/modules/vl53l1_api.c **** 			TimingGuard = LOWPOWER_AUTO_OVERHEAD_BEFORE_A_RANGING +
1042:Drivers/BSP/Components/vl53l1cb/modules/vl53l1_api.c **** 				LOWPOWER_AUTO_OVERHEAD_BETWEEN_A_B_RANGING +
1043:Drivers/BSP/Components/vl53l1cb/modules/vl53l1_api.c **** 				vhv;
1044:Drivers/BSP/Components/vl53l1cb/modules/vl53l1_api.c **** 			MeasTimingBdg = 2 * RangeTimeoutUs + TimingGuard;
1045:Drivers/BSP/Components/vl53l1cb/modules/vl53l1_api.c **** 		break;
1046:Drivers/BSP/Components/vl53l1cb/modules/vl53l1_api.c **** 
1047:Drivers/BSP/Components/vl53l1cb/modules/vl53l1_api.c **** 		case VL53L1_PRESETMODE_RANGING:
1048:Drivers/BSP/Components/vl53l1cb/modules/vl53l1_api.c **** 		case VL53L1_PRESETMODE_MULTIZONES_SCANNING:
1049:Drivers/BSP/Components/vl53l1cb/modules/vl53l1_api.c **** 		case VL53L1_PRESETMODE_PROXY_RANGING_MODE:
1050:Drivers/BSP/Components/vl53l1cb/modules/vl53l1_api.c **** 			MeasTimingBdg = (6 * RangeTimeoutUs) + 1700;
1051:Drivers/BSP/Components/vl53l1cb/modules/vl53l1_api.c **** 		break;
1052:Drivers/BSP/Components/vl53l1cb/modules/vl53l1_api.c **** 
1053:Drivers/BSP/Components/vl53l1cb/modules/vl53l1_api.c **** 		case VL53L1_PRESETMODE_OLT:
1054:Drivers/BSP/Components/vl53l1cb/modules/vl53l1_api.c **** 			MeasTimingBdg = RangeTimeoutUs + MmTimeoutUs + 5000;
1055:Drivers/BSP/Components/vl53l1cb/modules/vl53l1_api.c **** 		break;
1056:Drivers/BSP/Components/vl53l1cb/modules/vl53l1_api.c **** 		default:
1057:Drivers/BSP/Components/vl53l1cb/modules/vl53l1_api.c **** 
1058:Drivers/BSP/Components/vl53l1cb/modules/vl53l1_api.c **** 			Status = VL53L1_ERROR_MODE_NOT_SUPPORTED;
1059:Drivers/BSP/Components/vl53l1cb/modules/vl53l1_api.c **** 		}
1060:Drivers/BSP/Components/vl53l1cb/modules/vl53l1_api.c **** 	}
1061:Drivers/BSP/Components/vl53l1cb/modules/vl53l1_api.c **** 	if (Status == VL53L1_ERROR_NONE)
1062:Drivers/BSP/Components/vl53l1cb/modules/vl53l1_api.c **** 		*pMeasurementTimingBudgetMicroSeconds = MeasTimingBdg;
1063:Drivers/BSP/Components/vl53l1cb/modules/vl53l1_api.c **** 
1064:Drivers/BSP/Components/vl53l1cb/modules/vl53l1_api.c **** 	LOG_FUNCTION_END(Status);
1065:Drivers/BSP/Components/vl53l1cb/modules/vl53l1_api.c **** 	return Status;
1066:Drivers/BSP/Components/vl53l1cb/modules/vl53l1_api.c **** }
1067:Drivers/BSP/Components/vl53l1cb/modules/vl53l1_api.c **** 
1068:Drivers/BSP/Components/vl53l1cb/modules/vl53l1_api.c **** 
1069:Drivers/BSP/Components/vl53l1cb/modules/vl53l1_api.c **** 
1070:Drivers/BSP/Components/vl53l1cb/modules/vl53l1_api.c **** VL53L1_Error VL53L1_SetInterMeasurementPeriodMilliSeconds(VL53L1_DEV Dev,
1071:Drivers/BSP/Components/vl53l1cb/modules/vl53l1_api.c **** 	uint32_t InterMeasurementPeriodMilliSeconds)
1072:Drivers/BSP/Components/vl53l1cb/modules/vl53l1_api.c **** {
1073:Drivers/BSP/Components/vl53l1cb/modules/vl53l1_api.c **** 	VL53L1_Error Status = VL53L1_ERROR_NONE;
1074:Drivers/BSP/Components/vl53l1cb/modules/vl53l1_api.c **** 	uint32_t adjustedIMP;
1075:Drivers/BSP/Components/vl53l1cb/modules/vl53l1_api.c **** 
1076:Drivers/BSP/Components/vl53l1cb/modules/vl53l1_api.c **** 	LOG_FUNCTION_START("");
1077:Drivers/BSP/Components/vl53l1cb/modules/vl53l1_api.c **** 
1078:Drivers/BSP/Components/vl53l1cb/modules/vl53l1_api.c **** 
1079:Drivers/BSP/Components/vl53l1cb/modules/vl53l1_api.c **** 	adjustedIMP = InterMeasurementPeriodMilliSeconds;
1080:Drivers/BSP/Components/vl53l1cb/modules/vl53l1_api.c **** 	adjustedIMP += (adjustedIMP * 64) / 1000;
1081:Drivers/BSP/Components/vl53l1cb/modules/vl53l1_api.c **** 
1082:Drivers/BSP/Components/vl53l1cb/modules/vl53l1_api.c **** 	Status = VL53L1_set_inter_measurement_period_ms(Dev,
1083:Drivers/BSP/Components/vl53l1cb/modules/vl53l1_api.c **** 			adjustedIMP);
1084:Drivers/BSP/Components/vl53l1cb/modules/vl53l1_api.c **** 
1085:Drivers/BSP/Components/vl53l1cb/modules/vl53l1_api.c **** 	LOG_FUNCTION_END(Status);
1086:Drivers/BSP/Components/vl53l1cb/modules/vl53l1_api.c **** 	return Status;
1087:Drivers/BSP/Components/vl53l1cb/modules/vl53l1_api.c **** }
1088:Drivers/BSP/Components/vl53l1cb/modules/vl53l1_api.c **** 
1089:Drivers/BSP/Components/vl53l1cb/modules/vl53l1_api.c **** VL53L1_Error VL53L1_GetInterMeasurementPeriodMilliSeconds(VL53L1_DEV Dev,
1090:Drivers/BSP/Components/vl53l1cb/modules/vl53l1_api.c **** 	uint32_t *pInterMeasurementPeriodMilliSeconds)
1091:Drivers/BSP/Components/vl53l1cb/modules/vl53l1_api.c **** {
1092:Drivers/BSP/Components/vl53l1cb/modules/vl53l1_api.c **** 	VL53L1_Error Status = VL53L1_ERROR_NONE;
1093:Drivers/BSP/Components/vl53l1cb/modules/vl53l1_api.c **** 	uint32_t adjustedIMP;
ARM GAS  C:\Temp\ccMpj0h9.s 			page 29


1094:Drivers/BSP/Components/vl53l1cb/modules/vl53l1_api.c **** 
1095:Drivers/BSP/Components/vl53l1cb/modules/vl53l1_api.c **** 	LOG_FUNCTION_START("");
1096:Drivers/BSP/Components/vl53l1cb/modules/vl53l1_api.c **** 
1097:Drivers/BSP/Components/vl53l1cb/modules/vl53l1_api.c **** 	Status = VL53L1_get_inter_measurement_period_ms(Dev, &adjustedIMP);
1098:Drivers/BSP/Components/vl53l1cb/modules/vl53l1_api.c **** 
1099:Drivers/BSP/Components/vl53l1cb/modules/vl53l1_api.c **** 	adjustedIMP -= (adjustedIMP * 64) / 1000;
1100:Drivers/BSP/Components/vl53l1cb/modules/vl53l1_api.c **** 	*pInterMeasurementPeriodMilliSeconds = adjustedIMP;
1101:Drivers/BSP/Components/vl53l1cb/modules/vl53l1_api.c **** 
1102:Drivers/BSP/Components/vl53l1cb/modules/vl53l1_api.c **** 
1103:Drivers/BSP/Components/vl53l1cb/modules/vl53l1_api.c **** 	LOG_FUNCTION_END(Status);
1104:Drivers/BSP/Components/vl53l1cb/modules/vl53l1_api.c **** 	return Status;
1105:Drivers/BSP/Components/vl53l1cb/modules/vl53l1_api.c **** }
1106:Drivers/BSP/Components/vl53l1cb/modules/vl53l1_api.c **** 
1107:Drivers/BSP/Components/vl53l1cb/modules/vl53l1_api.c **** VL53L1_Error VL53L1_SetDmaxReflectance(VL53L1_DEV Dev,
1108:Drivers/BSP/Components/vl53l1cb/modules/vl53l1_api.c **** 		FixPoint1616_t DmaxReflectance)
1109:Drivers/BSP/Components/vl53l1cb/modules/vl53l1_api.c **** {
1110:Drivers/BSP/Components/vl53l1cb/modules/vl53l1_api.c **** 	VL53L1_Error Status = VL53L1_ERROR_NONE;
1111:Drivers/BSP/Components/vl53l1cb/modules/vl53l1_api.c **** 	VL53L1_dmax_reflectance_array_t dmax_reflectances;
1112:Drivers/BSP/Components/vl53l1cb/modules/vl53l1_api.c **** 
1113:Drivers/BSP/Components/vl53l1cb/modules/vl53l1_api.c **** 	LOG_FUNCTION_START("");
1114:Drivers/BSP/Components/vl53l1cb/modules/vl53l1_api.c **** 
1115:Drivers/BSP/Components/vl53l1cb/modules/vl53l1_api.c **** 	if (DmaxReflectance > 100*65536)
1116:Drivers/BSP/Components/vl53l1cb/modules/vl53l1_api.c **** 		Status = VL53L1_ERROR_INVALID_PARAMS;
1117:Drivers/BSP/Components/vl53l1cb/modules/vl53l1_api.c **** 
1118:Drivers/BSP/Components/vl53l1cb/modules/vl53l1_api.c **** 	if (Status == VL53L1_ERROR_NONE)
1119:Drivers/BSP/Components/vl53l1cb/modules/vl53l1_api.c **** 		Status = VL53L1_get_dmax_reflectance_values(Dev,
1120:Drivers/BSP/Components/vl53l1cb/modules/vl53l1_api.c **** 				&dmax_reflectances);
1121:Drivers/BSP/Components/vl53l1cb/modules/vl53l1_api.c **** 
1122:Drivers/BSP/Components/vl53l1cb/modules/vl53l1_api.c **** 	if (Status == VL53L1_ERROR_NONE) {
1123:Drivers/BSP/Components/vl53l1cb/modules/vl53l1_api.c **** 		dmax_reflectances.target_reflectance_for_dmax[
1124:Drivers/BSP/Components/vl53l1cb/modules/vl53l1_api.c **** 			DMAX_REFLECTANCE_IDX] =
1125:Drivers/BSP/Components/vl53l1cb/modules/vl53l1_api.c **** 			VL53L1_FIXPOINT1616TOFIXPOINT72(DmaxReflectance);
1126:Drivers/BSP/Components/vl53l1cb/modules/vl53l1_api.c **** 		Status = VL53L1_set_dmax_reflectance_values(Dev,
1127:Drivers/BSP/Components/vl53l1cb/modules/vl53l1_api.c **** 				&dmax_reflectances);
1128:Drivers/BSP/Components/vl53l1cb/modules/vl53l1_api.c **** 	}
1129:Drivers/BSP/Components/vl53l1cb/modules/vl53l1_api.c **** 
1130:Drivers/BSP/Components/vl53l1cb/modules/vl53l1_api.c **** 	LOG_FUNCTION_END(Status);
1131:Drivers/BSP/Components/vl53l1cb/modules/vl53l1_api.c **** 	return Status;
1132:Drivers/BSP/Components/vl53l1cb/modules/vl53l1_api.c **** }
1133:Drivers/BSP/Components/vl53l1cb/modules/vl53l1_api.c **** 
1134:Drivers/BSP/Components/vl53l1cb/modules/vl53l1_api.c **** VL53L1_Error VL53L1_GetDmaxReflectance(VL53L1_DEV Dev,
1135:Drivers/BSP/Components/vl53l1cb/modules/vl53l1_api.c **** 		FixPoint1616_t *pDmaxReflectance)
1136:Drivers/BSP/Components/vl53l1cb/modules/vl53l1_api.c **** {
1137:Drivers/BSP/Components/vl53l1cb/modules/vl53l1_api.c **** 	VL53L1_Error Status = VL53L1_ERROR_NONE;
1138:Drivers/BSP/Components/vl53l1cb/modules/vl53l1_api.c **** 	VL53L1_dmax_reflectance_array_t dmax_reflectances;
1139:Drivers/BSP/Components/vl53l1cb/modules/vl53l1_api.c **** 	uint16_t r;
1140:Drivers/BSP/Components/vl53l1cb/modules/vl53l1_api.c **** 
1141:Drivers/BSP/Components/vl53l1cb/modules/vl53l1_api.c **** 	LOG_FUNCTION_START("");
1142:Drivers/BSP/Components/vl53l1cb/modules/vl53l1_api.c **** 	Status = VL53L1_get_dmax_reflectance_values(Dev, &dmax_reflectances);
1143:Drivers/BSP/Components/vl53l1cb/modules/vl53l1_api.c **** 	if (Status == VL53L1_ERROR_NONE) {
1144:Drivers/BSP/Components/vl53l1cb/modules/vl53l1_api.c **** 		r = dmax_reflectances.target_reflectance_for_dmax[
1145:Drivers/BSP/Components/vl53l1cb/modules/vl53l1_api.c **** 							DMAX_REFLECTANCE_IDX];
1146:Drivers/BSP/Components/vl53l1cb/modules/vl53l1_api.c **** 		*pDmaxReflectance = VL53L1_FIXPOINT72TOFIXPOINT1616(r);
1147:Drivers/BSP/Components/vl53l1cb/modules/vl53l1_api.c **** 	}
1148:Drivers/BSP/Components/vl53l1cb/modules/vl53l1_api.c **** 
1149:Drivers/BSP/Components/vl53l1cb/modules/vl53l1_api.c **** 	LOG_FUNCTION_END(Status);
1150:Drivers/BSP/Components/vl53l1cb/modules/vl53l1_api.c **** 	return Status;
ARM GAS  C:\Temp\ccMpj0h9.s 			page 30


1151:Drivers/BSP/Components/vl53l1cb/modules/vl53l1_api.c **** }
1152:Drivers/BSP/Components/vl53l1cb/modules/vl53l1_api.c **** 
1153:Drivers/BSP/Components/vl53l1cb/modules/vl53l1_api.c **** 
1154:Drivers/BSP/Components/vl53l1cb/modules/vl53l1_api.c **** VL53L1_Error VL53L1_SetDmaxMode(VL53L1_DEV Dev,
1155:Drivers/BSP/Components/vl53l1cb/modules/vl53l1_api.c **** 		VL53L1_DeviceDmaxModes DmaxMode)
1156:Drivers/BSP/Components/vl53l1cb/modules/vl53l1_api.c **** {
1157:Drivers/BSP/Components/vl53l1cb/modules/vl53l1_api.c **** 
1158:Drivers/BSP/Components/vl53l1cb/modules/vl53l1_api.c **** 	VL53L1_Error  Status = VL53L1_ERROR_NONE;
1159:Drivers/BSP/Components/vl53l1cb/modules/vl53l1_api.c **** 	VL53L1_DeviceDmaxMode dmax_mode;
1160:Drivers/BSP/Components/vl53l1cb/modules/vl53l1_api.c **** 
1161:Drivers/BSP/Components/vl53l1cb/modules/vl53l1_api.c **** 	LOG_FUNCTION_START("");
1162:Drivers/BSP/Components/vl53l1cb/modules/vl53l1_api.c **** 
1163:Drivers/BSP/Components/vl53l1cb/modules/vl53l1_api.c **** 	switch (DmaxMode) {
1164:Drivers/BSP/Components/vl53l1cb/modules/vl53l1_api.c **** 	case VL53L1_DMAXMODE_FMT_CAL_DATA:
1165:Drivers/BSP/Components/vl53l1cb/modules/vl53l1_api.c **** 		dmax_mode = VL53L1_DEVICEDMAXMODE__FMT_CAL_DATA;
1166:Drivers/BSP/Components/vl53l1cb/modules/vl53l1_api.c **** 		break;
1167:Drivers/BSP/Components/vl53l1cb/modules/vl53l1_api.c **** 	case VL53L1_DMAXMODE_CUSTCAL_DATA:
1168:Drivers/BSP/Components/vl53l1cb/modules/vl53l1_api.c **** 		dmax_mode = VL53L1_DEVICEDMAXMODE__CUST_CAL_DATA;
1169:Drivers/BSP/Components/vl53l1cb/modules/vl53l1_api.c **** 		break;
1170:Drivers/BSP/Components/vl53l1cb/modules/vl53l1_api.c **** 	case VL53L1_DMAXMODE_PER_ZONE_CAL_DATA:
1171:Drivers/BSP/Components/vl53l1cb/modules/vl53l1_api.c **** 		dmax_mode = VL53L1_DEVICEDMAXMODE__PER_ZONE_CAL_DATA;
1172:Drivers/BSP/Components/vl53l1cb/modules/vl53l1_api.c **** 		break;
1173:Drivers/BSP/Components/vl53l1cb/modules/vl53l1_api.c **** 	default:
1174:Drivers/BSP/Components/vl53l1cb/modules/vl53l1_api.c **** 		dmax_mode = VL53L1_DEVICEDMAXMODE__CUST_CAL_DATA;
1175:Drivers/BSP/Components/vl53l1cb/modules/vl53l1_api.c **** 		Status = VL53L1_ERROR_INVALID_PARAMS;
1176:Drivers/BSP/Components/vl53l1cb/modules/vl53l1_api.c **** 		break;
1177:Drivers/BSP/Components/vl53l1cb/modules/vl53l1_api.c **** 	}
1178:Drivers/BSP/Components/vl53l1cb/modules/vl53l1_api.c **** 	if (Status == VL53L1_ERROR_NONE)
1179:Drivers/BSP/Components/vl53l1cb/modules/vl53l1_api.c **** 		Status = VL53L1_set_dmax_mode(Dev, dmax_mode);
1180:Drivers/BSP/Components/vl53l1cb/modules/vl53l1_api.c **** 
1181:Drivers/BSP/Components/vl53l1cb/modules/vl53l1_api.c **** 	LOG_FUNCTION_END(Status);
1182:Drivers/BSP/Components/vl53l1cb/modules/vl53l1_api.c **** 	return Status;
1183:Drivers/BSP/Components/vl53l1cb/modules/vl53l1_api.c **** }
1184:Drivers/BSP/Components/vl53l1cb/modules/vl53l1_api.c **** 
1185:Drivers/BSP/Components/vl53l1cb/modules/vl53l1_api.c **** 
1186:Drivers/BSP/Components/vl53l1cb/modules/vl53l1_api.c **** VL53L1_Error VL53L1_GetDmaxMode(VL53L1_DEV Dev,
1187:Drivers/BSP/Components/vl53l1cb/modules/vl53l1_api.c **** 	VL53L1_DeviceDmaxModes *pDmaxMode)
1188:Drivers/BSP/Components/vl53l1cb/modules/vl53l1_api.c **** {
1189:Drivers/BSP/Components/vl53l1cb/modules/vl53l1_api.c **** 	VL53L1_Error  Status = VL53L1_ERROR_NONE;
1190:Drivers/BSP/Components/vl53l1cb/modules/vl53l1_api.c **** 	VL53L1_DeviceDmaxMode dmax_mode;
1191:Drivers/BSP/Components/vl53l1cb/modules/vl53l1_api.c **** 
1192:Drivers/BSP/Components/vl53l1cb/modules/vl53l1_api.c **** 	LOG_FUNCTION_START("");
1193:Drivers/BSP/Components/vl53l1cb/modules/vl53l1_api.c **** 
1194:Drivers/BSP/Components/vl53l1cb/modules/vl53l1_api.c **** 	Status = VL53L1_get_dmax_mode(Dev, &dmax_mode);
1195:Drivers/BSP/Components/vl53l1cb/modules/vl53l1_api.c **** 	if (Status == VL53L1_ERROR_NONE) {
1196:Drivers/BSP/Components/vl53l1cb/modules/vl53l1_api.c **** 		switch (dmax_mode) {
1197:Drivers/BSP/Components/vl53l1cb/modules/vl53l1_api.c **** 		case VL53L1_DEVICEDMAXMODE__FMT_CAL_DATA:
1198:Drivers/BSP/Components/vl53l1cb/modules/vl53l1_api.c **** 			*pDmaxMode = VL53L1_DMAXMODE_FMT_CAL_DATA;
1199:Drivers/BSP/Components/vl53l1cb/modules/vl53l1_api.c **** 			break;
1200:Drivers/BSP/Components/vl53l1cb/modules/vl53l1_api.c **** 		case VL53L1_DEVICEDMAXMODE__CUST_CAL_DATA:
1201:Drivers/BSP/Components/vl53l1cb/modules/vl53l1_api.c **** 			*pDmaxMode = VL53L1_DMAXMODE_CUSTCAL_DATA;
1202:Drivers/BSP/Components/vl53l1cb/modules/vl53l1_api.c **** 			break;
1203:Drivers/BSP/Components/vl53l1cb/modules/vl53l1_api.c **** 		case VL53L1_DEVICEDMAXMODE__PER_ZONE_CAL_DATA:
1204:Drivers/BSP/Components/vl53l1cb/modules/vl53l1_api.c **** 			*pDmaxMode = VL53L1_DMAXMODE_PER_ZONE_CAL_DATA;
1205:Drivers/BSP/Components/vl53l1cb/modules/vl53l1_api.c **** 			break;
1206:Drivers/BSP/Components/vl53l1cb/modules/vl53l1_api.c **** 		default:
1207:Drivers/BSP/Components/vl53l1cb/modules/vl53l1_api.c **** 			*pDmaxMode = VL53L1_DEVICEDMAXMODE__CUST_CAL_DATA;
ARM GAS  C:\Temp\ccMpj0h9.s 			page 31


1208:Drivers/BSP/Components/vl53l1cb/modules/vl53l1_api.c **** 			Status = VL53L1_ERROR_NOT_IMPLEMENTED;
1209:Drivers/BSP/Components/vl53l1cb/modules/vl53l1_api.c **** 			break;
1210:Drivers/BSP/Components/vl53l1cb/modules/vl53l1_api.c **** 		}
1211:Drivers/BSP/Components/vl53l1cb/modules/vl53l1_api.c **** 	}
1212:Drivers/BSP/Components/vl53l1cb/modules/vl53l1_api.c **** 
1213:Drivers/BSP/Components/vl53l1cb/modules/vl53l1_api.c **** 	LOG_FUNCTION_END(Status);
1214:Drivers/BSP/Components/vl53l1cb/modules/vl53l1_api.c **** 	return Status;
1215:Drivers/BSP/Components/vl53l1cb/modules/vl53l1_api.c **** }
1216:Drivers/BSP/Components/vl53l1cb/modules/vl53l1_api.c **** 
1217:Drivers/BSP/Components/vl53l1cb/modules/vl53l1_api.c **** 
1218:Drivers/BSP/Components/vl53l1cb/modules/vl53l1_api.c **** 
1219:Drivers/BSP/Components/vl53l1cb/modules/vl53l1_api.c **** 
1220:Drivers/BSP/Components/vl53l1cb/modules/vl53l1_api.c **** 
1221:Drivers/BSP/Components/vl53l1cb/modules/vl53l1_api.c **** 
1222:Drivers/BSP/Components/vl53l1cb/modules/vl53l1_api.c **** VL53L1_Error VL53L1_GetNumberOfLimitCheck(uint16_t *pNumberOfLimitCheck)
1223:Drivers/BSP/Components/vl53l1cb/modules/vl53l1_api.c **** {
1224:Drivers/BSP/Components/vl53l1cb/modules/vl53l1_api.c **** 	VL53L1_Error Status = VL53L1_ERROR_NONE;
1225:Drivers/BSP/Components/vl53l1cb/modules/vl53l1_api.c **** 
1226:Drivers/BSP/Components/vl53l1cb/modules/vl53l1_api.c **** 	LOG_FUNCTION_START("");
1227:Drivers/BSP/Components/vl53l1cb/modules/vl53l1_api.c **** 
1228:Drivers/BSP/Components/vl53l1cb/modules/vl53l1_api.c **** 	*pNumberOfLimitCheck = VL53L1_CHECKENABLE_NUMBER_OF_CHECKS;
1229:Drivers/BSP/Components/vl53l1cb/modules/vl53l1_api.c **** 
1230:Drivers/BSP/Components/vl53l1cb/modules/vl53l1_api.c **** 	LOG_FUNCTION_END(Status);
1231:Drivers/BSP/Components/vl53l1cb/modules/vl53l1_api.c **** 	return Status;
1232:Drivers/BSP/Components/vl53l1cb/modules/vl53l1_api.c **** }
1233:Drivers/BSP/Components/vl53l1cb/modules/vl53l1_api.c **** 
1234:Drivers/BSP/Components/vl53l1cb/modules/vl53l1_api.c **** VL53L1_Error VL53L1_GetLimitCheckInfo(uint16_t LimitCheckId,
1235:Drivers/BSP/Components/vl53l1cb/modules/vl53l1_api.c **** 	char *pLimitCheckString)
1236:Drivers/BSP/Components/vl53l1cb/modules/vl53l1_api.c **** {
1237:Drivers/BSP/Components/vl53l1cb/modules/vl53l1_api.c **** 	VL53L1_Error Status = VL53L1_ERROR_NONE;
1238:Drivers/BSP/Components/vl53l1cb/modules/vl53l1_api.c **** 
1239:Drivers/BSP/Components/vl53l1cb/modules/vl53l1_api.c **** 	LOG_FUNCTION_START("");
1240:Drivers/BSP/Components/vl53l1cb/modules/vl53l1_api.c **** 
1241:Drivers/BSP/Components/vl53l1cb/modules/vl53l1_api.c **** 	Status = VL53L1_get_limit_check_info(LimitCheckId,
1242:Drivers/BSP/Components/vl53l1cb/modules/vl53l1_api.c **** 		pLimitCheckString);
1243:Drivers/BSP/Components/vl53l1cb/modules/vl53l1_api.c **** 
1244:Drivers/BSP/Components/vl53l1cb/modules/vl53l1_api.c **** 	LOG_FUNCTION_END(Status);
1245:Drivers/BSP/Components/vl53l1cb/modules/vl53l1_api.c **** 	return Status;
1246:Drivers/BSP/Components/vl53l1cb/modules/vl53l1_api.c **** }
1247:Drivers/BSP/Components/vl53l1cb/modules/vl53l1_api.c **** 
1248:Drivers/BSP/Components/vl53l1cb/modules/vl53l1_api.c **** VL53L1_Error VL53L1_GetLimitCheckStatus(VL53L1_DEV Dev, uint16_t LimitCheckId,
1249:Drivers/BSP/Components/vl53l1cb/modules/vl53l1_api.c **** 	uint8_t *pLimitCheckStatus)
1250:Drivers/BSP/Components/vl53l1cb/modules/vl53l1_api.c **** {
1251:Drivers/BSP/Components/vl53l1cb/modules/vl53l1_api.c **** 	VL53L1_Error Status = VL53L1_ERROR_NONE;
1252:Drivers/BSP/Components/vl53l1cb/modules/vl53l1_api.c **** 	uint8_t Temp8;
1253:Drivers/BSP/Components/vl53l1cb/modules/vl53l1_api.c **** 
1254:Drivers/BSP/Components/vl53l1cb/modules/vl53l1_api.c **** 	LOG_FUNCTION_START("");
1255:Drivers/BSP/Components/vl53l1cb/modules/vl53l1_api.c **** 
1256:Drivers/BSP/Components/vl53l1cb/modules/vl53l1_api.c **** 	if (LimitCheckId >= VL53L1_CHECKENABLE_NUMBER_OF_CHECKS) {
1257:Drivers/BSP/Components/vl53l1cb/modules/vl53l1_api.c **** 		Status = VL53L1_ERROR_INVALID_PARAMS;
1258:Drivers/BSP/Components/vl53l1cb/modules/vl53l1_api.c **** 	} else {
1259:Drivers/BSP/Components/vl53l1cb/modules/vl53l1_api.c **** 		VL53L1_GETARRAYPARAMETERFIELD(Dev, LimitChecksStatus,
1260:Drivers/BSP/Components/vl53l1cb/modules/vl53l1_api.c **** 			LimitCheckId, Temp8);
1261:Drivers/BSP/Components/vl53l1cb/modules/vl53l1_api.c **** 		*pLimitCheckStatus = Temp8;
1262:Drivers/BSP/Components/vl53l1cb/modules/vl53l1_api.c **** 	}
1263:Drivers/BSP/Components/vl53l1cb/modules/vl53l1_api.c **** 
1264:Drivers/BSP/Components/vl53l1cb/modules/vl53l1_api.c **** 	LOG_FUNCTION_END(Status);
ARM GAS  C:\Temp\ccMpj0h9.s 			page 32


1265:Drivers/BSP/Components/vl53l1cb/modules/vl53l1_api.c **** 	return Status;
1266:Drivers/BSP/Components/vl53l1cb/modules/vl53l1_api.c **** }
1267:Drivers/BSP/Components/vl53l1cb/modules/vl53l1_api.c **** 
1268:Drivers/BSP/Components/vl53l1cb/modules/vl53l1_api.c **** static VL53L1_Error SetLimitValue(VL53L1_DEV Dev, uint16_t LimitCheckId,
1269:Drivers/BSP/Components/vl53l1cb/modules/vl53l1_api.c **** 		FixPoint1616_t value)
1270:Drivers/BSP/Components/vl53l1cb/modules/vl53l1_api.c **** {
1271:Drivers/BSP/Components/vl53l1cb/modules/vl53l1_api.c **** 	VL53L1_Error Status = VL53L1_ERROR_NONE;
1272:Drivers/BSP/Components/vl53l1cb/modules/vl53l1_api.c **** 	uint16_t tmpuint16;
1273:Drivers/BSP/Components/vl53l1cb/modules/vl53l1_api.c **** 
1274:Drivers/BSP/Components/vl53l1cb/modules/vl53l1_api.c **** 	LOG_FUNCTION_START("");
1275:Drivers/BSP/Components/vl53l1cb/modules/vl53l1_api.c **** 
1276:Drivers/BSP/Components/vl53l1cb/modules/vl53l1_api.c **** 	switch (LimitCheckId) {
1277:Drivers/BSP/Components/vl53l1cb/modules/vl53l1_api.c **** 	case VL53L1_CHECKENABLE_SIGMA_FINAL_RANGE:
1278:Drivers/BSP/Components/vl53l1cb/modules/vl53l1_api.c **** 		tmpuint16 = VL53L1_FIXPOINT1616TOFIXPOINT142(value);
1279:Drivers/BSP/Components/vl53l1cb/modules/vl53l1_api.c **** 		VL53L1_set_lite_sigma_threshold(Dev, tmpuint16);
1280:Drivers/BSP/Components/vl53l1cb/modules/vl53l1_api.c **** 		break;
1281:Drivers/BSP/Components/vl53l1cb/modules/vl53l1_api.c **** 	case VL53L1_CHECKENABLE_SIGNAL_RATE_FINAL_RANGE:
1282:Drivers/BSP/Components/vl53l1cb/modules/vl53l1_api.c **** 		tmpuint16 = VL53L1_FIXPOINT1616TOFIXPOINT97(value);
1283:Drivers/BSP/Components/vl53l1cb/modules/vl53l1_api.c **** 		VL53L1_set_lite_min_count_rate(Dev, tmpuint16);
1284:Drivers/BSP/Components/vl53l1cb/modules/vl53l1_api.c **** 		break;
1285:Drivers/BSP/Components/vl53l1cb/modules/vl53l1_api.c **** 	default:
1286:Drivers/BSP/Components/vl53l1cb/modules/vl53l1_api.c **** 		Status = VL53L1_ERROR_INVALID_PARAMS;
1287:Drivers/BSP/Components/vl53l1cb/modules/vl53l1_api.c **** 	}
1288:Drivers/BSP/Components/vl53l1cb/modules/vl53l1_api.c **** 
1289:Drivers/BSP/Components/vl53l1cb/modules/vl53l1_api.c **** 	LOG_FUNCTION_END(Status);
1290:Drivers/BSP/Components/vl53l1cb/modules/vl53l1_api.c **** 	return Status;
1291:Drivers/BSP/Components/vl53l1cb/modules/vl53l1_api.c **** }
1292:Drivers/BSP/Components/vl53l1cb/modules/vl53l1_api.c **** 
1293:Drivers/BSP/Components/vl53l1cb/modules/vl53l1_api.c **** 
1294:Drivers/BSP/Components/vl53l1cb/modules/vl53l1_api.c **** VL53L1_Error VL53L1_SetLimitCheckEnable(VL53L1_DEV Dev, uint16_t LimitCheckId,
1295:Drivers/BSP/Components/vl53l1cb/modules/vl53l1_api.c **** 	uint8_t LimitCheckEnable)
1296:Drivers/BSP/Components/vl53l1cb/modules/vl53l1_api.c **** {
1297:Drivers/BSP/Components/vl53l1cb/modules/vl53l1_api.c **** 	VL53L1_Error Status = VL53L1_ERROR_NONE;
1298:Drivers/BSP/Components/vl53l1cb/modules/vl53l1_api.c **** 	FixPoint1616_t TempFix1616 = 0;
1299:Drivers/BSP/Components/vl53l1cb/modules/vl53l1_api.c **** 
1300:Drivers/BSP/Components/vl53l1cb/modules/vl53l1_api.c **** 	LOG_FUNCTION_START("");
1301:Drivers/BSP/Components/vl53l1cb/modules/vl53l1_api.c **** 
1302:Drivers/BSP/Components/vl53l1cb/modules/vl53l1_api.c **** 
1303:Drivers/BSP/Components/vl53l1cb/modules/vl53l1_api.c **** 	if (LimitCheckId >= VL53L1_CHECKENABLE_NUMBER_OF_CHECKS) {
1304:Drivers/BSP/Components/vl53l1cb/modules/vl53l1_api.c **** 		Status = VL53L1_ERROR_INVALID_PARAMS;
1305:Drivers/BSP/Components/vl53l1cb/modules/vl53l1_api.c **** 	} else {
1306:Drivers/BSP/Components/vl53l1cb/modules/vl53l1_api.c **** 
1307:Drivers/BSP/Components/vl53l1cb/modules/vl53l1_api.c **** 		if (LimitCheckEnable == 0)
1308:Drivers/BSP/Components/vl53l1cb/modules/vl53l1_api.c **** 			TempFix1616 = 0;
1309:Drivers/BSP/Components/vl53l1cb/modules/vl53l1_api.c **** 		else
1310:Drivers/BSP/Components/vl53l1cb/modules/vl53l1_api.c **** 			VL53L1_GETARRAYPARAMETERFIELD(Dev, LimitChecksValue,
1311:Drivers/BSP/Components/vl53l1cb/modules/vl53l1_api.c **** 				LimitCheckId, TempFix1616);
1312:Drivers/BSP/Components/vl53l1cb/modules/vl53l1_api.c **** 
1313:Drivers/BSP/Components/vl53l1cb/modules/vl53l1_api.c **** 		Status = SetLimitValue(Dev, LimitCheckId, TempFix1616);
1314:Drivers/BSP/Components/vl53l1cb/modules/vl53l1_api.c **** 	}
1315:Drivers/BSP/Components/vl53l1cb/modules/vl53l1_api.c **** 
1316:Drivers/BSP/Components/vl53l1cb/modules/vl53l1_api.c **** 	if (Status == VL53L1_ERROR_NONE)
1317:Drivers/BSP/Components/vl53l1cb/modules/vl53l1_api.c **** 		VL53L1_SETARRAYPARAMETERFIELD(Dev,
1318:Drivers/BSP/Components/vl53l1cb/modules/vl53l1_api.c **** 			LimitChecksEnable,
1319:Drivers/BSP/Components/vl53l1cb/modules/vl53l1_api.c **** 			LimitCheckId,
1320:Drivers/BSP/Components/vl53l1cb/modules/vl53l1_api.c **** 			((LimitCheckEnable == 0) ? 0 : 1));
1321:Drivers/BSP/Components/vl53l1cb/modules/vl53l1_api.c **** 
ARM GAS  C:\Temp\ccMpj0h9.s 			page 33


1322:Drivers/BSP/Components/vl53l1cb/modules/vl53l1_api.c **** 
1323:Drivers/BSP/Components/vl53l1cb/modules/vl53l1_api.c **** 
1324:Drivers/BSP/Components/vl53l1cb/modules/vl53l1_api.c **** 	LOG_FUNCTION_END(Status);
1325:Drivers/BSP/Components/vl53l1cb/modules/vl53l1_api.c **** 	return Status;
1326:Drivers/BSP/Components/vl53l1cb/modules/vl53l1_api.c **** }
1327:Drivers/BSP/Components/vl53l1cb/modules/vl53l1_api.c **** 
1328:Drivers/BSP/Components/vl53l1cb/modules/vl53l1_api.c **** VL53L1_Error VL53L1_GetLimitCheckEnable(VL53L1_DEV Dev, uint16_t LimitCheckId,
1329:Drivers/BSP/Components/vl53l1cb/modules/vl53l1_api.c **** 	uint8_t *pLimitCheckEnable)
1330:Drivers/BSP/Components/vl53l1cb/modules/vl53l1_api.c **** {
1331:Drivers/BSP/Components/vl53l1cb/modules/vl53l1_api.c **** 	VL53L1_Error Status = VL53L1_ERROR_NONE;
1332:Drivers/BSP/Components/vl53l1cb/modules/vl53l1_api.c **** 	uint8_t Temp8;
1333:Drivers/BSP/Components/vl53l1cb/modules/vl53l1_api.c **** 
1334:Drivers/BSP/Components/vl53l1cb/modules/vl53l1_api.c **** 	LOG_FUNCTION_START("");
1335:Drivers/BSP/Components/vl53l1cb/modules/vl53l1_api.c **** 
1336:Drivers/BSP/Components/vl53l1cb/modules/vl53l1_api.c **** 	if (LimitCheckId >= VL53L1_CHECKENABLE_NUMBER_OF_CHECKS) {
1337:Drivers/BSP/Components/vl53l1cb/modules/vl53l1_api.c **** 		Status = VL53L1_ERROR_INVALID_PARAMS;
1338:Drivers/BSP/Components/vl53l1cb/modules/vl53l1_api.c **** 		*pLimitCheckEnable = 0;
1339:Drivers/BSP/Components/vl53l1cb/modules/vl53l1_api.c **** 	} else {
1340:Drivers/BSP/Components/vl53l1cb/modules/vl53l1_api.c **** 		VL53L1_GETARRAYPARAMETERFIELD(Dev, LimitChecksEnable,
1341:Drivers/BSP/Components/vl53l1cb/modules/vl53l1_api.c **** 			LimitCheckId, Temp8);
1342:Drivers/BSP/Components/vl53l1cb/modules/vl53l1_api.c **** 		*pLimitCheckEnable = Temp8;
1343:Drivers/BSP/Components/vl53l1cb/modules/vl53l1_api.c **** 	}
1344:Drivers/BSP/Components/vl53l1cb/modules/vl53l1_api.c **** 
1345:Drivers/BSP/Components/vl53l1cb/modules/vl53l1_api.c **** 
1346:Drivers/BSP/Components/vl53l1cb/modules/vl53l1_api.c **** 	LOG_FUNCTION_END(Status);
1347:Drivers/BSP/Components/vl53l1cb/modules/vl53l1_api.c **** 	return Status;
1348:Drivers/BSP/Components/vl53l1cb/modules/vl53l1_api.c **** }
1349:Drivers/BSP/Components/vl53l1cb/modules/vl53l1_api.c **** 
1350:Drivers/BSP/Components/vl53l1cb/modules/vl53l1_api.c **** VL53L1_Error VL53L1_SetLimitCheckValue(VL53L1_DEV Dev, uint16_t LimitCheckId,
1351:Drivers/BSP/Components/vl53l1cb/modules/vl53l1_api.c **** 	FixPoint1616_t LimitCheckValue)
1352:Drivers/BSP/Components/vl53l1cb/modules/vl53l1_api.c **** {
1353:Drivers/BSP/Components/vl53l1cb/modules/vl53l1_api.c **** 	VL53L1_Error Status = VL53L1_ERROR_NONE;
1354:Drivers/BSP/Components/vl53l1cb/modules/vl53l1_api.c **** 	uint8_t LimitChecksEnable;
1355:Drivers/BSP/Components/vl53l1cb/modules/vl53l1_api.c **** 
1356:Drivers/BSP/Components/vl53l1cb/modules/vl53l1_api.c **** 	LOG_FUNCTION_START("");
1357:Drivers/BSP/Components/vl53l1cb/modules/vl53l1_api.c **** 
1358:Drivers/BSP/Components/vl53l1cb/modules/vl53l1_api.c **** 	if (LimitCheckId >= VL53L1_CHECKENABLE_NUMBER_OF_CHECKS) {
1359:Drivers/BSP/Components/vl53l1cb/modules/vl53l1_api.c **** 		Status = VL53L1_ERROR_INVALID_PARAMS;
1360:Drivers/BSP/Components/vl53l1cb/modules/vl53l1_api.c **** 	} else {
1361:Drivers/BSP/Components/vl53l1cb/modules/vl53l1_api.c **** 
1362:Drivers/BSP/Components/vl53l1cb/modules/vl53l1_api.c **** 		VL53L1_GETARRAYPARAMETERFIELD(Dev, LimitChecksEnable,
1363:Drivers/BSP/Components/vl53l1cb/modules/vl53l1_api.c **** 				LimitCheckId,
1364:Drivers/BSP/Components/vl53l1cb/modules/vl53l1_api.c **** 				LimitChecksEnable);
1365:Drivers/BSP/Components/vl53l1cb/modules/vl53l1_api.c **** 
1366:Drivers/BSP/Components/vl53l1cb/modules/vl53l1_api.c **** 		if (LimitChecksEnable == 0) {
1367:Drivers/BSP/Components/vl53l1cb/modules/vl53l1_api.c **** 
1368:Drivers/BSP/Components/vl53l1cb/modules/vl53l1_api.c **** 			VL53L1_SETARRAYPARAMETERFIELD(Dev, LimitChecksValue,
1369:Drivers/BSP/Components/vl53l1cb/modules/vl53l1_api.c **** 				LimitCheckId, LimitCheckValue);
1370:Drivers/BSP/Components/vl53l1cb/modules/vl53l1_api.c **** 		} else {
1371:Drivers/BSP/Components/vl53l1cb/modules/vl53l1_api.c **** 
1372:Drivers/BSP/Components/vl53l1cb/modules/vl53l1_api.c **** 			Status = SetLimitValue(Dev, LimitCheckId,
1373:Drivers/BSP/Components/vl53l1cb/modules/vl53l1_api.c **** 					LimitCheckValue);
1374:Drivers/BSP/Components/vl53l1cb/modules/vl53l1_api.c **** 
1375:Drivers/BSP/Components/vl53l1cb/modules/vl53l1_api.c **** 			if (Status == VL53L1_ERROR_NONE) {
1376:Drivers/BSP/Components/vl53l1cb/modules/vl53l1_api.c **** 				VL53L1_SETARRAYPARAMETERFIELD(Dev,
1377:Drivers/BSP/Components/vl53l1cb/modules/vl53l1_api.c **** 					LimitChecksValue,
1378:Drivers/BSP/Components/vl53l1cb/modules/vl53l1_api.c **** 					LimitCheckId, LimitCheckValue);
ARM GAS  C:\Temp\ccMpj0h9.s 			page 34


1379:Drivers/BSP/Components/vl53l1cb/modules/vl53l1_api.c **** 			}
1380:Drivers/BSP/Components/vl53l1cb/modules/vl53l1_api.c **** 		}
1381:Drivers/BSP/Components/vl53l1cb/modules/vl53l1_api.c **** 	}
1382:Drivers/BSP/Components/vl53l1cb/modules/vl53l1_api.c **** 
1383:Drivers/BSP/Components/vl53l1cb/modules/vl53l1_api.c **** 	LOG_FUNCTION_END(Status);
1384:Drivers/BSP/Components/vl53l1cb/modules/vl53l1_api.c **** 	return Status;
1385:Drivers/BSP/Components/vl53l1cb/modules/vl53l1_api.c **** }
1386:Drivers/BSP/Components/vl53l1cb/modules/vl53l1_api.c **** 
1387:Drivers/BSP/Components/vl53l1cb/modules/vl53l1_api.c **** VL53L1_Error VL53L1_GetLimitCheckValue(VL53L1_DEV Dev, uint16_t LimitCheckId,
1388:Drivers/BSP/Components/vl53l1cb/modules/vl53l1_api.c **** 	FixPoint1616_t *pLimitCheckValue)
1389:Drivers/BSP/Components/vl53l1cb/modules/vl53l1_api.c **** {
1390:Drivers/BSP/Components/vl53l1cb/modules/vl53l1_api.c **** 	VL53L1_Error Status = VL53L1_ERROR_NONE;
1391:Drivers/BSP/Components/vl53l1cb/modules/vl53l1_api.c **** 	uint16_t MinCountRate;
1392:Drivers/BSP/Components/vl53l1cb/modules/vl53l1_api.c **** 	FixPoint1616_t TempFix1616 = 0;
1393:Drivers/BSP/Components/vl53l1cb/modules/vl53l1_api.c **** 	uint16_t SigmaThresh;
1394:Drivers/BSP/Components/vl53l1cb/modules/vl53l1_api.c **** 
1395:Drivers/BSP/Components/vl53l1cb/modules/vl53l1_api.c **** 	LOG_FUNCTION_START("");
1396:Drivers/BSP/Components/vl53l1cb/modules/vl53l1_api.c **** 
1397:Drivers/BSP/Components/vl53l1cb/modules/vl53l1_api.c **** 	switch (LimitCheckId) {
1398:Drivers/BSP/Components/vl53l1cb/modules/vl53l1_api.c **** 	case VL53L1_CHECKENABLE_SIGMA_FINAL_RANGE:
1399:Drivers/BSP/Components/vl53l1cb/modules/vl53l1_api.c **** 		Status = VL53L1_get_lite_sigma_threshold(Dev, &SigmaThresh);
1400:Drivers/BSP/Components/vl53l1cb/modules/vl53l1_api.c **** 		TempFix1616 = VL53L1_FIXPOINT142TOFIXPOINT1616(SigmaThresh);
1401:Drivers/BSP/Components/vl53l1cb/modules/vl53l1_api.c **** 		break;
1402:Drivers/BSP/Components/vl53l1cb/modules/vl53l1_api.c **** 	case VL53L1_CHECKENABLE_SIGNAL_RATE_FINAL_RANGE:
1403:Drivers/BSP/Components/vl53l1cb/modules/vl53l1_api.c **** 		Status = VL53L1_get_lite_min_count_rate(Dev, &MinCountRate);
1404:Drivers/BSP/Components/vl53l1cb/modules/vl53l1_api.c **** 		TempFix1616 = VL53L1_FIXPOINT97TOFIXPOINT1616(MinCountRate);
1405:Drivers/BSP/Components/vl53l1cb/modules/vl53l1_api.c **** 		break;
1406:Drivers/BSP/Components/vl53l1cb/modules/vl53l1_api.c **** 	default:
1407:Drivers/BSP/Components/vl53l1cb/modules/vl53l1_api.c **** 		Status = VL53L1_ERROR_INVALID_PARAMS;
1408:Drivers/BSP/Components/vl53l1cb/modules/vl53l1_api.c **** 	}
1409:Drivers/BSP/Components/vl53l1cb/modules/vl53l1_api.c **** 
1410:Drivers/BSP/Components/vl53l1cb/modules/vl53l1_api.c **** 	if (Status == VL53L1_ERROR_NONE) {
1411:Drivers/BSP/Components/vl53l1cb/modules/vl53l1_api.c **** 
1412:Drivers/BSP/Components/vl53l1cb/modules/vl53l1_api.c **** 		if (TempFix1616 == 0) {
1413:Drivers/BSP/Components/vl53l1cb/modules/vl53l1_api.c **** 
1414:Drivers/BSP/Components/vl53l1cb/modules/vl53l1_api.c **** 			VL53L1_GETARRAYPARAMETERFIELD(Dev,
1415:Drivers/BSP/Components/vl53l1cb/modules/vl53l1_api.c **** 				LimitChecksValue, LimitCheckId,
1416:Drivers/BSP/Components/vl53l1cb/modules/vl53l1_api.c **** 				TempFix1616);
1417:Drivers/BSP/Components/vl53l1cb/modules/vl53l1_api.c **** 			*pLimitCheckValue = TempFix1616;
1418:Drivers/BSP/Components/vl53l1cb/modules/vl53l1_api.c **** 			VL53L1_SETARRAYPARAMETERFIELD(Dev,
1419:Drivers/BSP/Components/vl53l1cb/modules/vl53l1_api.c **** 				LimitChecksEnable, LimitCheckId, 0);
1420:Drivers/BSP/Components/vl53l1cb/modules/vl53l1_api.c **** 		} else {
1421:Drivers/BSP/Components/vl53l1cb/modules/vl53l1_api.c **** 			*pLimitCheckValue = TempFix1616;
1422:Drivers/BSP/Components/vl53l1cb/modules/vl53l1_api.c **** 			VL53L1_SETARRAYPARAMETERFIELD(Dev,
1423:Drivers/BSP/Components/vl53l1cb/modules/vl53l1_api.c **** 				LimitChecksValue, LimitCheckId,
1424:Drivers/BSP/Components/vl53l1cb/modules/vl53l1_api.c **** 				TempFix1616);
1425:Drivers/BSP/Components/vl53l1cb/modules/vl53l1_api.c **** 			VL53L1_SETARRAYPARAMETERFIELD(Dev,
1426:Drivers/BSP/Components/vl53l1cb/modules/vl53l1_api.c **** 				LimitChecksEnable, LimitCheckId, 1);
1427:Drivers/BSP/Components/vl53l1cb/modules/vl53l1_api.c **** 		}
1428:Drivers/BSP/Components/vl53l1cb/modules/vl53l1_api.c **** 	}
1429:Drivers/BSP/Components/vl53l1cb/modules/vl53l1_api.c **** 	LOG_FUNCTION_END(Status);
1430:Drivers/BSP/Components/vl53l1cb/modules/vl53l1_api.c **** 	return Status;
1431:Drivers/BSP/Components/vl53l1cb/modules/vl53l1_api.c **** 
1432:Drivers/BSP/Components/vl53l1cb/modules/vl53l1_api.c **** }
1433:Drivers/BSP/Components/vl53l1cb/modules/vl53l1_api.c **** 
1434:Drivers/BSP/Components/vl53l1cb/modules/vl53l1_api.c **** VL53L1_Error VL53L1_GetLimitCheckCurrent(VL53L1_DEV Dev, uint16_t LimitCheckId,
1435:Drivers/BSP/Components/vl53l1cb/modules/vl53l1_api.c **** 	FixPoint1616_t *pLimitCheckCurrent)
ARM GAS  C:\Temp\ccMpj0h9.s 			page 35


1436:Drivers/BSP/Components/vl53l1cb/modules/vl53l1_api.c **** {
1437:Drivers/BSP/Components/vl53l1cb/modules/vl53l1_api.c **** 	VL53L1_Error Status = VL53L1_ERROR_NONE;
1438:Drivers/BSP/Components/vl53l1cb/modules/vl53l1_api.c **** 	FixPoint1616_t TempFix1616 = 0;
1439:Drivers/BSP/Components/vl53l1cb/modules/vl53l1_api.c **** 
1440:Drivers/BSP/Components/vl53l1cb/modules/vl53l1_api.c **** 	LOG_FUNCTION_START("");
1441:Drivers/BSP/Components/vl53l1cb/modules/vl53l1_api.c **** 
1442:Drivers/BSP/Components/vl53l1cb/modules/vl53l1_api.c **** 	if (LimitCheckId >= VL53L1_CHECKENABLE_NUMBER_OF_CHECKS) {
1443:Drivers/BSP/Components/vl53l1cb/modules/vl53l1_api.c **** 		Status = VL53L1_ERROR_INVALID_PARAMS;
1444:Drivers/BSP/Components/vl53l1cb/modules/vl53l1_api.c **** 	} else {
1445:Drivers/BSP/Components/vl53l1cb/modules/vl53l1_api.c **** 		VL53L1_GETARRAYPARAMETERFIELD(Dev, LimitChecksCurrent,
1446:Drivers/BSP/Components/vl53l1cb/modules/vl53l1_api.c **** 			LimitCheckId, TempFix1616);
1447:Drivers/BSP/Components/vl53l1cb/modules/vl53l1_api.c **** 		*pLimitCheckCurrent = TempFix1616;
1448:Drivers/BSP/Components/vl53l1cb/modules/vl53l1_api.c **** 	}
1449:Drivers/BSP/Components/vl53l1cb/modules/vl53l1_api.c **** 
1450:Drivers/BSP/Components/vl53l1cb/modules/vl53l1_api.c **** 	LOG_FUNCTION_END(Status);
1451:Drivers/BSP/Components/vl53l1cb/modules/vl53l1_api.c **** 	return Status;
1452:Drivers/BSP/Components/vl53l1cb/modules/vl53l1_api.c **** 
1453:Drivers/BSP/Components/vl53l1cb/modules/vl53l1_api.c **** }
1454:Drivers/BSP/Components/vl53l1cb/modules/vl53l1_api.c **** 
1455:Drivers/BSP/Components/vl53l1cb/modules/vl53l1_api.c **** 
1456:Drivers/BSP/Components/vl53l1cb/modules/vl53l1_api.c **** 
1457:Drivers/BSP/Components/vl53l1cb/modules/vl53l1_api.c **** 
1458:Drivers/BSP/Components/vl53l1cb/modules/vl53l1_api.c **** 
1459:Drivers/BSP/Components/vl53l1cb/modules/vl53l1_api.c **** 
1460:Drivers/BSP/Components/vl53l1cb/modules/vl53l1_api.c **** 
1461:Drivers/BSP/Components/vl53l1cb/modules/vl53l1_api.c **** 
1462:Drivers/BSP/Components/vl53l1cb/modules/vl53l1_api.c **** VL53L1_Error VL53L1_GetMaxNumberOfROI(VL53L1_DEV Dev,
1463:Drivers/BSP/Components/vl53l1cb/modules/vl53l1_api.c **** 	uint8_t *pMaxNumberOfROI)
1464:Drivers/BSP/Components/vl53l1cb/modules/vl53l1_api.c **** {
1465:Drivers/BSP/Components/vl53l1cb/modules/vl53l1_api.c **** 	VL53L1_Error Status = VL53L1_ERROR_NONE;
1466:Drivers/BSP/Components/vl53l1cb/modules/vl53l1_api.c **** 	VL53L1_PresetModes PresetMode;
1467:Drivers/BSP/Components/vl53l1cb/modules/vl53l1_api.c **** 
1468:Drivers/BSP/Components/vl53l1cb/modules/vl53l1_api.c **** 	LOG_FUNCTION_START("");
1469:Drivers/BSP/Components/vl53l1cb/modules/vl53l1_api.c **** 
1470:Drivers/BSP/Components/vl53l1cb/modules/vl53l1_api.c **** 	PresetMode = VL53L1DevDataGet(Dev, CurrentParameters.PresetMode);
1471:Drivers/BSP/Components/vl53l1cb/modules/vl53l1_api.c **** 
1472:Drivers/BSP/Components/vl53l1cb/modules/vl53l1_api.c **** 
1473:Drivers/BSP/Components/vl53l1cb/modules/vl53l1_api.c **** 	if (PresetMode == VL53L1_PRESETMODE_MULTIZONES_SCANNING)
1474:Drivers/BSP/Components/vl53l1cb/modules/vl53l1_api.c **** 		*pMaxNumberOfROI = VL53L1_MAX_USER_ZONES;
1475:Drivers/BSP/Components/vl53l1cb/modules/vl53l1_api.c **** 	else
1476:Drivers/BSP/Components/vl53l1cb/modules/vl53l1_api.c **** 		*pMaxNumberOfROI = 1;
1477:Drivers/BSP/Components/vl53l1cb/modules/vl53l1_api.c **** 
1478:Drivers/BSP/Components/vl53l1cb/modules/vl53l1_api.c **** 	LOG_FUNCTION_END(Status);
1479:Drivers/BSP/Components/vl53l1cb/modules/vl53l1_api.c **** 	return Status;
1480:Drivers/BSP/Components/vl53l1cb/modules/vl53l1_api.c **** }
1481:Drivers/BSP/Components/vl53l1cb/modules/vl53l1_api.c **** 
1482:Drivers/BSP/Components/vl53l1cb/modules/vl53l1_api.c **** VL53L1_Error VL53L1_SetROI(VL53L1_DEV Dev,
1483:Drivers/BSP/Components/vl53l1cb/modules/vl53l1_api.c **** 		VL53L1_RoiConfig_t *pRoiConfig)
1484:Drivers/BSP/Components/vl53l1cb/modules/vl53l1_api.c **** {
1485:Drivers/BSP/Components/vl53l1cb/modules/vl53l1_api.c **** 	VL53L1_Error Status = VL53L1_ERROR_NONE;
1486:Drivers/BSP/Components/vl53l1cb/modules/vl53l1_api.c **** 	VL53L1_PresetModes PresetMode;
1487:Drivers/BSP/Components/vl53l1cb/modules/vl53l1_api.c **** 	uint8_t MaxNumberOfROI = 1;
1488:Drivers/BSP/Components/vl53l1cb/modules/vl53l1_api.c **** 	VL53L1_zone_config_t  zone_cfg;
1489:Drivers/BSP/Components/vl53l1cb/modules/vl53l1_api.c **** 	VL53L1_UserRoi_t CurrROI;
1490:Drivers/BSP/Components/vl53l1cb/modules/vl53l1_api.c **** 	uint8_t  i;
1491:Drivers/BSP/Components/vl53l1cb/modules/vl53l1_api.c **** 	uint8_t  x_centre;
1492:Drivers/BSP/Components/vl53l1cb/modules/vl53l1_api.c **** 	uint8_t  y_centre;
ARM GAS  C:\Temp\ccMpj0h9.s 			page 36


1493:Drivers/BSP/Components/vl53l1cb/modules/vl53l1_api.c **** 	uint8_t  width, height;
1494:Drivers/BSP/Components/vl53l1cb/modules/vl53l1_api.c **** 
1495:Drivers/BSP/Components/vl53l1cb/modules/vl53l1_api.c **** 	LOG_FUNCTION_START("");
1496:Drivers/BSP/Components/vl53l1cb/modules/vl53l1_api.c **** 
1497:Drivers/BSP/Components/vl53l1cb/modules/vl53l1_api.c **** 
1498:Drivers/BSP/Components/vl53l1cb/modules/vl53l1_api.c **** 	PresetMode = VL53L1DevDataGet(Dev, CurrentParameters.PresetMode);
1499:Drivers/BSP/Components/vl53l1cb/modules/vl53l1_api.c **** 
1500:Drivers/BSP/Components/vl53l1cb/modules/vl53l1_api.c **** 
1501:Drivers/BSP/Components/vl53l1cb/modules/vl53l1_api.c **** 	if (PresetMode == VL53L1_PRESETMODE_MULTIZONES_SCANNING)
1502:Drivers/BSP/Components/vl53l1cb/modules/vl53l1_api.c **** 		MaxNumberOfROI = VL53L1_MAX_USER_ZONES;
1503:Drivers/BSP/Components/vl53l1cb/modules/vl53l1_api.c **** 
1504:Drivers/BSP/Components/vl53l1cb/modules/vl53l1_api.c **** 	if ((pRoiConfig->NumberOfRoi > MaxNumberOfROI) ||
1505:Drivers/BSP/Components/vl53l1cb/modules/vl53l1_api.c **** 			(pRoiConfig->NumberOfRoi < 1))
1506:Drivers/BSP/Components/vl53l1cb/modules/vl53l1_api.c **** 		Status = VL53L1_ERROR_INVALID_PARAMS;
1507:Drivers/BSP/Components/vl53l1cb/modules/vl53l1_api.c **** 
1508:Drivers/BSP/Components/vl53l1cb/modules/vl53l1_api.c **** 	if (Status == VL53L1_ERROR_NONE) {
1509:Drivers/BSP/Components/vl53l1cb/modules/vl53l1_api.c **** 
1510:Drivers/BSP/Components/vl53l1cb/modules/vl53l1_api.c **** 
1511:Drivers/BSP/Components/vl53l1cb/modules/vl53l1_api.c **** 		zone_cfg.max_zones = MaxNumberOfROI;
1512:Drivers/BSP/Components/vl53l1cb/modules/vl53l1_api.c **** 		zone_cfg.active_zones = pRoiConfig->NumberOfRoi - 1;
1513:Drivers/BSP/Components/vl53l1cb/modules/vl53l1_api.c **** 
1514:Drivers/BSP/Components/vl53l1cb/modules/vl53l1_api.c **** 		for (i = 0; i < pRoiConfig->NumberOfRoi; i++) {
1515:Drivers/BSP/Components/vl53l1cb/modules/vl53l1_api.c **** 			CurrROI = pRoiConfig->UserRois[i];
1516:Drivers/BSP/Components/vl53l1cb/modules/vl53l1_api.c **** 
1517:Drivers/BSP/Components/vl53l1cb/modules/vl53l1_api.c **** 			Status = CheckValidRectRoi(CurrROI);
1518:Drivers/BSP/Components/vl53l1cb/modules/vl53l1_api.c **** 			if (Status != VL53L1_ERROR_NONE)
1519:Drivers/BSP/Components/vl53l1cb/modules/vl53l1_api.c **** 				break;
1520:Drivers/BSP/Components/vl53l1cb/modules/vl53l1_api.c **** 
1521:Drivers/BSP/Components/vl53l1cb/modules/vl53l1_api.c **** 			x_centre = (CurrROI.BotRightX + CurrROI.TopLeftX  + 1)
1522:Drivers/BSP/Components/vl53l1cb/modules/vl53l1_api.c **** 					/ 2;
1523:Drivers/BSP/Components/vl53l1cb/modules/vl53l1_api.c **** 			y_centre = (CurrROI.TopLeftY  + CurrROI.BotRightY + 1)
1524:Drivers/BSP/Components/vl53l1cb/modules/vl53l1_api.c **** 					/ 2;
1525:Drivers/BSP/Components/vl53l1cb/modules/vl53l1_api.c **** 			width =     (CurrROI.BotRightX - CurrROI.TopLeftX);
1526:Drivers/BSP/Components/vl53l1cb/modules/vl53l1_api.c **** 			height =    (CurrROI.TopLeftY  - CurrROI.BotRightY);
1527:Drivers/BSP/Components/vl53l1cb/modules/vl53l1_api.c **** 			if ((width < 3) || (height < 3)) {
1528:Drivers/BSP/Components/vl53l1cb/modules/vl53l1_api.c **** 				Status = VL53L1_ERROR_INVALID_PARAMS;
1529:Drivers/BSP/Components/vl53l1cb/modules/vl53l1_api.c **** 				break;
1530:Drivers/BSP/Components/vl53l1cb/modules/vl53l1_api.c **** 			}
1531:Drivers/BSP/Components/vl53l1cb/modules/vl53l1_api.c **** 			zone_cfg.user_zones[i].x_centre = x_centre;
1532:Drivers/BSP/Components/vl53l1cb/modules/vl53l1_api.c **** 			zone_cfg.user_zones[i].y_centre = y_centre;
1533:Drivers/BSP/Components/vl53l1cb/modules/vl53l1_api.c **** 			zone_cfg.user_zones[i].width = width;
1534:Drivers/BSP/Components/vl53l1cb/modules/vl53l1_api.c **** 			zone_cfg.user_zones[i].height = height;
1535:Drivers/BSP/Components/vl53l1cb/modules/vl53l1_api.c **** 		}
1536:Drivers/BSP/Components/vl53l1cb/modules/vl53l1_api.c **** 	}
1537:Drivers/BSP/Components/vl53l1cb/modules/vl53l1_api.c **** 
1538:Drivers/BSP/Components/vl53l1cb/modules/vl53l1_api.c **** 	if (Status == VL53L1_ERROR_NONE)
1539:Drivers/BSP/Components/vl53l1cb/modules/vl53l1_api.c **** 		Status = VL53L1_set_zone_config(Dev, &zone_cfg);
1540:Drivers/BSP/Components/vl53l1cb/modules/vl53l1_api.c **** 
1541:Drivers/BSP/Components/vl53l1cb/modules/vl53l1_api.c **** 	LOG_FUNCTION_END(Status);
1542:Drivers/BSP/Components/vl53l1cb/modules/vl53l1_api.c **** 	return Status;
1543:Drivers/BSP/Components/vl53l1cb/modules/vl53l1_api.c **** }
1544:Drivers/BSP/Components/vl53l1cb/modules/vl53l1_api.c **** 
1545:Drivers/BSP/Components/vl53l1cb/modules/vl53l1_api.c **** VL53L1_Error VL53L1_GetROI(VL53L1_DEV Dev,
1546:Drivers/BSP/Components/vl53l1cb/modules/vl53l1_api.c **** 		VL53L1_RoiConfig_t *pRoiConfig)
1547:Drivers/BSP/Components/vl53l1cb/modules/vl53l1_api.c **** {
1548:Drivers/BSP/Components/vl53l1cb/modules/vl53l1_api.c **** 	VL53L1_Error Status = VL53L1_ERROR_NONE;
1549:Drivers/BSP/Components/vl53l1cb/modules/vl53l1_api.c **** 	VL53L1_zone_config_t      zone_cfg;
ARM GAS  C:\Temp\ccMpj0h9.s 			page 37


1550:Drivers/BSP/Components/vl53l1cb/modules/vl53l1_api.c **** 	uint8_t  i;
1551:Drivers/BSP/Components/vl53l1cb/modules/vl53l1_api.c **** 	uint8_t  TopLeftX;
1552:Drivers/BSP/Components/vl53l1cb/modules/vl53l1_api.c **** 	uint8_t  TopLeftY;
1553:Drivers/BSP/Components/vl53l1cb/modules/vl53l1_api.c **** 	uint8_t  BotRightX;
1554:Drivers/BSP/Components/vl53l1cb/modules/vl53l1_api.c **** 	uint8_t  BotRightY;
1555:Drivers/BSP/Components/vl53l1cb/modules/vl53l1_api.c **** 
1556:Drivers/BSP/Components/vl53l1cb/modules/vl53l1_api.c **** 	LOG_FUNCTION_START("");
1557:Drivers/BSP/Components/vl53l1cb/modules/vl53l1_api.c **** 
1558:Drivers/BSP/Components/vl53l1cb/modules/vl53l1_api.c **** 	VL53L1_get_zone_config(Dev, &zone_cfg);
1559:Drivers/BSP/Components/vl53l1cb/modules/vl53l1_api.c **** 
1560:Drivers/BSP/Components/vl53l1cb/modules/vl53l1_api.c **** 	pRoiConfig->NumberOfRoi = zone_cfg.active_zones + 1;
1561:Drivers/BSP/Components/vl53l1cb/modules/vl53l1_api.c **** 
1562:Drivers/BSP/Components/vl53l1cb/modules/vl53l1_api.c **** 	for (i = 0; i < pRoiConfig->NumberOfRoi; i++) {
1563:Drivers/BSP/Components/vl53l1cb/modules/vl53l1_api.c **** 		TopLeftX = (2 * zone_cfg.user_zones[i].x_centre -
1564:Drivers/BSP/Components/vl53l1cb/modules/vl53l1_api.c **** 			zone_cfg.user_zones[i].width) >> 1;
1565:Drivers/BSP/Components/vl53l1cb/modules/vl53l1_api.c **** 		TopLeftY = (2 * zone_cfg.user_zones[i].y_centre +
1566:Drivers/BSP/Components/vl53l1cb/modules/vl53l1_api.c **** 			zone_cfg.user_zones[i].height) >> 1;
1567:Drivers/BSP/Components/vl53l1cb/modules/vl53l1_api.c **** 		BotRightX = (2 * zone_cfg.user_zones[i].x_centre +
1568:Drivers/BSP/Components/vl53l1cb/modules/vl53l1_api.c **** 			zone_cfg.user_zones[i].width) >> 1;
1569:Drivers/BSP/Components/vl53l1cb/modules/vl53l1_api.c **** 		BotRightY = (2 * zone_cfg.user_zones[i].y_centre -
1570:Drivers/BSP/Components/vl53l1cb/modules/vl53l1_api.c **** 			zone_cfg.user_zones[i].height) >> 1;
1571:Drivers/BSP/Components/vl53l1cb/modules/vl53l1_api.c **** 		pRoiConfig->UserRois[i].TopLeftX = TopLeftX;
1572:Drivers/BSP/Components/vl53l1cb/modules/vl53l1_api.c **** 		pRoiConfig->UserRois[i].TopLeftY = TopLeftY;
1573:Drivers/BSP/Components/vl53l1cb/modules/vl53l1_api.c **** 		pRoiConfig->UserRois[i].BotRightX = BotRightX;
1574:Drivers/BSP/Components/vl53l1cb/modules/vl53l1_api.c **** 		pRoiConfig->UserRois[i].BotRightY = BotRightY;
1575:Drivers/BSP/Components/vl53l1cb/modules/vl53l1_api.c **** 	}
1576:Drivers/BSP/Components/vl53l1cb/modules/vl53l1_api.c **** 
1577:Drivers/BSP/Components/vl53l1cb/modules/vl53l1_api.c **** 	LOG_FUNCTION_END(Status);
1578:Drivers/BSP/Components/vl53l1cb/modules/vl53l1_api.c **** 	return Status;
1579:Drivers/BSP/Components/vl53l1cb/modules/vl53l1_api.c **** }
1580:Drivers/BSP/Components/vl53l1cb/modules/vl53l1_api.c **** 
1581:Drivers/BSP/Components/vl53l1cb/modules/vl53l1_api.c **** 
1582:Drivers/BSP/Components/vl53l1cb/modules/vl53l1_api.c **** 
1583:Drivers/BSP/Components/vl53l1cb/modules/vl53l1_api.c **** 
1584:Drivers/BSP/Components/vl53l1cb/modules/vl53l1_api.c **** 
1585:Drivers/BSP/Components/vl53l1cb/modules/vl53l1_api.c **** 
1586:Drivers/BSP/Components/vl53l1cb/modules/vl53l1_api.c **** 
1587:Drivers/BSP/Components/vl53l1cb/modules/vl53l1_api.c **** VL53L1_Error VL53L1_GetNumberOfSequenceSteps(VL53L1_DEV Dev,
1588:Drivers/BSP/Components/vl53l1cb/modules/vl53l1_api.c **** 	uint8_t *pNumberOfSequenceSteps)
1589:Drivers/BSP/Components/vl53l1cb/modules/vl53l1_api.c **** {
1590:Drivers/BSP/Components/vl53l1cb/modules/vl53l1_api.c **** 	VL53L1_Error Status = VL53L1_ERROR_NONE;
1591:Drivers/BSP/Components/vl53l1cb/modules/vl53l1_api.c **** 
1592:Drivers/BSP/Components/vl53l1cb/modules/vl53l1_api.c **** 	SUPPRESS_UNUSED_WARNING(Dev);
1593:Drivers/BSP/Components/vl53l1cb/modules/vl53l1_api.c **** 
1594:Drivers/BSP/Components/vl53l1cb/modules/vl53l1_api.c **** 	LOG_FUNCTION_START("");
1595:Drivers/BSP/Components/vl53l1cb/modules/vl53l1_api.c **** 
1596:Drivers/BSP/Components/vl53l1cb/modules/vl53l1_api.c **** 	*pNumberOfSequenceSteps = VL53L1_SEQUENCESTEP_NUMBER_OF_ITEMS;
1597:Drivers/BSP/Components/vl53l1cb/modules/vl53l1_api.c **** 
1598:Drivers/BSP/Components/vl53l1cb/modules/vl53l1_api.c **** 	LOG_FUNCTION_END(Status);
1599:Drivers/BSP/Components/vl53l1cb/modules/vl53l1_api.c **** 	return Status;
1600:Drivers/BSP/Components/vl53l1cb/modules/vl53l1_api.c **** }
1601:Drivers/BSP/Components/vl53l1cb/modules/vl53l1_api.c **** 
1602:Drivers/BSP/Components/vl53l1cb/modules/vl53l1_api.c **** VL53L1_Error VL53L1_GetSequenceStepsInfo(VL53L1_SequenceStepId SequenceStepId,
1603:Drivers/BSP/Components/vl53l1cb/modules/vl53l1_api.c **** 	char *pSequenceStepsString)
1604:Drivers/BSP/Components/vl53l1cb/modules/vl53l1_api.c **** {
1605:Drivers/BSP/Components/vl53l1cb/modules/vl53l1_api.c **** 	VL53L1_Error Status = VL53L1_ERROR_NONE;
1606:Drivers/BSP/Components/vl53l1cb/modules/vl53l1_api.c **** 
ARM GAS  C:\Temp\ccMpj0h9.s 			page 38


1607:Drivers/BSP/Components/vl53l1cb/modules/vl53l1_api.c **** 	LOG_FUNCTION_START("");
1608:Drivers/BSP/Components/vl53l1cb/modules/vl53l1_api.c **** 
1609:Drivers/BSP/Components/vl53l1cb/modules/vl53l1_api.c **** 	Status = VL53L1_get_sequence_steps_info(
1610:Drivers/BSP/Components/vl53l1cb/modules/vl53l1_api.c **** 			SequenceStepId,
1611:Drivers/BSP/Components/vl53l1cb/modules/vl53l1_api.c **** 			pSequenceStepsString);
1612:Drivers/BSP/Components/vl53l1cb/modules/vl53l1_api.c **** 
1613:Drivers/BSP/Components/vl53l1cb/modules/vl53l1_api.c **** 	LOG_FUNCTION_END(Status);
1614:Drivers/BSP/Components/vl53l1cb/modules/vl53l1_api.c **** 
1615:Drivers/BSP/Components/vl53l1cb/modules/vl53l1_api.c **** 	return Status;
1616:Drivers/BSP/Components/vl53l1cb/modules/vl53l1_api.c **** }
1617:Drivers/BSP/Components/vl53l1cb/modules/vl53l1_api.c **** 
1618:Drivers/BSP/Components/vl53l1cb/modules/vl53l1_api.c **** VL53L1_Error VL53L1_SetSequenceStepEnable(VL53L1_DEV Dev,
1619:Drivers/BSP/Components/vl53l1cb/modules/vl53l1_api.c **** 	VL53L1_SequenceStepId SequenceStepId, uint8_t SequenceStepEnabled)
1620:Drivers/BSP/Components/vl53l1cb/modules/vl53l1_api.c **** {
1621:Drivers/BSP/Components/vl53l1cb/modules/vl53l1_api.c **** 	VL53L1_Error Status = VL53L1_ERROR_NONE;
1622:Drivers/BSP/Components/vl53l1cb/modules/vl53l1_api.c **** 	uint32_t MeasurementTimingBudgetMicroSeconds;
1623:Drivers/BSP/Components/vl53l1cb/modules/vl53l1_api.c **** 
1624:Drivers/BSP/Components/vl53l1cb/modules/vl53l1_api.c **** 	LOG_FUNCTION_START("");
1625:Drivers/BSP/Components/vl53l1cb/modules/vl53l1_api.c **** 
1626:Drivers/BSP/Components/vl53l1cb/modules/vl53l1_api.c **** 
1627:Drivers/BSP/Components/vl53l1cb/modules/vl53l1_api.c **** 
1628:Drivers/BSP/Components/vl53l1cb/modules/vl53l1_api.c **** 	Status = VL53L1_set_sequence_config_bit(Dev,
1629:Drivers/BSP/Components/vl53l1cb/modules/vl53l1_api.c **** 		(VL53L1_DeviceSequenceConfig)SequenceStepId,
1630:Drivers/BSP/Components/vl53l1cb/modules/vl53l1_api.c **** 		SequenceStepEnabled);
1631:Drivers/BSP/Components/vl53l1cb/modules/vl53l1_api.c **** 
1632:Drivers/BSP/Components/vl53l1cb/modules/vl53l1_api.c **** 
1633:Drivers/BSP/Components/vl53l1cb/modules/vl53l1_api.c **** 	if (Status == VL53L1_ERROR_NONE) {
1634:Drivers/BSP/Components/vl53l1cb/modules/vl53l1_api.c **** 
1635:Drivers/BSP/Components/vl53l1cb/modules/vl53l1_api.c **** 
1636:Drivers/BSP/Components/vl53l1cb/modules/vl53l1_api.c **** 		MeasurementTimingBudgetMicroSeconds = VL53L1DevDataGet(Dev,
1637:Drivers/BSP/Components/vl53l1cb/modules/vl53l1_api.c **** 			CurrentParameters.MeasurementTimingBudgetMicroSeconds);
1638:Drivers/BSP/Components/vl53l1cb/modules/vl53l1_api.c **** 
1639:Drivers/BSP/Components/vl53l1cb/modules/vl53l1_api.c **** 		VL53L1_SetMeasurementTimingBudgetMicroSeconds(Dev,
1640:Drivers/BSP/Components/vl53l1cb/modules/vl53l1_api.c **** 			MeasurementTimingBudgetMicroSeconds);
1641:Drivers/BSP/Components/vl53l1cb/modules/vl53l1_api.c **** 	}
1642:Drivers/BSP/Components/vl53l1cb/modules/vl53l1_api.c **** 
1643:Drivers/BSP/Components/vl53l1cb/modules/vl53l1_api.c **** 	LOG_FUNCTION_END(Status);
1644:Drivers/BSP/Components/vl53l1cb/modules/vl53l1_api.c **** 
1645:Drivers/BSP/Components/vl53l1cb/modules/vl53l1_api.c **** 	return Status;
1646:Drivers/BSP/Components/vl53l1cb/modules/vl53l1_api.c **** }
1647:Drivers/BSP/Components/vl53l1cb/modules/vl53l1_api.c **** 
1648:Drivers/BSP/Components/vl53l1cb/modules/vl53l1_api.c **** 
1649:Drivers/BSP/Components/vl53l1cb/modules/vl53l1_api.c **** VL53L1_Error VL53L1_GetSequenceStepEnable(VL53L1_DEV Dev,
1650:Drivers/BSP/Components/vl53l1cb/modules/vl53l1_api.c **** 	VL53L1_SequenceStepId SequenceStepId, uint8_t *pSequenceStepEnabled)
1651:Drivers/BSP/Components/vl53l1cb/modules/vl53l1_api.c **** {
1652:Drivers/BSP/Components/vl53l1cb/modules/vl53l1_api.c **** 	VL53L1_Error Status = VL53L1_ERROR_NONE;
1653:Drivers/BSP/Components/vl53l1cb/modules/vl53l1_api.c **** 
1654:Drivers/BSP/Components/vl53l1cb/modules/vl53l1_api.c **** 	LOG_FUNCTION_START("");
1655:Drivers/BSP/Components/vl53l1cb/modules/vl53l1_api.c **** 
1656:Drivers/BSP/Components/vl53l1cb/modules/vl53l1_api.c **** 	Status = VL53L1_get_sequence_config_bit(Dev,
1657:Drivers/BSP/Components/vl53l1cb/modules/vl53l1_api.c **** 		(VL53L1_DeviceSequenceConfig)SequenceStepId,
1658:Drivers/BSP/Components/vl53l1cb/modules/vl53l1_api.c **** 		pSequenceStepEnabled);
1659:Drivers/BSP/Components/vl53l1cb/modules/vl53l1_api.c **** 
1660:Drivers/BSP/Components/vl53l1cb/modules/vl53l1_api.c **** 	LOG_FUNCTION_END(Status);
1661:Drivers/BSP/Components/vl53l1cb/modules/vl53l1_api.c **** 	return Status;
1662:Drivers/BSP/Components/vl53l1cb/modules/vl53l1_api.c **** }
1663:Drivers/BSP/Components/vl53l1cb/modules/vl53l1_api.c **** 
ARM GAS  C:\Temp\ccMpj0h9.s 			page 39


1664:Drivers/BSP/Components/vl53l1cb/modules/vl53l1_api.c **** 
1665:Drivers/BSP/Components/vl53l1cb/modules/vl53l1_api.c **** 
1666:Drivers/BSP/Components/vl53l1cb/modules/vl53l1_api.c **** 
1667:Drivers/BSP/Components/vl53l1cb/modules/vl53l1_api.c **** 
1668:Drivers/BSP/Components/vl53l1cb/modules/vl53l1_api.c **** 
1669:Drivers/BSP/Components/vl53l1cb/modules/vl53l1_api.c **** 
1670:Drivers/BSP/Components/vl53l1cb/modules/vl53l1_api.c **** 
1671:Drivers/BSP/Components/vl53l1cb/modules/vl53l1_api.c **** 
1672:Drivers/BSP/Components/vl53l1cb/modules/vl53l1_api.c **** 
1673:Drivers/BSP/Components/vl53l1cb/modules/vl53l1_api.c **** VL53L1_Error VL53L1_StartMeasurement(VL53L1_DEV Dev)
1674:Drivers/BSP/Components/vl53l1cb/modules/vl53l1_api.c **** {
1675:Drivers/BSP/Components/vl53l1cb/modules/vl53l1_api.c **** #define TIMED_MODE_TIMING_GUARD_MILLISECONDS 4
1676:Drivers/BSP/Components/vl53l1cb/modules/vl53l1_api.c **** 	VL53L1_Error Status = VL53L1_ERROR_NONE;
1677:Drivers/BSP/Components/vl53l1cb/modules/vl53l1_api.c **** 	uint8_t DeviceMeasurementMode;
1678:Drivers/BSP/Components/vl53l1cb/modules/vl53l1_api.c **** 	VL53L1_State CurrPalState;
1679:Drivers/BSP/Components/vl53l1cb/modules/vl53l1_api.c **** 	VL53L1_Error lStatus;
1680:Drivers/BSP/Components/vl53l1cb/modules/vl53l1_api.c **** 	uint32_t MTBus, IMPms;
1681:Drivers/BSP/Components/vl53l1cb/modules/vl53l1_api.c **** 	uint8_t i;
1682:Drivers/BSP/Components/vl53l1cb/modules/vl53l1_api.c **** 	VL53L1_LLDriverData_t *pdev = VL53L1DevStructGetLLDriverHandle(Dev);
1683:Drivers/BSP/Components/vl53l1cb/modules/vl53l1_api.c **** 
1684:Drivers/BSP/Components/vl53l1cb/modules/vl53l1_api.c **** 
1685:Drivers/BSP/Components/vl53l1cb/modules/vl53l1_api.c **** 	LOG_FUNCTION_START("");
1686:Drivers/BSP/Components/vl53l1cb/modules/vl53l1_api.c **** 
1687:Drivers/BSP/Components/vl53l1cb/modules/vl53l1_api.c **** 	DeviceMeasurementMode = VL53L1DevDataGet(Dev, LLData.measurement_mode);
1688:Drivers/BSP/Components/vl53l1cb/modules/vl53l1_api.c **** 	if (DeviceMeasurementMode != VL53L1_DEVICEMEASUREMENTMODE_TIMED)
1689:Drivers/BSP/Components/vl53l1cb/modules/vl53l1_api.c **** 		VL53L1_load_patch(Dev);
1690:Drivers/BSP/Components/vl53l1cb/modules/vl53l1_api.c **** 	for (i = 0; i < VL53L1_MAX_USER_ZONES; i++) {
1691:Drivers/BSP/Components/vl53l1cb/modules/vl53l1_api.c **** 		pdev->PreviousRangeMilliMeter[i] = 0;
1692:Drivers/BSP/Components/vl53l1cb/modules/vl53l1_api.c **** 		pdev->PreviousRangeStatus[i] = 255;
1693:Drivers/BSP/Components/vl53l1cb/modules/vl53l1_api.c **** 		pdev->PreviousExtendedRange[i] = 0;
1694:Drivers/BSP/Components/vl53l1cb/modules/vl53l1_api.c **** 		pdev->PreviousRangeActiveResults[i] = 0;
1695:Drivers/BSP/Components/vl53l1cb/modules/vl53l1_api.c **** 		pdev->smudge_corrector_internals.previous_xtalk[i] = 0;
1696:Drivers/BSP/Components/vl53l1cb/modules/vl53l1_api.c **** 		pdev->smudge_corrector_internals.current_samples[i] = 0;
1697:Drivers/BSP/Components/vl53l1cb/modules/vl53l1_api.c **** 		pdev->smudge_corrector_internals.accumulator[i] = 0;
1698:Drivers/BSP/Components/vl53l1cb/modules/vl53l1_api.c **** 		pdev->smudge_corrector_internals.nodetect_counter[i] = 0;
1699:Drivers/BSP/Components/vl53l1cb/modules/vl53l1_api.c **** 	}
1700:Drivers/BSP/Components/vl53l1cb/modules/vl53l1_api.c **** 	pdev->PreviousStreamCount = 0;
1701:Drivers/BSP/Components/vl53l1cb/modules/vl53l1_api.c **** 
1702:Drivers/BSP/Components/vl53l1cb/modules/vl53l1_api.c **** 	CurrPalState = VL53L1DevDataGet(Dev, PalState);
1703:Drivers/BSP/Components/vl53l1cb/modules/vl53l1_api.c **** 	switch (CurrPalState) {
1704:Drivers/BSP/Components/vl53l1cb/modules/vl53l1_api.c **** 	case VL53L1_STATE_IDLE:
1705:Drivers/BSP/Components/vl53l1cb/modules/vl53l1_api.c **** 		Status = VL53L1_ERROR_NONE;
1706:Drivers/BSP/Components/vl53l1cb/modules/vl53l1_api.c **** 		break;
1707:Drivers/BSP/Components/vl53l1cb/modules/vl53l1_api.c **** 	case VL53L1_STATE_POWERDOWN:
1708:Drivers/BSP/Components/vl53l1cb/modules/vl53l1_api.c **** 	case VL53L1_STATE_WAIT_STATICINIT:
1709:Drivers/BSP/Components/vl53l1cb/modules/vl53l1_api.c **** 	case VL53L1_STATE_STANDBY:
1710:Drivers/BSP/Components/vl53l1cb/modules/vl53l1_api.c **** 	case VL53L1_STATE_RUNNING:
1711:Drivers/BSP/Components/vl53l1cb/modules/vl53l1_api.c **** 	case VL53L1_STATE_RESET:
1712:Drivers/BSP/Components/vl53l1cb/modules/vl53l1_api.c **** 	case VL53L1_STATE_UNKNOWN:
1713:Drivers/BSP/Components/vl53l1cb/modules/vl53l1_api.c **** 	case VL53L1_STATE_ERROR:
1714:Drivers/BSP/Components/vl53l1cb/modules/vl53l1_api.c **** 		Status = VL53L1_ERROR_INVALID_COMMAND;
1715:Drivers/BSP/Components/vl53l1cb/modules/vl53l1_api.c **** 		break;
1716:Drivers/BSP/Components/vl53l1cb/modules/vl53l1_api.c **** 	default:
1717:Drivers/BSP/Components/vl53l1cb/modules/vl53l1_api.c **** 		Status = VL53L1_ERROR_UNDEFINED;
1718:Drivers/BSP/Components/vl53l1cb/modules/vl53l1_api.c **** 	}
1719:Drivers/BSP/Components/vl53l1cb/modules/vl53l1_api.c **** 
1720:Drivers/BSP/Components/vl53l1cb/modules/vl53l1_api.c **** 
ARM GAS  C:\Temp\ccMpj0h9.s 			page 40


1721:Drivers/BSP/Components/vl53l1cb/modules/vl53l1_api.c **** 	if ((Status == VL53L1_ERROR_NONE) &&
1722:Drivers/BSP/Components/vl53l1cb/modules/vl53l1_api.c **** 		(DeviceMeasurementMode == VL53L1_DEVICEMEASUREMENTMODE_TIMED)) {
1723:Drivers/BSP/Components/vl53l1cb/modules/vl53l1_api.c **** 		lStatus = VL53L1_GetMeasurementTimingBudgetMicroSeconds(Dev,
1724:Drivers/BSP/Components/vl53l1cb/modules/vl53l1_api.c **** 				&MTBus);
1725:Drivers/BSP/Components/vl53l1cb/modules/vl53l1_api.c **** 
1726:Drivers/BSP/Components/vl53l1cb/modules/vl53l1_api.c **** 		MTBus /= 1000;
1727:Drivers/BSP/Components/vl53l1cb/modules/vl53l1_api.c **** 		lStatus = VL53L1_GetInterMeasurementPeriodMilliSeconds(Dev,
1728:Drivers/BSP/Components/vl53l1cb/modules/vl53l1_api.c **** 				&IMPms);
1729:Drivers/BSP/Components/vl53l1cb/modules/vl53l1_api.c **** 
1730:Drivers/BSP/Components/vl53l1cb/modules/vl53l1_api.c **** 		SUPPRESS_UNUSED_WARNING(lStatus);
1731:Drivers/BSP/Components/vl53l1cb/modules/vl53l1_api.c **** 		if (IMPms < MTBus + TIMED_MODE_TIMING_GUARD_MILLISECONDS)
1732:Drivers/BSP/Components/vl53l1cb/modules/vl53l1_api.c **** 			Status = VL53L1_ERROR_INVALID_PARAMS;
1733:Drivers/BSP/Components/vl53l1cb/modules/vl53l1_api.c **** 	}
1734:Drivers/BSP/Components/vl53l1cb/modules/vl53l1_api.c **** 
1735:Drivers/BSP/Components/vl53l1cb/modules/vl53l1_api.c **** 	if (Status == VL53L1_ERROR_NONE)
1736:Drivers/BSP/Components/vl53l1cb/modules/vl53l1_api.c **** 		Status = VL53L1_init_and_start_range(
1737:Drivers/BSP/Components/vl53l1cb/modules/vl53l1_api.c **** 				Dev,
1738:Drivers/BSP/Components/vl53l1cb/modules/vl53l1_api.c **** 				DeviceMeasurementMode,
1739:Drivers/BSP/Components/vl53l1cb/modules/vl53l1_api.c **** 				VL53L1_DEVICECONFIGLEVEL_FULL);
1740:Drivers/BSP/Components/vl53l1cb/modules/vl53l1_api.c **** 
1741:Drivers/BSP/Components/vl53l1cb/modules/vl53l1_api.c **** 
1742:Drivers/BSP/Components/vl53l1cb/modules/vl53l1_api.c **** 	if (Status == VL53L1_ERROR_NONE)
1743:Drivers/BSP/Components/vl53l1cb/modules/vl53l1_api.c **** 		VL53L1DevDataSet(Dev, PalState, VL53L1_STATE_RUNNING);
1744:Drivers/BSP/Components/vl53l1cb/modules/vl53l1_api.c **** 
1745:Drivers/BSP/Components/vl53l1cb/modules/vl53l1_api.c **** 
1746:Drivers/BSP/Components/vl53l1cb/modules/vl53l1_api.c **** 	LOG_FUNCTION_END(Status);
1747:Drivers/BSP/Components/vl53l1cb/modules/vl53l1_api.c **** 	return Status;
1748:Drivers/BSP/Components/vl53l1cb/modules/vl53l1_api.c **** }
1749:Drivers/BSP/Components/vl53l1cb/modules/vl53l1_api.c **** 
1750:Drivers/BSP/Components/vl53l1cb/modules/vl53l1_api.c **** VL53L1_Error VL53L1_StopMeasurement(VL53L1_DEV Dev)
1751:Drivers/BSP/Components/vl53l1cb/modules/vl53l1_api.c **** {
1752:Drivers/BSP/Components/vl53l1cb/modules/vl53l1_api.c **** 	VL53L1_Error Status = VL53L1_ERROR_NONE;
1753:Drivers/BSP/Components/vl53l1cb/modules/vl53l1_api.c **** 	uint8_t DeviceMeasurementMode;
1754:Drivers/BSP/Components/vl53l1cb/modules/vl53l1_api.c **** 
1755:Drivers/BSP/Components/vl53l1cb/modules/vl53l1_api.c **** 	LOG_FUNCTION_START("");
1756:Drivers/BSP/Components/vl53l1cb/modules/vl53l1_api.c **** 
1757:Drivers/BSP/Components/vl53l1cb/modules/vl53l1_api.c **** 	Status = VL53L1_stop_range(Dev);
1758:Drivers/BSP/Components/vl53l1cb/modules/vl53l1_api.c **** 	DeviceMeasurementMode = VL53L1DevDataGet(Dev, LLData.measurement_mode);
1759:Drivers/BSP/Components/vl53l1cb/modules/vl53l1_api.c **** 	if (DeviceMeasurementMode != VL53L1_DEVICEMEASUREMENTMODE_TIMED)
1760:Drivers/BSP/Components/vl53l1cb/modules/vl53l1_api.c **** 		VL53L1_unload_patch(Dev);
1761:Drivers/BSP/Components/vl53l1cb/modules/vl53l1_api.c **** 
1762:Drivers/BSP/Components/vl53l1cb/modules/vl53l1_api.c **** 	if (Status == VL53L1_ERROR_NONE)
1763:Drivers/BSP/Components/vl53l1cb/modules/vl53l1_api.c **** 		VL53L1DevDataSet(Dev, PalState, VL53L1_STATE_IDLE);
1764:Drivers/BSP/Components/vl53l1cb/modules/vl53l1_api.c **** 
1765:Drivers/BSP/Components/vl53l1cb/modules/vl53l1_api.c **** 	LOG_FUNCTION_END(Status);
1766:Drivers/BSP/Components/vl53l1cb/modules/vl53l1_api.c **** 	return Status;
1767:Drivers/BSP/Components/vl53l1cb/modules/vl53l1_api.c **** }
1768:Drivers/BSP/Components/vl53l1cb/modules/vl53l1_api.c **** 
1769:Drivers/BSP/Components/vl53l1cb/modules/vl53l1_api.c **** 
1770:Drivers/BSP/Components/vl53l1cb/modules/vl53l1_api.c **** VL53L1_Error VL53L1_ClearInterruptAndStartMeasurement(VL53L1_DEV Dev)
1771:Drivers/BSP/Components/vl53l1cb/modules/vl53l1_api.c **** {
1772:Drivers/BSP/Components/vl53l1cb/modules/vl53l1_api.c **** 	VL53L1_Error Status = VL53L1_ERROR_NONE;
1773:Drivers/BSP/Components/vl53l1cb/modules/vl53l1_api.c **** 	uint8_t DeviceMeasurementMode;
1774:Drivers/BSP/Components/vl53l1cb/modules/vl53l1_api.c **** 
1775:Drivers/BSP/Components/vl53l1cb/modules/vl53l1_api.c **** 	LOG_FUNCTION_START("");
1776:Drivers/BSP/Components/vl53l1cb/modules/vl53l1_api.c **** 
1777:Drivers/BSP/Components/vl53l1cb/modules/vl53l1_api.c **** 	DeviceMeasurementMode = VL53L1DevDataGet(Dev, LLData.measurement_mode);
ARM GAS  C:\Temp\ccMpj0h9.s 			page 41


1778:Drivers/BSP/Components/vl53l1cb/modules/vl53l1_api.c **** 
1779:Drivers/BSP/Components/vl53l1cb/modules/vl53l1_api.c **** 	Status = VL53L1_clear_interrupt_and_enable_next_range(Dev,
1780:Drivers/BSP/Components/vl53l1cb/modules/vl53l1_api.c **** 			DeviceMeasurementMode);
1781:Drivers/BSP/Components/vl53l1cb/modules/vl53l1_api.c **** 
1782:Drivers/BSP/Components/vl53l1cb/modules/vl53l1_api.c **** 	LOG_FUNCTION_END(Status);
1783:Drivers/BSP/Components/vl53l1cb/modules/vl53l1_api.c **** 	return Status;
1784:Drivers/BSP/Components/vl53l1cb/modules/vl53l1_api.c **** }
1785:Drivers/BSP/Components/vl53l1cb/modules/vl53l1_api.c **** 
1786:Drivers/BSP/Components/vl53l1cb/modules/vl53l1_api.c **** 
1787:Drivers/BSP/Components/vl53l1cb/modules/vl53l1_api.c **** VL53L1_Error VL53L1_GetMeasurementDataReady(VL53L1_DEV Dev,
1788:Drivers/BSP/Components/vl53l1cb/modules/vl53l1_api.c **** 	uint8_t *pMeasurementDataReady)
1789:Drivers/BSP/Components/vl53l1cb/modules/vl53l1_api.c **** {
1790:Drivers/BSP/Components/vl53l1cb/modules/vl53l1_api.c **** 	VL53L1_Error Status = VL53L1_ERROR_NONE;
1791:Drivers/BSP/Components/vl53l1cb/modules/vl53l1_api.c **** 
1792:Drivers/BSP/Components/vl53l1cb/modules/vl53l1_api.c **** 	LOG_FUNCTION_START("");
1793:Drivers/BSP/Components/vl53l1cb/modules/vl53l1_api.c **** 
1794:Drivers/BSP/Components/vl53l1cb/modules/vl53l1_api.c **** 	Status = VL53L1_is_new_data_ready(Dev, pMeasurementDataReady);
1795:Drivers/BSP/Components/vl53l1cb/modules/vl53l1_api.c **** 
1796:Drivers/BSP/Components/vl53l1cb/modules/vl53l1_api.c **** 	LOG_FUNCTION_END(Status);
1797:Drivers/BSP/Components/vl53l1cb/modules/vl53l1_api.c **** 	return Status;
1798:Drivers/BSP/Components/vl53l1cb/modules/vl53l1_api.c **** }
1799:Drivers/BSP/Components/vl53l1cb/modules/vl53l1_api.c **** 
1800:Drivers/BSP/Components/vl53l1cb/modules/vl53l1_api.c **** VL53L1_Error VL53L1_WaitMeasurementDataReady(VL53L1_DEV Dev)
1801:Drivers/BSP/Components/vl53l1cb/modules/vl53l1_api.c **** {
1802:Drivers/BSP/Components/vl53l1cb/modules/vl53l1_api.c **** 	VL53L1_Error Status = VL53L1_ERROR_NONE;
1803:Drivers/BSP/Components/vl53l1cb/modules/vl53l1_api.c **** 
1804:Drivers/BSP/Components/vl53l1cb/modules/vl53l1_api.c **** 	LOG_FUNCTION_START("");
1805:Drivers/BSP/Components/vl53l1cb/modules/vl53l1_api.c **** 
1806:Drivers/BSP/Components/vl53l1cb/modules/vl53l1_api.c **** 
1807:Drivers/BSP/Components/vl53l1cb/modules/vl53l1_api.c **** 
1808:Drivers/BSP/Components/vl53l1cb/modules/vl53l1_api.c **** 	Status = VL53L1_poll_for_range_completion(Dev,
1809:Drivers/BSP/Components/vl53l1cb/modules/vl53l1_api.c **** 			VL53L1_RANGE_COMPLETION_POLLING_TIMEOUT_MS);
1810:Drivers/BSP/Components/vl53l1cb/modules/vl53l1_api.c **** 
1811:Drivers/BSP/Components/vl53l1cb/modules/vl53l1_api.c **** 	LOG_FUNCTION_END(Status);
1812:Drivers/BSP/Components/vl53l1cb/modules/vl53l1_api.c **** 	return Status;
1813:Drivers/BSP/Components/vl53l1cb/modules/vl53l1_api.c **** }
1814:Drivers/BSP/Components/vl53l1cb/modules/vl53l1_api.c **** 
1815:Drivers/BSP/Components/vl53l1cb/modules/vl53l1_api.c **** static void GenNewPresetMode(int16_t RefRange,
1816:Drivers/BSP/Components/vl53l1cb/modules/vl53l1_api.c **** 		VL53L1_DistanceModes InternalDistanceMode,
1817:Drivers/BSP/Components/vl53l1cb/modules/vl53l1_api.c **** 		VL53L1_DistanceModes *pNewDistanceMode)
1818:Drivers/BSP/Components/vl53l1cb/modules/vl53l1_api.c **** {
 460              		.loc 1 1818 1 is_stmt 1 view -0
 461              		.cfi_startproc
 462              		@ args = 0, pretend = 0, frame = 0
 463              		@ frame_needed = 0, uses_anonymous_args = 0
 464              		@ link register save eliminated.
1819:Drivers/BSP/Components/vl53l1cb/modules/vl53l1_api.c **** 	uint16_t HRLI = 600;
 465              		.loc 1 1819 2 view .LVU119
1820:Drivers/BSP/Components/vl53l1cb/modules/vl53l1_api.c **** 	uint16_t HRLH = 700;
 466              		.loc 1 1820 2 view .LVU120
1821:Drivers/BSP/Components/vl53l1cb/modules/vl53l1_api.c **** 	uint16_t MRLI = 1400;
 467              		.loc 1 1821 2 view .LVU121
1822:Drivers/BSP/Components/vl53l1cb/modules/vl53l1_api.c **** 	uint16_t MRLH = 1500;
 468              		.loc 1 1822 2 view .LVU122
1823:Drivers/BSP/Components/vl53l1cb/modules/vl53l1_api.c **** 
1824:Drivers/BSP/Components/vl53l1cb/modules/vl53l1_api.c **** 	switch (InternalDistanceMode) {
 469              		.loc 1 1824 2 view .LVU123
ARM GAS  C:\Temp\ccMpj0h9.s 			page 42


 470 0000 0129     		cmp	r1, #1
 471 0002 07D0     		beq	.L40
 472 0004 0229     		cmp	r1, #2
 473 0006 12D0     		beq	.L41
1825:Drivers/BSP/Components/vl53l1cb/modules/vl53l1_api.c **** 	case VL53L1_DISTANCEMODE_SHORT:
1826:Drivers/BSP/Components/vl53l1cb/modules/vl53l1_api.c **** 
1827:Drivers/BSP/Components/vl53l1cb/modules/vl53l1_api.c **** 		if (RefRange > MRLH)
1828:Drivers/BSP/Components/vl53l1cb/modules/vl53l1_api.c **** 			*pNewDistanceMode = VL53L1_DISTANCEMODE_LONG;
1829:Drivers/BSP/Components/vl53l1cb/modules/vl53l1_api.c **** 		else if (RefRange > HRLH)
1830:Drivers/BSP/Components/vl53l1cb/modules/vl53l1_api.c **** 			*pNewDistanceMode = VL53L1_DISTANCEMODE_MEDIUM;
1831:Drivers/BSP/Components/vl53l1cb/modules/vl53l1_api.c **** 		break;
1832:Drivers/BSP/Components/vl53l1cb/modules/vl53l1_api.c **** 	case VL53L1_DISTANCEMODE_MEDIUM:
1833:Drivers/BSP/Components/vl53l1cb/modules/vl53l1_api.c **** 
1834:Drivers/BSP/Components/vl53l1cb/modules/vl53l1_api.c **** 		if (RefRange > MRLH)
1835:Drivers/BSP/Components/vl53l1cb/modules/vl53l1_api.c **** 			*pNewDistanceMode = VL53L1_DISTANCEMODE_LONG;
1836:Drivers/BSP/Components/vl53l1cb/modules/vl53l1_api.c **** 		else if (RefRange < HRLI)
1837:Drivers/BSP/Components/vl53l1cb/modules/vl53l1_api.c **** 			*pNewDistanceMode = VL53L1_DISTANCEMODE_SHORT;
1838:Drivers/BSP/Components/vl53l1cb/modules/vl53l1_api.c **** 		break;
1839:Drivers/BSP/Components/vl53l1cb/modules/vl53l1_api.c **** 	default:
1840:Drivers/BSP/Components/vl53l1cb/modules/vl53l1_api.c **** 
1841:Drivers/BSP/Components/vl53l1cb/modules/vl53l1_api.c **** 		if (RefRange < HRLI)
 474              		.loc 1 1841 3 view .LVU124
 475              		.loc 1 1841 6 is_stmt 0 view .LVU125
 476 0008 B0F5167F 		cmp	r0, #600
 477 000c 1CDA     		bge	.L46
1842:Drivers/BSP/Components/vl53l1cb/modules/vl53l1_api.c **** 			*pNewDistanceMode = VL53L1_DISTANCEMODE_SHORT;
 478              		.loc 1 1842 4 is_stmt 1 view .LVU126
 479              		.loc 1 1842 22 is_stmt 0 view .LVU127
 480 000e 0123     		movs	r3, #1
 481 0010 1370     		strb	r3, [r2]
 482 0012 7047     		bx	lr
 483              	.L40:
1827:Drivers/BSP/Components/vl53l1cb/modules/vl53l1_api.c **** 			*pNewDistanceMode = VL53L1_DISTANCEMODE_LONG;
 484              		.loc 1 1827 3 is_stmt 1 view .LVU128
1827:Drivers/BSP/Components/vl53l1cb/modules/vl53l1_api.c **** 			*pNewDistanceMode = VL53L1_DISTANCEMODE_LONG;
 485              		.loc 1 1827 6 is_stmt 0 view .LVU129
 486 0014 40F2DC53 		movw	r3, #1500
 487 0018 9842     		cmp	r0, r3
 488 001a 02DD     		ble	.L43
1828:Drivers/BSP/Components/vl53l1cb/modules/vl53l1_api.c **** 		else if (RefRange > HRLH)
 489              		.loc 1 1828 4 is_stmt 1 view .LVU130
1828:Drivers/BSP/Components/vl53l1cb/modules/vl53l1_api.c **** 		else if (RefRange > HRLH)
 490              		.loc 1 1828 22 is_stmt 0 view .LVU131
 491 001c 0323     		movs	r3, #3
 492 001e 1370     		strb	r3, [r2]
 493 0020 7047     		bx	lr
 494              	.L43:
1829:Drivers/BSP/Components/vl53l1cb/modules/vl53l1_api.c **** 			*pNewDistanceMode = VL53L1_DISTANCEMODE_MEDIUM;
 495              		.loc 1 1829 8 is_stmt 1 view .LVU132
1829:Drivers/BSP/Components/vl53l1cb/modules/vl53l1_api.c **** 			*pNewDistanceMode = VL53L1_DISTANCEMODE_MEDIUM;
 496              		.loc 1 1829 11 is_stmt 0 view .LVU133
 497 0022 B0F52F7F 		cmp	r0, #700
 498 0026 14DD     		ble	.L39
1830:Drivers/BSP/Components/vl53l1cb/modules/vl53l1_api.c **** 		break;
 499              		.loc 1 1830 4 is_stmt 1 view .LVU134
1830:Drivers/BSP/Components/vl53l1cb/modules/vl53l1_api.c **** 		break;
 500              		.loc 1 1830 22 is_stmt 0 view .LVU135
ARM GAS  C:\Temp\ccMpj0h9.s 			page 43


 501 0028 0223     		movs	r3, #2
 502 002a 1370     		strb	r3, [r2]
 503 002c 7047     		bx	lr
 504              	.L41:
1834:Drivers/BSP/Components/vl53l1cb/modules/vl53l1_api.c **** 			*pNewDistanceMode = VL53L1_DISTANCEMODE_LONG;
 505              		.loc 1 1834 3 is_stmt 1 view .LVU136
1834:Drivers/BSP/Components/vl53l1cb/modules/vl53l1_api.c **** 			*pNewDistanceMode = VL53L1_DISTANCEMODE_LONG;
 506              		.loc 1 1834 6 is_stmt 0 view .LVU137
 507 002e 40F2DC53 		movw	r3, #1500
 508 0032 9842     		cmp	r0, r3
 509 0034 02DD     		ble	.L45
1835:Drivers/BSP/Components/vl53l1cb/modules/vl53l1_api.c **** 		else if (RefRange < HRLI)
 510              		.loc 1 1835 4 is_stmt 1 view .LVU138
1835:Drivers/BSP/Components/vl53l1cb/modules/vl53l1_api.c **** 		else if (RefRange < HRLI)
 511              		.loc 1 1835 22 is_stmt 0 view .LVU139
 512 0036 0323     		movs	r3, #3
 513 0038 1370     		strb	r3, [r2]
 514 003a 7047     		bx	lr
 515              	.L45:
1836:Drivers/BSP/Components/vl53l1cb/modules/vl53l1_api.c **** 			*pNewDistanceMode = VL53L1_DISTANCEMODE_SHORT;
 516              		.loc 1 1836 8 is_stmt 1 view .LVU140
1836:Drivers/BSP/Components/vl53l1cb/modules/vl53l1_api.c **** 			*pNewDistanceMode = VL53L1_DISTANCEMODE_SHORT;
 517              		.loc 1 1836 11 is_stmt 0 view .LVU141
 518 003c B0F5167F 		cmp	r0, #600
 519 0040 07DA     		bge	.L39
1837:Drivers/BSP/Components/vl53l1cb/modules/vl53l1_api.c **** 		break;
 520              		.loc 1 1837 4 is_stmt 1 view .LVU142
1837:Drivers/BSP/Components/vl53l1cb/modules/vl53l1_api.c **** 		break;
 521              		.loc 1 1837 22 is_stmt 0 view .LVU143
 522 0042 0123     		movs	r3, #1
 523 0044 1370     		strb	r3, [r2]
 524 0046 7047     		bx	lr
 525              	.L46:
1843:Drivers/BSP/Components/vl53l1cb/modules/vl53l1_api.c **** 		else if (RefRange < MRLI)
 526              		.loc 1 1843 8 is_stmt 1 view .LVU144
 527              		.loc 1 1843 11 is_stmt 0 view .LVU145
 528 0048 B0F5AF6F 		cmp	r0, #1400
 529 004c 01DA     		bge	.L39
1844:Drivers/BSP/Components/vl53l1cb/modules/vl53l1_api.c **** 			*pNewDistanceMode = VL53L1_DISTANCEMODE_MEDIUM;
 530              		.loc 1 1844 4 is_stmt 1 view .LVU146
 531              		.loc 1 1844 22 is_stmt 0 view .LVU147
 532 004e 0223     		movs	r3, #2
 533 0050 1370     		strb	r3, [r2]
 534              	.L39:
1845:Drivers/BSP/Components/vl53l1cb/modules/vl53l1_api.c **** 		break;
1846:Drivers/BSP/Components/vl53l1cb/modules/vl53l1_api.c **** 	}
1847:Drivers/BSP/Components/vl53l1cb/modules/vl53l1_api.c **** }
 535              		.loc 1 1847 1 view .LVU148
 536 0052 7047     		bx	lr
 537              		.cfi_endproc
 538              	.LFE56:
 540              		.section	.text.CheckAndChangeDistanceMode,"ax",%progbits
 541              		.align	1
 542              		.syntax unified
 543              		.thumb
 544              		.thumb_func
 546              	CheckAndChangeDistanceMode:
ARM GAS  C:\Temp\ccMpj0h9.s 			page 44


 547              	.LVL38:
 548              	.LFB57:
1848:Drivers/BSP/Components/vl53l1cb/modules/vl53l1_api.c **** 
1849:Drivers/BSP/Components/vl53l1cb/modules/vl53l1_api.c **** static void CheckAndChangeDistanceMode(VL53L1_DEV Dev,
1850:Drivers/BSP/Components/vl53l1cb/modules/vl53l1_api.c **** 		VL53L1_TargetRangeData_t *pRangeData,
1851:Drivers/BSP/Components/vl53l1cb/modules/vl53l1_api.c **** 		int16_t Ambient100DmaxMm,
1852:Drivers/BSP/Components/vl53l1cb/modules/vl53l1_api.c **** 		VL53L1_DistanceModes *pNewDistanceMode
1853:Drivers/BSP/Components/vl53l1cb/modules/vl53l1_api.c **** )
1854:Drivers/BSP/Components/vl53l1cb/modules/vl53l1_api.c **** {
 549              		.loc 1 1854 1 is_stmt 1 view -0
 550              		.cfi_startproc
 551              		@ args = 0, pretend = 0, frame = 0
 552              		@ frame_needed = 0, uses_anonymous_args = 0
 553              		.loc 1 1854 1 is_stmt 0 view .LVU150
 554 0000 10B5     		push	{r4, lr}
 555              		.cfi_def_cfa_offset 8
 556              		.cfi_offset 4, -8
 557              		.cfi_offset 14, -4
 558 0002 8446     		mov	ip, r0
 559 0004 8E46     		mov	lr, r1
 560 0006 1046     		mov	r0, r2
 561              	.LVL39:
1855:Drivers/BSP/Components/vl53l1cb/modules/vl53l1_api.c **** 	VL53L1_DistanceModes DistanceMode;
 562              		.loc 1 1855 2 is_stmt 1 view .LVU151
1856:Drivers/BSP/Components/vl53l1cb/modules/vl53l1_api.c **** 	uint8_t RangeStatus = pRangeData->RangeStatus;
 563              		.loc 1 1856 2 view .LVU152
 564              		.loc 1 1856 10 is_stmt 0 view .LVU153
 565 0008 CC7D     		ldrb	r4, [r1, #23]	@ zero_extendqisi2
 566              	.LVL40:
1857:Drivers/BSP/Components/vl53l1cb/modules/vl53l1_api.c **** 	uint8_t DmaxValid;
 567              		.loc 1 1857 2 is_stmt 1 view .LVU154
1858:Drivers/BSP/Components/vl53l1cb/modules/vl53l1_api.c **** 	int32_t MinAmbient = BDTable[VL53L1_TUNING_MIN_AMBIENT_DMAX_VALID];
 568              		.loc 1 1858 2 view .LVU155
 569              		.loc 1 1858 10 is_stmt 0 view .LVU156
 570 000a 1549     		ldr	r1, .L60
 571              	.LVL41:
 572              		.loc 1 1858 10 view .LVU157
 573 000c 0A69     		ldr	r2, [r1, #16]
 574              	.LVL42:
1859:Drivers/BSP/Components/vl53l1cb/modules/vl53l1_api.c **** 	VL53L1_LLDriverData_t *pdev = VL53L1DevStructGetLLDriverHandle(Dev);
 575              		.loc 1 1859 2 is_stmt 1 view .LVU158
1860:Drivers/BSP/Components/vl53l1cb/modules/vl53l1_api.c **** 	int32_t  tmpint32;
 576              		.loc 1 1860 2 view .LVU159
1861:Drivers/BSP/Components/vl53l1cb/modules/vl53l1_api.c **** 
1862:Drivers/BSP/Components/vl53l1cb/modules/vl53l1_api.c **** 
1863:Drivers/BSP/Components/vl53l1cb/modules/vl53l1_api.c **** 	switch (RangeStatus) {
 577              		.loc 1 1863 2 view .LVU160
 578 000e 0C2C     		cmp	r4, #12
 579 0010 0CD8     		bhi	.L49
 580 0012 0A2C     		cmp	r4, #10
 581 0014 0CD2     		bcs	.L48
 582 0016 A11F     		subs	r1, r4, #6
 583 0018 C9B2     		uxtb	r1, r1
 584 001a 0129     		cmp	r1, #1
 585 001c 08D9     		bls	.L48
 586              	.L51:
1864:Drivers/BSP/Components/vl53l1cb/modules/vl53l1_api.c **** 	case VL53L1_RANGESTATUS_RANGE_VALID_NO_WRAP_CHECK_FAIL:
ARM GAS  C:\Temp\ccMpj0h9.s 			page 45


1865:Drivers/BSP/Components/vl53l1cb/modules/vl53l1_api.c **** 	case VL53L1_RANGESTATUS_WRAP_TARGET_FAIL:
1866:Drivers/BSP/Components/vl53l1cb/modules/vl53l1_api.c **** 	case VL53L1_RANGESTATUS_RANGE_VALID_MERGED_PULSE:
1867:Drivers/BSP/Components/vl53l1cb/modules/vl53l1_api.c **** 	case VL53L1_RANGESTATUS_TARGET_PRESENT_LACK_OF_SIGNAL:
1868:Drivers/BSP/Components/vl53l1cb/modules/vl53l1_api.c **** 	case VL53L1_RANGESTATUS_SYNCRONISATION_INT:
1869:Drivers/BSP/Components/vl53l1cb/modules/vl53l1_api.c **** 	case VL53L1_RANGESTATUS_NONE:
1870:Drivers/BSP/Components/vl53l1cb/modules/vl53l1_api.c **** 		return;
1871:Drivers/BSP/Components/vl53l1cb/modules/vl53l1_api.c **** 	default:
1872:Drivers/BSP/Components/vl53l1cb/modules/vl53l1_api.c **** 
1873:Drivers/BSP/Components/vl53l1cb/modules/vl53l1_api.c **** 		break;
 587              		.loc 1 1873 3 view .LVU161
1874:Drivers/BSP/Components/vl53l1cb/modules/vl53l1_api.c **** 	}
1875:Drivers/BSP/Components/vl53l1cb/modules/vl53l1_api.c **** 
1876:Drivers/BSP/Components/vl53l1cb/modules/vl53l1_api.c **** 	DmaxValid = 1;
 588              		.loc 1 1876 2 view .LVU162
 589              	.LVL43:
1877:Drivers/BSP/Components/vl53l1cb/modules/vl53l1_api.c **** 	tmpint32 = pdev->hist_data.VL53L1_p_004;
 590              		.loc 1 1877 2 view .LVU163
 591              		.loc 1 1877 11 is_stmt 0 view .LVU164
 592 001e DCF8C814 		ldr	r1, [ip, #1224]
 593              	.LVL44:
1878:Drivers/BSP/Components/vl53l1cb/modules/vl53l1_api.c **** 	if ((tmpint32 < MinAmbient) || (Ambient100DmaxMm == 0))
 594              		.loc 1 1878 2 is_stmt 1 view .LVU165
 595              		.loc 1 1878 5 is_stmt 0 view .LVU166
 596 0022 8A42     		cmp	r2, r1
 597 0024 05DC     		bgt	.L55
 598              		.loc 1 1878 30 discriminator 1 view .LVU167
 599 0026 78B1     		cbz	r0, .L56
1876:Drivers/BSP/Components/vl53l1cb/modules/vl53l1_api.c **** 	tmpint32 = pdev->hist_data.VL53L1_p_004;
 600              		.loc 1 1876 12 view .LVU168
 601 0028 0122     		movs	r2, #1
 602              	.LVL45:
1876:Drivers/BSP/Components/vl53l1cb/modules/vl53l1_api.c **** 	tmpint32 = pdev->hist_data.VL53L1_p_004;
 603              		.loc 1 1876 12 view .LVU169
 604 002a 03E0     		b	.L52
 605              	.LVL46:
 606              	.L49:
1863:Drivers/BSP/Components/vl53l1cb/modules/vl53l1_api.c **** 	case VL53L1_RANGESTATUS_RANGE_VALID_NO_WRAP_CHECK_FAIL:
 607              		.loc 1 1863 2 view .LVU170
 608 002c FF2C     		cmp	r4, #255
 609 002e F6D1     		bne	.L51
 610              	.LVL47:
 611              	.L48:
1879:Drivers/BSP/Components/vl53l1cb/modules/vl53l1_api.c **** 		DmaxValid = 0;
1880:Drivers/BSP/Components/vl53l1cb/modules/vl53l1_api.c **** 
1881:Drivers/BSP/Components/vl53l1cb/modules/vl53l1_api.c **** 	DistanceMode = VL53L1DevDataGet(Dev,
1882:Drivers/BSP/Components/vl53l1cb/modules/vl53l1_api.c **** 			CurrentParameters.DistanceMode);
1883:Drivers/BSP/Components/vl53l1cb/modules/vl53l1_api.c **** 
1884:Drivers/BSP/Components/vl53l1cb/modules/vl53l1_api.c **** 	*pNewDistanceMode = DistanceMode;
1885:Drivers/BSP/Components/vl53l1cb/modules/vl53l1_api.c **** 
1886:Drivers/BSP/Components/vl53l1cb/modules/vl53l1_api.c **** 	if (RangeStatus == VL53L1_RANGESTATUS_RANGE_VALID)
1887:Drivers/BSP/Components/vl53l1cb/modules/vl53l1_api.c **** 		GenNewPresetMode(pRangeData->RangeMilliMeter,
1888:Drivers/BSP/Components/vl53l1cb/modules/vl53l1_api.c **** 				DistanceMode, pNewDistanceMode);
1889:Drivers/BSP/Components/vl53l1cb/modules/vl53l1_api.c **** 	else {
1890:Drivers/BSP/Components/vl53l1cb/modules/vl53l1_api.c **** 		if (DmaxValid)
1891:Drivers/BSP/Components/vl53l1cb/modules/vl53l1_api.c **** 			GenNewPresetMode(Ambient100DmaxMm,
1892:Drivers/BSP/Components/vl53l1cb/modules/vl53l1_api.c **** 					DistanceMode, pNewDistanceMode);
1893:Drivers/BSP/Components/vl53l1cb/modules/vl53l1_api.c **** 		else
ARM GAS  C:\Temp\ccMpj0h9.s 			page 46


1894:Drivers/BSP/Components/vl53l1cb/modules/vl53l1_api.c **** 			*pNewDistanceMode = VL53L1_DISTANCEMODE_LONG;
1895:Drivers/BSP/Components/vl53l1cb/modules/vl53l1_api.c **** 	}
1896:Drivers/BSP/Components/vl53l1cb/modules/vl53l1_api.c **** }
 612              		.loc 1 1896 1 view .LVU171
 613 0030 10BD     		pop	{r4, pc}
 614              	.LVL48:
 615              	.L55:
1879:Drivers/BSP/Components/vl53l1cb/modules/vl53l1_api.c **** 		DmaxValid = 0;
 616              		.loc 1 1879 13 view .LVU172
 617 0032 0022     		movs	r2, #0
 618              	.LVL49:
 619              	.L52:
1881:Drivers/BSP/Components/vl53l1cb/modules/vl53l1_api.c **** 			CurrentParameters.DistanceMode);
 620              		.loc 1 1881 2 is_stmt 1 view .LVU173
1881:Drivers/BSP/Components/vl53l1cb/modules/vl53l1_api.c **** 			CurrentParameters.DistanceMode);
 621              		.loc 1 1881 15 is_stmt 0 view .LVU174
 622 0034 0CF5C04C 		add	ip, ip, #24576
 623              	.LVL50:
1881:Drivers/BSP/Components/vl53l1cb/modules/vl53l1_api.c **** 			CurrentParameters.DistanceMode);
 624              		.loc 1 1881 15 view .LVU175
 625 0038 9CF8561F 		ldrb	r1, [ip, #3926]	@ zero_extendqisi2
 626              	.LVL51:
1884:Drivers/BSP/Components/vl53l1cb/modules/vl53l1_api.c **** 
 627              		.loc 1 1884 2 is_stmt 1 view .LVU176
1884:Drivers/BSP/Components/vl53l1cb/modules/vl53l1_api.c **** 
 628              		.loc 1 1884 20 is_stmt 0 view .LVU177
 629 003c 1970     		strb	r1, [r3]
 630              	.LVL52:
1886:Drivers/BSP/Components/vl53l1cb/modules/vl53l1_api.c **** 		GenNewPresetMode(pRangeData->RangeMilliMeter,
 631              		.loc 1 1886 2 is_stmt 1 view .LVU178
1886:Drivers/BSP/Components/vl53l1cb/modules/vl53l1_api.c **** 		GenNewPresetMode(pRangeData->RangeMilliMeter,
 632              		.loc 1 1886 5 is_stmt 0 view .LVU179
 633 003e 2CB1     		cbz	r4, .L58
1890:Drivers/BSP/Components/vl53l1cb/modules/vl53l1_api.c **** 			GenNewPresetMode(Ambient100DmaxMm,
 634              		.loc 1 1890 3 is_stmt 1 view .LVU180
1890:Drivers/BSP/Components/vl53l1cb/modules/vl53l1_api.c **** 			GenNewPresetMode(Ambient100DmaxMm,
 635              		.loc 1 1890 6 is_stmt 0 view .LVU181
 636 0040 52B9     		cbnz	r2, .L59
1894:Drivers/BSP/Components/vl53l1cb/modules/vl53l1_api.c **** 	}
 637              		.loc 1 1894 4 is_stmt 1 view .LVU182
1894:Drivers/BSP/Components/vl53l1cb/modules/vl53l1_api.c **** 	}
 638              		.loc 1 1894 22 is_stmt 0 view .LVU183
 639 0042 0322     		movs	r2, #3
 640              	.LVL53:
1894:Drivers/BSP/Components/vl53l1cb/modules/vl53l1_api.c **** 	}
 641              		.loc 1 1894 22 view .LVU184
 642 0044 1A70     		strb	r2, [r3]
 643 0046 F3E7     		b	.L48
 644              	.LVL54:
 645              	.L56:
1879:Drivers/BSP/Components/vl53l1cb/modules/vl53l1_api.c **** 
 646              		.loc 1 1879 13 view .LVU185
 647 0048 0022     		movs	r2, #0
 648              	.LVL55:
1879:Drivers/BSP/Components/vl53l1cb/modules/vl53l1_api.c **** 
 649              		.loc 1 1879 13 view .LVU186
 650 004a F3E7     		b	.L52
ARM GAS  C:\Temp\ccMpj0h9.s 			page 47


 651              	.LVL56:
 652              	.L58:
1887:Drivers/BSP/Components/vl53l1cb/modules/vl53l1_api.c **** 				DistanceMode, pNewDistanceMode);
 653              		.loc 1 1887 3 is_stmt 1 view .LVU187
 654 004c 1A46     		mov	r2, r3
 655              	.LVL57:
1887:Drivers/BSP/Components/vl53l1cb/modules/vl53l1_api.c **** 				DistanceMode, pNewDistanceMode);
 656              		.loc 1 1887 3 is_stmt 0 view .LVU188
 657 004e BEF91400 		ldrsh	r0, [lr, #20]
 658 0052 FFF7FEFF 		bl	GenNewPresetMode
 659              	.LVL58:
1887:Drivers/BSP/Components/vl53l1cb/modules/vl53l1_api.c **** 				DistanceMode, pNewDistanceMode);
 660              		.loc 1 1887 3 view .LVU189
 661 0056 EBE7     		b	.L48
 662              	.LVL59:
 663              	.L59:
1891:Drivers/BSP/Components/vl53l1cb/modules/vl53l1_api.c **** 					DistanceMode, pNewDistanceMode);
 664              		.loc 1 1891 4 is_stmt 1 view .LVU190
 665 0058 1A46     		mov	r2, r3
 666              	.LVL60:
1891:Drivers/BSP/Components/vl53l1cb/modules/vl53l1_api.c **** 					DistanceMode, pNewDistanceMode);
 667              		.loc 1 1891 4 is_stmt 0 view .LVU191
 668 005a FFF7FEFF 		bl	GenNewPresetMode
 669              	.LVL61:
1891:Drivers/BSP/Components/vl53l1cb/modules/vl53l1_api.c **** 					DistanceMode, pNewDistanceMode);
 670              		.loc 1 1891 4 view .LVU192
 671 005e E7E7     		b	.L48
 672              	.L61:
 673              		.align	2
 674              	.L60:
 675 0060 00000000 		.word	BDTable
 676              		.cfi_endproc
 677              	.LFE57:
 679              		.section	.text.ComputeRQL,"ax",%progbits
 680              		.align	1
 681              		.syntax unified
 682              		.thumb
 683              		.thumb_func
 685              	ComputeRQL:
 686              	.LVL62:
 687              	.LFB58:
1897:Drivers/BSP/Components/vl53l1cb/modules/vl53l1_api.c **** 
1898:Drivers/BSP/Components/vl53l1cb/modules/vl53l1_api.c **** static uint8_t ComputeRQL(uint8_t active_results,
1899:Drivers/BSP/Components/vl53l1cb/modules/vl53l1_api.c **** 		uint8_t FilteredRangeStatus,
1900:Drivers/BSP/Components/vl53l1cb/modules/vl53l1_api.c **** 		VL53L1_range_data_t *presults_data)
1901:Drivers/BSP/Components/vl53l1cb/modules/vl53l1_api.c **** {
 688              		.loc 1 1901 1 is_stmt 1 view -0
 689              		.cfi_startproc
 690              		@ args = 0, pretend = 0, frame = 0
 691              		@ frame_needed = 0, uses_anonymous_args = 0
 692              		@ link register save eliminated.
1902:Drivers/BSP/Components/vl53l1cb/modules/vl53l1_api.c **** 	int16_t T_Wide = 150;
 693              		.loc 1 1902 2 view .LVU194
1903:Drivers/BSP/Components/vl53l1cb/modules/vl53l1_api.c **** 	int16_t SRL = 300;
 694              		.loc 1 1903 2 view .LVU195
1904:Drivers/BSP/Components/vl53l1cb/modules/vl53l1_api.c **** 	uint16_t SRAS = 30;
 695              		.loc 1 1904 2 view .LVU196
ARM GAS  C:\Temp\ccMpj0h9.s 			page 48


1905:Drivers/BSP/Components/vl53l1cb/modules/vl53l1_api.c **** 	FixPoint1616_t RAS;
 696              		.loc 1 1905 2 view .LVU197
1906:Drivers/BSP/Components/vl53l1cb/modules/vl53l1_api.c **** 	FixPoint1616_t SRQL;
 697              		.loc 1 1906 2 view .LVU198
1907:Drivers/BSP/Components/vl53l1cb/modules/vl53l1_api.c **** 	FixPoint1616_t GI =   7713587;
 698              		.loc 1 1907 2 view .LVU199
1908:Drivers/BSP/Components/vl53l1cb/modules/vl53l1_api.c **** 	FixPoint1616_t GGm =  3198157;
 699              		.loc 1 1908 2 view .LVU200
1909:Drivers/BSP/Components/vl53l1cb/modules/vl53l1_api.c **** 	FixPoint1616_t LRAP = 6554;
 700              		.loc 1 1909 2 view .LVU201
1910:Drivers/BSP/Components/vl53l1cb/modules/vl53l1_api.c **** 	FixPoint1616_t partial;
 701              		.loc 1 1910 2 view .LVU202
1911:Drivers/BSP/Components/vl53l1cb/modules/vl53l1_api.c **** 	uint8_t finalvalue;
 702              		.loc 1 1911 2 view .LVU203
1912:Drivers/BSP/Components/vl53l1cb/modules/vl53l1_api.c **** 	uint8_t returnvalue;
 703              		.loc 1 1912 2 view .LVU204
1913:Drivers/BSP/Components/vl53l1cb/modules/vl53l1_api.c **** 
1914:Drivers/BSP/Components/vl53l1cb/modules/vl53l1_api.c **** 	if (active_results == 0)
 704              		.loc 1 1914 2 view .LVU205
 705              		.loc 1 1914 5 is_stmt 0 view .LVU206
 706 0000 A0B3     		cbz	r0, .L63
1915:Drivers/BSP/Components/vl53l1cb/modules/vl53l1_api.c **** 		returnvalue = 0;
1916:Drivers/BSP/Components/vl53l1cb/modules/vl53l1_api.c **** 	else if (((presults_data->max_range_mm -
 707              		.loc 1 1916 7 is_stmt 1 view .LVU207
 708              		.loc 1 1916 26 is_stmt 0 view .LVU208
 709 0002 B2F94830 		ldrsh	r3, [r2, #72]
1917:Drivers/BSP/Components/vl53l1cb/modules/vl53l1_api.c **** 			presults_data->min_range_mm) >= T_Wide) ||
 710              		.loc 1 1917 17 view .LVU209
 711 0006 B2F94400 		ldrsh	r0, [r2, #68]
 712              	.LVL63:
1916:Drivers/BSP/Components/vl53l1cb/modules/vl53l1_api.c **** 			presults_data->min_range_mm) >= T_Wide) ||
 713              		.loc 1 1916 41 view .LVU210
 714 000a 1B1A     		subs	r3, r3, r0
1916:Drivers/BSP/Components/vl53l1cb/modules/vl53l1_api.c **** 			presults_data->min_range_mm) >= T_Wide) ||
 715              		.loc 1 1916 10 view .LVU211
 716 000c 952B     		cmp	r3, #149
 717 000e 28DC     		bgt	.L66
 718              		.loc 1 1917 44 view .LVU212
 719 0010 0729     		cmp	r1, #7
 720 0012 28D0     		beq	.L67
1918:Drivers/BSP/Components/vl53l1cb/modules/vl53l1_api.c **** 		(FilteredRangeStatus == VL53L1_DEVICEERROR_PHASECONSISTENCY))
1919:Drivers/BSP/Components/vl53l1cb/modules/vl53l1_api.c **** 		returnvalue = 50;
1920:Drivers/BSP/Components/vl53l1cb/modules/vl53l1_api.c **** 	else {
1921:Drivers/BSP/Components/vl53l1cb/modules/vl53l1_api.c **** 		if (presults_data->median_range_mm < SRL)
 721              		.loc 1 1921 3 is_stmt 1 view .LVU213
 722              		.loc 1 1921 20 is_stmt 0 view .LVU214
 723 0014 B2F94630 		ldrsh	r3, [r2, #70]
 724              		.loc 1 1921 6 view .LVU215
 725 0018 B3F5967F 		cmp	r3, #300
 726 001c 07DB     		blt	.L68
1922:Drivers/BSP/Components/vl53l1cb/modules/vl53l1_api.c **** 			RAS = SRAS * 65536;
1923:Drivers/BSP/Components/vl53l1cb/modules/vl53l1_api.c **** 		else
1924:Drivers/BSP/Components/vl53l1cb/modules/vl53l1_api.c **** 			RAS = LRAP * presults_data->median_range_mm;
 727              		.loc 1 1924 4 is_stmt 1 view .LVU216
 728              		.loc 1 1924 8 is_stmt 0 view .LVU217
 729 001e 41F69A11 		movw	r1, #6554
 730              	.LVL64:
ARM GAS  C:\Temp\ccMpj0h9.s 			page 49


 731              		.loc 1 1924 8 view .LVU218
 732 0022 01FB03F3 		mul	r3, r1, r3
 733              	.LVL65:
1925:Drivers/BSP/Components/vl53l1cb/modules/vl53l1_api.c **** 
1926:Drivers/BSP/Components/vl53l1cb/modules/vl53l1_api.c **** 
1927:Drivers/BSP/Components/vl53l1cb/modules/vl53l1_api.c **** 		if (RAS != 0) {
 734              		.loc 1 1927 3 is_stmt 1 view .LVU219
 735              		.loc 1 1927 6 is_stmt 0 view .LVU220
 736 0026 23B9     		cbnz	r3, .L64
1928:Drivers/BSP/Components/vl53l1cb/modules/vl53l1_api.c **** 			partial = (GGm * presults_data->VL53L1_p_005);
1929:Drivers/BSP/Components/vl53l1cb/modules/vl53l1_api.c **** 			partial = partial + (RAS >> 1);
1930:Drivers/BSP/Components/vl53l1cb/modules/vl53l1_api.c **** 			partial = partial / RAS;
1931:Drivers/BSP/Components/vl53l1cb/modules/vl53l1_api.c **** 			partial = partial * 65536;
1932:Drivers/BSP/Components/vl53l1cb/modules/vl53l1_api.c **** 			if (partial <= GI)
1933:Drivers/BSP/Components/vl53l1cb/modules/vl53l1_api.c **** 				SRQL = GI - partial;
1934:Drivers/BSP/Components/vl53l1cb/modules/vl53l1_api.c **** 			else
1935:Drivers/BSP/Components/vl53l1cb/modules/vl53l1_api.c **** 				SRQL = 50 * 65536;
1936:Drivers/BSP/Components/vl53l1cb/modules/vl53l1_api.c **** 		} else
1937:Drivers/BSP/Components/vl53l1cb/modules/vl53l1_api.c **** 			SRQL = 100 * 65536;
 737              		.loc 1 1937 9 view .LVU221
 738 0028 4FF4C800 		mov	r0, #6553600
 739 002c 0EE0     		b	.L65
 740              	.LVL66:
 741              	.L68:
1922:Drivers/BSP/Components/vl53l1cb/modules/vl53l1_api.c **** 		else
 742              		.loc 1 1922 8 view .LVU222
 743 002e 4FF4F013 		mov	r3, #1966080
 744              	.LVL67:
 745              	.L64:
1928:Drivers/BSP/Components/vl53l1cb/modules/vl53l1_api.c **** 			partial = (GGm * presults_data->VL53L1_p_005);
 746              		.loc 1 1928 4 is_stmt 1 view .LVU223
1928:Drivers/BSP/Components/vl53l1cb/modules/vl53l1_api.c **** 			partial = (GGm * presults_data->VL53L1_p_005);
 747              		.loc 1 1928 34 is_stmt 0 view .LVU224
 748 0032 918F     		ldrh	r1, [r2, #60]
 749              	.LVL68:
1929:Drivers/BSP/Components/vl53l1cb/modules/vl53l1_api.c **** 			partial = partial / RAS;
 750              		.loc 1 1929 4 is_stmt 1 view .LVU225
1929:Drivers/BSP/Components/vl53l1cb/modules/vl53l1_api.c **** 			partial = partial / RAS;
 751              		.loc 1 1929 29 is_stmt 0 view .LVU226
 752 0034 5A08     		lsrs	r2, r3, #1
 753              	.LVL69:
1929:Drivers/BSP/Components/vl53l1cb/modules/vl53l1_api.c **** 			partial = partial / RAS;
 754              		.loc 1 1929 12 view .LVU227
 755 0036 0E48     		ldr	r0, .L72
 756 0038 00FB0122 		mla	r2, r0, r1, r2
 757              	.LVL70:
1930:Drivers/BSP/Components/vl53l1cb/modules/vl53l1_api.c **** 			partial = partial * 65536;
 758              		.loc 1 1930 4 is_stmt 1 view .LVU228
1930:Drivers/BSP/Components/vl53l1cb/modules/vl53l1_api.c **** 			partial = partial * 65536;
 759              		.loc 1 1930 12 is_stmt 0 view .LVU229
 760 003c B2FBF3F3 		udiv	r3, r2, r3
 761              	.LVL71:
1931:Drivers/BSP/Components/vl53l1cb/modules/vl53l1_api.c **** 			if (partial <= GI)
 762              		.loc 1 1931 4 is_stmt 1 view .LVU230
1931:Drivers/BSP/Components/vl53l1cb/modules/vl53l1_api.c **** 			if (partial <= GI)
 763              		.loc 1 1931 12 is_stmt 0 view .LVU231
 764 0040 1904     		lsls	r1, r3, #16
ARM GAS  C:\Temp\ccMpj0h9.s 			page 50


 765              	.LVL72:
1932:Drivers/BSP/Components/vl53l1cb/modules/vl53l1_api.c **** 				SRQL = GI - partial;
 766              		.loc 1 1932 4 is_stmt 1 view .LVU232
1932:Drivers/BSP/Components/vl53l1cb/modules/vl53l1_api.c **** 				SRQL = GI - partial;
 767              		.loc 1 1932 7 is_stmt 0 view .LVU233
 768 0042 0C4A     		ldr	r2, .L72+4
 769 0044 B2EB034F 		cmp	r2, r3, lsl #16
 770 0048 08D3     		bcc	.L70
1933:Drivers/BSP/Components/vl53l1cb/modules/vl53l1_api.c **** 			else
 771              		.loc 1 1933 5 is_stmt 1 view .LVU234
1933:Drivers/BSP/Components/vl53l1cb/modules/vl53l1_api.c **** 			else
 772              		.loc 1 1933 10 is_stmt 0 view .LVU235
 773 004a 501A     		subs	r0, r2, r1
 774              	.LVL73:
 775              	.L65:
1938:Drivers/BSP/Components/vl53l1cb/modules/vl53l1_api.c **** 
1939:Drivers/BSP/Components/vl53l1cb/modules/vl53l1_api.c **** 		finalvalue = (uint8_t)(SRQL >> 16);
 776              		.loc 1 1939 3 is_stmt 1 view .LVU236
 777              		.loc 1 1939 14 is_stmt 0 view .LVU237
 778 004c C0F30740 		ubfx	r0, r0, #16, #8
 779              	.LVL74:
1940:Drivers/BSP/Components/vl53l1cb/modules/vl53l1_api.c **** 		returnvalue = MAX(50, MIN(100, finalvalue));
 780              		.loc 1 1940 3 is_stmt 1 view .LVU238
 781              		.loc 1 1940 15 is_stmt 0 view .LVU239
 782 0050 3228     		cmp	r0, #50
 783 0052 0AD9     		bls	.L71
 784              		.loc 1 1940 15 discriminator 1 view .LVU240
 785 0054 6428     		cmp	r0, #100
 786 0056 28BF     		it	cs
 787 0058 6420     		movcs	r0, #100
 788              	.LVL75:
 789              		.loc 1 1940 15 discriminator 1 view .LVU241
 790 005a 7047     		bx	lr
 791              	.LVL76:
 792              	.L70:
1935:Drivers/BSP/Components/vl53l1cb/modules/vl53l1_api.c **** 		} else
 793              		.loc 1 1935 10 view .LVU242
 794 005c 4FF44810 		mov	r0, #3276800
 795 0060 F4E7     		b	.L65
 796              	.LVL77:
 797              	.L66:
1919:Drivers/BSP/Components/vl53l1cb/modules/vl53l1_api.c **** 	else {
 798              		.loc 1 1919 15 view .LVU243
 799 0062 3220     		movs	r0, #50
 800 0064 7047     		bx	lr
 801              	.L67:
 802 0066 3220     		movs	r0, #50
 803 0068 7047     		bx	lr
 804              	.LVL78:
 805              	.L71:
 806              		.loc 1 1940 15 view .LVU244
 807 006a 3220     		movs	r0, #50
 808              	.LVL79:
 809              	.L63:
1941:Drivers/BSP/Components/vl53l1cb/modules/vl53l1_api.c **** 	}
1942:Drivers/BSP/Components/vl53l1cb/modules/vl53l1_api.c **** 
1943:Drivers/BSP/Components/vl53l1cb/modules/vl53l1_api.c **** 	return returnvalue;
ARM GAS  C:\Temp\ccMpj0h9.s 			page 51


 810              		.loc 1 1943 2 is_stmt 1 view .LVU245
1944:Drivers/BSP/Components/vl53l1cb/modules/vl53l1_api.c **** }
 811              		.loc 1 1944 1 is_stmt 0 view .LVU246
 812 006c 7047     		bx	lr
 813              	.L73:
 814 006e 00BF     		.align	2
 815              	.L72:
 816 0070 CDCC3000 		.word	3198157
 817 0074 33B37500 		.word	7713587
 818              		.cfi_endproc
 819              	.LFE58:
 821              		.section	.text.ConvertStatusLite,"ax",%progbits
 822              		.align	1
 823              		.syntax unified
 824              		.thumb
 825              		.thumb_func
 827              	ConvertStatusLite:
 828              	.LVL80:
 829              	.LFB59:
1945:Drivers/BSP/Components/vl53l1cb/modules/vl53l1_api.c **** 
1946:Drivers/BSP/Components/vl53l1cb/modules/vl53l1_api.c **** 
1947:Drivers/BSP/Components/vl53l1cb/modules/vl53l1_api.c **** static uint8_t ConvertStatusLite(uint8_t FilteredRangeStatus)
1948:Drivers/BSP/Components/vl53l1cb/modules/vl53l1_api.c **** {
 830              		.loc 1 1948 1 is_stmt 1 view -0
 831              		.cfi_startproc
 832              		@ args = 0, pretend = 0, frame = 0
 833              		@ frame_needed = 0, uses_anonymous_args = 0
 834              		@ link register save eliminated.
1949:Drivers/BSP/Components/vl53l1cb/modules/vl53l1_api.c **** 	uint8_t RangeStatus;
 835              		.loc 1 1949 2 view .LVU248
1950:Drivers/BSP/Components/vl53l1cb/modules/vl53l1_api.c **** 
1951:Drivers/BSP/Components/vl53l1cb/modules/vl53l1_api.c **** 	switch (FilteredRangeStatus) {
 836              		.loc 1 1951 2 view .LVU249
 837 0000 031F     		subs	r3, r0, #4
 838 0002 0F2B     		cmp	r3, #15
 839 0004 17D8     		bhi	.L75
 840 0006 DFE803F0 		tbb	[pc, r3]
 841              	.L77:
 842 000a 0C       		.byte	(.L85-.L77)/2
 843 000b 0A       		.byte	(.L84-.L77)/2
 844 000c 0E       		.byte	(.L83-.L77)/2
 845 000d 19       		.byte	(.L76-.L77)/2
 846 000e 12       		.byte	(.L81-.L77)/2
 847 000f 14       		.byte	(.L80-.L77)/2
 848 0010 16       		.byte	(.L75-.L77)/2
 849 0011 16       		.byte	(.L75-.L77)/2
 850 0012 10       		.byte	(.L79-.L77)/2
 851 0013 16       		.byte	(.L75-.L77)/2
 852 0014 16       		.byte	(.L75-.L77)/2
 853 0015 16       		.byte	(.L75-.L77)/2
 854 0016 16       		.byte	(.L75-.L77)/2
 855 0017 16       		.byte	(.L75-.L77)/2
 856 0018 08       		.byte	(.L78-.L77)/2
 857 0019 18       		.byte	(.L86-.L77)/2
 858              		.p2align 1
 859              	.L78:
 860 001a 0A20     		movs	r0, #10
ARM GAS  C:\Temp\ccMpj0h9.s 			page 52


 861              	.LVL81:
 862              		.loc 1 1951 2 is_stmt 0 view .LVU250
 863 001c 7047     		bx	lr
 864              	.LVL82:
 865              	.L84:
1952:Drivers/BSP/Components/vl53l1cb/modules/vl53l1_api.c **** 	case VL53L1_DEVICEERROR_GPHSTREAMCOUNT0READY:
1953:Drivers/BSP/Components/vl53l1cb/modules/vl53l1_api.c **** 		RangeStatus = VL53L1_RANGESTATUS_SYNCRONISATION_INT;
1954:Drivers/BSP/Components/vl53l1cb/modules/vl53l1_api.c **** 		break;
1955:Drivers/BSP/Components/vl53l1cb/modules/vl53l1_api.c **** 	case VL53L1_DEVICEERROR_RANGECOMPLETE_NO_WRAP_CHECK:
1956:Drivers/BSP/Components/vl53l1cb/modules/vl53l1_api.c **** 		RangeStatus = VL53L1_RANGESTATUS_RANGE_VALID_NO_WRAP_CHECK_FAIL;
1957:Drivers/BSP/Components/vl53l1cb/modules/vl53l1_api.c **** 		break;
1958:Drivers/BSP/Components/vl53l1cb/modules/vl53l1_api.c **** 	case VL53L1_DEVICEERROR_RANGEPHASECHECK:
1959:Drivers/BSP/Components/vl53l1cb/modules/vl53l1_api.c **** 		RangeStatus = VL53L1_RANGESTATUS_OUTOFBOUNDS_FAIL;
 866              		.loc 1 1959 3 is_stmt 1 view .LVU251
1960:Drivers/BSP/Components/vl53l1cb/modules/vl53l1_api.c **** 		break;
 867              		.loc 1 1960 3 view .LVU252
1959:Drivers/BSP/Components/vl53l1cb/modules/vl53l1_api.c **** 		break;
 868              		.loc 1 1959 15 is_stmt 0 view .LVU253
 869 001e 0420     		movs	r0, #4
 870              	.LVL83:
 871              		.loc 1 1960 3 view .LVU254
 872 0020 7047     		bx	lr
 873              	.LVL84:
 874              	.L85:
1961:Drivers/BSP/Components/vl53l1cb/modules/vl53l1_api.c **** 	case VL53L1_DEVICEERROR_MSRCNOTARGET:
1962:Drivers/BSP/Components/vl53l1cb/modules/vl53l1_api.c **** 		RangeStatus = VL53L1_RANGESTATUS_SIGNAL_FAIL;
 875              		.loc 1 1962 3 is_stmt 1 view .LVU255
1963:Drivers/BSP/Components/vl53l1cb/modules/vl53l1_api.c **** 		break;
 876              		.loc 1 1963 3 view .LVU256
1962:Drivers/BSP/Components/vl53l1cb/modules/vl53l1_api.c **** 		break;
 877              		.loc 1 1962 15 is_stmt 0 view .LVU257
 878 0022 0220     		movs	r0, #2
 879              	.LVL85:
 880              		.loc 1 1963 3 view .LVU258
 881 0024 7047     		bx	lr
 882              	.LVL86:
 883              	.L83:
1964:Drivers/BSP/Components/vl53l1cb/modules/vl53l1_api.c **** 	case VL53L1_DEVICEERROR_SIGMATHRESHOLDCHECK:
1965:Drivers/BSP/Components/vl53l1cb/modules/vl53l1_api.c **** 		RangeStatus = VL53L1_RANGESTATUS_SIGMA_FAIL;
 884              		.loc 1 1965 3 is_stmt 1 view .LVU259
1966:Drivers/BSP/Components/vl53l1cb/modules/vl53l1_api.c **** 		break;
 885              		.loc 1 1966 3 view .LVU260
1965:Drivers/BSP/Components/vl53l1cb/modules/vl53l1_api.c **** 		break;
 886              		.loc 1 1965 15 is_stmt 0 view .LVU261
 887 0026 0120     		movs	r0, #1
 888              	.LVL87:
 889              		.loc 1 1966 3 view .LVU262
 890 0028 7047     		bx	lr
 891              	.LVL88:
 892              	.L79:
1967:Drivers/BSP/Components/vl53l1cb/modules/vl53l1_api.c **** 	case VL53L1_DEVICEERROR_PHASECONSISTENCY:
1968:Drivers/BSP/Components/vl53l1cb/modules/vl53l1_api.c **** 		RangeStatus = VL53L1_RANGESTATUS_WRAP_TARGET_FAIL;
1969:Drivers/BSP/Components/vl53l1cb/modules/vl53l1_api.c **** 		break;
1970:Drivers/BSP/Components/vl53l1cb/modules/vl53l1_api.c **** 	case VL53L1_DEVICEERROR_RANGEIGNORETHRESHOLD:
1971:Drivers/BSP/Components/vl53l1cb/modules/vl53l1_api.c **** 		RangeStatus = VL53L1_RANGESTATUS_XTALK_SIGNAL_FAIL;
 893              		.loc 1 1971 3 is_stmt 1 view .LVU263
1972:Drivers/BSP/Components/vl53l1cb/modules/vl53l1_api.c **** 		break;
ARM GAS  C:\Temp\ccMpj0h9.s 			page 53


 894              		.loc 1 1972 3 view .LVU264
1971:Drivers/BSP/Components/vl53l1cb/modules/vl53l1_api.c **** 		break;
 895              		.loc 1 1971 15 is_stmt 0 view .LVU265
 896 002a 0920     		movs	r0, #9
 897              	.LVL89:
 898              		.loc 1 1972 3 view .LVU266
 899 002c 7047     		bx	lr
 900              	.LVL90:
 901              	.L81:
1973:Drivers/BSP/Components/vl53l1cb/modules/vl53l1_api.c **** 	case VL53L1_DEVICEERROR_MINCLIP:
1974:Drivers/BSP/Components/vl53l1cb/modules/vl53l1_api.c **** 		RangeStatus = VL53L1_RANGESTATUS_RANGE_VALID_MIN_RANGE_CLIPPED;
 902              		.loc 1 1974 3 is_stmt 1 view .LVU267
1975:Drivers/BSP/Components/vl53l1cb/modules/vl53l1_api.c **** 		break;
 903              		.loc 1 1975 3 view .LVU268
1974:Drivers/BSP/Components/vl53l1cb/modules/vl53l1_api.c **** 		break;
 904              		.loc 1 1974 15 is_stmt 0 view .LVU269
 905 002e 0320     		movs	r0, #3
 906              	.LVL91:
 907              		.loc 1 1975 3 view .LVU270
 908 0030 7047     		bx	lr
 909              	.LVL92:
 910              	.L80:
1976:Drivers/BSP/Components/vl53l1cb/modules/vl53l1_api.c **** 	case VL53L1_DEVICEERROR_RANGECOMPLETE:
1977:Drivers/BSP/Components/vl53l1cb/modules/vl53l1_api.c **** 		RangeStatus = VL53L1_RANGESTATUS_RANGE_VALID;
 911              		.loc 1 1977 3 is_stmt 1 view .LVU271
1978:Drivers/BSP/Components/vl53l1cb/modules/vl53l1_api.c **** 		break;
 912              		.loc 1 1978 3 view .LVU272
1977:Drivers/BSP/Components/vl53l1cb/modules/vl53l1_api.c **** 		break;
 913              		.loc 1 1977 15 is_stmt 0 view .LVU273
 914 0032 0020     		movs	r0, #0
 915              	.LVL93:
 916              		.loc 1 1978 3 view .LVU274
 917 0034 7047     		bx	lr
 918              	.LVL94:
 919              	.L75:
1979:Drivers/BSP/Components/vl53l1cb/modules/vl53l1_api.c **** 	default:
1980:Drivers/BSP/Components/vl53l1cb/modules/vl53l1_api.c **** 		RangeStatus = VL53L1_RANGESTATUS_NONE;
 920              		.loc 1 1980 3 is_stmt 1 view .LVU275
 921              		.loc 1 1980 15 is_stmt 0 view .LVU276
 922 0036 FF20     		movs	r0, #255
 923              	.LVL95:
 924              		.loc 1 1980 15 view .LVU277
 925 0038 7047     		bx	lr
 926              	.LVL96:
 927              	.L86:
1956:Drivers/BSP/Components/vl53l1cb/modules/vl53l1_api.c **** 		break;
 928              		.loc 1 1956 15 view .LVU278
 929 003a 0620     		movs	r0, #6
 930              	.LVL97:
 931              	.L76:
1981:Drivers/BSP/Components/vl53l1cb/modules/vl53l1_api.c **** 	}
1982:Drivers/BSP/Components/vl53l1cb/modules/vl53l1_api.c **** 
1983:Drivers/BSP/Components/vl53l1cb/modules/vl53l1_api.c **** 	return RangeStatus;
 932              		.loc 1 1983 2 is_stmt 1 view .LVU279
1984:Drivers/BSP/Components/vl53l1cb/modules/vl53l1_api.c **** }
 933              		.loc 1 1984 1 is_stmt 0 view .LVU280
 934 003c 7047     		bx	lr
ARM GAS  C:\Temp\ccMpj0h9.s 			page 54


 935              		.cfi_endproc
 936              	.LFE59:
 938              		.section	.text.ConvertStatusHisto,"ax",%progbits
 939              		.align	1
 940              		.syntax unified
 941              		.thumb
 942              		.thumb_func
 944              	ConvertStatusHisto:
 945              	.LVL98:
 946              	.LFB60:
1985:Drivers/BSP/Components/vl53l1cb/modules/vl53l1_api.c **** 
1986:Drivers/BSP/Components/vl53l1cb/modules/vl53l1_api.c **** 
1987:Drivers/BSP/Components/vl53l1cb/modules/vl53l1_api.c **** static uint8_t ConvertStatusHisto(uint8_t FilteredRangeStatus)
1988:Drivers/BSP/Components/vl53l1cb/modules/vl53l1_api.c **** {
 947              		.loc 1 1988 1 is_stmt 1 view -0
 948              		.cfi_startproc
 949              		@ args = 0, pretend = 0, frame = 0
 950              		@ frame_needed = 0, uses_anonymous_args = 0
 951              		@ link register save eliminated.
1989:Drivers/BSP/Components/vl53l1cb/modules/vl53l1_api.c **** 	uint8_t RangeStatus;
 952              		.loc 1 1989 2 view .LVU282
1990:Drivers/BSP/Components/vl53l1cb/modules/vl53l1_api.c **** 
1991:Drivers/BSP/Components/vl53l1cb/modules/vl53l1_api.c **** 	switch (FilteredRangeStatus) {
 953              		.loc 1 1991 2 view .LVU283
 954 0000 431F     		subs	r3, r0, #5
 955 0002 122B     		cmp	r3, #18
 956 0004 17D8     		bhi	.L88
 957 0006 DFE803F0 		tbb	[pc, r3]
 958              	.L90:
 959 000a 0A       		.byte	(.L97-.L90)/2
 960 000b 18       		.byte	(.L98-.L90)/2
 961 000c 19       		.byte	(.L96-.L90)/2
 962 000d 16       		.byte	(.L88-.L90)/2
 963 000e 14       		.byte	(.L94-.L90)/2
 964 000f 16       		.byte	(.L88-.L90)/2
 965 0010 16       		.byte	(.L88-.L90)/2
 966 0011 16       		.byte	(.L88-.L90)/2
 967 0012 16       		.byte	(.L88-.L90)/2
 968 0013 16       		.byte	(.L88-.L90)/2
 969 0014 16       		.byte	(.L88-.L90)/2
 970 0015 16       		.byte	(.L88-.L90)/2
 971 0016 16       		.byte	(.L88-.L90)/2
 972 0017 16       		.byte	(.L88-.L90)/2
 973 0018 0C       		.byte	(.L93-.L90)/2
 974 0019 10       		.byte	(.L92-.L90)/2
 975 001a 16       		.byte	(.L88-.L90)/2
 976 001b 12       		.byte	(.L91-.L90)/2
 977 001c 0E       		.byte	(.L89-.L90)/2
 978 001d 00       		.p2align 1
 979              	.L97:
 980 001e 0420     		movs	r0, #4
 981              	.LVL99:
 982              		.loc 1 1991 2 is_stmt 0 view .LVU284
 983 0020 7047     		bx	lr
 984              	.LVL100:
 985              	.L93:
1992:Drivers/BSP/Components/vl53l1cb/modules/vl53l1_api.c **** 	case VL53L1_DEVICEERROR_RANGEPHASECHECK:
ARM GAS  C:\Temp\ccMpj0h9.s 			page 55


1993:Drivers/BSP/Components/vl53l1cb/modules/vl53l1_api.c **** 		RangeStatus = VL53L1_RANGESTATUS_OUTOFBOUNDS_FAIL;
1994:Drivers/BSP/Components/vl53l1cb/modules/vl53l1_api.c **** 		break;
1995:Drivers/BSP/Components/vl53l1cb/modules/vl53l1_api.c **** 	case VL53L1_DEVICEERROR_SIGMATHRESHOLDCHECK:
1996:Drivers/BSP/Components/vl53l1cb/modules/vl53l1_api.c **** 		RangeStatus = VL53L1_RANGESTATUS_SIGMA_FAIL;
1997:Drivers/BSP/Components/vl53l1cb/modules/vl53l1_api.c **** 		break;
1998:Drivers/BSP/Components/vl53l1cb/modules/vl53l1_api.c **** 	case VL53L1_DEVICEERROR_RANGECOMPLETE_NO_WRAP_CHECK:
1999:Drivers/BSP/Components/vl53l1cb/modules/vl53l1_api.c **** 		RangeStatus = VL53L1_RANGESTATUS_RANGE_VALID_NO_WRAP_CHECK_FAIL;
 986              		.loc 1 1999 3 is_stmt 1 view .LVU285
2000:Drivers/BSP/Components/vl53l1cb/modules/vl53l1_api.c **** 		break;
 987              		.loc 1 2000 3 view .LVU286
1999:Drivers/BSP/Components/vl53l1cb/modules/vl53l1_api.c **** 		break;
 988              		.loc 1 1999 15 is_stmt 0 view .LVU287
 989 0022 0620     		movs	r0, #6
 990              	.LVL101:
 991              		.loc 1 2000 3 view .LVU288
 992 0024 7047     		bx	lr
 993              	.LVL102:
 994              	.L89:
2001:Drivers/BSP/Components/vl53l1cb/modules/vl53l1_api.c **** 	case VL53L1_DEVICEERROR_PHASECONSISTENCY:
2002:Drivers/BSP/Components/vl53l1cb/modules/vl53l1_api.c **** 		RangeStatus = VL53L1_RANGESTATUS_WRAP_TARGET_FAIL;
2003:Drivers/BSP/Components/vl53l1cb/modules/vl53l1_api.c **** 		break;
2004:Drivers/BSP/Components/vl53l1cb/modules/vl53l1_api.c **** 	case VL53L1_DEVICEERROR_PREV_RANGE_NO_TARGETS:
2005:Drivers/BSP/Components/vl53l1cb/modules/vl53l1_api.c **** 		RangeStatus = VL53L1_RANGESTATUS_TARGET_PRESENT_LACK_OF_SIGNAL;
 995              		.loc 1 2005 3 is_stmt 1 view .LVU289
2006:Drivers/BSP/Components/vl53l1cb/modules/vl53l1_api.c **** 		break;
 996              		.loc 1 2006 3 view .LVU290
2005:Drivers/BSP/Components/vl53l1cb/modules/vl53l1_api.c **** 		break;
 997              		.loc 1 2005 15 is_stmt 0 view .LVU291
 998 0026 0C20     		movs	r0, #12
 999              	.LVL103:
 1000              		.loc 1 2006 3 view .LVU292
 1001 0028 7047     		bx	lr
 1002              	.LVL104:
 1003              	.L92:
2007:Drivers/BSP/Components/vl53l1cb/modules/vl53l1_api.c **** 	case VL53L1_DEVICEERROR_EVENTCONSISTENCY:
2008:Drivers/BSP/Components/vl53l1cb/modules/vl53l1_api.c **** 		RangeStatus = VL53L1_RANGESTATUS_WRAP_TARGET_FAIL;
 1004              		.loc 1 2008 3 is_stmt 1 view .LVU293
2009:Drivers/BSP/Components/vl53l1cb/modules/vl53l1_api.c **** 		break;
 1005              		.loc 1 2009 3 view .LVU294
2008:Drivers/BSP/Components/vl53l1cb/modules/vl53l1_api.c **** 		break;
 1006              		.loc 1 2008 15 is_stmt 0 view .LVU295
 1007 002a 0720     		movs	r0, #7
 1008              	.LVL105:
 1009              		.loc 1 2009 3 view .LVU296
 1010 002c 7047     		bx	lr
 1011              	.LVL106:
 1012              	.L91:
2010:Drivers/BSP/Components/vl53l1cb/modules/vl53l1_api.c **** 	case VL53L1_DEVICEERROR_RANGECOMPLETE_MERGED_PULSE:
2011:Drivers/BSP/Components/vl53l1cb/modules/vl53l1_api.c **** 		RangeStatus = VL53L1_RANGESTATUS_RANGE_VALID_MERGED_PULSE;
 1013              		.loc 1 2011 3 is_stmt 1 view .LVU297
2012:Drivers/BSP/Components/vl53l1cb/modules/vl53l1_api.c **** 		break;
 1014              		.loc 1 2012 3 view .LVU298
2011:Drivers/BSP/Components/vl53l1cb/modules/vl53l1_api.c **** 		break;
 1015              		.loc 1 2011 15 is_stmt 0 view .LVU299
 1016 002e 0B20     		movs	r0, #11
 1017              	.LVL107:
 1018              		.loc 1 2012 3 view .LVU300
ARM GAS  C:\Temp\ccMpj0h9.s 			page 56


 1019 0030 7047     		bx	lr
 1020              	.LVL108:
 1021              	.L94:
2013:Drivers/BSP/Components/vl53l1cb/modules/vl53l1_api.c **** 	case VL53L1_DEVICEERROR_RANGECOMPLETE:
2014:Drivers/BSP/Components/vl53l1cb/modules/vl53l1_api.c **** 		RangeStatus = VL53L1_RANGESTATUS_RANGE_VALID;
 1022              		.loc 1 2014 3 is_stmt 1 view .LVU301
2015:Drivers/BSP/Components/vl53l1cb/modules/vl53l1_api.c **** 		break;
 1023              		.loc 1 2015 3 view .LVU302
2014:Drivers/BSP/Components/vl53l1cb/modules/vl53l1_api.c **** 		break;
 1024              		.loc 1 2014 15 is_stmt 0 view .LVU303
 1025 0032 0020     		movs	r0, #0
 1026              	.LVL109:
 1027              		.loc 1 2015 3 view .LVU304
 1028 0034 7047     		bx	lr
 1029              	.LVL110:
 1030              	.L88:
2016:Drivers/BSP/Components/vl53l1cb/modules/vl53l1_api.c **** 	default:
2017:Drivers/BSP/Components/vl53l1cb/modules/vl53l1_api.c **** 		RangeStatus = VL53L1_RANGESTATUS_NONE;
 1031              		.loc 1 2017 3 is_stmt 1 view .LVU305
 1032              		.loc 1 2017 15 is_stmt 0 view .LVU306
 1033 0036 FF20     		movs	r0, #255
 1034              	.LVL111:
 1035              		.loc 1 2017 15 view .LVU307
 1036 0038 7047     		bx	lr
 1037              	.LVL112:
 1038              	.L98:
1996:Drivers/BSP/Components/vl53l1cb/modules/vl53l1_api.c **** 		break;
 1039              		.loc 1 1996 15 view .LVU308
 1040 003a 0120     		movs	r0, #1
 1041              	.LVL113:
 1042              	.L96:
2018:Drivers/BSP/Components/vl53l1cb/modules/vl53l1_api.c **** 	}
2019:Drivers/BSP/Components/vl53l1cb/modules/vl53l1_api.c **** 
2020:Drivers/BSP/Components/vl53l1cb/modules/vl53l1_api.c **** 	return RangeStatus;
 1043              		.loc 1 2020 2 is_stmt 1 view .LVU309
2021:Drivers/BSP/Components/vl53l1cb/modules/vl53l1_api.c **** }
 1044              		.loc 1 2021 1 is_stmt 0 view .LVU310
 1045 003c 7047     		bx	lr
 1046              		.cfi_endproc
 1047              	.LFE60:
 1049              		.section	.text.GetOutputDataIndex,"ax",%progbits
 1050              		.align	1
 1051              		.syntax unified
 1052              		.thumb
 1053              		.thumb_func
 1055              	GetOutputDataIndex:
 1056              	.LVL114:
 1057              	.LFB63:
2022:Drivers/BSP/Components/vl53l1cb/modules/vl53l1_api.c **** 
2023:Drivers/BSP/Components/vl53l1cb/modules/vl53l1_api.c **** static VL53L1_Error SetSimpleData(VL53L1_DEV Dev,
2024:Drivers/BSP/Components/vl53l1cb/modules/vl53l1_api.c **** 	uint8_t active_results, uint8_t device_status,
2025:Drivers/BSP/Components/vl53l1cb/modules/vl53l1_api.c **** 	VL53L1_range_data_t *presults_data,
2026:Drivers/BSP/Components/vl53l1cb/modules/vl53l1_api.c **** 	VL53L1_RangingMeasurementData_t *pRangeData)
2027:Drivers/BSP/Components/vl53l1cb/modules/vl53l1_api.c **** {
2028:Drivers/BSP/Components/vl53l1cb/modules/vl53l1_api.c **** 	VL53L1_Error Status = VL53L1_ERROR_NONE;
2029:Drivers/BSP/Components/vl53l1cb/modules/vl53l1_api.c **** 	uint8_t FilteredRangeStatus;
2030:Drivers/BSP/Components/vl53l1cb/modules/vl53l1_api.c **** 	uint8_t SigmaLimitflag;
ARM GAS  C:\Temp\ccMpj0h9.s 			page 57


2031:Drivers/BSP/Components/vl53l1cb/modules/vl53l1_api.c **** 	uint8_t SignalLimitflag;
2032:Drivers/BSP/Components/vl53l1cb/modules/vl53l1_api.c **** 	uint8_t Temp8Enable;
2033:Drivers/BSP/Components/vl53l1cb/modules/vl53l1_api.c **** 	uint8_t Temp8;
2034:Drivers/BSP/Components/vl53l1cb/modules/vl53l1_api.c **** 	FixPoint1616_t AmbientRate;
2035:Drivers/BSP/Components/vl53l1cb/modules/vl53l1_api.c **** 	FixPoint1616_t SignalRate;
2036:Drivers/BSP/Components/vl53l1cb/modules/vl53l1_api.c **** 	FixPoint1616_t TempFix1616;
2037:Drivers/BSP/Components/vl53l1cb/modules/vl53l1_api.c **** 	FixPoint1616_t LimitCheckValue;
2038:Drivers/BSP/Components/vl53l1cb/modules/vl53l1_api.c **** 	VL53L1_PresetModes PresetMode;
2039:Drivers/BSP/Components/vl53l1cb/modules/vl53l1_api.c **** 	int16_t Range;
2040:Drivers/BSP/Components/vl53l1cb/modules/vl53l1_api.c **** 
2041:Drivers/BSP/Components/vl53l1cb/modules/vl53l1_api.c **** 	pRangeData->TimeStamp = presults_data->time_stamp;
2042:Drivers/BSP/Components/vl53l1cb/modules/vl53l1_api.c **** 
2043:Drivers/BSP/Components/vl53l1cb/modules/vl53l1_api.c **** 	FilteredRangeStatus = presults_data->range_status & 0x1F;
2044:Drivers/BSP/Components/vl53l1cb/modules/vl53l1_api.c **** 
2045:Drivers/BSP/Components/vl53l1cb/modules/vl53l1_api.c **** 	pRangeData->RangeQualityLevel = ComputeRQL(active_results,
2046:Drivers/BSP/Components/vl53l1cb/modules/vl53l1_api.c **** 					FilteredRangeStatus,
2047:Drivers/BSP/Components/vl53l1cb/modules/vl53l1_api.c **** 					presults_data);
2048:Drivers/BSP/Components/vl53l1cb/modules/vl53l1_api.c **** 
2049:Drivers/BSP/Components/vl53l1cb/modules/vl53l1_api.c **** 	SignalRate = VL53L1_FIXPOINT97TOFIXPOINT1616(
2050:Drivers/BSP/Components/vl53l1cb/modules/vl53l1_api.c **** 		presults_data->peak_signal_count_rate_mcps);
2051:Drivers/BSP/Components/vl53l1cb/modules/vl53l1_api.c **** 	pRangeData->SignalRateRtnMegaCps
2052:Drivers/BSP/Components/vl53l1cb/modules/vl53l1_api.c **** 		= SignalRate;
2053:Drivers/BSP/Components/vl53l1cb/modules/vl53l1_api.c **** 
2054:Drivers/BSP/Components/vl53l1cb/modules/vl53l1_api.c **** 	AmbientRate = VL53L1_FIXPOINT97TOFIXPOINT1616(
2055:Drivers/BSP/Components/vl53l1cb/modules/vl53l1_api.c **** 		presults_data->ambient_count_rate_mcps);
2056:Drivers/BSP/Components/vl53l1cb/modules/vl53l1_api.c **** 	pRangeData->AmbientRateRtnMegaCps = AmbientRate;
2057:Drivers/BSP/Components/vl53l1cb/modules/vl53l1_api.c **** 
2058:Drivers/BSP/Components/vl53l1cb/modules/vl53l1_api.c **** 	pRangeData->EffectiveSpadRtnCount =
2059:Drivers/BSP/Components/vl53l1cb/modules/vl53l1_api.c **** 		presults_data->VL53L1_p_006;
2060:Drivers/BSP/Components/vl53l1cb/modules/vl53l1_api.c **** 
2061:Drivers/BSP/Components/vl53l1cb/modules/vl53l1_api.c **** 	TempFix1616 = VL53L1_FIXPOINT97TOFIXPOINT1616(
2062:Drivers/BSP/Components/vl53l1cb/modules/vl53l1_api.c **** 			presults_data->VL53L1_p_005);
2063:Drivers/BSP/Components/vl53l1cb/modules/vl53l1_api.c **** 
2064:Drivers/BSP/Components/vl53l1cb/modules/vl53l1_api.c **** 	pRangeData->SigmaMilliMeter = TempFix1616;
2065:Drivers/BSP/Components/vl53l1cb/modules/vl53l1_api.c **** 
2066:Drivers/BSP/Components/vl53l1cb/modules/vl53l1_api.c **** 	pRangeData->RangeMilliMeter = presults_data->median_range_mm;
2067:Drivers/BSP/Components/vl53l1cb/modules/vl53l1_api.c **** 
2068:Drivers/BSP/Components/vl53l1cb/modules/vl53l1_api.c **** 	pRangeData->RangeFractionalPart = 0;
2069:Drivers/BSP/Components/vl53l1cb/modules/vl53l1_api.c **** 
2070:Drivers/BSP/Components/vl53l1cb/modules/vl53l1_api.c **** 
2071:Drivers/BSP/Components/vl53l1cb/modules/vl53l1_api.c **** 	switch (device_status) {
2072:Drivers/BSP/Components/vl53l1cb/modules/vl53l1_api.c **** 	case VL53L1_DEVICEERROR_MULTCLIPFAIL:
2073:Drivers/BSP/Components/vl53l1cb/modules/vl53l1_api.c **** 	case VL53L1_DEVICEERROR_VCSELWATCHDOGTESTFAILURE:
2074:Drivers/BSP/Components/vl53l1cb/modules/vl53l1_api.c **** 	case VL53L1_DEVICEERROR_VCSELCONTINUITYTESTFAILURE:
2075:Drivers/BSP/Components/vl53l1cb/modules/vl53l1_api.c **** 	case VL53L1_DEVICEERROR_NOVHVVALUEFOUND:
2076:Drivers/BSP/Components/vl53l1cb/modules/vl53l1_api.c **** 		pRangeData->RangeStatus = VL53L1_RANGESTATUS_HARDWARE_FAIL;
2077:Drivers/BSP/Components/vl53l1cb/modules/vl53l1_api.c **** 		break;
2078:Drivers/BSP/Components/vl53l1cb/modules/vl53l1_api.c **** 	case VL53L1_DEVICEERROR_USERROICLIP:
2079:Drivers/BSP/Components/vl53l1cb/modules/vl53l1_api.c **** 		pRangeData->RangeStatus = VL53L1_RANGESTATUS_MIN_RANGE_FAIL;
2080:Drivers/BSP/Components/vl53l1cb/modules/vl53l1_api.c **** 		break;
2081:Drivers/BSP/Components/vl53l1cb/modules/vl53l1_api.c **** 	default:
2082:Drivers/BSP/Components/vl53l1cb/modules/vl53l1_api.c **** 		pRangeData->RangeStatus = VL53L1_RANGESTATUS_RANGE_VALID;
2083:Drivers/BSP/Components/vl53l1cb/modules/vl53l1_api.c **** 	}
2084:Drivers/BSP/Components/vl53l1cb/modules/vl53l1_api.c **** 
2085:Drivers/BSP/Components/vl53l1cb/modules/vl53l1_api.c **** 
2086:Drivers/BSP/Components/vl53l1cb/modules/vl53l1_api.c **** 	if (pRangeData->RangeStatus == VL53L1_RANGESTATUS_RANGE_VALID) {
2087:Drivers/BSP/Components/vl53l1cb/modules/vl53l1_api.c **** 		PresetMode = VL53L1DevDataGet(Dev,
ARM GAS  C:\Temp\ccMpj0h9.s 			page 58


2088:Drivers/BSP/Components/vl53l1cb/modules/vl53l1_api.c **** 				CurrentParameters.PresetMode);
2089:Drivers/BSP/Components/vl53l1cb/modules/vl53l1_api.c **** 		if ((PresetMode == VL53L1_PRESETMODE_MULTIZONES_SCANNING) ||
2090:Drivers/BSP/Components/vl53l1cb/modules/vl53l1_api.c **** 			(PresetMode == VL53L1_PRESETMODE_RANGING) ||
2091:Drivers/BSP/Components/vl53l1cb/modules/vl53l1_api.c **** 			(PresetMode == VL53L1_PRESETMODE_PROXY_RANGING_MODE))
2092:Drivers/BSP/Components/vl53l1cb/modules/vl53l1_api.c **** 			pRangeData->RangeStatus =
2093:Drivers/BSP/Components/vl53l1cb/modules/vl53l1_api.c **** 				ConvertStatusHisto(FilteredRangeStatus);
2094:Drivers/BSP/Components/vl53l1cb/modules/vl53l1_api.c **** 		else
2095:Drivers/BSP/Components/vl53l1cb/modules/vl53l1_api.c **** 			pRangeData->RangeStatus =
2096:Drivers/BSP/Components/vl53l1cb/modules/vl53l1_api.c **** 				ConvertStatusLite(FilteredRangeStatus);
2097:Drivers/BSP/Components/vl53l1cb/modules/vl53l1_api.c **** 	}
2098:Drivers/BSP/Components/vl53l1cb/modules/vl53l1_api.c **** 
2099:Drivers/BSP/Components/vl53l1cb/modules/vl53l1_api.c **** 
2100:Drivers/BSP/Components/vl53l1cb/modules/vl53l1_api.c **** 	TempFix1616 = VL53L1_FIXPOINT97TOFIXPOINT1616(
2101:Drivers/BSP/Components/vl53l1cb/modules/vl53l1_api.c **** 			presults_data->VL53L1_p_005);
2102:Drivers/BSP/Components/vl53l1cb/modules/vl53l1_api.c **** 	VL53L1_SETARRAYPARAMETERFIELD(Dev,
2103:Drivers/BSP/Components/vl53l1cb/modules/vl53l1_api.c **** 		LimitChecksCurrent, VL53L1_CHECKENABLE_SIGMA_FINAL_RANGE,
2104:Drivers/BSP/Components/vl53l1cb/modules/vl53l1_api.c **** 		TempFix1616);
2105:Drivers/BSP/Components/vl53l1cb/modules/vl53l1_api.c **** 
2106:Drivers/BSP/Components/vl53l1cb/modules/vl53l1_api.c **** 	TempFix1616 = VL53L1_FIXPOINT97TOFIXPOINT1616(
2107:Drivers/BSP/Components/vl53l1cb/modules/vl53l1_api.c **** 			presults_data->peak_signal_count_rate_mcps);
2108:Drivers/BSP/Components/vl53l1cb/modules/vl53l1_api.c **** 	VL53L1_SETARRAYPARAMETERFIELD(Dev,
2109:Drivers/BSP/Components/vl53l1cb/modules/vl53l1_api.c **** 		LimitChecksCurrent, VL53L1_CHECKENABLE_SIGNAL_RATE_FINAL_RANGE,
2110:Drivers/BSP/Components/vl53l1cb/modules/vl53l1_api.c **** 		TempFix1616);
2111:Drivers/BSP/Components/vl53l1cb/modules/vl53l1_api.c **** 
2112:Drivers/BSP/Components/vl53l1cb/modules/vl53l1_api.c **** 
2113:Drivers/BSP/Components/vl53l1cb/modules/vl53l1_api.c **** 
2114:Drivers/BSP/Components/vl53l1cb/modules/vl53l1_api.c **** 	VL53L1_GetLimitCheckValue(Dev,
2115:Drivers/BSP/Components/vl53l1cb/modules/vl53l1_api.c **** 			VL53L1_CHECKENABLE_SIGMA_FINAL_RANGE,
2116:Drivers/BSP/Components/vl53l1cb/modules/vl53l1_api.c **** 			&LimitCheckValue);
2117:Drivers/BSP/Components/vl53l1cb/modules/vl53l1_api.c **** 
2118:Drivers/BSP/Components/vl53l1cb/modules/vl53l1_api.c **** 	SigmaLimitflag = (FilteredRangeStatus ==
2119:Drivers/BSP/Components/vl53l1cb/modules/vl53l1_api.c **** 			VL53L1_DEVICEERROR_SIGMATHRESHOLDCHECK)
2120:Drivers/BSP/Components/vl53l1cb/modules/vl53l1_api.c **** 			? 1 : 0;
2121:Drivers/BSP/Components/vl53l1cb/modules/vl53l1_api.c **** 
2122:Drivers/BSP/Components/vl53l1cb/modules/vl53l1_api.c **** 	VL53L1_GetLimitCheckEnable(Dev,
2123:Drivers/BSP/Components/vl53l1cb/modules/vl53l1_api.c **** 			VL53L1_CHECKENABLE_SIGMA_FINAL_RANGE,
2124:Drivers/BSP/Components/vl53l1cb/modules/vl53l1_api.c **** 			&Temp8Enable);
2125:Drivers/BSP/Components/vl53l1cb/modules/vl53l1_api.c **** 
2126:Drivers/BSP/Components/vl53l1cb/modules/vl53l1_api.c **** 	Temp8 = ((Temp8Enable == 1) && (SigmaLimitflag == 1)) ? 1 : 0;
2127:Drivers/BSP/Components/vl53l1cb/modules/vl53l1_api.c **** 	VL53L1_SETARRAYPARAMETERFIELD(Dev, LimitChecksStatus,
2128:Drivers/BSP/Components/vl53l1cb/modules/vl53l1_api.c **** 			VL53L1_CHECKENABLE_SIGMA_FINAL_RANGE, Temp8);
2129:Drivers/BSP/Components/vl53l1cb/modules/vl53l1_api.c **** 
2130:Drivers/BSP/Components/vl53l1cb/modules/vl53l1_api.c **** 
2131:Drivers/BSP/Components/vl53l1cb/modules/vl53l1_api.c **** 	VL53L1_GetLimitCheckValue(Dev,
2132:Drivers/BSP/Components/vl53l1cb/modules/vl53l1_api.c **** 			VL53L1_CHECKENABLE_SIGNAL_RATE_FINAL_RANGE,
2133:Drivers/BSP/Components/vl53l1cb/modules/vl53l1_api.c **** 			&LimitCheckValue);
2134:Drivers/BSP/Components/vl53l1cb/modules/vl53l1_api.c **** 
2135:Drivers/BSP/Components/vl53l1cb/modules/vl53l1_api.c **** 	SignalLimitflag = (FilteredRangeStatus ==
2136:Drivers/BSP/Components/vl53l1cb/modules/vl53l1_api.c **** 			VL53L1_DEVICEERROR_MSRCNOTARGET)
2137:Drivers/BSP/Components/vl53l1cb/modules/vl53l1_api.c **** 			? 1 : 0;
2138:Drivers/BSP/Components/vl53l1cb/modules/vl53l1_api.c **** 
2139:Drivers/BSP/Components/vl53l1cb/modules/vl53l1_api.c **** 	VL53L1_GetLimitCheckEnable(Dev,
2140:Drivers/BSP/Components/vl53l1cb/modules/vl53l1_api.c **** 			VL53L1_CHECKENABLE_SIGNAL_RATE_FINAL_RANGE,
2141:Drivers/BSP/Components/vl53l1cb/modules/vl53l1_api.c **** 			&Temp8Enable);
2142:Drivers/BSP/Components/vl53l1cb/modules/vl53l1_api.c **** 
2143:Drivers/BSP/Components/vl53l1cb/modules/vl53l1_api.c **** 	Temp8 = ((Temp8Enable == 1) && (SignalLimitflag == 1)) ? 1 : 0;
2144:Drivers/BSP/Components/vl53l1cb/modules/vl53l1_api.c **** 	VL53L1_SETARRAYPARAMETERFIELD(Dev, LimitChecksStatus,
ARM GAS  C:\Temp\ccMpj0h9.s 			page 59


2145:Drivers/BSP/Components/vl53l1cb/modules/vl53l1_api.c **** 			VL53L1_CHECKENABLE_SIGNAL_RATE_FINAL_RANGE, Temp8);
2146:Drivers/BSP/Components/vl53l1cb/modules/vl53l1_api.c **** 
2147:Drivers/BSP/Components/vl53l1cb/modules/vl53l1_api.c **** 	Range = pRangeData->RangeMilliMeter;
2148:Drivers/BSP/Components/vl53l1cb/modules/vl53l1_api.c **** 	if ((pRangeData->RangeStatus == VL53L1_RANGESTATUS_RANGE_VALID) &&
2149:Drivers/BSP/Components/vl53l1cb/modules/vl53l1_api.c **** 		(Range < 0)) {
2150:Drivers/BSP/Components/vl53l1cb/modules/vl53l1_api.c **** 		if (Range < BDTable[VL53L1_TUNING_PROXY_MIN])
2151:Drivers/BSP/Components/vl53l1cb/modules/vl53l1_api.c **** 			pRangeData->RangeStatus =
2152:Drivers/BSP/Components/vl53l1cb/modules/vl53l1_api.c **** 					VL53L1_RANGESTATUS_RANGE_INVALID;
2153:Drivers/BSP/Components/vl53l1cb/modules/vl53l1_api.c **** 		else
2154:Drivers/BSP/Components/vl53l1cb/modules/vl53l1_api.c **** 			pRangeData->RangeMilliMeter = 0;
2155:Drivers/BSP/Components/vl53l1cb/modules/vl53l1_api.c **** 	}
2156:Drivers/BSP/Components/vl53l1cb/modules/vl53l1_api.c **** 
2157:Drivers/BSP/Components/vl53l1cb/modules/vl53l1_api.c **** 	return Status;
2158:Drivers/BSP/Components/vl53l1cb/modules/vl53l1_api.c **** }
2159:Drivers/BSP/Components/vl53l1cb/modules/vl53l1_api.c **** 
2160:Drivers/BSP/Components/vl53l1cb/modules/vl53l1_api.c **** static VL53L1_Error SetTargetData(VL53L1_DEV Dev,
2161:Drivers/BSP/Components/vl53l1cb/modules/vl53l1_api.c **** 	uint8_t active_results, uint8_t iteration,
2162:Drivers/BSP/Components/vl53l1cb/modules/vl53l1_api.c **** 	uint8_t device_status, VL53L1_range_data_t *presults_data,
2163:Drivers/BSP/Components/vl53l1cb/modules/vl53l1_api.c **** 	VL53L1_TargetRangeData_t *pRangeData)
2164:Drivers/BSP/Components/vl53l1cb/modules/vl53l1_api.c **** {
2165:Drivers/BSP/Components/vl53l1cb/modules/vl53l1_api.c **** 	#define MAX_AMBIENT 2 * 65536
2166:Drivers/BSP/Components/vl53l1cb/modules/vl53l1_api.c **** 	#define MAX_RANGE_DIFF 500
2167:Drivers/BSP/Components/vl53l1cb/modules/vl53l1_api.c **** 	VL53L1_Error Status = VL53L1_ERROR_NONE;
2168:Drivers/BSP/Components/vl53l1cb/modules/vl53l1_api.c **** 	VL53L1_LLDriverData_t *pdev =
2169:Drivers/BSP/Components/vl53l1cb/modules/vl53l1_api.c **** 			VL53L1DevStructGetLLDriverHandle(Dev);
2170:Drivers/BSP/Components/vl53l1cb/modules/vl53l1_api.c **** 	VL53L1_tuning_parm_storage_t *tp =
2171:Drivers/BSP/Components/vl53l1cb/modules/vl53l1_api.c **** 			&(pdev->tuning_parms);
2172:Drivers/BSP/Components/vl53l1cb/modules/vl53l1_api.c **** 	uint8_t roi = pdev->ll_state.rd_zone_id;
2173:Drivers/BSP/Components/vl53l1cb/modules/vl53l1_api.c **** 	uint8_t timing = pdev->hist_data.number_of_ambient_bins / 4;
2174:Drivers/BSP/Components/vl53l1cb/modules/vl53l1_api.c **** 	uint8_t sequency;
2175:Drivers/BSP/Components/vl53l1cb/modules/vl53l1_api.c **** 	uint8_t FilteredRangeStatus;
2176:Drivers/BSP/Components/vl53l1cb/modules/vl53l1_api.c **** 	uint8_t SigmaLimitflag;
2177:Drivers/BSP/Components/vl53l1cb/modules/vl53l1_api.c **** 	uint8_t SignalLimitflag;
2178:Drivers/BSP/Components/vl53l1cb/modules/vl53l1_api.c **** 	uint8_t Temp8Enable;
2179:Drivers/BSP/Components/vl53l1cb/modules/vl53l1_api.c **** 	uint8_t Temp8;
2180:Drivers/BSP/Components/vl53l1cb/modules/vl53l1_api.c **** 	FixPoint1616_t AmbientRate;
2181:Drivers/BSP/Components/vl53l1cb/modules/vl53l1_api.c **** 	FixPoint1616_t SignalRate;
2182:Drivers/BSP/Components/vl53l1cb/modules/vl53l1_api.c **** 	FixPoint1616_t TempFix1616;
2183:Drivers/BSP/Components/vl53l1cb/modules/vl53l1_api.c **** 	FixPoint1616_t LimitCheckValue;
2184:Drivers/BSP/Components/vl53l1cb/modules/vl53l1_api.c **** 	VL53L1_PresetModes PresetMode;
2185:Drivers/BSP/Components/vl53l1cb/modules/vl53l1_api.c **** 	int16_t Range, RangeDiff, RangeMillimeterInit;
2186:Drivers/BSP/Components/vl53l1cb/modules/vl53l1_api.c **** 	int32_t ExtendedRangeEnabled = 0;
2187:Drivers/BSP/Components/vl53l1cb/modules/vl53l1_api.c **** 	uint8_t uwr_status;
2188:Drivers/BSP/Components/vl53l1cb/modules/vl53l1_api.c **** 	int16_t AddOffset;
2189:Drivers/BSP/Components/vl53l1cb/modules/vl53l1_api.c **** 	int32_t TuningMinValidSignal;
2190:Drivers/BSP/Components/vl53l1cb/modules/vl53l1_api.c **** 	FixPoint1616_t MinValidSignal;
2191:Drivers/BSP/Components/vl53l1cb/modules/vl53l1_api.c **** 	uint8_t histo_merge_nb;
2192:Drivers/BSP/Components/vl53l1cb/modules/vl53l1_api.c **** 
2193:Drivers/BSP/Components/vl53l1cb/modules/vl53l1_api.c **** 	FilteredRangeStatus = presults_data->range_status & 0x1F;
2194:Drivers/BSP/Components/vl53l1cb/modules/vl53l1_api.c **** 
2195:Drivers/BSP/Components/vl53l1cb/modules/vl53l1_api.c **** 	pRangeData->RangeQualityLevel = ComputeRQL(active_results,
2196:Drivers/BSP/Components/vl53l1cb/modules/vl53l1_api.c **** 					FilteredRangeStatus,
2197:Drivers/BSP/Components/vl53l1cb/modules/vl53l1_api.c **** 					presults_data);
2198:Drivers/BSP/Components/vl53l1cb/modules/vl53l1_api.c **** 
2199:Drivers/BSP/Components/vl53l1cb/modules/vl53l1_api.c **** 	SignalRate = VL53L1_FIXPOINT97TOFIXPOINT1616(
2200:Drivers/BSP/Components/vl53l1cb/modules/vl53l1_api.c **** 		presults_data->peak_signal_count_rate_mcps);
2201:Drivers/BSP/Components/vl53l1cb/modules/vl53l1_api.c **** 	pRangeData->SignalRateRtnMegaCps
ARM GAS  C:\Temp\ccMpj0h9.s 			page 60


2202:Drivers/BSP/Components/vl53l1cb/modules/vl53l1_api.c **** 		= SignalRate;
2203:Drivers/BSP/Components/vl53l1cb/modules/vl53l1_api.c **** 
2204:Drivers/BSP/Components/vl53l1cb/modules/vl53l1_api.c **** 	AmbientRate = VL53L1_FIXPOINT97TOFIXPOINT1616(
2205:Drivers/BSP/Components/vl53l1cb/modules/vl53l1_api.c **** 		presults_data->ambient_count_rate_mcps);
2206:Drivers/BSP/Components/vl53l1cb/modules/vl53l1_api.c **** 	pRangeData->AmbientRateRtnMegaCps = AmbientRate;
2207:Drivers/BSP/Components/vl53l1cb/modules/vl53l1_api.c **** 
2208:Drivers/BSP/Components/vl53l1cb/modules/vl53l1_api.c **** 	TempFix1616 = VL53L1_FIXPOINT97TOFIXPOINT1616(
2209:Drivers/BSP/Components/vl53l1cb/modules/vl53l1_api.c **** 			presults_data->VL53L1_p_005);
2210:Drivers/BSP/Components/vl53l1cb/modules/vl53l1_api.c **** 
2211:Drivers/BSP/Components/vl53l1cb/modules/vl53l1_api.c **** 	pRangeData->SigmaMilliMeter = TempFix1616;
2212:Drivers/BSP/Components/vl53l1cb/modules/vl53l1_api.c **** 
2213:Drivers/BSP/Components/vl53l1cb/modules/vl53l1_api.c **** 	pRangeData->RangeMilliMeter = presults_data->median_range_mm;
2214:Drivers/BSP/Components/vl53l1cb/modules/vl53l1_api.c **** 	pRangeData->RangeMaxMilliMeter = presults_data->max_range_mm;
2215:Drivers/BSP/Components/vl53l1cb/modules/vl53l1_api.c **** 	pRangeData->RangeMinMilliMeter = presults_data->min_range_mm;
2216:Drivers/BSP/Components/vl53l1cb/modules/vl53l1_api.c **** 
2217:Drivers/BSP/Components/vl53l1cb/modules/vl53l1_api.c **** 	pRangeData->RangeFractionalPart = 0;
2218:Drivers/BSP/Components/vl53l1cb/modules/vl53l1_api.c **** 
2219:Drivers/BSP/Components/vl53l1cb/modules/vl53l1_api.c **** 
2220:Drivers/BSP/Components/vl53l1cb/modules/vl53l1_api.c **** 	switch (device_status) {
2221:Drivers/BSP/Components/vl53l1cb/modules/vl53l1_api.c **** 	case VL53L1_DEVICEERROR_MULTCLIPFAIL:
2222:Drivers/BSP/Components/vl53l1cb/modules/vl53l1_api.c **** 	case VL53L1_DEVICEERROR_VCSELWATCHDOGTESTFAILURE:
2223:Drivers/BSP/Components/vl53l1cb/modules/vl53l1_api.c **** 	case VL53L1_DEVICEERROR_VCSELCONTINUITYTESTFAILURE:
2224:Drivers/BSP/Components/vl53l1cb/modules/vl53l1_api.c **** 	case VL53L1_DEVICEERROR_NOVHVVALUEFOUND:
2225:Drivers/BSP/Components/vl53l1cb/modules/vl53l1_api.c **** 		pRangeData->RangeStatus = VL53L1_RANGESTATUS_HARDWARE_FAIL;
2226:Drivers/BSP/Components/vl53l1cb/modules/vl53l1_api.c **** 		break;
2227:Drivers/BSP/Components/vl53l1cb/modules/vl53l1_api.c **** 	case VL53L1_DEVICEERROR_USERROICLIP:
