ARM GAS  C:\Temp\ccoVwn9Y.s 			page 1


   1              		.cpu cortex-m4
   2              		.arch armv7e-m
   3              		.fpu fpv4-sp-d16
   4              		.eabi_attribute 27, 1
   5              		.eabi_attribute 28, 1
   6              		.eabi_attribute 20, 1
   7              		.eabi_attribute 21, 1
   8              		.eabi_attribute 23, 3
   9              		.eabi_attribute 24, 1
  10              		.eabi_attribute 25, 1
  11              		.eabi_attribute 26, 1
  12              		.eabi_attribute 30, 1
  13              		.eabi_attribute 34, 1
  14              		.eabi_attribute 18, 4
  15              		.file	"vl53l1_api_preset_modes.c"
  16              		.text
  17              	.Ltext0:
  18              		.cfi_sections	.debug_frame
  19              		.file 1 "Drivers/BSP/Components/vl53l1cb/modules/vl53l1_api_preset_modes.c"
  20              		.section	.text.VL53L1_init_refspadchar_config_struct,"ax",%progbits
  21              		.align	1
  22              		.global	VL53L1_init_refspadchar_config_struct
  23              		.syntax unified
  24              		.thumb
  25              		.thumb_func
  27              	VL53L1_init_refspadchar_config_struct:
  28              	.LVL0:
  29              	.LFB3:
   1:Drivers/BSP/Components/vl53l1cb/modules/vl53l1_api_preset_modes.c **** /**
   2:Drivers/BSP/Components/vl53l1cb/modules/vl53l1_api_preset_modes.c ****  ******************************************************************************
   3:Drivers/BSP/Components/vl53l1cb/modules/vl53l1_api_preset_modes.c ****  * Copyright (c) 2020, STMicroelectronics - All Rights Reserved
   4:Drivers/BSP/Components/vl53l1cb/modules/vl53l1_api_preset_modes.c ****  *
   5:Drivers/BSP/Components/vl53l1cb/modules/vl53l1_api_preset_modes.c ****  * This software is licensed under terms that can be found in the LICENSE file
   6:Drivers/BSP/Components/vl53l1cb/modules/vl53l1_api_preset_modes.c ****  * in the root directory of this software component.
   7:Drivers/BSP/Components/vl53l1cb/modules/vl53l1_api_preset_modes.c ****  * If no LICENSE file comes with this software, it is provided AS-IS.
   8:Drivers/BSP/Components/vl53l1cb/modules/vl53l1_api_preset_modes.c ****  *
   9:Drivers/BSP/Components/vl53l1cb/modules/vl53l1_api_preset_modes.c ****  ******************************************************************************
  10:Drivers/BSP/Components/vl53l1cb/modules/vl53l1_api_preset_modes.c ****  */
  11:Drivers/BSP/Components/vl53l1cb/modules/vl53l1_api_preset_modes.c **** 
  12:Drivers/BSP/Components/vl53l1cb/modules/vl53l1_api_preset_modes.c **** 
  13:Drivers/BSP/Components/vl53l1cb/modules/vl53l1_api_preset_modes.c **** 
  14:Drivers/BSP/Components/vl53l1cb/modules/vl53l1_api_preset_modes.c **** 
  15:Drivers/BSP/Components/vl53l1cb/modules/vl53l1_api_preset_modes.c **** #include "vl53l1_ll_def.h"
  16:Drivers/BSP/Components/vl53l1cb/modules/vl53l1_api_preset_modes.c **** #include "vl53l1_platform_log.h"
  17:Drivers/BSP/Components/vl53l1cb/modules/vl53l1_api_preset_modes.c **** #include "vl53l1_register_structs.h"
  18:Drivers/BSP/Components/vl53l1cb/modules/vl53l1_api_preset_modes.c **** #include "vl53l1_register_settings.h"
  19:Drivers/BSP/Components/vl53l1cb/modules/vl53l1_api_preset_modes.c **** #include "vl53l1_hist_structs.h"
  20:Drivers/BSP/Components/vl53l1cb/modules/vl53l1_api_preset_modes.c **** #include "vl53l1_zone_presets.h"
  21:Drivers/BSP/Components/vl53l1cb/modules/vl53l1_api_preset_modes.c **** #include "vl53l1_core.h"
  22:Drivers/BSP/Components/vl53l1cb/modules/vl53l1_api_preset_modes.c **** #include "vl53l1_api_preset_modes.h"
  23:Drivers/BSP/Components/vl53l1cb/modules/vl53l1_api_preset_modes.c **** #include "vl53l1_tuning_parm_defaults.h"
  24:Drivers/BSP/Components/vl53l1cb/modules/vl53l1_api_preset_modes.c **** 
  25:Drivers/BSP/Components/vl53l1cb/modules/vl53l1_api_preset_modes.c **** 
  26:Drivers/BSP/Components/vl53l1cb/modules/vl53l1_api_preset_modes.c **** #define LOG_FUNCTION_START(fmt, ...) \
  27:Drivers/BSP/Components/vl53l1cb/modules/vl53l1_api_preset_modes.c **** 	_LOG_FUNCTION_START(VL53L1_TRACE_MODULE_API, fmt, ##__VA_ARGS__)
  28:Drivers/BSP/Components/vl53l1cb/modules/vl53l1_api_preset_modes.c **** #define LOG_FUNCTION_END(status, ...) \
  29:Drivers/BSP/Components/vl53l1cb/modules/vl53l1_api_preset_modes.c **** 	_LOG_FUNCTION_END(VL53L1_TRACE_MODULE_API, status, ##__VA_ARGS__)
ARM GAS  C:\Temp\ccoVwn9Y.s 			page 2


  30:Drivers/BSP/Components/vl53l1cb/modules/vl53l1_api_preset_modes.c **** #define LOG_FUNCTION_END_FMT(status, fmt, ...) \
  31:Drivers/BSP/Components/vl53l1cb/modules/vl53l1_api_preset_modes.c **** 	_LOG_FUNCTION_END_FMT(VL53L1_TRACE_MODULE_API,\
  32:Drivers/BSP/Components/vl53l1cb/modules/vl53l1_api_preset_modes.c **** 	status, fmt, ##__VA_ARGS__)
  33:Drivers/BSP/Components/vl53l1cb/modules/vl53l1_api_preset_modes.c **** 
  34:Drivers/BSP/Components/vl53l1cb/modules/vl53l1_api_preset_modes.c **** 
  35:Drivers/BSP/Components/vl53l1cb/modules/vl53l1_api_preset_modes.c **** VL53L1_Error VL53L1_init_refspadchar_config_struct(
  36:Drivers/BSP/Components/vl53l1cb/modules/vl53l1_api_preset_modes.c **** 	VL53L1_refspadchar_config_t   *pdata)
  37:Drivers/BSP/Components/vl53l1cb/modules/vl53l1_api_preset_modes.c **** {
  30              		.loc 1 37 1 view -0
  31              		.cfi_startproc
  32              		@ args = 0, pretend = 0, frame = 0
  33              		@ frame_needed = 0, uses_anonymous_args = 0
  34              		@ link register save eliminated.
  38:Drivers/BSP/Components/vl53l1cb/modules/vl53l1_api_preset_modes.c **** 
  39:Drivers/BSP/Components/vl53l1cb/modules/vl53l1_api_preset_modes.c **** 
  40:Drivers/BSP/Components/vl53l1cb/modules/vl53l1_api_preset_modes.c **** 	VL53L1_Error  status = VL53L1_ERROR_NONE;
  35              		.loc 1 40 2 view .LVU1
  41:Drivers/BSP/Components/vl53l1cb/modules/vl53l1_api_preset_modes.c **** 
  42:Drivers/BSP/Components/vl53l1cb/modules/vl53l1_api_preset_modes.c **** 	LOG_FUNCTION_START("");
  36              		.loc 1 42 24 view .LVU2
  43:Drivers/BSP/Components/vl53l1cb/modules/vl53l1_api_preset_modes.c **** 
  44:Drivers/BSP/Components/vl53l1cb/modules/vl53l1_api_preset_modes.c **** 
  45:Drivers/BSP/Components/vl53l1cb/modules/vl53l1_api_preset_modes.c **** 
  46:Drivers/BSP/Components/vl53l1cb/modules/vl53l1_api_preset_modes.c **** 	pdata->device_test_mode =
  37              		.loc 1 46 2 view .LVU3
  38              		.loc 1 46 26 is_stmt 0 view .LVU4
  39 0000 0823     		movs	r3, #8
  40 0002 0370     		strb	r3, [r0]
  47:Drivers/BSP/Components/vl53l1cb/modules/vl53l1_api_preset_modes.c **** 		VL53L1_TUNINGPARM_REFSPADCHAR_DEVICE_TEST_MODE_DEFAULT;
  48:Drivers/BSP/Components/vl53l1cb/modules/vl53l1_api_preset_modes.c **** 	pdata->VL53L1_p_009              =
  41              		.loc 1 48 2 is_stmt 1 view .LVU5
  42              		.loc 1 48 35 is_stmt 0 view .LVU6
  43 0004 0B23     		movs	r3, #11
  44 0006 4370     		strb	r3, [r0, #1]
  49:Drivers/BSP/Components/vl53l1cb/modules/vl53l1_api_preset_modes.c **** 		VL53L1_TUNINGPARM_REFSPADCHAR_VCSEL_PERIOD_DEFAULT;
  50:Drivers/BSP/Components/vl53l1cb/modules/vl53l1_api_preset_modes.c **** 	pdata->timeout_us                =
  45              		.loc 1 50 2 is_stmt 1 view .LVU7
  46              		.loc 1 50 35 is_stmt 0 view .LVU8
  47 0008 4FF47A73 		mov	r3, #1000
  48 000c 4360     		str	r3, [r0, #4]
  51:Drivers/BSP/Components/vl53l1cb/modules/vl53l1_api_preset_modes.c **** 		VL53L1_TUNINGPARM_REFSPADCHAR_PHASECAL_TIMEOUT_US_DEFAULT;
  52:Drivers/BSP/Components/vl53l1cb/modules/vl53l1_api_preset_modes.c **** 	pdata->target_count_rate_mcps    =
  49              		.loc 1 52 2 is_stmt 1 view .LVU9
  50              		.loc 1 52 35 is_stmt 0 view .LVU10
  51 000e 4FF42063 		mov	r3, #2560
  52 0012 0381     		strh	r3, [r0, #8]	@ movhi
  53:Drivers/BSP/Components/vl53l1cb/modules/vl53l1_api_preset_modes.c **** 		VL53L1_TUNINGPARM_REFSPADCHAR_TARGET_COUNT_RATE_MCPS_DEFAULT;
  54:Drivers/BSP/Components/vl53l1cb/modules/vl53l1_api_preset_modes.c **** 	pdata->min_count_rate_limit_mcps =
  53              		.loc 1 54 2 is_stmt 1 view .LVU11
  54              		.loc 1 54 35 is_stmt 0 view .LVU12
  55 0014 4FF4A063 		mov	r3, #1280
  56 0018 4381     		strh	r3, [r0, #10]	@ movhi
  55:Drivers/BSP/Components/vl53l1cb/modules/vl53l1_api_preset_modes.c **** 		VL53L1_TUNINGPARM_REFSPADCHAR_MIN_COUNTRATE_LIMIT_MCPS_DEFAULT;
  56:Drivers/BSP/Components/vl53l1cb/modules/vl53l1_api_preset_modes.c **** 	pdata->max_count_rate_limit_mcps =
  57              		.loc 1 56 2 is_stmt 1 view .LVU13
  58              		.loc 1 56 35 is_stmt 0 view .LVU14
  59 001a 4FF4A053 		mov	r3, #5120
ARM GAS  C:\Temp\ccoVwn9Y.s 			page 3


  60 001e 8381     		strh	r3, [r0, #12]	@ movhi
  57:Drivers/BSP/Components/vl53l1cb/modules/vl53l1_api_preset_modes.c **** 		VL53L1_TUNINGPARM_REFSPADCHAR_MAX_COUNTRATE_LIMIT_MCPS_DEFAULT;
  58:Drivers/BSP/Components/vl53l1cb/modules/vl53l1_api_preset_modes.c **** 
  59:Drivers/BSP/Components/vl53l1cb/modules/vl53l1_api_preset_modes.c **** 	LOG_FUNCTION_END(status);
  61              		.loc 1 59 26 is_stmt 1 view .LVU15
  60:Drivers/BSP/Components/vl53l1cb/modules/vl53l1_api_preset_modes.c **** 
  61:Drivers/BSP/Components/vl53l1cb/modules/vl53l1_api_preset_modes.c **** 	return status;
  62              		.loc 1 61 2 view .LVU16
  62:Drivers/BSP/Components/vl53l1cb/modules/vl53l1_api_preset_modes.c **** }
  63              		.loc 1 62 1 is_stmt 0 view .LVU17
  64 0020 0020     		movs	r0, #0
  65              	.LVL1:
  66              		.loc 1 62 1 view .LVU18
  67 0022 7047     		bx	lr
  68              		.cfi_endproc
  69              	.LFE3:
  71              		.section	.text.VL53L1_init_ssc_config_struct,"ax",%progbits
  72              		.align	1
  73              		.global	VL53L1_init_ssc_config_struct
  74              		.syntax unified
  75              		.thumb
  76              		.thumb_func
  78              	VL53L1_init_ssc_config_struct:
  79              	.LVL2:
  80              	.LFB4:
  63:Drivers/BSP/Components/vl53l1cb/modules/vl53l1_api_preset_modes.c **** 
  64:Drivers/BSP/Components/vl53l1cb/modules/vl53l1_api_preset_modes.c **** 
  65:Drivers/BSP/Components/vl53l1cb/modules/vl53l1_api_preset_modes.c **** VL53L1_Error VL53L1_init_ssc_config_struct(
  66:Drivers/BSP/Components/vl53l1cb/modules/vl53l1_api_preset_modes.c **** 	VL53L1_ssc_config_t   *pdata)
  67:Drivers/BSP/Components/vl53l1cb/modules/vl53l1_api_preset_modes.c **** {
  81              		.loc 1 67 1 is_stmt 1 view -0
  82              		.cfi_startproc
  83              		@ args = 0, pretend = 0, frame = 0
  84              		@ frame_needed = 0, uses_anonymous_args = 0
  85              		@ link register save eliminated.
  86              		.loc 1 67 1 is_stmt 0 view .LVU20
  87 0000 0346     		mov	r3, r0
  68:Drivers/BSP/Components/vl53l1cb/modules/vl53l1_api_preset_modes.c **** 
  69:Drivers/BSP/Components/vl53l1cb/modules/vl53l1_api_preset_modes.c **** 
  70:Drivers/BSP/Components/vl53l1cb/modules/vl53l1_api_preset_modes.c **** 	VL53L1_Error  status = VL53L1_ERROR_NONE;
  88              		.loc 1 70 2 is_stmt 1 view .LVU21
  89              	.LVL3:
  71:Drivers/BSP/Components/vl53l1cb/modules/vl53l1_api_preset_modes.c **** 
  72:Drivers/BSP/Components/vl53l1cb/modules/vl53l1_api_preset_modes.c **** 	LOG_FUNCTION_START("");
  90              		.loc 1 72 24 view .LVU22
  73:Drivers/BSP/Components/vl53l1cb/modules/vl53l1_api_preset_modes.c **** 
  74:Drivers/BSP/Components/vl53l1cb/modules/vl53l1_api_preset_modes.c **** 
  75:Drivers/BSP/Components/vl53l1cb/modules/vl53l1_api_preset_modes.c **** 
  76:Drivers/BSP/Components/vl53l1cb/modules/vl53l1_api_preset_modes.c **** 
  77:Drivers/BSP/Components/vl53l1cb/modules/vl53l1_api_preset_modes.c **** 	pdata->array_select = VL53L1_DEVICESSCARRAY_RTN;
  91              		.loc 1 77 2 view .LVU23
  92              		.loc 1 77 22 is_stmt 0 view .LVU24
  93 0002 0020     		movs	r0, #0
  94              	.LVL4:
  95              		.loc 1 77 22 view .LVU25
  96 0004 1870     		strb	r0, [r3]
  78:Drivers/BSP/Components/vl53l1cb/modules/vl53l1_api_preset_modes.c **** 
ARM GAS  C:\Temp\ccoVwn9Y.s 			page 4


  79:Drivers/BSP/Components/vl53l1cb/modules/vl53l1_api_preset_modes.c **** 
  80:Drivers/BSP/Components/vl53l1cb/modules/vl53l1_api_preset_modes.c **** 	pdata->VL53L1_p_009 =
  97              		.loc 1 80 2 is_stmt 1 view .LVU26
  98              		.loc 1 80 22 is_stmt 0 view .LVU27
  99 0006 1222     		movs	r2, #18
 100 0008 5A70     		strb	r2, [r3, #1]
  81:Drivers/BSP/Components/vl53l1cb/modules/vl53l1_api_preset_modes.c **** 			VL53L1_TUNINGPARM_SPADMAP_VCSEL_PERIOD_DEFAULT;
  82:Drivers/BSP/Components/vl53l1cb/modules/vl53l1_api_preset_modes.c **** 
  83:Drivers/BSP/Components/vl53l1cb/modules/vl53l1_api_preset_modes.c **** 
  84:Drivers/BSP/Components/vl53l1cb/modules/vl53l1_api_preset_modes.c **** 	pdata->vcsel_start  =
 101              		.loc 1 84 2 is_stmt 1 view .LVU28
 102              		.loc 1 84 22 is_stmt 0 view .LVU29
 103 000a 0F22     		movs	r2, #15
 104 000c 9A70     		strb	r2, [r3, #2]
  85:Drivers/BSP/Components/vl53l1cb/modules/vl53l1_api_preset_modes.c **** 			VL53L1_TUNINGPARM_SPADMAP_VCSEL_START_DEFAULT;
  86:Drivers/BSP/Components/vl53l1cb/modules/vl53l1_api_preset_modes.c **** 
  87:Drivers/BSP/Components/vl53l1cb/modules/vl53l1_api_preset_modes.c **** 
  88:Drivers/BSP/Components/vl53l1cb/modules/vl53l1_api_preset_modes.c **** 	pdata->vcsel_width = 0x02;
 105              		.loc 1 88 2 is_stmt 1 view .LVU30
 106              		.loc 1 88 21 is_stmt 0 view .LVU31
 107 000e 0222     		movs	r2, #2
 108 0010 DA70     		strb	r2, [r3, #3]
  89:Drivers/BSP/Components/vl53l1cb/modules/vl53l1_api_preset_modes.c **** 
  90:Drivers/BSP/Components/vl53l1cb/modules/vl53l1_api_preset_modes.c **** 
  91:Drivers/BSP/Components/vl53l1cb/modules/vl53l1_api_preset_modes.c **** 	pdata->timeout_us   = 36000;
 109              		.loc 1 91 2 is_stmt 1 view .LVU32
 110              		.loc 1 91 22 is_stmt 0 view .LVU33
 111 0012 48F6A042 		movw	r2, #36000
 112 0016 5A60     		str	r2, [r3, #4]
  92:Drivers/BSP/Components/vl53l1cb/modules/vl53l1_api_preset_modes.c **** 
  93:Drivers/BSP/Components/vl53l1cb/modules/vl53l1_api_preset_modes.c **** 
  94:Drivers/BSP/Components/vl53l1cb/modules/vl53l1_api_preset_modes.c **** 	pdata->rate_limit_mcps =
 113              		.loc 1 94 2 is_stmt 1 view .LVU34
 114              		.loc 1 94 25 is_stmt 0 view .LVU35
 115 0018 0C22     		movs	r2, #12
 116 001a 1A81     		strh	r2, [r3, #8]	@ movhi
  95:Drivers/BSP/Components/vl53l1cb/modules/vl53l1_api_preset_modes.c **** 			VL53L1_TUNINGPARM_SPADMAP_RATE_LIMIT_MCPS_DEFAULT;
  96:Drivers/BSP/Components/vl53l1cb/modules/vl53l1_api_preset_modes.c **** 
  97:Drivers/BSP/Components/vl53l1cb/modules/vl53l1_api_preset_modes.c **** 	LOG_FUNCTION_END(status);
 117              		.loc 1 97 26 is_stmt 1 view .LVU36
  98:Drivers/BSP/Components/vl53l1cb/modules/vl53l1_api_preset_modes.c **** 
  99:Drivers/BSP/Components/vl53l1cb/modules/vl53l1_api_preset_modes.c **** 	return status;
 118              		.loc 1 99 2 view .LVU37
 100:Drivers/BSP/Components/vl53l1cb/modules/vl53l1_api_preset_modes.c **** }
 119              		.loc 1 100 1 is_stmt 0 view .LVU38
 120 001c 7047     		bx	lr
 121              		.cfi_endproc
 122              	.LFE4:
 124              		.section	.text.VL53L1_init_xtalk_config_struct,"ax",%progbits
 125              		.align	1
 126              		.global	VL53L1_init_xtalk_config_struct
 127              		.syntax unified
 128              		.thumb
 129              		.thumb_func
 131              	VL53L1_init_xtalk_config_struct:
 132              	.LVL5:
 133              	.LFB5:
ARM GAS  C:\Temp\ccoVwn9Y.s 			page 5


 101:Drivers/BSP/Components/vl53l1cb/modules/vl53l1_api_preset_modes.c **** 
 102:Drivers/BSP/Components/vl53l1cb/modules/vl53l1_api_preset_modes.c **** 
 103:Drivers/BSP/Components/vl53l1cb/modules/vl53l1_api_preset_modes.c **** VL53L1_Error VL53L1_init_xtalk_config_struct(
 104:Drivers/BSP/Components/vl53l1cb/modules/vl53l1_api_preset_modes.c **** 	VL53L1_customer_nvm_managed_t *pnvm,
 105:Drivers/BSP/Components/vl53l1cb/modules/vl53l1_api_preset_modes.c **** 	VL53L1_xtalk_config_t   *pdata)
 106:Drivers/BSP/Components/vl53l1cb/modules/vl53l1_api_preset_modes.c **** {
 134              		.loc 1 106 1 is_stmt 1 view -0
 135              		.cfi_startproc
 136              		@ args = 0, pretend = 0, frame = 0
 137              		@ frame_needed = 0, uses_anonymous_args = 0
 138              		.loc 1 106 1 is_stmt 0 view .LVU40
 139 0000 38B5     		push	{r3, r4, r5, lr}
 140              		.cfi_def_cfa_offset 16
 141              		.cfi_offset 3, -16
 142              		.cfi_offset 4, -12
 143              		.cfi_offset 5, -8
 144              		.cfi_offset 14, -4
 145 0002 0C46     		mov	r4, r1
 107:Drivers/BSP/Components/vl53l1cb/modules/vl53l1_api_preset_modes.c **** 
 108:Drivers/BSP/Components/vl53l1cb/modules/vl53l1_api_preset_modes.c **** 
 109:Drivers/BSP/Components/vl53l1cb/modules/vl53l1_api_preset_modes.c **** 	VL53L1_Error  status = VL53L1_ERROR_NONE;
 146              		.loc 1 109 2 is_stmt 1 view .LVU41
 147              	.LVL6:
 110:Drivers/BSP/Components/vl53l1cb/modules/vl53l1_api_preset_modes.c **** 
 111:Drivers/BSP/Components/vl53l1cb/modules/vl53l1_api_preset_modes.c **** 	LOG_FUNCTION_START("");
 148              		.loc 1 111 24 view .LVU42
 112:Drivers/BSP/Components/vl53l1cb/modules/vl53l1_api_preset_modes.c **** 
 113:Drivers/BSP/Components/vl53l1cb/modules/vl53l1_api_preset_modes.c **** 
 114:Drivers/BSP/Components/vl53l1cb/modules/vl53l1_api_preset_modes.c **** 
 115:Drivers/BSP/Components/vl53l1cb/modules/vl53l1_api_preset_modes.c **** 
 116:Drivers/BSP/Components/vl53l1cb/modules/vl53l1_api_preset_modes.c **** 
 117:Drivers/BSP/Components/vl53l1cb/modules/vl53l1_api_preset_modes.c **** 	pdata->algo__crosstalk_compensation_plane_offset_kcps      =
 149              		.loc 1 117 2 view .LVU43
 118:Drivers/BSP/Components/vl53l1cb/modules/vl53l1_api_preset_modes.c **** 		pnvm->algo__crosstalk_compensation_plane_offset_kcps;
 150              		.loc 1 118 7 is_stmt 0 view .LVU44
 151 0004 4589     		ldrh	r5, [r0, #10]
 117:Drivers/BSP/Components/vl53l1cb/modules/vl53l1_api_preset_modes.c **** 		pnvm->algo__crosstalk_compensation_plane_offset_kcps;
 152              		.loc 1 117 61 view .LVU45
 153 0006 0D60     		str	r5, [r1]
 119:Drivers/BSP/Components/vl53l1cb/modules/vl53l1_api_preset_modes.c **** 	pdata->algo__crosstalk_compensation_x_plane_gradient_kcps  =
 154              		.loc 1 119 2 is_stmt 1 view .LVU46
 120:Drivers/BSP/Components/vl53l1cb/modules/vl53l1_api_preset_modes.c **** 		pnvm->algo__crosstalk_compensation_x_plane_gradient_kcps;
 155              		.loc 1 120 7 is_stmt 0 view .LVU47
 156 0008 B0F90C10 		ldrsh	r1, [r0, #12]
 157              	.LVL7:
 119:Drivers/BSP/Components/vl53l1cb/modules/vl53l1_api_preset_modes.c **** 	pdata->algo__crosstalk_compensation_x_plane_gradient_kcps  =
 158              		.loc 1 119 61 view .LVU48
 159 000c A180     		strh	r1, [r4, #4]	@ movhi
 121:Drivers/BSP/Components/vl53l1cb/modules/vl53l1_api_preset_modes.c **** 	pdata->algo__crosstalk_compensation_y_plane_gradient_kcps  =
 160              		.loc 1 121 2 is_stmt 1 view .LVU49
 122:Drivers/BSP/Components/vl53l1cb/modules/vl53l1_api_preset_modes.c **** 		pnvm->algo__crosstalk_compensation_y_plane_gradient_kcps;
 161              		.loc 1 122 7 is_stmt 0 view .LVU50
 162 000e B0F90E20 		ldrsh	r2, [r0, #14]
 121:Drivers/BSP/Components/vl53l1cb/modules/vl53l1_api_preset_modes.c **** 	pdata->algo__crosstalk_compensation_y_plane_gradient_kcps  =
 163              		.loc 1 121 61 view .LVU51
 164 0012 E280     		strh	r2, [r4, #6]	@ movhi
 123:Drivers/BSP/Components/vl53l1cb/modules/vl53l1_api_preset_modes.c **** 
ARM GAS  C:\Temp\ccoVwn9Y.s 			page 6


 124:Drivers/BSP/Components/vl53l1cb/modules/vl53l1_api_preset_modes.c **** 
 125:Drivers/BSP/Components/vl53l1cb/modules/vl53l1_api_preset_modes.c **** 
 126:Drivers/BSP/Components/vl53l1cb/modules/vl53l1_api_preset_modes.c **** 	pdata->nvm_default__crosstalk_compensation_plane_offset_kcps      =
 165              		.loc 1 126 2 is_stmt 1 view .LVU52
 127:Drivers/BSP/Components/vl53l1cb/modules/vl53l1_api_preset_modes.c **** 		(uint32_t)pnvm->algo__crosstalk_compensation_plane_offset_kcps;
 166              		.loc 1 127 17 is_stmt 0 view .LVU53
 167 0014 4389     		ldrh	r3, [r0, #10]
 126:Drivers/BSP/Components/vl53l1cb/modules/vl53l1_api_preset_modes.c **** 		(uint32_t)pnvm->algo__crosstalk_compensation_plane_offset_kcps;
 168              		.loc 1 126 68 view .LVU54
 169 0016 A360     		str	r3, [r4, #8]
 128:Drivers/BSP/Components/vl53l1cb/modules/vl53l1_api_preset_modes.c **** 	pdata->nvm_default__crosstalk_compensation_x_plane_gradient_kcps  =
 170              		.loc 1 128 2 is_stmt 1 view .LVU55
 129:Drivers/BSP/Components/vl53l1cb/modules/vl53l1_api_preset_modes.c **** 		pnvm->algo__crosstalk_compensation_x_plane_gradient_kcps;
 171              		.loc 1 129 7 is_stmt 0 view .LVU56
 172 0018 B0F90C30 		ldrsh	r3, [r0, #12]
 128:Drivers/BSP/Components/vl53l1cb/modules/vl53l1_api_preset_modes.c **** 	pdata->nvm_default__crosstalk_compensation_x_plane_gradient_kcps  =
 173              		.loc 1 128 68 view .LVU57
 174 001c A381     		strh	r3, [r4, #12]	@ movhi
 130:Drivers/BSP/Components/vl53l1cb/modules/vl53l1_api_preset_modes.c **** 	pdata->nvm_default__crosstalk_compensation_y_plane_gradient_kcps  =
 175              		.loc 1 130 2 is_stmt 1 view .LVU58
 131:Drivers/BSP/Components/vl53l1cb/modules/vl53l1_api_preset_modes.c **** 		pnvm->algo__crosstalk_compensation_y_plane_gradient_kcps;
 176              		.loc 1 131 7 is_stmt 0 view .LVU59
 177 001e B0F90E30 		ldrsh	r3, [r0, #14]
 130:Drivers/BSP/Components/vl53l1cb/modules/vl53l1_api_preset_modes.c **** 	pdata->nvm_default__crosstalk_compensation_y_plane_gradient_kcps  =
 178              		.loc 1 130 68 view .LVU60
 179 0022 E381     		strh	r3, [r4, #14]	@ movhi
 132:Drivers/BSP/Components/vl53l1cb/modules/vl53l1_api_preset_modes.c **** 
 133:Drivers/BSP/Components/vl53l1cb/modules/vl53l1_api_preset_modes.c **** 	pdata->histogram_mode_crosstalk_margin_kcps                =
 180              		.loc 1 133 2 is_stmt 1 view .LVU61
 181              		.loc 1 133 61 is_stmt 0 view .LVU62
 182 0024 4FF40073 		mov	r3, #512
 183 0028 6382     		strh	r3, [r4, #18]	@ movhi
 134:Drivers/BSP/Components/vl53l1cb/modules/vl53l1_api_preset_modes.c **** 			VL53L1_TUNINGPARM_HIST_XTALK_MARGIN_KCPS_DEFAULT;
 135:Drivers/BSP/Components/vl53l1cb/modules/vl53l1_api_preset_modes.c **** 	pdata->lite_mode_crosstalk_margin_kcps                     =
 184              		.loc 1 135 2 is_stmt 1 view .LVU63
 185              		.loc 1 135 61 is_stmt 0 view .LVU64
 186 002a 0023     		movs	r3, #0
 187 002c A382     		strh	r3, [r4, #20]	@ movhi
 136:Drivers/BSP/Components/vl53l1cb/modules/vl53l1_api_preset_modes.c **** 			VL53L1_TUNINGPARM_LITE_XTALK_MARGIN_KCPS_DEFAULT;
 137:Drivers/BSP/Components/vl53l1cb/modules/vl53l1_api_preset_modes.c **** 
 138:Drivers/BSP/Components/vl53l1cb/modules/vl53l1_api_preset_modes.c **** 
 139:Drivers/BSP/Components/vl53l1cb/modules/vl53l1_api_preset_modes.c **** 
 140:Drivers/BSP/Components/vl53l1cb/modules/vl53l1_api_preset_modes.c **** 	pdata->crosstalk_range_ignore_threshold_mult =
 188              		.loc 1 140 2 is_stmt 1 view .LVU65
 189              		.loc 1 140 47 is_stmt 0 view .LVU66
 190 002e 4023     		movs	r3, #64
 191 0030 A375     		strb	r3, [r4, #22]
 141:Drivers/BSP/Components/vl53l1cb/modules/vl53l1_api_preset_modes.c **** 			VL53L1_TUNINGPARM_LITE_RIT_MULT_DEFAULT;
 142:Drivers/BSP/Components/vl53l1cb/modules/vl53l1_api_preset_modes.c **** 
 143:Drivers/BSP/Components/vl53l1cb/modules/vl53l1_api_preset_modes.c **** 	if ((pdata->algo__crosstalk_compensation_plane_offset_kcps == 0x00)
 192              		.loc 1 143 2 is_stmt 1 view .LVU67
 193              		.loc 1 143 5 is_stmt 0 view .LVU68
 194 0032 1DB9     		cbnz	r5, .L4
 144:Drivers/BSP/Components/vl53l1cb/modules/vl53l1_api_preset_modes.c **** 		&& (pdata->algo__crosstalk_compensation_x_plane_gradient_kcps
 145:Drivers/BSP/Components/vl53l1cb/modules/vl53l1_api_preset_modes.c **** 				== 0x00)
 146:Drivers/BSP/Components/vl53l1cb/modules/vl53l1_api_preset_modes.c **** 		&& (pdata->algo__crosstalk_compensation_y_plane_gradient_kcps
 195              		.loc 1 146 3 view .LVU69
ARM GAS  C:\Temp\ccoVwn9Y.s 			page 7


 196 0034 6368     		ldr	r3, [r4, #4]
 197 0036 0BB9     		cbnz	r3, .L4
 147:Drivers/BSP/Components/vl53l1cb/modules/vl53l1_api_preset_modes.c **** 				== 0x00))
 148:Drivers/BSP/Components/vl53l1cb/modules/vl53l1_api_preset_modes.c **** 		pdata->global_crosstalk_compensation_enable = 0x00;
 198              		.loc 1 148 3 is_stmt 1 view .LVU70
 199              		.loc 1 148 47 is_stmt 0 view .LVU71
 200 0038 2374     		strb	r3, [r4, #16]
 201 003a 01E0     		b	.L5
 202              	.L4:
 149:Drivers/BSP/Components/vl53l1cb/modules/vl53l1_api_preset_modes.c **** 	else
 150:Drivers/BSP/Components/vl53l1cb/modules/vl53l1_api_preset_modes.c **** 		pdata->global_crosstalk_compensation_enable = 0x01;
 203              		.loc 1 150 3 is_stmt 1 view .LVU72
 204              		.loc 1 150 47 is_stmt 0 view .LVU73
 205 003c 0123     		movs	r3, #1
 206 003e 2374     		strb	r3, [r4, #16]
 207              	.L5:
 151:Drivers/BSP/Components/vl53l1cb/modules/vl53l1_api_preset_modes.c **** 
 152:Drivers/BSP/Components/vl53l1cb/modules/vl53l1_api_preset_modes.c **** 
 153:Drivers/BSP/Components/vl53l1cb/modules/vl53l1_api_preset_modes.c **** 	if ((status == VL53L1_ERROR_NONE) &&
 208              		.loc 1 153 2 is_stmt 1 view .LVU74
 154:Drivers/BSP/Components/vl53l1cb/modules/vl53l1_api_preset_modes.c **** 		(pdata->global_crosstalk_compensation_enable == 0x01)) {
 209              		.loc 1 154 9 is_stmt 0 view .LVU75
 210 0040 237C     		ldrb	r3, [r4, #16]	@ zero_extendqisi2
 153:Drivers/BSP/Components/vl53l1cb/modules/vl53l1_api_preset_modes.c **** 		(pdata->global_crosstalk_compensation_enable == 0x01)) {
 211              		.loc 1 153 36 view .LVU76
 212 0042 012B     		cmp	r3, #1
 213 0044 0DD0     		beq	.L9
 155:Drivers/BSP/Components/vl53l1cb/modules/vl53l1_api_preset_modes.c **** 		pdata->crosstalk_range_ignore_threshold_rate_mcps =
 156:Drivers/BSP/Components/vl53l1cb/modules/vl53l1_api_preset_modes.c **** 		VL53L1_calc_range_ignore_threshold(
 157:Drivers/BSP/Components/vl53l1cb/modules/vl53l1_api_preset_modes.c **** 		pdata->algo__crosstalk_compensation_plane_offset_kcps,
 158:Drivers/BSP/Components/vl53l1cb/modules/vl53l1_api_preset_modes.c **** 		pdata->algo__crosstalk_compensation_x_plane_gradient_kcps,
 159:Drivers/BSP/Components/vl53l1cb/modules/vl53l1_api_preset_modes.c **** 		pdata->algo__crosstalk_compensation_y_plane_gradient_kcps,
 160:Drivers/BSP/Components/vl53l1cb/modules/vl53l1_api_preset_modes.c **** 		pdata->crosstalk_range_ignore_threshold_mult);
 161:Drivers/BSP/Components/vl53l1cb/modules/vl53l1_api_preset_modes.c **** 	} else {
 162:Drivers/BSP/Components/vl53l1cb/modules/vl53l1_api_preset_modes.c **** 		pdata->crosstalk_range_ignore_threshold_rate_mcps = 0;
 214              		.loc 1 162 3 is_stmt 1 view .LVU77
 215              		.loc 1 162 53 is_stmt 0 view .LVU78
 216 0046 0023     		movs	r3, #0
 217 0048 2383     		strh	r3, [r4, #24]	@ movhi
 218              	.LVL8:
 219              	.L7:
 163:Drivers/BSP/Components/vl53l1cb/modules/vl53l1_api_preset_modes.c **** 	}
 164:Drivers/BSP/Components/vl53l1cb/modules/vl53l1_api_preset_modes.c **** 
 165:Drivers/BSP/Components/vl53l1cb/modules/vl53l1_api_preset_modes.c **** 
 166:Drivers/BSP/Components/vl53l1cb/modules/vl53l1_api_preset_modes.c **** 
 167:Drivers/BSP/Components/vl53l1cb/modules/vl53l1_api_preset_modes.c **** 
 168:Drivers/BSP/Components/vl53l1cb/modules/vl53l1_api_preset_modes.c **** 	pdata->algo__crosstalk_detect_min_valid_range_mm  =
 220              		.loc 1 168 2 is_stmt 1 view .LVU79
 221              		.loc 1 168 52 is_stmt 0 view .LVU80
 222 004a 4FF6CE73 		movw	r3, #65486
 223 004e 6383     		strh	r3, [r4, #26]	@ movhi
 169:Drivers/BSP/Components/vl53l1cb/modules/vl53l1_api_preset_modes.c **** 		VL53L1_TUNINGPARM_XTALK_DETECT_MIN_VALID_RANGE_MM_DEFAULT;
 170:Drivers/BSP/Components/vl53l1cb/modules/vl53l1_api_preset_modes.c **** 	pdata->algo__crosstalk_detect_max_valid_range_mm  =
 224              		.loc 1 170 2 is_stmt 1 view .LVU81
 225              		.loc 1 170 52 is_stmt 0 view .LVU82
 226 0050 3223     		movs	r3, #50
 227 0052 A383     		strh	r3, [r4, #28]	@ movhi
ARM GAS  C:\Temp\ccoVwn9Y.s 			page 8


 171:Drivers/BSP/Components/vl53l1cb/modules/vl53l1_api_preset_modes.c **** 		VL53L1_TUNINGPARM_XTALK_DETECT_MAX_VALID_RANGE_MM_DEFAULT;
 172:Drivers/BSP/Components/vl53l1cb/modules/vl53l1_api_preset_modes.c **** 	pdata->algo__crosstalk_detect_max_valid_rate_kcps =
 228              		.loc 1 172 2 is_stmt 1 view .LVU83
 229              		.loc 1 172 52 is_stmt 0 view .LVU84
 230 0054 4FF47A43 		mov	r3, #64000
 231 0058 E383     		strh	r3, [r4, #30]	@ movhi
 173:Drivers/BSP/Components/vl53l1cb/modules/vl53l1_api_preset_modes.c **** 		VL53L1_TUNINGPARM_XTALK_DETECT_MAX_VALID_RATE_KCPS_DEFAULT;
 174:Drivers/BSP/Components/vl53l1cb/modules/vl53l1_api_preset_modes.c **** 	pdata->algo__crosstalk_detect_max_sigma_mm        =
 232              		.loc 1 174 2 is_stmt 1 view .LVU85
 233              		.loc 1 174 52 is_stmt 0 view .LVU86
 234 005a 8C23     		movs	r3, #140
 235 005c 2384     		strh	r3, [r4, #32]	@ movhi
 175:Drivers/BSP/Components/vl53l1cb/modules/vl53l1_api_preset_modes.c **** 			VL53L1_TUNINGPARM_XTALK_DETECT_MAX_SIGMA_MM_DEFAULT;
 176:Drivers/BSP/Components/vl53l1cb/modules/vl53l1_api_preset_modes.c **** 
 177:Drivers/BSP/Components/vl53l1cb/modules/vl53l1_api_preset_modes.c **** 	LOG_FUNCTION_END(status);
 236              		.loc 1 177 26 is_stmt 1 view .LVU87
 178:Drivers/BSP/Components/vl53l1cb/modules/vl53l1_api_preset_modes.c **** 
 179:Drivers/BSP/Components/vl53l1cb/modules/vl53l1_api_preset_modes.c **** 	return status;
 237              		.loc 1 179 2 view .LVU88
 180:Drivers/BSP/Components/vl53l1cb/modules/vl53l1_api_preset_modes.c **** }
 238              		.loc 1 180 1 is_stmt 0 view .LVU89
 239 005e 0020     		movs	r0, #0
 240 0060 38BD     		pop	{r3, r4, r5, pc}
 241              	.LVL9:
 242              	.L9:
 155:Drivers/BSP/Components/vl53l1cb/modules/vl53l1_api_preset_modes.c **** 		VL53L1_calc_range_ignore_threshold(
 243              		.loc 1 155 3 is_stmt 1 view .LVU90
 156:Drivers/BSP/Components/vl53l1cb/modules/vl53l1_api_preset_modes.c **** 		pdata->algo__crosstalk_compensation_plane_offset_kcps,
 244              		.loc 1 156 3 is_stmt 0 view .LVU91
 245 0062 4023     		movs	r3, #64
 246 0064 2846     		mov	r0, r5
 247              	.LVL10:
 156:Drivers/BSP/Components/vl53l1cb/modules/vl53l1_api_preset_modes.c **** 		pdata->algo__crosstalk_compensation_plane_offset_kcps,
 248              		.loc 1 156 3 view .LVU92
 249 0066 FFF7FEFF 		bl	VL53L1_calc_range_ignore_threshold
 250              	.LVL11:
 155:Drivers/BSP/Components/vl53l1cb/modules/vl53l1_api_preset_modes.c **** 		VL53L1_calc_range_ignore_threshold(
 251              		.loc 1 155 53 view .LVU93
 252 006a 2083     		strh	r0, [r4, #24]	@ movhi
 253 006c EDE7     		b	.L7
 254              		.cfi_endproc
 255              	.LFE5:
 257              		.section	.text.VL53L1_init_xtalk_extract_config_struct,"ax",%progbits
 258              		.align	1
 259              		.global	VL53L1_init_xtalk_extract_config_struct
 260              		.syntax unified
 261              		.thumb
 262              		.thumb_func
 264              	VL53L1_init_xtalk_extract_config_struct:
 265              	.LVL12:
 266              	.LFB6:
 181:Drivers/BSP/Components/vl53l1cb/modules/vl53l1_api_preset_modes.c **** 
 182:Drivers/BSP/Components/vl53l1cb/modules/vl53l1_api_preset_modes.c **** VL53L1_Error VL53L1_init_xtalk_extract_config_struct(
 183:Drivers/BSP/Components/vl53l1cb/modules/vl53l1_api_preset_modes.c **** 	VL53L1_xtalkextract_config_t   *pdata)
 184:Drivers/BSP/Components/vl53l1cb/modules/vl53l1_api_preset_modes.c **** {
 267              		.loc 1 184 1 is_stmt 1 view -0
 268              		.cfi_startproc
ARM GAS  C:\Temp\ccoVwn9Y.s 			page 9


 269              		@ args = 0, pretend = 0, frame = 0
 270              		@ frame_needed = 0, uses_anonymous_args = 0
 271              		@ link register save eliminated.
 185:Drivers/BSP/Components/vl53l1cb/modules/vl53l1_api_preset_modes.c **** 
 186:Drivers/BSP/Components/vl53l1cb/modules/vl53l1_api_preset_modes.c **** 
 187:Drivers/BSP/Components/vl53l1cb/modules/vl53l1_api_preset_modes.c **** 	VL53L1_Error  status = VL53L1_ERROR_NONE;
 272              		.loc 1 187 2 view .LVU95
 188:Drivers/BSP/Components/vl53l1cb/modules/vl53l1_api_preset_modes.c **** 
 189:Drivers/BSP/Components/vl53l1cb/modules/vl53l1_api_preset_modes.c **** 	LOG_FUNCTION_START("");
 273              		.loc 1 189 24 view .LVU96
 190:Drivers/BSP/Components/vl53l1cb/modules/vl53l1_api_preset_modes.c **** 
 191:Drivers/BSP/Components/vl53l1cb/modules/vl53l1_api_preset_modes.c **** 
 192:Drivers/BSP/Components/vl53l1cb/modules/vl53l1_api_preset_modes.c **** 
 193:Drivers/BSP/Components/vl53l1cb/modules/vl53l1_api_preset_modes.c **** 	pdata->dss_config__target_total_rate_mcps          =
 274              		.loc 1 193 2 view .LVU97
 275              		.loc 1 193 53 is_stmt 0 view .LVU98
 276 0000 4FF4A053 		mov	r3, #5120
 277 0004 0380     		strh	r3, [r0]	@ movhi
 194:Drivers/BSP/Components/vl53l1cb/modules/vl53l1_api_preset_modes.c **** 			VL53L1_TUNINGPARM_XTALK_EXTRACT_DSS_RATE_MCPS_DEFAULT;
 195:Drivers/BSP/Components/vl53l1cb/modules/vl53l1_api_preset_modes.c **** 
 196:Drivers/BSP/Components/vl53l1cb/modules/vl53l1_api_preset_modes.c **** 	pdata->mm_config_timeout_us                        =
 278              		.loc 1 196 2 is_stmt 1 view .LVU99
 279              		.loc 1 196 53 is_stmt 0 view .LVU100
 280 0006 4FF4FA63 		mov	r3, #2000
 281 000a 8360     		str	r3, [r0, #8]
 197:Drivers/BSP/Components/vl53l1cb/modules/vl53l1_api_preset_modes.c **** 			VL53L1_TUNINGPARM_XTALK_EXTRACT_DSS_TIMEOUT_US_DEFAULT;
 198:Drivers/BSP/Components/vl53l1cb/modules/vl53l1_api_preset_modes.c **** 
 199:Drivers/BSP/Components/vl53l1cb/modules/vl53l1_api_preset_modes.c **** 	pdata->num_of_samples                              =
 282              		.loc 1 199 2 is_stmt 1 view .LVU101
 283              		.loc 1 199 53 is_stmt 0 view .LVU102
 284 000c 0723     		movs	r3, #7
 285 000e 0374     		strb	r3, [r0, #16]
 200:Drivers/BSP/Components/vl53l1cb/modules/vl53l1_api_preset_modes.c **** 			VL53L1_TUNINGPARM_XTALK_EXTRACT_NUM_OF_SAMPLES_DEFAULT;
 201:Drivers/BSP/Components/vl53l1cb/modules/vl53l1_api_preset_modes.c **** 
 202:Drivers/BSP/Components/vl53l1cb/modules/vl53l1_api_preset_modes.c **** 	pdata->phasecal_config_timeout_us                  =
 286              		.loc 1 202 2 is_stmt 1 view .LVU103
 287              		.loc 1 202 53 is_stmt 0 view .LVU104
 288 0010 43F69823 		movw	r3, #15000
 289 0014 4360     		str	r3, [r0, #4]
 203:Drivers/BSP/Components/vl53l1cb/modules/vl53l1_api_preset_modes.c **** 		VL53L1_TUNINGPARM_XTALK_EXTRACT_PHASECAL_TIMEOUT_US_DEFAULT;
 204:Drivers/BSP/Components/vl53l1cb/modules/vl53l1_api_preset_modes.c **** 
 205:Drivers/BSP/Components/vl53l1cb/modules/vl53l1_api_preset_modes.c **** 	pdata->range_config_timeout_us                     =
 290              		.loc 1 205 2 is_stmt 1 view .LVU105
 291              		.loc 1 205 53 is_stmt 0 view .LVU106
 292 0016 42F21073 		movw	r3, #10000
 293 001a C360     		str	r3, [r0, #12]
 206:Drivers/BSP/Components/vl53l1cb/modules/vl53l1_api_preset_modes.c **** 			VL53L1_TUNINGPARM_XTALK_EXTRACT_BIN_TIMEOUT_US_DEFAULT;
 207:Drivers/BSP/Components/vl53l1cb/modules/vl53l1_api_preset_modes.c **** 
 208:Drivers/BSP/Components/vl53l1cb/modules/vl53l1_api_preset_modes.c **** 
 209:Drivers/BSP/Components/vl53l1cb/modules/vl53l1_api_preset_modes.c **** 
 210:Drivers/BSP/Components/vl53l1cb/modules/vl53l1_api_preset_modes.c **** 
 211:Drivers/BSP/Components/vl53l1cb/modules/vl53l1_api_preset_modes.c **** 	pdata->algo__crosstalk_extract_min_valid_range_mm  =
 294              		.loc 1 211 2 is_stmt 1 view .LVU107
 295              		.loc 1 211 53 is_stmt 0 view .LVU108
 296 001c 4FF6BA73 		movw	r3, #65466
 297 0020 4382     		strh	r3, [r0, #18]	@ movhi
 212:Drivers/BSP/Components/vl53l1cb/modules/vl53l1_api_preset_modes.c **** 		VL53L1_TUNINGPARM_XTALK_EXTRACT_MIN_FILTER_THRESH_MM_DEFAULT;
ARM GAS  C:\Temp\ccoVwn9Y.s 			page 10


 213:Drivers/BSP/Components/vl53l1cb/modules/vl53l1_api_preset_modes.c **** 	pdata->algo__crosstalk_extract_max_valid_range_mm  =
 298              		.loc 1 213 2 is_stmt 1 view .LVU109
 299              		.loc 1 213 53 is_stmt 0 view .LVU110
 300 0022 4623     		movs	r3, #70
 301 0024 8382     		strh	r3, [r0, #20]	@ movhi
 214:Drivers/BSP/Components/vl53l1cb/modules/vl53l1_api_preset_modes.c **** 		VL53L1_TUNINGPARM_XTALK_EXTRACT_MAX_FILTER_THRESH_MM_DEFAULT;
 215:Drivers/BSP/Components/vl53l1cb/modules/vl53l1_api_preset_modes.c **** 	pdata->algo__crosstalk_extract_max_valid_rate_kcps =
 302              		.loc 1 215 2 is_stmt 1 view .LVU111
 303              		.loc 1 215 53 is_stmt 0 view .LVU112
 304 0026 4FF47A43 		mov	r3, #64000
 305 002a C382     		strh	r3, [r0, #22]	@ movhi
 216:Drivers/BSP/Components/vl53l1cb/modules/vl53l1_api_preset_modes.c **** 		VL53L1_TUNINGPARM_XTALK_EXTRACT_MAX_VALID_RATE_KCPS_DEFAULT;
 217:Drivers/BSP/Components/vl53l1cb/modules/vl53l1_api_preset_modes.c **** 	pdata->algo__crosstalk_extract_max_sigma_mm        =
 306              		.loc 1 217 2 is_stmt 1 view .LVU113
 307              		.loc 1 217 53 is_stmt 0 view .LVU114
 308 002c 8C23     		movs	r3, #140
 309 002e 0383     		strh	r3, [r0, #24]	@ movhi
 218:Drivers/BSP/Components/vl53l1cb/modules/vl53l1_api_preset_modes.c **** 		VL53L1_TUNINGPARM_XTALK_EXTRACT_SIGMA_THRESHOLD_MM_DEFAULT;
 219:Drivers/BSP/Components/vl53l1cb/modules/vl53l1_api_preset_modes.c **** 
 220:Drivers/BSP/Components/vl53l1cb/modules/vl53l1_api_preset_modes.c **** 
 221:Drivers/BSP/Components/vl53l1cb/modules/vl53l1_api_preset_modes.c **** 	LOG_FUNCTION_END(status);
 310              		.loc 1 221 26 is_stmt 1 view .LVU115
 222:Drivers/BSP/Components/vl53l1cb/modules/vl53l1_api_preset_modes.c **** 
 223:Drivers/BSP/Components/vl53l1cb/modules/vl53l1_api_preset_modes.c **** 	return status;
 311              		.loc 1 223 2 view .LVU116
 224:Drivers/BSP/Components/vl53l1cb/modules/vl53l1_api_preset_modes.c **** }
 312              		.loc 1 224 1 is_stmt 0 view .LVU117
 313 0030 0020     		movs	r0, #0
 314              	.LVL13:
 315              		.loc 1 224 1 view .LVU118
 316 0032 7047     		bx	lr
 317              		.cfi_endproc
 318              	.LFE6:
 320              		.section	.text.VL53L1_init_offset_cal_config_struct,"ax",%progbits
 321              		.align	1
 322              		.global	VL53L1_init_offset_cal_config_struct
 323              		.syntax unified
 324              		.thumb
 325              		.thumb_func
 327              	VL53L1_init_offset_cal_config_struct:
 328              	.LVL14:
 329              	.LFB7:
 225:Drivers/BSP/Components/vl53l1cb/modules/vl53l1_api_preset_modes.c **** 
 226:Drivers/BSP/Components/vl53l1cb/modules/vl53l1_api_preset_modes.c **** 
 227:Drivers/BSP/Components/vl53l1cb/modules/vl53l1_api_preset_modes.c **** VL53L1_Error VL53L1_init_offset_cal_config_struct(
 228:Drivers/BSP/Components/vl53l1cb/modules/vl53l1_api_preset_modes.c **** 	VL53L1_offsetcal_config_t   *pdata)
 229:Drivers/BSP/Components/vl53l1cb/modules/vl53l1_api_preset_modes.c **** {
 330              		.loc 1 229 1 is_stmt 1 view -0
 331              		.cfi_startproc
 332              		@ args = 0, pretend = 0, frame = 0
 333              		@ frame_needed = 0, uses_anonymous_args = 0
 334              		@ link register save eliminated.
 230:Drivers/BSP/Components/vl53l1cb/modules/vl53l1_api_preset_modes.c **** 
 231:Drivers/BSP/Components/vl53l1cb/modules/vl53l1_api_preset_modes.c **** 
 232:Drivers/BSP/Components/vl53l1cb/modules/vl53l1_api_preset_modes.c **** 	VL53L1_Error  status = VL53L1_ERROR_NONE;
 335              		.loc 1 232 2 view .LVU120
 233:Drivers/BSP/Components/vl53l1cb/modules/vl53l1_api_preset_modes.c **** 
ARM GAS  C:\Temp\ccoVwn9Y.s 			page 11


 234:Drivers/BSP/Components/vl53l1cb/modules/vl53l1_api_preset_modes.c **** 	LOG_FUNCTION_START("");
 336              		.loc 1 234 24 view .LVU121
 235:Drivers/BSP/Components/vl53l1cb/modules/vl53l1_api_preset_modes.c **** 
 236:Drivers/BSP/Components/vl53l1cb/modules/vl53l1_api_preset_modes.c **** 
 237:Drivers/BSP/Components/vl53l1cb/modules/vl53l1_api_preset_modes.c **** 
 238:Drivers/BSP/Components/vl53l1cb/modules/vl53l1_api_preset_modes.c **** 	pdata->dss_config__target_total_rate_mcps          =
 337              		.loc 1 238 2 view .LVU122
 338              		.loc 1 238 53 is_stmt 0 view .LVU123
 339 0000 4FF42063 		mov	r3, #2560
 340 0004 0380     		strh	r3, [r0]	@ movhi
 239:Drivers/BSP/Components/vl53l1cb/modules/vl53l1_api_preset_modes.c **** 			VL53L1_TUNINGPARM_OFFSET_CAL_DSS_RATE_MCPS_DEFAULT;
 240:Drivers/BSP/Components/vl53l1cb/modules/vl53l1_api_preset_modes.c **** 
 241:Drivers/BSP/Components/vl53l1cb/modules/vl53l1_api_preset_modes.c **** 	pdata->phasecal_config_timeout_us                  =
 341              		.loc 1 241 2 is_stmt 1 view .LVU124
 342              		.loc 1 241 53 is_stmt 0 view .LVU125
 343 0006 43F69823 		movw	r3, #15000
 344 000a 4360     		str	r3, [r0, #4]
 242:Drivers/BSP/Components/vl53l1cb/modules/vl53l1_api_preset_modes.c **** 		VL53L1_TUNINGPARM_OFFSET_CAL_PHASECAL_TIMEOUT_US_DEFAULT;
 243:Drivers/BSP/Components/vl53l1cb/modules/vl53l1_api_preset_modes.c **** 
 244:Drivers/BSP/Components/vl53l1cb/modules/vl53l1_api_preset_modes.c **** 	pdata->range_config_timeout_us                     =
 345              		.loc 1 244 2 is_stmt 1 view .LVU126
 346              		.loc 1 244 53 is_stmt 0 view .LVU127
 347 000c 43F2C823 		movw	r3, #13000
 348 0010 8360     		str	r3, [r0, #8]
 245:Drivers/BSP/Components/vl53l1cb/modules/vl53l1_api_preset_modes.c **** 			VL53L1_TUNINGPARM_OFFSET_CAL_RANGE_TIMEOUT_US_DEFAULT;
 246:Drivers/BSP/Components/vl53l1cb/modules/vl53l1_api_preset_modes.c **** 
 247:Drivers/BSP/Components/vl53l1cb/modules/vl53l1_api_preset_modes.c **** 	pdata->mm_config_timeout_us                        =
 349              		.loc 1 247 2 is_stmt 1 view .LVU128
 350              		.loc 1 247 53 is_stmt 0 view .LVU129
 351 0012 C360     		str	r3, [r0, #12]
 248:Drivers/BSP/Components/vl53l1cb/modules/vl53l1_api_preset_modes.c **** 			VL53L1_TUNINGPARM_OFFSET_CAL_MM_TIMEOUT_US_DEFAULT;
 249:Drivers/BSP/Components/vl53l1cb/modules/vl53l1_api_preset_modes.c **** 
 250:Drivers/BSP/Components/vl53l1cb/modules/vl53l1_api_preset_modes.c **** 
 251:Drivers/BSP/Components/vl53l1cb/modules/vl53l1_api_preset_modes.c **** 
 252:Drivers/BSP/Components/vl53l1cb/modules/vl53l1_api_preset_modes.c **** 
 253:Drivers/BSP/Components/vl53l1cb/modules/vl53l1_api_preset_modes.c **** 	pdata->pre_num_of_samples                          =
 352              		.loc 1 253 2 is_stmt 1 view .LVU130
 353              		.loc 1 253 53 is_stmt 0 view .LVU131
 354 0014 0823     		movs	r3, #8
 355 0016 0374     		strb	r3, [r0, #16]
 254:Drivers/BSP/Components/vl53l1cb/modules/vl53l1_api_preset_modes.c **** 			VL53L1_TUNINGPARM_OFFSET_CAL_PRE_SAMPLES_DEFAULT;
 255:Drivers/BSP/Components/vl53l1cb/modules/vl53l1_api_preset_modes.c **** 	pdata->mm1_num_of_samples                          =
 356              		.loc 1 255 2 is_stmt 1 view .LVU132
 357              		.loc 1 255 53 is_stmt 0 view .LVU133
 358 0018 2823     		movs	r3, #40
 359 001a 4374     		strb	r3, [r0, #17]
 256:Drivers/BSP/Components/vl53l1cb/modules/vl53l1_api_preset_modes.c **** 			VL53L1_TUNINGPARM_OFFSET_CAL_MM1_SAMPLES_DEFAULT;
 257:Drivers/BSP/Components/vl53l1cb/modules/vl53l1_api_preset_modes.c **** 	pdata->mm2_num_of_samples                          =
 360              		.loc 1 257 2 is_stmt 1 view .LVU134
 361              		.loc 1 257 53 is_stmt 0 view .LVU135
 362 001c 0923     		movs	r3, #9
 363 001e 8374     		strb	r3, [r0, #18]
 258:Drivers/BSP/Components/vl53l1cb/modules/vl53l1_api_preset_modes.c **** 			VL53L1_TUNINGPARM_OFFSET_CAL_MM2_SAMPLES_DEFAULT;
 259:Drivers/BSP/Components/vl53l1cb/modules/vl53l1_api_preset_modes.c **** 
 260:Drivers/BSP/Components/vl53l1cb/modules/vl53l1_api_preset_modes.c **** 	LOG_FUNCTION_END(status);
 364              		.loc 1 260 26 is_stmt 1 view .LVU136
 261:Drivers/BSP/Components/vl53l1cb/modules/vl53l1_api_preset_modes.c **** 
ARM GAS  C:\Temp\ccoVwn9Y.s 			page 12


 262:Drivers/BSP/Components/vl53l1cb/modules/vl53l1_api_preset_modes.c **** 	return status;
 365              		.loc 1 262 2 view .LVU137
 263:Drivers/BSP/Components/vl53l1cb/modules/vl53l1_api_preset_modes.c **** }
 366              		.loc 1 263 1 is_stmt 0 view .LVU138
 367 0020 0020     		movs	r0, #0
 368              	.LVL15:
 369              		.loc 1 263 1 view .LVU139
 370 0022 7047     		bx	lr
 371              		.cfi_endproc
 372              	.LFE7:
 374              		.section	.text.VL53L1_init_zone_cal_config_struct,"ax",%progbits
 375              		.align	1
 376              		.global	VL53L1_init_zone_cal_config_struct
 377              		.syntax unified
 378              		.thumb
 379              		.thumb_func
 381              	VL53L1_init_zone_cal_config_struct:
 382              	.LVL16:
 383              	.LFB8:
 264:Drivers/BSP/Components/vl53l1cb/modules/vl53l1_api_preset_modes.c **** 
 265:Drivers/BSP/Components/vl53l1cb/modules/vl53l1_api_preset_modes.c **** VL53L1_Error VL53L1_init_zone_cal_config_struct(
 266:Drivers/BSP/Components/vl53l1cb/modules/vl53l1_api_preset_modes.c **** 	VL53L1_zonecal_config_t   *pdata)
 267:Drivers/BSP/Components/vl53l1cb/modules/vl53l1_api_preset_modes.c **** {
 384              		.loc 1 267 1 is_stmt 1 view -0
 385              		.cfi_startproc
 386              		@ args = 0, pretend = 0, frame = 0
 387              		@ frame_needed = 0, uses_anonymous_args = 0
 388              		@ link register save eliminated.
 268:Drivers/BSP/Components/vl53l1cb/modules/vl53l1_api_preset_modes.c **** 
 269:Drivers/BSP/Components/vl53l1cb/modules/vl53l1_api_preset_modes.c **** 
 270:Drivers/BSP/Components/vl53l1cb/modules/vl53l1_api_preset_modes.c **** 	VL53L1_Error  status = VL53L1_ERROR_NONE;
 389              		.loc 1 270 2 view .LVU141
 271:Drivers/BSP/Components/vl53l1cb/modules/vl53l1_api_preset_modes.c **** 
 272:Drivers/BSP/Components/vl53l1cb/modules/vl53l1_api_preset_modes.c **** 	LOG_FUNCTION_START("");
 390              		.loc 1 272 24 view .LVU142
 273:Drivers/BSP/Components/vl53l1cb/modules/vl53l1_api_preset_modes.c **** 
 274:Drivers/BSP/Components/vl53l1cb/modules/vl53l1_api_preset_modes.c **** 
 275:Drivers/BSP/Components/vl53l1cb/modules/vl53l1_api_preset_modes.c **** 
 276:Drivers/BSP/Components/vl53l1cb/modules/vl53l1_api_preset_modes.c **** 	pdata->dss_config__target_total_rate_mcps          =
 391              		.loc 1 276 2 view .LVU143
 392              		.loc 1 276 53 is_stmt 0 view .LVU144
 393 0000 4FF4A053 		mov	r3, #5120
 394 0004 0380     		strh	r3, [r0]	@ movhi
 277:Drivers/BSP/Components/vl53l1cb/modules/vl53l1_api_preset_modes.c **** 			VL53L1_TUNINGPARM_ZONE_CAL_DSS_RATE_MCPS_DEFAULT;
 278:Drivers/BSP/Components/vl53l1cb/modules/vl53l1_api_preset_modes.c **** 
 279:Drivers/BSP/Components/vl53l1cb/modules/vl53l1_api_preset_modes.c **** 	pdata->phasecal_config_timeout_us                  =
 395              		.loc 1 279 2 is_stmt 1 view .LVU145
 396              		.loc 1 279 53 is_stmt 0 view .LVU146
 397 0006 43F69823 		movw	r3, #15000
 398 000a 4360     		str	r3, [r0, #4]
 280:Drivers/BSP/Components/vl53l1cb/modules/vl53l1_api_preset_modes.c **** 			VL53L1_TUNINGPARM_ZONE_CAL_PHASECAL_TIMEOUT_US_DEFAULT;
 281:Drivers/BSP/Components/vl53l1cb/modules/vl53l1_api_preset_modes.c **** 
 282:Drivers/BSP/Components/vl53l1cb/modules/vl53l1_api_preset_modes.c **** 	pdata->range_config_timeout_us                     =
 399              		.loc 1 282 2 is_stmt 1 view .LVU147
 400              		.loc 1 282 53 is_stmt 0 view .LVU148
 401 000c 4FF47A73 		mov	r3, #1000
 402 0010 C360     		str	r3, [r0, #12]
ARM GAS  C:\Temp\ccoVwn9Y.s 			page 13


 283:Drivers/BSP/Components/vl53l1cb/modules/vl53l1_api_preset_modes.c **** 			VL53L1_TUNINGPARM_ZONE_CAL_RANGE_TIMEOUT_US_DEFAULT;
 284:Drivers/BSP/Components/vl53l1cb/modules/vl53l1_api_preset_modes.c **** 
 285:Drivers/BSP/Components/vl53l1cb/modules/vl53l1_api_preset_modes.c **** 	pdata->mm_config_timeout_us                        =
 403              		.loc 1 285 2 is_stmt 1 view .LVU149
 404              		.loc 1 285 53 is_stmt 0 view .LVU150
 405 0012 4FF4FA63 		mov	r3, #2000
 406 0016 8360     		str	r3, [r0, #8]
 286:Drivers/BSP/Components/vl53l1cb/modules/vl53l1_api_preset_modes.c **** 			VL53L1_TUNINGPARM_ZONE_CAL_DSS_TIMEOUT_US_DEFAULT;
 287:Drivers/BSP/Components/vl53l1cb/modules/vl53l1_api_preset_modes.c **** 
 288:Drivers/BSP/Components/vl53l1cb/modules/vl53l1_api_preset_modes.c **** 
 289:Drivers/BSP/Components/vl53l1cb/modules/vl53l1_api_preset_modes.c **** 
 290:Drivers/BSP/Components/vl53l1cb/modules/vl53l1_api_preset_modes.c **** 
 291:Drivers/BSP/Components/vl53l1cb/modules/vl53l1_api_preset_modes.c **** 	pdata->phasecal_num_of_samples                     =
 407              		.loc 1 291 2 is_stmt 1 view .LVU151
 408              		.loc 1 291 53 is_stmt 0 view .LVU152
 409 0018 1023     		movs	r3, #16
 410 001a 0382     		strh	r3, [r0, #16]	@ movhi
 292:Drivers/BSP/Components/vl53l1cb/modules/vl53l1_api_preset_modes.c **** 			VL53L1_TUNINGPARM_ZONE_CAL_PHASECAL_NUM_SAMPLES_DEFAULT;
 293:Drivers/BSP/Components/vl53l1cb/modules/vl53l1_api_preset_modes.c **** 	pdata->zone_num_of_samples                         =
 411              		.loc 1 293 2 is_stmt 1 view .LVU153
 412              		.loc 1 293 53 is_stmt 0 view .LVU154
 413 001c 0823     		movs	r3, #8
 414 001e 4382     		strh	r3, [r0, #18]	@ movhi
 294:Drivers/BSP/Components/vl53l1cb/modules/vl53l1_api_preset_modes.c **** 			VL53L1_TUNINGPARM_ZONE_CAL_ZONE_NUM_SAMPLES_DEFAULT;
 295:Drivers/BSP/Components/vl53l1cb/modules/vl53l1_api_preset_modes.c **** 
 296:Drivers/BSP/Components/vl53l1cb/modules/vl53l1_api_preset_modes.c **** 	LOG_FUNCTION_END(status);
 415              		.loc 1 296 26 is_stmt 1 view .LVU155
 297:Drivers/BSP/Components/vl53l1cb/modules/vl53l1_api_preset_modes.c **** 
 298:Drivers/BSP/Components/vl53l1cb/modules/vl53l1_api_preset_modes.c **** 	return status;
 416              		.loc 1 298 2 view .LVU156
 299:Drivers/BSP/Components/vl53l1cb/modules/vl53l1_api_preset_modes.c **** }
 417              		.loc 1 299 1 is_stmt 0 view .LVU157
 418 0020 0020     		movs	r0, #0
 419              	.LVL17:
 420              		.loc 1 299 1 view .LVU158
 421 0022 7047     		bx	lr
 422              		.cfi_endproc
 423              	.LFE8:
 425              		.section	.text.VL53L1_init_hist_post_process_config_struct,"ax",%progbits
 426              		.align	1
 427              		.global	VL53L1_init_hist_post_process_config_struct
 428              		.syntax unified
 429              		.thumb
 430              		.thumb_func
 432              	VL53L1_init_hist_post_process_config_struct:
 433              	.LVL18:
 434              	.LFB9:
 300:Drivers/BSP/Components/vl53l1cb/modules/vl53l1_api_preset_modes.c **** 
 301:Drivers/BSP/Components/vl53l1cb/modules/vl53l1_api_preset_modes.c **** 
 302:Drivers/BSP/Components/vl53l1cb/modules/vl53l1_api_preset_modes.c **** VL53L1_Error VL53L1_init_hist_post_process_config_struct(
 303:Drivers/BSP/Components/vl53l1cb/modules/vl53l1_api_preset_modes.c **** 	uint8_t                             xtalk_compensation_enable,
 304:Drivers/BSP/Components/vl53l1cb/modules/vl53l1_api_preset_modes.c **** 	VL53L1_hist_post_process_config_t   *pdata)
 305:Drivers/BSP/Components/vl53l1cb/modules/vl53l1_api_preset_modes.c **** {
 435              		.loc 1 305 1 is_stmt 1 view -0
 436              		.cfi_startproc
 437              		@ args = 0, pretend = 0, frame = 0
 438              		@ frame_needed = 0, uses_anonymous_args = 0
ARM GAS  C:\Temp\ccoVwn9Y.s 			page 14


 439              		.loc 1 305 1 is_stmt 0 view .LVU160
 440 0000 10B5     		push	{r4, lr}
 441              		.cfi_def_cfa_offset 8
 442              		.cfi_offset 4, -8
 443              		.cfi_offset 14, -4
 306:Drivers/BSP/Components/vl53l1cb/modules/vl53l1_api_preset_modes.c **** 
 307:Drivers/BSP/Components/vl53l1cb/modules/vl53l1_api_preset_modes.c **** 
 308:Drivers/BSP/Components/vl53l1cb/modules/vl53l1_api_preset_modes.c **** 	VL53L1_Error  status = VL53L1_ERROR_NONE;
 444              		.loc 1 308 2 is_stmt 1 view .LVU161
 445              	.LVL19:
 309:Drivers/BSP/Components/vl53l1cb/modules/vl53l1_api_preset_modes.c **** 
 310:Drivers/BSP/Components/vl53l1cb/modules/vl53l1_api_preset_modes.c **** 	LOG_FUNCTION_START("");
 446              		.loc 1 310 24 view .LVU162
 311:Drivers/BSP/Components/vl53l1cb/modules/vl53l1_api_preset_modes.c **** 
 312:Drivers/BSP/Components/vl53l1cb/modules/vl53l1_api_preset_modes.c **** 
 313:Drivers/BSP/Components/vl53l1cb/modules/vl53l1_api_preset_modes.c **** 
 314:Drivers/BSP/Components/vl53l1cb/modules/vl53l1_api_preset_modes.c **** 	pdata->hist_algo_select =
 447              		.loc 1 314 2 view .LVU163
 448              		.loc 1 314 26 is_stmt 0 view .LVU164
 449 0002 0423     		movs	r3, #4
 450 0004 0B70     		strb	r3, [r1]
 315:Drivers/BSP/Components/vl53l1cb/modules/vl53l1_api_preset_modes.c **** 			VL53L1_TUNINGPARM_HIST_ALGO_SELECT_DEFAULT;
 316:Drivers/BSP/Components/vl53l1cb/modules/vl53l1_api_preset_modes.c **** 
 317:Drivers/BSP/Components/vl53l1cb/modules/vl53l1_api_preset_modes.c **** 
 318:Drivers/BSP/Components/vl53l1cb/modules/vl53l1_api_preset_modes.c **** 
 319:Drivers/BSP/Components/vl53l1cb/modules/vl53l1_api_preset_modes.c **** 	pdata->hist_target_order =
 451              		.loc 1 319 2 is_stmt 1 view .LVU165
 452              		.loc 1 319 27 is_stmt 0 view .LVU166
 453 0006 0123     		movs	r3, #1
 454 0008 4B70     		strb	r3, [r1, #1]
 320:Drivers/BSP/Components/vl53l1cb/modules/vl53l1_api_preset_modes.c **** 			VL53L1_TUNINGPARM_HIST_TARGET_ORDER_DEFAULT;
 321:Drivers/BSP/Components/vl53l1cb/modules/vl53l1_api_preset_modes.c **** 
 322:Drivers/BSP/Components/vl53l1cb/modules/vl53l1_api_preset_modes.c **** 
 323:Drivers/BSP/Components/vl53l1cb/modules/vl53l1_api_preset_modes.c **** 
 324:Drivers/BSP/Components/vl53l1cb/modules/vl53l1_api_preset_modes.c **** 	pdata->filter_woi0                   =
 455              		.loc 1 324 2 is_stmt 1 view .LVU167
 456              		.loc 1 324 39 is_stmt 0 view .LVU168
 457 000a 8B70     		strb	r3, [r1, #2]
 325:Drivers/BSP/Components/vl53l1cb/modules/vl53l1_api_preset_modes.c **** 			VL53L1_TUNINGPARM_HIST_FILTER_WOI_0_DEFAULT;
 326:Drivers/BSP/Components/vl53l1cb/modules/vl53l1_api_preset_modes.c **** 	pdata->filter_woi1                   =
 458              		.loc 1 326 2 is_stmt 1 view .LVU169
 459              		.loc 1 326 39 is_stmt 0 view .LVU170
 460 000c 0222     		movs	r2, #2
 461 000e CA70     		strb	r2, [r1, #3]
 327:Drivers/BSP/Components/vl53l1cb/modules/vl53l1_api_preset_modes.c **** 			VL53L1_TUNINGPARM_HIST_FILTER_WOI_1_DEFAULT;
 328:Drivers/BSP/Components/vl53l1cb/modules/vl53l1_api_preset_modes.c **** 
 329:Drivers/BSP/Components/vl53l1cb/modules/vl53l1_api_preset_modes.c **** 
 330:Drivers/BSP/Components/vl53l1cb/modules/vl53l1_api_preset_modes.c **** 	pdata->hist_amb_est_method =
 462              		.loc 1 330 2 is_stmt 1 view .LVU171
 463              		.loc 1 330 29 is_stmt 0 view .LVU172
 464 0010 0B71     		strb	r3, [r1, #4]
 331:Drivers/BSP/Components/vl53l1cb/modules/vl53l1_api_preset_modes.c **** 			VL53L1_TUNINGPARM_HIST_AMB_EST_METHOD_DEFAULT;
 332:Drivers/BSP/Components/vl53l1cb/modules/vl53l1_api_preset_modes.c **** 
 333:Drivers/BSP/Components/vl53l1cb/modules/vl53l1_api_preset_modes.c **** 	pdata->ambient_thresh_sigma0         =
 465              		.loc 1 333 2 is_stmt 1 view .LVU173
 466              		.loc 1 333 39 is_stmt 0 view .LVU174
 467 0012 4FF0500C 		mov	ip, #80
ARM GAS  C:\Temp\ccoVwn9Y.s 			page 15


 468 0016 81F805C0 		strb	ip, [r1, #5]
 334:Drivers/BSP/Components/vl53l1cb/modules/vl53l1_api_preset_modes.c **** 			VL53L1_TUNINGPARM_HIST_AMB_THRESH_SIGMA_0_DEFAULT;
 335:Drivers/BSP/Components/vl53l1cb/modules/vl53l1_api_preset_modes.c **** 	pdata->ambient_thresh_sigma1         =
 469              		.loc 1 335 2 is_stmt 1 view .LVU175
 470              		.loc 1 335 39 is_stmt 0 view .LVU176
 471 001a 7022     		movs	r2, #112
 472 001c 8A71     		strb	r2, [r1, #6]
 336:Drivers/BSP/Components/vl53l1cb/modules/vl53l1_api_preset_modes.c **** 			VL53L1_TUNINGPARM_HIST_AMB_THRESH_SIGMA_1_DEFAULT;
 337:Drivers/BSP/Components/vl53l1cb/modules/vl53l1_api_preset_modes.c **** 
 338:Drivers/BSP/Components/vl53l1cb/modules/vl53l1_api_preset_modes.c **** 
 339:Drivers/BSP/Components/vl53l1cb/modules/vl53l1_api_preset_modes.c **** 	pdata->ambient_thresh_events_scaler     =
 473              		.loc 1 339 2 is_stmt 1 view .LVU177
 474              		.loc 1 339 42 is_stmt 0 view .LVU178
 475 001e 41F23D02 		movw	r2, #4157
 476 0022 0A81     		strh	r2, [r1, #8]	@ movhi
 340:Drivers/BSP/Components/vl53l1cb/modules/vl53l1_api_preset_modes.c **** 			VL53L1_TUNINGPARM_HIST_AMB_EVENTS_SCALER_DEFAULT;
 341:Drivers/BSP/Components/vl53l1cb/modules/vl53l1_api_preset_modes.c **** 
 342:Drivers/BSP/Components/vl53l1cb/modules/vl53l1_api_preset_modes.c **** 
 343:Drivers/BSP/Components/vl53l1cb/modules/vl53l1_api_preset_modes.c **** 	pdata->min_ambient_thresh_events     =
 477              		.loc 1 343 2 is_stmt 1 view .LVU179
 478              		.loc 1 343 39 is_stmt 0 view .LVU180
 479 0024 1022     		movs	r2, #16
 480 0026 CA60     		str	r2, [r1, #12]
 344:Drivers/BSP/Components/vl53l1cb/modules/vl53l1_api_preset_modes.c **** 			VL53L1_TUNINGPARM_HIST_MIN_AMB_THRESH_EVENTS_DEFAULT;
 345:Drivers/BSP/Components/vl53l1cb/modules/vl53l1_api_preset_modes.c **** 
 346:Drivers/BSP/Components/vl53l1cb/modules/vl53l1_api_preset_modes.c **** 	pdata->noise_threshold               =
 481              		.loc 1 346 2 is_stmt 1 view .LVU181
 482              		.loc 1 346 39 is_stmt 0 view .LVU182
 483 0028 3222     		movs	r2, #50
 484 002a 0A82     		strh	r2, [r1, #16]	@ movhi
 347:Drivers/BSP/Components/vl53l1cb/modules/vl53l1_api_preset_modes.c **** 			VL53L1_TUNINGPARM_HIST_NOISE_THRESHOLD_DEFAULT;
 348:Drivers/BSP/Components/vl53l1cb/modules/vl53l1_api_preset_modes.c **** 
 349:Drivers/BSP/Components/vl53l1cb/modules/vl53l1_api_preset_modes.c **** 	pdata->signal_total_events_limit     =
 485              		.loc 1 349 2 is_stmt 1 view .LVU183
 486              		.loc 1 349 39 is_stmt 0 view .LVU184
 487 002c 6424     		movs	r4, #100
 488 002e 4C61     		str	r4, [r1, #20]
 350:Drivers/BSP/Components/vl53l1cb/modules/vl53l1_api_preset_modes.c **** 		VL53L1_TUNINGPARM_HIST_SIGNAL_TOTAL_EVENTS_LIMIT_DEFAULT;
 351:Drivers/BSP/Components/vl53l1cb/modules/vl53l1_api_preset_modes.c **** 	pdata->sigma_estimator__sigma_ref_mm =
 489              		.loc 1 351 2 is_stmt 1 view .LVU185
 490              		.loc 1 351 39 is_stmt 0 view .LVU186
 491 0030 0B76     		strb	r3, [r1, #24]
 352:Drivers/BSP/Components/vl53l1cb/modules/vl53l1_api_preset_modes.c **** 		VL53L1_TUNINGPARM_HIST_SIGMA_EST_REF_MM_DEFAULT;
 353:Drivers/BSP/Components/vl53l1cb/modules/vl53l1_api_preset_modes.c **** 
 354:Drivers/BSP/Components/vl53l1cb/modules/vl53l1_api_preset_modes.c **** 
 355:Drivers/BSP/Components/vl53l1cb/modules/vl53l1_api_preset_modes.c **** 	pdata->sigma_thresh                  =
 492              		.loc 1 355 2 is_stmt 1 view .LVU187
 493              		.loc 1 355 39 is_stmt 0 view .LVU188
 494 0032 A023     		movs	r3, #160
 495 0034 4B83     		strh	r3, [r1, #26]	@ movhi
 356:Drivers/BSP/Components/vl53l1cb/modules/vl53l1_api_preset_modes.c **** 			VL53L1_TUNINGPARM_HIST_SIGMA_THRESH_MM_DEFAULT;
 357:Drivers/BSP/Components/vl53l1cb/modules/vl53l1_api_preset_modes.c **** 
 358:Drivers/BSP/Components/vl53l1cb/modules/vl53l1_api_preset_modes.c **** 	pdata->range_offset_mm            =      0;
 496              		.loc 1 358 2 is_stmt 1 view .LVU189
 497              		.loc 1 358 36 is_stmt 0 view .LVU190
 498 0036 0023     		movs	r3, #0
 499 0038 8B83     		strh	r3, [r1, #28]	@ movhi
ARM GAS  C:\Temp\ccoVwn9Y.s 			page 16


 359:Drivers/BSP/Components/vl53l1cb/modules/vl53l1_api_preset_modes.c **** 
 360:Drivers/BSP/Components/vl53l1cb/modules/vl53l1_api_preset_modes.c **** 	pdata->gain_factor                =
 500              		.loc 1 360 2 is_stmt 1 view .LVU191
 501              		.loc 1 360 36 is_stmt 0 view .LVU192
 502 003a 40F2C374 		movw	r4, #1987
 503 003e CC83     		strh	r4, [r1, #30]	@ movhi
 361:Drivers/BSP/Components/vl53l1cb/modules/vl53l1_api_preset_modes.c **** 			VL53L1_TUNINGPARM_HIST_GAIN_FACTOR_DEFAULT;
 362:Drivers/BSP/Components/vl53l1cb/modules/vl53l1_api_preset_modes.c **** 
 363:Drivers/BSP/Components/vl53l1cb/modules/vl53l1_api_preset_modes.c **** 
 364:Drivers/BSP/Components/vl53l1cb/modules/vl53l1_api_preset_modes.c **** 
 365:Drivers/BSP/Components/vl53l1cb/modules/vl53l1_api_preset_modes.c **** 	pdata->valid_phase_low = 0x08;
 504              		.loc 1 365 2 is_stmt 1 view .LVU193
 505              		.loc 1 365 25 is_stmt 0 view .LVU194
 506 0040 4FF0080E 		mov	lr, #8
 507 0044 81F820E0 		strb	lr, [r1, #32]
 366:Drivers/BSP/Components/vl53l1cb/modules/vl53l1_api_preset_modes.c **** 	pdata->valid_phase_high = 0x88;
 508              		.loc 1 366 2 is_stmt 1 view .LVU195
 509              		.loc 1 366 26 is_stmt 0 view .LVU196
 510 0048 8824     		movs	r4, #136
 511 004a 81F82140 		strb	r4, [r1, #33]
 367:Drivers/BSP/Components/vl53l1cb/modules/vl53l1_api_preset_modes.c **** 
 368:Drivers/BSP/Components/vl53l1cb/modules/vl53l1_api_preset_modes.c **** 
 369:Drivers/BSP/Components/vl53l1cb/modules/vl53l1_api_preset_modes.c **** 
 370:Drivers/BSP/Components/vl53l1cb/modules/vl53l1_api_preset_modes.c **** 	pdata->algo__consistency_check__phase_tolerance =
 512              		.loc 1 370 2 is_stmt 1 view .LVU197
 513              		.loc 1 370 50 is_stmt 0 view .LVU198
 514 004e 81F822E0 		strb	lr, [r1, #34]
 371:Drivers/BSP/Components/vl53l1cb/modules/vl53l1_api_preset_modes.c **** 		VL53L1_TUNINGPARM_CONSISTENCY_HIST_PHASE_TOLERANCE_DEFAULT;
 372:Drivers/BSP/Components/vl53l1cb/modules/vl53l1_api_preset_modes.c **** 
 373:Drivers/BSP/Components/vl53l1cb/modules/vl53l1_api_preset_modes.c **** 
 374:Drivers/BSP/Components/vl53l1cb/modules/vl53l1_api_preset_modes.c **** 
 375:Drivers/BSP/Components/vl53l1cb/modules/vl53l1_api_preset_modes.c **** 	pdata->algo__consistency_check__event_sigma =
 515              		.loc 1 375 2 is_stmt 1 view .LVU199
 516              		.loc 1 375 46 is_stmt 0 view .LVU200
 517 0052 81F82330 		strb	r3, [r1, #35]
 376:Drivers/BSP/Components/vl53l1cb/modules/vl53l1_api_preset_modes.c **** 		VL53L1_TUNINGPARM_CONSISTENCY_HIST_EVENT_SIGMA_DEFAULT;
 377:Drivers/BSP/Components/vl53l1cb/modules/vl53l1_api_preset_modes.c **** 
 378:Drivers/BSP/Components/vl53l1cb/modules/vl53l1_api_preset_modes.c **** 
 379:Drivers/BSP/Components/vl53l1cb/modules/vl53l1_api_preset_modes.c **** 	pdata->algo__consistency_check__event_min_spad_count =
 518              		.loc 1 379 2 is_stmt 1 view .LVU201
 519              		.loc 1 379 55 is_stmt 0 view .LVU202
 520 0056 4FF4006E 		mov	lr, #2048
 521 005a A1F824E0 		strh	lr, [r1, #36]	@ movhi
 380:Drivers/BSP/Components/vl53l1cb/modules/vl53l1_api_preset_modes.c **** 	VL53L1_TUNINGPARM_CONSISTENCY_HIST_EVENT_SIGMA_MIN_SPAD_LIMIT_DEFAULT;
 381:Drivers/BSP/Components/vl53l1cb/modules/vl53l1_api_preset_modes.c **** 
 382:Drivers/BSP/Components/vl53l1cb/modules/vl53l1_api_preset_modes.c **** 
 383:Drivers/BSP/Components/vl53l1cb/modules/vl53l1_api_preset_modes.c **** 
 384:Drivers/BSP/Components/vl53l1cb/modules/vl53l1_api_preset_modes.c **** 	pdata->algo__consistency_check__min_max_tolerance =
 522              		.loc 1 384 2 is_stmt 1 view .LVU203
 523              		.loc 1 384 52 is_stmt 0 view .LVU204
 524 005e 4FF0FA0E 		mov	lr, #250
 525 0062 A1F826E0 		strh	lr, [r1, #38]	@ movhi
 385:Drivers/BSP/Components/vl53l1cb/modules/vl53l1_api_preset_modes.c **** 		VL53L1_TUNINGPARM_CONSISTENCY_HIST_MIN_MAX_TOLERANCE_MM_DEFAULT;
 386:Drivers/BSP/Components/vl53l1cb/modules/vl53l1_api_preset_modes.c **** 
 387:Drivers/BSP/Components/vl53l1cb/modules/vl53l1_api_preset_modes.c **** 
 388:Drivers/BSP/Components/vl53l1cb/modules/vl53l1_api_preset_modes.c **** 	pdata->algo__crosstalk_compensation_enable = xtalk_compensation_enable;
 526              		.loc 1 388 2 is_stmt 1 view .LVU205
ARM GAS  C:\Temp\ccoVwn9Y.s 			page 17


 527              		.loc 1 388 45 is_stmt 0 view .LVU206
 528 0066 81F82800 		strb	r0, [r1, #40]
 389:Drivers/BSP/Components/vl53l1cb/modules/vl53l1_api_preset_modes.c **** 
 390:Drivers/BSP/Components/vl53l1cb/modules/vl53l1_api_preset_modes.c **** 
 391:Drivers/BSP/Components/vl53l1cb/modules/vl53l1_api_preset_modes.c **** 	pdata->algo__crosstalk_detect_min_valid_range_mm  =
 529              		.loc 1 391 2 is_stmt 1 view .LVU207
 530              		.loc 1 391 52 is_stmt 0 view .LVU208
 531 006a 4FF6CE70 		movw	r0, #65486
 532              	.LVL20:
 533              		.loc 1 391 52 view .LVU209
 534 006e 8886     		strh	r0, [r1, #52]	@ movhi
 392:Drivers/BSP/Components/vl53l1cb/modules/vl53l1_api_preset_modes.c **** 		VL53L1_TUNINGPARM_XTALK_DETECT_MIN_VALID_RANGE_MM_DEFAULT;
 393:Drivers/BSP/Components/vl53l1cb/modules/vl53l1_api_preset_modes.c **** 	pdata->algo__crosstalk_detect_max_valid_range_mm  =
 535              		.loc 1 393 2 is_stmt 1 view .LVU210
 536              		.loc 1 393 52 is_stmt 0 view .LVU211
 537 0070 CA86     		strh	r2, [r1, #54]	@ movhi
 394:Drivers/BSP/Components/vl53l1cb/modules/vl53l1_api_preset_modes.c **** 		VL53L1_TUNINGPARM_XTALK_DETECT_MAX_VALID_RANGE_MM_DEFAULT;
 395:Drivers/BSP/Components/vl53l1cb/modules/vl53l1_api_preset_modes.c **** 	pdata->algo__crosstalk_detect_max_valid_rate_kcps =
 538              		.loc 1 395 2 is_stmt 1 view .LVU212
 539              		.loc 1 395 52 is_stmt 0 view .LVU213
 540 0072 4FF47A40 		mov	r0, #64000
 541 0076 0887     		strh	r0, [r1, #56]	@ movhi
 396:Drivers/BSP/Components/vl53l1cb/modules/vl53l1_api_preset_modes.c **** 		VL53L1_TUNINGPARM_XTALK_DETECT_MAX_VALID_RATE_KCPS_DEFAULT;
 397:Drivers/BSP/Components/vl53l1cb/modules/vl53l1_api_preset_modes.c **** 	pdata->algo__crosstalk_detect_max_sigma_mm        =
 542              		.loc 1 397 2 is_stmt 1 view .LVU214
 543              		.loc 1 397 52 is_stmt 0 view .LVU215
 544 0078 8C20     		movs	r0, #140
 545 007a 4887     		strh	r0, [r1, #58]	@ movhi
 398:Drivers/BSP/Components/vl53l1cb/modules/vl53l1_api_preset_modes.c **** 		VL53L1_TUNINGPARM_XTALK_DETECT_MAX_SIGMA_MM_DEFAULT;
 399:Drivers/BSP/Components/vl53l1cb/modules/vl53l1_api_preset_modes.c **** 
 400:Drivers/BSP/Components/vl53l1cb/modules/vl53l1_api_preset_modes.c **** 
 401:Drivers/BSP/Components/vl53l1cb/modules/vl53l1_api_preset_modes.c **** 
 402:Drivers/BSP/Components/vl53l1cb/modules/vl53l1_api_preset_modes.c **** 
 403:Drivers/BSP/Components/vl53l1cb/modules/vl53l1_api_preset_modes.c **** 
 404:Drivers/BSP/Components/vl53l1cb/modules/vl53l1_api_preset_modes.c **** 	pdata->algo__crosstalk_detect_event_sigma       =
 546              		.loc 1 404 2 is_stmt 1 view .LVU216
 547              		.loc 1 404 50 is_stmt 0 view .LVU217
 548 007c 81F83CC0 		strb	ip, [r1, #60]
 405:Drivers/BSP/Components/vl53l1cb/modules/vl53l1_api_preset_modes.c **** 		VL53L1_TUNINGPARM_XTALK_DETECT_EVENT_SIGMA_DEFAULT;
 406:Drivers/BSP/Components/vl53l1cb/modules/vl53l1_api_preset_modes.c **** 
 407:Drivers/BSP/Components/vl53l1cb/modules/vl53l1_api_preset_modes.c **** 
 408:Drivers/BSP/Components/vl53l1cb/modules/vl53l1_api_preset_modes.c **** 
 409:Drivers/BSP/Components/vl53l1cb/modules/vl53l1_api_preset_modes.c **** 	pdata->algo__crosstalk_detect_min_max_tolerance   =
 549              		.loc 1 409 2 is_stmt 1 view .LVU218
 550              		.loc 1 409 52 is_stmt 0 view .LVU219
 551 0080 CA87     		strh	r2, [r1, #62]	@ movhi
 410:Drivers/BSP/Components/vl53l1cb/modules/vl53l1_api_preset_modes.c **** 		VL53L1_TUNINGPARM_XTALK_DETECT_MIN_MAX_TOLERANCE_DEFAULT;
 411:Drivers/BSP/Components/vl53l1cb/modules/vl53l1_api_preset_modes.c **** 
 412:Drivers/BSP/Components/vl53l1cb/modules/vl53l1_api_preset_modes.c **** 
 413:Drivers/BSP/Components/vl53l1cb/modules/vl53l1_api_preset_modes.c **** 
 414:Drivers/BSP/Components/vl53l1cb/modules/vl53l1_api_preset_modes.c **** 	LOG_FUNCTION_END(status);
 552              		.loc 1 414 26 is_stmt 1 view .LVU220
 415:Drivers/BSP/Components/vl53l1cb/modules/vl53l1_api_preset_modes.c **** 
 416:Drivers/BSP/Components/vl53l1cb/modules/vl53l1_api_preset_modes.c **** 	return status;
 553              		.loc 1 416 2 view .LVU221
 417:Drivers/BSP/Components/vl53l1cb/modules/vl53l1_api_preset_modes.c **** }
 554              		.loc 1 417 1 is_stmt 0 view .LVU222
ARM GAS  C:\Temp\ccoVwn9Y.s 			page 18


 555 0082 1846     		mov	r0, r3
 556 0084 10BD     		pop	{r4, pc}
 557              		.cfi_endproc
 558              	.LFE9:
 560              		.section	.text.VL53L1_init_dmax_calibration_data_struct,"ax",%progbits
 561              		.align	1
 562              		.global	VL53L1_init_dmax_calibration_data_struct
 563              		.syntax unified
 564              		.thumb
 565              		.thumb_func
 567              	VL53L1_init_dmax_calibration_data_struct:
 568              	.LVL21:
 569              	.LFB10:
 418:Drivers/BSP/Components/vl53l1cb/modules/vl53l1_api_preset_modes.c **** 
 419:Drivers/BSP/Components/vl53l1cb/modules/vl53l1_api_preset_modes.c **** 
 420:Drivers/BSP/Components/vl53l1cb/modules/vl53l1_api_preset_modes.c **** VL53L1_Error VL53L1_init_dmax_calibration_data_struct(
 421:Drivers/BSP/Components/vl53l1cb/modules/vl53l1_api_preset_modes.c **** 	VL53L1_dmax_calibration_data_t   *pdata)
 422:Drivers/BSP/Components/vl53l1cb/modules/vl53l1_api_preset_modes.c **** {
 570              		.loc 1 422 1 is_stmt 1 view -0
 571              		.cfi_startproc
 572              		@ args = 0, pretend = 0, frame = 0
 573              		@ frame_needed = 0, uses_anonymous_args = 0
 574              		@ link register save eliminated.
 423:Drivers/BSP/Components/vl53l1cb/modules/vl53l1_api_preset_modes.c **** 
 424:Drivers/BSP/Components/vl53l1cb/modules/vl53l1_api_preset_modes.c **** 
 425:Drivers/BSP/Components/vl53l1cb/modules/vl53l1_api_preset_modes.c **** 	VL53L1_Error  status = VL53L1_ERROR_NONE;
 575              		.loc 1 425 2 view .LVU224
 426:Drivers/BSP/Components/vl53l1cb/modules/vl53l1_api_preset_modes.c **** 
 427:Drivers/BSP/Components/vl53l1cb/modules/vl53l1_api_preset_modes.c **** 	LOG_FUNCTION_START("");
 576              		.loc 1 427 24 view .LVU225
 428:Drivers/BSP/Components/vl53l1cb/modules/vl53l1_api_preset_modes.c **** 
 429:Drivers/BSP/Components/vl53l1cb/modules/vl53l1_api_preset_modes.c **** 
 430:Drivers/BSP/Components/vl53l1cb/modules/vl53l1_api_preset_modes.c **** 
 431:Drivers/BSP/Components/vl53l1cb/modules/vl53l1_api_preset_modes.c **** 
 432:Drivers/BSP/Components/vl53l1cb/modules/vl53l1_api_preset_modes.c **** 	pdata->ref__actual_effective_spads = 0x5F2D;
 577              		.loc 1 432 2 view .LVU226
 578              		.loc 1 432 37 is_stmt 0 view .LVU227
 579 0000 45F62D73 		movw	r3, #24365
 580 0004 0380     		strh	r3, [r0]	@ movhi
 433:Drivers/BSP/Components/vl53l1cb/modules/vl53l1_api_preset_modes.c **** 
 434:Drivers/BSP/Components/vl53l1cb/modules/vl53l1_api_preset_modes.c **** 	pdata->ref__peak_signal_count_rate_mcps = 0x0844;
 581              		.loc 1 434 2 is_stmt 1 view .LVU228
 582              		.loc 1 434 42 is_stmt 0 view .LVU229
 583 0006 40F64403 		movw	r3, #2116
 584 000a 4380     		strh	r3, [r0, #2]	@ movhi
 435:Drivers/BSP/Components/vl53l1cb/modules/vl53l1_api_preset_modes.c **** 
 436:Drivers/BSP/Components/vl53l1cb/modules/vl53l1_api_preset_modes.c **** 	pdata->ref__distance_mm = 0x08A5;
 585              		.loc 1 436 2 is_stmt 1 view .LVU230
 586              		.loc 1 436 26 is_stmt 0 view .LVU231
 587 000c 40F6A503 		movw	r3, #2213
 588 0010 8380     		strh	r3, [r0, #4]	@ movhi
 437:Drivers/BSP/Components/vl53l1cb/modules/vl53l1_api_preset_modes.c **** 
 438:Drivers/BSP/Components/vl53l1cb/modules/vl53l1_api_preset_modes.c **** 
 439:Drivers/BSP/Components/vl53l1cb/modules/vl53l1_api_preset_modes.c **** 	pdata->ref_reflectance_pc = 0x0014;
 589              		.loc 1 439 2 is_stmt 1 view .LVU232
 590              		.loc 1 439 28 is_stmt 0 view .LVU233
 591 0012 1423     		movs	r3, #20
ARM GAS  C:\Temp\ccoVwn9Y.s 			page 19


 592 0014 C380     		strh	r3, [r0, #6]	@ movhi
 440:Drivers/BSP/Components/vl53l1cb/modules/vl53l1_api_preset_modes.c **** 
 441:Drivers/BSP/Components/vl53l1cb/modules/vl53l1_api_preset_modes.c **** 
 442:Drivers/BSP/Components/vl53l1cb/modules/vl53l1_api_preset_modes.c **** 	pdata->coverglass_transmission = 0x0100;
 593              		.loc 1 442 2 is_stmt 1 view .LVU234
 594              		.loc 1 442 33 is_stmt 0 view .LVU235
 595 0016 4FF48073 		mov	r3, #256
 596 001a 0381     		strh	r3, [r0, #8]	@ movhi
 443:Drivers/BSP/Components/vl53l1cb/modules/vl53l1_api_preset_modes.c **** 
 444:Drivers/BSP/Components/vl53l1cb/modules/vl53l1_api_preset_modes.c **** 	LOG_FUNCTION_END(status);
 597              		.loc 1 444 26 is_stmt 1 view .LVU236
 445:Drivers/BSP/Components/vl53l1cb/modules/vl53l1_api_preset_modes.c **** 
 446:Drivers/BSP/Components/vl53l1cb/modules/vl53l1_api_preset_modes.c **** 	return status;
 598              		.loc 1 446 2 view .LVU237
 447:Drivers/BSP/Components/vl53l1cb/modules/vl53l1_api_preset_modes.c **** }
 599              		.loc 1 447 1 is_stmt 0 view .LVU238
 600 001c 0020     		movs	r0, #0
 601              	.LVL22:
 602              		.loc 1 447 1 view .LVU239
 603 001e 7047     		bx	lr
 604              		.cfi_endproc
 605              	.LFE10:
 607              		.section	.text.VL53L1_init_tuning_parm_storage_struct,"ax",%progbits
 608              		.align	1
 609              		.global	VL53L1_init_tuning_parm_storage_struct
 610              		.syntax unified
 611              		.thumb
 612              		.thumb_func
 614              	VL53L1_init_tuning_parm_storage_struct:
 615              	.LVL23:
 616              	.LFB11:
 448:Drivers/BSP/Components/vl53l1cb/modules/vl53l1_api_preset_modes.c **** 
 449:Drivers/BSP/Components/vl53l1cb/modules/vl53l1_api_preset_modes.c **** 
 450:Drivers/BSP/Components/vl53l1cb/modules/vl53l1_api_preset_modes.c **** VL53L1_Error VL53L1_init_tuning_parm_storage_struct(
 451:Drivers/BSP/Components/vl53l1cb/modules/vl53l1_api_preset_modes.c **** 	VL53L1_tuning_parm_storage_t   *pdata)
 452:Drivers/BSP/Components/vl53l1cb/modules/vl53l1_api_preset_modes.c **** {
 617              		.loc 1 452 1 is_stmt 1 view -0
 618              		.cfi_startproc
 619              		@ args = 0, pretend = 0, frame = 0
 620              		@ frame_needed = 0, uses_anonymous_args = 0
 621              		.loc 1 452 1 is_stmt 0 view .LVU241
 622 0000 F0B5     		push	{r4, r5, r6, r7, lr}
 623              		.cfi_def_cfa_offset 20
 624              		.cfi_offset 4, -20
 625              		.cfi_offset 5, -16
 626              		.cfi_offset 6, -12
 627              		.cfi_offset 7, -8
 628              		.cfi_offset 14, -4
 629 0002 0346     		mov	r3, r0
 453:Drivers/BSP/Components/vl53l1cb/modules/vl53l1_api_preset_modes.c **** 
 454:Drivers/BSP/Components/vl53l1cb/modules/vl53l1_api_preset_modes.c **** 
 455:Drivers/BSP/Components/vl53l1cb/modules/vl53l1_api_preset_modes.c **** 	VL53L1_Error  status = VL53L1_ERROR_NONE;
 630              		.loc 1 455 2 is_stmt 1 view .LVU242
 631              	.LVL24:
 456:Drivers/BSP/Components/vl53l1cb/modules/vl53l1_api_preset_modes.c **** 
 457:Drivers/BSP/Components/vl53l1cb/modules/vl53l1_api_preset_modes.c **** 	LOG_FUNCTION_START("");
 632              		.loc 1 457 24 view .LVU243
ARM GAS  C:\Temp\ccoVwn9Y.s 			page 20


 458:Drivers/BSP/Components/vl53l1cb/modules/vl53l1_api_preset_modes.c **** 
 459:Drivers/BSP/Components/vl53l1cb/modules/vl53l1_api_preset_modes.c **** 
 460:Drivers/BSP/Components/vl53l1cb/modules/vl53l1_api_preset_modes.c **** 
 461:Drivers/BSP/Components/vl53l1cb/modules/vl53l1_api_preset_modes.c **** 	pdata->tp_tuning_parm_version              =
 633              		.loc 1 461 2 view .LVU244
 634              		.loc 1 461 45 is_stmt 0 view .LVU245
 635 0004 2022     		movs	r2, #32
 636 0006 0280     		strh	r2, [r0]	@ movhi
 462:Drivers/BSP/Components/vl53l1cb/modules/vl53l1_api_preset_modes.c **** 			VL53L1_TUNINGPARM_VERSION_DEFAULT;
 463:Drivers/BSP/Components/vl53l1cb/modules/vl53l1_api_preset_modes.c **** 	pdata->tp_tuning_parm_key_table_version    =
 637              		.loc 1 463 2 is_stmt 1 view .LVU246
 638              		.loc 1 463 45 is_stmt 0 view .LVU247
 639 0008 0E21     		movs	r1, #14
 640 000a 4180     		strh	r1, [r0, #2]	@ movhi
 464:Drivers/BSP/Components/vl53l1cb/modules/vl53l1_api_preset_modes.c **** 			VL53L1_TUNINGPARM_KEY_TABLE_VERSION_DEFAULT;
 465:Drivers/BSP/Components/vl53l1cb/modules/vl53l1_api_preset_modes.c **** 	pdata->tp_tuning_parm_lld_version          =
 641              		.loc 1 465 2 is_stmt 1 view .LVU248
 642              		.loc 1 465 45 is_stmt 0 view .LVU249
 643 000c 42F69472 		movw	r2, #12180
 644 0010 8280     		strh	r2, [r0, #4]	@ movhi
 466:Drivers/BSP/Components/vl53l1cb/modules/vl53l1_api_preset_modes.c **** 			VL53L1_TUNINGPARM_LLD_VERSION_DEFAULT;
 467:Drivers/BSP/Components/vl53l1cb/modules/vl53l1_api_preset_modes.c **** 	pdata->tp_init_phase_rtn_lite_long         =
 645              		.loc 1 467 2 is_stmt 1 view .LVU250
 646              		.loc 1 467 45 is_stmt 0 view .LVU251
 647 0012 8171     		strb	r1, [r0, #6]
 468:Drivers/BSP/Components/vl53l1cb/modules/vl53l1_api_preset_modes.c **** 		VL53L1_TUNINGPARM_INITIAL_PHASE_RTN_LITE_LONG_RANGE_DEFAULT;
 469:Drivers/BSP/Components/vl53l1cb/modules/vl53l1_api_preset_modes.c **** 	pdata->tp_init_phase_rtn_lite_med          =
 648              		.loc 1 469 2 is_stmt 1 view .LVU252
 649              		.loc 1 469 45 is_stmt 0 view .LVU253
 650 0014 0A20     		movs	r0, #10
 651              	.LVL25:
 652              		.loc 1 469 45 view .LVU254
 653 0016 D871     		strb	r0, [r3, #7]
 470:Drivers/BSP/Components/vl53l1cb/modules/vl53l1_api_preset_modes.c **** 		VL53L1_TUNINGPARM_INITIAL_PHASE_RTN_LITE_MED_RANGE_DEFAULT;
 471:Drivers/BSP/Components/vl53l1cb/modules/vl53l1_api_preset_modes.c **** 	pdata->tp_init_phase_rtn_lite_short        =
 654              		.loc 1 471 2 is_stmt 1 view .LVU255
 655              		.loc 1 471 45 is_stmt 0 view .LVU256
 656 0018 0622     		movs	r2, #6
 657 001a 1A72     		strb	r2, [r3, #8]
 472:Drivers/BSP/Components/vl53l1cb/modules/vl53l1_api_preset_modes.c **** 		VL53L1_TUNINGPARM_INITIAL_PHASE_RTN_LITE_SHORT_RANGE_DEFAULT;
 473:Drivers/BSP/Components/vl53l1cb/modules/vl53l1_api_preset_modes.c **** 	pdata->tp_init_phase_ref_lite_long         =
 658              		.loc 1 473 2 is_stmt 1 view .LVU257
 659              		.loc 1 473 45 is_stmt 0 view .LVU258
 660 001c 5972     		strb	r1, [r3, #9]
 474:Drivers/BSP/Components/vl53l1cb/modules/vl53l1_api_preset_modes.c **** 		VL53L1_TUNINGPARM_INITIAL_PHASE_REF_LITE_LONG_RANGE_DEFAULT;
 475:Drivers/BSP/Components/vl53l1cb/modules/vl53l1_api_preset_modes.c **** 	pdata->tp_init_phase_ref_lite_med          =
 661              		.loc 1 475 2 is_stmt 1 view .LVU259
 662              		.loc 1 475 45 is_stmt 0 view .LVU260
 663 001e 9872     		strb	r0, [r3, #10]
 476:Drivers/BSP/Components/vl53l1cb/modules/vl53l1_api_preset_modes.c **** 		VL53L1_TUNINGPARM_INITIAL_PHASE_REF_LITE_MED_RANGE_DEFAULT;
 477:Drivers/BSP/Components/vl53l1cb/modules/vl53l1_api_preset_modes.c **** 	pdata->tp_init_phase_ref_lite_short        =
 664              		.loc 1 477 2 is_stmt 1 view .LVU261
 665              		.loc 1 477 45 is_stmt 0 view .LVU262
 666 0020 DA72     		strb	r2, [r3, #11]
 478:Drivers/BSP/Components/vl53l1cb/modules/vl53l1_api_preset_modes.c **** 		VL53L1_TUNINGPARM_INITIAL_PHASE_REF_LITE_SHORT_RANGE_DEFAULT;
 479:Drivers/BSP/Components/vl53l1cb/modules/vl53l1_api_preset_modes.c **** 	pdata->tp_init_phase_rtn_hist_long         =
 667              		.loc 1 479 2 is_stmt 1 view .LVU263
ARM GAS  C:\Temp\ccoVwn9Y.s 			page 21


 668              		.loc 1 479 45 is_stmt 0 view .LVU264
 669 0022 0921     		movs	r1, #9
 670 0024 1973     		strb	r1, [r3, #12]
 480:Drivers/BSP/Components/vl53l1cb/modules/vl53l1_api_preset_modes.c **** 		VL53L1_TUNINGPARM_INITIAL_PHASE_RTN_HISTO_LONG_RANGE_DEFAULT;
 481:Drivers/BSP/Components/vl53l1cb/modules/vl53l1_api_preset_modes.c **** 	pdata->tp_init_phase_rtn_hist_med          =
 671              		.loc 1 481 2 is_stmt 1 view .LVU265
 672              		.loc 1 481 45 is_stmt 0 view .LVU266
 673 0026 0521     		movs	r1, #5
 674 0028 5973     		strb	r1, [r3, #13]
 482:Drivers/BSP/Components/vl53l1cb/modules/vl53l1_api_preset_modes.c **** 		VL53L1_TUNINGPARM_INITIAL_PHASE_RTN_HISTO_MED_RANGE_DEFAULT;
 483:Drivers/BSP/Components/vl53l1cb/modules/vl53l1_api_preset_modes.c **** 	pdata->tp_init_phase_rtn_hist_short        =
 675              		.loc 1 483 2 is_stmt 1 view .LVU267
 676              		.loc 1 483 45 is_stmt 0 view .LVU268
 677 002a 0321     		movs	r1, #3
 678 002c 9973     		strb	r1, [r3, #14]
 484:Drivers/BSP/Components/vl53l1cb/modules/vl53l1_api_preset_modes.c **** 		VL53L1_TUNINGPARM_INITIAL_PHASE_RTN_HISTO_SHORT_RANGE_DEFAULT;
 485:Drivers/BSP/Components/vl53l1cb/modules/vl53l1_api_preset_modes.c **** 	pdata->tp_init_phase_ref_hist_long         =
 679              		.loc 1 485 2 is_stmt 1 view .LVU269
 680              		.loc 1 485 45 is_stmt 0 view .LVU270
 681 002e DA73     		strb	r2, [r3, #15]
 486:Drivers/BSP/Components/vl53l1cb/modules/vl53l1_api_preset_modes.c **** 		VL53L1_TUNINGPARM_INITIAL_PHASE_REF_HISTO_LONG_RANGE_DEFAULT;
 487:Drivers/BSP/Components/vl53l1cb/modules/vl53l1_api_preset_modes.c **** 	pdata->tp_init_phase_ref_hist_med          =
 682              		.loc 1 487 2 is_stmt 1 view .LVU271
 683              		.loc 1 487 45 is_stmt 0 view .LVU272
 684 0030 1A74     		strb	r2, [r3, #16]
 488:Drivers/BSP/Components/vl53l1cb/modules/vl53l1_api_preset_modes.c **** 		VL53L1_TUNINGPARM_INITIAL_PHASE_REF_HISTO_MED_RANGE_DEFAULT;
 489:Drivers/BSP/Components/vl53l1cb/modules/vl53l1_api_preset_modes.c **** 	pdata->tp_init_phase_ref_hist_short        =
 685              		.loc 1 489 2 is_stmt 1 view .LVU273
 686              		.loc 1 489 45 is_stmt 0 view .LVU274
 687 0032 5A74     		strb	r2, [r3, #17]
 490:Drivers/BSP/Components/vl53l1cb/modules/vl53l1_api_preset_modes.c **** 		VL53L1_TUNINGPARM_INITIAL_PHASE_REF_HISTO_SHORT_RANGE_DEFAULT;
 491:Drivers/BSP/Components/vl53l1cb/modules/vl53l1_api_preset_modes.c **** 	pdata->tp_consistency_lite_phase_tolerance =
 688              		.loc 1 491 2 is_stmt 1 view .LVU275
 689              		.loc 1 491 45 is_stmt 0 view .LVU276
 690 0034 0221     		movs	r1, #2
 691 0036 9974     		strb	r1, [r3, #18]
 492:Drivers/BSP/Components/vl53l1cb/modules/vl53l1_api_preset_modes.c **** 		VL53L1_TUNINGPARM_CONSISTENCY_LITE_PHASE_TOLERANCE_DEFAULT;
 493:Drivers/BSP/Components/vl53l1cb/modules/vl53l1_api_preset_modes.c **** 	pdata->tp_phasecal_target                  =
 692              		.loc 1 493 2 is_stmt 1 view .LVU277
 693              		.loc 1 493 45 is_stmt 0 view .LVU278
 694 0038 2120     		movs	r0, #33
 695 003a D874     		strb	r0, [r3, #19]
 494:Drivers/BSP/Components/vl53l1cb/modules/vl53l1_api_preset_modes.c **** 			VL53L1_TUNINGPARM_PHASECAL_TARGET_DEFAULT;
 495:Drivers/BSP/Components/vl53l1cb/modules/vl53l1_api_preset_modes.c **** 	pdata->tp_cal_repeat_rate                  =
 696              		.loc 1 495 2 is_stmt 1 view .LVU279
 697              		.loc 1 495 45 is_stmt 0 view .LVU280
 698 003c 0020     		movs	r0, #0
 699 003e 9882     		strh	r0, [r3, #20]	@ movhi
 496:Drivers/BSP/Components/vl53l1cb/modules/vl53l1_api_preset_modes.c **** 			VL53L1_TUNINGPARM_LITE_CAL_REPEAT_RATE_DEFAULT;
 497:Drivers/BSP/Components/vl53l1cb/modules/vl53l1_api_preset_modes.c **** 	pdata->tp_lite_min_clip                    =
 700              		.loc 1 497 2 is_stmt 1 view .LVU281
 701              		.loc 1 497 45 is_stmt 0 view .LVU282
 702 0040 9875     		strb	r0, [r3, #22]
 498:Drivers/BSP/Components/vl53l1cb/modules/vl53l1_api_preset_modes.c **** 			VL53L1_TUNINGPARM_LITE_MIN_CLIP_MM_DEFAULT;
 499:Drivers/BSP/Components/vl53l1cb/modules/vl53l1_api_preset_modes.c **** 	pdata->tp_lite_long_sigma_thresh_mm        =
 703              		.loc 1 499 2 is_stmt 1 view .LVU283
 704              		.loc 1 499 45 is_stmt 0 view .LVU284
ARM GAS  C:\Temp\ccoVwn9Y.s 			page 22


 705 0042 3C24     		movs	r4, #60
 706 0044 1C83     		strh	r4, [r3, #24]	@ movhi
 500:Drivers/BSP/Components/vl53l1cb/modules/vl53l1_api_preset_modes.c **** 			VL53L1_TUNINGPARM_LITE_LONG_SIGMA_THRESH_MM_DEFAULT;
 501:Drivers/BSP/Components/vl53l1cb/modules/vl53l1_api_preset_modes.c **** 	pdata->tp_lite_med_sigma_thresh_mm         =
 707              		.loc 1 501 2 is_stmt 1 view .LVU285
 708              		.loc 1 501 45 is_stmt 0 view .LVU286
 709 0046 5C83     		strh	r4, [r3, #26]	@ movhi
 502:Drivers/BSP/Components/vl53l1cb/modules/vl53l1_api_preset_modes.c **** 			VL53L1_TUNINGPARM_LITE_MED_SIGMA_THRESH_MM_DEFAULT;
 503:Drivers/BSP/Components/vl53l1cb/modules/vl53l1_api_preset_modes.c **** 	pdata->tp_lite_short_sigma_thresh_mm       =
 710              		.loc 1 503 2 is_stmt 1 view .LVU287
 711              		.loc 1 503 45 is_stmt 0 view .LVU288
 712 0048 9C83     		strh	r4, [r3, #28]	@ movhi
 504:Drivers/BSP/Components/vl53l1cb/modules/vl53l1_api_preset_modes.c **** 			VL53L1_TUNINGPARM_LITE_SHORT_SIGMA_THRESH_MM_DEFAULT;
 505:Drivers/BSP/Components/vl53l1cb/modules/vl53l1_api_preset_modes.c **** 	pdata->tp_lite_long_min_count_rate_rtn_mcps  =
 713              		.loc 1 505 2 is_stmt 1 view .LVU289
 714              		.loc 1 505 47 is_stmt 0 view .LVU290
 715 004a 8024     		movs	r4, #128
 716 004c DC83     		strh	r4, [r3, #30]	@ movhi
 506:Drivers/BSP/Components/vl53l1cb/modules/vl53l1_api_preset_modes.c **** 		VL53L1_TUNINGPARM_LITE_LONG_MIN_COUNT_RATE_RTN_MCPS_DEFAULT;
 507:Drivers/BSP/Components/vl53l1cb/modules/vl53l1_api_preset_modes.c **** 	pdata->tp_lite_med_min_count_rate_rtn_mcps   =
 717              		.loc 1 507 2 is_stmt 1 view .LVU291
 718              		.loc 1 507 47 is_stmt 0 view .LVU292
 719 004e 1C84     		strh	r4, [r3, #32]	@ movhi
 508:Drivers/BSP/Components/vl53l1cb/modules/vl53l1_api_preset_modes.c **** 		VL53L1_TUNINGPARM_LITE_MED_MIN_COUNT_RATE_RTN_MCPS_DEFAULT;
 509:Drivers/BSP/Components/vl53l1cb/modules/vl53l1_api_preset_modes.c **** 	pdata->tp_lite_short_min_count_rate_rtn_mcps =
 720              		.loc 1 509 2 is_stmt 1 view .LVU293
 721              		.loc 1 509 47 is_stmt 0 view .LVU294
 722 0050 5C84     		strh	r4, [r3, #34]	@ movhi
 510:Drivers/BSP/Components/vl53l1cb/modules/vl53l1_api_preset_modes.c **** 		VL53L1_TUNINGPARM_LITE_SHORT_MIN_COUNT_RATE_RTN_MCPS_DEFAULT;
 511:Drivers/BSP/Components/vl53l1cb/modules/vl53l1_api_preset_modes.c **** 	pdata->tp_lite_sigma_est_pulse_width_ns      =
 723              		.loc 1 511 2 is_stmt 1 view .LVU295
 724              		.loc 1 511 47 is_stmt 0 view .LVU296
 725 0052 0824     		movs	r4, #8
 726 0054 83F82440 		strb	r4, [r3, #36]
 512:Drivers/BSP/Components/vl53l1cb/modules/vl53l1_api_preset_modes.c **** 			VL53L1_TUNINGPARM_LITE_SIGMA_EST_PULSE_WIDTH_DEFAULT;
 513:Drivers/BSP/Components/vl53l1cb/modules/vl53l1_api_preset_modes.c **** 	pdata->tp_lite_sigma_est_amb_width_ns        =
 727              		.loc 1 513 2 is_stmt 1 view .LVU297
 728              		.loc 1 513 47 is_stmt 0 view .LVU298
 729 0058 1024     		movs	r4, #16
 730 005a 83F82540 		strb	r4, [r3, #37]
 514:Drivers/BSP/Components/vl53l1cb/modules/vl53l1_api_preset_modes.c **** 			VL53L1_TUNINGPARM_LITE_SIGMA_EST_AMB_WIDTH_NS_DEFAULT;
 515:Drivers/BSP/Components/vl53l1cb/modules/vl53l1_api_preset_modes.c **** 	pdata->tp_lite_sigma_ref_mm                  =
 731              		.loc 1 515 2 is_stmt 1 view .LVU299
 732              		.loc 1 515 47 is_stmt 0 view .LVU300
 733 005e 0124     		movs	r4, #1
 734 0060 83F82640 		strb	r4, [r3, #38]
 516:Drivers/BSP/Components/vl53l1cb/modules/vl53l1_api_preset_modes.c **** 			VL53L1_TUNINGPARM_LITE_SIGMA_REF_MM_DEFAULT;
 517:Drivers/BSP/Components/vl53l1cb/modules/vl53l1_api_preset_modes.c **** 	pdata->tp_lite_seed_cfg                      =
 735              		.loc 1 517 2 is_stmt 1 view .LVU301
 736              		.loc 1 517 47 is_stmt 0 view .LVU302
 737 0064 83F82710 		strb	r1, [r3, #39]
 518:Drivers/BSP/Components/vl53l1cb/modules/vl53l1_api_preset_modes.c **** 			VL53L1_TUNINGPARM_LITE_SEED_CONFIG_DEFAULT;
 519:Drivers/BSP/Components/vl53l1cb/modules/vl53l1_api_preset_modes.c **** 	pdata->tp_timed_seed_cfg                     =
 738              		.loc 1 519 2 is_stmt 1 view .LVU303
 739              		.loc 1 519 47 is_stmt 0 view .LVU304
 740 0068 83F82840 		strb	r4, [r3, #40]
 520:Drivers/BSP/Components/vl53l1cb/modules/vl53l1_api_preset_modes.c **** 			VL53L1_TUNINGPARM_TIMED_SEED_CONFIG_DEFAULT;
ARM GAS  C:\Temp\ccoVwn9Y.s 			page 23


 521:Drivers/BSP/Components/vl53l1cb/modules/vl53l1_api_preset_modes.c **** 	pdata->tp_lite_quantifier                    =
 741              		.loc 1 521 2 is_stmt 1 view .LVU305
 742              		.loc 1 521 47 is_stmt 0 view .LVU306
 743 006c 83F82910 		strb	r1, [r3, #41]
 522:Drivers/BSP/Components/vl53l1cb/modules/vl53l1_api_preset_modes.c **** 			VL53L1_TUNINGPARM_LITE_QUANTIFIER_DEFAULT;
 523:Drivers/BSP/Components/vl53l1cb/modules/vl53l1_api_preset_modes.c **** 	pdata->tp_lite_first_order_select            =
 744              		.loc 1 523 2 is_stmt 1 view .LVU307
 745              		.loc 1 523 47 is_stmt 0 view .LVU308
 746 0070 83F82A00 		strb	r0, [r3, #42]
 524:Drivers/BSP/Components/vl53l1cb/modules/vl53l1_api_preset_modes.c **** 			VL53L1_TUNINGPARM_LITE_FIRST_ORDER_SELECT_DEFAULT;
 525:Drivers/BSP/Components/vl53l1cb/modules/vl53l1_api_preset_modes.c **** 
 526:Drivers/BSP/Components/vl53l1cb/modules/vl53l1_api_preset_modes.c **** 
 527:Drivers/BSP/Components/vl53l1cb/modules/vl53l1_api_preset_modes.c **** 
 528:Drivers/BSP/Components/vl53l1cb/modules/vl53l1_api_preset_modes.c **** 
 529:Drivers/BSP/Components/vl53l1cb/modules/vl53l1_api_preset_modes.c **** 	pdata->tp_dss_target_lite_mcps               =
 747              		.loc 1 529 2 is_stmt 1 view .LVU309
 748              		.loc 1 529 47 is_stmt 0 view .LVU310
 749 0074 4FF42061 		mov	r1, #2560
 750 0078 9985     		strh	r1, [r3, #44]	@ movhi
 530:Drivers/BSP/Components/vl53l1cb/modules/vl53l1_api_preset_modes.c **** 	VL53L1_TUNINGPARM_LITE_DSS_CONFIG_TARGET_TOTAL_RATE_MCPS_DEFAULT;
 531:Drivers/BSP/Components/vl53l1cb/modules/vl53l1_api_preset_modes.c **** 	pdata->tp_dss_target_histo_mcps              =
 751              		.loc 1 531 2 is_stmt 1 view .LVU311
 752              		.loc 1 531 47 is_stmt 0 view .LVU312
 753 007a 4FF4A055 		mov	r5, #5120
 754 007e DD85     		strh	r5, [r3, #46]	@ movhi
 532:Drivers/BSP/Components/vl53l1cb/modules/vl53l1_api_preset_modes.c **** 	VL53L1_TUNINGPARM_RANGING_DSS_CONFIG_TARGET_TOTAL_RATE_MCPS_DEFAULT;
 533:Drivers/BSP/Components/vl53l1cb/modules/vl53l1_api_preset_modes.c **** 	pdata->tp_dss_target_histo_mz_mcps           =
 755              		.loc 1 533 2 is_stmt 1 view .LVU313
 756              		.loc 1 533 47 is_stmt 0 view .LVU314
 757 0080 1D86     		strh	r5, [r3, #48]	@ movhi
 534:Drivers/BSP/Components/vl53l1cb/modules/vl53l1_api_preset_modes.c **** 	VL53L1_TUNINGPARM_MZ_DSS_CONFIG_TARGET_TOTAL_RATE_MCPS_DEFAULT;
 535:Drivers/BSP/Components/vl53l1cb/modules/vl53l1_api_preset_modes.c **** 	pdata->tp_dss_target_timed_mcps              =
 758              		.loc 1 535 2 is_stmt 1 view .LVU315
 759              		.loc 1 535 47 is_stmt 0 view .LVU316
 760 0082 5986     		strh	r1, [r3, #50]	@ movhi
 536:Drivers/BSP/Components/vl53l1cb/modules/vl53l1_api_preset_modes.c **** 	VL53L1_TUNINGPARM_TIMED_DSS_CONFIG_TARGET_TOTAL_RATE_MCPS_DEFAULT;
 537:Drivers/BSP/Components/vl53l1cb/modules/vl53l1_api_preset_modes.c **** 	pdata->tp_phasecal_timeout_lite_us           =
 761              		.loc 1 537 2 is_stmt 1 view .LVU317
 762              		.loc 1 537 47 is_stmt 0 view .LVU318
 763 0084 4FF47A75 		mov	r5, #1000
 764 0088 9D63     		str	r5, [r3, #56]
 538:Drivers/BSP/Components/vl53l1cb/modules/vl53l1_api_preset_modes.c **** 		VL53L1_TUNINGPARM_LITE_PHASECAL_CONFIG_TIMEOUT_US_DEFAULT;
 539:Drivers/BSP/Components/vl53l1cb/modules/vl53l1_api_preset_modes.c **** 	pdata->tp_phasecal_timeout_hist_long_us      =
 765              		.loc 1 539 2 is_stmt 1 view .LVU319
 766              		.loc 1 539 47 is_stmt 0 view .LVU320
 767 008a 43F69827 		movw	r7, #15000
 768 008e DF63     		str	r7, [r3, #60]
 540:Drivers/BSP/Components/vl53l1cb/modules/vl53l1_api_preset_modes.c **** 	VL53L1_TUNINGPARM_RANGING_LONG_PHASECAL_CONFIG_TIMEOUT_US_DEFAULT;
 541:Drivers/BSP/Components/vl53l1cb/modules/vl53l1_api_preset_modes.c **** 	pdata->tp_phasecal_timeout_hist_med_us       =
 769              		.loc 1 541 2 is_stmt 1 view .LVU321
 770              		.loc 1 541 47 is_stmt 0 view .LVU322
 771 0090 42F22836 		movw	r6, #9000
 772 0094 1E64     		str	r6, [r3, #64]
 542:Drivers/BSP/Components/vl53l1cb/modules/vl53l1_api_preset_modes.c **** 	VL53L1_TUNINGPARM_RANGING_MED_PHASECAL_CONFIG_TIMEOUT_US_DEFAULT;
 543:Drivers/BSP/Components/vl53l1cb/modules/vl53l1_api_preset_modes.c **** 	pdata->tp_phasecal_timeout_hist_short_us     =
 773              		.loc 1 543 2 is_stmt 1 view .LVU323
 774              		.loc 1 543 47 is_stmt 0 view .LVU324
ARM GAS  C:\Temp\ccoVwn9Y.s 			page 24


 775 0096 41F27071 		movw	r1, #6000
 776 009a 5964     		str	r1, [r3, #68]
 544:Drivers/BSP/Components/vl53l1cb/modules/vl53l1_api_preset_modes.c **** 	VL53L1_TUNINGPARM_RANGING_SHORT_PHASECAL_CONFIG_TIMEOUT_US_DEFAULT;
 545:Drivers/BSP/Components/vl53l1cb/modules/vl53l1_api_preset_modes.c **** 	pdata->tp_phasecal_timeout_mz_long_us        =
 777              		.loc 1 545 2 is_stmt 1 view .LVU325
 778              		.loc 1 545 47 is_stmt 0 view .LVU326
 779 009c 9F64     		str	r7, [r3, #72]
 546:Drivers/BSP/Components/vl53l1cb/modules/vl53l1_api_preset_modes.c **** 	VL53L1_TUNINGPARM_MZ_LONG_PHASECAL_CONFIG_TIMEOUT_US_DEFAULT;
 547:Drivers/BSP/Components/vl53l1cb/modules/vl53l1_api_preset_modes.c **** 	pdata->tp_phasecal_timeout_mz_med_us         =
 780              		.loc 1 547 2 is_stmt 1 view .LVU327
 781              		.loc 1 547 47 is_stmt 0 view .LVU328
 782 009e DE64     		str	r6, [r3, #76]
 548:Drivers/BSP/Components/vl53l1cb/modules/vl53l1_api_preset_modes.c **** 		VL53L1_TUNINGPARM_MZ_MED_PHASECAL_CONFIG_TIMEOUT_US_DEFAULT;
 549:Drivers/BSP/Components/vl53l1cb/modules/vl53l1_api_preset_modes.c **** 	pdata->tp_phasecal_timeout_mz_short_us       =
 783              		.loc 1 549 2 is_stmt 1 view .LVU329
 784              		.loc 1 549 47 is_stmt 0 view .LVU330
 785 00a0 1965     		str	r1, [r3, #80]
 550:Drivers/BSP/Components/vl53l1cb/modules/vl53l1_api_preset_modes.c **** 		VL53L1_TUNINGPARM_MZ_SHORT_PHASECAL_CONFIG_TIMEOUT_US_DEFAULT;
 551:Drivers/BSP/Components/vl53l1cb/modules/vl53l1_api_preset_modes.c **** 	pdata->tp_phasecal_timeout_timed_us          =
 786              		.loc 1 551 2 is_stmt 1 view .LVU331
 787              		.loc 1 551 47 is_stmt 0 view .LVU332
 788 00a2 5D65     		str	r5, [r3, #84]
 552:Drivers/BSP/Components/vl53l1cb/modules/vl53l1_api_preset_modes.c **** 		VL53L1_TUNINGPARM_TIMED_PHASECAL_CONFIG_TIMEOUT_US_DEFAULT;
 553:Drivers/BSP/Components/vl53l1cb/modules/vl53l1_api_preset_modes.c **** 	pdata->tp_mm_timeout_lite_us                 =
 789              		.loc 1 553 2 is_stmt 1 view .LVU333
 790              		.loc 1 553 47 is_stmt 0 view .LVU334
 791 00a4 4FF4FA61 		mov	r1, #2000
 792 00a8 9965     		str	r1, [r3, #88]
 554:Drivers/BSP/Components/vl53l1cb/modules/vl53l1_api_preset_modes.c **** 			VL53L1_TUNINGPARM_LITE_MM_CONFIG_TIMEOUT_US_DEFAULT;
 555:Drivers/BSP/Components/vl53l1cb/modules/vl53l1_api_preset_modes.c **** 	pdata->tp_mm_timeout_histo_us                =
 793              		.loc 1 555 2 is_stmt 1 view .LVU335
 794              		.loc 1 555 47 is_stmt 0 view .LVU336
 795 00aa D965     		str	r1, [r3, #92]
 556:Drivers/BSP/Components/vl53l1cb/modules/vl53l1_api_preset_modes.c **** 			VL53L1_TUNINGPARM_RANGING_MM_CONFIG_TIMEOUT_US_DEFAULT;
 557:Drivers/BSP/Components/vl53l1cb/modules/vl53l1_api_preset_modes.c **** 	pdata->tp_mm_timeout_mz_us                   =
 796              		.loc 1 557 2 is_stmt 1 view .LVU337
 797              		.loc 1 557 47 is_stmt 0 view .LVU338
 798 00ac 1966     		str	r1, [r3, #96]
 558:Drivers/BSP/Components/vl53l1cb/modules/vl53l1_api_preset_modes.c **** 			VL53L1_TUNINGPARM_MZ_MM_CONFIG_TIMEOUT_US_DEFAULT;
 559:Drivers/BSP/Components/vl53l1cb/modules/vl53l1_api_preset_modes.c **** 	pdata->tp_mm_timeout_timed_us                =
 799              		.loc 1 559 2 is_stmt 1 view .LVU339
 800              		.loc 1 559 47 is_stmt 0 view .LVU340
 801 00ae 5966     		str	r1, [r3, #100]
 560:Drivers/BSP/Components/vl53l1cb/modules/vl53l1_api_preset_modes.c **** 			VL53L1_TUNINGPARM_TIMED_MM_CONFIG_TIMEOUT_US_DEFAULT;
 561:Drivers/BSP/Components/vl53l1cb/modules/vl53l1_api_preset_modes.c **** 	pdata->tp_range_timeout_lite_us              =
 802              		.loc 1 561 2 is_stmt 1 view .LVU341
 803              		.loc 1 561 47 is_stmt 0 view .LVU342
 804 00b0 4FF21866 		movw	r6, #63000
 805 00b4 DE66     		str	r6, [r3, #108]
 562:Drivers/BSP/Components/vl53l1cb/modules/vl53l1_api_preset_modes.c **** 			VL53L1_TUNINGPARM_LITE_RANGE_CONFIG_TIMEOUT_US_DEFAULT;
 563:Drivers/BSP/Components/vl53l1cb/modules/vl53l1_api_preset_modes.c **** 	pdata->tp_range_timeout_histo_us             =
 806              		.loc 1 563 2 is_stmt 1 view .LVU343
 807              		.loc 1 563 47 is_stmt 0 view .LVU344
 808 00b6 40F6C416 		movw	r6, #2500
 809 00ba 1E67     		str	r6, [r3, #112]
 564:Drivers/BSP/Components/vl53l1cb/modules/vl53l1_api_preset_modes.c **** 		VL53L1_TUNINGPARM_RANGING_RANGE_CONFIG_TIMEOUT_US_DEFAULT;
 565:Drivers/BSP/Components/vl53l1cb/modules/vl53l1_api_preset_modes.c **** 	pdata->tp_range_timeout_mz_us                =
ARM GAS  C:\Temp\ccoVwn9Y.s 			page 25


 810              		.loc 1 565 2 is_stmt 1 view .LVU345
 811              		.loc 1 565 47 is_stmt 0 view .LVU346
 812 00bc 5E67     		str	r6, [r3, #116]
 566:Drivers/BSP/Components/vl53l1cb/modules/vl53l1_api_preset_modes.c **** 			VL53L1_TUNINGPARM_MZ_RANGE_CONFIG_TIMEOUT_US_DEFAULT;
 567:Drivers/BSP/Components/vl53l1cb/modules/vl53l1_api_preset_modes.c **** 	pdata->tp_range_timeout_timed_us             =
 813              		.loc 1 567 2 is_stmt 1 view .LVU347
 814              		.loc 1 567 47 is_stmt 0 view .LVU348
 815 00be 43F2C826 		movw	r6, #13000
 816 00c2 9E67     		str	r6, [r3, #120]
 568:Drivers/BSP/Components/vl53l1cb/modules/vl53l1_api_preset_modes.c **** 		VL53L1_TUNINGPARM_TIMED_RANGE_CONFIG_TIMEOUT_US_DEFAULT;
 569:Drivers/BSP/Components/vl53l1cb/modules/vl53l1_api_preset_modes.c **** 
 570:Drivers/BSP/Components/vl53l1cb/modules/vl53l1_api_preset_modes.c **** 
 571:Drivers/BSP/Components/vl53l1cb/modules/vl53l1_api_preset_modes.c **** 
 572:Drivers/BSP/Components/vl53l1cb/modules/vl53l1_api_preset_modes.c **** 	pdata->tp_mm_timeout_lpa_us =
 817              		.loc 1 572 2 is_stmt 1 view .LVU349
 818              		.loc 1 572 30 is_stmt 0 view .LVU350
 819 00c4 9C66     		str	r4, [r3, #104]
 573:Drivers/BSP/Components/vl53l1cb/modules/vl53l1_api_preset_modes.c **** 		VL53L1_TUNINGPARM_LOWPOWERAUTO_MM_CONFIG_TIMEOUT_US_DEFAULT;
 574:Drivers/BSP/Components/vl53l1cb/modules/vl53l1_api_preset_modes.c **** 	pdata->tp_range_timeout_lpa_us =
 820              		.loc 1 574 2 is_stmt 1 view .LVU351
 821              		.loc 1 574 33 is_stmt 0 view .LVU352
 822 00c6 4FF4FA56 		mov	r6, #8000
 823 00ca DE67     		str	r6, [r3, #124]
 575:Drivers/BSP/Components/vl53l1cb/modules/vl53l1_api_preset_modes.c **** 		VL53L1_TUNINGPARM_LOWPOWERAUTO_RANGE_CONFIG_TIMEOUT_US_DEFAULT;
 576:Drivers/BSP/Components/vl53l1cb/modules/vl53l1_api_preset_modes.c **** 
 577:Drivers/BSP/Components/vl53l1cb/modules/vl53l1_api_preset_modes.c **** 	pdata->tp_dss_target_very_short_mcps =
 824              		.loc 1 577 2 is_stmt 1 view .LVU353
 825              		.loc 1 577 39 is_stmt 0 view .LVU354
 826 00cc 4FF42056 		mov	r6, #10240
 827 00d0 9E86     		strh	r6, [r3, #52]	@ movhi
 578:Drivers/BSP/Components/vl53l1cb/modules/vl53l1_api_preset_modes.c **** 		VL53L1_TUNINGPARM_VERY_SHORT_DSS_RATE_MCPS_DEFAULT;
 579:Drivers/BSP/Components/vl53l1cb/modules/vl53l1_api_preset_modes.c **** 
 580:Drivers/BSP/Components/vl53l1cb/modules/vl53l1_api_preset_modes.c **** 	pdata->tp_phasecal_patch_power =
 828              		.loc 1 580 2 is_stmt 1 view .LVU355
 829              		.loc 1 580 33 is_stmt 0 view .LVU356
 830 00d2 C3F88000 		str	r0, [r3, #128]
 581:Drivers/BSP/Components/vl53l1cb/modules/vl53l1_api_preset_modes.c **** 		VL53L1_TUNINGPARM_PHASECAL_PATCH_POWER_DEFAULT;
 582:Drivers/BSP/Components/vl53l1cb/modules/vl53l1_api_preset_modes.c **** 
 583:Drivers/BSP/Components/vl53l1cb/modules/vl53l1_api_preset_modes.c **** 	pdata->tp_hist_merge =
 831              		.loc 1 583 2 is_stmt 1 view .LVU357
 832              		.loc 1 583 23 is_stmt 0 view .LVU358
 833 00d6 83F88440 		strb	r4, [r3, #132]
 584:Drivers/BSP/Components/vl53l1cb/modules/vl53l1_api_preset_modes.c **** 		VL53L1_TUNINGPARM_HIST_MERGE_DEFAULT;
 585:Drivers/BSP/Components/vl53l1cb/modules/vl53l1_api_preset_modes.c **** 
 586:Drivers/BSP/Components/vl53l1cb/modules/vl53l1_api_preset_modes.c **** 	pdata->tp_reset_merge_threshold =
 834              		.loc 1 586 2 is_stmt 1 view .LVU359
 835              		.loc 1 586 34 is_stmt 0 view .LVU360
 836 00da 42F21076 		movw	r6, #10000
 837 00de C3F88860 		str	r6, [r3, #136]
 587:Drivers/BSP/Components/vl53l1cb/modules/vl53l1_api_preset_modes.c **** 		VL53L1_TUNINGPARM_RESET_MERGE_THRESHOLD_DEFAULT;
 588:Drivers/BSP/Components/vl53l1cb/modules/vl53l1_api_preset_modes.c **** 
 589:Drivers/BSP/Components/vl53l1cb/modules/vl53l1_api_preset_modes.c **** 	pdata->tp_hist_merge_max_size =
 838              		.loc 1 589 2 is_stmt 1 view .LVU361
 839              		.loc 1 589 32 is_stmt 0 view .LVU362
 840 00e2 83F88C20 		strb	r2, [r3, #140]
 590:Drivers/BSP/Components/vl53l1cb/modules/vl53l1_api_preset_modes.c **** 		VL53L1_TUNINGPARM_HIST_MERGE_MAX_SIZE_DEFAULT;
 591:Drivers/BSP/Components/vl53l1cb/modules/vl53l1_api_preset_modes.c **** 
ARM GAS  C:\Temp\ccoVwn9Y.s 			page 26


 592:Drivers/BSP/Components/vl53l1cb/modules/vl53l1_api_preset_modes.c **** 	pdata->tp_uwr_enable =
 841              		.loc 1 592 2 is_stmt 1 view .LVU363
 842              		.loc 1 592 23 is_stmt 0 view .LVU364
 843 00e6 83F88D40 		strb	r4, [r3, #141]
 593:Drivers/BSP/Components/vl53l1cb/modules/vl53l1_api_preset_modes.c **** 		VL53L1_TUNINGPARM_UWR_ENABLE_DEFAULT;
 594:Drivers/BSP/Components/vl53l1cb/modules/vl53l1_api_preset_modes.c **** 	pdata->tp_uwr_med_z_1_min =
 844              		.loc 1 594 2 is_stmt 1 view .LVU365
 845              		.loc 1 594 28 is_stmt 0 view .LVU366
 846 00ea A3F88E10 		strh	r1, [r3, #142]	@ movhi
 595:Drivers/BSP/Components/vl53l1cb/modules/vl53l1_api_preset_modes.c **** 		VL53L1_TUNINGPARM_UWR_MEDIUM_ZONE_1_MIN_DEFAULT;
 596:Drivers/BSP/Components/vl53l1cb/modules/vl53l1_api_preset_modes.c **** 	pdata->tp_uwr_med_z_1_max =
 847              		.loc 1 596 2 is_stmt 1 view .LVU367
 848              		.loc 1 596 28 is_stmt 0 view .LVU368
 849 00ee 40F6BE22 		movw	r2, #2750
 850 00f2 A3F89020 		strh	r2, [r3, #144]	@ movhi
 597:Drivers/BSP/Components/vl53l1cb/modules/vl53l1_api_preset_modes.c **** 		VL53L1_TUNINGPARM_UWR_MEDIUM_ZONE_1_MAX_DEFAULT;
 598:Drivers/BSP/Components/vl53l1cb/modules/vl53l1_api_preset_modes.c **** 	pdata->tp_uwr_med_z_2_min =
 851              		.loc 1 598 2 is_stmt 1 view .LVU369
 852              		.loc 1 598 28 is_stmt 0 view .LVU370
 853 00f6 FA24     		movs	r4, #250
 854 00f8 A3F89240 		strh	r4, [r3, #146]	@ movhi
 599:Drivers/BSP/Components/vl53l1cb/modules/vl53l1_api_preset_modes.c **** 		VL53L1_TUNINGPARM_UWR_MEDIUM_ZONE_2_MIN_DEFAULT;
 600:Drivers/BSP/Components/vl53l1cb/modules/vl53l1_api_preset_modes.c **** 	pdata->tp_uwr_med_z_2_max =
 855              		.loc 1 600 2 is_stmt 1 view .LVU371
 856              		.loc 1 600 28 is_stmt 0 view .LVU372
 857 00fc A3F89450 		strh	r5, [r3, #148]	@ movhi
 601:Drivers/BSP/Components/vl53l1cb/modules/vl53l1_api_preset_modes.c **** 		VL53L1_TUNINGPARM_UWR_MEDIUM_ZONE_2_MAX_DEFAULT;
 602:Drivers/BSP/Components/vl53l1cb/modules/vl53l1_api_preset_modes.c **** 	pdata->tp_uwr_med_z_3_min =
 858              		.loc 1 602 2 is_stmt 1 view .LVU373
 859              		.loc 1 602 28 is_stmt 0 view .LVU374
 860 0100 40F2E241 		movw	r1, #1250
 861 0104 A3F89610 		strh	r1, [r3, #150]	@ movhi
 603:Drivers/BSP/Components/vl53l1cb/modules/vl53l1_api_preset_modes.c **** 		VL53L1_TUNINGPARM_UWR_MEDIUM_ZONE_3_MIN_DEFAULT;
 604:Drivers/BSP/Components/vl53l1cb/modules/vl53l1_api_preset_modes.c **** 	pdata->tp_uwr_med_z_3_max =
 862              		.loc 1 604 2 is_stmt 1 view .LVU375
 863              		.loc 1 604 28 is_stmt 0 view .LVU376
 864 0108 40F2D662 		movw	r2, #1750
 865 010c A3F89820 		strh	r2, [r3, #152]	@ movhi
 605:Drivers/BSP/Components/vl53l1cb/modules/vl53l1_api_preset_modes.c **** 		VL53L1_TUNINGPARM_UWR_MEDIUM_ZONE_3_MAX_DEFAULT;
 606:Drivers/BSP/Components/vl53l1cb/modules/vl53l1_api_preset_modes.c **** 	pdata->tp_uwr_med_z_4_min =
 866              		.loc 1 606 2 is_stmt 1 view .LVU377
 867              		.loc 1 606 28 is_stmt 0 view .LVU378
 868 0110 A3F89A10 		strh	r1, [r3, #154]	@ movhi
 607:Drivers/BSP/Components/vl53l1cb/modules/vl53l1_api_preset_modes.c **** 		VL53L1_TUNINGPARM_UWR_MEDIUM_ZONE_4_MIN_DEFAULT;
 608:Drivers/BSP/Components/vl53l1cb/modules/vl53l1_api_preset_modes.c **** 	pdata->tp_uwr_med_z_4_max =
 869              		.loc 1 608 2 is_stmt 1 view .LVU379
 870              		.loc 1 608 28 is_stmt 0 view .LVU380
 871 0114 A3F89C20 		strh	r2, [r3, #156]	@ movhi
 609:Drivers/BSP/Components/vl53l1cb/modules/vl53l1_api_preset_modes.c **** 		VL53L1_TUNINGPARM_UWR_MEDIUM_ZONE_4_MAX_DEFAULT;
 610:Drivers/BSP/Components/vl53l1cb/modules/vl53l1_api_preset_modes.c **** 	pdata->tp_uwr_med_z_5_min =
 872              		.loc 1 610 2 is_stmt 1 view .LVU381
 873              		.loc 1 610 28 is_stmt 0 view .LVU382
 874 0118 4FF6387C 		movw	ip, #65336
 875 011c A3F89EC0 		strh	ip, [r3, #158]	@ movhi
 611:Drivers/BSP/Components/vl53l1cb/modules/vl53l1_api_preset_modes.c **** 		VL53L1_TUNINGPARM_UWR_MEDIUM_ZONE_5_MIN_DEFAULT;
 612:Drivers/BSP/Components/vl53l1cb/modules/vl53l1_api_preset_modes.c **** 	pdata->tp_uwr_med_z_5_max =
 876              		.loc 1 612 2 is_stmt 1 view .LVU383
ARM GAS  C:\Temp\ccoVwn9Y.s 			page 27


 877              		.loc 1 612 28 is_stmt 0 view .LVU384
 878 0120 C825     		movs	r5, #200
 879 0122 A3F8A050 		strh	r5, [r3, #160]	@ movhi
 613:Drivers/BSP/Components/vl53l1cb/modules/vl53l1_api_preset_modes.c **** 		VL53L1_TUNINGPARM_UWR_MEDIUM_ZONE_5_MAX_DEFAULT;
 614:Drivers/BSP/Components/vl53l1cb/modules/vl53l1_api_preset_modes.c **** 	pdata->tp_uwr_med_z_6_min =
 880              		.loc 1 614 2 is_stmt 1 view .LVU385
 881              		.loc 1 614 28 is_stmt 0 view .LVU386
 882 0126 A3F8A240 		strh	r4, [r3, #162]	@ movhi
 615:Drivers/BSP/Components/vl53l1cb/modules/vl53l1_api_preset_modes.c **** 		VL53L1_TUNINGPARM_UWR_MEDIUM_ZONE_6_MIN_DEFAULT;
 616:Drivers/BSP/Components/vl53l1cb/modules/vl53l1_api_preset_modes.c **** 	pdata->tp_uwr_med_z_6_max =
 883              		.loc 1 616 2 is_stmt 1 view .LVU387
 884              		.loc 1 616 28 is_stmt 0 view .LVU388
 885 012a 40F27E42 		movw	r2, #1150
 886 012e A3F8A420 		strh	r2, [r3, #164]	@ movhi
 617:Drivers/BSP/Components/vl53l1cb/modules/vl53l1_api_preset_modes.c **** 		VL53L1_TUNINGPARM_UWR_MEDIUM_ZONE_6_MAX_DEFAULT;
 618:Drivers/BSP/Components/vl53l1cb/modules/vl53l1_api_preset_modes.c **** 	pdata->tp_uwr_med_corr_z_1_rangea =
 887              		.loc 1 618 2 is_stmt 1 view .LVU389
 888              		.loc 1 618 36 is_stmt 0 view .LVU390
 889 0132 40F60612 		movw	r2, #2310
 890 0136 A3F8A620 		strh	r2, [r3, #166]	@ movhi
 619:Drivers/BSP/Components/vl53l1cb/modules/vl53l1_api_preset_modes.c **** 		VL53L1_TUNINGPARM_UWR_MEDIUM_CORRECTION_ZONE_1_RANGEA_DEFAULT;
 620:Drivers/BSP/Components/vl53l1cb/modules/vl53l1_api_preset_modes.c **** 	pdata->tp_uwr_med_corr_z_1_rangeb =
 891              		.loc 1 620 2 is_stmt 1 view .LVU391
 892              		.loc 1 620 36 is_stmt 0 view .LVU392
 893 013a A3F8A800 		strh	r0, [r3, #168]	@ movhi
 621:Drivers/BSP/Components/vl53l1cb/modules/vl53l1_api_preset_modes.c **** 		VL53L1_TUNINGPARM_UWR_MEDIUM_CORRECTION_ZONE_1_RANGEB_DEFAULT;
 622:Drivers/BSP/Components/vl53l1cb/modules/vl53l1_api_preset_modes.c **** 	pdata->tp_uwr_med_corr_z_2_rangea =
 894              		.loc 1 622 2 is_stmt 1 view .LVU393
 895              		.loc 1 622 36 is_stmt 0 view .LVU394
 896 013e A3F8AA20 		strh	r2, [r3, #170]	@ movhi
 623:Drivers/BSP/Components/vl53l1cb/modules/vl53l1_api_preset_modes.c **** 		VL53L1_TUNINGPARM_UWR_MEDIUM_CORRECTION_ZONE_2_RANGEA_DEFAULT;
 624:Drivers/BSP/Components/vl53l1cb/modules/vl53l1_api_preset_modes.c **** 	pdata->tp_uwr_med_corr_z_2_rangeb =
 897              		.loc 1 624 2 is_stmt 1 view .LVU395
 898              		.loc 1 624 36 is_stmt 0 view .LVU396
 899 0142 40F61C4E 		movw	lr, #3100
 900 0146 A3F8ACE0 		strh	lr, [r3, #172]	@ movhi
 625:Drivers/BSP/Components/vl53l1cb/modules/vl53l1_api_preset_modes.c **** 		VL53L1_TUNINGPARM_UWR_MEDIUM_CORRECTION_ZONE_2_RANGEB_DEFAULT;
 626:Drivers/BSP/Components/vl53l1cb/modules/vl53l1_api_preset_modes.c **** 	pdata->tp_uwr_med_corr_z_3_rangea =
 901              		.loc 1 626 2 is_stmt 1 view .LVU397
 902              		.loc 1 626 36 is_stmt 0 view .LVU398
 903 014a 4FF49152 		mov	r2, #4640
 904 014e A3F8AE20 		strh	r2, [r3, #174]	@ movhi
 627:Drivers/BSP/Components/vl53l1cb/modules/vl53l1_api_preset_modes.c **** 		VL53L1_TUNINGPARM_UWR_MEDIUM_CORRECTION_ZONE_3_RANGEA_DEFAULT;
 628:Drivers/BSP/Components/vl53l1cb/modules/vl53l1_api_preset_modes.c **** 	pdata->tp_uwr_med_corr_z_3_rangeb =
 905              		.loc 1 628 2 is_stmt 1 view .LVU399
 906              		.loc 1 628 36 is_stmt 0 view .LVU400
 907 0152 A3F8B0E0 		strh	lr, [r3, #176]	@ movhi
 629:Drivers/BSP/Components/vl53l1cb/modules/vl53l1_api_preset_modes.c **** 		VL53L1_TUNINGPARM_UWR_MEDIUM_CORRECTION_ZONE_3_RANGEB_DEFAULT;
 630:Drivers/BSP/Components/vl53l1cb/modules/vl53l1_api_preset_modes.c **** 	pdata->tp_uwr_med_corr_z_4_rangea =
 908              		.loc 1 630 2 is_stmt 1 view .LVU401
 909              		.loc 1 630 36 is_stmt 0 view .LVU402
 910 0156 A3F8B220 		strh	r2, [r3, #178]	@ movhi
 631:Drivers/BSP/Components/vl53l1cb/modules/vl53l1_api_preset_modes.c **** 		VL53L1_TUNINGPARM_UWR_MEDIUM_CORRECTION_ZONE_4_RANGEA_DEFAULT;
 632:Drivers/BSP/Components/vl53l1cb/modules/vl53l1_api_preset_modes.c **** 	pdata->tp_uwr_med_corr_z_4_rangeb =
 911              		.loc 1 632 2 is_stmt 1 view .LVU403
 912              		.loc 1 632 36 is_stmt 0 view .LVU404
 913 015a 41F62E0E 		movw	lr, #6190
ARM GAS  C:\Temp\ccoVwn9Y.s 			page 28


 914 015e A3F8B4E0 		strh	lr, [r3, #180]	@ movhi
 633:Drivers/BSP/Components/vl53l1cb/modules/vl53l1_api_preset_modes.c **** 		VL53L1_TUNINGPARM_UWR_MEDIUM_CORRECTION_ZONE_4_RANGEB_DEFAULT;
 634:Drivers/BSP/Components/vl53l1cb/modules/vl53l1_api_preset_modes.c **** 	pdata->tp_uwr_med_corr_z_5_rangea =
 915              		.loc 1 634 2 is_stmt 1 view .LVU405
 916              		.loc 1 634 36 is_stmt 0 view .LVU406
 917 0162 A3F8B600 		strh	r0, [r3, #182]	@ movhi
 635:Drivers/BSP/Components/vl53l1cb/modules/vl53l1_api_preset_modes.c **** 		VL53L1_TUNINGPARM_UWR_MEDIUM_CORRECTION_ZONE_5_RANGEA_DEFAULT;
 636:Drivers/BSP/Components/vl53l1cb/modules/vl53l1_api_preset_modes.c **** 	pdata->tp_uwr_med_corr_z_5_rangeb =
 918              		.loc 1 636 2 is_stmt 1 view .LVU407
 919              		.loc 1 636 36 is_stmt 0 view .LVU408
 920 0166 A3F8B800 		strh	r0, [r3, #184]	@ movhi
 637:Drivers/BSP/Components/vl53l1cb/modules/vl53l1_api_preset_modes.c **** 		VL53L1_TUNINGPARM_UWR_MEDIUM_CORRECTION_ZONE_5_RANGEB_DEFAULT;
 638:Drivers/BSP/Components/vl53l1cb/modules/vl53l1_api_preset_modes.c **** 	pdata->tp_uwr_med_corr_z_6_rangea =
 921              		.loc 1 638 2 is_stmt 1 view .LVU409
 922              		.loc 1 638 36 is_stmt 0 view .LVU410
 923 016a 41F63037 		movw	r7, #6960
 924 016e A3F8BA70 		strh	r7, [r3, #186]	@ movhi
 639:Drivers/BSP/Components/vl53l1cb/modules/vl53l1_api_preset_modes.c **** 		VL53L1_TUNINGPARM_UWR_MEDIUM_CORRECTION_ZONE_6_RANGEA_DEFAULT;
 640:Drivers/BSP/Components/vl53l1cb/modules/vl53l1_api_preset_modes.c **** 	pdata->tp_uwr_med_corr_z_6_rangeb =
 925              		.loc 1 640 2 is_stmt 1 view .LVU411
 926              		.loc 1 640 36 is_stmt 0 view .LVU412
 927 0172 A3F8BCE0 		strh	lr, [r3, #188]	@ movhi
 641:Drivers/BSP/Components/vl53l1cb/modules/vl53l1_api_preset_modes.c **** 		VL53L1_TUNINGPARM_UWR_MEDIUM_CORRECTION_ZONE_6_RANGEB_DEFAULT;
 642:Drivers/BSP/Components/vl53l1cb/modules/vl53l1_api_preset_modes.c **** 	pdata->tp_uwr_lng_z_1_min =
 928              		.loc 1 642 2 is_stmt 1 view .LVU413
 929              		.loc 1 642 28 is_stmt 0 view .LVU414
 930 0176 A3F8BE40 		strh	r4, [r3, #190]	@ movhi
 643:Drivers/BSP/Components/vl53l1cb/modules/vl53l1_api_preset_modes.c **** 		VL53L1_TUNINGPARM_UWR_LONG_ZONE_1_MIN_DEFAULT;
 644:Drivers/BSP/Components/vl53l1cb/modules/vl53l1_api_preset_modes.c **** 	pdata->tp_uwr_lng_z_1_max =
 931              		.loc 1 644 2 is_stmt 1 view .LVU415
 932              		.loc 1 644 28 is_stmt 0 view .LVU416
 933 017a A3F8C010 		strh	r1, [r3, #192]	@ movhi
 645:Drivers/BSP/Components/vl53l1cb/modules/vl53l1_api_preset_modes.c **** 		VL53L1_TUNINGPARM_UWR_LONG_ZONE_1_MAX_DEFAULT;
 646:Drivers/BSP/Components/vl53l1cb/modules/vl53l1_api_preset_modes.c **** 	pdata->tp_uwr_lng_z_2_min =
 934              		.loc 1 646 2 is_stmt 1 view .LVU417
 935              		.loc 1 646 28 is_stmt 0 view .LVU418
 936 017e 40F6AC51 		movw	r1, #3500
 937 0182 A3F8C210 		strh	r1, [r3, #194]	@ movhi
 647:Drivers/BSP/Components/vl53l1cb/modules/vl53l1_api_preset_modes.c **** 		VL53L1_TUNINGPARM_UWR_LONG_ZONE_2_MIN_DEFAULT;
 648:Drivers/BSP/Components/vl53l1cb/modules/vl53l1_api_preset_modes.c **** 	pdata->tp_uwr_lng_z_2_max =
 938              		.loc 1 648 2 is_stmt 1 view .LVU419
 939              		.loc 1 648 28 is_stmt 0 view .LVU420
 940 0186 41F29411 		movw	r1, #4500
 941 018a A3F8C410 		strh	r1, [r3, #196]	@ movhi
 649:Drivers/BSP/Components/vl53l1cb/modules/vl53l1_api_preset_modes.c **** 		VL53L1_TUNINGPARM_UWR_LONG_ZONE_2_MAX_DEFAULT;
 650:Drivers/BSP/Components/vl53l1cb/modules/vl53l1_api_preset_modes.c **** 	pdata->tp_uwr_lng_z_3_min =
 942              		.loc 1 650 2 is_stmt 1 view .LVU421
 943              		.loc 1 650 28 is_stmt 0 view .LVU422
 944 018e A3F8C6C0 		strh	ip, [r3, #198]	@ movhi
 651:Drivers/BSP/Components/vl53l1cb/modules/vl53l1_api_preset_modes.c **** 		VL53L1_TUNINGPARM_UWR_LONG_ZONE_3_MIN_DEFAULT;
 652:Drivers/BSP/Components/vl53l1cb/modules/vl53l1_api_preset_modes.c **** 	pdata->tp_uwr_lng_z_3_max =
 945              		.loc 1 652 2 is_stmt 1 view .LVU423
 946              		.loc 1 652 28 is_stmt 0 view .LVU424
 947 0192 A3F8C850 		strh	r5, [r3, #200]	@ movhi
 653:Drivers/BSP/Components/vl53l1cb/modules/vl53l1_api_preset_modes.c **** 		VL53L1_TUNINGPARM_UWR_LONG_ZONE_3_MAX_DEFAULT;
 654:Drivers/BSP/Components/vl53l1cb/modules/vl53l1_api_preset_modes.c **** 	pdata->tp_uwr_lng_z_4_min =
 948              		.loc 1 654 2 is_stmt 1 view .LVU425
ARM GAS  C:\Temp\ccoVwn9Y.s 			page 29


 949              		.loc 1 654 28 is_stmt 0 view .LVU426
 950 0196 40F62231 		movw	r1, #2850
 951 019a A3F8CA10 		strh	r1, [r3, #202]	@ movhi
 655:Drivers/BSP/Components/vl53l1cb/modules/vl53l1_api_preset_modes.c **** 		VL53L1_TUNINGPARM_UWR_LONG_ZONE_4_MIN_DEFAULT;
 656:Drivers/BSP/Components/vl53l1cb/modules/vl53l1_api_preset_modes.c **** 	pdata->tp_uwr_lng_z_4_max =
 952              		.loc 1 656 2 is_stmt 1 view .LVU427
 953              		.loc 1 656 28 is_stmt 0 view .LVU428
 954 019e 40F6E441 		movw	r1, #3300
 955 01a2 A3F8CC10 		strh	r1, [r3, #204]	@ movhi
 657:Drivers/BSP/Components/vl53l1cb/modules/vl53l1_api_preset_modes.c **** 		VL53L1_TUNINGPARM_UWR_LONG_ZONE_4_MAX_DEFAULT;
 658:Drivers/BSP/Components/vl53l1cb/modules/vl53l1_api_preset_modes.c **** 	pdata->tp_uwr_lng_z_5_min =
 956              		.loc 1 658 2 is_stmt 1 view .LVU429
 957              		.loc 1 658 28 is_stmt 0 view .LVU430
 958 01a6 A3F8CE00 		strh	r0, [r3, #206]	@ movhi
 659:Drivers/BSP/Components/vl53l1cb/modules/vl53l1_api_preset_modes.c **** 		VL53L1_TUNINGPARM_UWR_LONG_ZONE_5_MIN_DEFAULT;
 660:Drivers/BSP/Components/vl53l1cb/modules/vl53l1_api_preset_modes.c **** 	pdata->tp_uwr_lng_z_5_max =
 959              		.loc 1 660 2 is_stmt 1 view .LVU431
 960              		.loc 1 660 28 is_stmt 0 view .LVU432
 961 01aa A3F8D000 		strh	r0, [r3, #208]	@ movhi
 661:Drivers/BSP/Components/vl53l1cb/modules/vl53l1_api_preset_modes.c **** 		VL53L1_TUNINGPARM_UWR_LONG_ZONE_5_MAX_DEFAULT;
 662:Drivers/BSP/Components/vl53l1cb/modules/vl53l1_api_preset_modes.c **** 	pdata->tp_uwr_lng_corr_z_1_rangea =
 962              		.loc 1 662 2 is_stmt 1 view .LVU433
 963              		.loc 1 662 36 is_stmt 0 view .LVU434
 964 01ae 40F61E71 		movw	r1, #3870
 965 01b2 A3F8D210 		strh	r1, [r3, #210]	@ movhi
 663:Drivers/BSP/Components/vl53l1cb/modules/vl53l1_api_preset_modes.c **** 		VL53L1_TUNINGPARM_UWR_LONG_CORRECTION_ZONE_1_RANGEA_DEFAULT;
 664:Drivers/BSP/Components/vl53l1cb/modules/vl53l1_api_preset_modes.c **** 	pdata->tp_uwr_lng_corr_z_1_rangeb =
 966              		.loc 1 664 2 is_stmt 1 view .LVU435
 967              		.loc 1 664 36 is_stmt 0 view .LVU436
 968 01b6 41F22A21 		movw	r1, #4650
 969 01ba A3F8D410 		strh	r1, [r3, #212]	@ movhi
 665:Drivers/BSP/Components/vl53l1cb/modules/vl53l1_api_preset_modes.c **** 		VL53L1_TUNINGPARM_UWR_LONG_CORRECTION_ZONE_1_RANGEB_DEFAULT;
 666:Drivers/BSP/Components/vl53l1cb/modules/vl53l1_api_preset_modes.c **** 	pdata->tp_uwr_lng_corr_z_2_rangea =
 970              		.loc 1 666 2 is_stmt 1 view .LVU437
 971              		.loc 1 666 36 is_stmt 0 view .LVU438
 972 01be 40F60A71 		movw	r1, #3850
 973 01c2 A3F8D610 		strh	r1, [r3, #214]	@ movhi
 667:Drivers/BSP/Components/vl53l1cb/modules/vl53l1_api_preset_modes.c **** 		VL53L1_TUNINGPARM_UWR_LONG_CORRECTION_ZONE_2_RANGEA_DEFAULT;
 668:Drivers/BSP/Components/vl53l1cb/modules/vl53l1_api_preset_modes.c **** 	pdata->tp_uwr_lng_corr_z_2_rangeb =
 974              		.loc 1 668 2 is_stmt 1 view .LVU439
 975              		.loc 1 668 36 is_stmt 0 view .LVU440
 976 01c6 A3F8D800 		strh	r0, [r3, #216]	@ movhi
 669:Drivers/BSP/Components/vl53l1cb/modules/vl53l1_api_preset_modes.c **** 		VL53L1_TUNINGPARM_UWR_LONG_CORRECTION_ZONE_2_RANGEB_DEFAULT;
 670:Drivers/BSP/Components/vl53l1cb/modules/vl53l1_api_preset_modes.c **** 	pdata->tp_uwr_lng_corr_z_3_rangea =
 977              		.loc 1 670 2 is_stmt 1 view .LVU441
 978              		.loc 1 670 36 is_stmt 0 view .LVU442
 979 01ca A3F8DA00 		strh	r0, [r3, #218]	@ movhi
 671:Drivers/BSP/Components/vl53l1cb/modules/vl53l1_api_preset_modes.c **** 		VL53L1_TUNINGPARM_UWR_LONG_CORRECTION_ZONE_3_RANGEA_DEFAULT;
 672:Drivers/BSP/Components/vl53l1cb/modules/vl53l1_api_preset_modes.c **** 	pdata->tp_uwr_lng_corr_z_3_rangeb =
 980              		.loc 1 672 2 is_stmt 1 view .LVU443
 981              		.loc 1 672 36 is_stmt 0 view .LVU444
 982 01ce A3F8DC00 		strh	r0, [r3, #220]	@ movhi
 673:Drivers/BSP/Components/vl53l1cb/modules/vl53l1_api_preset_modes.c **** 		VL53L1_TUNINGPARM_UWR_LONG_CORRECTION_ZONE_3_RANGEB_DEFAULT;
 674:Drivers/BSP/Components/vl53l1cb/modules/vl53l1_api_preset_modes.c **** 	pdata->tp_uwr_lng_corr_z_4_rangea =
 983              		.loc 1 674 2 is_stmt 1 view .LVU445
 984              		.loc 1 674 36 is_stmt 0 view .LVU446
 985 01d2 41F61461 		movw	r1, #7700
ARM GAS  C:\Temp\ccoVwn9Y.s 			page 30


 986 01d6 A3F8DE10 		strh	r1, [r3, #222]	@ movhi
 675:Drivers/BSP/Components/vl53l1cb/modules/vl53l1_api_preset_modes.c **** 		VL53L1_TUNINGPARM_UWR_LONG_CORRECTION_ZONE_4_RANGEA_DEFAULT;
 676:Drivers/BSP/Components/vl53l1cb/modules/vl53l1_api_preset_modes.c **** 	pdata->tp_uwr_lng_corr_z_4_rangeb =
 987              		.loc 1 676 2 is_stmt 1 view .LVU447
 988              		.loc 1 676 36 is_stmt 0 view .LVU448
 989 01da A3F8E020 		strh	r2, [r3, #224]	@ movhi
 677:Drivers/BSP/Components/vl53l1cb/modules/vl53l1_api_preset_modes.c **** 		VL53L1_TUNINGPARM_UWR_LONG_CORRECTION_ZONE_4_RANGEB_DEFAULT;
 678:Drivers/BSP/Components/vl53l1cb/modules/vl53l1_api_preset_modes.c **** 	pdata->tp_uwr_lng_corr_z_5_rangea =
 990              		.loc 1 678 2 is_stmt 1 view .LVU449
 991              		.loc 1 678 36 is_stmt 0 view .LVU450
 992 01de A3F8E200 		strh	r0, [r3, #226]	@ movhi
 679:Drivers/BSP/Components/vl53l1cb/modules/vl53l1_api_preset_modes.c **** 		VL53L1_TUNINGPARM_UWR_LONG_CORRECTION_ZONE_5_RANGEA_DEFAULT;
 680:Drivers/BSP/Components/vl53l1cb/modules/vl53l1_api_preset_modes.c **** 	pdata->tp_uwr_lng_corr_z_5_rangeb =
 993              		.loc 1 680 2 is_stmt 1 view .LVU451
 994              		.loc 1 680 36 is_stmt 0 view .LVU452
 995 01e2 A3F8E400 		strh	r0, [r3, #228]	@ movhi
 681:Drivers/BSP/Components/vl53l1cb/modules/vl53l1_api_preset_modes.c **** 		VL53L1_TUNINGPARM_UWR_LONG_CORRECTION_ZONE_5_RANGEB_DEFAULT;
 682:Drivers/BSP/Components/vl53l1cb/modules/vl53l1_api_preset_modes.c **** 	pdata->tp_min_signal_secondary_targets =
 996              		.loc 1 682 2 is_stmt 1 view .LVU453
 997              		.loc 1 682 41 is_stmt 0 view .LVU454
 998 01e6 41F68812 		movw	r2, #6536
 999 01ea C3F8E820 		str	r2, [r3, #232]
 683:Drivers/BSP/Components/vl53l1cb/modules/vl53l1_api_preset_modes.c **** 		VL53L1_TUNINGPARM_MIN_SIGNAL_SECONDARY_TARGETS_DEFAULT;
 684:Drivers/BSP/Components/vl53l1cb/modules/vl53l1_api_preset_modes.c **** 	pdata->tp_dss_max_total_rate_per_spad_mcps =
 1000              		.loc 1 684 2 is_stmt 1 view .LVU455
 1001              		.loc 1 684 45 is_stmt 0 view .LVU456
 1002 01ee A3F8EC60 		strh	r6, [r3, #236]	@ movhi
 685:Drivers/BSP/Components/vl53l1cb/modules/vl53l1_api_preset_modes.c **** 		VL53L1_TUNINGPARM_MAX_TOTAL_RATE_PER_SPAD_DEFAULT;
 686:Drivers/BSP/Components/vl53l1cb/modules/vl53l1_api_preset_modes.c **** 	pdata->tp_dss_rec_total_rate_per_spad_mcps =
 1003              		.loc 1 686 2 is_stmt 1 view .LVU457
 1004              		.loc 1 686 45 is_stmt 0 view .LVU458
 1005 01f2 41F28832 		movw	r2, #5000
 1006 01f6 A3F8EE20 		strh	r2, [r3, #238]	@ movhi
 687:Drivers/BSP/Components/vl53l1cb/modules/vl53l1_api_preset_modes.c **** 		VL53L1_TUNINGPARM_RECOVER_TOTAL_RATE_PER_SPAD_DEFAULT;
 688:Drivers/BSP/Components/vl53l1cb/modules/vl53l1_api_preset_modes.c **** 	LOG_FUNCTION_END(status);
 1007              		.loc 1 688 26 is_stmt 1 view .LVU459
 689:Drivers/BSP/Components/vl53l1cb/modules/vl53l1_api_preset_modes.c **** 
 690:Drivers/BSP/Components/vl53l1cb/modules/vl53l1_api_preset_modes.c **** 	return status;
 1008              		.loc 1 690 2 view .LVU460
 691:Drivers/BSP/Components/vl53l1cb/modules/vl53l1_api_preset_modes.c **** }
 1009              		.loc 1 691 1 is_stmt 0 view .LVU461
 1010 01fa F0BD     		pop	{r4, r5, r6, r7, pc}
 1011              		.cfi_endproc
 1012              	.LFE11:
 1014              		.section	.text.VL53L1_init_hist_gen3_dmax_config_struct,"ax",%progbits
 1015              		.align	1
 1016              		.global	VL53L1_init_hist_gen3_dmax_config_struct
 1017              		.syntax unified
 1018              		.thumb
 1019              		.thumb_func
 1021              	VL53L1_init_hist_gen3_dmax_config_struct:
 1022              	.LVL26:
 1023              	.LFB12:
 692:Drivers/BSP/Components/vl53l1cb/modules/vl53l1_api_preset_modes.c **** 
 693:Drivers/BSP/Components/vl53l1cb/modules/vl53l1_api_preset_modes.c **** 
 694:Drivers/BSP/Components/vl53l1cb/modules/vl53l1_api_preset_modes.c **** VL53L1_Error VL53L1_init_hist_gen3_dmax_config_struct(
 695:Drivers/BSP/Components/vl53l1cb/modules/vl53l1_api_preset_modes.c **** 	VL53L1_hist_gen3_dmax_config_t   *pdata)
ARM GAS  C:\Temp\ccoVwn9Y.s 			page 31


 696:Drivers/BSP/Components/vl53l1cb/modules/vl53l1_api_preset_modes.c **** {
 1024              		.loc 1 696 1 is_stmt 1 view -0
 1025              		.cfi_startproc
 1026              		@ args = 0, pretend = 0, frame = 0
 1027              		@ frame_needed = 0, uses_anonymous_args = 0
 1028              		@ link register save eliminated.
 697:Drivers/BSP/Components/vl53l1cb/modules/vl53l1_api_preset_modes.c **** 
 698:Drivers/BSP/Components/vl53l1cb/modules/vl53l1_api_preset_modes.c **** 
 699:Drivers/BSP/Components/vl53l1cb/modules/vl53l1_api_preset_modes.c **** 	VL53L1_Error  status = VL53L1_ERROR_NONE;
 1029              		.loc 1 699 2 view .LVU463
 700:Drivers/BSP/Components/vl53l1cb/modules/vl53l1_api_preset_modes.c **** 
 701:Drivers/BSP/Components/vl53l1cb/modules/vl53l1_api_preset_modes.c **** 	LOG_FUNCTION_START("");
 1030              		.loc 1 701 24 view .LVU464
 702:Drivers/BSP/Components/vl53l1cb/modules/vl53l1_api_preset_modes.c **** 
 703:Drivers/BSP/Components/vl53l1cb/modules/vl53l1_api_preset_modes.c **** 
 704:Drivers/BSP/Components/vl53l1cb/modules/vl53l1_api_preset_modes.c **** 	pdata->dss_config__target_total_rate_mcps = 0x1400;
 1031              		.loc 1 704 2 view .LVU465
 1032              		.loc 1 704 44 is_stmt 0 view .LVU466
 1033 0000 4FF4A053 		mov	r3, #5120
 1034 0004 0383     		strh	r3, [r0, #24]	@ movhi
 705:Drivers/BSP/Components/vl53l1cb/modules/vl53l1_api_preset_modes.c **** 	pdata->dss_config__aperture_attenuation = 0x38;
 1035              		.loc 1 705 2 is_stmt 1 view .LVU467
 1036              		.loc 1 705 42 is_stmt 0 view .LVU468
 1037 0006 3823     		movs	r3, #56
 1038 0008 8376     		strb	r3, [r0, #26]
 706:Drivers/BSP/Components/vl53l1cb/modules/vl53l1_api_preset_modes.c **** 
 707:Drivers/BSP/Components/vl53l1cb/modules/vl53l1_api_preset_modes.c **** 	pdata->signal_thresh_sigma                 =
 1039              		.loc 1 707 2 is_stmt 1 view .LVU469
 1040              		.loc 1 707 45 is_stmt 0 view .LVU470
 1041 000a 2023     		movs	r3, #32
 1042 000c 0370     		strb	r3, [r0]
 708:Drivers/BSP/Components/vl53l1cb/modules/vl53l1_api_preset_modes.c **** 			VL53L1_TUNINGPARM_DMAX_CFG_SIGNAL_THRESH_SIGMA_DEFAULT;
 709:Drivers/BSP/Components/vl53l1cb/modules/vl53l1_api_preset_modes.c **** 	pdata->ambient_thresh_sigma = 0x70;
 1043              		.loc 1 709 2 is_stmt 1 view .LVU471
 1044              		.loc 1 709 30 is_stmt 0 view .LVU472
 1045 000e 7023     		movs	r3, #112
 1046 0010 4370     		strb	r3, [r0, #1]
 710:Drivers/BSP/Components/vl53l1cb/modules/vl53l1_api_preset_modes.c **** 	pdata->min_ambient_thresh_events           = 16;
 1047              		.loc 1 710 2 is_stmt 1 view .LVU473
 1048              		.loc 1 710 45 is_stmt 0 view .LVU474
 1049 0012 1023     		movs	r3, #16
 1050 0014 4360     		str	r3, [r0, #4]
 711:Drivers/BSP/Components/vl53l1cb/modules/vl53l1_api_preset_modes.c **** 	pdata->signal_total_events_limit           = 100;
 1051              		.loc 1 711 2 is_stmt 1 view .LVU475
 1052              		.loc 1 711 45 is_stmt 0 view .LVU476
 1053 0016 6423     		movs	r3, #100
 1054 0018 8360     		str	r3, [r0, #8]
 712:Drivers/BSP/Components/vl53l1cb/modules/vl53l1_api_preset_modes.c **** 	pdata->max_effective_spads = 0xFFFF;
 1055              		.loc 1 712 2 is_stmt 1 view .LVU477
 1056              		.loc 1 712 29 is_stmt 0 view .LVU478
 1057 001a 4FF6FF73 		movw	r3, #65535
 1058 001e C382     		strh	r3, [r0, #22]	@ movhi
 713:Drivers/BSP/Components/vl53l1cb/modules/vl53l1_api_preset_modes.c **** 
 714:Drivers/BSP/Components/vl53l1cb/modules/vl53l1_api_preset_modes.c **** 
 715:Drivers/BSP/Components/vl53l1cb/modules/vl53l1_api_preset_modes.c **** 
 716:Drivers/BSP/Components/vl53l1cb/modules/vl53l1_api_preset_modes.c **** 	pdata->target_reflectance_for_dmax_calc[0] =
 1059              		.loc 1 716 2 is_stmt 1 view .LVU479
ARM GAS  C:\Temp\ccoVwn9Y.s 			page 32


 1060              		.loc 1 716 45 is_stmt 0 view .LVU480
 1061 0020 0F23     		movs	r3, #15
 1062 0022 8381     		strh	r3, [r0, #12]	@ movhi
 717:Drivers/BSP/Components/vl53l1cb/modules/vl53l1_api_preset_modes.c **** 			VL53L1_TUNINGPARM_DMAX_CFG_REFLECTANCE_ARRAY_0_DEFAULT;
 718:Drivers/BSP/Components/vl53l1cb/modules/vl53l1_api_preset_modes.c **** 	pdata->target_reflectance_for_dmax_calc[1] =
 1063              		.loc 1 718 2 is_stmt 1 view .LVU481
 1064              		.loc 1 718 45 is_stmt 0 view .LVU482
 1065 0024 3423     		movs	r3, #52
 1066 0026 C381     		strh	r3, [r0, #14]	@ movhi
 719:Drivers/BSP/Components/vl53l1cb/modules/vl53l1_api_preset_modes.c **** 			VL53L1_TUNINGPARM_DMAX_CFG_REFLECTANCE_ARRAY_1_DEFAULT;
 720:Drivers/BSP/Components/vl53l1cb/modules/vl53l1_api_preset_modes.c **** 	pdata->target_reflectance_for_dmax_calc[2] =
 1067              		.loc 1 720 2 is_stmt 1 view .LVU483
 1068              		.loc 1 720 45 is_stmt 0 view .LVU484
 1069 0028 C823     		movs	r3, #200
 1070 002a 0382     		strh	r3, [r0, #16]	@ movhi
 721:Drivers/BSP/Components/vl53l1cb/modules/vl53l1_api_preset_modes.c **** 			VL53L1_TUNINGPARM_DMAX_CFG_REFLECTANCE_ARRAY_2_DEFAULT;
 722:Drivers/BSP/Components/vl53l1cb/modules/vl53l1_api_preset_modes.c **** 	pdata->target_reflectance_for_dmax_calc[3] =
 1071              		.loc 1 722 2 is_stmt 1 view .LVU485
 1072              		.loc 1 722 45 is_stmt 0 view .LVU486
 1073 002c 4FF4B673 		mov	r3, #364
 1074 0030 4382     		strh	r3, [r0, #18]	@ movhi
 723:Drivers/BSP/Components/vl53l1cb/modules/vl53l1_api_preset_modes.c **** 			VL53L1_TUNINGPARM_DMAX_CFG_REFLECTANCE_ARRAY_3_DEFAULT;
 724:Drivers/BSP/Components/vl53l1cb/modules/vl53l1_api_preset_modes.c **** 	pdata->target_reflectance_for_dmax_calc[4] =
 1075              		.loc 1 724 2 is_stmt 1 view .LVU487
 1076              		.loc 1 724 45 is_stmt 0 view .LVU488
 1077 0032 4FF4C873 		mov	r3, #400
 1078 0036 8382     		strh	r3, [r0, #20]	@ movhi
 725:Drivers/BSP/Components/vl53l1cb/modules/vl53l1_api_preset_modes.c **** 			VL53L1_TUNINGPARM_DMAX_CFG_REFLECTANCE_ARRAY_4_DEFAULT;
 726:Drivers/BSP/Components/vl53l1cb/modules/vl53l1_api_preset_modes.c **** 
 727:Drivers/BSP/Components/vl53l1cb/modules/vl53l1_api_preset_modes.c **** 	LOG_FUNCTION_END(status);
 1079              		.loc 1 727 26 is_stmt 1 view .LVU489
 728:Drivers/BSP/Components/vl53l1cb/modules/vl53l1_api_preset_modes.c **** 
 729:Drivers/BSP/Components/vl53l1cb/modules/vl53l1_api_preset_modes.c **** 	return status;
 1080              		.loc 1 729 2 view .LVU490
 730:Drivers/BSP/Components/vl53l1cb/modules/vl53l1_api_preset_modes.c **** }
 1081              		.loc 1 730 1 is_stmt 0 view .LVU491
 1082 0038 0020     		movs	r0, #0
 1083              	.LVL27:
 1084              		.loc 1 730 1 view .LVU492
 1085 003a 7047     		bx	lr
 1086              		.cfi_endproc
 1087              	.LFE12:
 1089              		.section	.text.VL53L1_preset_mode_standard_ranging,"ax",%progbits
 1090              		.align	1
 1091              		.global	VL53L1_preset_mode_standard_ranging
 1092              		.syntax unified
 1093              		.thumb
 1094              		.thumb_func
 1096              	VL53L1_preset_mode_standard_ranging:
 1097              	.LVL28:
 1098              	.LFB13:
 731:Drivers/BSP/Components/vl53l1cb/modules/vl53l1_api_preset_modes.c **** 
 732:Drivers/BSP/Components/vl53l1cb/modules/vl53l1_api_preset_modes.c **** 
 733:Drivers/BSP/Components/vl53l1cb/modules/vl53l1_api_preset_modes.c **** VL53L1_Error VL53L1_preset_mode_standard_ranging(
 734:Drivers/BSP/Components/vl53l1cb/modules/vl53l1_api_preset_modes.c **** 	VL53L1_static_config_t    *pstatic,
 735:Drivers/BSP/Components/vl53l1cb/modules/vl53l1_api_preset_modes.c **** 	VL53L1_histogram_config_t *phistogram,
 736:Drivers/BSP/Components/vl53l1cb/modules/vl53l1_api_preset_modes.c **** 	VL53L1_general_config_t   *pgeneral,
ARM GAS  C:\Temp\ccoVwn9Y.s 			page 33


 737:Drivers/BSP/Components/vl53l1cb/modules/vl53l1_api_preset_modes.c **** 	VL53L1_timing_config_t    *ptiming,
 738:Drivers/BSP/Components/vl53l1cb/modules/vl53l1_api_preset_modes.c **** 	VL53L1_dynamic_config_t   *pdynamic,
 739:Drivers/BSP/Components/vl53l1cb/modules/vl53l1_api_preset_modes.c **** 	VL53L1_system_control_t   *psystem,
 740:Drivers/BSP/Components/vl53l1cb/modules/vl53l1_api_preset_modes.c **** 	VL53L1_tuning_parm_storage_t *ptuning_parms,
 741:Drivers/BSP/Components/vl53l1cb/modules/vl53l1_api_preset_modes.c **** 	VL53L1_zone_config_t      *pzone_cfg)
 742:Drivers/BSP/Components/vl53l1cb/modules/vl53l1_api_preset_modes.c **** {
 1099              		.loc 1 742 1 is_stmt 1 view -0
 1100              		.cfi_startproc
 1101              		@ args = 16, pretend = 0, frame = 0
 1102              		@ frame_needed = 0, uses_anonymous_args = 0
 1103              		.loc 1 742 1 is_stmt 0 view .LVU494
 1104 0000 2DE9F04F 		push	{r4, r5, r6, r7, r8, r9, r10, fp, lr}
 1105              		.cfi_def_cfa_offset 36
 1106              		.cfi_offset 4, -36
 1107              		.cfi_offset 5, -32
 1108              		.cfi_offset 6, -28
 1109              		.cfi_offset 7, -24
 1110              		.cfi_offset 8, -20
 1111              		.cfi_offset 9, -16
 1112              		.cfi_offset 10, -12
 1113              		.cfi_offset 11, -8
 1114              		.cfi_offset 14, -4
 1115 0004 8046     		mov	r8, r0
 1116 0006 099C     		ldr	r4, [sp, #36]
 1117 0008 0B9D     		ldr	r5, [sp, #44]
 1118 000a 0C9E     		ldr	r6, [sp, #48]
 743:Drivers/BSP/Components/vl53l1cb/modules/vl53l1_api_preset_modes.c **** 
 744:Drivers/BSP/Components/vl53l1cb/modules/vl53l1_api_preset_modes.c **** 
 745:Drivers/BSP/Components/vl53l1cb/modules/vl53l1_api_preset_modes.c **** 	VL53L1_Error  status = VL53L1_ERROR_NONE;
 1119              		.loc 1 745 2 is_stmt 1 view .LVU495
 1120              	.LVL29:
 746:Drivers/BSP/Components/vl53l1cb/modules/vl53l1_api_preset_modes.c **** 
 747:Drivers/BSP/Components/vl53l1cb/modules/vl53l1_api_preset_modes.c **** 	LOG_FUNCTION_START("");
 1121              		.loc 1 747 24 view .LVU496
 748:Drivers/BSP/Components/vl53l1cb/modules/vl53l1_api_preset_modes.c **** 
 749:Drivers/BSP/Components/vl53l1cb/modules/vl53l1_api_preset_modes.c **** 
 750:Drivers/BSP/Components/vl53l1cb/modules/vl53l1_api_preset_modes.c **** 
 751:Drivers/BSP/Components/vl53l1cb/modules/vl53l1_api_preset_modes.c **** 
 752:Drivers/BSP/Components/vl53l1cb/modules/vl53l1_api_preset_modes.c **** 	pstatic->dss_config__target_total_rate_mcps = 0x0A00;
 1122              		.loc 1 752 2 view .LVU497
 1123              		.loc 1 752 46 is_stmt 0 view .LVU498
 1124 000c 4FF42060 		mov	r0, #2560
 1125              	.LVL30:
 1126              		.loc 1 752 46 view .LVU499
 1127 0010 A8F80000 		strh	r0, [r8]	@ movhi
 753:Drivers/BSP/Components/vl53l1cb/modules/vl53l1_api_preset_modes.c **** 	pstatic->debug__ctrl = 0x00;
 1128              		.loc 1 753 2 is_stmt 1 view .LVU500
 1129              		.loc 1 753 23 is_stmt 0 view .LVU501
 1130 0014 0020     		movs	r0, #0
 1131 0016 88F80200 		strb	r0, [r8, #2]
 754:Drivers/BSP/Components/vl53l1cb/modules/vl53l1_api_preset_modes.c **** 	pstatic->test_mode__ctrl = 0x00;
 1132              		.loc 1 754 2 is_stmt 1 view .LVU502
 1133              		.loc 1 754 27 is_stmt 0 view .LVU503
 1134 001a 88F80300 		strb	r0, [r8, #3]
 755:Drivers/BSP/Components/vl53l1cb/modules/vl53l1_api_preset_modes.c **** 	pstatic->clk_gating__ctrl = 0x00;
 1135              		.loc 1 755 2 is_stmt 1 view .LVU504
 1136              		.loc 1 755 28 is_stmt 0 view .LVU505
ARM GAS  C:\Temp\ccoVwn9Y.s 			page 34


 1137 001e 88F80400 		strb	r0, [r8, #4]
 756:Drivers/BSP/Components/vl53l1cb/modules/vl53l1_api_preset_modes.c **** 	pstatic->nvm_bist__ctrl = 0x00;
 1138              		.loc 1 756 2 is_stmt 1 view .LVU506
 1139              		.loc 1 756 26 is_stmt 0 view .LVU507
 1140 0022 88F80500 		strb	r0, [r8, #5]
 757:Drivers/BSP/Components/vl53l1cb/modules/vl53l1_api_preset_modes.c **** 	pstatic->nvm_bist__num_nvm_words = 0x00;
 1141              		.loc 1 757 2 is_stmt 1 view .LVU508
 1142              		.loc 1 757 35 is_stmt 0 view .LVU509
 1143 0026 88F80600 		strb	r0, [r8, #6]
 758:Drivers/BSP/Components/vl53l1cb/modules/vl53l1_api_preset_modes.c **** 	pstatic->nvm_bist__start_address = 0x00;
 1144              		.loc 1 758 2 is_stmt 1 view .LVU510
 1145              		.loc 1 758 35 is_stmt 0 view .LVU511
 1146 002a 88F80700 		strb	r0, [r8, #7]
 759:Drivers/BSP/Components/vl53l1cb/modules/vl53l1_api_preset_modes.c **** 	pstatic->host_if__status = 0x00;
 1147              		.loc 1 759 2 is_stmt 1 view .LVU512
 1148              		.loc 1 759 27 is_stmt 0 view .LVU513
 1149 002e 88F80800 		strb	r0, [r8, #8]
 760:Drivers/BSP/Components/vl53l1cb/modules/vl53l1_api_preset_modes.c **** 	pstatic->pad_i2c_hv__config = 0x00;
 1150              		.loc 1 760 2 is_stmt 1 view .LVU514
 1151              		.loc 1 760 30 is_stmt 0 view .LVU515
 1152 0032 88F80900 		strb	r0, [r8, #9]
 761:Drivers/BSP/Components/vl53l1cb/modules/vl53l1_api_preset_modes.c **** 	pstatic->pad_i2c_hv__extsup_config = 0x00;
 1153              		.loc 1 761 2 is_stmt 1 view .LVU516
 1154              		.loc 1 761 37 is_stmt 0 view .LVU517
 1155 0036 88F80A00 		strb	r0, [r8, #10]
 762:Drivers/BSP/Components/vl53l1cb/modules/vl53l1_api_preset_modes.c **** 
 763:Drivers/BSP/Components/vl53l1cb/modules/vl53l1_api_preset_modes.c **** 
 764:Drivers/BSP/Components/vl53l1cb/modules/vl53l1_api_preset_modes.c **** 	pstatic->gpio_hv_pad__ctrl = 0x00;
 1156              		.loc 1 764 2 is_stmt 1 view .LVU518
 1157              		.loc 1 764 29 is_stmt 0 view .LVU519
 1158 003a 88F80B00 		strb	r0, [r8, #11]
 765:Drivers/BSP/Components/vl53l1cb/modules/vl53l1_api_preset_modes.c **** 
 766:Drivers/BSP/Components/vl53l1cb/modules/vl53l1_api_preset_modes.c **** 
 767:Drivers/BSP/Components/vl53l1cb/modules/vl53l1_api_preset_modes.c **** 	pstatic->gpio_hv_mux__ctrl  =
 1159              		.loc 1 767 2 is_stmt 1 view .LVU520
 1160              		.loc 1 767 30 is_stmt 0 view .LVU521
 1161 003e 1127     		movs	r7, #17
 1162 0040 88F80C70 		strb	r7, [r8, #12]
 768:Drivers/BSP/Components/vl53l1cb/modules/vl53l1_api_preset_modes.c **** 			VL53L1_DEVICEINTERRUPTPOLARITY_ACTIVE_LOW |
 769:Drivers/BSP/Components/vl53l1cb/modules/vl53l1_api_preset_modes.c **** 			VL53L1_DEVICEGPIOMODE_OUTPUT_RANGE_AND_ERROR_INTERRUPTS;
 770:Drivers/BSP/Components/vl53l1cb/modules/vl53l1_api_preset_modes.c **** 
 771:Drivers/BSP/Components/vl53l1cb/modules/vl53l1_api_preset_modes.c **** 	pstatic->gpio__tio_hv_status = 0x02;
 1163              		.loc 1 771 2 is_stmt 1 view .LVU522
 1164              		.loc 1 771 31 is_stmt 0 view .LVU523
 1165 0044 4FF0020E 		mov	lr, #2
 1166 0048 88F80DE0 		strb	lr, [r8, #13]
 772:Drivers/BSP/Components/vl53l1cb/modules/vl53l1_api_preset_modes.c **** 	pstatic->gpio__fio_hv_status = 0x00;
 1167              		.loc 1 772 2 is_stmt 1 view .LVU524
 1168              		.loc 1 772 31 is_stmt 0 view .LVU525
 1169 004c 88F80E00 		strb	r0, [r8, #14]
 773:Drivers/BSP/Components/vl53l1cb/modules/vl53l1_api_preset_modes.c **** 	pstatic->ana_config__spad_sel_pswidth = 0x02;
 1170              		.loc 1 773 2 is_stmt 1 view .LVU526
 1171              		.loc 1 773 40 is_stmt 0 view .LVU527
 1172 0050 88F80FE0 		strb	lr, [r8, #15]
 774:Drivers/BSP/Components/vl53l1cb/modules/vl53l1_api_preset_modes.c **** 	pstatic->ana_config__vcsel_pulse_width_offset = 0x08;
 1173              		.loc 1 774 2 is_stmt 1 view .LVU528
 1174              		.loc 1 774 48 is_stmt 0 view .LVU529
ARM GAS  C:\Temp\ccoVwn9Y.s 			page 35


 1175 0054 0827     		movs	r7, #8
 1176 0056 88F81070 		strb	r7, [r8, #16]
 775:Drivers/BSP/Components/vl53l1cb/modules/vl53l1_api_preset_modes.c **** 	pstatic->ana_config__fast_osc__config_ctrl = 0x00;
 1177              		.loc 1 775 2 is_stmt 1 view .LVU530
 1178              		.loc 1 775 45 is_stmt 0 view .LVU531
 1179 005a 88F81100 		strb	r0, [r8, #17]
 776:Drivers/BSP/Components/vl53l1cb/modules/vl53l1_api_preset_modes.c **** 
 777:Drivers/BSP/Components/vl53l1cb/modules/vl53l1_api_preset_modes.c **** 	pstatic->sigma_estimator__effective_pulse_width_ns        =
 1180              		.loc 1 777 2 is_stmt 1 view .LVU532
 778:Drivers/BSP/Components/vl53l1cb/modules/vl53l1_api_preset_modes.c **** 			ptuning_parms->tp_lite_sigma_est_pulse_width_ns;
 1181              		.loc 1 778 17 is_stmt 0 view .LVU533
 1182 005e 95F824C0 		ldrb	ip, [r5, #36]	@ zero_extendqisi2
 777:Drivers/BSP/Components/vl53l1cb/modules/vl53l1_api_preset_modes.c **** 			ptuning_parms->tp_lite_sigma_est_pulse_width_ns;
 1183              		.loc 1 777 60 view .LVU534
 1184 0062 88F812C0 		strb	ip, [r8, #18]
 779:Drivers/BSP/Components/vl53l1cb/modules/vl53l1_api_preset_modes.c **** 	pstatic->sigma_estimator__effective_ambient_width_ns      =
 1185              		.loc 1 779 2 is_stmt 1 view .LVU535
 780:Drivers/BSP/Components/vl53l1cb/modules/vl53l1_api_preset_modes.c **** 			ptuning_parms->tp_lite_sigma_est_amb_width_ns;
 1186              		.loc 1 780 17 is_stmt 0 view .LVU536
 1187 0066 95F825C0 		ldrb	ip, [r5, #37]	@ zero_extendqisi2
 779:Drivers/BSP/Components/vl53l1cb/modules/vl53l1_api_preset_modes.c **** 	pstatic->sigma_estimator__effective_ambient_width_ns      =
 1188              		.loc 1 779 60 view .LVU537
 1189 006a 88F813C0 		strb	ip, [r8, #19]
 781:Drivers/BSP/Components/vl53l1cb/modules/vl53l1_api_preset_modes.c **** 	pstatic->sigma_estimator__sigma_ref_mm                    =
 1190              		.loc 1 781 2 is_stmt 1 view .LVU538
 782:Drivers/BSP/Components/vl53l1cb/modules/vl53l1_api_preset_modes.c **** 			ptuning_parms->tp_lite_sigma_ref_mm;
 1191              		.loc 1 782 17 is_stmt 0 view .LVU539
 1192 006e 95F826C0 		ldrb	ip, [r5, #38]	@ zero_extendqisi2
 781:Drivers/BSP/Components/vl53l1cb/modules/vl53l1_api_preset_modes.c **** 	pstatic->sigma_estimator__sigma_ref_mm                    =
 1193              		.loc 1 781 60 view .LVU540
 1194 0072 88F814C0 		strb	ip, [r8, #20]
 783:Drivers/BSP/Components/vl53l1cb/modules/vl53l1_api_preset_modes.c **** 
 784:Drivers/BSP/Components/vl53l1cb/modules/vl53l1_api_preset_modes.c **** 	pstatic->algo__crosstalk_compensation_valid_height_mm = 0x01;
 1195              		.loc 1 784 2 is_stmt 1 view .LVU541
 1196              		.loc 1 784 56 is_stmt 0 view .LVU542
 1197 0076 4FF0010C 		mov	ip, #1
 1198 007a 88F815C0 		strb	ip, [r8, #21]
 785:Drivers/BSP/Components/vl53l1cb/modules/vl53l1_api_preset_modes.c **** 	pstatic->spare_host_config__static_config_spare_0 = 0x00;
 1199              		.loc 1 785 2 is_stmt 1 view .LVU543
 1200              		.loc 1 785 52 is_stmt 0 view .LVU544
 1201 007e 88F81600 		strb	r0, [r8, #22]
 786:Drivers/BSP/Components/vl53l1cb/modules/vl53l1_api_preset_modes.c **** 	pstatic->spare_host_config__static_config_spare_1 = 0x00;
 1202              		.loc 1 786 2 is_stmt 1 view .LVU545
 1203              		.loc 1 786 52 is_stmt 0 view .LVU546
 1204 0082 88F81700 		strb	r0, [r8, #23]
 787:Drivers/BSP/Components/vl53l1cb/modules/vl53l1_api_preset_modes.c **** 
 788:Drivers/BSP/Components/vl53l1cb/modules/vl53l1_api_preset_modes.c **** 	pstatic->algo__range_ignore_threshold_mcps = 0x0000;
 1205              		.loc 1 788 2 is_stmt 1 view .LVU547
 1206              		.loc 1 788 45 is_stmt 0 view .LVU548
 1207 0086 A8F81800 		strh	r0, [r8, #24]	@ movhi
 789:Drivers/BSP/Components/vl53l1cb/modules/vl53l1_api_preset_modes.c **** 
 790:Drivers/BSP/Components/vl53l1cb/modules/vl53l1_api_preset_modes.c **** 
 791:Drivers/BSP/Components/vl53l1cb/modules/vl53l1_api_preset_modes.c **** 	pstatic->algo__range_ignore_valid_height_mm = 0xff;
 1208              		.loc 1 791 2 is_stmt 1 view .LVU549
 1209              		.loc 1 791 46 is_stmt 0 view .LVU550
 1210 008a 4FF0FF09 		mov	r9, #255
 1211 008e 88F81A90 		strb	r9, [r8, #26]
ARM GAS  C:\Temp\ccoVwn9Y.s 			page 36


 792:Drivers/BSP/Components/vl53l1cb/modules/vl53l1_api_preset_modes.c **** 	pstatic->algo__range_min_clip                             =
 1212              		.loc 1 792 2 is_stmt 1 view .LVU551
 793:Drivers/BSP/Components/vl53l1cb/modules/vl53l1_api_preset_modes.c **** 			ptuning_parms->tp_lite_min_clip;
 1213              		.loc 1 793 17 is_stmt 0 view .LVU552
 1214 0092 95F816A0 		ldrb	r10, [r5, #22]	@ zero_extendqisi2
 792:Drivers/BSP/Components/vl53l1cb/modules/vl53l1_api_preset_modes.c **** 	pstatic->algo__range_min_clip                             =
 1215              		.loc 1 792 60 view .LVU553
 1216 0096 88F81BA0 		strb	r10, [r8, #27]
 794:Drivers/BSP/Components/vl53l1cb/modules/vl53l1_api_preset_modes.c **** 
 795:Drivers/BSP/Components/vl53l1cb/modules/vl53l1_api_preset_modes.c **** 	pstatic->algo__consistency_check__tolerance               =
 1217              		.loc 1 795 2 is_stmt 1 view .LVU554
 796:Drivers/BSP/Components/vl53l1cb/modules/vl53l1_api_preset_modes.c **** 			ptuning_parms->tp_consistency_lite_phase_tolerance;
 1218              		.loc 1 796 17 is_stmt 0 view .LVU555
 1219 009a 95F812A0 		ldrb	r10, [r5, #18]	@ zero_extendqisi2
 795:Drivers/BSP/Components/vl53l1cb/modules/vl53l1_api_preset_modes.c **** 			ptuning_parms->tp_consistency_lite_phase_tolerance;
 1220              		.loc 1 795 60 view .LVU556
 1221 009e 88F81CA0 		strb	r10, [r8, #28]
 797:Drivers/BSP/Components/vl53l1cb/modules/vl53l1_api_preset_modes.c **** 	pstatic->spare_host_config__static_config_spare_2 = 0x00;
 1222              		.loc 1 797 2 is_stmt 1 view .LVU557
 1223              		.loc 1 797 52 is_stmt 0 view .LVU558
 1224 00a2 88F81D00 		strb	r0, [r8, #29]
 798:Drivers/BSP/Components/vl53l1cb/modules/vl53l1_api_preset_modes.c **** 	pstatic->sd_config__reset_stages_msb = 0x00;
 1225              		.loc 1 798 2 is_stmt 1 view .LVU559
 1226              		.loc 1 798 39 is_stmt 0 view .LVU560
 1227 00a6 88F81E00 		strb	r0, [r8, #30]
 799:Drivers/BSP/Components/vl53l1cb/modules/vl53l1_api_preset_modes.c **** 	pstatic->sd_config__reset_stages_lsb = 0x00;
 1228              		.loc 1 799 2 is_stmt 1 view .LVU561
 1229              		.loc 1 799 39 is_stmt 0 view .LVU562
 1230 00aa 88F81F00 		strb	r0, [r8, #31]
 800:Drivers/BSP/Components/vl53l1cb/modules/vl53l1_api_preset_modes.c **** 
 801:Drivers/BSP/Components/vl53l1cb/modules/vl53l1_api_preset_modes.c **** 	pgeneral->gph_config__stream_count_update_value = 0x00;
 1231              		.loc 1 801 2 is_stmt 1 view .LVU563
 1232              		.loc 1 801 50 is_stmt 0 view .LVU564
 1233 00ae 1070     		strb	r0, [r2]
 802:Drivers/BSP/Components/vl53l1cb/modules/vl53l1_api_preset_modes.c **** 	pgeneral->global_config__stream_divider = 0x00;
 1234              		.loc 1 802 2 is_stmt 1 view .LVU565
 1235              		.loc 1 802 42 is_stmt 0 view .LVU566
 1236 00b0 5070     		strb	r0, [r2, #1]
 803:Drivers/BSP/Components/vl53l1cb/modules/vl53l1_api_preset_modes.c **** 	pgeneral->system__interrupt_config_gpio =
 1237              		.loc 1 803 2 is_stmt 1 view .LVU567
 1238              		.loc 1 803 42 is_stmt 0 view .LVU568
 1239 00b2 4FF02008 		mov	r8, #32
 1240              	.LVL31:
 1241              		.loc 1 803 42 view .LVU569
 1242 00b6 82F80280 		strb	r8, [r2, #2]
 804:Drivers/BSP/Components/vl53l1cb/modules/vl53l1_api_preset_modes.c **** 			VL53L1_INTERRUPT_CONFIG_NEW_SAMPLE_READY;
 805:Drivers/BSP/Components/vl53l1cb/modules/vl53l1_api_preset_modes.c **** 	pgeneral->cal_config__vcsel_start = 0x0B;
 1243              		.loc 1 805 2 is_stmt 1 view .LVU570
 1244              		.loc 1 805 36 is_stmt 0 view .LVU571
 1245 00ba 4FF00B0B 		mov	fp, #11
 1246 00be 82F803B0 		strb	fp, [r2, #3]
 806:Drivers/BSP/Components/vl53l1cb/modules/vl53l1_api_preset_modes.c **** 
 807:Drivers/BSP/Components/vl53l1cb/modules/vl53l1_api_preset_modes.c **** 
 808:Drivers/BSP/Components/vl53l1cb/modules/vl53l1_api_preset_modes.c **** 	pgeneral->cal_config__repeat_rate                         =
 1247              		.loc 1 808 2 is_stmt 1 view .LVU572
 809:Drivers/BSP/Components/vl53l1cb/modules/vl53l1_api_preset_modes.c **** 			ptuning_parms->tp_cal_repeat_rate;
 1248              		.loc 1 809 17 is_stmt 0 view .LVU573
ARM GAS  C:\Temp\ccoVwn9Y.s 			page 37


 1249 00c2 B5F814A0 		ldrh	r10, [r5, #20]
 808:Drivers/BSP/Components/vl53l1cb/modules/vl53l1_api_preset_modes.c **** 			ptuning_parms->tp_cal_repeat_rate;
 1250              		.loc 1 808 60 view .LVU574
 1251 00c6 A2F804A0 		strh	r10, [r2, #4]	@ movhi
 810:Drivers/BSP/Components/vl53l1cb/modules/vl53l1_api_preset_modes.c **** 	pgeneral->global_config__vcsel_width = 0x02;
 1252              		.loc 1 810 2 is_stmt 1 view .LVU575
 1253              		.loc 1 810 39 is_stmt 0 view .LVU576
 1254 00ca 82F806E0 		strb	lr, [r2, #6]
 811:Drivers/BSP/Components/vl53l1cb/modules/vl53l1_api_preset_modes.c **** 
 812:Drivers/BSP/Components/vl53l1cb/modules/vl53l1_api_preset_modes.c **** 	pgeneral->phasecal_config__timeout_macrop = 0x0D;
 1255              		.loc 1 812 2 is_stmt 1 view .LVU577
 1256              		.loc 1 812 44 is_stmt 0 view .LVU578
 1257 00ce 4FF00D0A 		mov	r10, #13
 1258 00d2 82F807A0 		strb	r10, [r2, #7]
 813:Drivers/BSP/Components/vl53l1cb/modules/vl53l1_api_preset_modes.c **** 
 814:Drivers/BSP/Components/vl53l1cb/modules/vl53l1_api_preset_modes.c **** 	pgeneral->phasecal_config__target                         =
 1259              		.loc 1 814 2 is_stmt 1 view .LVU579
 815:Drivers/BSP/Components/vl53l1cb/modules/vl53l1_api_preset_modes.c **** 			ptuning_parms->tp_phasecal_target;
 1260              		.loc 1 815 17 is_stmt 0 view .LVU580
 1261 00d6 95F813A0 		ldrb	r10, [r5, #19]	@ zero_extendqisi2
 814:Drivers/BSP/Components/vl53l1cb/modules/vl53l1_api_preset_modes.c **** 			ptuning_parms->tp_phasecal_target;
 1262              		.loc 1 814 60 view .LVU581
 1263 00da 82F808A0 		strb	r10, [r2, #8]
 816:Drivers/BSP/Components/vl53l1cb/modules/vl53l1_api_preset_modes.c **** 	pgeneral->phasecal_config__override = 0x00;
 1264              		.loc 1 816 2 is_stmt 1 view .LVU582
 1265              		.loc 1 816 38 is_stmt 0 view .LVU583
 1266 00de 5072     		strb	r0, [r2, #9]
 817:Drivers/BSP/Components/vl53l1cb/modules/vl53l1_api_preset_modes.c **** 	pgeneral->dss_config__roi_mode_control =
 1267              		.loc 1 817 2 is_stmt 1 view .LVU584
 1268              		.loc 1 817 41 is_stmt 0 view .LVU585
 1269 00e0 82F80AC0 		strb	ip, [r2, #10]
 818:Drivers/BSP/Components/vl53l1cb/modules/vl53l1_api_preset_modes.c **** 			VL53L1_DEVICEDSSMODE__TARGET_RATE;
 819:Drivers/BSP/Components/vl53l1cb/modules/vl53l1_api_preset_modes.c **** 
 820:Drivers/BSP/Components/vl53l1cb/modules/vl53l1_api_preset_modes.c **** 	pgeneral->system__thresh_rate_high = 0x0000;
 1270              		.loc 1 820 2 is_stmt 1 view .LVU586
 1271              		.loc 1 820 37 is_stmt 0 view .LVU587
 1272 00e4 9081     		strh	r0, [r2, #12]	@ movhi
 821:Drivers/BSP/Components/vl53l1cb/modules/vl53l1_api_preset_modes.c **** 	pgeneral->system__thresh_rate_low = 0x0000;
 1273              		.loc 1 821 2 is_stmt 1 view .LVU588
 1274              		.loc 1 821 36 is_stmt 0 view .LVU589
 1275 00e6 D081     		strh	r0, [r2, #14]	@ movhi
 822:Drivers/BSP/Components/vl53l1cb/modules/vl53l1_api_preset_modes.c **** 
 823:Drivers/BSP/Components/vl53l1cb/modules/vl53l1_api_preset_modes.c **** 	pgeneral->dss_config__manual_effective_spads_select = 0x8C00;
 1276              		.loc 1 823 2 is_stmt 1 view .LVU590
 1277              		.loc 1 823 54 is_stmt 0 view .LVU591
 1278 00e8 4FF40C4A 		mov	r10, #35840
 1279 00ec A2F810A0 		strh	r10, [r2, #16]	@ movhi
 824:Drivers/BSP/Components/vl53l1cb/modules/vl53l1_api_preset_modes.c **** 	pgeneral->dss_config__manual_block_select = 0x00;
 1280              		.loc 1 824 2 is_stmt 1 view .LVU592
 1281              		.loc 1 824 44 is_stmt 0 view .LVU593
 1282 00f0 9074     		strb	r0, [r2, #18]
 825:Drivers/BSP/Components/vl53l1cb/modules/vl53l1_api_preset_modes.c **** 
 826:Drivers/BSP/Components/vl53l1cb/modules/vl53l1_api_preset_modes.c **** 
 827:Drivers/BSP/Components/vl53l1cb/modules/vl53l1_api_preset_modes.c **** 	pgeneral->dss_config__aperture_attenuation = 0x38;
 1283              		.loc 1 827 2 is_stmt 1 view .LVU594
 1284              		.loc 1 827 45 is_stmt 0 view .LVU595
 1285 00f2 4FF0380A 		mov	r10, #56
ARM GAS  C:\Temp\ccoVwn9Y.s 			page 38


 1286 00f6 82F813A0 		strb	r10, [r2, #19]
 828:Drivers/BSP/Components/vl53l1cb/modules/vl53l1_api_preset_modes.c **** 	pgeneral->dss_config__max_spads_limit = 0xFF;
 1287              		.loc 1 828 2 is_stmt 1 view .LVU596
 1288              		.loc 1 828 40 is_stmt 0 view .LVU597
 1289 00fa 82F81490 		strb	r9, [r2, #20]
 829:Drivers/BSP/Components/vl53l1cb/modules/vl53l1_api_preset_modes.c **** 	pgeneral->dss_config__min_spads_limit = 0x01;
 1290              		.loc 1 829 2 is_stmt 1 view .LVU598
 1291              		.loc 1 829 40 is_stmt 0 view .LVU599
 1292 00fe 82F815C0 		strb	ip, [r2, #21]
 830:Drivers/BSP/Components/vl53l1cb/modules/vl53l1_api_preset_modes.c **** 
 831:Drivers/BSP/Components/vl53l1cb/modules/vl53l1_api_preset_modes.c **** 
 832:Drivers/BSP/Components/vl53l1cb/modules/vl53l1_api_preset_modes.c **** 
 833:Drivers/BSP/Components/vl53l1cb/modules/vl53l1_api_preset_modes.c **** 
 834:Drivers/BSP/Components/vl53l1cb/modules/vl53l1_api_preset_modes.c **** 	ptiming->mm_config__timeout_macrop_a_hi = 0x00;
 1293              		.loc 1 834 2 is_stmt 1 view .LVU600
 1294              		.loc 1 834 42 is_stmt 0 view .LVU601
 1295 0102 1870     		strb	r0, [r3]
 835:Drivers/BSP/Components/vl53l1cb/modules/vl53l1_api_preset_modes.c **** 	ptiming->mm_config__timeout_macrop_a_lo = 0x1a;
 1296              		.loc 1 835 2 is_stmt 1 view .LVU602
 1297              		.loc 1 835 42 is_stmt 0 view .LVU603
 1298 0104 1A22     		movs	r2, #26
 1299              	.LVL32:
 1300              		.loc 1 835 42 view .LVU604
 1301 0106 5A70     		strb	r2, [r3, #1]
 836:Drivers/BSP/Components/vl53l1cb/modules/vl53l1_api_preset_modes.c **** 	ptiming->mm_config__timeout_macrop_b_hi = 0x00;
 1302              		.loc 1 836 2 is_stmt 1 view .LVU605
 1303              		.loc 1 836 42 is_stmt 0 view .LVU606
 1304 0108 9870     		strb	r0, [r3, #2]
 837:Drivers/BSP/Components/vl53l1cb/modules/vl53l1_api_preset_modes.c **** 	ptiming->mm_config__timeout_macrop_b_lo = 0x20;
 1305              		.loc 1 837 2 is_stmt 1 view .LVU607
 1306              		.loc 1 837 42 is_stmt 0 view .LVU608
 1307 010a 83F80380 		strb	r8, [r3, #3]
 838:Drivers/BSP/Components/vl53l1cb/modules/vl53l1_api_preset_modes.c **** 
 839:Drivers/BSP/Components/vl53l1cb/modules/vl53l1_api_preset_modes.c **** 	ptiming->range_config__timeout_macrop_a_hi = 0x01;
 1308              		.loc 1 839 2 is_stmt 1 view .LVU609
 1309              		.loc 1 839 45 is_stmt 0 view .LVU610
 1310 010e 83F804C0 		strb	ip, [r3, #4]
 840:Drivers/BSP/Components/vl53l1cb/modules/vl53l1_api_preset_modes.c **** 	ptiming->range_config__timeout_macrop_a_lo = 0xCC;
 1311              		.loc 1 840 2 is_stmt 1 view .LVU611
 1312              		.loc 1 840 45 is_stmt 0 view .LVU612
 1313 0112 CC22     		movs	r2, #204
 1314 0114 5A71     		strb	r2, [r3, #5]
 841:Drivers/BSP/Components/vl53l1cb/modules/vl53l1_api_preset_modes.c **** 
 842:Drivers/BSP/Components/vl53l1cb/modules/vl53l1_api_preset_modes.c **** 	ptiming->range_config__vcsel_period_a = 0x0B;
 1315              		.loc 1 842 2 is_stmt 1 view .LVU613
 1316              		.loc 1 842 40 is_stmt 0 view .LVU614
 1317 0116 83F806B0 		strb	fp, [r3, #6]
 843:Drivers/BSP/Components/vl53l1cb/modules/vl53l1_api_preset_modes.c **** 
 844:Drivers/BSP/Components/vl53l1cb/modules/vl53l1_api_preset_modes.c **** 	ptiming->range_config__timeout_macrop_b_hi = 0x01;
 1318              		.loc 1 844 2 is_stmt 1 view .LVU615
 1319              		.loc 1 844 45 is_stmt 0 view .LVU616
 1320 011a 83F807C0 		strb	ip, [r3, #7]
 845:Drivers/BSP/Components/vl53l1cb/modules/vl53l1_api_preset_modes.c **** 	ptiming->range_config__timeout_macrop_b_lo = 0xF5;
 1321              		.loc 1 845 2 is_stmt 1 view .LVU617
 1322              		.loc 1 845 45 is_stmt 0 view .LVU618
 1323 011e F522     		movs	r2, #245
 1324 0120 1A72     		strb	r2, [r3, #8]
ARM GAS  C:\Temp\ccoVwn9Y.s 			page 39


 846:Drivers/BSP/Components/vl53l1cb/modules/vl53l1_api_preset_modes.c **** 
 847:Drivers/BSP/Components/vl53l1cb/modules/vl53l1_api_preset_modes.c **** 	ptiming->range_config__vcsel_period_b = 0x09;
 1325              		.loc 1 847 2 is_stmt 1 view .LVU619
 1326              		.loc 1 847 40 is_stmt 0 view .LVU620
 1327 0122 4FF00902 		mov	r2, #9
 1328 0126 5A72     		strb	r2, [r3, #9]
 848:Drivers/BSP/Components/vl53l1cb/modules/vl53l1_api_preset_modes.c **** 
 849:Drivers/BSP/Components/vl53l1cb/modules/vl53l1_api_preset_modes.c **** 	ptiming->range_config__sigma_thresh                       =
 1329              		.loc 1 849 2 is_stmt 1 view .LVU621
 850:Drivers/BSP/Components/vl53l1cb/modules/vl53l1_api_preset_modes.c **** 			ptuning_parms->tp_lite_med_sigma_thresh_mm;
 1330              		.loc 1 850 17 is_stmt 0 view .LVU622
 1331 0128 6A8B     		ldrh	r2, [r5, #26]
 849:Drivers/BSP/Components/vl53l1cb/modules/vl53l1_api_preset_modes.c **** 			ptuning_parms->tp_lite_med_sigma_thresh_mm;
 1332              		.loc 1 849 60 view .LVU623
 1333 012a 5A81     		strh	r2, [r3, #10]	@ movhi
 851:Drivers/BSP/Components/vl53l1cb/modules/vl53l1_api_preset_modes.c **** 
 852:Drivers/BSP/Components/vl53l1cb/modules/vl53l1_api_preset_modes.c **** 	ptiming->range_config__min_count_rate_rtn_limit_mcps      =
 1334              		.loc 1 852 2 is_stmt 1 view .LVU624
 853:Drivers/BSP/Components/vl53l1cb/modules/vl53l1_api_preset_modes.c **** 			ptuning_parms->tp_lite_med_min_count_rate_rtn_mcps;
 1335              		.loc 1 853 17 is_stmt 0 view .LVU625
 1336 012c 2A8C     		ldrh	r2, [r5, #32]
 852:Drivers/BSP/Components/vl53l1cb/modules/vl53l1_api_preset_modes.c **** 			ptuning_parms->tp_lite_med_min_count_rate_rtn_mcps;
 1337              		.loc 1 852 60 view .LVU626
 1338 012e 9A81     		strh	r2, [r3, #12]	@ movhi
 854:Drivers/BSP/Components/vl53l1cb/modules/vl53l1_api_preset_modes.c **** 
 855:Drivers/BSP/Components/vl53l1cb/modules/vl53l1_api_preset_modes.c **** 
 856:Drivers/BSP/Components/vl53l1cb/modules/vl53l1_api_preset_modes.c **** 	ptiming->range_config__valid_phase_low = 0x08;
 1339              		.loc 1 856 2 is_stmt 1 view .LVU627
 1340              		.loc 1 856 41 is_stmt 0 view .LVU628
 1341 0130 9F73     		strb	r7, [r3, #14]
 857:Drivers/BSP/Components/vl53l1cb/modules/vl53l1_api_preset_modes.c **** 	ptiming->range_config__valid_phase_high = 0x78;
 1342              		.loc 1 857 2 is_stmt 1 view .LVU629
 1343              		.loc 1 857 42 is_stmt 0 view .LVU630
 1344 0132 7822     		movs	r2, #120
 1345 0134 DA73     		strb	r2, [r3, #15]
 858:Drivers/BSP/Components/vl53l1cb/modules/vl53l1_api_preset_modes.c **** 	ptiming->system__intermeasurement_period = 0x00000000;
 1346              		.loc 1 858 2 is_stmt 1 view .LVU631
 1347              		.loc 1 858 43 is_stmt 0 view .LVU632
 1348 0136 1861     		str	r0, [r3, #16]
 859:Drivers/BSP/Components/vl53l1cb/modules/vl53l1_api_preset_modes.c **** 	ptiming->system__fractional_enable = 0x00;
 1349              		.loc 1 859 2 is_stmt 1 view .LVU633
 1350              		.loc 1 859 37 is_stmt 0 view .LVU634
 1351 0138 1875     		strb	r0, [r3, #20]
 860:Drivers/BSP/Components/vl53l1cb/modules/vl53l1_api_preset_modes.c **** 
 861:Drivers/BSP/Components/vl53l1cb/modules/vl53l1_api_preset_modes.c **** 
 862:Drivers/BSP/Components/vl53l1cb/modules/vl53l1_api_preset_modes.c **** 
 863:Drivers/BSP/Components/vl53l1cb/modules/vl53l1_api_preset_modes.c **** 	phistogram->histogram_config__low_amb_even_bin_0_1 = 0x07;
 1352              		.loc 1 863 2 is_stmt 1 view .LVU635
 1353              		.loc 1 863 53 is_stmt 0 view .LVU636
 1354 013a 4FF00709 		mov	r9, #7
 1355 013e 81F80190 		strb	r9, [r1, #1]
 864:Drivers/BSP/Components/vl53l1cb/modules/vl53l1_api_preset_modes.c **** 	phistogram->histogram_config__low_amb_even_bin_2_3 = 0x21;
 1356              		.loc 1 864 2 is_stmt 1 view .LVU637
 1357              		.loc 1 864 53 is_stmt 0 view .LVU638
 1358 0142 2123     		movs	r3, #33
 1359              	.LVL33:
 1360              		.loc 1 864 53 view .LVU639
ARM GAS  C:\Temp\ccoVwn9Y.s 			page 40


 1361 0144 8B70     		strb	r3, [r1, #2]
 865:Drivers/BSP/Components/vl53l1cb/modules/vl53l1_api_preset_modes.c **** 	phistogram->histogram_config__low_amb_even_bin_4_5 = 0x43;
 1362              		.loc 1 865 2 is_stmt 1 view .LVU640
 1363              		.loc 1 865 53 is_stmt 0 view .LVU641
 1364 0146 4FF04308 		mov	r8, #67
 1365 014a 81F80380 		strb	r8, [r1, #3]
 866:Drivers/BSP/Components/vl53l1cb/modules/vl53l1_api_preset_modes.c **** 
 867:Drivers/BSP/Components/vl53l1cb/modules/vl53l1_api_preset_modes.c **** 	phistogram->histogram_config__low_amb_odd_bin_0_1 = 0x10;
 1366              		.loc 1 867 2 is_stmt 1 view .LVU642
 1367              		.loc 1 867 52 is_stmt 0 view .LVU643
 1368 014e 1022     		movs	r2, #16
 1369 0150 0A71     		strb	r2, [r1, #4]
 868:Drivers/BSP/Components/vl53l1cb/modules/vl53l1_api_preset_modes.c **** 	phistogram->histogram_config__low_amb_odd_bin_2_3 = 0x32;
 1370              		.loc 1 868 2 is_stmt 1 view .LVU644
 1371              		.loc 1 868 52 is_stmt 0 view .LVU645
 1372 0152 4FF0320A 		mov	r10, #50
 1373 0156 81F805A0 		strb	r10, [r1, #5]
 869:Drivers/BSP/Components/vl53l1cb/modules/vl53l1_api_preset_modes.c **** 	phistogram->histogram_config__low_amb_odd_bin_4_5 = 0x54;
 1374              		.loc 1 869 2 is_stmt 1 view .LVU646
 1375              		.loc 1 869 52 is_stmt 0 view .LVU647
 1376 015a 4FF0540A 		mov	r10, #84
 1377 015e 81F806A0 		strb	r10, [r1, #6]
 870:Drivers/BSP/Components/vl53l1cb/modules/vl53l1_api_preset_modes.c **** 
 871:Drivers/BSP/Components/vl53l1cb/modules/vl53l1_api_preset_modes.c **** 	phistogram->histogram_config__mid_amb_even_bin_0_1 = 0x07;
 1378              		.loc 1 871 2 is_stmt 1 view .LVU648
 1379              		.loc 1 871 53 is_stmt 0 view .LVU649
 1380 0162 81F80790 		strb	r9, [r1, #7]
 872:Drivers/BSP/Components/vl53l1cb/modules/vl53l1_api_preset_modes.c **** 	phistogram->histogram_config__mid_amb_even_bin_2_3 = 0x21;
 1381              		.loc 1 872 2 is_stmt 1 view .LVU650
 1382              		.loc 1 872 53 is_stmt 0 view .LVU651
 1383 0166 0B72     		strb	r3, [r1, #8]
 873:Drivers/BSP/Components/vl53l1cb/modules/vl53l1_api_preset_modes.c **** 	phistogram->histogram_config__mid_amb_even_bin_4_5 = 0x43;
 1384              		.loc 1 873 2 is_stmt 1 view .LVU652
 1385              		.loc 1 873 53 is_stmt 0 view .LVU653
 1386 0168 81F80980 		strb	r8, [r1, #9]
 874:Drivers/BSP/Components/vl53l1cb/modules/vl53l1_api_preset_modes.c **** 
 875:Drivers/BSP/Components/vl53l1cb/modules/vl53l1_api_preset_modes.c **** 	phistogram->histogram_config__mid_amb_odd_bin_0_1 = 0x10;
 1387              		.loc 1 875 2 is_stmt 1 view .LVU654
 1388              		.loc 1 875 52 is_stmt 0 view .LVU655
 1389 016c 8A72     		strb	r2, [r1, #10]
 876:Drivers/BSP/Components/vl53l1cb/modules/vl53l1_api_preset_modes.c **** 	phistogram->histogram_config__mid_amb_odd_bin_2 = 0x02;
 1390              		.loc 1 876 2 is_stmt 1 view .LVU656
 1391              		.loc 1 876 50 is_stmt 0 view .LVU657
 1392 016e 81F80BE0 		strb	lr, [r1, #11]
 877:Drivers/BSP/Components/vl53l1cb/modules/vl53l1_api_preset_modes.c **** 	phistogram->histogram_config__mid_amb_odd_bin_3_4 = 0x43;
 1393              		.loc 1 877 2 is_stmt 1 view .LVU658
 1394              		.loc 1 877 52 is_stmt 0 view .LVU659
 1395 0172 81F80C80 		strb	r8, [r1, #12]
 878:Drivers/BSP/Components/vl53l1cb/modules/vl53l1_api_preset_modes.c **** 	phistogram->histogram_config__mid_amb_odd_bin_5 = 0x05;
 1396              		.loc 1 878 2 is_stmt 1 view .LVU660
 1397              		.loc 1 878 50 is_stmt 0 view .LVU661
 1398 0176 4FF00509 		mov	r9, #5
 1399 017a 81F80D90 		strb	r9, [r1, #13]
 879:Drivers/BSP/Components/vl53l1cb/modules/vl53l1_api_preset_modes.c **** 
 880:Drivers/BSP/Components/vl53l1cb/modules/vl53l1_api_preset_modes.c **** 	phistogram->histogram_config__user_bin_offset = 0x00;
 1400              		.loc 1 880 2 is_stmt 1 view .LVU662
 1401              		.loc 1 880 48 is_stmt 0 view .LVU663
ARM GAS  C:\Temp\ccoVwn9Y.s 			page 41


 1402 017e 8873     		strb	r0, [r1, #14]
 881:Drivers/BSP/Components/vl53l1cb/modules/vl53l1_api_preset_modes.c **** 
 882:Drivers/BSP/Components/vl53l1cb/modules/vl53l1_api_preset_modes.c **** 	phistogram->histogram_config__high_amb_even_bin_0_1 = 0x07;
 1403              		.loc 1 882 2 is_stmt 1 view .LVU664
 1404              		.loc 1 882 54 is_stmt 0 view .LVU665
 1405 0180 4FF00709 		mov	r9, #7
 1406 0184 81F80F90 		strb	r9, [r1, #15]
 883:Drivers/BSP/Components/vl53l1cb/modules/vl53l1_api_preset_modes.c **** 	phistogram->histogram_config__high_amb_even_bin_2_3 = 0x21;
 1407              		.loc 1 883 2 is_stmt 1 view .LVU666
 1408              		.loc 1 883 54 is_stmt 0 view .LVU667
 1409 0188 0B74     		strb	r3, [r1, #16]
 884:Drivers/BSP/Components/vl53l1cb/modules/vl53l1_api_preset_modes.c **** 	phistogram->histogram_config__high_amb_even_bin_4_5 = 0x43;
 1410              		.loc 1 884 2 is_stmt 1 view .LVU668
 1411              		.loc 1 884 54 is_stmt 0 view .LVU669
 1412 018a 81F81180 		strb	r8, [r1, #17]
 885:Drivers/BSP/Components/vl53l1cb/modules/vl53l1_api_preset_modes.c **** 
 886:Drivers/BSP/Components/vl53l1cb/modules/vl53l1_api_preset_modes.c **** 	phistogram->histogram_config__high_amb_odd_bin_0_1 = 0x10;
 1413              		.loc 1 886 2 is_stmt 1 view .LVU670
 1414              		.loc 1 886 53 is_stmt 0 view .LVU671
 1415 018e 8A74     		strb	r2, [r1, #18]
 887:Drivers/BSP/Components/vl53l1cb/modules/vl53l1_api_preset_modes.c **** 	phistogram->histogram_config__high_amb_odd_bin_2_3 = 0x32;
 1416              		.loc 1 887 2 is_stmt 1 view .LVU672
 1417              		.loc 1 887 53 is_stmt 0 view .LVU673
 1418 0190 4FF03208 		mov	r8, #50
 1419 0194 81F81380 		strb	r8, [r1, #19]
 888:Drivers/BSP/Components/vl53l1cb/modules/vl53l1_api_preset_modes.c **** 	phistogram->histogram_config__high_amb_odd_bin_4_5 = 0x54;
 1420              		.loc 1 888 2 is_stmt 1 view .LVU674
 1421              		.loc 1 888 53 is_stmt 0 view .LVU675
 1422 0198 81F814A0 		strb	r10, [r1, #20]
 889:Drivers/BSP/Components/vl53l1cb/modules/vl53l1_api_preset_modes.c **** 
 890:Drivers/BSP/Components/vl53l1cb/modules/vl53l1_api_preset_modes.c **** 	phistogram->histogram_config__amb_thresh_low = 0xFFFF;
 1423              		.loc 1 890 2 is_stmt 1 view .LVU676
 1424              		.loc 1 890 47 is_stmt 0 view .LVU677
 1425 019c 4FF6FF78 		movw	r8, #65535
 1426 01a0 A1F81680 		strh	r8, [r1, #22]	@ movhi
 891:Drivers/BSP/Components/vl53l1cb/modules/vl53l1_api_preset_modes.c **** 	phistogram->histogram_config__amb_thresh_high = 0xFFFF;
 1427              		.loc 1 891 2 is_stmt 1 view .LVU678
 1428              		.loc 1 891 48 is_stmt 0 view .LVU679
 1429 01a4 A1F81880 		strh	r8, [r1, #24]	@ movhi
 892:Drivers/BSP/Components/vl53l1cb/modules/vl53l1_api_preset_modes.c **** 
 893:Drivers/BSP/Components/vl53l1cb/modules/vl53l1_api_preset_modes.c **** 	phistogram->histogram_config__spad_array_selection = 0x00;
 1430              		.loc 1 893 2 is_stmt 1 view .LVU680
 1431              		.loc 1 893 53 is_stmt 0 view .LVU681
 1432 01a8 0870     		strb	r0, [r1]
 894:Drivers/BSP/Components/vl53l1cb/modules/vl53l1_api_preset_modes.c **** 
 895:Drivers/BSP/Components/vl53l1cb/modules/vl53l1_api_preset_modes.c **** 
 896:Drivers/BSP/Components/vl53l1cb/modules/vl53l1_api_preset_modes.c **** 	pzone_cfg->max_zones                     = VL53L1_MAX_USER_ZONES;
 1433              		.loc 1 896 2 is_stmt 1 view .LVU682
 1434              		.loc 1 896 43 is_stmt 0 view .LVU683
 1435 01aa 3270     		strb	r2, [r6]
 897:Drivers/BSP/Components/vl53l1cb/modules/vl53l1_api_preset_modes.c **** 	pzone_cfg->active_zones = 0x00;
 1436              		.loc 1 897 2 is_stmt 1 view .LVU684
 1437              		.loc 1 897 26 is_stmt 0 view .LVU685
 1438 01ac 7070     		strb	r0, [r6, #1]
 898:Drivers/BSP/Components/vl53l1cb/modules/vl53l1_api_preset_modes.c **** 	pzone_cfg->user_zones[0].height = 0x0f;
 1439              		.loc 1 898 2 is_stmt 1 view .LVU686
 1440              		.loc 1 898 34 is_stmt 0 view .LVU687
ARM GAS  C:\Temp\ccoVwn9Y.s 			page 42


 1441 01ae 0F22     		movs	r2, #15
 1442 01b0 F277     		strb	r2, [r6, #31]
 899:Drivers/BSP/Components/vl53l1cb/modules/vl53l1_api_preset_modes.c **** 	pzone_cfg->user_zones[0].width = 0x0f;
 1443              		.loc 1 899 2 is_stmt 1 view .LVU688
 1444              		.loc 1 899 33 is_stmt 0 view .LVU689
 1445 01b2 B277     		strb	r2, [r6, #30]
 900:Drivers/BSP/Components/vl53l1cb/modules/vl53l1_api_preset_modes.c **** 	pzone_cfg->user_zones[0].x_centre = 0x08;
 1446              		.loc 1 900 2 is_stmt 1 view .LVU690
 1447              		.loc 1 900 36 is_stmt 0 view .LVU691
 1448 01b4 3777     		strb	r7, [r6, #28]
 901:Drivers/BSP/Components/vl53l1cb/modules/vl53l1_api_preset_modes.c **** 	pzone_cfg->user_zones[0].y_centre = 0x08;
 1449              		.loc 1 901 2 is_stmt 1 view .LVU692
 1450              		.loc 1 901 36 is_stmt 0 view .LVU693
 1451 01b6 7777     		strb	r7, [r6, #29]
 902:Drivers/BSP/Components/vl53l1cb/modules/vl53l1_api_preset_modes.c **** 
 903:Drivers/BSP/Components/vl53l1cb/modules/vl53l1_api_preset_modes.c **** 
 904:Drivers/BSP/Components/vl53l1cb/modules/vl53l1_api_preset_modes.c **** 
 905:Drivers/BSP/Components/vl53l1cb/modules/vl53l1_api_preset_modes.c **** 	pdynamic->system__grouped_parameter_hold_0 = 0x01;
 1452              		.loc 1 905 2 is_stmt 1 view .LVU694
 1453              		.loc 1 905 45 is_stmt 0 view .LVU695
 1454 01b8 84F800C0 		strb	ip, [r4]
 906:Drivers/BSP/Components/vl53l1cb/modules/vl53l1_api_preset_modes.c **** 
 907:Drivers/BSP/Components/vl53l1cb/modules/vl53l1_api_preset_modes.c **** 	pdynamic->system__thresh_high = 0x0000;
 1455              		.loc 1 907 2 is_stmt 1 view .LVU696
 1456              		.loc 1 907 32 is_stmt 0 view .LVU697
 1457 01bc 6080     		strh	r0, [r4, #2]	@ movhi
 908:Drivers/BSP/Components/vl53l1cb/modules/vl53l1_api_preset_modes.c **** 	pdynamic->system__thresh_low = 0x0000;
 1458              		.loc 1 908 2 is_stmt 1 view .LVU698
 1459              		.loc 1 908 31 is_stmt 0 view .LVU699
 1460 01be A080     		strh	r0, [r4, #4]	@ movhi
 909:Drivers/BSP/Components/vl53l1cb/modules/vl53l1_api_preset_modes.c **** 	pdynamic->system__enable_xtalk_per_quadrant = 0x00;
 1461              		.loc 1 909 2 is_stmt 1 view .LVU700
 1462              		.loc 1 909 46 is_stmt 0 view .LVU701
 1463 01c0 A071     		strb	r0, [r4, #6]
 910:Drivers/BSP/Components/vl53l1cb/modules/vl53l1_api_preset_modes.c **** 	pdynamic->system__seed_config =
 1464              		.loc 1 910 2 is_stmt 1 view .LVU702
 911:Drivers/BSP/Components/vl53l1cb/modules/vl53l1_api_preset_modes.c **** 			ptuning_parms->tp_lite_seed_cfg;
 1465              		.loc 1 911 17 is_stmt 0 view .LVU703
 1466 01c2 95F82720 		ldrb	r2, [r5, #39]	@ zero_extendqisi2
 910:Drivers/BSP/Components/vl53l1cb/modules/vl53l1_api_preset_modes.c **** 	pdynamic->system__seed_config =
 1467              		.loc 1 910 32 view .LVU704
 1468 01c6 E271     		strb	r2, [r4, #7]
 912:Drivers/BSP/Components/vl53l1cb/modules/vl53l1_api_preset_modes.c **** 
 913:Drivers/BSP/Components/vl53l1cb/modules/vl53l1_api_preset_modes.c **** 
 914:Drivers/BSP/Components/vl53l1cb/modules/vl53l1_api_preset_modes.c **** 	pdynamic->sd_config__woi_sd0 = 0x0B;
 1469              		.loc 1 914 2 is_stmt 1 view .LVU705
 1470              		.loc 1 914 31 is_stmt 0 view .LVU706
 1471 01c8 84F808B0 		strb	fp, [r4, #8]
 915:Drivers/BSP/Components/vl53l1cb/modules/vl53l1_api_preset_modes.c **** 
 916:Drivers/BSP/Components/vl53l1cb/modules/vl53l1_api_preset_modes.c **** 	pdynamic->sd_config__woi_sd1 = 0x09;
 1472              		.loc 1 916 2 is_stmt 1 view .LVU707
 1473              		.loc 1 916 31 is_stmt 0 view .LVU708
 1474 01cc 4FF00902 		mov	r2, #9
 1475 01d0 6272     		strb	r2, [r4, #9]
 917:Drivers/BSP/Components/vl53l1cb/modules/vl53l1_api_preset_modes.c **** 
 918:Drivers/BSP/Components/vl53l1cb/modules/vl53l1_api_preset_modes.c **** 	pdynamic->sd_config__initial_phase_sd0                     =
 1476              		.loc 1 918 2 is_stmt 1 view .LVU709
ARM GAS  C:\Temp\ccoVwn9Y.s 			page 43


 919:Drivers/BSP/Components/vl53l1cb/modules/vl53l1_api_preset_modes.c **** 			ptuning_parms->tp_init_phase_rtn_lite_med;
 1477              		.loc 1 919 17 is_stmt 0 view .LVU710
 1478 01d2 EA79     		ldrb	r2, [r5, #7]	@ zero_extendqisi2
 918:Drivers/BSP/Components/vl53l1cb/modules/vl53l1_api_preset_modes.c **** 			ptuning_parms->tp_init_phase_rtn_lite_med;
 1479              		.loc 1 918 61 view .LVU711
 1480 01d4 A272     		strb	r2, [r4, #10]
 920:Drivers/BSP/Components/vl53l1cb/modules/vl53l1_api_preset_modes.c **** 	pdynamic->sd_config__initial_phase_sd1                     =
 1481              		.loc 1 920 2 is_stmt 1 view .LVU712
 921:Drivers/BSP/Components/vl53l1cb/modules/vl53l1_api_preset_modes.c **** 			ptuning_parms->tp_init_phase_ref_lite_med;
 1482              		.loc 1 921 17 is_stmt 0 view .LVU713
 1483 01d6 AA7A     		ldrb	r2, [r5, #10]	@ zero_extendqisi2
 920:Drivers/BSP/Components/vl53l1cb/modules/vl53l1_api_preset_modes.c **** 	pdynamic->sd_config__initial_phase_sd1                     =
 1484              		.loc 1 920 61 view .LVU714
 1485 01d8 E272     		strb	r2, [r4, #11]
 922:Drivers/BSP/Components/vl53l1cb/modules/vl53l1_api_preset_modes.c **** 
 923:Drivers/BSP/Components/vl53l1cb/modules/vl53l1_api_preset_modes.c **** 	pdynamic->system__grouped_parameter_hold_1 = 0x01;
 1486              		.loc 1 923 2 is_stmt 1 view .LVU715
 1487              		.loc 1 923 45 is_stmt 0 view .LVU716
 1488 01da 84F80CC0 		strb	ip, [r4, #12]
 924:Drivers/BSP/Components/vl53l1cb/modules/vl53l1_api_preset_modes.c **** 
 925:Drivers/BSP/Components/vl53l1cb/modules/vl53l1_api_preset_modes.c **** 
 926:Drivers/BSP/Components/vl53l1cb/modules/vl53l1_api_preset_modes.c **** 
 927:Drivers/BSP/Components/vl53l1cb/modules/vl53l1_api_preset_modes.c **** 	pdynamic->sd_config__first_order_select =
 1489              		.loc 1 927 2 is_stmt 1 view .LVU717
 928:Drivers/BSP/Components/vl53l1cb/modules/vl53l1_api_preset_modes.c **** 			ptuning_parms->tp_lite_first_order_select;
 1490              		.loc 1 928 17 is_stmt 0 view .LVU718
 1491 01de 95F82A20 		ldrb	r2, [r5, #42]	@ zero_extendqisi2
 927:Drivers/BSP/Components/vl53l1cb/modules/vl53l1_api_preset_modes.c **** 			ptuning_parms->tp_lite_first_order_select;
 1492              		.loc 1 927 42 view .LVU719
 1493 01e2 6273     		strb	r2, [r4, #13]
 929:Drivers/BSP/Components/vl53l1cb/modules/vl53l1_api_preset_modes.c **** 	pdynamic->sd_config__quantifier         =
 1494              		.loc 1 929 2 is_stmt 1 view .LVU720
 930:Drivers/BSP/Components/vl53l1cb/modules/vl53l1_api_preset_modes.c **** 			ptuning_parms->tp_lite_quantifier;
 1495              		.loc 1 930 17 is_stmt 0 view .LVU721
 1496 01e4 95F82920 		ldrb	r2, [r5, #41]	@ zero_extendqisi2
 929:Drivers/BSP/Components/vl53l1cb/modules/vl53l1_api_preset_modes.c **** 	pdynamic->sd_config__quantifier         =
 1497              		.loc 1 929 42 view .LVU722
 1498 01e8 A273     		strb	r2, [r4, #14]
 931:Drivers/BSP/Components/vl53l1cb/modules/vl53l1_api_preset_modes.c **** 
 932:Drivers/BSP/Components/vl53l1cb/modules/vl53l1_api_preset_modes.c **** 
 933:Drivers/BSP/Components/vl53l1cb/modules/vl53l1_api_preset_modes.c **** 	pdynamic->roi_config__user_roi_centre_spad = 0xC7;
 1499              		.loc 1 933 2 is_stmt 1 view .LVU723
 1500              		.loc 1 933 45 is_stmt 0 view .LVU724
 1501 01ea C722     		movs	r2, #199
 1502 01ec E273     		strb	r2, [r4, #15]
 934:Drivers/BSP/Components/vl53l1cb/modules/vl53l1_api_preset_modes.c **** 
 935:Drivers/BSP/Components/vl53l1cb/modules/vl53l1_api_preset_modes.c **** 	pdynamic->roi_config__user_roi_requested_global_xy_size = 0xFF;
 1503              		.loc 1 935 2 is_stmt 1 view .LVU725
 1504              		.loc 1 935 58 is_stmt 0 view .LVU726
 1505 01ee 84F81080 		strb	r8, [r4, #16]
 936:Drivers/BSP/Components/vl53l1cb/modules/vl53l1_api_preset_modes.c **** 
 937:Drivers/BSP/Components/vl53l1cb/modules/vl53l1_api_preset_modes.c **** 
 938:Drivers/BSP/Components/vl53l1cb/modules/vl53l1_api_preset_modes.c **** 	pdynamic->system__sequence_config                          =
 1506              		.loc 1 938 2 is_stmt 1 view .LVU727
 1507              		.loc 1 938 61 is_stmt 0 view .LVU728
 1508 01f2 DB22     		movs	r2, #219
 1509 01f4 6274     		strb	r2, [r4, #17]
ARM GAS  C:\Temp\ccoVwn9Y.s 			page 44


 939:Drivers/BSP/Components/vl53l1cb/modules/vl53l1_api_preset_modes.c **** 			VL53L1_SEQUENCE_VHV_EN |
 940:Drivers/BSP/Components/vl53l1cb/modules/vl53l1_api_preset_modes.c **** 			VL53L1_SEQUENCE_PHASECAL_EN |
 941:Drivers/BSP/Components/vl53l1cb/modules/vl53l1_api_preset_modes.c **** 			VL53L1_SEQUENCE_DSS1_EN |
 942:Drivers/BSP/Components/vl53l1cb/modules/vl53l1_api_preset_modes.c **** 			VL53L1_SEQUENCE_DSS2_EN |
 943:Drivers/BSP/Components/vl53l1cb/modules/vl53l1_api_preset_modes.c **** 			VL53L1_SEQUENCE_MM2_EN |
 944:Drivers/BSP/Components/vl53l1cb/modules/vl53l1_api_preset_modes.c **** 			VL53L1_SEQUENCE_RANGE_EN;
 945:Drivers/BSP/Components/vl53l1cb/modules/vl53l1_api_preset_modes.c **** 
 946:Drivers/BSP/Components/vl53l1cb/modules/vl53l1_api_preset_modes.c **** 	pdynamic->system__grouped_parameter_hold = 0x02;
 1510              		.loc 1 946 2 is_stmt 1 view .LVU729
 1511              		.loc 1 946 43 is_stmt 0 view .LVU730
 1512 01f6 84F812E0 		strb	lr, [r4, #18]
 947:Drivers/BSP/Components/vl53l1cb/modules/vl53l1_api_preset_modes.c **** 
 948:Drivers/BSP/Components/vl53l1cb/modules/vl53l1_api_preset_modes.c **** 
 949:Drivers/BSP/Components/vl53l1cb/modules/vl53l1_api_preset_modes.c **** 
 950:Drivers/BSP/Components/vl53l1cb/modules/vl53l1_api_preset_modes.c **** 
 951:Drivers/BSP/Components/vl53l1cb/modules/vl53l1_api_preset_modes.c **** 	psystem->system__stream_count_ctrl = 0x00;
 1513              		.loc 1 951 2 is_stmt 1 view .LVU731
 1514              		.loc 1 951 37 is_stmt 0 view .LVU732
 1515 01fa 0A9A     		ldr	r2, [sp, #40]
 1516 01fc 5070     		strb	r0, [r2, #1]
 952:Drivers/BSP/Components/vl53l1cb/modules/vl53l1_api_preset_modes.c **** 	psystem->firmware__enable = 0x01;
 1517              		.loc 1 952 2 is_stmt 1 view .LVU733
 1518              		.loc 1 952 28 is_stmt 0 view .LVU734
 1519 01fe 82F802C0 		strb	ip, [r2, #2]
 953:Drivers/BSP/Components/vl53l1cb/modules/vl53l1_api_preset_modes.c **** 	psystem->system__interrupt_clear                           =
 1520              		.loc 1 953 2 is_stmt 1 view .LVU735
 1521              		.loc 1 953 61 is_stmt 0 view .LVU736
 1522 0202 82F803C0 		strb	ip, [r2, #3]
 954:Drivers/BSP/Components/vl53l1cb/modules/vl53l1_api_preset_modes.c **** 			VL53L1_CLEAR_RANGE_INT;
 955:Drivers/BSP/Components/vl53l1cb/modules/vl53l1_api_preset_modes.c **** 
 956:Drivers/BSP/Components/vl53l1cb/modules/vl53l1_api_preset_modes.c **** 	psystem->system__mode_start                                =
 1523              		.loc 1 956 2 is_stmt 1 view .LVU737
 1524              		.loc 1 956 61 is_stmt 0 view .LVU738
 1525 0206 1371     		strb	r3, [r2, #4]
 957:Drivers/BSP/Components/vl53l1cb/modules/vl53l1_api_preset_modes.c **** 			VL53L1_DEVICESCHEDULERMODE_STREAMING |
 958:Drivers/BSP/Components/vl53l1cb/modules/vl53l1_api_preset_modes.c **** 			VL53L1_DEVICEREADOUTMODE_SINGLE_SD |
 959:Drivers/BSP/Components/vl53l1cb/modules/vl53l1_api_preset_modes.c **** 			VL53L1_DEVICEMEASUREMENTMODE_BACKTOBACK;
 960:Drivers/BSP/Components/vl53l1cb/modules/vl53l1_api_preset_modes.c **** 
 961:Drivers/BSP/Components/vl53l1cb/modules/vl53l1_api_preset_modes.c **** 	LOG_FUNCTION_END(status);
 1526              		.loc 1 961 26 is_stmt 1 view .LVU739
 962:Drivers/BSP/Components/vl53l1cb/modules/vl53l1_api_preset_modes.c **** 
 963:Drivers/BSP/Components/vl53l1cb/modules/vl53l1_api_preset_modes.c **** 	return status;
 1527              		.loc 1 963 2 view .LVU740
 964:Drivers/BSP/Components/vl53l1cb/modules/vl53l1_api_preset_modes.c **** }
 1528              		.loc 1 964 1 is_stmt 0 view .LVU741
 1529 0208 BDE8F08F 		pop	{r4, r5, r6, r7, r8, r9, r10, fp, pc}
 1530              		.loc 1 964 1 view .LVU742
 1531              		.cfi_endproc
 1532              	.LFE13:
 1534              		.section	.text.VL53L1_preset_mode_standard_ranging_short_range,"ax",%progbits
 1535              		.align	1
 1536              		.global	VL53L1_preset_mode_standard_ranging_short_range
 1537              		.syntax unified
 1538              		.thumb
 1539              		.thumb_func
 1541              	VL53L1_preset_mode_standard_ranging_short_range:
 1542              	.LVL34:
ARM GAS  C:\Temp\ccoVwn9Y.s 			page 45


 1543              	.LFB14:
 965:Drivers/BSP/Components/vl53l1cb/modules/vl53l1_api_preset_modes.c **** 
 966:Drivers/BSP/Components/vl53l1cb/modules/vl53l1_api_preset_modes.c **** 
 967:Drivers/BSP/Components/vl53l1cb/modules/vl53l1_api_preset_modes.c **** VL53L1_Error VL53L1_preset_mode_standard_ranging_short_range(
 968:Drivers/BSP/Components/vl53l1cb/modules/vl53l1_api_preset_modes.c **** 	VL53L1_static_config_t    *pstatic,
 969:Drivers/BSP/Components/vl53l1cb/modules/vl53l1_api_preset_modes.c **** 	VL53L1_histogram_config_t *phistogram,
 970:Drivers/BSP/Components/vl53l1cb/modules/vl53l1_api_preset_modes.c **** 	VL53L1_general_config_t   *pgeneral,
 971:Drivers/BSP/Components/vl53l1cb/modules/vl53l1_api_preset_modes.c **** 	VL53L1_timing_config_t    *ptiming,
 972:Drivers/BSP/Components/vl53l1cb/modules/vl53l1_api_preset_modes.c **** 	VL53L1_dynamic_config_t   *pdynamic,
 973:Drivers/BSP/Components/vl53l1cb/modules/vl53l1_api_preset_modes.c **** 	VL53L1_system_control_t   *psystem,
 974:Drivers/BSP/Components/vl53l1cb/modules/vl53l1_api_preset_modes.c **** 	VL53L1_tuning_parm_storage_t *ptuning_parms,
 975:Drivers/BSP/Components/vl53l1cb/modules/vl53l1_api_preset_modes.c **** 	VL53L1_zone_config_t      *pzone_cfg)
 976:Drivers/BSP/Components/vl53l1cb/modules/vl53l1_api_preset_modes.c **** {
 1544              		.loc 1 976 1 is_stmt 1 view -0
 1545              		.cfi_startproc
 1546              		@ args = 16, pretend = 0, frame = 0
 1547              		@ frame_needed = 0, uses_anonymous_args = 0
 1548              		.loc 1 976 1 is_stmt 0 view .LVU744
 1549 0000 F0B5     		push	{r4, r5, r6, r7, lr}
 1550              		.cfi_def_cfa_offset 20
 1551              		.cfi_offset 4, -20
 1552              		.cfi_offset 5, -16
 1553              		.cfi_offset 6, -12
 1554              		.cfi_offset 7, -8
 1555              		.cfi_offset 14, -4
 1556 0002 85B0     		sub	sp, sp, #20
 1557              		.cfi_def_cfa_offset 40
 1558 0004 1C46     		mov	r4, r3
 1559 0006 0A9D     		ldr	r5, [sp, #40]
 1560 0008 0C9E     		ldr	r6, [sp, #48]
 977:Drivers/BSP/Components/vl53l1cb/modules/vl53l1_api_preset_modes.c **** 
 978:Drivers/BSP/Components/vl53l1cb/modules/vl53l1_api_preset_modes.c **** 
 979:Drivers/BSP/Components/vl53l1cb/modules/vl53l1_api_preset_modes.c **** 	VL53L1_Error  status = VL53L1_ERROR_NONE;
 1561              		.loc 1 979 2 is_stmt 1 view .LVU745
 1562              	.LVL35:
 980:Drivers/BSP/Components/vl53l1cb/modules/vl53l1_api_preset_modes.c **** 
 981:Drivers/BSP/Components/vl53l1cb/modules/vl53l1_api_preset_modes.c **** 	LOG_FUNCTION_START("");
 1563              		.loc 1 981 24 view .LVU746
 982:Drivers/BSP/Components/vl53l1cb/modules/vl53l1_api_preset_modes.c **** 
 983:Drivers/BSP/Components/vl53l1cb/modules/vl53l1_api_preset_modes.c **** 
 984:Drivers/BSP/Components/vl53l1cb/modules/vl53l1_api_preset_modes.c **** 
 985:Drivers/BSP/Components/vl53l1cb/modules/vl53l1_api_preset_modes.c **** 	status = VL53L1_preset_mode_standard_ranging(
 1564              		.loc 1 985 2 view .LVU747
 1565              		.loc 1 985 11 is_stmt 0 view .LVU748
 1566 000a 0D9F     		ldr	r7, [sp, #52]
 1567 000c 0397     		str	r7, [sp, #12]
 1568 000e 0296     		str	r6, [sp, #8]
 1569 0010 0B9F     		ldr	r7, [sp, #44]
 1570 0012 0197     		str	r7, [sp, #4]
 1571 0014 0095     		str	r5, [sp]
 1572 0016 FFF7FEFF 		bl	VL53L1_preset_mode_standard_ranging
 1573              	.LVL36:
 986:Drivers/BSP/Components/vl53l1cb/modules/vl53l1_api_preset_modes.c **** 		pstatic,
 987:Drivers/BSP/Components/vl53l1cb/modules/vl53l1_api_preset_modes.c **** 		phistogram,
 988:Drivers/BSP/Components/vl53l1cb/modules/vl53l1_api_preset_modes.c **** 		pgeneral,
 989:Drivers/BSP/Components/vl53l1cb/modules/vl53l1_api_preset_modes.c **** 		ptiming,
 990:Drivers/BSP/Components/vl53l1cb/modules/vl53l1_api_preset_modes.c **** 		pdynamic,
ARM GAS  C:\Temp\ccoVwn9Y.s 			page 46


 991:Drivers/BSP/Components/vl53l1cb/modules/vl53l1_api_preset_modes.c **** 		psystem,
 992:Drivers/BSP/Components/vl53l1cb/modules/vl53l1_api_preset_modes.c **** 		ptuning_parms,
 993:Drivers/BSP/Components/vl53l1cb/modules/vl53l1_api_preset_modes.c **** 		pzone_cfg);
 994:Drivers/BSP/Components/vl53l1cb/modules/vl53l1_api_preset_modes.c **** 
 995:Drivers/BSP/Components/vl53l1cb/modules/vl53l1_api_preset_modes.c **** 
 996:Drivers/BSP/Components/vl53l1cb/modules/vl53l1_api_preset_modes.c **** 
 997:Drivers/BSP/Components/vl53l1cb/modules/vl53l1_api_preset_modes.c **** 	if (status == VL53L1_ERROR_NONE) {
 1574              		.loc 1 997 2 is_stmt 1 view .LVU749
 1575              		.loc 1 997 5 is_stmt 0 view .LVU750
 1576 001a 88B9     		cbnz	r0, .L22
 998:Drivers/BSP/Components/vl53l1cb/modules/vl53l1_api_preset_modes.c **** 
 999:Drivers/BSP/Components/vl53l1cb/modules/vl53l1_api_preset_modes.c **** 
1000:Drivers/BSP/Components/vl53l1cb/modules/vl53l1_api_preset_modes.c **** 
1001:Drivers/BSP/Components/vl53l1cb/modules/vl53l1_api_preset_modes.c **** 		ptiming->range_config__vcsel_period_a = 0x07;
 1577              		.loc 1 1001 3 is_stmt 1 view .LVU751
 1578              		.loc 1 1001 41 is_stmt 0 view .LVU752
 1579 001c 0722     		movs	r2, #7
 1580 001e A271     		strb	r2, [r4, #6]
1002:Drivers/BSP/Components/vl53l1cb/modules/vl53l1_api_preset_modes.c **** 		ptiming->range_config__vcsel_period_b = 0x05;
 1581              		.loc 1 1002 3 is_stmt 1 view .LVU753
 1582              		.loc 1 1002 41 is_stmt 0 view .LVU754
 1583 0020 0523     		movs	r3, #5
 1584 0022 6372     		strb	r3, [r4, #9]
1003:Drivers/BSP/Components/vl53l1cb/modules/vl53l1_api_preset_modes.c **** 		ptiming->range_config__sigma_thresh                  =
 1585              		.loc 1 1003 3 is_stmt 1 view .LVU755
1004:Drivers/BSP/Components/vl53l1cb/modules/vl53l1_api_preset_modes.c **** 				ptuning_parms->tp_lite_short_sigma_thresh_mm;
 1586              		.loc 1 1004 18 is_stmt 0 view .LVU756
 1587 0024 B18B     		ldrh	r1, [r6, #28]
1003:Drivers/BSP/Components/vl53l1cb/modules/vl53l1_api_preset_modes.c **** 		ptiming->range_config__sigma_thresh                  =
 1588              		.loc 1 1003 56 view .LVU757
 1589 0026 6181     		strh	r1, [r4, #10]	@ movhi
1005:Drivers/BSP/Components/vl53l1cb/modules/vl53l1_api_preset_modes.c **** 		ptiming->range_config__min_count_rate_rtn_limit_mcps =
 1590              		.loc 1 1005 3 is_stmt 1 view .LVU758
1006:Drivers/BSP/Components/vl53l1cb/modules/vl53l1_api_preset_modes.c **** 			ptuning_parms->tp_lite_short_min_count_rate_rtn_mcps;
 1591              		.loc 1 1006 17 is_stmt 0 view .LVU759
 1592 0028 718C     		ldrh	r1, [r6, #34]
1005:Drivers/BSP/Components/vl53l1cb/modules/vl53l1_api_preset_modes.c **** 		ptiming->range_config__min_count_rate_rtn_limit_mcps =
 1593              		.loc 1 1005 56 view .LVU760
 1594 002a A181     		strh	r1, [r4, #12]	@ movhi
1007:Drivers/BSP/Components/vl53l1cb/modules/vl53l1_api_preset_modes.c **** 		ptiming->range_config__valid_phase_low = 0x08;
 1595              		.loc 1 1007 3 is_stmt 1 view .LVU761
 1596              		.loc 1 1007 42 is_stmt 0 view .LVU762
 1597 002c 0821     		movs	r1, #8
 1598 002e A173     		strb	r1, [r4, #14]
1008:Drivers/BSP/Components/vl53l1cb/modules/vl53l1_api_preset_modes.c **** 		ptiming->range_config__valid_phase_high = 0x38;
 1599              		.loc 1 1008 3 is_stmt 1 view .LVU763
 1600              		.loc 1 1008 43 is_stmt 0 view .LVU764
 1601 0030 3821     		movs	r1, #56
 1602 0032 E173     		strb	r1, [r4, #15]
1009:Drivers/BSP/Components/vl53l1cb/modules/vl53l1_api_preset_modes.c **** 
1010:Drivers/BSP/Components/vl53l1cb/modules/vl53l1_api_preset_modes.c **** 
1011:Drivers/BSP/Components/vl53l1cb/modules/vl53l1_api_preset_modes.c **** 
1012:Drivers/BSP/Components/vl53l1cb/modules/vl53l1_api_preset_modes.c **** 		pdynamic->sd_config__woi_sd0 = 0x07;
 1603              		.loc 1 1012 3 is_stmt 1 view .LVU765
 1604              		.loc 1 1012 32 is_stmt 0 view .LVU766
 1605 0034 2A72     		strb	r2, [r5, #8]
1013:Drivers/BSP/Components/vl53l1cb/modules/vl53l1_api_preset_modes.c **** 		pdynamic->sd_config__woi_sd1 = 0x05;
ARM GAS  C:\Temp\ccoVwn9Y.s 			page 47


 1606              		.loc 1 1013 3 is_stmt 1 view .LVU767
 1607              		.loc 1 1013 32 is_stmt 0 view .LVU768
 1608 0036 6B72     		strb	r3, [r5, #9]
1014:Drivers/BSP/Components/vl53l1cb/modules/vl53l1_api_preset_modes.c **** 		pdynamic->sd_config__initial_phase_sd0               =
 1609              		.loc 1 1014 3 is_stmt 1 view .LVU769
1015:Drivers/BSP/Components/vl53l1cb/modules/vl53l1_api_preset_modes.c **** 				ptuning_parms->tp_init_phase_rtn_lite_short;
 1610              		.loc 1 1015 18 is_stmt 0 view .LVU770
 1611 0038 337A     		ldrb	r3, [r6, #8]	@ zero_extendqisi2
1014:Drivers/BSP/Components/vl53l1cb/modules/vl53l1_api_preset_modes.c **** 		pdynamic->sd_config__initial_phase_sd0               =
 1612              		.loc 1 1014 56 view .LVU771
 1613 003a AB72     		strb	r3, [r5, #10]
1016:Drivers/BSP/Components/vl53l1cb/modules/vl53l1_api_preset_modes.c **** 		pdynamic->sd_config__initial_phase_sd1               =
 1614              		.loc 1 1016 3 is_stmt 1 view .LVU772
1017:Drivers/BSP/Components/vl53l1cb/modules/vl53l1_api_preset_modes.c **** 				ptuning_parms->tp_init_phase_ref_lite_short;
 1615              		.loc 1 1017 18 is_stmt 0 view .LVU773
 1616 003c F37A     		ldrb	r3, [r6, #11]	@ zero_extendqisi2
1016:Drivers/BSP/Components/vl53l1cb/modules/vl53l1_api_preset_modes.c **** 		pdynamic->sd_config__initial_phase_sd1               =
 1617              		.loc 1 1016 56 view .LVU774
 1618 003e EB72     		strb	r3, [r5, #11]
 1619              	.L22:
1018:Drivers/BSP/Components/vl53l1cb/modules/vl53l1_api_preset_modes.c **** 	}
1019:Drivers/BSP/Components/vl53l1cb/modules/vl53l1_api_preset_modes.c **** 
1020:Drivers/BSP/Components/vl53l1cb/modules/vl53l1_api_preset_modes.c **** 	LOG_FUNCTION_END(status);
 1620              		.loc 1 1020 26 is_stmt 1 view .LVU775
1021:Drivers/BSP/Components/vl53l1cb/modules/vl53l1_api_preset_modes.c **** 
1022:Drivers/BSP/Components/vl53l1cb/modules/vl53l1_api_preset_modes.c **** 	return status;
 1621              		.loc 1 1022 2 view .LVU776
1023:Drivers/BSP/Components/vl53l1cb/modules/vl53l1_api_preset_modes.c **** }
 1622              		.loc 1 1023 1 is_stmt 0 view .LVU777
 1623 0040 05B0     		add	sp, sp, #20
 1624              		.cfi_def_cfa_offset 20
 1625              		@ sp needed
 1626 0042 F0BD     		pop	{r4, r5, r6, r7, pc}
 1627              		.loc 1 1023 1 view .LVU778
 1628              		.cfi_endproc
 1629              	.LFE14:
 1631              		.section	.text.VL53L1_preset_mode_standard_ranging_long_range,"ax",%progbits
 1632              		.align	1
 1633              		.global	VL53L1_preset_mode_standard_ranging_long_range
 1634              		.syntax unified
 1635              		.thumb
 1636              		.thumb_func
 1638              	VL53L1_preset_mode_standard_ranging_long_range:
 1639              	.LVL37:
 1640              	.LFB15:
1024:Drivers/BSP/Components/vl53l1cb/modules/vl53l1_api_preset_modes.c **** 
1025:Drivers/BSP/Components/vl53l1cb/modules/vl53l1_api_preset_modes.c **** 
1026:Drivers/BSP/Components/vl53l1cb/modules/vl53l1_api_preset_modes.c **** VL53L1_Error VL53L1_preset_mode_standard_ranging_long_range(
1027:Drivers/BSP/Components/vl53l1cb/modules/vl53l1_api_preset_modes.c **** 	VL53L1_static_config_t    *pstatic,
1028:Drivers/BSP/Components/vl53l1cb/modules/vl53l1_api_preset_modes.c **** 	VL53L1_histogram_config_t *phistogram,
1029:Drivers/BSP/Components/vl53l1cb/modules/vl53l1_api_preset_modes.c **** 	VL53L1_general_config_t   *pgeneral,
1030:Drivers/BSP/Components/vl53l1cb/modules/vl53l1_api_preset_modes.c **** 	VL53L1_timing_config_t    *ptiming,
1031:Drivers/BSP/Components/vl53l1cb/modules/vl53l1_api_preset_modes.c **** 	VL53L1_dynamic_config_t   *pdynamic,
1032:Drivers/BSP/Components/vl53l1cb/modules/vl53l1_api_preset_modes.c **** 	VL53L1_system_control_t   *psystem,
1033:Drivers/BSP/Components/vl53l1cb/modules/vl53l1_api_preset_modes.c **** 	VL53L1_tuning_parm_storage_t *ptuning_parms,
1034:Drivers/BSP/Components/vl53l1cb/modules/vl53l1_api_preset_modes.c **** 	VL53L1_zone_config_t      *pzone_cfg)
1035:Drivers/BSP/Components/vl53l1cb/modules/vl53l1_api_preset_modes.c **** {
ARM GAS  C:\Temp\ccoVwn9Y.s 			page 48


 1641              		.loc 1 1035 1 is_stmt 1 view -0
 1642              		.cfi_startproc
 1643              		@ args = 16, pretend = 0, frame = 0
 1644              		@ frame_needed = 0, uses_anonymous_args = 0
 1645              		.loc 1 1035 1 is_stmt 0 view .LVU780
 1646 0000 F0B5     		push	{r4, r5, r6, r7, lr}
 1647              		.cfi_def_cfa_offset 20
 1648              		.cfi_offset 4, -20
 1649              		.cfi_offset 5, -16
 1650              		.cfi_offset 6, -12
 1651              		.cfi_offset 7, -8
 1652              		.cfi_offset 14, -4
 1653 0002 85B0     		sub	sp, sp, #20
 1654              		.cfi_def_cfa_offset 40
 1655 0004 1C46     		mov	r4, r3
 1656 0006 0A9D     		ldr	r5, [sp, #40]
 1657 0008 0C9E     		ldr	r6, [sp, #48]
1036:Drivers/BSP/Components/vl53l1cb/modules/vl53l1_api_preset_modes.c **** 
1037:Drivers/BSP/Components/vl53l1cb/modules/vl53l1_api_preset_modes.c **** 
1038:Drivers/BSP/Components/vl53l1cb/modules/vl53l1_api_preset_modes.c **** 	VL53L1_Error  status = VL53L1_ERROR_NONE;
 1658              		.loc 1 1038 2 is_stmt 1 view .LVU781
 1659              	.LVL38:
1039:Drivers/BSP/Components/vl53l1cb/modules/vl53l1_api_preset_modes.c **** 
1040:Drivers/BSP/Components/vl53l1cb/modules/vl53l1_api_preset_modes.c **** 	LOG_FUNCTION_START("");
 1660              		.loc 1 1040 24 view .LVU782
1041:Drivers/BSP/Components/vl53l1cb/modules/vl53l1_api_preset_modes.c **** 
1042:Drivers/BSP/Components/vl53l1cb/modules/vl53l1_api_preset_modes.c **** 
1043:Drivers/BSP/Components/vl53l1cb/modules/vl53l1_api_preset_modes.c **** 
1044:Drivers/BSP/Components/vl53l1cb/modules/vl53l1_api_preset_modes.c **** 	status = VL53L1_preset_mode_standard_ranging(
 1661              		.loc 1 1044 2 view .LVU783
 1662              		.loc 1 1044 11 is_stmt 0 view .LVU784
 1663 000a 0D9F     		ldr	r7, [sp, #52]
 1664 000c 0397     		str	r7, [sp, #12]
 1665 000e 0296     		str	r6, [sp, #8]
 1666 0010 0B9F     		ldr	r7, [sp, #44]
 1667 0012 0197     		str	r7, [sp, #4]
 1668 0014 0095     		str	r5, [sp]
 1669 0016 FFF7FEFF 		bl	VL53L1_preset_mode_standard_ranging
 1670              	.LVL39:
1045:Drivers/BSP/Components/vl53l1cb/modules/vl53l1_api_preset_modes.c **** 		pstatic,
1046:Drivers/BSP/Components/vl53l1cb/modules/vl53l1_api_preset_modes.c **** 		phistogram,
1047:Drivers/BSP/Components/vl53l1cb/modules/vl53l1_api_preset_modes.c **** 		pgeneral,
1048:Drivers/BSP/Components/vl53l1cb/modules/vl53l1_api_preset_modes.c **** 		ptiming,
1049:Drivers/BSP/Components/vl53l1cb/modules/vl53l1_api_preset_modes.c **** 		pdynamic,
1050:Drivers/BSP/Components/vl53l1cb/modules/vl53l1_api_preset_modes.c **** 		psystem,
1051:Drivers/BSP/Components/vl53l1cb/modules/vl53l1_api_preset_modes.c **** 		ptuning_parms,
1052:Drivers/BSP/Components/vl53l1cb/modules/vl53l1_api_preset_modes.c **** 		pzone_cfg);
1053:Drivers/BSP/Components/vl53l1cb/modules/vl53l1_api_preset_modes.c **** 
1054:Drivers/BSP/Components/vl53l1cb/modules/vl53l1_api_preset_modes.c **** 
1055:Drivers/BSP/Components/vl53l1cb/modules/vl53l1_api_preset_modes.c **** 
1056:Drivers/BSP/Components/vl53l1cb/modules/vl53l1_api_preset_modes.c **** 	if (status == VL53L1_ERROR_NONE) {
 1671              		.loc 1 1056 2 is_stmt 1 view .LVU785
 1672              		.loc 1 1056 5 is_stmt 0 view .LVU786
 1673 001a 88B9     		cbnz	r0, .L25
1057:Drivers/BSP/Components/vl53l1cb/modules/vl53l1_api_preset_modes.c **** 
1058:Drivers/BSP/Components/vl53l1cb/modules/vl53l1_api_preset_modes.c **** 
1059:Drivers/BSP/Components/vl53l1cb/modules/vl53l1_api_preset_modes.c **** 
ARM GAS  C:\Temp\ccoVwn9Y.s 			page 49


1060:Drivers/BSP/Components/vl53l1cb/modules/vl53l1_api_preset_modes.c **** 		ptiming->range_config__vcsel_period_a = 0x0F;
 1674              		.loc 1 1060 3 is_stmt 1 view .LVU787
 1675              		.loc 1 1060 41 is_stmt 0 view .LVU788
 1676 001c 0F22     		movs	r2, #15
 1677 001e A271     		strb	r2, [r4, #6]
1061:Drivers/BSP/Components/vl53l1cb/modules/vl53l1_api_preset_modes.c **** 		ptiming->range_config__vcsel_period_b = 0x0D;
 1678              		.loc 1 1061 3 is_stmt 1 view .LVU789
 1679              		.loc 1 1061 41 is_stmt 0 view .LVU790
 1680 0020 0D23     		movs	r3, #13
 1681 0022 6372     		strb	r3, [r4, #9]
1062:Drivers/BSP/Components/vl53l1cb/modules/vl53l1_api_preset_modes.c **** 		ptiming->range_config__sigma_thresh                  =
 1682              		.loc 1 1062 3 is_stmt 1 view .LVU791
1063:Drivers/BSP/Components/vl53l1cb/modules/vl53l1_api_preset_modes.c **** 				ptuning_parms->tp_lite_long_sigma_thresh_mm;
 1683              		.loc 1 1063 18 is_stmt 0 view .LVU792
 1684 0024 318B     		ldrh	r1, [r6, #24]
1062:Drivers/BSP/Components/vl53l1cb/modules/vl53l1_api_preset_modes.c **** 		ptiming->range_config__sigma_thresh                  =
 1685              		.loc 1 1062 56 view .LVU793
 1686 0026 6181     		strh	r1, [r4, #10]	@ movhi
1064:Drivers/BSP/Components/vl53l1cb/modules/vl53l1_api_preset_modes.c **** 		ptiming->range_config__min_count_rate_rtn_limit_mcps =
 1687              		.loc 1 1064 3 is_stmt 1 view .LVU794
1065:Drivers/BSP/Components/vl53l1cb/modules/vl53l1_api_preset_modes.c **** 			ptuning_parms->tp_lite_long_min_count_rate_rtn_mcps;
 1688              		.loc 1 1065 17 is_stmt 0 view .LVU795
 1689 0028 F18B     		ldrh	r1, [r6, #30]
1064:Drivers/BSP/Components/vl53l1cb/modules/vl53l1_api_preset_modes.c **** 		ptiming->range_config__min_count_rate_rtn_limit_mcps =
 1690              		.loc 1 1064 56 view .LVU796
 1691 002a A181     		strh	r1, [r4, #12]	@ movhi
1066:Drivers/BSP/Components/vl53l1cb/modules/vl53l1_api_preset_modes.c **** 		ptiming->range_config__valid_phase_low = 0x08;
 1692              		.loc 1 1066 3 is_stmt 1 view .LVU797
 1693              		.loc 1 1066 42 is_stmt 0 view .LVU798
 1694 002c 0821     		movs	r1, #8
 1695 002e A173     		strb	r1, [r4, #14]
1067:Drivers/BSP/Components/vl53l1cb/modules/vl53l1_api_preset_modes.c **** 		ptiming->range_config__valid_phase_high = 0xB8;
 1696              		.loc 1 1067 3 is_stmt 1 view .LVU799
 1697              		.loc 1 1067 43 is_stmt 0 view .LVU800
 1698 0030 B821     		movs	r1, #184
 1699 0032 E173     		strb	r1, [r4, #15]
1068:Drivers/BSP/Components/vl53l1cb/modules/vl53l1_api_preset_modes.c **** 
1069:Drivers/BSP/Components/vl53l1cb/modules/vl53l1_api_preset_modes.c **** 
1070:Drivers/BSP/Components/vl53l1cb/modules/vl53l1_api_preset_modes.c **** 
1071:Drivers/BSP/Components/vl53l1cb/modules/vl53l1_api_preset_modes.c **** 		pdynamic->sd_config__woi_sd0 = 0x0F;
 1700              		.loc 1 1071 3 is_stmt 1 view .LVU801
 1701              		.loc 1 1071 32 is_stmt 0 view .LVU802
 1702 0034 2A72     		strb	r2, [r5, #8]
1072:Drivers/BSP/Components/vl53l1cb/modules/vl53l1_api_preset_modes.c **** 		pdynamic->sd_config__woi_sd1 = 0x0D;
 1703              		.loc 1 1072 3 is_stmt 1 view .LVU803
 1704              		.loc 1 1072 32 is_stmt 0 view .LVU804
 1705 0036 6B72     		strb	r3, [r5, #9]
1073:Drivers/BSP/Components/vl53l1cb/modules/vl53l1_api_preset_modes.c **** 		pdynamic->sd_config__initial_phase_sd0               =
 1706              		.loc 1 1073 3 is_stmt 1 view .LVU805
1074:Drivers/BSP/Components/vl53l1cb/modules/vl53l1_api_preset_modes.c **** 				ptuning_parms->tp_init_phase_rtn_lite_long;
 1707              		.loc 1 1074 18 is_stmt 0 view .LVU806
 1708 0038 B379     		ldrb	r3, [r6, #6]	@ zero_extendqisi2
1073:Drivers/BSP/Components/vl53l1cb/modules/vl53l1_api_preset_modes.c **** 		pdynamic->sd_config__initial_phase_sd0               =
 1709              		.loc 1 1073 56 view .LVU807
 1710 003a AB72     		strb	r3, [r5, #10]
1075:Drivers/BSP/Components/vl53l1cb/modules/vl53l1_api_preset_modes.c **** 		pdynamic->sd_config__initial_phase_sd1               =
 1711              		.loc 1 1075 3 is_stmt 1 view .LVU808
ARM GAS  C:\Temp\ccoVwn9Y.s 			page 50


1076:Drivers/BSP/Components/vl53l1cb/modules/vl53l1_api_preset_modes.c **** 				ptuning_parms->tp_init_phase_ref_lite_long;
 1712              		.loc 1 1076 18 is_stmt 0 view .LVU809
 1713 003c 737A     		ldrb	r3, [r6, #9]	@ zero_extendqisi2
1075:Drivers/BSP/Components/vl53l1cb/modules/vl53l1_api_preset_modes.c **** 		pdynamic->sd_config__initial_phase_sd1               =
 1714              		.loc 1 1075 56 view .LVU810
 1715 003e EB72     		strb	r3, [r5, #11]
 1716              	.L25:
1077:Drivers/BSP/Components/vl53l1cb/modules/vl53l1_api_preset_modes.c **** 	}
1078:Drivers/BSP/Components/vl53l1cb/modules/vl53l1_api_preset_modes.c **** 
1079:Drivers/BSP/Components/vl53l1cb/modules/vl53l1_api_preset_modes.c **** 	LOG_FUNCTION_END(status);
 1717              		.loc 1 1079 26 is_stmt 1 view .LVU811
1080:Drivers/BSP/Components/vl53l1cb/modules/vl53l1_api_preset_modes.c **** 
1081:Drivers/BSP/Components/vl53l1cb/modules/vl53l1_api_preset_modes.c **** 	return status;
 1718              		.loc 1 1081 2 view .LVU812
1082:Drivers/BSP/Components/vl53l1cb/modules/vl53l1_api_preset_modes.c **** }
 1719              		.loc 1 1082 1 is_stmt 0 view .LVU813
 1720 0040 05B0     		add	sp, sp, #20
 1721              		.cfi_def_cfa_offset 20
 1722              		@ sp needed
 1723 0042 F0BD     		pop	{r4, r5, r6, r7, pc}
 1724              		.loc 1 1082 1 view .LVU814
 1725              		.cfi_endproc
 1726              	.LFE15:
 1728              		.section	.text.VL53L1_preset_mode_standard_ranging_mm1_cal,"ax",%progbits
 1729              		.align	1
 1730              		.global	VL53L1_preset_mode_standard_ranging_mm1_cal
 1731              		.syntax unified
 1732              		.thumb
 1733              		.thumb_func
 1735              	VL53L1_preset_mode_standard_ranging_mm1_cal:
 1736              	.LVL40:
 1737              	.LFB16:
1083:Drivers/BSP/Components/vl53l1cb/modules/vl53l1_api_preset_modes.c **** 
1084:Drivers/BSP/Components/vl53l1cb/modules/vl53l1_api_preset_modes.c **** 
1085:Drivers/BSP/Components/vl53l1cb/modules/vl53l1_api_preset_modes.c **** VL53L1_Error VL53L1_preset_mode_standard_ranging_mm1_cal(
1086:Drivers/BSP/Components/vl53l1cb/modules/vl53l1_api_preset_modes.c **** 	VL53L1_static_config_t    *pstatic,
1087:Drivers/BSP/Components/vl53l1cb/modules/vl53l1_api_preset_modes.c **** 	VL53L1_histogram_config_t *phistogram,
1088:Drivers/BSP/Components/vl53l1cb/modules/vl53l1_api_preset_modes.c **** 	VL53L1_general_config_t   *pgeneral,
1089:Drivers/BSP/Components/vl53l1cb/modules/vl53l1_api_preset_modes.c **** 	VL53L1_timing_config_t    *ptiming,
1090:Drivers/BSP/Components/vl53l1cb/modules/vl53l1_api_preset_modes.c **** 	VL53L1_dynamic_config_t   *pdynamic,
1091:Drivers/BSP/Components/vl53l1cb/modules/vl53l1_api_preset_modes.c **** 	VL53L1_system_control_t   *psystem,
1092:Drivers/BSP/Components/vl53l1cb/modules/vl53l1_api_preset_modes.c **** 	VL53L1_tuning_parm_storage_t *ptuning_parms,
1093:Drivers/BSP/Components/vl53l1cb/modules/vl53l1_api_preset_modes.c **** 	VL53L1_zone_config_t      *pzone_cfg)
1094:Drivers/BSP/Components/vl53l1cb/modules/vl53l1_api_preset_modes.c **** {
 1738              		.loc 1 1094 1 is_stmt 1 view -0
 1739              		.cfi_startproc
 1740              		@ args = 16, pretend = 0, frame = 0
 1741              		@ frame_needed = 0, uses_anonymous_args = 0
 1742              		.loc 1 1094 1 is_stmt 0 view .LVU816
 1743 0000 70B5     		push	{r4, r5, r6, lr}
 1744              		.cfi_def_cfa_offset 16
 1745              		.cfi_offset 4, -16
 1746              		.cfi_offset 5, -12
 1747              		.cfi_offset 6, -8
 1748              		.cfi_offset 14, -4
 1749 0002 84B0     		sub	sp, sp, #16
 1750              		.cfi_def_cfa_offset 32
ARM GAS  C:\Temp\ccoVwn9Y.s 			page 51


 1751 0004 1446     		mov	r4, r2
 1752 0006 089D     		ldr	r5, [sp, #32]
1095:Drivers/BSP/Components/vl53l1cb/modules/vl53l1_api_preset_modes.c **** 
1096:Drivers/BSP/Components/vl53l1cb/modules/vl53l1_api_preset_modes.c **** 
1097:Drivers/BSP/Components/vl53l1cb/modules/vl53l1_api_preset_modes.c **** 	VL53L1_Error  status = VL53L1_ERROR_NONE;
 1753              		.loc 1 1097 2 is_stmt 1 view .LVU817
 1754              	.LVL41:
1098:Drivers/BSP/Components/vl53l1cb/modules/vl53l1_api_preset_modes.c **** 
1099:Drivers/BSP/Components/vl53l1cb/modules/vl53l1_api_preset_modes.c **** 	LOG_FUNCTION_START("");
 1755              		.loc 1 1099 24 view .LVU818
1100:Drivers/BSP/Components/vl53l1cb/modules/vl53l1_api_preset_modes.c **** 
1101:Drivers/BSP/Components/vl53l1cb/modules/vl53l1_api_preset_modes.c **** 
1102:Drivers/BSP/Components/vl53l1cb/modules/vl53l1_api_preset_modes.c **** 
1103:Drivers/BSP/Components/vl53l1cb/modules/vl53l1_api_preset_modes.c **** 	status = VL53L1_preset_mode_standard_ranging(
 1756              		.loc 1 1103 2 view .LVU819
 1757              		.loc 1 1103 11 is_stmt 0 view .LVU820
 1758 0008 0B9E     		ldr	r6, [sp, #44]
 1759 000a 0396     		str	r6, [sp, #12]
 1760 000c 0A9E     		ldr	r6, [sp, #40]
 1761 000e 0296     		str	r6, [sp, #8]
 1762 0010 099E     		ldr	r6, [sp, #36]
 1763 0012 0196     		str	r6, [sp, #4]
 1764 0014 0095     		str	r5, [sp]
 1765 0016 FFF7FEFF 		bl	VL53L1_preset_mode_standard_ranging
 1766              	.LVL42:
1104:Drivers/BSP/Components/vl53l1cb/modules/vl53l1_api_preset_modes.c **** 		pstatic,
1105:Drivers/BSP/Components/vl53l1cb/modules/vl53l1_api_preset_modes.c **** 		phistogram,
1106:Drivers/BSP/Components/vl53l1cb/modules/vl53l1_api_preset_modes.c **** 		pgeneral,
1107:Drivers/BSP/Components/vl53l1cb/modules/vl53l1_api_preset_modes.c **** 		ptiming,
1108:Drivers/BSP/Components/vl53l1cb/modules/vl53l1_api_preset_modes.c **** 		pdynamic,
1109:Drivers/BSP/Components/vl53l1cb/modules/vl53l1_api_preset_modes.c **** 		psystem,
1110:Drivers/BSP/Components/vl53l1cb/modules/vl53l1_api_preset_modes.c **** 		ptuning_parms,
1111:Drivers/BSP/Components/vl53l1cb/modules/vl53l1_api_preset_modes.c **** 		pzone_cfg);
1112:Drivers/BSP/Components/vl53l1cb/modules/vl53l1_api_preset_modes.c **** 
1113:Drivers/BSP/Components/vl53l1cb/modules/vl53l1_api_preset_modes.c **** 
1114:Drivers/BSP/Components/vl53l1cb/modules/vl53l1_api_preset_modes.c **** 
1115:Drivers/BSP/Components/vl53l1cb/modules/vl53l1_api_preset_modes.c **** 	if (status == VL53L1_ERROR_NONE) {
 1767              		.loc 1 1115 2 is_stmt 1 view .LVU821
 1768              		.loc 1 1115 5 is_stmt 0 view .LVU822
 1769 001a 18B9     		cbnz	r0, .L28
1116:Drivers/BSP/Components/vl53l1cb/modules/vl53l1_api_preset_modes.c **** 
1117:Drivers/BSP/Components/vl53l1cb/modules/vl53l1_api_preset_modes.c **** 		pgeneral->dss_config__roi_mode_control =
 1770              		.loc 1 1117 3 is_stmt 1 view .LVU823
 1771              		.loc 1 1117 42 is_stmt 0 view .LVU824
 1772 001c 0223     		movs	r3, #2
 1773 001e A372     		strb	r3, [r4, #10]
1118:Drivers/BSP/Components/vl53l1cb/modules/vl53l1_api_preset_modes.c **** 			VL53L1_DEVICEDSSMODE__REQUESTED_EFFFECTIVE_SPADS;
1119:Drivers/BSP/Components/vl53l1cb/modules/vl53l1_api_preset_modes.c **** 
1120:Drivers/BSP/Components/vl53l1cb/modules/vl53l1_api_preset_modes.c **** 		pdynamic->system__sequence_config  =
 1774              		.loc 1 1120 3 is_stmt 1 view .LVU825
 1775              		.loc 1 1120 38 is_stmt 0 view .LVU826
 1776 0020 3B23     		movs	r3, #59
 1777 0022 6B74     		strb	r3, [r5, #17]
 1778              	.L28:
1121:Drivers/BSP/Components/vl53l1cb/modules/vl53l1_api_preset_modes.c **** 				VL53L1_SEQUENCE_VHV_EN |
1122:Drivers/BSP/Components/vl53l1cb/modules/vl53l1_api_preset_modes.c **** 				VL53L1_SEQUENCE_PHASECAL_EN |
1123:Drivers/BSP/Components/vl53l1cb/modules/vl53l1_api_preset_modes.c **** 				VL53L1_SEQUENCE_DSS1_EN |
ARM GAS  C:\Temp\ccoVwn9Y.s 			page 52


1124:Drivers/BSP/Components/vl53l1cb/modules/vl53l1_api_preset_modes.c **** 				VL53L1_SEQUENCE_DSS2_EN |
1125:Drivers/BSP/Components/vl53l1cb/modules/vl53l1_api_preset_modes.c **** 				VL53L1_SEQUENCE_MM1_EN;
1126:Drivers/BSP/Components/vl53l1cb/modules/vl53l1_api_preset_modes.c **** 	}
1127:Drivers/BSP/Components/vl53l1cb/modules/vl53l1_api_preset_modes.c **** 
1128:Drivers/BSP/Components/vl53l1cb/modules/vl53l1_api_preset_modes.c **** 	LOG_FUNCTION_END(status);
 1779              		.loc 1 1128 26 is_stmt 1 view .LVU827
1129:Drivers/BSP/Components/vl53l1cb/modules/vl53l1_api_preset_modes.c **** 
1130:Drivers/BSP/Components/vl53l1cb/modules/vl53l1_api_preset_modes.c **** 	return status;
 1780              		.loc 1 1130 2 view .LVU828
1131:Drivers/BSP/Components/vl53l1cb/modules/vl53l1_api_preset_modes.c **** }
 1781              		.loc 1 1131 1 is_stmt 0 view .LVU829
 1782 0024 04B0     		add	sp, sp, #16
 1783              		.cfi_def_cfa_offset 16
 1784              		@ sp needed
 1785 0026 70BD     		pop	{r4, r5, r6, pc}
 1786              		.loc 1 1131 1 view .LVU830
 1787              		.cfi_endproc
 1788              	.LFE16:
 1790              		.section	.text.VL53L1_preset_mode_standard_ranging_mm2_cal,"ax",%progbits
 1791              		.align	1
 1792              		.global	VL53L1_preset_mode_standard_ranging_mm2_cal
 1793              		.syntax unified
 1794              		.thumb
 1795              		.thumb_func
 1797              	VL53L1_preset_mode_standard_ranging_mm2_cal:
 1798              	.LVL43:
 1799              	.LFB17:
1132:Drivers/BSP/Components/vl53l1cb/modules/vl53l1_api_preset_modes.c **** 
1133:Drivers/BSP/Components/vl53l1cb/modules/vl53l1_api_preset_modes.c **** 
1134:Drivers/BSP/Components/vl53l1cb/modules/vl53l1_api_preset_modes.c **** VL53L1_Error VL53L1_preset_mode_standard_ranging_mm2_cal(
1135:Drivers/BSP/Components/vl53l1cb/modules/vl53l1_api_preset_modes.c **** 	VL53L1_static_config_t    *pstatic,
1136:Drivers/BSP/Components/vl53l1cb/modules/vl53l1_api_preset_modes.c **** 	VL53L1_histogram_config_t *phistogram,
1137:Drivers/BSP/Components/vl53l1cb/modules/vl53l1_api_preset_modes.c **** 	VL53L1_general_config_t   *pgeneral,
1138:Drivers/BSP/Components/vl53l1cb/modules/vl53l1_api_preset_modes.c **** 	VL53L1_timing_config_t    *ptiming,
1139:Drivers/BSP/Components/vl53l1cb/modules/vl53l1_api_preset_modes.c **** 	VL53L1_dynamic_config_t   *pdynamic,
1140:Drivers/BSP/Components/vl53l1cb/modules/vl53l1_api_preset_modes.c **** 	VL53L1_system_control_t   *psystem,
1141:Drivers/BSP/Components/vl53l1cb/modules/vl53l1_api_preset_modes.c **** 	VL53L1_tuning_parm_storage_t *ptuning_parms,
1142:Drivers/BSP/Components/vl53l1cb/modules/vl53l1_api_preset_modes.c **** 	VL53L1_zone_config_t      *pzone_cfg)
1143:Drivers/BSP/Components/vl53l1cb/modules/vl53l1_api_preset_modes.c **** {
 1800              		.loc 1 1143 1 is_stmt 1 view -0
 1801              		.cfi_startproc
 1802              		@ args = 16, pretend = 0, frame = 0
 1803              		@ frame_needed = 0, uses_anonymous_args = 0
 1804              		.loc 1 1143 1 is_stmt 0 view .LVU832
 1805 0000 70B5     		push	{r4, r5, r6, lr}
 1806              		.cfi_def_cfa_offset 16
 1807              		.cfi_offset 4, -16
 1808              		.cfi_offset 5, -12
 1809              		.cfi_offset 6, -8
 1810              		.cfi_offset 14, -4
 1811 0002 84B0     		sub	sp, sp, #16
 1812              		.cfi_def_cfa_offset 32
 1813 0004 1446     		mov	r4, r2
 1814 0006 089D     		ldr	r5, [sp, #32]
1144:Drivers/BSP/Components/vl53l1cb/modules/vl53l1_api_preset_modes.c **** 
1145:Drivers/BSP/Components/vl53l1cb/modules/vl53l1_api_preset_modes.c **** 
1146:Drivers/BSP/Components/vl53l1cb/modules/vl53l1_api_preset_modes.c **** 	VL53L1_Error  status = VL53L1_ERROR_NONE;
ARM GAS  C:\Temp\ccoVwn9Y.s 			page 53


 1815              		.loc 1 1146 2 is_stmt 1 view .LVU833
 1816              	.LVL44:
1147:Drivers/BSP/Components/vl53l1cb/modules/vl53l1_api_preset_modes.c **** 
1148:Drivers/BSP/Components/vl53l1cb/modules/vl53l1_api_preset_modes.c **** 	LOG_FUNCTION_START("");
 1817              		.loc 1 1148 24 view .LVU834
1149:Drivers/BSP/Components/vl53l1cb/modules/vl53l1_api_preset_modes.c **** 
1150:Drivers/BSP/Components/vl53l1cb/modules/vl53l1_api_preset_modes.c **** 
1151:Drivers/BSP/Components/vl53l1cb/modules/vl53l1_api_preset_modes.c **** 
1152:Drivers/BSP/Components/vl53l1cb/modules/vl53l1_api_preset_modes.c **** 	status = VL53L1_preset_mode_standard_ranging(
 1818              		.loc 1 1152 2 view .LVU835
 1819              		.loc 1 1152 11 is_stmt 0 view .LVU836
 1820 0008 0B9E     		ldr	r6, [sp, #44]
 1821 000a 0396     		str	r6, [sp, #12]
 1822 000c 0A9E     		ldr	r6, [sp, #40]
 1823 000e 0296     		str	r6, [sp, #8]
 1824 0010 099E     		ldr	r6, [sp, #36]
 1825 0012 0196     		str	r6, [sp, #4]
 1826 0014 0095     		str	r5, [sp]
 1827 0016 FFF7FEFF 		bl	VL53L1_preset_mode_standard_ranging
 1828              	.LVL45:
1153:Drivers/BSP/Components/vl53l1cb/modules/vl53l1_api_preset_modes.c **** 		pstatic,
1154:Drivers/BSP/Components/vl53l1cb/modules/vl53l1_api_preset_modes.c **** 		phistogram,
1155:Drivers/BSP/Components/vl53l1cb/modules/vl53l1_api_preset_modes.c **** 		pgeneral,
1156:Drivers/BSP/Components/vl53l1cb/modules/vl53l1_api_preset_modes.c **** 		ptiming,
1157:Drivers/BSP/Components/vl53l1cb/modules/vl53l1_api_preset_modes.c **** 		pdynamic,
1158:Drivers/BSP/Components/vl53l1cb/modules/vl53l1_api_preset_modes.c **** 		psystem,
1159:Drivers/BSP/Components/vl53l1cb/modules/vl53l1_api_preset_modes.c **** 		ptuning_parms,
1160:Drivers/BSP/Components/vl53l1cb/modules/vl53l1_api_preset_modes.c **** 		pzone_cfg);
1161:Drivers/BSP/Components/vl53l1cb/modules/vl53l1_api_preset_modes.c **** 
1162:Drivers/BSP/Components/vl53l1cb/modules/vl53l1_api_preset_modes.c **** 
1163:Drivers/BSP/Components/vl53l1cb/modules/vl53l1_api_preset_modes.c **** 
1164:Drivers/BSP/Components/vl53l1cb/modules/vl53l1_api_preset_modes.c **** 	if (status == VL53L1_ERROR_NONE) {
 1829              		.loc 1 1164 2 is_stmt 1 view .LVU837
 1830              		.loc 1 1164 5 is_stmt 0 view .LVU838
 1831 001a 18B9     		cbnz	r0, .L31
1165:Drivers/BSP/Components/vl53l1cb/modules/vl53l1_api_preset_modes.c **** 
1166:Drivers/BSP/Components/vl53l1cb/modules/vl53l1_api_preset_modes.c **** 		pgeneral->dss_config__roi_mode_control =
 1832              		.loc 1 1166 3 is_stmt 1 view .LVU839
 1833              		.loc 1 1166 42 is_stmt 0 view .LVU840
 1834 001c 0223     		movs	r3, #2
 1835 001e A372     		strb	r3, [r4, #10]
1167:Drivers/BSP/Components/vl53l1cb/modules/vl53l1_api_preset_modes.c **** 			VL53L1_DEVICEDSSMODE__REQUESTED_EFFFECTIVE_SPADS;
1168:Drivers/BSP/Components/vl53l1cb/modules/vl53l1_api_preset_modes.c **** 
1169:Drivers/BSP/Components/vl53l1cb/modules/vl53l1_api_preset_modes.c **** 		pdynamic->system__sequence_config  =
 1836              		.loc 1 1169 3 is_stmt 1 view .LVU841
 1837              		.loc 1 1169 38 is_stmt 0 view .LVU842
 1838 0020 5B23     		movs	r3, #91
 1839 0022 6B74     		strb	r3, [r5, #17]
 1840              	.L31:
1170:Drivers/BSP/Components/vl53l1cb/modules/vl53l1_api_preset_modes.c **** 				VL53L1_SEQUENCE_VHV_EN |
1171:Drivers/BSP/Components/vl53l1cb/modules/vl53l1_api_preset_modes.c **** 				VL53L1_SEQUENCE_PHASECAL_EN |
1172:Drivers/BSP/Components/vl53l1cb/modules/vl53l1_api_preset_modes.c **** 				VL53L1_SEQUENCE_DSS1_EN |
1173:Drivers/BSP/Components/vl53l1cb/modules/vl53l1_api_preset_modes.c **** 				VL53L1_SEQUENCE_DSS2_EN |
1174:Drivers/BSP/Components/vl53l1cb/modules/vl53l1_api_preset_modes.c **** 				VL53L1_SEQUENCE_MM2_EN;
1175:Drivers/BSP/Components/vl53l1cb/modules/vl53l1_api_preset_modes.c **** 	}
1176:Drivers/BSP/Components/vl53l1cb/modules/vl53l1_api_preset_modes.c **** 
1177:Drivers/BSP/Components/vl53l1cb/modules/vl53l1_api_preset_modes.c **** 	LOG_FUNCTION_END(status);
ARM GAS  C:\Temp\ccoVwn9Y.s 			page 54


 1841              		.loc 1 1177 26 is_stmt 1 view .LVU843
1178:Drivers/BSP/Components/vl53l1cb/modules/vl53l1_api_preset_modes.c **** 
1179:Drivers/BSP/Components/vl53l1cb/modules/vl53l1_api_preset_modes.c **** 	return status;
 1842              		.loc 1 1179 2 view .LVU844
1180:Drivers/BSP/Components/vl53l1cb/modules/vl53l1_api_preset_modes.c **** }
 1843              		.loc 1 1180 1 is_stmt 0 view .LVU845
 1844 0024 04B0     		add	sp, sp, #16
 1845              		.cfi_def_cfa_offset 16
 1846              		@ sp needed
 1847 0026 70BD     		pop	{r4, r5, r6, pc}
 1848              		.loc 1 1180 1 view .LVU846
 1849              		.cfi_endproc
 1850              	.LFE17:
 1852              		.section	.text.VL53L1_preset_mode_timed_ranging,"ax",%progbits
 1853              		.align	1
 1854              		.global	VL53L1_preset_mode_timed_ranging
 1855              		.syntax unified
 1856              		.thumb
 1857              		.thumb_func
 1859              	VL53L1_preset_mode_timed_ranging:
 1860              	.LVL46:
 1861              	.LFB18:
1181:Drivers/BSP/Components/vl53l1cb/modules/vl53l1_api_preset_modes.c **** 
1182:Drivers/BSP/Components/vl53l1cb/modules/vl53l1_api_preset_modes.c **** 
1183:Drivers/BSP/Components/vl53l1cb/modules/vl53l1_api_preset_modes.c **** VL53L1_Error VL53L1_preset_mode_timed_ranging(
1184:Drivers/BSP/Components/vl53l1cb/modules/vl53l1_api_preset_modes.c **** 
1185:Drivers/BSP/Components/vl53l1cb/modules/vl53l1_api_preset_modes.c **** 	VL53L1_static_config_t    *pstatic,
1186:Drivers/BSP/Components/vl53l1cb/modules/vl53l1_api_preset_modes.c **** 	VL53L1_histogram_config_t *phistogram,
1187:Drivers/BSP/Components/vl53l1cb/modules/vl53l1_api_preset_modes.c **** 	VL53L1_general_config_t   *pgeneral,
1188:Drivers/BSP/Components/vl53l1cb/modules/vl53l1_api_preset_modes.c **** 	VL53L1_timing_config_t    *ptiming,
1189:Drivers/BSP/Components/vl53l1cb/modules/vl53l1_api_preset_modes.c **** 	VL53L1_dynamic_config_t   *pdynamic,
1190:Drivers/BSP/Components/vl53l1cb/modules/vl53l1_api_preset_modes.c **** 	VL53L1_system_control_t   *psystem,
1191:Drivers/BSP/Components/vl53l1cb/modules/vl53l1_api_preset_modes.c **** 	VL53L1_tuning_parm_storage_t *ptuning_parms,
1192:Drivers/BSP/Components/vl53l1cb/modules/vl53l1_api_preset_modes.c **** 	VL53L1_zone_config_t      *pzone_cfg)
1193:Drivers/BSP/Components/vl53l1cb/modules/vl53l1_api_preset_modes.c **** {
 1862              		.loc 1 1193 1 is_stmt 1 view -0
 1863              		.cfi_startproc
 1864              		@ args = 16, pretend = 0, frame = 0
 1865              		@ frame_needed = 0, uses_anonymous_args = 0
 1866              		.loc 1 1193 1 is_stmt 0 view .LVU848
 1867 0000 2DE9F041 		push	{r4, r5, r6, r7, r8, lr}
 1868              		.cfi_def_cfa_offset 24
 1869              		.cfi_offset 4, -24
 1870              		.cfi_offset 5, -20
 1871              		.cfi_offset 6, -16
 1872              		.cfi_offset 7, -12
 1873              		.cfi_offset 8, -8
 1874              		.cfi_offset 14, -4
 1875 0004 84B0     		sub	sp, sp, #16
 1876              		.cfi_def_cfa_offset 40
 1877 0006 1C46     		mov	r4, r3
 1878 0008 0A9E     		ldr	r6, [sp, #40]
 1879 000a 0B9F     		ldr	r7, [sp, #44]
 1880 000c DDF83080 		ldr	r8, [sp, #48]
1194:Drivers/BSP/Components/vl53l1cb/modules/vl53l1_api_preset_modes.c **** 
1195:Drivers/BSP/Components/vl53l1cb/modules/vl53l1_api_preset_modes.c **** 
1196:Drivers/BSP/Components/vl53l1cb/modules/vl53l1_api_preset_modes.c **** 	VL53L1_Error  status = VL53L1_ERROR_NONE;
ARM GAS  C:\Temp\ccoVwn9Y.s 			page 55


 1881              		.loc 1 1196 2 is_stmt 1 view .LVU849
 1882              	.LVL47:
1197:Drivers/BSP/Components/vl53l1cb/modules/vl53l1_api_preset_modes.c **** 
1198:Drivers/BSP/Components/vl53l1cb/modules/vl53l1_api_preset_modes.c **** 	LOG_FUNCTION_START("");
 1883              		.loc 1 1198 24 view .LVU850
1199:Drivers/BSP/Components/vl53l1cb/modules/vl53l1_api_preset_modes.c **** 
1200:Drivers/BSP/Components/vl53l1cb/modules/vl53l1_api_preset_modes.c **** 
1201:Drivers/BSP/Components/vl53l1cb/modules/vl53l1_api_preset_modes.c **** 
1202:Drivers/BSP/Components/vl53l1cb/modules/vl53l1_api_preset_modes.c **** 	status = VL53L1_preset_mode_standard_ranging(
 1884              		.loc 1 1202 2 view .LVU851
 1885              		.loc 1 1202 11 is_stmt 0 view .LVU852
 1886 0010 0D9D     		ldr	r5, [sp, #52]
 1887 0012 0395     		str	r5, [sp, #12]
 1888 0014 CDF80880 		str	r8, [sp, #8]
 1889 0018 0197     		str	r7, [sp, #4]
 1890 001a 0096     		str	r6, [sp]
 1891 001c FFF7FEFF 		bl	VL53L1_preset_mode_standard_ranging
 1892              	.LVL48:
1203:Drivers/BSP/Components/vl53l1cb/modules/vl53l1_api_preset_modes.c **** 					pstatic,
1204:Drivers/BSP/Components/vl53l1cb/modules/vl53l1_api_preset_modes.c **** 					phistogram,
1205:Drivers/BSP/Components/vl53l1cb/modules/vl53l1_api_preset_modes.c **** 					pgeneral,
1206:Drivers/BSP/Components/vl53l1cb/modules/vl53l1_api_preset_modes.c **** 					ptiming,
1207:Drivers/BSP/Components/vl53l1cb/modules/vl53l1_api_preset_modes.c **** 					pdynamic,
1208:Drivers/BSP/Components/vl53l1cb/modules/vl53l1_api_preset_modes.c **** 					psystem,
1209:Drivers/BSP/Components/vl53l1cb/modules/vl53l1_api_preset_modes.c **** 					ptuning_parms,
1210:Drivers/BSP/Components/vl53l1cb/modules/vl53l1_api_preset_modes.c **** 					pzone_cfg);
1211:Drivers/BSP/Components/vl53l1cb/modules/vl53l1_api_preset_modes.c **** 
1212:Drivers/BSP/Components/vl53l1cb/modules/vl53l1_api_preset_modes.c **** 
1213:Drivers/BSP/Components/vl53l1cb/modules/vl53l1_api_preset_modes.c **** 
1214:Drivers/BSP/Components/vl53l1cb/modules/vl53l1_api_preset_modes.c **** 	if (status == VL53L1_ERROR_NONE) {
 1893              		.loc 1 1214 2 is_stmt 1 view .LVU853
 1894              		.loc 1 1214 5 is_stmt 0 view .LVU854
 1895 0020 70B9     		cbnz	r0, .L34
1215:Drivers/BSP/Components/vl53l1cb/modules/vl53l1_api_preset_modes.c **** 
1216:Drivers/BSP/Components/vl53l1cb/modules/vl53l1_api_preset_modes.c **** 
1217:Drivers/BSP/Components/vl53l1cb/modules/vl53l1_api_preset_modes.c **** 
1218:Drivers/BSP/Components/vl53l1cb/modules/vl53l1_api_preset_modes.c **** 
1219:Drivers/BSP/Components/vl53l1cb/modules/vl53l1_api_preset_modes.c **** 		pdynamic->system__grouped_parameter_hold = 0x00;
 1896              		.loc 1 1219 3 is_stmt 1 view .LVU855
 1897              		.loc 1 1219 44 is_stmt 0 view .LVU856
 1898 0022 B074     		strb	r0, [r6, #18]
1220:Drivers/BSP/Components/vl53l1cb/modules/vl53l1_api_preset_modes.c **** 
1221:Drivers/BSP/Components/vl53l1cb/modules/vl53l1_api_preset_modes.c **** 
1222:Drivers/BSP/Components/vl53l1cb/modules/vl53l1_api_preset_modes.c **** 		ptiming->range_config__timeout_macrop_a_hi = 0x00;
 1899              		.loc 1 1222 3 is_stmt 1 view .LVU857
 1900              		.loc 1 1222 46 is_stmt 0 view .LVU858
 1901 0024 2071     		strb	r0, [r4, #4]
1223:Drivers/BSP/Components/vl53l1cb/modules/vl53l1_api_preset_modes.c **** 		ptiming->range_config__timeout_macrop_a_lo = 0xB1;
 1902              		.loc 1 1223 3 is_stmt 1 view .LVU859
 1903              		.loc 1 1223 46 is_stmt 0 view .LVU860
 1904 0026 B122     		movs	r2, #177
 1905 0028 6271     		strb	r2, [r4, #5]
1224:Drivers/BSP/Components/vl53l1cb/modules/vl53l1_api_preset_modes.c **** 
1225:Drivers/BSP/Components/vl53l1cb/modules/vl53l1_api_preset_modes.c **** 		ptiming->range_config__timeout_macrop_b_hi = 0x00;
 1906              		.loc 1 1225 3 is_stmt 1 view .LVU861
 1907              		.loc 1 1225 46 is_stmt 0 view .LVU862
 1908 002a E071     		strb	r0, [r4, #7]
ARM GAS  C:\Temp\ccoVwn9Y.s 			page 56


1226:Drivers/BSP/Components/vl53l1cb/modules/vl53l1_api_preset_modes.c **** 		ptiming->range_config__timeout_macrop_b_lo = 0xD4;
 1909              		.loc 1 1226 3 is_stmt 1 view .LVU863
 1910              		.loc 1 1226 46 is_stmt 0 view .LVU864
 1911 002c D423     		movs	r3, #212
 1912 002e 2372     		strb	r3, [r4, #8]
1227:Drivers/BSP/Components/vl53l1cb/modules/vl53l1_api_preset_modes.c **** 
1228:Drivers/BSP/Components/vl53l1cb/modules/vl53l1_api_preset_modes.c **** 
1229:Drivers/BSP/Components/vl53l1cb/modules/vl53l1_api_preset_modes.c **** 
1230:Drivers/BSP/Components/vl53l1cb/modules/vl53l1_api_preset_modes.c **** 		ptiming->system__intermeasurement_period = 0x00000600;
 1913              		.loc 1 1230 3 is_stmt 1 view .LVU865
 1914              		.loc 1 1230 44 is_stmt 0 view .LVU866
 1915 0030 4FF4C063 		mov	r3, #1536
 1916 0034 2361     		str	r3, [r4, #16]
1231:Drivers/BSP/Components/vl53l1cb/modules/vl53l1_api_preset_modes.c **** 		pdynamic->system__seed_config =
 1917              		.loc 1 1231 3 is_stmt 1 view .LVU867
1232:Drivers/BSP/Components/vl53l1cb/modules/vl53l1_api_preset_modes.c **** 				ptuning_parms->tp_timed_seed_cfg;
 1918              		.loc 1 1232 18 is_stmt 0 view .LVU868
 1919 0036 98F82830 		ldrb	r3, [r8, #40]	@ zero_extendqisi2
1231:Drivers/BSP/Components/vl53l1cb/modules/vl53l1_api_preset_modes.c **** 		pdynamic->system__seed_config =
 1920              		.loc 1 1231 33 view .LVU869
 1921 003a F371     		strb	r3, [r6, #7]
1233:Drivers/BSP/Components/vl53l1cb/modules/vl53l1_api_preset_modes.c **** 
1234:Drivers/BSP/Components/vl53l1cb/modules/vl53l1_api_preset_modes.c **** 
1235:Drivers/BSP/Components/vl53l1cb/modules/vl53l1_api_preset_modes.c **** 
1236:Drivers/BSP/Components/vl53l1cb/modules/vl53l1_api_preset_modes.c **** 
1237:Drivers/BSP/Components/vl53l1cb/modules/vl53l1_api_preset_modes.c **** 		psystem->system__mode_start =
 1922              		.loc 1 1237 3 is_stmt 1 view .LVU870
 1923              		.loc 1 1237 31 is_stmt 0 view .LVU871
 1924 003c 4023     		movs	r3, #64
 1925 003e 3B71     		strb	r3, [r7, #4]
 1926              	.L34:
1238:Drivers/BSP/Components/vl53l1cb/modules/vl53l1_api_preset_modes.c **** 				VL53L1_DEVICESCHEDULERMODE_PSEUDO_SOLO |
1239:Drivers/BSP/Components/vl53l1cb/modules/vl53l1_api_preset_modes.c **** 				VL53L1_DEVICEREADOUTMODE_SINGLE_SD     |
1240:Drivers/BSP/Components/vl53l1cb/modules/vl53l1_api_preset_modes.c **** 				VL53L1_DEVICEMEASUREMENTMODE_TIMED;
1241:Drivers/BSP/Components/vl53l1cb/modules/vl53l1_api_preset_modes.c **** 	}
1242:Drivers/BSP/Components/vl53l1cb/modules/vl53l1_api_preset_modes.c **** 
1243:Drivers/BSP/Components/vl53l1cb/modules/vl53l1_api_preset_modes.c **** 	LOG_FUNCTION_END(status);
 1927              		.loc 1 1243 26 is_stmt 1 view .LVU872
1244:Drivers/BSP/Components/vl53l1cb/modules/vl53l1_api_preset_modes.c **** 
1245:Drivers/BSP/Components/vl53l1cb/modules/vl53l1_api_preset_modes.c **** 	return status;
 1928              		.loc 1 1245 2 view .LVU873
1246:Drivers/BSP/Components/vl53l1cb/modules/vl53l1_api_preset_modes.c **** }
 1929              		.loc 1 1246 1 is_stmt 0 view .LVU874
 1930 0040 04B0     		add	sp, sp, #16
 1931              		.cfi_def_cfa_offset 24
 1932              		@ sp needed
 1933 0042 BDE8F081 		pop	{r4, r5, r6, r7, r8, pc}
 1934              		.loc 1 1246 1 view .LVU875
 1935              		.cfi_endproc
 1936              	.LFE18:
 1938              		.section	.text.VL53L1_preset_mode_timed_ranging_short_range,"ax",%progbits
 1939              		.align	1
 1940              		.global	VL53L1_preset_mode_timed_ranging_short_range
 1941              		.syntax unified
 1942              		.thumb
 1943              		.thumb_func
 1945              	VL53L1_preset_mode_timed_ranging_short_range:
ARM GAS  C:\Temp\ccoVwn9Y.s 			page 57


 1946              	.LVL49:
 1947              	.LFB19:
1247:Drivers/BSP/Components/vl53l1cb/modules/vl53l1_api_preset_modes.c **** 
1248:Drivers/BSP/Components/vl53l1cb/modules/vl53l1_api_preset_modes.c **** VL53L1_Error VL53L1_preset_mode_timed_ranging_short_range(
1249:Drivers/BSP/Components/vl53l1cb/modules/vl53l1_api_preset_modes.c **** 
1250:Drivers/BSP/Components/vl53l1cb/modules/vl53l1_api_preset_modes.c **** 	VL53L1_static_config_t    *pstatic,
1251:Drivers/BSP/Components/vl53l1cb/modules/vl53l1_api_preset_modes.c **** 	VL53L1_histogram_config_t *phistogram,
1252:Drivers/BSP/Components/vl53l1cb/modules/vl53l1_api_preset_modes.c **** 	VL53L1_general_config_t   *pgeneral,
1253:Drivers/BSP/Components/vl53l1cb/modules/vl53l1_api_preset_modes.c **** 	VL53L1_timing_config_t    *ptiming,
1254:Drivers/BSP/Components/vl53l1cb/modules/vl53l1_api_preset_modes.c **** 	VL53L1_dynamic_config_t   *pdynamic,
1255:Drivers/BSP/Components/vl53l1cb/modules/vl53l1_api_preset_modes.c **** 	VL53L1_system_control_t   *psystem,
1256:Drivers/BSP/Components/vl53l1cb/modules/vl53l1_api_preset_modes.c **** 	VL53L1_tuning_parm_storage_t *ptuning_parms,
1257:Drivers/BSP/Components/vl53l1cb/modules/vl53l1_api_preset_modes.c **** 	VL53L1_zone_config_t      *pzone_cfg)
1258:Drivers/BSP/Components/vl53l1cb/modules/vl53l1_api_preset_modes.c **** {
 1948              		.loc 1 1258 1 is_stmt 1 view -0
 1949              		.cfi_startproc
 1950              		@ args = 16, pretend = 0, frame = 0
 1951              		@ frame_needed = 0, uses_anonymous_args = 0
 1952              		.loc 1 1258 1 is_stmt 0 view .LVU877
 1953 0000 2DE9F041 		push	{r4, r5, r6, r7, r8, lr}
 1954              		.cfi_def_cfa_offset 24
 1955              		.cfi_offset 4, -24
 1956              		.cfi_offset 5, -20
 1957              		.cfi_offset 6, -16
 1958              		.cfi_offset 7, -12
 1959              		.cfi_offset 8, -8
 1960              		.cfi_offset 14, -4
 1961 0004 84B0     		sub	sp, sp, #16
 1962              		.cfi_def_cfa_offset 40
 1963 0006 1C46     		mov	r4, r3
 1964 0008 0A9E     		ldr	r6, [sp, #40]
 1965 000a 0B9F     		ldr	r7, [sp, #44]
 1966 000c DDF83080 		ldr	r8, [sp, #48]
1259:Drivers/BSP/Components/vl53l1cb/modules/vl53l1_api_preset_modes.c **** 
1260:Drivers/BSP/Components/vl53l1cb/modules/vl53l1_api_preset_modes.c **** 
1261:Drivers/BSP/Components/vl53l1cb/modules/vl53l1_api_preset_modes.c **** 	VL53L1_Error  status = VL53L1_ERROR_NONE;
 1967              		.loc 1 1261 2 is_stmt 1 view .LVU878
 1968              	.LVL50:
1262:Drivers/BSP/Components/vl53l1cb/modules/vl53l1_api_preset_modes.c **** 
1263:Drivers/BSP/Components/vl53l1cb/modules/vl53l1_api_preset_modes.c **** 	LOG_FUNCTION_START("");
 1969              		.loc 1 1263 24 view .LVU879
1264:Drivers/BSP/Components/vl53l1cb/modules/vl53l1_api_preset_modes.c **** 
1265:Drivers/BSP/Components/vl53l1cb/modules/vl53l1_api_preset_modes.c **** 
1266:Drivers/BSP/Components/vl53l1cb/modules/vl53l1_api_preset_modes.c **** 
1267:Drivers/BSP/Components/vl53l1cb/modules/vl53l1_api_preset_modes.c **** 	status = VL53L1_preset_mode_standard_ranging_short_range(
 1970              		.loc 1 1267 2 view .LVU880
 1971              		.loc 1 1267 11 is_stmt 0 view .LVU881
 1972 0010 0D9D     		ldr	r5, [sp, #52]
 1973 0012 0395     		str	r5, [sp, #12]
 1974 0014 CDF80880 		str	r8, [sp, #8]
 1975 0018 0197     		str	r7, [sp, #4]
 1976 001a 0096     		str	r6, [sp]
 1977 001c FFF7FEFF 		bl	VL53L1_preset_mode_standard_ranging_short_range
 1978              	.LVL51:
1268:Drivers/BSP/Components/vl53l1cb/modules/vl53l1_api_preset_modes.c **** 					pstatic,
1269:Drivers/BSP/Components/vl53l1cb/modules/vl53l1_api_preset_modes.c **** 					phistogram,
1270:Drivers/BSP/Components/vl53l1cb/modules/vl53l1_api_preset_modes.c **** 					pgeneral,
ARM GAS  C:\Temp\ccoVwn9Y.s 			page 58


1271:Drivers/BSP/Components/vl53l1cb/modules/vl53l1_api_preset_modes.c **** 					ptiming,
1272:Drivers/BSP/Components/vl53l1cb/modules/vl53l1_api_preset_modes.c **** 					pdynamic,
1273:Drivers/BSP/Components/vl53l1cb/modules/vl53l1_api_preset_modes.c **** 					psystem,
1274:Drivers/BSP/Components/vl53l1cb/modules/vl53l1_api_preset_modes.c **** 					ptuning_parms,
1275:Drivers/BSP/Components/vl53l1cb/modules/vl53l1_api_preset_modes.c **** 					pzone_cfg);
1276:Drivers/BSP/Components/vl53l1cb/modules/vl53l1_api_preset_modes.c **** 
1277:Drivers/BSP/Components/vl53l1cb/modules/vl53l1_api_preset_modes.c **** 
1278:Drivers/BSP/Components/vl53l1cb/modules/vl53l1_api_preset_modes.c **** 
1279:Drivers/BSP/Components/vl53l1cb/modules/vl53l1_api_preset_modes.c **** 	if (status == VL53L1_ERROR_NONE) {
 1979              		.loc 1 1279 2 is_stmt 1 view .LVU882
 1980              		.loc 1 1279 5 is_stmt 0 view .LVU883
 1981 0020 78B9     		cbnz	r0, .L37
1280:Drivers/BSP/Components/vl53l1cb/modules/vl53l1_api_preset_modes.c **** 
1281:Drivers/BSP/Components/vl53l1cb/modules/vl53l1_api_preset_modes.c **** 
1282:Drivers/BSP/Components/vl53l1cb/modules/vl53l1_api_preset_modes.c **** 
1283:Drivers/BSP/Components/vl53l1cb/modules/vl53l1_api_preset_modes.c **** 
1284:Drivers/BSP/Components/vl53l1cb/modules/vl53l1_api_preset_modes.c **** 		pdynamic->system__grouped_parameter_hold = 0x00;
 1982              		.loc 1 1284 3 is_stmt 1 view .LVU884
 1983              		.loc 1 1284 44 is_stmt 0 view .LVU885
 1984 0022 B074     		strb	r0, [r6, #18]
1285:Drivers/BSP/Components/vl53l1cb/modules/vl53l1_api_preset_modes.c **** 
1286:Drivers/BSP/Components/vl53l1cb/modules/vl53l1_api_preset_modes.c **** 
1287:Drivers/BSP/Components/vl53l1cb/modules/vl53l1_api_preset_modes.c **** 
1288:Drivers/BSP/Components/vl53l1cb/modules/vl53l1_api_preset_modes.c **** 
1289:Drivers/BSP/Components/vl53l1cb/modules/vl53l1_api_preset_modes.c **** 
1290:Drivers/BSP/Components/vl53l1cb/modules/vl53l1_api_preset_modes.c **** 		ptiming->range_config__timeout_macrop_a_hi = 0x01;
 1985              		.loc 1 1290 3 is_stmt 1 view .LVU886
 1986              		.loc 1 1290 46 is_stmt 0 view .LVU887
 1987 0024 0123     		movs	r3, #1
 1988 0026 2371     		strb	r3, [r4, #4]
1291:Drivers/BSP/Components/vl53l1cb/modules/vl53l1_api_preset_modes.c **** 		ptiming->range_config__timeout_macrop_a_lo = 0x84;
 1989              		.loc 1 1291 3 is_stmt 1 view .LVU888
 1990              		.loc 1 1291 46 is_stmt 0 view .LVU889
 1991 0028 8422     		movs	r2, #132
 1992 002a 6271     		strb	r2, [r4, #5]
1292:Drivers/BSP/Components/vl53l1cb/modules/vl53l1_api_preset_modes.c **** 
1293:Drivers/BSP/Components/vl53l1cb/modules/vl53l1_api_preset_modes.c **** 		ptiming->range_config__timeout_macrop_b_hi = 0x01;
 1993              		.loc 1 1293 3 is_stmt 1 view .LVU890
 1994              		.loc 1 1293 46 is_stmt 0 view .LVU891
 1995 002c E371     		strb	r3, [r4, #7]
1294:Drivers/BSP/Components/vl53l1cb/modules/vl53l1_api_preset_modes.c **** 		ptiming->range_config__timeout_macrop_b_lo = 0xB1;
 1996              		.loc 1 1294 3 is_stmt 1 view .LVU892
 1997              		.loc 1 1294 46 is_stmt 0 view .LVU893
 1998 002e B123     		movs	r3, #177
 1999 0030 2372     		strb	r3, [r4, #8]
1295:Drivers/BSP/Components/vl53l1cb/modules/vl53l1_api_preset_modes.c **** 
1296:Drivers/BSP/Components/vl53l1cb/modules/vl53l1_api_preset_modes.c **** 		ptiming->system__intermeasurement_period = 0x00000600;
 2000              		.loc 1 1296 3 is_stmt 1 view .LVU894
 2001              		.loc 1 1296 44 is_stmt 0 view .LVU895
 2002 0032 4FF4C063 		mov	r3, #1536
 2003 0036 2361     		str	r3, [r4, #16]
1297:Drivers/BSP/Components/vl53l1cb/modules/vl53l1_api_preset_modes.c **** 		pdynamic->system__seed_config =
 2004              		.loc 1 1297 3 is_stmt 1 view .LVU896
1298:Drivers/BSP/Components/vl53l1cb/modules/vl53l1_api_preset_modes.c **** 				ptuning_parms->tp_timed_seed_cfg;
 2005              		.loc 1 1298 18 is_stmt 0 view .LVU897
 2006 0038 98F82830 		ldrb	r3, [r8, #40]	@ zero_extendqisi2
1297:Drivers/BSP/Components/vl53l1cb/modules/vl53l1_api_preset_modes.c **** 		pdynamic->system__seed_config =
ARM GAS  C:\Temp\ccoVwn9Y.s 			page 59


 2007              		.loc 1 1297 33 view .LVU898
 2008 003c F371     		strb	r3, [r6, #7]
1299:Drivers/BSP/Components/vl53l1cb/modules/vl53l1_api_preset_modes.c **** 
1300:Drivers/BSP/Components/vl53l1cb/modules/vl53l1_api_preset_modes.c **** 
1301:Drivers/BSP/Components/vl53l1cb/modules/vl53l1_api_preset_modes.c **** 
1302:Drivers/BSP/Components/vl53l1cb/modules/vl53l1_api_preset_modes.c **** 
1303:Drivers/BSP/Components/vl53l1cb/modules/vl53l1_api_preset_modes.c **** 		psystem->system__mode_start =
 2009              		.loc 1 1303 3 is_stmt 1 view .LVU899
 2010              		.loc 1 1303 31 is_stmt 0 view .LVU900
 2011 003e 4023     		movs	r3, #64
 2012 0040 3B71     		strb	r3, [r7, #4]
 2013              	.L37:
1304:Drivers/BSP/Components/vl53l1cb/modules/vl53l1_api_preset_modes.c **** 				VL53L1_DEVICESCHEDULERMODE_PSEUDO_SOLO |
1305:Drivers/BSP/Components/vl53l1cb/modules/vl53l1_api_preset_modes.c **** 				VL53L1_DEVICEREADOUTMODE_SINGLE_SD     |
1306:Drivers/BSP/Components/vl53l1cb/modules/vl53l1_api_preset_modes.c **** 				VL53L1_DEVICEMEASUREMENTMODE_TIMED;
1307:Drivers/BSP/Components/vl53l1cb/modules/vl53l1_api_preset_modes.c **** 	}
1308:Drivers/BSP/Components/vl53l1cb/modules/vl53l1_api_preset_modes.c **** 
1309:Drivers/BSP/Components/vl53l1cb/modules/vl53l1_api_preset_modes.c **** 	LOG_FUNCTION_END(status);
 2014              		.loc 1 1309 26 is_stmt 1 view .LVU901
1310:Drivers/BSP/Components/vl53l1cb/modules/vl53l1_api_preset_modes.c **** 
1311:Drivers/BSP/Components/vl53l1cb/modules/vl53l1_api_preset_modes.c **** 	return status;
 2015              		.loc 1 1311 2 view .LVU902
1312:Drivers/BSP/Components/vl53l1cb/modules/vl53l1_api_preset_modes.c **** }
 2016              		.loc 1 1312 1 is_stmt 0 view .LVU903
 2017 0042 04B0     		add	sp, sp, #16
 2018              		.cfi_def_cfa_offset 24
 2019              		@ sp needed
 2020 0044 BDE8F081 		pop	{r4, r5, r6, r7, r8, pc}
 2021              		.loc 1 1312 1 view .LVU904
 2022              		.cfi_endproc
 2023              	.LFE19:
 2025              		.section	.text.VL53L1_preset_mode_timed_ranging_long_range,"ax",%progbits
 2026              		.align	1
 2027              		.global	VL53L1_preset_mode_timed_ranging_long_range
 2028              		.syntax unified
 2029              		.thumb
 2030              		.thumb_func
 2032              	VL53L1_preset_mode_timed_ranging_long_range:
 2033              	.LVL52:
 2034              	.LFB20:
1313:Drivers/BSP/Components/vl53l1cb/modules/vl53l1_api_preset_modes.c **** 
1314:Drivers/BSP/Components/vl53l1cb/modules/vl53l1_api_preset_modes.c **** VL53L1_Error VL53L1_preset_mode_timed_ranging_long_range(
1315:Drivers/BSP/Components/vl53l1cb/modules/vl53l1_api_preset_modes.c **** 
1316:Drivers/BSP/Components/vl53l1cb/modules/vl53l1_api_preset_modes.c **** 	VL53L1_static_config_t    *pstatic,
1317:Drivers/BSP/Components/vl53l1cb/modules/vl53l1_api_preset_modes.c **** 	VL53L1_histogram_config_t *phistogram,
1318:Drivers/BSP/Components/vl53l1cb/modules/vl53l1_api_preset_modes.c **** 	VL53L1_general_config_t   *pgeneral,
1319:Drivers/BSP/Components/vl53l1cb/modules/vl53l1_api_preset_modes.c **** 	VL53L1_timing_config_t    *ptiming,
1320:Drivers/BSP/Components/vl53l1cb/modules/vl53l1_api_preset_modes.c **** 	VL53L1_dynamic_config_t   *pdynamic,
1321:Drivers/BSP/Components/vl53l1cb/modules/vl53l1_api_preset_modes.c **** 	VL53L1_system_control_t   *psystem,
1322:Drivers/BSP/Components/vl53l1cb/modules/vl53l1_api_preset_modes.c **** 	VL53L1_tuning_parm_storage_t *ptuning_parms,
1323:Drivers/BSP/Components/vl53l1cb/modules/vl53l1_api_preset_modes.c **** 	VL53L1_zone_config_t      *pzone_cfg)
1324:Drivers/BSP/Components/vl53l1cb/modules/vl53l1_api_preset_modes.c **** {
 2035              		.loc 1 1324 1 is_stmt 1 view -0
 2036              		.cfi_startproc
 2037              		@ args = 16, pretend = 0, frame = 0
 2038              		@ frame_needed = 0, uses_anonymous_args = 0
 2039              		.loc 1 1324 1 is_stmt 0 view .LVU906
ARM GAS  C:\Temp\ccoVwn9Y.s 			page 60


 2040 0000 2DE9F041 		push	{r4, r5, r6, r7, r8, lr}
 2041              		.cfi_def_cfa_offset 24
 2042              		.cfi_offset 4, -24
 2043              		.cfi_offset 5, -20
 2044              		.cfi_offset 6, -16
 2045              		.cfi_offset 7, -12
 2046              		.cfi_offset 8, -8
 2047              		.cfi_offset 14, -4
 2048 0004 84B0     		sub	sp, sp, #16
 2049              		.cfi_def_cfa_offset 40
 2050 0006 1C46     		mov	r4, r3
 2051 0008 0A9E     		ldr	r6, [sp, #40]
 2052 000a 0B9F     		ldr	r7, [sp, #44]
 2053 000c DDF83080 		ldr	r8, [sp, #48]
1325:Drivers/BSP/Components/vl53l1cb/modules/vl53l1_api_preset_modes.c **** 
1326:Drivers/BSP/Components/vl53l1cb/modules/vl53l1_api_preset_modes.c **** 
1327:Drivers/BSP/Components/vl53l1cb/modules/vl53l1_api_preset_modes.c **** 	VL53L1_Error  status = VL53L1_ERROR_NONE;
 2054              		.loc 1 1327 2 is_stmt 1 view .LVU907
 2055              	.LVL53:
1328:Drivers/BSP/Components/vl53l1cb/modules/vl53l1_api_preset_modes.c **** 
1329:Drivers/BSP/Components/vl53l1cb/modules/vl53l1_api_preset_modes.c **** 	LOG_FUNCTION_START("");
 2056              		.loc 1 1329 24 view .LVU908
1330:Drivers/BSP/Components/vl53l1cb/modules/vl53l1_api_preset_modes.c **** 
1331:Drivers/BSP/Components/vl53l1cb/modules/vl53l1_api_preset_modes.c **** 
1332:Drivers/BSP/Components/vl53l1cb/modules/vl53l1_api_preset_modes.c **** 
1333:Drivers/BSP/Components/vl53l1cb/modules/vl53l1_api_preset_modes.c **** 	status = VL53L1_preset_mode_standard_ranging_long_range(
 2057              		.loc 1 1333 2 view .LVU909
 2058              		.loc 1 1333 11 is_stmt 0 view .LVU910
 2059 0010 0D9D     		ldr	r5, [sp, #52]
 2060 0012 0395     		str	r5, [sp, #12]
 2061 0014 CDF80880 		str	r8, [sp, #8]
 2062 0018 0197     		str	r7, [sp, #4]
 2063 001a 0096     		str	r6, [sp]
 2064 001c FFF7FEFF 		bl	VL53L1_preset_mode_standard_ranging_long_range
 2065              	.LVL54:
1334:Drivers/BSP/Components/vl53l1cb/modules/vl53l1_api_preset_modes.c **** 					pstatic,
1335:Drivers/BSP/Components/vl53l1cb/modules/vl53l1_api_preset_modes.c **** 					phistogram,
1336:Drivers/BSP/Components/vl53l1cb/modules/vl53l1_api_preset_modes.c **** 					pgeneral,
1337:Drivers/BSP/Components/vl53l1cb/modules/vl53l1_api_preset_modes.c **** 					ptiming,
1338:Drivers/BSP/Components/vl53l1cb/modules/vl53l1_api_preset_modes.c **** 					pdynamic,
1339:Drivers/BSP/Components/vl53l1cb/modules/vl53l1_api_preset_modes.c **** 					psystem,
1340:Drivers/BSP/Components/vl53l1cb/modules/vl53l1_api_preset_modes.c **** 					ptuning_parms,
1341:Drivers/BSP/Components/vl53l1cb/modules/vl53l1_api_preset_modes.c **** 					pzone_cfg);
1342:Drivers/BSP/Components/vl53l1cb/modules/vl53l1_api_preset_modes.c **** 
1343:Drivers/BSP/Components/vl53l1cb/modules/vl53l1_api_preset_modes.c **** 
1344:Drivers/BSP/Components/vl53l1cb/modules/vl53l1_api_preset_modes.c **** 
1345:Drivers/BSP/Components/vl53l1cb/modules/vl53l1_api_preset_modes.c **** 	if (status == VL53L1_ERROR_NONE) {
 2066              		.loc 1 1345 2 is_stmt 1 view .LVU911
 2067              		.loc 1 1345 5 is_stmt 0 view .LVU912
 2068 0020 70B9     		cbnz	r0, .L40
1346:Drivers/BSP/Components/vl53l1cb/modules/vl53l1_api_preset_modes.c **** 
1347:Drivers/BSP/Components/vl53l1cb/modules/vl53l1_api_preset_modes.c **** 
1348:Drivers/BSP/Components/vl53l1cb/modules/vl53l1_api_preset_modes.c **** 
1349:Drivers/BSP/Components/vl53l1cb/modules/vl53l1_api_preset_modes.c **** 
1350:Drivers/BSP/Components/vl53l1cb/modules/vl53l1_api_preset_modes.c **** 		pdynamic->system__grouped_parameter_hold = 0x00;
 2069              		.loc 1 1350 3 is_stmt 1 view .LVU913
 2070              		.loc 1 1350 44 is_stmt 0 view .LVU914
ARM GAS  C:\Temp\ccoVwn9Y.s 			page 61


 2071 0022 B074     		strb	r0, [r6, #18]
1351:Drivers/BSP/Components/vl53l1cb/modules/vl53l1_api_preset_modes.c **** 
1352:Drivers/BSP/Components/vl53l1cb/modules/vl53l1_api_preset_modes.c **** 
1353:Drivers/BSP/Components/vl53l1cb/modules/vl53l1_api_preset_modes.c **** 
1354:Drivers/BSP/Components/vl53l1cb/modules/vl53l1_api_preset_modes.c **** 
1355:Drivers/BSP/Components/vl53l1cb/modules/vl53l1_api_preset_modes.c **** 
1356:Drivers/BSP/Components/vl53l1cb/modules/vl53l1_api_preset_modes.c **** 		ptiming->range_config__timeout_macrop_a_hi = 0x00;
 2072              		.loc 1 1356 3 is_stmt 1 view .LVU915
 2073              		.loc 1 1356 46 is_stmt 0 view .LVU916
 2074 0024 2071     		strb	r0, [r4, #4]
1357:Drivers/BSP/Components/vl53l1cb/modules/vl53l1_api_preset_modes.c **** 		ptiming->range_config__timeout_macrop_a_lo = 0x97;
 2075              		.loc 1 1357 3 is_stmt 1 view .LVU917
 2076              		.loc 1 1357 46 is_stmt 0 view .LVU918
 2077 0026 9722     		movs	r2, #151
 2078 0028 6271     		strb	r2, [r4, #5]
1358:Drivers/BSP/Components/vl53l1cb/modules/vl53l1_api_preset_modes.c **** 
1359:Drivers/BSP/Components/vl53l1cb/modules/vl53l1_api_preset_modes.c **** 		ptiming->range_config__timeout_macrop_b_hi = 0x00;
 2079              		.loc 1 1359 3 is_stmt 1 view .LVU919
 2080              		.loc 1 1359 46 is_stmt 0 view .LVU920
 2081 002a E071     		strb	r0, [r4, #7]
1360:Drivers/BSP/Components/vl53l1cb/modules/vl53l1_api_preset_modes.c **** 		ptiming->range_config__timeout_macrop_b_lo = 0xB1;
 2082              		.loc 1 1360 3 is_stmt 1 view .LVU921
 2083              		.loc 1 1360 46 is_stmt 0 view .LVU922
 2084 002c B123     		movs	r3, #177
 2085 002e 2372     		strb	r3, [r4, #8]
1361:Drivers/BSP/Components/vl53l1cb/modules/vl53l1_api_preset_modes.c **** 
1362:Drivers/BSP/Components/vl53l1cb/modules/vl53l1_api_preset_modes.c **** 		ptiming->system__intermeasurement_period = 0x00000600;
 2086              		.loc 1 1362 3 is_stmt 1 view .LVU923
 2087              		.loc 1 1362 44 is_stmt 0 view .LVU924
 2088 0030 4FF4C063 		mov	r3, #1536
 2089 0034 2361     		str	r3, [r4, #16]
1363:Drivers/BSP/Components/vl53l1cb/modules/vl53l1_api_preset_modes.c **** 		pdynamic->system__seed_config =
 2090              		.loc 1 1363 3 is_stmt 1 view .LVU925
1364:Drivers/BSP/Components/vl53l1cb/modules/vl53l1_api_preset_modes.c **** 				ptuning_parms->tp_timed_seed_cfg;
 2091              		.loc 1 1364 18 is_stmt 0 view .LVU926
 2092 0036 98F82830 		ldrb	r3, [r8, #40]	@ zero_extendqisi2
1363:Drivers/BSP/Components/vl53l1cb/modules/vl53l1_api_preset_modes.c **** 		pdynamic->system__seed_config =
 2093              		.loc 1 1363 33 view .LVU927
 2094 003a F371     		strb	r3, [r6, #7]
1365:Drivers/BSP/Components/vl53l1cb/modules/vl53l1_api_preset_modes.c **** 
1366:Drivers/BSP/Components/vl53l1cb/modules/vl53l1_api_preset_modes.c **** 
1367:Drivers/BSP/Components/vl53l1cb/modules/vl53l1_api_preset_modes.c **** 
1368:Drivers/BSP/Components/vl53l1cb/modules/vl53l1_api_preset_modes.c **** 
1369:Drivers/BSP/Components/vl53l1cb/modules/vl53l1_api_preset_modes.c **** 		psystem->system__mode_start =
 2095              		.loc 1 1369 3 is_stmt 1 view .LVU928
 2096              		.loc 1 1369 31 is_stmt 0 view .LVU929
 2097 003c 4023     		movs	r3, #64
 2098 003e 3B71     		strb	r3, [r7, #4]
 2099              	.L40:
1370:Drivers/BSP/Components/vl53l1cb/modules/vl53l1_api_preset_modes.c **** 				VL53L1_DEVICESCHEDULERMODE_PSEUDO_SOLO |
1371:Drivers/BSP/Components/vl53l1cb/modules/vl53l1_api_preset_modes.c **** 				VL53L1_DEVICEREADOUTMODE_SINGLE_SD     |
1372:Drivers/BSP/Components/vl53l1cb/modules/vl53l1_api_preset_modes.c **** 				VL53L1_DEVICEMEASUREMENTMODE_TIMED;
1373:Drivers/BSP/Components/vl53l1cb/modules/vl53l1_api_preset_modes.c **** 	}
1374:Drivers/BSP/Components/vl53l1cb/modules/vl53l1_api_preset_modes.c **** 
1375:Drivers/BSP/Components/vl53l1cb/modules/vl53l1_api_preset_modes.c **** 	LOG_FUNCTION_END(status);
 2100              		.loc 1 1375 26 is_stmt 1 view .LVU930
1376:Drivers/BSP/Components/vl53l1cb/modules/vl53l1_api_preset_modes.c **** 
ARM GAS  C:\Temp\ccoVwn9Y.s 			page 62


1377:Drivers/BSP/Components/vl53l1cb/modules/vl53l1_api_preset_modes.c **** 	return status;
 2101              		.loc 1 1377 2 view .LVU931
1378:Drivers/BSP/Components/vl53l1cb/modules/vl53l1_api_preset_modes.c **** }
 2102              		.loc 1 1378 1 is_stmt 0 view .LVU932
 2103 0040 04B0     		add	sp, sp, #16
 2104              		.cfi_def_cfa_offset 24
 2105              		@ sp needed
 2106 0042 BDE8F081 		pop	{r4, r5, r6, r7, r8, pc}
 2107              		.loc 1 1378 1 view .LVU933
 2108              		.cfi_endproc
 2109              	.LFE20:
 2111              		.section	.text.VL53L1_preset_mode_low_power_auto_ranging,"ax",%progbits
 2112              		.align	1
