ARM GAS  C:\Temp\ccKRfCgt.s 			page 1


   1              		.cpu cortex-m4
   2              		.arch armv7e-m
   3              		.fpu fpv4-sp-d16
   4              		.eabi_attribute 27, 1
   5              		.eabi_attribute 28, 1
   6              		.eabi_attribute 20, 1
   7              		.eabi_attribute 21, 1
   8              		.eabi_attribute 23, 3
   9              		.eabi_attribute 24, 1
  10              		.eabi_attribute 25, 1
  11              		.eabi_attribute 26, 1
  12              		.eabi_attribute 30, 1
  13              		.eabi_attribute 34, 1
  14              		.eabi_attribute 18, 4
  15              		.file	"vl53l1_nvm.c"
  16              		.text
  17              	.Ltext0:
  18              		.cfi_sections	.debug_frame
  19              		.file 1 "Drivers/BSP/Components/vl53l1cb/modules/vl53l1_nvm.c"
  20              		.section	.text.VL53L1_nvm_enable,"ax",%progbits
  21              		.align	1
  22              		.global	VL53L1_nvm_enable
  23              		.syntax unified
  24              		.thumb
  25              		.thumb_func
  27              	VL53L1_nvm_enable:
  28              	.LVL0:
  29              	.LFB3:
   1:Drivers/BSP/Components/vl53l1cb/modules/vl53l1_nvm.c **** /**
   2:Drivers/BSP/Components/vl53l1cb/modules/vl53l1_nvm.c ****  ******************************************************************************
   3:Drivers/BSP/Components/vl53l1cb/modules/vl53l1_nvm.c ****  * Copyright (c) 2020, STMicroelectronics - All Rights Reserved
   4:Drivers/BSP/Components/vl53l1cb/modules/vl53l1_nvm.c ****  *
   5:Drivers/BSP/Components/vl53l1cb/modules/vl53l1_nvm.c ****  * This software is licensed under terms that can be found in the LICENSE file
   6:Drivers/BSP/Components/vl53l1cb/modules/vl53l1_nvm.c ****  * in the root directory of this software component.
   7:Drivers/BSP/Components/vl53l1cb/modules/vl53l1_nvm.c ****  * If no LICENSE file comes with this software, it is provided AS-IS.
   8:Drivers/BSP/Components/vl53l1cb/modules/vl53l1_nvm.c ****  *
   9:Drivers/BSP/Components/vl53l1cb/modules/vl53l1_nvm.c ****  ******************************************************************************
  10:Drivers/BSP/Components/vl53l1cb/modules/vl53l1_nvm.c ****  */
  11:Drivers/BSP/Components/vl53l1cb/modules/vl53l1_nvm.c **** 
  12:Drivers/BSP/Components/vl53l1cb/modules/vl53l1_nvm.c **** 
  13:Drivers/BSP/Components/vl53l1cb/modules/vl53l1_nvm.c **** 
  14:Drivers/BSP/Components/vl53l1cb/modules/vl53l1_nvm.c **** 
  15:Drivers/BSP/Components/vl53l1cb/modules/vl53l1_nvm.c **** 
  16:Drivers/BSP/Components/vl53l1cb/modules/vl53l1_nvm.c **** #ifdef _MSC_VER
  17:Drivers/BSP/Components/vl53l1cb/modules/vl53l1_nvm.c **** #define snprintf _snprintf
  18:Drivers/BSP/Components/vl53l1cb/modules/vl53l1_nvm.c **** #endif
  19:Drivers/BSP/Components/vl53l1cb/modules/vl53l1_nvm.c **** 
  20:Drivers/BSP/Components/vl53l1cb/modules/vl53l1_nvm.c **** 
  21:Drivers/BSP/Components/vl53l1cb/modules/vl53l1_nvm.c **** 
  22:Drivers/BSP/Components/vl53l1cb/modules/vl53l1_nvm.c **** #include "vl53l1_ll_def.h"
  23:Drivers/BSP/Components/vl53l1cb/modules/vl53l1_nvm.c **** #include "vl53l1_platform.h"
  24:Drivers/BSP/Components/vl53l1cb/modules/vl53l1_nvm.c **** #include "vl53l1_platform_log.h"
  25:Drivers/BSP/Components/vl53l1cb/modules/vl53l1_nvm.c **** #include "vl53l1_register_map.h"
  26:Drivers/BSP/Components/vl53l1cb/modules/vl53l1_nvm.c **** #include "vl53l1_core.h"
  27:Drivers/BSP/Components/vl53l1cb/modules/vl53l1_nvm.c **** #include "vl53l1_nvm_structs.h"
  28:Drivers/BSP/Components/vl53l1cb/modules/vl53l1_nvm.c **** #include "vl53l1_nvm_map.h"
  29:Drivers/BSP/Components/vl53l1cb/modules/vl53l1_nvm.c **** #include "vl53l1_nvm.h"
ARM GAS  C:\Temp\ccKRfCgt.s 			page 2


  30:Drivers/BSP/Components/vl53l1cb/modules/vl53l1_nvm.c **** 
  31:Drivers/BSP/Components/vl53l1cb/modules/vl53l1_nvm.c **** 
  32:Drivers/BSP/Components/vl53l1cb/modules/vl53l1_nvm.c **** 
  33:Drivers/BSP/Components/vl53l1cb/modules/vl53l1_nvm.c **** #define LOG_FUNCTION_START(fmt, ...) \
  34:Drivers/BSP/Components/vl53l1cb/modules/vl53l1_nvm.c **** 	_LOG_FUNCTION_START(VL53L1_TRACE_MODULE_NVM, fmt, ##__VA_ARGS__)
  35:Drivers/BSP/Components/vl53l1cb/modules/vl53l1_nvm.c **** #define LOG_FUNCTION_END(status, ...) \
  36:Drivers/BSP/Components/vl53l1cb/modules/vl53l1_nvm.c **** 	_LOG_FUNCTION_END(VL53L1_TRACE_MODULE_NVM, status, ##__VA_ARGS__)
  37:Drivers/BSP/Components/vl53l1cb/modules/vl53l1_nvm.c **** #define LOG_FUNCTION_END_FMT(status, fmt, ...) \
  38:Drivers/BSP/Components/vl53l1cb/modules/vl53l1_nvm.c **** 	_LOG_FUNCTION_END_FMT(VL53L1_TRACE_MODULE_NVM,\
  39:Drivers/BSP/Components/vl53l1cb/modules/vl53l1_nvm.c **** 		status, fmt, ##__VA_ARGS__)
  40:Drivers/BSP/Components/vl53l1cb/modules/vl53l1_nvm.c **** 
  41:Drivers/BSP/Components/vl53l1cb/modules/vl53l1_nvm.c **** #define trace_print(level, ...) \
  42:Drivers/BSP/Components/vl53l1cb/modules/vl53l1_nvm.c **** 	_LOG_TRACE_PRINT(VL53L1_TRACE_MODULE_NVM, \
  43:Drivers/BSP/Components/vl53l1cb/modules/vl53l1_nvm.c **** 	level, VL53L1_TRACE_FUNCTION_NONE, ##__VA_ARGS__)
  44:Drivers/BSP/Components/vl53l1cb/modules/vl53l1_nvm.c **** 
  45:Drivers/BSP/Components/vl53l1cb/modules/vl53l1_nvm.c **** 
  46:Drivers/BSP/Components/vl53l1cb/modules/vl53l1_nvm.c **** VL53L1_Error VL53L1_nvm_enable(
  47:Drivers/BSP/Components/vl53l1cb/modules/vl53l1_nvm.c **** 	VL53L1_DEV      Dev,
  48:Drivers/BSP/Components/vl53l1cb/modules/vl53l1_nvm.c **** 	uint16_t        nvm_ctrl_pulse_width,
  49:Drivers/BSP/Components/vl53l1cb/modules/vl53l1_nvm.c **** 	int32_t         nvm_power_up_delay_us)
  50:Drivers/BSP/Components/vl53l1cb/modules/vl53l1_nvm.c **** {
  30              		.loc 1 50 1 view -0
  31              		.cfi_startproc
  32              		@ args = 0, pretend = 0, frame = 0
  33              		@ frame_needed = 0, uses_anonymous_args = 0
  34              		.loc 1 50 1 is_stmt 0 view .LVU1
  35 0000 70B5     		push	{r4, r5, r6, lr}
  36              		.cfi_def_cfa_offset 16
  37              		.cfi_offset 4, -16
  38              		.cfi_offset 5, -12
  39              		.cfi_offset 6, -8
  40              		.cfi_offset 14, -4
  41 0002 0646     		mov	r6, r0
  42 0004 0D46     		mov	r5, r1
  43 0006 1446     		mov	r4, r2
  51:Drivers/BSP/Components/vl53l1cb/modules/vl53l1_nvm.c **** 
  52:Drivers/BSP/Components/vl53l1cb/modules/vl53l1_nvm.c **** 
  53:Drivers/BSP/Components/vl53l1cb/modules/vl53l1_nvm.c **** 	VL53L1_Error status = VL53L1_ERROR_NONE;
  44              		.loc 1 53 2 is_stmt 1 view .LVU2
  45              	.LVL1:
  54:Drivers/BSP/Components/vl53l1cb/modules/vl53l1_nvm.c **** 
  55:Drivers/BSP/Components/vl53l1cb/modules/vl53l1_nvm.c **** 	LOG_FUNCTION_START("");
  46              		.loc 1 55 24 view .LVU3
  56:Drivers/BSP/Components/vl53l1cb/modules/vl53l1_nvm.c **** 
  57:Drivers/BSP/Components/vl53l1cb/modules/vl53l1_nvm.c **** 
  58:Drivers/BSP/Components/vl53l1cb/modules/vl53l1_nvm.c **** 
  59:Drivers/BSP/Components/vl53l1cb/modules/vl53l1_nvm.c **** 
  60:Drivers/BSP/Components/vl53l1cb/modules/vl53l1_nvm.c **** 	if (status == VL53L1_ERROR_NONE)
  47              		.loc 1 60 2 view .LVU4
  61:Drivers/BSP/Components/vl53l1cb/modules/vl53l1_nvm.c **** 		status = VL53L1_disable_firmware(Dev);
  48              		.loc 1 61 3 view .LVU5
  49              		.loc 1 61 12 is_stmt 0 view .LVU6
  50 0008 FFF7FEFF 		bl	VL53L1_disable_firmware
  51              	.LVL2:
  62:Drivers/BSP/Components/vl53l1cb/modules/vl53l1_nvm.c **** 
  63:Drivers/BSP/Components/vl53l1cb/modules/vl53l1_nvm.c **** 
  64:Drivers/BSP/Components/vl53l1cb/modules/vl53l1_nvm.c **** 
ARM GAS  C:\Temp\ccKRfCgt.s 			page 3


  65:Drivers/BSP/Components/vl53l1cb/modules/vl53l1_nvm.c **** 
  66:Drivers/BSP/Components/vl53l1cb/modules/vl53l1_nvm.c **** 	if (status == VL53L1_ERROR_NONE)
  52              		.loc 1 66 2 is_stmt 1 view .LVU7
  53              		.loc 1 66 5 is_stmt 0 view .LVU8
  54 000c 0346     		mov	r3, r0
  55 000e 10B1     		cbz	r0, .L5
  56              	.LVL3:
  57              	.L2:
  67:Drivers/BSP/Components/vl53l1cb/modules/vl53l1_nvm.c **** 		status = VL53L1_enable_powerforce(Dev);
  68:Drivers/BSP/Components/vl53l1cb/modules/vl53l1_nvm.c **** 
  69:Drivers/BSP/Components/vl53l1cb/modules/vl53l1_nvm.c **** 
  70:Drivers/BSP/Components/vl53l1cb/modules/vl53l1_nvm.c **** 
  71:Drivers/BSP/Components/vl53l1cb/modules/vl53l1_nvm.c **** 	if (status == VL53L1_ERROR_NONE)
  72:Drivers/BSP/Components/vl53l1cb/modules/vl53l1_nvm.c **** 		status = VL53L1_WaitUs(
  73:Drivers/BSP/Components/vl53l1cb/modules/vl53l1_nvm.c **** 			Dev,
  74:Drivers/BSP/Components/vl53l1cb/modules/vl53l1_nvm.c **** 			VL53L1_ENABLE_POWERFORCE_SETTLING_TIME_US);
  75:Drivers/BSP/Components/vl53l1cb/modules/vl53l1_nvm.c **** 
  76:Drivers/BSP/Components/vl53l1cb/modules/vl53l1_nvm.c **** 
  77:Drivers/BSP/Components/vl53l1cb/modules/vl53l1_nvm.c **** 
  78:Drivers/BSP/Components/vl53l1cb/modules/vl53l1_nvm.c **** 	if (status == VL53L1_ERROR_NONE)
  58              		.loc 1 78 2 is_stmt 1 view .LVU9
  59              		.loc 1 78 5 is_stmt 0 view .LVU10
  60 0010 6BB1     		cbz	r3, .L6
  61              	.LVL4:
  62              	.L3:
  79:Drivers/BSP/Components/vl53l1cb/modules/vl53l1_nvm.c **** 		status = VL53L1_WrByte(
  80:Drivers/BSP/Components/vl53l1cb/modules/vl53l1_nvm.c **** 					Dev,
  81:Drivers/BSP/Components/vl53l1cb/modules/vl53l1_nvm.c **** 					VL53L1_RANGING_CORE__NVM_CTRL__PDN,
  82:Drivers/BSP/Components/vl53l1cb/modules/vl53l1_nvm.c **** 					0x01);
  83:Drivers/BSP/Components/vl53l1cb/modules/vl53l1_nvm.c **** 
  84:Drivers/BSP/Components/vl53l1cb/modules/vl53l1_nvm.c **** 
  85:Drivers/BSP/Components/vl53l1cb/modules/vl53l1_nvm.c **** 
  86:Drivers/BSP/Components/vl53l1cb/modules/vl53l1_nvm.c **** 	if (status == VL53L1_ERROR_NONE)
  87:Drivers/BSP/Components/vl53l1cb/modules/vl53l1_nvm.c **** 		status = VL53L1_WrByte(
  88:Drivers/BSP/Components/vl53l1cb/modules/vl53l1_nvm.c **** 					Dev,
  89:Drivers/BSP/Components/vl53l1cb/modules/vl53l1_nvm.c **** 					VL53L1_RANGING_CORE__CLK_CTRL1,
  90:Drivers/BSP/Components/vl53l1cb/modules/vl53l1_nvm.c **** 					0x05);
  91:Drivers/BSP/Components/vl53l1cb/modules/vl53l1_nvm.c **** 
  92:Drivers/BSP/Components/vl53l1cb/modules/vl53l1_nvm.c **** 
  93:Drivers/BSP/Components/vl53l1cb/modules/vl53l1_nvm.c **** 
  94:Drivers/BSP/Components/vl53l1cb/modules/vl53l1_nvm.c **** 	if (status == VL53L1_ERROR_NONE)
  95:Drivers/BSP/Components/vl53l1cb/modules/vl53l1_nvm.c **** 		status = VL53L1_WaitUs(
  96:Drivers/BSP/Components/vl53l1cb/modules/vl53l1_nvm.c **** 					Dev,
  97:Drivers/BSP/Components/vl53l1cb/modules/vl53l1_nvm.c **** 					nvm_power_up_delay_us);
  98:Drivers/BSP/Components/vl53l1cb/modules/vl53l1_nvm.c **** 
  99:Drivers/BSP/Components/vl53l1cb/modules/vl53l1_nvm.c **** 
 100:Drivers/BSP/Components/vl53l1cb/modules/vl53l1_nvm.c **** 
 101:Drivers/BSP/Components/vl53l1cb/modules/vl53l1_nvm.c **** 	if (status == VL53L1_ERROR_NONE)
 102:Drivers/BSP/Components/vl53l1cb/modules/vl53l1_nvm.c **** 		status = VL53L1_WrByte(
 103:Drivers/BSP/Components/vl53l1cb/modules/vl53l1_nvm.c **** 					Dev,
 104:Drivers/BSP/Components/vl53l1cb/modules/vl53l1_nvm.c **** 					VL53L1_RANGING_CORE__NVM_CTRL__MODE,
 105:Drivers/BSP/Components/vl53l1cb/modules/vl53l1_nvm.c **** 					0x01);
 106:Drivers/BSP/Components/vl53l1cb/modules/vl53l1_nvm.c **** 
 107:Drivers/BSP/Components/vl53l1cb/modules/vl53l1_nvm.c **** 	if (status == VL53L1_ERROR_NONE)
 108:Drivers/BSP/Components/vl53l1cb/modules/vl53l1_nvm.c **** 		status = VL53L1_WrWord(
 109:Drivers/BSP/Components/vl53l1cb/modules/vl53l1_nvm.c **** 			Dev,
 110:Drivers/BSP/Components/vl53l1cb/modules/vl53l1_nvm.c **** 			VL53L1_RANGING_CORE__NVM_CTRL__PULSE_WIDTH_MSB,
ARM GAS  C:\Temp\ccKRfCgt.s 			page 4


 111:Drivers/BSP/Components/vl53l1cb/modules/vl53l1_nvm.c **** 			nvm_ctrl_pulse_width);
 112:Drivers/BSP/Components/vl53l1cb/modules/vl53l1_nvm.c **** 
 113:Drivers/BSP/Components/vl53l1cb/modules/vl53l1_nvm.c **** 	LOG_FUNCTION_END(status);
  63              		.loc 1 113 26 is_stmt 1 view .LVU11
 114:Drivers/BSP/Components/vl53l1cb/modules/vl53l1_nvm.c **** 
 115:Drivers/BSP/Components/vl53l1cb/modules/vl53l1_nvm.c **** 	return status;
  64              		.loc 1 115 2 view .LVU12
 116:Drivers/BSP/Components/vl53l1cb/modules/vl53l1_nvm.c **** 
 117:Drivers/BSP/Components/vl53l1cb/modules/vl53l1_nvm.c **** }
  65              		.loc 1 117 1 is_stmt 0 view .LVU13
  66 0012 1846     		mov	r0, r3
  67 0014 70BD     		pop	{r4, r5, r6, pc}
  68              	.LVL5:
  69              	.L5:
  67:Drivers/BSP/Components/vl53l1cb/modules/vl53l1_nvm.c **** 
  70              		.loc 1 67 3 is_stmt 1 view .LVU14
  67:Drivers/BSP/Components/vl53l1cb/modules/vl53l1_nvm.c **** 
  71              		.loc 1 67 12 is_stmt 0 view .LVU15
  72 0016 3046     		mov	r0, r6
  73              	.LVL6:
  67:Drivers/BSP/Components/vl53l1cb/modules/vl53l1_nvm.c **** 
  74              		.loc 1 67 12 view .LVU16
  75 0018 FFF7FEFF 		bl	VL53L1_enable_powerforce
  76              	.LVL7:
  71:Drivers/BSP/Components/vl53l1cb/modules/vl53l1_nvm.c **** 		status = VL53L1_WaitUs(
  77              		.loc 1 71 2 is_stmt 1 view .LVU17
  71:Drivers/BSP/Components/vl53l1cb/modules/vl53l1_nvm.c **** 		status = VL53L1_WaitUs(
  78              		.loc 1 71 5 is_stmt 0 view .LVU18
  79 001c 0346     		mov	r3, r0
  80 001e 0028     		cmp	r0, #0
  81 0020 F7D1     		bne	.L3
  72:Drivers/BSP/Components/vl53l1cb/modules/vl53l1_nvm.c **** 			Dev,
  82              		.loc 1 72 3 is_stmt 1 view .LVU19
  72:Drivers/BSP/Components/vl53l1cb/modules/vl53l1_nvm.c **** 			Dev,
  83              		.loc 1 72 12 is_stmt 0 view .LVU20
  84 0022 FA21     		movs	r1, #250
  85 0024 3046     		mov	r0, r6
  86              	.LVL8:
  72:Drivers/BSP/Components/vl53l1cb/modules/vl53l1_nvm.c **** 			Dev,
  87              		.loc 1 72 12 view .LVU21
  88 0026 FFF7FEFF 		bl	VL53L1_WaitUs
  89              	.LVL9:
  90 002a 0346     		mov	r3, r0
  91              	.LVL10:
  72:Drivers/BSP/Components/vl53l1cb/modules/vl53l1_nvm.c **** 			Dev,
  92              		.loc 1 72 12 view .LVU22
  93 002c F0E7     		b	.L2
  94              	.L6:
  79:Drivers/BSP/Components/vl53l1cb/modules/vl53l1_nvm.c **** 					Dev,
  95              		.loc 1 79 3 is_stmt 1 view .LVU23
  79:Drivers/BSP/Components/vl53l1cb/modules/vl53l1_nvm.c **** 					Dev,
  96              		.loc 1 79 12 is_stmt 0 view .LVU24
  97 002e 0122     		movs	r2, #1
  98 0030 40F28171 		movw	r1, #1921
  99 0034 3046     		mov	r0, r6
 100 0036 FFF7FEFF 		bl	VL53L1_WrByte
 101              	.LVL11:
ARM GAS  C:\Temp\ccKRfCgt.s 			page 5


  86:Drivers/BSP/Components/vl53l1cb/modules/vl53l1_nvm.c **** 		status = VL53L1_WrByte(
 102              		.loc 1 86 2 is_stmt 1 view .LVU25
  86:Drivers/BSP/Components/vl53l1cb/modules/vl53l1_nvm.c **** 		status = VL53L1_WrByte(
 103              		.loc 1 86 5 is_stmt 0 view .LVU26
 104 003a 0346     		mov	r3, r0
 105 003c 0028     		cmp	r0, #0
 106 003e E8D1     		bne	.L3
  87:Drivers/BSP/Components/vl53l1cb/modules/vl53l1_nvm.c **** 					Dev,
 107              		.loc 1 87 3 is_stmt 1 view .LVU27
  87:Drivers/BSP/Components/vl53l1cb/modules/vl53l1_nvm.c **** 					Dev,
 108              		.loc 1 87 12 is_stmt 0 view .LVU28
 109 0040 0522     		movs	r2, #5
 110 0042 40F28361 		movw	r1, #1667
 111 0046 3046     		mov	r0, r6
 112              	.LVL12:
  87:Drivers/BSP/Components/vl53l1cb/modules/vl53l1_nvm.c **** 					Dev,
 113              		.loc 1 87 12 view .LVU29
 114 0048 FFF7FEFF 		bl	VL53L1_WrByte
 115              	.LVL13:
  94:Drivers/BSP/Components/vl53l1cb/modules/vl53l1_nvm.c **** 		status = VL53L1_WaitUs(
 116              		.loc 1 94 2 is_stmt 1 view .LVU30
  94:Drivers/BSP/Components/vl53l1cb/modules/vl53l1_nvm.c **** 		status = VL53L1_WaitUs(
 117              		.loc 1 94 5 is_stmt 0 view .LVU31
 118 004c 0346     		mov	r3, r0
 119 004e 0028     		cmp	r0, #0
 120 0050 DFD1     		bne	.L3
  95:Drivers/BSP/Components/vl53l1cb/modules/vl53l1_nvm.c **** 					Dev,
 121              		.loc 1 95 3 is_stmt 1 view .LVU32
  95:Drivers/BSP/Components/vl53l1cb/modules/vl53l1_nvm.c **** 					Dev,
 122              		.loc 1 95 12 is_stmt 0 view .LVU33
 123 0052 2146     		mov	r1, r4
 124 0054 3046     		mov	r0, r6
 125              	.LVL14:
  95:Drivers/BSP/Components/vl53l1cb/modules/vl53l1_nvm.c **** 					Dev,
 126              		.loc 1 95 12 view .LVU34
 127 0056 FFF7FEFF 		bl	VL53L1_WaitUs
 128              	.LVL15:
 101:Drivers/BSP/Components/vl53l1cb/modules/vl53l1_nvm.c **** 		status = VL53L1_WrByte(
 129              		.loc 1 101 2 is_stmt 1 view .LVU35
 101:Drivers/BSP/Components/vl53l1cb/modules/vl53l1_nvm.c **** 		status = VL53L1_WrByte(
 130              		.loc 1 101 5 is_stmt 0 view .LVU36
 131 005a 0346     		mov	r3, r0
 132 005c 0028     		cmp	r0, #0
 133 005e D8D1     		bne	.L3
 102:Drivers/BSP/Components/vl53l1cb/modules/vl53l1_nvm.c **** 					Dev,
 134              		.loc 1 102 3 is_stmt 1 view .LVU37
 102:Drivers/BSP/Components/vl53l1cb/modules/vl53l1_nvm.c **** 					Dev,
 135              		.loc 1 102 12 is_stmt 0 view .LVU38
 136 0060 0122     		movs	r2, #1
 137 0062 4FF4F061 		mov	r1, #1920
 138 0066 3046     		mov	r0, r6
 139              	.LVL16:
 102:Drivers/BSP/Components/vl53l1cb/modules/vl53l1_nvm.c **** 					Dev,
 140              		.loc 1 102 12 view .LVU39
 141 0068 FFF7FEFF 		bl	VL53L1_WrByte
 142              	.LVL17:
 107:Drivers/BSP/Components/vl53l1cb/modules/vl53l1_nvm.c **** 		status = VL53L1_WrWord(
ARM GAS  C:\Temp\ccKRfCgt.s 			page 6


 143              		.loc 1 107 2 is_stmt 1 view .LVU40
 107:Drivers/BSP/Components/vl53l1cb/modules/vl53l1_nvm.c **** 		status = VL53L1_WrWord(
 144              		.loc 1 107 5 is_stmt 0 view .LVU41
 145 006c 0346     		mov	r3, r0
 146 006e 0028     		cmp	r0, #0
 147 0070 CFD1     		bne	.L3
 108:Drivers/BSP/Components/vl53l1cb/modules/vl53l1_nvm.c **** 			Dev,
 148              		.loc 1 108 3 is_stmt 1 view .LVU42
 108:Drivers/BSP/Components/vl53l1cb/modules/vl53l1_nvm.c **** 			Dev,
 149              		.loc 1 108 12 is_stmt 0 view .LVU43
 150 0072 2A46     		mov	r2, r5
 151 0074 40F28471 		movw	r1, #1924
 152 0078 3046     		mov	r0, r6
 153              	.LVL18:
 108:Drivers/BSP/Components/vl53l1cb/modules/vl53l1_nvm.c **** 			Dev,
 154              		.loc 1 108 12 view .LVU44
 155 007a FFF7FEFF 		bl	VL53L1_WrWord
 156              	.LVL19:
 157 007e 0346     		mov	r3, r0
 158              	.LVL20:
 108:Drivers/BSP/Components/vl53l1cb/modules/vl53l1_nvm.c **** 			Dev,
 159              		.loc 1 108 12 view .LVU45
 160 0080 C7E7     		b	.L3
 161              		.cfi_endproc
 162              	.LFE3:
 164              		.section	.text.VL53L1_nvm_read,"ax",%progbits
 165              		.align	1
 166              		.global	VL53L1_nvm_read
 167              		.syntax unified
 168              		.thumb
 169              		.thumb_func
 171              	VL53L1_nvm_read:
 172              	.LVL21:
 173              	.LFB4:
 118:Drivers/BSP/Components/vl53l1cb/modules/vl53l1_nvm.c **** 
 119:Drivers/BSP/Components/vl53l1cb/modules/vl53l1_nvm.c **** 
 120:Drivers/BSP/Components/vl53l1cb/modules/vl53l1_nvm.c **** VL53L1_Error VL53L1_nvm_read(
 121:Drivers/BSP/Components/vl53l1cb/modules/vl53l1_nvm.c **** 	VL53L1_DEV    Dev,
 122:Drivers/BSP/Components/vl53l1cb/modules/vl53l1_nvm.c **** 	uint8_t       start_address,
 123:Drivers/BSP/Components/vl53l1cb/modules/vl53l1_nvm.c **** 	uint8_t       count,
 124:Drivers/BSP/Components/vl53l1cb/modules/vl53l1_nvm.c **** 	uint8_t      *pdata)
 125:Drivers/BSP/Components/vl53l1cb/modules/vl53l1_nvm.c **** {
 174              		.loc 1 125 1 is_stmt 1 view -0
 175              		.cfi_startproc
 176              		@ args = 0, pretend = 0, frame = 0
 177              		@ frame_needed = 0, uses_anonymous_args = 0
 178              		.loc 1 125 1 is_stmt 0 view .LVU47
 179 0000 2DE9F843 		push	{r3, r4, r5, r6, r7, r8, r9, lr}
 180              		.cfi_def_cfa_offset 32
 181              		.cfi_offset 3, -32
 182              		.cfi_offset 4, -28
 183              		.cfi_offset 5, -24
 184              		.cfi_offset 6, -20
 185              		.cfi_offset 7, -16
 186              		.cfi_offset 8, -12
 187              		.cfi_offset 9, -8
 188              		.cfi_offset 14, -4
ARM GAS  C:\Temp\ccKRfCgt.s 			page 7


 189 0004 8146     		mov	r9, r0
 190 0006 0F46     		mov	r7, r1
 191 0008 9046     		mov	r8, r2
 192 000a 1E46     		mov	r6, r3
 126:Drivers/BSP/Components/vl53l1cb/modules/vl53l1_nvm.c **** 
 127:Drivers/BSP/Components/vl53l1cb/modules/vl53l1_nvm.c **** 
 128:Drivers/BSP/Components/vl53l1cb/modules/vl53l1_nvm.c **** 	VL53L1_Error status   = VL53L1_ERROR_NONE;
 193              		.loc 1 128 2 is_stmt 1 view .LVU48
 194              	.LVL22:
 129:Drivers/BSP/Components/vl53l1cb/modules/vl53l1_nvm.c **** 	uint8_t      nvm_addr = 0;
 195              		.loc 1 129 2 view .LVU49
 130:Drivers/BSP/Components/vl53l1cb/modules/vl53l1_nvm.c **** 
 131:Drivers/BSP/Components/vl53l1cb/modules/vl53l1_nvm.c **** 	LOG_FUNCTION_START("");
 196              		.loc 1 131 24 view .LVU50
 132:Drivers/BSP/Components/vl53l1cb/modules/vl53l1_nvm.c **** 
 133:Drivers/BSP/Components/vl53l1cb/modules/vl53l1_nvm.c **** 	trace_print(
 134:Drivers/BSP/Components/vl53l1cb/modules/vl53l1_nvm.c **** 		   VL53L1_TRACE_LEVEL_INFO,
 135:Drivers/BSP/Components/vl53l1cb/modules/vl53l1_nvm.c **** 		   "%-12s = 0x%02X (%3u)\n",
 136:Drivers/BSP/Components/vl53l1cb/modules/vl53l1_nvm.c **** 		   "nvm_addr", nvm_addr, nvm_addr);
 197              		.loc 1 136 37 view .LVU51
 137:Drivers/BSP/Components/vl53l1cb/modules/vl53l1_nvm.c **** 
 138:Drivers/BSP/Components/vl53l1cb/modules/vl53l1_nvm.c **** 	trace_print(
 139:Drivers/BSP/Components/vl53l1cb/modules/vl53l1_nvm.c **** 		   VL53L1_TRACE_LEVEL_INFO,
 140:Drivers/BSP/Components/vl53l1cb/modules/vl53l1_nvm.c **** 		   "%-12s = 0x%02X (%3u)\n",
 141:Drivers/BSP/Components/vl53l1cb/modules/vl53l1_nvm.c **** 		   "count", count, count);
 198              		.loc 1 141 28 view .LVU52
 142:Drivers/BSP/Components/vl53l1cb/modules/vl53l1_nvm.c **** 
 143:Drivers/BSP/Components/vl53l1cb/modules/vl53l1_nvm.c **** 	for (nvm_addr = start_address;
 199              		.loc 1 143 2 view .LVU53
 200              		.loc 1 143 16 is_stmt 0 view .LVU54
 201 000c 0C46     		mov	r4, r1
 128:Drivers/BSP/Components/vl53l1cb/modules/vl53l1_nvm.c **** 	uint8_t      nvm_addr = 0;
 202              		.loc 1 128 15 view .LVU55
 203 000e 0025     		movs	r5, #0
 204              		.loc 1 143 2 view .LVU56
 205 0010 0AE0     		b	.L8
 206              	.LVL23:
 207              	.L15:
 144:Drivers/BSP/Components/vl53l1cb/modules/vl53l1_nvm.c **** 		nvm_addr < (start_address+count) ; nvm_addr++) {
 145:Drivers/BSP/Components/vl53l1cb/modules/vl53l1_nvm.c **** 
 146:Drivers/BSP/Components/vl53l1cb/modules/vl53l1_nvm.c **** 
 147:Drivers/BSP/Components/vl53l1cb/modules/vl53l1_nvm.c **** 
 148:Drivers/BSP/Components/vl53l1cb/modules/vl53l1_nvm.c **** 		if (status == VL53L1_ERROR_NONE)
 149:Drivers/BSP/Components/vl53l1cb/modules/vl53l1_nvm.c **** 			status = VL53L1_WrByte(
 208              		.loc 1 149 4 is_stmt 1 view .LVU57
 209              		.loc 1 149 13 is_stmt 0 view .LVU58
 210 0012 2246     		mov	r2, r4
 211 0014 40F29471 		movw	r1, #1940
 212 0018 4846     		mov	r0, r9
 213 001a FFF7FEFF 		bl	VL53L1_WrByte
 214              	.LVL24:
 150:Drivers/BSP/Components/vl53l1cb/modules/vl53l1_nvm.c **** 				Dev,
 151:Drivers/BSP/Components/vl53l1cb/modules/vl53l1_nvm.c **** 				VL53L1_RANGING_CORE__NVM_CTRL__ADDR,
 152:Drivers/BSP/Components/vl53l1cb/modules/vl53l1_nvm.c **** 				nvm_addr);
 153:Drivers/BSP/Components/vl53l1cb/modules/vl53l1_nvm.c **** 
 154:Drivers/BSP/Components/vl53l1cb/modules/vl53l1_nvm.c **** 
 155:Drivers/BSP/Components/vl53l1cb/modules/vl53l1_nvm.c **** 
ARM GAS  C:\Temp\ccKRfCgt.s 			page 8


 156:Drivers/BSP/Components/vl53l1cb/modules/vl53l1_nvm.c **** 		if (status == VL53L1_ERROR_NONE)
 215              		.loc 1 156 3 is_stmt 1 view .LVU59
 216              		.loc 1 156 6 is_stmt 0 view .LVU60
 217 001e 0546     		mov	r5, r0
 218 0020 18B3     		cbz	r0, .L13
 219              	.LVL25:
 220              	.L10:
 157:Drivers/BSP/Components/vl53l1cb/modules/vl53l1_nvm.c **** 			status = VL53L1_WrByte(
 158:Drivers/BSP/Components/vl53l1cb/modules/vl53l1_nvm.c **** 				Dev,
 159:Drivers/BSP/Components/vl53l1cb/modules/vl53l1_nvm.c **** 				VL53L1_RANGING_CORE__NVM_CTRL__READN,
 160:Drivers/BSP/Components/vl53l1cb/modules/vl53l1_nvm.c **** 				0x00);
 161:Drivers/BSP/Components/vl53l1cb/modules/vl53l1_nvm.c **** 
 162:Drivers/BSP/Components/vl53l1cb/modules/vl53l1_nvm.c **** 
 163:Drivers/BSP/Components/vl53l1cb/modules/vl53l1_nvm.c **** 
 164:Drivers/BSP/Components/vl53l1cb/modules/vl53l1_nvm.c **** 		if (status == VL53L1_ERROR_NONE)
 165:Drivers/BSP/Components/vl53l1cb/modules/vl53l1_nvm.c **** 			status = VL53L1_WaitUs(
 166:Drivers/BSP/Components/vl53l1cb/modules/vl53l1_nvm.c **** 				Dev,
 167:Drivers/BSP/Components/vl53l1cb/modules/vl53l1_nvm.c **** 				VL53L1_NVM_READ_TRIGGER_DELAY_US);
 168:Drivers/BSP/Components/vl53l1cb/modules/vl53l1_nvm.c **** 
 169:Drivers/BSP/Components/vl53l1cb/modules/vl53l1_nvm.c **** 		if (status == VL53L1_ERROR_NONE)
 170:Drivers/BSP/Components/vl53l1cb/modules/vl53l1_nvm.c **** 			status = VL53L1_WrByte(
 171:Drivers/BSP/Components/vl53l1cb/modules/vl53l1_nvm.c **** 				Dev,
 172:Drivers/BSP/Components/vl53l1cb/modules/vl53l1_nvm.c **** 				VL53L1_RANGING_CORE__NVM_CTRL__READN,
 173:Drivers/BSP/Components/vl53l1cb/modules/vl53l1_nvm.c **** 				0x01);
 174:Drivers/BSP/Components/vl53l1cb/modules/vl53l1_nvm.c **** 
 175:Drivers/BSP/Components/vl53l1cb/modules/vl53l1_nvm.c **** 
 176:Drivers/BSP/Components/vl53l1cb/modules/vl53l1_nvm.c **** 		if (status == VL53L1_ERROR_NONE)
 177:Drivers/BSP/Components/vl53l1cb/modules/vl53l1_nvm.c **** 			status = VL53L1_ReadMulti(
 178:Drivers/BSP/Components/vl53l1cb/modules/vl53l1_nvm.c **** 				Dev,
 179:Drivers/BSP/Components/vl53l1cb/modules/vl53l1_nvm.c **** 				VL53L1_RANGING_CORE__NVM_CTRL__DATAOUT_MMM,
 180:Drivers/BSP/Components/vl53l1cb/modules/vl53l1_nvm.c **** 				pdata,
 181:Drivers/BSP/Components/vl53l1cb/modules/vl53l1_nvm.c **** 				4);
 182:Drivers/BSP/Components/vl53l1cb/modules/vl53l1_nvm.c **** 
 183:Drivers/BSP/Components/vl53l1cb/modules/vl53l1_nvm.c **** 		trace_print(
 184:Drivers/BSP/Components/vl53l1cb/modules/vl53l1_nvm.c **** 			VL53L1_TRACE_LEVEL_INFO,
 185:Drivers/BSP/Components/vl53l1cb/modules/vl53l1_nvm.c **** 			"NVM address : 0x%02X = 0x%02X%02X%02X%02X\n",
 186:Drivers/BSP/Components/vl53l1cb/modules/vl53l1_nvm.c **** 			nvm_addr, *pdata, *(pdata+1), *(pdata+2), *(pdata+3));
 221              		.loc 1 186 57 is_stmt 1 view .LVU61
 187:Drivers/BSP/Components/vl53l1cb/modules/vl53l1_nvm.c **** 
 188:Drivers/BSP/Components/vl53l1cb/modules/vl53l1_nvm.c **** 
 189:Drivers/BSP/Components/vl53l1cb/modules/vl53l1_nvm.c **** 
 190:Drivers/BSP/Components/vl53l1cb/modules/vl53l1_nvm.c **** 		pdata = pdata + 4;
 222              		.loc 1 190 3 view .LVU62
 223              		.loc 1 190 9 is_stmt 0 view .LVU63
 224 0022 0436     		adds	r6, r6, #4
 225              	.LVL26:
 144:Drivers/BSP/Components/vl53l1cb/modules/vl53l1_nvm.c **** 
 226              		.loc 1 144 46 is_stmt 1 view .LVU64
 227 0024 0134     		adds	r4, r4, #1
 228              	.LVL27:
 144:Drivers/BSP/Components/vl53l1cb/modules/vl53l1_nvm.c **** 
 229              		.loc 1 144 46 is_stmt 0 view .LVU65
 230 0026 E4B2     		uxtb	r4, r4
 231              	.LVL28:
 232              	.L8:
 144:Drivers/BSP/Components/vl53l1cb/modules/vl53l1_nvm.c **** 
 233              		.loc 1 144 12 is_stmt 1 discriminator 1 view .LVU66
ARM GAS  C:\Temp\ccKRfCgt.s 			page 9


 144:Drivers/BSP/Components/vl53l1cb/modules/vl53l1_nvm.c **** 
 234              		.loc 1 144 28 is_stmt 0 discriminator 1 view .LVU67
 235 0028 07EB0803 		add	r3, r7, r8
 144:Drivers/BSP/Components/vl53l1cb/modules/vl53l1_nvm.c **** 
 236              		.loc 1 144 12 discriminator 1 view .LVU68
 237 002c 9C42     		cmp	r4, r3
 238 002e 24DA     		bge	.L14
 148:Drivers/BSP/Components/vl53l1cb/modules/vl53l1_nvm.c **** 			status = VL53L1_WrByte(
 239              		.loc 1 148 3 is_stmt 1 view .LVU69
 148:Drivers/BSP/Components/vl53l1cb/modules/vl53l1_nvm.c **** 			status = VL53L1_WrByte(
 240              		.loc 1 148 6 is_stmt 0 view .LVU70
 241 0030 002D     		cmp	r5, #0
 242 0032 EED0     		beq	.L15
 243              	.L9:
 164:Drivers/BSP/Components/vl53l1cb/modules/vl53l1_nvm.c **** 			status = VL53L1_WaitUs(
 244              		.loc 1 164 3 is_stmt 1 view .LVU71
 164:Drivers/BSP/Components/vl53l1cb/modules/vl53l1_nvm.c **** 			status = VL53L1_WaitUs(
 245              		.loc 1 164 6 is_stmt 0 view .LVU72
 246 0034 002D     		cmp	r5, #0
 247 0036 F4D1     		bne	.L10
 165:Drivers/BSP/Components/vl53l1cb/modules/vl53l1_nvm.c **** 				Dev,
 248              		.loc 1 165 4 is_stmt 1 view .LVU73
 165:Drivers/BSP/Components/vl53l1cb/modules/vl53l1_nvm.c **** 				Dev,
 249              		.loc 1 165 13 is_stmt 0 view .LVU74
 250 0038 0521     		movs	r1, #5
 251 003a 4846     		mov	r0, r9
 252 003c FFF7FEFF 		bl	VL53L1_WaitUs
 253              	.LVL29:
 169:Drivers/BSP/Components/vl53l1cb/modules/vl53l1_nvm.c **** 			status = VL53L1_WrByte(
 254              		.loc 1 169 3 is_stmt 1 view .LVU75
 169:Drivers/BSP/Components/vl53l1cb/modules/vl53l1_nvm.c **** 			status = VL53L1_WrByte(
 255              		.loc 1 169 6 is_stmt 0 view .LVU76
 256 0040 0546     		mov	r5, r0
 257 0042 0028     		cmp	r0, #0
 258 0044 EDD1     		bne	.L10
 170:Drivers/BSP/Components/vl53l1cb/modules/vl53l1_nvm.c **** 				Dev,
 259              		.loc 1 170 4 is_stmt 1 view .LVU77
 170:Drivers/BSP/Components/vl53l1cb/modules/vl53l1_nvm.c **** 				Dev,
 260              		.loc 1 170 13 is_stmt 0 view .LVU78
 261 0046 0122     		movs	r2, #1
 262 0048 40F28371 		movw	r1, #1923
 263 004c 4846     		mov	r0, r9
 264              	.LVL30:
 170:Drivers/BSP/Components/vl53l1cb/modules/vl53l1_nvm.c **** 				Dev,
 265              		.loc 1 170 13 view .LVU79
 266 004e FFF7FEFF 		bl	VL53L1_WrByte
 267              	.LVL31:
 176:Drivers/BSP/Components/vl53l1cb/modules/vl53l1_nvm.c **** 			status = VL53L1_ReadMulti(
 268              		.loc 1 176 3 is_stmt 1 view .LVU80
 176:Drivers/BSP/Components/vl53l1cb/modules/vl53l1_nvm.c **** 			status = VL53L1_ReadMulti(
 269              		.loc 1 176 6 is_stmt 0 view .LVU81
 270 0052 0546     		mov	r5, r0
 271 0054 0028     		cmp	r0, #0
 272 0056 E4D1     		bne	.L10
 177:Drivers/BSP/Components/vl53l1cb/modules/vl53l1_nvm.c **** 				Dev,
 273              		.loc 1 177 4 is_stmt 1 view .LVU82
 177:Drivers/BSP/Components/vl53l1cb/modules/vl53l1_nvm.c **** 				Dev,
ARM GAS  C:\Temp\ccKRfCgt.s 			page 10


 274              		.loc 1 177 13 is_stmt 0 view .LVU83
 275 0058 0423     		movs	r3, #4
 276 005a 3246     		mov	r2, r6
 277 005c 4FF4F261 		mov	r1, #1936
 278 0060 4846     		mov	r0, r9
 279              	.LVL32:
 177:Drivers/BSP/Components/vl53l1cb/modules/vl53l1_nvm.c **** 				Dev,
 280              		.loc 1 177 13 view .LVU84
 281 0062 FFF7FEFF 		bl	VL53L1_ReadMulti
 282              	.LVL33:
 283 0066 0546     		mov	r5, r0
 284              	.LVL34:
 177:Drivers/BSP/Components/vl53l1cb/modules/vl53l1_nvm.c **** 				Dev,
 285              		.loc 1 177 13 view .LVU85
 286 0068 DBE7     		b	.L10
 287              	.LVL35:
 288              	.L13:
 157:Drivers/BSP/Components/vl53l1cb/modules/vl53l1_nvm.c **** 				Dev,
 289              		.loc 1 157 4 is_stmt 1 view .LVU86
 157:Drivers/BSP/Components/vl53l1cb/modules/vl53l1_nvm.c **** 				Dev,
 290              		.loc 1 157 13 is_stmt 0 view .LVU87
 291 006a 0022     		movs	r2, #0
 292 006c 40F28371 		movw	r1, #1923
 293 0070 4846     		mov	r0, r9
 294              	.LVL36:
 157:Drivers/BSP/Components/vl53l1cb/modules/vl53l1_nvm.c **** 				Dev,
 295              		.loc 1 157 13 view .LVU88
 296 0072 FFF7FEFF 		bl	VL53L1_WrByte
 297              	.LVL37:
 298 0076 0546     		mov	r5, r0
 299              	.LVL38:
 157:Drivers/BSP/Components/vl53l1cb/modules/vl53l1_nvm.c **** 				Dev,
 300              		.loc 1 157 13 view .LVU89
 301 0078 DCE7     		b	.L9
 302              	.L14:
 191:Drivers/BSP/Components/vl53l1cb/modules/vl53l1_nvm.c **** 
 192:Drivers/BSP/Components/vl53l1cb/modules/vl53l1_nvm.c **** 
 193:Drivers/BSP/Components/vl53l1cb/modules/vl53l1_nvm.c **** 	}
 194:Drivers/BSP/Components/vl53l1cb/modules/vl53l1_nvm.c **** 
 195:Drivers/BSP/Components/vl53l1cb/modules/vl53l1_nvm.c **** 	LOG_FUNCTION_END(status);
 303              		.loc 1 195 26 is_stmt 1 view .LVU90
 196:Drivers/BSP/Components/vl53l1cb/modules/vl53l1_nvm.c **** 
 197:Drivers/BSP/Components/vl53l1cb/modules/vl53l1_nvm.c **** 	return status;
 304              		.loc 1 197 2 view .LVU91
 198:Drivers/BSP/Components/vl53l1cb/modules/vl53l1_nvm.c **** }
 305              		.loc 1 198 1 is_stmt 0 view .LVU92
 306 007a 2846     		mov	r0, r5
 307 007c BDE8F883 		pop	{r3, r4, r5, r6, r7, r8, r9, pc}
 308              		.loc 1 198 1 view .LVU93
 309              		.cfi_endproc
 310              	.LFE4:
 312              		.section	.text.VL53L1_nvm_disable,"ax",%progbits
 313              		.align	1
 314              		.global	VL53L1_nvm_disable
 315              		.syntax unified
 316              		.thumb
 317              		.thumb_func
ARM GAS  C:\Temp\ccKRfCgt.s 			page 11


 319              	VL53L1_nvm_disable:
 320              	.LVL39:
 321              	.LFB5:
 199:Drivers/BSP/Components/vl53l1cb/modules/vl53l1_nvm.c **** 
 200:Drivers/BSP/Components/vl53l1cb/modules/vl53l1_nvm.c **** 
 201:Drivers/BSP/Components/vl53l1cb/modules/vl53l1_nvm.c **** VL53L1_Error VL53L1_nvm_disable(
 202:Drivers/BSP/Components/vl53l1cb/modules/vl53l1_nvm.c **** 	VL53L1_DEV    Dev)
 203:Drivers/BSP/Components/vl53l1cb/modules/vl53l1_nvm.c **** {
 322              		.loc 1 203 1 is_stmt 1 view -0
 323              		.cfi_startproc
 324              		@ args = 0, pretend = 0, frame = 0
 325              		@ frame_needed = 0, uses_anonymous_args = 0
 326              		.loc 1 203 1 is_stmt 0 view .LVU95
 327 0000 10B5     		push	{r4, lr}
 328              		.cfi_def_cfa_offset 8
 329              		.cfi_offset 4, -8
 330              		.cfi_offset 14, -4
 331 0002 0446     		mov	r4, r0
 204:Drivers/BSP/Components/vl53l1cb/modules/vl53l1_nvm.c **** 
 205:Drivers/BSP/Components/vl53l1cb/modules/vl53l1_nvm.c **** 
 206:Drivers/BSP/Components/vl53l1cb/modules/vl53l1_nvm.c **** 	VL53L1_Error status = VL53L1_ERROR_NONE;
 332              		.loc 1 206 2 is_stmt 1 view .LVU96
 333              	.LVL40:
 207:Drivers/BSP/Components/vl53l1cb/modules/vl53l1_nvm.c **** 
 208:Drivers/BSP/Components/vl53l1cb/modules/vl53l1_nvm.c **** 	LOG_FUNCTION_START("");
 334              		.loc 1 208 24 view .LVU97
 209:Drivers/BSP/Components/vl53l1cb/modules/vl53l1_nvm.c **** 
 210:Drivers/BSP/Components/vl53l1cb/modules/vl53l1_nvm.c **** 	if (status == VL53L1_ERROR_NONE)
 335              		.loc 1 210 2 view .LVU98
 211:Drivers/BSP/Components/vl53l1cb/modules/vl53l1_nvm.c **** 		status = VL53L1_WrByte(
 336              		.loc 1 211 3 view .LVU99
 337              		.loc 1 211 12 is_stmt 0 view .LVU100
 338 0004 0122     		movs	r2, #1
 339 0006 40F28371 		movw	r1, #1923
 340 000a FFF7FEFF 		bl	VL53L1_WrByte
 341              	.LVL41:
 212:Drivers/BSP/Components/vl53l1cb/modules/vl53l1_nvm.c **** 					Dev,
 213:Drivers/BSP/Components/vl53l1cb/modules/vl53l1_nvm.c **** 					VL53L1_RANGING_CORE__NVM_CTRL__READN,
 214:Drivers/BSP/Components/vl53l1cb/modules/vl53l1_nvm.c **** 					0x01);
 215:Drivers/BSP/Components/vl53l1cb/modules/vl53l1_nvm.c **** 
 216:Drivers/BSP/Components/vl53l1cb/modules/vl53l1_nvm.c **** 
 217:Drivers/BSP/Components/vl53l1cb/modules/vl53l1_nvm.c **** 
 218:Drivers/BSP/Components/vl53l1cb/modules/vl53l1_nvm.c **** 	if (status == VL53L1_ERROR_NONE)
 342              		.loc 1 218 2 is_stmt 1 view .LVU101
 343              		.loc 1 218 5 is_stmt 0 view .LVU102
 344 000e 0346     		mov	r3, r0
 345 0010 10B1     		cbz	r0, .L20
 346              	.LVL42:
 347              	.L17:
 219:Drivers/BSP/Components/vl53l1cb/modules/vl53l1_nvm.c **** 		status = VL53L1_WrByte(
 220:Drivers/BSP/Components/vl53l1cb/modules/vl53l1_nvm.c **** 					Dev,
 221:Drivers/BSP/Components/vl53l1cb/modules/vl53l1_nvm.c **** 					VL53L1_RANGING_CORE__NVM_CTRL__PDN,
 222:Drivers/BSP/Components/vl53l1cb/modules/vl53l1_nvm.c **** 					0x00);
 223:Drivers/BSP/Components/vl53l1cb/modules/vl53l1_nvm.c **** 
 224:Drivers/BSP/Components/vl53l1cb/modules/vl53l1_nvm.c **** 
 225:Drivers/BSP/Components/vl53l1cb/modules/vl53l1_nvm.c **** 
 226:Drivers/BSP/Components/vl53l1cb/modules/vl53l1_nvm.c **** 	if (status == VL53L1_ERROR_NONE)
ARM GAS  C:\Temp\ccKRfCgt.s 			page 12


 227:Drivers/BSP/Components/vl53l1cb/modules/vl53l1_nvm.c **** 		status = VL53L1_disable_powerforce(Dev);
 228:Drivers/BSP/Components/vl53l1cb/modules/vl53l1_nvm.c **** 
 229:Drivers/BSP/Components/vl53l1cb/modules/vl53l1_nvm.c **** 
 230:Drivers/BSP/Components/vl53l1cb/modules/vl53l1_nvm.c **** 
 231:Drivers/BSP/Components/vl53l1cb/modules/vl53l1_nvm.c **** 	if (status == VL53L1_ERROR_NONE)
 348              		.loc 1 231 2 is_stmt 1 view .LVU103
 349              		.loc 1 231 5 is_stmt 0 view .LVU104
 350 0012 7BB1     		cbz	r3, .L21
 351              	.LVL43:
 352              	.L18:
 232:Drivers/BSP/Components/vl53l1cb/modules/vl53l1_nvm.c **** 		status = VL53L1_enable_firmware(Dev);
 233:Drivers/BSP/Components/vl53l1cb/modules/vl53l1_nvm.c **** 
 234:Drivers/BSP/Components/vl53l1cb/modules/vl53l1_nvm.c **** 	LOG_FUNCTION_END(status);
 353              		.loc 1 234 26 is_stmt 1 view .LVU105
 235:Drivers/BSP/Components/vl53l1cb/modules/vl53l1_nvm.c **** 
 236:Drivers/BSP/Components/vl53l1cb/modules/vl53l1_nvm.c **** 	return status;
 354              		.loc 1 236 2 view .LVU106
 237:Drivers/BSP/Components/vl53l1cb/modules/vl53l1_nvm.c **** 
 238:Drivers/BSP/Components/vl53l1cb/modules/vl53l1_nvm.c **** }
 355              		.loc 1 238 1 is_stmt 0 view .LVU107
 356 0014 1846     		mov	r0, r3
 357 0016 10BD     		pop	{r4, pc}
 358              	.LVL44:
 359              	.L20:
 219:Drivers/BSP/Components/vl53l1cb/modules/vl53l1_nvm.c **** 					Dev,
 360              		.loc 1 219 3 is_stmt 1 view .LVU108
 219:Drivers/BSP/Components/vl53l1cb/modules/vl53l1_nvm.c **** 					Dev,
 361              		.loc 1 219 12 is_stmt 0 view .LVU109
 362 0018 0022     		movs	r2, #0
 363 001a 40F28171 		movw	r1, #1921
 364 001e 2046     		mov	r0, r4
 365              	.LVL45:
 219:Drivers/BSP/Components/vl53l1cb/modules/vl53l1_nvm.c **** 					Dev,
 366              		.loc 1 219 12 view .LVU110
 367 0020 FFF7FEFF 		bl	VL53L1_WrByte
 368              	.LVL46:
 226:Drivers/BSP/Components/vl53l1cb/modules/vl53l1_nvm.c **** 		status = VL53L1_disable_powerforce(Dev);
 369              		.loc 1 226 2 is_stmt 1 view .LVU111
 226:Drivers/BSP/Components/vl53l1cb/modules/vl53l1_nvm.c **** 		status = VL53L1_disable_powerforce(Dev);
 370              		.loc 1 226 5 is_stmt 0 view .LVU112
 371 0024 0346     		mov	r3, r0
 372 0026 0028     		cmp	r0, #0
 373 0028 F4D1     		bne	.L18
 227:Drivers/BSP/Components/vl53l1cb/modules/vl53l1_nvm.c **** 
 374              		.loc 1 227 3 is_stmt 1 view .LVU113
 227:Drivers/BSP/Components/vl53l1cb/modules/vl53l1_nvm.c **** 
 375              		.loc 1 227 12 is_stmt 0 view .LVU114
 376 002a 2046     		mov	r0, r4
 377              	.LVL47:
 227:Drivers/BSP/Components/vl53l1cb/modules/vl53l1_nvm.c **** 
 378              		.loc 1 227 12 view .LVU115
 379 002c FFF7FEFF 		bl	VL53L1_disable_powerforce
 380              	.LVL48:
 381 0030 0346     		mov	r3, r0
 382              	.LVL49:
 227:Drivers/BSP/Components/vl53l1cb/modules/vl53l1_nvm.c **** 
 383              		.loc 1 227 12 view .LVU116
ARM GAS  C:\Temp\ccKRfCgt.s 			page 13


 384 0032 EEE7     		b	.L17
 385              	.L21:
 232:Drivers/BSP/Components/vl53l1cb/modules/vl53l1_nvm.c **** 
 386              		.loc 1 232 3 is_stmt 1 view .LVU117
 232:Drivers/BSP/Components/vl53l1cb/modules/vl53l1_nvm.c **** 
 387              		.loc 1 232 12 is_stmt 0 view .LVU118
 388 0034 2046     		mov	r0, r4
 389 0036 FFF7FEFF 		bl	VL53L1_enable_firmware
 390              	.LVL50:
 232:Drivers/BSP/Components/vl53l1cb/modules/vl53l1_nvm.c **** 
 391              		.loc 1 232 12 view .LVU119
 392 003a 0346     		mov	r3, r0
 393              	.LVL51:
 232:Drivers/BSP/Components/vl53l1cb/modules/vl53l1_nvm.c **** 
 394              		.loc 1 232 12 view .LVU120
 395 003c EAE7     		b	.L18
 396              		.cfi_endproc
 397              	.LFE5:
 399              		.section	.text.VL53L1_nvm_decode_optical_centre,"ax",%progbits
 400              		.align	1
 401              		.global	VL53L1_nvm_decode_optical_centre
 402              		.syntax unified
 403              		.thumb
 404              		.thumb_func
 406              	VL53L1_nvm_decode_optical_centre:
 407              	.LVL52:
 408              	.LFB7:
 239:Drivers/BSP/Components/vl53l1cb/modules/vl53l1_nvm.c **** 
 240:Drivers/BSP/Components/vl53l1cb/modules/vl53l1_nvm.c **** 
 241:Drivers/BSP/Components/vl53l1cb/modules/vl53l1_nvm.c **** VL53L1_Error VL53L1_nvm_format_decode(
 242:Drivers/BSP/Components/vl53l1cb/modules/vl53l1_nvm.c **** 	uint16_t                   buf_size,
 243:Drivers/BSP/Components/vl53l1cb/modules/vl53l1_nvm.c **** 	uint8_t                   *pbuffer,
 244:Drivers/BSP/Components/vl53l1cb/modules/vl53l1_nvm.c **** 	VL53L1_decoded_nvm_data_t *pdata)
 245:Drivers/BSP/Components/vl53l1cb/modules/vl53l1_nvm.c **** {
 246:Drivers/BSP/Components/vl53l1cb/modules/vl53l1_nvm.c **** 
 247:Drivers/BSP/Components/vl53l1cb/modules/vl53l1_nvm.c **** 
 248:Drivers/BSP/Components/vl53l1cb/modules/vl53l1_nvm.c **** 
 249:Drivers/BSP/Components/vl53l1cb/modules/vl53l1_nvm.c **** 	VL53L1_Error status = VL53L1_ERROR_NONE;
 250:Drivers/BSP/Components/vl53l1cb/modules/vl53l1_nvm.c **** 
 251:Drivers/BSP/Components/vl53l1cb/modules/vl53l1_nvm.c **** 	uint8_t    i        = 0;
 252:Drivers/BSP/Components/vl53l1cb/modules/vl53l1_nvm.c **** 	uint8_t   *ptmp     = NULL;
 253:Drivers/BSP/Components/vl53l1cb/modules/vl53l1_nvm.c **** 	int        pptmp[VL53L1_NVM_MAX_FMT_RANGE_DATA];
 254:Drivers/BSP/Components/vl53l1cb/modules/vl53l1_nvm.c **** 
 255:Drivers/BSP/Components/vl53l1cb/modules/vl53l1_nvm.c **** 	LOG_FUNCTION_START("");
 256:Drivers/BSP/Components/vl53l1cb/modules/vl53l1_nvm.c **** 
 257:Drivers/BSP/Components/vl53l1cb/modules/vl53l1_nvm.c **** 	if (buf_size < VL53L1_NVM_SIZE_IN_BYTES)
 258:Drivers/BSP/Components/vl53l1cb/modules/vl53l1_nvm.c **** 		return VL53L1_ERROR_BUFFER_TOO_SMALL;
 259:Drivers/BSP/Components/vl53l1cb/modules/vl53l1_nvm.c **** 
 260:Drivers/BSP/Components/vl53l1cb/modules/vl53l1_nvm.c **** 	pdata->nvm__identification_model_id =
 261:Drivers/BSP/Components/vl53l1cb/modules/vl53l1_nvm.c **** 		(uint8_t)VL53L1_i2c_decode_with_mask(
 262:Drivers/BSP/Components/vl53l1cb/modules/vl53l1_nvm.c **** 			1,
 263:Drivers/BSP/Components/vl53l1cb/modules/vl53l1_nvm.c **** 			pbuffer + VL53L1_NVM__IDENTIFICATION__MODEL_ID,
 264:Drivers/BSP/Components/vl53l1cb/modules/vl53l1_nvm.c **** 			0x000000FF,
 265:Drivers/BSP/Components/vl53l1cb/modules/vl53l1_nvm.c **** 			0,
 266:Drivers/BSP/Components/vl53l1cb/modules/vl53l1_nvm.c **** 			0);
 267:Drivers/BSP/Components/vl53l1cb/modules/vl53l1_nvm.c **** 	pdata->nvm__identification_module_type =
 268:Drivers/BSP/Components/vl53l1cb/modules/vl53l1_nvm.c **** 		(uint8_t)VL53L1_i2c_decode_with_mask(
ARM GAS  C:\Temp\ccKRfCgt.s 			page 14


 269:Drivers/BSP/Components/vl53l1cb/modules/vl53l1_nvm.c **** 			1,
 270:Drivers/BSP/Components/vl53l1cb/modules/vl53l1_nvm.c **** 			pbuffer + VL53L1_NVM__IDENTIFICATION__MODULE_TYPE,
 271:Drivers/BSP/Components/vl53l1cb/modules/vl53l1_nvm.c **** 			0x000000FF,
 272:Drivers/BSP/Components/vl53l1cb/modules/vl53l1_nvm.c **** 			0,
 273:Drivers/BSP/Components/vl53l1cb/modules/vl53l1_nvm.c **** 			0);
 274:Drivers/BSP/Components/vl53l1cb/modules/vl53l1_nvm.c **** 	pdata->nvm__identification_revision_id =
 275:Drivers/BSP/Components/vl53l1cb/modules/vl53l1_nvm.c **** 		(uint8_t)VL53L1_i2c_decode_with_mask(
 276:Drivers/BSP/Components/vl53l1cb/modules/vl53l1_nvm.c **** 			1,
 277:Drivers/BSP/Components/vl53l1cb/modules/vl53l1_nvm.c **** 			pbuffer + VL53L1_NVM__IDENTIFICATION__REVISION_ID,
 278:Drivers/BSP/Components/vl53l1cb/modules/vl53l1_nvm.c **** 			0x0000000F,
 279:Drivers/BSP/Components/vl53l1cb/modules/vl53l1_nvm.c **** 			0,
 280:Drivers/BSP/Components/vl53l1cb/modules/vl53l1_nvm.c **** 			0);
 281:Drivers/BSP/Components/vl53l1cb/modules/vl53l1_nvm.c **** 	pdata->nvm__identification_module_id =
 282:Drivers/BSP/Components/vl53l1cb/modules/vl53l1_nvm.c **** 		(uint16_t)VL53L1_i2c_decode_with_mask(
 283:Drivers/BSP/Components/vl53l1cb/modules/vl53l1_nvm.c **** 			2,
 284:Drivers/BSP/Components/vl53l1cb/modules/vl53l1_nvm.c **** 			pbuffer + VL53L1_NVM__IDENTIFICATION__MODULE_ID,
 285:Drivers/BSP/Components/vl53l1cb/modules/vl53l1_nvm.c **** 			0x0000FFFF,
 286:Drivers/BSP/Components/vl53l1cb/modules/vl53l1_nvm.c **** 			0,
 287:Drivers/BSP/Components/vl53l1cb/modules/vl53l1_nvm.c **** 			0);
 288:Drivers/BSP/Components/vl53l1cb/modules/vl53l1_nvm.c **** 	pdata->nvm__i2c_valid =
 289:Drivers/BSP/Components/vl53l1cb/modules/vl53l1_nvm.c **** 		(uint8_t)VL53L1_i2c_decode_with_mask(
 290:Drivers/BSP/Components/vl53l1cb/modules/vl53l1_nvm.c **** 			1,
 291:Drivers/BSP/Components/vl53l1cb/modules/vl53l1_nvm.c **** 			pbuffer + VL53L1_NVM__I2C_VALID,
 292:Drivers/BSP/Components/vl53l1cb/modules/vl53l1_nvm.c **** 			0x000000FF,
 293:Drivers/BSP/Components/vl53l1cb/modules/vl53l1_nvm.c **** 			0,
 294:Drivers/BSP/Components/vl53l1cb/modules/vl53l1_nvm.c **** 			0);
 295:Drivers/BSP/Components/vl53l1cb/modules/vl53l1_nvm.c **** 	pdata->nvm__i2c_device_address_ews =
 296:Drivers/BSP/Components/vl53l1cb/modules/vl53l1_nvm.c **** 		(uint8_t)VL53L1_i2c_decode_with_mask(
 297:Drivers/BSP/Components/vl53l1cb/modules/vl53l1_nvm.c **** 			1,
 298:Drivers/BSP/Components/vl53l1cb/modules/vl53l1_nvm.c **** 			pbuffer + VL53L1_NVM__I2C_SLAVE__DEVICE_ADDRESS,
 299:Drivers/BSP/Components/vl53l1cb/modules/vl53l1_nvm.c **** 			0x000000FF,
 300:Drivers/BSP/Components/vl53l1cb/modules/vl53l1_nvm.c **** 			0,
 301:Drivers/BSP/Components/vl53l1cb/modules/vl53l1_nvm.c **** 			0);
 302:Drivers/BSP/Components/vl53l1cb/modules/vl53l1_nvm.c **** 	pdata->nvm__ews__fast_osc_frequency =
 303:Drivers/BSP/Components/vl53l1cb/modules/vl53l1_nvm.c **** 		(uint16_t)VL53L1_i2c_decode_with_mask(
 304:Drivers/BSP/Components/vl53l1cb/modules/vl53l1_nvm.c **** 			2,
 305:Drivers/BSP/Components/vl53l1cb/modules/vl53l1_nvm.c **** 			pbuffer +
 306:Drivers/BSP/Components/vl53l1cb/modules/vl53l1_nvm.c **** 			VL53L1_NVM__EWS__OSC_MEASURED__FAST_OSC_FREQUENCY,
 307:Drivers/BSP/Components/vl53l1cb/modules/vl53l1_nvm.c **** 			0x0000FFFF,
 308:Drivers/BSP/Components/vl53l1cb/modules/vl53l1_nvm.c **** 			0,
 309:Drivers/BSP/Components/vl53l1cb/modules/vl53l1_nvm.c **** 			0);
 310:Drivers/BSP/Components/vl53l1cb/modules/vl53l1_nvm.c **** 	pdata->nvm__ews__fast_osc_trim_max =
 311:Drivers/BSP/Components/vl53l1cb/modules/vl53l1_nvm.c **** 		(uint8_t)VL53L1_i2c_decode_with_mask(
 312:Drivers/BSP/Components/vl53l1cb/modules/vl53l1_nvm.c **** 			1,
 313:Drivers/BSP/Components/vl53l1cb/modules/vl53l1_nvm.c **** 			pbuffer + VL53L1_NVM__EWS__FAST_OSC_TRIM_MAX,
 314:Drivers/BSP/Components/vl53l1cb/modules/vl53l1_nvm.c **** 			0x0000007F,
 315:Drivers/BSP/Components/vl53l1cb/modules/vl53l1_nvm.c **** 			0,
 316:Drivers/BSP/Components/vl53l1cb/modules/vl53l1_nvm.c **** 			0);
 317:Drivers/BSP/Components/vl53l1cb/modules/vl53l1_nvm.c **** 	pdata->nvm__ews__fast_osc_freq_set =
 318:Drivers/BSP/Components/vl53l1cb/modules/vl53l1_nvm.c **** 		(uint8_t)VL53L1_i2c_decode_with_mask(
 319:Drivers/BSP/Components/vl53l1cb/modules/vl53l1_nvm.c **** 			1,
 320:Drivers/BSP/Components/vl53l1cb/modules/vl53l1_nvm.c **** 			pbuffer + VL53L1_NVM__EWS__FAST_OSC_FREQ_SET,
 321:Drivers/BSP/Components/vl53l1cb/modules/vl53l1_nvm.c **** 			0x00000007,
 322:Drivers/BSP/Components/vl53l1cb/modules/vl53l1_nvm.c **** 			0,
 323:Drivers/BSP/Components/vl53l1cb/modules/vl53l1_nvm.c **** 			0);
 324:Drivers/BSP/Components/vl53l1cb/modules/vl53l1_nvm.c **** 	pdata->nvm__ews__slow_osc_calibration =
 325:Drivers/BSP/Components/vl53l1cb/modules/vl53l1_nvm.c **** 		(uint16_t)VL53L1_i2c_decode_with_mask(
ARM GAS  C:\Temp\ccKRfCgt.s 			page 15


 326:Drivers/BSP/Components/vl53l1cb/modules/vl53l1_nvm.c **** 			2,
 327:Drivers/BSP/Components/vl53l1cb/modules/vl53l1_nvm.c **** 			pbuffer + VL53L1_NVM__EWS__SLOW_OSC_CALIBRATION,
 328:Drivers/BSP/Components/vl53l1cb/modules/vl53l1_nvm.c **** 			0x000003FF,
 329:Drivers/BSP/Components/vl53l1cb/modules/vl53l1_nvm.c **** 			0,
 330:Drivers/BSP/Components/vl53l1cb/modules/vl53l1_nvm.c **** 			0);
 331:Drivers/BSP/Components/vl53l1cb/modules/vl53l1_nvm.c **** 	pdata->nvm__fmt__fast_osc_frequency =
 332:Drivers/BSP/Components/vl53l1cb/modules/vl53l1_nvm.c **** 		(uint16_t)VL53L1_i2c_decode_with_mask(
 333:Drivers/BSP/Components/vl53l1cb/modules/vl53l1_nvm.c **** 			2,
 334:Drivers/BSP/Components/vl53l1cb/modules/vl53l1_nvm.c **** 			pbuffer +
 335:Drivers/BSP/Components/vl53l1cb/modules/vl53l1_nvm.c **** 			VL53L1_NVM__FMT__OSC_MEASURED__FAST_OSC_FREQUENCY,
 336:Drivers/BSP/Components/vl53l1cb/modules/vl53l1_nvm.c **** 			0x0000FFFF,
 337:Drivers/BSP/Components/vl53l1cb/modules/vl53l1_nvm.c **** 			0,
 338:Drivers/BSP/Components/vl53l1cb/modules/vl53l1_nvm.c **** 			0);
 339:Drivers/BSP/Components/vl53l1cb/modules/vl53l1_nvm.c **** 	pdata->nvm__fmt__fast_osc_trim_max =
 340:Drivers/BSP/Components/vl53l1cb/modules/vl53l1_nvm.c **** 		(uint8_t)VL53L1_i2c_decode_with_mask(
 341:Drivers/BSP/Components/vl53l1cb/modules/vl53l1_nvm.c **** 			1,
 342:Drivers/BSP/Components/vl53l1cb/modules/vl53l1_nvm.c **** 			pbuffer + VL53L1_NVM__FMT__FAST_OSC_TRIM_MAX,
 343:Drivers/BSP/Components/vl53l1cb/modules/vl53l1_nvm.c **** 			0x0000007F,
 344:Drivers/BSP/Components/vl53l1cb/modules/vl53l1_nvm.c **** 			0,
 345:Drivers/BSP/Components/vl53l1cb/modules/vl53l1_nvm.c **** 			0);
 346:Drivers/BSP/Components/vl53l1cb/modules/vl53l1_nvm.c **** 	pdata->nvm__fmt__fast_osc_freq_set =
 347:Drivers/BSP/Components/vl53l1cb/modules/vl53l1_nvm.c **** 		(uint8_t)VL53L1_i2c_decode_with_mask(
 348:Drivers/BSP/Components/vl53l1cb/modules/vl53l1_nvm.c **** 			1,
 349:Drivers/BSP/Components/vl53l1cb/modules/vl53l1_nvm.c **** 			pbuffer + VL53L1_NVM__FMT__FAST_OSC_FREQ_SET,
 350:Drivers/BSP/Components/vl53l1cb/modules/vl53l1_nvm.c **** 			0x00000007,
 351:Drivers/BSP/Components/vl53l1cb/modules/vl53l1_nvm.c **** 			0,
 352:Drivers/BSP/Components/vl53l1cb/modules/vl53l1_nvm.c **** 			0);
 353:Drivers/BSP/Components/vl53l1cb/modules/vl53l1_nvm.c **** 	pdata->nvm__fmt__slow_osc_calibration =
 354:Drivers/BSP/Components/vl53l1cb/modules/vl53l1_nvm.c **** 		(uint16_t)VL53L1_i2c_decode_with_mask(
 355:Drivers/BSP/Components/vl53l1cb/modules/vl53l1_nvm.c **** 			2,
 356:Drivers/BSP/Components/vl53l1cb/modules/vl53l1_nvm.c **** 			pbuffer + VL53L1_NVM__FMT__SLOW_OSC_CALIBRATION,
 357:Drivers/BSP/Components/vl53l1cb/modules/vl53l1_nvm.c **** 			0x000003FF,
 358:Drivers/BSP/Components/vl53l1cb/modules/vl53l1_nvm.c **** 			0,
 359:Drivers/BSP/Components/vl53l1cb/modules/vl53l1_nvm.c **** 			0);
 360:Drivers/BSP/Components/vl53l1cb/modules/vl53l1_nvm.c **** 	pdata->nvm__vhv_config_unlock =
 361:Drivers/BSP/Components/vl53l1cb/modules/vl53l1_nvm.c **** 		(uint8_t)VL53L1_i2c_decode_with_mask(
 362:Drivers/BSP/Components/vl53l1cb/modules/vl53l1_nvm.c **** 			1,
 363:Drivers/BSP/Components/vl53l1cb/modules/vl53l1_nvm.c **** 			pbuffer + VL53L1_NVM__VHV_CONFIG_UNLOCK,
 364:Drivers/BSP/Components/vl53l1cb/modules/vl53l1_nvm.c **** 			0x000000FF,
 365:Drivers/BSP/Components/vl53l1cb/modules/vl53l1_nvm.c **** 			0,
 366:Drivers/BSP/Components/vl53l1cb/modules/vl53l1_nvm.c **** 			0);
 367:Drivers/BSP/Components/vl53l1cb/modules/vl53l1_nvm.c **** 	pdata->nvm__ref_selvddpix =
 368:Drivers/BSP/Components/vl53l1cb/modules/vl53l1_nvm.c **** 		(uint8_t)VL53L1_i2c_decode_with_mask(
 369:Drivers/BSP/Components/vl53l1cb/modules/vl53l1_nvm.c **** 			1,
 370:Drivers/BSP/Components/vl53l1cb/modules/vl53l1_nvm.c **** 			pbuffer + VL53L1_NVM__REF_SELVDDPIX,
 371:Drivers/BSP/Components/vl53l1cb/modules/vl53l1_nvm.c **** 			0x0000000F,
 372:Drivers/BSP/Components/vl53l1cb/modules/vl53l1_nvm.c **** 			0,
 373:Drivers/BSP/Components/vl53l1cb/modules/vl53l1_nvm.c **** 			0);
 374:Drivers/BSP/Components/vl53l1cb/modules/vl53l1_nvm.c **** 	pdata->nvm__ref_selvquench =
 375:Drivers/BSP/Components/vl53l1cb/modules/vl53l1_nvm.c **** 		(uint8_t)VL53L1_i2c_decode_with_mask(
 376:Drivers/BSP/Components/vl53l1cb/modules/vl53l1_nvm.c **** 			1,
 377:Drivers/BSP/Components/vl53l1cb/modules/vl53l1_nvm.c **** 			pbuffer + VL53L1_NVM__REF_SELVQUENCH,
 378:Drivers/BSP/Components/vl53l1cb/modules/vl53l1_nvm.c **** 			0x00000078,
 379:Drivers/BSP/Components/vl53l1cb/modules/vl53l1_nvm.c **** 			3,
 380:Drivers/BSP/Components/vl53l1cb/modules/vl53l1_nvm.c **** 			0);
 381:Drivers/BSP/Components/vl53l1cb/modules/vl53l1_nvm.c **** 	pdata->nvm__regavdd1v2_sel =
 382:Drivers/BSP/Components/vl53l1cb/modules/vl53l1_nvm.c **** 		(uint8_t)VL53L1_i2c_decode_with_mask(
ARM GAS  C:\Temp\ccKRfCgt.s 			page 16


 383:Drivers/BSP/Components/vl53l1cb/modules/vl53l1_nvm.c **** 			1,
 384:Drivers/BSP/Components/vl53l1cb/modules/vl53l1_nvm.c **** 			pbuffer + VL53L1_NVM__REGAVDD1V2_SEL_REGDVDD1V2_SEL,
 385:Drivers/BSP/Components/vl53l1cb/modules/vl53l1_nvm.c **** 			0x0000000C,
 386:Drivers/BSP/Components/vl53l1cb/modules/vl53l1_nvm.c **** 			2,
 387:Drivers/BSP/Components/vl53l1cb/modules/vl53l1_nvm.c **** 			0);
 388:Drivers/BSP/Components/vl53l1cb/modules/vl53l1_nvm.c **** 	pdata->nvm__regdvdd1v2_sel =
 389:Drivers/BSP/Components/vl53l1cb/modules/vl53l1_nvm.c **** 		(uint8_t)VL53L1_i2c_decode_with_mask(
 390:Drivers/BSP/Components/vl53l1cb/modules/vl53l1_nvm.c **** 			1,
 391:Drivers/BSP/Components/vl53l1cb/modules/vl53l1_nvm.c **** 			pbuffer + VL53L1_NVM__REGAVDD1V2_SEL_REGDVDD1V2_SEL,
 392:Drivers/BSP/Components/vl53l1cb/modules/vl53l1_nvm.c **** 			0x00000003,
 393:Drivers/BSP/Components/vl53l1cb/modules/vl53l1_nvm.c **** 			0,
 394:Drivers/BSP/Components/vl53l1cb/modules/vl53l1_nvm.c **** 			0);
 395:Drivers/BSP/Components/vl53l1cb/modules/vl53l1_nvm.c **** 	pdata->nvm__vhv_timeout__macrop =
 396:Drivers/BSP/Components/vl53l1cb/modules/vl53l1_nvm.c **** 		(uint8_t)VL53L1_i2c_decode_with_mask(
 397:Drivers/BSP/Components/vl53l1cb/modules/vl53l1_nvm.c **** 			1,
 398:Drivers/BSP/Components/vl53l1cb/modules/vl53l1_nvm.c **** 			pbuffer +
 399:Drivers/BSP/Components/vl53l1cb/modules/vl53l1_nvm.c **** 			VL53L1_NVM__VHV_CONFIG__TIMEOUT_MACROP_LOOP_BOUND,
 400:Drivers/BSP/Components/vl53l1cb/modules/vl53l1_nvm.c **** 			0x00000003,
 401:Drivers/BSP/Components/vl53l1cb/modules/vl53l1_nvm.c **** 			0,
 402:Drivers/BSP/Components/vl53l1cb/modules/vl53l1_nvm.c **** 			0);
 403:Drivers/BSP/Components/vl53l1cb/modules/vl53l1_nvm.c **** 	pdata->nvm__vhv_loop_bound =
 404:Drivers/BSP/Components/vl53l1cb/modules/vl53l1_nvm.c **** 		(uint8_t)VL53L1_i2c_decode_with_mask(
 405:Drivers/BSP/Components/vl53l1cb/modules/vl53l1_nvm.c **** 			1,
 406:Drivers/BSP/Components/vl53l1cb/modules/vl53l1_nvm.c **** 			pbuffer +
 407:Drivers/BSP/Components/vl53l1cb/modules/vl53l1_nvm.c **** 			VL53L1_NVM__VHV_CONFIG__TIMEOUT_MACROP_LOOP_BOUND,
 408:Drivers/BSP/Components/vl53l1cb/modules/vl53l1_nvm.c **** 			0x000000FC,
 409:Drivers/BSP/Components/vl53l1cb/modules/vl53l1_nvm.c **** 			2,
 410:Drivers/BSP/Components/vl53l1cb/modules/vl53l1_nvm.c **** 			0);
 411:Drivers/BSP/Components/vl53l1cb/modules/vl53l1_nvm.c **** 	pdata->nvm__vhv_count_threshold =
 412:Drivers/BSP/Components/vl53l1cb/modules/vl53l1_nvm.c **** 		(uint8_t)VL53L1_i2c_decode_with_mask(
 413:Drivers/BSP/Components/vl53l1cb/modules/vl53l1_nvm.c **** 			1,
 414:Drivers/BSP/Components/vl53l1cb/modules/vl53l1_nvm.c **** 			pbuffer + VL53L1_NVM__VHV_CONFIG__COUNT_THRESH,
 415:Drivers/BSP/Components/vl53l1cb/modules/vl53l1_nvm.c **** 			0x000000FF,
 416:Drivers/BSP/Components/vl53l1cb/modules/vl53l1_nvm.c **** 			0,
 417:Drivers/BSP/Components/vl53l1cb/modules/vl53l1_nvm.c **** 			0);
 418:Drivers/BSP/Components/vl53l1cb/modules/vl53l1_nvm.c **** 	pdata->nvm__vhv_offset =
 419:Drivers/BSP/Components/vl53l1cb/modules/vl53l1_nvm.c **** 		(uint8_t)VL53L1_i2c_decode_with_mask(
 420:Drivers/BSP/Components/vl53l1cb/modules/vl53l1_nvm.c **** 			1,
 421:Drivers/BSP/Components/vl53l1cb/modules/vl53l1_nvm.c **** 			pbuffer + VL53L1_NVM__VHV_CONFIG__OFFSET,
 422:Drivers/BSP/Components/vl53l1cb/modules/vl53l1_nvm.c **** 			0x0000003F,
 423:Drivers/BSP/Components/vl53l1cb/modules/vl53l1_nvm.c **** 			0,
 424:Drivers/BSP/Components/vl53l1cb/modules/vl53l1_nvm.c **** 			0);
 425:Drivers/BSP/Components/vl53l1cb/modules/vl53l1_nvm.c **** 	pdata->nvm__vhv_init_enable =
 426:Drivers/BSP/Components/vl53l1cb/modules/vl53l1_nvm.c **** 		(uint8_t)VL53L1_i2c_decode_with_mask(
 427:Drivers/BSP/Components/vl53l1cb/modules/vl53l1_nvm.c **** 			1,
 428:Drivers/BSP/Components/vl53l1cb/modules/vl53l1_nvm.c **** 			pbuffer + VL53L1_NVM__VHV_CONFIG__INIT,
 429:Drivers/BSP/Components/vl53l1cb/modules/vl53l1_nvm.c **** 			0x00000080,
 430:Drivers/BSP/Components/vl53l1cb/modules/vl53l1_nvm.c **** 			7,
 431:Drivers/BSP/Components/vl53l1cb/modules/vl53l1_nvm.c **** 			0);
 432:Drivers/BSP/Components/vl53l1cb/modules/vl53l1_nvm.c **** 	pdata->nvm__vhv_init_value =
 433:Drivers/BSP/Components/vl53l1cb/modules/vl53l1_nvm.c **** 		(uint8_t)VL53L1_i2c_decode_with_mask(
 434:Drivers/BSP/Components/vl53l1cb/modules/vl53l1_nvm.c **** 			1,
 435:Drivers/BSP/Components/vl53l1cb/modules/vl53l1_nvm.c **** 			pbuffer + VL53L1_NVM__VHV_CONFIG__INIT,
 436:Drivers/BSP/Components/vl53l1cb/modules/vl53l1_nvm.c **** 			0x0000003F,
 437:Drivers/BSP/Components/vl53l1cb/modules/vl53l1_nvm.c **** 			0,
 438:Drivers/BSP/Components/vl53l1cb/modules/vl53l1_nvm.c **** 			0);
 439:Drivers/BSP/Components/vl53l1cb/modules/vl53l1_nvm.c **** 	pdata->nvm__laser_safety_vcsel_trim_ll =
ARM GAS  C:\Temp\ccKRfCgt.s 			page 17


 440:Drivers/BSP/Components/vl53l1cb/modules/vl53l1_nvm.c **** 		(uint8_t)VL53L1_i2c_decode_with_mask(
 441:Drivers/BSP/Components/vl53l1cb/modules/vl53l1_nvm.c **** 			1,
 442:Drivers/BSP/Components/vl53l1cb/modules/vl53l1_nvm.c **** 			pbuffer + VL53L1_NVM__LASER_SAFETY__VCSEL_TRIM_LL,
 443:Drivers/BSP/Components/vl53l1cb/modules/vl53l1_nvm.c **** 			0x00000007,
 444:Drivers/BSP/Components/vl53l1cb/modules/vl53l1_nvm.c **** 			0,
 445:Drivers/BSP/Components/vl53l1cb/modules/vl53l1_nvm.c **** 			0);
 446:Drivers/BSP/Components/vl53l1cb/modules/vl53l1_nvm.c **** 	pdata->nvm__laser_safety_vcsel_selion_ll =
 447:Drivers/BSP/Components/vl53l1cb/modules/vl53l1_nvm.c **** 		(uint8_t)VL53L1_i2c_decode_with_mask(
 448:Drivers/BSP/Components/vl53l1cb/modules/vl53l1_nvm.c **** 			1,
 449:Drivers/BSP/Components/vl53l1cb/modules/vl53l1_nvm.c **** 			pbuffer + VL53L1_NVM__LASER_SAFETY__VCSEL_SELION_LL,
 450:Drivers/BSP/Components/vl53l1cb/modules/vl53l1_nvm.c **** 			0x0000003F,
 451:Drivers/BSP/Components/vl53l1cb/modules/vl53l1_nvm.c **** 			0,
 452:Drivers/BSP/Components/vl53l1cb/modules/vl53l1_nvm.c **** 			0);
 453:Drivers/BSP/Components/vl53l1cb/modules/vl53l1_nvm.c **** 	pdata->nvm__laser_safety_vcsel_selion_max_ll =
 454:Drivers/BSP/Components/vl53l1cb/modules/vl53l1_nvm.c **** 		(uint8_t)VL53L1_i2c_decode_with_mask(
 455:Drivers/BSP/Components/vl53l1cb/modules/vl53l1_nvm.c **** 			1,
 456:Drivers/BSP/Components/vl53l1cb/modules/vl53l1_nvm.c **** 			pbuffer + VL53L1_NVM__LASER_SAFETY__VCSEL_SELION_MAX_LL,
 457:Drivers/BSP/Components/vl53l1cb/modules/vl53l1_nvm.c **** 			0x0000003F,
 458:Drivers/BSP/Components/vl53l1cb/modules/vl53l1_nvm.c **** 			0,
 459:Drivers/BSP/Components/vl53l1cb/modules/vl53l1_nvm.c **** 			0);
 460:Drivers/BSP/Components/vl53l1cb/modules/vl53l1_nvm.c **** 	pdata->nvm__laser_safety_mult_ll =
 461:Drivers/BSP/Components/vl53l1cb/modules/vl53l1_nvm.c **** 		(uint8_t)VL53L1_i2c_decode_with_mask(
 462:Drivers/BSP/Components/vl53l1cb/modules/vl53l1_nvm.c **** 			1,
 463:Drivers/BSP/Components/vl53l1cb/modules/vl53l1_nvm.c **** 			pbuffer + VL53L1_NVM__LASER_SAFETY__MULT_LL,
 464:Drivers/BSP/Components/vl53l1cb/modules/vl53l1_nvm.c **** 			0x0000003F,
 465:Drivers/BSP/Components/vl53l1cb/modules/vl53l1_nvm.c **** 			0,
 466:Drivers/BSP/Components/vl53l1cb/modules/vl53l1_nvm.c **** 			0);
 467:Drivers/BSP/Components/vl53l1cb/modules/vl53l1_nvm.c **** 	pdata->nvm__laser_safety_clip_ll =
 468:Drivers/BSP/Components/vl53l1cb/modules/vl53l1_nvm.c **** 		(uint8_t)VL53L1_i2c_decode_with_mask(
 469:Drivers/BSP/Components/vl53l1cb/modules/vl53l1_nvm.c **** 			1,
 470:Drivers/BSP/Components/vl53l1cb/modules/vl53l1_nvm.c **** 			pbuffer + VL53L1_NVM__LASER_SAFETY__CLIP_LL,
 471:Drivers/BSP/Components/vl53l1cb/modules/vl53l1_nvm.c **** 			0x0000003F,
 472:Drivers/BSP/Components/vl53l1cb/modules/vl53l1_nvm.c **** 			0,
 473:Drivers/BSP/Components/vl53l1cb/modules/vl53l1_nvm.c **** 			0);
 474:Drivers/BSP/Components/vl53l1cb/modules/vl53l1_nvm.c **** 	pdata->nvm__laser_safety_vcsel_trim_ld =
 475:Drivers/BSP/Components/vl53l1cb/modules/vl53l1_nvm.c **** 		(uint8_t)VL53L1_i2c_decode_with_mask(
 476:Drivers/BSP/Components/vl53l1cb/modules/vl53l1_nvm.c **** 			1,
 477:Drivers/BSP/Components/vl53l1cb/modules/vl53l1_nvm.c **** 			pbuffer + VL53L1_NVM__LASER_SAFETY__VCSEL_TRIM_LD,
 478:Drivers/BSP/Components/vl53l1cb/modules/vl53l1_nvm.c **** 			0x00000007,
 479:Drivers/BSP/Components/vl53l1cb/modules/vl53l1_nvm.c **** 			0,
 480:Drivers/BSP/Components/vl53l1cb/modules/vl53l1_nvm.c **** 			0);
 481:Drivers/BSP/Components/vl53l1cb/modules/vl53l1_nvm.c **** 	pdata->nvm__laser_safety_vcsel_selion_ld =
 482:Drivers/BSP/Components/vl53l1cb/modules/vl53l1_nvm.c **** 		(uint8_t)VL53L1_i2c_decode_with_mask(
 483:Drivers/BSP/Components/vl53l1cb/modules/vl53l1_nvm.c **** 			1,
 484:Drivers/BSP/Components/vl53l1cb/modules/vl53l1_nvm.c **** 			pbuffer + VL53L1_NVM__LASER_SAFETY__VCSEL_SELION_LD,
 485:Drivers/BSP/Components/vl53l1cb/modules/vl53l1_nvm.c **** 			0x0000003F,
 486:Drivers/BSP/Components/vl53l1cb/modules/vl53l1_nvm.c **** 			0,
 487:Drivers/BSP/Components/vl53l1cb/modules/vl53l1_nvm.c **** 			0);
 488:Drivers/BSP/Components/vl53l1cb/modules/vl53l1_nvm.c **** 	pdata->nvm__laser_safety_vcsel_selion_max_ld =
 489:Drivers/BSP/Components/vl53l1cb/modules/vl53l1_nvm.c **** 		(uint8_t)VL53L1_i2c_decode_with_mask(
 490:Drivers/BSP/Components/vl53l1cb/modules/vl53l1_nvm.c **** 			1,
 491:Drivers/BSP/Components/vl53l1cb/modules/vl53l1_nvm.c **** 			pbuffer + VL53L1_NVM__LASER_SAFETY__VCSEL_SELION_MAX_LD,
 492:Drivers/BSP/Components/vl53l1cb/modules/vl53l1_nvm.c **** 			0x0000003F,
 493:Drivers/BSP/Components/vl53l1cb/modules/vl53l1_nvm.c **** 			0,
 494:Drivers/BSP/Components/vl53l1cb/modules/vl53l1_nvm.c **** 			0);
 495:Drivers/BSP/Components/vl53l1cb/modules/vl53l1_nvm.c **** 	pdata->nvm__laser_safety_mult_ld =
 496:Drivers/BSP/Components/vl53l1cb/modules/vl53l1_nvm.c **** 		(uint8_t)VL53L1_i2c_decode_with_mask(
ARM GAS  C:\Temp\ccKRfCgt.s 			page 18


 497:Drivers/BSP/Components/vl53l1cb/modules/vl53l1_nvm.c **** 			1,
 498:Drivers/BSP/Components/vl53l1cb/modules/vl53l1_nvm.c **** 			pbuffer + VL53L1_NVM__LASER_SAFETY__MULT_LD,
 499:Drivers/BSP/Components/vl53l1cb/modules/vl53l1_nvm.c **** 			0x0000003F,
 500:Drivers/BSP/Components/vl53l1cb/modules/vl53l1_nvm.c **** 			0,
 501:Drivers/BSP/Components/vl53l1cb/modules/vl53l1_nvm.c **** 			0);
 502:Drivers/BSP/Components/vl53l1cb/modules/vl53l1_nvm.c **** 	pdata->nvm__laser_safety_clip_ld =
 503:Drivers/BSP/Components/vl53l1cb/modules/vl53l1_nvm.c **** 		(uint8_t)VL53L1_i2c_decode_with_mask(
 504:Drivers/BSP/Components/vl53l1cb/modules/vl53l1_nvm.c **** 			1,
 505:Drivers/BSP/Components/vl53l1cb/modules/vl53l1_nvm.c **** 			pbuffer + VL53L1_NVM__LASER_SAFETY__CLIP_LD,
 506:Drivers/BSP/Components/vl53l1cb/modules/vl53l1_nvm.c **** 			0x0000003F,
 507:Drivers/BSP/Components/vl53l1cb/modules/vl53l1_nvm.c **** 			0,
 508:Drivers/BSP/Components/vl53l1cb/modules/vl53l1_nvm.c **** 			0);
 509:Drivers/BSP/Components/vl53l1cb/modules/vl53l1_nvm.c **** 	pdata->nvm__laser_safety_lock_byte =
 510:Drivers/BSP/Components/vl53l1cb/modules/vl53l1_nvm.c **** 		(uint8_t)VL53L1_i2c_decode_with_mask(
 511:Drivers/BSP/Components/vl53l1cb/modules/vl53l1_nvm.c **** 			1,
 512:Drivers/BSP/Components/vl53l1cb/modules/vl53l1_nvm.c **** 			pbuffer + VL53L1_NVM__LASER_SAFETY_LOCK_BYTE,
 513:Drivers/BSP/Components/vl53l1cb/modules/vl53l1_nvm.c **** 			0x000000FF,
 514:Drivers/BSP/Components/vl53l1cb/modules/vl53l1_nvm.c **** 			0,
 515:Drivers/BSP/Components/vl53l1cb/modules/vl53l1_nvm.c **** 			0);
 516:Drivers/BSP/Components/vl53l1cb/modules/vl53l1_nvm.c **** 	pdata->nvm__laser_safety_unlock_byte =
 517:Drivers/BSP/Components/vl53l1cb/modules/vl53l1_nvm.c **** 		(uint8_t)VL53L1_i2c_decode_with_mask(
 518:Drivers/BSP/Components/vl53l1cb/modules/vl53l1_nvm.c **** 			1,
 519:Drivers/BSP/Components/vl53l1cb/modules/vl53l1_nvm.c **** 			pbuffer + VL53L1_NVM__LASER_SAFETY_UNLOCK_BYTE,
 520:Drivers/BSP/Components/vl53l1cb/modules/vl53l1_nvm.c **** 			0x000000FF,
 521:Drivers/BSP/Components/vl53l1cb/modules/vl53l1_nvm.c **** 			0,
 522:Drivers/BSP/Components/vl53l1cb/modules/vl53l1_nvm.c **** 			0);
 523:Drivers/BSP/Components/vl53l1cb/modules/vl53l1_nvm.c **** 
 524:Drivers/BSP/Components/vl53l1cb/modules/vl53l1_nvm.c **** 
 525:Drivers/BSP/Components/vl53l1cb/modules/vl53l1_nvm.c **** 
 526:Drivers/BSP/Components/vl53l1cb/modules/vl53l1_nvm.c **** 	ptmp = pbuffer + VL53L1_NVM__EWS__SPAD_ENABLES_RTN_0_;
 527:Drivers/BSP/Components/vl53l1cb/modules/vl53l1_nvm.c **** 	for (i = 0 ; i < VL53L1_RTN_SPAD_BUFFER_SIZE ; i++)
 528:Drivers/BSP/Components/vl53l1cb/modules/vl53l1_nvm.c **** 		pdata->nvm__ews__spad_enables_rtn[i] = *ptmp++;
 529:Drivers/BSP/Components/vl53l1cb/modules/vl53l1_nvm.c **** 
 530:Drivers/BSP/Components/vl53l1cb/modules/vl53l1_nvm.c **** 	ptmp = pbuffer + VL53L1_NVM__EWS__SPAD_ENABLES_REF__LOC1_0_;
 531:Drivers/BSP/Components/vl53l1cb/modules/vl53l1_nvm.c **** 	for (i = 0 ; i < VL53L1_REF_SPAD_BUFFER_SIZE ; i++)
 532:Drivers/BSP/Components/vl53l1cb/modules/vl53l1_nvm.c **** 		pdata->nvm__ews__spad_enables_ref__loc1[i] = *ptmp++;
 533:Drivers/BSP/Components/vl53l1cb/modules/vl53l1_nvm.c **** 
 534:Drivers/BSP/Components/vl53l1cb/modules/vl53l1_nvm.c **** 	ptmp = pbuffer + VL53L1_NVM__EWS__SPAD_ENABLES_REF__LOC2_0_;
 535:Drivers/BSP/Components/vl53l1cb/modules/vl53l1_nvm.c **** 	for (i = 0 ; i < VL53L1_REF_SPAD_BUFFER_SIZE ; i++)
 536:Drivers/BSP/Components/vl53l1cb/modules/vl53l1_nvm.c **** 		pdata->nvm__ews__spad_enables_ref__loc2[i] = *ptmp++;
 537:Drivers/BSP/Components/vl53l1cb/modules/vl53l1_nvm.c **** 
 538:Drivers/BSP/Components/vl53l1cb/modules/vl53l1_nvm.c **** 	ptmp = pbuffer + VL53L1_NVM__EWS__SPAD_ENABLES_REF__LOC3_0_;
 539:Drivers/BSP/Components/vl53l1cb/modules/vl53l1_nvm.c **** 	for (i = 0 ; i < VL53L1_REF_SPAD_BUFFER_SIZE ; i++)
 540:Drivers/BSP/Components/vl53l1cb/modules/vl53l1_nvm.c **** 		pdata->nvm__ews__spad_enables_ref__loc3[i] = *ptmp++;
 541:Drivers/BSP/Components/vl53l1cb/modules/vl53l1_nvm.c **** 
 542:Drivers/BSP/Components/vl53l1cb/modules/vl53l1_nvm.c **** 
 543:Drivers/BSP/Components/vl53l1cb/modules/vl53l1_nvm.c **** 
 544:Drivers/BSP/Components/vl53l1cb/modules/vl53l1_nvm.c **** 	ptmp = pbuffer + VL53L1_NVM__FMT__SPAD_ENABLES_RTN_0_;
 545:Drivers/BSP/Components/vl53l1cb/modules/vl53l1_nvm.c **** 	for (i = 0 ; i < VL53L1_RTN_SPAD_BUFFER_SIZE ; i++)
 546:Drivers/BSP/Components/vl53l1cb/modules/vl53l1_nvm.c **** 		pdata->nvm__fmt__spad_enables_rtn[i] = *ptmp++;
 547:Drivers/BSP/Components/vl53l1cb/modules/vl53l1_nvm.c **** 
 548:Drivers/BSP/Components/vl53l1cb/modules/vl53l1_nvm.c **** 	ptmp = pbuffer + VL53L1_NVM__FMT__SPAD_ENABLES_REF__LOC1_0_;
 549:Drivers/BSP/Components/vl53l1cb/modules/vl53l1_nvm.c **** 	for (i = 0 ; i < VL53L1_REF_SPAD_BUFFER_SIZE ; i++)
 550:Drivers/BSP/Components/vl53l1cb/modules/vl53l1_nvm.c **** 		pdata->nvm__fmt__spad_enables_ref__loc1[i] = *ptmp++;
 551:Drivers/BSP/Components/vl53l1cb/modules/vl53l1_nvm.c **** 
 552:Drivers/BSP/Components/vl53l1cb/modules/vl53l1_nvm.c **** 	ptmp = pbuffer + VL53L1_NVM__FMT__SPAD_ENABLES_REF__LOC2_0_;
 553:Drivers/BSP/Components/vl53l1cb/modules/vl53l1_nvm.c **** 	for (i = 0 ; i < VL53L1_REF_SPAD_BUFFER_SIZE ; i++)
ARM GAS  C:\Temp\ccKRfCgt.s 			page 19


 554:Drivers/BSP/Components/vl53l1cb/modules/vl53l1_nvm.c **** 		pdata->nvm__fmt__spad_enables_ref__loc2[i] = *ptmp++;
 555:Drivers/BSP/Components/vl53l1cb/modules/vl53l1_nvm.c **** 
 556:Drivers/BSP/Components/vl53l1cb/modules/vl53l1_nvm.c **** 	ptmp = pbuffer + VL53L1_NVM__FMT__SPAD_ENABLES_REF__LOC3_0_;
 557:Drivers/BSP/Components/vl53l1cb/modules/vl53l1_nvm.c **** 	for (i = 0 ; i < VL53L1_REF_SPAD_BUFFER_SIZE ; i++)
 558:Drivers/BSP/Components/vl53l1cb/modules/vl53l1_nvm.c **** 		pdata->nvm__fmt__spad_enables_ref__loc3[i] = *ptmp++;
 559:Drivers/BSP/Components/vl53l1cb/modules/vl53l1_nvm.c **** 
 560:Drivers/BSP/Components/vl53l1cb/modules/vl53l1_nvm.c **** 
 561:Drivers/BSP/Components/vl53l1cb/modules/vl53l1_nvm.c **** 	pdata->nvm__fmt__roi_config__mode_roi_centre_spad =
 562:Drivers/BSP/Components/vl53l1cb/modules/vl53l1_nvm.c **** 		(uint8_t)VL53L1_i2c_decode_with_mask(
 563:Drivers/BSP/Components/vl53l1cb/modules/vl53l1_nvm.c **** 			1,
 564:Drivers/BSP/Components/vl53l1cb/modules/vl53l1_nvm.c **** 			pbuffer +
 565:Drivers/BSP/Components/vl53l1cb/modules/vl53l1_nvm.c **** 			VL53L1_NVM__FMT__ROI_CONFIG__MODE_ROI_CENTRE_SPAD,
 566:Drivers/BSP/Components/vl53l1cb/modules/vl53l1_nvm.c **** 			0x000000FF,
 567:Drivers/BSP/Components/vl53l1cb/modules/vl53l1_nvm.c **** 			0,
 568:Drivers/BSP/Components/vl53l1cb/modules/vl53l1_nvm.c **** 			0);
 569:Drivers/BSP/Components/vl53l1cb/modules/vl53l1_nvm.c **** 	pdata->nvm__fmt__roi_config__mode_roi_x_size =
 570:Drivers/BSP/Components/vl53l1cb/modules/vl53l1_nvm.c **** 		(uint8_t)VL53L1_i2c_decode_with_mask(
 571:Drivers/BSP/Components/vl53l1cb/modules/vl53l1_nvm.c **** 			1,
 572:Drivers/BSP/Components/vl53l1cb/modules/vl53l1_nvm.c **** 			pbuffer +
 573:Drivers/BSP/Components/vl53l1cb/modules/vl53l1_nvm.c **** 			VL53L1_NVM__FMT__ROI_CONFIG__MODE_ROI_XY_SIZE,
 574:Drivers/BSP/Components/vl53l1cb/modules/vl53l1_nvm.c **** 			0x000000F0,
 575:Drivers/BSP/Components/vl53l1cb/modules/vl53l1_nvm.c **** 			4,
 576:Drivers/BSP/Components/vl53l1cb/modules/vl53l1_nvm.c **** 			0);
 577:Drivers/BSP/Components/vl53l1cb/modules/vl53l1_nvm.c **** 	pdata->nvm__fmt__roi_config__mode_roi_y_size =
 578:Drivers/BSP/Components/vl53l1cb/modules/vl53l1_nvm.c **** 		(uint8_t)VL53L1_i2c_decode_with_mask(
 579:Drivers/BSP/Components/vl53l1cb/modules/vl53l1_nvm.c **** 			1,
 580:Drivers/BSP/Components/vl53l1cb/modules/vl53l1_nvm.c **** 			pbuffer + VL53L1_NVM__FMT__ROI_CONFIG__MODE_ROI_XY_SIZE,
 581:Drivers/BSP/Components/vl53l1cb/modules/vl53l1_nvm.c **** 			0x0000000F,
 582:Drivers/BSP/Components/vl53l1cb/modules/vl53l1_nvm.c **** 			0,
 583:Drivers/BSP/Components/vl53l1cb/modules/vl53l1_nvm.c **** 			0);
 584:Drivers/BSP/Components/vl53l1cb/modules/vl53l1_nvm.c **** 	pdata->nvm__fmt__ref_spad_apply__num_requested_ref_spad =
 585:Drivers/BSP/Components/vl53l1cb/modules/vl53l1_nvm.c **** 		(uint8_t)VL53L1_i2c_decode_with_mask(
 586:Drivers/BSP/Components/vl53l1cb/modules/vl53l1_nvm.c **** 			1,
 587:Drivers/BSP/Components/vl53l1cb/modules/vl53l1_nvm.c **** 			pbuffer +
 588:Drivers/BSP/Components/vl53l1cb/modules/vl53l1_nvm.c **** 			VL53L1_NVM__FMT__REF_SPAD_APPLY__NUM_REQUESTED_REF_SPAD,
 589:Drivers/BSP/Components/vl53l1cb/modules/vl53l1_nvm.c **** 			0x000000FF,
 590:Drivers/BSP/Components/vl53l1cb/modules/vl53l1_nvm.c **** 			0,
 591:Drivers/BSP/Components/vl53l1cb/modules/vl53l1_nvm.c **** 			0);
 592:Drivers/BSP/Components/vl53l1cb/modules/vl53l1_nvm.c **** 	pdata->nvm__fmt__ref_spad_man__ref_location =
 593:Drivers/BSP/Components/vl53l1cb/modules/vl53l1_nvm.c **** 		(uint8_t)VL53L1_i2c_decode_with_mask(
 594:Drivers/BSP/Components/vl53l1cb/modules/vl53l1_nvm.c **** 			1,
 595:Drivers/BSP/Components/vl53l1cb/modules/vl53l1_nvm.c **** 			pbuffer + VL53L1_NVM__FMT__REF_SPAD_MAN__REF_LOCATION,
 596:Drivers/BSP/Components/vl53l1cb/modules/vl53l1_nvm.c **** 			0x00000003,
 597:Drivers/BSP/Components/vl53l1cb/modules/vl53l1_nvm.c **** 			0,
 598:Drivers/BSP/Components/vl53l1cb/modules/vl53l1_nvm.c **** 			0);
 599:Drivers/BSP/Components/vl53l1cb/modules/vl53l1_nvm.c **** 	pdata->nvm__fmt__mm_config__inner_offset_mm =
 600:Drivers/BSP/Components/vl53l1cb/modules/vl53l1_nvm.c **** 		(uint16_t)VL53L1_i2c_decode_with_mask(
 601:Drivers/BSP/Components/vl53l1cb/modules/vl53l1_nvm.c **** 			2,
 602:Drivers/BSP/Components/vl53l1cb/modules/vl53l1_nvm.c **** 			pbuffer + VL53L1_NVM__FMT__MM_CONFIG__INNER_OFFSET_MM,
 603:Drivers/BSP/Components/vl53l1cb/modules/vl53l1_nvm.c **** 			0x0000FFFF,
 604:Drivers/BSP/Components/vl53l1cb/modules/vl53l1_nvm.c **** 			0,
 605:Drivers/BSP/Components/vl53l1cb/modules/vl53l1_nvm.c **** 			0);
 606:Drivers/BSP/Components/vl53l1cb/modules/vl53l1_nvm.c **** 	pdata->nvm__fmt__mm_config__outer_offset_mm =
 607:Drivers/BSP/Components/vl53l1cb/modules/vl53l1_nvm.c **** 		(uint16_t)VL53L1_i2c_decode_with_mask(
 608:Drivers/BSP/Components/vl53l1cb/modules/vl53l1_nvm.c **** 			2,
 609:Drivers/BSP/Components/vl53l1cb/modules/vl53l1_nvm.c **** 			pbuffer + VL53L1_NVM__FMT__MM_CONFIG__OUTER_OFFSET_MM,
 610:Drivers/BSP/Components/vl53l1cb/modules/vl53l1_nvm.c **** 			0x0000FFFF,
ARM GAS  C:\Temp\ccKRfCgt.s 			page 20


 611:Drivers/BSP/Components/vl53l1cb/modules/vl53l1_nvm.c **** 			0,
 612:Drivers/BSP/Components/vl53l1cb/modules/vl53l1_nvm.c **** 			0);
 613:Drivers/BSP/Components/vl53l1cb/modules/vl53l1_nvm.c **** 	pdata->nvm__fmt__algo_part_to_part_range_offset_mm =
 614:Drivers/BSP/Components/vl53l1cb/modules/vl53l1_nvm.c **** 		(uint16_t)VL53L1_i2c_decode_with_mask(
 615:Drivers/BSP/Components/vl53l1cb/modules/vl53l1_nvm.c **** 			2,
 616:Drivers/BSP/Components/vl53l1cb/modules/vl53l1_nvm.c **** 			pbuffer +
 617:Drivers/BSP/Components/vl53l1cb/modules/vl53l1_nvm.c **** 			VL53L1_NVM__FMT__ALGO__PART_TO_PART_RANGE_OFFSET_MM,
 618:Drivers/BSP/Components/vl53l1cb/modules/vl53l1_nvm.c **** 			0x00000FFF,
 619:Drivers/BSP/Components/vl53l1cb/modules/vl53l1_nvm.c **** 			0,
 620:Drivers/BSP/Components/vl53l1cb/modules/vl53l1_nvm.c **** 			0);
 621:Drivers/BSP/Components/vl53l1cb/modules/vl53l1_nvm.c **** 	pdata->nvm__fmt__algo__crosstalk_compensation_plane_offset_kcps =
 622:Drivers/BSP/Components/vl53l1cb/modules/vl53l1_nvm.c **** 		(uint16_t)VL53L1_i2c_decode_with_mask(
 623:Drivers/BSP/Components/vl53l1cb/modules/vl53l1_nvm.c **** 		2,
 624:Drivers/BSP/Components/vl53l1cb/modules/vl53l1_nvm.c **** 		pbuffer +
 625:Drivers/BSP/Components/vl53l1cb/modules/vl53l1_nvm.c **** 		VL53L1_NVM__FMT__ALGO__CROSSTALK_COMPENSATION_PLANE_OFFSET_KCPS,
 626:Drivers/BSP/Components/vl53l1cb/modules/vl53l1_nvm.c **** 		0x0000FFFF,
 627:Drivers/BSP/Components/vl53l1cb/modules/vl53l1_nvm.c **** 		0,
 628:Drivers/BSP/Components/vl53l1cb/modules/vl53l1_nvm.c **** 		0);
 629:Drivers/BSP/Components/vl53l1cb/modules/vl53l1_nvm.c **** 	pdata->nvm__fmt__algo__crosstalk_compensation_x_plane_gradient_kcps =
 630:Drivers/BSP/Components/vl53l1cb/modules/vl53l1_nvm.c **** 	(uint16_t)VL53L1_i2c_decode_with_mask(
 631:Drivers/BSP/Components/vl53l1cb/modules/vl53l1_nvm.c **** 	2,
 632:Drivers/BSP/Components/vl53l1cb/modules/vl53l1_nvm.c **** 	pbuffer +
 633:Drivers/BSP/Components/vl53l1cb/modules/vl53l1_nvm.c **** 	VL53L1_NVM__FMT__ALGO__CROSSTALK_COMPENSATION_X_PLANE_GRADIENT_KCPS,
 634:Drivers/BSP/Components/vl53l1cb/modules/vl53l1_nvm.c **** 	0x0000FFFF,
 635:Drivers/BSP/Components/vl53l1cb/modules/vl53l1_nvm.c **** 	0,
 636:Drivers/BSP/Components/vl53l1cb/modules/vl53l1_nvm.c **** 	0);
 637:Drivers/BSP/Components/vl53l1cb/modules/vl53l1_nvm.c **** 	pdata->nvm__fmt__algo__crosstalk_compensation_y_plane_gradient_kcps =
 638:Drivers/BSP/Components/vl53l1cb/modules/vl53l1_nvm.c **** 	(uint16_t)VL53L1_i2c_decode_with_mask(
 639:Drivers/BSP/Components/vl53l1cb/modules/vl53l1_nvm.c **** 	2,
 640:Drivers/BSP/Components/vl53l1cb/modules/vl53l1_nvm.c **** 	pbuffer +
 641:Drivers/BSP/Components/vl53l1cb/modules/vl53l1_nvm.c **** 	VL53L1_NVM__FMT__ALGO__CROSSTALK_COMPENSATION_Y_PLANE_GRADIENT_KCPS,
 642:Drivers/BSP/Components/vl53l1cb/modules/vl53l1_nvm.c **** 	0x0000FFFF,
 643:Drivers/BSP/Components/vl53l1cb/modules/vl53l1_nvm.c **** 	0,
 644:Drivers/BSP/Components/vl53l1cb/modules/vl53l1_nvm.c **** 	0);
 645:Drivers/BSP/Components/vl53l1cb/modules/vl53l1_nvm.c **** 	pdata->nvm__fmt__spare__host_config__nvm_config_spare_0 =
 646:Drivers/BSP/Components/vl53l1cb/modules/vl53l1_nvm.c **** 		(uint8_t)VL53L1_i2c_decode_with_mask(
 647:Drivers/BSP/Components/vl53l1cb/modules/vl53l1_nvm.c **** 			1,
 648:Drivers/BSP/Components/vl53l1cb/modules/vl53l1_nvm.c **** 			pbuffer +
 649:Drivers/BSP/Components/vl53l1cb/modules/vl53l1_nvm.c **** 			VL53L1_NVM__FMT__SPARE_HOST_CONFIG__NVM_CONFIG_SPARE_0,
 650:Drivers/BSP/Components/vl53l1cb/modules/vl53l1_nvm.c **** 			0x000000FF,
 651:Drivers/BSP/Components/vl53l1cb/modules/vl53l1_nvm.c **** 			0,
 652:Drivers/BSP/Components/vl53l1cb/modules/vl53l1_nvm.c **** 			0);
 653:Drivers/BSP/Components/vl53l1cb/modules/vl53l1_nvm.c **** 	pdata->nvm__fmt__spare__host_config__nvm_config_spare_1 =
 654:Drivers/BSP/Components/vl53l1cb/modules/vl53l1_nvm.c **** 		(uint8_t)VL53L1_i2c_decode_with_mask(
 655:Drivers/BSP/Components/vl53l1cb/modules/vl53l1_nvm.c **** 			1,
 656:Drivers/BSP/Components/vl53l1cb/modules/vl53l1_nvm.c **** 			pbuffer +
 657:Drivers/BSP/Components/vl53l1cb/modules/vl53l1_nvm.c **** 			VL53L1_NVM__FMT__SPARE_HOST_CONFIG__NVM_CONFIG_SPARE_1,
 658:Drivers/BSP/Components/vl53l1cb/modules/vl53l1_nvm.c **** 			0x000000FF,
 659:Drivers/BSP/Components/vl53l1cb/modules/vl53l1_nvm.c **** 			0,
 660:Drivers/BSP/Components/vl53l1cb/modules/vl53l1_nvm.c **** 			0);
 661:Drivers/BSP/Components/vl53l1cb/modules/vl53l1_nvm.c **** 	pdata->nvm__customer_space_programmed =
 662:Drivers/BSP/Components/vl53l1cb/modules/vl53l1_nvm.c **** 		(uint8_t)VL53L1_i2c_decode_with_mask(
 663:Drivers/BSP/Components/vl53l1cb/modules/vl53l1_nvm.c **** 			1,
 664:Drivers/BSP/Components/vl53l1cb/modules/vl53l1_nvm.c **** 			pbuffer + VL53L1_NVM__CUSTOMER_NVM_SPACE_PROGRAMMED,
 665:Drivers/BSP/Components/vl53l1cb/modules/vl53l1_nvm.c **** 			0x000000FF,
 666:Drivers/BSP/Components/vl53l1cb/modules/vl53l1_nvm.c **** 			0,
 667:Drivers/BSP/Components/vl53l1cb/modules/vl53l1_nvm.c **** 			0);
ARM GAS  C:\Temp\ccKRfCgt.s 			page 21


 668:Drivers/BSP/Components/vl53l1cb/modules/vl53l1_nvm.c **** 	pdata->nvm__cust__i2c_device_address =
 669:Drivers/BSP/Components/vl53l1cb/modules/vl53l1_nvm.c **** 		(uint8_t)VL53L1_i2c_decode_with_mask(
 670:Drivers/BSP/Components/vl53l1cb/modules/vl53l1_nvm.c **** 			1,
 671:Drivers/BSP/Components/vl53l1cb/modules/vl53l1_nvm.c **** 			pbuffer + VL53L1_NVM__CUST__I2C_SLAVE__DEVICE_ADDRESS,
 672:Drivers/BSP/Components/vl53l1cb/modules/vl53l1_nvm.c **** 			0x000000FF,
 673:Drivers/BSP/Components/vl53l1cb/modules/vl53l1_nvm.c **** 			0,
 674:Drivers/BSP/Components/vl53l1cb/modules/vl53l1_nvm.c **** 			0);
 675:Drivers/BSP/Components/vl53l1cb/modules/vl53l1_nvm.c **** 	pdata->nvm__cust__ref_spad_apply__num_requested_ref_spad =
 676:Drivers/BSP/Components/vl53l1cb/modules/vl53l1_nvm.c **** 		(uint8_t)VL53L1_i2c_decode_with_mask(
 677:Drivers/BSP/Components/vl53l1cb/modules/vl53l1_nvm.c **** 		1,
 678:Drivers/BSP/Components/vl53l1cb/modules/vl53l1_nvm.c **** 		pbuffer +
 679:Drivers/BSP/Components/vl53l1cb/modules/vl53l1_nvm.c **** 		VL53L1_NVM__CUST__REF_SPAD_APPLY__NUM_REQUESTED_REF_SPAD,
 680:Drivers/BSP/Components/vl53l1cb/modules/vl53l1_nvm.c **** 		0x000000FF,
 681:Drivers/BSP/Components/vl53l1cb/modules/vl53l1_nvm.c **** 		0,
 682:Drivers/BSP/Components/vl53l1cb/modules/vl53l1_nvm.c **** 		0);
 683:Drivers/BSP/Components/vl53l1cb/modules/vl53l1_nvm.c **** 	pdata->nvm__cust__ref_spad_man__ref_location =
 684:Drivers/BSP/Components/vl53l1cb/modules/vl53l1_nvm.c **** 		(uint8_t)VL53L1_i2c_decode_with_mask(
 685:Drivers/BSP/Components/vl53l1cb/modules/vl53l1_nvm.c **** 			1,
 686:Drivers/BSP/Components/vl53l1cb/modules/vl53l1_nvm.c **** 			pbuffer + VL53L1_NVM__CUST__REF_SPAD_MAN__REF_LOCATION,
 687:Drivers/BSP/Components/vl53l1cb/modules/vl53l1_nvm.c **** 			0x00000003,
 688:Drivers/BSP/Components/vl53l1cb/modules/vl53l1_nvm.c **** 			0,
 689:Drivers/BSP/Components/vl53l1cb/modules/vl53l1_nvm.c **** 			0);
 690:Drivers/BSP/Components/vl53l1cb/modules/vl53l1_nvm.c **** 	pdata->nvm__cust__mm_config__inner_offset_mm =
 691:Drivers/BSP/Components/vl53l1cb/modules/vl53l1_nvm.c **** 		(uint16_t)VL53L1_i2c_decode_with_mask(
 692:Drivers/BSP/Components/vl53l1cb/modules/vl53l1_nvm.c **** 			2,
 693:Drivers/BSP/Components/vl53l1cb/modules/vl53l1_nvm.c **** 			pbuffer + VL53L1_NVM__CUST__MM_CONFIG__INNER_OFFSET_MM,
 694:Drivers/BSP/Components/vl53l1cb/modules/vl53l1_nvm.c **** 			0x0000FFFF,
 695:Drivers/BSP/Components/vl53l1cb/modules/vl53l1_nvm.c **** 			0,
 696:Drivers/BSP/Components/vl53l1cb/modules/vl53l1_nvm.c **** 			0);
 697:Drivers/BSP/Components/vl53l1cb/modules/vl53l1_nvm.c **** 	pdata->nvm__cust__mm_config__outer_offset_mm =
 698:Drivers/BSP/Components/vl53l1cb/modules/vl53l1_nvm.c **** 		(uint16_t)VL53L1_i2c_decode_with_mask(
 699:Drivers/BSP/Components/vl53l1cb/modules/vl53l1_nvm.c **** 			2,
 700:Drivers/BSP/Components/vl53l1cb/modules/vl53l1_nvm.c **** 			pbuffer + VL53L1_NVM__CUST__MM_CONFIG__OUTER_OFFSET_MM,
 701:Drivers/BSP/Components/vl53l1cb/modules/vl53l1_nvm.c **** 			0x0000FFFF,
 702:Drivers/BSP/Components/vl53l1cb/modules/vl53l1_nvm.c **** 			0,
 703:Drivers/BSP/Components/vl53l1cb/modules/vl53l1_nvm.c **** 			0);
 704:Drivers/BSP/Components/vl53l1cb/modules/vl53l1_nvm.c **** 	pdata->nvm__cust__algo_part_to_part_range_offset_mm =
 705:Drivers/BSP/Components/vl53l1cb/modules/vl53l1_nvm.c **** 		(uint16_t)VL53L1_i2c_decode_with_mask(
 706:Drivers/BSP/Components/vl53l1cb/modules/vl53l1_nvm.c **** 			2,
 707:Drivers/BSP/Components/vl53l1cb/modules/vl53l1_nvm.c **** 			pbuffer +
 708:Drivers/BSP/Components/vl53l1cb/modules/vl53l1_nvm.c **** 			VL53L1_NVM__CUST__ALGO__PART_TO_PART_RANGE_OFFSET_MM,
 709:Drivers/BSP/Components/vl53l1cb/modules/vl53l1_nvm.c **** 			0x00000FFF,
 710:Drivers/BSP/Components/vl53l1cb/modules/vl53l1_nvm.c **** 			0,
 711:Drivers/BSP/Components/vl53l1cb/modules/vl53l1_nvm.c **** 			0);
 712:Drivers/BSP/Components/vl53l1cb/modules/vl53l1_nvm.c **** 	pdata->nvm__cust__algo__crosstalk_compensation_plane_offset_kcps =
 713:Drivers/BSP/Components/vl53l1cb/modules/vl53l1_nvm.c **** 	(uint16_t)VL53L1_i2c_decode_with_mask(
 714:Drivers/BSP/Components/vl53l1cb/modules/vl53l1_nvm.c **** 	2,
 715:Drivers/BSP/Components/vl53l1cb/modules/vl53l1_nvm.c **** 	pbuffer +
 716:Drivers/BSP/Components/vl53l1cb/modules/vl53l1_nvm.c **** 	VL53L1_NVM__CUST__ALGO__CROSSTALK_COMPENSATION_PLANE_OFFSET_KCPS,
 717:Drivers/BSP/Components/vl53l1cb/modules/vl53l1_nvm.c **** 	0x0000FFFF,
 718:Drivers/BSP/Components/vl53l1cb/modules/vl53l1_nvm.c **** 	0,
 719:Drivers/BSP/Components/vl53l1cb/modules/vl53l1_nvm.c **** 	0);
 720:Drivers/BSP/Components/vl53l1cb/modules/vl53l1_nvm.c **** 	pdata->nvm__cust__algo__crosstalk_compensation_x_plane_gradient_kcps =
 721:Drivers/BSP/Components/vl53l1cb/modules/vl53l1_nvm.c **** 	(uint16_t)VL53L1_i2c_decode_with_mask(
 722:Drivers/BSP/Components/vl53l1cb/modules/vl53l1_nvm.c **** 	2,
 723:Drivers/BSP/Components/vl53l1cb/modules/vl53l1_nvm.c **** 	pbuffer +
 724:Drivers/BSP/Components/vl53l1cb/modules/vl53l1_nvm.c **** 	VL53L1_NVM__CUST__ALGO__CROSSTALK_COMPENSATION_X_PLANE_GRADIENT_KCPS,
ARM GAS  C:\Temp\ccKRfCgt.s 			page 22


 725:Drivers/BSP/Components/vl53l1cb/modules/vl53l1_nvm.c **** 	0x0000FFFF,
 726:Drivers/BSP/Components/vl53l1cb/modules/vl53l1_nvm.c **** 	0,
 727:Drivers/BSP/Components/vl53l1cb/modules/vl53l1_nvm.c **** 	0);
 728:Drivers/BSP/Components/vl53l1cb/modules/vl53l1_nvm.c **** 	pdata->nvm__cust__algo__crosstalk_compensation_y_plane_gradient_kcps =
 729:Drivers/BSP/Components/vl53l1cb/modules/vl53l1_nvm.c **** 	(uint16_t)VL53L1_i2c_decode_with_mask(
 730:Drivers/BSP/Components/vl53l1cb/modules/vl53l1_nvm.c **** 	2,
 731:Drivers/BSP/Components/vl53l1cb/modules/vl53l1_nvm.c **** 	pbuffer +
 732:Drivers/BSP/Components/vl53l1cb/modules/vl53l1_nvm.c **** 	VL53L1_NVM__CUST__ALGO__CROSSTALK_COMPENSATION_Y_PLANE_GRADIENT_KCPS,
 733:Drivers/BSP/Components/vl53l1cb/modules/vl53l1_nvm.c **** 	0x0000FFFF,
 734:Drivers/BSP/Components/vl53l1cb/modules/vl53l1_nvm.c **** 	0,
 735:Drivers/BSP/Components/vl53l1cb/modules/vl53l1_nvm.c **** 	0);
 736:Drivers/BSP/Components/vl53l1cb/modules/vl53l1_nvm.c **** 	pdata->nvm__cust__spare__host_config__nvm_config_spare_0 =
 737:Drivers/BSP/Components/vl53l1cb/modules/vl53l1_nvm.c **** 	(uint8_t)VL53L1_i2c_decode_with_mask(
 738:Drivers/BSP/Components/vl53l1cb/modules/vl53l1_nvm.c **** 	1,
 739:Drivers/BSP/Components/vl53l1cb/modules/vl53l1_nvm.c **** 	pbuffer + VL53L1_NVM__CUST__SPARE_HOST_CONFIG__NVM_CONFIG_SPARE_0,
 740:Drivers/BSP/Components/vl53l1cb/modules/vl53l1_nvm.c **** 	0x000000FF,
 741:Drivers/BSP/Components/vl53l1cb/modules/vl53l1_nvm.c **** 	0,
 742:Drivers/BSP/Components/vl53l1cb/modules/vl53l1_nvm.c **** 	0);
 743:Drivers/BSP/Components/vl53l1cb/modules/vl53l1_nvm.c **** 	pdata->nvm__cust__spare__host_config__nvm_config_spare_1 =
 744:Drivers/BSP/Components/vl53l1cb/modules/vl53l1_nvm.c **** 		(uint8_t)VL53L1_i2c_decode_with_mask(
 745:Drivers/BSP/Components/vl53l1cb/modules/vl53l1_nvm.c **** 		1,
 746:Drivers/BSP/Components/vl53l1cb/modules/vl53l1_nvm.c **** 		pbuffer +
 747:Drivers/BSP/Components/vl53l1cb/modules/vl53l1_nvm.c **** 		VL53L1_NVM__CUST__SPARE_HOST_CONFIG__NVM_CONFIG_SPARE_1,
 748:Drivers/BSP/Components/vl53l1cb/modules/vl53l1_nvm.c **** 		0x000000FF,
 749:Drivers/BSP/Components/vl53l1cb/modules/vl53l1_nvm.c **** 		0,
 750:Drivers/BSP/Components/vl53l1cb/modules/vl53l1_nvm.c **** 		0);
 751:Drivers/BSP/Components/vl53l1cb/modules/vl53l1_nvm.c **** 
 752:Drivers/BSP/Components/vl53l1cb/modules/vl53l1_nvm.c **** 
 753:Drivers/BSP/Components/vl53l1cb/modules/vl53l1_nvm.c **** 
 754:Drivers/BSP/Components/vl53l1cb/modules/vl53l1_nvm.c **** 	if (status == VL53L1_ERROR_NONE)
 755:Drivers/BSP/Components/vl53l1cb/modules/vl53l1_nvm.c **** 		status =
 756:Drivers/BSP/Components/vl53l1cb/modules/vl53l1_nvm.c **** 		VL53L1_nvm_decode_optical_centre(
 757:Drivers/BSP/Components/vl53l1cb/modules/vl53l1_nvm.c **** 			buf_size,
 758:Drivers/BSP/Components/vl53l1cb/modules/vl53l1_nvm.c **** 			pbuffer + VL53L1_NVM__FMT__OPTICAL_CENTRE_DATA_INDEX,
 759:Drivers/BSP/Components/vl53l1cb/modules/vl53l1_nvm.c **** 			&(pdata->fmt_optical_centre));
 760:Drivers/BSP/Components/vl53l1cb/modules/vl53l1_nvm.c **** 
 761:Drivers/BSP/Components/vl53l1cb/modules/vl53l1_nvm.c **** 
 762:Drivers/BSP/Components/vl53l1cb/modules/vl53l1_nvm.c **** 
 763:Drivers/BSP/Components/vl53l1cb/modules/vl53l1_nvm.c **** 	if (status == VL53L1_ERROR_NONE)
 764:Drivers/BSP/Components/vl53l1cb/modules/vl53l1_nvm.c **** 		status =
 765:Drivers/BSP/Components/vl53l1cb/modules/vl53l1_nvm.c **** 		VL53L1_nvm_decode_cal_peak_rate_map(
 766:Drivers/BSP/Components/vl53l1cb/modules/vl53l1_nvm.c **** 			buf_size,
 767:Drivers/BSP/Components/vl53l1cb/modules/vl53l1_nvm.c **** 			pbuffer + VL53L1_NVM__FMT__CAL_PEAK_RATE_MAP_DATA_INDEX,
 768:Drivers/BSP/Components/vl53l1cb/modules/vl53l1_nvm.c **** 			&(pdata->fmt_peak_rate_map));
 769:Drivers/BSP/Components/vl53l1cb/modules/vl53l1_nvm.c **** 
 770:Drivers/BSP/Components/vl53l1cb/modules/vl53l1_nvm.c **** 
 771:Drivers/BSP/Components/vl53l1cb/modules/vl53l1_nvm.c **** 
 772:Drivers/BSP/Components/vl53l1cb/modules/vl53l1_nvm.c **** 	if (status == VL53L1_ERROR_NONE)
 773:Drivers/BSP/Components/vl53l1cb/modules/vl53l1_nvm.c **** 		status =
 774:Drivers/BSP/Components/vl53l1cb/modules/vl53l1_nvm.c **** 		VL53L1_nvm_decode_additional_offset_cal_data(
 775:Drivers/BSP/Components/vl53l1cb/modules/vl53l1_nvm.c **** 			buf_size,
 776:Drivers/BSP/Components/vl53l1cb/modules/vl53l1_nvm.c **** 			pbuffer +
 777:Drivers/BSP/Components/vl53l1cb/modules/vl53l1_nvm.c **** 			VL53L1_NVM__FMT__ADDITIONAL_OFFSET_CAL_DATA_INDEX,
 778:Drivers/BSP/Components/vl53l1cb/modules/vl53l1_nvm.c **** 			&(pdata->fmt_add_offset_data));
 779:Drivers/BSP/Components/vl53l1cb/modules/vl53l1_nvm.c **** 
 780:Drivers/BSP/Components/vl53l1cb/modules/vl53l1_nvm.c **** 
 781:Drivers/BSP/Components/vl53l1cb/modules/vl53l1_nvm.c **** 
ARM GAS  C:\Temp\ccKRfCgt.s 			page 23


 782:Drivers/BSP/Components/vl53l1cb/modules/vl53l1_nvm.c **** 	pptmp[0] = VL53L1_NVM__FMT__RANGE_RESULTS__140MM_MM_PRE_RANGE;
 783:Drivers/BSP/Components/vl53l1cb/modules/vl53l1_nvm.c **** 	pptmp[1] = VL53L1_NVM__FMT__RANGE_RESULTS__140MM_DARK;
 784:Drivers/BSP/Components/vl53l1cb/modules/vl53l1_nvm.c **** 	pptmp[2] = VL53L1_NVM__FMT__RANGE_RESULTS__400MM_DARK;
 785:Drivers/BSP/Components/vl53l1cb/modules/vl53l1_nvm.c **** 	pptmp[3] = VL53L1_NVM__FMT__RANGE_RESULTS__400MM_AMBIENT;
 786:Drivers/BSP/Components/vl53l1cb/modules/vl53l1_nvm.c **** 
 787:Drivers/BSP/Components/vl53l1cb/modules/vl53l1_nvm.c **** 	for (i = 0 ; i < VL53L1_NVM_MAX_FMT_RANGE_DATA ; i++) {
 788:Drivers/BSP/Components/vl53l1cb/modules/vl53l1_nvm.c **** 		if (status == VL53L1_ERROR_NONE)
 789:Drivers/BSP/Components/vl53l1cb/modules/vl53l1_nvm.c **** 			status =
 790:Drivers/BSP/Components/vl53l1cb/modules/vl53l1_nvm.c **** 				VL53L1_nvm_decode_fmt_range_results_data(
 791:Drivers/BSP/Components/vl53l1cb/modules/vl53l1_nvm.c **** 					buf_size,
 792:Drivers/BSP/Components/vl53l1cb/modules/vl53l1_nvm.c **** 					pbuffer + pptmp[i],
 793:Drivers/BSP/Components/vl53l1cb/modules/vl53l1_nvm.c **** 					&(pdata->fmt_range_data[i]));
 794:Drivers/BSP/Components/vl53l1cb/modules/vl53l1_nvm.c **** 	}
 795:Drivers/BSP/Components/vl53l1cb/modules/vl53l1_nvm.c **** 
 796:Drivers/BSP/Components/vl53l1cb/modules/vl53l1_nvm.c **** 
 797:Drivers/BSP/Components/vl53l1cb/modules/vl53l1_nvm.c **** 	if (status == VL53L1_ERROR_NONE)
 798:Drivers/BSP/Components/vl53l1cb/modules/vl53l1_nvm.c **** 		status =
 799:Drivers/BSP/Components/vl53l1cb/modules/vl53l1_nvm.c **** 			VL53L1_nvm_decode_fmt_info(
 800:Drivers/BSP/Components/vl53l1cb/modules/vl53l1_nvm.c **** 				buf_size,
 801:Drivers/BSP/Components/vl53l1cb/modules/vl53l1_nvm.c **** 				pbuffer,
 802:Drivers/BSP/Components/vl53l1cb/modules/vl53l1_nvm.c **** 				&(pdata->fmt_info));
 803:Drivers/BSP/Components/vl53l1cb/modules/vl53l1_nvm.c **** 
 804:Drivers/BSP/Components/vl53l1cb/modules/vl53l1_nvm.c **** 	if (status == VL53L1_ERROR_NONE)
 805:Drivers/BSP/Components/vl53l1cb/modules/vl53l1_nvm.c **** 		status =
 806:Drivers/BSP/Components/vl53l1cb/modules/vl53l1_nvm.c **** 			VL53L1_nvm_decode_ews_info(
 807:Drivers/BSP/Components/vl53l1cb/modules/vl53l1_nvm.c **** 				buf_size,
 808:Drivers/BSP/Components/vl53l1cb/modules/vl53l1_nvm.c **** 				pbuffer,
 809:Drivers/BSP/Components/vl53l1cb/modules/vl53l1_nvm.c **** 				&(pdata->ews_info));
 810:Drivers/BSP/Components/vl53l1cb/modules/vl53l1_nvm.c **** 
 811:Drivers/BSP/Components/vl53l1cb/modules/vl53l1_nvm.c **** 	LOG_FUNCTION_END(status);
 812:Drivers/BSP/Components/vl53l1cb/modules/vl53l1_nvm.c **** 
 813:Drivers/BSP/Components/vl53l1cb/modules/vl53l1_nvm.c **** 	return status;
 814:Drivers/BSP/Components/vl53l1cb/modules/vl53l1_nvm.c **** 
 815:Drivers/BSP/Components/vl53l1cb/modules/vl53l1_nvm.c **** }
 816:Drivers/BSP/Components/vl53l1cb/modules/vl53l1_nvm.c **** 
 817:Drivers/BSP/Components/vl53l1cb/modules/vl53l1_nvm.c **** 
 818:Drivers/BSP/Components/vl53l1cb/modules/vl53l1_nvm.c **** VL53L1_Error VL53L1_nvm_decode_optical_centre(
 819:Drivers/BSP/Components/vl53l1cb/modules/vl53l1_nvm.c **** 	uint16_t                    buf_size,
 820:Drivers/BSP/Components/vl53l1cb/modules/vl53l1_nvm.c **** 	uint8_t                    *pbuffer,
 821:Drivers/BSP/Components/vl53l1cb/modules/vl53l1_nvm.c **** 	VL53L1_optical_centre_t    *pdata)
 822:Drivers/BSP/Components/vl53l1cb/modules/vl53l1_nvm.c **** {
 409              		.loc 1 822 1 is_stmt 1 view -0
 410              		.cfi_startproc
 411              		@ args = 0, pretend = 0, frame = 0
 412              		@ frame_needed = 0, uses_anonymous_args = 0
 413              		@ link register save eliminated.
 823:Drivers/BSP/Components/vl53l1cb/modules/vl53l1_nvm.c **** 
 824:Drivers/BSP/Components/vl53l1cb/modules/vl53l1_nvm.c **** 	VL53L1_Error status   = VL53L1_ERROR_NONE;
 414              		.loc 1 824 2 view .LVU122
 825:Drivers/BSP/Components/vl53l1cb/modules/vl53l1_nvm.c **** 
 826:Drivers/BSP/Components/vl53l1cb/modules/vl53l1_nvm.c **** 	uint16_t  tmp = 0;
 415              		.loc 1 826 2 view .LVU123
 827:Drivers/BSP/Components/vl53l1cb/modules/vl53l1_nvm.c **** 
 828:Drivers/BSP/Components/vl53l1cb/modules/vl53l1_nvm.c **** 	if (buf_size < VL53L1_NVM__FMT__OPTICAL_CENTRE_DATA_SIZE)
 416              		.loc 1 828 2 view .LVU124
 417              		.loc 1 828 5 is_stmt 0 view .LVU125
 418 0000 0328     		cmp	r0, #3
ARM GAS  C:\Temp\ccKRfCgt.s 			page 24


 419 0002 0BD9     		bls	.L25
 829:Drivers/BSP/Components/vl53l1cb/modules/vl53l1_nvm.c **** 		return VL53L1_ERROR_BUFFER_TOO_SMALL;
 830:Drivers/BSP/Components/vl53l1cb/modules/vl53l1_nvm.c **** 
 831:Drivers/BSP/Components/vl53l1cb/modules/vl53l1_nvm.c **** 
 832:Drivers/BSP/Components/vl53l1cb/modules/vl53l1_nvm.c **** 	tmp  = 0x00F0;
 420              		.loc 1 832 2 is_stmt 1 view .LVU126
 421              	.LVL53:
 833:Drivers/BSP/Components/vl53l1cb/modules/vl53l1_nvm.c **** 	tmp -= (uint16_t)*(pbuffer + 2);
 422              		.loc 1 833 2 view .LVU127
 423              		.loc 1 833 19 is_stmt 0 view .LVU128
 424 0004 8B78     		ldrb	r3, [r1, #2]	@ zero_extendqisi2
 425              		.loc 1 833 6 view .LVU129
 426 0006 C3F1F003 		rsb	r3, r3, #240
 427 000a 9BB2     		uxth	r3, r3
 428              	.LVL54:
 834:Drivers/BSP/Components/vl53l1cb/modules/vl53l1_nvm.c **** 	if (tmp > 0x0FF)
 429              		.loc 1 834 2 is_stmt 1 view .LVU130
 430              		.loc 1 834 5 is_stmt 0 view .LVU131
 431 000c FF2B     		cmp	r3, #255
 432 000e 00D9     		bls	.L24
 835:Drivers/BSP/Components/vl53l1cb/modules/vl53l1_nvm.c **** 		tmp = 0;
 433              		.loc 1 835 7 view .LVU132
 434 0010 0023     		movs	r3, #0
 435              	.LVL55:
 436              	.L24:
 836:Drivers/BSP/Components/vl53l1cb/modules/vl53l1_nvm.c **** 
 837:Drivers/BSP/Components/vl53l1cb/modules/vl53l1_nvm.c **** 	pdata->x_centre = (uint8_t)tmp;
 437              		.loc 1 837 2 is_stmt 1 view .LVU133
 438              		.loc 1 837 18 is_stmt 0 view .LVU134
 439 0012 1370     		strb	r3, [r2]
 838:Drivers/BSP/Components/vl53l1cb/modules/vl53l1_nvm.c **** 	pdata->y_centre = *(pbuffer + 3);
 440              		.loc 1 838 2 is_stmt 1 view .LVU135
 441              		.loc 1 838 18 is_stmt 0 view .LVU136
 442 0014 CB78     		ldrb	r3, [r1, #3]	@ zero_extendqisi2
 443              	.LVL56:
 444              		.loc 1 838 18 view .LVU137
 445 0016 5370     		strb	r3, [r2, #1]
 839:Drivers/BSP/Components/vl53l1cb/modules/vl53l1_nvm.c **** 
 840:Drivers/BSP/Components/vl53l1cb/modules/vl53l1_nvm.c **** 	return status;
 446              		.loc 1 840 2 is_stmt 1 view .LVU138
 447              		.loc 1 840 9 is_stmt 0 view .LVU139
 448 0018 0020     		movs	r0, #0
 449              	.LVL57:
 450              		.loc 1 840 9 view .LVU140
 451 001a 7047     		bx	lr
 452              	.LVL58:
 453              	.L25:
 829:Drivers/BSP/Components/vl53l1cb/modules/vl53l1_nvm.c **** 
 454              		.loc 1 829 10 view .LVU141
 455 001c 6FF00800 		mvn	r0, #8
 456              	.LVL59:
 841:Drivers/BSP/Components/vl53l1cb/modules/vl53l1_nvm.c **** }
 457              		.loc 1 841 1 view .LVU142
 458 0020 7047     		bx	lr
 459              		.cfi_endproc
 460              	.LFE7:
 462              		.section	.text.VL53L1_nvm_decode_cal_peak_rate_map,"ax",%progbits
ARM GAS  C:\Temp\ccKRfCgt.s 			page 25


 463              		.align	1
 464              		.global	VL53L1_nvm_decode_cal_peak_rate_map
 465              		.syntax unified
 466              		.thumb
 467              		.thumb_func
 469              	VL53L1_nvm_decode_cal_peak_rate_map:
 470              	.LVL60:
 471              	.LFB8:
 842:Drivers/BSP/Components/vl53l1cb/modules/vl53l1_nvm.c **** 
 843:Drivers/BSP/Components/vl53l1cb/modules/vl53l1_nvm.c **** 
 844:Drivers/BSP/Components/vl53l1cb/modules/vl53l1_nvm.c **** VL53L1_Error VL53L1_nvm_decode_cal_peak_rate_map(
 845:Drivers/BSP/Components/vl53l1cb/modules/vl53l1_nvm.c **** 	uint16_t                    buf_size,
 846:Drivers/BSP/Components/vl53l1cb/modules/vl53l1_nvm.c **** 	uint8_t                    *pbuffer,
 847:Drivers/BSP/Components/vl53l1cb/modules/vl53l1_nvm.c **** 	VL53L1_cal_peak_rate_map_t *pdata)
 848:Drivers/BSP/Components/vl53l1cb/modules/vl53l1_nvm.c **** {
 472              		.loc 1 848 1 is_stmt 1 view -0
 473              		.cfi_startproc
 474              		@ args = 0, pretend = 0, frame = 0
 475              		@ frame_needed = 0, uses_anonymous_args = 0
 849:Drivers/BSP/Components/vl53l1cb/modules/vl53l1_nvm.c **** 
 850:Drivers/BSP/Components/vl53l1cb/modules/vl53l1_nvm.c **** 	VL53L1_Error status   = VL53L1_ERROR_NONE;
 476              		.loc 1 850 2 view .LVU144
 851:Drivers/BSP/Components/vl53l1cb/modules/vl53l1_nvm.c **** 
 852:Drivers/BSP/Components/vl53l1cb/modules/vl53l1_nvm.c **** 	uint8_t   *ptmp = NULL;
 477              		.loc 1 852 2 view .LVU145
 853:Drivers/BSP/Components/vl53l1cb/modules/vl53l1_nvm.c **** 	uint8_t       i = 0;
 478              		.loc 1 853 2 view .LVU146
 854:Drivers/BSP/Components/vl53l1cb/modules/vl53l1_nvm.c **** 
 855:Drivers/BSP/Components/vl53l1cb/modules/vl53l1_nvm.c **** 	if (buf_size < VL53L1_NVM__FMT__CAL_PEAK_RATE_MAP_DATA_SIZE)
 479              		.loc 1 855 2 view .LVU147
 480              		.loc 1 855 5 is_stmt 0 view .LVU148
 481 0000 3728     		cmp	r0, #55
 482 0002 24D9     		bls	.L31
 848:Drivers/BSP/Components/vl53l1cb/modules/vl53l1_nvm.c **** 
 483              		.loc 1 848 1 view .LVU149
 484 0004 70B5     		push	{r4, r5, r6, lr}
 485              		.cfi_def_cfa_offset 16
 486              		.cfi_offset 4, -16
 487              		.cfi_offset 5, -12
 488              		.cfi_offset 6, -8
 489              		.cfi_offset 14, -4
 490 0006 0D46     		mov	r5, r1
 491 0008 1646     		mov	r6, r2
 856:Drivers/BSP/Components/vl53l1cb/modules/vl53l1_nvm.c **** 		return VL53L1_ERROR_BUFFER_TOO_SMALL;
 857:Drivers/BSP/Components/vl53l1cb/modules/vl53l1_nvm.c **** 
 858:Drivers/BSP/Components/vl53l1cb/modules/vl53l1_nvm.c **** 	pdata->cal_distance_mm =
 492              		.loc 1 858 2 is_stmt 1 view .LVU150
 859:Drivers/BSP/Components/vl53l1cb/modules/vl53l1_nvm.c **** 		(uint16_t)VL53L1_i2c_decode_uint16_t(2, pbuffer);
 493              		.loc 1 859 13 is_stmt 0 view .LVU151
 494 000a 0220     		movs	r0, #2
 495              	.LVL61:
 496              		.loc 1 859 13 view .LVU152
 497 000c FFF7FEFF 		bl	VL53L1_i2c_decode_uint16_t
 498              	.LVL62:
 858:Drivers/BSP/Components/vl53l1cb/modules/vl53l1_nvm.c **** 		(uint16_t)VL53L1_i2c_decode_uint16_t(2, pbuffer);
 499              		.loc 1 858 25 view .LVU153
 500 0010 3080     		strh	r0, [r6]	@ movhi
ARM GAS  C:\Temp\ccKRfCgt.s 			page 26


 860:Drivers/BSP/Components/vl53l1cb/modules/vl53l1_nvm.c **** 
 861:Drivers/BSP/Components/vl53l1cb/modules/vl53l1_nvm.c **** 	pdata->cal_reflectance_pc =
 501              		.loc 1 861 2 is_stmt 1 view .LVU154
 862:Drivers/BSP/Components/vl53l1cb/modules/vl53l1_nvm.c **** 		(uint16_t)VL53L1_i2c_decode_uint16_t(2, pbuffer + 2);
 502              		.loc 1 862 13 is_stmt 0 view .LVU155
 503 0012 A91C     		adds	r1, r5, #2
 504 0014 0220     		movs	r0, #2
 505 0016 FFF7FEFF 		bl	VL53L1_i2c_decode_uint16_t
 506              	.LVL63:
 861:Drivers/BSP/Components/vl53l1cb/modules/vl53l1_nvm.c **** 		(uint16_t)VL53L1_i2c_decode_uint16_t(2, pbuffer + 2);
 507              		.loc 1 861 28 view .LVU156
 508 001a 7080     		strh	r0, [r6, #2]	@ movhi
 863:Drivers/BSP/Components/vl53l1cb/modules/vl53l1_nvm.c **** 	pdata->cal_reflectance_pc =
 509              		.loc 1 863 2 is_stmt 1 view .LVU157
 510              		.loc 1 863 28 is_stmt 0 view .LVU158
 511 001c 8009     		lsrs	r0, r0, #6
 512 001e 7080     		strh	r0, [r6, #2]	@ movhi
 864:Drivers/BSP/Components/vl53l1cb/modules/vl53l1_nvm.c **** 		pdata->cal_reflectance_pc >> 6;
 865:Drivers/BSP/Components/vl53l1cb/modules/vl53l1_nvm.c **** 
 866:Drivers/BSP/Components/vl53l1cb/modules/vl53l1_nvm.c **** 	pdata->max_samples = VL53L1_NVM_PEAK_RATE_MAP_SAMPLES;
 513              		.loc 1 866 2 is_stmt 1 view .LVU159
 514              		.loc 1 866 21 is_stmt 0 view .LVU160
 515 0020 1923     		movs	r3, #25
 516 0022 B380     		strh	r3, [r6, #4]	@ movhi
 867:Drivers/BSP/Components/vl53l1cb/modules/vl53l1_nvm.c **** 	pdata->width       = VL53L1_NVM_PEAK_RATE_MAP_WIDTH;
 517              		.loc 1 867 2 is_stmt 1 view .LVU161
 518              		.loc 1 867 21 is_stmt 0 view .LVU162
 519 0024 0523     		movs	r3, #5
 520 0026 F380     		strh	r3, [r6, #6]	@ movhi
 868:Drivers/BSP/Components/vl53l1cb/modules/vl53l1_nvm.c **** 	pdata->height      = VL53L1_NVM_PEAK_RATE_MAP_HEIGHT;
 521              		.loc 1 868 2 is_stmt 1 view .LVU163
 522              		.loc 1 868 21 is_stmt 0 view .LVU164
 523 0028 3381     		strh	r3, [r6, #8]	@ movhi
 869:Drivers/BSP/Components/vl53l1cb/modules/vl53l1_nvm.c **** 
 870:Drivers/BSP/Components/vl53l1cb/modules/vl53l1_nvm.c **** 	ptmp = pbuffer + 4;
 524              		.loc 1 870 2 is_stmt 1 view .LVU165
 525              		.loc 1 870 7 is_stmt 0 view .LVU166
 526 002a 0435     		adds	r5, r5, #4
 527              	.LVL64:
 871:Drivers/BSP/Components/vl53l1cb/modules/vl53l1_nvm.c **** 	for (i = 0 ; i < VL53L1_NVM_PEAK_RATE_MAP_SAMPLES ; i++) {
 528              		.loc 1 871 2 is_stmt 1 view .LVU167
 529              		.loc 1 871 9 is_stmt 0 view .LVU168
 530 002c 0024     		movs	r4, #0
 531              		.loc 1 871 2 view .LVU169
 532 002e 0AE0     		b	.L29
 533              	.LVL65:
 534              	.L30:
 872:Drivers/BSP/Components/vl53l1cb/modules/vl53l1_nvm.c **** 		pdata->peak_rate_mcps[i] =
 535              		.loc 1 872 3 is_stmt 1 discriminator 3 view .LVU170
 873:Drivers/BSP/Components/vl53l1cb/modules/vl53l1_nvm.c **** 			(uint16_t)VL53L1_i2c_decode_uint16_t(2, ptmp);
 536              		.loc 1 873 14 is_stmt 0 discriminator 3 view .LVU171
 537 0030 2946     		mov	r1, r5
 538 0032 0220     		movs	r0, #2
 539 0034 FFF7FEFF 		bl	VL53L1_i2c_decode_uint16_t
 540              	.LVL66:
 872:Drivers/BSP/Components/vl53l1cb/modules/vl53l1_nvm.c **** 		pdata->peak_rate_mcps[i] =
 541              		.loc 1 872 28 discriminator 3 view .LVU172
ARM GAS  C:\Temp\ccKRfCgt.s 			page 27


 542 0038 231D     		adds	r3, r4, #4
 543 003a 06EB4303 		add	r3, r6, r3, lsl #1
 544 003e 5880     		strh	r0, [r3, #2]	@ movhi
 874:Drivers/BSP/Components/vl53l1cb/modules/vl53l1_nvm.c **** 		ptmp += 2;
 545              		.loc 1 874 3 is_stmt 1 discriminator 3 view .LVU173
 546              		.loc 1 874 8 is_stmt 0 discriminator 3 view .LVU174
 547 0040 0235     		adds	r5, r5, #2
 548              	.LVL67:
 871:Drivers/BSP/Components/vl53l1cb/modules/vl53l1_nvm.c **** 		pdata->peak_rate_mcps[i] =
 549              		.loc 1 871 55 is_stmt 1 discriminator 3 view .LVU175
 550 0042 0134     		adds	r4, r4, #1
 551              	.LVL68:
 871:Drivers/BSP/Components/vl53l1cb/modules/vl53l1_nvm.c **** 		pdata->peak_rate_mcps[i] =
 552              		.loc 1 871 55 is_stmt 0 discriminator 3 view .LVU176
 553 0044 E4B2     		uxtb	r4, r4
 554              	.LVL69:
 555              	.L29:
 871:Drivers/BSP/Components/vl53l1cb/modules/vl53l1_nvm.c **** 		pdata->peak_rate_mcps[i] =
 556              		.loc 1 871 17 is_stmt 1 discriminator 1 view .LVU177
 557 0046 182C     		cmp	r4, #24
 558 0048 F2D9     		bls	.L30
 875:Drivers/BSP/Components/vl53l1cb/modules/vl53l1_nvm.c **** 	}
 876:Drivers/BSP/Components/vl53l1cb/modules/vl53l1_nvm.c **** 
 877:Drivers/BSP/Components/vl53l1cb/modules/vl53l1_nvm.c **** 	return status;
 559              		.loc 1 877 9 is_stmt 0 view .LVU178
 560 004a 0020     		movs	r0, #0
 878:Drivers/BSP/Components/vl53l1cb/modules/vl53l1_nvm.c **** }
 561              		.loc 1 878 1 view .LVU179
 562 004c 70BD     		pop	{r4, r5, r6, pc}
 563              	.LVL70:
 564              	.L31:
 565              		.cfi_def_cfa_offset 0
 566              		.cfi_restore 4
 567              		.cfi_restore 5
 568              		.cfi_restore 6
 569              		.cfi_restore 14
 856:Drivers/BSP/Components/vl53l1cb/modules/vl53l1_nvm.c **** 
 570              		.loc 1 856 10 view .LVU180
 571 004e 6FF00800 		mvn	r0, #8
 572              	.LVL71:
 573              		.loc 1 878 1 view .LVU181
 574 0052 7047     		bx	lr
 575              		.cfi_endproc
 576              	.LFE8:
 578              		.section	.text.VL53L1_nvm_decode_additional_offset_cal_data,"ax",%progbits
 579              		.align	1
 580              		.global	VL53L1_nvm_decode_additional_offset_cal_data
 581              		.syntax unified
 582              		.thumb
 583              		.thumb_func
 585              	VL53L1_nvm_decode_additional_offset_cal_data:
 586              	.LVL72:
 587              	.LFB9:
 879:Drivers/BSP/Components/vl53l1cb/modules/vl53l1_nvm.c **** 
 880:Drivers/BSP/Components/vl53l1cb/modules/vl53l1_nvm.c **** 
 881:Drivers/BSP/Components/vl53l1cb/modules/vl53l1_nvm.c **** VL53L1_Error VL53L1_nvm_decode_additional_offset_cal_data(
 882:Drivers/BSP/Components/vl53l1cb/modules/vl53l1_nvm.c **** 	uint16_t                             buf_size,
ARM GAS  C:\Temp\ccKRfCgt.s 			page 28


 883:Drivers/BSP/Components/vl53l1cb/modules/vl53l1_nvm.c **** 	uint8_t                             *pbuffer,
 884:Drivers/BSP/Components/vl53l1cb/modules/vl53l1_nvm.c **** 	VL53L1_additional_offset_cal_data_t *pdata)
 885:Drivers/BSP/Components/vl53l1cb/modules/vl53l1_nvm.c **** {
 588              		.loc 1 885 1 is_stmt 1 view -0
 589              		.cfi_startproc
 590              		@ args = 0, pretend = 0, frame = 0
 591              		@ frame_needed = 0, uses_anonymous_args = 0
 886:Drivers/BSP/Components/vl53l1cb/modules/vl53l1_nvm.c **** 
 887:Drivers/BSP/Components/vl53l1cb/modules/vl53l1_nvm.c **** 	VL53L1_Error status   = VL53L1_ERROR_NONE;
 592              		.loc 1 887 2 view .LVU183
 888:Drivers/BSP/Components/vl53l1cb/modules/vl53l1_nvm.c **** 
 889:Drivers/BSP/Components/vl53l1cb/modules/vl53l1_nvm.c **** 	if (buf_size < VL53L1_NVM__FMT__ADDITIONAL_OFFSET_CAL_DATA_SIZE)
 593              		.loc 1 889 2 view .LVU184
 594              		.loc 1 889 5 is_stmt 0 view .LVU185
 595 0000 0728     		cmp	r0, #7
 596 0002 17D9     		bls	.L38
 885:Drivers/BSP/Components/vl53l1cb/modules/vl53l1_nvm.c **** 
 597              		.loc 1 885 1 view .LVU186
 598 0004 38B5     		push	{r3, r4, r5, lr}
 599              		.cfi_def_cfa_offset 16
 600              		.cfi_offset 3, -16
 601              		.cfi_offset 4, -12
 602              		.cfi_offset 5, -8
 603              		.cfi_offset 14, -4
 604 0006 0D46     		mov	r5, r1
 605 0008 1446     		mov	r4, r2
 890:Drivers/BSP/Components/vl53l1cb/modules/vl53l1_nvm.c **** 		return VL53L1_ERROR_BUFFER_TOO_SMALL;
 891:Drivers/BSP/Components/vl53l1cb/modules/vl53l1_nvm.c **** 
 892:Drivers/BSP/Components/vl53l1cb/modules/vl53l1_nvm.c **** 	pdata->result__mm_inner_actual_effective_spads =
 606              		.loc 1 892 2 is_stmt 1 view .LVU187
 893:Drivers/BSP/Components/vl53l1cb/modules/vl53l1_nvm.c **** 		(uint16_t)VL53L1_i2c_decode_uint16_t(2, pbuffer);
 607              		.loc 1 893 13 is_stmt 0 view .LVU188
 608 000a 0220     		movs	r0, #2
 609              	.LVL73:
 610              		.loc 1 893 13 view .LVU189
 611 000c FFF7FEFF 		bl	VL53L1_i2c_decode_uint16_t
 612              	.LVL74:
 892:Drivers/BSP/Components/vl53l1cb/modules/vl53l1_nvm.c **** 		(uint16_t)VL53L1_i2c_decode_uint16_t(2, pbuffer);
 613              		.loc 1 892 49 view .LVU190
 614 0010 2080     		strh	r0, [r4]	@ movhi
 894:Drivers/BSP/Components/vl53l1cb/modules/vl53l1_nvm.c **** 
 895:Drivers/BSP/Components/vl53l1cb/modules/vl53l1_nvm.c **** 	pdata->result__mm_outer_actual_effective_spads =
 615              		.loc 1 895 2 is_stmt 1 view .LVU191
 896:Drivers/BSP/Components/vl53l1cb/modules/vl53l1_nvm.c **** 		(uint16_t)VL53L1_i2c_decode_uint16_t(2, pbuffer + 2);
 616              		.loc 1 896 13 is_stmt 0 view .LVU192
 617 0012 A91C     		adds	r1, r5, #2
 618 0014 0220     		movs	r0, #2
 619 0016 FFF7FEFF 		bl	VL53L1_i2c_decode_uint16_t
 620              	.LVL75:
 895:Drivers/BSP/Components/vl53l1cb/modules/vl53l1_nvm.c **** 		(uint16_t)VL53L1_i2c_decode_uint16_t(2, pbuffer + 2);
 621              		.loc 1 895 49 view .LVU193
 622 001a 6080     		strh	r0, [r4, #2]	@ movhi
 897:Drivers/BSP/Components/vl53l1cb/modules/vl53l1_nvm.c **** 
 898:Drivers/BSP/Components/vl53l1cb/modules/vl53l1_nvm.c **** 	pdata->result__mm_inner_peak_signal_count_rtn_mcps =
 623              		.loc 1 898 2 is_stmt 1 view .LVU194
 899:Drivers/BSP/Components/vl53l1cb/modules/vl53l1_nvm.c **** 		(uint16_t)VL53L1_i2c_decode_uint16_t(2, pbuffer + 4);
 624              		.loc 1 899 13 is_stmt 0 view .LVU195
ARM GAS  C:\Temp\ccKRfCgt.s 			page 29


 625 001c 291D     		adds	r1, r5, #4
 626 001e 0220     		movs	r0, #2
 627 0020 FFF7FEFF 		bl	VL53L1_i2c_decode_uint16_t
 628              	.LVL76:
 898:Drivers/BSP/Components/vl53l1cb/modules/vl53l1_nvm.c **** 		(uint16_t)VL53L1_i2c_decode_uint16_t(2, pbuffer + 4);
 629              		.loc 1 898 53 view .LVU196
 630 0024 A080     		strh	r0, [r4, #4]	@ movhi
 900:Drivers/BSP/Components/vl53l1cb/modules/vl53l1_nvm.c **** 
 901:Drivers/BSP/Components/vl53l1cb/modules/vl53l1_nvm.c **** 	pdata->result__mm_outer_peak_signal_count_rtn_mcps =
 631              		.loc 1 901 2 is_stmt 1 view .LVU197
 902:Drivers/BSP/Components/vl53l1cb/modules/vl53l1_nvm.c **** 		(uint16_t)VL53L1_i2c_decode_uint16_t(2, pbuffer + 6);
 632              		.loc 1 902 13 is_stmt 0 view .LVU198
 633 0026 A91D     		adds	r1, r5, #6
 634 0028 0220     		movs	r0, #2
 635 002a FFF7FEFF 		bl	VL53L1_i2c_decode_uint16_t
 636              	.LVL77:
 901:Drivers/BSP/Components/vl53l1cb/modules/vl53l1_nvm.c **** 		(uint16_t)VL53L1_i2c_decode_uint16_t(2, pbuffer + 6);
 637              		.loc 1 901 53 view .LVU199
 638 002e E080     		strh	r0, [r4, #6]	@ movhi
 903:Drivers/BSP/Components/vl53l1cb/modules/vl53l1_nvm.c **** 
 904:Drivers/BSP/Components/vl53l1cb/modules/vl53l1_nvm.c **** 	return status;
 639              		.loc 1 904 2 is_stmt 1 view .LVU200
 640              		.loc 1 904 9 is_stmt 0 view .LVU201
 641 0030 0020     		movs	r0, #0
 905:Drivers/BSP/Components/vl53l1cb/modules/vl53l1_nvm.c **** }
 642              		.loc 1 905 1 view .LVU202
 643 0032 38BD     		pop	{r3, r4, r5, pc}
 644              	.LVL78:
 645              	.L38:
 646              		.cfi_def_cfa_offset 0
 647              		.cfi_restore 3
 648              		.cfi_restore 4
 649              		.cfi_restore 5
 650              		.cfi_restore 14
 890:Drivers/BSP/Components/vl53l1cb/modules/vl53l1_nvm.c **** 
 651              		.loc 1 890 10 view .LVU203
 652 0034 6FF00800 		mvn	r0, #8
 653              	.LVL79:
 654              		.loc 1 905 1 view .LVU204
 655 0038 7047     		bx	lr
 656              		.cfi_endproc
 657              	.LFE9:
 659              		.section	.text.VL53L1_nvm_decode_fmt_range_results_data,"ax",%progbits
 660              		.align	1
 661              		.global	VL53L1_nvm_decode_fmt_range_results_data
 662              		.syntax unified
 663              		.thumb
 664              		.thumb_func
 666              	VL53L1_nvm_decode_fmt_range_results_data:
 667              	.LVL80:
 668              	.LFB10:
 906:Drivers/BSP/Components/vl53l1cb/modules/vl53l1_nvm.c **** 
 907:Drivers/BSP/Components/vl53l1cb/modules/vl53l1_nvm.c **** 
 908:Drivers/BSP/Components/vl53l1cb/modules/vl53l1_nvm.c **** VL53L1_Error VL53L1_nvm_decode_fmt_range_results_data(
 909:Drivers/BSP/Components/vl53l1cb/modules/vl53l1_nvm.c **** 	uint16_t                             buf_size,
 910:Drivers/BSP/Components/vl53l1cb/modules/vl53l1_nvm.c **** 	uint8_t                             *pbuffer,
 911:Drivers/BSP/Components/vl53l1cb/modules/vl53l1_nvm.c **** 	VL53L1_decoded_nvm_fmt_range_data_t *pdata)
ARM GAS  C:\Temp\ccKRfCgt.s 			page 30


 912:Drivers/BSP/Components/vl53l1cb/modules/vl53l1_nvm.c **** {
 669              		.loc 1 912 1 is_stmt 1 view -0
 670              		.cfi_startproc
 671              		@ args = 0, pretend = 0, frame = 0
 672              		@ frame_needed = 0, uses_anonymous_args = 0
 913:Drivers/BSP/Components/vl53l1cb/modules/vl53l1_nvm.c **** 
 914:Drivers/BSP/Components/vl53l1cb/modules/vl53l1_nvm.c **** 	VL53L1_Error status   = VL53L1_ERROR_NONE;
 673              		.loc 1 914 2 view .LVU206
 915:Drivers/BSP/Components/vl53l1cb/modules/vl53l1_nvm.c **** 
 916:Drivers/BSP/Components/vl53l1cb/modules/vl53l1_nvm.c **** 	if (buf_size < VL53L1_NVM__FMT__RANGE_RESULTS__SIZE_BYTES)
 674              		.loc 1 916 2 view .LVU207
 675              		.loc 1 916 5 is_stmt 0 view .LVU208
 676 0000 0F28     		cmp	r0, #15
 677 0002 2ED9     		bls	.L45
 912:Drivers/BSP/Components/vl53l1cb/modules/vl53l1_nvm.c **** 
 678              		.loc 1 912 1 view .LVU209
 679 0004 38B5     		push	{r3, r4, r5, lr}
 680              		.cfi_def_cfa_offset 16
 681              		.cfi_offset 3, -16
 682              		.cfi_offset 4, -12
 683              		.cfi_offset 5, -8
 684              		.cfi_offset 14, -4
 685 0006 0D46     		mov	r5, r1
 686 0008 1446     		mov	r4, r2
 917:Drivers/BSP/Components/vl53l1cb/modules/vl53l1_nvm.c **** 		return VL53L1_ERROR_BUFFER_TOO_SMALL;
 918:Drivers/BSP/Components/vl53l1cb/modules/vl53l1_nvm.c **** 
 919:Drivers/BSP/Components/vl53l1cb/modules/vl53l1_nvm.c **** 	pdata->result__actual_effective_rtn_spads =
 687              		.loc 1 919 2 is_stmt 1 view .LVU210
 920:Drivers/BSP/Components/vl53l1cb/modules/vl53l1_nvm.c **** 		(uint16_t)VL53L1_i2c_decode_uint16_t(2, pbuffer);
 688              		.loc 1 920 13 is_stmt 0 view .LVU211
 689 000a 0220     		movs	r0, #2
 690              	.LVL81:
 691              		.loc 1 920 13 view .LVU212
 692 000c FFF7FEFF 		bl	VL53L1_i2c_decode_uint16_t
 693              	.LVL82:
 919:Drivers/BSP/Components/vl53l1cb/modules/vl53l1_nvm.c **** 		(uint16_t)VL53L1_i2c_decode_uint16_t(2, pbuffer);
 694              		.loc 1 919 44 view .LVU213
 695 0010 2080     		strh	r0, [r4]	@ movhi
 921:Drivers/BSP/Components/vl53l1cb/modules/vl53l1_nvm.c **** 
 922:Drivers/BSP/Components/vl53l1cb/modules/vl53l1_nvm.c **** 	pdata->ref_spad_array__num_requested_ref_spads =
 696              		.loc 1 922 2 is_stmt 1 view .LVU214
 697              		.loc 1 922 49 is_stmt 0 view .LVU215
 698 0012 AB78     		ldrb	r3, [r5, #2]	@ zero_extendqisi2
 699 0014 A370     		strb	r3, [r4, #2]
 923:Drivers/BSP/Components/vl53l1cb/modules/vl53l1_nvm.c **** 		*(pbuffer+2);
 924:Drivers/BSP/Components/vl53l1cb/modules/vl53l1_nvm.c **** 
 925:Drivers/BSP/Components/vl53l1cb/modules/vl53l1_nvm.c **** 	pdata->ref_spad_array__ref_location =
 700              		.loc 1 925 2 is_stmt 1 view .LVU216
 701              		.loc 1 925 38 is_stmt 0 view .LVU217
 702 0016 EB78     		ldrb	r3, [r5, #3]	@ zero_extendqisi2
 703 0018 E370     		strb	r3, [r4, #3]
 926:Drivers/BSP/Components/vl53l1cb/modules/vl53l1_nvm.c **** 		*(pbuffer+3);
 927:Drivers/BSP/Components/vl53l1cb/modules/vl53l1_nvm.c **** 
 928:Drivers/BSP/Components/vl53l1cb/modules/vl53l1_nvm.c **** 	pdata->result__peak_signal_count_rate_rtn_mcps =
 704              		.loc 1 928 2 is_stmt 1 view .LVU218
 929:Drivers/BSP/Components/vl53l1cb/modules/vl53l1_nvm.c **** 		(uint16_t)VL53L1_i2c_decode_uint16_t(2, pbuffer + 4);
 705              		.loc 1 929 13 is_stmt 0 view .LVU219
ARM GAS  C:\Temp\ccKRfCgt.s 			page 31


 706 001a 291D     		adds	r1, r5, #4
 707 001c 0220     		movs	r0, #2
 708 001e FFF7FEFF 		bl	VL53L1_i2c_decode_uint16_t
 709              	.LVL83:
 928:Drivers/BSP/Components/vl53l1cb/modules/vl53l1_nvm.c **** 		(uint16_t)VL53L1_i2c_decode_uint16_t(2, pbuffer + 4);
 710              		.loc 1 928 49 view .LVU220
 711 0022 A080     		strh	r0, [r4, #4]	@ movhi
 930:Drivers/BSP/Components/vl53l1cb/modules/vl53l1_nvm.c **** 
 931:Drivers/BSP/Components/vl53l1cb/modules/vl53l1_nvm.c **** 	pdata->result__ambient_count_rate_rtn_mcps =
 712              		.loc 1 931 2 is_stmt 1 view .LVU221
 932:Drivers/BSP/Components/vl53l1cb/modules/vl53l1_nvm.c **** 		(uint16_t)VL53L1_i2c_decode_uint16_t(2, pbuffer + 6);
 713              		.loc 1 932 13 is_stmt 0 view .LVU222
 714 0024 A91D     		adds	r1, r5, #6
 715 0026 0220     		movs	r0, #2
 716 0028 FFF7FEFF 		bl	VL53L1_i2c_decode_uint16_t
 717              	.LVL84:
 931:Drivers/BSP/Components/vl53l1cb/modules/vl53l1_nvm.c **** 		(uint16_t)VL53L1_i2c_decode_uint16_t(2, pbuffer + 6);
 718              		.loc 1 931 45 view .LVU223
 719 002c E080     		strh	r0, [r4, #6]	@ movhi
 933:Drivers/BSP/Components/vl53l1cb/modules/vl53l1_nvm.c **** 
 934:Drivers/BSP/Components/vl53l1cb/modules/vl53l1_nvm.c **** 	pdata->result__peak_signal_count_rate_ref_mcps =
 720              		.loc 1 934 2 is_stmt 1 view .LVU224
 935:Drivers/BSP/Components/vl53l1cb/modules/vl53l1_nvm.c **** 		(uint16_t)VL53L1_i2c_decode_uint16_t(2, pbuffer + 8);
 721              		.loc 1 935 13 is_stmt 0 view .LVU225
 722 002e 05F10801 		add	r1, r5, #8
 723 0032 0220     		movs	r0, #2
 724 0034 FFF7FEFF 		bl	VL53L1_i2c_decode_uint16_t
 725              	.LVL85:
 934:Drivers/BSP/Components/vl53l1cb/modules/vl53l1_nvm.c **** 		(uint16_t)VL53L1_i2c_decode_uint16_t(2, pbuffer + 8);
 726              		.loc 1 934 49 view .LVU226
 727 0038 2081     		strh	r0, [r4, #8]	@ movhi
 936:Drivers/BSP/Components/vl53l1cb/modules/vl53l1_nvm.c **** 
 937:Drivers/BSP/Components/vl53l1cb/modules/vl53l1_nvm.c **** 	pdata->result__ambient_count_rate_ref_mcps =
 728              		.loc 1 937 2 is_stmt 1 view .LVU227
 938:Drivers/BSP/Components/vl53l1cb/modules/vl53l1_nvm.c **** 		(uint16_t)VL53L1_i2c_decode_uint16_t(2, pbuffer + 10);
 729              		.loc 1 938 13 is_stmt 0 view .LVU228
 730 003a 05F10A01 		add	r1, r5, #10
 731 003e 0220     		movs	r0, #2
 732 0040 FFF7FEFF 		bl	VL53L1_i2c_decode_uint16_t
 733              	.LVL86:
 937:Drivers/BSP/Components/vl53l1cb/modules/vl53l1_nvm.c **** 		(uint16_t)VL53L1_i2c_decode_uint16_t(2, pbuffer + 10);
 734              		.loc 1 937 45 view .LVU229
 735 0044 6081     		strh	r0, [r4, #10]	@ movhi
 939:Drivers/BSP/Components/vl53l1cb/modules/vl53l1_nvm.c **** 
 940:Drivers/BSP/Components/vl53l1cb/modules/vl53l1_nvm.c **** 	pdata->measured_distance_mm =
 736              		.loc 1 940 2 is_stmt 1 view .LVU230
 941:Drivers/BSP/Components/vl53l1cb/modules/vl53l1_nvm.c **** 		(uint16_t)VL53L1_i2c_decode_uint16_t(2, pbuffer + 12);
 737              		.loc 1 941 13 is_stmt 0 view .LVU231
 738 0046 05F10C01 		add	r1, r5, #12
 739 004a 0220     		movs	r0, #2
 740 004c FFF7FEFF 		bl	VL53L1_i2c_decode_uint16_t
 741              	.LVL87:
 940:Drivers/BSP/Components/vl53l1cb/modules/vl53l1_nvm.c **** 		(uint16_t)VL53L1_i2c_decode_uint16_t(2, pbuffer + 12);
 742              		.loc 1 940 30 view .LVU232
 743 0050 A081     		strh	r0, [r4, #12]	@ movhi
 942:Drivers/BSP/Components/vl53l1cb/modules/vl53l1_nvm.c **** 
 943:Drivers/BSP/Components/vl53l1cb/modules/vl53l1_nvm.c **** 	pdata->measured_distance_stdev_mm =
ARM GAS  C:\Temp\ccKRfCgt.s 			page 32


 744              		.loc 1 943 2 is_stmt 1 view .LVU233
 944:Drivers/BSP/Components/vl53l1cb/modules/vl53l1_nvm.c **** 		(uint16_t)VL53L1_i2c_decode_uint16_t(2, pbuffer + 14);
 745              		.loc 1 944 13 is_stmt 0 view .LVU234
 746 0052 05F10E01 		add	r1, r5, #14
 747 0056 0220     		movs	r0, #2
 748 0058 FFF7FEFF 		bl	VL53L1_i2c_decode_uint16_t
 749              	.LVL88:
 943:Drivers/BSP/Components/vl53l1cb/modules/vl53l1_nvm.c **** 		(uint16_t)VL53L1_i2c_decode_uint16_t(2, pbuffer + 14);
 750              		.loc 1 943 36 view .LVU235
 751 005c E081     		strh	r0, [r4, #14]	@ movhi
 945:Drivers/BSP/Components/vl53l1cb/modules/vl53l1_nvm.c **** 
 946:Drivers/BSP/Components/vl53l1cb/modules/vl53l1_nvm.c **** 	return status;
 752              		.loc 1 946 2 is_stmt 1 view .LVU236
 753              		.loc 1 946 9 is_stmt 0 view .LVU237
 754 005e 0020     		movs	r0, #0
 947:Drivers/BSP/Components/vl53l1cb/modules/vl53l1_nvm.c **** }
 755              		.loc 1 947 1 view .LVU238
 756 0060 38BD     		pop	{r3, r4, r5, pc}
 757              	.LVL89:
 758              	.L45:
 759              		.cfi_def_cfa_offset 0
 760              		.cfi_restore 3
 761              		.cfi_restore 4
 762              		.cfi_restore 5
 763              		.cfi_restore 14
 917:Drivers/BSP/Components/vl53l1cb/modules/vl53l1_nvm.c **** 
 764              		.loc 1 917 10 view .LVU239
 765 0062 6FF00800 		mvn	r0, #8
 766              	.LVL90:
 767              		.loc 1 947 1 view .LVU240
 768 0066 7047     		bx	lr
 769              		.cfi_endproc
 770              	.LFE10:
 772              		.section	.text.VL53L1_nvm_decode_fmt_info,"ax",%progbits
 773              		.align	1
 774              		.global	VL53L1_nvm_decode_fmt_info
 775              		.syntax unified
 776              		.thumb
 777              		.thumb_func
 779              	VL53L1_nvm_decode_fmt_info:
 780              	.LVL91:
 781              	.LFB11:
 948:Drivers/BSP/Components/vl53l1cb/modules/vl53l1_nvm.c **** 
 949:Drivers/BSP/Components/vl53l1cb/modules/vl53l1_nvm.c **** 
 950:Drivers/BSP/Components/vl53l1cb/modules/vl53l1_nvm.c **** VL53L1_Error VL53L1_nvm_decode_fmt_info(
 951:Drivers/BSP/Components/vl53l1cb/modules/vl53l1_nvm.c **** 	uint16_t                       buf_size,
 952:Drivers/BSP/Components/vl53l1cb/modules/vl53l1_nvm.c **** 	uint8_t                       *pbuffer,
 953:Drivers/BSP/Components/vl53l1cb/modules/vl53l1_nvm.c **** 	VL53L1_decoded_nvm_fmt_info_t *pdata)
 954:Drivers/BSP/Components/vl53l1cb/modules/vl53l1_nvm.c **** {
 782              		.loc 1 954 1 is_stmt 1 view -0
 783              		.cfi_startproc
 784              		@ args = 0, pretend = 0, frame = 0
 785              		@ frame_needed = 0, uses_anonymous_args = 0
 955:Drivers/BSP/Components/vl53l1cb/modules/vl53l1_nvm.c **** 
 956:Drivers/BSP/Components/vl53l1cb/modules/vl53l1_nvm.c **** 	VL53L1_Error status   = VL53L1_ERROR_NONE;
 786              		.loc 1 956 2 view .LVU242
 957:Drivers/BSP/Components/vl53l1cb/modules/vl53l1_nvm.c **** 
ARM GAS  C:\Temp\ccKRfCgt.s 			page 33


 958:Drivers/BSP/Components/vl53l1cb/modules/vl53l1_nvm.c **** 	if (buf_size < VL53L1_NVM_SIZE_IN_BYTES)
 787              		.loc 1 958 2 view .LVU243
 788              		.loc 1 958 5 is_stmt 0 view .LVU244
 789 0000 B0F5007F 		cmp	r0, #512
 790 0004 C0F01C81 		bcc	.L52
 954:Drivers/BSP/Components/vl53l1cb/modules/vl53l1_nvm.c **** 
 791              		.loc 1 954 1 view .LVU245
 792 0008 F0B5     		push	{r4, r5, r6, r7, lr}
 793              		.cfi_def_cfa_offset 20
 794              		.cfi_offset 4, -20
 795              		.cfi_offset 5, -16
 796              		.cfi_offset 6, -12
 797              		.cfi_offset 7, -8
 798              		.cfi_offset 14, -4
 799 000a 83B0     		sub	sp, sp, #12
 800              		.cfi_def_cfa_offset 32
 801 000c 0E46     		mov	r6, r1
 802 000e 1546     		mov	r5, r2
 959:Drivers/BSP/Components/vl53l1cb/modules/vl53l1_nvm.c **** 		return VL53L1_ERROR_BUFFER_TOO_SMALL;
 960:Drivers/BSP/Components/vl53l1cb/modules/vl53l1_nvm.c **** 
 961:Drivers/BSP/Components/vl53l1cb/modules/vl53l1_nvm.c **** 	pdata->nvm__fmt__fgc[0] =
 803              		.loc 1 961 2 is_stmt 1 view .LVU246
 962:Drivers/BSP/Components/vl53l1cb/modules/vl53l1_nvm.c **** 		(char)VL53L1_i2c_decode_with_mask(
 804              		.loc 1 962 9 is_stmt 0 view .LVU247
 805 0010 0024     		movs	r4, #0
 806 0012 0094     		str	r4, [sp]
 807 0014 0123     		movs	r3, #1
 808 0016 FE22     		movs	r2, #254
 809              	.LVL92:
 810              		.loc 1 962 9 view .LVU248
 811 0018 01F5EE71 		add	r1, r1, #476
 812              	.LVL93:
 813              		.loc 1 962 9 view .LVU249
 814 001c 1846     		mov	r0, r3
 815              	.LVL94:
 816              		.loc 1 962 9 view .LVU250
 817 001e FFF7FEFF 		bl	VL53L1_i2c_decode_with_mask
 818              	.LVL95:
 961:Drivers/BSP/Components/vl53l1cb/modules/vl53l1_nvm.c **** 		(char)VL53L1_i2c_decode_with_mask(
 819              		.loc 1 961 26 view .LVU251
 820 0022 2870     		strb	r0, [r5]
 963:Drivers/BSP/Components/vl53l1cb/modules/vl53l1_nvm.c **** 			1,
 964:Drivers/BSP/Components/vl53l1cb/modules/vl53l1_nvm.c **** 			pbuffer + VL53L1_NVM__FMT__FGC__BYTE_0,
 965:Drivers/BSP/Components/vl53l1cb/modules/vl53l1_nvm.c **** 			0x000000FE,
 966:Drivers/BSP/Components/vl53l1cb/modules/vl53l1_nvm.c **** 			1,
 967:Drivers/BSP/Components/vl53l1cb/modules/vl53l1_nvm.c **** 			0);
 968:Drivers/BSP/Components/vl53l1cb/modules/vl53l1_nvm.c **** 	pdata->nvm__fmt__fgc[1] =
 821              		.loc 1 968 2 is_stmt 1 view .LVU252
 969:Drivers/BSP/Components/vl53l1cb/modules/vl53l1_nvm.c **** 		(char)VL53L1_i2c_decode_with_mask(
 822              		.loc 1 969 9 is_stmt 0 view .LVU253
 823 0024 06F2DD17 		addw	r7, r6, #477
 824 0028 0094     		str	r4, [sp]
 825 002a 0223     		movs	r3, #2
 826 002c 4FF4FE72 		mov	r2, #508
 827 0030 3946     		mov	r1, r7
 828 0032 0120     		movs	r0, #1
 829 0034 FFF7FEFF 		bl	VL53L1_i2c_decode_with_mask
ARM GAS  C:\Temp\ccKRfCgt.s 			page 34


 830              	.LVL96:
 968:Drivers/BSP/Components/vl53l1cb/modules/vl53l1_nvm.c **** 		(char)VL53L1_i2c_decode_with_mask(
 831              		.loc 1 968 26 view .LVU254
 832 0038 6870     		strb	r0, [r5, #1]
 970:Drivers/BSP/Components/vl53l1cb/modules/vl53l1_nvm.c **** 			1,
 971:Drivers/BSP/Components/vl53l1cb/modules/vl53l1_nvm.c **** 			pbuffer + VL53L1_NVM__FMT__FGC__BYTE_1,
 972:Drivers/BSP/Components/vl53l1cb/modules/vl53l1_nvm.c **** 			0x000001FC,
 973:Drivers/BSP/Components/vl53l1cb/modules/vl53l1_nvm.c **** 			2,
 974:Drivers/BSP/Components/vl53l1cb/modules/vl53l1_nvm.c **** 			0);
 975:Drivers/BSP/Components/vl53l1cb/modules/vl53l1_nvm.c **** 	pdata->nvm__fmt__fgc[2] =
 833              		.loc 1 975 2 is_stmt 1 view .LVU255
 976:Drivers/BSP/Components/vl53l1cb/modules/vl53l1_nvm.c **** 		(char)VL53L1_i2c_decode_with_mask(
 834              		.loc 1 976 9 is_stmt 0 view .LVU256
 835 003a 0094     		str	r4, [sp]
 836 003c 0323     		movs	r3, #3
 837 003e 4FF47E72 		mov	r2, #1016
 838 0042 3946     		mov	r1, r7
 839 0044 0120     		movs	r0, #1
 840 0046 FFF7FEFF 		bl	VL53L1_i2c_decode_with_mask
 841              	.LVL97:
 975:Drivers/BSP/Components/vl53l1cb/modules/vl53l1_nvm.c **** 		(char)VL53L1_i2c_decode_with_mask(
 842              		.loc 1 975 26 view .LVU257
 843 004a A870     		strb	r0, [r5, #2]
 977:Drivers/BSP/Components/vl53l1cb/modules/vl53l1_nvm.c **** 			1,
 978:Drivers/BSP/Components/vl53l1cb/modules/vl53l1_nvm.c **** 			pbuffer + VL53L1_NVM__FMT__FGC__BYTE_2 - 1,
 979:Drivers/BSP/Components/vl53l1cb/modules/vl53l1_nvm.c **** 			0x000003F8,
 980:Drivers/BSP/Components/vl53l1cb/modules/vl53l1_nvm.c **** 			3,
 981:Drivers/BSP/Components/vl53l1cb/modules/vl53l1_nvm.c **** 			0);
 982:Drivers/BSP/Components/vl53l1cb/modules/vl53l1_nvm.c **** 	pdata->nvm__fmt__fgc[3] =
 844              		.loc 1 982 2 is_stmt 1 view .LVU258
 983:Drivers/BSP/Components/vl53l1cb/modules/vl53l1_nvm.c **** 		(char)VL53L1_i2c_decode_with_mask(
 845              		.loc 1 983 9 is_stmt 0 view .LVU259
 846 004c 0094     		str	r4, [sp]
 847 004e 0423     		movs	r3, #4
 848 0050 4FF4FE62 		mov	r2, #2032
 849 0054 06F5EF71 		add	r1, r6, #478
 850 0058 0120     		movs	r0, #1
 851 005a FFF7FEFF 		bl	VL53L1_i2c_decode_with_mask
 852              	.LVL98:
 982:Drivers/BSP/Components/vl53l1cb/modules/vl53l1_nvm.c **** 		(char)VL53L1_i2c_decode_with_mask(
 853              		.loc 1 982 26 view .LVU260
 854 005e E870     		strb	r0, [r5, #3]
 984:Drivers/BSP/Components/vl53l1cb/modules/vl53l1_nvm.c **** 			1,
 985:Drivers/BSP/Components/vl53l1cb/modules/vl53l1_nvm.c **** 			pbuffer + VL53L1_NVM__FMT__FGC__BYTE_3 - 1,
 986:Drivers/BSP/Components/vl53l1cb/modules/vl53l1_nvm.c **** 			0x000007F0,
 987:Drivers/BSP/Components/vl53l1cb/modules/vl53l1_nvm.c **** 			4,
 988:Drivers/BSP/Components/vl53l1cb/modules/vl53l1_nvm.c **** 			0);
 989:Drivers/BSP/Components/vl53l1cb/modules/vl53l1_nvm.c **** 	pdata->nvm__fmt__fgc[4] =
 855              		.loc 1 989 2 is_stmt 1 view .LVU261
 990:Drivers/BSP/Components/vl53l1cb/modules/vl53l1_nvm.c **** 		(char)VL53L1_i2c_decode_with_mask(
 856              		.loc 1 990 9 is_stmt 0 view .LVU262
 857 0060 0094     		str	r4, [sp]
 858 0062 0523     		movs	r3, #5
 859 0064 4FF47E62 		mov	r2, #4064
 860 0068 06F2DF11 		addw	r1, r6, #479
 861 006c 0120     		movs	r0, #1
 862 006e FFF7FEFF 		bl	VL53L1_i2c_decode_with_mask
ARM GAS  C:\Temp\ccKRfCgt.s 			page 35


 863              	.LVL99:
 989:Drivers/BSP/Components/vl53l1cb/modules/vl53l1_nvm.c **** 		(char)VL53L1_i2c_decode_with_mask(
 864              		.loc 1 989 26 view .LVU263
 865 0072 2871     		strb	r0, [r5, #4]
 991:Drivers/BSP/Components/vl53l1cb/modules/vl53l1_nvm.c **** 			1,
 992:Drivers/BSP/Components/vl53l1cb/modules/vl53l1_nvm.c **** 			pbuffer + VL53L1_NVM__FMT__FGC__BYTE_4 - 1,
 993:Drivers/BSP/Components/vl53l1cb/modules/vl53l1_nvm.c **** 			0x00000FE0,
 994:Drivers/BSP/Components/vl53l1cb/modules/vl53l1_nvm.c **** 			5,
 995:Drivers/BSP/Components/vl53l1cb/modules/vl53l1_nvm.c **** 			0);
 996:Drivers/BSP/Components/vl53l1cb/modules/vl53l1_nvm.c **** 	pdata->nvm__fmt__fgc[5] =
 866              		.loc 1 996 2 is_stmt 1 view .LVU264
 997:Drivers/BSP/Components/vl53l1cb/modules/vl53l1_nvm.c **** 		(char)VL53L1_i2c_decode_with_mask(
 867              		.loc 1 997 9 is_stmt 0 view .LVU265
 868 0074 0094     		str	r4, [sp]
 869 0076 0623     		movs	r3, #6
 870 0078 4FF4FE52 		mov	r2, #8128
 871 007c 06F5F071 		add	r1, r6, #480
 872 0080 0120     		movs	r0, #1
 873 0082 FFF7FEFF 		bl	VL53L1_i2c_decode_with_mask
 874              	.LVL100:
 996:Drivers/BSP/Components/vl53l1cb/modules/vl53l1_nvm.c **** 		(char)VL53L1_i2c_decode_with_mask(
 875              		.loc 1 996 26 view .LVU266
 876 0086 6871     		strb	r0, [r5, #5]
 998:Drivers/BSP/Components/vl53l1cb/modules/vl53l1_nvm.c **** 			1,
 999:Drivers/BSP/Components/vl53l1cb/modules/vl53l1_nvm.c **** 			pbuffer + VL53L1_NVM__FMT__FGC__BYTE_5 - 1,
1000:Drivers/BSP/Components/vl53l1cb/modules/vl53l1_nvm.c **** 			0x00001FC0,
1001:Drivers/BSP/Components/vl53l1cb/modules/vl53l1_nvm.c **** 			6,
1002:Drivers/BSP/Components/vl53l1cb/modules/vl53l1_nvm.c **** 			0);
1003:Drivers/BSP/Components/vl53l1cb/modules/vl53l1_nvm.c **** 	pdata->nvm__fmt__fgc[6] =
 877              		.loc 1 1003 2 is_stmt 1 view .LVU267
1004:Drivers/BSP/Components/vl53l1cb/modules/vl53l1_nvm.c **** 		(char)VL53L1_i2c_decode_with_mask(
 878              		.loc 1 1004 9 is_stmt 0 view .LVU268
 879 0088 0094     		str	r4, [sp]
 880 008a 0723     		movs	r3, #7
 881 008c 4FF47E52 		mov	r2, #16256
 882 0090 06F2E111 		addw	r1, r6, #481
 883 0094 0120     		movs	r0, #1
 884 0096 FFF7FEFF 		bl	VL53L1_i2c_decode_with_mask
 885              	.LVL101:
1003:Drivers/BSP/Components/vl53l1cb/modules/vl53l1_nvm.c **** 		(char)VL53L1_i2c_decode_with_mask(
 886              		.loc 1 1003 26 view .LVU269
 887 009a A871     		strb	r0, [r5, #6]
1005:Drivers/BSP/Components/vl53l1cb/modules/vl53l1_nvm.c **** 			1,
1006:Drivers/BSP/Components/vl53l1cb/modules/vl53l1_nvm.c **** 			pbuffer + VL53L1_NVM__FMT__FGC__BYTE_6 - 1,
1007:Drivers/BSP/Components/vl53l1cb/modules/vl53l1_nvm.c **** 			0x00003F80,
1008:Drivers/BSP/Components/vl53l1cb/modules/vl53l1_nvm.c **** 			7,
1009:Drivers/BSP/Components/vl53l1cb/modules/vl53l1_nvm.c **** 			0);
1010:Drivers/BSP/Components/vl53l1cb/modules/vl53l1_nvm.c **** 	pdata->nvm__fmt__fgc[7] =
 888              		.loc 1 1010 2 is_stmt 1 view .LVU270
1011:Drivers/BSP/Components/vl53l1cb/modules/vl53l1_nvm.c **** 		(char)VL53L1_i2c_decode_with_mask(
 889              		.loc 1 1011 9 is_stmt 0 view .LVU271
 890 009c 0094     		str	r4, [sp]
 891 009e 2346     		mov	r3, r4
 892 00a0 7F22     		movs	r2, #127
 893 00a2 06F5F171 		add	r1, r6, #482
 894 00a6 0120     		movs	r0, #1
 895 00a8 FFF7FEFF 		bl	VL53L1_i2c_decode_with_mask
ARM GAS  C:\Temp\ccKRfCgt.s 			page 36


 896              	.LVL102:
1010:Drivers/BSP/Components/vl53l1cb/modules/vl53l1_nvm.c **** 		(char)VL53L1_i2c_decode_with_mask(
 897              		.loc 1 1010 26 view .LVU272
 898 00ac E871     		strb	r0, [r5, #7]
1012:Drivers/BSP/Components/vl53l1cb/modules/vl53l1_nvm.c **** 			1,
1013:Drivers/BSP/Components/vl53l1cb/modules/vl53l1_nvm.c **** 			pbuffer + VL53L1_NVM__FMT__FGC__BYTE_6,
1014:Drivers/BSP/Components/vl53l1cb/modules/vl53l1_nvm.c **** 			0x0000007F,
1015:Drivers/BSP/Components/vl53l1cb/modules/vl53l1_nvm.c **** 			0,
1016:Drivers/BSP/Components/vl53l1cb/modules/vl53l1_nvm.c **** 			0);
1017:Drivers/BSP/Components/vl53l1cb/modules/vl53l1_nvm.c **** 	pdata->nvm__fmt__fgc[8] =
 899              		.loc 1 1017 2 is_stmt 1 view .LVU273
1018:Drivers/BSP/Components/vl53l1cb/modules/vl53l1_nvm.c **** 		(char)VL53L1_i2c_decode_with_mask(
 900              		.loc 1 1018 9 is_stmt 0 view .LVU274
 901 00ae 0094     		str	r4, [sp]
 902 00b0 0123     		movs	r3, #1
 903 00b2 FE22     		movs	r2, #254
 904 00b4 06F2E311 		addw	r1, r6, #483
 905 00b8 1846     		mov	r0, r3
 906 00ba FFF7FEFF 		bl	VL53L1_i2c_decode_with_mask
 907              	.LVL103:
1017:Drivers/BSP/Components/vl53l1cb/modules/vl53l1_nvm.c **** 		(char)VL53L1_i2c_decode_with_mask(
 908              		.loc 1 1017 26 view .LVU275
 909 00be 2872     		strb	r0, [r5, #8]
1019:Drivers/BSP/Components/vl53l1cb/modules/vl53l1_nvm.c **** 			1,
1020:Drivers/BSP/Components/vl53l1cb/modules/vl53l1_nvm.c **** 			pbuffer + VL53L1_NVM__FMT__FGC__BYTE_7,
1021:Drivers/BSP/Components/vl53l1cb/modules/vl53l1_nvm.c **** 			0x000000FE,
1022:Drivers/BSP/Components/vl53l1cb/modules/vl53l1_nvm.c **** 			1,
1023:Drivers/BSP/Components/vl53l1cb/modules/vl53l1_nvm.c **** 			0);
1024:Drivers/BSP/Components/vl53l1cb/modules/vl53l1_nvm.c **** 	pdata->nvm__fmt__fgc[9] =
 910              		.loc 1 1024 2 is_stmt 1 view .LVU276
1025:Drivers/BSP/Components/vl53l1cb/modules/vl53l1_nvm.c **** 		(char)VL53L1_i2c_decode_with_mask(
 911              		.loc 1 1025 9 is_stmt 0 view .LVU277
 912 00c0 06F5F277 		add	r7, r6, #484
 913 00c4 0094     		str	r4, [sp]
 914 00c6 0223     		movs	r3, #2
 915 00c8 4FF4FE72 		mov	r2, #508
 916 00cc 3946     		mov	r1, r7
 917 00ce 0120     		movs	r0, #1
 918 00d0 FFF7FEFF 		bl	VL53L1_i2c_decode_with_mask
 919              	.LVL104:
1024:Drivers/BSP/Components/vl53l1cb/modules/vl53l1_nvm.c **** 		(char)VL53L1_i2c_decode_with_mask(
 920              		.loc 1 1024 26 view .LVU278
 921 00d4 6872     		strb	r0, [r5, #9]
1026:Drivers/BSP/Components/vl53l1cb/modules/vl53l1_nvm.c **** 			1,
1027:Drivers/BSP/Components/vl53l1cb/modules/vl53l1_nvm.c **** 			pbuffer + VL53L1_NVM__FMT__FGC__BYTE_8,
1028:Drivers/BSP/Components/vl53l1cb/modules/vl53l1_nvm.c **** 			0x000001FC,
1029:Drivers/BSP/Components/vl53l1cb/modules/vl53l1_nvm.c **** 			2,
1030:Drivers/BSP/Components/vl53l1cb/modules/vl53l1_nvm.c **** 			0);
1031:Drivers/BSP/Components/vl53l1cb/modules/vl53l1_nvm.c **** 	pdata->nvm__fmt__fgc[10] =
 922              		.loc 1 1031 2 is_stmt 1 view .LVU279
1032:Drivers/BSP/Components/vl53l1cb/modules/vl53l1_nvm.c **** 		(char)VL53L1_i2c_decode_with_mask(
 923              		.loc 1 1032 9 is_stmt 0 view .LVU280
 924 00d6 0094     		str	r4, [sp]
 925 00d8 0323     		movs	r3, #3
 926 00da 4FF47E72 		mov	r2, #1016
 927 00de 3946     		mov	r1, r7
 928 00e0 0120     		movs	r0, #1
ARM GAS  C:\Temp\ccKRfCgt.s 			page 37


 929 00e2 FFF7FEFF 		bl	VL53L1_i2c_decode_with_mask
 930              	.LVL105:
1031:Drivers/BSP/Components/vl53l1cb/modules/vl53l1_nvm.c **** 		(char)VL53L1_i2c_decode_with_mask(
 931              		.loc 1 1031 27 view .LVU281
 932 00e6 A872     		strb	r0, [r5, #10]
1033:Drivers/BSP/Components/vl53l1cb/modules/vl53l1_nvm.c **** 			1,
1034:Drivers/BSP/Components/vl53l1cb/modules/vl53l1_nvm.c **** 			pbuffer + VL53L1_NVM__FMT__FGC__BYTE_9 - 1,
1035:Drivers/BSP/Components/vl53l1cb/modules/vl53l1_nvm.c **** 			0x000003F8,
1036:Drivers/BSP/Components/vl53l1cb/modules/vl53l1_nvm.c **** 			3,
1037:Drivers/BSP/Components/vl53l1cb/modules/vl53l1_nvm.c **** 			0);
1038:Drivers/BSP/Components/vl53l1cb/modules/vl53l1_nvm.c **** 	pdata->nvm__fmt__fgc[11] =
 933              		.loc 1 1038 2 is_stmt 1 view .LVU282
1039:Drivers/BSP/Components/vl53l1cb/modules/vl53l1_nvm.c **** 		(char)VL53L1_i2c_decode_with_mask(
 934              		.loc 1 1039 9 is_stmt 0 view .LVU283
 935 00e8 0094     		str	r4, [sp]
 936 00ea 0423     		movs	r3, #4
 937 00ec 4FF4FE62 		mov	r2, #2032
 938 00f0 06F2E511 		addw	r1, r6, #485
 939 00f4 0120     		movs	r0, #1
 940 00f6 FFF7FEFF 		bl	VL53L1_i2c_decode_with_mask
 941              	.LVL106:
1038:Drivers/BSP/Components/vl53l1cb/modules/vl53l1_nvm.c **** 		(char)VL53L1_i2c_decode_with_mask(
 942              		.loc 1 1038 27 view .LVU284
 943 00fa E872     		strb	r0, [r5, #11]
1040:Drivers/BSP/Components/vl53l1cb/modules/vl53l1_nvm.c **** 			1,
1041:Drivers/BSP/Components/vl53l1cb/modules/vl53l1_nvm.c **** 			pbuffer + VL53L1_NVM__FMT__FGC__BYTE_10 - 1,
1042:Drivers/BSP/Components/vl53l1cb/modules/vl53l1_nvm.c **** 			0x000007F0,
1043:Drivers/BSP/Components/vl53l1cb/modules/vl53l1_nvm.c **** 			4,
1044:Drivers/BSP/Components/vl53l1cb/modules/vl53l1_nvm.c **** 			0);
1045:Drivers/BSP/Components/vl53l1cb/modules/vl53l1_nvm.c **** 	pdata->nvm__fmt__fgc[12] =
 944              		.loc 1 1045 2 is_stmt 1 view .LVU285
1046:Drivers/BSP/Components/vl53l1cb/modules/vl53l1_nvm.c **** 		(char)VL53L1_i2c_decode_with_mask(
 945              		.loc 1 1046 9 is_stmt 0 view .LVU286
 946 00fc 0094     		str	r4, [sp]
 947 00fe 0523     		movs	r3, #5
 948 0100 4FF47E62 		mov	r2, #4064
 949 0104 06F5F371 		add	r1, r6, #486
 950 0108 0120     		movs	r0, #1
 951 010a FFF7FEFF 		bl	VL53L1_i2c_decode_with_mask
 952              	.LVL107:
1045:Drivers/BSP/Components/vl53l1cb/modules/vl53l1_nvm.c **** 		(char)VL53L1_i2c_decode_with_mask(
 953              		.loc 1 1045 27 view .LVU287
 954 010e 2873     		strb	r0, [r5, #12]
1047:Drivers/BSP/Components/vl53l1cb/modules/vl53l1_nvm.c **** 			1,
1048:Drivers/BSP/Components/vl53l1cb/modules/vl53l1_nvm.c **** 			pbuffer + VL53L1_NVM__FMT__FGC__BYTE_11 - 1,
1049:Drivers/BSP/Components/vl53l1cb/modules/vl53l1_nvm.c **** 			0x00000FE0,
1050:Drivers/BSP/Components/vl53l1cb/modules/vl53l1_nvm.c **** 			5,
1051:Drivers/BSP/Components/vl53l1cb/modules/vl53l1_nvm.c **** 			0);
1052:Drivers/BSP/Components/vl53l1cb/modules/vl53l1_nvm.c **** 	pdata->nvm__fmt__fgc[13] =
 955              		.loc 1 1052 2 is_stmt 1 view .LVU288
1053:Drivers/BSP/Components/vl53l1cb/modules/vl53l1_nvm.c **** 		(char)VL53L1_i2c_decode_with_mask(
 956              		.loc 1 1053 9 is_stmt 0 view .LVU289
 957 0110 0094     		str	r4, [sp]
 958 0112 0623     		movs	r3, #6
 959 0114 4FF4FE52 		mov	r2, #8128
 960 0118 06F2E711 		addw	r1, r6, #487
 961 011c 0120     		movs	r0, #1
ARM GAS  C:\Temp\ccKRfCgt.s 			page 38


 962 011e FFF7FEFF 		bl	VL53L1_i2c_decode_with_mask
 963              	.LVL108:
1052:Drivers/BSP/Components/vl53l1cb/modules/vl53l1_nvm.c **** 		(char)VL53L1_i2c_decode_with_mask(
 964              		.loc 1 1052 27 view .LVU290
 965 0122 6873     		strb	r0, [r5, #13]
1054:Drivers/BSP/Components/vl53l1cb/modules/vl53l1_nvm.c **** 			1,
1055:Drivers/BSP/Components/vl53l1cb/modules/vl53l1_nvm.c **** 			pbuffer + VL53L1_NVM__FMT__FGC__BYTE_12 - 1,
1056:Drivers/BSP/Components/vl53l1cb/modules/vl53l1_nvm.c **** 			0x00001FC0,
1057:Drivers/BSP/Components/vl53l1cb/modules/vl53l1_nvm.c **** 			6,
1058:Drivers/BSP/Components/vl53l1cb/modules/vl53l1_nvm.c **** 			0);
1059:Drivers/BSP/Components/vl53l1cb/modules/vl53l1_nvm.c **** 	pdata->nvm__fmt__fgc[14] =
 966              		.loc 1 1059 2 is_stmt 1 view .LVU291
1060:Drivers/BSP/Components/vl53l1cb/modules/vl53l1_nvm.c **** 		(char)VL53L1_i2c_decode_with_mask(
 967              		.loc 1 1060 9 is_stmt 0 view .LVU292
 968 0124 0094     		str	r4, [sp]
 969 0126 0723     		movs	r3, #7
 970 0128 4FF47E52 		mov	r2, #16256
 971 012c 06F5F471 		add	r1, r6, #488
 972 0130 0120     		movs	r0, #1
 973 0132 FFF7FEFF 		bl	VL53L1_i2c_decode_with_mask
 974              	.LVL109:
1059:Drivers/BSP/Components/vl53l1cb/modules/vl53l1_nvm.c **** 		(char)VL53L1_i2c_decode_with_mask(
 975              		.loc 1 1059 27 view .LVU293
 976 0136 A873     		strb	r0, [r5, #14]
1061:Drivers/BSP/Components/vl53l1cb/modules/vl53l1_nvm.c **** 			1,
1062:Drivers/BSP/Components/vl53l1cb/modules/vl53l1_nvm.c **** 			pbuffer + VL53L1_NVM__FMT__FGC__BYTE_13 - 1,
1063:Drivers/BSP/Components/vl53l1cb/modules/vl53l1_nvm.c **** 			0x00003F80,
1064:Drivers/BSP/Components/vl53l1cb/modules/vl53l1_nvm.c **** 			7,
1065:Drivers/BSP/Components/vl53l1cb/modules/vl53l1_nvm.c **** 			0);
1066:Drivers/BSP/Components/vl53l1cb/modules/vl53l1_nvm.c **** 	pdata->nvm__fmt__fgc[15] =
 977              		.loc 1 1066 2 is_stmt 1 view .LVU294
1067:Drivers/BSP/Components/vl53l1cb/modules/vl53l1_nvm.c **** 		(char)VL53L1_i2c_decode_with_mask(
 978              		.loc 1 1067 9 is_stmt 0 view .LVU295
 979 0138 0094     		str	r4, [sp]
 980 013a 2346     		mov	r3, r4
 981 013c 7F22     		movs	r2, #127
 982 013e 06F2E911 		addw	r1, r6, #489
 983 0142 0120     		movs	r0, #1
 984 0144 FFF7FEFF 		bl	VL53L1_i2c_decode_with_mask
 985              	.LVL110:
1066:Drivers/BSP/Components/vl53l1cb/modules/vl53l1_nvm.c **** 		(char)VL53L1_i2c_decode_with_mask(
 986              		.loc 1 1066 27 view .LVU296
 987 0148 E873     		strb	r0, [r5, #15]
1068:Drivers/BSP/Components/vl53l1cb/modules/vl53l1_nvm.c **** 			1,
1069:Drivers/BSP/Components/vl53l1cb/modules/vl53l1_nvm.c **** 			pbuffer + VL53L1_NVM__FMT__FGC__BYTE_13,
1070:Drivers/BSP/Components/vl53l1cb/modules/vl53l1_nvm.c **** 			0x0000007F,
1071:Drivers/BSP/Components/vl53l1cb/modules/vl53l1_nvm.c **** 			0,
1072:Drivers/BSP/Components/vl53l1cb/modules/vl53l1_nvm.c **** 			0);
1073:Drivers/BSP/Components/vl53l1cb/modules/vl53l1_nvm.c **** 	pdata->nvm__fmt__fgc[16] =
 988              		.loc 1 1073 2 is_stmt 1 view .LVU297
1074:Drivers/BSP/Components/vl53l1cb/modules/vl53l1_nvm.c **** 		(char)VL53L1_i2c_decode_with_mask(
 989              		.loc 1 1074 9 is_stmt 0 view .LVU298
 990 014a 0094     		str	r4, [sp]
 991 014c 0123     		movs	r3, #1
 992 014e FE22     		movs	r2, #254
 993 0150 06F5F571 		add	r1, r6, #490
 994 0154 1846     		mov	r0, r3
ARM GAS  C:\Temp\ccKRfCgt.s 			page 39


 995 0156 FFF7FEFF 		bl	VL53L1_i2c_decode_with_mask
 996              	.LVL111:
1073:Drivers/BSP/Components/vl53l1cb/modules/vl53l1_nvm.c **** 		(char)VL53L1_i2c_decode_with_mask(
 997              		.loc 1 1073 27 view .LVU299
 998 015a 2874     		strb	r0, [r5, #16]
1075:Drivers/BSP/Components/vl53l1cb/modules/vl53l1_nvm.c **** 			1,
1076:Drivers/BSP/Components/vl53l1cb/modules/vl53l1_nvm.c **** 			pbuffer + VL53L1_NVM__FMT__FGC__BYTE_14,
1077:Drivers/BSP/Components/vl53l1cb/modules/vl53l1_nvm.c **** 			0x000000FE,
1078:Drivers/BSP/Components/vl53l1cb/modules/vl53l1_nvm.c **** 			1,
1079:Drivers/BSP/Components/vl53l1cb/modules/vl53l1_nvm.c **** 			0);
1080:Drivers/BSP/Components/vl53l1cb/modules/vl53l1_nvm.c **** 	pdata->nvm__fmt__fgc[17] =
 999              		.loc 1 1080 2 is_stmt 1 view .LVU300
1081:Drivers/BSP/Components/vl53l1cb/modules/vl53l1_nvm.c **** 		(char)VL53L1_i2c_decode_with_mask(
 1000              		.loc 1 1081 9 is_stmt 0 view .LVU301
 1001 015c 0094     		str	r4, [sp]
 1002 015e 0223     		movs	r3, #2
 1003 0160 4FF4FE72 		mov	r2, #508
 1004 0164 06F2EB11 		addw	r1, r6, #491
 1005 0168 0120     		movs	r0, #1
 1006 016a FFF7FEFF 		bl	VL53L1_i2c_decode_with_mask
 1007              	.LVL112:
1080:Drivers/BSP/Components/vl53l1cb/modules/vl53l1_nvm.c **** 		(char)VL53L1_i2c_decode_with_mask(
 1008              		.loc 1 1080 27 view .LVU302
 1009 016e 6874     		strb	r0, [r5, #17]
1082:Drivers/BSP/Components/vl53l1cb/modules/vl53l1_nvm.c **** 			1,
1083:Drivers/BSP/Components/vl53l1cb/modules/vl53l1_nvm.c **** 			pbuffer + VL53L1_NVM__FMT__FGC__BYTE_15,
1084:Drivers/BSP/Components/vl53l1cb/modules/vl53l1_nvm.c **** 			0x000001FC,
1085:Drivers/BSP/Components/vl53l1cb/modules/vl53l1_nvm.c **** 			2,
1086:Drivers/BSP/Components/vl53l1cb/modules/vl53l1_nvm.c **** 			0);
1087:Drivers/BSP/Components/vl53l1cb/modules/vl53l1_nvm.c **** 	pdata->nvm__fmt__fgc[18] = 0x00;
 1010              		.loc 1 1087 2 is_stmt 1 view .LVU303
 1011              		.loc 1 1087 27 is_stmt 0 view .LVU304
 1012 0170 AC74     		strb	r4, [r5, #18]
1088:Drivers/BSP/Components/vl53l1cb/modules/vl53l1_nvm.c **** 
1089:Drivers/BSP/Components/vl53l1cb/modules/vl53l1_nvm.c **** 			pdata->nvm__fmt__test_program_major =
 1013              		.loc 1 1089 4 is_stmt 1 view .LVU305
1090:Drivers/BSP/Components/vl53l1cb/modules/vl53l1_nvm.c **** 		(uint8_t)VL53L1_i2c_decode_with_mask(
 1014              		.loc 1 1090 12 is_stmt 0 view .LVU306
 1015 0172 06F5F677 		add	r7, r6, #492
 1016 0176 0094     		str	r4, [sp]
 1017 0178 0523     		movs	r3, #5
 1018 017a E022     		movs	r2, #224
 1019 017c 3946     		mov	r1, r7
 1020 017e 0120     		movs	r0, #1
 1021 0180 FFF7FEFF 		bl	VL53L1_i2c_decode_with_mask
 1022              	.LVL113:
1089:Drivers/BSP/Components/vl53l1cb/modules/vl53l1_nvm.c **** 		(uint8_t)VL53L1_i2c_decode_with_mask(
 1023              		.loc 1 1089 40 view .LVU307
 1024 0184 E874     		strb	r0, [r5, #19]
1091:Drivers/BSP/Components/vl53l1cb/modules/vl53l1_nvm.c **** 			1,
1092:Drivers/BSP/Components/vl53l1cb/modules/vl53l1_nvm.c **** 			pbuffer + VL53L1_NVM__FMT__TEST_PROGRAM_MAJOR_MINOR,
1093:Drivers/BSP/Components/vl53l1cb/modules/vl53l1_nvm.c **** 			0x000000E0,
1094:Drivers/BSP/Components/vl53l1cb/modules/vl53l1_nvm.c **** 			5,
1095:Drivers/BSP/Components/vl53l1cb/modules/vl53l1_nvm.c **** 			0);
1096:Drivers/BSP/Components/vl53l1cb/modules/vl53l1_nvm.c **** 	pdata->nvm__fmt__test_program_minor =
 1025              		.loc 1 1096 2 is_stmt 1 view .LVU308
1097:Drivers/BSP/Components/vl53l1cb/modules/vl53l1_nvm.c **** 		(uint8_t)VL53L1_i2c_decode_with_mask(
ARM GAS  C:\Temp\ccKRfCgt.s 			page 40


 1026              		.loc 1 1097 12 is_stmt 0 view .LVU309
 1027 0186 0094     		str	r4, [sp]
 1028 0188 2346     		mov	r3, r4
 1029 018a 1F22     		movs	r2, #31
 1030 018c 3946     		mov	r1, r7
 1031 018e 0120     		movs	r0, #1
 1032 0190 FFF7FEFF 		bl	VL53L1_i2c_decode_with_mask
 1033              	.LVL114:
1096:Drivers/BSP/Components/vl53l1cb/modules/vl53l1_nvm.c **** 		(uint8_t)VL53L1_i2c_decode_with_mask(
 1034              		.loc 1 1096 38 view .LVU310
 1035 0194 2875     		strb	r0, [r5, #20]
1098:Drivers/BSP/Components/vl53l1cb/modules/vl53l1_nvm.c **** 			1,
1099:Drivers/BSP/Components/vl53l1cb/modules/vl53l1_nvm.c **** 			pbuffer + VL53L1_NVM__FMT__TEST_PROGRAM_MAJOR_MINOR,
1100:Drivers/BSP/Components/vl53l1cb/modules/vl53l1_nvm.c **** 			0x0000001F,
1101:Drivers/BSP/Components/vl53l1cb/modules/vl53l1_nvm.c **** 			0,
1102:Drivers/BSP/Components/vl53l1cb/modules/vl53l1_nvm.c **** 			0);
1103:Drivers/BSP/Components/vl53l1cb/modules/vl53l1_nvm.c **** 	pdata->nvm__fmt__map_major =
 1036              		.loc 1 1103 2 is_stmt 1 view .LVU311
1104:Drivers/BSP/Components/vl53l1cb/modules/vl53l1_nvm.c **** 		(uint8_t)VL53L1_i2c_decode_with_mask(
 1037              		.loc 1 1104 12 is_stmt 0 view .LVU312
 1038 0196 06F2ED17 		addw	r7, r6, #493
 1039 019a 0094     		str	r4, [sp]
 1040 019c 0523     		movs	r3, #5
 1041 019e E022     		movs	r2, #224
 1042 01a0 3946     		mov	r1, r7
 1043 01a2 0120     		movs	r0, #1
 1044 01a4 FFF7FEFF 		bl	VL53L1_i2c_decode_with_mask
 1045              	.LVL115:
1103:Drivers/BSP/Components/vl53l1cb/modules/vl53l1_nvm.c **** 		(uint8_t)VL53L1_i2c_decode_with_mask(
 1046              		.loc 1 1103 29 view .LVU313
 1047 01a8 6875     		strb	r0, [r5, #21]
1105:Drivers/BSP/Components/vl53l1cb/modules/vl53l1_nvm.c **** 			1,
1106:Drivers/BSP/Components/vl53l1cb/modules/vl53l1_nvm.c **** 			pbuffer + VL53L1_NVM__FMT__MAP_MAJOR_MINOR,
1107:Drivers/BSP/Components/vl53l1cb/modules/vl53l1_nvm.c **** 			0x000000E0,
1108:Drivers/BSP/Components/vl53l1cb/modules/vl53l1_nvm.c **** 			5,
1109:Drivers/BSP/Components/vl53l1cb/modules/vl53l1_nvm.c **** 			0);
1110:Drivers/BSP/Components/vl53l1cb/modules/vl53l1_nvm.c **** 	pdata->nvm__fmt__map_minor =
 1048              		.loc 1 1110 2 is_stmt 1 view .LVU314
1111:Drivers/BSP/Components/vl53l1cb/modules/vl53l1_nvm.c **** 		(uint8_t)VL53L1_i2c_decode_with_mask(
 1049              		.loc 1 1111 12 is_stmt 0 view .LVU315
 1050 01aa 0094     		str	r4, [sp]
 1051 01ac 2346     		mov	r3, r4
 1052 01ae 1F22     		movs	r2, #31
 1053 01b0 3946     		mov	r1, r7
 1054 01b2 0120     		movs	r0, #1
 1055 01b4 FFF7FEFF 		bl	VL53L1_i2c_decode_with_mask
 1056              	.LVL116:
1110:Drivers/BSP/Components/vl53l1cb/modules/vl53l1_nvm.c **** 		(uint8_t)VL53L1_i2c_decode_with_mask(
 1057              		.loc 1 1110 29 view .LVU316
 1058 01b8 A875     		strb	r0, [r5, #22]
1112:Drivers/BSP/Components/vl53l1cb/modules/vl53l1_nvm.c **** 			1,
1113:Drivers/BSP/Components/vl53l1cb/modules/vl53l1_nvm.c **** 			pbuffer + VL53L1_NVM__FMT__MAP_MAJOR_MINOR,
1114:Drivers/BSP/Components/vl53l1cb/modules/vl53l1_nvm.c **** 			0x0000001F,
1115:Drivers/BSP/Components/vl53l1cb/modules/vl53l1_nvm.c **** 			0,
1116:Drivers/BSP/Components/vl53l1cb/modules/vl53l1_nvm.c **** 			0);
1117:Drivers/BSP/Components/vl53l1cb/modules/vl53l1_nvm.c **** 	pdata->nvm__fmt__year =
 1059              		.loc 1 1117 2 is_stmt 1 view .LVU317
ARM GAS  C:\Temp\ccKRfCgt.s 			page 41


1118:Drivers/BSP/Components/vl53l1cb/modules/vl53l1_nvm.c **** 		(uint8_t)VL53L1_i2c_decode_with_mask(
 1060              		.loc 1 1118 12 is_stmt 0 view .LVU318
 1061 01ba 06F5F777 		add	r7, r6, #494
 1062 01be 0094     		str	r4, [sp]
 1063 01c0 0423     		movs	r3, #4
 1064 01c2 F022     		movs	r2, #240
 1065 01c4 3946     		mov	r1, r7
 1066 01c6 0120     		movs	r0, #1
 1067 01c8 FFF7FEFF 		bl	VL53L1_i2c_decode_with_mask
 1068              	.LVL117:
1117:Drivers/BSP/Components/vl53l1cb/modules/vl53l1_nvm.c **** 		(uint8_t)VL53L1_i2c_decode_with_mask(
 1069              		.loc 1 1117 24 view .LVU319
 1070 01cc E875     		strb	r0, [r5, #23]
1119:Drivers/BSP/Components/vl53l1cb/modules/vl53l1_nvm.c **** 			1,
1120:Drivers/BSP/Components/vl53l1cb/modules/vl53l1_nvm.c **** 			pbuffer + VL53L1_NVM__FMT__YEAR_MONTH,
1121:Drivers/BSP/Components/vl53l1cb/modules/vl53l1_nvm.c **** 			0x000000F0,
1122:Drivers/BSP/Components/vl53l1cb/modules/vl53l1_nvm.c **** 			4,
1123:Drivers/BSP/Components/vl53l1cb/modules/vl53l1_nvm.c **** 			0);
1124:Drivers/BSP/Components/vl53l1cb/modules/vl53l1_nvm.c **** 	pdata->nvm__fmt__month =
 1071              		.loc 1 1124 2 is_stmt 1 view .LVU320
1125:Drivers/BSP/Components/vl53l1cb/modules/vl53l1_nvm.c **** 		(uint8_t)VL53L1_i2c_decode_with_mask(
 1072              		.loc 1 1125 12 is_stmt 0 view .LVU321
 1073 01ce 0094     		str	r4, [sp]
 1074 01d0 2346     		mov	r3, r4
 1075 01d2 0F22     		movs	r2, #15
 1076 01d4 3946     		mov	r1, r7
 1077 01d6 0120     		movs	r0, #1
 1078 01d8 FFF7FEFF 		bl	VL53L1_i2c_decode_with_mask
 1079              	.LVL118:
1124:Drivers/BSP/Components/vl53l1cb/modules/vl53l1_nvm.c **** 		(uint8_t)VL53L1_i2c_decode_with_mask(
 1080              		.loc 1 1124 25 view .LVU322
 1081 01dc 2876     		strb	r0, [r5, #24]
1126:Drivers/BSP/Components/vl53l1cb/modules/vl53l1_nvm.c **** 			1,
1127:Drivers/BSP/Components/vl53l1cb/modules/vl53l1_nvm.c **** 			pbuffer + VL53L1_NVM__FMT__YEAR_MONTH,
1128:Drivers/BSP/Components/vl53l1cb/modules/vl53l1_nvm.c **** 			0x0000000F,
1129:Drivers/BSP/Components/vl53l1cb/modules/vl53l1_nvm.c **** 			0,
1130:Drivers/BSP/Components/vl53l1cb/modules/vl53l1_nvm.c **** 			0);
1131:Drivers/BSP/Components/vl53l1cb/modules/vl53l1_nvm.c **** 	pdata->nvm__fmt__day =
 1082              		.loc 1 1131 2 is_stmt 1 view .LVU323
1132:Drivers/BSP/Components/vl53l1cb/modules/vl53l1_nvm.c **** 		(uint8_t)VL53L1_i2c_decode_with_mask(
 1083              		.loc 1 1132 12 is_stmt 0 view .LVU324
 1084 01de 06F2EF17 		addw	r7, r6, #495
 1085 01e2 0094     		str	r4, [sp]
 1086 01e4 0323     		movs	r3, #3
 1087 01e6 F822     		movs	r2, #248
 1088 01e8 3946     		mov	r1, r7
 1089 01ea 0120     		movs	r0, #1
 1090 01ec FFF7FEFF 		bl	VL53L1_i2c_decode_with_mask
 1091              	.LVL119:
1131:Drivers/BSP/Components/vl53l1cb/modules/vl53l1_nvm.c **** 		(uint8_t)VL53L1_i2c_decode_with_mask(
 1092              		.loc 1 1131 23 view .LVU325
 1093 01f0 6876     		strb	r0, [r5, #25]
1133:Drivers/BSP/Components/vl53l1cb/modules/vl53l1_nvm.c **** 			1,
1134:Drivers/BSP/Components/vl53l1cb/modules/vl53l1_nvm.c **** 			pbuffer + VL53L1_NVM__FMT__DAY_MODULE_DATE_PHASE,
1135:Drivers/BSP/Components/vl53l1cb/modules/vl53l1_nvm.c **** 			0x000000F8,
1136:Drivers/BSP/Components/vl53l1cb/modules/vl53l1_nvm.c **** 			3,
1137:Drivers/BSP/Components/vl53l1cb/modules/vl53l1_nvm.c **** 			0);
ARM GAS  C:\Temp\ccKRfCgt.s 			page 42


1138:Drivers/BSP/Components/vl53l1cb/modules/vl53l1_nvm.c **** 	pdata->nvm__fmt__module_date_phase =
 1094              		.loc 1 1138 2 is_stmt 1 view .LVU326
1139:Drivers/BSP/Components/vl53l1cb/modules/vl53l1_nvm.c **** 		(uint8_t)VL53L1_i2c_decode_with_mask(
 1095              		.loc 1 1139 12 is_stmt 0 view .LVU327
 1096 01f2 0094     		str	r4, [sp]
 1097 01f4 2346     		mov	r3, r4
 1098 01f6 0722     		movs	r2, #7
 1099 01f8 3946     		mov	r1, r7
 1100 01fa 0120     		movs	r0, #1
 1101 01fc FFF7FEFF 		bl	VL53L1_i2c_decode_with_mask
 1102              	.LVL120:
1138:Drivers/BSP/Components/vl53l1cb/modules/vl53l1_nvm.c **** 		(uint8_t)VL53L1_i2c_decode_with_mask(
 1103              		.loc 1 1138 37 view .LVU328
 1104 0200 A876     		strb	r0, [r5, #26]
1140:Drivers/BSP/Components/vl53l1cb/modules/vl53l1_nvm.c **** 			1,
1141:Drivers/BSP/Components/vl53l1cb/modules/vl53l1_nvm.c **** 			pbuffer + VL53L1_NVM__FMT__DAY_MODULE_DATE_PHASE,
1142:Drivers/BSP/Components/vl53l1cb/modules/vl53l1_nvm.c **** 			0x00000007,
1143:Drivers/BSP/Components/vl53l1cb/modules/vl53l1_nvm.c **** 			0,
1144:Drivers/BSP/Components/vl53l1cb/modules/vl53l1_nvm.c **** 			0);
1145:Drivers/BSP/Components/vl53l1cb/modules/vl53l1_nvm.c **** 	pdata->nvm__fmt__time =
 1105              		.loc 1 1145 2 is_stmt 1 view .LVU329
1146:Drivers/BSP/Components/vl53l1cb/modules/vl53l1_nvm.c **** 		(uint16_t)VL53L1_i2c_decode_with_mask(
 1106              		.loc 1 1146 13 is_stmt 0 view .LVU330
 1107 0202 0094     		str	r4, [sp]
 1108 0204 2346     		mov	r3, r4
 1109 0206 4FF6FF72 		movw	r2, #65535
 1110 020a 06F5F871 		add	r1, r6, #496
 1111 020e 0220     		movs	r0, #2
 1112 0210 FFF7FEFF 		bl	VL53L1_i2c_decode_with_mask
 1113              	.LVL121:
1145:Drivers/BSP/Components/vl53l1cb/modules/vl53l1_nvm.c **** 		(uint16_t)VL53L1_i2c_decode_with_mask(
 1114              		.loc 1 1145 24 view .LVU331
 1115 0214 A883     		strh	r0, [r5, #28]	@ movhi
1147:Drivers/BSP/Components/vl53l1cb/modules/vl53l1_nvm.c **** 			2,
1148:Drivers/BSP/Components/vl53l1cb/modules/vl53l1_nvm.c **** 			pbuffer + VL53L1_NVM__FMT__TIME,
1149:Drivers/BSP/Components/vl53l1cb/modules/vl53l1_nvm.c **** 			0x0000FFFF,
1150:Drivers/BSP/Components/vl53l1cb/modules/vl53l1_nvm.c **** 			0,
1151:Drivers/BSP/Components/vl53l1cb/modules/vl53l1_nvm.c **** 			0);
1152:Drivers/BSP/Components/vl53l1cb/modules/vl53l1_nvm.c **** 	pdata->nvm__fmt__tester_id =
 1116              		.loc 1 1152 2 is_stmt 1 view .LVU332
1153:Drivers/BSP/Components/vl53l1cb/modules/vl53l1_nvm.c **** 		(uint8_t)VL53L1_i2c_decode_with_mask(
 1117              		.loc 1 1153 12 is_stmt 0 view .LVU333
 1118 0216 0094     		str	r4, [sp]
 1119 0218 2346     		mov	r3, r4
 1120 021a FF22     		movs	r2, #255
 1121 021c 06F5F971 		add	r1, r6, #498
 1122 0220 0120     		movs	r0, #1
 1123 0222 FFF7FEFF 		bl	VL53L1_i2c_decode_with_mask
 1124              	.LVL122:
1152:Drivers/BSP/Components/vl53l1cb/modules/vl53l1_nvm.c **** 		(uint8_t)VL53L1_i2c_decode_with_mask(
 1125              		.loc 1 1152 29 view .LVU334
 1126 0226 A877     		strb	r0, [r5, #30]
1154:Drivers/BSP/Components/vl53l1cb/modules/vl53l1_nvm.c **** 			1,
1155:Drivers/BSP/Components/vl53l1cb/modules/vl53l1_nvm.c **** 			pbuffer + VL53L1_NVM__FMT__TESTER_ID,
1156:Drivers/BSP/Components/vl53l1cb/modules/vl53l1_nvm.c **** 			0x000000FF,
1157:Drivers/BSP/Components/vl53l1cb/modules/vl53l1_nvm.c **** 			0,
1158:Drivers/BSP/Components/vl53l1cb/modules/vl53l1_nvm.c **** 			0);
ARM GAS  C:\Temp\ccKRfCgt.s 			page 43


1159:Drivers/BSP/Components/vl53l1cb/modules/vl53l1_nvm.c **** 	pdata->nvm__fmt__site_id =
 1127              		.loc 1 1159 2 is_stmt 1 view .LVU335
1160:Drivers/BSP/Components/vl53l1cb/modules/vl53l1_nvm.c **** 		(uint8_t)VL53L1_i2c_decode_with_mask(
 1128              		.loc 1 1160 12 is_stmt 0 view .LVU336
 1129 0228 0094     		str	r4, [sp]
 1130 022a 2346     		mov	r3, r4
 1131 022c FF22     		movs	r2, #255
 1132 022e 06F2F311 		addw	r1, r6, #499
 1133 0232 0120     		movs	r0, #1
 1134 0234 FFF7FEFF 		bl	VL53L1_i2c_decode_with_mask
 1135              	.LVL123:
1159:Drivers/BSP/Components/vl53l1cb/modules/vl53l1_nvm.c **** 		(uint8_t)VL53L1_i2c_decode_with_mask(
 1136              		.loc 1 1159 27 view .LVU337
 1137 0238 E877     		strb	r0, [r5, #31]
1161:Drivers/BSP/Components/vl53l1cb/modules/vl53l1_nvm.c **** 			1,
1162:Drivers/BSP/Components/vl53l1cb/modules/vl53l1_nvm.c **** 			pbuffer + VL53L1_NVM__FMT__SITE_ID,
1163:Drivers/BSP/Components/vl53l1cb/modules/vl53l1_nvm.c **** 			0x000000FF,
1164:Drivers/BSP/Components/vl53l1cb/modules/vl53l1_nvm.c **** 			0,
1165:Drivers/BSP/Components/vl53l1cb/modules/vl53l1_nvm.c **** 			0);
1166:Drivers/BSP/Components/vl53l1cb/modules/vl53l1_nvm.c **** 
1167:Drivers/BSP/Components/vl53l1cb/modules/vl53l1_nvm.c **** 	return status;
 1138              		.loc 1 1167 2 is_stmt 1 view .LVU338
 1139              		.loc 1 1167 9 is_stmt 0 view .LVU339
 1140 023a 2046     		mov	r0, r4
1168:Drivers/BSP/Components/vl53l1cb/modules/vl53l1_nvm.c **** }
 1141              		.loc 1 1168 1 view .LVU340
 1142 023c 03B0     		add	sp, sp, #12
 1143              		.cfi_def_cfa_offset 20
 1144              		@ sp needed
 1145 023e F0BD     		pop	{r4, r5, r6, r7, pc}
 1146              	.LVL124:
 1147              	.L52:
 1148              		.cfi_def_cfa_offset 0
 1149              		.cfi_restore 4
 1150              		.cfi_restore 5
 1151              		.cfi_restore 6
 1152              		.cfi_restore 7
 1153              		.cfi_restore 14
 959:Drivers/BSP/Components/vl53l1cb/modules/vl53l1_nvm.c **** 
 1154              		.loc 1 959 10 view .LVU341
 1155 0240 6FF00800 		mvn	r0, #8
 1156              	.LVL125:
 1157              		.loc 1 1168 1 view .LVU342
 1158 0244 7047     		bx	lr
 1159              		.cfi_endproc
 1160              	.LFE11:
 1162              		.section	.text.VL53L1_nvm_decode_ews_info,"ax",%progbits
 1163              		.align	1
 1164              		.global	VL53L1_nvm_decode_ews_info
 1165              		.syntax unified
 1166              		.thumb
 1167              		.thumb_func
 1169              	VL53L1_nvm_decode_ews_info:
 1170              	.LVL126:
 1171              	.LFB12:
1169:Drivers/BSP/Components/vl53l1cb/modules/vl53l1_nvm.c **** 
1170:Drivers/BSP/Components/vl53l1cb/modules/vl53l1_nvm.c **** 
ARM GAS  C:\Temp\ccKRfCgt.s 			page 44


1171:Drivers/BSP/Components/vl53l1cb/modules/vl53l1_nvm.c **** VL53L1_Error VL53L1_nvm_decode_ews_info(
1172:Drivers/BSP/Components/vl53l1cb/modules/vl53l1_nvm.c **** 	uint16_t                       buf_size,
1173:Drivers/BSP/Components/vl53l1cb/modules/vl53l1_nvm.c **** 	uint8_t                       *pbuffer,
1174:Drivers/BSP/Components/vl53l1cb/modules/vl53l1_nvm.c **** 	VL53L1_decoded_nvm_ews_info_t *pdata)
1175:Drivers/BSP/Components/vl53l1cb/modules/vl53l1_nvm.c **** {
 1172              		.loc 1 1175 1 is_stmt 1 view -0
 1173              		.cfi_startproc
 1174              		@ args = 0, pretend = 0, frame = 0
 1175              		@ frame_needed = 0, uses_anonymous_args = 0
1176:Drivers/BSP/Components/vl53l1cb/modules/vl53l1_nvm.c **** 
1177:Drivers/BSP/Components/vl53l1cb/modules/vl53l1_nvm.c **** 	VL53L1_Error status   = VL53L1_ERROR_NONE;
 1176              		.loc 1 1177 2 view .LVU344
1178:Drivers/BSP/Components/vl53l1cb/modules/vl53l1_nvm.c **** 
1179:Drivers/BSP/Components/vl53l1cb/modules/vl53l1_nvm.c **** 	if (buf_size < VL53L1_NVM_SIZE_IN_BYTES)
 1177              		.loc 1 1179 2 view .LVU345
 1178              		.loc 1 1179 5 is_stmt 0 view .LVU346
 1179 0000 B0F5007F 		cmp	r0, #512
 1180 0004 C0F09780 		bcc	.L59
1175:Drivers/BSP/Components/vl53l1cb/modules/vl53l1_nvm.c **** 
 1181              		.loc 1 1175 1 view .LVU347
 1182 0008 2DE9F041 		push	{r4, r5, r6, r7, r8, lr}
 1183              		.cfi_def_cfa_offset 24
 1184              		.cfi_offset 4, -24
 1185              		.cfi_offset 5, -20
 1186              		.cfi_offset 6, -16
 1187              		.cfi_offset 7, -12
 1188              		.cfi_offset 8, -8
 1189              		.cfi_offset 14, -4
 1190 000c 82B0     		sub	sp, sp, #8
 1191              		.cfi_def_cfa_offset 32
 1192 000e 0E46     		mov	r6, r1
 1193 0010 1546     		mov	r5, r2
1180:Drivers/BSP/Components/vl53l1cb/modules/vl53l1_nvm.c **** 		return VL53L1_ERROR_BUFFER_TOO_SMALL;
1181:Drivers/BSP/Components/vl53l1cb/modules/vl53l1_nvm.c **** 
1182:Drivers/BSP/Components/vl53l1cb/modules/vl53l1_nvm.c **** 	pdata->nvm__ews__test_program_major =
 1194              		.loc 1 1182 2 is_stmt 1 view .LVU348
1183:Drivers/BSP/Components/vl53l1cb/modules/vl53l1_nvm.c **** 		(uint8_t)VL53L1_i2c_decode_with_mask(
 1195              		.loc 1 1183 12 is_stmt 0 view .LVU349
 1196 0012 01F5FA77 		add	r7, r1, #500
 1197 0016 0024     		movs	r4, #0
 1198 0018 0094     		str	r4, [sp]
 1199 001a 0523     		movs	r3, #5
 1200 001c E022     		movs	r2, #224
 1201              	.LVL127:
 1202              		.loc 1 1183 12 view .LVU350
 1203 001e 3946     		mov	r1, r7
 1204              	.LVL128:
 1205              		.loc 1 1183 12 view .LVU351
 1206 0020 0120     		movs	r0, #1
 1207              	.LVL129:
 1208              		.loc 1 1183 12 view .LVU352
 1209 0022 FFF7FEFF 		bl	VL53L1_i2c_decode_with_mask
 1210              	.LVL130:
1182:Drivers/BSP/Components/vl53l1cb/modules/vl53l1_nvm.c **** 		(uint8_t)VL53L1_i2c_decode_with_mask(
 1211              		.loc 1 1182 38 view .LVU353
 1212 0026 2870     		strb	r0, [r5]
1184:Drivers/BSP/Components/vl53l1cb/modules/vl53l1_nvm.c **** 			1,
ARM GAS  C:\Temp\ccKRfCgt.s 			page 45


1185:Drivers/BSP/Components/vl53l1cb/modules/vl53l1_nvm.c **** 			pbuffer + VL53L1_NVM__EWS__TEST_PROGRAM_MAJOR_MINOR,
1186:Drivers/BSP/Components/vl53l1cb/modules/vl53l1_nvm.c **** 			0x000000E0,
1187:Drivers/BSP/Components/vl53l1cb/modules/vl53l1_nvm.c **** 			5,
1188:Drivers/BSP/Components/vl53l1cb/modules/vl53l1_nvm.c **** 			0);
1189:Drivers/BSP/Components/vl53l1cb/modules/vl53l1_nvm.c **** 	pdata->nvm__ews__test_program_minor =
 1213              		.loc 1 1189 2 is_stmt 1 view .LVU354
1190:Drivers/BSP/Components/vl53l1cb/modules/vl53l1_nvm.c **** 		(uint8_t)VL53L1_i2c_decode_with_mask(
 1214              		.loc 1 1190 12 is_stmt 0 view .LVU355
 1215 0028 0094     		str	r4, [sp]
 1216 002a 2346     		mov	r3, r4
 1217 002c 1F22     		movs	r2, #31
 1218 002e 3946     		mov	r1, r7
 1219 0030 0120     		movs	r0, #1
 1220 0032 FFF7FEFF 		bl	VL53L1_i2c_decode_with_mask
 1221              	.LVL131:
1189:Drivers/BSP/Components/vl53l1cb/modules/vl53l1_nvm.c **** 		(uint8_t)VL53L1_i2c_decode_with_mask(
 1222              		.loc 1 1189 38 view .LVU356
 1223 0036 6870     		strb	r0, [r5, #1]
1191:Drivers/BSP/Components/vl53l1cb/modules/vl53l1_nvm.c **** 			1,
1192:Drivers/BSP/Components/vl53l1cb/modules/vl53l1_nvm.c **** 			pbuffer + VL53L1_NVM__EWS__TEST_PROGRAM_MAJOR_MINOR,
1193:Drivers/BSP/Components/vl53l1cb/modules/vl53l1_nvm.c **** 			0x0000001F,
1194:Drivers/BSP/Components/vl53l1cb/modules/vl53l1_nvm.c **** 			0,
1195:Drivers/BSP/Components/vl53l1cb/modules/vl53l1_nvm.c **** 			0);
1196:Drivers/BSP/Components/vl53l1cb/modules/vl53l1_nvm.c **** 	pdata->nvm__ews__probe_card_major =
 1224              		.loc 1 1196 2 is_stmt 1 view .LVU357
1197:Drivers/BSP/Components/vl53l1cb/modules/vl53l1_nvm.c **** 		(uint8_t)VL53L1_i2c_decode_with_mask(
 1225              		.loc 1 1197 12 is_stmt 0 view .LVU358
 1226 0038 06F2F517 		addw	r7, r6, #501
 1227 003c 0094     		str	r4, [sp]
 1228 003e 0423     		movs	r3, #4
 1229 0040 F022     		movs	r2, #240
 1230 0042 3946     		mov	r1, r7
 1231 0044 0120     		movs	r0, #1
 1232 0046 FFF7FEFF 		bl	VL53L1_i2c_decode_with_mask
 1233              	.LVL132:
1196:Drivers/BSP/Components/vl53l1cb/modules/vl53l1_nvm.c **** 		(uint8_t)VL53L1_i2c_decode_with_mask(
 1234              		.loc 1 1196 36 view .LVU359
 1235 004a A870     		strb	r0, [r5, #2]
1198:Drivers/BSP/Components/vl53l1cb/modules/vl53l1_nvm.c **** 			1,
1199:Drivers/BSP/Components/vl53l1cb/modules/vl53l1_nvm.c **** 			pbuffer + VL53L1_NVM__EWS__PROBE_CARD_MAJOR_MINOR,
1200:Drivers/BSP/Components/vl53l1cb/modules/vl53l1_nvm.c **** 			0x000000F0,
1201:Drivers/BSP/Components/vl53l1cb/modules/vl53l1_nvm.c **** 			4,
1202:Drivers/BSP/Components/vl53l1cb/modules/vl53l1_nvm.c **** 			0);
1203:Drivers/BSP/Components/vl53l1cb/modules/vl53l1_nvm.c **** 	pdata->nvm__ews__probe_card_minor =
 1236              		.loc 1 1203 2 is_stmt 1 view .LVU360
1204:Drivers/BSP/Components/vl53l1cb/modules/vl53l1_nvm.c **** 		(uint8_t)VL53L1_i2c_decode_with_mask(
 1237              		.loc 1 1204 12 is_stmt 0 view .LVU361
 1238 004c 0094     		str	r4, [sp]
 1239 004e 2346     		mov	r3, r4
 1240 0050 0F22     		movs	r2, #15
 1241 0052 3946     		mov	r1, r7
 1242 0054 0120     		movs	r0, #1
 1243 0056 FFF7FEFF 		bl	VL53L1_i2c_decode_with_mask
 1244              	.LVL133:
1203:Drivers/BSP/Components/vl53l1cb/modules/vl53l1_nvm.c **** 		(uint8_t)VL53L1_i2c_decode_with_mask(
 1245              		.loc 1 1203 36 view .LVU362
 1246 005a E870     		strb	r0, [r5, #3]
ARM GAS  C:\Temp\ccKRfCgt.s 			page 46


1205:Drivers/BSP/Components/vl53l1cb/modules/vl53l1_nvm.c **** 			1,
1206:Drivers/BSP/Components/vl53l1cb/modules/vl53l1_nvm.c **** 			pbuffer + VL53L1_NVM__EWS__PROBE_CARD_MAJOR_MINOR,
1207:Drivers/BSP/Components/vl53l1cb/modules/vl53l1_nvm.c **** 			0x0000000F,
1208:Drivers/BSP/Components/vl53l1cb/modules/vl53l1_nvm.c **** 			0,
1209:Drivers/BSP/Components/vl53l1cb/modules/vl53l1_nvm.c **** 			0);
1210:Drivers/BSP/Components/vl53l1cb/modules/vl53l1_nvm.c **** 	pdata->nvm__ews__tester_id =
 1247              		.loc 1 1210 2 is_stmt 1 view .LVU363
1211:Drivers/BSP/Components/vl53l1cb/modules/vl53l1_nvm.c **** 		(uint8_t)VL53L1_i2c_decode_with_mask(
 1248              		.loc 1 1211 12 is_stmt 0 view .LVU364
 1249 005c 0094     		str	r4, [sp]
 1250 005e 2346     		mov	r3, r4
 1251 0060 FF22     		movs	r2, #255
 1252 0062 06F5FB71 		add	r1, r6, #502
 1253 0066 0120     		movs	r0, #1
 1254 0068 FFF7FEFF 		bl	VL53L1_i2c_decode_with_mask
 1255              	.LVL134:
1210:Drivers/BSP/Components/vl53l1cb/modules/vl53l1_nvm.c **** 		(uint8_t)VL53L1_i2c_decode_with_mask(
 1256              		.loc 1 1210 29 view .LVU365
 1257 006c 2871     		strb	r0, [r5, #4]
1212:Drivers/BSP/Components/vl53l1cb/modules/vl53l1_nvm.c **** 			1,
1213:Drivers/BSP/Components/vl53l1cb/modules/vl53l1_nvm.c **** 			pbuffer + VL53L1_NVM__EWS__TESTER_ID,
1214:Drivers/BSP/Components/vl53l1cb/modules/vl53l1_nvm.c **** 			0x000000FF,
1215:Drivers/BSP/Components/vl53l1cb/modules/vl53l1_nvm.c **** 			0,
1216:Drivers/BSP/Components/vl53l1cb/modules/vl53l1_nvm.c **** 			0);
1217:Drivers/BSP/Components/vl53l1cb/modules/vl53l1_nvm.c **** 	pdata->nvm__ews__lot[0] =
 1258              		.loc 1 1217 2 is_stmt 1 view .LVU366
1218:Drivers/BSP/Components/vl53l1cb/modules/vl53l1_nvm.c **** 		(char)VL53L1_i2c_decode_with_mask(
 1259              		.loc 1 1218 9 is_stmt 0 view .LVU367
 1260 006e 06F5FC78 		add	r8, r6, #504
 1261 0072 2027     		movs	r7, #32
 1262 0074 0097     		str	r7, [sp]
 1263 0076 0223     		movs	r3, #2
 1264 0078 FC22     		movs	r2, #252
 1265 007a 4146     		mov	r1, r8
 1266 007c 0120     		movs	r0, #1
 1267 007e FFF7FEFF 		bl	VL53L1_i2c_decode_with_mask
 1268              	.LVL135:
1217:Drivers/BSP/Components/vl53l1cb/modules/vl53l1_nvm.c **** 		(char)VL53L1_i2c_decode_with_mask(
 1269              		.loc 1 1217 26 view .LVU368
 1270 0082 6871     		strb	r0, [r5, #5]
1219:Drivers/BSP/Components/vl53l1cb/modules/vl53l1_nvm.c **** 			1,
1220:Drivers/BSP/Components/vl53l1cb/modules/vl53l1_nvm.c **** 			pbuffer + VL53L1_NVM__EWS__LOT__BYTE_0,
1221:Drivers/BSP/Components/vl53l1cb/modules/vl53l1_nvm.c **** 			0x000000FC,
1222:Drivers/BSP/Components/vl53l1cb/modules/vl53l1_nvm.c **** 			2,
1223:Drivers/BSP/Components/vl53l1cb/modules/vl53l1_nvm.c **** 			32);
1224:Drivers/BSP/Components/vl53l1cb/modules/vl53l1_nvm.c **** 	pdata->nvm__ews__lot[1] =
 1271              		.loc 1 1224 2 is_stmt 1 view .LVU369
1225:Drivers/BSP/Components/vl53l1cb/modules/vl53l1_nvm.c **** 		(char)VL53L1_i2c_decode_with_mask(
 1272              		.loc 1 1225 9 is_stmt 0 view .LVU370
 1273 0084 0097     		str	r7, [sp]
 1274 0086 0423     		movs	r3, #4
 1275 0088 4FF47C72 		mov	r2, #1008
 1276 008c 4146     		mov	r1, r8
 1277 008e 0220     		movs	r0, #2
 1278 0090 FFF7FEFF 		bl	VL53L1_i2c_decode_with_mask
 1279              	.LVL136:
1224:Drivers/BSP/Components/vl53l1cb/modules/vl53l1_nvm.c **** 		(char)VL53L1_i2c_decode_with_mask(
ARM GAS  C:\Temp\ccKRfCgt.s 			page 47


 1280              		.loc 1 1224 26 view .LVU371
 1281 0094 A871     		strb	r0, [r5, #6]
1226:Drivers/BSP/Components/vl53l1cb/modules/vl53l1_nvm.c **** 			2,
1227:Drivers/BSP/Components/vl53l1cb/modules/vl53l1_nvm.c **** 			pbuffer + VL53L1_NVM__EWS__LOT__BYTE_1 - 1,
1228:Drivers/BSP/Components/vl53l1cb/modules/vl53l1_nvm.c **** 			0x000003F0,
1229:Drivers/BSP/Components/vl53l1cb/modules/vl53l1_nvm.c **** 			4,
1230:Drivers/BSP/Components/vl53l1cb/modules/vl53l1_nvm.c **** 			32);
1231:Drivers/BSP/Components/vl53l1cb/modules/vl53l1_nvm.c **** 	pdata->nvm__ews__lot[2] =
 1282              		.loc 1 1231 2 is_stmt 1 view .LVU372
1232:Drivers/BSP/Components/vl53l1cb/modules/vl53l1_nvm.c **** 		(char)VL53L1_i2c_decode_with_mask(
 1283              		.loc 1 1232 9 is_stmt 0 view .LVU373
 1284 0096 0097     		str	r7, [sp]
 1285 0098 0623     		movs	r3, #6
 1286 009a 4FF47C62 		mov	r2, #4032
 1287 009e 06F2F911 		addw	r1, r6, #505
 1288 00a2 0220     		movs	r0, #2
 1289 00a4 FFF7FEFF 		bl	VL53L1_i2c_decode_with_mask
 1290              	.LVL137:
1231:Drivers/BSP/Components/vl53l1cb/modules/vl53l1_nvm.c **** 		(char)VL53L1_i2c_decode_with_mask(
 1291              		.loc 1 1231 26 view .LVU374
 1292 00a8 E871     		strb	r0, [r5, #7]
1233:Drivers/BSP/Components/vl53l1cb/modules/vl53l1_nvm.c **** 			2,
1234:Drivers/BSP/Components/vl53l1cb/modules/vl53l1_nvm.c **** 			pbuffer + VL53L1_NVM__EWS__LOT__BYTE_2 - 1,
1235:Drivers/BSP/Components/vl53l1cb/modules/vl53l1_nvm.c **** 			0x00000FC0,
1236:Drivers/BSP/Components/vl53l1cb/modules/vl53l1_nvm.c **** 			6,
1237:Drivers/BSP/Components/vl53l1cb/modules/vl53l1_nvm.c **** 			32);
1238:Drivers/BSP/Components/vl53l1cb/modules/vl53l1_nvm.c **** 	pdata->nvm__ews__lot[3] =
 1293              		.loc 1 1238 2 is_stmt 1 view .LVU375
1239:Drivers/BSP/Components/vl53l1cb/modules/vl53l1_nvm.c **** 		(char)VL53L1_i2c_decode_with_mask(
 1294              		.loc 1 1239 9 is_stmt 0 view .LVU376
 1295 00aa 0097     		str	r7, [sp]
 1296 00ac 2346     		mov	r3, r4
 1297 00ae 3F22     		movs	r2, #63
 1298 00b0 06F5FD71 		add	r1, r6, #506
 1299 00b4 0120     		movs	r0, #1
 1300 00b6 FFF7FEFF 		bl	VL53L1_i2c_decode_with_mask
 1301              	.LVL138:
1238:Drivers/BSP/Components/vl53l1cb/modules/vl53l1_nvm.c **** 		(char)VL53L1_i2c_decode_with_mask(
 1302              		.loc 1 1238 26 view .LVU377
 1303 00ba 2872     		strb	r0, [r5, #8]
1240:Drivers/BSP/Components/vl53l1cb/modules/vl53l1_nvm.c **** 			1,
1241:Drivers/BSP/Components/vl53l1cb/modules/vl53l1_nvm.c **** 			pbuffer + VL53L1_NVM__EWS__LOT__BYTE_2,
1242:Drivers/BSP/Components/vl53l1cb/modules/vl53l1_nvm.c **** 			0x0000003F,
1243:Drivers/BSP/Components/vl53l1cb/modules/vl53l1_nvm.c **** 			0,
1244:Drivers/BSP/Components/vl53l1cb/modules/vl53l1_nvm.c **** 			32);
1245:Drivers/BSP/Components/vl53l1cb/modules/vl53l1_nvm.c **** 	pdata->nvm__ews__lot[4] =
 1304              		.loc 1 1245 2 is_stmt 1 view .LVU378
1246:Drivers/BSP/Components/vl53l1cb/modules/vl53l1_nvm.c **** 		(char)VL53L1_i2c_decode_with_mask(
 1305              		.loc 1 1246 9 is_stmt 0 view .LVU379
 1306 00bc 06F2FB18 		addw	r8, r6, #507
 1307 00c0 0097     		str	r7, [sp]
 1308 00c2 0223     		movs	r3, #2
 1309 00c4 FC22     		movs	r2, #252
 1310 00c6 4146     		mov	r1, r8
 1311 00c8 0120     		movs	r0, #1
 1312 00ca FFF7FEFF 		bl	VL53L1_i2c_decode_with_mask
 1313              	.LVL139:
ARM GAS  C:\Temp\ccKRfCgt.s 			page 48


1245:Drivers/BSP/Components/vl53l1cb/modules/vl53l1_nvm.c **** 		(char)VL53L1_i2c_decode_with_mask(
 1314              		.loc 1 1245 26 view .LVU380
 1315 00ce 6872     		strb	r0, [r5, #9]
1247:Drivers/BSP/Components/vl53l1cb/modules/vl53l1_nvm.c **** 			1,
1248:Drivers/BSP/Components/vl53l1cb/modules/vl53l1_nvm.c **** 			pbuffer + VL53L1_NVM__EWS__LOT__BYTE_3,
1249:Drivers/BSP/Components/vl53l1cb/modules/vl53l1_nvm.c **** 			0x000000FC,
1250:Drivers/BSP/Components/vl53l1cb/modules/vl53l1_nvm.c **** 			2,
1251:Drivers/BSP/Components/vl53l1cb/modules/vl53l1_nvm.c **** 			32);
1252:Drivers/BSP/Components/vl53l1cb/modules/vl53l1_nvm.c **** 	pdata->nvm__ews__lot[5] =
 1316              		.loc 1 1252 2 is_stmt 1 view .LVU381
1253:Drivers/BSP/Components/vl53l1cb/modules/vl53l1_nvm.c **** 		(char)VL53L1_i2c_decode_with_mask(
 1317              		.loc 1 1253 9 is_stmt 0 view .LVU382
 1318 00d0 0097     		str	r7, [sp]
 1319 00d2 0423     		movs	r3, #4
 1320 00d4 4FF47C72 		mov	r2, #1008
 1321 00d8 4146     		mov	r1, r8
 1322 00da 0220     		movs	r0, #2
 1323 00dc FFF7FEFF 		bl	VL53L1_i2c_decode_with_mask
 1324              	.LVL140:
1252:Drivers/BSP/Components/vl53l1cb/modules/vl53l1_nvm.c **** 		(char)VL53L1_i2c_decode_with_mask(
 1325              		.loc 1 1252 26 view .LVU383
 1326 00e0 A872     		strb	r0, [r5, #10]
1254:Drivers/BSP/Components/vl53l1cb/modules/vl53l1_nvm.c **** 			2,
1255:Drivers/BSP/Components/vl53l1cb/modules/vl53l1_nvm.c **** 			pbuffer + VL53L1_NVM__EWS__LOT__BYTE_4 - 1,
1256:Drivers/BSP/Components/vl53l1cb/modules/vl53l1_nvm.c **** 			0x000003F0,
1257:Drivers/BSP/Components/vl53l1cb/modules/vl53l1_nvm.c **** 			4,
1258:Drivers/BSP/Components/vl53l1cb/modules/vl53l1_nvm.c **** 			32);
1259:Drivers/BSP/Components/vl53l1cb/modules/vl53l1_nvm.c **** 	pdata->nvm__ews__lot[6] =
 1327              		.loc 1 1259 2 is_stmt 1 view .LVU384
1260:Drivers/BSP/Components/vl53l1cb/modules/vl53l1_nvm.c **** 		(char)VL53L1_i2c_decode_with_mask(
 1328              		.loc 1 1260 9 is_stmt 0 view .LVU385
 1329 00e2 0097     		str	r7, [sp]
 1330 00e4 0623     		movs	r3, #6
 1331 00e6 4FF47C62 		mov	r2, #4032
 1332 00ea 06F5FE71 		add	r1, r6, #508
 1333 00ee 0220     		movs	r0, #2
 1334 00f0 FFF7FEFF 		bl	VL53L1_i2c_decode_with_mask
 1335              	.LVL141:
1259:Drivers/BSP/Components/vl53l1cb/modules/vl53l1_nvm.c **** 		(char)VL53L1_i2c_decode_with_mask(
 1336              		.loc 1 1259 26 view .LVU386
 1337 00f4 E872     		strb	r0, [r5, #11]
1261:Drivers/BSP/Components/vl53l1cb/modules/vl53l1_nvm.c **** 			2,
1262:Drivers/BSP/Components/vl53l1cb/modules/vl53l1_nvm.c **** 			pbuffer + VL53L1_NVM__EWS__LOT__BYTE_5 - 1,
1263:Drivers/BSP/Components/vl53l1cb/modules/vl53l1_nvm.c **** 			0x00000FC0,
1264:Drivers/BSP/Components/vl53l1cb/modules/vl53l1_nvm.c **** 			6,
1265:Drivers/BSP/Components/vl53l1cb/modules/vl53l1_nvm.c **** 			32);
1266:Drivers/BSP/Components/vl53l1cb/modules/vl53l1_nvm.c **** 
1267:Drivers/BSP/Components/vl53l1cb/modules/vl53l1_nvm.c **** 	pdata->nvm__ews__lot[7] = 0x00;
 1338              		.loc 1 1267 2 is_stmt 1 view .LVU387
 1339              		.loc 1 1267 26 is_stmt 0 view .LVU388
 1340 00f6 2C73     		strb	r4, [r5, #12]
1268:Drivers/BSP/Components/vl53l1cb/modules/vl53l1_nvm.c **** 
1269:Drivers/BSP/Components/vl53l1cb/modules/vl53l1_nvm.c **** 	pdata->nvm__ews__wafer =
 1341              		.loc 1 1269 2 is_stmt 1 view .LVU389
1270:Drivers/BSP/Components/vl53l1cb/modules/vl53l1_nvm.c **** 		(uint8_t)VL53L1_i2c_decode_with_mask(
 1342              		.loc 1 1270 12 is_stmt 0 view .LVU390
 1343 00f8 0094     		str	r4, [sp]
ARM GAS  C:\Temp\ccKRfCgt.s 			page 49


 1344 00fa 2346     		mov	r3, r4
 1345 00fc 1F22     		movs	r2, #31
 1346 00fe 06F2FD11 		addw	r1, r6, #509
 1347 0102 0120     		movs	r0, #1
 1348 0104 FFF7FEFF 		bl	VL53L1_i2c_decode_with_mask
 1349              	.LVL142:
1269:Drivers/BSP/Components/vl53l1cb/modules/vl53l1_nvm.c **** 		(uint8_t)VL53L1_i2c_decode_with_mask(
 1350              		.loc 1 1269 25 view .LVU391
 1351 0108 6873     		strb	r0, [r5, #13]
1271:Drivers/BSP/Components/vl53l1cb/modules/vl53l1_nvm.c **** 			1,
1272:Drivers/BSP/Components/vl53l1cb/modules/vl53l1_nvm.c **** 			pbuffer + VL53L1_NVM__EWS__WAFER,
1273:Drivers/BSP/Components/vl53l1cb/modules/vl53l1_nvm.c **** 			0x0000001F,
1274:Drivers/BSP/Components/vl53l1cb/modules/vl53l1_nvm.c **** 			0,
1275:Drivers/BSP/Components/vl53l1cb/modules/vl53l1_nvm.c **** 			0);
1276:Drivers/BSP/Components/vl53l1cb/modules/vl53l1_nvm.c **** 	pdata->nvm__ews__xcoord =
 1352              		.loc 1 1276 2 is_stmt 1 view .LVU392
1277:Drivers/BSP/Components/vl53l1cb/modules/vl53l1_nvm.c **** 		(uint8_t)VL53L1_i2c_decode_with_mask(
 1353              		.loc 1 1277 12 is_stmt 0 view .LVU393
 1354 010a 0094     		str	r4, [sp]
 1355 010c 2346     		mov	r3, r4
 1356 010e FF22     		movs	r2, #255
 1357 0110 06F5FF71 		add	r1, r6, #510
 1358 0114 0120     		movs	r0, #1
 1359 0116 FFF7FEFF 		bl	VL53L1_i2c_decode_with_mask
 1360              	.LVL143:
1276:Drivers/BSP/Components/vl53l1cb/modules/vl53l1_nvm.c **** 		(uint8_t)VL53L1_i2c_decode_with_mask(
 1361              		.loc 1 1276 26 view .LVU394
 1362 011a A873     		strb	r0, [r5, #14]
1278:Drivers/BSP/Components/vl53l1cb/modules/vl53l1_nvm.c **** 			1,
1279:Drivers/BSP/Components/vl53l1cb/modules/vl53l1_nvm.c **** 			pbuffer + VL53L1_NVM__EWS__XCOORD,
1280:Drivers/BSP/Components/vl53l1cb/modules/vl53l1_nvm.c **** 			0x000000FF,
1281:Drivers/BSP/Components/vl53l1cb/modules/vl53l1_nvm.c **** 			0,
1282:Drivers/BSP/Components/vl53l1cb/modules/vl53l1_nvm.c **** 			0);
1283:Drivers/BSP/Components/vl53l1cb/modules/vl53l1_nvm.c **** 	pdata->nvm__ews__ycoord =
 1363              		.loc 1 1283 2 is_stmt 1 view .LVU395
1284:Drivers/BSP/Components/vl53l1cb/modules/vl53l1_nvm.c **** 		(uint8_t)VL53L1_i2c_decode_with_mask(
 1364              		.loc 1 1284 12 is_stmt 0 view .LVU396
 1365 011c 0094     		str	r4, [sp]
 1366 011e 2346     		mov	r3, r4
 1367 0120 FF22     		movs	r2, #255
 1368 0122 06F2FF11 		addw	r1, r6, #511
 1369 0126 0120     		movs	r0, #1
 1370 0128 FFF7FEFF 		bl	VL53L1_i2c_decode_with_mask
 1371              	.LVL144:
1283:Drivers/BSP/Components/vl53l1cb/modules/vl53l1_nvm.c **** 		(uint8_t)VL53L1_i2c_decode_with_mask(
 1372              		.loc 1 1283 26 view .LVU397
 1373 012c E873     		strb	r0, [r5, #15]
1285:Drivers/BSP/Components/vl53l1cb/modules/vl53l1_nvm.c **** 			1,
1286:Drivers/BSP/Components/vl53l1cb/modules/vl53l1_nvm.c **** 			pbuffer + VL53L1_NVM__EWS__YCOORD,
1287:Drivers/BSP/Components/vl53l1cb/modules/vl53l1_nvm.c **** 			0x000000FF,
1288:Drivers/BSP/Components/vl53l1cb/modules/vl53l1_nvm.c **** 			0,
1289:Drivers/BSP/Components/vl53l1cb/modules/vl53l1_nvm.c **** 			0);
1290:Drivers/BSP/Components/vl53l1cb/modules/vl53l1_nvm.c **** 
1291:Drivers/BSP/Components/vl53l1cb/modules/vl53l1_nvm.c **** 	return status;
 1374              		.loc 1 1291 2 is_stmt 1 view .LVU398
 1375              		.loc 1 1291 9 is_stmt 0 view .LVU399
 1376 012e 2046     		mov	r0, r4
ARM GAS  C:\Temp\ccKRfCgt.s 			page 50


1292:Drivers/BSP/Components/vl53l1cb/modules/vl53l1_nvm.c **** 
1293:Drivers/BSP/Components/vl53l1cb/modules/vl53l1_nvm.c **** }
 1377              		.loc 1 1293 1 view .LVU400
 1378 0130 02B0     		add	sp, sp, #8
 1379              		.cfi_def_cfa_offset 24
 1380              		@ sp needed
 1381 0132 BDE8F081 		pop	{r4, r5, r6, r7, r8, pc}
 1382              	.LVL145:
 1383              	.L59:
 1384              		.cfi_def_cfa_offset 0
 1385              		.cfi_restore 4
 1386              		.cfi_restore 5
 1387              		.cfi_restore 6
 1388              		.cfi_restore 7
 1389              		.cfi_restore 8
 1390              		.cfi_restore 14
1180:Drivers/BSP/Components/vl53l1cb/modules/vl53l1_nvm.c **** 
 1391              		.loc 1 1180 10 view .LVU401
 1392 0136 6FF00800 		mvn	r0, #8
 1393              	.LVL146:
 1394              		.loc 1 1293 1 view .LVU402
 1395 013a 7047     		bx	lr
 1396              		.cfi_endproc
 1397              	.LFE12:
 1399              		.section	.text.VL53L1_nvm_format_decode,"ax",%progbits
 1400              		.align	1
 1401              		.global	VL53L1_nvm_format_decode
 1402              		.syntax unified
 1403              		.thumb
 1404              		.thumb_func
 1406              	VL53L1_nvm_format_decode:
 1407              	.LVL147:
 1408              	.LFB6:
 245:Drivers/BSP/Components/vl53l1cb/modules/vl53l1_nvm.c **** 
 1409              		.loc 1 245 1 is_stmt 1 view -0
 1410              		.cfi_startproc
 1411              		@ args = 0, pretend = 0, frame = 16
 1412              		@ frame_needed = 0, uses_anonymous_args = 0
 249:Drivers/BSP/Components/vl53l1cb/modules/vl53l1_nvm.c **** 
 1413              		.loc 1 249 2 view .LVU404
 251:Drivers/BSP/Components/vl53l1cb/modules/vl53l1_nvm.c **** 	uint8_t   *ptmp     = NULL;
 1414              		.loc 1 251 2 view .LVU405
 252:Drivers/BSP/Components/vl53l1cb/modules/vl53l1_nvm.c **** 	int        pptmp[VL53L1_NVM_MAX_FMT_RANGE_DATA];
 1415              		.loc 1 252 2 view .LVU406
 253:Drivers/BSP/Components/vl53l1cb/modules/vl53l1_nvm.c **** 
 1416              		.loc 1 253 2 view .LVU407
 255:Drivers/BSP/Components/vl53l1cb/modules/vl53l1_nvm.c **** 
 1417              		.loc 1 255 24 view .LVU408
 257:Drivers/BSP/Components/vl53l1cb/modules/vl53l1_nvm.c **** 		return VL53L1_ERROR_BUFFER_TOO_SMALL;
 1418              		.loc 1 257 2 view .LVU409
 257:Drivers/BSP/Components/vl53l1cb/modules/vl53l1_nvm.c **** 		return VL53L1_ERROR_BUFFER_TOO_SMALL;
 1419              		.loc 1 257 5 is_stmt 0 view .LVU410
 1420 0000 B0F5007F 		cmp	r0, #512
 1421 0004 C0F02783 		bcc	.L86
 245:Drivers/BSP/Components/vl53l1cb/modules/vl53l1_nvm.c **** 
 1422              		.loc 1 245 1 view .LVU411
 1423 0008 2DE9F043 		push	{r4, r5, r6, r7, r8, r9, lr}
ARM GAS  C:\Temp\ccKRfCgt.s 			page 51


 1424              		.cfi_def_cfa_offset 28
 1425              		.cfi_offset 4, -28
 1426              		.cfi_offset 5, -24
 1427              		.cfi_offset 6, -20
 1428              		.cfi_offset 7, -16
 1429              		.cfi_offset 8, -12
 1430              		.cfi_offset 9, -8
 1431              		.cfi_offset 14, -4
 1432 000c 87B0     		sub	sp, sp, #28
 1433              		.cfi_def_cfa_offset 56
 1434 000e 0746     		mov	r7, r0
 1435 0010 0E46     		mov	r6, r1
 1436 0012 1546     		mov	r5, r2
 260:Drivers/BSP/Components/vl53l1cb/modules/vl53l1_nvm.c **** 		(uint8_t)VL53L1_i2c_decode_with_mask(
 1437              		.loc 1 260 2 is_stmt 1 view .LVU412
 261:Drivers/BSP/Components/vl53l1cb/modules/vl53l1_nvm.c **** 			1,
 1438              		.loc 1 261 12 is_stmt 0 view .LVU413
 1439 0014 0024     		movs	r4, #0
 1440 0016 0094     		str	r4, [sp]
 1441 0018 2346     		mov	r3, r4
 1442 001a FF22     		movs	r2, #255
 1443              	.LVL148:
 261:Drivers/BSP/Components/vl53l1cb/modules/vl53l1_nvm.c **** 			1,
 1444              		.loc 1 261 12 view .LVU414
 1445 001c 0831     		adds	r1, r1, #8
 1446              	.LVL149:
 261:Drivers/BSP/Components/vl53l1cb/modules/vl53l1_nvm.c **** 			1,
 1447              		.loc 1 261 12 view .LVU415
 1448 001e 0120     		movs	r0, #1
 1449              	.LVL150:
 261:Drivers/BSP/Components/vl53l1cb/modules/vl53l1_nvm.c **** 			1,
 1450              		.loc 1 261 12 view .LVU416
 1451 0020 FFF7FEFF 		bl	VL53L1_i2c_decode_with_mask
 1452              	.LVL151:
 260:Drivers/BSP/Components/vl53l1cb/modules/vl53l1_nvm.c **** 		(uint8_t)VL53L1_i2c_decode_with_mask(
 1453              		.loc 1 260 38 view .LVU417
 1454 0024 2870     		strb	r0, [r5]
 267:Drivers/BSP/Components/vl53l1cb/modules/vl53l1_nvm.c **** 		(uint8_t)VL53L1_i2c_decode_with_mask(
 1455              		.loc 1 267 2 is_stmt 1 view .LVU418
 268:Drivers/BSP/Components/vl53l1cb/modules/vl53l1_nvm.c **** 			1,
 1456              		.loc 1 268 12 is_stmt 0 view .LVU419
 1457 0026 0094     		str	r4, [sp]
 1458 0028 2346     		mov	r3, r4
 1459 002a FF22     		movs	r2, #255
 1460 002c 06F10C01 		add	r1, r6, #12
 1461 0030 0120     		movs	r0, #1
 1462 0032 FFF7FEFF 		bl	VL53L1_i2c_decode_with_mask
 1463              	.LVL152:
 267:Drivers/BSP/Components/vl53l1cb/modules/vl53l1_nvm.c **** 		(uint8_t)VL53L1_i2c_decode_with_mask(
 1464              		.loc 1 267 41 view .LVU420
 1465 0036 6870     		strb	r0, [r5, #1]
 274:Drivers/BSP/Components/vl53l1cb/modules/vl53l1_nvm.c **** 		(uint8_t)VL53L1_i2c_decode_with_mask(
 1466              		.loc 1 274 2 is_stmt 1 view .LVU421
 275:Drivers/BSP/Components/vl53l1cb/modules/vl53l1_nvm.c **** 			1,
 1467              		.loc 1 275 12 is_stmt 0 view .LVU422
 1468 0038 0094     		str	r4, [sp]
 1469 003a 2346     		mov	r3, r4
ARM GAS  C:\Temp\ccKRfCgt.s 			page 52


 1470 003c 0F22     		movs	r2, #15
 1471 003e 06F10D01 		add	r1, r6, #13
 1472 0042 0120     		movs	r0, #1
 1473 0044 FFF7FEFF 		bl	VL53L1_i2c_decode_with_mask
 1474              	.LVL153:
 274:Drivers/BSP/Components/vl53l1cb/modules/vl53l1_nvm.c **** 		(uint8_t)VL53L1_i2c_decode_with_mask(
 1475              		.loc 1 274 41 view .LVU423
 1476 0048 A870     		strb	r0, [r5, #2]
 281:Drivers/BSP/Components/vl53l1cb/modules/vl53l1_nvm.c **** 		(uint16_t)VL53L1_i2c_decode_with_mask(
 1477              		.loc 1 281 2 is_stmt 1 view .LVU424
 282:Drivers/BSP/Components/vl53l1cb/modules/vl53l1_nvm.c **** 			2,
 1478              		.loc 1 282 13 is_stmt 0 view .LVU425
 1479 004a 0094     		str	r4, [sp]
 1480 004c 2346     		mov	r3, r4
 1481 004e 4FF6FF72 		movw	r2, #65535
 1482 0052 06F10E01 		add	r1, r6, #14
 1483 0056 0220     		movs	r0, #2
 1484 0058 FFF7FEFF 		bl	VL53L1_i2c_decode_with_mask
 1485              	.LVL154:
 281:Drivers/BSP/Components/vl53l1cb/modules/vl53l1_nvm.c **** 		(uint16_t)VL53L1_i2c_decode_with_mask(
 1486              		.loc 1 281 39 view .LVU426
 1487 005c A880     		strh	r0, [r5, #4]	@ movhi
 288:Drivers/BSP/Components/vl53l1cb/modules/vl53l1_nvm.c **** 		(uint8_t)VL53L1_i2c_decode_with_mask(
 1488              		.loc 1 288 2 is_stmt 1 view .LVU427
 289:Drivers/BSP/Components/vl53l1cb/modules/vl53l1_nvm.c **** 			1,
 1489              		.loc 1 289 12 is_stmt 0 view .LVU428
 1490 005e 0094     		str	r4, [sp]
 1491 0060 2346     		mov	r3, r4
 1492 0062 FF22     		movs	r2, #255
 1493 0064 06F11001 		add	r1, r6, #16
 1494 0068 0120     		movs	r0, #1
 1495 006a FFF7FEFF 		bl	VL53L1_i2c_decode_with_mask
 1496              	.LVL155:
 288:Drivers/BSP/Components/vl53l1cb/modules/vl53l1_nvm.c **** 		(uint8_t)VL53L1_i2c_decode_with_mask(
 1497              		.loc 1 288 24 view .LVU429
 1498 006e A871     		strb	r0, [r5, #6]
 295:Drivers/BSP/Components/vl53l1cb/modules/vl53l1_nvm.c **** 		(uint8_t)VL53L1_i2c_decode_with_mask(
 1499              		.loc 1 295 2 is_stmt 1 view .LVU430
 296:Drivers/BSP/Components/vl53l1cb/modules/vl53l1_nvm.c **** 			1,
 1500              		.loc 1 296 12 is_stmt 0 view .LVU431
 1501 0070 0094     		str	r4, [sp]
 1502 0072 2346     		mov	r3, r4
 1503 0074 FF22     		movs	r2, #255
 1504 0076 06F11101 		add	r1, r6, #17
 1505 007a 0120     		movs	r0, #1
 1506 007c FFF7FEFF 		bl	VL53L1_i2c_decode_with_mask
 1507              	.LVL156:
 295:Drivers/BSP/Components/vl53l1cb/modules/vl53l1_nvm.c **** 		(uint8_t)VL53L1_i2c_decode_with_mask(
 1508              		.loc 1 295 37 view .LVU432
 1509 0080 E871     		strb	r0, [r5, #7]
 302:Drivers/BSP/Components/vl53l1cb/modules/vl53l1_nvm.c **** 		(uint16_t)VL53L1_i2c_decode_with_mask(
 1510              		.loc 1 302 2 is_stmt 1 view .LVU433
 303:Drivers/BSP/Components/vl53l1cb/modules/vl53l1_nvm.c **** 			2,
 1511              		.loc 1 303 13 is_stmt 0 view .LVU434
 1512 0082 0094     		str	r4, [sp]
 1513 0084 2346     		mov	r3, r4
 1514 0086 4FF6FF72 		movw	r2, #65535
ARM GAS  C:\Temp\ccKRfCgt.s 			page 53


 1515 008a 06F11401 		add	r1, r6, #20
 1516 008e 0220     		movs	r0, #2
 1517 0090 FFF7FEFF 		bl	VL53L1_i2c_decode_with_mask
 1518              	.LVL157:
 302:Drivers/BSP/Components/vl53l1cb/modules/vl53l1_nvm.c **** 		(uint16_t)VL53L1_i2c_decode_with_mask(
 1519              		.loc 1 302 38 view .LVU435
 1520 0094 2881     		strh	r0, [r5, #8]	@ movhi
 310:Drivers/BSP/Components/vl53l1cb/modules/vl53l1_nvm.c **** 		(uint8_t)VL53L1_i2c_decode_with_mask(
 1521              		.loc 1 310 2 is_stmt 1 view .LVU436
 311:Drivers/BSP/Components/vl53l1cb/modules/vl53l1_nvm.c **** 			1,
 1522              		.loc 1 311 12 is_stmt 0 view .LVU437
 1523 0096 0094     		str	r4, [sp]
 1524 0098 2346     		mov	r3, r4
 1525 009a 7F22     		movs	r2, #127
 1526 009c 06F11601 		add	r1, r6, #22
 1527 00a0 0120     		movs	r0, #1
 1528 00a2 FFF7FEFF 		bl	VL53L1_i2c_decode_with_mask
 1529              	.LVL158:
 310:Drivers/BSP/Components/vl53l1cb/modules/vl53l1_nvm.c **** 		(uint8_t)VL53L1_i2c_decode_with_mask(
 1530              		.loc 1 310 37 view .LVU438
 1531 00a6 A872     		strb	r0, [r5, #10]
 317:Drivers/BSP/Components/vl53l1cb/modules/vl53l1_nvm.c **** 		(uint8_t)VL53L1_i2c_decode_with_mask(
 1532              		.loc 1 317 2 is_stmt 1 view .LVU439
 318:Drivers/BSP/Components/vl53l1cb/modules/vl53l1_nvm.c **** 			1,
 1533              		.loc 1 318 12 is_stmt 0 view .LVU440
 1534 00a8 0094     		str	r4, [sp]
 1535 00aa 2346     		mov	r3, r4
 1536 00ac 0722     		movs	r2, #7
 1537 00ae 06F11701 		add	r1, r6, #23
 1538 00b2 0120     		movs	r0, #1
 1539 00b4 FFF7FEFF 		bl	VL53L1_i2c_decode_with_mask
 1540              	.LVL159:
 317:Drivers/BSP/Components/vl53l1cb/modules/vl53l1_nvm.c **** 		(uint8_t)VL53L1_i2c_decode_with_mask(
 1541              		.loc 1 317 37 view .LVU441
 1542 00b8 E872     		strb	r0, [r5, #11]
 324:Drivers/BSP/Components/vl53l1cb/modules/vl53l1_nvm.c **** 		(uint16_t)VL53L1_i2c_decode_with_mask(
 1543              		.loc 1 324 2 is_stmt 1 view .LVU442
 325:Drivers/BSP/Components/vl53l1cb/modules/vl53l1_nvm.c **** 			2,
 1544              		.loc 1 325 13 is_stmt 0 view .LVU443
 1545 00ba 0094     		str	r4, [sp]
 1546 00bc 2346     		mov	r3, r4
 1547 00be 40F2FF32 		movw	r2, #1023
 1548 00c2 06F11801 		add	r1, r6, #24
 1549 00c6 0220     		movs	r0, #2
 1550 00c8 FFF7FEFF 		bl	VL53L1_i2c_decode_with_mask
 1551              	.LVL160:
 324:Drivers/BSP/Components/vl53l1cb/modules/vl53l1_nvm.c **** 		(uint16_t)VL53L1_i2c_decode_with_mask(
 1552              		.loc 1 324 40 view .LVU444
 1553 00cc A881     		strh	r0, [r5, #12]	@ movhi
 331:Drivers/BSP/Components/vl53l1cb/modules/vl53l1_nvm.c **** 		(uint16_t)VL53L1_i2c_decode_with_mask(
 1554              		.loc 1 331 2 is_stmt 1 view .LVU445
 332:Drivers/BSP/Components/vl53l1cb/modules/vl53l1_nvm.c **** 			2,
 1555              		.loc 1 332 13 is_stmt 0 view .LVU446
 1556 00ce 0094     		str	r4, [sp]
 1557 00d0 2346     		mov	r3, r4
 1558 00d2 4FF6FF72 		movw	r2, #65535
 1559 00d6 06F11C01 		add	r1, r6, #28
ARM GAS  C:\Temp\ccKRfCgt.s 			page 54


 1560 00da 0220     		movs	r0, #2
 1561 00dc FFF7FEFF 		bl	VL53L1_i2c_decode_with_mask
 1562              	.LVL161:
 331:Drivers/BSP/Components/vl53l1cb/modules/vl53l1_nvm.c **** 		(uint16_t)VL53L1_i2c_decode_with_mask(
 1563              		.loc 1 331 38 view .LVU447
 1564 00e0 E881     		strh	r0, [r5, #14]	@ movhi
 339:Drivers/BSP/Components/vl53l1cb/modules/vl53l1_nvm.c **** 		(uint8_t)VL53L1_i2c_decode_with_mask(
 1565              		.loc 1 339 2 is_stmt 1 view .LVU448
 340:Drivers/BSP/Components/vl53l1cb/modules/vl53l1_nvm.c **** 			1,
 1566              		.loc 1 340 12 is_stmt 0 view .LVU449
 1567 00e2 0094     		str	r4, [sp]
 1568 00e4 2346     		mov	r3, r4
 1569 00e6 7F22     		movs	r2, #127
 1570 00e8 06F11E01 		add	r1, r6, #30
 1571 00ec 0120     		movs	r0, #1
 1572 00ee FFF7FEFF 		bl	VL53L1_i2c_decode_with_mask
 1573              	.LVL162:
 339:Drivers/BSP/Components/vl53l1cb/modules/vl53l1_nvm.c **** 		(uint8_t)VL53L1_i2c_decode_with_mask(
 1574              		.loc 1 339 37 view .LVU450
 1575 00f2 2874     		strb	r0, [r5, #16]
 346:Drivers/BSP/Components/vl53l1cb/modules/vl53l1_nvm.c **** 		(uint8_t)VL53L1_i2c_decode_with_mask(
 1576              		.loc 1 346 2 is_stmt 1 view .LVU451
 347:Drivers/BSP/Components/vl53l1cb/modules/vl53l1_nvm.c **** 			1,
 1577              		.loc 1 347 12 is_stmt 0 view .LVU452
 1578 00f4 0094     		str	r4, [sp]
 1579 00f6 2346     		mov	r3, r4
 1580 00f8 0722     		movs	r2, #7
 1581 00fa 06F11F01 		add	r1, r6, #31
 1582 00fe 0120     		movs	r0, #1
 1583 0100 FFF7FEFF 		bl	VL53L1_i2c_decode_with_mask
 1584              	.LVL163:
 346:Drivers/BSP/Components/vl53l1cb/modules/vl53l1_nvm.c **** 		(uint8_t)VL53L1_i2c_decode_with_mask(
 1585              		.loc 1 346 37 view .LVU453
 1586 0104 6874     		strb	r0, [r5, #17]
 353:Drivers/BSP/Components/vl53l1cb/modules/vl53l1_nvm.c **** 		(uint16_t)VL53L1_i2c_decode_with_mask(
 1587              		.loc 1 353 2 is_stmt 1 view .LVU454
 354:Drivers/BSP/Components/vl53l1cb/modules/vl53l1_nvm.c **** 			2,
 1588              		.loc 1 354 13 is_stmt 0 view .LVU455
 1589 0106 0094     		str	r4, [sp]
 1590 0108 2346     		mov	r3, r4
 1591 010a 40F2FF32 		movw	r2, #1023
 1592 010e 06F12001 		add	r1, r6, #32
 1593 0112 0220     		movs	r0, #2
 1594 0114 FFF7FEFF 		bl	VL53L1_i2c_decode_with_mask
 1595              	.LVL164:
 353:Drivers/BSP/Components/vl53l1cb/modules/vl53l1_nvm.c **** 		(uint16_t)VL53L1_i2c_decode_with_mask(
 1596              		.loc 1 353 40 view .LVU456
 1597 0118 6882     		strh	r0, [r5, #18]	@ movhi
 360:Drivers/BSP/Components/vl53l1cb/modules/vl53l1_nvm.c **** 		(uint8_t)VL53L1_i2c_decode_with_mask(
 1598              		.loc 1 360 2 is_stmt 1 view .LVU457
 361:Drivers/BSP/Components/vl53l1cb/modules/vl53l1_nvm.c **** 			1,
 1599              		.loc 1 361 12 is_stmt 0 view .LVU458
 1600 011a 0094     		str	r4, [sp]
 1601 011c 2346     		mov	r3, r4
 1602 011e FF22     		movs	r2, #255
 1603 0120 06F12801 		add	r1, r6, #40
 1604 0124 0120     		movs	r0, #1
ARM GAS  C:\Temp\ccKRfCgt.s 			page 55


 1605 0126 FFF7FEFF 		bl	VL53L1_i2c_decode_with_mask
 1606              	.LVL165:
 360:Drivers/BSP/Components/vl53l1cb/modules/vl53l1_nvm.c **** 		(uint8_t)VL53L1_i2c_decode_with_mask(
 1607              		.loc 1 360 32 view .LVU459
 1608 012a 2875     		strb	r0, [r5, #20]
 367:Drivers/BSP/Components/vl53l1cb/modules/vl53l1_nvm.c **** 		(uint8_t)VL53L1_i2c_decode_with_mask(
 1609              		.loc 1 367 2 is_stmt 1 view .LVU460
 368:Drivers/BSP/Components/vl53l1cb/modules/vl53l1_nvm.c **** 			1,
 1610              		.loc 1 368 12 is_stmt 0 view .LVU461
 1611 012c 0094     		str	r4, [sp]
 1612 012e 2346     		mov	r3, r4
 1613 0130 0F22     		movs	r2, #15
 1614 0132 06F12901 		add	r1, r6, #41
 1615 0136 0120     		movs	r0, #1
 1616 0138 FFF7FEFF 		bl	VL53L1_i2c_decode_with_mask
 1617              	.LVL166:
 367:Drivers/BSP/Components/vl53l1cb/modules/vl53l1_nvm.c **** 		(uint8_t)VL53L1_i2c_decode_with_mask(
 1618              		.loc 1 367 28 view .LVU462
 1619 013c 6875     		strb	r0, [r5, #21]
 374:Drivers/BSP/Components/vl53l1cb/modules/vl53l1_nvm.c **** 		(uint8_t)VL53L1_i2c_decode_with_mask(
 1620              		.loc 1 374 2 is_stmt 1 view .LVU463
 375:Drivers/BSP/Components/vl53l1cb/modules/vl53l1_nvm.c **** 			1,
 1621              		.loc 1 375 12 is_stmt 0 view .LVU464
 1622 013e 0094     		str	r4, [sp]
 1623 0140 0323     		movs	r3, #3
 1624 0142 7822     		movs	r2, #120
 1625 0144 06F12A01 		add	r1, r6, #42
 1626 0148 0120     		movs	r0, #1
 1627 014a FFF7FEFF 		bl	VL53L1_i2c_decode_with_mask
 1628              	.LVL167:
 374:Drivers/BSP/Components/vl53l1cb/modules/vl53l1_nvm.c **** 		(uint8_t)VL53L1_i2c_decode_with_mask(
 1629              		.loc 1 374 29 view .LVU465
 1630 014e A875     		strb	r0, [r5, #22]
 381:Drivers/BSP/Components/vl53l1cb/modules/vl53l1_nvm.c **** 		(uint8_t)VL53L1_i2c_decode_with_mask(
 1631              		.loc 1 381 2 is_stmt 1 view .LVU466
 382:Drivers/BSP/Components/vl53l1cb/modules/vl53l1_nvm.c **** 			1,
 1632              		.loc 1 382 12 is_stmt 0 view .LVU467
 1633 0150 06F12B08 		add	r8, r6, #43
 1634 0154 0094     		str	r4, [sp]
 1635 0156 0223     		movs	r3, #2
 1636 0158 0C22     		movs	r2, #12
 1637 015a 4146     		mov	r1, r8
 1638 015c 0120     		movs	r0, #1
 1639 015e FFF7FEFF 		bl	VL53L1_i2c_decode_with_mask
 1640              	.LVL168:
 381:Drivers/BSP/Components/vl53l1cb/modules/vl53l1_nvm.c **** 		(uint8_t)VL53L1_i2c_decode_with_mask(
 1641              		.loc 1 381 29 view .LVU468
 1642 0162 E875     		strb	r0, [r5, #23]
 388:Drivers/BSP/Components/vl53l1cb/modules/vl53l1_nvm.c **** 		(uint8_t)VL53L1_i2c_decode_with_mask(
 1643              		.loc 1 388 2 is_stmt 1 view .LVU469
 389:Drivers/BSP/Components/vl53l1cb/modules/vl53l1_nvm.c **** 			1,
 1644              		.loc 1 389 12 is_stmt 0 view .LVU470
 1645 0164 0094     		str	r4, [sp]
 1646 0166 2346     		mov	r3, r4
 1647 0168 0322     		movs	r2, #3
 1648 016a 4146     		mov	r1, r8
 1649 016c 0120     		movs	r0, #1
ARM GAS  C:\Temp\ccKRfCgt.s 			page 56


 1650 016e FFF7FEFF 		bl	VL53L1_i2c_decode_with_mask
 1651              	.LVL169:
 388:Drivers/BSP/Components/vl53l1cb/modules/vl53l1_nvm.c **** 		(uint8_t)VL53L1_i2c_decode_with_mask(
 1652              		.loc 1 388 29 view .LVU471
 1653 0172 2876     		strb	r0, [r5, #24]
 395:Drivers/BSP/Components/vl53l1cb/modules/vl53l1_nvm.c **** 		(uint8_t)VL53L1_i2c_decode_with_mask(
 1654              		.loc 1 395 2 is_stmt 1 view .LVU472
 396:Drivers/BSP/Components/vl53l1cb/modules/vl53l1_nvm.c **** 			1,
 1655              		.loc 1 396 12 is_stmt 0 view .LVU473
 1656 0174 06F12C08 		add	r8, r6, #44
 1657 0178 0094     		str	r4, [sp]
 1658 017a 2346     		mov	r3, r4
 1659 017c 0322     		movs	r2, #3
 1660 017e 4146     		mov	r1, r8
 1661 0180 0120     		movs	r0, #1
 1662 0182 FFF7FEFF 		bl	VL53L1_i2c_decode_with_mask
 1663              	.LVL170:
 395:Drivers/BSP/Components/vl53l1cb/modules/vl53l1_nvm.c **** 		(uint8_t)VL53L1_i2c_decode_with_mask(
 1664              		.loc 1 395 34 view .LVU474
 1665 0186 6876     		strb	r0, [r5, #25]
 403:Drivers/BSP/Components/vl53l1cb/modules/vl53l1_nvm.c **** 		(uint8_t)VL53L1_i2c_decode_with_mask(
 1666              		.loc 1 403 2 is_stmt 1 view .LVU475
 404:Drivers/BSP/Components/vl53l1cb/modules/vl53l1_nvm.c **** 			1,
 1667              		.loc 1 404 12 is_stmt 0 view .LVU476
 1668 0188 0094     		str	r4, [sp]
 1669 018a 0223     		movs	r3, #2
 1670 018c FC22     		movs	r2, #252
 1671 018e 4146     		mov	r1, r8
 1672 0190 0120     		movs	r0, #1
 1673 0192 FFF7FEFF 		bl	VL53L1_i2c_decode_with_mask
 1674              	.LVL171:
 403:Drivers/BSP/Components/vl53l1cb/modules/vl53l1_nvm.c **** 		(uint8_t)VL53L1_i2c_decode_with_mask(
 1675              		.loc 1 403 29 view .LVU477
 1676 0196 A876     		strb	r0, [r5, #26]
 411:Drivers/BSP/Components/vl53l1cb/modules/vl53l1_nvm.c **** 		(uint8_t)VL53L1_i2c_decode_with_mask(
 1677              		.loc 1 411 2 is_stmt 1 view .LVU478
 412:Drivers/BSP/Components/vl53l1cb/modules/vl53l1_nvm.c **** 			1,
 1678              		.loc 1 412 12 is_stmt 0 view .LVU479
 1679 0198 0094     		str	r4, [sp]
 1680 019a 2346     		mov	r3, r4
 1681 019c FF22     		movs	r2, #255
 1682 019e 06F12D01 		add	r1, r6, #45
 1683 01a2 0120     		movs	r0, #1
 1684 01a4 FFF7FEFF 		bl	VL53L1_i2c_decode_with_mask
 1685              	.LVL172:
 411:Drivers/BSP/Components/vl53l1cb/modules/vl53l1_nvm.c **** 		(uint8_t)VL53L1_i2c_decode_with_mask(
 1686              		.loc 1 411 34 view .LVU480
 1687 01a8 E876     		strb	r0, [r5, #27]
 418:Drivers/BSP/Components/vl53l1cb/modules/vl53l1_nvm.c **** 		(uint8_t)VL53L1_i2c_decode_with_mask(
 1688              		.loc 1 418 2 is_stmt 1 view .LVU481
 419:Drivers/BSP/Components/vl53l1cb/modules/vl53l1_nvm.c **** 			1,
 1689              		.loc 1 419 12 is_stmt 0 view .LVU482
 1690 01aa 0094     		str	r4, [sp]
 1691 01ac 2346     		mov	r3, r4
 1692 01ae 3F22     		movs	r2, #63
 1693 01b0 06F12E01 		add	r1, r6, #46
 1694 01b4 0120     		movs	r0, #1
ARM GAS  C:\Temp\ccKRfCgt.s 			page 57


 1695 01b6 FFF7FEFF 		bl	VL53L1_i2c_decode_with_mask
 1696              	.LVL173:
 418:Drivers/BSP/Components/vl53l1cb/modules/vl53l1_nvm.c **** 		(uint8_t)VL53L1_i2c_decode_with_mask(
 1697              		.loc 1 418 25 view .LVU483
 1698 01ba 2877     		strb	r0, [r5, #28]
 425:Drivers/BSP/Components/vl53l1cb/modules/vl53l1_nvm.c **** 		(uint8_t)VL53L1_i2c_decode_with_mask(
 1699              		.loc 1 425 2 is_stmt 1 view .LVU484
 426:Drivers/BSP/Components/vl53l1cb/modules/vl53l1_nvm.c **** 			1,
 1700              		.loc 1 426 12 is_stmt 0 view .LVU485
 1701 01bc 06F12F08 		add	r8, r6, #47
 1702 01c0 0094     		str	r4, [sp]
 1703 01c2 0723     		movs	r3, #7
 1704 01c4 8022     		movs	r2, #128
 1705 01c6 4146     		mov	r1, r8
 1706 01c8 0120     		movs	r0, #1
 1707 01ca FFF7FEFF 		bl	VL53L1_i2c_decode_with_mask
 1708              	.LVL174:
 425:Drivers/BSP/Components/vl53l1cb/modules/vl53l1_nvm.c **** 		(uint8_t)VL53L1_i2c_decode_with_mask(
 1709              		.loc 1 425 30 view .LVU486
 1710 01ce 6877     		strb	r0, [r5, #29]
 432:Drivers/BSP/Components/vl53l1cb/modules/vl53l1_nvm.c **** 		(uint8_t)VL53L1_i2c_decode_with_mask(
 1711              		.loc 1 432 2 is_stmt 1 view .LVU487
 433:Drivers/BSP/Components/vl53l1cb/modules/vl53l1_nvm.c **** 			1,
 1712              		.loc 1 433 12 is_stmt 0 view .LVU488
 1713 01d0 0094     		str	r4, [sp]
 1714 01d2 2346     		mov	r3, r4
 1715 01d4 3F22     		movs	r2, #63
 1716 01d6 4146     		mov	r1, r8
 1717 01d8 0120     		movs	r0, #1
 1718 01da FFF7FEFF 		bl	VL53L1_i2c_decode_with_mask
 1719              	.LVL175:
 432:Drivers/BSP/Components/vl53l1cb/modules/vl53l1_nvm.c **** 		(uint8_t)VL53L1_i2c_decode_with_mask(
 1720              		.loc 1 432 29 view .LVU489
 1721 01de A877     		strb	r0, [r5, #30]
 439:Drivers/BSP/Components/vl53l1cb/modules/vl53l1_nvm.c **** 		(uint8_t)VL53L1_i2c_decode_with_mask(
 1722              		.loc 1 439 2 is_stmt 1 view .LVU490
 440:Drivers/BSP/Components/vl53l1cb/modules/vl53l1_nvm.c **** 			1,
 1723              		.loc 1 440 12 is_stmt 0 view .LVU491
 1724 01e0 0094     		str	r4, [sp]
 1725 01e2 2346     		mov	r3, r4
 1726 01e4 0722     		movs	r2, #7
 1727 01e6 06F13001 		add	r1, r6, #48
 1728 01ea 0120     		movs	r0, #1
 1729 01ec FFF7FEFF 		bl	VL53L1_i2c_decode_with_mask
 1730              	.LVL176:
 439:Drivers/BSP/Components/vl53l1cb/modules/vl53l1_nvm.c **** 		(uint8_t)VL53L1_i2c_decode_with_mask(
 1731              		.loc 1 439 41 view .LVU492
 1732 01f0 E877     		strb	r0, [r5, #31]
 446:Drivers/BSP/Components/vl53l1cb/modules/vl53l1_nvm.c **** 		(uint8_t)VL53L1_i2c_decode_with_mask(
 1733              		.loc 1 446 2 is_stmt 1 view .LVU493
 447:Drivers/BSP/Components/vl53l1cb/modules/vl53l1_nvm.c **** 			1,
 1734              		.loc 1 447 12 is_stmt 0 view .LVU494
 1735 01f2 0094     		str	r4, [sp]
 1736 01f4 2346     		mov	r3, r4
 1737 01f6 3F22     		movs	r2, #63
 1738 01f8 06F13101 		add	r1, r6, #49
 1739 01fc 0120     		movs	r0, #1
ARM GAS  C:\Temp\ccKRfCgt.s 			page 58


 1740 01fe FFF7FEFF 		bl	VL53L1_i2c_decode_with_mask
 1741              	.LVL177:
 446:Drivers/BSP/Components/vl53l1cb/modules/vl53l1_nvm.c **** 		(uint8_t)VL53L1_i2c_decode_with_mask(
 1742              		.loc 1 446 43 view .LVU495
 1743 0202 85F82000 		strb	r0, [r5, #32]
 453:Drivers/BSP/Components/vl53l1cb/modules/vl53l1_nvm.c **** 		(uint8_t)VL53L1_i2c_decode_with_mask(
 1744              		.loc 1 453 2 is_stmt 1 view .LVU496
 454:Drivers/BSP/Components/vl53l1cb/modules/vl53l1_nvm.c **** 			1,
 1745              		.loc 1 454 12 is_stmt 0 view .LVU497
 1746 0206 0094     		str	r4, [sp]
 1747 0208 2346     		mov	r3, r4
 1748 020a 3F22     		movs	r2, #63
 1749 020c 06F13201 		add	r1, r6, #50
 1750 0210 0120     		movs	r0, #1
 1751 0212 FFF7FEFF 		bl	VL53L1_i2c_decode_with_mask
 1752              	.LVL178:
 453:Drivers/BSP/Components/vl53l1cb/modules/vl53l1_nvm.c **** 		(uint8_t)VL53L1_i2c_decode_with_mask(
 1753              		.loc 1 453 47 view .LVU498
 1754 0216 85F82100 		strb	r0, [r5, #33]
 460:Drivers/BSP/Components/vl53l1cb/modules/vl53l1_nvm.c **** 		(uint8_t)VL53L1_i2c_decode_with_mask(
 1755              		.loc 1 460 2 is_stmt 1 view .LVU499
 461:Drivers/BSP/Components/vl53l1cb/modules/vl53l1_nvm.c **** 			1,
 1756              		.loc 1 461 12 is_stmt 0 view .LVU500
 1757 021a 0094     		str	r4, [sp]
 1758 021c 2346     		mov	r3, r4
 1759 021e 3F22     		movs	r2, #63
 1760 0220 06F13401 		add	r1, r6, #52
 1761 0224 0120     		movs	r0, #1
 1762 0226 FFF7FEFF 		bl	VL53L1_i2c_decode_with_mask
 1763              	.LVL179:
 460:Drivers/BSP/Components/vl53l1cb/modules/vl53l1_nvm.c **** 		(uint8_t)VL53L1_i2c_decode_with_mask(
 1764              		.loc 1 460 35 view .LVU501
 1765 022a 85F82200 		strb	r0, [r5, #34]
 467:Drivers/BSP/Components/vl53l1cb/modules/vl53l1_nvm.c **** 		(uint8_t)VL53L1_i2c_decode_with_mask(
 1766              		.loc 1 467 2 is_stmt 1 view .LVU502
 468:Drivers/BSP/Components/vl53l1cb/modules/vl53l1_nvm.c **** 			1,
 1767              		.loc 1 468 12 is_stmt 0 view .LVU503
 1768 022e 0094     		str	r4, [sp]
 1769 0230 2346     		mov	r3, r4
 1770 0232 3F22     		movs	r2, #63
 1771 0234 06F13501 		add	r1, r6, #53
 1772 0238 0120     		movs	r0, #1
 1773 023a FFF7FEFF 		bl	VL53L1_i2c_decode_with_mask
 1774              	.LVL180:
 467:Drivers/BSP/Components/vl53l1cb/modules/vl53l1_nvm.c **** 		(uint8_t)VL53L1_i2c_decode_with_mask(
 1775              		.loc 1 467 35 view .LVU504
 1776 023e 85F82300 		strb	r0, [r5, #35]
 474:Drivers/BSP/Components/vl53l1cb/modules/vl53l1_nvm.c **** 		(uint8_t)VL53L1_i2c_decode_with_mask(
 1777              		.loc 1 474 2 is_stmt 1 view .LVU505
 475:Drivers/BSP/Components/vl53l1cb/modules/vl53l1_nvm.c **** 			1,
 1778              		.loc 1 475 12 is_stmt 0 view .LVU506
 1779 0242 0094     		str	r4, [sp]
 1780 0244 2346     		mov	r3, r4
 1781 0246 0722     		movs	r2, #7
 1782 0248 06F13801 		add	r1, r6, #56
 1783 024c 0120     		movs	r0, #1
 1784 024e FFF7FEFF 		bl	VL53L1_i2c_decode_with_mask
ARM GAS  C:\Temp\ccKRfCgt.s 			page 59


 1785              	.LVL181:
 474:Drivers/BSP/Components/vl53l1cb/modules/vl53l1_nvm.c **** 		(uint8_t)VL53L1_i2c_decode_with_mask(
 1786              		.loc 1 474 41 view .LVU507
 1787 0252 85F82400 		strb	r0, [r5, #36]
 481:Drivers/BSP/Components/vl53l1cb/modules/vl53l1_nvm.c **** 		(uint8_t)VL53L1_i2c_decode_with_mask(
 1788              		.loc 1 481 2 is_stmt 1 view .LVU508
 482:Drivers/BSP/Components/vl53l1cb/modules/vl53l1_nvm.c **** 			1,
 1789              		.loc 1 482 12 is_stmt 0 view .LVU509
 1790 0256 0094     		str	r4, [sp]
 1791 0258 2346     		mov	r3, r4
 1792 025a 3F22     		movs	r2, #63
 1793 025c 06F13901 		add	r1, r6, #57
 1794 0260 0120     		movs	r0, #1
 1795 0262 FFF7FEFF 		bl	VL53L1_i2c_decode_with_mask
 1796              	.LVL182:
 481:Drivers/BSP/Components/vl53l1cb/modules/vl53l1_nvm.c **** 		(uint8_t)VL53L1_i2c_decode_with_mask(
 1797              		.loc 1 481 43 view .LVU510
 1798 0266 85F82500 		strb	r0, [r5, #37]
 488:Drivers/BSP/Components/vl53l1cb/modules/vl53l1_nvm.c **** 		(uint8_t)VL53L1_i2c_decode_with_mask(
 1799              		.loc 1 488 2 is_stmt 1 view .LVU511
 489:Drivers/BSP/Components/vl53l1cb/modules/vl53l1_nvm.c **** 			1,
 1800              		.loc 1 489 12 is_stmt 0 view .LVU512
 1801 026a 0094     		str	r4, [sp]
 1802 026c 2346     		mov	r3, r4
 1803 026e 3F22     		movs	r2, #63
 1804 0270 06F13A01 		add	r1, r6, #58
 1805 0274 0120     		movs	r0, #1
 1806 0276 FFF7FEFF 		bl	VL53L1_i2c_decode_with_mask
 1807              	.LVL183:
 488:Drivers/BSP/Components/vl53l1cb/modules/vl53l1_nvm.c **** 		(uint8_t)VL53L1_i2c_decode_with_mask(
 1808              		.loc 1 488 47 view .LVU513
 1809 027a 85F82600 		strb	r0, [r5, #38]
 495:Drivers/BSP/Components/vl53l1cb/modules/vl53l1_nvm.c **** 		(uint8_t)VL53L1_i2c_decode_with_mask(
 1810              		.loc 1 495 2 is_stmt 1 view .LVU514
 496:Drivers/BSP/Components/vl53l1cb/modules/vl53l1_nvm.c **** 			1,
 1811              		.loc 1 496 12 is_stmt 0 view .LVU515
 1812 027e 0094     		str	r4, [sp]
 1813 0280 2346     		mov	r3, r4
 1814 0282 3F22     		movs	r2, #63
 1815 0284 06F13C01 		add	r1, r6, #60
 1816 0288 0120     		movs	r0, #1
 1817 028a FFF7FEFF 		bl	VL53L1_i2c_decode_with_mask
 1818              	.LVL184:
 495:Drivers/BSP/Components/vl53l1cb/modules/vl53l1_nvm.c **** 		(uint8_t)VL53L1_i2c_decode_with_mask(
 1819              		.loc 1 495 35 view .LVU516
 1820 028e 85F82700 		strb	r0, [r5, #39]
 502:Drivers/BSP/Components/vl53l1cb/modules/vl53l1_nvm.c **** 		(uint8_t)VL53L1_i2c_decode_with_mask(
 1821              		.loc 1 502 2 is_stmt 1 view .LVU517
 503:Drivers/BSP/Components/vl53l1cb/modules/vl53l1_nvm.c **** 			1,
 1822              		.loc 1 503 12 is_stmt 0 view .LVU518
 1823 0292 0094     		str	r4, [sp]
 1824 0294 2346     		mov	r3, r4
 1825 0296 3F22     		movs	r2, #63
 1826 0298 06F13D01 		add	r1, r6, #61
 1827 029c 0120     		movs	r0, #1
 1828 029e FFF7FEFF 		bl	VL53L1_i2c_decode_with_mask
 1829              	.LVL185:
ARM GAS  C:\Temp\ccKRfCgt.s 			page 60


 502:Drivers/BSP/Components/vl53l1cb/modules/vl53l1_nvm.c **** 		(uint8_t)VL53L1_i2c_decode_with_mask(
 1830              		.loc 1 502 35 view .LVU519
 1831 02a2 85F82800 		strb	r0, [r5, #40]
 509:Drivers/BSP/Components/vl53l1cb/modules/vl53l1_nvm.c **** 		(uint8_t)VL53L1_i2c_decode_with_mask(
 1832              		.loc 1 509 2 is_stmt 1 view .LVU520
 510:Drivers/BSP/Components/vl53l1cb/modules/vl53l1_nvm.c **** 			1,
 1833              		.loc 1 510 12 is_stmt 0 view .LVU521
 1834 02a6 0094     		str	r4, [sp]
 1835 02a8 2346     		mov	r3, r4
 1836 02aa FF22     		movs	r2, #255
 1837 02ac 06F14001 		add	r1, r6, #64
 1838 02b0 0120     		movs	r0, #1
 1839 02b2 FFF7FEFF 		bl	VL53L1_i2c_decode_with_mask
 1840              	.LVL186:
 509:Drivers/BSP/Components/vl53l1cb/modules/vl53l1_nvm.c **** 		(uint8_t)VL53L1_i2c_decode_with_mask(
 1841              		.loc 1 509 37 view .LVU522
 1842 02b6 85F82900 		strb	r0, [r5, #41]
 516:Drivers/BSP/Components/vl53l1cb/modules/vl53l1_nvm.c **** 		(uint8_t)VL53L1_i2c_decode_with_mask(
 1843              		.loc 1 516 2 is_stmt 1 view .LVU523
 517:Drivers/BSP/Components/vl53l1cb/modules/vl53l1_nvm.c **** 			1,
 1844              		.loc 1 517 12 is_stmt 0 view .LVU524
 1845 02ba 0094     		str	r4, [sp]
 1846 02bc 2346     		mov	r3, r4
 1847 02be FF22     		movs	r2, #255
 1848 02c0 06F14401 		add	r1, r6, #68
 1849 02c4 0120     		movs	r0, #1
 1850 02c6 FFF7FEFF 		bl	VL53L1_i2c_decode_with_mask
 1851              	.LVL187:
 516:Drivers/BSP/Components/vl53l1cb/modules/vl53l1_nvm.c **** 		(uint8_t)VL53L1_i2c_decode_with_mask(
 1852              		.loc 1 516 39 view .LVU525
 1853 02ca 85F82A00 		strb	r0, [r5, #42]
 526:Drivers/BSP/Components/vl53l1cb/modules/vl53l1_nvm.c **** 	for (i = 0 ; i < VL53L1_RTN_SPAD_BUFFER_SIZE ; i++)
 1854              		.loc 1 526 2 is_stmt 1 view .LVU526
 526:Drivers/BSP/Components/vl53l1cb/modules/vl53l1_nvm.c **** 	for (i = 0 ; i < VL53L1_RTN_SPAD_BUFFER_SIZE ; i++)
 1855              		.loc 1 526 7 is_stmt 0 view .LVU527
 1856 02ce 06F14802 		add	r2, r6, #72
 1857              	.LVL188:
 527:Drivers/BSP/Components/vl53l1cb/modules/vl53l1_nvm.c **** 		pdata->nvm__ews__spad_enables_rtn[i] = *ptmp++;
 1858              		.loc 1 527 2 is_stmt 1 view .LVU528
 527:Drivers/BSP/Components/vl53l1cb/modules/vl53l1_nvm.c **** 		pdata->nvm__ews__spad_enables_rtn[i] = *ptmp++;
 1859              		.loc 1 527 9 is_stmt 0 view .LVU529
 1860 02d2 2346     		mov	r3, r4
 527:Drivers/BSP/Components/vl53l1cb/modules/vl53l1_nvm.c **** 		pdata->nvm__ews__spad_enables_rtn[i] = *ptmp++;
 1861              		.loc 1 527 2 view .LVU530
 1862 02d4 06E0     		b	.L66
 1863              	.LVL189:
 1864              	.L67:
 528:Drivers/BSP/Components/vl53l1cb/modules/vl53l1_nvm.c **** 
 1865              		.loc 1 528 3 is_stmt 1 discriminator 3 view .LVU531
 528:Drivers/BSP/Components/vl53l1cb/modules/vl53l1_nvm.c **** 
 1866              		.loc 1 528 42 is_stmt 0 discriminator 3 view .LVU532
 1867 02d6 12F8010B 		ldrb	r0, [r2], #1	@ zero_extendqisi2
 1868              	.LVL190:
 528:Drivers/BSP/Components/vl53l1cb/modules/vl53l1_nvm.c **** 
 1869              		.loc 1 528 40 discriminator 3 view .LVU533
 1870 02da E918     		adds	r1, r5, r3
 1871 02dc 81F82B00 		strb	r0, [r1, #43]
ARM GAS  C:\Temp\ccKRfCgt.s 			page 61


 527:Drivers/BSP/Components/vl53l1cb/modules/vl53l1_nvm.c **** 		pdata->nvm__ews__spad_enables_rtn[i] = *ptmp++;
 1872              		.loc 1 527 50 is_stmt 1 discriminator 3 view .LVU534
 1873 02e0 0133     		adds	r3, r3, #1
 1874              	.LVL191:
 527:Drivers/BSP/Components/vl53l1cb/modules/vl53l1_nvm.c **** 		pdata->nvm__ews__spad_enables_rtn[i] = *ptmp++;
 1875              		.loc 1 527 50 is_stmt 0 discriminator 3 view .LVU535
 1876 02e2 DBB2     		uxtb	r3, r3
 1877              	.LVL192:
 1878              	.L66:
 527:Drivers/BSP/Components/vl53l1cb/modules/vl53l1_nvm.c **** 		pdata->nvm__ews__spad_enables_rtn[i] = *ptmp++;
 1879              		.loc 1 527 17 is_stmt 1 discriminator 1 view .LVU536
 1880 02e4 1F2B     		cmp	r3, #31
 1881 02e6 F6D9     		bls	.L67
 530:Drivers/BSP/Components/vl53l1cb/modules/vl53l1_nvm.c **** 	for (i = 0 ; i < VL53L1_REF_SPAD_BUFFER_SIZE ; i++)
 1882              		.loc 1 530 2 view .LVU537
 530:Drivers/BSP/Components/vl53l1cb/modules/vl53l1_nvm.c **** 	for (i = 0 ; i < VL53L1_REF_SPAD_BUFFER_SIZE ; i++)
 1883              		.loc 1 530 7 is_stmt 0 view .LVU538
 1884 02e8 06F16802 		add	r2, r6, #104
 1885              	.LVL193:
 531:Drivers/BSP/Components/vl53l1cb/modules/vl53l1_nvm.c **** 		pdata->nvm__ews__spad_enables_ref__loc1[i] = *ptmp++;
 1886              		.loc 1 531 2 is_stmt 1 view .LVU539
 531:Drivers/BSP/Components/vl53l1cb/modules/vl53l1_nvm.c **** 		pdata->nvm__ews__spad_enables_ref__loc1[i] = *ptmp++;
 1887              		.loc 1 531 9 is_stmt 0 view .LVU540
 1888 02ec 0023     		movs	r3, #0
 531:Drivers/BSP/Components/vl53l1cb/modules/vl53l1_nvm.c **** 		pdata->nvm__ews__spad_enables_ref__loc1[i] = *ptmp++;
 1889              		.loc 1 531 2 view .LVU541
 1890 02ee 06E0     		b	.L68
 1891              	.LVL194:
 1892              	.L69:
 532:Drivers/BSP/Components/vl53l1cb/modules/vl53l1_nvm.c **** 
 1893              		.loc 1 532 3 is_stmt 1 discriminator 3 view .LVU542
 532:Drivers/BSP/Components/vl53l1cb/modules/vl53l1_nvm.c **** 
 1894              		.loc 1 532 48 is_stmt 0 discriminator 3 view .LVU543
 1895 02f0 12F8010B 		ldrb	r0, [r2], #1	@ zero_extendqisi2
 1896              	.LVL195:
 532:Drivers/BSP/Components/vl53l1cb/modules/vl53l1_nvm.c **** 
 1897              		.loc 1 532 46 discriminator 3 view .LVU544
 1898 02f4 E918     		adds	r1, r5, r3
 1899 02f6 81F84B00 		strb	r0, [r1, #75]
 531:Drivers/BSP/Components/vl53l1cb/modules/vl53l1_nvm.c **** 		pdata->nvm__ews__spad_enables_ref__loc1[i] = *ptmp++;
 1900              		.loc 1 531 50 is_stmt 1 discriminator 3 view .LVU545
 1901 02fa 0133     		adds	r3, r3, #1
 1902              	.LVL196:
 531:Drivers/BSP/Components/vl53l1cb/modules/vl53l1_nvm.c **** 		pdata->nvm__ews__spad_enables_ref__loc1[i] = *ptmp++;
 1903              		.loc 1 531 50 is_stmt 0 discriminator 3 view .LVU546
 1904 02fc DBB2     		uxtb	r3, r3
 1905              	.LVL197:
 1906              	.L68:
 531:Drivers/BSP/Components/vl53l1cb/modules/vl53l1_nvm.c **** 		pdata->nvm__ews__spad_enables_ref__loc1[i] = *ptmp++;
 1907              		.loc 1 531 17 is_stmt 1 discriminator 1 view .LVU547
 1908 02fe 052B     		cmp	r3, #5
 1909 0300 F6D9     		bls	.L69
 534:Drivers/BSP/Components/vl53l1cb/modules/vl53l1_nvm.c **** 	for (i = 0 ; i < VL53L1_REF_SPAD_BUFFER_SIZE ; i++)
 1910              		.loc 1 534 2 view .LVU548
 534:Drivers/BSP/Components/vl53l1cb/modules/vl53l1_nvm.c **** 	for (i = 0 ; i < VL53L1_REF_SPAD_BUFFER_SIZE ; i++)
 1911              		.loc 1 534 7 is_stmt 0 view .LVU549
 1912 0302 06F17002 		add	r2, r6, #112
ARM GAS  C:\Temp\ccKRfCgt.s 			page 62


 1913              	.LVL198:
 535:Drivers/BSP/Components/vl53l1cb/modules/vl53l1_nvm.c **** 		pdata->nvm__ews__spad_enables_ref__loc2[i] = *ptmp++;
 1914              		.loc 1 535 2 is_stmt 1 view .LVU550
 535:Drivers/BSP/Components/vl53l1cb/modules/vl53l1_nvm.c **** 		pdata->nvm__ews__spad_enables_ref__loc2[i] = *ptmp++;
 1915              		.loc 1 535 9 is_stmt 0 view .LVU551
 1916 0306 0023     		movs	r3, #0
 535:Drivers/BSP/Components/vl53l1cb/modules/vl53l1_nvm.c **** 		pdata->nvm__ews__spad_enables_ref__loc2[i] = *ptmp++;
 1917              		.loc 1 535 2 view .LVU552
 1918 0308 06E0     		b	.L70
 1919              	.LVL199:
 1920              	.L71:
 536:Drivers/BSP/Components/vl53l1cb/modules/vl53l1_nvm.c **** 
 1921              		.loc 1 536 3 is_stmt 1 discriminator 3 view .LVU553
 536:Drivers/BSP/Components/vl53l1cb/modules/vl53l1_nvm.c **** 
 1922              		.loc 1 536 48 is_stmt 0 discriminator 3 view .LVU554
 1923 030a 12F8010B 		ldrb	r0, [r2], #1	@ zero_extendqisi2
 1924              	.LVL200:
 536:Drivers/BSP/Components/vl53l1cb/modules/vl53l1_nvm.c **** 
 1925              		.loc 1 536 46 discriminator 3 view .LVU555
 1926 030e E918     		adds	r1, r5, r3
 1927 0310 81F85100 		strb	r0, [r1, #81]
 535:Drivers/BSP/Components/vl53l1cb/modules/vl53l1_nvm.c **** 		pdata->nvm__ews__spad_enables_ref__loc2[i] = *ptmp++;
 1928              		.loc 1 535 50 is_stmt 1 discriminator 3 view .LVU556
 1929 0314 0133     		adds	r3, r3, #1
 1930              	.LVL201:
 535:Drivers/BSP/Components/vl53l1cb/modules/vl53l1_nvm.c **** 		pdata->nvm__ews__spad_enables_ref__loc2[i] = *ptmp++;
 1931              		.loc 1 535 50 is_stmt 0 discriminator 3 view .LVU557
 1932 0316 DBB2     		uxtb	r3, r3
 1933              	.LVL202:
 1934              	.L70:
 535:Drivers/BSP/Components/vl53l1cb/modules/vl53l1_nvm.c **** 		pdata->nvm__ews__spad_enables_ref__loc2[i] = *ptmp++;
 1935              		.loc 1 535 17 is_stmt 1 discriminator 1 view .LVU558
 1936 0318 052B     		cmp	r3, #5
 1937 031a F6D9     		bls	.L71
 538:Drivers/BSP/Components/vl53l1cb/modules/vl53l1_nvm.c **** 	for (i = 0 ; i < VL53L1_REF_SPAD_BUFFER_SIZE ; i++)
 1938              		.loc 1 538 2 view .LVU559
 538:Drivers/BSP/Components/vl53l1cb/modules/vl53l1_nvm.c **** 	for (i = 0 ; i < VL53L1_REF_SPAD_BUFFER_SIZE ; i++)
 1939              		.loc 1 538 7 is_stmt 0 view .LVU560
 1940 031c 06F17802 		add	r2, r6, #120
 1941              	.LVL203:
 539:Drivers/BSP/Components/vl53l1cb/modules/vl53l1_nvm.c **** 		pdata->nvm__ews__spad_enables_ref__loc3[i] = *ptmp++;
 1942              		.loc 1 539 2 is_stmt 1 view .LVU561
 539:Drivers/BSP/Components/vl53l1cb/modules/vl53l1_nvm.c **** 		pdata->nvm__ews__spad_enables_ref__loc3[i] = *ptmp++;
 1943              		.loc 1 539 9 is_stmt 0 view .LVU562
 1944 0320 0023     		movs	r3, #0
 539:Drivers/BSP/Components/vl53l1cb/modules/vl53l1_nvm.c **** 		pdata->nvm__ews__spad_enables_ref__loc3[i] = *ptmp++;
 1945              		.loc 1 539 2 view .LVU563
 1946 0322 06E0     		b	.L72
 1947              	.LVL204:
 1948              	.L73:
 540:Drivers/BSP/Components/vl53l1cb/modules/vl53l1_nvm.c **** 
 1949              		.loc 1 540 3 is_stmt 1 discriminator 3 view .LVU564
 540:Drivers/BSP/Components/vl53l1cb/modules/vl53l1_nvm.c **** 
 1950              		.loc 1 540 48 is_stmt 0 discriminator 3 view .LVU565
 1951 0324 12F8010B 		ldrb	r0, [r2], #1	@ zero_extendqisi2
 1952              	.LVL205:
 540:Drivers/BSP/Components/vl53l1cb/modules/vl53l1_nvm.c **** 
ARM GAS  C:\Temp\ccKRfCgt.s 			page 63


 1953              		.loc 1 540 46 discriminator 3 view .LVU566
 1954 0328 E918     		adds	r1, r5, r3
 1955 032a 81F85700 		strb	r0, [r1, #87]
 539:Drivers/BSP/Components/vl53l1cb/modules/vl53l1_nvm.c **** 		pdata->nvm__ews__spad_enables_ref__loc3[i] = *ptmp++;
 1956              		.loc 1 539 50 is_stmt 1 discriminator 3 view .LVU567
 1957 032e 0133     		adds	r3, r3, #1
 1958              	.LVL206:
 539:Drivers/BSP/Components/vl53l1cb/modules/vl53l1_nvm.c **** 		pdata->nvm__ews__spad_enables_ref__loc3[i] = *ptmp++;
 1959              		.loc 1 539 50 is_stmt 0 discriminator 3 view .LVU568
 1960 0330 DBB2     		uxtb	r3, r3
 1961              	.LVL207:
 1962              	.L72:
 539:Drivers/BSP/Components/vl53l1cb/modules/vl53l1_nvm.c **** 		pdata->nvm__ews__spad_enables_ref__loc3[i] = *ptmp++;
 1963              		.loc 1 539 17 is_stmt 1 discriminator 1 view .LVU569
 1964 0332 052B     		cmp	r3, #5
 1965 0334 F6D9     		bls	.L73
 544:Drivers/BSP/Components/vl53l1cb/modules/vl53l1_nvm.c **** 	for (i = 0 ; i < VL53L1_RTN_SPAD_BUFFER_SIZE ; i++)
 1966              		.loc 1 544 2 view .LVU570
 544:Drivers/BSP/Components/vl53l1cb/modules/vl53l1_nvm.c **** 	for (i = 0 ; i < VL53L1_RTN_SPAD_BUFFER_SIZE ; i++)
 1967              		.loc 1 544 7 is_stmt 0 view .LVU571
 1968 0336 06F18002 		add	r2, r6, #128
 1969              	.LVL208:
 545:Drivers/BSP/Components/vl53l1cb/modules/vl53l1_nvm.c **** 		pdata->nvm__fmt__spad_enables_rtn[i] = *ptmp++;
 1970              		.loc 1 545 2 is_stmt 1 view .LVU572
 545:Drivers/BSP/Components/vl53l1cb/modules/vl53l1_nvm.c **** 		pdata->nvm__fmt__spad_enables_rtn[i] = *ptmp++;
 1971              		.loc 1 545 9 is_stmt 0 view .LVU573
 1972 033a 0023     		movs	r3, #0
 545:Drivers/BSP/Components/vl53l1cb/modules/vl53l1_nvm.c **** 		pdata->nvm__fmt__spad_enables_rtn[i] = *ptmp++;
 1973              		.loc 1 545 2 view .LVU574
 1974 033c 06E0     		b	.L74
 1975              	.LVL209:
 1976              	.L75:
 546:Drivers/BSP/Components/vl53l1cb/modules/vl53l1_nvm.c **** 
 1977              		.loc 1 546 3 is_stmt 1 discriminator 3 view .LVU575
 546:Drivers/BSP/Components/vl53l1cb/modules/vl53l1_nvm.c **** 
 1978              		.loc 1 546 42 is_stmt 0 discriminator 3 view .LVU576
 1979 033e 12F8010B 		ldrb	r0, [r2], #1	@ zero_extendqisi2
 1980              	.LVL210:
 546:Drivers/BSP/Components/vl53l1cb/modules/vl53l1_nvm.c **** 
 1981              		.loc 1 546 40 discriminator 3 view .LVU577
 1982 0342 E918     		adds	r1, r5, r3
 1983 0344 81F85D00 		strb	r0, [r1, #93]
 545:Drivers/BSP/Components/vl53l1cb/modules/vl53l1_nvm.c **** 		pdata->nvm__fmt__spad_enables_rtn[i] = *ptmp++;
 1984              		.loc 1 545 50 is_stmt 1 discriminator 3 view .LVU578
 1985 0348 0133     		adds	r3, r3, #1
 1986              	.LVL211:
 545:Drivers/BSP/Components/vl53l1cb/modules/vl53l1_nvm.c **** 		pdata->nvm__fmt__spad_enables_rtn[i] = *ptmp++;
 1987              		.loc 1 545 50 is_stmt 0 discriminator 3 view .LVU579
 1988 034a DBB2     		uxtb	r3, r3
 1989              	.LVL212:
 1990              	.L74:
 545:Drivers/BSP/Components/vl53l1cb/modules/vl53l1_nvm.c **** 		pdata->nvm__fmt__spad_enables_rtn[i] = *ptmp++;
 1991              		.loc 1 545 17 is_stmt 1 discriminator 1 view .LVU580
 1992 034c 1F2B     		cmp	r3, #31
 1993 034e F6D9     		bls	.L75
 548:Drivers/BSP/Components/vl53l1cb/modules/vl53l1_nvm.c **** 	for (i = 0 ; i < VL53L1_REF_SPAD_BUFFER_SIZE ; i++)
 1994              		.loc 1 548 2 view .LVU581
ARM GAS  C:\Temp\ccKRfCgt.s 			page 64


 548:Drivers/BSP/Components/vl53l1cb/modules/vl53l1_nvm.c **** 	for (i = 0 ; i < VL53L1_REF_SPAD_BUFFER_SIZE ; i++)
 1995              		.loc 1 548 7 is_stmt 0 view .LVU582
 1996 0350 06F1A002 		add	r2, r6, #160
 1997              	.LVL213:
 549:Drivers/BSP/Components/vl53l1cb/modules/vl53l1_nvm.c **** 		pdata->nvm__fmt__spad_enables_ref__loc1[i] = *ptmp++;
 1998              		.loc 1 549 2 is_stmt 1 view .LVU583
 549:Drivers/BSP/Components/vl53l1cb/modules/vl53l1_nvm.c **** 		pdata->nvm__fmt__spad_enables_ref__loc1[i] = *ptmp++;
 1999              		.loc 1 549 9 is_stmt 0 view .LVU584
 2000 0354 0023     		movs	r3, #0
 549:Drivers/BSP/Components/vl53l1cb/modules/vl53l1_nvm.c **** 		pdata->nvm__fmt__spad_enables_ref__loc1[i] = *ptmp++;
 2001              		.loc 1 549 2 view .LVU585
 2002 0356 06E0     		b	.L76
 2003              	.LVL214:
 2004              	.L77:
 550:Drivers/BSP/Components/vl53l1cb/modules/vl53l1_nvm.c **** 
 2005              		.loc 1 550 3 is_stmt 1 discriminator 3 view .LVU586
 550:Drivers/BSP/Components/vl53l1cb/modules/vl53l1_nvm.c **** 
 2006              		.loc 1 550 48 is_stmt 0 discriminator 3 view .LVU587
 2007 0358 12F8010B 		ldrb	r0, [r2], #1	@ zero_extendqisi2
 2008              	.LVL215:
 550:Drivers/BSP/Components/vl53l1cb/modules/vl53l1_nvm.c **** 
 2009              		.loc 1 550 46 discriminator 3 view .LVU588
 2010 035c E918     		adds	r1, r5, r3
 2011 035e 81F87D00 		strb	r0, [r1, #125]
 549:Drivers/BSP/Components/vl53l1cb/modules/vl53l1_nvm.c **** 		pdata->nvm__fmt__spad_enables_ref__loc1[i] = *ptmp++;
 2012              		.loc 1 549 50 is_stmt 1 discriminator 3 view .LVU589
 2013 0362 0133     		adds	r3, r3, #1
 2014              	.LVL216:
 549:Drivers/BSP/Components/vl53l1cb/modules/vl53l1_nvm.c **** 		pdata->nvm__fmt__spad_enables_ref__loc1[i] = *ptmp++;
 2015              		.loc 1 549 50 is_stmt 0 discriminator 3 view .LVU590
 2016 0364 DBB2     		uxtb	r3, r3
 2017              	.LVL217:
 2018              	.L76:
 549:Drivers/BSP/Components/vl53l1cb/modules/vl53l1_nvm.c **** 		pdata->nvm__fmt__spad_enables_ref__loc1[i] = *ptmp++;
 2019              		.loc 1 549 17 is_stmt 1 discriminator 1 view .LVU591
 2020 0366 052B     		cmp	r3, #5
 2021 0368 F6D9     		bls	.L77
 552:Drivers/BSP/Components/vl53l1cb/modules/vl53l1_nvm.c **** 	for (i = 0 ; i < VL53L1_REF_SPAD_BUFFER_SIZE ; i++)
 2022              		.loc 1 552 2 view .LVU592
 552:Drivers/BSP/Components/vl53l1cb/modules/vl53l1_nvm.c **** 	for (i = 0 ; i < VL53L1_REF_SPAD_BUFFER_SIZE ; i++)
 2023              		.loc 1 552 7 is_stmt 0 view .LVU593
 2024 036a 06F1A802 		add	r2, r6, #168
 2025              	.LVL218:
 553:Drivers/BSP/Components/vl53l1cb/modules/vl53l1_nvm.c **** 		pdata->nvm__fmt__spad_enables_ref__loc2[i] = *ptmp++;
 2026              		.loc 1 553 2 is_stmt 1 view .LVU594
 553:Drivers/BSP/Components/vl53l1cb/modules/vl53l1_nvm.c **** 		pdata->nvm__fmt__spad_enables_ref__loc2[i] = *ptmp++;
 2027              		.loc 1 553 9 is_stmt 0 view .LVU595
 2028 036e 0023     		movs	r3, #0
 553:Drivers/BSP/Components/vl53l1cb/modules/vl53l1_nvm.c **** 		pdata->nvm__fmt__spad_enables_ref__loc2[i] = *ptmp++;
 2029              		.loc 1 553 2 view .LVU596
 2030 0370 06E0     		b	.L78
 2031              	.LVL219:
 2032              	.L79:
 554:Drivers/BSP/Components/vl53l1cb/modules/vl53l1_nvm.c **** 
 2033              		.loc 1 554 3 is_stmt 1 discriminator 3 view .LVU597
 554:Drivers/BSP/Components/vl53l1cb/modules/vl53l1_nvm.c **** 
 2034              		.loc 1 554 48 is_stmt 0 discriminator 3 view .LVU598
ARM GAS  C:\Temp\ccKRfCgt.s 			page 65


 2035 0372 12F8010B 		ldrb	r0, [r2], #1	@ zero_extendqisi2
 2036              	.LVL220:
 554:Drivers/BSP/Components/vl53l1cb/modules/vl53l1_nvm.c **** 
 2037              		.loc 1 554 46 discriminator 3 view .LVU599
 2038 0376 E918     		adds	r1, r5, r3
 2039 0378 81F88300 		strb	r0, [r1, #131]
 553:Drivers/BSP/Components/vl53l1cb/modules/vl53l1_nvm.c **** 		pdata->nvm__fmt__spad_enables_ref__loc2[i] = *ptmp++;
 2040              		.loc 1 553 50 is_stmt 1 discriminator 3 view .LVU600
 2041 037c 0133     		adds	r3, r3, #1
 2042              	.LVL221:
 553:Drivers/BSP/Components/vl53l1cb/modules/vl53l1_nvm.c **** 		pdata->nvm__fmt__spad_enables_ref__loc2[i] = *ptmp++;
 2043              		.loc 1 553 50 is_stmt 0 discriminator 3 view .LVU601
 2044 037e DBB2     		uxtb	r3, r3
 2045              	.LVL222:
 2046              	.L78:
 553:Drivers/BSP/Components/vl53l1cb/modules/vl53l1_nvm.c **** 		pdata->nvm__fmt__spad_enables_ref__loc2[i] = *ptmp++;
 2047              		.loc 1 553 17 is_stmt 1 discriminator 1 view .LVU602
 2048 0380 052B     		cmp	r3, #5
 2049 0382 F6D9     		bls	.L79
 556:Drivers/BSP/Components/vl53l1cb/modules/vl53l1_nvm.c **** 	for (i = 0 ; i < VL53L1_REF_SPAD_BUFFER_SIZE ; i++)
 2050              		.loc 1 556 2 view .LVU603
 556:Drivers/BSP/Components/vl53l1cb/modules/vl53l1_nvm.c **** 	for (i = 0 ; i < VL53L1_REF_SPAD_BUFFER_SIZE ; i++)
 2051              		.loc 1 556 7 is_stmt 0 view .LVU604
 2052 0384 06F1B002 		add	r2, r6, #176
 2053              	.LVL223:
 557:Drivers/BSP/Components/vl53l1cb/modules/vl53l1_nvm.c **** 		pdata->nvm__fmt__spad_enables_ref__loc3[i] = *ptmp++;
 2054              		.loc 1 557 2 is_stmt 1 view .LVU605
 557:Drivers/BSP/Components/vl53l1cb/modules/vl53l1_nvm.c **** 		pdata->nvm__fmt__spad_enables_ref__loc3[i] = *ptmp++;
 2055              		.loc 1 557 9 is_stmt 0 view .LVU606
 2056 0388 0023     		movs	r3, #0
 557:Drivers/BSP/Components/vl53l1cb/modules/vl53l1_nvm.c **** 		pdata->nvm__fmt__spad_enables_ref__loc3[i] = *ptmp++;
 2057              		.loc 1 557 2 view .LVU607
 2058 038a 06E0     		b	.L80
 2059              	.LVL224:
 2060              	.L81:
 558:Drivers/BSP/Components/vl53l1cb/modules/vl53l1_nvm.c **** 
 2061              		.loc 1 558 3 is_stmt 1 discriminator 3 view .LVU608
 558:Drivers/BSP/Components/vl53l1cb/modules/vl53l1_nvm.c **** 
 2062              		.loc 1 558 48 is_stmt 0 discriminator 3 view .LVU609
 2063 038c 12F8010B 		ldrb	r0, [r2], #1	@ zero_extendqisi2
 2064              	.LVL225:
 558:Drivers/BSP/Components/vl53l1cb/modules/vl53l1_nvm.c **** 
 2065              		.loc 1 558 46 discriminator 3 view .LVU610
 2066 0390 E918     		adds	r1, r5, r3
 2067 0392 81F88900 		strb	r0, [r1, #137]
 557:Drivers/BSP/Components/vl53l1cb/modules/vl53l1_nvm.c **** 		pdata->nvm__fmt__spad_enables_ref__loc3[i] = *ptmp++;
 2068              		.loc 1 557 50 is_stmt 1 discriminator 3 view .LVU611
 2069 0396 0133     		adds	r3, r3, #1
 2070              	.LVL226:
 557:Drivers/BSP/Components/vl53l1cb/modules/vl53l1_nvm.c **** 		pdata->nvm__fmt__spad_enables_ref__loc3[i] = *ptmp++;
 2071              		.loc 1 557 50 is_stmt 0 discriminator 3 view .LVU612
 2072 0398 DBB2     		uxtb	r3, r3
 2073              	.LVL227:
 2074              	.L80:
 557:Drivers/BSP/Components/vl53l1cb/modules/vl53l1_nvm.c **** 		pdata->nvm__fmt__spad_enables_ref__loc3[i] = *ptmp++;
 2075              		.loc 1 557 17 is_stmt 1 discriminator 1 view .LVU613
 2076 039a 052B     		cmp	r3, #5
ARM GAS  C:\Temp\ccKRfCgt.s 			page 66


 2077 039c F6D9     		bls	.L81
 561:Drivers/BSP/Components/vl53l1cb/modules/vl53l1_nvm.c **** 		(uint8_t)VL53L1_i2c_decode_with_mask(
 2078              		.loc 1 561 2 view .LVU614
 562:Drivers/BSP/Components/vl53l1cb/modules/vl53l1_nvm.c **** 			1,
 2079              		.loc 1 562 12 is_stmt 0 view .LVU615
 2080 039e 06F1B808 		add	r8, r6, #184
 2081 03a2 0024     		movs	r4, #0
 2082 03a4 0094     		str	r4, [sp]
 2083 03a6 2346     		mov	r3, r4
 2084              	.LVL228:
 562:Drivers/BSP/Components/vl53l1cb/modules/vl53l1_nvm.c **** 			1,
 2085              		.loc 1 562 12 view .LVU616
 2086 03a8 FF22     		movs	r2, #255
 2087              	.LVL229:
 562:Drivers/BSP/Components/vl53l1cb/modules/vl53l1_nvm.c **** 			1,
 2088              		.loc 1 562 12 view .LVU617
 2089 03aa 4146     		mov	r1, r8
 2090 03ac 0120     		movs	r0, #1
 2091 03ae FFF7FEFF 		bl	VL53L1_i2c_decode_with_mask
 2092              	.LVL230:
 561:Drivers/BSP/Components/vl53l1cb/modules/vl53l1_nvm.c **** 		(uint8_t)VL53L1_i2c_decode_with_mask(
 2093              		.loc 1 561 52 view .LVU618
 2094 03b2 85F88F00 		strb	r0, [r5, #143]
 569:Drivers/BSP/Components/vl53l1cb/modules/vl53l1_nvm.c **** 		(uint8_t)VL53L1_i2c_decode_with_mask(
 2095              		.loc 1 569 2 is_stmt 1 view .LVU619
 570:Drivers/BSP/Components/vl53l1cb/modules/vl53l1_nvm.c **** 			1,
 2096              		.loc 1 570 12 is_stmt 0 view .LVU620
 2097 03b6 06F1B909 		add	r9, r6, #185
 2098 03ba 0094     		str	r4, [sp]
 2099 03bc 0423     		movs	r3, #4
 2100 03be F022     		movs	r2, #240
 2101 03c0 4946     		mov	r1, r9
 2102 03c2 0120     		movs	r0, #1
 2103 03c4 FFF7FEFF 		bl	VL53L1_i2c_decode_with_mask
 2104              	.LVL231:
 569:Drivers/BSP/Components/vl53l1cb/modules/vl53l1_nvm.c **** 		(uint8_t)VL53L1_i2c_decode_with_mask(
 2105              		.loc 1 569 47 view .LVU621
 2106 03c8 85F89000 		strb	r0, [r5, #144]
 577:Drivers/BSP/Components/vl53l1cb/modules/vl53l1_nvm.c **** 		(uint8_t)VL53L1_i2c_decode_with_mask(
 2107              		.loc 1 577 2 is_stmt 1 view .LVU622
 578:Drivers/BSP/Components/vl53l1cb/modules/vl53l1_nvm.c **** 			1,
 2108              		.loc 1 578 12 is_stmt 0 view .LVU623
 2109 03cc 0094     		str	r4, [sp]
 2110 03ce 2346     		mov	r3, r4
 2111 03d0 0F22     		movs	r2, #15
 2112 03d2 4946     		mov	r1, r9
 2113 03d4 0120     		movs	r0, #1
 2114 03d6 FFF7FEFF 		bl	VL53L1_i2c_decode_with_mask
 2115              	.LVL232:
 577:Drivers/BSP/Components/vl53l1cb/modules/vl53l1_nvm.c **** 		(uint8_t)VL53L1_i2c_decode_with_mask(
 2116              		.loc 1 577 47 view .LVU624
 2117 03da 85F89100 		strb	r0, [r5, #145]
 584:Drivers/BSP/Components/vl53l1cb/modules/vl53l1_nvm.c **** 		(uint8_t)VL53L1_i2c_decode_with_mask(
 2118              		.loc 1 584 2 is_stmt 1 view .LVU625
 585:Drivers/BSP/Components/vl53l1cb/modules/vl53l1_nvm.c **** 			1,
 2119              		.loc 1 585 12 is_stmt 0 view .LVU626
 2120 03de 0094     		str	r4, [sp]
ARM GAS  C:\Temp\ccKRfCgt.s 			page 67


 2121 03e0 2346     		mov	r3, r4
 2122 03e2 FF22     		movs	r2, #255
 2123 03e4 06F1BC01 		add	r1, r6, #188
 2124 03e8 0120     		movs	r0, #1
 2125 03ea FFF7FEFF 		bl	VL53L1_i2c_decode_with_mask
 2126              	.LVL233:
 584:Drivers/BSP/Components/vl53l1cb/modules/vl53l1_nvm.c **** 		(uint8_t)VL53L1_i2c_decode_with_mask(
 2127              		.loc 1 584 58 view .LVU627
 2128 03ee 85F89200 		strb	r0, [r5, #146]
 592:Drivers/BSP/Components/vl53l1cb/modules/vl53l1_nvm.c **** 		(uint8_t)VL53L1_i2c_decode_with_mask(
 2129              		.loc 1 592 2 is_stmt 1 view .LVU628
 593:Drivers/BSP/Components/vl53l1cb/modules/vl53l1_nvm.c **** 			1,
 2130              		.loc 1 593 12 is_stmt 0 view .LVU629
 2131 03f2 0094     		str	r4, [sp]
 2132 03f4 2346     		mov	r3, r4
 2133 03f6 0322     		movs	r2, #3
 2134 03f8 06F1BD01 		add	r1, r6, #189
 2135 03fc 0120     		movs	r0, #1
 2136 03fe FFF7FEFF 		bl	VL53L1_i2c_decode_with_mask
 2137              	.LVL234:
 592:Drivers/BSP/Components/vl53l1cb/modules/vl53l1_nvm.c **** 		(uint8_t)VL53L1_i2c_decode_with_mask(
 2138              		.loc 1 592 46 view .LVU630
 2139 0402 85F89300 		strb	r0, [r5, #147]
 599:Drivers/BSP/Components/vl53l1cb/modules/vl53l1_nvm.c **** 		(uint16_t)VL53L1_i2c_decode_with_mask(
 2140              		.loc 1 599 2 is_stmt 1 view .LVU631
 600:Drivers/BSP/Components/vl53l1cb/modules/vl53l1_nvm.c **** 			2,
 2141              		.loc 1 600 13 is_stmt 0 view .LVU632
 2142 0406 0094     		str	r4, [sp]
 2143 0408 2346     		mov	r3, r4
 2144 040a 4FF6FF72 		movw	r2, #65535
 2145 040e 06F1C001 		add	r1, r6, #192
 2146 0412 0220     		movs	r0, #2
 2147 0414 FFF7FEFF 		bl	VL53L1_i2c_decode_with_mask
 2148              	.LVL235:
 599:Drivers/BSP/Components/vl53l1cb/modules/vl53l1_nvm.c **** 		(uint16_t)VL53L1_i2c_decode_with_mask(
 2149              		.loc 1 599 46 view .LVU633
 2150 0418 A5F89400 		strh	r0, [r5, #148]	@ movhi
 606:Drivers/BSP/Components/vl53l1cb/modules/vl53l1_nvm.c **** 		(uint16_t)VL53L1_i2c_decode_with_mask(
 2151              		.loc 1 606 2 is_stmt 1 view .LVU634
 607:Drivers/BSP/Components/vl53l1cb/modules/vl53l1_nvm.c **** 			2,
 2152              		.loc 1 607 13 is_stmt 0 view .LVU635
 2153 041c 0094     		str	r4, [sp]
 2154 041e 2346     		mov	r3, r4
 2155 0420 4FF6FF72 		movw	r2, #65535
 2156 0424 06F1C201 		add	r1, r6, #194
 2157 0428 0220     		movs	r0, #2
 2158 042a FFF7FEFF 		bl	VL53L1_i2c_decode_with_mask
 2159              	.LVL236:
 606:Drivers/BSP/Components/vl53l1cb/modules/vl53l1_nvm.c **** 		(uint16_t)VL53L1_i2c_decode_with_mask(
 2160              		.loc 1 606 46 view .LVU636
 2161 042e A5F89600 		strh	r0, [r5, #150]	@ movhi
 613:Drivers/BSP/Components/vl53l1cb/modules/vl53l1_nvm.c **** 		(uint16_t)VL53L1_i2c_decode_with_mask(
 2162              		.loc 1 613 2 is_stmt 1 view .LVU637
 614:Drivers/BSP/Components/vl53l1cb/modules/vl53l1_nvm.c **** 			2,
 2163              		.loc 1 614 13 is_stmt 0 view .LVU638
 2164 0432 0094     		str	r4, [sp]
 2165 0434 2346     		mov	r3, r4
ARM GAS  C:\Temp\ccKRfCgt.s 			page 68


 2166 0436 40F6FF72 		movw	r2, #4095
 2167 043a 06F1C401 		add	r1, r6, #196
 2168 043e 0220     		movs	r0, #2
 2169 0440 FFF7FEFF 		bl	VL53L1_i2c_decode_with_mask
 2170              	.LVL237:
 613:Drivers/BSP/Components/vl53l1cb/modules/vl53l1_nvm.c **** 		(uint16_t)VL53L1_i2c_decode_with_mask(
 2171              		.loc 1 613 53 view .LVU639
 2172 0444 A5F89800 		strh	r0, [r5, #152]	@ movhi
 621:Drivers/BSP/Components/vl53l1cb/modules/vl53l1_nvm.c **** 		(uint16_t)VL53L1_i2c_decode_with_mask(
 2173              		.loc 1 621 2 is_stmt 1 view .LVU640
 622:Drivers/BSP/Components/vl53l1cb/modules/vl53l1_nvm.c **** 		2,
 2174              		.loc 1 622 13 is_stmt 0 view .LVU641
 2175 0448 0094     		str	r4, [sp]
 2176 044a 2346     		mov	r3, r4
 2177 044c 4FF6FF72 		movw	r2, #65535
 2178 0450 06F1C801 		add	r1, r6, #200
 2179 0454 0220     		movs	r0, #2
 2180 0456 FFF7FEFF 		bl	VL53L1_i2c_decode_with_mask
 2181              	.LVL238:
 621:Drivers/BSP/Components/vl53l1cb/modules/vl53l1_nvm.c **** 		(uint16_t)VL53L1_i2c_decode_with_mask(
 2182              		.loc 1 621 66 view .LVU642
 2183 045a A5F89A00 		strh	r0, [r5, #154]	@ movhi
 629:Drivers/BSP/Components/vl53l1cb/modules/vl53l1_nvm.c **** 	(uint16_t)VL53L1_i2c_decode_with_mask(
 2184              		.loc 1 629 2 is_stmt 1 view .LVU643
 630:Drivers/BSP/Components/vl53l1cb/modules/vl53l1_nvm.c **** 	2,
 2185              		.loc 1 630 12 is_stmt 0 view .LVU644
 2186 045e 0094     		str	r4, [sp]
 2187 0460 2346     		mov	r3, r4
 2188 0462 4FF6FF72 		movw	r2, #65535
 2189 0466 06F1CA01 		add	r1, r6, #202
 2190 046a 0220     		movs	r0, #2
 2191 046c FFF7FEFF 		bl	VL53L1_i2c_decode_with_mask
 2192              	.LVL239:
 629:Drivers/BSP/Components/vl53l1cb/modules/vl53l1_nvm.c **** 	(uint16_t)VL53L1_i2c_decode_with_mask(
 2193              		.loc 1 629 70 view .LVU645
 2194 0470 A5F89C00 		strh	r0, [r5, #156]	@ movhi
 637:Drivers/BSP/Components/vl53l1cb/modules/vl53l1_nvm.c **** 	(uint16_t)VL53L1_i2c_decode_with_mask(
 2195              		.loc 1 637 2 is_stmt 1 view .LVU646
 638:Drivers/BSP/Components/vl53l1cb/modules/vl53l1_nvm.c **** 	2,
 2196              		.loc 1 638 12 is_stmt 0 view .LVU647
 2197 0474 0094     		str	r4, [sp]
 2198 0476 2346     		mov	r3, r4
 2199 0478 4FF6FF72 		movw	r2, #65535
 2200 047c 06F1CC01 		add	r1, r6, #204
 2201 0480 0220     		movs	r0, #2
 2202 0482 FFF7FEFF 		bl	VL53L1_i2c_decode_with_mask
 2203              	.LVL240:
 637:Drivers/BSP/Components/vl53l1cb/modules/vl53l1_nvm.c **** 	(uint16_t)VL53L1_i2c_decode_with_mask(
 2204              		.loc 1 637 70 view .LVU648
 2205 0486 A5F89E00 		strh	r0, [r5, #158]	@ movhi
 645:Drivers/BSP/Components/vl53l1cb/modules/vl53l1_nvm.c **** 		(uint8_t)VL53L1_i2c_decode_with_mask(
 2206              		.loc 1 645 2 is_stmt 1 view .LVU649
 646:Drivers/BSP/Components/vl53l1cb/modules/vl53l1_nvm.c **** 			1,
 2207              		.loc 1 646 12 is_stmt 0 view .LVU650
 2208 048a 0094     		str	r4, [sp]
 2209 048c 2346     		mov	r3, r4
 2210 048e FF22     		movs	r2, #255
ARM GAS  C:\Temp\ccKRfCgt.s 			page 69


 2211 0490 06F1CE01 		add	r1, r6, #206
 2212 0494 0120     		movs	r0, #1
 2213 0496 FFF7FEFF 		bl	VL53L1_i2c_decode_with_mask
 2214              	.LVL241:
 645:Drivers/BSP/Components/vl53l1cb/modules/vl53l1_nvm.c **** 		(uint8_t)VL53L1_i2c_decode_with_mask(
 2215              		.loc 1 645 58 view .LVU651
 2216 049a 85F8A000 		strb	r0, [r5, #160]
 653:Drivers/BSP/Components/vl53l1cb/modules/vl53l1_nvm.c **** 		(uint8_t)VL53L1_i2c_decode_with_mask(
 2217              		.loc 1 653 2 is_stmt 1 view .LVU652
 654:Drivers/BSP/Components/vl53l1cb/modules/vl53l1_nvm.c **** 			1,
 2218              		.loc 1 654 12 is_stmt 0 view .LVU653
 2219 049e 0094     		str	r4, [sp]
 2220 04a0 2346     		mov	r3, r4
 2221 04a2 FF22     		movs	r2, #255
 2222 04a4 06F1CF01 		add	r1, r6, #207
 2223 04a8 0120     		movs	r0, #1
 2224 04aa FFF7FEFF 		bl	VL53L1_i2c_decode_with_mask
 2225              	.LVL242:
 653:Drivers/BSP/Components/vl53l1cb/modules/vl53l1_nvm.c **** 		(uint8_t)VL53L1_i2c_decode_with_mask(
 2226              		.loc 1 653 58 view .LVU654
 2227 04ae 85F8A100 		strb	r0, [r5, #161]
 661:Drivers/BSP/Components/vl53l1cb/modules/vl53l1_nvm.c **** 		(uint8_t)VL53L1_i2c_decode_with_mask(
 2228              		.loc 1 661 2 is_stmt 1 view .LVU655
 662:Drivers/BSP/Components/vl53l1cb/modules/vl53l1_nvm.c **** 			1,
 2229              		.loc 1 662 12 is_stmt 0 view .LVU656
 2230 04b2 0094     		str	r4, [sp]
 2231 04b4 2346     		mov	r3, r4
 2232 04b6 FF22     		movs	r2, #255
 2233 04b8 06F1E001 		add	r1, r6, #224
 2234 04bc 0120     		movs	r0, #1
 2235 04be FFF7FEFF 		bl	VL53L1_i2c_decode_with_mask
 2236              	.LVL243:
 661:Drivers/BSP/Components/vl53l1cb/modules/vl53l1_nvm.c **** 		(uint8_t)VL53L1_i2c_decode_with_mask(
 2237              		.loc 1 661 40 view .LVU657
 2238 04c2 85F8A200 		strb	r0, [r5, #162]
 668:Drivers/BSP/Components/vl53l1cb/modules/vl53l1_nvm.c **** 		(uint8_t)VL53L1_i2c_decode_with_mask(
 2239              		.loc 1 668 2 is_stmt 1 view .LVU658
 669:Drivers/BSP/Components/vl53l1cb/modules/vl53l1_nvm.c **** 			1,
 2240              		.loc 1 669 12 is_stmt 0 view .LVU659
 2241 04c6 0094     		str	r4, [sp]
 2242 04c8 2346     		mov	r3, r4
 2243 04ca FF22     		movs	r2, #255
 2244 04cc 06F1E401 		add	r1, r6, #228
 2245 04d0 0120     		movs	r0, #1
 2246 04d2 FFF7FEFF 		bl	VL53L1_i2c_decode_with_mask
 2247              	.LVL244:
 668:Drivers/BSP/Components/vl53l1cb/modules/vl53l1_nvm.c **** 		(uint8_t)VL53L1_i2c_decode_with_mask(
 2248              		.loc 1 668 39 view .LVU660
 2249 04d6 85F8A300 		strb	r0, [r5, #163]
 675:Drivers/BSP/Components/vl53l1cb/modules/vl53l1_nvm.c **** 		(uint8_t)VL53L1_i2c_decode_with_mask(
 2250              		.loc 1 675 2 is_stmt 1 view .LVU661
 676:Drivers/BSP/Components/vl53l1cb/modules/vl53l1_nvm.c **** 		1,
 2251              		.loc 1 676 12 is_stmt 0 view .LVU662
 2252 04da 0094     		str	r4, [sp]
 2253 04dc 2346     		mov	r3, r4
 2254 04de FF22     		movs	r2, #255
 2255 04e0 06F1E801 		add	r1, r6, #232
ARM GAS  C:\Temp\ccKRfCgt.s 			page 70


 2256 04e4 0120     		movs	r0, #1
 2257 04e6 FFF7FEFF 		bl	VL53L1_i2c_decode_with_mask
 2258              	.LVL245:
 675:Drivers/BSP/Components/vl53l1cb/modules/vl53l1_nvm.c **** 		(uint8_t)VL53L1_i2c_decode_with_mask(
 2259              		.loc 1 675 59 view .LVU663
 2260 04ea 85F8A400 		strb	r0, [r5, #164]
 683:Drivers/BSP/Components/vl53l1cb/modules/vl53l1_nvm.c **** 		(uint8_t)VL53L1_i2c_decode_with_mask(
 2261              		.loc 1 683 2 is_stmt 1 view .LVU664
 684:Drivers/BSP/Components/vl53l1cb/modules/vl53l1_nvm.c **** 			1,
 2262              		.loc 1 684 12 is_stmt 0 view .LVU665
 2263 04ee 0094     		str	r4, [sp]
 2264 04f0 2346     		mov	r3, r4
 2265 04f2 0322     		movs	r2, #3
 2266 04f4 06F1E901 		add	r1, r6, #233
 2267 04f8 0120     		movs	r0, #1
 2268 04fa FFF7FEFF 		bl	VL53L1_i2c_decode_with_mask
 2269              	.LVL246:
 683:Drivers/BSP/Components/vl53l1cb/modules/vl53l1_nvm.c **** 		(uint8_t)VL53L1_i2c_decode_with_mask(
 2270              		.loc 1 683 47 view .LVU666
 2271 04fe 85F8A500 		strb	r0, [r5, #165]
 690:Drivers/BSP/Components/vl53l1cb/modules/vl53l1_nvm.c **** 		(uint16_t)VL53L1_i2c_decode_with_mask(
 2272              		.loc 1 690 2 is_stmt 1 view .LVU667
 691:Drivers/BSP/Components/vl53l1cb/modules/vl53l1_nvm.c **** 			2,
 2273              		.loc 1 691 13 is_stmt 0 view .LVU668
 2274 0502 0094     		str	r4, [sp]
 2275 0504 2346     		mov	r3, r4
 2276 0506 4FF6FF72 		movw	r2, #65535
 2277 050a 06F1EC01 		add	r1, r6, #236
 2278 050e 0220     		movs	r0, #2
 2279 0510 FFF7FEFF 		bl	VL53L1_i2c_decode_with_mask
 2280              	.LVL247:
 690:Drivers/BSP/Components/vl53l1cb/modules/vl53l1_nvm.c **** 		(uint16_t)VL53L1_i2c_decode_with_mask(
 2281              		.loc 1 690 47 view .LVU669
 2282 0514 A5F8A600 		strh	r0, [r5, #166]	@ movhi
 697:Drivers/BSP/Components/vl53l1cb/modules/vl53l1_nvm.c **** 		(uint16_t)VL53L1_i2c_decode_with_mask(
 2283              		.loc 1 697 2 is_stmt 1 view .LVU670
 698:Drivers/BSP/Components/vl53l1cb/modules/vl53l1_nvm.c **** 			2,
 2284              		.loc 1 698 13 is_stmt 0 view .LVU671
 2285 0518 0094     		str	r4, [sp]
 2286 051a 2346     		mov	r3, r4
 2287 051c 4FF6FF72 		movw	r2, #65535
 2288 0520 06F1EE01 		add	r1, r6, #238
 2289 0524 0220     		movs	r0, #2
 2290 0526 FFF7FEFF 		bl	VL53L1_i2c_decode_with_mask
 2291              	.LVL248:
 697:Drivers/BSP/Components/vl53l1cb/modules/vl53l1_nvm.c **** 		(uint16_t)VL53L1_i2c_decode_with_mask(
 2292              		.loc 1 697 47 view .LVU672
 2293 052a A5F8A800 		strh	r0, [r5, #168]	@ movhi
 704:Drivers/BSP/Components/vl53l1cb/modules/vl53l1_nvm.c **** 		(uint16_t)VL53L1_i2c_decode_with_mask(
 2294              		.loc 1 704 2 is_stmt 1 view .LVU673
 705:Drivers/BSP/Components/vl53l1cb/modules/vl53l1_nvm.c **** 			2,
 2295              		.loc 1 705 13 is_stmt 0 view .LVU674
 2296 052e 0094     		str	r4, [sp]
 2297 0530 2346     		mov	r3, r4
 2298 0532 40F6FF72 		movw	r2, #4095
 2299 0536 06F1F001 		add	r1, r6, #240
 2300 053a 0220     		movs	r0, #2
ARM GAS  C:\Temp\ccKRfCgt.s 			page 71


 2301 053c FFF7FEFF 		bl	VL53L1_i2c_decode_with_mask
 2302              	.LVL249:
 704:Drivers/BSP/Components/vl53l1cb/modules/vl53l1_nvm.c **** 		(uint16_t)VL53L1_i2c_decode_with_mask(
 2303              		.loc 1 704 54 view .LVU675
 2304 0540 A5F8AA00 		strh	r0, [r5, #170]	@ movhi
 712:Drivers/BSP/Components/vl53l1cb/modules/vl53l1_nvm.c **** 	(uint16_t)VL53L1_i2c_decode_with_mask(
 2305              		.loc 1 712 2 is_stmt 1 view .LVU676
 713:Drivers/BSP/Components/vl53l1cb/modules/vl53l1_nvm.c **** 	2,
 2306              		.loc 1 713 12 is_stmt 0 view .LVU677
 2307 0544 0094     		str	r4, [sp]
 2308 0546 2346     		mov	r3, r4
 2309 0548 4FF6FF72 		movw	r2, #65535
 2310 054c 06F1F401 		add	r1, r6, #244
 2311 0550 0220     		movs	r0, #2
 2312 0552 FFF7FEFF 		bl	VL53L1_i2c_decode_with_mask
 2313              	.LVL250:
 712:Drivers/BSP/Components/vl53l1cb/modules/vl53l1_nvm.c **** 	(uint16_t)VL53L1_i2c_decode_with_mask(
 2314              		.loc 1 712 67 view .LVU678
 2315 0556 A5F8AC00 		strh	r0, [r5, #172]	@ movhi
 720:Drivers/BSP/Components/vl53l1cb/modules/vl53l1_nvm.c **** 	(uint16_t)VL53L1_i2c_decode_with_mask(
 2316              		.loc 1 720 2 is_stmt 1 view .LVU679
 721:Drivers/BSP/Components/vl53l1cb/modules/vl53l1_nvm.c **** 	2,
 2317              		.loc 1 721 12 is_stmt 0 view .LVU680
 2318 055a 0094     		str	r4, [sp]
 2319 055c 2346     		mov	r3, r4
 2320 055e 4FF6FF72 		movw	r2, #65535
 2321 0562 06F1F601 		add	r1, r6, #246
 2322 0566 0220     		movs	r0, #2
 2323 0568 FFF7FEFF 		bl	VL53L1_i2c_decode_with_mask
 2324              	.LVL251:
 720:Drivers/BSP/Components/vl53l1cb/modules/vl53l1_nvm.c **** 	(uint16_t)VL53L1_i2c_decode_with_mask(
 2325              		.loc 1 720 71 view .LVU681
 2326 056c A5F8AE00 		strh	r0, [r5, #174]	@ movhi
 728:Drivers/BSP/Components/vl53l1cb/modules/vl53l1_nvm.c **** 	(uint16_t)VL53L1_i2c_decode_with_mask(
 2327              		.loc 1 728 2 is_stmt 1 view .LVU682
 729:Drivers/BSP/Components/vl53l1cb/modules/vl53l1_nvm.c **** 	2,
 2328              		.loc 1 729 12 is_stmt 0 view .LVU683
 2329 0570 0094     		str	r4, [sp]
 2330 0572 2346     		mov	r3, r4
 2331 0574 4FF6FF72 		movw	r2, #65535
 2332 0578 06F1F801 		add	r1, r6, #248
 2333 057c 0220     		movs	r0, #2
 2334 057e FFF7FEFF 		bl	VL53L1_i2c_decode_with_mask
 2335              	.LVL252:
 728:Drivers/BSP/Components/vl53l1cb/modules/vl53l1_nvm.c **** 	(uint16_t)VL53L1_i2c_decode_with_mask(
 2336              		.loc 1 728 71 view .LVU684
 2337 0582 A5F8B000 		strh	r0, [r5, #176]	@ movhi
 736:Drivers/BSP/Components/vl53l1cb/modules/vl53l1_nvm.c **** 	(uint8_t)VL53L1_i2c_decode_with_mask(
 2338              		.loc 1 736 2 is_stmt 1 view .LVU685
 737:Drivers/BSP/Components/vl53l1cb/modules/vl53l1_nvm.c **** 	1,
 2339              		.loc 1 737 11 is_stmt 0 view .LVU686
 2340 0586 0094     		str	r4, [sp]
 2341 0588 2346     		mov	r3, r4
 2342 058a FF22     		movs	r2, #255
 2343 058c 06F1FA01 		add	r1, r6, #250
 2344 0590 0120     		movs	r0, #1
 2345 0592 FFF7FEFF 		bl	VL53L1_i2c_decode_with_mask
ARM GAS  C:\Temp\ccKRfCgt.s 			page 72


 2346              	.LVL253:
 736:Drivers/BSP/Components/vl53l1cb/modules/vl53l1_nvm.c **** 	(uint8_t)VL53L1_i2c_decode_with_mask(
 2347              		.loc 1 736 59 view .LVU687
 2348 0596 85F8B200 		strb	r0, [r5, #178]
 743:Drivers/BSP/Components/vl53l1cb/modules/vl53l1_nvm.c **** 		(uint8_t)VL53L1_i2c_decode_with_mask(
 2349              		.loc 1 743 2 is_stmt 1 view .LVU688
 744:Drivers/BSP/Components/vl53l1cb/modules/vl53l1_nvm.c **** 		1,
 2350              		.loc 1 744 12 is_stmt 0 view .LVU689
 2351 059a 0094     		str	r4, [sp]
 2352 059c 2346     		mov	r3, r4
 2353 059e FF22     		movs	r2, #255
 2354 05a0 06F1FB01 		add	r1, r6, #251
 2355 05a4 0120     		movs	r0, #1
 2356 05a6 FFF7FEFF 		bl	VL53L1_i2c_decode_with_mask
 2357              	.LVL254:
 743:Drivers/BSP/Components/vl53l1cb/modules/vl53l1_nvm.c **** 		(uint8_t)VL53L1_i2c_decode_with_mask(
 2358              		.loc 1 743 59 view .LVU690
 2359 05aa 85F8B300 		strb	r0, [r5, #179]
 754:Drivers/BSP/Components/vl53l1cb/modules/vl53l1_nvm.c **** 		status =
 2360              		.loc 1 754 2 is_stmt 1 view .LVU691
 755:Drivers/BSP/Components/vl53l1cb/modules/vl53l1_nvm.c **** 		VL53L1_nvm_decode_optical_centre(
 2361              		.loc 1 755 3 view .LVU692
 756:Drivers/BSP/Components/vl53l1cb/modules/vl53l1_nvm.c **** 			buf_size,
 2362              		.loc 1 756 3 is_stmt 0 view .LVU693
 2363 05ae 05F1B402 		add	r2, r5, #180
 2364 05b2 4146     		mov	r1, r8
 2365 05b4 3846     		mov	r0, r7
 2366 05b6 FFF7FEFF 		bl	VL53L1_nvm_decode_optical_centre
 2367              	.LVL255:
 763:Drivers/BSP/Components/vl53l1cb/modules/vl53l1_nvm.c **** 		status =
 2368              		.loc 1 763 2 is_stmt 1 view .LVU694
 763:Drivers/BSP/Components/vl53l1cb/modules/vl53l1_nvm.c **** 		status =
 2369              		.loc 1 763 5 is_stmt 0 view .LVU695
 2370 05ba 0346     		mov	r3, r0
 2371 05bc 68B1     		cbz	r0, .L91
 2372              	.LVL256:
 2373              	.L82:
 782:Drivers/BSP/Components/vl53l1cb/modules/vl53l1_nvm.c **** 	pptmp[1] = VL53L1_NVM__FMT__RANGE_RESULTS__140MM_DARK;
 2374              		.loc 1 782 2 is_stmt 1 view .LVU696
 782:Drivers/BSP/Components/vl53l1cb/modules/vl53l1_nvm.c **** 	pptmp[1] = VL53L1_NVM__FMT__RANGE_RESULTS__140MM_DARK;
 2375              		.loc 1 782 11 is_stmt 0 view .LVU697
 2376 05be 4FF4CE72 		mov	r2, #412
 2377 05c2 0292     		str	r2, [sp, #8]
 783:Drivers/BSP/Components/vl53l1cb/modules/vl53l1_nvm.c **** 	pptmp[2] = VL53L1_NVM__FMT__RANGE_RESULTS__400MM_DARK;
 2378              		.loc 1 783 2 is_stmt 1 view .LVU698
 783:Drivers/BSP/Components/vl53l1cb/modules/vl53l1_nvm.c **** 	pptmp[2] = VL53L1_NVM__FMT__RANGE_RESULTS__400MM_DARK;
 2379              		.loc 1 783 11 is_stmt 0 view .LVU699
 2380 05c4 4FF4D672 		mov	r2, #428
 2381 05c8 0392     		str	r2, [sp, #12]
 784:Drivers/BSP/Components/vl53l1cb/modules/vl53l1_nvm.c **** 	pptmp[3] = VL53L1_NVM__FMT__RANGE_RESULTS__400MM_AMBIENT;
 2382              		.loc 1 784 2 is_stmt 1 view .LVU700
 784:Drivers/BSP/Components/vl53l1cb/modules/vl53l1_nvm.c **** 	pptmp[3] = VL53L1_NVM__FMT__RANGE_RESULTS__400MM_AMBIENT;
 2383              		.loc 1 784 11 is_stmt 0 view .LVU701
 2384 05ca 4FF4DE72 		mov	r2, #444
 2385 05ce 0492     		str	r2, [sp, #16]
 785:Drivers/BSP/Components/vl53l1cb/modules/vl53l1_nvm.c **** 
 2386              		.loc 1 785 2 is_stmt 1 view .LVU702
ARM GAS  C:\Temp\ccKRfCgt.s 			page 73


 785:Drivers/BSP/Components/vl53l1cb/modules/vl53l1_nvm.c **** 
 2387              		.loc 1 785 11 is_stmt 0 view .LVU703
 2388 05d0 4FF4E672 		mov	r2, #460
 2389 05d4 0592     		str	r2, [sp, #20]
 787:Drivers/BSP/Components/vl53l1cb/modules/vl53l1_nvm.c **** 		if (status == VL53L1_ERROR_NONE)
 2390              		.loc 1 787 2 is_stmt 1 view .LVU704
 2391              	.LVL257:
 787:Drivers/BSP/Components/vl53l1cb/modules/vl53l1_nvm.c **** 		if (status == VL53L1_ERROR_NONE)
 2392              		.loc 1 787 9 is_stmt 0 view .LVU705
 2393 05d6 0024     		movs	r4, #0
 787:Drivers/BSP/Components/vl53l1cb/modules/vl53l1_nvm.c **** 		if (status == VL53L1_ERROR_NONE)
 2394              		.loc 1 787 2 view .LVU706
 2395 05d8 14E0     		b	.L83
 2396              	.LVL258:
 2397              	.L91:
 764:Drivers/BSP/Components/vl53l1cb/modules/vl53l1_nvm.c **** 		VL53L1_nvm_decode_cal_peak_rate_map(
 2398              		.loc 1 764 3 is_stmt 1 view .LVU707
 765:Drivers/BSP/Components/vl53l1cb/modules/vl53l1_nvm.c **** 			buf_size,
 2399              		.loc 1 765 3 is_stmt 0 view .LVU708
 2400 05da 05F1B602 		add	r2, r5, #182
 2401 05de 06F5AE71 		add	r1, r6, #348
 2402 05e2 3846     		mov	r0, r7
 2403              	.LVL259:
 765:Drivers/BSP/Components/vl53l1cb/modules/vl53l1_nvm.c **** 			buf_size,
 2404              		.loc 1 765 3 view .LVU709
 2405 05e4 FFF7FEFF 		bl	VL53L1_nvm_decode_cal_peak_rate_map
 2406              	.LVL260:
 772:Drivers/BSP/Components/vl53l1cb/modules/vl53l1_nvm.c **** 		status =
 2407              		.loc 1 772 2 is_stmt 1 view .LVU710
 772:Drivers/BSP/Components/vl53l1cb/modules/vl53l1_nvm.c **** 		status =
 2408              		.loc 1 772 5 is_stmt 0 view .LVU711
 2409 05e8 0346     		mov	r3, r0
 2410 05ea 0028     		cmp	r0, #0
 2411 05ec E7D1     		bne	.L82
 773:Drivers/BSP/Components/vl53l1cb/modules/vl53l1_nvm.c **** 		VL53L1_nvm_decode_additional_offset_cal_data(
 2412              		.loc 1 773 3 is_stmt 1 view .LVU712
 774:Drivers/BSP/Components/vl53l1cb/modules/vl53l1_nvm.c **** 			buf_size,
 2413              		.loc 1 774 3 is_stmt 0 view .LVU713
 2414 05ee 05F1F202 		add	r2, r5, #242
 2415 05f2 06F5CA71 		add	r1, r6, #404
 2416 05f6 3846     		mov	r0, r7
 2417              	.LVL261:
 774:Drivers/BSP/Components/vl53l1cb/modules/vl53l1_nvm.c **** 			buf_size,
 2418              		.loc 1 774 3 view .LVU714
 2419 05f8 FFF7FEFF 		bl	VL53L1_nvm_decode_additional_offset_cal_data
 2420              	.LVL262:
 2421 05fc 0346     		mov	r3, r0
 2422              	.LVL263:
 774:Drivers/BSP/Components/vl53l1cb/modules/vl53l1_nvm.c **** 			buf_size,
 2423              		.loc 1 774 3 view .LVU715
 2424 05fe DEE7     		b	.L82
 2425              	.LVL264:
 2426              	.L84:
 787:Drivers/BSP/Components/vl53l1cb/modules/vl53l1_nvm.c **** 		if (status == VL53L1_ERROR_NONE)
 2427              		.loc 1 787 52 is_stmt 1 discriminator 2 view .LVU716
 2428 0600 0134     		adds	r4, r4, #1
 2429              	.LVL265:
ARM GAS  C:\Temp\ccKRfCgt.s 			page 74


 787:Drivers/BSP/Components/vl53l1cb/modules/vl53l1_nvm.c **** 		if (status == VL53L1_ERROR_NONE)
 2430              		.loc 1 787 52 is_stmt 0 discriminator 2 view .LVU717
 2431 0602 E4B2     		uxtb	r4, r4
 2432              	.LVL266:
 2433              	.L83:
 787:Drivers/BSP/Components/vl53l1cb/modules/vl53l1_nvm.c **** 		if (status == VL53L1_ERROR_NONE)
 2434              		.loc 1 787 17 is_stmt 1 discriminator 1 view .LVU718
 2435 0604 032C     		cmp	r4, #3
 2436 0606 10D8     		bhi	.L92
 788:Drivers/BSP/Components/vl53l1cb/modules/vl53l1_nvm.c **** 			status =
 2437              		.loc 1 788 3 view .LVU719
 788:Drivers/BSP/Components/vl53l1cb/modules/vl53l1_nvm.c **** 			status =
 2438              		.loc 1 788 6 is_stmt 0 view .LVU720
 2439 0608 002B     		cmp	r3, #0
 2440 060a F9D1     		bne	.L84
 789:Drivers/BSP/Components/vl53l1cb/modules/vl53l1_nvm.c **** 				VL53L1_nvm_decode_fmt_range_results_data(
 2441              		.loc 1 789 4 is_stmt 1 view .LVU721
 792:Drivers/BSP/Components/vl53l1cb/modules/vl53l1_nvm.c **** 					&(pdata->fmt_range_data[i]));
 2442              		.loc 1 792 21 is_stmt 0 view .LVU722
 2443 060c 06AB     		add	r3, sp, #24
 2444              	.LVL267:
 792:Drivers/BSP/Components/vl53l1cb/modules/vl53l1_nvm.c **** 					&(pdata->fmt_range_data[i]));
 2445              		.loc 1 792 21 view .LVU723
 2446 060e 03EB8403 		add	r3, r3, r4, lsl #2
 2447 0612 53F8101C 		ldr	r1, [r3, #-16]
 790:Drivers/BSP/Components/vl53l1cb/modules/vl53l1_nvm.c **** 					buf_size,
 2448              		.loc 1 790 5 view .LVU724
 2449 0616 2201     		lsls	r2, r4, #4
 2450 0618 F832     		adds	r2, r2, #248
 2451 061a 2A44     		add	r2, r2, r5
 2452 061c 0232     		adds	r2, r2, #2
 2453 061e 3144     		add	r1, r1, r6
 2454 0620 3846     		mov	r0, r7
 2455 0622 FFF7FEFF 		bl	VL53L1_nvm_decode_fmt_range_results_data
 2456              	.LVL268:
 2457 0626 0346     		mov	r3, r0
 2458              	.LVL269:
 790:Drivers/BSP/Components/vl53l1cb/modules/vl53l1_nvm.c **** 					buf_size,
 2459              		.loc 1 790 5 view .LVU725
 2460 0628 EAE7     		b	.L84
 2461              	.L92:
 797:Drivers/BSP/Components/vl53l1cb/modules/vl53l1_nvm.c **** 		status =
 2462              		.loc 1 797 2 is_stmt 1 view .LVU726
 797:Drivers/BSP/Components/vl53l1cb/modules/vl53l1_nvm.c **** 		status =
 2463              		.loc 1 797 5 is_stmt 0 view .LVU727
 2464 062a 1BB1     		cbz	r3, .L93
 2465              	.LVL270:
 2466              	.L65:
 815:Drivers/BSP/Components/vl53l1cb/modules/vl53l1_nvm.c **** 
 2467              		.loc 1 815 1 view .LVU728
 2468 062c 1846     		mov	r0, r3
 2469 062e 07B0     		add	sp, sp, #28
 2470              		.cfi_remember_state
 2471              		.cfi_def_cfa_offset 28
 2472              		@ sp needed
 2473 0630 BDE8F083 		pop	{r4, r5, r6, r7, r8, r9, pc}
 2474              	.LVL271:
ARM GAS  C:\Temp\ccKRfCgt.s 			page 75


 2475              	.L93:
 2476              		.cfi_restore_state
 798:Drivers/BSP/Components/vl53l1cb/modules/vl53l1_nvm.c **** 			VL53L1_nvm_decode_fmt_info(
 2477              		.loc 1 798 3 is_stmt 1 view .LVU729
 799:Drivers/BSP/Components/vl53l1cb/modules/vl53l1_nvm.c **** 				buf_size,
 2478              		.loc 1 799 4 is_stmt 0 view .LVU730
 2479 0634 05F59D72 		add	r2, r5, #314
 2480 0638 3146     		mov	r1, r6
 2481 063a 3846     		mov	r0, r7
 2482 063c FFF7FEFF 		bl	VL53L1_nvm_decode_fmt_info
 2483              	.LVL272:
 804:Drivers/BSP/Components/vl53l1cb/modules/vl53l1_nvm.c **** 		status =
 2484              		.loc 1 804 2 is_stmt 1 view .LVU731
 804:Drivers/BSP/Components/vl53l1cb/modules/vl53l1_nvm.c **** 		status =
 2485              		.loc 1 804 5 is_stmt 0 view .LVU732
 2486 0640 0346     		mov	r3, r0
 2487 0642 0028     		cmp	r0, #0
 2488 0644 F2D1     		bne	.L65
 805:Drivers/BSP/Components/vl53l1cb/modules/vl53l1_nvm.c **** 			VL53L1_nvm_decode_ews_info(
 2489              		.loc 1 805 3 is_stmt 1 view .LVU733
 806:Drivers/BSP/Components/vl53l1cb/modules/vl53l1_nvm.c **** 				buf_size,
 2490              		.loc 1 806 4 is_stmt 0 view .LVU734
 2491 0646 05F5B572 		add	r2, r5, #362
 2492 064a 3146     		mov	r1, r6
 2493 064c 3846     		mov	r0, r7
 2494              	.LVL273:
 806:Drivers/BSP/Components/vl53l1cb/modules/vl53l1_nvm.c **** 				buf_size,
 2495              		.loc 1 806 4 view .LVU735
 2496 064e FFF7FEFF 		bl	VL53L1_nvm_decode_ews_info
 2497              	.LVL274:
 2498 0652 0346     		mov	r3, r0
 2499              	.LVL275:
 806:Drivers/BSP/Components/vl53l1cb/modules/vl53l1_nvm.c **** 				buf_size,
 2500              		.loc 1 806 4 view .LVU736
 2501 0654 EAE7     		b	.L65
 2502              	.LVL276:
 2503              	.L86:
 2504              		.cfi_def_cfa_offset 0
 2505              		.cfi_restore 4
 2506              		.cfi_restore 5
 2507              		.cfi_restore 6
 2508              		.cfi_restore 7
 2509              		.cfi_restore 8
 2510              		.cfi_restore 9
 2511              		.cfi_restore 14
 258:Drivers/BSP/Components/vl53l1cb/modules/vl53l1_nvm.c **** 
 2512              		.loc 1 258 10 view .LVU737
 2513 0656 6FF00803 		mvn	r3, #8
 2514              	.LVL277:
 815:Drivers/BSP/Components/vl53l1cb/modules/vl53l1_nvm.c **** 
 2515              		.loc 1 815 1 view .LVU738
 2516 065a 1846     		mov	r0, r3
 2517              	.LVL278:
 815:Drivers/BSP/Components/vl53l1cb/modules/vl53l1_nvm.c **** 
 2518              		.loc 1 815 1 view .LVU739
 2519 065c 7047     		bx	lr
 2520              		.cfi_endproc
ARM GAS  C:\Temp\ccKRfCgt.s 			page 76


 2521              	.LFE6:
 2523              		.section	.text.VL53L1_nvm_format_encode,"ax",%progbits
 2524              		.align	1
 2525              		.global	VL53L1_nvm_format_encode
 2526              		.syntax unified
 2527              		.thumb
 2528              		.thumb_func
 2530              	VL53L1_nvm_format_encode:
 2531              	.LVL279:
 2532              	.LFB13:
1294:Drivers/BSP/Components/vl53l1cb/modules/vl53l1_nvm.c **** 
1295:Drivers/BSP/Components/vl53l1cb/modules/vl53l1_nvm.c **** 
1296:Drivers/BSP/Components/vl53l1cb/modules/vl53l1_nvm.c **** void VL53L1_nvm_format_encode(
1297:Drivers/BSP/Components/vl53l1cb/modules/vl53l1_nvm.c **** 	VL53L1_decoded_nvm_data_t *pnvm_info,
1298:Drivers/BSP/Components/vl53l1cb/modules/vl53l1_nvm.c **** 	uint8_t                   *pnvm_data)
1299:Drivers/BSP/Components/vl53l1cb/modules/vl53l1_nvm.c **** {
 2533              		.loc 1 1299 1 is_stmt 1 view -0
 2534              		.cfi_startproc
 2535              		@ args = 0, pretend = 0, frame = 0
 2536              		@ frame_needed = 0, uses_anonymous_args = 0
 2537              		@ link register save eliminated.
1300:Drivers/BSP/Components/vl53l1cb/modules/vl53l1_nvm.c **** 	SUPPRESS_UNUSED_WARNING(pnvm_info);
 2538              		.loc 1 1300 2 view .LVU741
1301:Drivers/BSP/Components/vl53l1cb/modules/vl53l1_nvm.c **** 	SUPPRESS_UNUSED_WARNING(pnvm_data);
 2539              		.loc 1 1301 2 view .LVU742
1302:Drivers/BSP/Components/vl53l1cb/modules/vl53l1_nvm.c **** }
 2540              		.loc 1 1302 1 is_stmt 0 view .LVU743
 2541 0000 7047     		bx	lr
 2542              		.cfi_endproc
 2543              	.LFE13:
 2545              		.section	.text.VL53L1_read_nvm_raw_data,"ax",%progbits
 2546              		.align	1
 2547              		.global	VL53L1_read_nvm_raw_data
 2548              		.syntax unified
 2549              		.thumb
 2550              		.thumb_func
 2552              	VL53L1_read_nvm_raw_data:
 2553              	.LVL280:
 2554              	.LFB14:
1303:Drivers/BSP/Components/vl53l1cb/modules/vl53l1_nvm.c **** 
1304:Drivers/BSP/Components/vl53l1cb/modules/vl53l1_nvm.c **** 
1305:Drivers/BSP/Components/vl53l1cb/modules/vl53l1_nvm.c **** VL53L1_Error VL53L1_read_nvm_raw_data(
1306:Drivers/BSP/Components/vl53l1cb/modules/vl53l1_nvm.c **** 	VL53L1_DEV     Dev,
1307:Drivers/BSP/Components/vl53l1cb/modules/vl53l1_nvm.c **** 	uint8_t        start_address,
1308:Drivers/BSP/Components/vl53l1cb/modules/vl53l1_nvm.c **** 	uint8_t        count,
1309:Drivers/BSP/Components/vl53l1cb/modules/vl53l1_nvm.c **** 	uint8_t       *pnvm_raw_data)
1310:Drivers/BSP/Components/vl53l1cb/modules/vl53l1_nvm.c **** {
 2555              		.loc 1 1310 1 is_stmt 1 view -0
 2556              		.cfi_startproc
 2557              		@ args = 0, pretend = 0, frame = 0
 2558              		@ frame_needed = 0, uses_anonymous_args = 0
 2559              		.loc 1 1310 1 is_stmt 0 view .LVU745
 2560 0000 F8B5     		push	{r3, r4, r5, r6, r7, lr}
 2561              		.cfi_def_cfa_offset 24
 2562              		.cfi_offset 3, -24
 2563              		.cfi_offset 4, -20
 2564              		.cfi_offset 5, -16
ARM GAS  C:\Temp\ccKRfCgt.s 			page 77


 2565              		.cfi_offset 6, -12
 2566              		.cfi_offset 7, -8
 2567              		.cfi_offset 14, -4
 2568 0002 0446     		mov	r4, r0
 2569 0004 0D46     		mov	r5, r1
 2570 0006 1646     		mov	r6, r2
 2571 0008 1F46     		mov	r7, r3
1311:Drivers/BSP/Components/vl53l1cb/modules/vl53l1_nvm.c **** 
1312:Drivers/BSP/Components/vl53l1cb/modules/vl53l1_nvm.c **** 
1313:Drivers/BSP/Components/vl53l1cb/modules/vl53l1_nvm.c **** 
1314:Drivers/BSP/Components/vl53l1cb/modules/vl53l1_nvm.c **** 	VL53L1_Error status = VL53L1_ERROR_NONE;
 2572              		.loc 1 1314 2 is_stmt 1 view .LVU746
 2573              	.LVL281:
1315:Drivers/BSP/Components/vl53l1cb/modules/vl53l1_nvm.c **** 
1316:Drivers/BSP/Components/vl53l1cb/modules/vl53l1_nvm.c **** 	LOG_FUNCTION_START("");
 2574              		.loc 1 1316 24 view .LVU747
1317:Drivers/BSP/Components/vl53l1cb/modules/vl53l1_nvm.c **** 
1318:Drivers/BSP/Components/vl53l1cb/modules/vl53l1_nvm.c **** 
1319:Drivers/BSP/Components/vl53l1cb/modules/vl53l1_nvm.c **** 
1320:Drivers/BSP/Components/vl53l1cb/modules/vl53l1_nvm.c **** 	if (status == VL53L1_ERROR_NONE)
 2575              		.loc 1 1320 2 view .LVU748
1321:Drivers/BSP/Components/vl53l1cb/modules/vl53l1_nvm.c **** 		status = VL53L1_nvm_enable(
 2576              		.loc 1 1321 3 view .LVU749
 2577              		.loc 1 1321 12 is_stmt 0 view .LVU750
 2578 000a 3222     		movs	r2, #50
 2579              	.LVL282:
 2580              		.loc 1 1321 12 view .LVU751
 2581 000c 0421     		movs	r1, #4
 2582              	.LVL283:
 2583              		.loc 1 1321 12 view .LVU752
 2584 000e FFF7FEFF 		bl	VL53L1_nvm_enable
 2585              	.LVL284:
1322:Drivers/BSP/Components/vl53l1cb/modules/vl53l1_nvm.c **** 					Dev,
1323:Drivers/BSP/Components/vl53l1cb/modules/vl53l1_nvm.c **** 					0x0004,
1324:Drivers/BSP/Components/vl53l1cb/modules/vl53l1_nvm.c **** 					VL53L1_NVM_POWER_UP_DELAY_US);
1325:Drivers/BSP/Components/vl53l1cb/modules/vl53l1_nvm.c **** 
1326:Drivers/BSP/Components/vl53l1cb/modules/vl53l1_nvm.c **** 
1327:Drivers/BSP/Components/vl53l1cb/modules/vl53l1_nvm.c **** 
1328:Drivers/BSP/Components/vl53l1cb/modules/vl53l1_nvm.c **** 	if (status == VL53L1_ERROR_NONE)
 2586              		.loc 1 1328 2 is_stmt 1 view .LVU753
 2587              		.loc 1 1328 5 is_stmt 0 view .LVU754
 2588 0012 00B1     		cbz	r0, .L98
 2589              	.LVL285:
 2590              	.L96:
1329:Drivers/BSP/Components/vl53l1cb/modules/vl53l1_nvm.c **** 		status = VL53L1_nvm_read(
1330:Drivers/BSP/Components/vl53l1cb/modules/vl53l1_nvm.c **** 			Dev,
1331:Drivers/BSP/Components/vl53l1cb/modules/vl53l1_nvm.c **** 			start_address,
1332:Drivers/BSP/Components/vl53l1cb/modules/vl53l1_nvm.c **** 			count,
1333:Drivers/BSP/Components/vl53l1cb/modules/vl53l1_nvm.c **** 			pnvm_raw_data);
1334:Drivers/BSP/Components/vl53l1cb/modules/vl53l1_nvm.c **** 
1335:Drivers/BSP/Components/vl53l1cb/modules/vl53l1_nvm.c **** 
1336:Drivers/BSP/Components/vl53l1cb/modules/vl53l1_nvm.c **** 
1337:Drivers/BSP/Components/vl53l1cb/modules/vl53l1_nvm.c **** 	if (status == VL53L1_ERROR_NONE)
1338:Drivers/BSP/Components/vl53l1cb/modules/vl53l1_nvm.c **** 		status = VL53L1_nvm_disable(Dev);
1339:Drivers/BSP/Components/vl53l1cb/modules/vl53l1_nvm.c **** 
1340:Drivers/BSP/Components/vl53l1cb/modules/vl53l1_nvm.c **** 	LOG_FUNCTION_END(status);
 2591              		.loc 1 1340 26 is_stmt 1 view .LVU755
ARM GAS  C:\Temp\ccKRfCgt.s 			page 78


1341:Drivers/BSP/Components/vl53l1cb/modules/vl53l1_nvm.c **** 
1342:Drivers/BSP/Components/vl53l1cb/modules/vl53l1_nvm.c **** 	return status;
 2592              		.loc 1 1342 2 view .LVU756
1343:Drivers/BSP/Components/vl53l1cb/modules/vl53l1_nvm.c **** 
1344:Drivers/BSP/Components/vl53l1cb/modules/vl53l1_nvm.c **** }
 2593              		.loc 1 1344 1 is_stmt 0 view .LVU757
 2594 0014 F8BD     		pop	{r3, r4, r5, r6, r7, pc}
 2595              	.LVL286:
 2596              	.L98:
1329:Drivers/BSP/Components/vl53l1cb/modules/vl53l1_nvm.c **** 			Dev,
 2597              		.loc 1 1329 3 is_stmt 1 view .LVU758
1329:Drivers/BSP/Components/vl53l1cb/modules/vl53l1_nvm.c **** 			Dev,
 2598              		.loc 1 1329 12 is_stmt 0 view .LVU759
 2599 0016 3B46     		mov	r3, r7
 2600 0018 3246     		mov	r2, r6
 2601 001a 2946     		mov	r1, r5
 2602 001c 2046     		mov	r0, r4
 2603 001e FFF7FEFF 		bl	VL53L1_nvm_read
 2604              	.LVL287:
1337:Drivers/BSP/Components/vl53l1cb/modules/vl53l1_nvm.c **** 		status = VL53L1_nvm_disable(Dev);
 2605              		.loc 1 1337 2 is_stmt 1 view .LVU760
1337:Drivers/BSP/Components/vl53l1cb/modules/vl53l1_nvm.c **** 		status = VL53L1_nvm_disable(Dev);
 2606              		.loc 1 1337 5 is_stmt 0 view .LVU761
 2607 0022 0028     		cmp	r0, #0
 2608 0024 F6D1     		bne	.L96
1338:Drivers/BSP/Components/vl53l1cb/modules/vl53l1_nvm.c **** 
 2609              		.loc 1 1338 3 is_stmt 1 view .LVU762
1338:Drivers/BSP/Components/vl53l1cb/modules/vl53l1_nvm.c **** 
 2610              		.loc 1 1338 12 is_stmt 0 view .LVU763
 2611 0026 2046     		mov	r0, r4
 2612              	.LVL288:
1338:Drivers/BSP/Components/vl53l1cb/modules/vl53l1_nvm.c **** 
 2613              		.loc 1 1338 12 view .LVU764
 2614 0028 FFF7FEFF 		bl	VL53L1_nvm_disable
 2615              	.LVL289:
1338:Drivers/BSP/Components/vl53l1cb/modules/vl53l1_nvm.c **** 
 2616              		.loc 1 1338 12 view .LVU765
 2617 002c F2E7     		b	.L96
 2618              		.cfi_endproc
 2619              	.LFE14:
 2621              		.section	.text.VL53L1_read_nvm,"ax",%progbits
 2622              		.align	1
 2623              		.global	VL53L1_read_nvm
 2624              		.syntax unified
 2625              		.thumb
 2626              		.thumb_func
 2628              	VL53L1_read_nvm:
 2629              	.LVL290:
 2630              	.LFB15:
1345:Drivers/BSP/Components/vl53l1cb/modules/vl53l1_nvm.c **** 
1346:Drivers/BSP/Components/vl53l1cb/modules/vl53l1_nvm.c **** 
1347:Drivers/BSP/Components/vl53l1cb/modules/vl53l1_nvm.c **** VL53L1_Error VL53L1_read_nvm(
1348:Drivers/BSP/Components/vl53l1cb/modules/vl53l1_nvm.c **** 	VL53L1_DEV                 Dev,
1349:Drivers/BSP/Components/vl53l1cb/modules/vl53l1_nvm.c **** 	uint8_t                    nvm_format,
1350:Drivers/BSP/Components/vl53l1cb/modules/vl53l1_nvm.c **** 	VL53L1_decoded_nvm_data_t *pnvm_info)
1351:Drivers/BSP/Components/vl53l1cb/modules/vl53l1_nvm.c **** {
 2631              		.loc 1 1351 1 is_stmt 1 view -0
ARM GAS  C:\Temp\ccKRfCgt.s 			page 79


 2632              		.cfi_startproc
 2633              		@ args = 0, pretend = 0, frame = 512
 2634              		@ frame_needed = 0, uses_anonymous_args = 0
 2635              		.loc 1 1351 1 is_stmt 0 view .LVU767
 2636 0000 10B5     		push	{r4, lr}
 2637              		.cfi_def_cfa_offset 8
 2638              		.cfi_offset 4, -8
 2639              		.cfi_offset 14, -4
 2640 0002 ADF5007D 		sub	sp, sp, #512
 2641              		.cfi_def_cfa_offset 520
 2642 0006 1446     		mov	r4, r2
1352:Drivers/BSP/Components/vl53l1cb/modules/vl53l1_nvm.c **** 
1353:Drivers/BSP/Components/vl53l1cb/modules/vl53l1_nvm.c **** 
1354:Drivers/BSP/Components/vl53l1cb/modules/vl53l1_nvm.c **** 
1355:Drivers/BSP/Components/vl53l1cb/modules/vl53l1_nvm.c **** 	VL53L1_Error status = VL53L1_ERROR_NONE;
 2643              		.loc 1 1355 2 is_stmt 1 view .LVU768
 2644              	.LVL291:
1356:Drivers/BSP/Components/vl53l1cb/modules/vl53l1_nvm.c **** 
1357:Drivers/BSP/Components/vl53l1cb/modules/vl53l1_nvm.c **** 	uint8_t nvm_data[VL53L1_NVM_SIZE_IN_BYTES];
 2645              		.loc 1 1357 2 view .LVU769
1358:Drivers/BSP/Components/vl53l1cb/modules/vl53l1_nvm.c **** 
1359:Drivers/BSP/Components/vl53l1cb/modules/vl53l1_nvm.c **** 	LOG_FUNCTION_START("");
 2646              		.loc 1 1359 24 view .LVU770
1360:Drivers/BSP/Components/vl53l1cb/modules/vl53l1_nvm.c **** 
1361:Drivers/BSP/Components/vl53l1cb/modules/vl53l1_nvm.c **** 	SUPPRESS_UNUSED_WARNING(nvm_format);
 2647              		.loc 1 1361 2 view .LVU771
1362:Drivers/BSP/Components/vl53l1cb/modules/vl53l1_nvm.c **** 
1363:Drivers/BSP/Components/vl53l1cb/modules/vl53l1_nvm.c **** 
1364:Drivers/BSP/Components/vl53l1cb/modules/vl53l1_nvm.c **** 
1365:Drivers/BSP/Components/vl53l1cb/modules/vl53l1_nvm.c **** 	status = VL53L1_read_nvm_raw_data(
 2648              		.loc 1 1365 2 view .LVU772
 2649              		.loc 1 1365 11 is_stmt 0 view .LVU773
 2650 0008 6B46     		mov	r3, sp
 2651 000a 8022     		movs	r2, #128
 2652              	.LVL292:
 2653              		.loc 1 1365 11 view .LVU774
 2654 000c 0021     		movs	r1, #0
 2655              	.LVL293:
 2656              		.loc 1 1365 11 view .LVU775
 2657 000e FFF7FEFF 		bl	VL53L1_read_nvm_raw_data
 2658              	.LVL294:
1366:Drivers/BSP/Components/vl53l1cb/modules/vl53l1_nvm.c **** 				Dev,
1367:Drivers/BSP/Components/vl53l1cb/modules/vl53l1_nvm.c **** 				0,
1368:Drivers/BSP/Components/vl53l1cb/modules/vl53l1_nvm.c **** 				VL53L1_NVM_SIZE_IN_BYTES >> 2,
1369:Drivers/BSP/Components/vl53l1cb/modules/vl53l1_nvm.c **** 				nvm_data);
1370:Drivers/BSP/Components/vl53l1cb/modules/vl53l1_nvm.c **** 
1371:Drivers/BSP/Components/vl53l1cb/modules/vl53l1_nvm.c **** 
1372:Drivers/BSP/Components/vl53l1cb/modules/vl53l1_nvm.c **** 
1373:Drivers/BSP/Components/vl53l1cb/modules/vl53l1_nvm.c **** 
1374:Drivers/BSP/Components/vl53l1cb/modules/vl53l1_nvm.c **** 
1375:Drivers/BSP/Components/vl53l1cb/modules/vl53l1_nvm.c **** 	if (status == VL53L1_ERROR_NONE)
 2659              		.loc 1 1375 2 is_stmt 1 view .LVU776
 2660              		.loc 1 1375 5 is_stmt 0 view .LVU777
 2661 0012 10B1     		cbz	r0, .L102
 2662              	.LVL295:
 2663              	.L100:
1376:Drivers/BSP/Components/vl53l1cb/modules/vl53l1_nvm.c **** 		status = VL53L1_nvm_format_decode(
ARM GAS  C:\Temp\ccKRfCgt.s 			page 80


1377:Drivers/BSP/Components/vl53l1cb/modules/vl53l1_nvm.c **** 			VL53L1_NVM_SIZE_IN_BYTES,
1378:Drivers/BSP/Components/vl53l1cb/modules/vl53l1_nvm.c **** 			nvm_data,
1379:Drivers/BSP/Components/vl53l1cb/modules/vl53l1_nvm.c **** 			pnvm_info);
1380:Drivers/BSP/Components/vl53l1cb/modules/vl53l1_nvm.c **** 
1381:Drivers/BSP/Components/vl53l1cb/modules/vl53l1_nvm.c **** 	LOG_FUNCTION_END(status);
 2664              		.loc 1 1381 26 is_stmt 1 view .LVU778
1382:Drivers/BSP/Components/vl53l1cb/modules/vl53l1_nvm.c **** 
1383:Drivers/BSP/Components/vl53l1cb/modules/vl53l1_nvm.c **** 	return status;
 2665              		.loc 1 1383 2 view .LVU779
1384:Drivers/BSP/Components/vl53l1cb/modules/vl53l1_nvm.c **** 
1385:Drivers/BSP/Components/vl53l1cb/modules/vl53l1_nvm.c **** }
 2666              		.loc 1 1385 1 is_stmt 0 view .LVU780
 2667 0014 0DF5007D 		add	sp, sp, #512
 2668              		.cfi_remember_state
 2669              		.cfi_def_cfa_offset 8
 2670              		@ sp needed
 2671 0018 10BD     		pop	{r4, pc}
 2672              	.LVL296:
 2673              	.L102:
 2674              		.cfi_restore_state
1376:Drivers/BSP/Components/vl53l1cb/modules/vl53l1_nvm.c **** 			VL53L1_NVM_SIZE_IN_BYTES,
 2675              		.loc 1 1376 3 is_stmt 1 view .LVU781
1376:Drivers/BSP/Components/vl53l1cb/modules/vl53l1_nvm.c **** 			VL53L1_NVM_SIZE_IN_BYTES,
 2676              		.loc 1 1376 12 is_stmt 0 view .LVU782
 2677 001a 2246     		mov	r2, r4
 2678 001c 6946     		mov	r1, sp
 2679 001e 4FF40070 		mov	r0, #512
 2680 0022 FFF7FEFF 		bl	VL53L1_nvm_format_decode
 2681              	.LVL297:
1376:Drivers/BSP/Components/vl53l1cb/modules/vl53l1_nvm.c **** 			VL53L1_NVM_SIZE_IN_BYTES,
 2682              		.loc 1 1376 12 view .LVU783
 2683 0026 F5E7     		b	.L100
 2684              		.cfi_endproc
 2685              	.LFE15:
 2687              		.section	.text.VL53L1_read_nvm_optical_centre,"ax",%progbits
 2688              		.align	1
 2689              		.global	VL53L1_read_nvm_optical_centre
 2690              		.syntax unified
 2691              		.thumb
 2692              		.thumb_func
 2694              	VL53L1_read_nvm_optical_centre:
 2695              	.LVL298:
 2696              	.LFB16:
1386:Drivers/BSP/Components/vl53l1cb/modules/vl53l1_nvm.c **** 
1387:Drivers/BSP/Components/vl53l1cb/modules/vl53l1_nvm.c **** 
1388:Drivers/BSP/Components/vl53l1cb/modules/vl53l1_nvm.c **** VL53L1_Error VL53L1_read_nvm_optical_centre(
1389:Drivers/BSP/Components/vl53l1cb/modules/vl53l1_nvm.c **** 	VL53L1_DEV                        Dev,
1390:Drivers/BSP/Components/vl53l1cb/modules/vl53l1_nvm.c **** 	VL53L1_optical_centre_t          *pcentre)
1391:Drivers/BSP/Components/vl53l1cb/modules/vl53l1_nvm.c **** {
 2697              		.loc 1 1391 1 is_stmt 1 view -0
 2698              		.cfi_startproc
 2699              		@ args = 0, pretend = 0, frame = 8
 2700              		@ frame_needed = 0, uses_anonymous_args = 0
 2701              		.loc 1 1391 1 is_stmt 0 view .LVU785
 2702 0000 10B5     		push	{r4, lr}
 2703              		.cfi_def_cfa_offset 8
 2704              		.cfi_offset 4, -8
ARM GAS  C:\Temp\ccKRfCgt.s 			page 81


 2705              		.cfi_offset 14, -4
 2706 0002 82B0     		sub	sp, sp, #8
 2707              		.cfi_def_cfa_offset 16
 2708 0004 0C46     		mov	r4, r1
1392:Drivers/BSP/Components/vl53l1cb/modules/vl53l1_nvm.c **** 
1393:Drivers/BSP/Components/vl53l1cb/modules/vl53l1_nvm.c **** 
1394:Drivers/BSP/Components/vl53l1cb/modules/vl53l1_nvm.c **** 	VL53L1_Error status = VL53L1_ERROR_NONE;
 2709              		.loc 1 1394 2 is_stmt 1 view .LVU786
 2710              	.LVL299:
1395:Drivers/BSP/Components/vl53l1cb/modules/vl53l1_nvm.c **** 
1396:Drivers/BSP/Components/vl53l1cb/modules/vl53l1_nvm.c **** 	uint8_t nvm_data[VL53L1_NVM__FMT__OPTICAL_CENTRE_DATA_SIZE];
 2711              		.loc 1 1396 2 view .LVU787
1397:Drivers/BSP/Components/vl53l1cb/modules/vl53l1_nvm.c **** 
1398:Drivers/BSP/Components/vl53l1cb/modules/vl53l1_nvm.c **** 	LOG_FUNCTION_START("");
 2712              		.loc 1 1398 24 view .LVU788
1399:Drivers/BSP/Components/vl53l1cb/modules/vl53l1_nvm.c **** 
1400:Drivers/BSP/Components/vl53l1cb/modules/vl53l1_nvm.c **** 
1401:Drivers/BSP/Components/vl53l1cb/modules/vl53l1_nvm.c **** 
1402:Drivers/BSP/Components/vl53l1cb/modules/vl53l1_nvm.c **** 	status =
 2713              		.loc 1 1402 2 view .LVU789
1403:Drivers/BSP/Components/vl53l1cb/modules/vl53l1_nvm.c **** 		VL53L1_read_nvm_raw_data(
 2714              		.loc 1 1403 3 is_stmt 0 view .LVU790
 2715 0006 01AB     		add	r3, sp, #4
 2716 0008 0122     		movs	r2, #1
 2717 000a 2E21     		movs	r1, #46
 2718              	.LVL300:
 2719              		.loc 1 1403 3 view .LVU791
 2720 000c FFF7FEFF 		bl	VL53L1_read_nvm_raw_data
 2721              	.LVL301:
1404:Drivers/BSP/Components/vl53l1cb/modules/vl53l1_nvm.c **** 			Dev,
1405:Drivers/BSP/Components/vl53l1cb/modules/vl53l1_nvm.c **** 			(uint8_t)(VL53L1_NVM__FMT__OPTICAL_CENTRE_DATA_INDEX
1406:Drivers/BSP/Components/vl53l1cb/modules/vl53l1_nvm.c **** 					>> 2),
1407:Drivers/BSP/Components/vl53l1cb/modules/vl53l1_nvm.c **** 			(uint8_t)(VL53L1_NVM__FMT__OPTICAL_CENTRE_DATA_SIZE
1408:Drivers/BSP/Components/vl53l1cb/modules/vl53l1_nvm.c **** 					>> 2),
1409:Drivers/BSP/Components/vl53l1cb/modules/vl53l1_nvm.c **** 			nvm_data);
1410:Drivers/BSP/Components/vl53l1cb/modules/vl53l1_nvm.c **** 
1411:Drivers/BSP/Components/vl53l1cb/modules/vl53l1_nvm.c **** 
1412:Drivers/BSP/Components/vl53l1cb/modules/vl53l1_nvm.c **** 
1413:Drivers/BSP/Components/vl53l1cb/modules/vl53l1_nvm.c **** 	if (status == VL53L1_ERROR_NONE)
 2722              		.loc 1 1413 2 is_stmt 1 view .LVU792
 2723              		.loc 1 1413 5 is_stmt 0 view .LVU793
 2724 0010 08B1     		cbz	r0, .L106
 2725              	.LVL302:
 2726              	.L104:
1414:Drivers/BSP/Components/vl53l1cb/modules/vl53l1_nvm.c **** 		status =
1415:Drivers/BSP/Components/vl53l1cb/modules/vl53l1_nvm.c **** 			VL53L1_nvm_decode_optical_centre(
1416:Drivers/BSP/Components/vl53l1cb/modules/vl53l1_nvm.c **** 				VL53L1_NVM__FMT__OPTICAL_CENTRE_DATA_SIZE,
1417:Drivers/BSP/Components/vl53l1cb/modules/vl53l1_nvm.c **** 				nvm_data,
1418:Drivers/BSP/Components/vl53l1cb/modules/vl53l1_nvm.c **** 				pcentre);
1419:Drivers/BSP/Components/vl53l1cb/modules/vl53l1_nvm.c **** 
1420:Drivers/BSP/Components/vl53l1cb/modules/vl53l1_nvm.c **** 	LOG_FUNCTION_END(status);
 2727              		.loc 1 1420 26 is_stmt 1 view .LVU794
1421:Drivers/BSP/Components/vl53l1cb/modules/vl53l1_nvm.c **** 
1422:Drivers/BSP/Components/vl53l1cb/modules/vl53l1_nvm.c **** 	return status;
 2728              		.loc 1 1422 2 view .LVU795
1423:Drivers/BSP/Components/vl53l1cb/modules/vl53l1_nvm.c **** }
 2729              		.loc 1 1423 1 is_stmt 0 view .LVU796
ARM GAS  C:\Temp\ccKRfCgt.s 			page 82


 2730 0012 02B0     		add	sp, sp, #8
 2731              		.cfi_remember_state
 2732              		.cfi_def_cfa_offset 8
 2733              		@ sp needed
 2734 0014 10BD     		pop	{r4, pc}
 2735              	.LVL303:
 2736              	.L106:
 2737              		.cfi_restore_state
1414:Drivers/BSP/Components/vl53l1cb/modules/vl53l1_nvm.c **** 		status =
 2738              		.loc 1 1414 3 is_stmt 1 view .LVU797
1415:Drivers/BSP/Components/vl53l1cb/modules/vl53l1_nvm.c **** 				VL53L1_NVM__FMT__OPTICAL_CENTRE_DATA_SIZE,
 2739              		.loc 1 1415 4 is_stmt 0 view .LVU798
 2740 0016 2246     		mov	r2, r4
 2741 0018 01A9     		add	r1, sp, #4
 2742              	.LVL304:
1415:Drivers/BSP/Components/vl53l1cb/modules/vl53l1_nvm.c **** 				VL53L1_NVM__FMT__OPTICAL_CENTRE_DATA_SIZE,
 2743              		.loc 1 1415 4 view .LVU799
 2744 001a 0420     		movs	r0, #4
 2745 001c FFF7FEFF 		bl	VL53L1_nvm_decode_optical_centre
 2746              	.LVL305:
1415:Drivers/BSP/Components/vl53l1cb/modules/vl53l1_nvm.c **** 				VL53L1_NVM__FMT__OPTICAL_CENTRE_DATA_SIZE,
 2747              		.loc 1 1415 4 view .LVU800
 2748 0020 F7E7     		b	.L104
 2749              		.cfi_endproc
 2750              	.LFE16:
 2752              		.section	.text.VL53L1_read_nvm_cal_peak_rate_map,"ax",%progbits
 2753              		.align	1
 2754              		.global	VL53L1_read_nvm_cal_peak_rate_map
 2755              		.syntax unified
 2756              		.thumb
 2757              		.thumb_func
 2759              	VL53L1_read_nvm_cal_peak_rate_map:
 2760              	.LVL306:
 2761              	.LFB17:
1424:Drivers/BSP/Components/vl53l1cb/modules/vl53l1_nvm.c **** 
1425:Drivers/BSP/Components/vl53l1cb/modules/vl53l1_nvm.c **** 
1426:Drivers/BSP/Components/vl53l1cb/modules/vl53l1_nvm.c **** VL53L1_Error VL53L1_read_nvm_cal_peak_rate_map(
1427:Drivers/BSP/Components/vl53l1cb/modules/vl53l1_nvm.c **** 	VL53L1_DEV                           Dev,
1428:Drivers/BSP/Components/vl53l1cb/modules/vl53l1_nvm.c **** 	VL53L1_cal_peak_rate_map_t          *pcal_data)
1429:Drivers/BSP/Components/vl53l1cb/modules/vl53l1_nvm.c **** {
 2762              		.loc 1 1429 1 is_stmt 1 view -0
 2763              		.cfi_startproc
 2764              		@ args = 0, pretend = 0, frame = 56
 2765              		@ frame_needed = 0, uses_anonymous_args = 0
 2766              		.loc 1 1429 1 is_stmt 0 view .LVU802
 2767 0000 10B5     		push	{r4, lr}
 2768              		.cfi_def_cfa_offset 8
 2769              		.cfi_offset 4, -8
 2770              		.cfi_offset 14, -4
 2771 0002 8EB0     		sub	sp, sp, #56
 2772              		.cfi_def_cfa_offset 64
 2773 0004 0C46     		mov	r4, r1
1430:Drivers/BSP/Components/vl53l1cb/modules/vl53l1_nvm.c **** 
1431:Drivers/BSP/Components/vl53l1cb/modules/vl53l1_nvm.c **** 
1432:Drivers/BSP/Components/vl53l1cb/modules/vl53l1_nvm.c **** 	VL53L1_Error status = VL53L1_ERROR_NONE;
 2774              		.loc 1 1432 2 is_stmt 1 view .LVU803
 2775              	.LVL307:
ARM GAS  C:\Temp\ccKRfCgt.s 			page 83


1433:Drivers/BSP/Components/vl53l1cb/modules/vl53l1_nvm.c **** 
1434:Drivers/BSP/Components/vl53l1cb/modules/vl53l1_nvm.c **** 	uint8_t nvm_data[VL53L1_NVM__FMT__CAL_PEAK_RATE_MAP_DATA_SIZE];
 2776              		.loc 1 1434 2 view .LVU804
1435:Drivers/BSP/Components/vl53l1cb/modules/vl53l1_nvm.c **** 
1436:Drivers/BSP/Components/vl53l1cb/modules/vl53l1_nvm.c **** 	LOG_FUNCTION_START("");
 2777              		.loc 1 1436 24 view .LVU805
1437:Drivers/BSP/Components/vl53l1cb/modules/vl53l1_nvm.c **** 
1438:Drivers/BSP/Components/vl53l1cb/modules/vl53l1_nvm.c **** 
1439:Drivers/BSP/Components/vl53l1cb/modules/vl53l1_nvm.c **** 
1440:Drivers/BSP/Components/vl53l1cb/modules/vl53l1_nvm.c **** 	status =
 2778              		.loc 1 1440 2 view .LVU806
1441:Drivers/BSP/Components/vl53l1cb/modules/vl53l1_nvm.c **** 		VL53L1_read_nvm_raw_data(
 2779              		.loc 1 1441 3 is_stmt 0 view .LVU807
 2780 0006 6B46     		mov	r3, sp
 2781 0008 0E22     		movs	r2, #14
 2782 000a 5721     		movs	r1, #87
 2783              	.LVL308:
 2784              		.loc 1 1441 3 view .LVU808
 2785 000c FFF7FEFF 		bl	VL53L1_read_nvm_raw_data
 2786              	.LVL309:
1442:Drivers/BSP/Components/vl53l1cb/modules/vl53l1_nvm.c **** 			Dev,
1443:Drivers/BSP/Components/vl53l1cb/modules/vl53l1_nvm.c **** 			(uint8_t)(VL53L1_NVM__FMT__CAL_PEAK_RATE_MAP_DATA_INDEX
1444:Drivers/BSP/Components/vl53l1cb/modules/vl53l1_nvm.c **** 					>> 2),
1445:Drivers/BSP/Components/vl53l1cb/modules/vl53l1_nvm.c **** 			(uint8_t)(VL53L1_NVM__FMT__CAL_PEAK_RATE_MAP_DATA_SIZE
1446:Drivers/BSP/Components/vl53l1cb/modules/vl53l1_nvm.c **** 					>> 2),
1447:Drivers/BSP/Components/vl53l1cb/modules/vl53l1_nvm.c **** 			nvm_data);
1448:Drivers/BSP/Components/vl53l1cb/modules/vl53l1_nvm.c **** 
1449:Drivers/BSP/Components/vl53l1cb/modules/vl53l1_nvm.c **** 
1450:Drivers/BSP/Components/vl53l1cb/modules/vl53l1_nvm.c **** 
1451:Drivers/BSP/Components/vl53l1cb/modules/vl53l1_nvm.c **** 	if (status == VL53L1_ERROR_NONE)
 2787              		.loc 1 1451 2 is_stmt 1 view .LVU809
 2788              		.loc 1 1451 5 is_stmt 0 view .LVU810
 2789 0010 08B1     		cbz	r0, .L110
 2790              	.LVL310:
 2791              	.L108:
1452:Drivers/BSP/Components/vl53l1cb/modules/vl53l1_nvm.c **** 		status =
1453:Drivers/BSP/Components/vl53l1cb/modules/vl53l1_nvm.c **** 			VL53L1_nvm_decode_cal_peak_rate_map(
1454:Drivers/BSP/Components/vl53l1cb/modules/vl53l1_nvm.c **** 				VL53L1_NVM__FMT__CAL_PEAK_RATE_MAP_DATA_SIZE,
1455:Drivers/BSP/Components/vl53l1cb/modules/vl53l1_nvm.c **** 				nvm_data,
1456:Drivers/BSP/Components/vl53l1cb/modules/vl53l1_nvm.c **** 				pcal_data);
1457:Drivers/BSP/Components/vl53l1cb/modules/vl53l1_nvm.c **** 
1458:Drivers/BSP/Components/vl53l1cb/modules/vl53l1_nvm.c **** 	LOG_FUNCTION_END(status);
 2792              		.loc 1 1458 26 is_stmt 1 view .LVU811
1459:Drivers/BSP/Components/vl53l1cb/modules/vl53l1_nvm.c **** 
1460:Drivers/BSP/Components/vl53l1cb/modules/vl53l1_nvm.c **** 	return status;
 2793              		.loc 1 1460 2 view .LVU812
1461:Drivers/BSP/Components/vl53l1cb/modules/vl53l1_nvm.c **** }
 2794              		.loc 1 1461 1 is_stmt 0 view .LVU813
 2795 0012 0EB0     		add	sp, sp, #56
 2796              		.cfi_remember_state
 2797              		.cfi_def_cfa_offset 8
 2798              		@ sp needed
 2799 0014 10BD     		pop	{r4, pc}
 2800              	.LVL311:
 2801              	.L110:
 2802              		.cfi_restore_state
1452:Drivers/BSP/Components/vl53l1cb/modules/vl53l1_nvm.c **** 		status =
ARM GAS  C:\Temp\ccKRfCgt.s 			page 84


 2803              		.loc 1 1452 3 is_stmt 1 view .LVU814
1453:Drivers/BSP/Components/vl53l1cb/modules/vl53l1_nvm.c **** 				VL53L1_NVM__FMT__CAL_PEAK_RATE_MAP_DATA_SIZE,
 2804              		.loc 1 1453 4 is_stmt 0 view .LVU815
 2805 0016 2246     		mov	r2, r4
 2806 0018 6946     		mov	r1, sp
 2807 001a 3820     		movs	r0, #56
 2808 001c FFF7FEFF 		bl	VL53L1_nvm_decode_cal_peak_rate_map
 2809              	.LVL312:
1453:Drivers/BSP/Components/vl53l1cb/modules/vl53l1_nvm.c **** 				VL53L1_NVM__FMT__CAL_PEAK_RATE_MAP_DATA_SIZE,
 2810              		.loc 1 1453 4 view .LVU816
 2811 0020 F7E7     		b	.L108
 2812              		.cfi_endproc
 2813              	.LFE17:
 2815              		.section	.text.VL53L1_read_nvm_additional_offset_cal_data,"ax",%progbits
 2816              		.align	1
 2817              		.global	VL53L1_read_nvm_additional_offset_cal_data
 2818              		.syntax unified
 2819              		.thumb
 2820              		.thumb_func
 2822              	VL53L1_read_nvm_additional_offset_cal_data:
 2823              	.LVL313:
 2824              	.LFB18:
1462:Drivers/BSP/Components/vl53l1cb/modules/vl53l1_nvm.c **** 
1463:Drivers/BSP/Components/vl53l1cb/modules/vl53l1_nvm.c **** 
1464:Drivers/BSP/Components/vl53l1cb/modules/vl53l1_nvm.c **** VL53L1_Error VL53L1_read_nvm_additional_offset_cal_data(
1465:Drivers/BSP/Components/vl53l1cb/modules/vl53l1_nvm.c **** 	VL53L1_DEV                           Dev,
1466:Drivers/BSP/Components/vl53l1cb/modules/vl53l1_nvm.c **** 	VL53L1_additional_offset_cal_data_t *pcal_data)
1467:Drivers/BSP/Components/vl53l1cb/modules/vl53l1_nvm.c **** {
 2825              		.loc 1 1467 1 is_stmt 1 view -0
 2826              		.cfi_startproc
 2827              		@ args = 0, pretend = 0, frame = 8
 2828              		@ frame_needed = 0, uses_anonymous_args = 0
 2829              		.loc 1 1467 1 is_stmt 0 view .LVU818
 2830 0000 10B5     		push	{r4, lr}
 2831              		.cfi_def_cfa_offset 8
 2832              		.cfi_offset 4, -8
 2833              		.cfi_offset 14, -4
 2834 0002 82B0     		sub	sp, sp, #8
 2835              		.cfi_def_cfa_offset 16
 2836 0004 0C46     		mov	r4, r1
1468:Drivers/BSP/Components/vl53l1cb/modules/vl53l1_nvm.c **** 
1469:Drivers/BSP/Components/vl53l1cb/modules/vl53l1_nvm.c **** 
1470:Drivers/BSP/Components/vl53l1cb/modules/vl53l1_nvm.c **** 
1471:Drivers/BSP/Components/vl53l1cb/modules/vl53l1_nvm.c **** 	VL53L1_Error status = VL53L1_ERROR_NONE;
 2837              		.loc 1 1471 2 is_stmt 1 view .LVU819
 2838              	.LVL314:
1472:Drivers/BSP/Components/vl53l1cb/modules/vl53l1_nvm.c **** 
1473:Drivers/BSP/Components/vl53l1cb/modules/vl53l1_nvm.c **** 	uint8_t nvm_data[VL53L1_NVM__FMT__ADDITIONAL_OFFSET_CAL_DATA_SIZE];
 2839              		.loc 1 1473 2 view .LVU820
1474:Drivers/BSP/Components/vl53l1cb/modules/vl53l1_nvm.c **** 
1475:Drivers/BSP/Components/vl53l1cb/modules/vl53l1_nvm.c **** 	LOG_FUNCTION_START("");
 2840              		.loc 1 1475 24 view .LVU821
1476:Drivers/BSP/Components/vl53l1cb/modules/vl53l1_nvm.c **** 
1477:Drivers/BSP/Components/vl53l1cb/modules/vl53l1_nvm.c **** 
1478:Drivers/BSP/Components/vl53l1cb/modules/vl53l1_nvm.c **** 
1479:Drivers/BSP/Components/vl53l1cb/modules/vl53l1_nvm.c **** 	status =
 2841              		.loc 1 1479 2 view .LVU822
ARM GAS  C:\Temp\ccKRfCgt.s 			page 85


1480:Drivers/BSP/Components/vl53l1cb/modules/vl53l1_nvm.c **** 		VL53L1_read_nvm_raw_data(
 2842              		.loc 1 1480 3 is_stmt 0 view .LVU823
 2843 0006 6B46     		mov	r3, sp
 2844 0008 0222     		movs	r2, #2
 2845 000a 6521     		movs	r1, #101
 2846              	.LVL315:
 2847              		.loc 1 1480 3 view .LVU824
 2848 000c FFF7FEFF 		bl	VL53L1_read_nvm_raw_data
 2849              	.LVL316:
1481:Drivers/BSP/Components/vl53l1cb/modules/vl53l1_nvm.c **** 			Dev,
1482:Drivers/BSP/Components/vl53l1cb/modules/vl53l1_nvm.c **** 			(uint8_t)(
1483:Drivers/BSP/Components/vl53l1cb/modules/vl53l1_nvm.c **** 			VL53L1_NVM__FMT__ADDITIONAL_OFFSET_CAL_DATA_INDEX >> 2),
1484:Drivers/BSP/Components/vl53l1cb/modules/vl53l1_nvm.c **** 			(uint8_t)(
1485:Drivers/BSP/Components/vl53l1cb/modules/vl53l1_nvm.c **** 			VL53L1_NVM__FMT__ADDITIONAL_OFFSET_CAL_DATA_SIZE >> 2),
1486:Drivers/BSP/Components/vl53l1cb/modules/vl53l1_nvm.c **** 			nvm_data);
1487:Drivers/BSP/Components/vl53l1cb/modules/vl53l1_nvm.c **** 
1488:Drivers/BSP/Components/vl53l1cb/modules/vl53l1_nvm.c **** 
1489:Drivers/BSP/Components/vl53l1cb/modules/vl53l1_nvm.c **** 
1490:Drivers/BSP/Components/vl53l1cb/modules/vl53l1_nvm.c **** 	if (status == VL53L1_ERROR_NONE)
 2850              		.loc 1 1490 2 is_stmt 1 view .LVU825
 2851              		.loc 1 1490 5 is_stmt 0 view .LVU826
 2852 0010 08B1     		cbz	r0, .L114
 2853              	.LVL317:
 2854              	.L112:
1491:Drivers/BSP/Components/vl53l1cb/modules/vl53l1_nvm.c **** 		status = VL53L1_nvm_decode_additional_offset_cal_data(
1492:Drivers/BSP/Components/vl53l1cb/modules/vl53l1_nvm.c **** 			VL53L1_NVM__FMT__ADDITIONAL_OFFSET_CAL_DATA_SIZE,
1493:Drivers/BSP/Components/vl53l1cb/modules/vl53l1_nvm.c **** 			nvm_data,
1494:Drivers/BSP/Components/vl53l1cb/modules/vl53l1_nvm.c **** 			pcal_data);
1495:Drivers/BSP/Components/vl53l1cb/modules/vl53l1_nvm.c **** 
1496:Drivers/BSP/Components/vl53l1cb/modules/vl53l1_nvm.c **** 	LOG_FUNCTION_END(status);
 2855              		.loc 1 1496 26 is_stmt 1 view .LVU827
1497:Drivers/BSP/Components/vl53l1cb/modules/vl53l1_nvm.c **** 
1498:Drivers/BSP/Components/vl53l1cb/modules/vl53l1_nvm.c **** 	return status;
 2856              		.loc 1 1498 2 view .LVU828
1499:Drivers/BSP/Components/vl53l1cb/modules/vl53l1_nvm.c **** 
1500:Drivers/BSP/Components/vl53l1cb/modules/vl53l1_nvm.c **** }
 2857              		.loc 1 1500 1 is_stmt 0 view .LVU829
 2858 0012 02B0     		add	sp, sp, #8
 2859              		.cfi_remember_state
 2860              		.cfi_def_cfa_offset 8
 2861              		@ sp needed
 2862 0014 10BD     		pop	{r4, pc}
 2863              	.LVL318:
 2864              	.L114:
 2865              		.cfi_restore_state
1491:Drivers/BSP/Components/vl53l1cb/modules/vl53l1_nvm.c **** 			VL53L1_NVM__FMT__ADDITIONAL_OFFSET_CAL_DATA_SIZE,
 2866              		.loc 1 1491 3 is_stmt 1 view .LVU830
1491:Drivers/BSP/Components/vl53l1cb/modules/vl53l1_nvm.c **** 			VL53L1_NVM__FMT__ADDITIONAL_OFFSET_CAL_DATA_SIZE,
 2867              		.loc 1 1491 12 is_stmt 0 view .LVU831
 2868 0016 2246     		mov	r2, r4
 2869 0018 6946     		mov	r1, sp
 2870 001a 0820     		movs	r0, #8
 2871 001c FFF7FEFF 		bl	VL53L1_nvm_decode_additional_offset_cal_data
 2872              	.LVL319:
1491:Drivers/BSP/Components/vl53l1cb/modules/vl53l1_nvm.c **** 			VL53L1_NVM__FMT__ADDITIONAL_OFFSET_CAL_DATA_SIZE,
 2873              		.loc 1 1491 12 view .LVU832
 2874 0020 F7E7     		b	.L112
ARM GAS  C:\Temp\ccKRfCgt.s 			page 86


 2875              		.cfi_endproc
 2876              	.LFE18:
 2878              		.section	.text.VL53L1_read_nvm_fmt_range_results_data,"ax",%progbits
 2879              		.align	1
 2880              		.global	VL53L1_read_nvm_fmt_range_results_data
 2881              		.syntax unified
 2882              		.thumb
 2883              		.thumb_func
 2885              	VL53L1_read_nvm_fmt_range_results_data:
 2886              	.LVL320:
 2887              	.LFB19:
1501:Drivers/BSP/Components/vl53l1cb/modules/vl53l1_nvm.c **** 
1502:Drivers/BSP/Components/vl53l1cb/modules/vl53l1_nvm.c **** 
1503:Drivers/BSP/Components/vl53l1cb/modules/vl53l1_nvm.c **** VL53L1_Error VL53L1_read_nvm_fmt_range_results_data(
1504:Drivers/BSP/Components/vl53l1cb/modules/vl53l1_nvm.c **** 	VL53L1_DEV                           Dev,
1505:Drivers/BSP/Components/vl53l1cb/modules/vl53l1_nvm.c **** 	uint16_t                             range_results_select,
1506:Drivers/BSP/Components/vl53l1cb/modules/vl53l1_nvm.c **** 	VL53L1_decoded_nvm_fmt_range_data_t *prange_data)
1507:Drivers/BSP/Components/vl53l1cb/modules/vl53l1_nvm.c **** {
 2888              		.loc 1 1507 1 is_stmt 1 view -0
 2889              		.cfi_startproc
 2890              		@ args = 0, pretend = 0, frame = 16
 2891              		@ frame_needed = 0, uses_anonymous_args = 0
 2892              		.loc 1 1507 1 is_stmt 0 view .LVU834
 2893 0000 10B5     		push	{r4, lr}
 2894              		.cfi_def_cfa_offset 8
 2895              		.cfi_offset 4, -8
 2896              		.cfi_offset 14, -4
 2897 0002 84B0     		sub	sp, sp, #16
 2898              		.cfi_def_cfa_offset 24
 2899 0004 1446     		mov	r4, r2
1508:Drivers/BSP/Components/vl53l1cb/modules/vl53l1_nvm.c **** 
1509:Drivers/BSP/Components/vl53l1cb/modules/vl53l1_nvm.c **** 
1510:Drivers/BSP/Components/vl53l1cb/modules/vl53l1_nvm.c **** 
1511:Drivers/BSP/Components/vl53l1cb/modules/vl53l1_nvm.c **** 	VL53L1_Error status = VL53L1_ERROR_NONE;
 2900              		.loc 1 1511 2 is_stmt 1 view .LVU835
 2901              	.LVL321:
1512:Drivers/BSP/Components/vl53l1cb/modules/vl53l1_nvm.c **** 
1513:Drivers/BSP/Components/vl53l1cb/modules/vl53l1_nvm.c **** 	uint8_t nvm_data[VL53L1_NVM__FMT__RANGE_RESULTS__SIZE_BYTES];
 2902              		.loc 1 1513 2 view .LVU836
1514:Drivers/BSP/Components/vl53l1cb/modules/vl53l1_nvm.c **** 
1515:Drivers/BSP/Components/vl53l1cb/modules/vl53l1_nvm.c **** 	LOG_FUNCTION_START("");
 2903              		.loc 1 1515 24 view .LVU837
1516:Drivers/BSP/Components/vl53l1cb/modules/vl53l1_nvm.c **** 
1517:Drivers/BSP/Components/vl53l1cb/modules/vl53l1_nvm.c **** 
1518:Drivers/BSP/Components/vl53l1cb/modules/vl53l1_nvm.c **** 
1519:Drivers/BSP/Components/vl53l1cb/modules/vl53l1_nvm.c **** 	status = VL53L1_read_nvm_raw_data(
 2904              		.loc 1 1519 2 view .LVU838
 2905              		.loc 1 1519 11 is_stmt 0 view .LVU839
 2906 0006 6B46     		mov	r3, sp
 2907 0008 0422     		movs	r2, #4
 2908              	.LVL322:
 2909              		.loc 1 1519 11 view .LVU840
 2910 000a C1F38701 		ubfx	r1, r1, #2, #8
 2911              	.LVL323:
 2912              		.loc 1 1519 11 view .LVU841
 2913 000e FFF7FEFF 		bl	VL53L1_read_nvm_raw_data
 2914              	.LVL324:
ARM GAS  C:\Temp\ccKRfCgt.s 			page 87


1520:Drivers/BSP/Components/vl53l1cb/modules/vl53l1_nvm.c **** 		Dev,
1521:Drivers/BSP/Components/vl53l1cb/modules/vl53l1_nvm.c **** 		(uint8_t)(range_results_select >> 2),
1522:Drivers/BSP/Components/vl53l1cb/modules/vl53l1_nvm.c **** 		(uint8_t)(VL53L1_NVM__FMT__RANGE_RESULTS__SIZE_BYTES >> 2),
1523:Drivers/BSP/Components/vl53l1cb/modules/vl53l1_nvm.c **** 		nvm_data);
1524:Drivers/BSP/Components/vl53l1cb/modules/vl53l1_nvm.c **** 
1525:Drivers/BSP/Components/vl53l1cb/modules/vl53l1_nvm.c **** 
1526:Drivers/BSP/Components/vl53l1cb/modules/vl53l1_nvm.c **** 
1527:Drivers/BSP/Components/vl53l1cb/modules/vl53l1_nvm.c **** 	if (status == VL53L1_ERROR_NONE)
 2915              		.loc 1 1527 2 is_stmt 1 view .LVU842
 2916              		.loc 1 1527 5 is_stmt 0 view .LVU843
 2917 0012 08B1     		cbz	r0, .L118
 2918              	.LVL325:
 2919              	.L116:
1528:Drivers/BSP/Components/vl53l1cb/modules/vl53l1_nvm.c **** 		status =
1529:Drivers/BSP/Components/vl53l1cb/modules/vl53l1_nvm.c **** 			VL53L1_nvm_decode_fmt_range_results_data(
1530:Drivers/BSP/Components/vl53l1cb/modules/vl53l1_nvm.c **** 				VL53L1_NVM__FMT__RANGE_RESULTS__SIZE_BYTES,
1531:Drivers/BSP/Components/vl53l1cb/modules/vl53l1_nvm.c **** 				nvm_data,
1532:Drivers/BSP/Components/vl53l1cb/modules/vl53l1_nvm.c **** 				prange_data);
1533:Drivers/BSP/Components/vl53l1cb/modules/vl53l1_nvm.c **** 
1534:Drivers/BSP/Components/vl53l1cb/modules/vl53l1_nvm.c **** 	LOG_FUNCTION_END(status);
 2920              		.loc 1 1534 26 is_stmt 1 view .LVU844
1535:Drivers/BSP/Components/vl53l1cb/modules/vl53l1_nvm.c **** 
1536:Drivers/BSP/Components/vl53l1cb/modules/vl53l1_nvm.c **** 	return status;
 2921              		.loc 1 1536 2 view .LVU845
1537:Drivers/BSP/Components/vl53l1cb/modules/vl53l1_nvm.c **** 
1538:Drivers/BSP/Components/vl53l1cb/modules/vl53l1_nvm.c **** }
 2922              		.loc 1 1538 1 is_stmt 0 view .LVU846
 2923 0014 04B0     		add	sp, sp, #16
 2924              		.cfi_remember_state
 2925              		.cfi_def_cfa_offset 8
 2926              		@ sp needed
 2927 0016 10BD     		pop	{r4, pc}
 2928              	.LVL326:
 2929              	.L118:
 2930              		.cfi_restore_state
1528:Drivers/BSP/Components/vl53l1cb/modules/vl53l1_nvm.c **** 			VL53L1_nvm_decode_fmt_range_results_data(
 2931              		.loc 1 1528 3 is_stmt 1 view .LVU847
1529:Drivers/BSP/Components/vl53l1cb/modules/vl53l1_nvm.c **** 				VL53L1_NVM__FMT__RANGE_RESULTS__SIZE_BYTES,
 2932              		.loc 1 1529 4 is_stmt 0 view .LVU848
 2933 0018 2246     		mov	r2, r4
 2934 001a 6946     		mov	r1, sp
 2935 001c 1020     		movs	r0, #16
 2936 001e FFF7FEFF 		bl	VL53L1_nvm_decode_fmt_range_results_data
 2937              	.LVL327:
1529:Drivers/BSP/Components/vl53l1cb/modules/vl53l1_nvm.c **** 				VL53L1_NVM__FMT__RANGE_RESULTS__SIZE_BYTES,
 2938              		.loc 1 1529 4 view .LVU849
 2939 0022 F7E7     		b	.L116
 2940              		.cfi_endproc
 2941              	.LFE19:
 2943              		.text
 2944              	.Letext0:
 2945              		.file 2 "c:\\users\\jessejabezarendse\\appdata\\roaming\\code\\user\\globalstorage\\bmd.stm32-for-
 2946              		.file 3 "c:\\users\\jessejabezarendse\\appdata\\roaming\\code\\user\\globalstorage\\bmd.stm32-for-
 2947              		.file 4 "Drivers/BSP/Components/vl53l1cb/porting/vl53l1_types.h"
 2948              		.file 5 "Drivers/BSP/Components/vl53l1cb/modules/vl53l1_error_codes.h"
 2949              		.file 6 "Drivers/BSP/Components/vl53l1cb/modules/vl53l1_register_structs.h"
 2950              		.file 7 "Drivers/BSP/Components/vl53l1cb/modules/vl53l1_ll_device.h"
ARM GAS  C:\Temp\ccKRfCgt.s 			page 88


 2951              		.file 8 "Drivers/BSP/Components/vl53l1cb/modules/vl53l1_dmax_structs.h"
 2952              		.file 9 "Drivers/BSP/Components/vl53l1cb/modules/vl53l1_hist_structs.h"
 2953              		.file 10 "Drivers/BSP/Components/vl53l1cb/modules/vl53l1_ll_def.h"
 2954              		.file 11 "Drivers/BSP/Components/vl53l1cb/modules/vl53l1_def.h"
 2955              		.file 12 "Drivers/BSP/Components/vl53l1cb/vl53l1cb.h"
 2956              		.file 13 "Drivers/BSP/Components/vl53l1cb/porting/vl53l1_platform_user_data.h"
 2957              		.file 14 "Drivers/BSP/Components/vl53l1cb/modules/vl53l1_nvm_structs.h"
 2958              		.file 15 "Drivers/BSP/Components/vl53l1cb/modules/vl53l1_core.h"
 2959              		.file 16 "Drivers/BSP/Components/vl53l1cb/porting/vl53l1_platform.h"
ARM GAS  C:\Temp\ccKRfCgt.s 			page 89


DEFINED SYMBOLS
                            *ABS*:00000000 vl53l1_nvm.c
  C:\Temp\ccKRfCgt.s:21     .text.VL53L1_nvm_enable:00000000 $t
  C:\Temp\ccKRfCgt.s:27     .text.VL53L1_nvm_enable:00000000 VL53L1_nvm_enable
  C:\Temp\ccKRfCgt.s:165    .text.VL53L1_nvm_read:00000000 $t
  C:\Temp\ccKRfCgt.s:171    .text.VL53L1_nvm_read:00000000 VL53L1_nvm_read
  C:\Temp\ccKRfCgt.s:313    .text.VL53L1_nvm_disable:00000000 $t
  C:\Temp\ccKRfCgt.s:319    .text.VL53L1_nvm_disable:00000000 VL53L1_nvm_disable
  C:\Temp\ccKRfCgt.s:400    .text.VL53L1_nvm_decode_optical_centre:00000000 $t
  C:\Temp\ccKRfCgt.s:406    .text.VL53L1_nvm_decode_optical_centre:00000000 VL53L1_nvm_decode_optical_centre
  C:\Temp\ccKRfCgt.s:463    .text.VL53L1_nvm_decode_cal_peak_rate_map:00000000 $t
  C:\Temp\ccKRfCgt.s:469    .text.VL53L1_nvm_decode_cal_peak_rate_map:00000000 VL53L1_nvm_decode_cal_peak_rate_map
  C:\Temp\ccKRfCgt.s:579    .text.VL53L1_nvm_decode_additional_offset_cal_data:00000000 $t
  C:\Temp\ccKRfCgt.s:585    .text.VL53L1_nvm_decode_additional_offset_cal_data:00000000 VL53L1_nvm_decode_additional_offset_cal_data
  C:\Temp\ccKRfCgt.s:660    .text.VL53L1_nvm_decode_fmt_range_results_data:00000000 $t
  C:\Temp\ccKRfCgt.s:666    .text.VL53L1_nvm_decode_fmt_range_results_data:00000000 VL53L1_nvm_decode_fmt_range_results_data
  C:\Temp\ccKRfCgt.s:773    .text.VL53L1_nvm_decode_fmt_info:00000000 $t
  C:\Temp\ccKRfCgt.s:779    .text.VL53L1_nvm_decode_fmt_info:00000000 VL53L1_nvm_decode_fmt_info
  C:\Temp\ccKRfCgt.s:1163   .text.VL53L1_nvm_decode_ews_info:00000000 $t
  C:\Temp\ccKRfCgt.s:1169   .text.VL53L1_nvm_decode_ews_info:00000000 VL53L1_nvm_decode_ews_info
  C:\Temp\ccKRfCgt.s:1400   .text.VL53L1_nvm_format_decode:00000000 $t
  C:\Temp\ccKRfCgt.s:1406   .text.VL53L1_nvm_format_decode:00000000 VL53L1_nvm_format_decode
  C:\Temp\ccKRfCgt.s:2524   .text.VL53L1_nvm_format_encode:00000000 $t
  C:\Temp\ccKRfCgt.s:2530   .text.VL53L1_nvm_format_encode:00000000 VL53L1_nvm_format_encode
  C:\Temp\ccKRfCgt.s:2546   .text.VL53L1_read_nvm_raw_data:00000000 $t
  C:\Temp\ccKRfCgt.s:2552   .text.VL53L1_read_nvm_raw_data:00000000 VL53L1_read_nvm_raw_data
  C:\Temp\ccKRfCgt.s:2622   .text.VL53L1_read_nvm:00000000 $t
  C:\Temp\ccKRfCgt.s:2628   .text.VL53L1_read_nvm:00000000 VL53L1_read_nvm
  C:\Temp\ccKRfCgt.s:2688   .text.VL53L1_read_nvm_optical_centre:00000000 $t
  C:\Temp\ccKRfCgt.s:2694   .text.VL53L1_read_nvm_optical_centre:00000000 VL53L1_read_nvm_optical_centre
  C:\Temp\ccKRfCgt.s:2753   .text.VL53L1_read_nvm_cal_peak_rate_map:00000000 $t
  C:\Temp\ccKRfCgt.s:2759   .text.VL53L1_read_nvm_cal_peak_rate_map:00000000 VL53L1_read_nvm_cal_peak_rate_map
  C:\Temp\ccKRfCgt.s:2816   .text.VL53L1_read_nvm_additional_offset_cal_data:00000000 $t
  C:\Temp\ccKRfCgt.s:2822   .text.VL53L1_read_nvm_additional_offset_cal_data:00000000 VL53L1_read_nvm_additional_offset_cal_data
  C:\Temp\ccKRfCgt.s:2879   .text.VL53L1_read_nvm_fmt_range_results_data:00000000 $t
  C:\Temp\ccKRfCgt.s:2885   .text.VL53L1_read_nvm_fmt_range_results_data:00000000 VL53L1_read_nvm_fmt_range_results_data

UNDEFINED SYMBOLS
VL53L1_disable_firmware
VL53L1_enable_powerforce
VL53L1_WaitUs
VL53L1_WrByte
VL53L1_WrWord
VL53L1_ReadMulti
VL53L1_disable_powerforce
VL53L1_enable_firmware
VL53L1_i2c_decode_uint16_t
VL53L1_i2c_decode_with_mask
