ARM GAS  C:\Temp\ccKqr3fi.s 			page 1


   1              		.cpu cortex-m4
   2              		.arch armv7e-m
   3              		.fpu fpv4-sp-d16
   4              		.eabi_attribute 27, 1
   5              		.eabi_attribute 28, 1
   6              		.eabi_attribute 20, 1
   7              		.eabi_attribute 21, 1
   8              		.eabi_attribute 23, 3
   9              		.eabi_attribute 24, 1
  10              		.eabi_attribute 25, 1
  11              		.eabi_attribute 26, 1
  12              		.eabi_attribute 30, 1
  13              		.eabi_attribute 34, 1
  14              		.eabi_attribute 18, 4
  15              		.file	"vl53l1_sigma_estimate.c"
  16              		.text
  17              	.Ltext0:
  18              		.cfi_sections	.debug_frame
  19              		.file 1 "Drivers/BSP/Components/vl53l1cb/modules/vl53l1_sigma_estimate.c"
  20              		.global	__aeabi_uldivmod
  21              		.section	.text.VL53L1_f_044,"ax",%progbits
  22              		.align	1
  23              		.global	VL53L1_f_044
  24              		.syntax unified
  25              		.thumb
  26              		.thumb_func
  28              	VL53L1_f_044:
  29              	.LVL0:
  30              	.LFB4:
   1:Drivers/BSP/Components/vl53l1cb/modules/vl53l1_sigma_estimate.c **** /**
   2:Drivers/BSP/Components/vl53l1cb/modules/vl53l1_sigma_estimate.c ****  ******************************************************************************
   3:Drivers/BSP/Components/vl53l1cb/modules/vl53l1_sigma_estimate.c ****  * Copyright (c) 2020, STMicroelectronics - All Rights Reserved
   4:Drivers/BSP/Components/vl53l1cb/modules/vl53l1_sigma_estimate.c **** 
   5:Drivers/BSP/Components/vl53l1cb/modules/vl53l1_sigma_estimate.c ****  This file is part of VL53L1 Protected and is licensed 
   6:Drivers/BSP/Components/vl53l1cb/modules/vl53l1_sigma_estimate.c ****  'STMicroelectronics Proprietary license'
   7:Drivers/BSP/Components/vl53l1cb/modules/vl53l1_sigma_estimate.c **** 
   8:Drivers/BSP/Components/vl53l1cb/modules/vl53l1_sigma_estimate.c ****  License terms: STMicroelectronics Proprietary in accordance with licensing
   9:Drivers/BSP/Components/vl53l1cb/modules/vl53l1_sigma_estimate.c ****  terms at www.st.com/sla0081
  10:Drivers/BSP/Components/vl53l1cb/modules/vl53l1_sigma_estimate.c **** 
  11:Drivers/BSP/Components/vl53l1cb/modules/vl53l1_sigma_estimate.c ****  ******************************************************************************
  12:Drivers/BSP/Components/vl53l1cb/modules/vl53l1_sigma_estimate.c ****  */
  13:Drivers/BSP/Components/vl53l1cb/modules/vl53l1_sigma_estimate.c **** 
  14:Drivers/BSP/Components/vl53l1cb/modules/vl53l1_sigma_estimate.c **** 
  15:Drivers/BSP/Components/vl53l1cb/modules/vl53l1_sigma_estimate.c **** 
  16:Drivers/BSP/Components/vl53l1cb/modules/vl53l1_sigma_estimate.c **** 
  17:Drivers/BSP/Components/vl53l1cb/modules/vl53l1_sigma_estimate.c **** #include "vl53l1_types.h"
  18:Drivers/BSP/Components/vl53l1cb/modules/vl53l1_sigma_estimate.c **** #include "vl53l1_platform_log.h"
  19:Drivers/BSP/Components/vl53l1cb/modules/vl53l1_sigma_estimate.c **** 
  20:Drivers/BSP/Components/vl53l1cb/modules/vl53l1_sigma_estimate.c **** #include "vl53l1_core_support.h"
  21:Drivers/BSP/Components/vl53l1cb/modules/vl53l1_sigma_estimate.c **** #include "vl53l1_error_codes.h"
  22:Drivers/BSP/Components/vl53l1cb/modules/vl53l1_sigma_estimate.c **** 
  23:Drivers/BSP/Components/vl53l1cb/modules/vl53l1_sigma_estimate.c **** #include "vl53l1_sigma_estimate.h"
  24:Drivers/BSP/Components/vl53l1cb/modules/vl53l1_sigma_estimate.c **** 
  25:Drivers/BSP/Components/vl53l1cb/modules/vl53l1_sigma_estimate.c **** 
  26:Drivers/BSP/Components/vl53l1cb/modules/vl53l1_sigma_estimate.c **** #define LOG_FUNCTION_START(fmt, ...) \
  27:Drivers/BSP/Components/vl53l1cb/modules/vl53l1_sigma_estimate.c **** 	_LOG_FUNCTION_START(VL53L1_TRACE_MODULE_PROTECTED, fmt, ##__VA_ARGS__)
  28:Drivers/BSP/Components/vl53l1cb/modules/vl53l1_sigma_estimate.c **** #define LOG_FUNCTION_END(status, ...) \
ARM GAS  C:\Temp\ccKqr3fi.s 			page 2


  29:Drivers/BSP/Components/vl53l1cb/modules/vl53l1_sigma_estimate.c **** 	_LOG_FUNCTION_END(VL53L1_TRACE_MODULE_PROTECTED, status, ##__VA_ARGS__)
  30:Drivers/BSP/Components/vl53l1cb/modules/vl53l1_sigma_estimate.c **** #define LOG_FUNCTION_END_FMT(status, fmt, ...) \
  31:Drivers/BSP/Components/vl53l1cb/modules/vl53l1_sigma_estimate.c **** 	_LOG_FUNCTION_END_FMT(VL53L1_TRACE_MODULE_PROTECTED, \
  32:Drivers/BSP/Components/vl53l1cb/modules/vl53l1_sigma_estimate.c **** 	status, fmt, ##__VA_ARGS__)
  33:Drivers/BSP/Components/vl53l1cb/modules/vl53l1_sigma_estimate.c **** 
  34:Drivers/BSP/Components/vl53l1cb/modules/vl53l1_sigma_estimate.c **** #define trace_print(level, ...) \
  35:Drivers/BSP/Components/vl53l1cb/modules/vl53l1_sigma_estimate.c **** 	_LOG_TRACE_PRINT(VL53L1_TRACE_MODULE_PROTECTED, \
  36:Drivers/BSP/Components/vl53l1cb/modules/vl53l1_sigma_estimate.c **** 	level, VL53L1_TRACE_FUNCTION_NONE, ##__VA_ARGS__)
  37:Drivers/BSP/Components/vl53l1cb/modules/vl53l1_sigma_estimate.c **** 
  38:Drivers/BSP/Components/vl53l1cb/modules/vl53l1_sigma_estimate.c **** 
  39:Drivers/BSP/Components/vl53l1cb/modules/vl53l1_sigma_estimate.c **** uint16_t  VL53L1_f_042(
  40:Drivers/BSP/Components/vl53l1cb/modules/vl53l1_sigma_estimate.c **** 		uint8_t	 sigma_estimator__effective_pulse_width_ns,
  41:Drivers/BSP/Components/vl53l1cb/modules/vl53l1_sigma_estimate.c **** 		uint8_t  sigma_estimator__effective_ambient_width_ns,
  42:Drivers/BSP/Components/vl53l1cb/modules/vl53l1_sigma_estimate.c **** 		uint8_t	 sigma_estimator__sigma_ref_mm,
  43:Drivers/BSP/Components/vl53l1cb/modules/vl53l1_sigma_estimate.c **** 		VL53L1_range_data_t *pdata)
  44:Drivers/BSP/Components/vl53l1cb/modules/vl53l1_sigma_estimate.c **** {
  45:Drivers/BSP/Components/vl53l1cb/modules/vl53l1_sigma_estimate.c **** 
  46:Drivers/BSP/Components/vl53l1cb/modules/vl53l1_sigma_estimate.c **** 
  47:Drivers/BSP/Components/vl53l1cb/modules/vl53l1_sigma_estimate.c **** 
  48:Drivers/BSP/Components/vl53l1cb/modules/vl53l1_sigma_estimate.c **** 	uint16_t    sigma_est  = VL53L1_D_002;
  49:Drivers/BSP/Components/vl53l1cb/modules/vl53l1_sigma_estimate.c **** 
  50:Drivers/BSP/Components/vl53l1cb/modules/vl53l1_sigma_estimate.c **** 	uint32_t    tmp0 = 0;
  51:Drivers/BSP/Components/vl53l1cb/modules/vl53l1_sigma_estimate.c **** 	uint32_t    tmp1 = 0;
  52:Drivers/BSP/Components/vl53l1cb/modules/vl53l1_sigma_estimate.c **** 	uint32_t    tmp2 = 0;
  53:Drivers/BSP/Components/vl53l1cb/modules/vl53l1_sigma_estimate.c **** 
  54:Drivers/BSP/Components/vl53l1cb/modules/vl53l1_sigma_estimate.c **** 	uint32_t    sigma_est__rtn_array  = 0;
  55:Drivers/BSP/Components/vl53l1cb/modules/vl53l1_sigma_estimate.c **** 	uint32_t    sigma_est__ref_array  = 0;
  56:Drivers/BSP/Components/vl53l1cb/modules/vl53l1_sigma_estimate.c **** 
  57:Drivers/BSP/Components/vl53l1cb/modules/vl53l1_sigma_estimate.c **** 	LOG_FUNCTION_START("");
  58:Drivers/BSP/Components/vl53l1cb/modules/vl53l1_sigma_estimate.c **** 
  59:Drivers/BSP/Components/vl53l1cb/modules/vl53l1_sigma_estimate.c **** 	if (pdata->peak_signal_count_rate_mcps  > 0 &&
  60:Drivers/BSP/Components/vl53l1cb/modules/vl53l1_sigma_estimate.c **** 		pdata->VL53L1_p_013 > 0) {
  61:Drivers/BSP/Components/vl53l1cb/modules/vl53l1_sigma_estimate.c **** 
  62:Drivers/BSP/Components/vl53l1cb/modules/vl53l1_sigma_estimate.c **** 
  63:Drivers/BSP/Components/vl53l1cb/modules/vl53l1_sigma_estimate.c **** 
  64:Drivers/BSP/Components/vl53l1cb/modules/vl53l1_sigma_estimate.c **** 		tmp0 =  100 *
  65:Drivers/BSP/Components/vl53l1cb/modules/vl53l1_sigma_estimate.c **** 			(uint32_t)sigma_estimator__effective_pulse_width_ns;
  66:Drivers/BSP/Components/vl53l1cb/modules/vl53l1_sigma_estimate.c **** 
  67:Drivers/BSP/Components/vl53l1cb/modules/vl53l1_sigma_estimate.c **** 
  68:Drivers/BSP/Components/vl53l1cb/modules/vl53l1_sigma_estimate.c **** 
  69:Drivers/BSP/Components/vl53l1cb/modules/vl53l1_sigma_estimate.c **** 		tmp1 = ((uint32_t)sigma_estimator__effective_pulse_width_ns *
  70:Drivers/BSP/Components/vl53l1cb/modules/vl53l1_sigma_estimate.c **** 			100 *
  71:Drivers/BSP/Components/vl53l1cb/modules/vl53l1_sigma_estimate.c **** 			(uint32_t)sigma_estimator__effective_ambient_width_ns);
  72:Drivers/BSP/Components/vl53l1cb/modules/vl53l1_sigma_estimate.c **** 
  73:Drivers/BSP/Components/vl53l1cb/modules/vl53l1_sigma_estimate.c **** 		tmp1 =  (tmp1 +
  74:Drivers/BSP/Components/vl53l1cb/modules/vl53l1_sigma_estimate.c **** 			(uint32_t)pdata->peak_signal_count_rate_mcps/2) /
  75:Drivers/BSP/Components/vl53l1cb/modules/vl53l1_sigma_estimate.c **** 			(uint32_t)pdata->peak_signal_count_rate_mcps;
  76:Drivers/BSP/Components/vl53l1cb/modules/vl53l1_sigma_estimate.c **** 
  77:Drivers/BSP/Components/vl53l1cb/modules/vl53l1_sigma_estimate.c **** 
  78:Drivers/BSP/Components/vl53l1cb/modules/vl53l1_sigma_estimate.c **** 
  79:Drivers/BSP/Components/vl53l1cb/modules/vl53l1_sigma_estimate.c **** 		sigma_est__rtn_array =
  80:Drivers/BSP/Components/vl53l1cb/modules/vl53l1_sigma_estimate.c **** 			VL53L1_f_043(tmp0, tmp1);
  81:Drivers/BSP/Components/vl53l1cb/modules/vl53l1_sigma_estimate.c **** 
  82:Drivers/BSP/Components/vl53l1cb/modules/vl53l1_sigma_estimate.c **** 
  83:Drivers/BSP/Components/vl53l1cb/modules/vl53l1_sigma_estimate.c **** 
  84:Drivers/BSP/Components/vl53l1cb/modules/vl53l1_sigma_estimate.c **** 		sigma_est__rtn_array =
  85:Drivers/BSP/Components/vl53l1cb/modules/vl53l1_sigma_estimate.c **** 			((VL53L1_SPEED_OF_LIGHT_IN_AIR + 1000) / 2000) *
ARM GAS  C:\Temp\ccKqr3fi.s 			page 3


  86:Drivers/BSP/Components/vl53l1cb/modules/vl53l1_sigma_estimate.c **** 			sigma_est__rtn_array;
  87:Drivers/BSP/Components/vl53l1cb/modules/vl53l1_sigma_estimate.c **** 
  88:Drivers/BSP/Components/vl53l1cb/modules/vl53l1_sigma_estimate.c **** 
  89:Drivers/BSP/Components/vl53l1cb/modules/vl53l1_sigma_estimate.c **** 
  90:Drivers/BSP/Components/vl53l1cb/modules/vl53l1_sigma_estimate.c **** 		tmp2 =
  91:Drivers/BSP/Components/vl53l1cb/modules/vl53l1_sigma_estimate.c **** 			VL53L1_isqrt(12 * (uint32_t)pdata->VL53L1_p_013);
  92:Drivers/BSP/Components/vl53l1cb/modules/vl53l1_sigma_estimate.c **** 
  93:Drivers/BSP/Components/vl53l1cb/modules/vl53l1_sigma_estimate.c **** 		if (tmp2 > 0) {
  94:Drivers/BSP/Components/vl53l1cb/modules/vl53l1_sigma_estimate.c **** 
  95:Drivers/BSP/Components/vl53l1cb/modules/vl53l1_sigma_estimate.c **** 			sigma_est__rtn_array =
  96:Drivers/BSP/Components/vl53l1cb/modules/vl53l1_sigma_estimate.c **** 					(sigma_est__rtn_array + tmp2/2) / tmp2;
  97:Drivers/BSP/Components/vl53l1cb/modules/vl53l1_sigma_estimate.c **** 
  98:Drivers/BSP/Components/vl53l1cb/modules/vl53l1_sigma_estimate.c **** 
  99:Drivers/BSP/Components/vl53l1cb/modules/vl53l1_sigma_estimate.c **** 
 100:Drivers/BSP/Components/vl53l1cb/modules/vl53l1_sigma_estimate.c **** 			sigma_est__ref_array =
 101:Drivers/BSP/Components/vl53l1cb/modules/vl53l1_sigma_estimate.c **** 				100 * (uint32_t)sigma_estimator__sigma_ref_mm;
 102:Drivers/BSP/Components/vl53l1cb/modules/vl53l1_sigma_estimate.c **** 
 103:Drivers/BSP/Components/vl53l1cb/modules/vl53l1_sigma_estimate.c **** 			sigma_est =
 104:Drivers/BSP/Components/vl53l1cb/modules/vl53l1_sigma_estimate.c **** 				(uint16_t)VL53L1_f_043(
 105:Drivers/BSP/Components/vl53l1cb/modules/vl53l1_sigma_estimate.c **** 						(uint32_t)sigma_est__ref_array,
 106:Drivers/BSP/Components/vl53l1cb/modules/vl53l1_sigma_estimate.c **** 						sigma_est__rtn_array);
 107:Drivers/BSP/Components/vl53l1cb/modules/vl53l1_sigma_estimate.c **** 
 108:Drivers/BSP/Components/vl53l1cb/modules/vl53l1_sigma_estimate.c **** 		} else {
 109:Drivers/BSP/Components/vl53l1cb/modules/vl53l1_sigma_estimate.c **** 			sigma_est = VL53L1_D_002;
 110:Drivers/BSP/Components/vl53l1cb/modules/vl53l1_sigma_estimate.c **** 		}
 111:Drivers/BSP/Components/vl53l1cb/modules/vl53l1_sigma_estimate.c **** 
 112:Drivers/BSP/Components/vl53l1cb/modules/vl53l1_sigma_estimate.c **** 	}
 113:Drivers/BSP/Components/vl53l1cb/modules/vl53l1_sigma_estimate.c **** 
 114:Drivers/BSP/Components/vl53l1cb/modules/vl53l1_sigma_estimate.c **** 	pdata->VL53L1_p_005  = sigma_est;
 115:Drivers/BSP/Components/vl53l1cb/modules/vl53l1_sigma_estimate.c **** 
 116:Drivers/BSP/Components/vl53l1cb/modules/vl53l1_sigma_estimate.c **** 	LOG_FUNCTION_END(0);
 117:Drivers/BSP/Components/vl53l1cb/modules/vl53l1_sigma_estimate.c **** 
 118:Drivers/BSP/Components/vl53l1cb/modules/vl53l1_sigma_estimate.c **** 	return sigma_est;
 119:Drivers/BSP/Components/vl53l1cb/modules/vl53l1_sigma_estimate.c **** 
 120:Drivers/BSP/Components/vl53l1cb/modules/vl53l1_sigma_estimate.c **** }
 121:Drivers/BSP/Components/vl53l1cb/modules/vl53l1_sigma_estimate.c **** 
 122:Drivers/BSP/Components/vl53l1cb/modules/vl53l1_sigma_estimate.c **** 
 123:Drivers/BSP/Components/vl53l1cb/modules/vl53l1_sigma_estimate.c **** uint16_t VL53L1_f_044(
 124:Drivers/BSP/Components/vl53l1cb/modules/vl53l1_sigma_estimate.c **** 	uint8_t	 sigma_estimator__effective_pulse_width_ns,
 125:Drivers/BSP/Components/vl53l1cb/modules/vl53l1_sigma_estimate.c **** 	uint8_t  sigma_estimator__effective_ambient_width_ns,
 126:Drivers/BSP/Components/vl53l1cb/modules/vl53l1_sigma_estimate.c **** 	uint8_t	 sigma_estimator__sigma_ref_mm,
 127:Drivers/BSP/Components/vl53l1cb/modules/vl53l1_sigma_estimate.c **** 	VL53L1_range_data_t *pdata)
 128:Drivers/BSP/Components/vl53l1cb/modules/vl53l1_sigma_estimate.c **** {
  31              		.loc 1 128 1 view -0
  32              		.cfi_startproc
  33              		@ args = 0, pretend = 0, frame = 0
  34              		@ frame_needed = 0, uses_anonymous_args = 0
  35              		.loc 1 128 1 is_stmt 0 view .LVU1
  36 0000 F8B5     		push	{r3, r4, r5, r6, r7, lr}
  37              		.cfi_def_cfa_offset 24
  38              		.cfi_offset 3, -24
  39              		.cfi_offset 4, -20
  40              		.cfi_offset 5, -16
  41              		.cfi_offset 6, -12
  42              		.cfi_offset 7, -8
  43              		.cfi_offset 14, -4
  44 0002 1646     		mov	r6, r2
ARM GAS  C:\Temp\ccKqr3fi.s 			page 4


  45 0004 1D46     		mov	r5, r3
 129:Drivers/BSP/Components/vl53l1cb/modules/vl53l1_sigma_estimate.c **** 
 130:Drivers/BSP/Components/vl53l1cb/modules/vl53l1_sigma_estimate.c **** 
 131:Drivers/BSP/Components/vl53l1cb/modules/vl53l1_sigma_estimate.c **** 	uint16_t    sigma_est  = VL53L1_D_002;
  46              		.loc 1 131 2 is_stmt 1 view .LVU2
  47              	.LVL1:
 132:Drivers/BSP/Components/vl53l1cb/modules/vl53l1_sigma_estimate.c **** 
 133:Drivers/BSP/Components/vl53l1cb/modules/vl53l1_sigma_estimate.c **** 	uint32_t    eqn7 = 0;
  48              		.loc 1 133 2 view .LVU3
 134:Drivers/BSP/Components/vl53l1cb/modules/vl53l1_sigma_estimate.c **** 	uint32_t    sigma_est__ref_sq  = 0;
  49              		.loc 1 134 2 view .LVU4
 135:Drivers/BSP/Components/vl53l1cb/modules/vl53l1_sigma_estimate.c **** 	uint32_t    sigma_est__rtn_sq  = 0;
  50              		.loc 1 135 2 view .LVU5
 136:Drivers/BSP/Components/vl53l1cb/modules/vl53l1_sigma_estimate.c **** 
 137:Drivers/BSP/Components/vl53l1cb/modules/vl53l1_sigma_estimate.c **** 	uint64_t    tmp0 = 0;
  51              		.loc 1 137 2 view .LVU6
 138:Drivers/BSP/Components/vl53l1cb/modules/vl53l1_sigma_estimate.c **** 	uint64_t    tmp1 = 0;
  52              		.loc 1 138 2 view .LVU7
 139:Drivers/BSP/Components/vl53l1cb/modules/vl53l1_sigma_estimate.c **** 
 140:Drivers/BSP/Components/vl53l1cb/modules/vl53l1_sigma_estimate.c **** 	LOG_FUNCTION_START("");
  53              		.loc 1 140 24 view .LVU8
 141:Drivers/BSP/Components/vl53l1cb/modules/vl53l1_sigma_estimate.c **** 
 142:Drivers/BSP/Components/vl53l1cb/modules/vl53l1_sigma_estimate.c **** 	if (pdata->peak_signal_count_rate_mcps > 0 &&
  54              		.loc 1 142 2 view .LVU9
  55              		.loc 1 142 11 is_stmt 0 view .LVU10
  56 0006 1A8E     		ldrh	r2, [r3, #48]
  57              	.LVL2:
  58              		.loc 1 142 5 view .LVU11
  59 0008 7AB3     		cbz	r2, .L3
 143:Drivers/BSP/Components/vl53l1cb/modules/vl53l1_sigma_estimate.c **** 		pdata->VL53L1_p_013         > 0) {
  60              		.loc 1 143 8 discriminator 1 view .LVU12
  61 000a DB6A     		ldr	r3, [r3, #44]
  62              	.LVL3:
 142:Drivers/BSP/Components/vl53l1cb/modules/vl53l1_sigma_estimate.c **** 		pdata->VL53L1_p_013         > 0) {
  63              		.loc 1 142 45 discriminator 1 view .LVU13
  64 000c 002B     		cmp	r3, #0
  65 000e 2FDD     		ble	.L4
 144:Drivers/BSP/Components/vl53l1cb/modules/vl53l1_sigma_estimate.c **** 
 145:Drivers/BSP/Components/vl53l1cb/modules/vl53l1_sigma_estimate.c **** 
 146:Drivers/BSP/Components/vl53l1cb/modules/vl53l1_sigma_estimate.c **** 
 147:Drivers/BSP/Components/vl53l1cb/modules/vl53l1_sigma_estimate.c **** 		eqn7 =  4573 * 4573;
  66              		.loc 1 147 3 is_stmt 1 view .LVU14
  67              	.LVL4:
 148:Drivers/BSP/Components/vl53l1cb/modules/vl53l1_sigma_estimate.c **** 		eqn7 =  eqn7 / (3 * (uint32_t)pdata->VL53L1_p_013);
  68              		.loc 1 148 3 view .LVU15
  69              		.loc 1 148 21 is_stmt 0 view .LVU16
  70 0010 03EB4303 		add	r3, r3, r3, lsl #1
  71              		.loc 1 148 8 view .LVU17
  72 0014 1A4F     		ldr	r7, .L6+8
  73 0016 B7FBF3F7 		udiv	r7, r7, r3
  74              	.LVL5:
 149:Drivers/BSP/Components/vl53l1cb/modules/vl53l1_sigma_estimate.c **** 
 150:Drivers/BSP/Components/vl53l1cb/modules/vl53l1_sigma_estimate.c **** 
 151:Drivers/BSP/Components/vl53l1cb/modules/vl53l1_sigma_estimate.c **** 
 152:Drivers/BSP/Components/vl53l1cb/modules/vl53l1_sigma_estimate.c **** 		tmp0 = ((uint64_t)sigma_estimator__effective_pulse_width_ns)
  75              		.loc 1 152 3 is_stmt 1 view .LVU18
  76              		.loc 1 152 8 is_stmt 0 view .LVU19
ARM GAS  C:\Temp\ccKqr3fi.s 			page 5


  77 001a 0402     		lsls	r4, r0, #8
  78              	.LVL6:
 153:Drivers/BSP/Components/vl53l1cb/modules/vl53l1_sigma_estimate.c **** 				<< 8;
 154:Drivers/BSP/Components/vl53l1cb/modules/vl53l1_sigma_estimate.c **** 
 155:Drivers/BSP/Components/vl53l1cb/modules/vl53l1_sigma_estimate.c **** 
 156:Drivers/BSP/Components/vl53l1cb/modules/vl53l1_sigma_estimate.c **** 
 157:Drivers/BSP/Components/vl53l1cb/modules/vl53l1_sigma_estimate.c **** 		tmp1 = ((uint64_t)pdata->ambient_count_rate_mcps *
  79              		.loc 1 157 3 is_stmt 1 view .LVU20
  80              		.loc 1 157 26 is_stmt 0 view .LVU21
  81 001c AB8E     		ldrh	r3, [r5, #52]
  82              		.loc 1 157 52 view .LVU22
  83 001e 03FB01F0 		mul	r0, r3, r1
  84              	.LVL7:
 158:Drivers/BSP/Components/vl53l1cb/modules/vl53l1_sigma_estimate.c **** 			(uint64_t)sigma_estimator__effective_ambient_width_ns)
 159:Drivers/BSP/Components/vl53l1cb/modules/vl53l1_sigma_estimate.c **** 					<< 8;
 160:Drivers/BSP/Components/vl53l1cb/modules/vl53l1_sigma_estimate.c **** 
 161:Drivers/BSP/Components/vl53l1cb/modules/vl53l1_sigma_estimate.c **** 		tmp1 = do_division_u(tmp1,
  85              		.loc 1 161 3 is_stmt 1 view .LVU23
  86              		.loc 1 161 8 is_stmt 0 view .LVU24
  87 0022 0023     		movs	r3, #0
  88 0024 0002     		lsls	r0, r0, #8
  89              	.LVL8:
  90              		.loc 1 161 8 view .LVU25
  91 0026 1946     		mov	r1, r3
  92              	.LVL9:
  93              		.loc 1 161 8 view .LVU26
  94 0028 FFF7FEFF 		bl	__aeabi_uldivmod
  95              	.LVL10:
  96              		.loc 1 161 8 view .LVU27
  97 002c 0346     		mov	r3, r0
  98              	.LVL11:
 162:Drivers/BSP/Components/vl53l1cb/modules/vl53l1_sigma_estimate.c **** 			(uint64_t)pdata->peak_signal_count_rate_mcps);
 163:Drivers/BSP/Components/vl53l1cb/modules/vl53l1_sigma_estimate.c **** 
 164:Drivers/BSP/Components/vl53l1cb/modules/vl53l1_sigma_estimate.c **** 
 165:Drivers/BSP/Components/vl53l1cb/modules/vl53l1_sigma_estimate.c **** 
 166:Drivers/BSP/Components/vl53l1cb/modules/vl53l1_sigma_estimate.c **** 		tmp1 = 16 * (uint64_t)eqn7 * (tmp0 * tmp0 + tmp1 * tmp1);
  99              		.loc 1 166 3 is_stmt 1 view .LVU28
 100              		.loc 1 166 38 is_stmt 0 view .LVU29
 101 002e A4FB0442 		umull	r4, r2, r4, r4
 102              		.loc 1 166 52 view .LVU30
 103 0032 01FB00F0 		mul	r0, r1, r0
 104              	.LVL12:
 105              		.loc 1 166 52 view .LVU31
 106 0036 A3FB0332 		umull	r3, r2, r3, r3
 107              	.LVL13:
 108              		.loc 1 166 45 view .LVU32
 109 003a E418     		adds	r4, r4, r3
 110 003c 42EB4003 		adc	r3, r2, r0, lsl #1
 111              		.loc 1 166 30 view .LVU33
 112 0040 A7FB0441 		umull	r4, r1, r7, r4
 113 0044 07FB0311 		mla	r1, r7, r3, r1
 114              		.loc 1 166 8 view .LVU34
 115 0048 0901     		lsls	r1, r1, #4
 116              	.LVL14:
 167:Drivers/BSP/Components/vl53l1cb/modules/vl53l1_sigma_estimate.c **** 		tmp1 = do_division_u(tmp1, (15625 * 15625));
 117              		.loc 1 167 3 is_stmt 1 view .LVU35
 118              		.loc 1 167 8 is_stmt 0 view .LVU36
ARM GAS  C:\Temp\ccKqr3fi.s 			page 6


 119 004a 0BA3     		adr	r3, .L6
 120 004c D3E90023 		ldrd	r2, [r3]
 121 0050 2001     		lsls	r0, r4, #4
 122 0052 41EA1471 		orr	r1, r1, r4, lsr #28
 123              	.LVL15:
 124              		.loc 1 167 8 view .LVU37
 125 0056 FFF7FEFF 		bl	__aeabi_uldivmod
 126              	.LVL16:
 168:Drivers/BSP/Components/vl53l1cb/modules/vl53l1_sigma_estimate.c **** 		sigma_est__rtn_sq = (uint32_t)tmp1;
 127              		.loc 1 168 3 is_stmt 1 view .LVU38
 169:Drivers/BSP/Components/vl53l1cb/modules/vl53l1_sigma_estimate.c **** 
 170:Drivers/BSP/Components/vl53l1cb/modules/vl53l1_sigma_estimate.c **** 
 171:Drivers/BSP/Components/vl53l1cb/modules/vl53l1_sigma_estimate.c **** 
 172:Drivers/BSP/Components/vl53l1cb/modules/vl53l1_sigma_estimate.c **** 		sigma_est__ref_sq = ((uint32_t)sigma_estimator__sigma_ref_mm)
 128              		.loc 1 172 3 view .LVU39
 129              		.loc 1 172 21 is_stmt 0 view .LVU40
 130 005a B600     		lsls	r6, r6, #2
 131              	.LVL17:
 173:Drivers/BSP/Components/vl53l1cb/modules/vl53l1_sigma_estimate.c **** 				<< 2;
 174:Drivers/BSP/Components/vl53l1cb/modules/vl53l1_sigma_estimate.c **** 
 175:Drivers/BSP/Components/vl53l1cb/modules/vl53l1_sigma_estimate.c **** 		sigma_est__ref_sq = sigma_est__ref_sq * sigma_est__ref_sq;
 132              		.loc 1 175 3 is_stmt 1 view .LVU41
 176:Drivers/BSP/Components/vl53l1cb/modules/vl53l1_sigma_estimate.c **** 
 177:Drivers/BSP/Components/vl53l1cb/modules/vl53l1_sigma_estimate.c **** 
 178:Drivers/BSP/Components/vl53l1cb/modules/vl53l1_sigma_estimate.c **** 
 179:Drivers/BSP/Components/vl53l1cb/modules/vl53l1_sigma_estimate.c **** 		sigma_est = (uint16_t)VL53L1_isqrt(sigma_est__ref_sq +
 133              		.loc 1 179 3 view .LVU42
 134              		.loc 1 179 25 is_stmt 0 view .LVU43
 135 005c 06FB0600 		mla	r0, r6, r6, r0
 136              	.LVL18:
 137              		.loc 1 179 25 view .LVU44
 138 0060 FFF7FEFF 		bl	VL53L1_isqrt
 139              	.LVL19:
 140              		.loc 1 179 13 view .LVU45
 141 0064 80B2     		uxth	r0, r0
 142              	.LVL20:
 143              	.L2:
 180:Drivers/BSP/Components/vl53l1cb/modules/vl53l1_sigma_estimate.c **** 				sigma_est__rtn_sq);
 181:Drivers/BSP/Components/vl53l1cb/modules/vl53l1_sigma_estimate.c **** 
 182:Drivers/BSP/Components/vl53l1cb/modules/vl53l1_sigma_estimate.c **** 	}
 183:Drivers/BSP/Components/vl53l1cb/modules/vl53l1_sigma_estimate.c **** 
 184:Drivers/BSP/Components/vl53l1cb/modules/vl53l1_sigma_estimate.c **** 	pdata->VL53L1_p_005  = sigma_est;
 144              		.loc 1 184 2 is_stmt 1 view .LVU46
 145              		.loc 1 184 23 is_stmt 0 view .LVU47
 146 0066 A887     		strh	r0, [r5, #60]	@ movhi
 185:Drivers/BSP/Components/vl53l1cb/modules/vl53l1_sigma_estimate.c **** 
 186:Drivers/BSP/Components/vl53l1cb/modules/vl53l1_sigma_estimate.c **** 	LOG_FUNCTION_END(0);
 147              		.loc 1 186 21 is_stmt 1 view .LVU48
 187:Drivers/BSP/Components/vl53l1cb/modules/vl53l1_sigma_estimate.c **** 
 188:Drivers/BSP/Components/vl53l1cb/modules/vl53l1_sigma_estimate.c **** 	return sigma_est;
 148              		.loc 1 188 2 view .LVU49
 189:Drivers/BSP/Components/vl53l1cb/modules/vl53l1_sigma_estimate.c **** 
 190:Drivers/BSP/Components/vl53l1cb/modules/vl53l1_sigma_estimate.c **** }
 149              		.loc 1 190 1 is_stmt 0 view .LVU50
 150 0068 F8BD     		pop	{r3, r4, r5, r6, r7, pc}
 151              	.LVL21:
 152              	.L3:
ARM GAS  C:\Temp\ccKqr3fi.s 			page 7


 131:Drivers/BSP/Components/vl53l1cb/modules/vl53l1_sigma_estimate.c **** 
 153              		.loc 1 131 14 view .LVU51
 154 006a 4FF6FF70 		movw	r0, #65535
 155              	.LVL22:
 131:Drivers/BSP/Components/vl53l1cb/modules/vl53l1_sigma_estimate.c **** 
 156              		.loc 1 131 14 view .LVU52
 157 006e FAE7     		b	.L2
 158              	.LVL23:
 159              	.L4:
 131:Drivers/BSP/Components/vl53l1cb/modules/vl53l1_sigma_estimate.c **** 
 160              		.loc 1 131 14 view .LVU53
 161 0070 4FF6FF70 		movw	r0, #65535
 162              	.LVL24:
 131:Drivers/BSP/Components/vl53l1cb/modules/vl53l1_sigma_estimate.c **** 
 163              		.loc 1 131 14 view .LVU54
 164 0074 F7E7     		b	.L2
 165              	.L7:
 166 0076 00BF     		.align	3
 167              	.L6:
 168 0078 514A8D0E 		.word	244140625
 169 007c 00000000 		.word	0
 170 0080 C9183F01 		.word	20912329
 171              		.cfi_endproc
 172              	.LFE4:
 174              		.section	.text.VL53L1_f_045,"ax",%progbits
 175              		.align	1
 176              		.global	VL53L1_f_045
 177              		.syntax unified
 178              		.thumb
 179              		.thumb_func
 181              	VL53L1_f_045:
 182              	.LVL25:
 183              	.LFB5:
 191:Drivers/BSP/Components/vl53l1cb/modules/vl53l1_sigma_estimate.c **** 
 192:Drivers/BSP/Components/vl53l1cb/modules/vl53l1_sigma_estimate.c **** 
 193:Drivers/BSP/Components/vl53l1cb/modules/vl53l1_sigma_estimate.c **** 
 194:Drivers/BSP/Components/vl53l1cb/modules/vl53l1_sigma_estimate.c **** VL53L1_Error VL53L1_f_045(
 195:Drivers/BSP/Components/vl53l1cb/modules/vl53l1_sigma_estimate.c **** 	uint8_t	 sigma_estimator__sigma_ref_mm,
 196:Drivers/BSP/Components/vl53l1cb/modules/vl53l1_sigma_estimate.c **** 	uint32_t VL53L1_p_003,
 197:Drivers/BSP/Components/vl53l1cb/modules/vl53l1_sigma_estimate.c **** 	uint32_t VL53L1_p_018,
 198:Drivers/BSP/Components/vl53l1cb/modules/vl53l1_sigma_estimate.c **** 	uint32_t VL53L1_p_001,
 199:Drivers/BSP/Components/vl53l1cb/modules/vl53l1_sigma_estimate.c **** 	uint32_t a_zp,
 200:Drivers/BSP/Components/vl53l1cb/modules/vl53l1_sigma_estimate.c **** 	uint32_t c_zp,
 201:Drivers/BSP/Components/vl53l1cb/modules/vl53l1_sigma_estimate.c **** 	uint32_t bx,
 202:Drivers/BSP/Components/vl53l1cb/modules/vl53l1_sigma_estimate.c **** 	uint32_t ax_zp,
 203:Drivers/BSP/Components/vl53l1cb/modules/vl53l1_sigma_estimate.c **** 	uint32_t cx_zp,
 204:Drivers/BSP/Components/vl53l1cb/modules/vl53l1_sigma_estimate.c **** 	uint32_t VL53L1_p_004,
 205:Drivers/BSP/Components/vl53l1cb/modules/vl53l1_sigma_estimate.c **** 	uint16_t fast_osc_frequency,
 206:Drivers/BSP/Components/vl53l1cb/modules/vl53l1_sigma_estimate.c **** 	uint16_t *psigma_est)
 207:Drivers/BSP/Components/vl53l1cb/modules/vl53l1_sigma_estimate.c **** {
 184              		.loc 1 207 1 is_stmt 1 view -0
 185              		.cfi_startproc
 186              		@ args = 32, pretend = 0, frame = 24
 187              		@ frame_needed = 0, uses_anonymous_args = 0
 188              		.loc 1 207 1 is_stmt 0 view .LVU56
 189 0000 2DE9F04F 		push	{r4, r5, r6, r7, r8, r9, r10, fp, lr}
 190              		.cfi_def_cfa_offset 36
ARM GAS  C:\Temp\ccKqr3fi.s 			page 8


 191              		.cfi_offset 4, -36
 192              		.cfi_offset 5, -32
 193              		.cfi_offset 6, -28
 194              		.cfi_offset 7, -24
 195              		.cfi_offset 8, -20
 196              		.cfi_offset 9, -16
 197              		.cfi_offset 10, -12
 198              		.cfi_offset 11, -8
 199              		.cfi_offset 14, -4
 200 0004 87B0     		sub	sp, sp, #28
 201              		.cfi_def_cfa_offset 64
 202 0006 0290     		str	r0, [sp, #8]
 203 0008 9046     		mov	r8, r2
 204 000a 1E46     		mov	r6, r3
 205 000c BDF85800 		ldrh	r0, [sp, #88]
 206              	.LVL26:
 208:Drivers/BSP/Components/vl53l1cb/modules/vl53l1_sigma_estimate.c **** 
 209:Drivers/BSP/Components/vl53l1cb/modules/vl53l1_sigma_estimate.c **** 
 210:Drivers/BSP/Components/vl53l1cb/modules/vl53l1_sigma_estimate.c **** 	VL53L1_Error status = VL53L1_ERROR_DIVISION_BY_ZERO;
 207              		.loc 1 210 2 is_stmt 1 view .LVU57
 211:Drivers/BSP/Components/vl53l1cb/modules/vl53l1_sigma_estimate.c **** 	uint32_t sigma_int  = VL53L1_D_002;
 208              		.loc 1 211 2 view .LVU58
 212:Drivers/BSP/Components/vl53l1cb/modules/vl53l1_sigma_estimate.c **** 
 213:Drivers/BSP/Components/vl53l1cb/modules/vl53l1_sigma_estimate.c **** 	uint32_t pll_period_mm  = 0;
 209              		.loc 1 213 2 view .LVU59
 214:Drivers/BSP/Components/vl53l1cb/modules/vl53l1_sigma_estimate.c **** 
 215:Drivers/BSP/Components/vl53l1cb/modules/vl53l1_sigma_estimate.c **** 	uint64_t tmp0        = 0;
 210              		.loc 1 215 2 view .LVU60
 216:Drivers/BSP/Components/vl53l1cb/modules/vl53l1_sigma_estimate.c **** 	uint64_t tmp1        = 0;
 211              		.loc 1 216 2 view .LVU61
 217:Drivers/BSP/Components/vl53l1cb/modules/vl53l1_sigma_estimate.c **** 	uint64_t b_minus_amb = 0;
 212              		.loc 1 217 2 view .LVU62
 218:Drivers/BSP/Components/vl53l1cb/modules/vl53l1_sigma_estimate.c **** 	uint64_t VL53L1_p_041   = 0;
 213              		.loc 1 218 2 view .LVU63
 219:Drivers/BSP/Components/vl53l1cb/modules/vl53l1_sigma_estimate.c **** 
 220:Drivers/BSP/Components/vl53l1cb/modules/vl53l1_sigma_estimate.c **** 	*psigma_est  = VL53L1_D_002;
 214              		.loc 1 220 2 view .LVU64
 215              		.loc 1 220 15 is_stmt 0 view .LVU65
 216 0010 4FF6FF73 		movw	r3, #65535
 217              	.LVL27:
 218              		.loc 1 220 15 view .LVU66
 219 0014 179A     		ldr	r2, [sp, #92]
 220              	.LVL28:
 221              		.loc 1 220 15 view .LVU67
 222 0016 1380     		strh	r3, [r2]	@ movhi
 221:Drivers/BSP/Components/vl53l1cb/modules/vl53l1_sigma_estimate.c **** 
 222:Drivers/BSP/Components/vl53l1cb/modules/vl53l1_sigma_estimate.c **** 
 223:Drivers/BSP/Components/vl53l1cb/modules/vl53l1_sigma_estimate.c **** 
 224:Drivers/BSP/Components/vl53l1cb/modules/vl53l1_sigma_estimate.c **** 	if (fast_osc_frequency != 0) {
 223              		.loc 1 224 2 is_stmt 1 view .LVU68
 224              		.loc 1 224 5 is_stmt 0 view .LVU69
 225 0018 0028     		cmp	r0, #0
 226 001a 00F0B580 		beq	.L16
 227 001e 0D46     		mov	r5, r1
 225:Drivers/BSP/Components/vl53l1cb/modules/vl53l1_sigma_estimate.c **** 
 226:Drivers/BSP/Components/vl53l1cb/modules/vl53l1_sigma_estimate.c **** 
 227:Drivers/BSP/Components/vl53l1cb/modules/vl53l1_sigma_estimate.c **** 
ARM GAS  C:\Temp\ccKqr3fi.s 			page 9


 228:Drivers/BSP/Components/vl53l1cb/modules/vl53l1_sigma_estimate.c **** 		pll_period_mm = VL53L1_calc_pll_period_mm(fast_osc_frequency);
 228              		.loc 1 228 3 is_stmt 1 view .LVU70
 229              		.loc 1 228 19 is_stmt 0 view .LVU71
 230 0020 FFF7FEFF 		bl	VL53L1_calc_pll_period_mm
 231              	.LVL29:
 229:Drivers/BSP/Components/vl53l1cb/modules/vl53l1_sigma_estimate.c **** 
 230:Drivers/BSP/Components/vl53l1cb/modules/vl53l1_sigma_estimate.c **** 
 231:Drivers/BSP/Components/vl53l1cb/modules/vl53l1_sigma_estimate.c **** 		pll_period_mm = (pll_period_mm + 0x02) >> 2;
 232              		.loc 1 231 3 is_stmt 1 view .LVU72
 233              		.loc 1 231 34 is_stmt 0 view .LVU73
 234 0024 841C     		adds	r4, r0, #2
 235              		.loc 1 231 17 view .LVU74
 236 0026 A408     		lsrs	r4, r4, #2
 237              	.LVL30:
 232:Drivers/BSP/Components/vl53l1cb/modules/vl53l1_sigma_estimate.c **** 
 233:Drivers/BSP/Components/vl53l1cb/modules/vl53l1_sigma_estimate.c **** 
 234:Drivers/BSP/Components/vl53l1cb/modules/vl53l1_sigma_estimate.c **** 
 235:Drivers/BSP/Components/vl53l1cb/modules/vl53l1_sigma_estimate.c **** 		if (VL53L1_p_004 > VL53L1_p_018)
 238              		.loc 1 235 3 is_stmt 1 view .LVU75
 239              		.loc 1 235 6 is_stmt 0 view .LVU76
 240 0028 159B     		ldr	r3, [sp, #84]
 241 002a 4345     		cmp	r3, r8
 242 002c 40F29D80 		bls	.L10
 236:Drivers/BSP/Components/vl53l1cb/modules/vl53l1_sigma_estimate.c **** 			b_minus_amb =  (uint64_t)VL53L1_p_004 -
 243              		.loc 1 236 4 is_stmt 1 view .LVU77
 244              		.loc 1 236 16 is_stmt 0 view .LVU78
 245 0030 B3EB0809 		subs	r9, r3, r8
 246 0034 67EB0707 		sbc	r7, r7, r7
 247              	.LVL31:
 248              	.L11:
 237:Drivers/BSP/Components/vl53l1cb/modules/vl53l1_sigma_estimate.c **** 			(uint64_t)VL53L1_p_018;
 238:Drivers/BSP/Components/vl53l1cb/modules/vl53l1_sigma_estimate.c **** 		else
 239:Drivers/BSP/Components/vl53l1cb/modules/vl53l1_sigma_estimate.c **** 			b_minus_amb =  (uint64_t)VL53L1_p_018 -
 240:Drivers/BSP/Components/vl53l1cb/modules/vl53l1_sigma_estimate.c **** 			(uint64_t)VL53L1_p_004;
 241:Drivers/BSP/Components/vl53l1cb/modules/vl53l1_sigma_estimate.c **** 
 242:Drivers/BSP/Components/vl53l1cb/modules/vl53l1_sigma_estimate.c **** 
 243:Drivers/BSP/Components/vl53l1cb/modules/vl53l1_sigma_estimate.c **** 
 244:Drivers/BSP/Components/vl53l1cb/modules/vl53l1_sigma_estimate.c **** 		if (VL53L1_p_003 > VL53L1_p_001)
 249              		.loc 1 244 3 is_stmt 1 view .LVU79
 250              		.loc 1 244 6 is_stmt 0 view .LVU80
 251 0038 B542     		cmp	r5, r6
 252 003a 40F29C80 		bls	.L12
 245:Drivers/BSP/Components/vl53l1cb/modules/vl53l1_sigma_estimate.c **** 			VL53L1_p_041 =  (uint64_t)VL53L1_p_003 -
 253              		.loc 1 245 4 is_stmt 1 view .LVU81
 254              		.loc 1 245 17 is_stmt 0 view .LVU82
 255 003e AE1B     		subs	r6, r5, r6
 256              	.LVL32:
 257              		.loc 1 245 17 view .LVU83
 258 0040 63EB0303 		sbc	r3, r3, r3
 259 0044 0193     		str	r3, [sp, #4]
 260              	.LVL33:
 261              	.L13:
 246:Drivers/BSP/Components/vl53l1cb/modules/vl53l1_sigma_estimate.c **** 			(uint64_t)VL53L1_p_001;
 247:Drivers/BSP/Components/vl53l1cb/modules/vl53l1_sigma_estimate.c **** 		else
 248:Drivers/BSP/Components/vl53l1cb/modules/vl53l1_sigma_estimate.c **** 			VL53L1_p_041 =  (uint64_t)VL53L1_p_001 -
 249:Drivers/BSP/Components/vl53l1cb/modules/vl53l1_sigma_estimate.c **** 			(uint64_t)VL53L1_p_003;
 250:Drivers/BSP/Components/vl53l1cb/modules/vl53l1_sigma_estimate.c **** 
ARM GAS  C:\Temp\ccKqr3fi.s 			page 10


 251:Drivers/BSP/Components/vl53l1cb/modules/vl53l1_sigma_estimate.c **** 
 252:Drivers/BSP/Components/vl53l1cb/modules/vl53l1_sigma_estimate.c **** 
 253:Drivers/BSP/Components/vl53l1cb/modules/vl53l1_sigma_estimate.c **** 
 254:Drivers/BSP/Components/vl53l1cb/modules/vl53l1_sigma_estimate.c **** 
 255:Drivers/BSP/Components/vl53l1cb/modules/vl53l1_sigma_estimate.c **** 		if (b_minus_amb != 0) {
 262              		.loc 1 255 3 is_stmt 1 view .LVU84
 263              		.loc 1 255 6 is_stmt 0 view .LVU85
 264 0046 59EA0703 		orrs	r3, r9, r7
 265 004a 00F0A080 		beq	.L17
 256:Drivers/BSP/Components/vl53l1cb/modules/vl53l1_sigma_estimate.c **** 
 257:Drivers/BSP/Components/vl53l1cb/modules/vl53l1_sigma_estimate.c **** 
 258:Drivers/BSP/Components/vl53l1cb/modules/vl53l1_sigma_estimate.c **** 
 259:Drivers/BSP/Components/vl53l1cb/modules/vl53l1_sigma_estimate.c **** 			tmp0 = (uint64_t)pll_period_mm *
 266              		.loc 1 259 4 is_stmt 1 view .LVU86
 267              		.loc 1 259 11 is_stmt 0 view .LVU87
 268 004e 4FF0000A 		mov	r10, #0
 269              		.loc 1 259 9 view .LVU88
 270 0052 A4FB0442 		umull	r4, r2, r4, r4
 271              	.LVL34:
 260:Drivers/BSP/Components/vl53l1cb/modules/vl53l1_sigma_estimate.c **** 					(uint64_t)pll_period_mm;
 261:Drivers/BSP/Components/vl53l1cb/modules/vl53l1_sigma_estimate.c **** 			tmp0 = tmp0 * ((uint64_t)c_zp +
 272              		.loc 1 261 4 is_stmt 1 view .LVU89
 273              		.loc 1 261 34 is_stmt 0 view .LVU90
 274 0056 119B     		ldr	r3, [sp, #68]
 275 0058 1499     		ldr	r1, [sp, #80]
 276 005a 5818     		adds	r0, r3, r1
 277              	.LVL35:
 278              		.loc 1 261 34 view .LVU91
 279 005c 4AEB0A03 		adc	r3, r10, r10
 262:Drivers/BSP/Components/vl53l1cb/modules/vl53l1_sigma_estimate.c **** 					(uint64_t)cx_zp + (uint64_t)a_zp +
 280              		.loc 1 262 22 view .LVU92
 281 0060 1099     		ldr	r1, [sp, #64]
 282 0062 4018     		adds	r0, r0, r1
 283 0064 43F10003 		adc	r3, r3, #0
 284              		.loc 1 262 39 view .LVU93
 285 0068 1399     		ldr	r1, [sp, #76]
 286 006a 4018     		adds	r0, r0, r1
 287 006c 43F10003 		adc	r3, r3, #0
 261:Drivers/BSP/Components/vl53l1cb/modules/vl53l1_sigma_estimate.c **** 					(uint64_t)cx_zp + (uint64_t)a_zp +
 288              		.loc 1 261 9 view .LVU94
 289 0070 0392     		str	r2, [sp, #12]
 290 0072 00FB02F1 		mul	r1, r0, r2
 291 0076 04FB0311 		mla	r1, r4, r3, r1
 292 007a A0FB0403 		umull	r0, r3, r0, r4
 293 007e 1944     		add	r1, r1, r3
 294              	.LVL36:
 263:Drivers/BSP/Components/vl53l1cb/modules/vl53l1_sigma_estimate.c **** 					(uint64_t)ax_zp);
 264:Drivers/BSP/Components/vl53l1cb/modules/vl53l1_sigma_estimate.c **** 			tmp0 = do_division_u((tmp0 + (b_minus_amb >> 1)),
 295              		.loc 1 264 4 is_stmt 1 view .LVU95
 296              		.loc 1 264 11 is_stmt 0 view .LVU96
 297 0080 4FEA5905 		lsr	r5, r9, #1
 298              	.LVL37:
 299              		.loc 1 264 11 view .LVU97
 300 0084 45EAC775 		orr	r5, r5, r7, lsl #31
 301 0088 4FEA570B 		lsr	fp, r7, #1
 302 008c 2818     		adds	r0, r5, r0
 303              	.LVL38:
ARM GAS  C:\Temp\ccKqr3fi.s 			page 11


 304              		.loc 1 264 9 view .LVU98
 305 008e 4A46     		mov	r2, r9
 306 0090 3B46     		mov	r3, r7
 307 0092 41EB5701 		adc	r1, r1, r7, lsr #1
 308              	.LVL39:
 309              		.loc 1 264 9 view .LVU99
 310 0096 FFF7FEFF 		bl	__aeabi_uldivmod
 311              	.LVL40:
 312 009a 0591     		str	r1, [sp, #20]
 313 009c 0490     		str	r0, [sp, #16]
 314              	.LVL41:
 265:Drivers/BSP/Components/vl53l1cb/modules/vl53l1_sigma_estimate.c **** 				b_minus_amb);
 266:Drivers/BSP/Components/vl53l1cb/modules/vl53l1_sigma_estimate.c **** 
 267:Drivers/BSP/Components/vl53l1cb/modules/vl53l1_sigma_estimate.c **** 
 268:Drivers/BSP/Components/vl53l1cb/modules/vl53l1_sigma_estimate.c **** 
 269:Drivers/BSP/Components/vl53l1cb/modules/vl53l1_sigma_estimate.c **** 			tmp1 = (uint64_t)pll_period_mm *
 315              		.loc 1 269 4 is_stmt 1 view .LVU100
 316              		.loc 1 269 9 is_stmt 0 view .LVU101
 317 009e 039A     		ldr	r2, [sp, #12]
 318 00a0 06FB02F1 		mul	r1, r6, r2
 319              	.LVL42:
 320              		.loc 1 269 9 view .LVU102
 321 00a4 019B     		ldr	r3, [sp, #4]
 322 00a6 04FB0311 		mla	r1, r4, r3, r1
 323 00aa A6FB0443 		umull	r4, r3, r6, r4
 324 00ae 1944     		add	r1, r1, r3
 325              	.LVL43:
 270:Drivers/BSP/Components/vl53l1cb/modules/vl53l1_sigma_estimate.c **** 					(uint64_t)pll_period_mm * VL53L1_p_041;
 271:Drivers/BSP/Components/vl53l1cb/modules/vl53l1_sigma_estimate.c **** 			tmp1 = do_division_u((tmp1 + (b_minus_amb >> 1)),
 326              		.loc 1 271 4 is_stmt 1 view .LVU103
 327              		.loc 1 271 11 is_stmt 0 view .LVU104
 328 00b0 2819     		adds	r0, r5, r4
 329              	.LVL44:
 330              		.loc 1 271 9 view .LVU105
 331 00b2 4A46     		mov	r2, r9
 332 00b4 3B46     		mov	r3, r7
 333 00b6 41EB0B01 		adc	r1, r1, fp
 334              	.LVL45:
 335              		.loc 1 271 9 view .LVU106
 336 00ba FFF7FEFF 		bl	__aeabi_uldivmod
 337              	.LVL46:
 338 00be 0346     		mov	r3, r0
 339              	.LVL47:
 272:Drivers/BSP/Components/vl53l1cb/modules/vl53l1_sigma_estimate.c **** 				b_minus_amb);
 273:Drivers/BSP/Components/vl53l1cb/modules/vl53l1_sigma_estimate.c **** 
 274:Drivers/BSP/Components/vl53l1cb/modules/vl53l1_sigma_estimate.c **** 			tmp1 =  tmp1 * VL53L1_p_041;
 340              		.loc 1 274 4 is_stmt 1 view .LVU107
 341              		.loc 1 274 9 is_stmt 0 view .LVU108
 342 00c0 06FB01F1 		mul	r1, r6, r1
 343              	.LVL48:
 344              		.loc 1 274 9 view .LVU109
 345 00c4 019A     		ldr	r2, [sp, #4]
 346 00c6 02FB0011 		mla	r1, r2, r0, r1
 347 00ca A6FB0363 		umull	r6, r3, r6, r3
 348              	.LVL49:
 349              		.loc 1 274 9 view .LVU110
 350 00ce 1944     		add	r1, r1, r3
ARM GAS  C:\Temp\ccKqr3fi.s 			page 12


 351              	.LVL50:
 275:Drivers/BSP/Components/vl53l1cb/modules/vl53l1_sigma_estimate.c **** 			tmp1 = do_division_u((tmp1 + (b_minus_amb >> 1)),
 352              		.loc 1 275 4 is_stmt 1 view .LVU111
 353              		.loc 1 275 11 is_stmt 0 view .LVU112
 354 00d0 A819     		adds	r0, r5, r6
 355              		.loc 1 275 9 view .LVU113
 356 00d2 4A46     		mov	r2, r9
 357 00d4 3B46     		mov	r3, r7
 358 00d6 41EB0B01 		adc	r1, r1, fp
 359              	.LVL51:
 360              		.loc 1 275 9 view .LVU114
 361 00da FFF7FEFF 		bl	__aeabi_uldivmod
 362              	.LVL52:
 363 00de 0246     		mov	r2, r0
 364              	.LVL53:
 276:Drivers/BSP/Components/vl53l1cb/modules/vl53l1_sigma_estimate.c **** 				b_minus_amb);
 277:Drivers/BSP/Components/vl53l1cb/modules/vl53l1_sigma_estimate.c **** 
 278:Drivers/BSP/Components/vl53l1cb/modules/vl53l1_sigma_estimate.c **** 			tmp1 =  tmp1 * ((uint64_t)VL53L1_p_018 + (uint64_t)bx +
 365              		.loc 1 278 4 is_stmt 1 view .LVU115
 366              		.loc 1 278 43 is_stmt 0 view .LVU116
 367 00e0 129B     		ldr	r3, [sp, #72]
 368 00e2 18EB0303 		adds	r3, r8, r3
 369 00e6 4AEB0A04 		adc	r4, r10, r10
 370              		.loc 1 278 58 view .LVU117
 371 00ea 159E     		ldr	r6, [sp, #84]
 372 00ec 9B19     		adds	r3, r3, r6
 373 00ee 44F10004 		adc	r4, r4, #0
 374              		.loc 1 278 9 view .LVU118
 375 00f2 03FB01F1 		mul	r1, r3, r1
 376              	.LVL54:
 377              		.loc 1 278 9 view .LVU119
 378 00f6 04FB0011 		mla	r1, r4, r0, r1
 379 00fa A3FB0232 		umull	r3, r2, r3, r2
 380 00fe 1144     		add	r1, r1, r2
 381              	.LVL55:
 279:Drivers/BSP/Components/vl53l1cb/modules/vl53l1_sigma_estimate.c **** 					(uint64_t)VL53L1_p_004);
 280:Drivers/BSP/Components/vl53l1cb/modules/vl53l1_sigma_estimate.c **** 			tmp1 = do_division_u((tmp1 + (b_minus_amb >> 1)),
 382              		.loc 1 280 4 is_stmt 1 view .LVU120
 383              		.loc 1 280 11 is_stmt 0 view .LVU121
 384 0100 E818     		adds	r0, r5, r3
 385              		.loc 1 280 9 view .LVU122
 386 0102 4A46     		mov	r2, r9
 387 0104 3B46     		mov	r3, r7
 388              	.LVL56:
 389              		.loc 1 280 9 view .LVU123
 390 0106 41EB0B01 		adc	r1, r1, fp
 391 010a FFF7FEFF 		bl	__aeabi_uldivmod
 392              	.LVL57:
 281:Drivers/BSP/Components/vl53l1cb/modules/vl53l1_sigma_estimate.c **** 				b_minus_amb);
 282:Drivers/BSP/Components/vl53l1cb/modules/vl53l1_sigma_estimate.c **** 
 283:Drivers/BSP/Components/vl53l1cb/modules/vl53l1_sigma_estimate.c **** 
 284:Drivers/BSP/Components/vl53l1cb/modules/vl53l1_sigma_estimate.c **** 
 285:Drivers/BSP/Components/vl53l1cb/modules/vl53l1_sigma_estimate.c **** 			tmp0 = tmp0 + tmp1;
 393              		.loc 1 285 4 is_stmt 1 view .LVU124
 394              		.loc 1 285 9 is_stmt 0 view .LVU125
 395 010e 049B     		ldr	r3, [sp, #16]
 396 0110 1818     		adds	r0, r3, r0
ARM GAS  C:\Temp\ccKqr3fi.s 			page 13


 397              	.LVL58:
 398              		.loc 1 285 9 view .LVU126
 399 0112 059B     		ldr	r3, [sp, #20]
 400 0114 43EB0101 		adc	r1, r3, r1
 401              	.LVL59:
 286:Drivers/BSP/Components/vl53l1cb/modules/vl53l1_sigma_estimate.c **** 			tmp0 = do_division_u((tmp0 + (b_minus_amb >> 1)),
 402              		.loc 1 286 4 is_stmt 1 view .LVU127
 403              		.loc 1 286 11 is_stmt 0 view .LVU128
 404 0118 2818     		adds	r0, r5, r0
 405              	.LVL60:
 406              		.loc 1 286 9 view .LVU129
 407 011a 4A46     		mov	r2, r9
 408 011c 3B46     		mov	r3, r7
 409 011e 4BEB0101 		adc	r1, fp, r1
 410 0122 FFF7FEFF 		bl	__aeabi_uldivmod
 411              	.LVL61:
 287:Drivers/BSP/Components/vl53l1cb/modules/vl53l1_sigma_estimate.c **** 				b_minus_amb);
 288:Drivers/BSP/Components/vl53l1cb/modules/vl53l1_sigma_estimate.c **** 			tmp0 = (tmp0 + 0x01) >> 2;
 412              		.loc 1 288 4 is_stmt 1 view .LVU130
 413              		.loc 1 288 17 is_stmt 0 view .LVU131
 414 0126 0130     		adds	r0, r0, #1
 415              	.LVL62:
 416              		.loc 1 288 17 view .LVU132
 417 0128 41F10001 		adc	r1, r1, #0
 418              	.LVL63:
 419              		.loc 1 288 9 view .LVU133
 420 012c 8008     		lsrs	r0, r0, #2
 421              		.loc 1 288 9 view .LVU134
 422 012e 40EA8170 		orr	r0, r0, r1, lsl #30
 423 0132 8908     		lsrs	r1, r1, #2
 424              	.LVL64:
 289:Drivers/BSP/Components/vl53l1cb/modules/vl53l1_sigma_estimate.c **** 
 290:Drivers/BSP/Components/vl53l1cb/modules/vl53l1_sigma_estimate.c **** 
 291:Drivers/BSP/Components/vl53l1cb/modules/vl53l1_sigma_estimate.c **** 
 292:Drivers/BSP/Components/vl53l1cb/modules/vl53l1_sigma_estimate.c **** 			tmp1 = (uint64_t)sigma_estimator__sigma_ref_mm << 2;
 425              		.loc 1 292 4 is_stmt 1 view .LVU135
 426              		.loc 1 292 9 is_stmt 0 view .LVU136
 427 0134 029B     		ldr	r3, [sp, #8]
 428 0136 9B00     		lsls	r3, r3, #2
 429              	.LVL65:
 293:Drivers/BSP/Components/vl53l1cb/modules/vl53l1_sigma_estimate.c **** 			tmp1 = tmp1 * tmp1;
 430              		.loc 1 293 4 is_stmt 1 view .LVU137
 431              		.loc 1 293 9 is_stmt 0 view .LVU138
 432 0138 A3FB0332 		umull	r3, r2, r3, r3
 433              	.LVL66:
 294:Drivers/BSP/Components/vl53l1cb/modules/vl53l1_sigma_estimate.c **** 			tmp0 = tmp0 + tmp1;
 434              		.loc 1 294 4 is_stmt 1 view .LVU139
 435              		.loc 1 294 9 is_stmt 0 view .LVU140
 436 013c C018     		adds	r0, r0, r3
 437              	.LVL67:
 438              		.loc 1 294 9 view .LVU141
 439 013e 41F10001 		adc	r1, r1, #0
 440              	.LVL68:
 295:Drivers/BSP/Components/vl53l1cb/modules/vl53l1_sigma_estimate.c **** 
 296:Drivers/BSP/Components/vl53l1cb/modules/vl53l1_sigma_estimate.c **** 
 297:Drivers/BSP/Components/vl53l1cb/modules/vl53l1_sigma_estimate.c **** 
 298:Drivers/BSP/Components/vl53l1cb/modules/vl53l1_sigma_estimate.c **** 			if (tmp0 > 0xFFFFFFFF)
ARM GAS  C:\Temp\ccKqr3fi.s 			page 14


 441              		.loc 1 298 4 is_stmt 1 view .LVU142
 442              		.loc 1 298 7 is_stmt 0 view .LVU143
 443 0142 4FF0FF33 		mov	r3, #-1
 444              	.LVL69:
 445              		.loc 1 298 7 view .LVU144
 446 0146 8342     		cmp	r3, r0
 447 0148 7AEB0101 		sbcs	r1, r10, r1
 448              	.LVL70:
 449              		.loc 1 298 7 view .LVU145
 450 014c 00D2     		bcs	.L14
 299:Drivers/BSP/Components/vl53l1cb/modules/vl53l1_sigma_estimate.c **** 				tmp0 =  0xFFFFFFFF;
 451              		.loc 1 299 10 view .LVU146
 452 014e 1846     		mov	r0, r3
 453              	.L14:
 300:Drivers/BSP/Components/vl53l1cb/modules/vl53l1_sigma_estimate.c **** 
 301:Drivers/BSP/Components/vl53l1cb/modules/vl53l1_sigma_estimate.c **** 			sigma_int = VL53L1_isqrt((uint32_t)tmp0);
 454              		.loc 1 301 4 is_stmt 1 view .LVU147
 455              		.loc 1 301 16 is_stmt 0 view .LVU148
 456 0150 FFF7FEFF 		bl	VL53L1_isqrt
 457              	.LVL71:
 302:Drivers/BSP/Components/vl53l1cb/modules/vl53l1_sigma_estimate.c **** 
 303:Drivers/BSP/Components/vl53l1cb/modules/vl53l1_sigma_estimate.c **** 
 304:Drivers/BSP/Components/vl53l1cb/modules/vl53l1_sigma_estimate.c **** 
 305:Drivers/BSP/Components/vl53l1cb/modules/vl53l1_sigma_estimate.c **** 			if (sigma_int > VL53L1_D_002)
 458              		.loc 1 305 4 is_stmt 1 view .LVU149
 459              		.loc 1 305 7 is_stmt 0 view .LVU150
 460 0154 B0F5803F 		cmp	r0, #65536
 461 0158 12D3     		bcc	.L15
 306:Drivers/BSP/Components/vl53l1cb/modules/vl53l1_sigma_estimate.c **** 				*psigma_est =
 462              		.loc 1 306 5 is_stmt 1 view .LVU151
 463              		.loc 1 306 17 is_stmt 0 view .LVU152
 464 015a 4FF6FF73 		movw	r3, #65535
 465 015e 179A     		ldr	r2, [sp, #92]
 466 0160 1380     		strh	r3, [r2]	@ movhi
 307:Drivers/BSP/Components/vl53l1cb/modules/vl53l1_sigma_estimate.c **** 				(uint16_t)VL53L1_D_002;
 308:Drivers/BSP/Components/vl53l1cb/modules/vl53l1_sigma_estimate.c **** 			else
 309:Drivers/BSP/Components/vl53l1cb/modules/vl53l1_sigma_estimate.c **** 				*psigma_est = (uint16_t)sigma_int;
 310:Drivers/BSP/Components/vl53l1cb/modules/vl53l1_sigma_estimate.c **** 
 311:Drivers/BSP/Components/vl53l1cb/modules/vl53l1_sigma_estimate.c **** 			status = VL53L1_ERROR_NONE;
 467              		.loc 1 311 11 view .LVU153
 468 0162 0020     		movs	r0, #0
 469              	.LVL72:
 470              	.L9:
 312:Drivers/BSP/Components/vl53l1cb/modules/vl53l1_sigma_estimate.c **** 		}
 313:Drivers/BSP/Components/vl53l1cb/modules/vl53l1_sigma_estimate.c **** 
 314:Drivers/BSP/Components/vl53l1cb/modules/vl53l1_sigma_estimate.c **** 	}
 315:Drivers/BSP/Components/vl53l1cb/modules/vl53l1_sigma_estimate.c **** 
 316:Drivers/BSP/Components/vl53l1cb/modules/vl53l1_sigma_estimate.c **** 	return status;
 471              		.loc 1 316 2 is_stmt 1 view .LVU154
 317:Drivers/BSP/Components/vl53l1cb/modules/vl53l1_sigma_estimate.c **** }
 472              		.loc 1 317 1 is_stmt 0 view .LVU155
 473 0164 07B0     		add	sp, sp, #28
 474              		.cfi_remember_state
 475              		.cfi_def_cfa_offset 36
 476              		@ sp needed
 477 0166 BDE8F08F 		pop	{r4, r5, r6, r7, r8, r9, r10, fp, pc}
 478              	.LVL73:
ARM GAS  C:\Temp\ccKqr3fi.s 			page 15


 479              	.L10:
 480              		.cfi_restore_state
 239:Drivers/BSP/Components/vl53l1cb/modules/vl53l1_sigma_estimate.c **** 			(uint64_t)VL53L1_p_004;
 481              		.loc 1 239 4 is_stmt 1 view .LVU156
 239:Drivers/BSP/Components/vl53l1cb/modules/vl53l1_sigma_estimate.c **** 			(uint64_t)VL53L1_p_004;
 482              		.loc 1 239 16 is_stmt 0 view .LVU157
 483 016a 159B     		ldr	r3, [sp, #84]
 484 016c B8EB0309 		subs	r9, r8, r3
 485 0170 67EB0707 		sbc	r7, r7, r7
 486              	.LVL74:
 239:Drivers/BSP/Components/vl53l1cb/modules/vl53l1_sigma_estimate.c **** 			(uint64_t)VL53L1_p_004;
 487              		.loc 1 239 16 view .LVU158
 488 0174 60E7     		b	.L11
 489              	.L12:
 248:Drivers/BSP/Components/vl53l1cb/modules/vl53l1_sigma_estimate.c **** 			(uint64_t)VL53L1_p_003;
 490              		.loc 1 248 4 is_stmt 1 view .LVU159
 248:Drivers/BSP/Components/vl53l1cb/modules/vl53l1_sigma_estimate.c **** 			(uint64_t)VL53L1_p_003;
 491              		.loc 1 248 17 is_stmt 0 view .LVU160
 492 0176 761B     		subs	r6, r6, r5
 493              	.LVL75:
 248:Drivers/BSP/Components/vl53l1cb/modules/vl53l1_sigma_estimate.c **** 			(uint64_t)VL53L1_p_003;
 494              		.loc 1 248 17 view .LVU161
 495 0178 63EB0303 		sbc	r3, r3, r3
 496 017c 0193     		str	r3, [sp, #4]
 497              	.LVL76:
 248:Drivers/BSP/Components/vl53l1cb/modules/vl53l1_sigma_estimate.c **** 			(uint64_t)VL53L1_p_003;
 498              		.loc 1 248 17 view .LVU162
 499 017e 62E7     		b	.L13
 500              	.LVL77:
 501              	.L15:
 309:Drivers/BSP/Components/vl53l1cb/modules/vl53l1_sigma_estimate.c **** 
 502              		.loc 1 309 5 is_stmt 1 view .LVU163
 309:Drivers/BSP/Components/vl53l1cb/modules/vl53l1_sigma_estimate.c **** 
 503              		.loc 1 309 17 is_stmt 0 view .LVU164
 504 0180 179B     		ldr	r3, [sp, #92]
 505 0182 1880     		strh	r0, [r3]	@ movhi
 311:Drivers/BSP/Components/vl53l1cb/modules/vl53l1_sigma_estimate.c **** 		}
 506              		.loc 1 311 11 view .LVU165
 507 0184 0020     		movs	r0, #0
 508              	.LVL78:
 311:Drivers/BSP/Components/vl53l1cb/modules/vl53l1_sigma_estimate.c **** 		}
 509              		.loc 1 311 11 view .LVU166
 510 0186 EDE7     		b	.L9
 511              	.LVL79:
 512              	.L16:
 210:Drivers/BSP/Components/vl53l1cb/modules/vl53l1_sigma_estimate.c **** 	uint32_t sigma_int  = VL53L1_D_002;
 513              		.loc 1 210 15 view .LVU167
 514 0188 6FF00E00 		mvn	r0, #14
 515 018c EAE7     		b	.L9
 516              	.LVL80:
 517              	.L17:
 210:Drivers/BSP/Components/vl53l1cb/modules/vl53l1_sigma_estimate.c **** 	uint32_t sigma_int  = VL53L1_D_002;
 518              		.loc 1 210 15 view .LVU168
 519 018e 6FF00E00 		mvn	r0, #14
 520 0192 E7E7     		b	.L9
 521              		.cfi_endproc
 522              	.LFE5:
ARM GAS  C:\Temp\ccKqr3fi.s 			page 16


 524              		.section	.text.VL53L1_f_014,"ax",%progbits
 525              		.align	1
 526              		.global	VL53L1_f_014
 527              		.syntax unified
 528              		.thumb
 529              		.thumb_func
 531              	VL53L1_f_014:
 532              	.LVL81:
 533              	.LFB6:
 318:Drivers/BSP/Components/vl53l1cb/modules/vl53l1_sigma_estimate.c **** 
 319:Drivers/BSP/Components/vl53l1cb/modules/vl53l1_sigma_estimate.c **** 
 320:Drivers/BSP/Components/vl53l1cb/modules/vl53l1_sigma_estimate.c **** 
 321:Drivers/BSP/Components/vl53l1cb/modules/vl53l1_sigma_estimate.c **** VL53L1_Error VL53L1_f_014(
 322:Drivers/BSP/Components/vl53l1cb/modules/vl53l1_sigma_estimate.c **** 	uint8_t	 sigma_estimator__sigma_ref_mm,
 323:Drivers/BSP/Components/vl53l1cb/modules/vl53l1_sigma_estimate.c **** 	uint32_t VL53L1_p_003,
 324:Drivers/BSP/Components/vl53l1cb/modules/vl53l1_sigma_estimate.c **** 	uint32_t VL53L1_p_018,
 325:Drivers/BSP/Components/vl53l1cb/modules/vl53l1_sigma_estimate.c **** 	uint32_t VL53L1_p_001,
 326:Drivers/BSP/Components/vl53l1cb/modules/vl53l1_sigma_estimate.c **** 	uint32_t a_zp,
 327:Drivers/BSP/Components/vl53l1cb/modules/vl53l1_sigma_estimate.c **** 	uint32_t c_zp,
 328:Drivers/BSP/Components/vl53l1cb/modules/vl53l1_sigma_estimate.c **** 	uint32_t bx,
 329:Drivers/BSP/Components/vl53l1cb/modules/vl53l1_sigma_estimate.c **** 	uint32_t ax_zp,
 330:Drivers/BSP/Components/vl53l1cb/modules/vl53l1_sigma_estimate.c **** 	uint32_t cx_zp,
 331:Drivers/BSP/Components/vl53l1cb/modules/vl53l1_sigma_estimate.c **** 	uint32_t VL53L1_p_004,
 332:Drivers/BSP/Components/vl53l1cb/modules/vl53l1_sigma_estimate.c **** 	uint16_t fast_osc_frequency,
 333:Drivers/BSP/Components/vl53l1cb/modules/vl53l1_sigma_estimate.c **** 	uint16_t *psigma_est)
 334:Drivers/BSP/Components/vl53l1cb/modules/vl53l1_sigma_estimate.c **** {
 534              		.loc 1 334 1 is_stmt 1 view -0
 535              		.cfi_startproc
 536              		@ args = 32, pretend = 0, frame = 0
 537              		@ frame_needed = 0, uses_anonymous_args = 0
 538              		.loc 1 334 1 is_stmt 0 view .LVU170
 539 0000 2DE9F84F 		push	{r3, r4, r5, r6, r7, r8, r9, r10, fp, lr}
 540              		.cfi_def_cfa_offset 40
 541              		.cfi_offset 3, -40
 542              		.cfi_offset 4, -36
 543              		.cfi_offset 5, -32
 544              		.cfi_offset 6, -28
 545              		.cfi_offset 7, -24
 546              		.cfi_offset 8, -20
 547              		.cfi_offset 9, -16
 548              		.cfi_offset 10, -12
 549              		.cfi_offset 11, -8
 550              		.cfi_offset 14, -4
 551 0004 0646     		mov	r6, r0
 552 0006 1446     		mov	r4, r2
 553 0008 1D46     		mov	r5, r3
 554 000a DDF83C90 		ldr	r9, [sp, #60]
 555 000e BDF84000 		ldrh	r0, [sp, #64]
 556              	.LVL82:
 335:Drivers/BSP/Components/vl53l1cb/modules/vl53l1_sigma_estimate.c **** 
 336:Drivers/BSP/Components/vl53l1cb/modules/vl53l1_sigma_estimate.c **** 
 337:Drivers/BSP/Components/vl53l1cb/modules/vl53l1_sigma_estimate.c **** 	VL53L1_Error status = VL53L1_ERROR_DIVISION_BY_ZERO;
 557              		.loc 1 337 2 is_stmt 1 view .LVU171
 338:Drivers/BSP/Components/vl53l1cb/modules/vl53l1_sigma_estimate.c **** 	uint32_t sigma_int  = VL53L1_D_002;
 558              		.loc 1 338 2 view .LVU172
 339:Drivers/BSP/Components/vl53l1cb/modules/vl53l1_sigma_estimate.c **** 
 340:Drivers/BSP/Components/vl53l1cb/modules/vl53l1_sigma_estimate.c **** 	uint32_t pll_period_mm  = 0;
ARM GAS  C:\Temp\ccKqr3fi.s 			page 17


 559              		.loc 1 340 2 view .LVU173
 341:Drivers/BSP/Components/vl53l1cb/modules/vl53l1_sigma_estimate.c **** 
 342:Drivers/BSP/Components/vl53l1cb/modules/vl53l1_sigma_estimate.c **** 	uint64_t tmp0        = 0;
 560              		.loc 1 342 2 view .LVU174
 343:Drivers/BSP/Components/vl53l1cb/modules/vl53l1_sigma_estimate.c **** 	uint64_t tmp1        = 0;
 561              		.loc 1 343 2 view .LVU175
 344:Drivers/BSP/Components/vl53l1cb/modules/vl53l1_sigma_estimate.c **** 	uint64_t b_minus_amb = 0;
 562              		.loc 1 344 2 view .LVU176
 345:Drivers/BSP/Components/vl53l1cb/modules/vl53l1_sigma_estimate.c **** 	uint64_t VL53L1_p_041   = 0;
 563              		.loc 1 345 2 view .LVU177
 346:Drivers/BSP/Components/vl53l1cb/modules/vl53l1_sigma_estimate.c **** 
 347:Drivers/BSP/Components/vl53l1cb/modules/vl53l1_sigma_estimate.c **** 	*psigma_est  = VL53L1_D_002;
 564              		.loc 1 347 2 view .LVU178
 565              		.loc 1 347 15 is_stmt 0 view .LVU179
 566 0012 4FF6FF73 		movw	r3, #65535
 567              	.LVL83:
 568              		.loc 1 347 15 view .LVU180
 569 0016 119A     		ldr	r2, [sp, #68]
 570              	.LVL84:
 571              		.loc 1 347 15 view .LVU181
 572 0018 1380     		strh	r3, [r2]	@ movhi
 348:Drivers/BSP/Components/vl53l1cb/modules/vl53l1_sigma_estimate.c **** 
 349:Drivers/BSP/Components/vl53l1cb/modules/vl53l1_sigma_estimate.c **** 
 350:Drivers/BSP/Components/vl53l1cb/modules/vl53l1_sigma_estimate.c **** 
 351:Drivers/BSP/Components/vl53l1cb/modules/vl53l1_sigma_estimate.c **** 	if (fast_osc_frequency != 0) {
 573              		.loc 1 351 2 is_stmt 1 view .LVU182
 574              		.loc 1 351 5 is_stmt 0 view .LVU183
 575 001a 0028     		cmp	r0, #0
 576 001c 00F0EC80 		beq	.L38
 577 0020 8846     		mov	r8, r1
 352:Drivers/BSP/Components/vl53l1cb/modules/vl53l1_sigma_estimate.c **** 
 353:Drivers/BSP/Components/vl53l1cb/modules/vl53l1_sigma_estimate.c **** 
 354:Drivers/BSP/Components/vl53l1cb/modules/vl53l1_sigma_estimate.c **** 
 355:Drivers/BSP/Components/vl53l1cb/modules/vl53l1_sigma_estimate.c **** 		pll_period_mm = VL53L1_calc_pll_period_mm(fast_osc_frequency);
 578              		.loc 1 355 3 is_stmt 1 view .LVU184
 579              		.loc 1 355 19 is_stmt 0 view .LVU185
 580 0022 FFF7FEFF 		bl	VL53L1_calc_pll_period_mm
 581              	.LVL85:
 582              		.loc 1 355 19 view .LVU186
 583 0026 0746     		mov	r7, r0
 584              	.LVL86:
 356:Drivers/BSP/Components/vl53l1cb/modules/vl53l1_sigma_estimate.c **** 
 357:Drivers/BSP/Components/vl53l1cb/modules/vl53l1_sigma_estimate.c **** 
 358:Drivers/BSP/Components/vl53l1cb/modules/vl53l1_sigma_estimate.c **** 
 359:Drivers/BSP/Components/vl53l1cb/modules/vl53l1_sigma_estimate.c **** 		if (VL53L1_p_004 > VL53L1_p_018)
 585              		.loc 1 359 3 is_stmt 1 view .LVU187
 586              		.loc 1 359 6 is_stmt 0 view .LVU188
 587 0028 A145     		cmp	r9, r4
 588 002a 7DD9     		bls	.L22
 360:Drivers/BSP/Components/vl53l1cb/modules/vl53l1_sigma_estimate.c **** 			b_minus_amb =  (uint64_t)VL53L1_p_004 -
 589              		.loc 1 360 4 is_stmt 1 view .LVU189
 590              		.loc 1 360 16 is_stmt 0 view .LVU190
 591 002c B9EB040B 		subs	fp, r9, r4
 592 0030 6AEB0A0A 		sbc	r10, r10, r10
 593              	.LVL87:
 594              	.L23:
 361:Drivers/BSP/Components/vl53l1cb/modules/vl53l1_sigma_estimate.c **** 			(uint64_t)VL53L1_p_018;
ARM GAS  C:\Temp\ccKqr3fi.s 			page 18


 362:Drivers/BSP/Components/vl53l1cb/modules/vl53l1_sigma_estimate.c **** 		else
 363:Drivers/BSP/Components/vl53l1cb/modules/vl53l1_sigma_estimate.c **** 			b_minus_amb =  (uint64_t)VL53L1_p_018 -
 364:Drivers/BSP/Components/vl53l1cb/modules/vl53l1_sigma_estimate.c **** 			(uint64_t)VL53L1_p_004;
 365:Drivers/BSP/Components/vl53l1cb/modules/vl53l1_sigma_estimate.c **** 
 366:Drivers/BSP/Components/vl53l1cb/modules/vl53l1_sigma_estimate.c **** 
 367:Drivers/BSP/Components/vl53l1cb/modules/vl53l1_sigma_estimate.c **** 
 368:Drivers/BSP/Components/vl53l1cb/modules/vl53l1_sigma_estimate.c **** 		if (VL53L1_p_003 > VL53L1_p_001)
 595              		.loc 1 368 3 is_stmt 1 view .LVU191
 596              		.loc 1 368 6 is_stmt 0 view .LVU192
 597 0034 A845     		cmp	r8, r5
 598 0036 7CD9     		bls	.L24
 369:Drivers/BSP/Components/vl53l1cb/modules/vl53l1_sigma_estimate.c **** 			VL53L1_p_041 =  (uint64_t)VL53L1_p_003 -
 599              		.loc 1 369 4 is_stmt 1 view .LVU193
 600              		.loc 1 369 17 is_stmt 0 view .LVU194
 601 0038 B8EB0505 		subs	r5, r8, r5
 602              	.LVL88:
 603              		.loc 1 369 17 view .LVU195
 604 003c 63EB0303 		sbc	r3, r3, r3
 605              	.LVL89:
 606              	.L25:
 370:Drivers/BSP/Components/vl53l1cb/modules/vl53l1_sigma_estimate.c **** 			(uint64_t)VL53L1_p_001;
 371:Drivers/BSP/Components/vl53l1cb/modules/vl53l1_sigma_estimate.c **** 		else
 372:Drivers/BSP/Components/vl53l1cb/modules/vl53l1_sigma_estimate.c **** 			VL53L1_p_041 =  (uint64_t)VL53L1_p_001 -
 373:Drivers/BSP/Components/vl53l1cb/modules/vl53l1_sigma_estimate.c **** 			(uint64_t)VL53L1_p_003;
 374:Drivers/BSP/Components/vl53l1cb/modules/vl53l1_sigma_estimate.c **** 
 375:Drivers/BSP/Components/vl53l1cb/modules/vl53l1_sigma_estimate.c **** 
 376:Drivers/BSP/Components/vl53l1cb/modules/vl53l1_sigma_estimate.c **** 
 377:Drivers/BSP/Components/vl53l1cb/modules/vl53l1_sigma_estimate.c **** 		if (b_minus_amb != 0) {
 607              		.loc 1 377 3 is_stmt 1 view .LVU196
 608              		.loc 1 377 6 is_stmt 0 view .LVU197
 609 0040 5BEA0A02 		orrs	r2, fp, r10
 610 0044 00F0DB80 		beq	.L39
 378:Drivers/BSP/Components/vl53l1cb/modules/vl53l1_sigma_estimate.c **** 
 379:Drivers/BSP/Components/vl53l1cb/modules/vl53l1_sigma_estimate.c **** 
 380:Drivers/BSP/Components/vl53l1cb/modules/vl53l1_sigma_estimate.c **** 
 381:Drivers/BSP/Components/vl53l1cb/modules/vl53l1_sigma_estimate.c **** 
 382:Drivers/BSP/Components/vl53l1cb/modules/vl53l1_sigma_estimate.c **** 			tmp0 = (uint64_t)VL53L1_p_018 + (uint64_t)bx +
 611              		.loc 1 382 4 is_stmt 1 view .LVU198
 612              		.loc 1 382 11 is_stmt 0 view .LVU199
 613 0048 4FF00008 		mov	r8, #0
 614              	.LVL90:
 615              		.loc 1 382 34 view .LVU200
 616 004c 0C9A     		ldr	r2, [sp, #48]
 617 004e A418     		adds	r4, r4, r2
 618              	.LVL91:
 619              		.loc 1 382 34 view .LVU201
 620 0050 48EB0808 		adc	r8, r8, r8
 621              		.loc 1 382 9 view .LVU202
 622 0054 14EB0904 		adds	r4, r4, r9
 623 0058 48F10008 		adc	r8, r8, #0
 624              	.LVL92:
 383:Drivers/BSP/Components/vl53l1cb/modules/vl53l1_sigma_estimate.c **** 					(uint64_t)VL53L1_p_004;
 384:Drivers/BSP/Components/vl53l1cb/modules/vl53l1_sigma_estimate.c **** 			if (tmp0 > VL53L1_D_003)
 625              		.loc 1 384 4 is_stmt 1 view .LVU203
 626              		.loc 1 384 7 is_stmt 0 view .LVU204
 627 005c B4F1807F 		cmp	r4, #16777216
 628 0060 78F10002 		sbcs	r2, r8, #0
ARM GAS  C:\Temp\ccKqr3fi.s 			page 19


 629 0064 03D3     		bcc	.L26
 385:Drivers/BSP/Components/vl53l1cb/modules/vl53l1_sigma_estimate.c **** 				tmp0 = VL53L1_D_003;
 630              		.loc 1 385 10 view .LVU205
 631 0066 6FF07F44 		mvn	r4, #-16777216
 632              	.LVL93:
 633              		.loc 1 385 10 view .LVU206
 634 006a 4FF00008 		mov	r8, #0
 635              	.LVL94:
 636              	.L26:
 386:Drivers/BSP/Components/vl53l1cb/modules/vl53l1_sigma_estimate.c **** 
 387:Drivers/BSP/Components/vl53l1cb/modules/vl53l1_sigma_estimate.c **** 
 388:Drivers/BSP/Components/vl53l1cb/modules/vl53l1_sigma_estimate.c **** 
 389:Drivers/BSP/Components/vl53l1cb/modules/vl53l1_sigma_estimate.c **** 			tmp1 = (uint64_t)VL53L1_p_041 * (uint64_t)VL53L1_p_041;
 637              		.loc 1 389 4 is_stmt 1 view .LVU207
 638              		.loc 1 389 9 is_stmt 0 view .LVU208
 639 006e 05FB03F3 		mul	r3, r5, r3
 640              	.LVL95:
 641              		.loc 1 389 9 view .LVU209
 642 0072 A5FB0551 		umull	r5, r1, r5, r5
 643              		.loc 1 389 9 view .LVU210
 644 0076 01EB4301 		add	r1, r1, r3, lsl #1
 645              	.LVL96:
 390:Drivers/BSP/Components/vl53l1cb/modules/vl53l1_sigma_estimate.c **** 			tmp1 = tmp1 << 8;
 646              		.loc 1 390 4 is_stmt 1 view .LVU211
 647              		.loc 1 390 9 is_stmt 0 view .LVU212
 648 007a 0902     		lsls	r1, r1, #8
 649              	.LVL97:
 650              		.loc 1 390 9 view .LVU213
 651 007c 41EA1561 		orr	r1, r1, r5, lsr #24
 652 0080 2802     		lsls	r0, r5, #8
 653              	.LVL98:
 391:Drivers/BSP/Components/vl53l1cb/modules/vl53l1_sigma_estimate.c **** 
 392:Drivers/BSP/Components/vl53l1cb/modules/vl53l1_sigma_estimate.c **** 
 393:Drivers/BSP/Components/vl53l1cb/modules/vl53l1_sigma_estimate.c **** 			if (tmp1 > VL53L1_D_004)
 654              		.loc 1 393 4 is_stmt 1 view .LVU214
 655              		.loc 1 393 7 is_stmt 0 view .LVU215
 656 0082 4FF0FF33 		mov	r3, #-1
 657 0086 8342     		cmp	r3, r0
 658 0088 6FF07F43 		mvn	r3, #-16777216
 659 008c 8B41     		sbcs	r3, r3, r1
 660 008e 03D2     		bcs	.L27
 394:Drivers/BSP/Components/vl53l1cb/modules/vl53l1_sigma_estimate.c **** 				tmp1 = VL53L1_D_004;
 661              		.loc 1 394 10 view .LVU216
 662 0090 4FF0FF30 		mov	r0, #-1
 663              	.LVL99:
 664              		.loc 1 394 10 view .LVU217
 665 0094 6FF07F41 		mvn	r1, #-16777216
 666              	.LVL100:
 667              	.L27:
 395:Drivers/BSP/Components/vl53l1cb/modules/vl53l1_sigma_estimate.c **** 
 396:Drivers/BSP/Components/vl53l1cb/modules/vl53l1_sigma_estimate.c **** 
 397:Drivers/BSP/Components/vl53l1cb/modules/vl53l1_sigma_estimate.c **** 			tmp1 = do_division_u(tmp1, b_minus_amb);
 668              		.loc 1 397 4 is_stmt 1 view .LVU218
 669              		.loc 1 397 9 is_stmt 0 view .LVU219
 670 0098 5A46     		mov	r2, fp
 671 009a 5346     		mov	r3, r10
 672 009c FFF7FEFF 		bl	__aeabi_uldivmod
ARM GAS  C:\Temp\ccKqr3fi.s 			page 20


 673              	.LVL101:
 398:Drivers/BSP/Components/vl53l1cb/modules/vl53l1_sigma_estimate.c **** 			tmp1 = do_division_u(tmp1, b_minus_amb);
 674              		.loc 1 398 4 is_stmt 1 view .LVU220
 675              		.loc 1 398 9 is_stmt 0 view .LVU221
 676 00a0 5A46     		mov	r2, fp
 677 00a2 5346     		mov	r3, r10
 678 00a4 FFF7FEFF 		bl	__aeabi_uldivmod
 679              	.LVL102:
 680              		.loc 1 398 9 view .LVU222
 681 00a8 0246     		mov	r2, r0
 682 00aa 0B46     		mov	r3, r1
 683              	.LVL103:
 399:Drivers/BSP/Components/vl53l1cb/modules/vl53l1_sigma_estimate.c **** 
 400:Drivers/BSP/Components/vl53l1cb/modules/vl53l1_sigma_estimate.c **** 
 401:Drivers/BSP/Components/vl53l1cb/modules/vl53l1_sigma_estimate.c **** 			if (tmp1 > (uint64_t)VL53L1_D_005)
 684              		.loc 1 401 4 is_stmt 1 view .LVU223
 685              		.loc 1 401 7 is_stmt 0 view .LVU224
 686 00ac 4FF0FF35 		mov	r5, #-1
 687 00b0 8542     		cmp	r5, r0
 688 00b2 4FF07F00 		mov	r0, #127
 689              	.LVL104:
 690              		.loc 1 401 7 view .LVU225
 691 00b6 8841     		sbcs	r0, r0, r1
 692 00b8 01D2     		bcs	.L28
 402:Drivers/BSP/Components/vl53l1cb/modules/vl53l1_sigma_estimate.c **** 				tmp1 = (uint64_t)VL53L1_D_005;
 693              		.loc 1 402 10 view .LVU226
 694 00ba 2A46     		mov	r2, r5
 695              	.LVL105:
 696              		.loc 1 402 10 view .LVU227
 697 00bc 7F23     		movs	r3, #127
 698              	.L28:
 699              	.LVL106:
 403:Drivers/BSP/Components/vl53l1cb/modules/vl53l1_sigma_estimate.c **** 
 404:Drivers/BSP/Components/vl53l1cb/modules/vl53l1_sigma_estimate.c **** 
 405:Drivers/BSP/Components/vl53l1cb/modules/vl53l1_sigma_estimate.c **** 			tmp0 = tmp1 * tmp0;
 700              		.loc 1 405 4 is_stmt 1 view .LVU228
 701              		.loc 1 405 9 is_stmt 0 view .LVU229
 702 00be 04FB03F3 		mul	r3, r4, r3
 703              	.LVL107:
 704              		.loc 1 405 9 view .LVU230
 705 00c2 02FB0833 		mla	r3, r2, r8, r3
 706 00c6 A4FB0204 		umull	r0, r4, r4, r2
 707              	.LVL108:
 708              		.loc 1 405 9 view .LVU231
 709 00ca 1C44     		add	r4, r4, r3
 710              	.LVL109:
 406:Drivers/BSP/Components/vl53l1cb/modules/vl53l1_sigma_estimate.c **** 
 407:Drivers/BSP/Components/vl53l1cb/modules/vl53l1_sigma_estimate.c **** 
 408:Drivers/BSP/Components/vl53l1cb/modules/vl53l1_sigma_estimate.c **** 			tmp1 = (uint64_t)c_zp + (uint64_t)cx_zp +
 711              		.loc 1 408 4 is_stmt 1 view .LVU232
 712              		.loc 1 408 11 is_stmt 0 view .LVU233
 713 00cc 0021     		movs	r1, #0
 714              		.loc 1 408 26 view .LVU234
 715 00ce 0B9B     		ldr	r3, [sp, #44]
 716 00d0 0E9A     		ldr	r2, [sp, #56]
 717              		.loc 1 408 26 view .LVU235
 718 00d2 9B18     		adds	r3, r3, r2
ARM GAS  C:\Temp\ccKqr3fi.s 			page 21


 719 00d4 4941     		adcs	r1, r1, r1
 720              		.loc 1 408 44 view .LVU236
 721 00d6 0A9A     		ldr	r2, [sp, #40]
 722 00d8 9B18     		adds	r3, r3, r2
 723 00da 41F10001 		adc	r1, r1, #0
 724              		.loc 1 408 9 view .LVU237
 725 00de 0D9A     		ldr	r2, [sp, #52]
 726 00e0 9B18     		adds	r3, r3, r2
 727 00e2 41F10001 		adc	r1, r1, #0
 728              	.LVL110:
 409:Drivers/BSP/Components/vl53l1cb/modules/vl53l1_sigma_estimate.c **** 				(uint64_t)a_zp + (uint64_t)ax_zp;
 410:Drivers/BSP/Components/vl53l1cb/modules/vl53l1_sigma_estimate.c **** 
 411:Drivers/BSP/Components/vl53l1cb/modules/vl53l1_sigma_estimate.c **** 
 412:Drivers/BSP/Components/vl53l1cb/modules/vl53l1_sigma_estimate.c **** 			if (tmp1 > (uint64_t)VL53L1_D_003)
 729              		.loc 1 412 4 is_stmt 1 view .LVU238
 730              		.loc 1 412 7 is_stmt 0 view .LVU239
 731 00e6 B3F1807F 		cmp	r3, #16777216
 732 00ea 71F10002 		sbcs	r2, r1, #0
 733 00ee 02D3     		bcc	.L29
 413:Drivers/BSP/Components/vl53l1cb/modules/vl53l1_sigma_estimate.c **** 				tmp1 = (uint64_t)VL53L1_D_003;
 734              		.loc 1 413 10 view .LVU240
 735 00f0 6FF07F43 		mvn	r3, #-16777216
 736              	.LVL111:
 737              		.loc 1 413 10 view .LVU241
 738 00f4 0021     		movs	r1, #0
 739              	.LVL112:
 740              	.L29:
 414:Drivers/BSP/Components/vl53l1cb/modules/vl53l1_sigma_estimate.c **** 
 415:Drivers/BSP/Components/vl53l1cb/modules/vl53l1_sigma_estimate.c **** 			tmp1 = tmp1 << 8;
 741              		.loc 1 415 4 is_stmt 1 view .LVU242
 742              		.loc 1 415 9 is_stmt 0 view .LVU243
 743 00f6 0902     		lsls	r1, r1, #8
 744              	.LVL113:
 745              		.loc 1 415 9 view .LVU244
 746 00f8 41EA1361 		orr	r1, r1, r3, lsr #24
 747 00fc 1B02     		lsls	r3, r3, #8
 748              	.LVL114:
 416:Drivers/BSP/Components/vl53l1cb/modules/vl53l1_sigma_estimate.c **** 
 417:Drivers/BSP/Components/vl53l1cb/modules/vl53l1_sigma_estimate.c **** 
 418:Drivers/BSP/Components/vl53l1cb/modules/vl53l1_sigma_estimate.c **** 			tmp0 = tmp1 + tmp0;
 749              		.loc 1 418 4 is_stmt 1 view .LVU245
 750              		.loc 1 418 9 is_stmt 0 view .LVU246
 751 00fe C018     		adds	r0, r0, r3
 752              	.LVL115:
 753              		.loc 1 418 9 view .LVU247
 754 0100 44EB0101 		adc	r1, r4, r1
 755              	.LVL116:
 419:Drivers/BSP/Components/vl53l1cb/modules/vl53l1_sigma_estimate.c **** 			if (tmp0 > (uint64_t)VL53L1_D_006)
 756              		.loc 1 419 4 is_stmt 1 view .LVU248
 757              		.loc 1 419 7 is_stmt 0 view .LVU249
 758 0104 0029     		cmp	r1, #0
 759 0106 19DB     		blt	.L44
 420:Drivers/BSP/Components/vl53l1cb/modules/vl53l1_sigma_estimate.c **** 				tmp0 = (uint64_t)VL53L1_D_006;
 421:Drivers/BSP/Components/vl53l1cb/modules/vl53l1_sigma_estimate.c **** 
 422:Drivers/BSP/Components/vl53l1cb/modules/vl53l1_sigma_estimate.c **** 
 423:Drivers/BSP/Components/vl53l1cb/modules/vl53l1_sigma_estimate.c **** 
 424:Drivers/BSP/Components/vl53l1cb/modules/vl53l1_sigma_estimate.c **** 
ARM GAS  C:\Temp\ccKqr3fi.s 			page 22


 425:Drivers/BSP/Components/vl53l1cb/modules/vl53l1_sigma_estimate.c **** 
 426:Drivers/BSP/Components/vl53l1cb/modules/vl53l1_sigma_estimate.c **** 
 427:Drivers/BSP/Components/vl53l1cb/modules/vl53l1_sigma_estimate.c **** 			if (tmp0 > (uint64_t)VL53L1_D_007) {
 760              		.loc 1 427 4 is_stmt 1 view .LVU250
 761              		.loc 1 427 7 is_stmt 0 view .LVU251
 762 0108 4FF0FF33 		mov	r3, #-1
 763              		.loc 1 427 7 view .LVU252
 764 010c 8342     		cmp	r3, r0
 765 010e 4FF00003 		mov	r3, #0
 766 0112 8B41     		sbcs	r3, r3, r1
 767 0114 16D3     		bcc	.L30
 428:Drivers/BSP/Components/vl53l1cb/modules/vl53l1_sigma_estimate.c **** 				tmp0 = do_division_u(tmp0, b_minus_amb);
 429:Drivers/BSP/Components/vl53l1cb/modules/vl53l1_sigma_estimate.c **** 				tmp0 = tmp0 * pll_period_mm;
 430:Drivers/BSP/Components/vl53l1cb/modules/vl53l1_sigma_estimate.c **** 			} else {
 431:Drivers/BSP/Components/vl53l1cb/modules/vl53l1_sigma_estimate.c **** 				tmp0 = tmp0 * pll_period_mm;
 768              		.loc 1 431 5 is_stmt 1 view .LVU253
 769              		.loc 1 431 10 is_stmt 0 view .LVU254
 770 0116 A7FB0004 		umull	r0, r4, r7, r0
 771              	.LVL117:
 432:Drivers/BSP/Components/vl53l1cb/modules/vl53l1_sigma_estimate.c **** 				tmp0 = do_division_u(tmp0, b_minus_amb);
 772              		.loc 1 432 5 is_stmt 1 view .LVU255
 773              		.loc 1 432 10 is_stmt 0 view .LVU256
 774 011a 5A46     		mov	r2, fp
 775 011c 5346     		mov	r3, r10
 776 011e 07FB0141 		mla	r1, r7, r1, r4
 777              	.LVL118:
 778              		.loc 1 432 10 view .LVU257
 779 0122 FFF7FEFF 		bl	__aeabi_uldivmod
 780              	.LVL119:
 781              		.loc 1 432 10 view .LVU258
 782 0126 16E0     		b	.L32
 783              	.LVL120:
 784              	.L22:
 363:Drivers/BSP/Components/vl53l1cb/modules/vl53l1_sigma_estimate.c **** 			(uint64_t)VL53L1_p_004;
 785              		.loc 1 363 4 is_stmt 1 view .LVU259
 363:Drivers/BSP/Components/vl53l1cb/modules/vl53l1_sigma_estimate.c **** 			(uint64_t)VL53L1_p_004;
 786              		.loc 1 363 16 is_stmt 0 view .LVU260
 787 0128 B4EB090B 		subs	fp, r4, r9
 788 012c 6AEB0A0A 		sbc	r10, r10, r10
 789              	.LVL121:
 363:Drivers/BSP/Components/vl53l1cb/modules/vl53l1_sigma_estimate.c **** 			(uint64_t)VL53L1_p_004;
 790              		.loc 1 363 16 view .LVU261
 791 0130 80E7     		b	.L23
 792              	.L24:
 372:Drivers/BSP/Components/vl53l1cb/modules/vl53l1_sigma_estimate.c **** 			(uint64_t)VL53L1_p_003;
 793              		.loc 1 372 4 is_stmt 1 view .LVU262
 372:Drivers/BSP/Components/vl53l1cb/modules/vl53l1_sigma_estimate.c **** 			(uint64_t)VL53L1_p_003;
 794              		.loc 1 372 17 is_stmt 0 view .LVU263
 795 0132 B5EB0805 		subs	r5, r5, r8
 796              	.LVL122:
 372:Drivers/BSP/Components/vl53l1cb/modules/vl53l1_sigma_estimate.c **** 			(uint64_t)VL53L1_p_003;
 797              		.loc 1 372 17 view .LVU264
 798 0136 63EB0303 		sbc	r3, r3, r3
 799              	.LVL123:
 372:Drivers/BSP/Components/vl53l1cb/modules/vl53l1_sigma_estimate.c **** 			(uint64_t)VL53L1_p_003;
 800              		.loc 1 372 17 view .LVU265
 801 013a 81E7     		b	.L25
ARM GAS  C:\Temp\ccKqr3fi.s 			page 23


 802              	.LVL124:
 803              	.L44:
 420:Drivers/BSP/Components/vl53l1cb/modules/vl53l1_sigma_estimate.c **** 
 804              		.loc 1 420 10 view .LVU266
 805 013c 4FF0FF30 		mov	r0, #-1
 806              	.LVL125:
 420:Drivers/BSP/Components/vl53l1cb/modules/vl53l1_sigma_estimate.c **** 
 807              		.loc 1 420 10 view .LVU267
 808 0140 6FF00041 		mvn	r1, #-2147483648
 809              	.L30:
 810              	.LVL126:
 428:Drivers/BSP/Components/vl53l1cb/modules/vl53l1_sigma_estimate.c **** 				tmp0 = tmp0 * pll_period_mm;
 811              		.loc 1 428 5 is_stmt 1 view .LVU268
 428:Drivers/BSP/Components/vl53l1cb/modules/vl53l1_sigma_estimate.c **** 				tmp0 = tmp0 * pll_period_mm;
 812              		.loc 1 428 10 is_stmt 0 view .LVU269
 813 0144 5A46     		mov	r2, fp
 814 0146 5346     		mov	r3, r10
 815 0148 FFF7FEFF 		bl	__aeabi_uldivmod
 816              	.LVL127:
 817 014c 0B46     		mov	r3, r1
 818              	.LVL128:
 429:Drivers/BSP/Components/vl53l1cb/modules/vl53l1_sigma_estimate.c **** 			} else {
 819              		.loc 1 429 5 is_stmt 1 view .LVU270
 429:Drivers/BSP/Components/vl53l1cb/modules/vl53l1_sigma_estimate.c **** 			} else {
 820              		.loc 1 429 10 is_stmt 0 view .LVU271
 821 014e A7FB0001 		umull	r0, r1, r7, r0
 822              	.LVL129:
 429:Drivers/BSP/Components/vl53l1cb/modules/vl53l1_sigma_estimate.c **** 			} else {
 823              		.loc 1 429 10 view .LVU272
 824 0152 07FB0311 		mla	r1, r7, r3, r1
 825              	.LVL130:
 826              	.L32:
 433:Drivers/BSP/Components/vl53l1cb/modules/vl53l1_sigma_estimate.c **** 			}
 434:Drivers/BSP/Components/vl53l1cb/modules/vl53l1_sigma_estimate.c **** 
 435:Drivers/BSP/Components/vl53l1cb/modules/vl53l1_sigma_estimate.c **** 
 436:Drivers/BSP/Components/vl53l1cb/modules/vl53l1_sigma_estimate.c **** 			if (tmp0 > (uint64_t)VL53L1_D_006)
 827              		.loc 1 436 4 is_stmt 1 view .LVU273
 828              		.loc 1 436 7 is_stmt 0 view .LVU274
 829 0156 0029     		cmp	r1, #0
 830 0158 13DB     		blt	.L45
 437:Drivers/BSP/Components/vl53l1cb/modules/vl53l1_sigma_estimate.c **** 				tmp0 = (uint64_t)VL53L1_D_006;
 438:Drivers/BSP/Components/vl53l1cb/modules/vl53l1_sigma_estimate.c **** 
 439:Drivers/BSP/Components/vl53l1cb/modules/vl53l1_sigma_estimate.c **** 
 440:Drivers/BSP/Components/vl53l1cb/modules/vl53l1_sigma_estimate.c **** 
 441:Drivers/BSP/Components/vl53l1cb/modules/vl53l1_sigma_estimate.c **** 			if (tmp0 > (uint64_t)VL53L1_D_007) {
 831              		.loc 1 441 4 is_stmt 1 view .LVU275
 832              		.loc 1 441 7 is_stmt 0 view .LVU276
 833 015a 4FF0FF33 		mov	r3, #-1
 834 015e 8342     		cmp	r3, r0
 835 0160 4FF00003 		mov	r3, #0
 836 0164 8B41     		sbcs	r3, r3, r1
 837 0166 10D3     		bcc	.L33
 442:Drivers/BSP/Components/vl53l1cb/modules/vl53l1_sigma_estimate.c **** 				tmp0 = do_division_u(tmp0, b_minus_amb);
 443:Drivers/BSP/Components/vl53l1cb/modules/vl53l1_sigma_estimate.c **** 				tmp0 = do_division_u(tmp0, 4);
 444:Drivers/BSP/Components/vl53l1cb/modules/vl53l1_sigma_estimate.c **** 				tmp0 = tmp0 * pll_period_mm;
 445:Drivers/BSP/Components/vl53l1cb/modules/vl53l1_sigma_estimate.c **** 			} else {
 446:Drivers/BSP/Components/vl53l1cb/modules/vl53l1_sigma_estimate.c **** 				tmp0 = tmp0 * pll_period_mm;
ARM GAS  C:\Temp\ccKqr3fi.s 			page 24


 838              		.loc 1 446 5 is_stmt 1 view .LVU277
 839              		.loc 1 446 10 is_stmt 0 view .LVU278
 840 0168 A7FB0004 		umull	r0, r4, r7, r0
 841              	.LVL131:
 447:Drivers/BSP/Components/vl53l1cb/modules/vl53l1_sigma_estimate.c **** 				tmp0 = do_division_u(tmp0, b_minus_amb);
 842              		.loc 1 447 5 is_stmt 1 view .LVU279
 843              		.loc 1 447 10 is_stmt 0 view .LVU280
 844 016c 5A46     		mov	r2, fp
 845 016e 5346     		mov	r3, r10
 846 0170 07FB0141 		mla	r1, r7, r1, r4
 847              	.LVL132:
 848              		.loc 1 447 10 view .LVU281
 849 0174 FFF7FEFF 		bl	__aeabi_uldivmod
 850              	.LVL133:
 448:Drivers/BSP/Components/vl53l1cb/modules/vl53l1_sigma_estimate.c **** 				tmp0 = do_division_u(tmp0, 4);
 851              		.loc 1 448 5 is_stmt 1 view .LVU282
 852              		.loc 1 448 10 is_stmt 0 view .LVU283
 853 0178 8008     		lsrs	r0, r0, #2
 854              	.LVL134:
 855              		.loc 1 448 10 view .LVU284
 856 017a 40EA8170 		orr	r0, r0, r1, lsl #30
 857 017e 8B08     		lsrs	r3, r1, #2
 858              	.LVL135:
 449:Drivers/BSP/Components/vl53l1cb/modules/vl53l1_sigma_estimate.c **** 			}
 450:Drivers/BSP/Components/vl53l1cb/modules/vl53l1_sigma_estimate.c **** 
 451:Drivers/BSP/Components/vl53l1cb/modules/vl53l1_sigma_estimate.c **** 
 452:Drivers/BSP/Components/vl53l1cb/modules/vl53l1_sigma_estimate.c **** 			if (tmp0 > (uint64_t)VL53L1_D_006)
 859              		.loc 1 452 4 is_stmt 1 view .LVU285
 860 0180 11E0     		b	.L36
 861              	.LVL136:
 862              	.L45:
 437:Drivers/BSP/Components/vl53l1cb/modules/vl53l1_sigma_estimate.c **** 
 863              		.loc 1 437 10 is_stmt 0 view .LVU286
 864 0182 4FF0FF30 		mov	r0, #-1
 865              	.LVL137:
 437:Drivers/BSP/Components/vl53l1cb/modules/vl53l1_sigma_estimate.c **** 
 866              		.loc 1 437 10 view .LVU287
 867 0186 6FF00041 		mvn	r1, #-2147483648
 868              	.L33:
 869              	.LVL138:
 442:Drivers/BSP/Components/vl53l1cb/modules/vl53l1_sigma_estimate.c **** 				tmp0 = do_division_u(tmp0, 4);
 870              		.loc 1 442 5 is_stmt 1 view .LVU288
 442:Drivers/BSP/Components/vl53l1cb/modules/vl53l1_sigma_estimate.c **** 				tmp0 = do_division_u(tmp0, 4);
 871              		.loc 1 442 10 is_stmt 0 view .LVU289
 872 018a 5A46     		mov	r2, fp
 873 018c 5346     		mov	r3, r10
 874 018e FFF7FEFF 		bl	__aeabi_uldivmod
 875              	.LVL139:
 443:Drivers/BSP/Components/vl53l1cb/modules/vl53l1_sigma_estimate.c **** 				tmp0 = tmp0 * pll_period_mm;
 876              		.loc 1 443 5 is_stmt 1 view .LVU290
 443:Drivers/BSP/Components/vl53l1cb/modules/vl53l1_sigma_estimate.c **** 				tmp0 = tmp0 * pll_period_mm;
 877              		.loc 1 443 10 is_stmt 0 view .LVU291
 878 0192 8008     		lsrs	r0, r0, #2
 879              	.LVL140:
 443:Drivers/BSP/Components/vl53l1cb/modules/vl53l1_sigma_estimate.c **** 				tmp0 = tmp0 * pll_period_mm;
 880              		.loc 1 443 10 view .LVU292
 881 0194 40EA8170 		orr	r0, r0, r1, lsl #30
ARM GAS  C:\Temp\ccKqr3fi.s 			page 25


 882 0198 8908     		lsrs	r1, r1, #2
 883              	.LVL141:
 444:Drivers/BSP/Components/vl53l1cb/modules/vl53l1_sigma_estimate.c **** 			} else {
 884              		.loc 1 444 5 is_stmt 1 view .LVU293
 444:Drivers/BSP/Components/vl53l1cb/modules/vl53l1_sigma_estimate.c **** 			} else {
 885              		.loc 1 444 10 is_stmt 0 view .LVU294
 886 019a A7FB0003 		umull	r0, r3, r7, r0
 887              	.LVL142:
 444:Drivers/BSP/Components/vl53l1cb/modules/vl53l1_sigma_estimate.c **** 			} else {
 888              		.loc 1 444 10 view .LVU295
 889 019e 07FB0133 		mla	r3, r7, r1, r3
 890              	.LVL143:
 891              		.loc 1 452 4 is_stmt 1 view .LVU296
 892              		.loc 1 452 7 is_stmt 0 view .LVU297
 893 01a2 002B     		cmp	r3, #0
 894 01a4 20DB     		blt	.L50
 895              	.LVL144:
 896              	.L36:
 453:Drivers/BSP/Components/vl53l1cb/modules/vl53l1_sigma_estimate.c **** 				tmp0 = (uint64_t)VL53L1_D_006;
 454:Drivers/BSP/Components/vl53l1cb/modules/vl53l1_sigma_estimate.c **** 
 455:Drivers/BSP/Components/vl53l1cb/modules/vl53l1_sigma_estimate.c **** 
 456:Drivers/BSP/Components/vl53l1cb/modules/vl53l1_sigma_estimate.c **** 			tmp0 = tmp0 >> 2;
 897              		.loc 1 456 4 is_stmt 1 view .LVU298
 898              		.loc 1 456 9 is_stmt 0 view .LVU299
 899 01a6 8008     		lsrs	r0, r0, #2
 900              	.LVL145:
 901              		.loc 1 456 9 view .LVU300
 902 01a8 40EA8370 		orr	r0, r0, r3, lsl #30
 903 01ac 9B08     		lsrs	r3, r3, #2
 904              	.LVL146:
 457:Drivers/BSP/Components/vl53l1cb/modules/vl53l1_sigma_estimate.c **** 
 458:Drivers/BSP/Components/vl53l1cb/modules/vl53l1_sigma_estimate.c **** 
 459:Drivers/BSP/Components/vl53l1cb/modules/vl53l1_sigma_estimate.c **** 			if (tmp0 > (uint64_t)VL53L1_D_007)
 905              		.loc 1 459 4 is_stmt 1 view .LVU301
 906              		.loc 1 459 7 is_stmt 0 view .LVU302
 907 01ae 4FF0FF32 		mov	r2, #-1
 908 01b2 8242     		cmp	r2, r0
 909 01b4 4FF00002 		mov	r2, #0
 910 01b8 9A41     		sbcs	r2, r2, r3
 911 01ba 19D3     		bcc	.L47
 912              	.LVL147:
 913              	.L35:
 460:Drivers/BSP/Components/vl53l1cb/modules/vl53l1_sigma_estimate.c **** 				tmp0 = (uint64_t)VL53L1_D_007;
 461:Drivers/BSP/Components/vl53l1cb/modules/vl53l1_sigma_estimate.c **** 
 462:Drivers/BSP/Components/vl53l1cb/modules/vl53l1_sigma_estimate.c **** 
 463:Drivers/BSP/Components/vl53l1cb/modules/vl53l1_sigma_estimate.c **** 			tmp1 = (uint64_t)sigma_estimator__sigma_ref_mm << 7;
 914              		.loc 1 463 4 is_stmt 1 view .LVU303
 915              		.loc 1 463 9 is_stmt 0 view .LVU304
 916 01bc F601     		lsls	r6, r6, #7
 464:Drivers/BSP/Components/vl53l1cb/modules/vl53l1_sigma_estimate.c **** 			tmp1 = tmp1 * tmp1;
 917              		.loc 1 464 4 is_stmt 1 view .LVU305
 918              		.loc 1 464 9 is_stmt 0 view .LVU306
 919 01be A6FB0662 		umull	r6, r2, r6, r6
 920              	.LVL148:
 465:Drivers/BSP/Components/vl53l1cb/modules/vl53l1_sigma_estimate.c **** 			tmp0 = tmp0 + tmp1;
 921              		.loc 1 465 4 is_stmt 1 view .LVU307
 922              		.loc 1 465 9 is_stmt 0 view .LVU308
ARM GAS  C:\Temp\ccKqr3fi.s 			page 26


 923 01c2 8019     		adds	r0, r0, r6
 924              	.LVL149:
 925              		.loc 1 465 9 view .LVU309
 926 01c4 43F10003 		adc	r3, r3, #0
 927              	.LVL150:
 466:Drivers/BSP/Components/vl53l1cb/modules/vl53l1_sigma_estimate.c **** 
 467:Drivers/BSP/Components/vl53l1cb/modules/vl53l1_sigma_estimate.c **** 
 468:Drivers/BSP/Components/vl53l1cb/modules/vl53l1_sigma_estimate.c **** 			if (tmp0 > (uint64_t)VL53L1_D_007)
 928              		.loc 1 468 4 is_stmt 1 view .LVU310
 929              		.loc 1 468 7 is_stmt 0 view .LVU311
 930 01c8 4FF0FF32 		mov	r2, #-1
 931 01cc 8242     		cmp	r2, r0
 932 01ce 4FF00002 		mov	r2, #0
 933 01d2 9A41     		sbcs	r2, r2, r3
 934 01d4 01D2     		bcs	.L37
 469:Drivers/BSP/Components/vl53l1cb/modules/vl53l1_sigma_estimate.c **** 				tmp0 = (uint64_t)VL53L1_D_007;
 935              		.loc 1 469 10 view .LVU312
 936 01d6 4FF0FF30 		mov	r0, #-1
 937              	.LVL151:
 938              	.L37:
 470:Drivers/BSP/Components/vl53l1cb/modules/vl53l1_sigma_estimate.c **** 
 471:Drivers/BSP/Components/vl53l1cb/modules/vl53l1_sigma_estimate.c **** 
 472:Drivers/BSP/Components/vl53l1cb/modules/vl53l1_sigma_estimate.c **** 			sigma_int = VL53L1_isqrt((uint32_t)tmp0);
 939              		.loc 1 472 4 is_stmt 1 view .LVU313
 940              		.loc 1 472 16 is_stmt 0 view .LVU314
 941 01da FFF7FEFF 		bl	VL53L1_isqrt
 942              	.LVL152:
 473:Drivers/BSP/Components/vl53l1cb/modules/vl53l1_sigma_estimate.c **** 
 474:Drivers/BSP/Components/vl53l1cb/modules/vl53l1_sigma_estimate.c **** 			*psigma_est = (uint16_t)sigma_int;
 943              		.loc 1 474 4 is_stmt 1 view .LVU315
 944              		.loc 1 474 16 is_stmt 0 view .LVU316
 945 01de 119B     		ldr	r3, [sp, #68]
 946 01e0 1880     		strh	r0, [r3]	@ movhi
 475:Drivers/BSP/Components/vl53l1cb/modules/vl53l1_sigma_estimate.c **** 
 476:Drivers/BSP/Components/vl53l1cb/modules/vl53l1_sigma_estimate.c **** 			status = VL53L1_ERROR_NONE;
 947              		.loc 1 476 4 is_stmt 1 view .LVU317
 948              	.LVL153:
 949              		.loc 1 476 11 is_stmt 0 view .LVU318
 950 01e2 0020     		movs	r0, #0
 951              	.LVL154:
 952              	.L21:
 477:Drivers/BSP/Components/vl53l1cb/modules/vl53l1_sigma_estimate.c **** 		}
 478:Drivers/BSP/Components/vl53l1cb/modules/vl53l1_sigma_estimate.c **** 
 479:Drivers/BSP/Components/vl53l1cb/modules/vl53l1_sigma_estimate.c **** 	}
 480:Drivers/BSP/Components/vl53l1cb/modules/vl53l1_sigma_estimate.c **** 
 481:Drivers/BSP/Components/vl53l1cb/modules/vl53l1_sigma_estimate.c **** 	return status;
 953              		.loc 1 481 2 is_stmt 1 view .LVU319
 482:Drivers/BSP/Components/vl53l1cb/modules/vl53l1_sigma_estimate.c **** }
 954              		.loc 1 482 1 is_stmt 0 view .LVU320
 955 01e4 BDE8F88F 		pop	{r3, r4, r5, r6, r7, r8, r9, r10, fp, pc}
 956              	.LVL155:
 957              	.L50:
 460:Drivers/BSP/Components/vl53l1cb/modules/vl53l1_sigma_estimate.c **** 
 958              		.loc 1 460 10 view .LVU321
 959 01e8 4FF0FF30 		mov	r0, #-1
 960              	.LVL156:
 460:Drivers/BSP/Components/vl53l1cb/modules/vl53l1_sigma_estimate.c **** 
ARM GAS  C:\Temp\ccKqr3fi.s 			page 27


 961              		.loc 1 460 10 view .LVU322
 962 01ec 0023     		movs	r3, #0
 963 01ee E5E7     		b	.L35
 964              	.LVL157:
 965              	.L47:
 460:Drivers/BSP/Components/vl53l1cb/modules/vl53l1_sigma_estimate.c **** 
 966              		.loc 1 460 10 view .LVU323
 967 01f0 4FF0FF30 		mov	r0, #-1
 968              	.LVL158:
 460:Drivers/BSP/Components/vl53l1cb/modules/vl53l1_sigma_estimate.c **** 
 969              		.loc 1 460 10 view .LVU324
 970 01f4 0023     		movs	r3, #0
 971 01f6 E1E7     		b	.L35
 972              	.LVL159:
 973              	.L38:
 337:Drivers/BSP/Components/vl53l1cb/modules/vl53l1_sigma_estimate.c **** 	uint32_t sigma_int  = VL53L1_D_002;
 974              		.loc 1 337 15 view .LVU325
 975 01f8 6FF00E00 		mvn	r0, #14
 976 01fc F2E7     		b	.L21
 977              	.LVL160:
 978              	.L39:
 337:Drivers/BSP/Components/vl53l1cb/modules/vl53l1_sigma_estimate.c **** 	uint32_t sigma_int  = VL53L1_D_002;
 979              		.loc 1 337 15 view .LVU326
 980 01fe 6FF00E00 		mvn	r0, #14
 981              	.LVL161:
 337:Drivers/BSP/Components/vl53l1cb/modules/vl53l1_sigma_estimate.c **** 	uint32_t sigma_int  = VL53L1_D_002;
 982              		.loc 1 337 15 view .LVU327
 983 0202 EFE7     		b	.L21
 984              		.cfi_endproc
 985              	.LFE6:
 987              		.section	.text.VL53L1_f_046,"ax",%progbits
 988              		.align	1
 989              		.global	VL53L1_f_046
 990              		.syntax unified
 991              		.thumb
 992              		.thumb_func
 994              	VL53L1_f_046:
 995              	.LVL162:
 996              	.LFB7:
 483:Drivers/BSP/Components/vl53l1cb/modules/vl53l1_sigma_estimate.c **** 
 484:Drivers/BSP/Components/vl53l1cb/modules/vl53l1_sigma_estimate.c **** uint32_t VL53L1_f_046(
 485:Drivers/BSP/Components/vl53l1cb/modules/vl53l1_sigma_estimate.c **** 	uint64_t VL53L1_p_003,
 486:Drivers/BSP/Components/vl53l1cb/modules/vl53l1_sigma_estimate.c **** 	uint32_t size
 487:Drivers/BSP/Components/vl53l1cb/modules/vl53l1_sigma_estimate.c **** 	)
 488:Drivers/BSP/Components/vl53l1cb/modules/vl53l1_sigma_estimate.c **** {
 997              		.loc 1 488 1 is_stmt 1 view -0
 998              		.cfi_startproc
 999              		@ args = 0, pretend = 0, frame = 0
 1000              		@ frame_needed = 0, uses_anonymous_args = 0
 1001              		.loc 1 488 1 is_stmt 0 view .LVU329
 1002 0000 10B5     		push	{r4, lr}
 1003              		.cfi_def_cfa_offset 8
 1004              		.cfi_offset 4, -8
 1005              		.cfi_offset 14, -4
 1006 0002 0446     		mov	r4, r0
 489:Drivers/BSP/Components/vl53l1cb/modules/vl53l1_sigma_estimate.c **** 
 490:Drivers/BSP/Components/vl53l1cb/modules/vl53l1_sigma_estimate.c **** 
ARM GAS  C:\Temp\ccKqr3fi.s 			page 28


 491:Drivers/BSP/Components/vl53l1cb/modules/vl53l1_sigma_estimate.c **** 	uint64_t next;
 1007              		.loc 1 491 2 is_stmt 1 view .LVU330
 492:Drivers/BSP/Components/vl53l1cb/modules/vl53l1_sigma_estimate.c **** 	uint64_t upper;
 1008              		.loc 1 492 2 view .LVU331
 493:Drivers/BSP/Components/vl53l1cb/modules/vl53l1_sigma_estimate.c **** 	uint64_t lower;
 1009              		.loc 1 493 2 view .LVU332
 494:Drivers/BSP/Components/vl53l1cb/modules/vl53l1_sigma_estimate.c **** 	uint32_t stepsize;
 1010              		.loc 1 494 2 view .LVU333
 495:Drivers/BSP/Components/vl53l1cb/modules/vl53l1_sigma_estimate.c **** 	uint32_t count;
 1011              		.loc 1 495 2 view .LVU334
 496:Drivers/BSP/Components/vl53l1cb/modules/vl53l1_sigma_estimate.c **** 
 497:Drivers/BSP/Components/vl53l1cb/modules/vl53l1_sigma_estimate.c **** 
 498:Drivers/BSP/Components/vl53l1cb/modules/vl53l1_sigma_estimate.c **** 	next = VL53L1_p_003;
 1012              		.loc 1 498 2 view .LVU335
 1013              	.LVL163:
 499:Drivers/BSP/Components/vl53l1cb/modules/vl53l1_sigma_estimate.c **** 	upper = 0;
 1014              		.loc 1 499 2 view .LVU336
 500:Drivers/BSP/Components/vl53l1cb/modules/vl53l1_sigma_estimate.c **** 	lower = 0;
 1015              		.loc 1 500 2 view .LVU337
 501:Drivers/BSP/Components/vl53l1cb/modules/vl53l1_sigma_estimate.c **** 	stepsize = size/2;
 1016              		.loc 1 501 2 view .LVU338
 1017              		.loc 1 501 11 is_stmt 0 view .LVU339
 1018 0004 5208     		lsrs	r2, r2, #1
 1019              	.LVL164:
 502:Drivers/BSP/Components/vl53l1cb/modules/vl53l1_sigma_estimate.c **** 	count = 0;
 1020              		.loc 1 502 2 is_stmt 1 view .LVU340
 1021              		.loc 1 502 8 is_stmt 0 view .LVU341
 1022 0006 0020     		movs	r0, #0
 1023              	.LVL165:
 1024              		.loc 1 502 8 view .LVU342
 1025 0008 06E0     		b	.L53
 1026              	.LVL166:
 1027              	.L57:
 503:Drivers/BSP/Components/vl53l1cb/modules/vl53l1_sigma_estimate.c **** 
 504:Drivers/BSP/Components/vl53l1cb/modules/vl53l1_sigma_estimate.c **** 	while (1) {
 505:Drivers/BSP/Components/vl53l1cb/modules/vl53l1_sigma_estimate.c **** 		upper = next >> stepsize;
 506:Drivers/BSP/Components/vl53l1cb/modules/vl53l1_sigma_estimate.c **** 		lower = next & ((1 << stepsize) - 1);
 507:Drivers/BSP/Components/vl53l1cb/modules/vl53l1_sigma_estimate.c **** 
 508:Drivers/BSP/Components/vl53l1cb/modules/vl53l1_sigma_estimate.c **** 		if (upper != 0) {
 509:Drivers/BSP/Components/vl53l1cb/modules/vl53l1_sigma_estimate.c **** 			count += stepsize;
 1028              		.loc 1 509 4 is_stmt 1 view .LVU343
 1029              		.loc 1 509 10 is_stmt 0 view .LVU344
 1030 000a 1044     		add	r0, r0, r2
 1031              	.LVL167:
 510:Drivers/BSP/Components/vl53l1cb/modules/vl53l1_sigma_estimate.c **** 			next = upper;
 1032              		.loc 1 510 4 is_stmt 1 view .LVU345
 1033              		.loc 1 510 9 is_stmt 0 view .LVU346
 1034 000c 6446     		mov	r4, ip
 1035              	.LVL168:
 1036              		.loc 1 510 9 view .LVU347
 1037 000e 7146     		mov	r1, lr
 1038              	.LVL169:
 1039              	.L52:
 511:Drivers/BSP/Components/vl53l1cb/modules/vl53l1_sigma_estimate.c **** 		} else {
 512:Drivers/BSP/Components/vl53l1cb/modules/vl53l1_sigma_estimate.c **** 			next = lower;
 513:Drivers/BSP/Components/vl53l1cb/modules/vl53l1_sigma_estimate.c **** 		}
 514:Drivers/BSP/Components/vl53l1cb/modules/vl53l1_sigma_estimate.c **** 
ARM GAS  C:\Temp\ccKqr3fi.s 			page 29


 515:Drivers/BSP/Components/vl53l1cb/modules/vl53l1_sigma_estimate.c **** 		stepsize = stepsize / 2;
 1040              		.loc 1 515 3 is_stmt 1 view .LVU348
 1041              		.loc 1 515 12 is_stmt 0 view .LVU349
 1042 0010 5308     		lsrs	r3, r2, #1
 1043              	.LVL170:
 516:Drivers/BSP/Components/vl53l1cb/modules/vl53l1_sigma_estimate.c **** 		if (stepsize == 0)
 1044              		.loc 1 516 3 is_stmt 1 view .LVU350
 1045              		.loc 1 516 6 is_stmt 0 view .LVU351
 1046 0012 012A     		cmp	r2, #1
 1047 0014 1AD9     		bls	.L56
 515:Drivers/BSP/Components/vl53l1cb/modules/vl53l1_sigma_estimate.c **** 		if (stepsize == 0)
 1048              		.loc 1 515 12 view .LVU352
 1049 0016 1A46     		mov	r2, r3
 1050              	.LVL171:
 1051              	.L53:
 504:Drivers/BSP/Components/vl53l1cb/modules/vl53l1_sigma_estimate.c **** 		upper = next >> stepsize;
 1052              		.loc 1 504 2 is_stmt 1 view .LVU353
 505:Drivers/BSP/Components/vl53l1cb/modules/vl53l1_sigma_estimate.c **** 		lower = next & ((1 << stepsize) - 1);
 1053              		.loc 1 505 3 view .LVU354
 505:Drivers/BSP/Components/vl53l1cb/modules/vl53l1_sigma_estimate.c **** 		lower = next & ((1 << stepsize) - 1);
 1054              		.loc 1 505 9 is_stmt 0 view .LVU355
 1055 0018 C2F1200E 		rsb	lr, r2, #32
 1056 001c A2F12003 		sub	r3, r2, #32
 1057 0020 24FA02FC 		lsr	ip, r4, r2
 1058 0024 01FA0EFE 		lsl	lr, r1, lr
 1059 0028 4CEA0E0C 		orr	ip, ip, lr
 1060 002c 21FA03F3 		lsr	r3, r1, r3
 1061 0030 4CEA030C 		orr	ip, ip, r3
 1062 0034 21FA02FE 		lsr	lr, r1, r2
 1063              	.LVL172:
 506:Drivers/BSP/Components/vl53l1cb/modules/vl53l1_sigma_estimate.c **** 
 1064              		.loc 1 506 3 is_stmt 1 view .LVU356
 506:Drivers/BSP/Components/vl53l1cb/modules/vl53l1_sigma_estimate.c **** 
 1065              		.loc 1 506 22 is_stmt 0 view .LVU357
 1066 0038 0123     		movs	r3, #1
 1067 003a 9340     		lsls	r3, r3, r2
 506:Drivers/BSP/Components/vl53l1cb/modules/vl53l1_sigma_estimate.c **** 
 1068              		.loc 1 506 35 view .LVU358
 1069 003c 013B     		subs	r3, r3, #1
 506:Drivers/BSP/Components/vl53l1cb/modules/vl53l1_sigma_estimate.c **** 
 1070              		.loc 1 506 9 view .LVU359
 1071 003e 1C40     		ands	r4, r4, r3
 1072              	.LVL173:
 506:Drivers/BSP/Components/vl53l1cb/modules/vl53l1_sigma_estimate.c **** 
 1073              		.loc 1 506 9 view .LVU360
 1074 0040 01EAE371 		and	r1, r1, r3, asr #31
 1075              	.LVL174:
 508:Drivers/BSP/Components/vl53l1cb/modules/vl53l1_sigma_estimate.c **** 			count += stepsize;
 1076              		.loc 1 508 3 is_stmt 1 view .LVU361
 508:Drivers/BSP/Components/vl53l1cb/modules/vl53l1_sigma_estimate.c **** 			count += stepsize;
 1077              		.loc 1 508 6 is_stmt 0 view .LVU362
 1078 0044 5CEA0E03 		orrs	r3, ip, lr
 1079 0048 E2D0     		beq	.L52
 508:Drivers/BSP/Components/vl53l1cb/modules/vl53l1_sigma_estimate.c **** 			count += stepsize;
 1080              		.loc 1 508 6 view .LVU363
 1081 004a DEE7     		b	.L57
 1082              	.LVL175:
ARM GAS  C:\Temp\ccKqr3fi.s 			page 30


 1083              	.L56:
 517:Drivers/BSP/Components/vl53l1cb/modules/vl53l1_sigma_estimate.c **** 			break;
 518:Drivers/BSP/Components/vl53l1cb/modules/vl53l1_sigma_estimate.c **** 	}
 519:Drivers/BSP/Components/vl53l1cb/modules/vl53l1_sigma_estimate.c **** 
 520:Drivers/BSP/Components/vl53l1cb/modules/vl53l1_sigma_estimate.c **** 	return count;
 1084              		.loc 1 520 2 is_stmt 1 view .LVU364
 521:Drivers/BSP/Components/vl53l1cb/modules/vl53l1_sigma_estimate.c **** }
 1085              		.loc 1 521 1 is_stmt 0 view .LVU365
 1086 004c 10BD     		pop	{r4, pc}
 1087              		.loc 1 521 1 view .LVU366
 1088              		.cfi_endproc
 1089              	.LFE7:
 1091              		.section	.text.VL53L1_f_043,"ax",%progbits
 1092              		.align	1
 1093              		.global	VL53L1_f_043
 1094              		.syntax unified
 1095              		.thumb
 1096              		.thumb_func
 1098              	VL53L1_f_043:
 1099              	.LVL176:
 1100              	.LFB8:
 522:Drivers/BSP/Components/vl53l1cb/modules/vl53l1_sigma_estimate.c **** 
 523:Drivers/BSP/Components/vl53l1cb/modules/vl53l1_sigma_estimate.c **** 
 524:Drivers/BSP/Components/vl53l1cb/modules/vl53l1_sigma_estimate.c **** 
 525:Drivers/BSP/Components/vl53l1cb/modules/vl53l1_sigma_estimate.c **** uint32_t VL53L1_f_043(
 526:Drivers/BSP/Components/vl53l1cb/modules/vl53l1_sigma_estimate.c **** 	uint32_t VL53L1_p_003,
 527:Drivers/BSP/Components/vl53l1cb/modules/vl53l1_sigma_estimate.c **** 	uint32_t VL53L1_p_018)
 528:Drivers/BSP/Components/vl53l1cb/modules/vl53l1_sigma_estimate.c **** {
 1101              		.loc 1 528 1 is_stmt 1 view -0
 1102              		.cfi_startproc
 1103              		@ args = 0, pretend = 0, frame = 0
 1104              		@ frame_needed = 0, uses_anonymous_args = 0
 529:Drivers/BSP/Components/vl53l1cb/modules/vl53l1_sigma_estimate.c **** 
 530:Drivers/BSP/Components/vl53l1cb/modules/vl53l1_sigma_estimate.c **** 
 531:Drivers/BSP/Components/vl53l1cb/modules/vl53l1_sigma_estimate.c **** 	uint32_t  res = 0;
 1105              		.loc 1 531 2 view .LVU368
 532:Drivers/BSP/Components/vl53l1cb/modules/vl53l1_sigma_estimate.c **** 
 533:Drivers/BSP/Components/vl53l1cb/modules/vl53l1_sigma_estimate.c **** 	if (VL53L1_p_003 > 65535 || VL53L1_p_018 > 65535)
 1106              		.loc 1 533 2 view .LVU369
 1107              		.loc 1 533 5 is_stmt 0 view .LVU370
 1108 0000 B0F5803F 		cmp	r0, #65536
 1109 0004 0DD2     		bcs	.L60
 1110              		.loc 1 533 27 discriminator 1 view .LVU371
 1111 0006 B1F5803F 		cmp	r1, #65536
 1112 000a 02D3     		bcc	.L66
 534:Drivers/BSP/Components/vl53l1cb/modules/vl53l1_sigma_estimate.c **** 		res = 65535;
 1113              		.loc 1 534 7 view .LVU372
 1114 000c 4FF6FF70 		movw	r0, #65535
 1115              	.LVL177:
 535:Drivers/BSP/Components/vl53l1cb/modules/vl53l1_sigma_estimate.c **** 	else
 536:Drivers/BSP/Components/vl53l1cb/modules/vl53l1_sigma_estimate.c **** 		res = VL53L1_isqrt(VL53L1_p_003*VL53L1_p_003 +
 537:Drivers/BSP/Components/vl53l1cb/modules/vl53l1_sigma_estimate.c **** 			VL53L1_p_018*VL53L1_p_018);
 538:Drivers/BSP/Components/vl53l1cb/modules/vl53l1_sigma_estimate.c **** 
 539:Drivers/BSP/Components/vl53l1cb/modules/vl53l1_sigma_estimate.c **** 	return res;
 1116              		.loc 1 539 2 is_stmt 1 view .LVU373
 540:Drivers/BSP/Components/vl53l1cb/modules/vl53l1_sigma_estimate.c **** }
 1117              		.loc 1 540 1 is_stmt 0 view .LVU374
ARM GAS  C:\Temp\ccKqr3fi.s 			page 31


 1118 0010 7047     		bx	lr
 1119              	.LVL178:
 1120              	.L66:
 528:Drivers/BSP/Components/vl53l1cb/modules/vl53l1_sigma_estimate.c **** 
 1121              		.loc 1 528 1 view .LVU375
 1122 0012 08B5     		push	{r3, lr}
 1123              		.cfi_def_cfa_offset 8
 1124              		.cfi_offset 3, -8
 1125              		.cfi_offset 14, -4
 536:Drivers/BSP/Components/vl53l1cb/modules/vl53l1_sigma_estimate.c **** 			VL53L1_p_018*VL53L1_p_018);
 1126              		.loc 1 536 3 is_stmt 1 view .LVU376
 537:Drivers/BSP/Components/vl53l1cb/modules/vl53l1_sigma_estimate.c **** 
 1127              		.loc 1 537 16 is_stmt 0 view .LVU377
 1128 0014 01FB01F1 		mul	r1, r1, r1
 1129              	.LVL179:
 536:Drivers/BSP/Components/vl53l1cb/modules/vl53l1_sigma_estimate.c **** 			VL53L1_p_018*VL53L1_p_018);
 1130              		.loc 1 536 9 view .LVU378
 1131 0018 00FB0010 		mla	r0, r0, r0, r1
 1132              	.LVL180:
 536:Drivers/BSP/Components/vl53l1cb/modules/vl53l1_sigma_estimate.c **** 			VL53L1_p_018*VL53L1_p_018);
 1133              		.loc 1 536 9 view .LVU379
 1134 001c FFF7FEFF 		bl	VL53L1_isqrt
 1135              	.LVL181:
 1136              		.loc 1 540 1 view .LVU380
 1137 0020 08BD     		pop	{r3, pc}
 1138              	.LVL182:
 1139              	.L60:
 1140              		.cfi_def_cfa_offset 0
 1141              		.cfi_restore 3
 1142              		.cfi_restore 14
 534:Drivers/BSP/Components/vl53l1cb/modules/vl53l1_sigma_estimate.c **** 	else
 1143              		.loc 1 534 7 view .LVU381
 1144 0022 4FF6FF70 		movw	r0, #65535
 1145              	.LVL183:
 534:Drivers/BSP/Components/vl53l1cb/modules/vl53l1_sigma_estimate.c **** 	else
 1146              		.loc 1 534 7 view .LVU382
 1147 0026 7047     		bx	lr
 1148              		.cfi_endproc
 1149              	.LFE8:
 1151              		.section	.text.VL53L1_f_042,"ax",%progbits
 1152              		.align	1
 1153              		.global	VL53L1_f_042
 1154              		.syntax unified
 1155              		.thumb
 1156              		.thumb_func
 1158              	VL53L1_f_042:
 1159              	.LVL184:
 1160              	.LFB3:
  44:Drivers/BSP/Components/vl53l1cb/modules/vl53l1_sigma_estimate.c **** 
 1161              		.loc 1 44 1 is_stmt 1 view -0
 1162              		.cfi_startproc
 1163              		@ args = 0, pretend = 0, frame = 0
 1164              		@ frame_needed = 0, uses_anonymous_args = 0
  44:Drivers/BSP/Components/vl53l1cb/modules/vl53l1_sigma_estimate.c **** 
 1165              		.loc 1 44 1 is_stmt 0 view .LVU384
 1166 0000 70B5     		push	{r4, r5, r6, lr}
 1167              		.cfi_def_cfa_offset 16
ARM GAS  C:\Temp\ccKqr3fi.s 			page 32


 1168              		.cfi_offset 4, -16
 1169              		.cfi_offset 5, -12
 1170              		.cfi_offset 6, -8
 1171              		.cfi_offset 14, -4
 1172 0002 1C46     		mov	r4, r3
  48:Drivers/BSP/Components/vl53l1cb/modules/vl53l1_sigma_estimate.c **** 
 1173              		.loc 1 48 2 is_stmt 1 view .LVU385
 1174              	.LVL185:
  50:Drivers/BSP/Components/vl53l1cb/modules/vl53l1_sigma_estimate.c **** 	uint32_t    tmp1 = 0;
 1175              		.loc 1 50 2 view .LVU386
  51:Drivers/BSP/Components/vl53l1cb/modules/vl53l1_sigma_estimate.c **** 	uint32_t    tmp2 = 0;
 1176              		.loc 1 51 2 view .LVU387
  52:Drivers/BSP/Components/vl53l1cb/modules/vl53l1_sigma_estimate.c **** 
 1177              		.loc 1 52 2 view .LVU388
  54:Drivers/BSP/Components/vl53l1cb/modules/vl53l1_sigma_estimate.c **** 	uint32_t    sigma_est__ref_array  = 0;
 1178              		.loc 1 54 2 view .LVU389
  55:Drivers/BSP/Components/vl53l1cb/modules/vl53l1_sigma_estimate.c **** 
 1179              		.loc 1 55 2 view .LVU390
  57:Drivers/BSP/Components/vl53l1cb/modules/vl53l1_sigma_estimate.c **** 
 1180              		.loc 1 57 24 view .LVU391
  59:Drivers/BSP/Components/vl53l1cb/modules/vl53l1_sigma_estimate.c **** 		pdata->VL53L1_p_013 > 0) {
 1181              		.loc 1 59 2 view .LVU392
  59:Drivers/BSP/Components/vl53l1cb/modules/vl53l1_sigma_estimate.c **** 		pdata->VL53L1_p_013 > 0) {
 1182              		.loc 1 59 11 is_stmt 0 view .LVU393
 1183 0004 1B8E     		ldrh	r3, [r3, #48]
 1184              	.LVL186:
  59:Drivers/BSP/Components/vl53l1cb/modules/vl53l1_sigma_estimate.c **** 		pdata->VL53L1_p_013 > 0) {
 1185              		.loc 1 59 5 view .LVU394
 1186 0006 3BB3     		cbz	r3, .L69
 1187 0008 1546     		mov	r5, r2
  60:Drivers/BSP/Components/vl53l1cb/modules/vl53l1_sigma_estimate.c **** 
 1188              		.loc 1 60 8 discriminator 1 view .LVU395
 1189 000a E26A     		ldr	r2, [r4, #44]
 1190              	.LVL187:
  59:Drivers/BSP/Components/vl53l1cb/modules/vl53l1_sigma_estimate.c **** 		pdata->VL53L1_p_013 > 0) {
 1191              		.loc 1 59 46 discriminator 1 view .LVU396
 1192 000c 002A     		cmp	r2, #0
 1193 000e 27DD     		ble	.L70
  64:Drivers/BSP/Components/vl53l1cb/modules/vl53l1_sigma_estimate.c **** 			(uint32_t)sigma_estimator__effective_pulse_width_ns;
 1194              		.loc 1 64 3 is_stmt 1 view .LVU397
  64:Drivers/BSP/Components/vl53l1cb/modules/vl53l1_sigma_estimate.c **** 			(uint32_t)sigma_estimator__effective_pulse_width_ns;
 1195              		.loc 1 64 8 is_stmt 0 view .LVU398
 1196 0010 6426     		movs	r6, #100
 1197              	.LVL188:
  69:Drivers/BSP/Components/vl53l1cb/modules/vl53l1_sigma_estimate.c **** 			100 *
 1198              		.loc 1 69 3 is_stmt 1 view .LVU399
  70:Drivers/BSP/Components/vl53l1cb/modules/vl53l1_sigma_estimate.c **** 			(uint32_t)sigma_estimator__effective_ambient_width_ns);
 1199              		.loc 1 70 8 is_stmt 0 view .LVU400
 1200 0012 00FB01F1 		mul	r1, r0, r1
 1201              	.LVL189:
  73:Drivers/BSP/Components/vl53l1cb/modules/vl53l1_sigma_estimate.c **** 			(uint32_t)pdata->peak_signal_count_rate_mcps/2) /
 1202              		.loc 1 73 3 is_stmt 1 view .LVU401
  74:Drivers/BSP/Components/vl53l1cb/modules/vl53l1_sigma_estimate.c **** 			(uint32_t)pdata->peak_signal_count_rate_mcps;
 1203              		.loc 1 74 48 is_stmt 0 view .LVU402
 1204 0016 5A08     		lsrs	r2, r3, #1
  73:Drivers/BSP/Components/vl53l1cb/modules/vl53l1_sigma_estimate.c **** 			(uint32_t)pdata->peak_signal_count_rate_mcps/2) /
 1205              		.loc 1 73 17 view .LVU403
ARM GAS  C:\Temp\ccKqr3fi.s 			page 33


 1206 0018 06FB0121 		mla	r1, r6, r1, r2
 1207              	.LVL190:
  79:Drivers/BSP/Components/vl53l1cb/modules/vl53l1_sigma_estimate.c **** 			VL53L1_f_043(tmp0, tmp1);
 1208              		.loc 1 79 3 is_stmt 1 view .LVU404
  80:Drivers/BSP/Components/vl53l1cb/modules/vl53l1_sigma_estimate.c **** 
 1209              		.loc 1 80 4 is_stmt 0 view .LVU405
 1210 001c B1FBF3F1 		udiv	r1, r1, r3
 1211              	.LVL191:
  80:Drivers/BSP/Components/vl53l1cb/modules/vl53l1_sigma_estimate.c **** 
 1212              		.loc 1 80 4 view .LVU406
 1213 0020 06FB00F0 		mul	r0, r6, r0
 1214              	.LVL192:
  80:Drivers/BSP/Components/vl53l1cb/modules/vl53l1_sigma_estimate.c **** 
 1215              		.loc 1 80 4 view .LVU407
 1216 0024 FFF7FEFF 		bl	VL53L1_f_043
 1217              	.LVL193:
  84:Drivers/BSP/Components/vl53l1cb/modules/vl53l1_sigma_estimate.c **** 			((VL53L1_SPEED_OF_LIGHT_IN_AIR + 1000) / 2000) *
 1218              		.loc 1 84 3 is_stmt 1 view .LVU408
  84:Drivers/BSP/Components/vl53l1cb/modules/vl53l1_sigma_estimate.c **** 			((VL53L1_SPEED_OF_LIGHT_IN_AIR + 1000) / 2000) *
 1219              		.loc 1 84 24 is_stmt 0 view .LVU409
 1220 0028 9623     		movs	r3, #150
 1221 002a 03FB00F6 		mul	r6, r3, r0
 1222              	.LVL194:
  90:Drivers/BSP/Components/vl53l1cb/modules/vl53l1_sigma_estimate.c **** 			VL53L1_isqrt(12 * (uint32_t)pdata->VL53L1_p_013);
 1223              		.loc 1 90 3 is_stmt 1 view .LVU410
  91:Drivers/BSP/Components/vl53l1cb/modules/vl53l1_sigma_estimate.c **** 
 1224              		.loc 1 91 37 is_stmt 0 view .LVU411
 1225 002e E06A     		ldr	r0, [r4, #44]
  91:Drivers/BSP/Components/vl53l1cb/modules/vl53l1_sigma_estimate.c **** 
 1226              		.loc 1 91 4 view .LVU412
 1227 0030 00EB4000 		add	r0, r0, r0, lsl #1
 1228 0034 8000     		lsls	r0, r0, #2
 1229 0036 FFF7FEFF 		bl	VL53L1_isqrt
 1230              	.LVL195:
  93:Drivers/BSP/Components/vl53l1cb/modules/vl53l1_sigma_estimate.c **** 
 1231              		.loc 1 93 3 is_stmt 1 view .LVU413
  93:Drivers/BSP/Components/vl53l1cb/modules/vl53l1_sigma_estimate.c **** 
 1232              		.loc 1 93 6 is_stmt 0 view .LVU414
 1233 003a 10B9     		cbnz	r0, .L73
 109:Drivers/BSP/Components/vl53l1cb/modules/vl53l1_sigma_estimate.c **** 		}
 1234              		.loc 1 109 14 view .LVU415
 1235 003c 4FF6FF70 		movw	r0, #65535
 1236              	.LVL196:
 109:Drivers/BSP/Components/vl53l1cb/modules/vl53l1_sigma_estimate.c **** 		}
 1237              		.loc 1 109 14 view .LVU416
 1238 0040 0CE0     		b	.L68
 1239              	.LVL197:
 1240              	.L73:
  95:Drivers/BSP/Components/vl53l1cb/modules/vl53l1_sigma_estimate.c **** 					(sigma_est__rtn_array + tmp2/2) / tmp2;
 1241              		.loc 1 95 4 is_stmt 1 view .LVU417
  96:Drivers/BSP/Components/vl53l1cb/modules/vl53l1_sigma_estimate.c **** 
 1242              		.loc 1 96 28 is_stmt 0 view .LVU418
 1243 0042 06EB5006 		add	r6, r6, r0, lsr #1
 1244              	.LVL198:
 100:Drivers/BSP/Components/vl53l1cb/modules/vl53l1_sigma_estimate.c **** 				100 * (uint32_t)sigma_estimator__sigma_ref_mm;
 1245              		.loc 1 100 4 is_stmt 1 view .LVU419
 103:Drivers/BSP/Components/vl53l1cb/modules/vl53l1_sigma_estimate.c **** 				(uint16_t)VL53L1_f_043(
ARM GAS  C:\Temp\ccKqr3fi.s 			page 34


 1246              		.loc 1 103 4 view .LVU420
 104:Drivers/BSP/Components/vl53l1cb/modules/vl53l1_sigma_estimate.c **** 						(uint32_t)sigma_est__ref_array,
 1247              		.loc 1 104 15 is_stmt 0 view .LVU421
 1248 0046 B6FBF0F1 		udiv	r1, r6, r0
 1249              	.LVL199:
 104:Drivers/BSP/Components/vl53l1cb/modules/vl53l1_sigma_estimate.c **** 						(uint32_t)sigma_est__ref_array,
 1250              		.loc 1 104 15 view .LVU422
 1251 004a 6420     		movs	r0, #100
 1252              	.LVL200:
 104:Drivers/BSP/Components/vl53l1cb/modules/vl53l1_sigma_estimate.c **** 						(uint32_t)sigma_est__ref_array,
 1253              		.loc 1 104 15 view .LVU423
 1254 004c 05FB00F0 		mul	r0, r5, r0
 1255              	.LVL201:
 104:Drivers/BSP/Components/vl53l1cb/modules/vl53l1_sigma_estimate.c **** 						(uint32_t)sigma_est__ref_array,
 1256              		.loc 1 104 15 view .LVU424
 1257 0050 FFF7FEFF 		bl	VL53L1_f_043
 1258              	.LVL202:
 103:Drivers/BSP/Components/vl53l1cb/modules/vl53l1_sigma_estimate.c **** 				(uint16_t)VL53L1_f_043(
 1259              		.loc 1 103 14 view .LVU425
 1260 0054 80B2     		uxth	r0, r0
 1261              	.LVL203:
 103:Drivers/BSP/Components/vl53l1cb/modules/vl53l1_sigma_estimate.c **** 				(uint16_t)VL53L1_f_043(
 1262              		.loc 1 103 14 view .LVU426
 1263 0056 01E0     		b	.L68
 1264              	.LVL204:
 1265              	.L69:
  48:Drivers/BSP/Components/vl53l1cb/modules/vl53l1_sigma_estimate.c **** 
 1266              		.loc 1 48 14 view .LVU427
 1267 0058 4FF6FF70 		movw	r0, #65535
 1268              	.LVL205:
 1269              	.L68:
 114:Drivers/BSP/Components/vl53l1cb/modules/vl53l1_sigma_estimate.c **** 
 1270              		.loc 1 114 2 is_stmt 1 view .LVU428
 114:Drivers/BSP/Components/vl53l1cb/modules/vl53l1_sigma_estimate.c **** 
 1271              		.loc 1 114 23 is_stmt 0 view .LVU429
 1272 005c A087     		strh	r0, [r4, #60]	@ movhi
 116:Drivers/BSP/Components/vl53l1cb/modules/vl53l1_sigma_estimate.c **** 
 1273              		.loc 1 116 21 is_stmt 1 view .LVU430
 118:Drivers/BSP/Components/vl53l1cb/modules/vl53l1_sigma_estimate.c **** 
 1274              		.loc 1 118 2 view .LVU431
 120:Drivers/BSP/Components/vl53l1cb/modules/vl53l1_sigma_estimate.c **** 
 1275              		.loc 1 120 1 is_stmt 0 view .LVU432
 1276 005e 70BD     		pop	{r4, r5, r6, pc}
 1277              	.LVL206:
 1278              	.L70:
  48:Drivers/BSP/Components/vl53l1cb/modules/vl53l1_sigma_estimate.c **** 
 1279              		.loc 1 48 14 view .LVU433
 1280 0060 4FF6FF70 		movw	r0, #65535
 1281              	.LVL207:
  48:Drivers/BSP/Components/vl53l1cb/modules/vl53l1_sigma_estimate.c **** 
 1282              		.loc 1 48 14 view .LVU434
 1283 0064 FAE7     		b	.L68
 1284              		.cfi_endproc
 1285              	.LFE3:
 1287              		.text
 1288              	.Letext0:
 1289              		.file 2 "c:\\users\\jessejabezarendse\\appdata\\roaming\\code\\user\\globalstorage\\bmd.stm32-for-
ARM GAS  C:\Temp\ccKqr3fi.s 			page 35


 1290              		.file 3 "c:\\users\\jessejabezarendse\\appdata\\roaming\\code\\user\\globalstorage\\bmd.stm32-for-
 1291              		.file 4 "Drivers/BSP/Components/vl53l1cb/modules/vl53l1_error_codes.h"
 1292              		.file 5 "Drivers/BSP/Components/vl53l1cb/modules/vl53l1_ll_def.h"
 1293              		.file 6 "Drivers/BSP/Components/vl53l1cb/modules/vl53l1_core_support.h"
ARM GAS  C:\Temp\ccKqr3fi.s 			page 36

