ARM GAS  C:\Temp\ccEewVJn.s 			page 1


   1              		.cpu cortex-m4
   2              		.arch armv7e-m
   3              		.fpu fpv4-sp-d16
   4              		.eabi_attribute 27, 1
   5              		.eabi_attribute 28, 1
   6              		.eabi_attribute 20, 1
   7              		.eabi_attribute 21, 1
   8              		.eabi_attribute 23, 3
   9              		.eabi_attribute 24, 1
  10              		.eabi_attribute 25, 1
  11              		.eabi_attribute 26, 1
  12              		.eabi_attribute 30, 1
  13              		.eabi_attribute 34, 1
  14              		.eabi_attribute 18, 4
  15              		.file	"vl53l1_core_support.c"
  16              		.text
  17              	.Ltext0:
  18              		.cfi_sections	.debug_frame
  19              		.file 1 "Drivers/BSP/Components/vl53l1cb/modules/vl53l1_core_support.c"
  20              		.section	.text.VL53L1_calc_pll_period_us,"ax",%progbits
  21              		.align	1
  22              		.global	VL53L1_calc_pll_period_us
  23              		.syntax unified
  24              		.thumb
  25              		.thumb_func
  27              	VL53L1_calc_pll_period_us:
  28              	.LVL0:
  29              	.LFB3:
   1:Drivers/BSP/Components/vl53l1cb/modules/vl53l1_core_support.c **** /**
   2:Drivers/BSP/Components/vl53l1cb/modules/vl53l1_core_support.c ****  ******************************************************************************
   3:Drivers/BSP/Components/vl53l1cb/modules/vl53l1_core_support.c ****  * Copyright (c) 2020, STMicroelectronics - All Rights Reserved
   4:Drivers/BSP/Components/vl53l1cb/modules/vl53l1_core_support.c ****  *
   5:Drivers/BSP/Components/vl53l1cb/modules/vl53l1_core_support.c ****  * This software is licensed under terms that can be found in the LICENSE file
   6:Drivers/BSP/Components/vl53l1cb/modules/vl53l1_core_support.c ****  * in the root directory of this software component.
   7:Drivers/BSP/Components/vl53l1cb/modules/vl53l1_core_support.c ****  * If no LICENSE file comes with this software, it is provided AS-IS.
   8:Drivers/BSP/Components/vl53l1cb/modules/vl53l1_core_support.c ****  *
   9:Drivers/BSP/Components/vl53l1cb/modules/vl53l1_core_support.c ****  ******************************************************************************
  10:Drivers/BSP/Components/vl53l1cb/modules/vl53l1_core_support.c ****  */
  11:Drivers/BSP/Components/vl53l1cb/modules/vl53l1_core_support.c **** 
  12:Drivers/BSP/Components/vl53l1cb/modules/vl53l1_core_support.c **** 
  13:Drivers/BSP/Components/vl53l1cb/modules/vl53l1_core_support.c **** 
  14:Drivers/BSP/Components/vl53l1cb/modules/vl53l1_core_support.c **** 
  15:Drivers/BSP/Components/vl53l1cb/modules/vl53l1_core_support.c **** #include "vl53l1_ll_def.h"
  16:Drivers/BSP/Components/vl53l1cb/modules/vl53l1_core_support.c **** #include "vl53l1_ll_device.h"
  17:Drivers/BSP/Components/vl53l1cb/modules/vl53l1_core_support.c **** #include "vl53l1_platform_log.h"
  18:Drivers/BSP/Components/vl53l1cb/modules/vl53l1_core_support.c **** #include "vl53l1_core_support.h"
  19:Drivers/BSP/Components/vl53l1cb/modules/vl53l1_core_support.c **** #include "vl53l1_platform_user_data.h"
  20:Drivers/BSP/Components/vl53l1cb/modules/vl53l1_core_support.c **** #include "vl53l1_platform_user_defines.h"
  21:Drivers/BSP/Components/vl53l1cb/modules/vl53l1_core_support.c **** 
  22:Drivers/BSP/Components/vl53l1cb/modules/vl53l1_core_support.c **** 
  23:Drivers/BSP/Components/vl53l1cb/modules/vl53l1_core_support.c **** 
  24:Drivers/BSP/Components/vl53l1cb/modules/vl53l1_core_support.c **** #define LOG_FUNCTION_START(fmt, ...) \
  25:Drivers/BSP/Components/vl53l1cb/modules/vl53l1_core_support.c **** 	_LOG_FUNCTION_START(VL53L1_TRACE_MODULE_CORE, fmt, ##__VA_ARGS__)
  26:Drivers/BSP/Components/vl53l1cb/modules/vl53l1_core_support.c **** #define LOG_FUNCTION_END(status, ...) \
  27:Drivers/BSP/Components/vl53l1cb/modules/vl53l1_core_support.c **** 	_LOG_FUNCTION_END(VL53L1_TRACE_MODULE_CORE, status, ##__VA_ARGS__)
  28:Drivers/BSP/Components/vl53l1cb/modules/vl53l1_core_support.c **** #define LOG_FUNCTION_END_FMT(status, fmt, ...) \
  29:Drivers/BSP/Components/vl53l1cb/modules/vl53l1_core_support.c **** 	_LOG_FUNCTION_END_FMT(VL53L1_TRACE_MODULE_CORE, \
ARM GAS  C:\Temp\ccEewVJn.s 			page 2


  30:Drivers/BSP/Components/vl53l1cb/modules/vl53l1_core_support.c **** 		status, fmt, ##__VA_ARGS__)
  31:Drivers/BSP/Components/vl53l1cb/modules/vl53l1_core_support.c **** 
  32:Drivers/BSP/Components/vl53l1cb/modules/vl53l1_core_support.c **** #define trace_print(level, ...) \
  33:Drivers/BSP/Components/vl53l1cb/modules/vl53l1_core_support.c **** 	_LOG_TRACE_PRINT(VL53L1_TRACE_MODULE_CORE, \
  34:Drivers/BSP/Components/vl53l1cb/modules/vl53l1_core_support.c **** 	level, VL53L1_TRACE_FUNCTION_NONE, ##__VA_ARGS__)
  35:Drivers/BSP/Components/vl53l1cb/modules/vl53l1_core_support.c **** 
  36:Drivers/BSP/Components/vl53l1cb/modules/vl53l1_core_support.c **** 
  37:Drivers/BSP/Components/vl53l1cb/modules/vl53l1_core_support.c **** uint32_t VL53L1_calc_pll_period_us(
  38:Drivers/BSP/Components/vl53l1cb/modules/vl53l1_core_support.c **** 	uint16_t  fast_osc_frequency)
  39:Drivers/BSP/Components/vl53l1cb/modules/vl53l1_core_support.c **** {
  30              		.loc 1 39 1 view -0
  31              		.cfi_startproc
  32              		@ args = 0, pretend = 0, frame = 0
  33              		@ frame_needed = 0, uses_anonymous_args = 0
  34              		@ link register save eliminated.
  40:Drivers/BSP/Components/vl53l1cb/modules/vl53l1_core_support.c **** 
  41:Drivers/BSP/Components/vl53l1cb/modules/vl53l1_core_support.c **** 
  42:Drivers/BSP/Components/vl53l1cb/modules/vl53l1_core_support.c **** 	uint32_t  pll_period_us        = 0;
  35              		.loc 1 42 2 view .LVU1
  43:Drivers/BSP/Components/vl53l1cb/modules/vl53l1_core_support.c **** 
  44:Drivers/BSP/Components/vl53l1cb/modules/vl53l1_core_support.c **** 	LOG_FUNCTION_START("");
  36              		.loc 1 44 24 view .LVU2
  45:Drivers/BSP/Components/vl53l1cb/modules/vl53l1_core_support.c **** 
  46:Drivers/BSP/Components/vl53l1cb/modules/vl53l1_core_support.c **** 	if (fast_osc_frequency > 0)
  37              		.loc 1 46 2 view .LVU3
  38              		.loc 1 46 5 is_stmt 0 view .LVU4
  39 0000 0346     		mov	r3, r0
  40 0002 20B1     		cbz	r0, .L3
  47:Drivers/BSP/Components/vl53l1cb/modules/vl53l1_core_support.c **** 		pll_period_us = (0x01 << 30) / fast_osc_frequency;
  41              		.loc 1 47 3 is_stmt 1 view .LVU5
  42              		.loc 1 47 32 is_stmt 0 view .LVU6
  43 0004 4FF08040 		mov	r0, #1073741824
  44              	.LVL1:
  45              		.loc 1 47 32 view .LVU7
  46 0008 90FBF3F0 		sdiv	r0, r0, r3
  47              	.LVL2:
  48              		.loc 1 47 32 view .LVU8
  49 000c 7047     		bx	lr
  50              	.LVL3:
  51              	.L3:
  42:Drivers/BSP/Components/vl53l1cb/modules/vl53l1_core_support.c **** 
  52              		.loc 1 42 12 view .LVU9
  53 000e 0020     		movs	r0, #0
  54              	.LVL4:
  48:Drivers/BSP/Components/vl53l1cb/modules/vl53l1_core_support.c **** 
  49:Drivers/BSP/Components/vl53l1cb/modules/vl53l1_core_support.c **** 
  50:Drivers/BSP/Components/vl53l1cb/modules/vl53l1_core_support.c **** 
  51:Drivers/BSP/Components/vl53l1cb/modules/vl53l1_core_support.c **** 	LOG_FUNCTION_END(0);
  55              		.loc 1 51 21 is_stmt 1 view .LVU10
  52:Drivers/BSP/Components/vl53l1cb/modules/vl53l1_core_support.c **** 
  53:Drivers/BSP/Components/vl53l1cb/modules/vl53l1_core_support.c **** 	return pll_period_us;
  56              		.loc 1 53 2 view .LVU11
  54:Drivers/BSP/Components/vl53l1cb/modules/vl53l1_core_support.c **** }
  57              		.loc 1 54 1 is_stmt 0 view .LVU12
  58 0010 7047     		bx	lr
  59              		.cfi_endproc
  60              	.LFE3:
ARM GAS  C:\Temp\ccEewVJn.s 			page 3


  62              		.section	.text.VL53L1_duration_maths,"ax",%progbits
  63              		.align	1
  64              		.global	VL53L1_duration_maths
  65              		.syntax unified
  66              		.thumb
  67              		.thumb_func
  69              	VL53L1_duration_maths:
  70              	.LVL5:
  71              	.LFB4:
  55:Drivers/BSP/Components/vl53l1cb/modules/vl53l1_core_support.c **** 
  56:Drivers/BSP/Components/vl53l1cb/modules/vl53l1_core_support.c **** 
  57:Drivers/BSP/Components/vl53l1cb/modules/vl53l1_core_support.c **** uint32_t  VL53L1_duration_maths(
  58:Drivers/BSP/Components/vl53l1cb/modules/vl53l1_core_support.c **** 	uint32_t  pll_period_us,
  59:Drivers/BSP/Components/vl53l1cb/modules/vl53l1_core_support.c **** 	uint32_t  vcsel_parm_pclks,
  60:Drivers/BSP/Components/vl53l1cb/modules/vl53l1_core_support.c **** 	uint32_t  window_vclks,
  61:Drivers/BSP/Components/vl53l1cb/modules/vl53l1_core_support.c **** 	uint32_t  elapsed_mclks)
  62:Drivers/BSP/Components/vl53l1cb/modules/vl53l1_core_support.c **** {
  72              		.loc 1 62 1 is_stmt 1 view -0
  73              		.cfi_startproc
  74              		@ args = 0, pretend = 0, frame = 0
  75              		@ frame_needed = 0, uses_anonymous_args = 0
  76              		@ link register save eliminated.
  63:Drivers/BSP/Components/vl53l1cb/modules/vl53l1_core_support.c **** 
  64:Drivers/BSP/Components/vl53l1cb/modules/vl53l1_core_support.c **** 
  65:Drivers/BSP/Components/vl53l1cb/modules/vl53l1_core_support.c **** 	uint64_t  tmp_long_int = 0;
  77              		.loc 1 65 2 view .LVU14
  66:Drivers/BSP/Components/vl53l1cb/modules/vl53l1_core_support.c **** 	uint32_t  duration_us  = 0;
  78              		.loc 1 66 2 view .LVU15
  67:Drivers/BSP/Components/vl53l1cb/modules/vl53l1_core_support.c **** 
  68:Drivers/BSP/Components/vl53l1cb/modules/vl53l1_core_support.c **** 
  69:Drivers/BSP/Components/vl53l1cb/modules/vl53l1_core_support.c **** 	duration_us = window_vclks * pll_period_us;
  79              		.loc 1 69 2 view .LVU16
  80              		.loc 1 69 14 is_stmt 0 view .LVU17
  81 0000 00FB02F2 		mul	r2, r0, r2
  82              	.LVL6:
  70:Drivers/BSP/Components/vl53l1cb/modules/vl53l1_core_support.c **** 
  71:Drivers/BSP/Components/vl53l1cb/modules/vl53l1_core_support.c **** 
  72:Drivers/BSP/Components/vl53l1cb/modules/vl53l1_core_support.c **** 	duration_us = duration_us >> 12;
  83              		.loc 1 72 2 is_stmt 1 view .LVU18
  84              		.loc 1 72 14 is_stmt 0 view .LVU19
  85 0004 120B     		lsrs	r2, r2, #12
  86              	.LVL7:
  73:Drivers/BSP/Components/vl53l1cb/modules/vl53l1_core_support.c **** 
  74:Drivers/BSP/Components/vl53l1cb/modules/vl53l1_core_support.c **** 
  75:Drivers/BSP/Components/vl53l1cb/modules/vl53l1_core_support.c **** 	tmp_long_int = (uint64_t)duration_us;
  87              		.loc 1 75 2 is_stmt 1 view .LVU20
  76:Drivers/BSP/Components/vl53l1cb/modules/vl53l1_core_support.c **** 
  77:Drivers/BSP/Components/vl53l1cb/modules/vl53l1_core_support.c **** 
  78:Drivers/BSP/Components/vl53l1cb/modules/vl53l1_core_support.c **** 	duration_us = elapsed_mclks * vcsel_parm_pclks;
  88              		.loc 1 78 2 view .LVU21
  89              		.loc 1 78 14 is_stmt 0 view .LVU22
  90 0006 01FB03F0 		mul	r0, r1, r3
  91              	.LVL8:
  79:Drivers/BSP/Components/vl53l1cb/modules/vl53l1_core_support.c **** 
  80:Drivers/BSP/Components/vl53l1cb/modules/vl53l1_core_support.c **** 
  81:Drivers/BSP/Components/vl53l1cb/modules/vl53l1_core_support.c **** 	duration_us = duration_us >> 4;
  92              		.loc 1 81 2 is_stmt 1 view .LVU23
ARM GAS  C:\Temp\ccEewVJn.s 			page 4


  93              		.loc 1 81 14 is_stmt 0 view .LVU24
  94 000a 0009     		lsrs	r0, r0, #4
  95              	.LVL9:
  82:Drivers/BSP/Components/vl53l1cb/modules/vl53l1_core_support.c **** 
  83:Drivers/BSP/Components/vl53l1cb/modules/vl53l1_core_support.c **** 
  84:Drivers/BSP/Components/vl53l1cb/modules/vl53l1_core_support.c **** 	tmp_long_int = tmp_long_int * (uint64_t)duration_us;
  96              		.loc 1 84 2 is_stmt 1 view .LVU25
  97              		.loc 1 84 15 is_stmt 0 view .LVU26
  98 000c A0FB0202 		umull	r0, r2, r0, r2
  99              	.LVL10:
  85:Drivers/BSP/Components/vl53l1cb/modules/vl53l1_core_support.c **** 
  86:Drivers/BSP/Components/vl53l1cb/modules/vl53l1_core_support.c **** 
  87:Drivers/BSP/Components/vl53l1cb/modules/vl53l1_core_support.c **** 	tmp_long_int = tmp_long_int >> 12;
 100              		.loc 1 87 2 is_stmt 1 view .LVU27
 101              		.loc 1 87 15 is_stmt 0 view .LVU28
 102 0010 000B     		lsrs	r0, r0, #12
 103              	.LVL11:
 104              		.loc 1 87 15 view .LVU29
 105 0012 40EA0250 		orr	r0, r0, r2, lsl #20
 106 0016 120B     		lsrs	r2, r2, #12
 107              	.LVL12:
  88:Drivers/BSP/Components/vl53l1cb/modules/vl53l1_core_support.c **** 
  89:Drivers/BSP/Components/vl53l1cb/modules/vl53l1_core_support.c **** 
  90:Drivers/BSP/Components/vl53l1cb/modules/vl53l1_core_support.c **** 	if (tmp_long_int > 0xFFFFFFFF)
 108              		.loc 1 90 2 is_stmt 1 view .LVU30
 109              		.loc 1 90 5 is_stmt 0 view .LVU31
 110 0018 4FF0FF33 		mov	r3, #-1
 111              	.LVL13:
 112              		.loc 1 90 5 view .LVU32
 113 001c 8342     		cmp	r3, r0
 114 001e 4FF00003 		mov	r3, #0
 115 0022 9341     		sbcs	r3, r3, r2
 116 0024 01D2     		bcs	.L5
  91:Drivers/BSP/Components/vl53l1cb/modules/vl53l1_core_support.c **** 		tmp_long_int = 0xFFFFFFFF;
 117              		.loc 1 91 16 view .LVU33
 118 0026 4FF0FF30 		mov	r0, #-1
 119              	.LVL14:
 120              	.L5:
  92:Drivers/BSP/Components/vl53l1cb/modules/vl53l1_core_support.c **** 
  93:Drivers/BSP/Components/vl53l1cb/modules/vl53l1_core_support.c **** 	duration_us  = (uint32_t)tmp_long_int;
 121              		.loc 1 93 2 is_stmt 1 view .LVU34
  94:Drivers/BSP/Components/vl53l1cb/modules/vl53l1_core_support.c **** 
  95:Drivers/BSP/Components/vl53l1cb/modules/vl53l1_core_support.c **** 	return duration_us;
 122              		.loc 1 95 2 view .LVU35
  96:Drivers/BSP/Components/vl53l1cb/modules/vl53l1_core_support.c **** }
 123              		.loc 1 96 1 is_stmt 0 view .LVU36
 124 002a 7047     		bx	lr
 125              		.cfi_endproc
 126              	.LFE4:
 128              		.global	__aeabi_uldivmod
 129              		.section	.text.VL53L1_events_per_spad_maths,"ax",%progbits
 130              		.align	1
 131              		.global	VL53L1_events_per_spad_maths
 132              		.syntax unified
 133              		.thumb
 134              		.thumb_func
 136              	VL53L1_events_per_spad_maths:
ARM GAS  C:\Temp\ccEewVJn.s 			page 5


 137              	.LVL15:
 138              	.LFB5:
  97:Drivers/BSP/Components/vl53l1cb/modules/vl53l1_core_support.c **** 
  98:Drivers/BSP/Components/vl53l1cb/modules/vl53l1_core_support.c **** 
  99:Drivers/BSP/Components/vl53l1cb/modules/vl53l1_core_support.c **** uint32_t VL53L1_events_per_spad_maths(
 100:Drivers/BSP/Components/vl53l1cb/modules/vl53l1_core_support.c **** 	int32_t   VL53L1_p_013,
 101:Drivers/BSP/Components/vl53l1cb/modules/vl53l1_core_support.c **** 	uint16_t  num_spads,
 102:Drivers/BSP/Components/vl53l1cb/modules/vl53l1_core_support.c **** 	uint32_t  duration)
 103:Drivers/BSP/Components/vl53l1cb/modules/vl53l1_core_support.c **** {
 139              		.loc 1 103 1 is_stmt 1 view -0
 140              		.cfi_startproc
 141              		@ args = 0, pretend = 0, frame = 0
 142              		@ frame_needed = 0, uses_anonymous_args = 0
 143              		.loc 1 103 1 is_stmt 0 view .LVU38
 144 0000 10B5     		push	{r4, lr}
 145              		.cfi_def_cfa_offset 8
 146              		.cfi_offset 4, -8
 147              		.cfi_offset 14, -4
 148 0002 1446     		mov	r4, r2
 104:Drivers/BSP/Components/vl53l1cb/modules/vl53l1_core_support.c **** 	uint64_t total_hist_counts  = 0;
 149              		.loc 1 104 2 is_stmt 1 view .LVU39
 150              	.LVL16:
 105:Drivers/BSP/Components/vl53l1cb/modules/vl53l1_core_support.c **** 	uint64_t xtalk_per_spad     = 0;
 151              		.loc 1 105 2 view .LVU40
 106:Drivers/BSP/Components/vl53l1cb/modules/vl53l1_core_support.c **** 	uint32_t rate_per_spad_kcps = 0;
 152              		.loc 1 106 2 view .LVU41
 107:Drivers/BSP/Components/vl53l1cb/modules/vl53l1_core_support.c **** 
 108:Drivers/BSP/Components/vl53l1cb/modules/vl53l1_core_support.c **** 
 109:Drivers/BSP/Components/vl53l1cb/modules/vl53l1_core_support.c **** 
 110:Drivers/BSP/Components/vl53l1cb/modules/vl53l1_core_support.c **** 
 111:Drivers/BSP/Components/vl53l1cb/modules/vl53l1_core_support.c **** 
 112:Drivers/BSP/Components/vl53l1cb/modules/vl53l1_core_support.c **** 
 113:Drivers/BSP/Components/vl53l1cb/modules/vl53l1_core_support.c **** 	uint64_t dividend = ((uint64_t)VL53L1_p_013
 153              		.loc 1 113 2 view .LVU42
 154              		.loc 1 113 23 is_stmt 0 view .LVU43
 155 0004 4FEAE07C 		asr	ip, r0, #31
 156              		.loc 1 113 11 view .LVU44
 157 0008 4FEA4C12 		lsl	r2, ip, #5
 158              	.LVL17:
 159              		.loc 1 113 11 view .LVU45
 160 000c 42EAD062 		orr	r2, r2, r0, lsr #27
 161 0010 4301     		lsls	r3, r0, #5
 162 0012 1B1A     		subs	r3, r3, r0
 163 0014 62EB0C02 		sbc	r2, r2, ip
 164 0018 9200     		lsls	r2, r2, #2
 165 001a 42EA9372 		orr	r2, r2, r3, lsr #30
 166 001e 9B00     		lsls	r3, r3, #2
 167 0020 1B18     		adds	r3, r3, r0
 168 0022 4CEB020C 		adc	ip, ip, r2
 169 0026 4FEACC2C 		lsl	ip, ip, #11
 170 002a 4CEA535C 		orr	ip, ip, r3, lsr #21
 171              	.LVL18:
 114:Drivers/BSP/Components/vl53l1cb/modules/vl53l1_core_support.c **** 			* 1000 * 256);
 115:Drivers/BSP/Components/vl53l1cb/modules/vl53l1_core_support.c **** 
 116:Drivers/BSP/Components/vl53l1cb/modules/vl53l1_core_support.c **** 	if (num_spads != 0)
 172              		.loc 1 116 2 is_stmt 1 view .LVU46
 173              		.loc 1 116 5 is_stmt 0 view .LVU47
ARM GAS  C:\Temp\ccEewVJn.s 			page 6


 174 002e A1B1     		cbz	r1, .L11
 175 0030 D802     		lsls	r0, r3, #11
 176              	.LVL19:
 177              		.loc 1 116 5 view .LVU48
 178 0032 0A46     		mov	r2, r1
 117:Drivers/BSP/Components/vl53l1cb/modules/vl53l1_core_support.c **** 		total_hist_counts = do_division_u(
 179              		.loc 1 117 3 is_stmt 1 view .LVU49
 180              		.loc 1 117 21 is_stmt 0 view .LVU50
 181 0034 0023     		movs	r3, #0
 182 0036 6146     		mov	r1, ip
 183              	.LVL20:
 184              		.loc 1 117 21 view .LVU51
 185 0038 FFF7FEFF 		bl	__aeabi_uldivmod
 186              	.LVL21:
 187              	.L8:
 118:Drivers/BSP/Components/vl53l1cb/modules/vl53l1_core_support.c **** 				dividend, (uint64_t)num_spads);
 119:Drivers/BSP/Components/vl53l1cb/modules/vl53l1_core_support.c **** 
 120:Drivers/BSP/Components/vl53l1cb/modules/vl53l1_core_support.c **** 
 121:Drivers/BSP/Components/vl53l1cb/modules/vl53l1_core_support.c **** 
 122:Drivers/BSP/Components/vl53l1cb/modules/vl53l1_core_support.c **** 	if (duration > 0) {
 188              		.loc 1 122 2 is_stmt 1 view .LVU52
 189              		.loc 1 122 5 is_stmt 0 view .LVU53
 190 003c 84B1     		cbz	r4, .L9
 191              	.LBB2:
 123:Drivers/BSP/Components/vl53l1cb/modules/vl53l1_core_support.c **** 
 124:Drivers/BSP/Components/vl53l1cb/modules/vl53l1_core_support.c **** 
 125:Drivers/BSP/Components/vl53l1cb/modules/vl53l1_core_support.c **** 		uint64_t dividend = (((uint64_t)(total_hist_counts << 11))
 192              		.loc 1 125 3 is_stmt 1 view .LVU54
 193              		.loc 1 125 54 is_stmt 0 view .LVU55
 194 003e C902     		lsls	r1, r1, #11
 195 0040 41EA5051 		orr	r1, r1, r0, lsr #21
 196 0044 C002     		lsls	r0, r0, #11
 126:Drivers/BSP/Components/vl53l1cb/modules/vl53l1_core_support.c **** 			+ ((uint64_t)duration / 2));
 197              		.loc 1 126 26 view .LVU56
 198 0046 6308     		lsrs	r3, r4, #1
 125:Drivers/BSP/Components/vl53l1cb/modules/vl53l1_core_support.c **** 			+ ((uint64_t)duration / 2));
 199              		.loc 1 125 12 view .LVU57
 200 0048 C018     		adds	r0, r0, r3
 201              	.LVL22:
 127:Drivers/BSP/Components/vl53l1cb/modules/vl53l1_core_support.c **** 
 128:Drivers/BSP/Components/vl53l1cb/modules/vl53l1_core_support.c **** 		xtalk_per_spad = do_division_u(dividend, (uint64_t)duration);
 202              		.loc 1 128 3 is_stmt 1 view .LVU58
 203              		.loc 1 128 18 is_stmt 0 view .LVU59
 204 004a 2246     		mov	r2, r4
 205 004c 4FF00003 		mov	r3, #0
 206 0050 41F10001 		adc	r1, r1, #0
 207              	.LVL23:
 208              		.loc 1 128 18 view .LVU60
 209 0054 FFF7FEFF 		bl	__aeabi_uldivmod
 210              	.LVL24:
 211              	.L10:
 212              		.loc 1 128 18 view .LVU61
 213              	.LBE2:
 129:Drivers/BSP/Components/vl53l1cb/modules/vl53l1_core_support.c **** 	} else {
 130:Drivers/BSP/Components/vl53l1cb/modules/vl53l1_core_support.c **** 		xtalk_per_spad =   (uint64_t)(total_hist_counts << 11);
 131:Drivers/BSP/Components/vl53l1cb/modules/vl53l1_core_support.c **** 	}
 132:Drivers/BSP/Components/vl53l1cb/modules/vl53l1_core_support.c **** 
ARM GAS  C:\Temp\ccEewVJn.s 			page 7


 133:Drivers/BSP/Components/vl53l1cb/modules/vl53l1_core_support.c **** 	rate_per_spad_kcps = (uint32_t)xtalk_per_spad;
 214              		.loc 1 133 2 is_stmt 1 view .LVU62
 134:Drivers/BSP/Components/vl53l1cb/modules/vl53l1_core_support.c **** 
 135:Drivers/BSP/Components/vl53l1cb/modules/vl53l1_core_support.c **** 	return rate_per_spad_kcps;
 215              		.loc 1 135 2 view .LVU63
 136:Drivers/BSP/Components/vl53l1cb/modules/vl53l1_core_support.c **** }
 216              		.loc 1 136 1 is_stmt 0 view .LVU64
 217 0058 10BD     		pop	{r4, pc}
 218              	.LVL25:
 219              	.L11:
 104:Drivers/BSP/Components/vl53l1cb/modules/vl53l1_core_support.c **** 	uint64_t xtalk_per_spad     = 0;
 220              		.loc 1 104 11 view .LVU65
 221 005a 0020     		movs	r0, #0
 222              	.LVL26:
 104:Drivers/BSP/Components/vl53l1cb/modules/vl53l1_core_support.c **** 	uint64_t xtalk_per_spad     = 0;
 223              		.loc 1 104 11 view .LVU66
 224 005c 0146     		mov	r1, r0
 225              	.LVL27:
 104:Drivers/BSP/Components/vl53l1cb/modules/vl53l1_core_support.c **** 	uint64_t xtalk_per_spad     = 0;
 226              		.loc 1 104 11 view .LVU67
 227 005e EDE7     		b	.L8
 228              	.LVL28:
 229              	.L9:
 130:Drivers/BSP/Components/vl53l1cb/modules/vl53l1_core_support.c **** 	}
 230              		.loc 1 130 3 is_stmt 1 view .LVU68
 130:Drivers/BSP/Components/vl53l1cb/modules/vl53l1_core_support.c **** 	}
 231              		.loc 1 130 18 is_stmt 0 view .LVU69
 232 0060 C002     		lsls	r0, r0, #11
 233              	.LVL29:
 130:Drivers/BSP/Components/vl53l1cb/modules/vl53l1_core_support.c **** 	}
 234              		.loc 1 130 18 view .LVU70
 235 0062 F9E7     		b	.L10
 236              		.cfi_endproc
 237              	.LFE5:
 239              		.section	.text.VL53L1_isqrt,"ax",%progbits
 240              		.align	1
 241              		.global	VL53L1_isqrt
 242              		.syntax unified
 243              		.thumb
 244              		.thumb_func
 246              	VL53L1_isqrt:
 247              	.LVL30:
 248              	.LFB6:
 137:Drivers/BSP/Components/vl53l1cb/modules/vl53l1_core_support.c **** 
 138:Drivers/BSP/Components/vl53l1cb/modules/vl53l1_core_support.c **** 
 139:Drivers/BSP/Components/vl53l1cb/modules/vl53l1_core_support.c **** uint32_t VL53L1_isqrt(uint32_t num)
 140:Drivers/BSP/Components/vl53l1cb/modules/vl53l1_core_support.c **** {
 249              		.loc 1 140 1 is_stmt 1 view -0
 250              		.cfi_startproc
 251              		@ args = 0, pretend = 0, frame = 0
 252              		@ frame_needed = 0, uses_anonymous_args = 0
 253              		@ link register save eliminated.
 254              		.loc 1 140 1 is_stmt 0 view .LVU72
 255 0000 0246     		mov	r2, r0
 141:Drivers/BSP/Components/vl53l1cb/modules/vl53l1_core_support.c **** 
 142:Drivers/BSP/Components/vl53l1cb/modules/vl53l1_core_support.c **** 
 143:Drivers/BSP/Components/vl53l1cb/modules/vl53l1_core_support.c **** 
ARM GAS  C:\Temp\ccEewVJn.s 			page 8


 144:Drivers/BSP/Components/vl53l1cb/modules/vl53l1_core_support.c **** 	uint32_t  res = 0;
 256              		.loc 1 144 2 is_stmt 1 view .LVU73
 257              	.LVL31:
 145:Drivers/BSP/Components/vl53l1cb/modules/vl53l1_core_support.c **** 	uint32_t  bit = 1 << 30;
 258              		.loc 1 145 2 view .LVU74
 146:Drivers/BSP/Components/vl53l1cb/modules/vl53l1_core_support.c **** 
 147:Drivers/BSP/Components/vl53l1cb/modules/vl53l1_core_support.c **** 
 148:Drivers/BSP/Components/vl53l1cb/modules/vl53l1_core_support.c **** 	while (bit > num)
 259              		.loc 1 148 2 view .LVU75
 145:Drivers/BSP/Components/vl53l1cb/modules/vl53l1_core_support.c **** 	uint32_t  bit = 1 << 30;
 260              		.loc 1 145 12 is_stmt 0 view .LVU76
 261 0002 4FF08043 		mov	r3, #1073741824
 262              		.loc 1 148 8 view .LVU77
 263 0006 00E0     		b	.L14
 264              	.LVL32:
 265              	.L15:
 149:Drivers/BSP/Components/vl53l1cb/modules/vl53l1_core_support.c **** 		bit >>= 2;
 266              		.loc 1 149 3 is_stmt 1 view .LVU78
 267              		.loc 1 149 7 is_stmt 0 view .LVU79
 268 0008 9B08     		lsrs	r3, r3, #2
 269              	.LVL33:
 270              	.L14:
 148:Drivers/BSP/Components/vl53l1cb/modules/vl53l1_core_support.c **** 		bit >>= 2;
 271              		.loc 1 148 13 is_stmt 1 view .LVU80
 272 000a 9342     		cmp	r3, r2
 273 000c FCD8     		bhi	.L15
 144:Drivers/BSP/Components/vl53l1cb/modules/vl53l1_core_support.c **** 	uint32_t  bit = 1 << 30;
 274              		.loc 1 144 12 is_stmt 0 view .LVU81
 275 000e 0020     		movs	r0, #0
 276              	.LVL34:
 144:Drivers/BSP/Components/vl53l1cb/modules/vl53l1_core_support.c **** 	uint32_t  bit = 1 << 30;
 277              		.loc 1 144 12 view .LVU82
 278 0010 01E0     		b	.L16
 279              	.LVL35:
 280              	.L17:
 150:Drivers/BSP/Components/vl53l1cb/modules/vl53l1_core_support.c **** 
 151:Drivers/BSP/Components/vl53l1cb/modules/vl53l1_core_support.c **** 	while (bit != 0) {
 152:Drivers/BSP/Components/vl53l1cb/modules/vl53l1_core_support.c **** 		if (num >= res + bit)  {
 153:Drivers/BSP/Components/vl53l1cb/modules/vl53l1_core_support.c **** 			num -= res + bit;
 154:Drivers/BSP/Components/vl53l1cb/modules/vl53l1_core_support.c **** 			res = (res >> 1) + bit;
 155:Drivers/BSP/Components/vl53l1cb/modules/vl53l1_core_support.c **** 		} else {
 156:Drivers/BSP/Components/vl53l1cb/modules/vl53l1_core_support.c **** 			res >>= 1;
 281              		.loc 1 156 4 is_stmt 1 view .LVU83
 282              		.loc 1 156 8 is_stmt 0 view .LVU84
 283 0012 4008     		lsrs	r0, r0, #1
 284              	.LVL36:
 285              	.L18:
 157:Drivers/BSP/Components/vl53l1cb/modules/vl53l1_core_support.c **** 		}
 158:Drivers/BSP/Components/vl53l1cb/modules/vl53l1_core_support.c **** 		bit >>= 2;
 286              		.loc 1 158 3 is_stmt 1 view .LVU85
 287              		.loc 1 158 7 is_stmt 0 view .LVU86
 288 0014 9B08     		lsrs	r3, r3, #2
 289              	.LVL37:
 290              	.L16:
 151:Drivers/BSP/Components/vl53l1cb/modules/vl53l1_core_support.c **** 		if (num >= res + bit)  {
 291              		.loc 1 151 13 is_stmt 1 view .LVU87
 292 0016 33B1     		cbz	r3, .L20
ARM GAS  C:\Temp\ccEewVJn.s 			page 9


 152:Drivers/BSP/Components/vl53l1cb/modules/vl53l1_core_support.c **** 			num -= res + bit;
 293              		.loc 1 152 3 view .LVU88
 152:Drivers/BSP/Components/vl53l1cb/modules/vl53l1_core_support.c **** 			num -= res + bit;
 294              		.loc 1 152 18 is_stmt 0 view .LVU89
 295 0018 C118     		adds	r1, r0, r3
 152:Drivers/BSP/Components/vl53l1cb/modules/vl53l1_core_support.c **** 			num -= res + bit;
 296              		.loc 1 152 6 view .LVU90
 297 001a 9142     		cmp	r1, r2
 298 001c F9D8     		bhi	.L17
 153:Drivers/BSP/Components/vl53l1cb/modules/vl53l1_core_support.c **** 			res = (res >> 1) + bit;
 299              		.loc 1 153 4 is_stmt 1 view .LVU91
 153:Drivers/BSP/Components/vl53l1cb/modules/vl53l1_core_support.c **** 			res = (res >> 1) + bit;
 300              		.loc 1 153 8 is_stmt 0 view .LVU92
 301 001e 521A     		subs	r2, r2, r1
 302              	.LVL38:
 154:Drivers/BSP/Components/vl53l1cb/modules/vl53l1_core_support.c **** 		} else {
 303              		.loc 1 154 4 is_stmt 1 view .LVU93
 154:Drivers/BSP/Components/vl53l1cb/modules/vl53l1_core_support.c **** 		} else {
 304              		.loc 1 154 8 is_stmt 0 view .LVU94
 305 0020 03EB5000 		add	r0, r3, r0, lsr #1
 306              	.LVL39:
 154:Drivers/BSP/Components/vl53l1cb/modules/vl53l1_core_support.c **** 		} else {
 307              		.loc 1 154 8 view .LVU95
 308 0024 F6E7     		b	.L18
 309              	.L20:
 159:Drivers/BSP/Components/vl53l1cb/modules/vl53l1_core_support.c **** 	}
 160:Drivers/BSP/Components/vl53l1cb/modules/vl53l1_core_support.c **** 
 161:Drivers/BSP/Components/vl53l1cb/modules/vl53l1_core_support.c **** 	return res;
 310              		.loc 1 161 2 is_stmt 1 view .LVU96
 162:Drivers/BSP/Components/vl53l1cb/modules/vl53l1_core_support.c **** }
 311              		.loc 1 162 1 is_stmt 0 view .LVU97
 312 0026 7047     		bx	lr
 313              		.cfi_endproc
 314              	.LFE6:
 316              		.section	.text.VL53L1_hist_remove_ambient_bins,"ax",%progbits
 317              		.align	1
 318              		.global	VL53L1_hist_remove_ambient_bins
 319              		.syntax unified
 320              		.thumb
 321              		.thumb_func
 323              	VL53L1_hist_remove_ambient_bins:
 324              	.LVL40:
 325              	.LFB9:
 163:Drivers/BSP/Components/vl53l1cb/modules/vl53l1_core_support.c **** 
 164:Drivers/BSP/Components/vl53l1cb/modules/vl53l1_core_support.c **** 
 165:Drivers/BSP/Components/vl53l1cb/modules/vl53l1_core_support.c **** void  VL53L1_hist_calc_zero_distance_phase(
 166:Drivers/BSP/Components/vl53l1cb/modules/vl53l1_core_support.c **** 	VL53L1_histogram_bin_data_t   *pdata)
 167:Drivers/BSP/Components/vl53l1cb/modules/vl53l1_core_support.c **** {
 168:Drivers/BSP/Components/vl53l1cb/modules/vl53l1_core_support.c **** 
 169:Drivers/BSP/Components/vl53l1cb/modules/vl53l1_core_support.c **** 
 170:Drivers/BSP/Components/vl53l1cb/modules/vl53l1_core_support.c **** 	uint32_t  period        = 0;
 171:Drivers/BSP/Components/vl53l1cb/modules/vl53l1_core_support.c **** 	uint32_t  VL53L1_p_017         = 0;
 172:Drivers/BSP/Components/vl53l1cb/modules/vl53l1_core_support.c **** 
 173:Drivers/BSP/Components/vl53l1cb/modules/vl53l1_core_support.c **** 	LOG_FUNCTION_START("");
 174:Drivers/BSP/Components/vl53l1cb/modules/vl53l1_core_support.c **** 
 175:Drivers/BSP/Components/vl53l1cb/modules/vl53l1_core_support.c **** 	period = 2048 *
 176:Drivers/BSP/Components/vl53l1cb/modules/vl53l1_core_support.c **** 		(uint32_t)VL53L1_decode_vcsel_period(pdata->VL53L1_p_009);
ARM GAS  C:\Temp\ccEewVJn.s 			page 10


 177:Drivers/BSP/Components/vl53l1cb/modules/vl53l1_core_support.c **** 
 178:Drivers/BSP/Components/vl53l1cb/modules/vl53l1_core_support.c **** 	VL53L1_p_017  = period;
 179:Drivers/BSP/Components/vl53l1cb/modules/vl53l1_core_support.c **** 	VL53L1_p_017 += (uint32_t)pdata->phasecal_result__reference_phase;
 180:Drivers/BSP/Components/vl53l1cb/modules/vl53l1_core_support.c **** 	VL53L1_p_017 += (2048 * (uint32_t)pdata->phasecal_result__vcsel_start);
 181:Drivers/BSP/Components/vl53l1cb/modules/vl53l1_core_support.c **** 	VL53L1_p_017 -= (2048 * (uint32_t)pdata->cal_config__vcsel_start);
 182:Drivers/BSP/Components/vl53l1cb/modules/vl53l1_core_support.c **** 
 183:Drivers/BSP/Components/vl53l1cb/modules/vl53l1_core_support.c **** 	if (period != 0)
 184:Drivers/BSP/Components/vl53l1cb/modules/vl53l1_core_support.c **** 		VL53L1_p_017  = VL53L1_p_017 % period;
 185:Drivers/BSP/Components/vl53l1cb/modules/vl53l1_core_support.c **** 	else
 186:Drivers/BSP/Components/vl53l1cb/modules/vl53l1_core_support.c **** 		VL53L1_p_017 = 0;
 187:Drivers/BSP/Components/vl53l1cb/modules/vl53l1_core_support.c **** 
 188:Drivers/BSP/Components/vl53l1cb/modules/vl53l1_core_support.c **** 	pdata->zero_distance_phase = (uint16_t)VL53L1_p_017;
 189:Drivers/BSP/Components/vl53l1cb/modules/vl53l1_core_support.c **** 
 190:Drivers/BSP/Components/vl53l1cb/modules/vl53l1_core_support.c **** 	LOG_FUNCTION_END(0);
 191:Drivers/BSP/Components/vl53l1cb/modules/vl53l1_core_support.c **** }
 192:Drivers/BSP/Components/vl53l1cb/modules/vl53l1_core_support.c **** 
 193:Drivers/BSP/Components/vl53l1cb/modules/vl53l1_core_support.c **** 
 194:Drivers/BSP/Components/vl53l1cb/modules/vl53l1_core_support.c **** void  VL53L1_hist_estimate_ambient_from_thresholded_bins(
 195:Drivers/BSP/Components/vl53l1cb/modules/vl53l1_core_support.c **** 	int32_t                        ambient_threshold_sigma,
 196:Drivers/BSP/Components/vl53l1cb/modules/vl53l1_core_support.c **** 	VL53L1_histogram_bin_data_t   *pdata)
 197:Drivers/BSP/Components/vl53l1cb/modules/vl53l1_core_support.c **** {
 198:Drivers/BSP/Components/vl53l1cb/modules/vl53l1_core_support.c **** 
 199:Drivers/BSP/Components/vl53l1cb/modules/vl53l1_core_support.c **** 
 200:Drivers/BSP/Components/vl53l1cb/modules/vl53l1_core_support.c **** 	uint8_t  bin                      = 0;
 201:Drivers/BSP/Components/vl53l1cb/modules/vl53l1_core_support.c **** 	int32_t  VL53L1_p_032 = 0;
 202:Drivers/BSP/Components/vl53l1cb/modules/vl53l1_core_support.c **** 
 203:Drivers/BSP/Components/vl53l1cb/modules/vl53l1_core_support.c **** 	LOG_FUNCTION_START("");
 204:Drivers/BSP/Components/vl53l1cb/modules/vl53l1_core_support.c **** 
 205:Drivers/BSP/Components/vl53l1cb/modules/vl53l1_core_support.c **** 
 206:Drivers/BSP/Components/vl53l1cb/modules/vl53l1_core_support.c **** 
 207:Drivers/BSP/Components/vl53l1cb/modules/vl53l1_core_support.c **** 	VL53L1_hist_find_min_max_bin_values(pdata);
 208:Drivers/BSP/Components/vl53l1cb/modules/vl53l1_core_support.c **** 
 209:Drivers/BSP/Components/vl53l1cb/modules/vl53l1_core_support.c **** 
 210:Drivers/BSP/Components/vl53l1cb/modules/vl53l1_core_support.c **** 
 211:Drivers/BSP/Components/vl53l1cb/modules/vl53l1_core_support.c **** 	VL53L1_p_032  =
 212:Drivers/BSP/Components/vl53l1cb/modules/vl53l1_core_support.c **** 		(int32_t)VL53L1_isqrt((uint32_t)pdata->min_bin_value);
 213:Drivers/BSP/Components/vl53l1cb/modules/vl53l1_core_support.c **** 	VL53L1_p_032 *= ambient_threshold_sigma;
 214:Drivers/BSP/Components/vl53l1cb/modules/vl53l1_core_support.c **** 	VL53L1_p_032 += 0x07;
 215:Drivers/BSP/Components/vl53l1cb/modules/vl53l1_core_support.c **** 	VL53L1_p_032  = VL53L1_p_032 >> 4;
 216:Drivers/BSP/Components/vl53l1cb/modules/vl53l1_core_support.c **** 	VL53L1_p_032 += pdata->min_bin_value;
 217:Drivers/BSP/Components/vl53l1cb/modules/vl53l1_core_support.c **** 
 218:Drivers/BSP/Components/vl53l1cb/modules/vl53l1_core_support.c **** 
 219:Drivers/BSP/Components/vl53l1cb/modules/vl53l1_core_support.c **** 
 220:Drivers/BSP/Components/vl53l1cb/modules/vl53l1_core_support.c **** 	pdata->number_of_ambient_samples = 0;
 221:Drivers/BSP/Components/vl53l1cb/modules/vl53l1_core_support.c **** 	pdata->ambient_events_sum        = 0;
 222:Drivers/BSP/Components/vl53l1cb/modules/vl53l1_core_support.c **** 
 223:Drivers/BSP/Components/vl53l1cb/modules/vl53l1_core_support.c **** 	for (bin = 0; bin < pdata->VL53L1_p_024; bin++)
 224:Drivers/BSP/Components/vl53l1cb/modules/vl53l1_core_support.c **** 		if (pdata->bin_data[bin] < VL53L1_p_032) {
 225:Drivers/BSP/Components/vl53l1cb/modules/vl53l1_core_support.c **** 			pdata->ambient_events_sum += pdata->bin_data[bin];
 226:Drivers/BSP/Components/vl53l1cb/modules/vl53l1_core_support.c **** 			pdata->number_of_ambient_samples++;
 227:Drivers/BSP/Components/vl53l1cb/modules/vl53l1_core_support.c **** 		}
 228:Drivers/BSP/Components/vl53l1cb/modules/vl53l1_core_support.c **** 
 229:Drivers/BSP/Components/vl53l1cb/modules/vl53l1_core_support.c **** 
 230:Drivers/BSP/Components/vl53l1cb/modules/vl53l1_core_support.c **** 
 231:Drivers/BSP/Components/vl53l1cb/modules/vl53l1_core_support.c **** 	if (pdata->number_of_ambient_samples > 0) {
 232:Drivers/BSP/Components/vl53l1cb/modules/vl53l1_core_support.c **** 		pdata->VL53L1_p_004 =
 233:Drivers/BSP/Components/vl53l1cb/modules/vl53l1_core_support.c **** 			pdata->ambient_events_sum;
ARM GAS  C:\Temp\ccEewVJn.s 			page 11


 234:Drivers/BSP/Components/vl53l1cb/modules/vl53l1_core_support.c **** 		pdata->VL53L1_p_004 +=
 235:Drivers/BSP/Components/vl53l1cb/modules/vl53l1_core_support.c **** 			((int32_t)pdata->number_of_ambient_samples/2);
 236:Drivers/BSP/Components/vl53l1cb/modules/vl53l1_core_support.c **** 		pdata->VL53L1_p_004 /=
 237:Drivers/BSP/Components/vl53l1cb/modules/vl53l1_core_support.c **** 			(int32_t)pdata->number_of_ambient_samples;
 238:Drivers/BSP/Components/vl53l1cb/modules/vl53l1_core_support.c **** 	}
 239:Drivers/BSP/Components/vl53l1cb/modules/vl53l1_core_support.c **** 
 240:Drivers/BSP/Components/vl53l1cb/modules/vl53l1_core_support.c **** 	LOG_FUNCTION_END(0);
 241:Drivers/BSP/Components/vl53l1cb/modules/vl53l1_core_support.c **** }
 242:Drivers/BSP/Components/vl53l1cb/modules/vl53l1_core_support.c **** 
 243:Drivers/BSP/Components/vl53l1cb/modules/vl53l1_core_support.c **** 
 244:Drivers/BSP/Components/vl53l1cb/modules/vl53l1_core_support.c **** void  VL53L1_hist_remove_ambient_bins(
 245:Drivers/BSP/Components/vl53l1cb/modules/vl53l1_core_support.c **** 	VL53L1_histogram_bin_data_t   *pdata)
 246:Drivers/BSP/Components/vl53l1cb/modules/vl53l1_core_support.c **** {
 326              		.loc 1 246 1 is_stmt 1 view -0
 327              		.cfi_startproc
 328              		@ args = 0, pretend = 0, frame = 0
 329              		@ frame_needed = 0, uses_anonymous_args = 0
 330              		@ link register save eliminated.
 331              		.loc 1 246 1 is_stmt 0 view .LVU99
 332 0000 10B4     		push	{r4}
 333              		.cfi_def_cfa_offset 4
 334              		.cfi_offset 4, -4
 247:Drivers/BSP/Components/vl53l1cb/modules/vl53l1_core_support.c **** 
 248:Drivers/BSP/Components/vl53l1cb/modules/vl53l1_core_support.c **** 
 249:Drivers/BSP/Components/vl53l1cb/modules/vl53l1_core_support.c **** 
 250:Drivers/BSP/Components/vl53l1cb/modules/vl53l1_core_support.c **** 	uint8_t bin = 0;
 335              		.loc 1 250 2 is_stmt 1 view .LVU100
 336              	.LVL41:
 251:Drivers/BSP/Components/vl53l1cb/modules/vl53l1_core_support.c **** 	uint8_t lc = 0;
 337              		.loc 1 251 2 view .LVU101
 252:Drivers/BSP/Components/vl53l1cb/modules/vl53l1_core_support.c **** 	uint8_t i = 0;
 338              		.loc 1 252 2 view .LVU102
 253:Drivers/BSP/Components/vl53l1cb/modules/vl53l1_core_support.c **** 
 254:Drivers/BSP/Components/vl53l1cb/modules/vl53l1_core_support.c **** 
 255:Drivers/BSP/Components/vl53l1cb/modules/vl53l1_core_support.c **** 
 256:Drivers/BSP/Components/vl53l1cb/modules/vl53l1_core_support.c **** 	if ((pdata->bin_seq[0] & 0x07) == 0x07) {
 339              		.loc 1 256 2 view .LVU103
 340              		.loc 1 256 21 is_stmt 0 view .LVU104
 341 0002 037B     		ldrb	r3, [r0, #12]	@ zero_extendqisi2
 342              		.loc 1 256 5 view .LVU105
 343 0004 03F00703 		and	r3, r3, #7
 344 0008 072B     		cmp	r3, #7
 345 000a 16D0     		beq	.L34
 346              	.LVL42:
 347              	.L23:
 257:Drivers/BSP/Components/vl53l1cb/modules/vl53l1_core_support.c **** 
 258:Drivers/BSP/Components/vl53l1cb/modules/vl53l1_core_support.c **** 		i = 0;
 259:Drivers/BSP/Components/vl53l1cb/modules/vl53l1_core_support.c **** 		for (lc = 0; lc < VL53L1_MAX_BIN_SEQUENCE_LENGTH; lc++) {
 260:Drivers/BSP/Components/vl53l1cb/modules/vl53l1_core_support.c **** 			if ((pdata->bin_seq[lc] & 0x07) != 0x07) {
 261:Drivers/BSP/Components/vl53l1cb/modules/vl53l1_core_support.c **** 				pdata->bin_seq[i] = pdata->bin_seq[lc];
 262:Drivers/BSP/Components/vl53l1cb/modules/vl53l1_core_support.c **** 				pdata->bin_rep[i] = pdata->bin_rep[lc];
 263:Drivers/BSP/Components/vl53l1cb/modules/vl53l1_core_support.c **** 				i++;
 264:Drivers/BSP/Components/vl53l1cb/modules/vl53l1_core_support.c **** 			}
 265:Drivers/BSP/Components/vl53l1cb/modules/vl53l1_core_support.c **** 		}
 266:Drivers/BSP/Components/vl53l1cb/modules/vl53l1_core_support.c **** 
 267:Drivers/BSP/Components/vl53l1cb/modules/vl53l1_core_support.c **** 
 268:Drivers/BSP/Components/vl53l1cb/modules/vl53l1_core_support.c **** 
ARM GAS  C:\Temp\ccEewVJn.s 			page 12


 269:Drivers/BSP/Components/vl53l1cb/modules/vl53l1_core_support.c **** 		for (lc = i; lc < VL53L1_MAX_BIN_SEQUENCE_LENGTH; lc++) {
 270:Drivers/BSP/Components/vl53l1cb/modules/vl53l1_core_support.c **** 			pdata->bin_seq[lc] = VL53L1_MAX_BIN_SEQUENCE_CODE + 1;
 271:Drivers/BSP/Components/vl53l1cb/modules/vl53l1_core_support.c **** 			pdata->bin_rep[lc] = 0;
 272:Drivers/BSP/Components/vl53l1cb/modules/vl53l1_core_support.c **** 		}
 273:Drivers/BSP/Components/vl53l1cb/modules/vl53l1_core_support.c **** 	}
 274:Drivers/BSP/Components/vl53l1cb/modules/vl53l1_core_support.c **** 
 275:Drivers/BSP/Components/vl53l1cb/modules/vl53l1_core_support.c **** 	if (pdata->number_of_ambient_bins > 0) {
 348              		.loc 1 275 2 is_stmt 1 view .LVU106
 349              		.loc 1 275 11 is_stmt 0 view .LVU107
 350 000c C47A     		ldrb	r4, [r0, #11]	@ zero_extendqisi2
 351              		.loc 1 275 5 view .LVU108
 352 000e 9CBB     		cbnz	r4, .L32
 353              	.LVL43:
 354              	.L21:
 276:Drivers/BSP/Components/vl53l1cb/modules/vl53l1_core_support.c **** 
 277:Drivers/BSP/Components/vl53l1cb/modules/vl53l1_core_support.c **** 
 278:Drivers/BSP/Components/vl53l1cb/modules/vl53l1_core_support.c **** 		for (bin = pdata->number_of_ambient_bins;
 279:Drivers/BSP/Components/vl53l1cb/modules/vl53l1_core_support.c **** 				bin < pdata->VL53L1_p_023; bin++) {
 280:Drivers/BSP/Components/vl53l1cb/modules/vl53l1_core_support.c **** 			pdata->bin_data[bin-pdata->number_of_ambient_bins] =
 281:Drivers/BSP/Components/vl53l1cb/modules/vl53l1_core_support.c **** 				pdata->bin_data[bin];
 282:Drivers/BSP/Components/vl53l1cb/modules/vl53l1_core_support.c **** 		}
 283:Drivers/BSP/Components/vl53l1cb/modules/vl53l1_core_support.c **** 
 284:Drivers/BSP/Components/vl53l1cb/modules/vl53l1_core_support.c **** 
 285:Drivers/BSP/Components/vl53l1cb/modules/vl53l1_core_support.c **** 		pdata->VL53L1_p_024 =
 286:Drivers/BSP/Components/vl53l1cb/modules/vl53l1_core_support.c **** 				pdata->VL53L1_p_024 -
 287:Drivers/BSP/Components/vl53l1cb/modules/vl53l1_core_support.c **** 				pdata->number_of_ambient_bins;
 288:Drivers/BSP/Components/vl53l1cb/modules/vl53l1_core_support.c **** 		pdata->number_of_ambient_bins = 0;
 289:Drivers/BSP/Components/vl53l1cb/modules/vl53l1_core_support.c **** 	}
 290:Drivers/BSP/Components/vl53l1cb/modules/vl53l1_core_support.c **** }
 355              		.loc 1 290 1 view .LVU109
 356 0010 5DF8044B 		ldr	r4, [sp], #4
 357              		.cfi_remember_state
 358              		.cfi_restore 4
 359              		.cfi_def_cfa_offset 0
 360 0014 7047     		bx	lr
 361              	.LVL44:
 362              	.L24:
 363              		.cfi_restore_state
 259:Drivers/BSP/Components/vl53l1cb/modules/vl53l1_core_support.c **** 			if ((pdata->bin_seq[lc] & 0x07) != 0x07) {
 364              		.loc 1 259 55 is_stmt 1 discriminator 2 view .LVU110
 365 0016 0132     		adds	r2, r2, #1
 366              	.LVL45:
 259:Drivers/BSP/Components/vl53l1cb/modules/vl53l1_core_support.c **** 			if ((pdata->bin_seq[lc] & 0x07) != 0x07) {
 367              		.loc 1 259 55 is_stmt 0 discriminator 2 view .LVU111
 368 0018 D2B2     		uxtb	r2, r2
 369              	.LVL46:
 370              	.L22:
 259:Drivers/BSP/Components/vl53l1cb/modules/vl53l1_core_support.c **** 			if ((pdata->bin_seq[lc] & 0x07) != 0x07) {
 371              		.loc 1 259 19 is_stmt 1 discriminator 1 view .LVU112
 372 001a 052A     		cmp	r2, #5
 373 001c 17D8     		bhi	.L26
 260:Drivers/BSP/Components/vl53l1cb/modules/vl53l1_core_support.c **** 				pdata->bin_seq[i] = pdata->bin_seq[lc];
 374              		.loc 1 260 4 view .LVU113
 260:Drivers/BSP/Components/vl53l1cb/modules/vl53l1_core_support.c **** 				pdata->bin_seq[i] = pdata->bin_seq[lc];
 375              		.loc 1 260 23 is_stmt 0 view .LVU114
 376 001e 8118     		adds	r1, r0, r2
 377 0020 097B     		ldrb	r1, [r1, #12]	@ zero_extendqisi2
ARM GAS  C:\Temp\ccEewVJn.s 			page 13


 260:Drivers/BSP/Components/vl53l1cb/modules/vl53l1_core_support.c **** 				pdata->bin_seq[i] = pdata->bin_seq[lc];
 378              		.loc 1 260 7 view .LVU115
 379 0022 01F00704 		and	r4, r1, #7
 380 0026 072C     		cmp	r4, #7
 381 0028 F5D0     		beq	.L24
 261:Drivers/BSP/Components/vl53l1cb/modules/vl53l1_core_support.c **** 				pdata->bin_rep[i] = pdata->bin_rep[lc];
 382              		.loc 1 261 5 is_stmt 1 view .LVU116
 261:Drivers/BSP/Components/vl53l1cb/modules/vl53l1_core_support.c **** 				pdata->bin_rep[i] = pdata->bin_rep[lc];
 383              		.loc 1 261 23 is_stmt 0 view .LVU117
 384 002a C418     		adds	r4, r0, r3
 385 002c 2173     		strb	r1, [r4, #12]
 262:Drivers/BSP/Components/vl53l1cb/modules/vl53l1_core_support.c **** 				i++;
 386              		.loc 1 262 5 is_stmt 1 view .LVU118
 262:Drivers/BSP/Components/vl53l1cb/modules/vl53l1_core_support.c **** 				i++;
 387              		.loc 1 262 39 is_stmt 0 view .LVU119
 388 002e 8118     		adds	r1, r0, r2
 389 0030 897C     		ldrb	r1, [r1, #18]	@ zero_extendqisi2
 262:Drivers/BSP/Components/vl53l1cb/modules/vl53l1_core_support.c **** 				i++;
 390              		.loc 1 262 23 view .LVU120
 391 0032 A174     		strb	r1, [r4, #18]
 263:Drivers/BSP/Components/vl53l1cb/modules/vl53l1_core_support.c **** 			}
 392              		.loc 1 263 5 is_stmt 1 view .LVU121
 263:Drivers/BSP/Components/vl53l1cb/modules/vl53l1_core_support.c **** 			}
 393              		.loc 1 263 6 is_stmt 0 view .LVU122
 394 0034 0133     		adds	r3, r3, #1
 395              	.LVL47:
 263:Drivers/BSP/Components/vl53l1cb/modules/vl53l1_core_support.c **** 			}
 396              		.loc 1 263 6 view .LVU123
 397 0036 DBB2     		uxtb	r3, r3
 398              	.LVL48:
 263:Drivers/BSP/Components/vl53l1cb/modules/vl53l1_core_support.c **** 			}
 399              		.loc 1 263 6 view .LVU124
 400 0038 EDE7     		b	.L24
 401              	.LVL49:
 402              	.L34:
 258:Drivers/BSP/Components/vl53l1cb/modules/vl53l1_core_support.c **** 		for (lc = 0; lc < VL53L1_MAX_BIN_SEQUENCE_LENGTH; lc++) {
 403              		.loc 1 258 5 view .LVU125
 404 003a 0023     		movs	r3, #0
 259:Drivers/BSP/Components/vl53l1cb/modules/vl53l1_core_support.c **** 			if ((pdata->bin_seq[lc] & 0x07) != 0x07) {
 405              		.loc 1 259 11 view .LVU126
 406 003c 1A46     		mov	r2, r3
 407 003e ECE7     		b	.L22
 408              	.LVL50:
 409              	.L27:
 270:Drivers/BSP/Components/vl53l1cb/modules/vl53l1_core_support.c **** 			pdata->bin_rep[lc] = 0;
 410              		.loc 1 270 4 is_stmt 1 discriminator 3 view .LVU127
 270:Drivers/BSP/Components/vl53l1cb/modules/vl53l1_core_support.c **** 			pdata->bin_rep[lc] = 0;
 411              		.loc 1 270 23 is_stmt 0 discriminator 3 view .LVU128
 412 0040 C218     		adds	r2, r0, r3
 413 0042 1021     		movs	r1, #16
 414 0044 1173     		strb	r1, [r2, #12]
 271:Drivers/BSP/Components/vl53l1cb/modules/vl53l1_core_support.c **** 		}
 415              		.loc 1 271 4 is_stmt 1 discriminator 3 view .LVU129
 271:Drivers/BSP/Components/vl53l1cb/modules/vl53l1_core_support.c **** 		}
 416              		.loc 1 271 23 is_stmt 0 discriminator 3 view .LVU130
 417 0046 0021     		movs	r1, #0
 418 0048 9174     		strb	r1, [r2, #18]
ARM GAS  C:\Temp\ccEewVJn.s 			page 14


 269:Drivers/BSP/Components/vl53l1cb/modules/vl53l1_core_support.c **** 			pdata->bin_seq[lc] = VL53L1_MAX_BIN_SEQUENCE_CODE + 1;
 419              		.loc 1 269 55 is_stmt 1 discriminator 3 view .LVU131
 420 004a 0133     		adds	r3, r3, #1
 421              	.LVL51:
 269:Drivers/BSP/Components/vl53l1cb/modules/vl53l1_core_support.c **** 			pdata->bin_seq[lc] = VL53L1_MAX_BIN_SEQUENCE_CODE + 1;
 422              		.loc 1 269 55 is_stmt 0 discriminator 3 view .LVU132
 423 004c DBB2     		uxtb	r3, r3
 424              	.LVL52:
 425              	.L26:
 269:Drivers/BSP/Components/vl53l1cb/modules/vl53l1_core_support.c **** 			pdata->bin_seq[lc] = VL53L1_MAX_BIN_SEQUENCE_CODE + 1;
 426              		.loc 1 269 19 is_stmt 1 discriminator 1 view .LVU133
 427 004e 052B     		cmp	r3, #5
 428 0050 F6D9     		bls	.L27
 429 0052 DBE7     		b	.L23
 430              	.LVL53:
 431              	.L30:
 280:Drivers/BSP/Components/vl53l1cb/modules/vl53l1_core_support.c **** 				pdata->bin_data[bin];
 432              		.loc 1 280 4 discriminator 2 view .LVU134
 280:Drivers/BSP/Components/vl53l1cb/modules/vl53l1_core_support.c **** 				pdata->bin_data[bin];
 433              		.loc 1 280 23 is_stmt 0 discriminator 2 view .LVU135
 434 0054 1A1B     		subs	r2, r3, r4
 281:Drivers/BSP/Components/vl53l1cb/modules/vl53l1_core_support.c **** 		}
 435              		.loc 1 281 20 discriminator 2 view .LVU136
 436 0056 991D     		adds	r1, r3, #6
 437 0058 50F82110 		ldr	r1, [r0, r1, lsl #2]
 280:Drivers/BSP/Components/vl53l1cb/modules/vl53l1_core_support.c **** 				pdata->bin_data[bin];
 438              		.loc 1 280 55 discriminator 2 view .LVU137
 439 005c 0632     		adds	r2, r2, #6
 440 005e 40F82210 		str	r1, [r0, r2, lsl #2]
 279:Drivers/BSP/Components/vl53l1cb/modules/vl53l1_core_support.c **** 			pdata->bin_data[bin-pdata->number_of_ambient_bins] =
 441              		.loc 1 279 35 is_stmt 1 discriminator 2 view .LVU138
 442 0062 0133     		adds	r3, r3, #1
 443              	.LVL54:
 279:Drivers/BSP/Components/vl53l1cb/modules/vl53l1_core_support.c **** 			pdata->bin_data[bin-pdata->number_of_ambient_bins] =
 444              		.loc 1 279 35 is_stmt 0 discriminator 2 view .LVU139
 445 0064 DBB2     		uxtb	r3, r3
 446              	.LVL55:
 447              	.L28:
 279:Drivers/BSP/Components/vl53l1cb/modules/vl53l1_core_support.c **** 			pdata->bin_data[bin-pdata->number_of_ambient_bins] =
 448              		.loc 1 279 9 is_stmt 1 discriminator 1 view .LVU140
 279:Drivers/BSP/Components/vl53l1cb/modules/vl53l1_core_support.c **** 			pdata->bin_data[bin-pdata->number_of_ambient_bins] =
 449              		.loc 1 279 16 is_stmt 0 discriminator 1 view .LVU141
 450 0066 427A     		ldrb	r2, [r0, #9]	@ zero_extendqisi2
 279:Drivers/BSP/Components/vl53l1cb/modules/vl53l1_core_support.c **** 			pdata->bin_data[bin-pdata->number_of_ambient_bins] =
 451              		.loc 1 279 9 discriminator 1 view .LVU142
 452 0068 9A42     		cmp	r2, r3
 453 006a F3D8     		bhi	.L30
 285:Drivers/BSP/Components/vl53l1cb/modules/vl53l1_core_support.c **** 				pdata->VL53L1_p_024 -
 454              		.loc 1 285 3 is_stmt 1 view .LVU143
 286:Drivers/BSP/Components/vl53l1cb/modules/vl53l1_core_support.c **** 				pdata->number_of_ambient_bins;
 455              		.loc 1 286 10 is_stmt 0 view .LVU144
 456 006c 837A     		ldrb	r3, [r0, #10]	@ zero_extendqisi2
 457              	.LVL56:
 286:Drivers/BSP/Components/vl53l1cb/modules/vl53l1_core_support.c **** 				pdata->number_of_ambient_bins;
 458              		.loc 1 286 25 view .LVU145
 459 006e 1B1B     		subs	r3, r3, r4
 285:Drivers/BSP/Components/vl53l1cb/modules/vl53l1_core_support.c **** 				pdata->VL53L1_p_024 -
ARM GAS  C:\Temp\ccEewVJn.s 			page 15


 460              		.loc 1 285 23 view .LVU146
 461 0070 8372     		strb	r3, [r0, #10]
 288:Drivers/BSP/Components/vl53l1cb/modules/vl53l1_core_support.c **** 	}
 462              		.loc 1 288 3 is_stmt 1 view .LVU147
 288:Drivers/BSP/Components/vl53l1cb/modules/vl53l1_core_support.c **** 	}
 463              		.loc 1 288 33 is_stmt 0 view .LVU148
 464 0072 0023     		movs	r3, #0
 465 0074 C372     		strb	r3, [r0, #11]
 466              		.loc 1 290 1 view .LVU149
 467 0076 CBE7     		b	.L21
 468              	.LVL57:
 469              	.L32:
 278:Drivers/BSP/Components/vl53l1cb/modules/vl53l1_core_support.c **** 				bin < pdata->VL53L1_p_023; bin++) {
 470              		.loc 1 278 12 view .LVU150
 471 0078 2346     		mov	r3, r4
 472 007a F4E7     		b	.L28
 473              		.cfi_endproc
 474              	.LFE9:
 476              		.section	.text.VL53L1_calc_pll_period_mm,"ax",%progbits
 477              		.align	1
 478              		.global	VL53L1_calc_pll_period_mm
 479              		.syntax unified
 480              		.thumb
 481              		.thumb_func
 483              	VL53L1_calc_pll_period_mm:
 484              	.LVL58:
 485              	.LFB10:
 291:Drivers/BSP/Components/vl53l1cb/modules/vl53l1_core_support.c **** 
 292:Drivers/BSP/Components/vl53l1cb/modules/vl53l1_core_support.c **** 
 293:Drivers/BSP/Components/vl53l1cb/modules/vl53l1_core_support.c **** uint32_t VL53L1_calc_pll_period_mm(
 294:Drivers/BSP/Components/vl53l1cb/modules/vl53l1_core_support.c **** 	uint16_t fast_osc_frequency)
 295:Drivers/BSP/Components/vl53l1cb/modules/vl53l1_core_support.c **** {
 486              		.loc 1 295 1 is_stmt 1 view -0
 487              		.cfi_startproc
 488              		@ args = 0, pretend = 0, frame = 0
 489              		@ frame_needed = 0, uses_anonymous_args = 0
 490              		.loc 1 295 1 is_stmt 0 view .LVU152
 491 0000 08B5     		push	{r3, lr}
 492              		.cfi_def_cfa_offset 8
 493              		.cfi_offset 3, -8
 494              		.cfi_offset 14, -4
 296:Drivers/BSP/Components/vl53l1cb/modules/vl53l1_core_support.c **** 
 297:Drivers/BSP/Components/vl53l1cb/modules/vl53l1_core_support.c **** 
 298:Drivers/BSP/Components/vl53l1cb/modules/vl53l1_core_support.c **** 	uint32_t pll_period_us = 0;
 495              		.loc 1 298 2 is_stmt 1 view .LVU153
 496              	.LVL59:
 299:Drivers/BSP/Components/vl53l1cb/modules/vl53l1_core_support.c **** 	uint32_t pll_period_mm = 0;
 497              		.loc 1 299 2 view .LVU154
 300:Drivers/BSP/Components/vl53l1cb/modules/vl53l1_core_support.c **** 
 301:Drivers/BSP/Components/vl53l1cb/modules/vl53l1_core_support.c **** 	LOG_FUNCTION_START("");
 498              		.loc 1 301 24 view .LVU155
 302:Drivers/BSP/Components/vl53l1cb/modules/vl53l1_core_support.c **** 
 303:Drivers/BSP/Components/vl53l1cb/modules/vl53l1_core_support.c **** 
 304:Drivers/BSP/Components/vl53l1cb/modules/vl53l1_core_support.c **** 
 305:Drivers/BSP/Components/vl53l1cb/modules/vl53l1_core_support.c **** 	pll_period_us  = VL53L1_calc_pll_period_us(fast_osc_frequency);
 499              		.loc 1 305 2 view .LVU156
 500              		.loc 1 305 19 is_stmt 0 view .LVU157
ARM GAS  C:\Temp\ccEewVJn.s 			page 16


 501 0002 FFF7FEFF 		bl	VL53L1_calc_pll_period_us
 502              	.LVL60:
 306:Drivers/BSP/Components/vl53l1cb/modules/vl53l1_core_support.c **** 
 307:Drivers/BSP/Components/vl53l1cb/modules/vl53l1_core_support.c **** 
 308:Drivers/BSP/Components/vl53l1cb/modules/vl53l1_core_support.c **** 
 309:Drivers/BSP/Components/vl53l1cb/modules/vl53l1_core_support.c **** 
 310:Drivers/BSP/Components/vl53l1cb/modules/vl53l1_core_support.c **** 	pll_period_mm =
 503              		.loc 1 310 2 is_stmt 1 view .LVU158
 311:Drivers/BSP/Components/vl53l1cb/modules/vl53l1_core_support.c **** 			VL53L1_SPEED_OF_LIGHT_IN_AIR_DIV_8 *
 312:Drivers/BSP/Components/vl53l1cb/modules/vl53l1_core_support.c **** 			(pll_period_us >> 2);
 504              		.loc 1 312 19 is_stmt 0 view .LVU159
 505 0006 8008     		lsrs	r0, r0, #2
 506              	.LVL61:
 310:Drivers/BSP/Components/vl53l1cb/modules/vl53l1_core_support.c **** 			VL53L1_SPEED_OF_LIGHT_IN_AIR_DIV_8 *
 507              		.loc 1 310 16 view .LVU160
 508 0008 49F25723 		movw	r3, #37463
 509 000c 03FB00F0 		mul	r0, r3, r0
 510              	.LVL62:
 313:Drivers/BSP/Components/vl53l1cb/modules/vl53l1_core_support.c **** 
 314:Drivers/BSP/Components/vl53l1cb/modules/vl53l1_core_support.c **** 
 315:Drivers/BSP/Components/vl53l1cb/modules/vl53l1_core_support.c **** 	pll_period_mm = (pll_period_mm + (0x01<<15)) >> 16;
 511              		.loc 1 315 2 is_stmt 1 view .LVU161
 512              		.loc 1 315 33 is_stmt 0 view .LVU162
 513 0010 00F50040 		add	r0, r0, #32768
 514              	.LVL63:
 316:Drivers/BSP/Components/vl53l1cb/modules/vl53l1_core_support.c **** 
 317:Drivers/BSP/Components/vl53l1cb/modules/vl53l1_core_support.c **** 	LOG_FUNCTION_END(0);
 515              		.loc 1 317 21 is_stmt 1 view .LVU163
 318:Drivers/BSP/Components/vl53l1cb/modules/vl53l1_core_support.c **** 
 319:Drivers/BSP/Components/vl53l1cb/modules/vl53l1_core_support.c **** 	return pll_period_mm;
 516              		.loc 1 319 2 view .LVU164
 320:Drivers/BSP/Components/vl53l1cb/modules/vl53l1_core_support.c **** }
 517              		.loc 1 320 1 is_stmt 0 view .LVU165
 518 0014 000C     		lsrs	r0, r0, #16
 519              	.LVL64:
 520              		.loc 1 320 1 view .LVU166
 521 0016 08BD     		pop	{r3, pc}
 522              		.cfi_endproc
 523              	.LFE10:
 525              		.section	.text.VL53L1_rate_maths,"ax",%progbits
 526              		.align	1
 527              		.global	VL53L1_rate_maths
 528              		.syntax unified
 529              		.thumb
 530              		.thumb_func
 532              	VL53L1_rate_maths:
 533              	.LVL65:
 534              	.LFB11:
 321:Drivers/BSP/Components/vl53l1cb/modules/vl53l1_core_support.c **** 
 322:Drivers/BSP/Components/vl53l1cb/modules/vl53l1_core_support.c **** 
 323:Drivers/BSP/Components/vl53l1cb/modules/vl53l1_core_support.c **** uint16_t VL53L1_rate_maths(
 324:Drivers/BSP/Components/vl53l1cb/modules/vl53l1_core_support.c **** 	int32_t   VL53L1_p_008,
 325:Drivers/BSP/Components/vl53l1cb/modules/vl53l1_core_support.c **** 	uint32_t  time_us)
 326:Drivers/BSP/Components/vl53l1cb/modules/vl53l1_core_support.c **** {
 535              		.loc 1 326 1 is_stmt 1 view -0
 536              		.cfi_startproc
 537              		@ args = 0, pretend = 0, frame = 0
ARM GAS  C:\Temp\ccEewVJn.s 			page 17


 538              		@ frame_needed = 0, uses_anonymous_args = 0
 539              		@ link register save eliminated.
 327:Drivers/BSP/Components/vl53l1cb/modules/vl53l1_core_support.c **** 
 328:Drivers/BSP/Components/vl53l1cb/modules/vl53l1_core_support.c **** 
 329:Drivers/BSP/Components/vl53l1cb/modules/vl53l1_core_support.c **** 	uint32_t  tmp_int   = 0;
 540              		.loc 1 329 2 view .LVU168
 330:Drivers/BSP/Components/vl53l1cb/modules/vl53l1_core_support.c **** 	uint32_t  frac_bits = 7;
 541              		.loc 1 330 2 view .LVU169
 331:Drivers/BSP/Components/vl53l1cb/modules/vl53l1_core_support.c **** 	uint16_t  rate_mcps = 0;
 542              		.loc 1 331 2 view .LVU170
 332:Drivers/BSP/Components/vl53l1cb/modules/vl53l1_core_support.c **** 
 333:Drivers/BSP/Components/vl53l1cb/modules/vl53l1_core_support.c **** 
 334:Drivers/BSP/Components/vl53l1cb/modules/vl53l1_core_support.c **** 
 335:Drivers/BSP/Components/vl53l1cb/modules/vl53l1_core_support.c **** 	if (VL53L1_p_008 > VL53L1_SPAD_TOTAL_COUNT_MAX)
 543              		.loc 1 335 2 view .LVU171
 544              		.loc 1 335 5 is_stmt 0 view .LVU172
 545 0000 B0F1005F 		cmp	r0, #536870912
 546 0004 07DA     		bge	.L42
 336:Drivers/BSP/Components/vl53l1cb/modules/vl53l1_core_support.c **** 		tmp_int = VL53L1_SPAD_TOTAL_COUNT_MAX;
 337:Drivers/BSP/Components/vl53l1cb/modules/vl53l1_core_support.c **** 	else if (VL53L1_p_008 > 0)
 547              		.loc 1 337 7 is_stmt 1 view .LVU173
 548              		.loc 1 337 10 is_stmt 0 view .LVU174
 549 0006 0028     		cmp	r0, #0
 550 0008 19DD     		ble	.L43
 338:Drivers/BSP/Components/vl53l1cb/modules/vl53l1_core_support.c **** 		tmp_int = (uint32_t)VL53L1_p_008;
 551              		.loc 1 338 3 is_stmt 1 view .LVU175
 552              		.loc 1 338 11 is_stmt 0 view .LVU176
 553 000a 0346     		mov	r3, r0
 554              	.LVL66:
 339:Drivers/BSP/Components/vl53l1cb/modules/vl53l1_core_support.c **** 
 340:Drivers/BSP/Components/vl53l1cb/modules/vl53l1_core_support.c **** 
 341:Drivers/BSP/Components/vl53l1cb/modules/vl53l1_core_support.c **** 
 342:Drivers/BSP/Components/vl53l1cb/modules/vl53l1_core_support.c **** 
 343:Drivers/BSP/Components/vl53l1cb/modules/vl53l1_core_support.c **** 	if (VL53L1_p_008 > VL53L1_SPAD_TOTAL_COUNT_RES_THRES)
 555              		.loc 1 343 2 is_stmt 1 view .LVU177
 556              		.loc 1 343 5 is_stmt 0 view .LVU178
 557 000c B0F1807F 		cmp	r0, #16777216
 558 0010 18DD     		ble	.L44
 344:Drivers/BSP/Components/vl53l1cb/modules/vl53l1_core_support.c **** 		frac_bits = 3;
 559              		.loc 1 344 13 view .LVU179
 560 0012 0322     		movs	r2, #3
 561 0014 02E0     		b	.L38
 562              	.LVL67:
 563              	.L42:
 336:Drivers/BSP/Components/vl53l1cb/modules/vl53l1_core_support.c **** 	else if (VL53L1_p_008 > 0)
 564              		.loc 1 336 11 view .LVU180
 565 0016 6FF06043 		mvn	r3, #-536870912
 566              		.loc 1 344 13 view .LVU181
 567 001a 0322     		movs	r2, #3
 568              	.LVL68:
 569              	.L38:
 345:Drivers/BSP/Components/vl53l1cb/modules/vl53l1_core_support.c **** 	else
 346:Drivers/BSP/Components/vl53l1cb/modules/vl53l1_core_support.c **** 		frac_bits = 7;
 347:Drivers/BSP/Components/vl53l1cb/modules/vl53l1_core_support.c **** 
 348:Drivers/BSP/Components/vl53l1cb/modules/vl53l1_core_support.c **** 
 349:Drivers/BSP/Components/vl53l1cb/modules/vl53l1_core_support.c **** 	if (time_us > 0)
 570              		.loc 1 349 2 is_stmt 1 view .LVU182
ARM GAS  C:\Temp\ccEewVJn.s 			page 18


 571              		.loc 1 349 5 is_stmt 0 view .LVU183
 572 001c 21B1     		cbz	r1, .L39
 350:Drivers/BSP/Components/vl53l1cb/modules/vl53l1_core_support.c **** 		tmp_int = ((tmp_int << frac_bits) + (time_us / 2)) / time_us;
 573              		.loc 1 350 3 is_stmt 1 view .LVU184
 574              		.loc 1 350 23 is_stmt 0 view .LVU185
 575 001e 9340     		lsls	r3, r3, r2
 576              		.loc 1 350 37 view .LVU186
 577 0020 03EB5103 		add	r3, r3, r1, lsr #1
 578              		.loc 1 350 11 view .LVU187
 579 0024 B3FBF1F3 		udiv	r3, r3, r1
 580              	.LVL69:
 581              	.L39:
 351:Drivers/BSP/Components/vl53l1cb/modules/vl53l1_core_support.c **** 
 352:Drivers/BSP/Components/vl53l1cb/modules/vl53l1_core_support.c **** 
 353:Drivers/BSP/Components/vl53l1cb/modules/vl53l1_core_support.c **** 	if (VL53L1_p_008 > VL53L1_SPAD_TOTAL_COUNT_RES_THRES)
 582              		.loc 1 353 2 is_stmt 1 view .LVU188
 583              		.loc 1 353 5 is_stmt 0 view .LVU189
 584 0028 B0F1807F 		cmp	r0, #16777216
 585 002c 00DD     		ble	.L40
 354:Drivers/BSP/Components/vl53l1cb/modules/vl53l1_core_support.c **** 		tmp_int = tmp_int << 4;
 586              		.loc 1 354 3 is_stmt 1 view .LVU190
 587              		.loc 1 354 11 is_stmt 0 view .LVU191
 588 002e 1B01     		lsls	r3, r3, #4
 589              	.LVL70:
 590              	.L40:
 355:Drivers/BSP/Components/vl53l1cb/modules/vl53l1_core_support.c **** 
 356:Drivers/BSP/Components/vl53l1cb/modules/vl53l1_core_support.c **** 
 357:Drivers/BSP/Components/vl53l1cb/modules/vl53l1_core_support.c **** 
 358:Drivers/BSP/Components/vl53l1cb/modules/vl53l1_core_support.c **** 	if (tmp_int > 0xFFFF)
 591              		.loc 1 358 2 is_stmt 1 view .LVU192
 592              		.loc 1 358 5 is_stmt 0 view .LVU193
 593 0030 B3F5803F 		cmp	r3, #65536
 594 0034 01D3     		bcc	.L41
 359:Drivers/BSP/Components/vl53l1cb/modules/vl53l1_core_support.c **** 		tmp_int = 0xFFFF;
 595              		.loc 1 359 11 view .LVU194
 596 0036 4FF6FF73 		movw	r3, #65535
 597              	.LVL71:
 598              	.L41:
 360:Drivers/BSP/Components/vl53l1cb/modules/vl53l1_core_support.c **** 
 361:Drivers/BSP/Components/vl53l1cb/modules/vl53l1_core_support.c **** 	rate_mcps =  (uint16_t)tmp_int;
 599              		.loc 1 361 2 is_stmt 1 view .LVU195
 362:Drivers/BSP/Components/vl53l1cb/modules/vl53l1_core_support.c **** 
 363:Drivers/BSP/Components/vl53l1cb/modules/vl53l1_core_support.c **** 	return rate_mcps;
 600              		.loc 1 363 2 view .LVU196
 364:Drivers/BSP/Components/vl53l1cb/modules/vl53l1_core_support.c **** }
 601              		.loc 1 364 1 is_stmt 0 view .LVU197
 602 003a 98B2     		uxth	r0, r3
 603              	.LVL72:
 604              		.loc 1 364 1 view .LVU198
 605 003c 7047     		bx	lr
 606              	.LVL73:
 607              	.L43:
 329:Drivers/BSP/Components/vl53l1cb/modules/vl53l1_core_support.c **** 	uint32_t  frac_bits = 7;
 608              		.loc 1 329 12 view .LVU199
 609 003e 0023     		movs	r3, #0
 346:Drivers/BSP/Components/vl53l1cb/modules/vl53l1_core_support.c **** 
 610              		.loc 1 346 13 view .LVU200
ARM GAS  C:\Temp\ccEewVJn.s 			page 19


 611 0040 0722     		movs	r2, #7
 612 0042 EBE7     		b	.L38
 613              	.LVL74:
 614              	.L44:
 346:Drivers/BSP/Components/vl53l1cb/modules/vl53l1_core_support.c **** 
 615              		.loc 1 346 13 view .LVU201
 616 0044 0722     		movs	r2, #7
 617 0046 E9E7     		b	.L38
 618              		.cfi_endproc
 619              	.LFE11:
 621              		.section	.text.VL53L1_rate_per_spad_maths,"ax",%progbits
 622              		.align	1
 623              		.global	VL53L1_rate_per_spad_maths
 624              		.syntax unified
 625              		.thumb
 626              		.thumb_func
 628              	VL53L1_rate_per_spad_maths:
 629              	.LVL75:
 630              	.LFB12:
 365:Drivers/BSP/Components/vl53l1cb/modules/vl53l1_core_support.c **** 
 366:Drivers/BSP/Components/vl53l1cb/modules/vl53l1_core_support.c **** 
 367:Drivers/BSP/Components/vl53l1cb/modules/vl53l1_core_support.c **** uint16_t VL53L1_rate_per_spad_maths(
 368:Drivers/BSP/Components/vl53l1cb/modules/vl53l1_core_support.c **** 	uint32_t  frac_bits,
 369:Drivers/BSP/Components/vl53l1cb/modules/vl53l1_core_support.c **** 	uint32_t  peak_count_rate,
 370:Drivers/BSP/Components/vl53l1cb/modules/vl53l1_core_support.c **** 	uint16_t  num_spads,
 371:Drivers/BSP/Components/vl53l1cb/modules/vl53l1_core_support.c **** 	uint32_t  max_output_value)
 372:Drivers/BSP/Components/vl53l1cb/modules/vl53l1_core_support.c **** {
 631              		.loc 1 372 1 is_stmt 1 view -0
 632              		.cfi_startproc
 633              		@ args = 0, pretend = 0, frame = 0
 634              		@ frame_needed = 0, uses_anonymous_args = 0
 635              		@ link register save eliminated.
 373:Drivers/BSP/Components/vl53l1cb/modules/vl53l1_core_support.c **** 
 374:Drivers/BSP/Components/vl53l1cb/modules/vl53l1_core_support.c **** 	uint32_t  tmp_int   = 0;
 636              		.loc 1 374 2 view .LVU203
 375:Drivers/BSP/Components/vl53l1cb/modules/vl53l1_core_support.c **** 
 376:Drivers/BSP/Components/vl53l1cb/modules/vl53l1_core_support.c **** 
 377:Drivers/BSP/Components/vl53l1cb/modules/vl53l1_core_support.c **** 	uint16_t  rate_per_spad = 0;
 637              		.loc 1 377 2 view .LVU204
 378:Drivers/BSP/Components/vl53l1cb/modules/vl53l1_core_support.c **** 
 379:Drivers/BSP/Components/vl53l1cb/modules/vl53l1_core_support.c **** 
 380:Drivers/BSP/Components/vl53l1cb/modules/vl53l1_core_support.c **** 
 381:Drivers/BSP/Components/vl53l1cb/modules/vl53l1_core_support.c **** 
 382:Drivers/BSP/Components/vl53l1cb/modules/vl53l1_core_support.c **** 
 383:Drivers/BSP/Components/vl53l1cb/modules/vl53l1_core_support.c **** 	if (num_spads > 0) {
 638              		.loc 1 383 2 view .LVU205
 639              		.loc 1 383 5 is_stmt 0 view .LVU206
 640 0000 52B1     		cbz	r2, .L47
 384:Drivers/BSP/Components/vl53l1cb/modules/vl53l1_core_support.c **** 		tmp_int = (peak_count_rate << 8) << frac_bits;
 641              		.loc 1 384 3 is_stmt 1 view .LVU207
 642              		.loc 1 384 30 is_stmt 0 view .LVU208
 643 0002 0902     		lsls	r1, r1, #8
 644              	.LVL76:
 645              		.loc 1 384 11 view .LVU209
 646 0004 8140     		lsls	r1, r1, r0
 647              	.LVL77:
 385:Drivers/BSP/Components/vl53l1cb/modules/vl53l1_core_support.c **** 		tmp_int = (tmp_int +
ARM GAS  C:\Temp\ccEewVJn.s 			page 20


 648              		.loc 1 385 3 is_stmt 1 view .LVU210
 649              		.loc 1 385 22 is_stmt 0 view .LVU211
 650 0006 01EB5201 		add	r1, r1, r2, lsr #1
 651              	.LVL78:
 652              		.loc 1 385 11 view .LVU212
 653 000a B1FBF2F1 		udiv	r1, r1, r2
 654              	.LVL79:
 655              	.L48:
 386:Drivers/BSP/Components/vl53l1cb/modules/vl53l1_core_support.c **** 			((uint32_t)num_spads / 2)) /
 387:Drivers/BSP/Components/vl53l1cb/modules/vl53l1_core_support.c **** 				(uint32_t)num_spads;
 388:Drivers/BSP/Components/vl53l1cb/modules/vl53l1_core_support.c **** 	} else {
 389:Drivers/BSP/Components/vl53l1cb/modules/vl53l1_core_support.c **** 		tmp_int = ((peak_count_rate) << frac_bits);
 390:Drivers/BSP/Components/vl53l1cb/modules/vl53l1_core_support.c **** 	}
 391:Drivers/BSP/Components/vl53l1cb/modules/vl53l1_core_support.c **** 
 392:Drivers/BSP/Components/vl53l1cb/modules/vl53l1_core_support.c **** 
 393:Drivers/BSP/Components/vl53l1cb/modules/vl53l1_core_support.c **** 
 394:Drivers/BSP/Components/vl53l1cb/modules/vl53l1_core_support.c **** 	if (tmp_int > max_output_value)
 656              		.loc 1 394 2 is_stmt 1 view .LVU213
 657              		.loc 1 394 5 is_stmt 0 view .LVU214
 658 000e 9942     		cmp	r1, r3
 659 0010 00D8     		bhi	.L49
 660              		.loc 1 394 5 view .LVU215
 661 0012 0B46     		mov	r3, r1
 662              	.LVL80:
 663              	.L49:
 395:Drivers/BSP/Components/vl53l1cb/modules/vl53l1_core_support.c **** 		tmp_int = max_output_value;
 396:Drivers/BSP/Components/vl53l1cb/modules/vl53l1_core_support.c **** 
 397:Drivers/BSP/Components/vl53l1cb/modules/vl53l1_core_support.c **** 	rate_per_spad = (uint16_t)tmp_int;
 664              		.loc 1 397 2 is_stmt 1 view .LVU216
 398:Drivers/BSP/Components/vl53l1cb/modules/vl53l1_core_support.c **** 
 399:Drivers/BSP/Components/vl53l1cb/modules/vl53l1_core_support.c **** 	return rate_per_spad;
 665              		.loc 1 399 2 view .LVU217
 400:Drivers/BSP/Components/vl53l1cb/modules/vl53l1_core_support.c **** }
 666              		.loc 1 400 1 is_stmt 0 view .LVU218
 667 0014 98B2     		uxth	r0, r3
 668              	.LVL81:
 669              		.loc 1 400 1 view .LVU219
 670 0016 7047     		bx	lr
 671              	.LVL82:
 672              	.L47:
 389:Drivers/BSP/Components/vl53l1cb/modules/vl53l1_core_support.c **** 	}
 673              		.loc 1 389 3 is_stmt 1 view .LVU220
 389:Drivers/BSP/Components/vl53l1cb/modules/vl53l1_core_support.c **** 	}
 674              		.loc 1 389 11 is_stmt 0 view .LVU221
 675 0018 8140     		lsls	r1, r1, r0
 676              	.LVL83:
 389:Drivers/BSP/Components/vl53l1cb/modules/vl53l1_core_support.c **** 	}
 677              		.loc 1 389 11 view .LVU222
 678 001a F8E7     		b	.L48
 679              		.cfi_endproc
 680              	.LFE12:
 682              		.section	.text.VL53L1_range_maths,"ax",%progbits
 683              		.align	1
 684              		.global	VL53L1_range_maths
 685              		.syntax unified
 686              		.thumb
 687              		.thumb_func
ARM GAS  C:\Temp\ccEewVJn.s 			page 21


 689              	VL53L1_range_maths:
 690              	.LVL84:
 691              	.LFB13:
 401:Drivers/BSP/Components/vl53l1cb/modules/vl53l1_core_support.c **** 
 402:Drivers/BSP/Components/vl53l1cb/modules/vl53l1_core_support.c **** 
 403:Drivers/BSP/Components/vl53l1cb/modules/vl53l1_core_support.c **** int32_t VL53L1_range_maths(
 404:Drivers/BSP/Components/vl53l1cb/modules/vl53l1_core_support.c **** 	uint16_t  fast_osc_frequency,
 405:Drivers/BSP/Components/vl53l1cb/modules/vl53l1_core_support.c **** 	uint16_t  VL53L1_p_017,
 406:Drivers/BSP/Components/vl53l1cb/modules/vl53l1_core_support.c **** 	uint16_t  zero_distance_phase,
 407:Drivers/BSP/Components/vl53l1cb/modules/vl53l1_core_support.c **** 	uint8_t   fractional_bits,
 408:Drivers/BSP/Components/vl53l1cb/modules/vl53l1_core_support.c **** 	int32_t   gain_factor,
 409:Drivers/BSP/Components/vl53l1cb/modules/vl53l1_core_support.c **** 	int32_t   range_offset_mm)
 410:Drivers/BSP/Components/vl53l1cb/modules/vl53l1_core_support.c **** {
 692              		.loc 1 410 1 is_stmt 1 view -0
 693              		.cfi_startproc
 694              		@ args = 8, pretend = 0, frame = 0
 695              		@ frame_needed = 0, uses_anonymous_args = 0
 696              		.loc 1 410 1 is_stmt 0 view .LVU224
 697 0000 70B5     		push	{r4, r5, r6, lr}
 698              		.cfi_def_cfa_offset 16
 699              		.cfi_offset 4, -16
 700              		.cfi_offset 5, -12
 701              		.cfi_offset 6, -8
 702              		.cfi_offset 14, -4
 703 0002 0C46     		mov	r4, r1
 704 0004 1646     		mov	r6, r2
 705 0006 1D46     		mov	r5, r3
 411:Drivers/BSP/Components/vl53l1cb/modules/vl53l1_core_support.c **** 
 412:Drivers/BSP/Components/vl53l1cb/modules/vl53l1_core_support.c **** 
 413:Drivers/BSP/Components/vl53l1cb/modules/vl53l1_core_support.c **** 	uint32_t    pll_period_us = 0;
 706              		.loc 1 413 2 is_stmt 1 view .LVU225
 707              	.LVL85:
 414:Drivers/BSP/Components/vl53l1cb/modules/vl53l1_core_support.c **** 	int64_t     tmp_long_int  = 0;
 708              		.loc 1 414 2 view .LVU226
 415:Drivers/BSP/Components/vl53l1cb/modules/vl53l1_core_support.c **** 	int32_t     range_mm      = 0;
 709              		.loc 1 415 2 view .LVU227
 416:Drivers/BSP/Components/vl53l1cb/modules/vl53l1_core_support.c **** 	int32_t     range_mm_10   = 0;
 710              		.loc 1 416 2 view .LVU228
 417:Drivers/BSP/Components/vl53l1cb/modules/vl53l1_core_support.c **** 
 418:Drivers/BSP/Components/vl53l1cb/modules/vl53l1_core_support.c **** 
 419:Drivers/BSP/Components/vl53l1cb/modules/vl53l1_core_support.c **** 
 420:Drivers/BSP/Components/vl53l1cb/modules/vl53l1_core_support.c **** 	pll_period_us  = VL53L1_calc_pll_period_us(fast_osc_frequency);
 711              		.loc 1 420 2 view .LVU229
 712              		.loc 1 420 19 is_stmt 0 view .LVU230
 713 0008 FFF7FEFF 		bl	VL53L1_calc_pll_period_us
 714              	.LVL86:
 421:Drivers/BSP/Components/vl53l1cb/modules/vl53l1_core_support.c **** 
 422:Drivers/BSP/Components/vl53l1cb/modules/vl53l1_core_support.c **** 
 423:Drivers/BSP/Components/vl53l1cb/modules/vl53l1_core_support.c **** 
 424:Drivers/BSP/Components/vl53l1cb/modules/vl53l1_core_support.c **** 	tmp_long_int = (int64_t)VL53L1_p_017 - (int64_t)zero_distance_phase;
 715              		.loc 1 424 2 is_stmt 1 view .LVU231
 716              		.loc 1 424 15 is_stmt 0 view .LVU232
 717 000c A21B     		subs	r2, r4, r6
 718 000e 63EB0303 		sbc	r3, r3, r3
 719              	.LVL87:
 425:Drivers/BSP/Components/vl53l1cb/modules/vl53l1_core_support.c **** 
 426:Drivers/BSP/Components/vl53l1cb/modules/vl53l1_core_support.c **** 
ARM GAS  C:\Temp\ccEewVJn.s 			page 22


 427:Drivers/BSP/Components/vl53l1cb/modules/vl53l1_core_support.c **** 
 428:Drivers/BSP/Components/vl53l1cb/modules/vl53l1_core_support.c **** 	tmp_long_int =  tmp_long_int * (int64_t)pll_period_us;
 720              		.loc 1 428 2 is_stmt 1 view .LVU233
 721              		.loc 1 428 15 is_stmt 0 view .LVU234
 722 0012 A0FB0221 		umull	r2, r1, r0, r2
 723              	.LVL88:
 724              		.loc 1 428 15 view .LVU235
 725 0016 00FB0311 		mla	r1, r0, r3, r1
 726              	.LVL89:
 429:Drivers/BSP/Components/vl53l1cb/modules/vl53l1_core_support.c **** 
 430:Drivers/BSP/Components/vl53l1cb/modules/vl53l1_core_support.c **** 
 431:Drivers/BSP/Components/vl53l1cb/modules/vl53l1_core_support.c **** 
 432:Drivers/BSP/Components/vl53l1cb/modules/vl53l1_core_support.c **** 	tmp_long_int =  tmp_long_int / (0x01 << 9);
 727              		.loc 1 432 2 is_stmt 1 view .LVU236
 728              		.loc 1 432 15 is_stmt 0 view .LVU237
 729 001a 0B46     		mov	r3, r1
 730 001c 0029     		cmp	r1, #0
 731 001e 33DB     		blt	.L60
 732              	.LVL90:
 733              	.L51:
 734              		.loc 1 432 15 view .LVU238
 735 0020 520A     		lsrs	r2, r2, #9
 736 0022 42EAC352 		orr	r2, r2, r3, lsl #23
 737 0026 5912     		asrs	r1, r3, #9
 738              	.LVL91:
 433:Drivers/BSP/Components/vl53l1cb/modules/vl53l1_core_support.c **** 
 434:Drivers/BSP/Components/vl53l1cb/modules/vl53l1_core_support.c **** 
 435:Drivers/BSP/Components/vl53l1cb/modules/vl53l1_core_support.c **** 
 436:Drivers/BSP/Components/vl53l1cb/modules/vl53l1_core_support.c **** 	tmp_long_int =  tmp_long_int * VL53L1_SPEED_OF_LIGHT_IN_AIR_DIV_8;
 739              		.loc 1 436 2 is_stmt 1 view .LVU239
 740              		.loc 1 436 15 is_stmt 0 view .LVU240
 741 0028 49F25720 		movw	r0, #37463
 742              	.LVL92:
 743              		.loc 1 436 15 view .LVU241
 744 002c A2FB0023 		umull	r2, r3, r2, r0
 745              	.LVL93:
 746              		.loc 1 436 15 view .LVU242
 747 0030 00FB0133 		mla	r3, r0, r1, r3
 748              	.LVL94:
 437:Drivers/BSP/Components/vl53l1cb/modules/vl53l1_core_support.c **** 
 438:Drivers/BSP/Components/vl53l1cb/modules/vl53l1_core_support.c **** 
 439:Drivers/BSP/Components/vl53l1cb/modules/vl53l1_core_support.c **** 
 440:Drivers/BSP/Components/vl53l1cb/modules/vl53l1_core_support.c **** 	tmp_long_int =  tmp_long_int / (0x01 << 22);
 749              		.loc 1 440 2 is_stmt 1 view .LVU243
 750              		.loc 1 440 15 is_stmt 0 view .LVU244
 751 0034 1946     		mov	r1, r3
 752 0036 002B     		cmp	r3, #0
 753 0038 2CDB     		blt	.L61
 754              	.LVL95:
 755              	.L52:
 756              		.loc 1 440 15 view .LVU245
 757 003a 920D     		lsrs	r2, r2, #22
 758 003c 42EA8122 		orr	r2, r2, r1, lsl #10
 441:Drivers/BSP/Components/vl53l1cb/modules/vl53l1_core_support.c **** 
 442:Drivers/BSP/Components/vl53l1cb/modules/vl53l1_core_support.c **** 
 443:Drivers/BSP/Components/vl53l1cb/modules/vl53l1_core_support.c **** 	range_mm  = (int32_t)tmp_long_int + range_offset_mm;
 759              		.loc 1 443 2 is_stmt 1 view .LVU246
ARM GAS  C:\Temp\ccEewVJn.s 			page 23


 760              		.loc 1 443 12 is_stmt 0 view .LVU247
 761 0040 059B     		ldr	r3, [sp, #20]
 762 0042 1A44     		add	r2, r2, r3
 763              	.LVL96:
 444:Drivers/BSP/Components/vl53l1cb/modules/vl53l1_core_support.c **** 
 445:Drivers/BSP/Components/vl53l1cb/modules/vl53l1_core_support.c **** 
 446:Drivers/BSP/Components/vl53l1cb/modules/vl53l1_core_support.c **** 	range_mm *= gain_factor;
 764              		.loc 1 446 2 is_stmt 1 view .LVU248
 765              		.loc 1 446 11 is_stmt 0 view .LVU249
 766 0044 049B     		ldr	r3, [sp, #16]
 767 0046 03FB02F2 		mul	r2, r3, r2
 768              	.LVL97:
 447:Drivers/BSP/Components/vl53l1cb/modules/vl53l1_core_support.c **** 	range_mm += 0x0400;
 769              		.loc 1 447 2 is_stmt 1 view .LVU250
 770              		.loc 1 447 11 is_stmt 0 view .LVU251
 771 004a 02F58062 		add	r2, r2, #1024
 772              	.LVL98:
 448:Drivers/BSP/Components/vl53l1cb/modules/vl53l1_core_support.c **** 	range_mm /= 0x0800;
 773              		.loc 1 448 2 is_stmt 1 view .LVU252
 774              		.loc 1 448 11 is_stmt 0 view .LVU253
 775 004e 1046     		mov	r0, r2
 776 0050 002A     		cmp	r2, #0
 777 0052 24DB     		blt	.L62
 778              	.L53:
 779              		.loc 1 448 11 view .LVU254
 780 0054 C012     		asrs	r0, r0, #11
 781              	.LVL99:
 449:Drivers/BSP/Components/vl53l1cb/modules/vl53l1_core_support.c **** 
 450:Drivers/BSP/Components/vl53l1cb/modules/vl53l1_core_support.c **** 
 451:Drivers/BSP/Components/vl53l1cb/modules/vl53l1_core_support.c **** 	if (fractional_bits == 0) {
 782              		.loc 1 451 2 is_stmt 1 view .LVU255
 783              		.loc 1 451 5 is_stmt 0 view .LVU256
 784 0056 85BB     		cbnz	r5, .L54
 452:Drivers/BSP/Components/vl53l1cb/modules/vl53l1_core_support.c **** 		range_mm_10 = range_mm * 10;
 785              		.loc 1 452 3 is_stmt 1 view .LVU257
 786              		.loc 1 452 15 is_stmt 0 view .LVU258
 787 0058 00EB8000 		add	r0, r0, r0, lsl #2
 788              	.LVL100:
 789              		.loc 1 452 15 view .LVU259
 790 005c 4000     		lsls	r0, r0, #1
 791              	.LVL101:
 453:Drivers/BSP/Components/vl53l1cb/modules/vl53l1_core_support.c **** 		range_mm_10 = range_mm_10 / (0x01 << 2);
 792              		.loc 1 453 3 is_stmt 1 view .LVU260
 793              		.loc 1 453 15 is_stmt 0 view .LVU261
 794 005e 0346     		mov	r3, r0
 795 0060 0028     		cmp	r0, #0
 796 0062 1FDB     		blt	.L63
 797              	.L55:
 798              		.loc 1 453 15 view .LVU262
 799 0064 9810     		asrs	r0, r3, #2
 800              	.LVL102:
 454:Drivers/BSP/Components/vl53l1cb/modules/vl53l1_core_support.c **** 		if ((range_mm_10 % 10) < 5)
 801              		.loc 1 454 3 is_stmt 1 view .LVU263
 802              		.loc 1 454 20 is_stmt 0 view .LVU264
 803 0066 1A4A     		ldr	r2, .L66
 804 0068 82FB0012 		smull	r1, r2, r2, r0
 805              		.loc 1 454 20 view .LVU265
ARM GAS  C:\Temp\ccEewVJn.s 			page 24


 806 006c DB17     		asrs	r3, r3, #31
 807 006e C3EBA203 		rsb	r3, r3, r2, asr #2
 808 0072 03EB8303 		add	r3, r3, r3, lsl #2
 809 0076 A0EB4303 		sub	r3, r0, r3, lsl #1
 810              		.loc 1 454 6 view .LVU266
 811 007a 042B     		cmp	r3, #4
 812 007c 14DC     		bgt	.L56
 455:Drivers/BSP/Components/vl53l1cb/modules/vl53l1_core_support.c **** 			range_mm = (int16_t)(range_mm_10 / 10);
 813              		.loc 1 455 4 is_stmt 1 view .LVU267
 814              		.loc 1 455 37 is_stmt 0 view .LVU268
 815 007e C017     		asrs	r0, r0, #31
 816              	.LVL103:
 817              		.loc 1 455 37 view .LVU269
 818 0080 C0EBA200 		rsb	r0, r0, r2, asr #2
 819              		.loc 1 455 15 view .LVU270
 820 0084 00B2     		sxth	r0, r0
 821              	.LVL104:
 822              		.loc 1 455 15 view .LVU271
 823 0086 1AE0     		b	.L50
 824              	.LVL105:
 825              	.L60:
 432:Drivers/BSP/Components/vl53l1cb/modules/vl53l1_core_support.c **** 
 826              		.loc 1 432 15 view .LVU272
 827 0088 40F2FF13 		movw	r3, #511
 828 008c D218     		adds	r2, r2, r3
 829              	.LVL106:
 432:Drivers/BSP/Components/vl53l1cb/modules/vl53l1_core_support.c **** 
 830              		.loc 1 432 15 view .LVU273
 831 008e 41F10003 		adc	r3, r1, #0
 832 0092 C5E7     		b	.L51
 833              	.LVL107:
 834              	.L61:
 440:Drivers/BSP/Components/vl53l1cb/modules/vl53l1_core_support.c **** 
 835              		.loc 1 440 15 view .LVU274
 836 0094 0F49     		ldr	r1, .L66+4
 837              	.LVL108:
 440:Drivers/BSP/Components/vl53l1cb/modules/vl53l1_core_support.c **** 
 838              		.loc 1 440 15 view .LVU275
 839 0096 5218     		adds	r2, r2, r1
 840              	.LVL109:
 440:Drivers/BSP/Components/vl53l1cb/modules/vl53l1_core_support.c **** 
 841              		.loc 1 440 15 view .LVU276
 842 0098 43F10001 		adc	r1, r3, #0
 843 009c CDE7     		b	.L52
 844              	.LVL110:
 845              	.L62:
 448:Drivers/BSP/Components/vl53l1cb/modules/vl53l1_core_support.c **** 
 846              		.loc 1 448 11 view .LVU277
 847 009e 02F2FF70 		addw	r0, r2, #2047
 848              	.LVL111:
 448:Drivers/BSP/Components/vl53l1cb/modules/vl53l1_core_support.c **** 
 849              		.loc 1 448 11 view .LVU278
 850 00a2 D7E7     		b	.L53
 851              	.LVL112:
 852              	.L63:
 453:Drivers/BSP/Components/vl53l1cb/modules/vl53l1_core_support.c **** 		if ((range_mm_10 % 10) < 5)
 853              		.loc 1 453 15 view .LVU279
ARM GAS  C:\Temp\ccEewVJn.s 			page 25


 854 00a4 C31C     		adds	r3, r0, #3
 855 00a6 DDE7     		b	.L55
 856              	.L56:
 456:Drivers/BSP/Components/vl53l1cb/modules/vl53l1_core_support.c **** 		else
 457:Drivers/BSP/Components/vl53l1cb/modules/vl53l1_core_support.c **** 			range_mm = (int16_t)(range_mm_10 / 10 + 1);
 857              		.loc 1 457 4 is_stmt 1 view .LVU280
 858              		.loc 1 457 37 is_stmt 0 view .LVU281
 859 00a8 094B     		ldr	r3, .L66
 860 00aa 83FB0023 		smull	r2, r3, r3, r0
 861 00ae C017     		asrs	r0, r0, #31
 862              	.LVL113:
 863              		.loc 1 457 37 view .LVU282
 864 00b0 C0EBA300 		rsb	r0, r0, r3, asr #2
 865              		.loc 1 457 42 view .LVU283
 866 00b4 0130     		adds	r0, r0, #1
 867              		.loc 1 457 15 view .LVU284
 868 00b6 00B2     		sxth	r0, r0
 869              	.LVL114:
 870              		.loc 1 457 15 view .LVU285
 871 00b8 01E0     		b	.L50
 872              	.LVL115:
 873              	.L54:
 458:Drivers/BSP/Components/vl53l1cb/modules/vl53l1_core_support.c **** 	} else if (fractional_bits == 1)
 874              		.loc 1 458 9 is_stmt 1 view .LVU286
 875              		.loc 1 458 12 is_stmt 0 view .LVU287
 876 00ba 012D     		cmp	r5, #1
 877 00bc 00D0     		beq	.L64
 878              	.LVL116:
 879              	.L50:
 459:Drivers/BSP/Components/vl53l1cb/modules/vl53l1_core_support.c **** 		range_mm = range_mm / (0x01 << 1);
 460:Drivers/BSP/Components/vl53l1cb/modules/vl53l1_core_support.c **** 
 461:Drivers/BSP/Components/vl53l1cb/modules/vl53l1_core_support.c **** 	return range_mm;
 462:Drivers/BSP/Components/vl53l1cb/modules/vl53l1_core_support.c **** }
 880              		.loc 1 462 1 view .LVU288
 881 00be 70BD     		pop	{r4, r5, r6, pc}
 882              	.LVL117:
 883              	.L64:
 459:Drivers/BSP/Components/vl53l1cb/modules/vl53l1_core_support.c **** 		range_mm = range_mm / (0x01 << 1);
 884              		.loc 1 459 3 is_stmt 1 view .LVU289
 459:Drivers/BSP/Components/vl53l1cb/modules/vl53l1_core_support.c **** 		range_mm = range_mm / (0x01 << 1);
 885              		.loc 1 459 12 is_stmt 0 view .LVU290
 886 00c0 1046     		mov	r0, r2
 887              	.LVL118:
 459:Drivers/BSP/Components/vl53l1cb/modules/vl53l1_core_support.c **** 		range_mm = range_mm / (0x01 << 1);
 888              		.loc 1 459 12 view .LVU291
 889 00c2 002A     		cmp	r2, #0
 890 00c4 01DB     		blt	.L65
 891              	.L58:
 892 00c6 0013     		asrs	r0, r0, #12
 893              	.LVL119:
 461:Drivers/BSP/Components/vl53l1cb/modules/vl53l1_core_support.c **** }
 894              		.loc 1 461 2 is_stmt 1 view .LVU292
 461:Drivers/BSP/Components/vl53l1cb/modules/vl53l1_core_support.c **** }
 895              		.loc 1 461 9 is_stmt 0 view .LVU293
 896 00c8 F9E7     		b	.L50
 897              	.LVL120:
 898              	.L65:
ARM GAS  C:\Temp\ccEewVJn.s 			page 26


 459:Drivers/BSP/Components/vl53l1cb/modules/vl53l1_core_support.c **** 		range_mm = range_mm / (0x01 << 1);
 899              		.loc 1 459 12 view .LVU294
 900 00ca 02F6FF70 		addw	r0, r2, #4095
 901 00ce FAE7     		b	.L58
 902              	.L67:
 903              		.align	2
 904              	.L66:
 905 00d0 67666666 		.word	1717986919
 906 00d4 FFFF3F00 		.word	4194303
 907              		.cfi_endproc
 908              	.LFE13:
 910              		.section	.text.VL53L1_decode_vcsel_period,"ax",%progbits
 911              		.align	1
 912              		.global	VL53L1_decode_vcsel_period
 913              		.syntax unified
 914              		.thumb
 915              		.thumb_func
 917              	VL53L1_decode_vcsel_period:
 918              	.LVL121:
 919              	.LFB14:
 463:Drivers/BSP/Components/vl53l1cb/modules/vl53l1_core_support.c **** 
 464:Drivers/BSP/Components/vl53l1cb/modules/vl53l1_core_support.c **** 
 465:Drivers/BSP/Components/vl53l1cb/modules/vl53l1_core_support.c **** uint8_t VL53L1_decode_vcsel_period(uint8_t vcsel_period_reg)
 466:Drivers/BSP/Components/vl53l1cb/modules/vl53l1_core_support.c **** {
 920              		.loc 1 466 1 is_stmt 1 view -0
 921              		.cfi_startproc
 922              		@ args = 0, pretend = 0, frame = 0
 923              		@ frame_needed = 0, uses_anonymous_args = 0
 924              		@ link register save eliminated.
 467:Drivers/BSP/Components/vl53l1cb/modules/vl53l1_core_support.c **** 
 468:Drivers/BSP/Components/vl53l1cb/modules/vl53l1_core_support.c **** 
 469:Drivers/BSP/Components/vl53l1cb/modules/vl53l1_core_support.c **** 	uint8_t VL53L1_p_031 = 0;
 925              		.loc 1 469 2 view .LVU296
 470:Drivers/BSP/Components/vl53l1cb/modules/vl53l1_core_support.c **** 
 471:Drivers/BSP/Components/vl53l1cb/modules/vl53l1_core_support.c **** 	VL53L1_p_031 = (vcsel_period_reg + 1) << 1;
 926              		.loc 1 471 2 view .LVU297
 927              		.loc 1 471 35 is_stmt 0 view .LVU298
 928 0000 0130     		adds	r0, r0, #1
 929              	.LVL122:
 930              		.loc 1 471 35 view .LVU299
 931 0002 C0B2     		uxtb	r0, r0
 932              		.loc 1 471 15 view .LVU300
 933 0004 4000     		lsls	r0, r0, #1
 934              	.LVL123:
 472:Drivers/BSP/Components/vl53l1cb/modules/vl53l1_core_support.c **** 
 473:Drivers/BSP/Components/vl53l1cb/modules/vl53l1_core_support.c **** 	return VL53L1_p_031;
 935              		.loc 1 473 2 is_stmt 1 view .LVU301
 474:Drivers/BSP/Components/vl53l1cb/modules/vl53l1_core_support.c **** }
 936              		.loc 1 474 1 is_stmt 0 view .LVU302
 937 0006 00F0FE00 		and	r0, r0, #254
 938              	.LVL124:
 939              		.loc 1 474 1 view .LVU303
 940 000a 7047     		bx	lr
 941              		.cfi_endproc
 942              	.LFE14:
 944              		.section	.text.VL53L1_hist_calc_zero_distance_phase,"ax",%progbits
 945              		.align	1
ARM GAS  C:\Temp\ccEewVJn.s 			page 27


 946              		.global	VL53L1_hist_calc_zero_distance_phase
 947              		.syntax unified
 948              		.thumb
 949              		.thumb_func
 951              	VL53L1_hist_calc_zero_distance_phase:
 952              	.LVL125:
 953              	.LFB7:
 167:Drivers/BSP/Components/vl53l1cb/modules/vl53l1_core_support.c **** 
 954              		.loc 1 167 1 is_stmt 1 view -0
 955              		.cfi_startproc
 956              		@ args = 0, pretend = 0, frame = 0
 957              		@ frame_needed = 0, uses_anonymous_args = 0
 167:Drivers/BSP/Components/vl53l1cb/modules/vl53l1_core_support.c **** 
 958              		.loc 1 167 1 is_stmt 0 view .LVU305
 959 0000 10B5     		push	{r4, lr}
 960              		.cfi_def_cfa_offset 8
 961              		.cfi_offset 4, -8
 962              		.cfi_offset 14, -4
 963 0002 0446     		mov	r4, r0
 170:Drivers/BSP/Components/vl53l1cb/modules/vl53l1_core_support.c **** 	uint32_t  VL53L1_p_017         = 0;
 964              		.loc 1 170 2 is_stmt 1 view .LVU306
 965              	.LVL126:
 171:Drivers/BSP/Components/vl53l1cb/modules/vl53l1_core_support.c **** 
 966              		.loc 1 171 2 view .LVU307
 173:Drivers/BSP/Components/vl53l1cb/modules/vl53l1_core_support.c **** 
 967              		.loc 1 173 24 view .LVU308
 175:Drivers/BSP/Components/vl53l1cb/modules/vl53l1_core_support.c **** 		(uint32_t)VL53L1_decode_vcsel_period(pdata->VL53L1_p_009);
 968              		.loc 1 175 2 view .LVU309
 176:Drivers/BSP/Components/vl53l1cb/modules/vl53l1_core_support.c **** 
 969              		.loc 1 176 13 is_stmt 0 view .LVU310
 970 0004 90F88400 		ldrb	r0, [r0, #132]	@ zero_extendqisi2
 971              	.LVL127:
 176:Drivers/BSP/Components/vl53l1cb/modules/vl53l1_core_support.c **** 
 972              		.loc 1 176 13 view .LVU311
 973 0008 FFF7FEFF 		bl	VL53L1_decode_vcsel_period
 974              	.LVL128:
 178:Drivers/BSP/Components/vl53l1cb/modules/vl53l1_core_support.c **** 	VL53L1_p_017 += (uint32_t)pdata->phasecal_result__reference_phase;
 975              		.loc 1 178 2 is_stmt 1 view .LVU312
 179:Drivers/BSP/Components/vl53l1cb/modules/vl53l1_core_support.c **** 	VL53L1_p_017 += (2048 * (uint32_t)pdata->phasecal_result__vcsel_start);
 976              		.loc 1 179 2 view .LVU313
 179:Drivers/BSP/Components/vl53l1cb/modules/vl53l1_core_support.c **** 	VL53L1_p_017 += (2048 * (uint32_t)pdata->phasecal_result__vcsel_start);
 977              		.loc 1 179 33 is_stmt 0 view .LVU314
 978 000c B4F87E30 		ldrh	r3, [r4, #126]
 179:Drivers/BSP/Components/vl53l1cb/modules/vl53l1_core_support.c **** 	VL53L1_p_017 += (2048 * (uint32_t)pdata->phasecal_result__vcsel_start);
 979              		.loc 1 179 15 view .LVU315
 980 0010 03EBC023 		add	r3, r3, r0, lsl #11
 981              	.LVL129:
 180:Drivers/BSP/Components/vl53l1cb/modules/vl53l1_core_support.c **** 	VL53L1_p_017 -= (2048 * (uint32_t)pdata->cal_config__vcsel_start);
 982              		.loc 1 180 2 is_stmt 1 view .LVU316
 180:Drivers/BSP/Components/vl53l1cb/modules/vl53l1_core_support.c **** 	VL53L1_p_017 -= (2048 * (uint32_t)pdata->cal_config__vcsel_start);
 983              		.loc 1 180 41 is_stmt 0 view .LVU317
 984 0014 94F88020 		ldrb	r2, [r4, #128]	@ zero_extendqisi2
 180:Drivers/BSP/Components/vl53l1cb/modules/vl53l1_core_support.c **** 	VL53L1_p_017 -= (2048 * (uint32_t)pdata->cal_config__vcsel_start);
 985              		.loc 1 180 15 view .LVU318
 986 0018 03EBC223 		add	r3, r3, r2, lsl #11
 987              	.LVL130:
 181:Drivers/BSP/Components/vl53l1cb/modules/vl53l1_core_support.c **** 
ARM GAS  C:\Temp\ccEewVJn.s 			page 28


 988              		.loc 1 181 2 is_stmt 1 view .LVU319
 181:Drivers/BSP/Components/vl53l1cb/modules/vl53l1_core_support.c **** 
 989              		.loc 1 181 41 is_stmt 0 view .LVU320
 990 001c 94F88120 		ldrb	r2, [r4, #129]	@ zero_extendqisi2
 181:Drivers/BSP/Components/vl53l1cb/modules/vl53l1_core_support.c **** 
 991              		.loc 1 181 15 view .LVU321
 992 0020 A3EBC223 		sub	r3, r3, r2, lsl #11
 993              	.LVL131:
 183:Drivers/BSP/Components/vl53l1cb/modules/vl53l1_core_support.c **** 		VL53L1_p_017  = VL53L1_p_017 % period;
 994              		.loc 1 183 2 is_stmt 1 view .LVU322
 183:Drivers/BSP/Components/vl53l1cb/modules/vl53l1_core_support.c **** 		VL53L1_p_017  = VL53L1_p_017 % period;
 995              		.loc 1 183 5 is_stmt 0 view .LVU323
 996 0024 C002     		lsls	r0, r0, #11
 997              	.LVL132:
 183:Drivers/BSP/Components/vl53l1cb/modules/vl53l1_core_support.c **** 		VL53L1_p_017  = VL53L1_p_017 % period;
 998              		.loc 1 183 5 view .LVU324
 999 0026 03D0     		beq	.L70
 184:Drivers/BSP/Components/vl53l1cb/modules/vl53l1_core_support.c **** 	else
 1000              		.loc 1 184 3 is_stmt 1 view .LVU325
 184:Drivers/BSP/Components/vl53l1cb/modules/vl53l1_core_support.c **** 	else
 1001              		.loc 1 184 17 is_stmt 0 view .LVU326
 1002 0028 B3FBF0F2 		udiv	r2, r3, r0
 1003 002c 00FB1230 		mls	r0, r0, r2, r3
 1004              	.LVL133:
 1005              	.L70:
 188:Drivers/BSP/Components/vl53l1cb/modules/vl53l1_core_support.c **** 
 1006              		.loc 1 188 2 is_stmt 1 view .LVU327
 188:Drivers/BSP/Components/vl53l1cb/modules/vl53l1_core_support.c **** 
 1007              		.loc 1 188 29 is_stmt 0 view .LVU328
 1008 0030 A4F89C00 		strh	r0, [r4, #156]	@ movhi
 190:Drivers/BSP/Components/vl53l1cb/modules/vl53l1_core_support.c **** }
 1009              		.loc 1 190 21 is_stmt 1 view .LVU329
 191:Drivers/BSP/Components/vl53l1cb/modules/vl53l1_core_support.c **** 
 1010              		.loc 1 191 1 is_stmt 0 view .LVU330
 1011 0034 10BD     		pop	{r4, pc}
 191:Drivers/BSP/Components/vl53l1cb/modules/vl53l1_core_support.c **** 
 1012              		.loc 1 191 1 view .LVU331
 1013              		.cfi_endproc
 1014              	.LFE7:
 1016              		.section	.text.VL53L1_copy_xtalk_bin_data_to_histogram_data_struct,"ax",%progbits
 1017              		.align	1
 1018              		.global	VL53L1_copy_xtalk_bin_data_to_histogram_data_struct
 1019              		.syntax unified
 1020              		.thumb
 1021              		.thumb_func
 1023              	VL53L1_copy_xtalk_bin_data_to_histogram_data_struct:
 1024              	.LVL134:
 1025              	.LFB15:
 475:Drivers/BSP/Components/vl53l1cb/modules/vl53l1_core_support.c **** 
 476:Drivers/BSP/Components/vl53l1cb/modules/vl53l1_core_support.c **** 
 477:Drivers/BSP/Components/vl53l1cb/modules/vl53l1_core_support.c **** void VL53L1_copy_xtalk_bin_data_to_histogram_data_struct(
 478:Drivers/BSP/Components/vl53l1cb/modules/vl53l1_core_support.c **** 		VL53L1_xtalk_histogram_shape_t *pxtalk,
 479:Drivers/BSP/Components/vl53l1cb/modules/vl53l1_core_support.c **** 		VL53L1_histogram_bin_data_t    *phist)
 480:Drivers/BSP/Components/vl53l1cb/modules/vl53l1_core_support.c **** {
 1026              		.loc 1 480 1 is_stmt 1 view -0
 1027              		.cfi_startproc
 1028              		@ args = 0, pretend = 0, frame = 0
ARM GAS  C:\Temp\ccEewVJn.s 			page 29


 1029              		@ frame_needed = 0, uses_anonymous_args = 0
 1030              		@ link register save eliminated.
 481:Drivers/BSP/Components/vl53l1cb/modules/vl53l1_core_support.c **** 
 482:Drivers/BSP/Components/vl53l1cb/modules/vl53l1_core_support.c **** 
 483:Drivers/BSP/Components/vl53l1cb/modules/vl53l1_core_support.c **** 	phist->cal_config__vcsel_start =
 1031              		.loc 1 483 2 view .LVU333
 484:Drivers/BSP/Components/vl53l1cb/modules/vl53l1_core_support.c **** 			pxtalk->cal_config__vcsel_start;
 1032              		.loc 1 484 10 is_stmt 0 view .LVU334
 1033 0000 90F83F30 		ldrb	r3, [r0, #63]	@ zero_extendqisi2
 483:Drivers/BSP/Components/vl53l1cb/modules/vl53l1_core_support.c **** 			pxtalk->cal_config__vcsel_start;
 1034              		.loc 1 483 33 view .LVU335
 1035 0004 81F88130 		strb	r3, [r1, #129]
 485:Drivers/BSP/Components/vl53l1cb/modules/vl53l1_core_support.c **** 	phist->VL53L1_p_019 =
 1036              		.loc 1 485 2 is_stmt 1 view .LVU336
 486:Drivers/BSP/Components/vl53l1cb/modules/vl53l1_core_support.c **** 			pxtalk->VL53L1_p_019;
 1037              		.loc 1 486 10 is_stmt 0 view .LVU337
 1038 0008 B0F84230 		ldrh	r3, [r0, #66]
 485:Drivers/BSP/Components/vl53l1cb/modules/vl53l1_core_support.c **** 	phist->VL53L1_p_019 =
 1039              		.loc 1 485 22 view .LVU338
 1040 000c A1F88630 		strh	r3, [r1, #134]	@ movhi
 487:Drivers/BSP/Components/vl53l1cb/modules/vl53l1_core_support.c **** 	phist->VL53L1_p_022 =
 1041              		.loc 1 487 2 is_stmt 1 view .LVU339
 488:Drivers/BSP/Components/vl53l1cb/modules/vl53l1_core_support.c **** 			pxtalk->VL53L1_p_022;
 1042              		.loc 1 488 10 is_stmt 0 view .LVU340
 1043 0010 037A     		ldrb	r3, [r0, #8]	@ zero_extendqisi2
 487:Drivers/BSP/Components/vl53l1cb/modules/vl53l1_core_support.c **** 	phist->VL53L1_p_022 =
 1044              		.loc 1 487 22 view .LVU341
 1045 0012 0B72     		strb	r3, [r1, #8]
 489:Drivers/BSP/Components/vl53l1cb/modules/vl53l1_core_support.c **** 
 490:Drivers/BSP/Components/vl53l1cb/modules/vl53l1_core_support.c **** 	phist->phasecal_result__reference_phase   =
 1046              		.loc 1 490 2 is_stmt 1 view .LVU342
 491:Drivers/BSP/Components/vl53l1cb/modules/vl53l1_core_support.c **** 			pxtalk->phasecal_result__reference_phase;
 1047              		.loc 1 491 10 is_stmt 0 view .LVU343
 1048 0014 838F     		ldrh	r3, [r0, #60]
 490:Drivers/BSP/Components/vl53l1cb/modules/vl53l1_core_support.c **** 			pxtalk->phasecal_result__reference_phase;
 1049              		.loc 1 490 44 view .LVU344
 1050 0016 A1F87E30 		strh	r3, [r1, #126]	@ movhi
 492:Drivers/BSP/Components/vl53l1cb/modules/vl53l1_core_support.c **** 	phist->phasecal_result__vcsel_start       =
 1051              		.loc 1 492 2 is_stmt 1 view .LVU345
 493:Drivers/BSP/Components/vl53l1cb/modules/vl53l1_core_support.c **** 			pxtalk->phasecal_result__vcsel_start;
 1052              		.loc 1 493 10 is_stmt 0 view .LVU346
 1053 001a 90F83E30 		ldrb	r3, [r0, #62]	@ zero_extendqisi2
 492:Drivers/BSP/Components/vl53l1cb/modules/vl53l1_core_support.c **** 	phist->phasecal_result__vcsel_start       =
 1054              		.loc 1 492 44 view .LVU347
 1055 001e 81F88030 		strb	r3, [r1, #128]
 494:Drivers/BSP/Components/vl53l1cb/modules/vl53l1_core_support.c **** 
 495:Drivers/BSP/Components/vl53l1cb/modules/vl53l1_core_support.c **** 	phist->vcsel_width =
 1056              		.loc 1 495 2 is_stmt 1 view .LVU348
 496:Drivers/BSP/Components/vl53l1cb/modules/vl53l1_core_support.c **** 			pxtalk->vcsel_width;
 1057              		.loc 1 496 10 is_stmt 0 view .LVU349
 1058 0022 B0F84030 		ldrh	r3, [r0, #64]
 495:Drivers/BSP/Components/vl53l1cb/modules/vl53l1_core_support.c **** 			pxtalk->vcsel_width;
 1059              		.loc 1 495 21 view .LVU350
 1060 0026 A1F88230 		strh	r3, [r1, #130]	@ movhi
 497:Drivers/BSP/Components/vl53l1cb/modules/vl53l1_core_support.c **** 	phist->zero_distance_phase =
 1061              		.loc 1 497 2 is_stmt 1 view .LVU351
 498:Drivers/BSP/Components/vl53l1cb/modules/vl53l1_core_support.c **** 			pxtalk->zero_distance_phase;
ARM GAS  C:\Temp\ccEewVJn.s 			page 30


 1062              		.loc 1 498 10 is_stmt 0 view .LVU352
 1063 002a B0F84430 		ldrh	r3, [r0, #68]
 497:Drivers/BSP/Components/vl53l1cb/modules/vl53l1_core_support.c **** 	phist->zero_distance_phase =
 1064              		.loc 1 497 29 view .LVU353
 1065 002e A1F89C30 		strh	r3, [r1, #156]	@ movhi
 499:Drivers/BSP/Components/vl53l1cb/modules/vl53l1_core_support.c **** 
 500:Drivers/BSP/Components/vl53l1cb/modules/vl53l1_core_support.c **** 	phist->zone_id      = pxtalk->zone_id;
 1066              		.loc 1 500 2 is_stmt 1 view .LVU354
 1067              		.loc 1 500 30 is_stmt 0 view .LVU355
 1068 0032 0378     		ldrb	r3, [r0]	@ zero_extendqisi2
 1069              		.loc 1 500 22 view .LVU356
 1070 0034 8B70     		strb	r3, [r1, #2]
 501:Drivers/BSP/Components/vl53l1cb/modules/vl53l1_core_support.c **** 	phist->VL53L1_p_023  = pxtalk->VL53L1_p_023;
 1071              		.loc 1 501 2 is_stmt 1 view .LVU357
 1072              		.loc 1 501 31 is_stmt 0 view .LVU358
 1073 0036 437A     		ldrb	r3, [r0, #9]	@ zero_extendqisi2
 1074              		.loc 1 501 23 view .LVU359
 1075 0038 4B72     		strb	r3, [r1, #9]
 502:Drivers/BSP/Components/vl53l1cb/modules/vl53l1_core_support.c **** 	phist->time_stamp   = pxtalk->time_stamp;
 1076              		.loc 1 502 2 is_stmt 1 view .LVU360
 1077              		.loc 1 502 30 is_stmt 0 view .LVU361
 1078 003a 4368     		ldr	r3, [r0, #4]
 1079              		.loc 1 502 22 view .LVU362
 1080 003c 4B60     		str	r3, [r1, #4]
 503:Drivers/BSP/Components/vl53l1cb/modules/vl53l1_core_support.c **** }
 1081              		.loc 1 503 1 view .LVU363
 1082 003e 7047     		bx	lr
 1083              		.cfi_endproc
 1084              	.LFE15:
 1086              		.section	.text.VL53L1_init_histogram_bin_data_struct,"ax",%progbits
 1087              		.align	1
 1088              		.global	VL53L1_init_histogram_bin_data_struct
 1089              		.syntax unified
 1090              		.thumb
 1091              		.thumb_func
 1093              	VL53L1_init_histogram_bin_data_struct:
 1094              	.LVL135:
 1095              	.LFB16:
 504:Drivers/BSP/Components/vl53l1cb/modules/vl53l1_core_support.c **** 
 505:Drivers/BSP/Components/vl53l1cb/modules/vl53l1_core_support.c **** 
 506:Drivers/BSP/Components/vl53l1cb/modules/vl53l1_core_support.c **** void VL53L1_init_histogram_bin_data_struct(
 507:Drivers/BSP/Components/vl53l1cb/modules/vl53l1_core_support.c **** 	int32_t                      bin_value,
 508:Drivers/BSP/Components/vl53l1cb/modules/vl53l1_core_support.c **** 	uint16_t                     VL53L1_p_024,
 509:Drivers/BSP/Components/vl53l1cb/modules/vl53l1_core_support.c **** 	VL53L1_histogram_bin_data_t *pdata)
 510:Drivers/BSP/Components/vl53l1cb/modules/vl53l1_core_support.c **** {
 1096              		.loc 1 510 1 is_stmt 1 view -0
 1097              		.cfi_startproc
 1098              		@ args = 0, pretend = 0, frame = 0
 1099              		@ frame_needed = 0, uses_anonymous_args = 0
 1100              		@ link register save eliminated.
 1101              		.loc 1 510 1 is_stmt 0 view .LVU365
 1102 0000 10B4     		push	{r4}
 1103              		.cfi_def_cfa_offset 4
 1104              		.cfi_offset 4, -4
 511:Drivers/BSP/Components/vl53l1cb/modules/vl53l1_core_support.c **** 
 512:Drivers/BSP/Components/vl53l1cb/modules/vl53l1_core_support.c **** 
 513:Drivers/BSP/Components/vl53l1cb/modules/vl53l1_core_support.c **** 
ARM GAS  C:\Temp\ccEewVJn.s 			page 31


 514:Drivers/BSP/Components/vl53l1cb/modules/vl53l1_core_support.c **** 	uint16_t          i = 0;
 1105              		.loc 1 514 2 is_stmt 1 view .LVU366
 1106              	.LVL136:
 515:Drivers/BSP/Components/vl53l1cb/modules/vl53l1_core_support.c **** 
 516:Drivers/BSP/Components/vl53l1cb/modules/vl53l1_core_support.c **** 	pdata->cfg_device_state          = VL53L1_DEVICESTATE_SW_STANDBY;
 1107              		.loc 1 516 2 view .LVU367
 1108              		.loc 1 516 35 is_stmt 0 view .LVU368
 1109 0002 0323     		movs	r3, #3
 1110 0004 1370     		strb	r3, [r2]
 517:Drivers/BSP/Components/vl53l1cb/modules/vl53l1_core_support.c **** 	pdata->rd_device_state           = VL53L1_DEVICESTATE_SW_STANDBY;
 1111              		.loc 1 517 2 is_stmt 1 view .LVU369
 1112              		.loc 1 517 35 is_stmt 0 view .LVU370
 1113 0006 5370     		strb	r3, [r2, #1]
 518:Drivers/BSP/Components/vl53l1cb/modules/vl53l1_core_support.c **** 
 519:Drivers/BSP/Components/vl53l1cb/modules/vl53l1_core_support.c **** 	pdata->zone_id                   = 0;
 1114              		.loc 1 519 2 is_stmt 1 view .LVU371
 1115              		.loc 1 519 35 is_stmt 0 view .LVU372
 1116 0008 0023     		movs	r3, #0
 1117 000a 9370     		strb	r3, [r2, #2]
 520:Drivers/BSP/Components/vl53l1cb/modules/vl53l1_core_support.c **** 	pdata->time_stamp                = 0;
 1118              		.loc 1 520 2 is_stmt 1 view .LVU373
 1119              		.loc 1 520 35 is_stmt 0 view .LVU374
 1120 000c 5360     		str	r3, [r2, #4]
 521:Drivers/BSP/Components/vl53l1cb/modules/vl53l1_core_support.c **** 
 522:Drivers/BSP/Components/vl53l1cb/modules/vl53l1_core_support.c **** 	pdata->VL53L1_p_022                 = 0;
 1121              		.loc 1 522 2 is_stmt 1 view .LVU375
 1122              		.loc 1 522 38 is_stmt 0 view .LVU376
 1123 000e 1372     		strb	r3, [r2, #8]
 523:Drivers/BSP/Components/vl53l1cb/modules/vl53l1_core_support.c **** 	pdata->VL53L1_p_023               = VL53L1_HISTOGRAM_BUFFER_SIZE;
 1124              		.loc 1 523 2 is_stmt 1 view .LVU377
 1125              		.loc 1 523 36 is_stmt 0 view .LVU378
 1126 0010 1824     		movs	r4, #24
 1127 0012 5472     		strb	r4, [r2, #9]
 524:Drivers/BSP/Components/vl53l1cb/modules/vl53l1_core_support.c **** 	pdata->VL53L1_p_024            = (uint8_t)VL53L1_p_024;
 1128              		.loc 1 524 2 is_stmt 1 view .LVU379
 1129              		.loc 1 524 33 is_stmt 0 view .LVU380
 1130 0014 9172     		strb	r1, [r2, #10]
 525:Drivers/BSP/Components/vl53l1cb/modules/vl53l1_core_support.c **** 	pdata->number_of_ambient_bins    = 0;
 1131              		.loc 1 525 2 is_stmt 1 view .LVU381
 1132              		.loc 1 525 35 is_stmt 0 view .LVU382
 1133 0016 D372     		strb	r3, [r2, #11]
 526:Drivers/BSP/Components/vl53l1cb/modules/vl53l1_core_support.c **** 
 527:Drivers/BSP/Components/vl53l1cb/modules/vl53l1_core_support.c **** 	pdata->result__interrupt_status           = 0;
 1134              		.loc 1 527 2 is_stmt 1 view .LVU383
 1135              		.loc 1 527 44 is_stmt 0 view .LVU384
 1136 0018 82F87830 		strb	r3, [r2, #120]
 528:Drivers/BSP/Components/vl53l1cb/modules/vl53l1_core_support.c **** 	pdata->result__range_status               = 0;
 1137              		.loc 1 528 2 is_stmt 1 view .LVU385
 1138              		.loc 1 528 44 is_stmt 0 view .LVU386
 1139 001c 82F87930 		strb	r3, [r2, #121]
 529:Drivers/BSP/Components/vl53l1cb/modules/vl53l1_core_support.c **** 	pdata->result__report_status              = 0;
 1140              		.loc 1 529 2 is_stmt 1 view .LVU387
 1141              		.loc 1 529 44 is_stmt 0 view .LVU388
 1142 0020 82F87A30 		strb	r3, [r2, #122]
 530:Drivers/BSP/Components/vl53l1cb/modules/vl53l1_core_support.c **** 	pdata->result__stream_count               = 0;
 1143              		.loc 1 530 2 is_stmt 1 view .LVU389
 1144              		.loc 1 530 44 is_stmt 0 view .LVU390
ARM GAS  C:\Temp\ccEewVJn.s 			page 32


 1145 0024 82F87B30 		strb	r3, [r2, #123]
 531:Drivers/BSP/Components/vl53l1cb/modules/vl53l1_core_support.c **** 
 532:Drivers/BSP/Components/vl53l1cb/modules/vl53l1_core_support.c **** 	pdata->result__dss_actual_effective_spads = 0;
 1146              		.loc 1 532 2 is_stmt 1 view .LVU391
 1147              		.loc 1 532 44 is_stmt 0 view .LVU392
 1148 0028 A2F87C30 		strh	r3, [r2, #124]	@ movhi
 533:Drivers/BSP/Components/vl53l1cb/modules/vl53l1_core_support.c **** 	pdata->phasecal_result__reference_phase   = 0;
 1149              		.loc 1 533 2 is_stmt 1 view .LVU393
 1150              		.loc 1 533 44 is_stmt 0 view .LVU394
 1151 002c A2F87E30 		strh	r3, [r2, #126]	@ movhi
 534:Drivers/BSP/Components/vl53l1cb/modules/vl53l1_core_support.c **** 	pdata->phasecal_result__vcsel_start       = 0;
 1152              		.loc 1 534 2 is_stmt 1 view .LVU395
 1153              		.loc 1 534 44 is_stmt 0 view .LVU396
 1154 0030 82F88030 		strb	r3, [r2, #128]
 535:Drivers/BSP/Components/vl53l1cb/modules/vl53l1_core_support.c **** 	pdata->cal_config__vcsel_start            = 0;
 1155              		.loc 1 535 2 is_stmt 1 view .LVU397
 1156              		.loc 1 535 44 is_stmt 0 view .LVU398
 1157 0034 82F88130 		strb	r3, [r2, #129]
 536:Drivers/BSP/Components/vl53l1cb/modules/vl53l1_core_support.c **** 
 537:Drivers/BSP/Components/vl53l1cb/modules/vl53l1_core_support.c **** 	pdata->vcsel_width                        = 0;
 1158              		.loc 1 537 2 is_stmt 1 view .LVU399
 1159              		.loc 1 537 44 is_stmt 0 view .LVU400
 1160 0038 A2F88230 		strh	r3, [r2, #130]	@ movhi
 538:Drivers/BSP/Components/vl53l1cb/modules/vl53l1_core_support.c **** 	pdata->VL53L1_p_009                       = 0;
 1161              		.loc 1 538 2 is_stmt 1 view .LVU401
 1162              		.loc 1 538 44 is_stmt 0 view .LVU402
 1163 003c 82F88430 		strb	r3, [r2, #132]
 539:Drivers/BSP/Components/vl53l1cb/modules/vl53l1_core_support.c **** 	pdata->VL53L1_p_019                = 0;
 1164              		.loc 1 539 2 is_stmt 1 view .LVU403
 1165              		.loc 1 539 37 is_stmt 0 view .LVU404
 1166 0040 A2F88630 		strh	r3, [r2, #134]	@ movhi
 540:Drivers/BSP/Components/vl53l1cb/modules/vl53l1_core_support.c **** 	pdata->total_periods_elapsed              = 0;
 1167              		.loc 1 540 2 is_stmt 1 view .LVU405
 1168              		.loc 1 540 44 is_stmt 0 view .LVU406
 1169 0044 C2F88830 		str	r3, [r2, #136]
 541:Drivers/BSP/Components/vl53l1cb/modules/vl53l1_core_support.c **** 
 542:Drivers/BSP/Components/vl53l1cb/modules/vl53l1_core_support.c **** 	pdata->min_bin_value                      = 0;
 1170              		.loc 1 542 2 is_stmt 1 view .LVU407
 1171              		.loc 1 542 44 is_stmt 0 view .LVU408
 1172 0048 C2F89430 		str	r3, [r2, #148]
 543:Drivers/BSP/Components/vl53l1cb/modules/vl53l1_core_support.c **** 	pdata->max_bin_value                      = 0;
 1173              		.loc 1 543 2 is_stmt 1 view .LVU409
 1174              		.loc 1 543 44 is_stmt 0 view .LVU410
 1175 004c C2F89830 		str	r3, [r2, #152]
 544:Drivers/BSP/Components/vl53l1cb/modules/vl53l1_core_support.c **** 
 545:Drivers/BSP/Components/vl53l1cb/modules/vl53l1_core_support.c **** 	pdata->zero_distance_phase                = 0;
 1176              		.loc 1 545 2 is_stmt 1 view .LVU411
 1177              		.loc 1 545 44 is_stmt 0 view .LVU412
 1178 0050 A2F89C30 		strh	r3, [r2, #156]	@ movhi
 546:Drivers/BSP/Components/vl53l1cb/modules/vl53l1_core_support.c **** 	pdata->number_of_ambient_samples          = 0;
 1179              		.loc 1 546 2 is_stmt 1 view .LVU413
 1180              		.loc 1 546 44 is_stmt 0 view .LVU414
 1181 0054 82F89E30 		strb	r3, [r2, #158]
 547:Drivers/BSP/Components/vl53l1cb/modules/vl53l1_core_support.c **** 	pdata->ambient_events_sum                 = 0;
 1182              		.loc 1 547 2 is_stmt 1 view .LVU415
 1183              		.loc 1 547 44 is_stmt 0 view .LVU416
 1184 0058 C2F8A030 		str	r3, [r2, #160]
ARM GAS  C:\Temp\ccEewVJn.s 			page 33


 548:Drivers/BSP/Components/vl53l1cb/modules/vl53l1_core_support.c **** 	pdata->VL53L1_p_004             = 0;
 1185              		.loc 1 548 2 is_stmt 1 view .LVU417
 1186              		.loc 1 548 34 is_stmt 0 view .LVU418
 1187 005c C2F8A430 		str	r3, [r2, #164]
 549:Drivers/BSP/Components/vl53l1cb/modules/vl53l1_core_support.c **** 
 550:Drivers/BSP/Components/vl53l1cb/modules/vl53l1_core_support.c **** 	for (i = 0; i < VL53L1_MAX_BIN_SEQUENCE_LENGTH; i++)
 1188              		.loc 1 550 2 is_stmt 1 view .LVU419
 1189              		.loc 1 550 2 is_stmt 0 view .LVU420
 1190 0060 03E0     		b	.L74
 1191              	.LVL137:
 1192              	.L75:
 551:Drivers/BSP/Components/vl53l1cb/modules/vl53l1_core_support.c **** 		pdata->bin_seq[i] = (uint8_t)i;
 1193              		.loc 1 551 3 is_stmt 1 discriminator 3 view .LVU421
 1194              		.loc 1 551 21 is_stmt 0 discriminator 3 view .LVU422
 1195 0062 D418     		adds	r4, r2, r3
 1196 0064 2373     		strb	r3, [r4, #12]
 550:Drivers/BSP/Components/vl53l1cb/modules/vl53l1_core_support.c **** 		pdata->bin_seq[i] = (uint8_t)i;
 1197              		.loc 1 550 51 is_stmt 1 discriminator 3 view .LVU423
 1198 0066 0133     		adds	r3, r3, #1
 1199              	.LVL138:
 550:Drivers/BSP/Components/vl53l1cb/modules/vl53l1_core_support.c **** 		pdata->bin_seq[i] = (uint8_t)i;
 1200              		.loc 1 550 51 is_stmt 0 discriminator 3 view .LVU424
 1201 0068 9BB2     		uxth	r3, r3
 1202              	.LVL139:
 1203              	.L74:
 550:Drivers/BSP/Components/vl53l1cb/modules/vl53l1_core_support.c **** 		pdata->bin_seq[i] = (uint8_t)i;
 1204              		.loc 1 550 16 is_stmt 1 discriminator 1 view .LVU425
 1205 006a 052B     		cmp	r3, #5
 1206 006c F9D9     		bls	.L75
 552:Drivers/BSP/Components/vl53l1cb/modules/vl53l1_core_support.c **** 
 553:Drivers/BSP/Components/vl53l1cb/modules/vl53l1_core_support.c **** 	for (i = 0; i < VL53L1_MAX_BIN_SEQUENCE_LENGTH; i++)
 1207              		.loc 1 553 9 is_stmt 0 view .LVU426
 1208 006e 0023     		movs	r3, #0
 1209              	.LVL140:
 1210              		.loc 1 553 9 view .LVU427
 1211 0070 06E0     		b	.L76
 1212              	.LVL141:
 1213              	.L77:
 554:Drivers/BSP/Components/vl53l1cb/modules/vl53l1_core_support.c **** 		pdata->bin_rep[i] = 1;
 1214              		.loc 1 554 3 is_stmt 1 discriminator 3 view .LVU428
 1215              		.loc 1 554 21 is_stmt 0 discriminator 3 view .LVU429
 1216 0072 D418     		adds	r4, r2, r3
 1217 0074 4FF0010C 		mov	ip, #1
 1218 0078 84F812C0 		strb	ip, [r4, #18]
 553:Drivers/BSP/Components/vl53l1cb/modules/vl53l1_core_support.c **** 		pdata->bin_rep[i] = 1;
 1219              		.loc 1 553 51 is_stmt 1 discriminator 3 view .LVU430
 1220 007c 6344     		add	r3, r3, ip
 1221              	.LVL142:
 553:Drivers/BSP/Components/vl53l1cb/modules/vl53l1_core_support.c **** 		pdata->bin_rep[i] = 1;
 1222              		.loc 1 553 51 is_stmt 0 discriminator 3 view .LVU431
 1223 007e 9BB2     		uxth	r3, r3
 1224              	.LVL143:
 1225              	.L76:
 553:Drivers/BSP/Components/vl53l1cb/modules/vl53l1_core_support.c **** 		pdata->bin_rep[i] = 1;
 1226              		.loc 1 553 16 is_stmt 1 discriminator 1 view .LVU432
 1227 0080 052B     		cmp	r3, #5
 1228 0082 F6D9     		bls	.L77
ARM GAS  C:\Temp\ccEewVJn.s 			page 34


 555:Drivers/BSP/Components/vl53l1cb/modules/vl53l1_core_support.c **** 
 556:Drivers/BSP/Components/vl53l1cb/modules/vl53l1_core_support.c **** 
 557:Drivers/BSP/Components/vl53l1cb/modules/vl53l1_core_support.c **** 	for (i = 0; i < VL53L1_HISTOGRAM_BUFFER_SIZE; i++)
 1229              		.loc 1 557 9 is_stmt 0 view .LVU433
 1230 0084 0023     		movs	r3, #0
 1231              	.LVL144:
 1232              		.loc 1 557 9 view .LVU434
 1233 0086 06E0     		b	.L78
 1234              	.LVL145:
 1235              	.L79:
 558:Drivers/BSP/Components/vl53l1cb/modules/vl53l1_core_support.c **** 		if (i < VL53L1_p_024)
 559:Drivers/BSP/Components/vl53l1cb/modules/vl53l1_core_support.c **** 			pdata->bin_data[i] = bin_value;
 560:Drivers/BSP/Components/vl53l1cb/modules/vl53l1_core_support.c **** 		else
 561:Drivers/BSP/Components/vl53l1cb/modules/vl53l1_core_support.c **** 			pdata->bin_data[i] = 0;
 1236              		.loc 1 561 4 is_stmt 1 view .LVU435
 1237              		.loc 1 561 23 is_stmt 0 view .LVU436
 1238 0088 03F1060C 		add	ip, r3, #6
 1239 008c 0024     		movs	r4, #0
 1240 008e 42F82C40 		str	r4, [r2, ip, lsl #2]
 1241              	.L80:
 557:Drivers/BSP/Components/vl53l1cb/modules/vl53l1_core_support.c **** 		if (i < VL53L1_p_024)
 1242              		.loc 1 557 49 is_stmt 1 discriminator 2 view .LVU437
 1243 0092 0133     		adds	r3, r3, #1
 1244              	.LVL146:
 557:Drivers/BSP/Components/vl53l1cb/modules/vl53l1_core_support.c **** 		if (i < VL53L1_p_024)
 1245              		.loc 1 557 49 is_stmt 0 discriminator 2 view .LVU438
 1246 0094 9BB2     		uxth	r3, r3
 1247              	.LVL147:
 1248              	.L78:
 557:Drivers/BSP/Components/vl53l1cb/modules/vl53l1_core_support.c **** 		if (i < VL53L1_p_024)
 1249              		.loc 1 557 16 is_stmt 1 discriminator 1 view .LVU439
 1250 0096 172B     		cmp	r3, #23
 1251 0098 05D8     		bhi	.L83
 558:Drivers/BSP/Components/vl53l1cb/modules/vl53l1_core_support.c **** 		if (i < VL53L1_p_024)
 1252              		.loc 1 558 3 view .LVU440
 558:Drivers/BSP/Components/vl53l1cb/modules/vl53l1_core_support.c **** 		if (i < VL53L1_p_024)
 1253              		.loc 1 558 6 is_stmt 0 view .LVU441
 1254 009a 8B42     		cmp	r3, r1
 1255 009c F4D2     		bcs	.L79
 559:Drivers/BSP/Components/vl53l1cb/modules/vl53l1_core_support.c **** 		else
 1256              		.loc 1 559 4 is_stmt 1 view .LVU442
 559:Drivers/BSP/Components/vl53l1cb/modules/vl53l1_core_support.c **** 		else
 1257              		.loc 1 559 23 is_stmt 0 view .LVU443
 1258 009e 9C1D     		adds	r4, r3, #6
 1259 00a0 42F82400 		str	r0, [r2, r4, lsl #2]
 1260 00a4 F5E7     		b	.L80
 1261              	.L83:
 562:Drivers/BSP/Components/vl53l1cb/modules/vl53l1_core_support.c **** 
 563:Drivers/BSP/Components/vl53l1cb/modules/vl53l1_core_support.c **** 
 564:Drivers/BSP/Components/vl53l1cb/modules/vl53l1_core_support.c **** }
 1262              		.loc 1 564 1 view .LVU444
 1263 00a6 5DF8044B 		ldr	r4, [sp], #4
 1264              		.cfi_restore 4
 1265              		.cfi_def_cfa_offset 0
 1266 00aa 7047     		bx	lr
 1267              		.cfi_endproc
 1268              	.LFE16:
ARM GAS  C:\Temp\ccEewVJn.s 			page 35


 1270              		.section	.text.VL53L1_decode_row_col,"ax",%progbits
 1271              		.align	1
 1272              		.global	VL53L1_decode_row_col
 1273              		.syntax unified
 1274              		.thumb
 1275              		.thumb_func
 1277              	VL53L1_decode_row_col:
 1278              	.LVL148:
 1279              	.LFB17:
 565:Drivers/BSP/Components/vl53l1cb/modules/vl53l1_core_support.c **** 
 566:Drivers/BSP/Components/vl53l1cb/modules/vl53l1_core_support.c **** 
 567:Drivers/BSP/Components/vl53l1cb/modules/vl53l1_core_support.c **** void VL53L1_decode_row_col(
 568:Drivers/BSP/Components/vl53l1cb/modules/vl53l1_core_support.c **** 	uint8_t  spad_number,
 569:Drivers/BSP/Components/vl53l1cb/modules/vl53l1_core_support.c **** 	uint8_t  *prow,
 570:Drivers/BSP/Components/vl53l1cb/modules/vl53l1_core_support.c **** 	uint8_t  *pcol)
 571:Drivers/BSP/Components/vl53l1cb/modules/vl53l1_core_support.c **** {
 1280              		.loc 1 571 1 is_stmt 1 view -0
 1281              		.cfi_startproc
 1282              		@ args = 0, pretend = 0, frame = 0
 1283              		@ frame_needed = 0, uses_anonymous_args = 0
 1284              		@ link register save eliminated.
 572:Drivers/BSP/Components/vl53l1cb/modules/vl53l1_core_support.c **** 
 573:Drivers/BSP/Components/vl53l1cb/modules/vl53l1_core_support.c **** 
 574:Drivers/BSP/Components/vl53l1cb/modules/vl53l1_core_support.c **** 
 575:Drivers/BSP/Components/vl53l1cb/modules/vl53l1_core_support.c **** 	if (spad_number > 127) {
 1285              		.loc 1 575 2 view .LVU446
 1286              		.loc 1 575 5 is_stmt 0 view .LVU447
 1287 0000 10F0800F 		tst	r0, #128
 1288 0004 07D1     		bne	.L87
 576:Drivers/BSP/Components/vl53l1cb/modules/vl53l1_core_support.c **** 		*prow = 8 + ((255-spad_number) & 0x07);
 577:Drivers/BSP/Components/vl53l1cb/modules/vl53l1_core_support.c **** 		*pcol = (spad_number-128) >> 3;
 578:Drivers/BSP/Components/vl53l1cb/modules/vl53l1_core_support.c **** 	} else {
 579:Drivers/BSP/Components/vl53l1cb/modules/vl53l1_core_support.c **** 		*prow = spad_number & 0x07;
 1289              		.loc 1 579 3 is_stmt 1 view .LVU448
 1290              		.loc 1 579 23 is_stmt 0 view .LVU449
 1291 0006 00F00703 		and	r3, r0, #7
 1292              		.loc 1 579 9 view .LVU450
 1293 000a 0B70     		strb	r3, [r1]
 580:Drivers/BSP/Components/vl53l1cb/modules/vl53l1_core_support.c **** 		*pcol = (127-spad_number) >> 3;
 1294              		.loc 1 580 3 is_stmt 1 view .LVU451
 1295              		.loc 1 580 15 is_stmt 0 view .LVU452
 1296 000c C0F17F00 		rsb	r0, r0, #127
 1297              	.LVL149:
 1298              		.loc 1 580 29 view .LVU453
 1299 0010 C010     		asrs	r0, r0, #3
 1300              		.loc 1 580 9 view .LVU454
 1301 0012 1070     		strb	r0, [r2]
 581:Drivers/BSP/Components/vl53l1cb/modules/vl53l1_core_support.c **** 	}
 582:Drivers/BSP/Components/vl53l1cb/modules/vl53l1_core_support.c **** }
 1302              		.loc 1 582 1 view .LVU455
 1303 0014 7047     		bx	lr
 1304              	.LVL150:
 1305              	.L87:
 576:Drivers/BSP/Components/vl53l1cb/modules/vl53l1_core_support.c **** 		*pcol = (spad_number-128) >> 3;
 1306              		.loc 1 576 3 is_stmt 1 view .LVU456
 576:Drivers/BSP/Components/vl53l1cb/modules/vl53l1_core_support.c **** 		*pcol = (spad_number-128) >> 3;
 1307              		.loc 1 576 34 is_stmt 0 view .LVU457
ARM GAS  C:\Temp\ccEewVJn.s 			page 36


 1308 0016 C343     		mvns	r3, r0
 1309 0018 03F00703 		and	r3, r3, #7
 576:Drivers/BSP/Components/vl53l1cb/modules/vl53l1_core_support.c **** 		*pcol = (spad_number-128) >> 3;
 1310              		.loc 1 576 13 view .LVU458
 1311 001c 0833     		adds	r3, r3, #8
 576:Drivers/BSP/Components/vl53l1cb/modules/vl53l1_core_support.c **** 		*pcol = (spad_number-128) >> 3;
 1312              		.loc 1 576 9 view .LVU459
 1313 001e 0B70     		strb	r3, [r1]
 577:Drivers/BSP/Components/vl53l1cb/modules/vl53l1_core_support.c **** 	} else {
 1314              		.loc 1 577 3 is_stmt 1 view .LVU460
 577:Drivers/BSP/Components/vl53l1cb/modules/vl53l1_core_support.c **** 	} else {
 1315              		.loc 1 577 23 is_stmt 0 view .LVU461
 1316 0020 8038     		subs	r0, r0, #128
 1317              	.LVL151:
 577:Drivers/BSP/Components/vl53l1cb/modules/vl53l1_core_support.c **** 	} else {
 1318              		.loc 1 577 29 view .LVU462
 1319 0022 C010     		asrs	r0, r0, #3
 577:Drivers/BSP/Components/vl53l1cb/modules/vl53l1_core_support.c **** 	} else {
 1320              		.loc 1 577 9 view .LVU463
 1321 0024 1070     		strb	r0, [r2]
 1322 0026 7047     		bx	lr
 1323              		.cfi_endproc
 1324              	.LFE17:
 1326              		.section	.text.VL53L1_hist_find_min_max_bin_values,"ax",%progbits
 1327              		.align	1
 1328              		.global	VL53L1_hist_find_min_max_bin_values
 1329              		.syntax unified
 1330              		.thumb
 1331              		.thumb_func
 1333              	VL53L1_hist_find_min_max_bin_values:
 1334              	.LVL152:
 1335              	.LFB18:
 583:Drivers/BSP/Components/vl53l1cb/modules/vl53l1_core_support.c **** 
 584:Drivers/BSP/Components/vl53l1cb/modules/vl53l1_core_support.c **** 
 585:Drivers/BSP/Components/vl53l1cb/modules/vl53l1_core_support.c **** void  VL53L1_hist_find_min_max_bin_values(
 586:Drivers/BSP/Components/vl53l1cb/modules/vl53l1_core_support.c **** 	VL53L1_histogram_bin_data_t   *pdata)
 587:Drivers/BSP/Components/vl53l1cb/modules/vl53l1_core_support.c **** {
 1336              		.loc 1 587 1 is_stmt 1 view -0
 1337              		.cfi_startproc
 1338              		@ args = 0, pretend = 0, frame = 0
 1339              		@ frame_needed = 0, uses_anonymous_args = 0
 1340              		@ link register save eliminated.
 588:Drivers/BSP/Components/vl53l1cb/modules/vl53l1_core_support.c **** 
 589:Drivers/BSP/Components/vl53l1cb/modules/vl53l1_core_support.c **** 
 590:Drivers/BSP/Components/vl53l1cb/modules/vl53l1_core_support.c **** 	uint8_t  bin            = 0;
 1341              		.loc 1 590 2 view .LVU465
 591:Drivers/BSP/Components/vl53l1cb/modules/vl53l1_core_support.c **** 
 592:Drivers/BSP/Components/vl53l1cb/modules/vl53l1_core_support.c **** 	LOG_FUNCTION_START("");
 1342              		.loc 1 592 24 view .LVU466
 593:Drivers/BSP/Components/vl53l1cb/modules/vl53l1_core_support.c **** 
 594:Drivers/BSP/Components/vl53l1cb/modules/vl53l1_core_support.c **** 	for (bin = 0; bin < pdata->VL53L1_p_024; bin++) {
 1343              		.loc 1 594 2 view .LVU467
 1344              		.loc 1 594 11 is_stmt 0 view .LVU468
 1345 0000 0023     		movs	r3, #0
 1346              		.loc 1 594 2 view .LVU469
 1347 0002 13E0     		b	.L89
 1348              	.LVL153:
ARM GAS  C:\Temp\ccEewVJn.s 			page 37


 1349              	.L90:
 595:Drivers/BSP/Components/vl53l1cb/modules/vl53l1_core_support.c **** 
 596:Drivers/BSP/Components/vl53l1cb/modules/vl53l1_core_support.c **** 		if (bin == 0 || pdata->min_bin_value >= pdata->bin_data[bin])
 597:Drivers/BSP/Components/vl53l1cb/modules/vl53l1_core_support.c **** 			pdata->min_bin_value = pdata->bin_data[bin];
 1350              		.loc 1 597 4 is_stmt 1 view .LVU470
 1351              		.loc 1 597 42 is_stmt 0 view .LVU471
 1352 0004 9A1D     		adds	r2, r3, #6
 1353 0006 50F82220 		ldr	r2, [r0, r2, lsl #2]
 1354              		.loc 1 597 25 view .LVU472
 1355 000a C0F89420 		str	r2, [r0, #148]
 1356              	.L91:
 598:Drivers/BSP/Components/vl53l1cb/modules/vl53l1_core_support.c **** 
 599:Drivers/BSP/Components/vl53l1cb/modules/vl53l1_core_support.c **** 		if (bin == 0 || pdata->max_bin_value <= pdata->bin_data[bin])
 1357              		.loc 1 599 3 is_stmt 1 view .LVU473
 1358              		.loc 1 599 6 is_stmt 0 view .LVU474
 1359 000e 33B1     		cbz	r3, .L92
 1360              		.loc 1 599 24 discriminator 1 view .LVU475
 1361 0010 D0F89810 		ldr	r1, [r0, #152]
 1362              		.loc 1 599 58 discriminator 1 view .LVU476
 1363 0014 9A1D     		adds	r2, r3, #6
 1364 0016 50F82220 		ldr	r2, [r0, r2, lsl #2]
 1365              		.loc 1 599 16 discriminator 1 view .LVU477
 1366 001a 9142     		cmp	r1, r2
 1367 001c 04DC     		bgt	.L93
 1368              	.L92:
 600:Drivers/BSP/Components/vl53l1cb/modules/vl53l1_core_support.c **** 			pdata->max_bin_value = pdata->bin_data[bin];
 1369              		.loc 1 600 4 is_stmt 1 view .LVU478
 1370              		.loc 1 600 42 is_stmt 0 view .LVU479
 1371 001e 9A1D     		adds	r2, r3, #6
 1372 0020 50F82220 		ldr	r2, [r0, r2, lsl #2]
 1373              		.loc 1 600 25 view .LVU480
 1374 0024 C0F89820 		str	r2, [r0, #152]
 1375              	.L93:
 594:Drivers/BSP/Components/vl53l1cb/modules/vl53l1_core_support.c **** 
 1376              		.loc 1 594 46 is_stmt 1 discriminator 2 view .LVU481
 1377 0028 0133     		adds	r3, r3, #1
 1378              	.LVL154:
 594:Drivers/BSP/Components/vl53l1cb/modules/vl53l1_core_support.c **** 
 1379              		.loc 1 594 46 is_stmt 0 discriminator 2 view .LVU482
 1380 002a DBB2     		uxtb	r3, r3
 1381              	.LVL155:
 1382              	.L89:
 594:Drivers/BSP/Components/vl53l1cb/modules/vl53l1_core_support.c **** 
 1383              		.loc 1 594 20 is_stmt 1 discriminator 1 view .LVU483
 594:Drivers/BSP/Components/vl53l1cb/modules/vl53l1_core_support.c **** 
 1384              		.loc 1 594 27 is_stmt 0 discriminator 1 view .LVU484
 1385 002c 827A     		ldrb	r2, [r0, #10]	@ zero_extendqisi2
 594:Drivers/BSP/Components/vl53l1cb/modules/vl53l1_core_support.c **** 
 1386              		.loc 1 594 20 discriminator 1 view .LVU485
 1387 002e 9A42     		cmp	r2, r3
 1388 0030 09D9     		bls	.L95
 596:Drivers/BSP/Components/vl53l1cb/modules/vl53l1_core_support.c **** 			pdata->min_bin_value = pdata->bin_data[bin];
 1389              		.loc 1 596 3 is_stmt 1 view .LVU486
 596:Drivers/BSP/Components/vl53l1cb/modules/vl53l1_core_support.c **** 			pdata->min_bin_value = pdata->bin_data[bin];
 1390              		.loc 1 596 6 is_stmt 0 view .LVU487
 1391 0032 002B     		cmp	r3, #0
 1392 0034 E6D0     		beq	.L90
ARM GAS  C:\Temp\ccEewVJn.s 			page 38


 596:Drivers/BSP/Components/vl53l1cb/modules/vl53l1_core_support.c **** 			pdata->min_bin_value = pdata->bin_data[bin];
 1393              		.loc 1 596 24 discriminator 1 view .LVU488
 1394 0036 D0F89410 		ldr	r1, [r0, #148]
 596:Drivers/BSP/Components/vl53l1cb/modules/vl53l1_core_support.c **** 			pdata->min_bin_value = pdata->bin_data[bin];
 1395              		.loc 1 596 58 discriminator 1 view .LVU489
 1396 003a 9A1D     		adds	r2, r3, #6
 1397 003c 50F82220 		ldr	r2, [r0, r2, lsl #2]
 596:Drivers/BSP/Components/vl53l1cb/modules/vl53l1_core_support.c **** 			pdata->min_bin_value = pdata->bin_data[bin];
 1398              		.loc 1 596 16 discriminator 1 view .LVU490
 1399 0040 9142     		cmp	r1, r2
 1400 0042 E4DB     		blt	.L91
 1401 0044 DEE7     		b	.L90
 1402              	.L95:
 601:Drivers/BSP/Components/vl53l1cb/modules/vl53l1_core_support.c **** 
 602:Drivers/BSP/Components/vl53l1cb/modules/vl53l1_core_support.c **** 	}
 603:Drivers/BSP/Components/vl53l1cb/modules/vl53l1_core_support.c **** 
 604:Drivers/BSP/Components/vl53l1cb/modules/vl53l1_core_support.c **** 	LOG_FUNCTION_END(0);
 605:Drivers/BSP/Components/vl53l1cb/modules/vl53l1_core_support.c **** 
 606:Drivers/BSP/Components/vl53l1cb/modules/vl53l1_core_support.c **** }
 1403              		.loc 1 606 1 view .LVU491
 1404 0046 7047     		bx	lr
 1405              		.cfi_endproc
 1406              	.LFE18:
 1408              		.section	.text.VL53L1_hist_estimate_ambient_from_thresholded_bins,"ax",%progbits
 1409              		.align	1
 1410              		.global	VL53L1_hist_estimate_ambient_from_thresholded_bins
 1411              		.syntax unified
 1412              		.thumb
 1413              		.thumb_func
 1415              	VL53L1_hist_estimate_ambient_from_thresholded_bins:
 1416              	.LVL156:
 1417              	.LFB8:
 197:Drivers/BSP/Components/vl53l1cb/modules/vl53l1_core_support.c **** 
 1418              		.loc 1 197 1 is_stmt 1 view -0
 1419              		.cfi_startproc
 1420              		@ args = 0, pretend = 0, frame = 0
 1421              		@ frame_needed = 0, uses_anonymous_args = 0
 197:Drivers/BSP/Components/vl53l1cb/modules/vl53l1_core_support.c **** 
 1422              		.loc 1 197 1 is_stmt 0 view .LVU493
 1423 0000 70B5     		push	{r4, r5, r6, lr}
 1424              		.cfi_def_cfa_offset 16
 1425              		.cfi_offset 4, -16
 1426              		.cfi_offset 5, -12
 1427              		.cfi_offset 6, -8
 1428              		.cfi_offset 14, -4
 1429 0002 0646     		mov	r6, r0
 1430 0004 0C46     		mov	r4, r1
 200:Drivers/BSP/Components/vl53l1cb/modules/vl53l1_core_support.c **** 	int32_t  VL53L1_p_032 = 0;
 1431              		.loc 1 200 2 is_stmt 1 view .LVU494
 1432              	.LVL157:
 201:Drivers/BSP/Components/vl53l1cb/modules/vl53l1_core_support.c **** 
 1433              		.loc 1 201 2 view .LVU495
 203:Drivers/BSP/Components/vl53l1cb/modules/vl53l1_core_support.c **** 
 1434              		.loc 1 203 24 view .LVU496
 207:Drivers/BSP/Components/vl53l1cb/modules/vl53l1_core_support.c **** 
 1435              		.loc 1 207 2 view .LVU497
 1436 0006 0846     		mov	r0, r1
ARM GAS  C:\Temp\ccEewVJn.s 			page 39


 1437              	.LVL158:
 207:Drivers/BSP/Components/vl53l1cb/modules/vl53l1_core_support.c **** 
 1438              		.loc 1 207 2 is_stmt 0 view .LVU498
 1439 0008 FFF7FEFF 		bl	VL53L1_hist_find_min_max_bin_values
 1440              	.LVL159:
 211:Drivers/BSP/Components/vl53l1cb/modules/vl53l1_core_support.c **** 		(int32_t)VL53L1_isqrt((uint32_t)pdata->min_bin_value);
 1441              		.loc 1 211 2 is_stmt 1 view .LVU499
 212:Drivers/BSP/Components/vl53l1cb/modules/vl53l1_core_support.c **** 	VL53L1_p_032 *= ambient_threshold_sigma;
 1442              		.loc 1 212 40 is_stmt 0 view .LVU500
 1443 000c D4F89450 		ldr	r5, [r4, #148]
 212:Drivers/BSP/Components/vl53l1cb/modules/vl53l1_core_support.c **** 	VL53L1_p_032 *= ambient_threshold_sigma;
 1444              		.loc 1 212 12 view .LVU501
 1445 0010 2846     		mov	r0, r5
 1446 0012 FFF7FEFF 		bl	VL53L1_isqrt
 1447              	.LVL160:
 213:Drivers/BSP/Components/vl53l1cb/modules/vl53l1_core_support.c **** 	VL53L1_p_032 += 0x07;
 1448              		.loc 1 213 2 is_stmt 1 view .LVU502
 213:Drivers/BSP/Components/vl53l1cb/modules/vl53l1_core_support.c **** 	VL53L1_p_032 += 0x07;
 1449              		.loc 1 213 15 is_stmt 0 view .LVU503
 1450 0016 06FB00F0 		mul	r0, r6, r0
 1451              	.LVL161:
 214:Drivers/BSP/Components/vl53l1cb/modules/vl53l1_core_support.c **** 	VL53L1_p_032  = VL53L1_p_032 >> 4;
 1452              		.loc 1 214 2 is_stmt 1 view .LVU504
 214:Drivers/BSP/Components/vl53l1cb/modules/vl53l1_core_support.c **** 	VL53L1_p_032  = VL53L1_p_032 >> 4;
 1453              		.loc 1 214 15 is_stmt 0 view .LVU505
 1454 001a 0730     		adds	r0, r0, #7
 1455              	.LVL162:
 215:Drivers/BSP/Components/vl53l1cb/modules/vl53l1_core_support.c **** 	VL53L1_p_032 += pdata->min_bin_value;
 1456              		.loc 1 215 2 is_stmt 1 view .LVU506
 216:Drivers/BSP/Components/vl53l1cb/modules/vl53l1_core_support.c **** 
 1457              		.loc 1 216 2 view .LVU507
 216:Drivers/BSP/Components/vl53l1cb/modules/vl53l1_core_support.c **** 
 1458              		.loc 1 216 15 is_stmt 0 view .LVU508
 1459 001c 05EB2010 		add	r0, r5, r0, asr #4
 1460              	.LVL163:
 220:Drivers/BSP/Components/vl53l1cb/modules/vl53l1_core_support.c **** 	pdata->ambient_events_sum        = 0;
 1461              		.loc 1 220 2 is_stmt 1 view .LVU509
 220:Drivers/BSP/Components/vl53l1cb/modules/vl53l1_core_support.c **** 	pdata->ambient_events_sum        = 0;
 1462              		.loc 1 220 35 is_stmt 0 view .LVU510
 1463 0020 0023     		movs	r3, #0
 1464 0022 84F89E30 		strb	r3, [r4, #158]
 221:Drivers/BSP/Components/vl53l1cb/modules/vl53l1_core_support.c **** 
 1465              		.loc 1 221 2 is_stmt 1 view .LVU511
 221:Drivers/BSP/Components/vl53l1cb/modules/vl53l1_core_support.c **** 
 1466              		.loc 1 221 35 is_stmt 0 view .LVU512
 1467 0026 C4F8A030 		str	r3, [r4, #160]
 223:Drivers/BSP/Components/vl53l1cb/modules/vl53l1_core_support.c **** 		if (pdata->bin_data[bin] < VL53L1_p_032) {
 1468              		.loc 1 223 2 is_stmt 1 view .LVU513
 223:Drivers/BSP/Components/vl53l1cb/modules/vl53l1_core_support.c **** 		if (pdata->bin_data[bin] < VL53L1_p_032) {
 1469              		.loc 1 223 2 is_stmt 0 view .LVU514
 1470 002a 01E0     		b	.L97
 1471              	.LVL164:
 1472              	.L98:
 223:Drivers/BSP/Components/vl53l1cb/modules/vl53l1_core_support.c **** 		if (pdata->bin_data[bin] < VL53L1_p_032) {
 1473              		.loc 1 223 46 is_stmt 1 discriminator 2 view .LVU515
 1474 002c 0133     		adds	r3, r3, #1
 1475              	.LVL165:
ARM GAS  C:\Temp\ccEewVJn.s 			page 40


 223:Drivers/BSP/Components/vl53l1cb/modules/vl53l1_core_support.c **** 		if (pdata->bin_data[bin] < VL53L1_p_032) {
 1476              		.loc 1 223 46 is_stmt 0 discriminator 2 view .LVU516
 1477 002e DBB2     		uxtb	r3, r3
 1478              	.LVL166:
 1479              	.L97:
 223:Drivers/BSP/Components/vl53l1cb/modules/vl53l1_core_support.c **** 		if (pdata->bin_data[bin] < VL53L1_p_032) {
 1480              		.loc 1 223 20 is_stmt 1 discriminator 1 view .LVU517
 223:Drivers/BSP/Components/vl53l1cb/modules/vl53l1_core_support.c **** 		if (pdata->bin_data[bin] < VL53L1_p_032) {
 1481              		.loc 1 223 27 is_stmt 0 discriminator 1 view .LVU518
 1482 0030 A27A     		ldrb	r2, [r4, #10]	@ zero_extendqisi2
 223:Drivers/BSP/Components/vl53l1cb/modules/vl53l1_core_support.c **** 		if (pdata->bin_data[bin] < VL53L1_p_032) {
 1483              		.loc 1 223 20 discriminator 1 view .LVU519
 1484 0032 9A42     		cmp	r2, r3
 1485 0034 0FD9     		bls	.L102
 224:Drivers/BSP/Components/vl53l1cb/modules/vl53l1_core_support.c **** 			pdata->ambient_events_sum += pdata->bin_data[bin];
 1486              		.loc 1 224 3 is_stmt 1 view .LVU520
 224:Drivers/BSP/Components/vl53l1cb/modules/vl53l1_core_support.c **** 			pdata->ambient_events_sum += pdata->bin_data[bin];
 1487              		.loc 1 224 22 is_stmt 0 view .LVU521
 1488 0036 9A1D     		adds	r2, r3, #6
 1489 0038 54F82220 		ldr	r2, [r4, r2, lsl #2]
 224:Drivers/BSP/Components/vl53l1cb/modules/vl53l1_core_support.c **** 			pdata->ambient_events_sum += pdata->bin_data[bin];
 1490              		.loc 1 224 6 view .LVU522
 1491 003c 8242     		cmp	r2, r0
 1492 003e F5DA     		bge	.L98
 225:Drivers/BSP/Components/vl53l1cb/modules/vl53l1_core_support.c **** 			pdata->number_of_ambient_samples++;
 1493              		.loc 1 225 4 is_stmt 1 view .LVU523
 225:Drivers/BSP/Components/vl53l1cb/modules/vl53l1_core_support.c **** 			pdata->number_of_ambient_samples++;
 1494              		.loc 1 225 9 is_stmt 0 view .LVU524
 1495 0040 D4F8A010 		ldr	r1, [r4, #160]
 225:Drivers/BSP/Components/vl53l1cb/modules/vl53l1_core_support.c **** 			pdata->number_of_ambient_samples++;
 1496              		.loc 1 225 30 view .LVU525
 1497 0044 0A44     		add	r2, r2, r1
 1498 0046 C4F8A020 		str	r2, [r4, #160]
 226:Drivers/BSP/Components/vl53l1cb/modules/vl53l1_core_support.c **** 		}
 1499              		.loc 1 226 4 is_stmt 1 view .LVU526
 226:Drivers/BSP/Components/vl53l1cb/modules/vl53l1_core_support.c **** 		}
 1500              		.loc 1 226 9 is_stmt 0 view .LVU527
 1501 004a 94F89E20 		ldrb	r2, [r4, #158]	@ zero_extendqisi2
 226:Drivers/BSP/Components/vl53l1cb/modules/vl53l1_core_support.c **** 		}
 1502              		.loc 1 226 36 view .LVU528
 1503 004e 0132     		adds	r2, r2, #1
 1504 0050 84F89E20 		strb	r2, [r4, #158]
 1505 0054 EAE7     		b	.L98
 1506              	.L102:
 231:Drivers/BSP/Components/vl53l1cb/modules/vl53l1_core_support.c **** 		pdata->VL53L1_p_004 =
 1507              		.loc 1 231 2 is_stmt 1 view .LVU529
 231:Drivers/BSP/Components/vl53l1cb/modules/vl53l1_core_support.c **** 		pdata->VL53L1_p_004 =
 1508              		.loc 1 231 11 is_stmt 0 view .LVU530
 1509 0056 94F89E20 		ldrb	r2, [r4, #158]	@ zero_extendqisi2
 231:Drivers/BSP/Components/vl53l1cb/modules/vl53l1_core_support.c **** 		pdata->VL53L1_p_004 =
 1510              		.loc 1 231 5 view .LVU531
 1511 005a 5AB1     		cbz	r2, .L96
 232:Drivers/BSP/Components/vl53l1cb/modules/vl53l1_core_support.c **** 			pdata->ambient_events_sum;
 1512              		.loc 1 232 3 is_stmt 1 view .LVU532
 233:Drivers/BSP/Components/vl53l1cb/modules/vl53l1_core_support.c **** 		pdata->VL53L1_p_004 +=
 1513              		.loc 1 233 9 is_stmt 0 view .LVU533
 1514 005c D4F8A030 		ldr	r3, [r4, #160]
ARM GAS  C:\Temp\ccEewVJn.s 			page 41


 1515              	.LVL167:
 232:Drivers/BSP/Components/vl53l1cb/modules/vl53l1_core_support.c **** 			pdata->ambient_events_sum;
 1516              		.loc 1 232 23 view .LVU534
 1517 0060 C4F8A430 		str	r3, [r4, #164]
 234:Drivers/BSP/Components/vl53l1cb/modules/vl53l1_core_support.c **** 			((int32_t)pdata->number_of_ambient_samples/2);
 1518              		.loc 1 234 3 is_stmt 1 view .LVU535
 234:Drivers/BSP/Components/vl53l1cb/modules/vl53l1_core_support.c **** 			((int32_t)pdata->number_of_ambient_samples/2);
 1519              		.loc 1 234 23 is_stmt 0 view .LVU536
 1520 0064 03EB5203 		add	r3, r3, r2, lsr #1
 1521 0068 C4F8A430 		str	r3, [r4, #164]
 236:Drivers/BSP/Components/vl53l1cb/modules/vl53l1_core_support.c **** 			(int32_t)pdata->number_of_ambient_samples;
 1522              		.loc 1 236 3 is_stmt 1 view .LVU537
 236:Drivers/BSP/Components/vl53l1cb/modules/vl53l1_core_support.c **** 			(int32_t)pdata->number_of_ambient_samples;
 1523              		.loc 1 236 23 is_stmt 0 view .LVU538
 1524 006c 93FBF2F3 		sdiv	r3, r3, r2
 1525 0070 C4F8A430 		str	r3, [r4, #164]
 240:Drivers/BSP/Components/vl53l1cb/modules/vl53l1_core_support.c **** }
 1526              		.loc 1 240 21 is_stmt 1 view .LVU539
 1527              	.L96:
 241:Drivers/BSP/Components/vl53l1cb/modules/vl53l1_core_support.c **** 
 1528              		.loc 1 241 1 is_stmt 0 view .LVU540
 1529 0074 70BD     		pop	{r4, r5, r6, pc}
 241:Drivers/BSP/Components/vl53l1cb/modules/vl53l1_core_support.c **** 
 1530              		.loc 1 241 1 view .LVU541
 1531              		.cfi_endproc
 1532              	.LFE8:
 1534              		.section	.text.VL53L1_hist_estimate_ambient_from_ambient_bins,"ax",%progbits
 1535              		.align	1
 1536              		.global	VL53L1_hist_estimate_ambient_from_ambient_bins
 1537              		.syntax unified
 1538              		.thumb
 1539              		.thumb_func
 1541              	VL53L1_hist_estimate_ambient_from_ambient_bins:
 1542              	.LVL168:
 1543              	.LFB19:
 607:Drivers/BSP/Components/vl53l1cb/modules/vl53l1_core_support.c **** 
 608:Drivers/BSP/Components/vl53l1cb/modules/vl53l1_core_support.c **** 
 609:Drivers/BSP/Components/vl53l1cb/modules/vl53l1_core_support.c **** void  VL53L1_hist_estimate_ambient_from_ambient_bins(
 610:Drivers/BSP/Components/vl53l1cb/modules/vl53l1_core_support.c **** 	VL53L1_histogram_bin_data_t   *pdata)
 611:Drivers/BSP/Components/vl53l1cb/modules/vl53l1_core_support.c **** {
 1544              		.loc 1 611 1 is_stmt 1 view -0
 1545              		.cfi_startproc
 1546              		@ args = 0, pretend = 0, frame = 0
 1547              		@ frame_needed = 0, uses_anonymous_args = 0
 1548              		@ link register save eliminated.
 1549              		.loc 1 611 1 is_stmt 0 view .LVU543
 1550 0000 10B4     		push	{r4}
 1551              		.cfi_def_cfa_offset 4
 1552              		.cfi_offset 4, -4
 612:Drivers/BSP/Components/vl53l1cb/modules/vl53l1_core_support.c **** 
 613:Drivers/BSP/Components/vl53l1cb/modules/vl53l1_core_support.c **** 
 614:Drivers/BSP/Components/vl53l1cb/modules/vl53l1_core_support.c **** 	uint8_t  bin            = 0;
 1553              		.loc 1 614 2 is_stmt 1 view .LVU544
 1554              	.LVL169:
 615:Drivers/BSP/Components/vl53l1cb/modules/vl53l1_core_support.c **** 
 616:Drivers/BSP/Components/vl53l1cb/modules/vl53l1_core_support.c **** 	LOG_FUNCTION_START("");
 1555              		.loc 1 616 24 view .LVU545
ARM GAS  C:\Temp\ccEewVJn.s 			page 42


 617:Drivers/BSP/Components/vl53l1cb/modules/vl53l1_core_support.c **** 
 618:Drivers/BSP/Components/vl53l1cb/modules/vl53l1_core_support.c **** 	if (pdata->number_of_ambient_bins > 0) {
 1556              		.loc 1 618 2 view .LVU546
 1557              		.loc 1 618 11 is_stmt 0 view .LVU547
 1558 0002 C47A     		ldrb	r4, [r0, #11]	@ zero_extendqisi2
 1559              		.loc 1 618 5 view .LVU548
 1560 0004 ECB1     		cbz	r4, .L103
 619:Drivers/BSP/Components/vl53l1cb/modules/vl53l1_core_support.c **** 
 620:Drivers/BSP/Components/vl53l1cb/modules/vl53l1_core_support.c **** 		pdata->number_of_ambient_samples =
 1561              		.loc 1 620 3 is_stmt 1 view .LVU549
 1562              		.loc 1 620 36 is_stmt 0 view .LVU550
 1563 0006 80F89E40 		strb	r4, [r0, #158]
 621:Drivers/BSP/Components/vl53l1cb/modules/vl53l1_core_support.c **** 			pdata->number_of_ambient_bins;
 622:Drivers/BSP/Components/vl53l1cb/modules/vl53l1_core_support.c **** 
 623:Drivers/BSP/Components/vl53l1cb/modules/vl53l1_core_support.c **** 
 624:Drivers/BSP/Components/vl53l1cb/modules/vl53l1_core_support.c **** 
 625:Drivers/BSP/Components/vl53l1cb/modules/vl53l1_core_support.c **** 		pdata->ambient_events_sum = 0;
 1564              		.loc 1 625 3 is_stmt 1 view .LVU551
 1565              		.loc 1 625 29 is_stmt 0 view .LVU552
 1566 000a 0023     		movs	r3, #0
 1567 000c C0F8A030 		str	r3, [r0, #160]
 626:Drivers/BSP/Components/vl53l1cb/modules/vl53l1_core_support.c **** 		for (bin = 0; bin < pdata->number_of_ambient_bins; bin++)
 1568              		.loc 1 626 3 is_stmt 1 view .LVU553
 1569              		.loc 1 626 3 is_stmt 0 view .LVU554
 1570 0010 09E0     		b	.L105
 1571              	.LVL170:
 1572              	.L106:
 627:Drivers/BSP/Components/vl53l1cb/modules/vl53l1_core_support.c **** 			pdata->ambient_events_sum += pdata->bin_data[bin];
 1573              		.loc 1 627 4 is_stmt 1 discriminator 3 view .LVU555
 1574              		.loc 1 627 9 is_stmt 0 discriminator 3 view .LVU556
 1575 0012 D0F8A020 		ldr	r2, [r0, #160]
 1576              		.loc 1 627 48 discriminator 3 view .LVU557
 1577 0016 991D     		adds	r1, r3, #6
 1578 0018 50F82110 		ldr	r1, [r0, r1, lsl #2]
 1579              		.loc 1 627 30 discriminator 3 view .LVU558
 1580 001c 0A44     		add	r2, r2, r1
 1581 001e C0F8A020 		str	r2, [r0, #160]
 626:Drivers/BSP/Components/vl53l1cb/modules/vl53l1_core_support.c **** 		for (bin = 0; bin < pdata->number_of_ambient_bins; bin++)
 1582              		.loc 1 626 57 is_stmt 1 discriminator 3 view .LVU559
 1583 0022 0133     		adds	r3, r3, #1
 1584              	.LVL171:
 626:Drivers/BSP/Components/vl53l1cb/modules/vl53l1_core_support.c **** 		for (bin = 0; bin < pdata->number_of_ambient_bins; bin++)
 1585              		.loc 1 626 57 is_stmt 0 discriminator 3 view .LVU560
 1586 0024 DBB2     		uxtb	r3, r3
 1587              	.LVL172:
 1588              	.L105:
 626:Drivers/BSP/Components/vl53l1cb/modules/vl53l1_core_support.c **** 		for (bin = 0; bin < pdata->number_of_ambient_bins; bin++)
 1589              		.loc 1 626 21 is_stmt 1 discriminator 1 view .LVU561
 1590 0026 9C42     		cmp	r4, r3
 1591 0028 F3D8     		bhi	.L106
 628:Drivers/BSP/Components/vl53l1cb/modules/vl53l1_core_support.c **** 
 629:Drivers/BSP/Components/vl53l1cb/modules/vl53l1_core_support.c **** 		pdata->VL53L1_p_004 = pdata->ambient_events_sum;
 1592              		.loc 1 629 3 view .LVU562
 1593              		.loc 1 629 30 is_stmt 0 view .LVU563
 1594 002a D0F8A030 		ldr	r3, [r0, #160]
 1595              	.LVL173:
 1596              		.loc 1 629 23 view .LVU564
ARM GAS  C:\Temp\ccEewVJn.s 			page 43


 1597 002e C0F8A430 		str	r3, [r0, #164]
 630:Drivers/BSP/Components/vl53l1cb/modules/vl53l1_core_support.c **** 		pdata->VL53L1_p_004 +=
 1598              		.loc 1 630 3 is_stmt 1 view .LVU565
 1599              		.loc 1 630 23 is_stmt 0 view .LVU566
 1600 0032 03EB5403 		add	r3, r3, r4, lsr #1
 1601 0036 C0F8A430 		str	r3, [r0, #164]
 631:Drivers/BSP/Components/vl53l1cb/modules/vl53l1_core_support.c **** 				((int32_t)pdata->number_of_ambient_bins / 2);
 632:Drivers/BSP/Components/vl53l1cb/modules/vl53l1_core_support.c **** 		pdata->VL53L1_p_004 /=
 1602              		.loc 1 632 3 is_stmt 1 view .LVU567
 1603              		.loc 1 632 23 is_stmt 0 view .LVU568
 1604 003a 93FBF4F3 		sdiv	r3, r3, r4
 1605 003e C0F8A430 		str	r3, [r0, #164]
 633:Drivers/BSP/Components/vl53l1cb/modules/vl53l1_core_support.c **** 			(int32_t)pdata->number_of_ambient_bins;
 634:Drivers/BSP/Components/vl53l1cb/modules/vl53l1_core_support.c **** 
 635:Drivers/BSP/Components/vl53l1cb/modules/vl53l1_core_support.c **** 	}
 636:Drivers/BSP/Components/vl53l1cb/modules/vl53l1_core_support.c **** 
 637:Drivers/BSP/Components/vl53l1cb/modules/vl53l1_core_support.c **** 	LOG_FUNCTION_END(0);
 1606              		.loc 1 637 21 is_stmt 1 view .LVU569
 1607              	.LVL174:
 1608              	.L103:
 638:Drivers/BSP/Components/vl53l1cb/modules/vl53l1_core_support.c **** }
 1609              		.loc 1 638 1 is_stmt 0 view .LVU570
 1610 0042 5DF8044B 		ldr	r4, [sp], #4
 1611              		.cfi_restore 4
 1612              		.cfi_def_cfa_offset 0
 1613 0046 7047     		bx	lr
 1614              		.cfi_endproc
 1615              	.LFE19:
 1617              		.text
 1618              	.Letext0:
 1619              		.file 2 "c:\\users\\jessejabezarendse\\appdata\\roaming\\code\\user\\globalstorage\\bmd.stm32-for-
 1620              		.file 3 "c:\\users\\jessejabezarendse\\appdata\\roaming\\code\\user\\globalstorage\\bmd.stm32-for-
 1621              		.file 4 "Drivers/BSP/Components/vl53l1cb/modules/vl53l1_ll_device.h"
 1622              		.file 5 "Drivers/BSP/Components/vl53l1cb/modules/vl53l1_hist_structs.h"
ARM GAS  C:\Temp\ccEewVJn.s 			page 44

