ARM GAS  C:\Temp\ccoVwn9Y.s 			page 1


   1              		.cpu cortex-m4
   2              		.arch armv7e-m
   3              		.fpu fpv4-sp-d16
   4              		.eabi_attribute 27, 1
   5              		.eabi_attribute 28, 1
   6              		.eabi_attribute 20, 1
   7              		.eabi_attribute 21, 1
   8              		.eabi_attribute 23, 3
   9              		.eabi_attribute 24, 1
  10              		.eabi_attribute 25, 1
  11              		.eabi_attribute 26, 1
  12              		.eabi_attribute 30, 1
  13              		.eabi_attribute 34, 1
  14              		.eabi_attribute 18, 4
  15              		.file	"vl53l1_api_preset_modes.c"
  16              		.text
  17              	.Ltext0:
  18              		.cfi_sections	.debug_frame
  19              		.file 1 "Drivers/BSP/Components/vl53l1cb/modules/vl53l1_api_preset_modes.c"
  20              		.section	.text.VL53L1_init_refspadchar_config_struct,"ax",%progbits
  21              		.align	1
  22              		.global	VL53L1_init_refspadchar_config_struct
  23              		.syntax unified
  24              		.thumb
  25              		.thumb_func
  27              	VL53L1_init_refspadchar_config_struct:
  28              	.LVL0:
  29              	.LFB3:
   1:Drivers/BSP/Components/vl53l1cb/modules/vl53l1_api_preset_modes.c **** /**
   2:Drivers/BSP/Components/vl53l1cb/modules/vl53l1_api_preset_modes.c ****  ******************************************************************************
   3:Drivers/BSP/Components/vl53l1cb/modules/vl53l1_api_preset_modes.c ****  * Copyright (c) 2020, STMicroelectronics - All Rights Reserved
   4:Drivers/BSP/Components/vl53l1cb/modules/vl53l1_api_preset_modes.c ****  *
   5:Drivers/BSP/Components/vl53l1cb/modules/vl53l1_api_preset_modes.c ****  * This software is licensed under terms that can be found in the LICENSE file
   6:Drivers/BSP/Components/vl53l1cb/modules/vl53l1_api_preset_modes.c ****  * in the root directory of this software component.
   7:Drivers/BSP/Components/vl53l1cb/modules/vl53l1_api_preset_modes.c ****  * If no LICENSE file comes with this software, it is provided AS-IS.
   8:Drivers/BSP/Components/vl53l1cb/modules/vl53l1_api_preset_modes.c ****  *
   9:Drivers/BSP/Components/vl53l1cb/modules/vl53l1_api_preset_modes.c ****  ******************************************************************************
  10:Drivers/BSP/Components/vl53l1cb/modules/vl53l1_api_preset_modes.c ****  */
  11:Drivers/BSP/Components/vl53l1cb/modules/vl53l1_api_preset_modes.c **** 
  12:Drivers/BSP/Components/vl53l1cb/modules/vl53l1_api_preset_modes.c **** 
  13:Drivers/BSP/Components/vl53l1cb/modules/vl53l1_api_preset_modes.c **** 
  14:Drivers/BSP/Components/vl53l1cb/modules/vl53l1_api_preset_modes.c **** 
  15:Drivers/BSP/Components/vl53l1cb/modules/vl53l1_api_preset_modes.c **** #include "vl53l1_ll_def.h"
  16:Drivers/BSP/Components/vl53l1cb/modules/vl53l1_api_preset_modes.c **** #include "vl53l1_platform_log.h"
  17:Drivers/BSP/Components/vl53l1cb/modules/vl53l1_api_preset_modes.c **** #include "vl53l1_register_structs.h"
  18:Drivers/BSP/Components/vl53l1cb/modules/vl53l1_api_preset_modes.c **** #include "vl53l1_register_settings.h"
  19:Drivers/BSP/Components/vl53l1cb/modules/vl53l1_api_preset_modes.c **** #include "vl53l1_hist_structs.h"
  20:Drivers/BSP/Components/vl53l1cb/modules/vl53l1_api_preset_modes.c **** #include "vl53l1_zone_presets.h"
  21:Drivers/BSP/Components/vl53l1cb/modules/vl53l1_api_preset_modes.c **** #include "vl53l1_core.h"
  22:Drivers/BSP/Components/vl53l1cb/modules/vl53l1_api_preset_modes.c **** #include "vl53l1_api_preset_modes.h"
  23:Drivers/BSP/Components/vl53l1cb/modules/vl53l1_api_preset_modes.c **** #include "vl53l1_tuning_parm_defaults.h"
  24:Drivers/BSP/Components/vl53l1cb/modules/vl53l1_api_preset_modes.c **** 
  25:Drivers/BSP/Components/vl53l1cb/modules/vl53l1_api_preset_modes.c **** 
  26:Drivers/BSP/Components/vl53l1cb/modules/vl53l1_api_preset_modes.c **** #define LOG_FUNCTION_START(fmt, ...) \
  27:Drivers/BSP/Components/vl53l1cb/modules/vl53l1_api_preset_modes.c **** 	_LOG_FUNCTION_START(VL53L1_TRACE_MODULE_API, fmt, ##__VA_ARGS__)
  28:Drivers/BSP/Components/vl53l1cb/modules/vl53l1_api_preset_modes.c **** #define LOG_FUNCTION_END(status, ...) \
  29:Drivers/BSP/Components/vl53l1cb/modules/vl53l1_api_preset_modes.c **** 	_LOG_FUNCTION_END(VL53L1_TRACE_MODULE_API, status, ##__VA_ARGS__)
ARM GAS  C:\Temp\ccoVwn9Y.s 			page 2


  30:Drivers/BSP/Components/vl53l1cb/modules/vl53l1_api_preset_modes.c **** #define LOG_FUNCTION_END_FMT(status, fmt, ...) \
  31:Drivers/BSP/Components/vl53l1cb/modules/vl53l1_api_preset_modes.c **** 	_LOG_FUNCTION_END_FMT(VL53L1_TRACE_MODULE_API,\
  32:Drivers/BSP/Components/vl53l1cb/modules/vl53l1_api_preset_modes.c **** 	status, fmt, ##__VA_ARGS__)
  33:Drivers/BSP/Components/vl53l1cb/modules/vl53l1_api_preset_modes.c **** 
  34:Drivers/BSP/Components/vl53l1cb/modules/vl53l1_api_preset_modes.c **** 
  35:Drivers/BSP/Components/vl53l1cb/modules/vl53l1_api_preset_modes.c **** VL53L1_Error VL53L1_init_refspadchar_config_struct(
  36:Drivers/BSP/Components/vl53l1cb/modules/vl53l1_api_preset_modes.c **** 	VL53L1_refspadchar_config_t   *pdata)
  37:Drivers/BSP/Components/vl53l1cb/modules/vl53l1_api_preset_modes.c **** {
  30              		.loc 1 37 1 view -0
  31              		.cfi_startproc
  32              		@ args = 0, pretend = 0, frame = 0
  33              		@ frame_needed = 0, uses_anonymous_args = 0
  34              		@ link register save eliminated.
  38:Drivers/BSP/Components/vl53l1cb/modules/vl53l1_api_preset_modes.c **** 
  39:Drivers/BSP/Components/vl53l1cb/modules/vl53l1_api_preset_modes.c **** 
  40:Drivers/BSP/Components/vl53l1cb/modules/vl53l1_api_preset_modes.c **** 	VL53L1_Error  status = VL53L1_ERROR_NONE;
  35              		.loc 1 40 2 view .LVU1
  41:Drivers/BSP/Components/vl53l1cb/modules/vl53l1_api_preset_modes.c **** 
  42:Drivers/BSP/Components/vl53l1cb/modules/vl53l1_api_preset_modes.c **** 	LOG_FUNCTION_START("");
  36              		.loc 1 42 24 view .LVU2
  43:Drivers/BSP/Components/vl53l1cb/modules/vl53l1_api_preset_modes.c **** 
  44:Drivers/BSP/Components/vl53l1cb/modules/vl53l1_api_preset_modes.c **** 
  45:Drivers/BSP/Components/vl53l1cb/modules/vl53l1_api_preset_modes.c **** 
  46:Drivers/BSP/Components/vl53l1cb/modules/vl53l1_api_preset_modes.c **** 	pdata->device_test_mode =
  37              		.loc 1 46 2 view .LVU3
  38              		.loc 1 46 26 is_stmt 0 view .LVU4
  39 0000 0823     		movs	r3, #8
  40 0002 0370     		strb	r3, [r0]
  47:Drivers/BSP/Components/vl53l1cb/modules/vl53l1_api_preset_modes.c **** 		VL53L1_TUNINGPARM_REFSPADCHAR_DEVICE_TEST_MODE_DEFAULT;
  48:Drivers/BSP/Components/vl53l1cb/modules/vl53l1_api_preset_modes.c **** 	pdata->VL53L1_p_009              =
  41              		.loc 1 48 2 is_stmt 1 view .LVU5
  42              		.loc 1 48 35 is_stmt 0 view .LVU6
  43 0004 0B23     		movs	r3, #11
  44 0006 4370     		strb	r3, [r0, #1]
  49:Drivers/BSP/Components/vl53l1cb/modules/vl53l1_api_preset_modes.c **** 		VL53L1_TUNINGPARM_REFSPADCHAR_VCSEL_PERIOD_DEFAULT;
  50:Drivers/BSP/Components/vl53l1cb/modules/vl53l1_api_preset_modes.c **** 	pdata->timeout_us                =
  45              		.loc 1 50 2 is_stmt 1 view .LVU7
  46              		.loc 1 50 35 is_stmt 0 view .LVU8
  47 0008 4FF47A73 		mov	r3, #1000
  48 000c 4360     		str	r3, [r0, #4]
  51:Drivers/BSP/Components/vl53l1cb/modules/vl53l1_api_preset_modes.c **** 		VL53L1_TUNINGPARM_REFSPADCHAR_PHASECAL_TIMEOUT_US_DEFAULT;
  52:Drivers/BSP/Components/vl53l1cb/modules/vl53l1_api_preset_modes.c **** 	pdata->target_count_rate_mcps    =
  49              		.loc 1 52 2 is_stmt 1 view .LVU9
  50              		.loc 1 52 35 is_stmt 0 view .LVU10
  51 000e 4FF42063 		mov	r3, #2560
  52 0012 0381     		strh	r3, [r0, #8]	@ movhi
  53:Drivers/BSP/Components/vl53l1cb/modules/vl53l1_api_preset_modes.c **** 		VL53L1_TUNINGPARM_REFSPADCHAR_TARGET_COUNT_RATE_MCPS_DEFAULT;
  54:Drivers/BSP/Components/vl53l1cb/modules/vl53l1_api_preset_modes.c **** 	pdata->min_count_rate_limit_mcps =
  53              		.loc 1 54 2 is_stmt 1 view .LVU11
  54              		.loc 1 54 35 is_stmt 0 view .LVU12
  55 0014 4FF4A063 		mov	r3, #1280
  56 0018 4381     		strh	r3, [r0, #10]	@ movhi
  55:Drivers/BSP/Components/vl53l1cb/modules/vl53l1_api_preset_modes.c **** 		VL53L1_TUNINGPARM_REFSPADCHAR_MIN_COUNTRATE_LIMIT_MCPS_DEFAULT;
  56:Drivers/BSP/Components/vl53l1cb/modules/vl53l1_api_preset_modes.c **** 	pdata->max_count_rate_limit_mcps =
  57              		.loc 1 56 2 is_stmt 1 view .LVU13
  58              		.loc 1 56 35 is_stmt 0 view .LVU14
  59 001a 4FF4A053 		mov	r3, #5120
ARM GAS  C:\Temp\ccoVwn9Y.s 			page 3


  60 001e 8381     		strh	r3, [r0, #12]	@ movhi
  57:Drivers/BSP/Components/vl53l1cb/modules/vl53l1_api_preset_modes.c **** 		VL53L1_TUNINGPARM_REFSPADCHAR_MAX_COUNTRATE_LIMIT_MCPS_DEFAULT;
  58:Drivers/BSP/Components/vl53l1cb/modules/vl53l1_api_preset_modes.c **** 
  59:Drivers/BSP/Components/vl53l1cb/modules/vl53l1_api_preset_modes.c **** 	LOG_FUNCTION_END(status);
  61              		.loc 1 59 26 is_stmt 1 view .LVU15
  60:Drivers/BSP/Components/vl53l1cb/modules/vl53l1_api_preset_modes.c **** 
  61:Drivers/BSP/Components/vl53l1cb/modules/vl53l1_api_preset_modes.c **** 	return status;
  62              		.loc 1 61 2 view .LVU16
  62:Drivers/BSP/Components/vl53l1cb/modules/vl53l1_api_preset_modes.c **** }
  63              		.loc 1 62 1 is_stmt 0 view .LVU17
  64 0020 0020     		movs	r0, #0
  65              	.LVL1:
  66              		.loc 1 62 1 view .LVU18
  67 0022 7047     		bx	lr
  68              		.cfi_endproc
  69              	.LFE3:
  71              		.section	.text.VL53L1_init_ssc_config_struct,"ax",%progbits
  72              		.align	1
  73              		.global	VL53L1_init_ssc_config_struct
  74              		.syntax unified
  75              		.thumb
  76              		.thumb_func
  78              	VL53L1_init_ssc_config_struct:
  79              	.LVL2:
  80              	.LFB4:
  63:Drivers/BSP/Components/vl53l1cb/modules/vl53l1_api_preset_modes.c **** 
  64:Drivers/BSP/Components/vl53l1cb/modules/vl53l1_api_preset_modes.c **** 
  65:Drivers/BSP/Components/vl53l1cb/modules/vl53l1_api_preset_modes.c **** VL53L1_Error VL53L1_init_ssc_config_struct(
  66:Drivers/BSP/Components/vl53l1cb/modules/vl53l1_api_preset_modes.c **** 	VL53L1_ssc_config_t   *pdata)
  67:Drivers/BSP/Components/vl53l1cb/modules/vl53l1_api_preset_modes.c **** {
  81              		.loc 1 67 1 is_stmt 1 view -0
  82              		.cfi_startproc
  83              		@ args = 0, pretend = 0, frame = 0
  84              		@ frame_needed = 0, uses_anonymous_args = 0
  85              		@ link register save eliminated.
  86              		.loc 1 67 1 is_stmt 0 view .LVU20
  87 0000 0346     		mov	r3, r0
  68:Drivers/BSP/Components/vl53l1cb/modules/vl53l1_api_preset_modes.c **** 
  69:Drivers/BSP/Components/vl53l1cb/modules/vl53l1_api_preset_modes.c **** 
  70:Drivers/BSP/Components/vl53l1cb/modules/vl53l1_api_preset_modes.c **** 	VL53L1_Error  status = VL53L1_ERROR_NONE;
  88              		.loc 1 70 2 is_stmt 1 view .LVU21
  89              	.LVL3:
  71:Drivers/BSP/Components/vl53l1cb/modules/vl53l1_api_preset_modes.c **** 
  72:Drivers/BSP/Components/vl53l1cb/modules/vl53l1_api_preset_modes.c **** 	LOG_FUNCTION_START("");
  90              		.loc 1 72 24 view .LVU22
  73:Drivers/BSP/Components/vl53l1cb/modules/vl53l1_api_preset_modes.c **** 
  74:Drivers/BSP/Components/vl53l1cb/modules/vl53l1_api_preset_modes.c **** 
  75:Drivers/BSP/Components/vl53l1cb/modules/vl53l1_api_preset_modes.c **** 
  76:Drivers/BSP/Components/vl53l1cb/modules/vl53l1_api_preset_modes.c **** 
  77:Drivers/BSP/Components/vl53l1cb/modules/vl53l1_api_preset_modes.c **** 	pdata->array_select = VL53L1_DEVICESSCARRAY_RTN;
  91              		.loc 1 77 2 view .LVU23
  92              		.loc 1 77 22 is_stmt 0 view .LVU24
  93 0002 0020     		movs	r0, #0
  94              	.LVL4:
  95              		.loc 1 77 22 view .LVU25
  96 0004 1870     		strb	r0, [r3]
  78:Drivers/BSP/Components/vl53l1cb/modules/vl53l1_api_preset_modes.c **** 
ARM GAS  C:\Temp\ccoVwn9Y.s 			page 4


  79:Drivers/BSP/Components/vl53l1cb/modules/vl53l1_api_preset_modes.c **** 
  80:Drivers/BSP/Components/vl53l1cb/modules/vl53l1_api_preset_modes.c **** 	pdata->VL53L1_p_009 =
  97              		.loc 1 80 2 is_stmt 1 view .LVU26
  98              		.loc 1 80 22 is_stmt 0 view .LVU27
  99 0006 1222     		movs	r2, #18
 100 0008 5A70     		strb	r2, [r3, #1]
  81:Drivers/BSP/Components/vl53l1cb/modules/vl53l1_api_preset_modes.c **** 			VL53L1_TUNINGPARM_SPADMAP_VCSEL_PERIOD_DEFAULT;
  82:Drivers/BSP/Components/vl53l1cb/modules/vl53l1_api_preset_modes.c **** 
  83:Drivers/BSP/Components/vl53l1cb/modules/vl53l1_api_preset_modes.c **** 
  84:Drivers/BSP/Components/vl53l1cb/modules/vl53l1_api_preset_modes.c **** 	pdata->vcsel_start  =
 101              		.loc 1 84 2 is_stmt 1 view .LVU28
 102              		.loc 1 84 22 is_stmt 0 view .LVU29
 103 000a 0F22     		movs	r2, #15
 104 000c 9A70     		strb	r2, [r3, #2]
  85:Drivers/BSP/Components/vl53l1cb/modules/vl53l1_api_preset_modes.c **** 			VL53L1_TUNINGPARM_SPADMAP_VCSEL_START_DEFAULT;
  86:Drivers/BSP/Components/vl53l1cb/modules/vl53l1_api_preset_modes.c **** 
  87:Drivers/BSP/Components/vl53l1cb/modules/vl53l1_api_preset_modes.c **** 
  88:Drivers/BSP/Components/vl53l1cb/modules/vl53l1_api_preset_modes.c **** 	pdata->vcsel_width = 0x02;
 105              		.loc 1 88 2 is_stmt 1 view .LVU30
 106              		.loc 1 88 21 is_stmt 0 view .LVU31
 107 000e 0222     		movs	r2, #2
 108 0010 DA70     		strb	r2, [r3, #3]
  89:Drivers/BSP/Components/vl53l1cb/modules/vl53l1_api_preset_modes.c **** 
  90:Drivers/BSP/Components/vl53l1cb/modules/vl53l1_api_preset_modes.c **** 
  91:Drivers/BSP/Components/vl53l1cb/modules/vl53l1_api_preset_modes.c **** 	pdata->timeout_us   = 36000;
 109              		.loc 1 91 2 is_stmt 1 view .LVU32
 110              		.loc 1 91 22 is_stmt 0 view .LVU33
 111 0012 48F6A042 		movw	r2, #36000
 112 0016 5A60     		str	r2, [r3, #4]
  92:Drivers/BSP/Components/vl53l1cb/modules/vl53l1_api_preset_modes.c **** 
  93:Drivers/BSP/Components/vl53l1cb/modules/vl53l1_api_preset_modes.c **** 
  94:Drivers/BSP/Components/vl53l1cb/modules/vl53l1_api_preset_modes.c **** 	pdata->rate_limit_mcps =
 113              		.loc 1 94 2 is_stmt 1 view .LVU34
 114              		.loc 1 94 25 is_stmt 0 view .LVU35
 115 0018 0C22     		movs	r2, #12
 116 001a 1A81     		strh	r2, [r3, #8]	@ movhi
  95:Drivers/BSP/Components/vl53l1cb/modules/vl53l1_api_preset_modes.c **** 			VL53L1_TUNINGPARM_SPADMAP_RATE_LIMIT_MCPS_DEFAULT;
  96:Drivers/BSP/Components/vl53l1cb/modules/vl53l1_api_preset_modes.c **** 
  97:Drivers/BSP/Components/vl53l1cb/modules/vl53l1_api_preset_modes.c **** 	LOG_FUNCTION_END(status);
 117              		.loc 1 97 26 is_stmt 1 view .LVU36
  98:Drivers/BSP/Components/vl53l1cb/modules/vl53l1_api_preset_modes.c **** 
  99:Drivers/BSP/Components/vl53l1cb/modules/vl53l1_api_preset_modes.c **** 	return status;
 118              		.loc 1 99 2 view .LVU37
 100:Drivers/BSP/Components/vl53l1cb/modules/vl53l1_api_preset_modes.c **** }
 119              		.loc 1 100 1 is_stmt 0 view .LVU38
 120 001c 7047     		bx	lr
 121              		.cfi_endproc
 122              	.LFE4:
 124              		.section	.text.VL53L1_init_xtalk_config_struct,"ax",%progbits
 125              		.align	1
 126              		.global	VL53L1_init_xtalk_config_struct
 127              		.syntax unified
 128              		.thumb
 129              		.thumb_func
 131              	VL53L1_init_xtalk_config_struct:
 132              	.LVL5:
 133              	.LFB5:
ARM GAS  C:\Temp\ccoVwn9Y.s 			page 5


 101:Drivers/BSP/Components/vl53l1cb/modules/vl53l1_api_preset_modes.c **** 
 102:Drivers/BSP/Components/vl53l1cb/modules/vl53l1_api_preset_modes.c **** 
 103:Drivers/BSP/Components/vl53l1cb/modules/vl53l1_api_preset_modes.c **** VL53L1_Error VL53L1_init_xtalk_config_struct(
 104:Drivers/BSP/Components/vl53l1cb/modules/vl53l1_api_preset_modes.c **** 	VL53L1_customer_nvm_managed_t *pnvm,
 105:Drivers/BSP/Components/vl53l1cb/modules/vl53l1_api_preset_modes.c **** 	VL53L1_xtalk_config_t   *pdata)
 106:Drivers/BSP/Components/vl53l1cb/modules/vl53l1_api_preset_modes.c **** {
 134              		.loc 1 106 1 is_stmt 1 view -0
 135              		.cfi_startproc
 136              		@ args = 0, pretend = 0, frame = 0
 137              		@ frame_needed = 0, uses_anonymous_args = 0
 138              		.loc 1 106 1 is_stmt 0 view .LVU40
 139 0000 38B5     		push	{r3, r4, r5, lr}
 140              		.cfi_def_cfa_offset 16
 141              		.cfi_offset 3, -16
 142              		.cfi_offset 4, -12
 143              		.cfi_offset 5, -8
 144              		.cfi_offset 14, -4
 145 0002 0C46     		mov	r4, r1
 107:Drivers/BSP/Components/vl53l1cb/modules/vl53l1_api_preset_modes.c **** 
 108:Drivers/BSP/Components/vl53l1cb/modules/vl53l1_api_preset_modes.c **** 
 109:Drivers/BSP/Components/vl53l1cb/modules/vl53l1_api_preset_modes.c **** 	VL53L1_Error  status = VL53L1_ERROR_NONE;
 146              		.loc 1 109 2 is_stmt 1 view .LVU41
 147              	.LVL6:
 110:Drivers/BSP/Components/vl53l1cb/modules/vl53l1_api_preset_modes.c **** 
 111:Drivers/BSP/Components/vl53l1cb/modules/vl53l1_api_preset_modes.c **** 	LOG_FUNCTION_START("");
 148              		.loc 1 111 24 view .LVU42
 112:Drivers/BSP/Components/vl53l1cb/modules/vl53l1_api_preset_modes.c **** 
 113:Drivers/BSP/Components/vl53l1cb/modules/vl53l1_api_preset_modes.c **** 
 114:Drivers/BSP/Components/vl53l1cb/modules/vl53l1_api_preset_modes.c **** 
 115:Drivers/BSP/Components/vl53l1cb/modules/vl53l1_api_preset_modes.c **** 
 116:Drivers/BSP/Components/vl53l1cb/modules/vl53l1_api_preset_modes.c **** 
 117:Drivers/BSP/Components/vl53l1cb/modules/vl53l1_api_preset_modes.c **** 	pdata->algo__crosstalk_compensation_plane_offset_kcps      =
 149              		.loc 1 117 2 view .LVU43
 118:Drivers/BSP/Components/vl53l1cb/modules/vl53l1_api_preset_modes.c **** 		pnvm->algo__crosstalk_compensation_plane_offset_kcps;
 150              		.loc 1 118 7 is_stmt 0 view .LVU44
 151 0004 4589     		ldrh	r5, [r0, #10]
 117:Drivers/BSP/Components/vl53l1cb/modules/vl53l1_api_preset_modes.c **** 		pnvm->algo__crosstalk_compensation_plane_offset_kcps;
 152              		.loc 1 117 61 view .LVU45
 153 0006 0D60     		str	r5, [r1]
 119:Drivers/BSP/Components/vl53l1cb/modules/vl53l1_api_preset_modes.c **** 	pdata->algo__crosstalk_compensation_x_plane_gradient_kcps  =
 154              		.loc 1 119 2 is_stmt 1 view .LVU46
 120:Drivers/BSP/Components/vl53l1cb/modules/vl53l1_api_preset_modes.c **** 		pnvm->algo__crosstalk_compensation_x_plane_gradient_kcps;
 155              		.loc 1 120 7 is_stmt 0 view .LVU47
 156 0008 B0F90C10 		ldrsh	r1, [r0, #12]
 157              	.LVL7:
 119:Drivers/BSP/Components/vl53l1cb/modules/vl53l1_api_preset_modes.c **** 	pdata->algo__crosstalk_compensation_x_plane_gradient_kcps  =
 158              		.loc 1 119 61 view .LVU48
 159 000c A180     		strh	r1, [r4, #4]	@ movhi
 121:Drivers/BSP/Components/vl53l1cb/modules/vl53l1_api_preset_modes.c **** 	pdata->algo__crosstalk_compensation_y_plane_gradient_kcps  =
 160              		.loc 1 121 2 is_stmt 1 view .LVU49
 122:Drivers/BSP/Components/vl53l1cb/modules/vl53l1_api_preset_modes.c **** 		pnvm->algo__crosstalk_compensation_y_plane_gradient_kcps;
 161              		.loc 1 122 7 is_stmt 0 view .LVU50
 162 000e B0F90E20 		ldrsh	r2, [r0, #14]
 121:Drivers/BSP/Components/vl53l1cb/modules/vl53l1_api_preset_modes.c **** 	pdata->algo__crosstalk_compensation_y_plane_gradient_kcps  =
 163              		.loc 1 121 61 view .LVU51
 164 0012 E280     		strh	r2, [r4, #6]	@ movhi
 123:Drivers/BSP/Components/vl53l1cb/modules/vl53l1_api_preset_modes.c **** 
ARM GAS  C:\Temp\ccoVwn9Y.s 			page 6


 124:Drivers/BSP/Components/vl53l1cb/modules/vl53l1_api_preset_modes.c **** 
 125:Drivers/BSP/Components/vl53l1cb/modules/vl53l1_api_preset_modes.c **** 
 126:Drivers/BSP/Components/vl53l1cb/modules/vl53l1_api_preset_modes.c **** 	pdata->nvm_default__crosstalk_compensation_plane_offset_kcps      =
 165              		.loc 1 126 2 is_stmt 1 view .LVU52
 127:Drivers/BSP/Components/vl53l1cb/modules/vl53l1_api_preset_modes.c **** 		(uint32_t)pnvm->algo__crosstalk_compensation_plane_offset_kcps;
 166              		.loc 1 127 17 is_stmt 0 view .LVU53
 167 0014 4389     		ldrh	r3, [r0, #10]
 126:Drivers/BSP/Components/vl53l1cb/modules/vl53l1_api_preset_modes.c **** 		(uint32_t)pnvm->algo__crosstalk_compensation_plane_offset_kcps;
 168              		.loc 1 126 68 view .LVU54
 169 0016 A360     		str	r3, [r4, #8]
 128:Drivers/BSP/Components/vl53l1cb/modules/vl53l1_api_preset_modes.c **** 	pdata->nvm_default__crosstalk_compensation_x_plane_gradient_kcps  =
 170              		.loc 1 128 2 is_stmt 1 view .LVU55
 129:Drivers/BSP/Components/vl53l1cb/modules/vl53l1_api_preset_modes.c **** 		pnvm->algo__crosstalk_compensation_x_plane_gradient_kcps;
 171              		.loc 1 129 7 is_stmt 0 view .LVU56
 172 0018 B0F90C30 		ldrsh	r3, [r0, #12]
 128:Drivers/BSP/Components/vl53l1cb/modules/vl53l1_api_preset_modes.c **** 	pdata->nvm_default__crosstalk_compensation_x_plane_gradient_kcps  =
 173              		.loc 1 128 68 view .LVU57
 174 001c A381     		strh	r3, [r4, #12]	@ movhi
 130:Drivers/BSP/Components/vl53l1cb/modules/vl53l1_api_preset_modes.c **** 	pdata->nvm_default__crosstalk_compensation_y_plane_gradient_kcps  =
 175              		.loc 1 130 2 is_stmt 1 view .LVU58
 131:Drivers/BSP/Components/vl53l1cb/modules/vl53l1_api_preset_modes.c **** 		pnvm->algo__crosstalk_compensation_y_plane_gradient_kcps;
 176              		.loc 1 131 7 is_stmt 0 view .LVU59
 177 001e B0F90E30 		ldrsh	r3, [r0, #14]
 130:Drivers/BSP/Components/vl53l1cb/modules/vl53l1_api_preset_modes.c **** 	pdata->nvm_default__crosstalk_compensation_y_plane_gradient_kcps  =
 178              		.loc 1 130 68 view .LVU60
 179 0022 E381     		strh	r3, [r4, #14]	@ movhi
 132:Drivers/BSP/Components/vl53l1cb/modules/vl53l1_api_preset_modes.c **** 
 133:Drivers/BSP/Components/vl53l1cb/modules/vl53l1_api_preset_modes.c **** 	pdata->histogram_mode_crosstalk_margin_kcps                =
 180              		.loc 1 133 2 is_stmt 1 view .LVU61
 181              		.loc 1 133 61 is_stmt 0 view .LVU62
 182 0024 4FF40073 		mov	r3, #512
 183 0028 6382     		strh	r3, [r4, #18]	@ movhi
 134:Drivers/BSP/Components/vl53l1cb/modules/vl53l1_api_preset_modes.c **** 			VL53L1_TUNINGPARM_HIST_XTALK_MARGIN_KCPS_DEFAULT;
 135:Drivers/BSP/Components/vl53l1cb/modules/vl53l1_api_preset_modes.c **** 	pdata->lite_mode_crosstalk_margin_kcps                     =
 184              		.loc 1 135 2 is_stmt 1 view .LVU63
 185              		.loc 1 135 61 is_stmt 0 view .LVU64
 186 002a 0023     		movs	r3, #0
 187 002c A382     		strh	r3, [r4, #20]	@ movhi
 136:Drivers/BSP/Components/vl53l1cb/modules/vl53l1_api_preset_modes.c **** 			VL53L1_TUNINGPARM_LITE_XTALK_MARGIN_KCPS_DEFAULT;
 137:Drivers/BSP/Components/vl53l1cb/modules/vl53l1_api_preset_modes.c **** 
 138:Drivers/BSP/Components/vl53l1cb/modules/vl53l1_api_preset_modes.c **** 
 139:Drivers/BSP/Components/vl53l1cb/modules/vl53l1_api_preset_modes.c **** 
 140:Drivers/BSP/Components/vl53l1cb/modules/vl53l1_api_preset_modes.c **** 	pdata->crosstalk_range_ignore_threshold_mult =
 188              		.loc 1 140 2 is_stmt 1 view .LVU65
 189              		.loc 1 140 47 is_stmt 0 view .LVU66
 190 002e 4023     		movs	r3, #64
 191 0030 A375     		strb	r3, [r4, #22]
 141:Drivers/BSP/Components/vl53l1cb/modules/vl53l1_api_preset_modes.c **** 			VL53L1_TUNINGPARM_LITE_RIT_MULT_DEFAULT;
 142:Drivers/BSP/Components/vl53l1cb/modules/vl53l1_api_preset_modes.c **** 
 143:Drivers/BSP/Components/vl53l1cb/modules/vl53l1_api_preset_modes.c **** 	if ((pdata->algo__crosstalk_compensation_plane_offset_kcps == 0x00)
 192              		.loc 1 143 2 is_stmt 1 view .LVU67
 193              		.loc 1 143 5 is_stmt 0 view .LVU68
 194 0032 1DB9     		cbnz	r5, .L4
 144:Drivers/BSP/Components/vl53l1cb/modules/vl53l1_api_preset_modes.c **** 		&& (pdata->algo__crosstalk_compensation_x_plane_gradient_kcps
 145:Drivers/BSP/Components/vl53l1cb/modules/vl53l1_api_preset_modes.c **** 				== 0x00)
 146:Drivers/BSP/Components/vl53l1cb/modules/vl53l1_api_preset_modes.c **** 		&& (pdata->algo__crosstalk_compensation_y_plane_gradient_kcps
 195              		.loc 1 146 3 view .LVU69
ARM GAS  C:\Temp\ccoVwn9Y.s 			page 7


 196 0034 6368     		ldr	r3, [r4, #4]
 197 0036 0BB9     		cbnz	r3, .L4
 147:Drivers/BSP/Components/vl53l1cb/modules/vl53l1_api_preset_modes.c **** 				== 0x00))
 148:Drivers/BSP/Components/vl53l1cb/modules/vl53l1_api_preset_modes.c **** 		pdata->global_crosstalk_compensation_enable = 0x00;
 198              		.loc 1 148 3 is_stmt 1 view .LVU70
 199              		.loc 1 148 47 is_stmt 0 view .LVU71
 200 0038 2374     		strb	r3, [r4, #16]
 201 003a 01E0     		b	.L5
 202              	.L4:
 149:Drivers/BSP/Components/vl53l1cb/modules/vl53l1_api_preset_modes.c **** 	else
 150:Drivers/BSP/Components/vl53l1cb/modules/vl53l1_api_preset_modes.c **** 		pdata->global_crosstalk_compensation_enable = 0x01;
 203              		.loc 1 150 3 is_stmt 1 view .LVU72
 204              		.loc 1 150 47 is_stmt 0 view .LVU73
 205 003c 0123     		movs	r3, #1
 206 003e 2374     		strb	r3, [r4, #16]
 207              	.L5:
 151:Drivers/BSP/Components/vl53l1cb/modules/vl53l1_api_preset_modes.c **** 
 152:Drivers/BSP/Components/vl53l1cb/modules/vl53l1_api_preset_modes.c **** 
 153:Drivers/BSP/Components/vl53l1cb/modules/vl53l1_api_preset_modes.c **** 	if ((status == VL53L1_ERROR_NONE) &&
 208              		.loc 1 153 2 is_stmt 1 view .LVU74
 154:Drivers/BSP/Components/vl53l1cb/modules/vl53l1_api_preset_modes.c **** 		(pdata->global_crosstalk_compensation_enable == 0x01)) {
 209              		.loc 1 154 9 is_stmt 0 view .LVU75
 210 0040 237C     		ldrb	r3, [r4, #16]	@ zero_extendqisi2
 153:Drivers/BSP/Components/vl53l1cb/modules/vl53l1_api_preset_modes.c **** 		(pdata->global_crosstalk_compensation_enable == 0x01)) {
 211              		.loc 1 153 36 view .LVU76
 212 0042 012B     		cmp	r3, #1
 213 0044 0DD0     		beq	.L9
 155:Drivers/BSP/Components/vl53l1cb/modules/vl53l1_api_preset_modes.c **** 		pdata->crosstalk_range_ignore_threshold_rate_mcps =
 156:Drivers/BSP/Components/vl53l1cb/modules/vl53l1_api_preset_modes.c **** 		VL53L1_calc_range_ignore_threshold(
 157:Drivers/BSP/Components/vl53l1cb/modules/vl53l1_api_preset_modes.c **** 		pdata->algo__crosstalk_compensation_plane_offset_kcps,
 158:Drivers/BSP/Components/vl53l1cb/modules/vl53l1_api_preset_modes.c **** 		pdata->algo__crosstalk_compensation_x_plane_gradient_kcps,
 159:Drivers/BSP/Components/vl53l1cb/modules/vl53l1_api_preset_modes.c **** 		pdata->algo__crosstalk_compensation_y_plane_gradient_kcps,
 160:Drivers/BSP/Components/vl53l1cb/modules/vl53l1_api_preset_modes.c **** 		pdata->crosstalk_range_ignore_threshold_mult);
 161:Drivers/BSP/Components/vl53l1cb/modules/vl53l1_api_preset_modes.c **** 	} else {
 162:Drivers/BSP/Components/vl53l1cb/modules/vl53l1_api_preset_modes.c **** 		pdata->crosstalk_range_ignore_threshold_rate_mcps = 0;
 214              		.loc 1 162 3 is_stmt 1 view .LVU77
 215              		.loc 1 162 53 is_stmt 0 view .LVU78
 216 0046 0023     		movs	r3, #0
 217 0048 2383     		strh	r3, [r4, #24]	@ movhi
 218              	.LVL8:
 219              	.L7:
 163:Drivers/BSP/Components/vl53l1cb/modules/vl53l1_api_preset_modes.c **** 	}
 164:Drivers/BSP/Components/vl53l1cb/modules/vl53l1_api_preset_modes.c **** 
 165:Drivers/BSP/Components/vl53l1cb/modules/vl53l1_api_preset_modes.c **** 
 166:Drivers/BSP/Components/vl53l1cb/modules/vl53l1_api_preset_modes.c **** 
 167:Drivers/BSP/Components/vl53l1cb/modules/vl53l1_api_preset_modes.c **** 
 168:Drivers/BSP/Components/vl53l1cb/modules/vl53l1_api_preset_modes.c **** 	pdata->algo__crosstalk_detect_min_valid_range_mm  =
 220              		.loc 1 168 2 is_stmt 1 view .LVU79
 221              		.loc 1 168 52 is_stmt 0 view .LVU80
 222 004a 4FF6CE73 		movw	r3, #65486
 223 004e 6383     		strh	r3, [r4, #26]	@ movhi
 169:Drivers/BSP/Components/vl53l1cb/modules/vl53l1_api_preset_modes.c **** 		VL53L1_TUNINGPARM_XTALK_DETECT_MIN_VALID_RANGE_MM_DEFAULT;
 170:Drivers/BSP/Components/vl53l1cb/modules/vl53l1_api_preset_modes.c **** 	pdata->algo__crosstalk_detect_max_valid_range_mm  =
 224              		.loc 1 170 2 is_stmt 1 view .LVU81
 225              		.loc 1 170 52 is_stmt 0 view .LVU82
 226 0050 3223     		movs	r3, #50
 227 0052 A383     		strh	r3, [r4, #28]	@ movhi
ARM GAS  C:\Temp\ccoVwn9Y.s 			page 8


 171:Drivers/BSP/Components/vl53l1cb/modules/vl53l1_api_preset_modes.c **** 		VL53L1_TUNINGPARM_XTALK_DETECT_MAX_VALID_RANGE_MM_DEFAULT;
 172:Drivers/BSP/Components/vl53l1cb/modules/vl53l1_api_preset_modes.c **** 	pdata->algo__crosstalk_detect_max_valid_rate_kcps =
 228              		.loc 1 172 2 is_stmt 1 view .LVU83
 229              		.loc 1 172 52 is_stmt 0 view .LVU84
 230 0054 4FF47A43 		mov	r3, #64000
 231 0058 E383     		strh	r3, [r4, #30]	@ movhi
 173:Drivers/BSP/Components/vl53l1cb/modules/vl53l1_api_preset_modes.c **** 		VL53L1_TUNINGPARM_XTALK_DETECT_MAX_VALID_RATE_KCPS_DEFAULT;
 174:Drivers/BSP/Components/vl53l1cb/modules/vl53l1_api_preset_modes.c **** 	pdata->algo__crosstalk_detect_max_sigma_mm        =
 232              		.loc 1 174 2 is_stmt 1 view .LVU85
 233              		.loc 1 174 52 is_stmt 0 view .LVU86
 234 005a 8C23     		movs	r3, #140
 235 005c 2384     		strh	r3, [r4, #32]	@ movhi
 175:Drivers/BSP/Components/vl53l1cb/modules/vl53l1_api_preset_modes.c **** 			VL53L1_TUNINGPARM_XTALK_DETECT_MAX_SIGMA_MM_DEFAULT;
 176:Drivers/BSP/Components/vl53l1cb/modules/vl53l1_api_preset_modes.c **** 
 177:Drivers/BSP/Components/vl53l1cb/modules/vl53l1_api_preset_modes.c **** 	LOG_FUNCTION_END(status);
 236              		.loc 1 177 26 is_stmt 1 view .LVU87
 178:Drivers/BSP/Components/vl53l1cb/modules/vl53l1_api_preset_modes.c **** 
 179:Drivers/BSP/Components/vl53l1cb/modules/vl53l1_api_preset_modes.c **** 	return status;
 237              		.loc 1 179 2 view .LVU88
 180:Drivers/BSP/Components/vl53l1cb/modules/vl53l1_api_preset_modes.c **** }
 238              		.loc 1 180 1 is_stmt 0 view .LVU89
 239 005e 0020     		movs	r0, #0
 240 0060 38BD     		pop	{r3, r4, r5, pc}
 241              	.LVL9:
 242              	.L9:
 155:Drivers/BSP/Components/vl53l1cb/modules/vl53l1_api_preset_modes.c **** 		VL53L1_calc_range_ignore_threshold(
 243              		.loc 1 155 3 is_stmt 1 view .LVU90
 156:Drivers/BSP/Components/vl53l1cb/modules/vl53l1_api_preset_modes.c **** 		pdata->algo__crosstalk_compensation_plane_offset_kcps,
 244              		.loc 1 156 3 is_stmt 0 view .LVU91
 245 0062 4023     		movs	r3, #64
 246 0064 2846     		mov	r0, r5
 247              	.LVL10:
 156:Drivers/BSP/Components/vl53l1cb/modules/vl53l1_api_preset_modes.c **** 		pdata->algo__crosstalk_compensation_plane_offset_kcps,
 248              		.loc 1 156 3 view .LVU92
 249 0066 FFF7FEFF 		bl	VL53L1_calc_range_ignore_threshold
 250              	.LVL11:
 155:Drivers/BSP/Components/vl53l1cb/modules/vl53l1_api_preset_modes.c **** 		VL53L1_calc_range_ignore_threshold(
 251              		.loc 1 155 53 view .LVU93
 252 006a 2083     		strh	r0, [r4, #24]	@ movhi
 253 006c EDE7     		b	.L7
 254              		.cfi_endproc
 255              	.LFE5:
 257              		.section	.text.VL53L1_init_xtalk_extract_config_struct,"ax",%progbits
 258              		.align	1
 259              		.global	VL53L1_init_xtalk_extract_config_struct
 260              		.syntax unified
 261              		.thumb
 262              		.thumb_func
 264              	VL53L1_init_xtalk_extract_config_struct:
 265              	.LVL12:
 266              	.LFB6:
 181:Drivers/BSP/Components/vl53l1cb/modules/vl53l1_api_preset_modes.c **** 
 182:Drivers/BSP/Components/vl53l1cb/modules/vl53l1_api_preset_modes.c **** VL53L1_Error VL53L1_init_xtalk_extract_config_struct(
 183:Drivers/BSP/Components/vl53l1cb/modules/vl53l1_api_preset_modes.c **** 	VL53L1_xtalkextract_config_t   *pdata)
 184:Drivers/BSP/Components/vl53l1cb/modules/vl53l1_api_preset_modes.c **** {
 267              		.loc 1 184 1 is_stmt 1 view -0
 268              		.cfi_startproc
ARM GAS  C:\Temp\ccoVwn9Y.s 			page 9


 269              		@ args = 0, pretend = 0, frame = 0
 270              		@ frame_needed = 0, uses_anonymous_args = 0
 271              		@ link register save eliminated.
 185:Drivers/BSP/Components/vl53l1cb/modules/vl53l1_api_preset_modes.c **** 
 186:Drivers/BSP/Components/vl53l1cb/modules/vl53l1_api_preset_modes.c **** 
 187:Drivers/BSP/Components/vl53l1cb/modules/vl53l1_api_preset_modes.c **** 	VL53L1_Error  status = VL53L1_ERROR_NONE;
 272              		.loc 1 187 2 view .LVU95
 188:Drivers/BSP/Components/vl53l1cb/modules/vl53l1_api_preset_modes.c **** 
 189:Drivers/BSP/Components/vl53l1cb/modules/vl53l1_api_preset_modes.c **** 	LOG_FUNCTION_START("");
 273              		.loc 1 189 24 view .LVU96
 190:Drivers/BSP/Components/vl53l1cb/modules/vl53l1_api_preset_modes.c **** 
 191:Drivers/BSP/Components/vl53l1cb/modules/vl53l1_api_preset_modes.c **** 
 192:Drivers/BSP/Components/vl53l1cb/modules/vl53l1_api_preset_modes.c **** 
 193:Drivers/BSP/Components/vl53l1cb/modules/vl53l1_api_preset_modes.c **** 	pdata->dss_config__target_total_rate_mcps          =
 274              		.loc 1 193 2 view .LVU97
 275              		.loc 1 193 53 is_stmt 0 view .LVU98
 276 0000 4FF4A053 		mov	r3, #5120
 277 0004 0380     		strh	r3, [r0]	@ movhi
 194:Drivers/BSP/Components/vl53l1cb/modules/vl53l1_api_preset_modes.c **** 			VL53L1_TUNINGPARM_XTALK_EXTRACT_DSS_RATE_MCPS_DEFAULT;
 195:Drivers/BSP/Components/vl53l1cb/modules/vl53l1_api_preset_modes.c **** 
 196:Drivers/BSP/Components/vl53l1cb/modules/vl53l1_api_preset_modes.c **** 	pdata->mm_config_timeout_us                        =
 278              		.loc 1 196 2 is_stmt 1 view .LVU99
 279              		.loc 1 196 53 is_stmt 0 view .LVU100
 280 0006 4FF4FA63 		mov	r3, #2000
 281 000a 8360     		str	r3, [r0, #8]
 197:Drivers/BSP/Components/vl53l1cb/modules/vl53l1_api_preset_modes.c **** 			VL53L1_TUNINGPARM_XTALK_EXTRACT_DSS_TIMEOUT_US_DEFAULT;
 198:Drivers/BSP/Components/vl53l1cb/modules/vl53l1_api_preset_modes.c **** 
 199:Drivers/BSP/Components/vl53l1cb/modules/vl53l1_api_preset_modes.c **** 	pdata->num_of_samples                              =
 282              		.loc 1 199 2 is_stmt 1 view .LVU101
 283              		.loc 1 199 53 is_stmt 0 view .LVU102
 284 000c 0723     		movs	r3, #7
 285 000e 0374     		strb	r3, [r0, #16]
 200:Drivers/BSP/Components/vl53l1cb/modules/vl53l1_api_preset_modes.c **** 			VL53L1_TUNINGPARM_XTALK_EXTRACT_NUM_OF_SAMPLES_DEFAULT;
 201:Drivers/BSP/Components/vl53l1cb/modules/vl53l1_api_preset_modes.c **** 
 202:Drivers/BSP/Components/vl53l1cb/modules/vl53l1_api_preset_modes.c **** 	pdata->phasecal_config_timeout_us                  =
 286              		.loc 1 202 2 is_stmt 1 view .LVU103
 287              		.loc 1 202 53 is_stmt 0 view .LVU104
 288 0010 43F69823 		movw	r3, #15000
 289 0014 4360     		str	r3, [r0, #4]
 203:Drivers/BSP/Components/vl53l1cb/modules/vl53l1_api_preset_modes.c **** 		VL53L1_TUNINGPARM_XTALK_EXTRACT_PHASECAL_TIMEOUT_US_DEFAULT;
 204:Drivers/BSP/Components/vl53l1cb/modules/vl53l1_api_preset_modes.c **** 
 205:Drivers/BSP/Components/vl53l1cb/modules/vl53l1_api_preset_modes.c **** 	pdata->range_config_timeout_us                     =
 290              		.loc 1 205 2 is_stmt 1 view .LVU105
 291              		.loc 1 205 53 is_stmt 0 view .LVU106
 292 0016 42F21073 		movw	r3, #10000
 293 001a C360     		str	r3, [r0, #12]
 206:Drivers/BSP/Components/vl53l1cb/modules/vl53l1_api_preset_modes.c **** 			VL53L1_TUNINGPARM_XTALK_EXTRACT_BIN_TIMEOUT_US_DEFAULT;
 207:Drivers/BSP/Components/vl53l1cb/modules/vl53l1_api_preset_modes.c **** 
 208:Drivers/BSP/Components/vl53l1cb/modules/vl53l1_api_preset_modes.c **** 
 209:Drivers/BSP/Components/vl53l1cb/modules/vl53l1_api_preset_modes.c **** 
 210:Drivers/BSP/Components/vl53l1cb/modules/vl53l1_api_preset_modes.c **** 
 211:Drivers/BSP/Components/vl53l1cb/modules/vl53l1_api_preset_modes.c **** 	pdata->algo__crosstalk_extract_min_valid_range_mm  =
 294              		.loc 1 211 2 is_stmt 1 view .LVU107
 295              		.loc 1 211 53 is_stmt 0 view .LVU108
 296 001c 4FF6BA73 		movw	r3, #65466
 297 0020 4382     		strh	r3, [r0, #18]	@ movhi
 212:Drivers/BSP/Components/vl53l1cb/modules/vl53l1_api_preset_modes.c **** 		VL53L1_TUNINGPARM_XTALK_EXTRACT_MIN_FILTER_THRESH_MM_DEFAULT;
ARM GAS  C:\Temp\ccoVwn9Y.s 			page 10


 213:Drivers/BSP/Components/vl53l1cb/modules/vl53l1_api_preset_modes.c **** 	pdata->algo__crosstalk_extract_max_valid_range_mm  =
 298              		.loc 1 213 2 is_stmt 1 view .LVU109
 299              		.loc 1 213 53 is_stmt 0 view .LVU110
 300 0022 4623     		movs	r3, #70
 301 0024 8382     		strh	r3, [r0, #20]	@ movhi
 214:Drivers/BSP/Components/vl53l1cb/modules/vl53l1_api_preset_modes.c **** 		VL53L1_TUNINGPARM_XTALK_EXTRACT_MAX_FILTER_THRESH_MM_DEFAULT;
 215:Drivers/BSP/Components/vl53l1cb/modules/vl53l1_api_preset_modes.c **** 	pdata->algo__crosstalk_extract_max_valid_rate_kcps =
 302              		.loc 1 215 2 is_stmt 1 view .LVU111
 303              		.loc 1 215 53 is_stmt 0 view .LVU112
 304 0026 4FF47A43 		mov	r3, #64000
 305 002a C382     		strh	r3, [r0, #22]	@ movhi
 216:Drivers/BSP/Components/vl53l1cb/modules/vl53l1_api_preset_modes.c **** 		VL53L1_TUNINGPARM_XTALK_EXTRACT_MAX_VALID_RATE_KCPS_DEFAULT;
 217:Drivers/BSP/Components/vl53l1cb/modules/vl53l1_api_preset_modes.c **** 	pdata->algo__crosstalk_extract_max_sigma_mm        =
 306              		.loc 1 217 2 is_stmt 1 view .LVU113
 307              		.loc 1 217 53 is_stmt 0 view .LVU114
 308 002c 8C23     		movs	r3, #140
 309 002e 0383     		strh	r3, [r0, #24]	@ movhi
 218:Drivers/BSP/Components/vl53l1cb/modules/vl53l1_api_preset_modes.c **** 		VL53L1_TUNINGPARM_XTALK_EXTRACT_SIGMA_THRESHOLD_MM_DEFAULT;
 219:Drivers/BSP/Components/vl53l1cb/modules/vl53l1_api_preset_modes.c **** 
 220:Drivers/BSP/Components/vl53l1cb/modules/vl53l1_api_preset_modes.c **** 
 221:Drivers/BSP/Components/vl53l1cb/modules/vl53l1_api_preset_modes.c **** 	LOG_FUNCTION_END(status);
 310              		.loc 1 221 26 is_stmt 1 view .LVU115
 222:Drivers/BSP/Components/vl53l1cb/modules/vl53l1_api_preset_modes.c **** 
 223:Drivers/BSP/Components/vl53l1cb/modules/vl53l1_api_preset_modes.c **** 	return status;
 311              		.loc 1 223 2 view .LVU116
 224:Drivers/BSP/Components/vl53l1cb/modules/vl53l1_api_preset_modes.c **** }
 312              		.loc 1 224 1 is_stmt 0 view .LVU117
 313 0030 0020     		movs	r0, #0
 314              	.LVL13:
 315              		.loc 1 224 1 view .LVU118
 316 0032 7047     		bx	lr
 317              		.cfi_endproc
 318              	.LFE6:
 320              		.section	.text.VL53L1_init_offset_cal_config_struct,"ax",%progbits
 321              		.align	1
 322              		.global	VL53L1_init_offset_cal_config_struct
 323              		.syntax unified
 324              		.thumb
 325              		.thumb_func
 327              	VL53L1_init_offset_cal_config_struct:
 328              	.LVL14:
 329              	.LFB7:
 225:Drivers/BSP/Components/vl53l1cb/modules/vl53l1_api_preset_modes.c **** 
 226:Drivers/BSP/Components/vl53l1cb/modules/vl53l1_api_preset_modes.c **** 
 227:Drivers/BSP/Components/vl53l1cb/modules/vl53l1_api_preset_modes.c **** VL53L1_Error VL53L1_init_offset_cal_config_struct(
 228:Drivers/BSP/Components/vl53l1cb/modules/vl53l1_api_preset_modes.c **** 	VL53L1_offsetcal_config_t   *pdata)
 229:Drivers/BSP/Components/vl53l1cb/modules/vl53l1_api_preset_modes.c **** {
 330              		.loc 1 229 1 is_stmt 1 view -0
 331              		.cfi_startproc
 332              		@ args = 0, pretend = 0, frame = 0
 333              		@ frame_needed = 0, uses_anonymous_args = 0
 334              		@ link register save eliminated.
 230:Drivers/BSP/Components/vl53l1cb/modules/vl53l1_api_preset_modes.c **** 
 231:Drivers/BSP/Components/vl53l1cb/modules/vl53l1_api_preset_modes.c **** 
 232:Drivers/BSP/Components/vl53l1cb/modules/vl53l1_api_preset_modes.c **** 	VL53L1_Error  status = VL53L1_ERROR_NONE;
 335              		.loc 1 232 2 view .LVU120
 233:Drivers/BSP/Components/vl53l1cb/modules/vl53l1_api_preset_modes.c **** 
ARM GAS  C:\Temp\ccoVwn9Y.s 			page 11


 234:Drivers/BSP/Components/vl53l1cb/modules/vl53l1_api_preset_modes.c **** 	LOG_FUNCTION_START("");
 336              		.loc 1 234 24 view .LVU121
 235:Drivers/BSP/Components/vl53l1cb/modules/vl53l1_api_preset_modes.c **** 
 236:Drivers/BSP/Components/vl53l1cb/modules/vl53l1_api_preset_modes.c **** 
 237:Drivers/BSP/Components/vl53l1cb/modules/vl53l1_api_preset_modes.c **** 
 238:Drivers/BSP/Components/vl53l1cb/modules/vl53l1_api_preset_modes.c **** 	pdata->dss_config__target_total_rate_mcps          =
 337              		.loc 1 238 2 view .LVU122
 338              		.loc 1 238 53 is_stmt 0 view .LVU123
 339 0000 4FF42063 		mov	r3, #2560
 340 0004 0380     		strh	r3, [r0]	@ movhi
 239:Drivers/BSP/Components/vl53l1cb/modules/vl53l1_api_preset_modes.c **** 			VL53L1_TUNINGPARM_OFFSET_CAL_DSS_RATE_MCPS_DEFAULT;
 240:Drivers/BSP/Components/vl53l1cb/modules/vl53l1_api_preset_modes.c **** 
 241:Drivers/BSP/Components/vl53l1cb/modules/vl53l1_api_preset_modes.c **** 	pdata->phasecal_config_timeout_us                  =
 341              		.loc 1 241 2 is_stmt 1 view .LVU124
 342              		.loc 1 241 53 is_stmt 0 view .LVU125
 343 0006 43F69823 		movw	r3, #15000
 344 000a 4360     		str	r3, [r0, #4]
 242:Drivers/BSP/Components/vl53l1cb/modules/vl53l1_api_preset_modes.c **** 		VL53L1_TUNINGPARM_OFFSET_CAL_PHASECAL_TIMEOUT_US_DEFAULT;
 243:Drivers/BSP/Components/vl53l1cb/modules/vl53l1_api_preset_modes.c **** 
 244:Drivers/BSP/Components/vl53l1cb/modules/vl53l1_api_preset_modes.c **** 	pdata->range_config_timeout_us                     =
 345              		.loc 1 244 2 is_stmt 1 view .LVU126
 346              		.loc 1 244 53 is_stmt 0 view .LVU127
 347 000c 43F2C823 		movw	r3, #13000
 348 0010 8360     		str	r3, [r0, #8]
 245:Drivers/BSP/Components/vl53l1cb/modules/vl53l1_api_preset_modes.c **** 			VL53L1_TUNINGPARM_OFFSET_CAL_RANGE_TIMEOUT_US_DEFAULT;
 246:Drivers/BSP/Components/vl53l1cb/modules/vl53l1_api_preset_modes.c **** 
 247:Drivers/BSP/Components/vl53l1cb/modules/vl53l1_api_preset_modes.c **** 	pdata->mm_config_timeout_us                        =
 349              		.loc 1 247 2 is_stmt 1 view .LVU128
 350              		.loc 1 247 53 is_stmt 0 view .LVU129
 351 0012 C360     		str	r3, [r0, #12]
 248:Drivers/BSP/Components/vl53l1cb/modules/vl53l1_api_preset_modes.c **** 			VL53L1_TUNINGPARM_OFFSET_CAL_MM_TIMEOUT_US_DEFAULT;
 249:Drivers/BSP/Components/vl53l1cb/modules/vl53l1_api_preset_modes.c **** 
 250:Drivers/BSP/Components/vl53l1cb/modules/vl53l1_api_preset_modes.c **** 
 251:Drivers/BSP/Components/vl53l1cb/modules/vl53l1_api_preset_modes.c **** 
 252:Drivers/BSP/Components/vl53l1cb/modules/vl53l1_api_preset_modes.c **** 
 253:Drivers/BSP/Components/vl53l1cb/modules/vl53l1_api_preset_modes.c **** 	pdata->pre_num_of_samples                          =
 352              		.loc 1 253 2 is_stmt 1 view .LVU130
 353              		.loc 1 253 53 is_stmt 0 view .LVU131
 354 0014 0823     		movs	r3, #8
 355 0016 0374     		strb	r3, [r0, #16]
 254:Drivers/BSP/Components/vl53l1cb/modules/vl53l1_api_preset_modes.c **** 			VL53L1_TUNINGPARM_OFFSET_CAL_PRE_SAMPLES_DEFAULT;
 255:Drivers/BSP/Components/vl53l1cb/modules/vl53l1_api_preset_modes.c **** 	pdata->mm1_num_of_samples                          =
 356              		.loc 1 255 2 is_stmt 1 view .LVU132
 357              		.loc 1 255 53 is_stmt 0 view .LVU133
 358 0018 2823     		movs	r3, #40
 359 001a 4374     		strb	r3, [r0, #17]
 256:Drivers/BSP/Components/vl53l1cb/modules/vl53l1_api_preset_modes.c **** 			VL53L1_TUNINGPARM_OFFSET_CAL_MM1_SAMPLES_DEFAULT;
 257:Drivers/BSP/Components/vl53l1cb/modules/vl53l1_api_preset_modes.c **** 	pdata->mm2_num_of_samples                          =
 360              		.loc 1 257 2 is_stmt 1 view .LVU134
 361              		.loc 1 257 53 is_stmt 0 view .LVU135
 362 001c 0923     		movs	r3, #9
 363 001e 8374     		strb	r3, [r0, #18]
 258:Drivers/BSP/Components/vl53l1cb/modules/vl53l1_api_preset_modes.c **** 			VL53L1_TUNINGPARM_OFFSET_CAL_MM2_SAMPLES_DEFAULT;
 259:Drivers/BSP/Components/vl53l1cb/modules/vl53l1_api_preset_modes.c **** 
 260:Drivers/BSP/Components/vl53l1cb/modules/vl53l1_api_preset_modes.c **** 	LOG_FUNCTION_END(status);
 364              		.loc 1 260 26 is_stmt 1 view .LVU136
 261:Drivers/BSP/Components/vl53l1cb/modules/vl53l1_api_preset_modes.c **** 
ARM GAS  C:\Temp\ccoVwn9Y.s 			page 12


 262:Drivers/BSP/Components/vl53l1cb/modules/vl53l1_api_preset_modes.c **** 	return status;
 365              		.loc 1 262 2 view .LVU137
 263:Drivers/BSP/Components/vl53l1cb/modules/vl53l1_api_preset_modes.c **** }
 366              		.loc 1 263 1 is_stmt 0 view .LVU138
 367 0020 0020     		movs	r0, #0
 368              	.LVL15:
 369              		.loc 1 263 1 view .LVU139
 370 0022 7047     		bx	lr
 371              		.cfi_endproc
 372              	.LFE7:
 374              		.section	.text.VL53L1_init_zone_cal_config_struct,"ax",%progbits
 375              		.align	1
 376              		.global	VL53L1_init_zone_cal_config_struct
 377              		.syntax unified
 378              		.thumb
 379              		.thumb_func
 381              	VL53L1_init_zone_cal_config_struct:
 382              	.LVL16:
 383              	.LFB8:
 264:Drivers/BSP/Components/vl53l1cb/modules/vl53l1_api_preset_modes.c **** 
 265:Drivers/BSP/Components/vl53l1cb/modules/vl53l1_api_preset_modes.c **** VL53L1_Error VL53L1_init_zone_cal_config_struct(
 266:Drivers/BSP/Components/vl53l1cb/modules/vl53l1_api_preset_modes.c **** 	VL53L1_zonecal_config_t   *pdata)
 267:Drivers/BSP/Components/vl53l1cb/modules/vl53l1_api_preset_modes.c **** {
 384              		.loc 1 267 1 is_stmt 1 view -0
 385              		.cfi_startproc
 386              		@ args = 0, pretend = 0, frame = 0
 387              		@ frame_needed = 0, uses_anonymous_args = 0
 388              		@ link register save eliminated.
 268:Drivers/BSP/Components/vl53l1cb/modules/vl53l1_api_preset_modes.c **** 
 269:Drivers/BSP/Components/vl53l1cb/modules/vl53l1_api_preset_modes.c **** 
 270:Drivers/BSP/Components/vl53l1cb/modules/vl53l1_api_preset_modes.c **** 	VL53L1_Error  status = VL53L1_ERROR_NONE;
 389              		.loc 1 270 2 view .LVU141
 271:Drivers/BSP/Components/vl53l1cb/modules/vl53l1_api_preset_modes.c **** 
 272:Drivers/BSP/Components/vl53l1cb/modules/vl53l1_api_preset_modes.c **** 	LOG_FUNCTION_START("");
 390              		.loc 1 272 24 view .LVU142
 273:Drivers/BSP/Components/vl53l1cb/modules/vl53l1_api_preset_modes.c **** 
 274:Drivers/BSP/Components/vl53l1cb/modules/vl53l1_api_preset_modes.c **** 
 275:Drivers/BSP/Components/vl53l1cb/modules/vl53l1_api_preset_modes.c **** 
 276:Drivers/BSP/Components/vl53l1cb/modules/vl53l1_api_preset_modes.c **** 	pdata->dss_config__target_total_rate_mcps          =
 391              		.loc 1 276 2 view .LVU143
 392              		.loc 1 276 53 is_stmt 0 view .LVU144
 393 0000 4FF4A053 		mov	r3, #5120
 394 0004 0380     		strh	r3, [r0]	@ movhi
 277:Drivers/BSP/Components/vl53l1cb/modules/vl53l1_api_preset_modes.c **** 			VL53L1_TUNINGPARM_ZONE_CAL_DSS_RATE_MCPS_DEFAULT;
 278:Drivers/BSP/Components/vl53l1cb/modules/vl53l1_api_preset_modes.c **** 
 279:Drivers/BSP/Components/vl53l1cb/modules/vl53l1_api_preset_modes.c **** 	pdata->phasecal_config_timeout_us                  =
 395              		.loc 1 279 2 is_stmt 1 view .LVU145
 396              		.loc 1 279 53 is_stmt 0 view .LVU146
 397 0006 43F69823 		movw	r3, #15000
 398 000a 4360     		str	r3, [r0, #4]
 280:Drivers/BSP/Components/vl53l1cb/modules/vl53l1_api_preset_modes.c **** 			VL53L1_TUNINGPARM_ZONE_CAL_PHASECAL_TIMEOUT_US_DEFAULT;
 281:Drivers/BSP/Components/vl53l1cb/modules/vl53l1_api_preset_modes.c **** 
 282:Drivers/BSP/Components/vl53l1cb/modules/vl53l1_api_preset_modes.c **** 	pdata->range_config_timeout_us                     =
 399              		.loc 1 282 2 is_stmt 1 view .LVU147
 400              		.loc 1 282 53 is_stmt 0 view .LVU148
 401 000c 4FF47A73 		mov	r3, #1000
 402 0010 C360     		str	r3, [r0, #12]
ARM GAS  C:\Temp\ccoVwn9Y.s 			page 13


 283:Drivers/BSP/Components/vl53l1cb/modules/vl53l1_api_preset_modes.c **** 			VL53L1_TUNINGPARM_ZONE_CAL_RANGE_TIMEOUT_US_DEFAULT;
 284:Drivers/BSP/Components/vl53l1cb/modules/vl53l1_api_preset_modes.c **** 
 285:Drivers/BSP/Components/vl53l1cb/modules/vl53l1_api_preset_modes.c **** 	pdata->mm_config_timeout_us                        =
 403              		.loc 1 285 2 is_stmt 1 view .LVU149
 404              		.loc 1 285 53 is_stmt 0 view .LVU150
 405 0012 4FF4FA63 		mov	r3, #2000
 406 0016 8360     		str	r3, [r0, #8]
 286:Drivers/BSP/Components/vl53l1cb/modules/vl53l1_api_preset_modes.c **** 			VL53L1_TUNINGPARM_ZONE_CAL_DSS_TIMEOUT_US_DEFAULT;
 287:Drivers/BSP/Components/vl53l1cb/modules/vl53l1_api_preset_modes.c **** 
 288:Drivers/BSP/Components/vl53l1cb/modules/vl53l1_api_preset_modes.c **** 
 289:Drivers/BSP/Components/vl53l1cb/modules/vl53l1_api_preset_modes.c **** 
 290:Drivers/BSP/Components/vl53l1cb/modules/vl53l1_api_preset_modes.c **** 
 291:Drivers/BSP/Components/vl53l1cb/modules/vl53l1_api_preset_modes.c **** 	pdata->phasecal_num_of_samples                     =
 407              		.loc 1 291 2 is_stmt 1 view .LVU151
 408              		.loc 1 291 53 is_stmt 0 view .LVU152
 409 0018 1023     		movs	r3, #16
 410 001a 0382     		strh	r3, [r0, #16]	@ movhi
 292:Drivers/BSP/Components/vl53l1cb/modules/vl53l1_api_preset_modes.c **** 			VL53L1_TUNINGPARM_ZONE_CAL_PHASECAL_NUM_SAMPLES_DEFAULT;
 293:Drivers/BSP/Components/vl53l1cb/modules/vl53l1_api_preset_modes.c **** 	pdata->zone_num_of_samples                         =
 411              		.loc 1 293 2 is_stmt 1 view .LVU153
 412              		.loc 1 293 53 is_stmt 0 view .LVU154
 413 001c 0823     		movs	r3, #8
 414 001e 4382     		strh	r3, [r0, #18]	@ movhi
 294:Drivers/BSP/Components/vl53l1cb/modules/vl53l1_api_preset_modes.c **** 			VL53L1_TUNINGPARM_ZONE_CAL_ZONE_NUM_SAMPLES_DEFAULT;
 295:Drivers/BSP/Components/vl53l1cb/modules/vl53l1_api_preset_modes.c **** 
 296:Drivers/BSP/Components/vl53l1cb/modules/vl53l1_api_preset_modes.c **** 	LOG_FUNCTION_END(status);
 415              		.loc 1 296 26 is_stmt 1 view .LVU155
 297:Drivers/BSP/Components/vl53l1cb/modules/vl53l1_api_preset_modes.c **** 
 298:Drivers/BSP/Components/vl53l1cb/modules/vl53l1_api_preset_modes.c **** 	return status;
 416              		.loc 1 298 2 view .LVU156
 299:Drivers/BSP/Components/vl53l1cb/modules/vl53l1_api_preset_modes.c **** }
 417              		.loc 1 299 1 is_stmt 0 view .LVU157
 418 0020 0020     		movs	r0, #0
 419              	.LVL17:
 420              		.loc 1 299 1 view .LVU158
 421 0022 7047     		bx	lr
 422              		.cfi_endproc
 423              	.LFE8:
 425              		.section	.text.VL53L1_init_hist_post_process_config_struct,"ax",%progbits
 426              		.align	1
 427              		.global	VL53L1_init_hist_post_process_config_struct
 428              		.syntax unified
 429              		.thumb
 430              		.thumb_func
 432              	VL53L1_init_hist_post_process_config_struct:
 433              	.LVL18:
 434              	.LFB9:
 300:Drivers/BSP/Components/vl53l1cb/modules/vl53l1_api_preset_modes.c **** 
 301:Drivers/BSP/Components/vl53l1cb/modules/vl53l1_api_preset_modes.c **** 
 302:Drivers/BSP/Components/vl53l1cb/modules/vl53l1_api_preset_modes.c **** VL53L1_Error VL53L1_init_hist_post_process_config_struct(
 303:Drivers/BSP/Components/vl53l1cb/modules/vl53l1_api_preset_modes.c **** 	uint8_t                             xtalk_compensation_enable,
 304:Drivers/BSP/Components/vl53l1cb/modules/vl53l1_api_preset_modes.c **** 	VL53L1_hist_post_process_config_t   *pdata)
 305:Drivers/BSP/Components/vl53l1cb/modules/vl53l1_api_preset_modes.c **** {
 435              		.loc 1 305 1 is_stmt 1 view -0
 436              		.cfi_startproc
 437              		@ args = 0, pretend = 0, frame = 0
 438              		@ frame_needed = 0, uses_anonymous_args = 0
ARM GAS  C:\Temp\ccoVwn9Y.s 			page 14


 439              		.loc 1 305 1 is_stmt 0 view .LVU160
 440 0000 10B5     		push	{r4, lr}
 441              		.cfi_def_cfa_offset 8
 442              		.cfi_offset 4, -8
 443              		.cfi_offset 14, -4
 306:Drivers/BSP/Components/vl53l1cb/modules/vl53l1_api_preset_modes.c **** 
 307:Drivers/BSP/Components/vl53l1cb/modules/vl53l1_api_preset_modes.c **** 
 308:Drivers/BSP/Components/vl53l1cb/modules/vl53l1_api_preset_modes.c **** 	VL53L1_Error  status = VL53L1_ERROR_NONE;
 444              		.loc 1 308 2 is_stmt 1 view .LVU161
 445              	.LVL19:
 309:Drivers/BSP/Components/vl53l1cb/modules/vl53l1_api_preset_modes.c **** 
 310:Drivers/BSP/Components/vl53l1cb/modules/vl53l1_api_preset_modes.c **** 	LOG_FUNCTION_START("");
 446              		.loc 1 310 24 view .LVU162
 311:Drivers/BSP/Components/vl53l1cb/modules/vl53l1_api_preset_modes.c **** 
 312:Drivers/BSP/Components/vl53l1cb/modules/vl53l1_api_preset_modes.c **** 
 313:Drivers/BSP/Components/vl53l1cb/modules/vl53l1_api_preset_modes.c **** 
 314:Drivers/BSP/Components/vl53l1cb/modules/vl53l1_api_preset_modes.c **** 	pdata->hist_algo_select =
 447              		.loc 1 314 2 view .LVU163
 448              		.loc 1 314 26 is_stmt 0 view .LVU164
 449 0002 0423     		movs	r3, #4
 450 0004 0B70     		strb	r3, [r1]
 315:Drivers/BSP/Components/vl53l1cb/modules/vl53l1_api_preset_modes.c **** 			VL53L1_TUNINGPARM_HIST_ALGO_SELECT_DEFAULT;
 316:Drivers/BSP/Components/vl53l1cb/modules/vl53l1_api_preset_modes.c **** 
 317:Drivers/BSP/Components/vl53l1cb/modules/vl53l1_api_preset_modes.c **** 
 318:Drivers/BSP/Components/vl53l1cb/modules/vl53l1_api_preset_modes.c **** 
 319:Drivers/BSP/Components/vl53l1cb/modules/vl53l1_api_preset_modes.c **** 	pdata->hist_target_order =
 451              		.loc 1 319 2 is_stmt 1 view .LVU165
 452              		.loc 1 319 27 is_stmt 0 view .LVU166
 453 0006 0123     		movs	r3, #1
 454 0008 4B70     		strb	r3, [r1, #1]
 320:Drivers/BSP/Components/vl53l1cb/modules/vl53l1_api_preset_modes.c **** 			VL53L1_TUNINGPARM_HIST_TARGET_ORDER_DEFAULT;
 321:Drivers/BSP/Components/vl53l1cb/modules/vl53l1_api_preset_modes.c **** 
 322:Drivers/BSP/Components/vl53l1cb/modules/vl53l1_api_preset_modes.c **** 
 323:Drivers/BSP/Components/vl53l1cb/modules/vl53l1_api_preset_modes.c **** 
 324:Drivers/BSP/Components/vl53l1cb/modules/vl53l1_api_preset_modes.c **** 	pdata->filter_woi0                   =
 455              		.loc 1 324 2 is_stmt 1 view .LVU167
 456              		.loc 1 324 39 is_stmt 0 view .LVU168
 457 000a 8B70     		strb	r3, [r1, #2]
 325:Drivers/BSP/Components/vl53l1cb/modules/vl53l1_api_preset_modes.c **** 			VL53L1_TUNINGPARM_HIST_FILTER_WOI_0_DEFAULT;
 326:Drivers/BSP/Components/vl53l1cb/modules/vl53l1_api_preset_modes.c **** 	pdata->filter_woi1                   =
 458              		.loc 1 326 2 is_stmt 1 view .LVU169
 459              		.loc 1 326 39 is_stmt 0 view .LVU170
 460 000c 0222     		movs	r2, #2
 461 000e CA70     		strb	r2, [r1, #3]
 327:Drivers/BSP/Components/vl53l1cb/modules/vl53l1_api_preset_modes.c **** 			VL53L1_TUNINGPARM_HIST_FILTER_WOI_1_DEFAULT;
 328:Drivers/BSP/Components/vl53l1cb/modules/vl53l1_api_preset_modes.c **** 
 329:Drivers/BSP/Components/vl53l1cb/modules/vl53l1_api_preset_modes.c **** 
 330:Drivers/BSP/Components/vl53l1cb/modules/vl53l1_api_preset_modes.c **** 	pdata->hist_amb_est_method =
 462              		.loc 1 330 2 is_stmt 1 view .LVU171
 463              		.loc 1 330 29 is_stmt 0 view .LVU172
 464 0010 0B71     		strb	r3, [r1, #4]
 331:Drivers/BSP/Components/vl53l1cb/modules/vl53l1_api_preset_modes.c **** 			VL53L1_TUNINGPARM_HIST_AMB_EST_METHOD_DEFAULT;
 332:Drivers/BSP/Components/vl53l1cb/modules/vl53l1_api_preset_modes.c **** 
 333:Drivers/BSP/Components/vl53l1cb/modules/vl53l1_api_preset_modes.c **** 	pdata->ambient_thresh_sigma0         =
 465              		.loc 1 333 2 is_stmt 1 view .LVU173
 466              		.loc 1 333 39 is_stmt 0 view .LVU174
 467 0012 4FF0500C 		mov	ip, #80
ARM GAS  C:\Temp\ccoVwn9Y.s 			page 15


 468 0016 81F805C0 		strb	ip, [r1, #5]
 334:Drivers/BSP/Components/vl53l1cb/modules/vl53l1_api_preset_modes.c **** 			VL53L1_TUNINGPARM_HIST_AMB_THRESH_SIGMA_0_DEFAULT;
 335:Drivers/BSP/Components/vl53l1cb/modules/vl53l1_api_preset_modes.c **** 	pdata->ambient_thresh_sigma1         =
 469              		.loc 1 335 2 is_stmt 1 view .LVU175
 470              		.loc 1 335 39 is_stmt 0 view .LVU176
 471 001a 7022     		movs	r2, #112
 472 001c 8A71     		strb	r2, [r1, #6]
 336:Drivers/BSP/Components/vl53l1cb/modules/vl53l1_api_preset_modes.c **** 			VL53L1_TUNINGPARM_HIST_AMB_THRESH_SIGMA_1_DEFAULT;
 337:Drivers/BSP/Components/vl53l1cb/modules/vl53l1_api_preset_modes.c **** 
 338:Drivers/BSP/Components/vl53l1cb/modules/vl53l1_api_preset_modes.c **** 
 339:Drivers/BSP/Components/vl53l1cb/modules/vl53l1_api_preset_modes.c **** 	pdata->ambient_thresh_events_scaler     =
 473              		.loc 1 339 2 is_stmt 1 view .LVU177
 474              		.loc 1 339 42 is_stmt 0 view .LVU178
 475 001e 41F23D02 		movw	r2, #4157
 476 0022 0A81     		strh	r2, [r1, #8]	@ movhi
 340:Drivers/BSP/Components/vl53l1cb/modules/vl53l1_api_preset_modes.c **** 			VL53L1_TUNINGPARM_HIST_AMB_EVENTS_SCALER_DEFAULT;
 341:Drivers/BSP/Components/vl53l1cb/modules/vl53l1_api_preset_modes.c **** 
 342:Drivers/BSP/Components/vl53l1cb/modules/vl53l1_api_preset_modes.c **** 
 343:Drivers/BSP/Components/vl53l1cb/modules/vl53l1_api_preset_modes.c **** 	pdata->min_ambient_thresh_events     =
 477              		.loc 1 343 2 is_stmt 1 view .LVU179
 478              		.loc 1 343 39 is_stmt 0 view .LVU180
 479 0024 1022     		movs	r2, #16
 480 0026 CA60     		str	r2, [r1, #12]
 344:Drivers/BSP/Components/vl53l1cb/modules/vl53l1_api_preset_modes.c **** 			VL53L1_TUNINGPARM_HIST_MIN_AMB_THRESH_EVENTS_DEFAULT;
 345:Drivers/BSP/Components/vl53l1cb/modules/vl53l1_api_preset_modes.c **** 
 346:Drivers/BSP/Components/vl53l1cb/modules/vl53l1_api_preset_modes.c **** 	pdata->noise_threshold               =
 481              		.loc 1 346 2 is_stmt 1 view .LVU181
 482              		.loc 1 346 39 is_stmt 0 view .LVU182
 483 0028 3222     		movs	r2, #50
 484 002a 0A82     		strh	r2, [r1, #16]	@ movhi
 347:Drivers/BSP/Components/vl53l1cb/modules/vl53l1_api_preset_modes.c **** 			VL53L1_TUNINGPARM_HIST_NOISE_THRESHOLD_DEFAULT;
 348:Drivers/BSP/Components/vl53l1cb/modules/vl53l1_api_preset_modes.c **** 
 349:Drivers/BSP/Components/vl53l1cb/modules/vl53l1_api_preset_modes.c **** 	pdata->signal_total_events_limit     =
 485              		.loc 1 349 2 is_stmt 1 view .LVU183
 486              		.loc 1 349 39 is_stmt 0 view .LVU184
 487 002c 6424     		movs	r4, #100
 488 002e 4C61     		str	r4, [r1, #20]
 350:Drivers/BSP/Components/vl53l1cb/modules/vl53l1_api_preset_modes.c **** 		VL53L1_TUNINGPARM_HIST_SIGNAL_TOTAL_EVENTS_LIMIT_DEFAULT;
 351:Drivers/BSP/Components/vl53l1cb/modules/vl53l1_api_preset_modes.c **** 	pdata->sigma_estimator__sigma_ref_mm =
 489              		.loc 1 351 2 is_stmt 1 view .LVU185
 490              		.loc 1 351 39 is_stmt 0 view .LVU186
 491 0030 0B76     		strb	r3, [r1, #24]
 352:Drivers/BSP/Components/vl53l1cb/modules/vl53l1_api_preset_modes.c **** 		VL53L1_TUNINGPARM_HIST_SIGMA_EST_REF_MM_DEFAULT;
 353:Drivers/BSP/Components/vl53l1cb/modules/vl53l1_api_preset_modes.c **** 
 354:Drivers/BSP/Components/vl53l1cb/modules/vl53l1_api_preset_modes.c **** 
 355:Drivers/BSP/Components/vl53l1cb/modules/vl53l1_api_preset_modes.c **** 	pdata->sigma_thresh                  =
 492              		.loc 1 355 2 is_stmt 1 view .LVU187
 493              		.loc 1 355 39 is_stmt 0 view .LVU188
 494 0032 A023     		movs	r3, #160
 495 0034 4B83     		strh	r3, [r1, #26]	@ movhi
 356:Drivers/BSP/Components/vl53l1cb/modules/vl53l1_api_preset_modes.c **** 			VL53L1_TUNINGPARM_HIST_SIGMA_THRESH_MM_DEFAULT;
 357:Drivers/BSP/Components/vl53l1cb/modules/vl53l1_api_preset_modes.c **** 
 358:Drivers/BSP/Components/vl53l1cb/modules/vl53l1_api_preset_modes.c **** 	pdata->range_offset_mm            =      0;
 496              		.loc 1 358 2 is_stmt 1 view .LVU189
 497              		.loc 1 358 36 is_stmt 0 view .LVU190
 498 0036 0023     		movs	r3, #0
 499 0038 8B83     		strh	r3, [r1, #28]	@ movhi
ARM GAS  C:\Temp\ccoVwn9Y.s 			page 16


 359:Drivers/BSP/Components/vl53l1cb/modules/vl53l1_api_preset_modes.c **** 
 360:Drivers/BSP/Components/vl53l1cb/modules/vl53l1_api_preset_modes.c **** 	pdata->gain_factor                =
 500              		.loc 1 360 2 is_stmt 1 view .LVU191
 501              		.loc 1 360 36 is_stmt 0 view .LVU192
 502 003a 40F2C374 		movw	r4, #1987
 503 003e CC83     		strh	r4, [r1, #30]	@ movhi
 361:Drivers/BSP/Components/vl53l1cb/modules/vl53l1_api_preset_modes.c **** 			VL53L1_TUNINGPARM_HIST_GAIN_FACTOR_DEFAULT;
 362:Drivers/BSP/Components/vl53l1cb/modules/vl53l1_api_preset_modes.c **** 
 363:Drivers/BSP/Components/vl53l1cb/modules/vl53l1_api_preset_modes.c **** 
 364:Drivers/BSP/Components/vl53l1cb/modules/vl53l1_api_preset_modes.c **** 
 365:Drivers/BSP/Components/vl53l1cb/modules/vl53l1_api_preset_modes.c **** 	pdata->valid_phase_low = 0x08;
 504              		.loc 1 365 2 is_stmt 1 view .LVU193
 505              		.loc 1 365 25 is_stmt 0 view .LVU194
 506 0040 4FF0080E 		mov	lr, #8
 507 0044 81F820E0 		strb	lr, [r1, #32]
 366:Drivers/BSP/Components/vl53l1cb/modules/vl53l1_api_preset_modes.c **** 	pdata->valid_phase_high = 0x88;
 508              		.loc 1 366 2 is_stmt 1 view .LVU195
 509              		.loc 1 366 26 is_stmt 0 view .LVU196
 510 0048 8824     		movs	r4, #136
 511 004a 81F82140 		strb	r4, [r1, #33]
 367:Drivers/BSP/Components/vl53l1cb/modules/vl53l1_api_preset_modes.c **** 
 368:Drivers/BSP/Components/vl53l1cb/modules/vl53l1_api_preset_modes.c **** 
 369:Drivers/BSP/Components/vl53l1cb/modules/vl53l1_api_preset_modes.c **** 
 370:Drivers/BSP/Components/vl53l1cb/modules/vl53l1_api_preset_modes.c **** 	pdata->algo__consistency_check__phase_tolerance =
 512              		.loc 1 370 2 is_stmt 1 view .LVU197
 513              		.loc 1 370 50 is_stmt 0 view .LVU198
 514 004e 81F822E0 		strb	lr, [r1, #34]
 371:Drivers/BSP/Components/vl53l1cb/modules/vl53l1_api_preset_modes.c **** 		VL53L1_TUNINGPARM_CONSISTENCY_HIST_PHASE_TOLERANCE_DEFAULT;
 372:Drivers/BSP/Components/vl53l1cb/modules/vl53l1_api_preset_modes.c **** 
 373:Drivers/BSP/Components/vl53l1cb/modules/vl53l1_api_preset_modes.c **** 
 374:Drivers/BSP/Components/vl53l1cb/modules/vl53l1_api_preset_modes.c **** 
 375:Drivers/BSP/Components/vl53l1cb/modules/vl53l1_api_preset_modes.c **** 	pdata->algo__consistency_check__event_sigma =
 515              		.loc 1 375 2 is_stmt 1 view .LVU199
 516              		.loc 1 375 46 is_stmt 0 view .LVU200
 517 0052 81F82330 		strb	r3, [r1, #35]
 376:Drivers/BSP/Components/vl53l1cb/modules/vl53l1_api_preset_modes.c **** 		VL53L1_TUNINGPARM_CONSISTENCY_HIST_EVENT_SIGMA_DEFAULT;
 377:Drivers/BSP/Components/vl53l1cb/modules/vl53l1_api_preset_modes.c **** 
 378:Drivers/BSP/Components/vl53l1cb/modules/vl53l1_api_preset_modes.c **** 
 379:Drivers/BSP/Components/vl53l1cb/modules/vl53l1_api_preset_modes.c **** 	pdata->algo__consistency_check__event_min_spad_count =
 518              		.loc 1 379 2 is_stmt 1 view .LVU201
 519              		.loc 1 379 55 is_stmt 0 view .LVU202
 520 0056 4FF4006E 		mov	lr, #2048
 521 005a A1F824E0 		strh	lr, [r1, #36]	@ movhi
 380:Drivers/BSP/Components/vl53l1cb/modules/vl53l1_api_preset_modes.c **** 	VL53L1_TUNINGPARM_CONSISTENCY_HIST_EVENT_SIGMA_MIN_SPAD_LIMIT_DEFAULT;
 381:Drivers/BSP/Components/vl53l1cb/modules/vl53l1_api_preset_modes.c **** 
 382:Drivers/BSP/Components/vl53l1cb/modules/vl53l1_api_preset_modes.c **** 
 383:Drivers/BSP/Components/vl53l1cb/modules/vl53l1_api_preset_modes.c **** 
 384:Drivers/BSP/Components/vl53l1cb/modules/vl53l1_api_preset_modes.c **** 	pdata->algo__consistency_check__min_max_tolerance =
 522              		.loc 1 384 2 is_stmt 1 view .LVU203
 523              		.loc 1 384 52 is_stmt 0 view .LVU204
 524 005e 4FF0FA0E 		mov	lr, #250
 525 0062 A1F826E0 		strh	lr, [r1, #38]	@ movhi
 385:Drivers/BSP/Components/vl53l1cb/modules/vl53l1_api_preset_modes.c **** 		VL53L1_TUNINGPARM_CONSISTENCY_HIST_MIN_MAX_TOLERANCE_MM_DEFAULT;
 386:Drivers/BSP/Components/vl53l1cb/modules/vl53l1_api_preset_modes.c **** 
 387:Drivers/BSP/Components/vl53l1cb/modules/vl53l1_api_preset_modes.c **** 
 388:Drivers/BSP/Components/vl53l1cb/modules/vl53l1_api_preset_modes.c **** 	pdata->algo__crosstalk_compensation_enable = xtalk_compensation_enable;
 526              		.loc 1 388 2 is_stmt 1 view .LVU205
ARM GAS  C:\Temp\ccoVwn9Y.s 			page 17


 527              		.loc 1 388 45 is_stmt 0 view .LVU206
 528 0066 81F82800 		strb	r0, [r1, #40]
 389:Drivers/BSP/Components/vl53l1cb/modules/vl53l1_api_preset_modes.c **** 
 390:Drivers/BSP/Components/vl53l1cb/modules/vl53l1_api_preset_modes.c **** 
 391:Drivers/BSP/Components/vl53l1cb/modules/vl53l1_api_preset_modes.c **** 	pdata->algo__crosstalk_detect_min_valid_range_mm  =
 529              		.loc 1 391 2 is_stmt 1 view .LVU207
 530              		.loc 1 391 52 is_stmt 0 view .LVU208
 531 006a 4FF6CE70 		movw	r0, #65486
 532              	.LVL20:
 533              		.loc 1 391 52 view .LVU209
 534 006e 8886     		strh	r0, [r1, #52]	@ movhi
 392:Drivers/BSP/Components/vl53l1cb/modules/vl53l1_api_preset_modes.c **** 		VL53L1_TUNINGPARM_XTALK_DETECT_MIN_VALID_RANGE_MM_DEFAULT;
 393:Drivers/BSP/Components/vl53l1cb/modules/vl53l1_api_preset_modes.c **** 	pdata->algo__crosstalk_detect_max_valid_range_mm  =
 535              		.loc 1 393 2 is_stmt 1 view .LVU210
 536              		.loc 1 393 52 is_stmt 0 view .LVU211
 537 0070 CA86     		strh	r2, [r1, #54]	@ movhi
 394:Drivers/BSP/Components/vl53l1cb/modules/vl53l1_api_preset_modes.c **** 		VL53L1_TUNINGPARM_XTALK_DETECT_MAX_VALID_RANGE_MM_DEFAULT;
 395:Drivers/BSP/Components/vl53l1cb/modules/vl53l1_api_preset_modes.c **** 	pdata->algo__crosstalk_detect_max_valid_rate_kcps =
 538              		.loc 1 395 2 is_stmt 1 view .LVU212
 539              		.loc 1 395 52 is_stmt 0 view .LVU213
 540 0072 4FF47A40 		mov	r0, #64000
 541 0076 0887     		strh	r0, [r1, #56]	@ movhi
 396:Drivers/BSP/Components/vl53l1cb/modules/vl53l1_api_preset_modes.c **** 		VL53L1_TUNINGPARM_XTALK_DETECT_MAX_VALID_RATE_KCPS_DEFAULT;
 397:Drivers/BSP/Components/vl53l1cb/modules/vl53l1_api_preset_modes.c **** 	pdata->algo__crosstalk_detect_max_sigma_mm        =
 542              		.loc 1 397 2 is_stmt 1 view .LVU214
 543              		.loc 1 397 52 is_stmt 0 view .LVU215
 544 0078 8C20     		movs	r0, #140
 545 007a 4887     		strh	r0, [r1, #58]	@ movhi
 398:Drivers/BSP/Components/vl53l1cb/modules/vl53l1_api_preset_modes.c **** 		VL53L1_TUNINGPARM_XTALK_DETECT_MAX_SIGMA_MM_DEFAULT;
 399:Drivers/BSP/Components/vl53l1cb/modules/vl53l1_api_preset_modes.c **** 
 400:Drivers/BSP/Components/vl53l1cb/modules/vl53l1_api_preset_modes.c **** 
 401:Drivers/BSP/Components/vl53l1cb/modules/vl53l1_api_preset_modes.c **** 
 402:Drivers/BSP/Components/vl53l1cb/modules/vl53l1_api_preset_modes.c **** 
 403:Drivers/BSP/Components/vl53l1cb/modules/vl53l1_api_preset_modes.c **** 
 404:Drivers/BSP/Components/vl53l1cb/modules/vl53l1_api_preset_modes.c **** 	pdata->algo__crosstalk_detect_event_sigma       =
 546              		.loc 1 404 2 is_stmt 1 view .LVU216
 547              		.loc 1 404 50 is_stmt 0 view .LVU217
 548 007c 81F83CC0 		strb	ip, [r1, #60]
 405:Drivers/BSP/Components/vl53l1cb/modules/vl53l1_api_preset_modes.c **** 		VL53L1_TUNINGPARM_XTALK_DETECT_EVENT_SIGMA_DEFAULT;
 406:Drivers/BSP/Components/vl53l1cb/modules/vl53l1_api_preset_modes.c **** 
 407:Drivers/BSP/Components/vl53l1cb/modules/vl53l1_api_preset_modes.c **** 
 408:Drivers/BSP/Components/vl53l1cb/modules/vl53l1_api_preset_modes.c **** 
 409:Drivers/BSP/Components/vl53l1cb/modules/vl53l1_api_preset_modes.c **** 	pdata->algo__crosstalk_detect_min_max_tolerance   =
 549              		.loc 1 409 2 is_stmt 1 view .LVU218
 550              		.loc 1 409 52 is_stmt 0 view .LVU219
 551 0080 CA87     		strh	r2, [r1, #62]	@ movhi
 410:Drivers/BSP/Components/vl53l1cb/modules/vl53l1_api_preset_modes.c **** 		VL53L1_TUNINGPARM_XTALK_DETECT_MIN_MAX_TOLERANCE_DEFAULT;
 411:Drivers/BSP/Components/vl53l1cb/modules/vl53l1_api_preset_modes.c **** 
 412:Drivers/BSP/Components/vl53l1cb/modules/vl53l1_api_preset_modes.c **** 
 413:Drivers/BSP/Components/vl53l1cb/modules/vl53l1_api_preset_modes.c **** 
 414:Drivers/BSP/Components/vl53l1cb/modules/vl53l1_api_preset_modes.c **** 	LOG_FUNCTION_END(status);
 552              		.loc 1 414 26 is_stmt 1 view .LVU220
 415:Drivers/BSP/Components/vl53l1cb/modules/vl53l1_api_preset_modes.c **** 
 416:Drivers/BSP/Components/vl53l1cb/modules/vl53l1_api_preset_modes.c **** 	return status;
 553              		.loc 1 416 2 view .LVU221
 417:Drivers/BSP/Components/vl53l1cb/modules/vl53l1_api_preset_modes.c **** }
 554              		.loc 1 417 1 is_stmt 0 view .LVU222
ARM GAS  C:\Temp\ccoVwn9Y.s 			page 18


 555 0082 1846     		mov	r0, r3
 556 0084 10BD     		pop	{r4, pc}
 557              		.cfi_endproc
 558              	.LFE9:
 560              		.section	.text.VL53L1_init_dmax_calibration_data_struct,"ax",%progbits
 561              		.align	1
 562              		.global	VL53L1_init_dmax_calibration_data_struct
 563              		.syntax unified
 564              		.thumb
 565              		.thumb_func
 567              	VL53L1_init_dmax_calibration_data_struct:
 568              	.LVL21:
 569              	.LFB10:
 418:Drivers/BSP/Components/vl53l1cb/modules/vl53l1_api_preset_modes.c **** 
 419:Drivers/BSP/Components/vl53l1cb/modules/vl53l1_api_preset_modes.c **** 
 420:Drivers/BSP/Components/vl53l1cb/modules/vl53l1_api_preset_modes.c **** VL53L1_Error VL53L1_init_dmax_calibration_data_struct(
 421:Drivers/BSP/Components/vl53l1cb/modules/vl53l1_api_preset_modes.c **** 	VL53L1_dmax_calibration_data_t   *pdata)
 422:Drivers/BSP/Components/vl53l1cb/modules/vl53l1_api_preset_modes.c **** {
 570              		.loc 1 422 1 is_stmt 1 view -0
 571              		.cfi_startproc
 572              		@ args = 0, pretend = 0, frame = 0
 573              		@ frame_needed = 0, uses_anonymous_args = 0
 574              		@ link register save eliminated.
 423:Drivers/BSP/Components/vl53l1cb/modules/vl53l1_api_preset_modes.c **** 
 424:Drivers/BSP/Components/vl53l1cb/modules/vl53l1_api_preset_modes.c **** 
 425:Drivers/BSP/Components/vl53l1cb/modules/vl53l1_api_preset_modes.c **** 	VL53L1_Error  status = VL53L1_ERROR_NONE;
 575              		.loc 1 425 2 view .LVU224
 426:Drivers/BSP/Components/vl53l1cb/modules/vl53l1_api_preset_modes.c **** 
 427:Drivers/BSP/Components/vl53l1cb/modules/vl53l1_api_preset_modes.c **** 	LOG_FUNCTION_START("");
 576              		.loc 1 427 24 view .LVU225
 428:Drivers/BSP/Components/vl53l1cb/modules/vl53l1_api_preset_modes.c **** 
 429:Drivers/BSP/Components/vl53l1cb/modules/vl53l1_api_preset_modes.c **** 
 430:Drivers/BSP/Components/vl53l1cb/modules/vl53l1_api_preset_modes.c **** 
 431:Drivers/BSP/Components/vl53l1cb/modules/vl53l1_api_preset_modes.c **** 
 432:Drivers/BSP/Components/vl53l1cb/modules/vl53l1_api_preset_modes.c **** 	pdata->ref__actual_effective_spads = 0x5F2D;
 577              		.loc 1 432 2 view .LVU226
 578              		.loc 1 432 37 is_stmt 0 view .LVU227
 579 0000 45F62D73 		movw	r3, #24365
 580 0004 0380     		strh	r3, [r0]	@ movhi
 433:Drivers/BSP/Components/vl53l1cb/modules/vl53l1_api_preset_modes.c **** 
 434:Drivers/BSP/Components/vl53l1cb/modules/vl53l1_api_preset_modes.c **** 	pdata->ref__peak_signal_count_rate_mcps = 0x0844;
 581              		.loc 1 434 2 is_stmt 1 view .LVU228
 582              		.loc 1 434 42 is_stmt 0 view .LVU229
 583 0006 40F64403 		movw	r3, #2116
 584 000a 4380     		strh	r3, [r0, #2]	@ movhi
 435:Drivers/BSP/Components/vl53l1cb/modules/vl53l1_api_preset_modes.c **** 
 436:Drivers/BSP/Components/vl53l1cb/modules/vl53l1_api_preset_modes.c **** 	pdata->ref__distance_mm = 0x08A5;
 585              		.loc 1 436 2 is_stmt 1 view .LVU230
 586              		.loc 1 436 26 is_stmt 0 view .LVU231
 587 000c 40F6A503 		movw	r3, #2213
 588 0010 8380     		strh	r3, [r0, #4]	@ movhi
 437:Drivers/BSP/Components/vl53l1cb/modules/vl53l1_api_preset_modes.c **** 
 438:Drivers/BSP/Components/vl53l1cb/modules/vl53l1_api_preset_modes.c **** 
 439:Drivers/BSP/Components/vl53l1cb/modules/vl53l1_api_preset_modes.c **** 	pdata->ref_reflectance_pc = 0x0014;
 589              		.loc 1 439 2 is_stmt 1 view .LVU232
 590              		.loc 1 439 28 is_stmt 0 view .LVU233
 591 0012 1423     		movs	r3, #20
ARM GAS  C:\Temp\ccoVwn9Y.s 			page 19


 592 0014 C380     		strh	r3, [r0, #6]	@ movhi
 440:Drivers/BSP/Components/vl53l1cb/modules/vl53l1_api_preset_modes.c **** 
 441:Drivers/BSP/Components/vl53l1cb/modules/vl53l1_api_preset_modes.c **** 
 442:Drivers/BSP/Components/vl53l1cb/modules/vl53l1_api_preset_modes.c **** 	pdata->coverglass_transmission = 0x0100;
 593              		.loc 1 442 2 is_stmt 1 view .LVU234
 594              		.loc 1 442 33 is_stmt 0 view .LVU235
 595 0016 4FF48073 		mov	r3, #256
 596 001a 0381     		strh	r3, [r0, #8]	@ movhi
 443:Drivers/BSP/Components/vl53l1cb/modules/vl53l1_api_preset_modes.c **** 
 444:Drivers/BSP/Components/vl53l1cb/modules/vl53l1_api_preset_modes.c **** 	LOG_FUNCTION_END(status);
 597              		.loc 1 444 26 is_stmt 1 view .LVU236
 445:Drivers/BSP/Components/vl53l1cb/modules/vl53l1_api_preset_modes.c **** 
 446:Drivers/BSP/Components/vl53l1cb/modules/vl53l1_api_preset_modes.c **** 	return status;
 598              		.loc 1 446 2 view .LVU237
 447:Drivers/BSP/Components/vl53l1cb/modules/vl53l1_api_preset_modes.c **** }
 599              		.loc 1 447 1 is_stmt 0 view .LVU238
 600 001c 0020     		movs	r0, #0
 601              	.LVL22:
 602              		.loc 1 447 1 view .LVU239
 603 001e 7047     		bx	lr
 604              		.cfi_endproc
 605              	.LFE10:
 607              		.section	.text.VL53L1_init_tuning_parm_storage_struct,"ax",%progbits
 608              		.align	1
 609              		.global	VL53L1_init_tuning_parm_storage_struct
 610              		.syntax unified
 611              		.thumb
 612              		.thumb_func
 614              	VL53L1_init_tuning_parm_storage_struct:
 615              	.LVL23:
 616              	.LFB11:
 448:Drivers/BSP/Components/vl53l1cb/modules/vl53l1_api_preset_modes.c **** 
 449:Drivers/BSP/Components/vl53l1cb/modules/vl53l1_api_preset_modes.c **** 
 450:Drivers/BSP/Components/vl53l1cb/modules/vl53l1_api_preset_modes.c **** VL53L1_Error VL53L1_init_tuning_parm_storage_struct(
 451:Drivers/BSP/Components/vl53l1cb/modules/vl53l1_api_preset_modes.c **** 	VL53L1_tuning_parm_storage_t   *pdata)
 452:Drivers/BSP/Components/vl53l1cb/modules/vl53l1_api_preset_modes.c **** {
 617              		.loc 1 452 1 is_stmt 1 view -0
 618              		.cfi_startproc
 619              		@ args = 0, pretend = 0, frame = 0
 620              		@ frame_needed = 0, uses_anonymous_args = 0
 621              		.loc 1 452 1 is_stmt 0 view .LVU241
 622 0000 F0B5     		push	{r4, r5, r6, r7, lr}
 623              		.cfi_def_cfa_offset 20
 624              		.cfi_offset 4, -20
 625              		.cfi_offset 5, -16
 626              		.cfi_offset 6, -12
 627              		.cfi_offset 7, -8
 628              		.cfi_offset 14, -4
 629 0002 0346     		mov	r3, r0
 453:Drivers/BSP/Components/vl53l1cb/modules/vl53l1_api_preset_modes.c **** 
 454:Drivers/BSP/Components/vl53l1cb/modules/vl53l1_api_preset_modes.c **** 
 455:Drivers/BSP/Components/vl53l1cb/modules/vl53l1_api_preset_modes.c **** 	VL53L1_Error  status = VL53L1_ERROR_NONE;
 630              		.loc 1 455 2 is_stmt 1 view .LVU242
 631              	.LVL24:
 456:Drivers/BSP/Components/vl53l1cb/modules/vl53l1_api_preset_modes.c **** 
 457:Drivers/BSP/Components/vl53l1cb/modules/vl53l1_api_preset_modes.c **** 	LOG_FUNCTION_START("");
 632              		.loc 1 457 24 view .LVU243
ARM GAS  C:\Temp\ccoVwn9Y.s 			page 20


 458:Drivers/BSP/Components/vl53l1cb/modules/vl53l1_api_preset_modes.c **** 
 459:Drivers/BSP/Components/vl53l1cb/modules/vl53l1_api_preset_modes.c **** 
 460:Drivers/BSP/Components/vl53l1cb/modules/vl53l1_api_preset_modes.c **** 
 461:Drivers/BSP/Components/vl53l1cb/modules/vl53l1_api_preset_modes.c **** 	pdata->tp_tuning_parm_version              =
 633              		.loc 1 461 2 view .LVU244
 634              		.loc 1 461 45 is_stmt 0 view .LVU245
 635 0004 2022     		movs	r2, #32
 636 0006 0280     		strh	r2, [r0]	@ movhi
 462:Drivers/BSP/Components/vl53l1cb/modules/vl53l1_api_preset_modes.c **** 			VL53L1_TUNINGPARM_VERSION_DEFAULT;
 463:Drivers/BSP/Components/vl53l1cb/modules/vl53l1_api_preset_modes.c **** 	pdata->tp_tuning_parm_key_table_version    =
 637              		.loc 1 463 2 is_stmt 1 view .LVU246
 638              		.loc 1 463 45 is_stmt 0 view .LVU247
 639 0008 0E21     		movs	r1, #14
 640 000a 4180     		strh	r1, [r0, #2]	@ movhi
 464:Drivers/BSP/Components/vl53l1cb/modules/vl53l1_api_preset_modes.c **** 			VL53L1_TUNINGPARM_KEY_TABLE_VERSION_DEFAULT;
 465:Drivers/BSP/Components/vl53l1cb/modules/vl53l1_api_preset_modes.c **** 	pdata->tp_tuning_parm_lld_version          =
 641              		.loc 1 465 2 is_stmt 1 view .LVU248
 642              		.loc 1 465 45 is_stmt 0 view .LVU249
 643 000c 42F69472 		movw	r2, #12180
 644 0010 8280     		strh	r2, [r0, #4]	@ movhi
 466:Drivers/BSP/Components/vl53l1cb/modules/vl53l1_api_preset_modes.c **** 			VL53L1_TUNINGPARM_LLD_VERSION_DEFAULT;
 467:Drivers/BSP/Components/vl53l1cb/modules/vl53l1_api_preset_modes.c **** 	pdata->tp_init_phase_rtn_lite_long         =
 645              		.loc 1 467 2 is_stmt 1 view .LVU250
 646              		.loc 1 467 45 is_stmt 0 view .LVU251
 647 0012 8171     		strb	r1, [r0, #6]
 468:Drivers/BSP/Components/vl53l1cb/modules/vl53l1_api_preset_modes.c **** 		VL53L1_TUNINGPARM_INITIAL_PHASE_RTN_LITE_LONG_RANGE_DEFAULT;
 469:Drivers/BSP/Components/vl53l1cb/modules/vl53l1_api_preset_modes.c **** 	pdata->tp_init_phase_rtn_lite_med          =
 648              		.loc 1 469 2 is_stmt 1 view .LVU252
 649              		.loc 1 469 45 is_stmt 0 view .LVU253
 650 0014 0A20     		movs	r0, #10
 651              	.LVL25:
 652              		.loc 1 469 45 view .LVU254
 653 0016 D871     		strb	r0, [r3, #7]
 470:Drivers/BSP/Components/vl53l1cb/modules/vl53l1_api_preset_modes.c **** 		VL53L1_TUNINGPARM_INITIAL_PHASE_RTN_LITE_MED_RANGE_DEFAULT;
 471:Drivers/BSP/Components/vl53l1cb/modules/vl53l1_api_preset_modes.c **** 	pdata->tp_init_phase_rtn_lite_short        =
 654              		.loc 1 471 2 is_stmt 1 view .LVU255
 655              		.loc 1 471 45 is_stmt 0 view .LVU256
 656 0018 0622     		movs	r2, #6
 657 001a 1A72     		strb	r2, [r3, #8]
 472:Drivers/BSP/Components/vl53l1cb/modules/vl53l1_api_preset_modes.c **** 		VL53L1_TUNINGPARM_INITIAL_PHASE_RTN_LITE_SHORT_RANGE_DEFAULT;
 473:Drivers/BSP/Components/vl53l1cb/modules/vl53l1_api_preset_modes.c **** 	pdata->tp_init_phase_ref_lite_long         =
 658              		.loc 1 473 2 is_stmt 1 view .LVU257
 659              		.loc 1 473 45 is_stmt 0 view .LVU258
 660 001c 5972     		strb	r1, [r3, #9]
 474:Drivers/BSP/Components/vl53l1cb/modules/vl53l1_api_preset_modes.c **** 		VL53L1_TUNINGPARM_INITIAL_PHASE_REF_LITE_LONG_RANGE_DEFAULT;
 475:Drivers/BSP/Components/vl53l1cb/modules/vl53l1_api_preset_modes.c **** 	pdata->tp_init_phase_ref_lite_med          =
 661              		.loc 1 475 2 is_stmt 1 view .LVU259
 662              		.loc 1 475 45 is_stmt 0 view .LVU260
 663 001e 9872     		strb	r0, [r3, #10]
 476:Drivers/BSP/Components/vl53l1cb/modules/vl53l1_api_preset_modes.c **** 		VL53L1_TUNINGPARM_INITIAL_PHASE_REF_LITE_MED_RANGE_DEFAULT;
 477:Drivers/BSP/Components/vl53l1cb/modules/vl53l1_api_preset_modes.c **** 	pdata->tp_init_phase_ref_lite_short        =
 664              		.loc 1 477 2 is_stmt 1 view .LVU261
 665              		.loc 1 477 45 is_stmt 0 view .LVU262
 666 0020 DA72     		strb	r2, [r3, #11]
 478:Drivers/BSP/Components/vl53l1cb/modules/vl53l1_api_preset_modes.c **** 		VL53L1_TUNINGPARM_INITIAL_PHASE_REF_LITE_SHORT_RANGE_DEFAULT;
 479:Drivers/BSP/Components/vl53l1cb/modules/vl53l1_api_preset_modes.c **** 	pdata->tp_init_phase_rtn_hist_long         =
 667              		.loc 1 479 2 is_stmt 1 view .LVU263
ARM GAS  C:\Temp\ccoVwn9Y.s 			page 21


 668              		.loc 1 479 45 is_stmt 0 view .LVU264
 669 0022 0921     		movs	r1, #9
 670 0024 1973     		strb	r1, [r3, #12]
 480:Drivers/BSP/Components/vl53l1cb/modules/vl53l1_api_preset_modes.c **** 		VL53L1_TUNINGPARM_INITIAL_PHASE_RTN_HISTO_LONG_RANGE_DEFAULT;
 481:Drivers/BSP/Components/vl53l1cb/modules/vl53l1_api_preset_modes.c **** 	pdata->tp_init_phase_rtn_hist_med          =
 671              		.loc 1 481 2 is_stmt 1 view .LVU265
 672              		.loc 1 481 45 is_stmt 0 view .LVU266
 673 0026 0521     		movs	r1, #5
 674 0028 5973     		strb	r1, [r3, #13]
 482:Drivers/BSP/Components/vl53l1cb/modules/vl53l1_api_preset_modes.c **** 		VL53L1_TUNINGPARM_INITIAL_PHASE_RTN_HISTO_MED_RANGE_DEFAULT;
 483:Drivers/BSP/Components/vl53l1cb/modules/vl53l1_api_preset_modes.c **** 	pdata->tp_init_phase_rtn_hist_short        =
 675              		.loc 1 483 2 is_stmt 1 view .LVU267
 676              		.loc 1 483 45 is_stmt 0 view .LVU268
 677 002a 0321     		movs	r1, #3
 678 002c 9973     		strb	r1, [r3, #14]
 484:Drivers/BSP/Components/vl53l1cb/modules/vl53l1_api_preset_modes.c **** 		VL53L1_TUNINGPARM_INITIAL_PHASE_RTN_HISTO_SHORT_RANGE_DEFAULT;
 485:Drivers/BSP/Components/vl53l1cb/modules/vl53l1_api_preset_modes.c **** 	pdata->tp_init_phase_ref_hist_long         =
 679              		.loc 1 485 2 is_stmt 1 view .LVU269
 680              		.loc 1 485 45 is_stmt 0 view .LVU270
 681 002e DA73     		strb	r2, [r3, #15]
 486:Drivers/BSP/Components/vl53l1cb/modules/vl53l1_api_preset_modes.c **** 		VL53L1_TUNINGPARM_INITIAL_PHASE_REF_HISTO_LONG_RANGE_DEFAULT;
 487:Drivers/BSP/Components/vl53l1cb/modules/vl53l1_api_preset_modes.c **** 	pdata->tp_init_phase_ref_hist_med          =
 682              		.loc 1 487 2 is_stmt 1 view .LVU271
 683              		.loc 1 487 45 is_stmt 0 view .LVU272
 684 0030 1A74     		strb	r2, [r3, #16]
 488:Drivers/BSP/Components/vl53l1cb/modules/vl53l1_api_preset_modes.c **** 		VL53L1_TUNINGPARM_INITIAL_PHASE_REF_HISTO_MED_RANGE_DEFAULT;
 489:Drivers/BSP/Components/vl53l1cb/modules/vl53l1_api_preset_modes.c **** 	pdata->tp_init_phase_ref_hist_short        =
 685              		.loc 1 489 2 is_stmt 1 view .LVU273
 686              		.loc 1 489 45 is_stmt 0 view .LVU274
 687 0032 5A74     		strb	r2, [r3, #17]
 490:Drivers/BSP/Components/vl53l1cb/modules/vl53l1_api_preset_modes.c **** 		VL53L1_TUNINGPARM_INITIAL_PHASE_REF_HISTO_SHORT_RANGE_DEFAULT;
 491:Drivers/BSP/Components/vl53l1cb/modules/vl53l1_api_preset_modes.c **** 	pdata->tp_consistency_lite_phase_tolerance =
 688              		.loc 1 491 2 is_stmt 1 view .LVU275
 689              		.loc 1 491 45 is_stmt 0 view .LVU276
 690 0034 0221     		movs	r1, #2
 691 0036 9974     		strb	r1, [r3, #18]
 492:Drivers/BSP/Components/vl53l1cb/modules/vl53l1_api_preset_modes.c **** 		VL53L1_TUNINGPARM_CONSISTENCY_LITE_PHASE_TOLERANCE_DEFAULT;
 493:Drivers/BSP/Components/vl53l1cb/modules/vl53l1_api_preset_modes.c **** 	pdata->tp_phasecal_target                  =
 692              		.loc 1 493 2 is_stmt 1 view .LVU277
 693              		.loc 1 493 45 is_stmt 0 view .LVU278
 694 0038 2120     		movs	r0, #33
 695 003a D874     		strb	r0, [r3, #19]
 494:Drivers/BSP/Components/vl53l1cb/modules/vl53l1_api_preset_modes.c **** 			VL53L1_TUNINGPARM_PHASECAL_TARGET_DEFAULT;
 495:Drivers/BSP/Components/vl53l1cb/modules/vl53l1_api_preset_modes.c **** 	pdata->tp_cal_repeat_rate                  =
 696              		.loc 1 495 2 is_stmt 1 view .LVU279
 697              		.loc 1 495 45 is_stmt 0 view .LVU280
 698 003c 0020     		movs	r0, #0
 699 003e 9882     		strh	r0, [r3, #20]	@ movhi
 496:Drivers/BSP/Components/vl53l1cb/modules/vl53l1_api_preset_modes.c **** 			VL53L1_TUNINGPARM_LITE_CAL_REPEAT_RATE_DEFAULT;
 497:Drivers/BSP/Components/vl53l1cb/modules/vl53l1_api_preset_modes.c **** 	pdata->tp_lite_min_clip                    =
 700              		.loc 1 497 2 is_stmt 1 view .LVU281
 701              		.loc 1 497 45 is_stmt 0 view .LVU282
 702 0040 9875     		strb	r0, [r3, #22]
 498:Drivers/BSP/Components/vl53l1cb/modules/vl53l1_api_preset_modes.c **** 			VL53L1_TUNINGPARM_LITE_MIN_CLIP_MM_DEFAULT;
 499:Drivers/BSP/Components/vl53l1cb/modules/vl53l1_api_preset_modes.c **** 	pdata->tp_lite_long_sigma_thresh_mm        =
 703              		.loc 1 499 2 is_stmt 1 view .LVU283
 704              		.loc 1 499 45 is_stmt 0 view .LVU284
ARM GAS  C:\Temp\ccoVwn9Y.s 			page 22


 705 0042 3C24     		movs	r4, #60
 706 0044 1C83     		strh	r4, [r3, #24]	@ movhi
 500:Drivers/BSP/Components/vl53l1cb/modules/vl53l1_api_preset_modes.c **** 			VL53L1_TUNINGPARM_LITE_LONG_SIGMA_THRESH_MM_DEFAULT;
 501:Drivers/BSP/Components/vl53l1cb/modules/vl53l1_api_preset_modes.c **** 	pdata->tp_lite_med_sigma_thresh_mm         =
 707              		.loc 1 501 2 is_stmt 1 view .LVU285
 708              		.loc 1 501 45 is_stmt 0 view .LVU286
 709 0046 5C83     		strh	r4, [r3, #26]	@ movhi
 502:Drivers/BSP/Components/vl53l1cb/modules/vl53l1_api_preset_modes.c **** 			VL53L1_TUNINGPARM_LITE_MED_SIGMA_THRESH_MM_DEFAULT;
 503:Drivers/BSP/Components/vl53l1cb/modules/vl53l1_api_preset_modes.c **** 	pdata->tp_lite_short_sigma_thresh_mm       =
 710              		.loc 1 503 2 is_stmt 1 view .LVU287
 711              		.loc 1 503 45 is_stmt 0 view .LVU288
 712 0048 9C83     		strh	r4, [r3, #28]	@ movhi
 504:Drivers/BSP/Components/vl53l1cb/modules/vl53l1_api_preset_modes.c **** 			VL53L1_TUNINGPARM_LITE_SHORT_SIGMA_THRESH_MM_DEFAULT;
 505:Drivers/BSP/Components/vl53l1cb/modules/vl53l1_api_preset_modes.c **** 	pdata->tp_lite_long_min_count_rate_rtn_mcps  =
 713              		.loc 1 505 2 is_stmt 1 view .LVU289
 714              		.loc 1 505 47 is_stmt 0 view .LVU290
 715 004a 8024     		movs	r4, #128
 716 004c DC83     		strh	r4, [r3, #30]	@ movhi
 506:Drivers/BSP/Components/vl53l1cb/modules/vl53l1_api_preset_modes.c **** 		VL53L1_TUNINGPARM_LITE_LONG_MIN_COUNT_RATE_RTN_MCPS_DEFAULT;
 507:Drivers/BSP/Components/vl53l1cb/modules/vl53l1_api_preset_modes.c **** 	pdata->tp_lite_med_min_count_rate_rtn_mcps   =
 717              		.loc 1 507 2 is_stmt 1 view .LVU291
 718              		.loc 1 507 47 is_stmt 0 view .LVU292
 719 004e 1C84     		strh	r4, [r3, #32]	@ movhi
 508:Drivers/BSP/Components/vl53l1cb/modules/vl53l1_api_preset_modes.c **** 		VL53L1_TUNINGPARM_LITE_MED_MIN_COUNT_RATE_RTN_MCPS_DEFAULT;
 509:Drivers/BSP/Components/vl53l1cb/modules/vl53l1_api_preset_modes.c **** 	pdata->tp_lite_short_min_count_rate_rtn_mcps =
 720              		.loc 1 509 2 is_stmt 1 view .LVU293
 721              		.loc 1 509 47 is_stmt 0 view .LVU294
 722 0050 5C84     		strh	r4, [r3, #34]	@ movhi
 510:Drivers/BSP/Components/vl53l1cb/modules/vl53l1_api_preset_modes.c **** 		VL53L1_TUNINGPARM_LITE_SHORT_MIN_COUNT_RATE_RTN_MCPS_DEFAULT;
 511:Drivers/BSP/Components/vl53l1cb/modules/vl53l1_api_preset_modes.c **** 	pdata->tp_lite_sigma_est_pulse_width_ns      =
 723              		.loc 1 511 2 is_stmt 1 view .LVU295
 724              		.loc 1 511 47 is_stmt 0 view .LVU296
 725 0052 0824     		movs	r4, #8
 726 0054 83F82440 		strb	r4, [r3, #36]
 512:Drivers/BSP/Components/vl53l1cb/modules/vl53l1_api_preset_modes.c **** 			VL53L1_TUNINGPARM_LITE_SIGMA_EST_PULSE_WIDTH_DEFAULT;
 513:Drivers/BSP/Components/vl53l1cb/modules/vl53l1_api_preset_modes.c **** 	pdata->tp_lite_sigma_est_amb_width_ns        =
 727              		.loc 1 513 2 is_stmt 1 view .LVU297
 728              		.loc 1 513 47 is_stmt 0 view .LVU298
 729 0058 1024     		movs	r4, #16
 730 005a 83F82540 		strb	r4, [r3, #37]
 514:Drivers/BSP/Components/vl53l1cb/modules/vl53l1_api_preset_modes.c **** 			VL53L1_TUNINGPARM_LITE_SIGMA_EST_AMB_WIDTH_NS_DEFAULT;
 515:Drivers/BSP/Components/vl53l1cb/modules/vl53l1_api_preset_modes.c **** 	pdata->tp_lite_sigma_ref_mm                  =
 731              		.loc 1 515 2 is_stmt 1 view .LVU299
 732              		.loc 1 515 47 is_stmt 0 view .LVU300
 733 005e 0124     		movs	r4, #1
 734 0060 83F82640 		strb	r4, [r3, #38]
 516:Drivers/BSP/Components/vl53l1cb/modules/vl53l1_api_preset_modes.c **** 			VL53L1_TUNINGPARM_LITE_SIGMA_REF_MM_DEFAULT;
 517:Drivers/BSP/Components/vl53l1cb/modules/vl53l1_api_preset_modes.c **** 	pdata->tp_lite_seed_cfg                      =
 735              		.loc 1 517 2 is_stmt 1 view .LVU301
 736              		.loc 1 517 47 is_stmt 0 view .LVU302
 737 0064 83F82710 		strb	r1, [r3, #39]
 518:Drivers/BSP/Components/vl53l1cb/modules/vl53l1_api_preset_modes.c **** 			VL53L1_TUNINGPARM_LITE_SEED_CONFIG_DEFAULT;
 519:Drivers/BSP/Components/vl53l1cb/modules/vl53l1_api_preset_modes.c **** 	pdata->tp_timed_seed_cfg                     =
 738              		.loc 1 519 2 is_stmt 1 view .LVU303
 739              		.loc 1 519 47 is_stmt 0 view .LVU304
 740 0068 83F82840 		strb	r4, [r3, #40]
 520:Drivers/BSP/Components/vl53l1cb/modules/vl53l1_api_preset_modes.c **** 			VL53L1_TUNINGPARM_TIMED_SEED_CONFIG_DEFAULT;
ARM GAS  C:\Temp\ccoVwn9Y.s 			page 23


 521:Drivers/BSP/Components/vl53l1cb/modules/vl53l1_api_preset_modes.c **** 	pdata->tp_lite_quantifier                    =
 741              		.loc 1 521 2 is_stmt 1 view .LVU305
 742              		.loc 1 521 47 is_stmt 0 view .LVU306
 743 006c 83F82910 		strb	r1, [r3, #41]
 522:Drivers/BSP/Components/vl53l1cb/modules/vl53l1_api_preset_modes.c **** 			VL53L1_TUNINGPARM_LITE_QUANTIFIER_DEFAULT;
 523:Drivers/BSP/Components/vl53l1cb/modules/vl53l1_api_preset_modes.c **** 	pdata->tp_lite_first_order_select            =
 744              		.loc 1 523 2 is_stmt 1 view .LVU307
 745              		.loc 1 523 47 is_stmt 0 view .LVU308
 746 0070 83F82A00 		strb	r0, [r3, #42]
 524:Drivers/BSP/Components/vl53l1cb/modules/vl53l1_api_preset_modes.c **** 			VL53L1_TUNINGPARM_LITE_FIRST_ORDER_SELECT_DEFAULT;
 525:Drivers/BSP/Components/vl53l1cb/modules/vl53l1_api_preset_modes.c **** 
 526:Drivers/BSP/Components/vl53l1cb/modules/vl53l1_api_preset_modes.c **** 
 527:Drivers/BSP/Components/vl53l1cb/modules/vl53l1_api_preset_modes.c **** 
 528:Drivers/BSP/Components/vl53l1cb/modules/vl53l1_api_preset_modes.c **** 
 529:Drivers/BSP/Components/vl53l1cb/modules/vl53l1_api_preset_modes.c **** 	pdata->tp_dss_target_lite_mcps               =
 747              		.loc 1 529 2 is_stmt 1 view .LVU309
 748              		.loc 1 529 47 is_stmt 0 view .LVU310
 749 0074 4FF42061 		mov	r1, #2560
 750 0078 9985     		strh	r1, [r3, #44]	@ movhi
 530:Drivers/BSP/Components/vl53l1cb/modules/vl53l1_api_preset_modes.c **** 	VL53L1_TUNINGPARM_LITE_DSS_CONFIG_TARGET_TOTAL_RATE_MCPS_DEFAULT;
 531:Drivers/BSP/Components/vl53l1cb/modules/vl53l1_api_preset_modes.c **** 	pdata->tp_dss_target_histo_mcps              =
 751              		.loc 1 531 2 is_stmt 1 view .LVU311
 752              		.loc 1 531 47 is_stmt 0 view .LVU312
 753 007a 4FF4A055 		mov	r5, #5120
 754 007e DD85     		strh	r5, [r3, #46]	@ movhi
 532:Drivers/BSP/Components/vl53l1cb/modules/vl53l1_api_preset_modes.c **** 	VL53L1_TUNINGPARM_RANGING_DSS_CONFIG_TARGET_TOTAL_RATE_MCPS_DEFAULT;
 533:Drivers/BSP/Components/vl53l1cb/modules/vl53l1_api_preset_modes.c **** 	pdata->tp_dss_target_histo_mz_mcps           =
 755              		.loc 1 533 2 is_stmt 1 view .LVU313
 756              		.loc 1 533 47 is_stmt 0 view .LVU314
 757 0080 1D86     		strh	r5, [r3, #48]	@ movhi
 534:Drivers/BSP/Components/vl53l1cb/modules/vl53l1_api_preset_modes.c **** 	VL53L1_TUNINGPARM_MZ_DSS_CONFIG_TARGET_TOTAL_RATE_MCPS_DEFAULT;
 535:Drivers/BSP/Components/vl53l1cb/modules/vl53l1_api_preset_modes.c **** 	pdata->tp_dss_target_timed_mcps              =
 758              		.loc 1 535 2 is_stmt 1 view .LVU315
 759              		.loc 1 535 47 is_stmt 0 view .LVU316
 760 0082 5986     		strh	r1, [r3, #50]	@ movhi
 536:Drivers/BSP/Components/vl53l1cb/modules/vl53l1_api_preset_modes.c **** 	VL53L1_TUNINGPARM_TIMED_DSS_CONFIG_TARGET_TOTAL_RATE_MCPS_DEFAULT;
 537:Drivers/BSP/Components/vl53l1cb/modules/vl53l1_api_preset_modes.c **** 	pdata->tp_phasecal_timeout_lite_us           =
 761              		.loc 1 537 2 is_stmt 1 view .LVU317
 762              		.loc 1 537 47 is_stmt 0 view .LVU318
 763 0084 4FF47A75 		mov	r5, #1000
 764 0088 9D63     		str	r5, [r3, #56]
 538:Drivers/BSP/Components/vl53l1cb/modules/vl53l1_api_preset_modes.c **** 		VL53L1_TUNINGPARM_LITE_PHASECAL_CONFIG_TIMEOUT_US_DEFAULT;
 539:Drivers/BSP/Components/vl53l1cb/modules/vl53l1_api_preset_modes.c **** 	pdata->tp_phasecal_timeout_hist_long_us      =
 765              		.loc 1 539 2 is_stmt 1 view .LVU319
 766              		.loc 1 539 47 is_stmt 0 view .LVU320
 767 008a 43F69827 		movw	r7, #15000
 768 008e DF63     		str	r7, [r3, #60]
 540:Drivers/BSP/Components/vl53l1cb/modules/vl53l1_api_preset_modes.c **** 	VL53L1_TUNINGPARM_RANGING_LONG_PHASECAL_CONFIG_TIMEOUT_US_DEFAULT;
 541:Drivers/BSP/Components/vl53l1cb/modules/vl53l1_api_preset_modes.c **** 	pdata->tp_phasecal_timeout_hist_med_us       =
 769              		.loc 1 541 2 is_stmt 1 view .LVU321
 770              		.loc 1 541 47 is_stmt 0 view .LVU322
 771 0090 42F22836 		movw	r6, #9000
 772 0094 1E64     		str	r6, [r3, #64]
 542:Drivers/BSP/Components/vl53l1cb/modules/vl53l1_api_preset_modes.c **** 	VL53L1_TUNINGPARM_RANGING_MED_PHASECAL_CONFIG_TIMEOUT_US_DEFAULT;
 543:Drivers/BSP/Components/vl53l1cb/modules/vl53l1_api_preset_modes.c **** 	pdata->tp_phasecal_timeout_hist_short_us     =
 773              		.loc 1 543 2 is_stmt 1 view .LVU323
 774              		.loc 1 543 47 is_stmt 0 view .LVU324
ARM GAS  C:\Temp\ccoVwn9Y.s 			page 24


 775 0096 41F27071 		movw	r1, #6000
 776 009a 5964     		str	r1, [r3, #68]
 544:Drivers/BSP/Components/vl53l1cb/modules/vl53l1_api_preset_modes.c **** 	VL53L1_TUNINGPARM_RANGING_SHORT_PHASECAL_CONFIG_TIMEOUT_US_DEFAULT;
 545:Drivers/BSP/Components/vl53l1cb/modules/vl53l1_api_preset_modes.c **** 	pdata->tp_phasecal_timeout_mz_long_us        =
 777              		.loc 1 545 2 is_stmt 1 view .LVU325
 778              		.loc 1 545 47 is_stmt 0 view .LVU326
 779 009c 9F64     		str	r7, [r3, #72]
 546:Drivers/BSP/Components/vl53l1cb/modules/vl53l1_api_preset_modes.c **** 	VL53L1_TUNINGPARM_MZ_LONG_PHASECAL_CONFIG_TIMEOUT_US_DEFAULT;
 547:Drivers/BSP/Components/vl53l1cb/modules/vl53l1_api_preset_modes.c **** 	pdata->tp_phasecal_timeout_mz_med_us         =
 780              		.loc 1 547 2 is_stmt 1 view .LVU327
 781              		.loc 1 547 47 is_stmt 0 view .LVU328
 782 009e DE64     		str	r6, [r3, #76]
 548:Drivers/BSP/Components/vl53l1cb/modules/vl53l1_api_preset_modes.c **** 		VL53L1_TUNINGPARM_MZ_MED_PHASECAL_CONFIG_TIMEOUT_US_DEFAULT;
 549:Drivers/BSP/Components/vl53l1cb/modules/vl53l1_api_preset_modes.c **** 	pdata->tp_phasecal_timeout_mz_short_us       =
 783              		.loc 1 549 2 is_stmt 1 view .LVU329
 784              		.loc 1 549 47 is_stmt 0 view .LVU330
 785 00a0 1965     		str	r1, [r3, #80]
 550:Drivers/BSP/Components/vl53l1cb/modules/vl53l1_api_preset_modes.c **** 		VL53L1_TUNINGPARM_MZ_SHORT_PHASECAL_CONFIG_TIMEOUT_US_DEFAULT;
 551:Drivers/BSP/Components/vl53l1cb/modules/vl53l1_api_preset_modes.c **** 	pdata->tp_phasecal_timeout_timed_us          =
 786              		.loc 1 551 2 is_stmt 1 view .LVU331
 787              		.loc 1 551 47 is_stmt 0 view .LVU332
 788 00a2 5D65     		str	r5, [r3, #84]
 552:Drivers/BSP/Components/vl53l1cb/modules/vl53l1_api_preset_modes.c **** 		VL53L1_TUNINGPARM_TIMED_PHASECAL_CONFIG_TIMEOUT_US_DEFAULT;
 553:Drivers/BSP/Components/vl53l1cb/modules/vl53l1_api_preset_modes.c **** 	pdata->tp_mm_timeout_lite_us                 =
 789              		.loc 1 553 2 is_stmt 1 view .LVU333
 790              		.loc 1 553 47 is_stmt 0 view .LVU334
 791 00a4 4FF4FA61 		mov	r1, #2000
 792 00a8 9965     		str	r1, [r3, #88]
 554:Drivers/BSP/Components/vl53l1cb/modules/vl53l1_api_preset_modes.c **** 			VL53L1_TUNINGPARM_LITE_MM_CONFIG_TIMEOUT_US_DEFAULT;
 555:Drivers/BSP/Components/vl53l1cb/modules/vl53l1_api_preset_modes.c **** 	pdata->tp_mm_timeout_histo_us                =
 793              		.loc 1 555 2 is_stmt 1 view .LVU335
 794              		.loc 1 555 47 is_stmt 0 view .LVU336
 795 00aa D965     		str	r1, [r3, #92]
 556:Drivers/BSP/Components/vl53l1cb/modules/vl53l1_api_preset_modes.c **** 			VL53L1_TUNINGPARM_RANGING_MM_CONFIG_TIMEOUT_US_DEFAULT;
 557:Drivers/BSP/Components/vl53l1cb/modules/vl53l1_api_preset_modes.c **** 	pdata->tp_mm_timeout_mz_us                   =
 796              		.loc 1 557 2 is_stmt 1 view .LVU337
 797              		.loc 1 557 47 is_stmt 0 view .LVU338
 798 00ac 1966     		str	r1, [r3, #96]
 558:Drivers/BSP/Components/vl53l1cb/modules/vl53l1_api_preset_modes.c **** 			VL53L1_TUNINGPARM_MZ_MM_CONFIG_TIMEOUT_US_DEFAULT;
 559:Drivers/BSP/Components/vl53l1cb/modules/vl53l1_api_preset_modes.c **** 	pdata->tp_mm_timeout_timed_us                =
 799              		.loc 1 559 2 is_stmt 1 view .LVU339
 800              		.loc 1 559 47 is_stmt 0 view .LVU340
 801 00ae 5966     		str	r1, [r3, #100]
 560:Drivers/BSP/Components/vl53l1cb/modules/vl53l1_api_preset_modes.c **** 			VL53L1_TUNINGPARM_TIMED_MM_CONFIG_TIMEOUT_US_DEFAULT;
 561:Drivers/BSP/Components/vl53l1cb/modules/vl53l1_api_preset_modes.c **** 	pdata->tp_range_timeout_lite_us              =
 802              		.loc 1 561 2 is_stmt 1 view .LVU341
 803              		.loc 1 561 47 is_stmt 0 view .LVU342
 804 00b0 4FF21866 		movw	r6, #63000
 805 00b4 DE66     		str	r6, [r3, #108]
 562:Drivers/BSP/Components/vl53l1cb/modules/vl53l1_api_preset_modes.c **** 			VL53L1_TUNINGPARM_LITE_RANGE_CONFIG_TIMEOUT_US_DEFAULT;
 563:Drivers/BSP/Components/vl53l1cb/modules/vl53l1_api_preset_modes.c **** 	pdata->tp_range_timeout_histo_us             =
 806              		.loc 1 563 2 is_stmt 1 view .LVU343
 807              		.loc 1 563 47 is_stmt 0 view .LVU344
 808 00b6 40F6C416 		movw	r6, #2500
 809 00ba 1E67     		str	r6, [r3, #112]
 564:Drivers/BSP/Components/vl53l1cb/modules/vl53l1_api_preset_modes.c **** 		VL53L1_TUNINGPARM_RANGING_RANGE_CONFIG_TIMEOUT_US_DEFAULT;
 565:Drivers/BSP/Components/vl53l1cb/modules/vl53l1_api_preset_modes.c **** 	pdata->tp_range_timeout_mz_us                =
ARM GAS  C:\Temp\ccoVwn9Y.s 			page 25


 810              		.loc 1 565 2 is_stmt 1 view .LVU345
 811              		.loc 1 565 47 is_stmt 0 view .LVU346
 812 00bc 5E67     		str	r6, [r3, #116]
 566:Drivers/BSP/Components/vl53l1cb/modules/vl53l1_api_preset_modes.c **** 			VL53L1_TUNINGPARM_MZ_RANGE_CONFIG_TIMEOUT_US_DEFAULT;
 567:Drivers/BSP/Components/vl53l1cb/modules/vl53l1_api_preset_modes.c **** 	pdata->tp_range_timeout_timed_us             =
 813              		.loc 1 567 2 is_stmt 1 view .LVU347
 814              		.loc 1 567 47 is_stmt 0 view .LVU348
 815 00be 43F2C826 		movw	r6, #13000
 816 00c2 9E67     		str	r6, [r3, #120]
 568:Drivers/BSP/Components/vl53l1cb/modules/vl53l1_api_preset_modes.c **** 		VL53L1_TUNINGPARM_TIMED_RANGE_CONFIG_TIMEOUT_US_DEFAULT;
 569:Drivers/BSP/Components/vl53l1cb/modules/vl53l1_api_preset_modes.c **** 
 570:Drivers/BSP/Components/vl53l1cb/modules/vl53l1_api_preset_modes.c **** 
 571:Drivers/BSP/Components/vl53l1cb/modules/vl53l1_api_preset_modes.c **** 
 572:Drivers/BSP/Components/vl53l1cb/modules/vl53l1_api_preset_modes.c **** 	pdata->tp_mm_timeout_lpa_us =
 817              		.loc 1 572 2 is_stmt 1 view .LVU349
 818              		.loc 1 572 30 is_stmt 0 view .LVU350
 819 00c4 9C66     		str	r4, [r3, #104]
 573:Drivers/BSP/Components/vl53l1cb/modules/vl53l1_api_preset_modes.c **** 		VL53L1_TUNINGPARM_LOWPOWERAUTO_MM_CONFIG_TIMEOUT_US_DEFAULT;
 574:Drivers/BSP/Components/vl53l1cb/modules/vl53l1_api_preset_modes.c **** 	pdata->tp_range_timeout_lpa_us =
 820              		.loc 1 574 2 is_stmt 1 view .LVU351
 821              		.loc 1 574 33 is_stmt 0 view .LVU352
 822 00c6 4FF4FA56 		mov	r6, #8000
 823 00ca DE67     		str	r6, [r3, #124]
 575:Drivers/BSP/Components/vl53l1cb/modules/vl53l1_api_preset_modes.c **** 		VL53L1_TUNINGPARM_LOWPOWERAUTO_RANGE_CONFIG_TIMEOUT_US_DEFAULT;
 576:Drivers/BSP/Components/vl53l1cb/modules/vl53l1_api_preset_modes.c **** 
 577:Drivers/BSP/Components/vl53l1cb/modules/vl53l1_api_preset_modes.c **** 	pdata->tp_dss_target_very_short_mcps =
 824              		.loc 1 577 2 is_stmt 1 view .LVU353
 825              		.loc 1 577 39 is_stmt 0 view .LVU354
 826 00cc 4FF42056 		mov	r6, #10240
 827 00d0 9E86     		strh	r6, [r3, #52]	@ movhi
 578:Drivers/BSP/Components/vl53l1cb/modules/vl53l1_api_preset_modes.c **** 		VL53L1_TUNINGPARM_VERY_SHORT_DSS_RATE_MCPS_DEFAULT;
 579:Drivers/BSP/Components/vl53l1cb/modules/vl53l1_api_preset_modes.c **** 
 580:Drivers/BSP/Components/vl53l1cb/modules/vl53l1_api_preset_modes.c **** 	pdata->tp_phasecal_patch_power =
 828              		.loc 1 580 2 is_stmt 1 view .LVU355
 829              		.loc 1 580 33 is_stmt 0 view .LVU356
 830 00d2 C3F88000 		str	r0, [r3, #128]
 581:Drivers/BSP/Components/vl53l1cb/modules/vl53l1_api_preset_modes.c **** 		VL53L1_TUNINGPARM_PHASECAL_PATCH_POWER_DEFAULT;
 582:Drivers/BSP/Components/vl53l1cb/modules/vl53l1_api_preset_modes.c **** 
 583:Drivers/BSP/Components/vl53l1cb/modules/vl53l1_api_preset_modes.c **** 	pdata->tp_hist_merge =
 831              		.loc 1 583 2 is_stmt 1 view .LVU357
 832              		.loc 1 583 23 is_stmt 0 view .LVU358
 833 00d6 83F88440 		strb	r4, [r3, #132]
 584:Drivers/BSP/Components/vl53l1cb/modules/vl53l1_api_preset_modes.c **** 		VL53L1_TUNINGPARM_HIST_MERGE_DEFAULT;
 585:Drivers/BSP/Components/vl53l1cb/modules/vl53l1_api_preset_modes.c **** 
 586:Drivers/BSP/Components/vl53l1cb/modules/vl53l1_api_preset_modes.c **** 	pdata->tp_reset_merge_threshold =
 834              		.loc 1 586 2 is_stmt 1 view .LVU359
 835              		.loc 1 586 34 is_stmt 0 view .LVU360
 836 00da 42F21076 		movw	r6, #10000
 837 00de C3F88860 		str	r6, [r3, #136]
 587:Drivers/BSP/Components/vl53l1cb/modules/vl53l1_api_preset_modes.c **** 		VL53L1_TUNINGPARM_RESET_MERGE_THRESHOLD_DEFAULT;
 588:Drivers/BSP/Components/vl53l1cb/modules/vl53l1_api_preset_modes.c **** 
 589:Drivers/BSP/Components/vl53l1cb/modules/vl53l1_api_preset_modes.c **** 	pdata->tp_hist_merge_max_size =
 838              		.loc 1 589 2 is_stmt 1 view .LVU361
 839              		.loc 1 589 32 is_stmt 0 view .LVU362
 840 00e2 83F88C20 		strb	r2, [r3, #140]
 590:Drivers/BSP/Components/vl53l1cb/modules/vl53l1_api_preset_modes.c **** 		VL53L1_TUNINGPARM_HIST_MERGE_MAX_SIZE_DEFAULT;
 591:Drivers/BSP/Components/vl53l1cb/modules/vl53l1_api_preset_modes.c **** 
ARM GAS  C:\Temp\ccoVwn9Y.s 			page 26


 592:Drivers/BSP/Components/vl53l1cb/modules/vl53l1_api_preset_modes.c **** 	pdata->tp_uwr_enable =
 841              		.loc 1 592 2 is_stmt 1 view .LVU363
 842              		.loc 1 592 23 is_stmt 0 view .LVU364
 843 00e6 83F88D40 		strb	r4, [r3, #141]
 593:Drivers/BSP/Components/vl53l1cb/modules/vl53l1_api_preset_modes.c **** 		VL53L1_TUNINGPARM_UWR_ENABLE_DEFAULT;
 594:Drivers/BSP/Components/vl53l1cb/modules/vl53l1_api_preset_modes.c **** 	pdata->tp_uwr_med_z_1_min =
 844              		.loc 1 594 2 is_stmt 1 view .LVU365
 845              		.loc 1 594 28 is_stmt 0 view .LVU366
 846 00ea A3F88E10 		strh	r1, [r3, #142]	@ movhi
 595:Drivers/BSP/Components/vl53l1cb/modules/vl53l1_api_preset_modes.c **** 		VL53L1_TUNINGPARM_UWR_MEDIUM_ZONE_1_MIN_DEFAULT;
 596:Drivers/BSP/Components/vl53l1cb/modules/vl53l1_api_preset_modes.c **** 	pdata->tp_uwr_med_z_1_max =
 847              		.loc 1 596 2 is_stmt 1 view .LVU367
 848              		.loc 1 596 28 is_stmt 0 view .LVU368
 849 00ee 40F6BE22 		movw	r2, #2750
 850 00f2 A3F89020 		strh	r2, [r3, #144]	@ movhi
 597:Drivers/BSP/Components/vl53l1cb/modules/vl53l1_api_preset_modes.c **** 		VL53L1_TUNINGPARM_UWR_MEDIUM_ZONE_1_MAX_DEFAULT;
 598:Drivers/BSP/Components/vl53l1cb/modules/vl53l1_api_preset_modes.c **** 	pdata->tp_uwr_med_z_2_min =
 851              		.loc 1 598 2 is_stmt 1 view .LVU369
 852              		.loc 1 598 28 is_stmt 0 view .LVU370
 853 00f6 FA24     		movs	r4, #250
 854 00f8 A3F89240 		strh	r4, [r3, #146]	@ movhi
 599:Drivers/BSP/Components/vl53l1cb/modules/vl53l1_api_preset_modes.c **** 		VL53L1_TUNINGPARM_UWR_MEDIUM_ZONE_2_MIN_DEFAULT;
 600:Drivers/BSP/Components/vl53l1cb/modules/vl53l1_api_preset_modes.c **** 	pdata->tp_uwr_med_z_2_max =
 855              		.loc 1 600 2 is_stmt 1 view .LVU371
 856              		.loc 1 600 28 is_stmt 0 view .LVU372
 857 00fc A3F89450 		strh	r5, [r3, #148]	@ movhi
 601:Drivers/BSP/Components/vl53l1cb/modules/vl53l1_api_preset_modes.c **** 		VL53L1_TUNINGPARM_UWR_MEDIUM_ZONE_2_MAX_DEFAULT;
 602:Drivers/BSP/Components/vl53l1cb/modules/vl53l1_api_preset_modes.c **** 	pdata->tp_uwr_med_z_3_min =
 858              		.loc 1 602 2 is_stmt 1 view .LVU373
 859              		.loc 1 602 28 is_stmt 0 view .LVU374
 860 0100 40F2E241 		movw	r1, #1250
 861 0104 A3F89610 		strh	r1, [r3, #150]	@ movhi
 603:Drivers/BSP/Components/vl53l1cb/modules/vl53l1_api_preset_modes.c **** 		VL53L1_TUNINGPARM_UWR_MEDIUM_ZONE_3_MIN_DEFAULT;
 604:Drivers/BSP/Components/vl53l1cb/modules/vl53l1_api_preset_modes.c **** 	pdata->tp_uwr_med_z_3_max =
 862              		.loc 1 604 2 is_stmt 1 view .LVU375
 863              		.loc 1 604 28 is_stmt 0 view .LVU376
 864 0108 40F2D662 		movw	r2, #1750
 865 010c A3F89820 		strh	r2, [r3, #152]	@ movhi
 605:Drivers/BSP/Components/vl53l1cb/modules/vl53l1_api_preset_modes.c **** 		VL53L1_TUNINGPARM_UWR_MEDIUM_ZONE_3_MAX_DEFAULT;
 606:Drivers/BSP/Components/vl53l1cb/modules/vl53l1_api_preset_modes.c **** 	pdata->tp_uwr_med_z_4_min =
 866              		.loc 1 606 2 is_stmt 1 view .LVU377
 867              		.loc 1 606 28 is_stmt 0 view .LVU378
 868 0110 A3F89A10 		strh	r1, [r3, #154]	@ movhi
 607:Drivers/BSP/Components/vl53l1cb/modules/vl53l1_api_preset_modes.c **** 		VL53L1_TUNINGPARM_UWR_MEDIUM_ZONE_4_MIN_DEFAULT;
 608:Drivers/BSP/Components/vl53l1cb/modules/vl53l1_api_preset_modes.c **** 	pdata->tp_uwr_med_z_4_max =
 869              		.loc 1 608 2 is_stmt 1 view .LVU379
 870              		.loc 1 608 28 is_stmt 0 view .LVU380
 871 0114 A3F89C20 		strh	r2, [r3, #156]	@ movhi
 609:Drivers/BSP/Components/vl53l1cb/modules/vl53l1_api_preset_modes.c **** 		VL53L1_TUNINGPARM_UWR_MEDIUM_ZONE_4_MAX_DEFAULT;
 610:Drivers/BSP/Components/vl53l1cb/modules/vl53l1_api_preset_modes.c **** 	pdata->tp_uwr_med_z_5_min =
 872              		.loc 1 610 2 is_stmt 1 view .LVU381
 873              		.loc 1 610 28 is_stmt 0 view .LVU382
 874 0118 4FF6387C 		movw	ip, #65336
 875 011c A3F89EC0 		strh	ip, [r3, #158]	@ movhi
 611:Drivers/BSP/Components/vl53l1cb/modules/vl53l1_api_preset_modes.c **** 		VL53L1_TUNINGPARM_UWR_MEDIUM_ZONE_5_MIN_DEFAULT;
 612:Drivers/BSP/Components/vl53l1cb/modules/vl53l1_api_preset_modes.c **** 	pdata->tp_uwr_med_z_5_max =
 876              		.loc 1 612 2 is_stmt 1 view .LVU383
ARM GAS  C:\Temp\ccoVwn9Y.s 			page 27


 877              		.loc 1 612 28 is_stmt 0 view .LVU384
 878 0120 C825     		movs	r5, #200
 879 0122 A3F8A050 		strh	r5, [r3, #160]	@ movhi
 613:Drivers/BSP/Components/vl53l1cb/modules/vl53l1_api_preset_modes.c **** 		VL53L1_TUNINGPARM_UWR_MEDIUM_ZONE_5_MAX_DEFAULT;
 614:Drivers/BSP/Components/vl53l1cb/modules/vl53l1_api_preset_modes.c **** 	pdata->tp_uwr_med_z_6_min =
 880              		.loc 1 614 2 is_stmt 1 view .LVU385
 881              		.loc 1 614 28 is_stmt 0 view .LVU386
 882 0126 A3F8A240 		strh	r4, [r3, #162]	@ movhi
 615:Drivers/BSP/Components/vl53l1cb/modules/vl53l1_api_preset_modes.c **** 		VL53L1_TUNINGPARM_UWR_MEDIUM_ZONE_6_MIN_DEFAULT;
 616:Drivers/BSP/Components/vl53l1cb/modules/vl53l1_api_preset_modes.c **** 	pdata->tp_uwr_med_z_6_max =
 883              		.loc 1 616 2 is_stmt 1 view .LVU387
 884              		.loc 1 616 28 is_stmt 0 view .LVU388
 885 012a 40F27E42 		movw	r2, #1150
 886 012e A3F8A420 		strh	r2, [r3, #164]	@ movhi
 617:Drivers/BSP/Components/vl53l1cb/modules/vl53l1_api_preset_modes.c **** 		VL53L1_TUNINGPARM_UWR_MEDIUM_ZONE_6_MAX_DEFAULT;
 618:Drivers/BSP/Components/vl53l1cb/modules/vl53l1_api_preset_modes.c **** 	pdata->tp_uwr_med_corr_z_1_rangea =
 887              		.loc 1 618 2 is_stmt 1 view .LVU389
 888              		.loc 1 618 36 is_stmt 0 view .LVU390
 889 0132 40F60612 		movw	r2, #2310
 890 0136 A3F8A620 		strh	r2, [r3, #166]	@ movhi
 619:Drivers/BSP/Components/vl53l1cb/modules/vl53l1_api_preset_modes.c **** 		VL53L1_TUNINGPARM_UWR_MEDIUM_CORRECTION_ZONE_1_RANGEA_DEFAULT;
 620:Drivers/BSP/Components/vl53l1cb/modules/vl53l1_api_preset_modes.c **** 	pdata->tp_uwr_med_corr_z_1_rangeb =
 891              		.loc 1 620 2 is_stmt 1 view .LVU391
 892              		.loc 1 620 36 is_stmt 0 view .LVU392
 893 013a A3F8A800 		strh	r0, [r3, #168]	@ movhi
 621:Drivers/BSP/Components/vl53l1cb/modules/vl53l1_api_preset_modes.c **** 		VL53L1_TUNINGPARM_UWR_MEDIUM_CORRECTION_ZONE_1_RANGEB_DEFAULT;
 622:Drivers/BSP/Components/vl53l1cb/modules/vl53l1_api_preset_modes.c **** 	pdata->tp_uwr_med_corr_z_2_rangea =
 894              		.loc 1 622 2 is_stmt 1 view .LVU393
 895              		.loc 1 622 36 is_stmt 0 view .LVU394
 896 013e A3F8AA20 		strh	r2, [r3, #170]	@ movhi
 623:Drivers/BSP/Components/vl53l1cb/modules/vl53l1_api_preset_modes.c **** 		VL53L1_TUNINGPARM_UWR_MEDIUM_CORRECTION_ZONE_2_RANGEA_DEFAULT;
 624:Drivers/BSP/Components/vl53l1cb/modules/vl53l1_api_preset_modes.c **** 	pdata->tp_uwr_med_corr_z_2_rangeb =
 897              		.loc 1 624 2 is_stmt 1 view .LVU395
 898              		.loc 1 624 36 is_stmt 0 view .LVU396
 899 0142 40F61C4E 		movw	lr, #3100
 900 0146 A3F8ACE0 		strh	lr, [r3, #172]	@ movhi
 625:Drivers/BSP/Components/vl53l1cb/modules/vl53l1_api_preset_modes.c **** 		VL53L1_TUNINGPARM_UWR_MEDIUM_CORRECTION_ZONE_2_RANGEB_DEFAULT;
 626:Drivers/BSP/Components/vl53l1cb/modules/vl53l1_api_preset_modes.c **** 	pdata->tp_uwr_med_corr_z_3_rangea =
 901              		.loc 1 626 2 is_stmt 1 view .LVU397
 902              		.loc 1 626 36 is_stmt 0 view .LVU398
 903 014a 4FF49152 		mov	r2, #4640
 904 014e A3F8AE20 		strh	r2, [r3, #174]	@ movhi
 627:Drivers/BSP/Components/vl53l1cb/modules/vl53l1_api_preset_modes.c **** 		VL53L1_TUNINGPARM_UWR_MEDIUM_CORRECTION_ZONE_3_RANGEA_DEFAULT;
 628:Drivers/BSP/Components/vl53l1cb/modules/vl53l1_api_preset_modes.c **** 	pdata->tp_uwr_med_corr_z_3_rangeb =
 905              		.loc 1 628 2 is_stmt 1 view .LVU399
 906              		.loc 1 628 36 is_stmt 0 view .LVU400
 907 0152 A3F8B0E0 		strh	lr, [r3, #176]	@ movhi
 629:Drivers/BSP/Components/vl53l1cb/modules/vl53l1_api_preset_modes.c **** 		VL53L1_TUNINGPARM_UWR_MEDIUM_CORRECTION_ZONE_3_RANGEB_DEFAULT;
 630:Drivers/BSP/Components/vl53l1cb/modules/vl53l1_api_preset_modes.c **** 	pdata->tp_uwr_med_corr_z_4_rangea =
 908              		.loc 1 630 2 is_stmt 1 view .LVU401
 909              		.loc 1 630 36 is_stmt 0 view .LVU402
 910 0156 A3F8B220 		strh	r2, [r3, #178]	@ movhi
 631:Drivers/BSP/Components/vl53l1cb/modules/vl53l1_api_preset_modes.c **** 		VL53L1_TUNINGPARM_UWR_MEDIUM_CORRECTION_ZONE_4_RANGEA_DEFAULT;
 632:Drivers/BSP/Components/vl53l1cb/modules/vl53l1_api_preset_modes.c **** 	pdata->tp_uwr_med_corr_z_4_rangeb =
 911              		.loc 1 632 2 is_stmt 1 view .LVU403
 912              		.loc 1 632 36 is_stmt 0 view .LVU404
 913 015a 41F62E0E 		movw	lr, #6190
ARM GAS  C:\Temp\ccoVwn9Y.s 			page 28


 914 015e A3F8B4E0 		strh	lr, [r3, #180]	@ movhi
 633:Drivers/BSP/Components/vl53l1cb/modules/vl53l1_api_preset_modes.c **** 		VL53L1_TUNINGPARM_UWR_MEDIUM_CORRECTION_ZONE_4_RANGEB_DEFAULT;
 634:Drivers/BSP/Components/vl53l1cb/modules/vl53l1_api_preset_modes.c **** 	pdata->tp_uwr_med_corr_z_5_rangea =
 915              		.loc 1 634 2 is_stmt 1 view .LVU405
 916              		.loc 1 634 36 is_stmt 0 view .LVU406
 917 0162 A3F8B600 		strh	r0, [r3, #182]	@ movhi
 635:Drivers/BSP/Components/vl53l1cb/modules/vl53l1_api_preset_modes.c **** 		VL53L1_TUNINGPARM_UWR_MEDIUM_CORRECTION_ZONE_5_RANGEA_DEFAULT;
 636:Drivers/BSP/Components/vl53l1cb/modules/vl53l1_api_preset_modes.c **** 	pdata->tp_uwr_med_corr_z_5_rangeb =
 918              		.loc 1 636 2 is_stmt 1 view .LVU407
 919              		.loc 1 636 36 is_stmt 0 view .LVU408
 920 0166 A3F8B800 		strh	r0, [r3, #184]	@ movhi
 637:Drivers/BSP/Components/vl53l1cb/modules/vl53l1_api_preset_modes.c **** 		VL53L1_TUNINGPARM_UWR_MEDIUM_CORRECTION_ZONE_5_RANGEB_DEFAULT;
 638:Drivers/BSP/Components/vl53l1cb/modules/vl53l1_api_preset_modes.c **** 	pdata->tp_uwr_med_corr_z_6_rangea =
 921              		.loc 1 638 2 is_stmt 1 view .LVU409
 922              		.loc 1 638 36 is_stmt 0 view .LVU410
 923 016a 41F63037 		movw	r7, #6960
 924 016e A3F8BA70 		strh	r7, [r3, #186]	@ movhi
 639:Drivers/BSP/Components/vl53l1cb/modules/vl53l1_api_preset_modes.c **** 		VL53L1_TUNINGPARM_UWR_MEDIUM_CORRECTION_ZONE_6_RANGEA_DEFAULT;
 640:Drivers/BSP/Components/vl53l1cb/modules/vl53l1_api_preset_modes.c **** 	pdata->tp_uwr_med_corr_z_6_rangeb =
 925              		.loc 1 640 2 is_stmt 1 view .LVU411
 926              		.loc 1 640 36 is_stmt 0 view .LVU412
 927 0172 A3F8BCE0 		strh	lr, [r3, #188]	@ movhi
 641:Drivers/BSP/Components/vl53l1cb/modules/vl53l1_api_preset_modes.c **** 		VL53L1_TUNINGPARM_UWR_MEDIUM_CORRECTION_ZONE_6_RANGEB_DEFAULT;
 642:Drivers/BSP/Components/vl53l1cb/modules/vl53l1_api_preset_modes.c **** 	pdata->tp_uwr_lng_z_1_min =
 928              		.loc 1 642 2 is_stmt 1 view .LVU413
 929              		.loc 1 642 28 is_stmt 0 view .LVU414
 930 0176 A3F8BE40 		strh	r4, [r3, #190]	@ movhi
 643:Drivers/BSP/Components/vl53l1cb/modules/vl53l1_api_preset_modes.c **** 		VL53L1_TUNINGPARM_UWR_LONG_ZONE_1_MIN_DEFAULT;
 644:Drivers/BSP/Components/vl53l1cb/modules/vl53l1_api_preset_modes.c **** 	pdata->tp_uwr_lng_z_1_max =
 931              		.loc 1 644 2 is_stmt 1 view .LVU415
 932              		.loc 1 644 28 is_stmt 0 view .LVU416
 933 017a A3F8C010 		strh	r1, [r3, #192]	@ movhi
 645:Drivers/BSP/Components/vl53l1cb/modules/vl53l1_api_preset_modes.c **** 		VL53L1_TUNINGPARM_UWR_LONG_ZONE_1_MAX_DEFAULT;
 646:Drivers/BSP/Components/vl53l1cb/modules/vl53l1_api_preset_modes.c **** 	pdata->tp_uwr_lng_z_2_min =
 934              		.loc 1 646 2 is_stmt 1 view .LVU417
 935              		.loc 1 646 28 is_stmt 0 view .LVU418
 936 017e 40F6AC51 		movw	r1, #3500
 937 0182 A3F8C210 		strh	r1, [r3, #194]	@ movhi
 647:Drivers/BSP/Components/vl53l1cb/modules/vl53l1_api_preset_modes.c **** 		VL53L1_TUNINGPARM_UWR_LONG_ZONE_2_MIN_DEFAULT;
 648:Drivers/BSP/Components/vl53l1cb/modules/vl53l1_api_preset_modes.c **** 	pdata->tp_uwr_lng_z_2_max =
 938              		.loc 1 648 2 is_stmt 1 view .LVU419
 939              		.loc 1 648 28 is_stmt 0 view .LVU420
 940 0186 41F29411 		movw	r1, #4500
 941 018a A3F8C410 		strh	r1, [r3, #196]	@ movhi
 649:Drivers/BSP/Components/vl53l1cb/modules/vl53l1_api_preset_modes.c **** 		VL53L1_TUNINGPARM_UWR_LONG_ZONE_2_MAX_DEFAULT;
 650:Drivers/BSP/Components/vl53l1cb/modules/vl53l1_api_preset_modes.c **** 	pdata->tp_uwr_lng_z_3_min =
 942              		.loc 1 650 2 is_stmt 1 view .LVU421
 943              		.loc 1 650 28 is_stmt 0 view .LVU422
 944 018e A3F8C6C0 		strh	ip, [r3, #198]	@ movhi
 651:Drivers/BSP/Components/vl53l1cb/modules/vl53l1_api_preset_modes.c **** 		VL53L1_TUNINGPARM_UWR_LONG_ZONE_3_MIN_DEFAULT;
 652:Drivers/BSP/Components/vl53l1cb/modules/vl53l1_api_preset_modes.c **** 	pdata->tp_uwr_lng_z_3_max =
 945              		.loc 1 652 2 is_stmt 1 view .LVU423
 946              		.loc 1 652 28 is_stmt 0 view .LVU424
 947 0192 A3F8C850 		strh	r5, [r3, #200]	@ movhi
 653:Drivers/BSP/Components/vl53l1cb/modules/vl53l1_api_preset_modes.c **** 		VL53L1_TUNINGPARM_UWR_LONG_ZONE_3_MAX_DEFAULT;
 654:Drivers/BSP/Components/vl53l1cb/modules/vl53l1_api_preset_modes.c **** 	pdata->tp_uwr_lng_z_4_min =
 948              		.loc 1 654 2 is_stmt 1 view .LVU425
ARM GAS  C:\Temp\ccoVwn9Y.s 			page 29


 949              		.loc 1 654 28 is_stmt 0 view .LVU426
 950 0196 40F62231 		movw	r1, #2850
 951 019a A3F8CA10 		strh	r1, [r3, #202]	@ movhi
 655:Drivers/BSP/Components/vl53l1cb/modules/vl53l1_api_preset_modes.c **** 		VL53L1_TUNINGPARM_UWR_LONG_ZONE_4_MIN_DEFAULT;
 656:Drivers/BSP/Components/vl53l1cb/modules/vl53l1_api_preset_modes.c **** 	pdata->tp_uwr_lng_z_4_max =
 952              		.loc 1 656 2 is_stmt 1 view .LVU427
 953              		.loc 1 656 28 is_stmt 0 view .LVU428
 954 019e 40F6E441 		movw	r1, #3300
 955 01a2 A3F8CC10 		strh	r1, [r3, #204]	@ movhi
 657:Drivers/BSP/Components/vl53l1cb/modules/vl53l1_api_preset_modes.c **** 		VL53L1_TUNINGPARM_UWR_LONG_ZONE_4_MAX_DEFAULT;
 658:Drivers/BSP/Components/vl53l1cb/modules/vl53l1_api_preset_modes.c **** 	pdata->tp_uwr_lng_z_5_min =
 956              		.loc 1 658 2 is_stmt 1 view .LVU429
 957              		.loc 1 658 28 is_stmt 0 view .LVU430
 958 01a6 A3F8CE00 		strh	r0, [r3, #206]	@ movhi
 659:Drivers/BSP/Components/vl53l1cb/modules/vl53l1_api_preset_modes.c **** 		VL53L1_TUNINGPARM_UWR_LONG_ZONE_5_MIN_DEFAULT;
 660:Drivers/BSP/Components/vl53l1cb/modules/vl53l1_api_preset_modes.c **** 	pdata->tp_uwr_lng_z_5_max =
 959              		.loc 1 660 2 is_stmt 1 view .LVU431
 960              		.loc 1 660 28 is_stmt 0 view .LVU432
 961 01aa A3F8D000 		strh	r0, [r3, #208]	@ movhi
 661:Drivers/BSP/Components/vl53l1cb/modules/vl53l1_api_preset_modes.c **** 		VL53L1_TUNINGPARM_UWR_LONG_ZONE_5_MAX_DEFAULT;
 662:Drivers/BSP/Components/vl53l1cb/modules/vl53l1_api_preset_modes.c **** 	pdata->tp_uwr_lng_corr_z_1_rangea =
 962              		.loc 1 662 2 is_stmt 1 view .LVU433
 963              		.loc 1 662 36 is_stmt 0 view .LVU434
 964 01ae 40F61E71 		movw	r1, #3870
 965 01b2 A3F8D210 		strh	r1, [r3, #210]	@ movhi
 663:Drivers/BSP/Components/vl53l1cb/modules/vl53l1_api_preset_modes.c **** 		VL53L1_TUNINGPARM_UWR_LONG_CORRECTION_ZONE_1_RANGEA_DEFAULT;
 664:Drivers/BSP/Components/vl53l1cb/modules/vl53l1_api_preset_modes.c **** 	pdata->tp_uwr_lng_corr_z_1_rangeb =
 966              		.loc 1 664 2 is_stmt 1 view .LVU435
 967              		.loc 1 664 36 is_stmt 0 view .LVU436
 968 01b6 41F22A21 		movw	r1, #4650
 969 01ba A3F8D410 		strh	r1, [r3, #212]	@ movhi
 665:Drivers/BSP/Components/vl53l1cb/modules/vl53l1_api_preset_modes.c **** 		VL53L1_TUNINGPARM_UWR_LONG_CORRECTION_ZONE_1_RANGEB_DEFAULT;
 666:Drivers/BSP/Components/vl53l1cb/modules/vl53l1_api_preset_modes.c **** 	pdata->tp_uwr_lng_corr_z_2_rangea =
 970              		.loc 1 666 2 is_stmt 1 view .LVU437
 971              		.loc 1 666 36 is_stmt 0 view .LVU438
 972 01be 40F60A71 		movw	r1, #3850
 973 01c2 A3F8D610 		strh	r1, [r3, #214]	@ movhi
 667:Drivers/BSP/Components/vl53l1cb/modules/vl53l1_api_preset_modes.c **** 		VL53L1_TUNINGPARM_UWR_LONG_CORRECTION_ZONE_2_RANGEA_DEFAULT;
 668:Drivers/BSP/Components/vl53l1cb/modules/vl53l1_api_preset_modes.c **** 	pdata->tp_uwr_lng_corr_z_2_rangeb =
 974              		.loc 1 668 2 is_stmt 1 view .LVU439
 975              		.loc 1 668 36 is_stmt 0 view .LVU440
 976 01c6 A3F8D800 		strh	r0, [r3, #216]	@ movhi
 669:Drivers/BSP/Components/vl53l1cb/modules/vl53l1_api_preset_modes.c **** 		VL53L1_TUNINGPARM_UWR_LONG_CORRECTION_ZONE_2_RANGEB_DEFAULT;
 670:Drivers/BSP/Components/vl53l1cb/modules/vl53l1_api_preset_modes.c **** 	pdata->tp_uwr_lng_corr_z_3_rangea =
 977              		.loc 1 670 2 is_stmt 1 view .LVU441
 978              		.loc 1 670 36 is_stmt 0 view .LVU442
 979 01ca A3F8DA00 		strh	r0, [r3, #218]	@ movhi
 671:Drivers/BSP/Components/vl53l1cb/modules/vl53l1_api_preset_modes.c **** 		VL53L1_TUNINGPARM_UWR_LONG_CORRECTION_ZONE_3_RANGEA_DEFAULT;
 672:Drivers/BSP/Components/vl53l1cb/modules/vl53l1_api_preset_modes.c **** 	pdata->tp_uwr_lng_corr_z_3_rangeb =
 980              		.loc 1 672 2 is_stmt 1 view .LVU443
 981              		.loc 1 672 36 is_stmt 0 view .LVU444
 982 01ce A3F8DC00 		strh	r0, [r3, #220]	@ movhi
 673:Drivers/BSP/Components/vl53l1cb/modules/vl53l1_api_preset_modes.c **** 		VL53L1_TUNINGPARM_UWR_LONG_CORRECTION_ZONE_3_RANGEB_DEFAULT;
 674:Drivers/BSP/Components/vl53l1cb/modules/vl53l1_api_preset_modes.c **** 	pdata->tp_uwr_lng_corr_z_4_rangea =
 983              		.loc 1 674 2 is_stmt 1 view .LVU445
 984              		.loc 1 674 36 is_stmt 0 view .LVU446
 985 01d2 41F61461 		movw	r1, #7700
ARM GAS  C:\Temp\ccoVwn9Y.s 			page 30


 986 01d6 A3F8DE10 		strh	r1, [r3, #222]	@ movhi
 675:Drivers/BSP/Components/vl53l1cb/modules/vl53l1_api_preset_modes.c **** 		VL53L1_TUNINGPARM_UWR_LONG_CORRECTION_ZONE_4_RANGEA_DEFAULT;
 676:Drivers/BSP/Components/vl53l1cb/modules/vl53l1_api_preset_modes.c **** 	pdata->tp_uwr_lng_corr_z_4_rangeb =
 987              		.loc 1 676 2 is_stmt 1 view .LVU447
 988              		.loc 1 676 36 is_stmt 0 view .LVU448
 989 01da A3F8E020 		strh	r2, [r3, #224]	@ movhi
 677:Drivers/BSP/Components/vl53l1cb/modules/vl53l1_api_preset_modes.c **** 		VL53L1_TUNINGPARM_UWR_LONG_CORRECTION_ZONE_4_RANGEB_DEFAULT;
 678:Drivers/BSP/Components/vl53l1cb/modules/vl53l1_api_preset_modes.c **** 	pdata->tp_uwr_lng_corr_z_5_rangea =
 990              		.loc 1 678 2 is_stmt 1 view .LVU449
 991              		.loc 1 678 36 is_stmt 0 view .LVU450
 992 01de A3F8E200 		strh	r0, [r3, #226]	@ movhi
 679:Drivers/BSP/Components/vl53l1cb/modules/vl53l1_api_preset_modes.c **** 		VL53L1_TUNINGPARM_UWR_LONG_CORRECTION_ZONE_5_RANGEA_DEFAULT;
 680:Drivers/BSP/Components/vl53l1cb/modules/vl53l1_api_preset_modes.c **** 	pdata->tp_uwr_lng_corr_z_5_rangeb =
 993              		.loc 1 680 2 is_stmt 1 view .LVU451
 994              		.loc 1 680 36 is_stmt 0 view .LVU452
 995 01e2 A3F8E400 		strh	r0, [r3, #228]	@ movhi
 681:Drivers/BSP/Components/vl53l1cb/modules/vl53l1_api_preset_modes.c **** 		VL53L1_TUNINGPARM_UWR_LONG_CORRECTION_ZONE_5_RANGEB_DEFAULT;
 682:Drivers/BSP/Components/vl53l1cb/modules/vl53l1_api_preset_modes.c **** 	pdata->tp_min_signal_secondary_targets =
 996              		.loc 1 682 2 is_stmt 1 view .LVU453
 997              		.loc 1 682 41 is_stmt 0 view .LVU454
 998 01e6 41F68812 		movw	r2, #6536
 999 01ea C3F8E820 		str	r2, [r3, #232]
 683:Drivers/BSP/Components/vl53l1cb/modules/vl53l1_api_preset_modes.c **** 		VL53L1_TUNINGPARM_MIN_SIGNAL_SECONDARY_TARGETS_DEFAULT;
 684:Drivers/BSP/Components/vl53l1cb/modules/vl53l1_api_preset_modes.c **** 	pdata->tp_dss_max_total_rate_per_spad_mcps =
 1000              		.loc 1 684 2 is_stmt 1 view .LVU455
 1001              		.loc 1 684 45 is_stmt 0 view .LVU456
 1002 01ee A3F8EC60 		strh	r6, [r3, #236]	@ movhi
 685:Drivers/BSP/Components/vl53l1cb/modules/vl53l1_api_preset_modes.c **** 		VL53L1_TUNINGPARM_MAX_TOTAL_RATE_PER_SPAD_DEFAULT;
 686:Drivers/BSP/Components/vl53l1cb/modules/vl53l1_api_preset_modes.c **** 	pdata->tp_dss_rec_total_rate_per_spad_mcps =
 1003              		.loc 1 686 2 is_stmt 1 view .LVU457
 1004              		.loc 1 686 45 is_stmt 0 view .LVU458
 1005 01f2 41F28832 		movw	r2, #5000
 1006 01f6 A3F8EE20 		strh	r2, [r3, #238]	@ movhi
 687:Drivers/BSP/Components/vl53l1cb/modules/vl53l1_api_preset_modes.c **** 		VL53L1_TUNINGPARM_RECOVER_TOTAL_RATE_PER_SPAD_DEFAULT;
 688:Drivers/BSP/Components/vl53l1cb/modules/vl53l1_api_preset_modes.c **** 	LOG_FUNCTION_END(status);
 1007              		.loc 1 688 26 is_stmt 1 view .LVU459
 689:Drivers/BSP/Components/vl53l1cb/modules/vl53l1_api_preset_modes.c **** 
 690:Drivers/BSP/Components/vl53l1cb/modules/vl53l1_api_preset_modes.c **** 	return status;
 1008              		.loc 1 690 2 view .LVU460
 691:Drivers/BSP/Components/vl53l1cb/modules/vl53l1_api_preset_modes.c **** }
 1009              		.loc 1 691 1 is_stmt 0 view .LVU461
 1010 01fa F0BD     		pop	{r4, r5, r6, r7, pc}
 1011              		.cfi_endproc
 1012              	.LFE11:
 1014              		.section	.text.VL53L1_init_hist_gen3_dmax_config_struct,"ax",%progbits
 1015              		.align	1
 1016              		.global	VL53L1_init_hist_gen3_dmax_config_struct
 1017              		.syntax unified
 1018              		.thumb
 1019              		.thumb_func
 1021              	VL53L1_init_hist_gen3_dmax_config_struct:
 1022              	.LVL26:
 1023              	.LFB12:
 692:Drivers/BSP/Components/vl53l1cb/modules/vl53l1_api_preset_modes.c **** 
 693:Drivers/BSP/Components/vl53l1cb/modules/vl53l1_api_preset_modes.c **** 
 694:Drivers/BSP/Components/vl53l1cb/modules/vl53l1_api_preset_modes.c **** VL53L1_Error VL53L1_init_hist_gen3_dmax_config_struct(
 695:Drivers/BSP/Components/vl53l1cb/modules/vl53l1_api_preset_modes.c **** 	VL53L1_hist_gen3_dmax_config_t   *pdata)
ARM GAS  C:\Temp\ccoVwn9Y.s 			page 31


 696:Drivers/BSP/Components/vl53l1cb/modules/vl53l1_api_preset_modes.c **** {
 1024              		.loc 1 696 1 is_stmt 1 view -0
 1025              		.cfi_startproc
 1026              		@ args = 0, pretend = 0, frame = 0
 1027              		@ frame_needed = 0, uses_anonymous_args = 0
 1028              		@ link register save eliminated.
 697:Drivers/BSP/Components/vl53l1cb/modules/vl53l1_api_preset_modes.c **** 
 698:Drivers/BSP/Components/vl53l1cb/modules/vl53l1_api_preset_modes.c **** 
 699:Drivers/BSP/Components/vl53l1cb/modules/vl53l1_api_preset_modes.c **** 	VL53L1_Error  status = VL53L1_ERROR_NONE;
 1029              		.loc 1 699 2 view .LVU463
 700:Drivers/BSP/Components/vl53l1cb/modules/vl53l1_api_preset_modes.c **** 
 701:Drivers/BSP/Components/vl53l1cb/modules/vl53l1_api_preset_modes.c **** 	LOG_FUNCTION_START("");
 1030              		.loc 1 701 24 view .LVU464
 702:Drivers/BSP/Components/vl53l1cb/modules/vl53l1_api_preset_modes.c **** 
 703:Drivers/BSP/Components/vl53l1cb/modules/vl53l1_api_preset_modes.c **** 
 704:Drivers/BSP/Components/vl53l1cb/modules/vl53l1_api_preset_modes.c **** 	pdata->dss_config__target_total_rate_mcps = 0x1400;
 1031              		.loc 1 704 2 view .LVU465
 1032              		.loc 1 704 44 is_stmt 0 view .LVU466
 1033 0000 4FF4A053 		mov	r3, #5120
 1034 0004 0383     		strh	r3, [r0, #24]	@ movhi
 705:Drivers/BSP/Components/vl53l1cb/modules/vl53l1_api_preset_modes.c **** 	pdata->dss_config__aperture_attenuation = 0x38;
 1035              		.loc 1 705 2 is_stmt 1 view .LVU467
 1036              		.loc 1 705 42 is_stmt 0 view .LVU468
 1037 0006 3823     		movs	r3, #56
 1038 0008 8376     		strb	r3, [r0, #26]
 706:Drivers/BSP/Components/vl53l1cb/modules/vl53l1_api_preset_modes.c **** 
 707:Drivers/BSP/Components/vl53l1cb/modules/vl53l1_api_preset_modes.c **** 	pdata->signal_thresh_sigma                 =
 1039              		.loc 1 707 2 is_stmt 1 view .LVU469
 1040              		.loc 1 707 45 is_stmt 0 view .LVU470
 1041 000a 2023     		movs	r3, #32
 1042 000c 0370     		strb	r3, [r0]
 708:Drivers/BSP/Components/vl53l1cb/modules/vl53l1_api_preset_modes.c **** 			VL53L1_TUNINGPARM_DMAX_CFG_SIGNAL_THRESH_SIGMA_DEFAULT;
 709:Drivers/BSP/Components/vl53l1cb/modules/vl53l1_api_preset_modes.c **** 	pdata->ambient_thresh_sigma = 0x70;
 1043              		.loc 1 709 2 is_stmt 1 view .LVU471
 1044              		.loc 1 709 30 is_stmt 0 view .LVU472
 1045 000e 7023     		movs	r3, #112
 1046 0010 4370     		strb	r3, [r0, #1]
 710:Drivers/BSP/Components/vl53l1cb/modules/vl53l1_api_preset_modes.c **** 	pdata->min_ambient_thresh_events           = 16;
 1047              		.loc 1 710 2 is_stmt 1 view .LVU473
 1048              		.loc 1 710 45 is_stmt 0 view .LVU474
 1049 0012 1023     		movs	r3, #16
 1050 0014 4360     		str	r3, [r0, #4]
 711:Drivers/BSP/Components/vl53l1cb/modules/vl53l1_api_preset_modes.c **** 	pdata->signal_total_events_limit           = 100;
 1051              		.loc 1 711 2 is_stmt 1 view .LVU475
 1052              		.loc 1 711 45 is_stmt 0 view .LVU476
 1053 0016 6423     		movs	r3, #100
 1054 0018 8360     		str	r3, [r0, #8]
 712:Drivers/BSP/Components/vl53l1cb/modules/vl53l1_api_preset_modes.c **** 	pdata->max_effective_spads = 0xFFFF;
 1055              		.loc 1 712 2 is_stmt 1 view .LVU477
 1056              		.loc 1 712 29 is_stmt 0 view .LVU478
 1057 001a 4FF6FF73 		movw	r3, #65535
 1058 001e C382     		strh	r3, [r0, #22]	@ movhi
 713:Drivers/BSP/Components/vl53l1cb/modules/vl53l1_api_preset_modes.c **** 
 714:Drivers/BSP/Components/vl53l1cb/modules/vl53l1_api_preset_modes.c **** 
 715:Drivers/BSP/Components/vl53l1cb/modules/vl53l1_api_preset_modes.c **** 
 716:Drivers/BSP/Components/vl53l1cb/modules/vl53l1_api_preset_modes.c **** 	pdata->target_reflectance_for_dmax_calc[0] =
 1059              		.loc 1 716 2 is_stmt 1 view .LVU479
ARM GAS  C:\Temp\ccoVwn9Y.s 			page 32


 1060              		.loc 1 716 45 is_stmt 0 view .LVU480
 1061 0020 0F23     		movs	r3, #15
 1062 0022 8381     		strh	r3, [r0, #12]	@ movhi
 717:Drivers/BSP/Components/vl53l1cb/modules/vl53l1_api_preset_modes.c **** 			VL53L1_TUNINGPARM_DMAX_CFG_REFLECTANCE_ARRAY_0_DEFAULT;
 718:Drivers/BSP/Components/vl53l1cb/modules/vl53l1_api_preset_modes.c **** 	pdata->target_reflectance_for_dmax_calc[1] =
 1063              		.loc 1 718 2 is_stmt 1 view .LVU481
 1064              		.loc 1 718 45 is_stmt 0 view .LVU482
 1065 0024 3423     		movs	r3, #52
 1066 0026 C381     		strh	r3, [r0, #14]	@ movhi
 719:Drivers/BSP/Components/vl53l1cb/modules/vl53l1_api_preset_modes.c **** 			VL53L1_TUNINGPARM_DMAX_CFG_REFLECTANCE_ARRAY_1_DEFAULT;
 720:Drivers/BSP/Components/vl53l1cb/modules/vl53l1_api_preset_modes.c **** 	pdata->target_reflectance_for_dmax_calc[2] =
 1067              		.loc 1 720 2 is_stmt 1 view .LVU483
 1068              		.loc 1 720 45 is_stmt 0 view .LVU484
 1069 0028 C823     		movs	r3, #200
 1070 002a 0382     		strh	r3, [r0, #16]	@ movhi
 721:Drivers/BSP/Components/vl53l1cb/modules/vl53l1_api_preset_modes.c **** 			VL53L1_TUNINGPARM_DMAX_CFG_REFLECTANCE_ARRAY_2_DEFAULT;
 722:Drivers/BSP/Components/vl53l1cb/modules/vl53l1_api_preset_modes.c **** 	pdata->target_reflectance_for_dmax_calc[3] =
 1071              		.loc 1 722 2 is_stmt 1 view .LVU485
 1072              		.loc 1 722 45 is_stmt 0 view .LVU486
 1073 002c 4FF4B673 		mov	r3, #364
 1074 0030 4382     		strh	r3, [r0, #18]	@ movhi
 723:Drivers/BSP/Components/vl53l1cb/modules/vl53l1_api_preset_modes.c **** 			VL53L1_TUNINGPARM_DMAX_CFG_REFLECTANCE_ARRAY_3_DEFAULT;
 724:Drivers/BSP/Components/vl53l1cb/modules/vl53l1_api_preset_modes.c **** 	pdata->target_reflectance_for_dmax_calc[4] =
 1075              		.loc 1 724 2 is_stmt 1 view .LVU487
 1076              		.loc 1 724 45 is_stmt 0 view .LVU488
 1077 0032 4FF4C873 		mov	r3, #400
 1078 0036 8382     		strh	r3, [r0, #20]	@ movhi
 725:Drivers/BSP/Components/vl53l1cb/modules/vl53l1_api_preset_modes.c **** 			VL53L1_TUNINGPARM_DMAX_CFG_REFLECTANCE_ARRAY_4_DEFAULT;
 726:Drivers/BSP/Components/vl53l1cb/modules/vl53l1_api_preset_modes.c **** 
 727:Drivers/BSP/Components/vl53l1cb/modules/vl53l1_api_preset_modes.c **** 	LOG_FUNCTION_END(status);
 1079              		.loc 1 727 26 is_stmt 1 view .LVU489
 728:Drivers/BSP/Components/vl53l1cb/modules/vl53l1_api_preset_modes.c **** 
 729:Drivers/BSP/Components/vl53l1cb/modules/vl53l1_api_preset_modes.c **** 	return status;
 1080              		.loc 1 729 2 view .LVU490
 730:Drivers/BSP/Components/vl53l1cb/modules/vl53l1_api_preset_modes.c **** }
 1081              		.loc 1 730 1 is_stmt 0 view .LVU491
 1082 0038 0020     		movs	r0, #0
 1083              	.LVL27:
 1084              		.loc 1 730 1 view .LVU492
 1085 003a 7047     		bx	lr
 1086              		.cfi_endproc
 1087              	.LFE12:
 1089              		.section	.text.VL53L1_preset_mode_standard_ranging,"ax",%progbits
 1090              		.align	1
 1091              		.global	VL53L1_preset_mode_standard_ranging
 1092              		.syntax unified
 1093              		.thumb
 1094              		.thumb_func
 1096              	VL53L1_preset_mode_standard_ranging:
 1097              	.LVL28:
 1098              	.LFB13:
 731:Drivers/BSP/Components/vl53l1cb/modules/vl53l1_api_preset_modes.c **** 
 732:Drivers/BSP/Components/vl53l1cb/modules/vl53l1_api_preset_modes.c **** 
 733:Drivers/BSP/Components/vl53l1cb/modules/vl53l1_api_preset_modes.c **** VL53L1_Error VL53L1_preset_mode_standard_ranging(
 734:Drivers/BSP/Components/vl53l1cb/modules/vl53l1_api_preset_modes.c **** 	VL53L1_static_config_t    *pstatic,
 735:Drivers/BSP/Components/vl53l1cb/modules/vl53l1_api_preset_modes.c **** 	VL53L1_histogram_config_t *phistogram,
 736:Drivers/BSP/Components/vl53l1cb/modules/vl53l1_api_preset_modes.c **** 	VL53L1_general_config_t   *pgeneral,
ARM GAS  C:\Temp\ccoVwn9Y.s 			page 33


 737:Drivers/BSP/Components/vl53l1cb/modules/vl53l1_api_preset_modes.c **** 	VL53L1_timing_config_t    *ptiming,
 738:Drivers/BSP/Components/vl53l1cb/modules/vl53l1_api_preset_modes.c **** 	VL53L1_dynamic_config_t   *pdynamic,
 739:Drivers/BSP/Components/vl53l1cb/modules/vl53l1_api_preset_modes.c **** 	VL53L1_system_control_t   *psystem,
 740:Drivers/BSP/Components/vl53l1cb/modules/vl53l1_api_preset_modes.c **** 	VL53L1_tuning_parm_storage_t *ptuning_parms,
 741:Drivers/BSP/Components/vl53l1cb/modules/vl53l1_api_preset_modes.c **** 	VL53L1_zone_config_t      *pzone_cfg)
 742:Drivers/BSP/Components/vl53l1cb/modules/vl53l1_api_preset_modes.c **** {
 1099              		.loc 1 742 1 is_stmt 1 view -0
 1100              		.cfi_startproc
 1101              		@ args = 16, pretend = 0, frame = 0
 1102              		@ frame_needed = 0, uses_anonymous_args = 0
 1103              		.loc 1 742 1 is_stmt 0 view .LVU494
 1104 0000 2DE9F04F 		push	{r4, r5, r6, r7, r8, r9, r10, fp, lr}
 1105              		.cfi_def_cfa_offset 36
 1106              		.cfi_offset 4, -36
 1107              		.cfi_offset 5, -32
 1108              		.cfi_offset 6, -28
 1109              		.cfi_offset 7, -24
 1110              		.cfi_offset 8, -20
 1111              		.cfi_offset 9, -16
 1112              		.cfi_offset 10, -12
 1113              		.cfi_offset 11, -8
 1114              		.cfi_offset 14, -4
 1115 0004 8046     		mov	r8, r0
 1116 0006 099C     		ldr	r4, [sp, #36]
 1117 0008 0B9D     		ldr	r5, [sp, #44]
 1118 000a 0C9E     		ldr	r6, [sp, #48]
 743:Drivers/BSP/Components/vl53l1cb/modules/vl53l1_api_preset_modes.c **** 
 744:Drivers/BSP/Components/vl53l1cb/modules/vl53l1_api_preset_modes.c **** 
 745:Drivers/BSP/Components/vl53l1cb/modules/vl53l1_api_preset_modes.c **** 	VL53L1_Error  status = VL53L1_ERROR_NONE;
 1119              		.loc 1 745 2 is_stmt 1 view .LVU495
 1120              	.LVL29:
 746:Drivers/BSP/Components/vl53l1cb/modules/vl53l1_api_preset_modes.c **** 
 747:Drivers/BSP/Components/vl53l1cb/modules/vl53l1_api_preset_modes.c **** 	LOG_FUNCTION_START("");
 1121              		.loc 1 747 24 view .LVU496
 748:Drivers/BSP/Components/vl53l1cb/modules/vl53l1_api_preset_modes.c **** 
 749:Drivers/BSP/Components/vl53l1cb/modules/vl53l1_api_preset_modes.c **** 
 750:Drivers/BSP/Components/vl53l1cb/modules/vl53l1_api_preset_modes.c **** 
 751:Drivers/BSP/Components/vl53l1cb/modules/vl53l1_api_preset_modes.c **** 
 752:Drivers/BSP/Components/vl53l1cb/modules/vl53l1_api_preset_modes.c **** 	pstatic->dss_config__target_total_rate_mcps = 0x0A00;
 1122              		.loc 1 752 2 view .LVU497
 1123              		.loc 1 752 46 is_stmt 0 view .LVU498
 1124 000c 4FF42060 		mov	r0, #2560
 1125              	.LVL30:
 1126              		.loc 1 752 46 view .LVU499
 1127 0010 A8F80000 		strh	r0, [r8]	@ movhi
 753:Drivers/BSP/Components/vl53l1cb/modules/vl53l1_api_preset_modes.c **** 	pstatic->debug__ctrl = 0x00;
 1128              		.loc 1 753 2 is_stmt 1 view .LVU500
 1129              		.loc 1 753 23 is_stmt 0 view .LVU501
 1130 0014 0020     		movs	r0, #0
 1131 0016 88F80200 		strb	r0, [r8, #2]
 754:Drivers/BSP/Components/vl53l1cb/modules/vl53l1_api_preset_modes.c **** 	pstatic->test_mode__ctrl = 0x00;
 1132              		.loc 1 754 2 is_stmt 1 view .LVU502
 1133              		.loc 1 754 27 is_stmt 0 view .LVU503
 1134 001a 88F80300 		strb	r0, [r8, #3]
 755:Drivers/BSP/Components/vl53l1cb/modules/vl53l1_api_preset_modes.c **** 	pstatic->clk_gating__ctrl = 0x00;
 1135              		.loc 1 755 2 is_stmt 1 view .LVU504
 1136              		.loc 1 755 28 is_stmt 0 view .LVU505
ARM GAS  C:\Temp\ccoVwn9Y.s 			page 34


 1137 001e 88F80400 		strb	r0, [r8, #4]
 756:Drivers/BSP/Components/vl53l1cb/modules/vl53l1_api_preset_modes.c **** 	pstatic->nvm_bist__ctrl = 0x00;
 1138              		.loc 1 756 2 is_stmt 1 view .LVU506
 1139              		.loc 1 756 26 is_stmt 0 view .LVU507
 1140 0022 88F80500 		strb	r0, [r8, #5]
 757:Drivers/BSP/Components/vl53l1cb/modules/vl53l1_api_preset_modes.c **** 	pstatic->nvm_bist__num_nvm_words = 0x00;
 1141              		.loc 1 757 2 is_stmt 1 view .LVU508
 1142              		.loc 1 757 35 is_stmt 0 view .LVU509
 1143 0026 88F80600 		strb	r0, [r8, #6]
 758:Drivers/BSP/Components/vl53l1cb/modules/vl53l1_api_preset_modes.c **** 	pstatic->nvm_bist__start_address = 0x00;
 1144              		.loc 1 758 2 is_stmt 1 view .LVU510
 1145              		.loc 1 758 35 is_stmt 0 view .LVU511
 1146 002a 88F80700 		strb	r0, [r8, #7]
 759:Drivers/BSP/Components/vl53l1cb/modules/vl53l1_api_preset_modes.c **** 	pstatic->host_if__status = 0x00;
 1147              		.loc 1 759 2 is_stmt 1 view .LVU512
 1148              		.loc 1 759 27 is_stmt 0 view .LVU513
 1149 002e 88F80800 		strb	r0, [r8, #8]
 760:Drivers/BSP/Components/vl53l1cb/modules/vl53l1_api_preset_modes.c **** 	pstatic->pad_i2c_hv__config = 0x00;
 1150              		.loc 1 760 2 is_stmt 1 view .LVU514
 1151              		.loc 1 760 30 is_stmt 0 view .LVU515
 1152 0032 88F80900 		strb	r0, [r8, #9]
 761:Drivers/BSP/Components/vl53l1cb/modules/vl53l1_api_preset_modes.c **** 	pstatic->pad_i2c_hv__extsup_config = 0x00;
 1153              		.loc 1 761 2 is_stmt 1 view .LVU516
 1154              		.loc 1 761 37 is_stmt 0 view .LVU517
 1155 0036 88F80A00 		strb	r0, [r8, #10]
 762:Drivers/BSP/Components/vl53l1cb/modules/vl53l1_api_preset_modes.c **** 
 763:Drivers/BSP/Components/vl53l1cb/modules/vl53l1_api_preset_modes.c **** 
 764:Drivers/BSP/Components/vl53l1cb/modules/vl53l1_api_preset_modes.c **** 	pstatic->gpio_hv_pad__ctrl = 0x00;
 1156              		.loc 1 764 2 is_stmt 1 view .LVU518
 1157              		.loc 1 764 29 is_stmt 0 view .LVU519
 1158 003a 88F80B00 		strb	r0, [r8, #11]
 765:Drivers/BSP/Components/vl53l1cb/modules/vl53l1_api_preset_modes.c **** 
 766:Drivers/BSP/Components/vl53l1cb/modules/vl53l1_api_preset_modes.c **** 
 767:Drivers/BSP/Components/vl53l1cb/modules/vl53l1_api_preset_modes.c **** 	pstatic->gpio_hv_mux__ctrl  =
 1159              		.loc 1 767 2 is_stmt 1 view .LVU520
 1160              		.loc 1 767 30 is_stmt 0 view .LVU521
 1161 003e 1127     		movs	r7, #17
 1162 0040 88F80C70 		strb	r7, [r8, #12]
 768:Drivers/BSP/Components/vl53l1cb/modules/vl53l1_api_preset_modes.c **** 			VL53L1_DEVICEINTERRUPTPOLARITY_ACTIVE_LOW |
 769:Drivers/BSP/Components/vl53l1cb/modules/vl53l1_api_preset_modes.c **** 			VL53L1_DEVICEGPIOMODE_OUTPUT_RANGE_AND_ERROR_INTERRUPTS;
 770:Drivers/BSP/Components/vl53l1cb/modules/vl53l1_api_preset_modes.c **** 
 771:Drivers/BSP/Components/vl53l1cb/modules/vl53l1_api_preset_modes.c **** 	pstatic->gpio__tio_hv_status = 0x02;
 1163              		.loc 1 771 2 is_stmt 1 view .LVU522
 1164              		.loc 1 771 31 is_stmt 0 view .LVU523
 1165 0044 4FF0020E 		mov	lr, #2
 1166 0048 88F80DE0 		strb	lr, [r8, #13]
 772:Drivers/BSP/Components/vl53l1cb/modules/vl53l1_api_preset_modes.c **** 	pstatic->gpio__fio_hv_status = 0x00;
 1167              		.loc 1 772 2 is_stmt 1 view .LVU524
 1168              		.loc 1 772 31 is_stmt 0 view .LVU525
 1169 004c 88F80E00 		strb	r0, [r8, #14]
 773:Drivers/BSP/Components/vl53l1cb/modules/vl53l1_api_preset_modes.c **** 	pstatic->ana_config__spad_sel_pswidth = 0x02;
 1170              		.loc 1 773 2 is_stmt 1 view .LVU526
 1171              		.loc 1 773 40 is_stmt 0 view .LVU527
 1172 0050 88F80FE0 		strb	lr, [r8, #15]
 774:Drivers/BSP/Components/vl53l1cb/modules/vl53l1_api_preset_modes.c **** 	pstatic->ana_config__vcsel_pulse_width_offset = 0x08;
 1173              		.loc 1 774 2 is_stmt 1 view .LVU528
 1174              		.loc 1 774 48 is_stmt 0 view .LVU529
ARM GAS  C:\Temp\ccoVwn9Y.s 			page 35


 1175 0054 0827     		movs	r7, #8
 1176 0056 88F81070 		strb	r7, [r8, #16]
 775:Drivers/BSP/Components/vl53l1cb/modules/vl53l1_api_preset_modes.c **** 	pstatic->ana_config__fast_osc__config_ctrl = 0x00;
 1177              		.loc 1 775 2 is_stmt 1 view .LVU530
 1178              		.loc 1 775 45 is_stmt 0 view .LVU531
 1179 005a 88F81100 		strb	r0, [r8, #17]
 776:Drivers/BSP/Components/vl53l1cb/modules/vl53l1_api_preset_modes.c **** 
 777:Drivers/BSP/Components/vl53l1cb/modules/vl53l1_api_preset_modes.c **** 	pstatic->sigma_estimator__effective_pulse_width_ns        =
 1180              		.loc 1 777 2 is_stmt 1 view .LVU532
 778:Drivers/BSP/Components/vl53l1cb/modules/vl53l1_api_preset_modes.c **** 			ptuning_parms->tp_lite_sigma_est_pulse_width_ns;
 1181              		.loc 1 778 17 is_stmt 0 view .LVU533
 1182 005e 95F824C0 		ldrb	ip, [r5, #36]	@ zero_extendqisi2
 777:Drivers/BSP/Components/vl53l1cb/modules/vl53l1_api_preset_modes.c **** 			ptuning_parms->tp_lite_sigma_est_pulse_width_ns;
 1183              		.loc 1 777 60 view .LVU534
 1184 0062 88F812C0 		strb	ip, [r8, #18]
 779:Drivers/BSP/Components/vl53l1cb/modules/vl53l1_api_preset_modes.c **** 	pstatic->sigma_estimator__effective_ambient_width_ns      =
 1185              		.loc 1 779 2 is_stmt 1 view .LVU535
 780:Drivers/BSP/Components/vl53l1cb/modules/vl53l1_api_preset_modes.c **** 			ptuning_parms->tp_lite_sigma_est_amb_width_ns;
 1186              		.loc 1 780 17 is_stmt 0 view .LVU536
 1187 0066 95F825C0 		ldrb	ip, [r5, #37]	@ zero_extendqisi2
 779:Drivers/BSP/Components/vl53l1cb/modules/vl53l1_api_preset_modes.c **** 	pstatic->sigma_estimator__effective_ambient_width_ns      =
 1188              		.loc 1 779 60 view .LVU537
 1189 006a 88F813C0 		strb	ip, [r8, #19]
 781:Drivers/BSP/Components/vl53l1cb/modules/vl53l1_api_preset_modes.c **** 	pstatic->sigma_estimator__sigma_ref_mm                    =
 1190              		.loc 1 781 2 is_stmt 1 view .LVU538
 782:Drivers/BSP/Components/vl53l1cb/modules/vl53l1_api_preset_modes.c **** 			ptuning_parms->tp_lite_sigma_ref_mm;
 1191              		.loc 1 782 17 is_stmt 0 view .LVU539
 1192 006e 95F826C0 		ldrb	ip, [r5, #38]	@ zero_extendqisi2
 781:Drivers/BSP/Components/vl53l1cb/modules/vl53l1_api_preset_modes.c **** 	pstatic->sigma_estimator__sigma_ref_mm                    =
 1193              		.loc 1 781 60 view .LVU540
 1194 0072 88F814C0 		strb	ip, [r8, #20]
 783:Drivers/BSP/Components/vl53l1cb/modules/vl53l1_api_preset_modes.c **** 
 784:Drivers/BSP/Components/vl53l1cb/modules/vl53l1_api_preset_modes.c **** 	pstatic->algo__crosstalk_compensation_valid_height_mm = 0x01;
 1195              		.loc 1 784 2 is_stmt 1 view .LVU541
 1196              		.loc 1 784 56 is_stmt 0 view .LVU542
 1197 0076 4FF0010C 		mov	ip, #1
 1198 007a 88F815C0 		strb	ip, [r8, #21]
 785:Drivers/BSP/Components/vl53l1cb/modules/vl53l1_api_preset_modes.c **** 	pstatic->spare_host_config__static_config_spare_0 = 0x00;
 1199              		.loc 1 785 2 is_stmt 1 view .LVU543
 1200              		.loc 1 785 52 is_stmt 0 view .LVU544
 1201 007e 88F81600 		strb	r0, [r8, #22]
 786:Drivers/BSP/Components/vl53l1cb/modules/vl53l1_api_preset_modes.c **** 	pstatic->spare_host_config__static_config_spare_1 = 0x00;
 1202              		.loc 1 786 2 is_stmt 1 view .LVU545
 1203              		.loc 1 786 52 is_stmt 0 view .LVU546
 1204 0082 88F81700 		strb	r0, [r8, #23]
 787:Drivers/BSP/Components/vl53l1cb/modules/vl53l1_api_preset_modes.c **** 
 788:Drivers/BSP/Components/vl53l1cb/modules/vl53l1_api_preset_modes.c **** 	pstatic->algo__range_ignore_threshold_mcps = 0x0000;
 1205              		.loc 1 788 2 is_stmt 1 view .LVU547
 1206              		.loc 1 788 45 is_stmt 0 view .LVU548
 1207 0086 A8F81800 		strh	r0, [r8, #24]	@ movhi
 789:Drivers/BSP/Components/vl53l1cb/modules/vl53l1_api_preset_modes.c **** 
 790:Drivers/BSP/Components/vl53l1cb/modules/vl53l1_api_preset_modes.c **** 
 791:Drivers/BSP/Components/vl53l1cb/modules/vl53l1_api_preset_modes.c **** 	pstatic->algo__range_ignore_valid_height_mm = 0xff;
 1208              		.loc 1 791 2 is_stmt 1 view .LVU549
 1209              		.loc 1 791 46 is_stmt 0 view .LVU550
 1210 008a 4FF0FF09 		mov	r9, #255
 1211 008e 88F81A90 		strb	r9, [r8, #26]
ARM GAS  C:\Temp\ccoVwn9Y.s 			page 36


 792:Drivers/BSP/Components/vl53l1cb/modules/vl53l1_api_preset_modes.c **** 	pstatic->algo__range_min_clip                             =
 1212              		.loc 1 792 2 is_stmt 1 view .LVU551
 793:Drivers/BSP/Components/vl53l1cb/modules/vl53l1_api_preset_modes.c **** 			ptuning_parms->tp_lite_min_clip;
 1213              		.loc 1 793 17 is_stmt 0 view .LVU552
 1214 0092 95F816A0 		ldrb	r10, [r5, #22]	@ zero_extendqisi2
 792:Drivers/BSP/Components/vl53l1cb/modules/vl53l1_api_preset_modes.c **** 	pstatic->algo__range_min_clip                             =
 1215              		.loc 1 792 60 view .LVU553
 1216 0096 88F81BA0 		strb	r10, [r8, #27]
 794:Drivers/BSP/Components/vl53l1cb/modules/vl53l1_api_preset_modes.c **** 
 795:Drivers/BSP/Components/vl53l1cb/modules/vl53l1_api_preset_modes.c **** 	pstatic->algo__consistency_check__tolerance               =
 1217              		.loc 1 795 2 is_stmt 1 view .LVU554
 796:Drivers/BSP/Components/vl53l1cb/modules/vl53l1_api_preset_modes.c **** 			ptuning_parms->tp_consistency_lite_phase_tolerance;
 1218              		.loc 1 796 17 is_stmt 0 view .LVU555
 1219 009a 95F812A0 		ldrb	r10, [r5, #18]	@ zero_extendqisi2
 795:Drivers/BSP/Components/vl53l1cb/modules/vl53l1_api_preset_modes.c **** 			ptuning_parms->tp_consistency_lite_phase_tolerance;
 1220              		.loc 1 795 60 view .LVU556
 1221 009e 88F81CA0 		strb	r10, [r8, #28]
 797:Drivers/BSP/Components/vl53l1cb/modules/vl53l1_api_preset_modes.c **** 	pstatic->spare_host_config__static_config_spare_2 = 0x00;
 1222              		.loc 1 797 2 is_stmt 1 view .LVU557
 1223              		.loc 1 797 52 is_stmt 0 view .LVU558
 1224 00a2 88F81D00 		strb	r0, [r8, #29]
 798:Drivers/BSP/Components/vl53l1cb/modules/vl53l1_api_preset_modes.c **** 	pstatic->sd_config__reset_stages_msb = 0x00;
 1225              		.loc 1 798 2 is_stmt 1 view .LVU559
 1226              		.loc 1 798 39 is_stmt 0 view .LVU560
 1227 00a6 88F81E00 		strb	r0, [r8, #30]
 799:Drivers/BSP/Components/vl53l1cb/modules/vl53l1_api_preset_modes.c **** 	pstatic->sd_config__reset_stages_lsb = 0x00;
 1228              		.loc 1 799 2 is_stmt 1 view .LVU561
 1229              		.loc 1 799 39 is_stmt 0 view .LVU562
 1230 00aa 88F81F00 		strb	r0, [r8, #31]
 800:Drivers/BSP/Components/vl53l1cb/modules/vl53l1_api_preset_modes.c **** 
 801:Drivers/BSP/Components/vl53l1cb/modules/vl53l1_api_preset_modes.c **** 	pgeneral->gph_config__stream_count_update_value = 0x00;
 1231              		.loc 1 801 2 is_stmt 1 view .LVU563
 1232              		.loc 1 801 50 is_stmt 0 view .LVU564
 1233 00ae 1070     		strb	r0, [r2]
 802:Drivers/BSP/Components/vl53l1cb/modules/vl53l1_api_preset_modes.c **** 	pgeneral->global_config__stream_divider = 0x00;
 1234              		.loc 1 802 2 is_stmt 1 view .LVU565
 1235              		.loc 1 802 42 is_stmt 0 view .LVU566
 1236 00b0 5070     		strb	r0, [r2, #1]
 803:Drivers/BSP/Components/vl53l1cb/modules/vl53l1_api_preset_modes.c **** 	pgeneral->system__interrupt_config_gpio =
 1237              		.loc 1 803 2 is_stmt 1 view .LVU567
 1238              		.loc 1 803 42 is_stmt 0 view .LVU568
 1239 00b2 4FF02008 		mov	r8, #32
 1240              	.LVL31:
 1241              		.loc 1 803 42 view .LVU569
 1242 00b6 82F80280 		strb	r8, [r2, #2]
 804:Drivers/BSP/Components/vl53l1cb/modules/vl53l1_api_preset_modes.c **** 			VL53L1_INTERRUPT_CONFIG_NEW_SAMPLE_READY;
 805:Drivers/BSP/Components/vl53l1cb/modules/vl53l1_api_preset_modes.c **** 	pgeneral->cal_config__vcsel_start = 0x0B;
 1243              		.loc 1 805 2 is_stmt 1 view .LVU570
 1244              		.loc 1 805 36 is_stmt 0 view .LVU571
 1245 00ba 4FF00B0B 		mov	fp, #11
 1246 00be 82F803B0 		strb	fp, [r2, #3]
 806:Drivers/BSP/Components/vl53l1cb/modules/vl53l1_api_preset_modes.c **** 
 807:Drivers/BSP/Components/vl53l1cb/modules/vl53l1_api_preset_modes.c **** 
 808:Drivers/BSP/Components/vl53l1cb/modules/vl53l1_api_preset_modes.c **** 	pgeneral->cal_config__repeat_rate                         =
 1247              		.loc 1 808 2 is_stmt 1 view .LVU572
 809:Drivers/BSP/Components/vl53l1cb/modules/vl53l1_api_preset_modes.c **** 			ptuning_parms->tp_cal_repeat_rate;
 1248              		.loc 1 809 17 is_stmt 0 view .LVU573
ARM GAS  C:\Temp\ccoVwn9Y.s 			page 37


 1249 00c2 B5F814A0 		ldrh	r10, [r5, #20]
 808:Drivers/BSP/Components/vl53l1cb/modules/vl53l1_api_preset_modes.c **** 			ptuning_parms->tp_cal_repeat_rate;
 1250              		.loc 1 808 60 view .LVU574
 1251 00c6 A2F804A0 		strh	r10, [r2, #4]	@ movhi
 810:Drivers/BSP/Components/vl53l1cb/modules/vl53l1_api_preset_modes.c **** 	pgeneral->global_config__vcsel_width = 0x02;
 1252              		.loc 1 810 2 is_stmt 1 view .LVU575
 1253              		.loc 1 810 39 is_stmt 0 view .LVU576
 1254 00ca 82F806E0 		strb	lr, [r2, #6]
 811:Drivers/BSP/Components/vl53l1cb/modules/vl53l1_api_preset_modes.c **** 
 812:Drivers/BSP/Components/vl53l1cb/modules/vl53l1_api_preset_modes.c **** 	pgeneral->phasecal_config__timeout_macrop = 0x0D;
 1255              		.loc 1 812 2 is_stmt 1 view .LVU577
 1256              		.loc 1 812 44 is_stmt 0 view .LVU578
 1257 00ce 4FF00D0A 		mov	r10, #13
 1258 00d2 82F807A0 		strb	r10, [r2, #7]
 813:Drivers/BSP/Components/vl53l1cb/modules/vl53l1_api_preset_modes.c **** 
 814:Drivers/BSP/Components/vl53l1cb/modules/vl53l1_api_preset_modes.c **** 	pgeneral->phasecal_config__target                         =
 1259              		.loc 1 814 2 is_stmt 1 view .LVU579
 815:Drivers/BSP/Components/vl53l1cb/modules/vl53l1_api_preset_modes.c **** 			ptuning_parms->tp_phasecal_target;
 1260              		.loc 1 815 17 is_stmt 0 view .LVU580
 1261 00d6 95F813A0 		ldrb	r10, [r5, #19]	@ zero_extendqisi2
 814:Drivers/BSP/Components/vl53l1cb/modules/vl53l1_api_preset_modes.c **** 			ptuning_parms->tp_phasecal_target;
 1262              		.loc 1 814 60 view .LVU581
 1263 00da 82F808A0 		strb	r10, [r2, #8]
 816:Drivers/BSP/Components/vl53l1cb/modules/vl53l1_api_preset_modes.c **** 	pgeneral->phasecal_config__override = 0x00;
 1264              		.loc 1 816 2 is_stmt 1 view .LVU582
 1265              		.loc 1 816 38 is_stmt 0 view .LVU583
 1266 00de 5072     		strb	r0, [r2, #9]
 817:Drivers/BSP/Components/vl53l1cb/modules/vl53l1_api_preset_modes.c **** 	pgeneral->dss_config__roi_mode_control =
 1267              		.loc 1 817 2 is_stmt 1 view .LVU584
 1268              		.loc 1 817 41 is_stmt 0 view .LVU585
 1269 00e0 82F80AC0 		strb	ip, [r2, #10]
 818:Drivers/BSP/Components/vl53l1cb/modules/vl53l1_api_preset_modes.c **** 			VL53L1_DEVICEDSSMODE__TARGET_RATE;
 819:Drivers/BSP/Components/vl53l1cb/modules/vl53l1_api_preset_modes.c **** 
 820:Drivers/BSP/Components/vl53l1cb/modules/vl53l1_api_preset_modes.c **** 	pgeneral->system__thresh_rate_high = 0x0000;
 1270              		.loc 1 820 2 is_stmt 1 view .LVU586
 1271              		.loc 1 820 37 is_stmt 0 view .LVU587
 1272 00e4 9081     		strh	r0, [r2, #12]	@ movhi
 821:Drivers/BSP/Components/vl53l1cb/modules/vl53l1_api_preset_modes.c **** 	pgeneral->system__thresh_rate_low = 0x0000;
 1273              		.loc 1 821 2 is_stmt 1 view .LVU588
 1274              		.loc 1 821 36 is_stmt 0 view .LVU589
 1275 00e6 D081     		strh	r0, [r2, #14]	@ movhi
 822:Drivers/BSP/Components/vl53l1cb/modules/vl53l1_api_preset_modes.c **** 
 823:Drivers/BSP/Components/vl53l1cb/modules/vl53l1_api_preset_modes.c **** 	pgeneral->dss_config__manual_effective_spads_select = 0x8C00;
 1276              		.loc 1 823 2 is_stmt 1 view .LVU590
 1277              		.loc 1 823 54 is_stmt 0 view .LVU591
 1278 00e8 4FF40C4A 		mov	r10, #35840
 1279 00ec A2F810A0 		strh	r10, [r2, #16]	@ movhi
 824:Drivers/BSP/Components/vl53l1cb/modules/vl53l1_api_preset_modes.c **** 	pgeneral->dss_config__manual_block_select = 0x00;
 1280              		.loc 1 824 2 is_stmt 1 view .LVU592
 1281              		.loc 1 824 44 is_stmt 0 view .LVU593
 1282 00f0 9074     		strb	r0, [r2, #18]
 825:Drivers/BSP/Components/vl53l1cb/modules/vl53l1_api_preset_modes.c **** 
 826:Drivers/BSP/Components/vl53l1cb/modules/vl53l1_api_preset_modes.c **** 
 827:Drivers/BSP/Components/vl53l1cb/modules/vl53l1_api_preset_modes.c **** 	pgeneral->dss_config__aperture_attenuation = 0x38;
 1283              		.loc 1 827 2 is_stmt 1 view .LVU594
 1284              		.loc 1 827 45 is_stmt 0 view .LVU595
 1285 00f2 4FF0380A 		mov	r10, #56
ARM GAS  C:\Temp\ccoVwn9Y.s 			page 38


 1286 00f6 82F813A0 		strb	r10, [r2, #19]
 828:Drivers/BSP/Components/vl53l1cb/modules/vl53l1_api_preset_modes.c **** 	pgeneral->dss_config__max_spads_limit = 0xFF;
 1287              		.loc 1 828 2 is_stmt 1 view .LVU596
 1288              		.loc 1 828 40 is_stmt 0 view .LVU597
 1289 00fa 82F81490 		strb	r9, [r2, #20]
 829:Drivers/BSP/Components/vl53l1cb/modules/vl53l1_api_preset_modes.c **** 	pgeneral->dss_config__min_spads_limit = 0x01;
 1290              		.loc 1 829 2 is_stmt 1 view .LVU598
 1291              		.loc 1 829 40 is_stmt 0 view .LVU599
 1292 00fe 82F815C0 		strb	ip, [r2, #21]
 830:Drivers/BSP/Components/vl53l1cb/modules/vl53l1_api_preset_modes.c **** 
 831:Drivers/BSP/Components/vl53l1cb/modules/vl53l1_api_preset_modes.c **** 
 832:Drivers/BSP/Components/vl53l1cb/modules/vl53l1_api_preset_modes.c **** 
 833:Drivers/BSP/Components/vl53l1cb/modules/vl53l1_api_preset_modes.c **** 
 834:Drivers/BSP/Components/vl53l1cb/modules/vl53l1_api_preset_modes.c **** 	ptiming->mm_config__timeout_macrop_a_hi = 0x00;
 1293              		.loc 1 834 2 is_stmt 1 view .LVU600
 1294              		.loc 1 834 42 is_stmt 0 view .LVU601
 1295 0102 1870     		strb	r0, [r3]
 835:Drivers/BSP/Components/vl53l1cb/modules/vl53l1_api_preset_modes.c **** 	ptiming->mm_config__timeout_macrop_a_lo = 0x1a;
 1296              		.loc 1 835 2 is_stmt 1 view .LVU602
 1297              		.loc 1 835 42 is_stmt 0 view .LVU603
 1298 0104 1A22     		movs	r2, #26
 1299              	.LVL32:
 1300              		.loc 1 835 42 view .LVU604
 1301 0106 5A70     		strb	r2, [r3, #1]
 836:Drivers/BSP/Components/vl53l1cb/modules/vl53l1_api_preset_modes.c **** 	ptiming->mm_config__timeout_macrop_b_hi = 0x00;
 1302              		.loc 1 836 2 is_stmt 1 view .LVU605
 1303              		.loc 1 836 42 is_stmt 0 view .LVU606
 1304 0108 9870     		strb	r0, [r3, #2]
 837:Drivers/BSP/Components/vl53l1cb/modules/vl53l1_api_preset_modes.c **** 	ptiming->mm_config__timeout_macrop_b_lo = 0x20;
 1305              		.loc 1 837 2 is_stmt 1 view .LVU607
 1306              		.loc 1 837 42 is_stmt 0 view .LVU608
 1307 010a 83F80380 		strb	r8, [r3, #3]
 838:Drivers/BSP/Components/vl53l1cb/modules/vl53l1_api_preset_modes.c **** 
 839:Drivers/BSP/Components/vl53l1cb/modules/vl53l1_api_preset_modes.c **** 	ptiming->range_config__timeout_macrop_a_hi = 0x01;
 1308              		.loc 1 839 2 is_stmt 1 view .LVU609
 1309              		.loc 1 839 45 is_stmt 0 view .LVU610
 1310 010e 83F804C0 		strb	ip, [r3, #4]
 840:Drivers/BSP/Components/vl53l1cb/modules/vl53l1_api_preset_modes.c **** 	ptiming->range_config__timeout_macrop_a_lo = 0xCC;
 1311              		.loc 1 840 2 is_stmt 1 view .LVU611
 1312              		.loc 1 840 45 is_stmt 0 view .LVU612
 1313 0112 CC22     		movs	r2, #204
 1314 0114 5A71     		strb	r2, [r3, #5]
 841:Drivers/BSP/Components/vl53l1cb/modules/vl53l1_api_preset_modes.c **** 
 842:Drivers/BSP/Components/vl53l1cb/modules/vl53l1_api_preset_modes.c **** 	ptiming->range_config__vcsel_period_a = 0x0B;
 1315              		.loc 1 842 2 is_stmt 1 view .LVU613
 1316              		.loc 1 842 40 is_stmt 0 view .LVU614
 1317 0116 83F806B0 		strb	fp, [r3, #6]
 843:Drivers/BSP/Components/vl53l1cb/modules/vl53l1_api_preset_modes.c **** 
 844:Drivers/BSP/Components/vl53l1cb/modules/vl53l1_api_preset_modes.c **** 	ptiming->range_config__timeout_macrop_b_hi = 0x01;
 1318              		.loc 1 844 2 is_stmt 1 view .LVU615
 1319              		.loc 1 844 45 is_stmt 0 view .LVU616
 1320 011a 83F807C0 		strb	ip, [r3, #7]
 845:Drivers/BSP/Components/vl53l1cb/modules/vl53l1_api_preset_modes.c **** 	ptiming->range_config__timeout_macrop_b_lo = 0xF5;
 1321              		.loc 1 845 2 is_stmt 1 view .LVU617
 1322              		.loc 1 845 45 is_stmt 0 view .LVU618
 1323 011e F522     		movs	r2, #245
 1324 0120 1A72     		strb	r2, [r3, #8]
ARM GAS  C:\Temp\ccoVwn9Y.s 			page 39


 846:Drivers/BSP/Components/vl53l1cb/modules/vl53l1_api_preset_modes.c **** 
 847:Drivers/BSP/Components/vl53l1cb/modules/vl53l1_api_preset_modes.c **** 	ptiming->range_config__vcsel_period_b = 0x09;
 1325              		.loc 1 847 2 is_stmt 1 view .LVU619
 1326              		.loc 1 847 40 is_stmt 0 view .LVU620
 1327 0122 4FF00902 		mov	r2, #9
 1328 0126 5A72     		strb	r2, [r3, #9]
 848:Drivers/BSP/Components/vl53l1cb/modules/vl53l1_api_preset_modes.c **** 
 849:Drivers/BSP/Components/vl53l1cb/modules/vl53l1_api_preset_modes.c **** 	ptiming->range_config__sigma_thresh                       =
 1329              		.loc 1 849 2 is_stmt 1 view .LVU621
 850:Drivers/BSP/Components/vl53l1cb/modules/vl53l1_api_preset_modes.c **** 			ptuning_parms->tp_lite_med_sigma_thresh_mm;
 1330              		.loc 1 850 17 is_stmt 0 view .LVU622
 1331 0128 6A8B     		ldrh	r2, [r5, #26]
 849:Drivers/BSP/Components/vl53l1cb/modules/vl53l1_api_preset_modes.c **** 			ptuning_parms->tp_lite_med_sigma_thresh_mm;
 1332              		.loc 1 849 60 view .LVU623
 1333 012a 5A81     		strh	r2, [r3, #10]	@ movhi
 851:Drivers/BSP/Components/vl53l1cb/modules/vl53l1_api_preset_modes.c **** 
 852:Drivers/BSP/Components/vl53l1cb/modules/vl53l1_api_preset_modes.c **** 	ptiming->range_config__min_count_rate_rtn_limit_mcps      =
 1334              		.loc 1 852 2 is_stmt 1 view .LVU624
 853:Drivers/BSP/Components/vl53l1cb/modules/vl53l1_api_preset_modes.c **** 			ptuning_parms->tp_lite_med_min_count_rate_rtn_mcps;
 1335              		.loc 1 853 17 is_stmt 0 view .LVU625
 1336 012c 2A8C     		ldrh	r2, [r5, #32]
 852:Drivers/BSP/Components/vl53l1cb/modules/vl53l1_api_preset_modes.c **** 			ptuning_parms->tp_lite_med_min_count_rate_rtn_mcps;
 1337              		.loc 1 852 60 view .LVU626
 1338 012e 9A81     		strh	r2, [r3, #12]	@ movhi
 854:Drivers/BSP/Components/vl53l1cb/modules/vl53l1_api_preset_modes.c **** 
 855:Drivers/BSP/Components/vl53l1cb/modules/vl53l1_api_preset_modes.c **** 
 856:Drivers/BSP/Components/vl53l1cb/modules/vl53l1_api_preset_modes.c **** 	ptiming->range_config__valid_phase_low = 0x08;
 1339              		.loc 1 856 2 is_stmt 1 view .LVU627
 1340              		.loc 1 856 41 is_stmt 0 view .LVU628
 1341 0130 9F73     		strb	r7, [r3, #14]
 857:Drivers/BSP/Components/vl53l1cb/modules/vl53l1_api_preset_modes.c **** 	ptiming->range_config__valid_phase_high = 0x78;
 1342              		.loc 1 857 2 is_stmt 1 view .LVU629
 1343              		.loc 1 857 42 is_stmt 0 view .LVU630
 1344 0132 7822     		movs	r2, #120
 1345 0134 DA73     		strb	r2, [r3, #15]
 858:Drivers/BSP/Components/vl53l1cb/modules/vl53l1_api_preset_modes.c **** 	ptiming->system__intermeasurement_period = 0x00000000;
 1346              		.loc 1 858 2 is_stmt 1 view .LVU631
 1347              		.loc 1 858 43 is_stmt 0 view .LVU632
 1348 0136 1861     		str	r0, [r3, #16]
 859:Drivers/BSP/Components/vl53l1cb/modules/vl53l1_api_preset_modes.c **** 	ptiming->system__fractional_enable = 0x00;
 1349              		.loc 1 859 2 is_stmt 1 view .LVU633
 1350              		.loc 1 859 37 is_stmt 0 view .LVU634
 1351 0138 1875     		strb	r0, [r3, #20]
 860:Drivers/BSP/Components/vl53l1cb/modules/vl53l1_api_preset_modes.c **** 
 861:Drivers/BSP/Components/vl53l1cb/modules/vl53l1_api_preset_modes.c **** 
 862:Drivers/BSP/Components/vl53l1cb/modules/vl53l1_api_preset_modes.c **** 
 863:Drivers/BSP/Components/vl53l1cb/modules/vl53l1_api_preset_modes.c **** 	phistogram->histogram_config__low_amb_even_bin_0_1 = 0x07;
 1352              		.loc 1 863 2 is_stmt 1 view .LVU635
 1353              		.loc 1 863 53 is_stmt 0 view .LVU636
 1354 013a 4FF00709 		mov	r9, #7
 1355 013e 81F80190 		strb	r9, [r1, #1]
 864:Drivers/BSP/Components/vl53l1cb/modules/vl53l1_api_preset_modes.c **** 	phistogram->histogram_config__low_amb_even_bin_2_3 = 0x21;
 1356              		.loc 1 864 2 is_stmt 1 view .LVU637
 1357              		.loc 1 864 53 is_stmt 0 view .LVU638
 1358 0142 2123     		movs	r3, #33
 1359              	.LVL33:
 1360              		.loc 1 864 53 view .LVU639
ARM GAS  C:\Temp\ccoVwn9Y.s 			page 40


 1361 0144 8B70     		strb	r3, [r1, #2]
 865:Drivers/BSP/Components/vl53l1cb/modules/vl53l1_api_preset_modes.c **** 	phistogram->histogram_config__low_amb_even_bin_4_5 = 0x43;
 1362              		.loc 1 865 2 is_stmt 1 view .LVU640
 1363              		.loc 1 865 53 is_stmt 0 view .LVU641
 1364 0146 4FF04308 		mov	r8, #67
 1365 014a 81F80380 		strb	r8, [r1, #3]
 866:Drivers/BSP/Components/vl53l1cb/modules/vl53l1_api_preset_modes.c **** 
 867:Drivers/BSP/Components/vl53l1cb/modules/vl53l1_api_preset_modes.c **** 	phistogram->histogram_config__low_amb_odd_bin_0_1 = 0x10;
 1366              		.loc 1 867 2 is_stmt 1 view .LVU642
 1367              		.loc 1 867 52 is_stmt 0 view .LVU643
 1368 014e 1022     		movs	r2, #16
 1369 0150 0A71     		strb	r2, [r1, #4]
 868:Drivers/BSP/Components/vl53l1cb/modules/vl53l1_api_preset_modes.c **** 	phistogram->histogram_config__low_amb_odd_bin_2_3 = 0x32;
 1370              		.loc 1 868 2 is_stmt 1 view .LVU644
 1371              		.loc 1 868 52 is_stmt 0 view .LVU645
 1372 0152 4FF0320A 		mov	r10, #50
 1373 0156 81F805A0 		strb	r10, [r1, #5]
 869:Drivers/BSP/Components/vl53l1cb/modules/vl53l1_api_preset_modes.c **** 	phistogram->histogram_config__low_amb_odd_bin_4_5 = 0x54;
 1374              		.loc 1 869 2 is_stmt 1 view .LVU646
 1375              		.loc 1 869 52 is_stmt 0 view .LVU647
 1376 015a 4FF0540A 		mov	r10, #84
 1377 015e 81F806A0 		strb	r10, [r1, #6]
 870:Drivers/BSP/Components/vl53l1cb/modules/vl53l1_api_preset_modes.c **** 
 871:Drivers/BSP/Components/vl53l1cb/modules/vl53l1_api_preset_modes.c **** 	phistogram->histogram_config__mid_amb_even_bin_0_1 = 0x07;
 1378              		.loc 1 871 2 is_stmt 1 view .LVU648
 1379              		.loc 1 871 53 is_stmt 0 view .LVU649
 1380 0162 81F80790 		strb	r9, [r1, #7]
 872:Drivers/BSP/Components/vl53l1cb/modules/vl53l1_api_preset_modes.c **** 	phistogram->histogram_config__mid_amb_even_bin_2_3 = 0x21;
 1381              		.loc 1 872 2 is_stmt 1 view .LVU650
 1382              		.loc 1 872 53 is_stmt 0 view .LVU651
 1383 0166 0B72     		strb	r3, [r1, #8]
 873:Drivers/BSP/Components/vl53l1cb/modules/vl53l1_api_preset_modes.c **** 	phistogram->histogram_config__mid_amb_even_bin_4_5 = 0x43;
 1384              		.loc 1 873 2 is_stmt 1 view .LVU652
 1385              		.loc 1 873 53 is_stmt 0 view .LVU653
 1386 0168 81F80980 		strb	r8, [r1, #9]
 874:Drivers/BSP/Components/vl53l1cb/modules/vl53l1_api_preset_modes.c **** 
 875:Drivers/BSP/Components/vl53l1cb/modules/vl53l1_api_preset_modes.c **** 	phistogram->histogram_config__mid_amb_odd_bin_0_1 = 0x10;
 1387              		.loc 1 875 2 is_stmt 1 view .LVU654
 1388              		.loc 1 875 52 is_stmt 0 view .LVU655
 1389 016c 8A72     		strb	r2, [r1, #10]
 876:Drivers/BSP/Components/vl53l1cb/modules/vl53l1_api_preset_modes.c **** 	phistogram->histogram_config__mid_amb_odd_bin_2 = 0x02;
 1390              		.loc 1 876 2 is_stmt 1 view .LVU656
 1391              		.loc 1 876 50 is_stmt 0 view .LVU657
 1392 016e 81F80BE0 		strb	lr, [r1, #11]
 877:Drivers/BSP/Components/vl53l1cb/modules/vl53l1_api_preset_modes.c **** 	phistogram->histogram_config__mid_amb_odd_bin_3_4 = 0x43;
 1393              		.loc 1 877 2 is_stmt 1 view .LVU658
 1394              		.loc 1 877 52 is_stmt 0 view .LVU659
 1395 0172 81F80C80 		strb	r8, [r1, #12]
 878:Drivers/BSP/Components/vl53l1cb/modules/vl53l1_api_preset_modes.c **** 	phistogram->histogram_config__mid_amb_odd_bin_5 = 0x05;
 1396              		.loc 1 878 2 is_stmt 1 view .LVU660
 1397              		.loc 1 878 50 is_stmt 0 view .LVU661
 1398 0176 4FF00509 		mov	r9, #5
 1399 017a 81F80D90 		strb	r9, [r1, #13]
 879:Drivers/BSP/Components/vl53l1cb/modules/vl53l1_api_preset_modes.c **** 
 880:Drivers/BSP/Components/vl53l1cb/modules/vl53l1_api_preset_modes.c **** 	phistogram->histogram_config__user_bin_offset = 0x00;
 1400              		.loc 1 880 2 is_stmt 1 view .LVU662
 1401              		.loc 1 880 48 is_stmt 0 view .LVU663
ARM GAS  C:\Temp\ccoVwn9Y.s 			page 41


 1402 017e 8873     		strb	r0, [r1, #14]
 881:Drivers/BSP/Components/vl53l1cb/modules/vl53l1_api_preset_modes.c **** 
 882:Drivers/BSP/Components/vl53l1cb/modules/vl53l1_api_preset_modes.c **** 	phistogram->histogram_config__high_amb_even_bin_0_1 = 0x07;
 1403              		.loc 1 882 2 is_stmt 1 view .LVU664
 1404              		.loc 1 882 54 is_stmt 0 view .LVU665
 1405 0180 4FF00709 		mov	r9, #7
 1406 0184 81F80F90 		strb	r9, [r1, #15]
 883:Drivers/BSP/Components/vl53l1cb/modules/vl53l1_api_preset_modes.c **** 	phistogram->histogram_config__high_amb_even_bin_2_3 = 0x21;
 1407              		.loc 1 883 2 is_stmt 1 view .LVU666
 1408              		.loc 1 883 54 is_stmt 0 view .LVU667
 1409 0188 0B74     		strb	r3, [r1, #16]
 884:Drivers/BSP/Components/vl53l1cb/modules/vl53l1_api_preset_modes.c **** 	phistogram->histogram_config__high_amb_even_bin_4_5 = 0x43;
 1410              		.loc 1 884 2 is_stmt 1 view .LVU668
 1411              		.loc 1 884 54 is_stmt 0 view .LVU669
 1412 018a 81F81180 		strb	r8, [r1, #17]
 885:Drivers/BSP/Components/vl53l1cb/modules/vl53l1_api_preset_modes.c **** 
 886:Drivers/BSP/Components/vl53l1cb/modules/vl53l1_api_preset_modes.c **** 	phistogram->histogram_config__high_amb_odd_bin_0_1 = 0x10;
 1413              		.loc 1 886 2 is_stmt 1 view .LVU670
 1414              		.loc 1 886 53 is_stmt 0 view .LVU671
 1415 018e 8A74     		strb	r2, [r1, #18]
 887:Drivers/BSP/Components/vl53l1cb/modules/vl53l1_api_preset_modes.c **** 	phistogram->histogram_config__high_amb_odd_bin_2_3 = 0x32;
 1416              		.loc 1 887 2 is_stmt 1 view .LVU672
 1417              		.loc 1 887 53 is_stmt 0 view .LVU673
 1418 0190 4FF03208 		mov	r8, #50
 1419 0194 81F81380 		strb	r8, [r1, #19]
 888:Drivers/BSP/Components/vl53l1cb/modules/vl53l1_api_preset_modes.c **** 	phistogram->histogram_config__high_amb_odd_bin_4_5 = 0x54;
 1420              		.loc 1 888 2 is_stmt 1 view .LVU674
 1421              		.loc 1 888 53 is_stmt 0 view .LVU675
 1422 0198 81F814A0 		strb	r10, [r1, #20]
 889:Drivers/BSP/Components/vl53l1cb/modules/vl53l1_api_preset_modes.c **** 
 890:Drivers/BSP/Components/vl53l1cb/modules/vl53l1_api_preset_modes.c **** 	phistogram->histogram_config__amb_thresh_low = 0xFFFF;
 1423              		.loc 1 890 2 is_stmt 1 view .LVU676
 1424              		.loc 1 890 47 is_stmt 0 view .LVU677
 1425 019c 4FF6FF78 		movw	r8, #65535
 1426 01a0 A1F81680 		strh	r8, [r1, #22]	@ movhi
 891:Drivers/BSP/Components/vl53l1cb/modules/vl53l1_api_preset_modes.c **** 	phistogram->histogram_config__amb_thresh_high = 0xFFFF;
 1427              		.loc 1 891 2 is_stmt 1 view .LVU678
 1428              		.loc 1 891 48 is_stmt 0 view .LVU679
 1429 01a4 A1F81880 		strh	r8, [r1, #24]	@ movhi
 892:Drivers/BSP/Components/vl53l1cb/modules/vl53l1_api_preset_modes.c **** 
 893:Drivers/BSP/Components/vl53l1cb/modules/vl53l1_api_preset_modes.c **** 	phistogram->histogram_config__spad_array_selection = 0x00;
 1430              		.loc 1 893 2 is_stmt 1 view .LVU680
 1431              		.loc 1 893 53 is_stmt 0 view .LVU681
 1432 01a8 0870     		strb	r0, [r1]
 894:Drivers/BSP/Components/vl53l1cb/modules/vl53l1_api_preset_modes.c **** 
 895:Drivers/BSP/Components/vl53l1cb/modules/vl53l1_api_preset_modes.c **** 
 896:Drivers/BSP/Components/vl53l1cb/modules/vl53l1_api_preset_modes.c **** 	pzone_cfg->max_zones                     = VL53L1_MAX_USER_ZONES;
 1433              		.loc 1 896 2 is_stmt 1 view .LVU682
 1434              		.loc 1 896 43 is_stmt 0 view .LVU683
 1435 01aa 3270     		strb	r2, [r6]
 897:Drivers/BSP/Components/vl53l1cb/modules/vl53l1_api_preset_modes.c **** 	pzone_cfg->active_zones = 0x00;
 1436              		.loc 1 897 2 is_stmt 1 view .LVU684
 1437              		.loc 1 897 26 is_stmt 0 view .LVU685
 1438 01ac 7070     		strb	r0, [r6, #1]
 898:Drivers/BSP/Components/vl53l1cb/modules/vl53l1_api_preset_modes.c **** 	pzone_cfg->user_zones[0].height = 0x0f;
 1439              		.loc 1 898 2 is_stmt 1 view .LVU686
 1440              		.loc 1 898 34 is_stmt 0 view .LVU687
ARM GAS  C:\Temp\ccoVwn9Y.s 			page 42


 1441 01ae 0F22     		movs	r2, #15
 1442 01b0 F277     		strb	r2, [r6, #31]
 899:Drivers/BSP/Components/vl53l1cb/modules/vl53l1_api_preset_modes.c **** 	pzone_cfg->user_zones[0].width = 0x0f;
 1443              		.loc 1 899 2 is_stmt 1 view .LVU688
 1444              		.loc 1 899 33 is_stmt 0 view .LVU689
 1445 01b2 B277     		strb	r2, [r6, #30]
 900:Drivers/BSP/Components/vl53l1cb/modules/vl53l1_api_preset_modes.c **** 	pzone_cfg->user_zones[0].x_centre = 0x08;
 1446              		.loc 1 900 2 is_stmt 1 view .LVU690
 1447              		.loc 1 900 36 is_stmt 0 view .LVU691
 1448 01b4 3777     		strb	r7, [r6, #28]
 901:Drivers/BSP/Components/vl53l1cb/modules/vl53l1_api_preset_modes.c **** 	pzone_cfg->user_zones[0].y_centre = 0x08;
 1449              		.loc 1 901 2 is_stmt 1 view .LVU692
 1450              		.loc 1 901 36 is_stmt 0 view .LVU693
 1451 01b6 7777     		strb	r7, [r6, #29]
 902:Drivers/BSP/Components/vl53l1cb/modules/vl53l1_api_preset_modes.c **** 
 903:Drivers/BSP/Components/vl53l1cb/modules/vl53l1_api_preset_modes.c **** 
 904:Drivers/BSP/Components/vl53l1cb/modules/vl53l1_api_preset_modes.c **** 
 905:Drivers/BSP/Components/vl53l1cb/modules/vl53l1_api_preset_modes.c **** 	pdynamic->system__grouped_parameter_hold_0 = 0x01;
 1452              		.loc 1 905 2 is_stmt 1 view .LVU694
 1453              		.loc 1 905 45 is_stmt 0 view .LVU695
 1454 01b8 84F800C0 		strb	ip, [r4]
 906:Drivers/BSP/Components/vl53l1cb/modules/vl53l1_api_preset_modes.c **** 
 907:Drivers/BSP/Components/vl53l1cb/modules/vl53l1_api_preset_modes.c **** 	pdynamic->system__thresh_high = 0x0000;
 1455              		.loc 1 907 2 is_stmt 1 view .LVU696
 1456              		.loc 1 907 32 is_stmt 0 view .LVU697
 1457 01bc 6080     		strh	r0, [r4, #2]	@ movhi
 908:Drivers/BSP/Components/vl53l1cb/modules/vl53l1_api_preset_modes.c **** 	pdynamic->system__thresh_low = 0x0000;
 1458              		.loc 1 908 2 is_stmt 1 view .LVU698
 1459              		.loc 1 908 31 is_stmt 0 view .LVU699
 1460 01be A080     		strh	r0, [r4, #4]	@ movhi
 909:Drivers/BSP/Components/vl53l1cb/modules/vl53l1_api_preset_modes.c **** 	pdynamic->system__enable_xtalk_per_quadrant = 0x00;
 1461              		.loc 1 909 2 is_stmt 1 view .LVU700
 1462              		.loc 1 909 46 is_stmt 0 view .LVU701
 1463 01c0 A071     		strb	r0, [r4, #6]
 910:Drivers/BSP/Components/vl53l1cb/modules/vl53l1_api_preset_modes.c **** 	pdynamic->system__seed_config =
 1464              		.loc 1 910 2 is_stmt 1 view .LVU702
 911:Drivers/BSP/Components/vl53l1cb/modules/vl53l1_api_preset_modes.c **** 			ptuning_parms->tp_lite_seed_cfg;
 1465              		.loc 1 911 17 is_stmt 0 view .LVU703
 1466 01c2 95F82720 		ldrb	r2, [r5, #39]	@ zero_extendqisi2
 910:Drivers/BSP/Components/vl53l1cb/modules/vl53l1_api_preset_modes.c **** 	pdynamic->system__seed_config =
 1467              		.loc 1 910 32 view .LVU704
 1468 01c6 E271     		strb	r2, [r4, #7]
 912:Drivers/BSP/Components/vl53l1cb/modules/vl53l1_api_preset_modes.c **** 
 913:Drivers/BSP/Components/vl53l1cb/modules/vl53l1_api_preset_modes.c **** 
 914:Drivers/BSP/Components/vl53l1cb/modules/vl53l1_api_preset_modes.c **** 	pdynamic->sd_config__woi_sd0 = 0x0B;
 1469              		.loc 1 914 2 is_stmt 1 view .LVU705
 1470              		.loc 1 914 31 is_stmt 0 view .LVU706
 1471 01c8 84F808B0 		strb	fp, [r4, #8]
 915:Drivers/BSP/Components/vl53l1cb/modules/vl53l1_api_preset_modes.c **** 
 916:Drivers/BSP/Components/vl53l1cb/modules/vl53l1_api_preset_modes.c **** 	pdynamic->sd_config__woi_sd1 = 0x09;
 1472              		.loc 1 916 2 is_stmt 1 view .LVU707
 1473              		.loc 1 916 31 is_stmt 0 view .LVU708
 1474 01cc 4FF00902 		mov	r2, #9
 1475 01d0 6272     		strb	r2, [r4, #9]
 917:Drivers/BSP/Components/vl53l1cb/modules/vl53l1_api_preset_modes.c **** 
 918:Drivers/BSP/Components/vl53l1cb/modules/vl53l1_api_preset_modes.c **** 	pdynamic->sd_config__initial_phase_sd0                     =
 1476              		.loc 1 918 2 is_stmt 1 view .LVU709
ARM GAS  C:\Temp\ccoVwn9Y.s 			page 43


 919:Drivers/BSP/Components/vl53l1cb/modules/vl53l1_api_preset_modes.c **** 			ptuning_parms->tp_init_phase_rtn_lite_med;
 1477              		.loc 1 919 17 is_stmt 0 view .LVU710
 1478 01d2 EA79     		ldrb	r2, [r5, #7]	@ zero_extendqisi2
 918:Drivers/BSP/Components/vl53l1cb/modules/vl53l1_api_preset_modes.c **** 			ptuning_parms->tp_init_phase_rtn_lite_med;
 1479              		.loc 1 918 61 view .LVU711
 1480 01d4 A272     		strb	r2, [r4, #10]
 920:Drivers/BSP/Components/vl53l1cb/modules/vl53l1_api_preset_modes.c **** 	pdynamic->sd_config__initial_phase_sd1                     =
 1481              		.loc 1 920 2 is_stmt 1 view .LVU712
 921:Drivers/BSP/Components/vl53l1cb/modules/vl53l1_api_preset_modes.c **** 			ptuning_parms->tp_init_phase_ref_lite_med;
 1482              		.loc 1 921 17 is_stmt 0 view .LVU713
 1483 01d6 AA7A     		ldrb	r2, [r5, #10]	@ zero_extendqisi2
 920:Drivers/BSP/Components/vl53l1cb/modules/vl53l1_api_preset_modes.c **** 	pdynamic->sd_config__initial_phase_sd1                     =
 1484              		.loc 1 920 61 view .LVU714
 1485 01d8 E272     		strb	r2, [r4, #11]
 922:Drivers/BSP/Components/vl53l1cb/modules/vl53l1_api_preset_modes.c **** 
 923:Drivers/BSP/Components/vl53l1cb/modules/vl53l1_api_preset_modes.c **** 	pdynamic->system__grouped_parameter_hold_1 = 0x01;
 1486              		.loc 1 923 2 is_stmt 1 view .LVU715
 1487              		.loc 1 923 45 is_stmt 0 view .LVU716
 1488 01da 84F80CC0 		strb	ip, [r4, #12]
 924:Drivers/BSP/Components/vl53l1cb/modules/vl53l1_api_preset_modes.c **** 
 925:Drivers/BSP/Components/vl53l1cb/modules/vl53l1_api_preset_modes.c **** 
 926:Drivers/BSP/Components/vl53l1cb/modules/vl53l1_api_preset_modes.c **** 
 927:Drivers/BSP/Components/vl53l1cb/modules/vl53l1_api_preset_modes.c **** 	pdynamic->sd_config__first_order_select =
 1489              		.loc 1 927 2 is_stmt 1 view .LVU717
 928:Drivers/BSP/Components/vl53l1cb/modules/vl53l1_api_preset_modes.c **** 			ptuning_parms->tp_lite_first_order_select;
 1490              		.loc 1 928 17 is_stmt 0 view .LVU718
 1491 01de 95F82A20 		ldrb	r2, [r5, #42]	@ zero_extendqisi2
 927:Drivers/BSP/Components/vl53l1cb/modules/vl53l1_api_preset_modes.c **** 			ptuning_parms->tp_lite_first_order_select;
 1492              		.loc 1 927 42 view .LVU719
 1493 01e2 6273     		strb	r2, [r4, #13]
 929:Drivers/BSP/Components/vl53l1cb/modules/vl53l1_api_preset_modes.c **** 	pdynamic->sd_config__quantifier         =
 1494              		.loc 1 929 2 is_stmt 1 view .LVU720
 930:Drivers/BSP/Components/vl53l1cb/modules/vl53l1_api_preset_modes.c **** 			ptuning_parms->tp_lite_quantifier;
 1495              		.loc 1 930 17 is_stmt 0 view .LVU721
 1496 01e4 95F82920 		ldrb	r2, [r5, #41]	@ zero_extendqisi2
 929:Drivers/BSP/Components/vl53l1cb/modules/vl53l1_api_preset_modes.c **** 	pdynamic->sd_config__quantifier         =
 1497              		.loc 1 929 42 view .LVU722
 1498 01e8 A273     		strb	r2, [r4, #14]
 931:Drivers/BSP/Components/vl53l1cb/modules/vl53l1_api_preset_modes.c **** 
 932:Drivers/BSP/Components/vl53l1cb/modules/vl53l1_api_preset_modes.c **** 
 933:Drivers/BSP/Components/vl53l1cb/modules/vl53l1_api_preset_modes.c **** 	pdynamic->roi_config__user_roi_centre_spad = 0xC7;
 1499              		.loc 1 933 2 is_stmt 1 view .LVU723
 1500              		.loc 1 933 45 is_stmt 0 view .LVU724
 1501 01ea C722     		movs	r2, #199
 1502 01ec E273     		strb	r2, [r4, #15]
 934:Drivers/BSP/Components/vl53l1cb/modules/vl53l1_api_preset_modes.c **** 
 935:Drivers/BSP/Components/vl53l1cb/modules/vl53l1_api_preset_modes.c **** 	pdynamic->roi_config__user_roi_requested_global_xy_size = 0xFF;
 1503              		.loc 1 935 2 is_stmt 1 view .LVU725
 1504              		.loc 1 935 58 is_stmt 0 view .LVU726
 1505 01ee 84F81080 		strb	r8, [r4, #16]
 936:Drivers/BSP/Components/vl53l1cb/modules/vl53l1_api_preset_modes.c **** 
 937:Drivers/BSP/Components/vl53l1cb/modules/vl53l1_api_preset_modes.c **** 
 938:Drivers/BSP/Components/vl53l1cb/modules/vl53l1_api_preset_modes.c **** 	pdynamic->system__sequence_config                          =
 1506              		.loc 1 938 2 is_stmt 1 view .LVU727
 1507              		.loc 1 938 61 is_stmt 0 view .LVU728
 1508 01f2 DB22     		movs	r2, #219
 1509 01f4 6274     		strb	r2, [r4, #17]
ARM GAS  C:\Temp\ccoVwn9Y.s 			page 44


 939:Drivers/BSP/Components/vl53l1cb/modules/vl53l1_api_preset_modes.c **** 			VL53L1_SEQUENCE_VHV_EN |
 940:Drivers/BSP/Components/vl53l1cb/modules/vl53l1_api_preset_modes.c **** 			VL53L1_SEQUENCE_PHASECAL_EN |
 941:Drivers/BSP/Components/vl53l1cb/modules/vl53l1_api_preset_modes.c **** 			VL53L1_SEQUENCE_DSS1_EN |
 942:Drivers/BSP/Components/vl53l1cb/modules/vl53l1_api_preset_modes.c **** 			VL53L1_SEQUENCE_DSS2_EN |
 943:Drivers/BSP/Components/vl53l1cb/modules/vl53l1_api_preset_modes.c **** 			VL53L1_SEQUENCE_MM2_EN |
 944:Drivers/BSP/Components/vl53l1cb/modules/vl53l1_api_preset_modes.c **** 			VL53L1_SEQUENCE_RANGE_EN;
 945:Drivers/BSP/Components/vl53l1cb/modules/vl53l1_api_preset_modes.c **** 
 946:Drivers/BSP/Components/vl53l1cb/modules/vl53l1_api_preset_modes.c **** 	pdynamic->system__grouped_parameter_hold = 0x02;
 1510              		.loc 1 946 2 is_stmt 1 view .LVU729
 1511              		.loc 1 946 43 is_stmt 0 view .LVU730
 1512 01f6 84F812E0 		strb	lr, [r4, #18]
 947:Drivers/BSP/Components/vl53l1cb/modules/vl53l1_api_preset_modes.c **** 
 948:Drivers/BSP/Components/vl53l1cb/modules/vl53l1_api_preset_modes.c **** 
 949:Drivers/BSP/Components/vl53l1cb/modules/vl53l1_api_preset_modes.c **** 
 950:Drivers/BSP/Components/vl53l1cb/modules/vl53l1_api_preset_modes.c **** 
 951:Drivers/BSP/Components/vl53l1cb/modules/vl53l1_api_preset_modes.c **** 	psystem->system__stream_count_ctrl = 0x00;
 1513              		.loc 1 951 2 is_stmt 1 view .LVU731
 1514              		.loc 1 951 37 is_stmt 0 view .LVU732
 1515 01fa 0A9A     		ldr	r2, [sp, #40]
 1516 01fc 5070     		strb	r0, [r2, #1]
 952:Drivers/BSP/Components/vl53l1cb/modules/vl53l1_api_preset_modes.c **** 	psystem->firmware__enable = 0x01;
 1517              		.loc 1 952 2 is_stmt 1 view .LVU733
 1518              		.loc 1 952 28 is_stmt 0 view .LVU734
 1519 01fe 82F802C0 		strb	ip, [r2, #2]
 953:Drivers/BSP/Components/vl53l1cb/modules/vl53l1_api_preset_modes.c **** 	psystem->system__interrupt_clear                           =
 1520              		.loc 1 953 2 is_stmt 1 view .LVU735
 1521              		.loc 1 953 61 is_stmt 0 view .LVU736
 1522 0202 82F803C0 		strb	ip, [r2, #3]
 954:Drivers/BSP/Components/vl53l1cb/modules/vl53l1_api_preset_modes.c **** 			VL53L1_CLEAR_RANGE_INT;
 955:Drivers/BSP/Components/vl53l1cb/modules/vl53l1_api_preset_modes.c **** 
 956:Drivers/BSP/Components/vl53l1cb/modules/vl53l1_api_preset_modes.c **** 	psystem->system__mode_start                                =
 1523              		.loc 1 956 2 is_stmt 1 view .LVU737
 1524              		.loc 1 956 61 is_stmt 0 view .LVU738
 1525 0206 1371     		strb	r3, [r2, #4]
 957:Drivers/BSP/Components/vl53l1cb/modules/vl53l1_api_preset_modes.c **** 			VL53L1_DEVICESCHEDULERMODE_STREAMING |
 958:Drivers/BSP/Components/vl53l1cb/modules/vl53l1_api_preset_modes.c **** 			VL53L1_DEVICEREADOUTMODE_SINGLE_SD |
 959:Drivers/BSP/Components/vl53l1cb/modules/vl53l1_api_preset_modes.c **** 			VL53L1_DEVICEMEASUREMENTMODE_BACKTOBACK;
 960:Drivers/BSP/Components/vl53l1cb/modules/vl53l1_api_preset_modes.c **** 
 961:Drivers/BSP/Components/vl53l1cb/modules/vl53l1_api_preset_modes.c **** 	LOG_FUNCTION_END(status);
 1526              		.loc 1 961 26 is_stmt 1 view .LVU739
 962:Drivers/BSP/Components/vl53l1cb/modules/vl53l1_api_preset_modes.c **** 
 963:Drivers/BSP/Components/vl53l1cb/modules/vl53l1_api_preset_modes.c **** 	return status;
 1527              		.loc 1 963 2 view .LVU740
 964:Drivers/BSP/Components/vl53l1cb/modules/vl53l1_api_preset_modes.c **** }
 1528              		.loc 1 964 1 is_stmt 0 view .LVU741
 1529 0208 BDE8F08F 		pop	{r4, r5, r6, r7, r8, r9, r10, fp, pc}
 1530              		.loc 1 964 1 view .LVU742
 1531              		.cfi_endproc
 1532              	.LFE13:
 1534              		.section	.text.VL53L1_preset_mode_standard_ranging_short_range,"ax",%progbits
 1535              		.align	1
 1536              		.global	VL53L1_preset_mode_standard_ranging_short_range
 1537              		.syntax unified
 1538              		.thumb
 1539              		.thumb_func
 1541              	VL53L1_preset_mode_standard_ranging_short_range:
 1542              	.LVL34:
ARM GAS  C:\Temp\ccoVwn9Y.s 			page 45


 1543              	.LFB14:
 965:Drivers/BSP/Components/vl53l1cb/modules/vl53l1_api_preset_modes.c **** 
 966:Drivers/BSP/Components/vl53l1cb/modules/vl53l1_api_preset_modes.c **** 
 967:Drivers/BSP/Components/vl53l1cb/modules/vl53l1_api_preset_modes.c **** VL53L1_Error VL53L1_preset_mode_standard_ranging_short_range(
 968:Drivers/BSP/Components/vl53l1cb/modules/vl53l1_api_preset_modes.c **** 	VL53L1_static_config_t    *pstatic,
 969:Drivers/BSP/Components/vl53l1cb/modules/vl53l1_api_preset_modes.c **** 	VL53L1_histogram_config_t *phistogram,
 970:Drivers/BSP/Components/vl53l1cb/modules/vl53l1_api_preset_modes.c **** 	VL53L1_general_config_t   *pgeneral,
 971:Drivers/BSP/Components/vl53l1cb/modules/vl53l1_api_preset_modes.c **** 	VL53L1_timing_config_t    *ptiming,
 972:Drivers/BSP/Components/vl53l1cb/modules/vl53l1_api_preset_modes.c **** 	VL53L1_dynamic_config_t   *pdynamic,
 973:Drivers/BSP/Components/vl53l1cb/modules/vl53l1_api_preset_modes.c **** 	VL53L1_system_control_t   *psystem,
 974:Drivers/BSP/Components/vl53l1cb/modules/vl53l1_api_preset_modes.c **** 	VL53L1_tuning_parm_storage_t *ptuning_parms,
 975:Drivers/BSP/Components/vl53l1cb/modules/vl53l1_api_preset_modes.c **** 	VL53L1_zone_config_t      *pzone_cfg)
 976:Drivers/BSP/Components/vl53l1cb/modules/vl53l1_api_preset_modes.c **** {
 1544              		.loc 1 976 1 is_stmt 1 view -0
 1545              		.cfi_startproc
 1546              		@ args = 16, pretend = 0, frame = 0
 1547              		@ frame_needed = 0, uses_anonymous_args = 0
 1548              		.loc 1 976 1 is_stmt 0 view .LVU744
 1549 0000 F0B5     		push	{r4, r5, r6, r7, lr}
 1550              		.cfi_def_cfa_offset 20
 1551              		.cfi_offset 4, -20
 1552              		.cfi_offset 5, -16
 1553              		.cfi_offset 6, -12
 1554              		.cfi_offset 7, -8
 1555              		.cfi_offset 14, -4
 1556 0002 85B0     		sub	sp, sp, #20
 1557              		.cfi_def_cfa_offset 40
 1558 0004 1C46     		mov	r4, r3
 1559 0006 0A9D     		ldr	r5, [sp, #40]
 1560 0008 0C9E     		ldr	r6, [sp, #48]
 977:Drivers/BSP/Components/vl53l1cb/modules/vl53l1_api_preset_modes.c **** 
 978:Drivers/BSP/Components/vl53l1cb/modules/vl53l1_api_preset_modes.c **** 
 979:Drivers/BSP/Components/vl53l1cb/modules/vl53l1_api_preset_modes.c **** 	VL53L1_Error  status = VL53L1_ERROR_NONE;
 1561              		.loc 1 979 2 is_stmt 1 view .LVU745
 1562              	.LVL35:
 980:Drivers/BSP/Components/vl53l1cb/modules/vl53l1_api_preset_modes.c **** 
 981:Drivers/BSP/Components/vl53l1cb/modules/vl53l1_api_preset_modes.c **** 	LOG_FUNCTION_START("");
 1563              		.loc 1 981 24 view .LVU746
 982:Drivers/BSP/Components/vl53l1cb/modules/vl53l1_api_preset_modes.c **** 
 983:Drivers/BSP/Components/vl53l1cb/modules/vl53l1_api_preset_modes.c **** 
 984:Drivers/BSP/Components/vl53l1cb/modules/vl53l1_api_preset_modes.c **** 
 985:Drivers/BSP/Components/vl53l1cb/modules/vl53l1_api_preset_modes.c **** 	status = VL53L1_preset_mode_standard_ranging(
 1564              		.loc 1 985 2 view .LVU747
 1565              		.loc 1 985 11 is_stmt 0 view .LVU748
 1566 000a 0D9F     		ldr	r7, [sp, #52]
 1567 000c 0397     		str	r7, [sp, #12]
 1568 000e 0296     		str	r6, [sp, #8]
 1569 0010 0B9F     		ldr	r7, [sp, #44]
 1570 0012 0197     		str	r7, [sp, #4]
 1571 0014 0095     		str	r5, [sp]
 1572 0016 FFF7FEFF 		bl	VL53L1_preset_mode_standard_ranging
 1573              	.LVL36:
 986:Drivers/BSP/Components/vl53l1cb/modules/vl53l1_api_preset_modes.c **** 		pstatic,
 987:Drivers/BSP/Components/vl53l1cb/modules/vl53l1_api_preset_modes.c **** 		phistogram,
 988:Drivers/BSP/Components/vl53l1cb/modules/vl53l1_api_preset_modes.c **** 		pgeneral,
 989:Drivers/BSP/Components/vl53l1cb/modules/vl53l1_api_preset_modes.c **** 		ptiming,
 990:Drivers/BSP/Components/vl53l1cb/modules/vl53l1_api_preset_modes.c **** 		pdynamic,
ARM GAS  C:\Temp\ccoVwn9Y.s 			page 46


 991:Drivers/BSP/Components/vl53l1cb/modules/vl53l1_api_preset_modes.c **** 		psystem,
 992:Drivers/BSP/Components/vl53l1cb/modules/vl53l1_api_preset_modes.c **** 		ptuning_parms,
 993:Drivers/BSP/Components/vl53l1cb/modules/vl53l1_api_preset_modes.c **** 		pzone_cfg);
 994:Drivers/BSP/Components/vl53l1cb/modules/vl53l1_api_preset_modes.c **** 
 995:Drivers/BSP/Components/vl53l1cb/modules/vl53l1_api_preset_modes.c **** 
 996:Drivers/BSP/Components/vl53l1cb/modules/vl53l1_api_preset_modes.c **** 
 997:Drivers/BSP/Components/vl53l1cb/modules/vl53l1_api_preset_modes.c **** 	if (status == VL53L1_ERROR_NONE) {
 1574              		.loc 1 997 2 is_stmt 1 view .LVU749
 1575              		.loc 1 997 5 is_stmt 0 view .LVU750
 1576 001a 88B9     		cbnz	r0, .L22
 998:Drivers/BSP/Components/vl53l1cb/modules/vl53l1_api_preset_modes.c **** 
 999:Drivers/BSP/Components/vl53l1cb/modules/vl53l1_api_preset_modes.c **** 
1000:Drivers/BSP/Components/vl53l1cb/modules/vl53l1_api_preset_modes.c **** 
1001:Drivers/BSP/Components/vl53l1cb/modules/vl53l1_api_preset_modes.c **** 		ptiming->range_config__vcsel_period_a = 0x07;
 1577              		.loc 1 1001 3 is_stmt 1 view .LVU751
 1578              		.loc 1 1001 41 is_stmt 0 view .LVU752
 1579 001c 0722     		movs	r2, #7
 1580 001e A271     		strb	r2, [r4, #6]
1002:Drivers/BSP/Components/vl53l1cb/modules/vl53l1_api_preset_modes.c **** 		ptiming->range_config__vcsel_period_b = 0x05;
 1581              		.loc 1 1002 3 is_stmt 1 view .LVU753
 1582              		.loc 1 1002 41 is_stmt 0 view .LVU754
 1583 0020 0523     		movs	r3, #5
 1584 0022 6372     		strb	r3, [r4, #9]
1003:Drivers/BSP/Components/vl53l1cb/modules/vl53l1_api_preset_modes.c **** 		ptiming->range_config__sigma_thresh                  =
 1585              		.loc 1 1003 3 is_stmt 1 view .LVU755
1004:Drivers/BSP/Components/vl53l1cb/modules/vl53l1_api_preset_modes.c **** 				ptuning_parms->tp_lite_short_sigma_thresh_mm;
 1586              		.loc 1 1004 18 is_stmt 0 view .LVU756
 1587 0024 B18B     		ldrh	r1, [r6, #28]
1003:Drivers/BSP/Components/vl53l1cb/modules/vl53l1_api_preset_modes.c **** 		ptiming->range_config__sigma_thresh                  =
 1588              		.loc 1 1003 56 view .LVU757
 1589 0026 6181     		strh	r1, [r4, #10]	@ movhi
1005:Drivers/BSP/Components/vl53l1cb/modules/vl53l1_api_preset_modes.c **** 		ptiming->range_config__min_count_rate_rtn_limit_mcps =
 1590              		.loc 1 1005 3 is_stmt 1 view .LVU758
1006:Drivers/BSP/Components/vl53l1cb/modules/vl53l1_api_preset_modes.c **** 			ptuning_parms->tp_lite_short_min_count_rate_rtn_mcps;
 1591              		.loc 1 1006 17 is_stmt 0 view .LVU759
 1592 0028 718C     		ldrh	r1, [r6, #34]
1005:Drivers/BSP/Components/vl53l1cb/modules/vl53l1_api_preset_modes.c **** 		ptiming->range_config__min_count_rate_rtn_limit_mcps =
 1593              		.loc 1 1005 56 view .LVU760
 1594 002a A181     		strh	r1, [r4, #12]	@ movhi
1007:Drivers/BSP/Components/vl53l1cb/modules/vl53l1_api_preset_modes.c **** 		ptiming->range_config__valid_phase_low = 0x08;
 1595              		.loc 1 1007 3 is_stmt 1 view .LVU761
 1596              		.loc 1 1007 42 is_stmt 0 view .LVU762
 1597 002c 0821     		movs	r1, #8
 1598 002e A173     		strb	r1, [r4, #14]
1008:Drivers/BSP/Components/vl53l1cb/modules/vl53l1_api_preset_modes.c **** 		ptiming->range_config__valid_phase_high = 0x38;
 1599              		.loc 1 1008 3 is_stmt 1 view .LVU763
 1600              		.loc 1 1008 43 is_stmt 0 view .LVU764
 1601 0030 3821     		movs	r1, #56
 1602 0032 E173     		strb	r1, [r4, #15]
1009:Drivers/BSP/Components/vl53l1cb/modules/vl53l1_api_preset_modes.c **** 
1010:Drivers/BSP/Components/vl53l1cb/modules/vl53l1_api_preset_modes.c **** 
1011:Drivers/BSP/Components/vl53l1cb/modules/vl53l1_api_preset_modes.c **** 
1012:Drivers/BSP/Components/vl53l1cb/modules/vl53l1_api_preset_modes.c **** 		pdynamic->sd_config__woi_sd0 = 0x07;
 1603              		.loc 1 1012 3 is_stmt 1 view .LVU765
 1604              		.loc 1 1012 32 is_stmt 0 view .LVU766
 1605 0034 2A72     		strb	r2, [r5, #8]
1013:Drivers/BSP/Components/vl53l1cb/modules/vl53l1_api_preset_modes.c **** 		pdynamic->sd_config__woi_sd1 = 0x05;
ARM GAS  C:\Temp\ccoVwn9Y.s 			page 47


 1606              		.loc 1 1013 3 is_stmt 1 view .LVU767
 1607              		.loc 1 1013 32 is_stmt 0 view .LVU768
 1608 0036 6B72     		strb	r3, [r5, #9]
1014:Drivers/BSP/Components/vl53l1cb/modules/vl53l1_api_preset_modes.c **** 		pdynamic->sd_config__initial_phase_sd0               =
 1609              		.loc 1 1014 3 is_stmt 1 view .LVU769
1015:Drivers/BSP/Components/vl53l1cb/modules/vl53l1_api_preset_modes.c **** 				ptuning_parms->tp_init_phase_rtn_lite_short;
 1610              		.loc 1 1015 18 is_stmt 0 view .LVU770
 1611 0038 337A     		ldrb	r3, [r6, #8]	@ zero_extendqisi2
1014:Drivers/BSP/Components/vl53l1cb/modules/vl53l1_api_preset_modes.c **** 		pdynamic->sd_config__initial_phase_sd0               =
 1612              		.loc 1 1014 56 view .LVU771
 1613 003a AB72     		strb	r3, [r5, #10]
1016:Drivers/BSP/Components/vl53l1cb/modules/vl53l1_api_preset_modes.c **** 		pdynamic->sd_config__initial_phase_sd1               =
 1614              		.loc 1 1016 3 is_stmt 1 view .LVU772
1017:Drivers/BSP/Components/vl53l1cb/modules/vl53l1_api_preset_modes.c **** 				ptuning_parms->tp_init_phase_ref_lite_short;
 1615              		.loc 1 1017 18 is_stmt 0 view .LVU773
 1616 003c F37A     		ldrb	r3, [r6, #11]	@ zero_extendqisi2
1016:Drivers/BSP/Components/vl53l1cb/modules/vl53l1_api_preset_modes.c **** 		pdynamic->sd_config__initial_phase_sd1               =
 1617              		.loc 1 1016 56 view .LVU774
 1618 003e EB72     		strb	r3, [r5, #11]
 1619              	.L22:
1018:Drivers/BSP/Components/vl53l1cb/modules/vl53l1_api_preset_modes.c **** 	}
1019:Drivers/BSP/Components/vl53l1cb/modules/vl53l1_api_preset_modes.c **** 
1020:Drivers/BSP/Components/vl53l1cb/modules/vl53l1_api_preset_modes.c **** 	LOG_FUNCTION_END(status);
 1620              		.loc 1 1020 26 is_stmt 1 view .LVU775
1021:Drivers/BSP/Components/vl53l1cb/modules/vl53l1_api_preset_modes.c **** 
1022:Drivers/BSP/Components/vl53l1cb/modules/vl53l1_api_preset_modes.c **** 	return status;
 1621              		.loc 1 1022 2 view .LVU776
1023:Drivers/BSP/Components/vl53l1cb/modules/vl53l1_api_preset_modes.c **** }
 1622              		.loc 1 1023 1 is_stmt 0 view .LVU777
 1623 0040 05B0     		add	sp, sp, #20
 1624              		.cfi_def_cfa_offset 20
 1625              		@ sp needed
 1626 0042 F0BD     		pop	{r4, r5, r6, r7, pc}
 1627              		.loc 1 1023 1 view .LVU778
 1628              		.cfi_endproc
 1629              	.LFE14:
 1631              		.section	.text.VL53L1_preset_mode_standard_ranging_long_range,"ax",%progbits
 1632              		.align	1
 1633              		.global	VL53L1_preset_mode_standard_ranging_long_range
 1634              		.syntax unified
 1635              		.thumb
 1636              		.thumb_func
 1638              	VL53L1_preset_mode_standard_ranging_long_range:
 1639              	.LVL37:
 1640              	.LFB15:
1024:Drivers/BSP/Components/vl53l1cb/modules/vl53l1_api_preset_modes.c **** 
1025:Drivers/BSP/Components/vl53l1cb/modules/vl53l1_api_preset_modes.c **** 
1026:Drivers/BSP/Components/vl53l1cb/modules/vl53l1_api_preset_modes.c **** VL53L1_Error VL53L1_preset_mode_standard_ranging_long_range(
1027:Drivers/BSP/Components/vl53l1cb/modules/vl53l1_api_preset_modes.c **** 	VL53L1_static_config_t    *pstatic,
1028:Drivers/BSP/Components/vl53l1cb/modules/vl53l1_api_preset_modes.c **** 	VL53L1_histogram_config_t *phistogram,
1029:Drivers/BSP/Components/vl53l1cb/modules/vl53l1_api_preset_modes.c **** 	VL53L1_general_config_t   *pgeneral,
1030:Drivers/BSP/Components/vl53l1cb/modules/vl53l1_api_preset_modes.c **** 	VL53L1_timing_config_t    *ptiming,
1031:Drivers/BSP/Components/vl53l1cb/modules/vl53l1_api_preset_modes.c **** 	VL53L1_dynamic_config_t   *pdynamic,
1032:Drivers/BSP/Components/vl53l1cb/modules/vl53l1_api_preset_modes.c **** 	VL53L1_system_control_t   *psystem,
1033:Drivers/BSP/Components/vl53l1cb/modules/vl53l1_api_preset_modes.c **** 	VL53L1_tuning_parm_storage_t *ptuning_parms,
1034:Drivers/BSP/Components/vl53l1cb/modules/vl53l1_api_preset_modes.c **** 	VL53L1_zone_config_t      *pzone_cfg)
1035:Drivers/BSP/Components/vl53l1cb/modules/vl53l1_api_preset_modes.c **** {
ARM GAS  C:\Temp\ccoVwn9Y.s 			page 48


 1641              		.loc 1 1035 1 is_stmt 1 view -0
 1642              		.cfi_startproc
 1643              		@ args = 16, pretend = 0, frame = 0
 1644              		@ frame_needed = 0, uses_anonymous_args = 0
 1645              		.loc 1 1035 1 is_stmt 0 view .LVU780
 1646 0000 F0B5     		push	{r4, r5, r6, r7, lr}
 1647              		.cfi_def_cfa_offset 20
 1648              		.cfi_offset 4, -20
 1649              		.cfi_offset 5, -16
 1650              		.cfi_offset 6, -12
 1651              		.cfi_offset 7, -8
 1652              		.cfi_offset 14, -4
 1653 0002 85B0     		sub	sp, sp, #20
 1654              		.cfi_def_cfa_offset 40
 1655 0004 1C46     		mov	r4, r3
 1656 0006 0A9D     		ldr	r5, [sp, #40]
 1657 0008 0C9E     		ldr	r6, [sp, #48]
1036:Drivers/BSP/Components/vl53l1cb/modules/vl53l1_api_preset_modes.c **** 
1037:Drivers/BSP/Components/vl53l1cb/modules/vl53l1_api_preset_modes.c **** 
1038:Drivers/BSP/Components/vl53l1cb/modules/vl53l1_api_preset_modes.c **** 	VL53L1_Error  status = VL53L1_ERROR_NONE;
 1658              		.loc 1 1038 2 is_stmt 1 view .LVU781
 1659              	.LVL38:
1039:Drivers/BSP/Components/vl53l1cb/modules/vl53l1_api_preset_modes.c **** 
1040:Drivers/BSP/Components/vl53l1cb/modules/vl53l1_api_preset_modes.c **** 	LOG_FUNCTION_START("");
 1660              		.loc 1 1040 24 view .LVU782
1041:Drivers/BSP/Components/vl53l1cb/modules/vl53l1_api_preset_modes.c **** 
1042:Drivers/BSP/Components/vl53l1cb/modules/vl53l1_api_preset_modes.c **** 
1043:Drivers/BSP/Components/vl53l1cb/modules/vl53l1_api_preset_modes.c **** 
1044:Drivers/BSP/Components/vl53l1cb/modules/vl53l1_api_preset_modes.c **** 	status = VL53L1_preset_mode_standard_ranging(
 1661              		.loc 1 1044 2 view .LVU783
 1662              		.loc 1 1044 11 is_stmt 0 view .LVU784
 1663 000a 0D9F     		ldr	r7, [sp, #52]
 1664 000c 0397     		str	r7, [sp, #12]
 1665 000e 0296     		str	r6, [sp, #8]
 1666 0010 0B9F     		ldr	r7, [sp, #44]
 1667 0012 0197     		str	r7, [sp, #4]
 1668 0014 0095     		str	r5, [sp]
 1669 0016 FFF7FEFF 		bl	VL53L1_preset_mode_standard_ranging
 1670              	.LVL39:
1045:Drivers/BSP/Components/vl53l1cb/modules/vl53l1_api_preset_modes.c **** 		pstatic,
1046:Drivers/BSP/Components/vl53l1cb/modules/vl53l1_api_preset_modes.c **** 		phistogram,
1047:Drivers/BSP/Components/vl53l1cb/modules/vl53l1_api_preset_modes.c **** 		pgeneral,
1048:Drivers/BSP/Components/vl53l1cb/modules/vl53l1_api_preset_modes.c **** 		ptiming,
1049:Drivers/BSP/Components/vl53l1cb/modules/vl53l1_api_preset_modes.c **** 		pdynamic,
1050:Drivers/BSP/Components/vl53l1cb/modules/vl53l1_api_preset_modes.c **** 		psystem,
1051:Drivers/BSP/Components/vl53l1cb/modules/vl53l1_api_preset_modes.c **** 		ptuning_parms,
1052:Drivers/BSP/Components/vl53l1cb/modules/vl53l1_api_preset_modes.c **** 		pzone_cfg);
1053:Drivers/BSP/Components/vl53l1cb/modules/vl53l1_api_preset_modes.c **** 
1054:Drivers/BSP/Components/vl53l1cb/modules/vl53l1_api_preset_modes.c **** 
1055:Drivers/BSP/Components/vl53l1cb/modules/vl53l1_api_preset_modes.c **** 
1056:Drivers/BSP/Components/vl53l1cb/modules/vl53l1_api_preset_modes.c **** 	if (status == VL53L1_ERROR_NONE) {
 1671              		.loc 1 1056 2 is_stmt 1 view .LVU785
 1672              		.loc 1 1056 5 is_stmt 0 view .LVU786
 1673 001a 88B9     		cbnz	r0, .L25
1057:Drivers/BSP/Components/vl53l1cb/modules/vl53l1_api_preset_modes.c **** 
1058:Drivers/BSP/Components/vl53l1cb/modules/vl53l1_api_preset_modes.c **** 
1059:Drivers/BSP/Components/vl53l1cb/modules/vl53l1_api_preset_modes.c **** 
ARM GAS  C:\Temp\ccoVwn9Y.s 			page 49


1060:Drivers/BSP/Components/vl53l1cb/modules/vl53l1_api_preset_modes.c **** 		ptiming->range_config__vcsel_period_a = 0x0F;
 1674              		.loc 1 1060 3 is_stmt 1 view .LVU787
 1675              		.loc 1 1060 41 is_stmt 0 view .LVU788
 1676 001c 0F22     		movs	r2, #15
 1677 001e A271     		strb	r2, [r4, #6]
1061:Drivers/BSP/Components/vl53l1cb/modules/vl53l1_api_preset_modes.c **** 		ptiming->range_config__vcsel_period_b = 0x0D;
 1678              		.loc 1 1061 3 is_stmt 1 view .LVU789
 1679              		.loc 1 1061 41 is_stmt 0 view .LVU790
 1680 0020 0D23     		movs	r3, #13
 1681 0022 6372     		strb	r3, [r4, #9]
1062:Drivers/BSP/Components/vl53l1cb/modules/vl53l1_api_preset_modes.c **** 		ptiming->range_config__sigma_thresh                  =
 1682              		.loc 1 1062 3 is_stmt 1 view .LVU791
1063:Drivers/BSP/Components/vl53l1cb/modules/vl53l1_api_preset_modes.c **** 				ptuning_parms->tp_lite_long_sigma_thresh_mm;
 1683              		.loc 1 1063 18 is_stmt 0 view .LVU792
 1684 0024 318B     		ldrh	r1, [r6, #24]
1062:Drivers/BSP/Components/vl53l1cb/modules/vl53l1_api_preset_modes.c **** 		ptiming->range_config__sigma_thresh                  =
 1685              		.loc 1 1062 56 view .LVU793
 1686 0026 6181     		strh	r1, [r4, #10]	@ movhi
1064:Drivers/BSP/Components/vl53l1cb/modules/vl53l1_api_preset_modes.c **** 		ptiming->range_config__min_count_rate_rtn_limit_mcps =
 1687              		.loc 1 1064 3 is_stmt 1 view .LVU794
1065:Drivers/BSP/Components/vl53l1cb/modules/vl53l1_api_preset_modes.c **** 			ptuning_parms->tp_lite_long_min_count_rate_rtn_mcps;
 1688              		.loc 1 1065 17 is_stmt 0 view .LVU795
 1689 0028 F18B     		ldrh	r1, [r6, #30]
1064:Drivers/BSP/Components/vl53l1cb/modules/vl53l1_api_preset_modes.c **** 		ptiming->range_config__min_count_rate_rtn_limit_mcps =
 1690              		.loc 1 1064 56 view .LVU796
 1691 002a A181     		strh	r1, [r4, #12]	@ movhi
1066:Drivers/BSP/Components/vl53l1cb/modules/vl53l1_api_preset_modes.c **** 		ptiming->range_config__valid_phase_low = 0x08;
 1692              		.loc 1 1066 3 is_stmt 1 view .LVU797
 1693              		.loc 1 1066 42 is_stmt 0 view .LVU798
 1694 002c 0821     		movs	r1, #8
 1695 002e A173     		strb	r1, [r4, #14]
1067:Drivers/BSP/Components/vl53l1cb/modules/vl53l1_api_preset_modes.c **** 		ptiming->range_config__valid_phase_high = 0xB8;
 1696              		.loc 1 1067 3 is_stmt 1 view .LVU799
 1697              		.loc 1 1067 43 is_stmt 0 view .LVU800
 1698 0030 B821     		movs	r1, #184
 1699 0032 E173     		strb	r1, [r4, #15]
1068:Drivers/BSP/Components/vl53l1cb/modules/vl53l1_api_preset_modes.c **** 
1069:Drivers/BSP/Components/vl53l1cb/modules/vl53l1_api_preset_modes.c **** 
1070:Drivers/BSP/Components/vl53l1cb/modules/vl53l1_api_preset_modes.c **** 
1071:Drivers/BSP/Components/vl53l1cb/modules/vl53l1_api_preset_modes.c **** 		pdynamic->sd_config__woi_sd0 = 0x0F;
 1700              		.loc 1 1071 3 is_stmt 1 view .LVU801
 1701              		.loc 1 1071 32 is_stmt 0 view .LVU802
 1702 0034 2A72     		strb	r2, [r5, #8]
1072:Drivers/BSP/Components/vl53l1cb/modules/vl53l1_api_preset_modes.c **** 		pdynamic->sd_config__woi_sd1 = 0x0D;
 1703              		.loc 1 1072 3 is_stmt 1 view .LVU803
 1704              		.loc 1 1072 32 is_stmt 0 view .LVU804
 1705 0036 6B72     		strb	r3, [r5, #9]
1073:Drivers/BSP/Components/vl53l1cb/modules/vl53l1_api_preset_modes.c **** 		pdynamic->sd_config__initial_phase_sd0               =
 1706              		.loc 1 1073 3 is_stmt 1 view .LVU805
1074:Drivers/BSP/Components/vl53l1cb/modules/vl53l1_api_preset_modes.c **** 				ptuning_parms->tp_init_phase_rtn_lite_long;
 1707              		.loc 1 1074 18 is_stmt 0 view .LVU806
 1708 0038 B379     		ldrb	r3, [r6, #6]	@ zero_extendqisi2
1073:Drivers/BSP/Components/vl53l1cb/modules/vl53l1_api_preset_modes.c **** 		pdynamic->sd_config__initial_phase_sd0               =
 1709              		.loc 1 1073 56 view .LVU807
 1710 003a AB72     		strb	r3, [r5, #10]
1075:Drivers/BSP/Components/vl53l1cb/modules/vl53l1_api_preset_modes.c **** 		pdynamic->sd_config__initial_phase_sd1               =
 1711              		.loc 1 1075 3 is_stmt 1 view .LVU808
ARM GAS  C:\Temp\ccoVwn9Y.s 			page 50


1076:Drivers/BSP/Components/vl53l1cb/modules/vl53l1_api_preset_modes.c **** 				ptuning_parms->tp_init_phase_ref_lite_long;
 1712              		.loc 1 1076 18 is_stmt 0 view .LVU809
 1713 003c 737A     		ldrb	r3, [r6, #9]	@ zero_extendqisi2
1075:Drivers/BSP/Components/vl53l1cb/modules/vl53l1_api_preset_modes.c **** 		pdynamic->sd_config__initial_phase_sd1               =
 1714              		.loc 1 1075 56 view .LVU810
 1715 003e EB72     		strb	r3, [r5, #11]
 1716              	.L25:
1077:Drivers/BSP/Components/vl53l1cb/modules/vl53l1_api_preset_modes.c **** 	}
1078:Drivers/BSP/Components/vl53l1cb/modules/vl53l1_api_preset_modes.c **** 
1079:Drivers/BSP/Components/vl53l1cb/modules/vl53l1_api_preset_modes.c **** 	LOG_FUNCTION_END(status);
 1717              		.loc 1 1079 26 is_stmt 1 view .LVU811
1080:Drivers/BSP/Components/vl53l1cb/modules/vl53l1_api_preset_modes.c **** 
1081:Drivers/BSP/Components/vl53l1cb/modules/vl53l1_api_preset_modes.c **** 	return status;
 1718              		.loc 1 1081 2 view .LVU812
1082:Drivers/BSP/Components/vl53l1cb/modules/vl53l1_api_preset_modes.c **** }
 1719              		.loc 1 1082 1 is_stmt 0 view .LVU813
 1720 0040 05B0     		add	sp, sp, #20
 1721              		.cfi_def_cfa_offset 20
 1722              		@ sp needed
 1723 0042 F0BD     		pop	{r4, r5, r6, r7, pc}
 1724              		.loc 1 1082 1 view .LVU814
 1725              		.cfi_endproc
 1726              	.LFE15:
 1728              		.section	.text.VL53L1_preset_mode_standard_ranging_mm1_cal,"ax",%progbits
 1729              		.align	1
 1730              		.global	VL53L1_preset_mode_standard_ranging_mm1_cal
 1731              		.syntax unified
 1732              		.thumb
 1733              		.thumb_func
 1735              	VL53L1_preset_mode_standard_ranging_mm1_cal:
 1736              	.LVL40:
 1737              	.LFB16:
1083:Drivers/BSP/Components/vl53l1cb/modules/vl53l1_api_preset_modes.c **** 
1084:Drivers/BSP/Components/vl53l1cb/modules/vl53l1_api_preset_modes.c **** 
1085:Drivers/BSP/Components/vl53l1cb/modules/vl53l1_api_preset_modes.c **** VL53L1_Error VL53L1_preset_mode_standard_ranging_mm1_cal(
1086:Drivers/BSP/Components/vl53l1cb/modules/vl53l1_api_preset_modes.c **** 	VL53L1_static_config_t    *pstatic,
1087:Drivers/BSP/Components/vl53l1cb/modules/vl53l1_api_preset_modes.c **** 	VL53L1_histogram_config_t *phistogram,
1088:Drivers/BSP/Components/vl53l1cb/modules/vl53l1_api_preset_modes.c **** 	VL53L1_general_config_t   *pgeneral,
1089:Drivers/BSP/Components/vl53l1cb/modules/vl53l1_api_preset_modes.c **** 	VL53L1_timing_config_t    *ptiming,
1090:Drivers/BSP/Components/vl53l1cb/modules/vl53l1_api_preset_modes.c **** 	VL53L1_dynamic_config_t   *pdynamic,
1091:Drivers/BSP/Components/vl53l1cb/modules/vl53l1_api_preset_modes.c **** 	VL53L1_system_control_t   *psystem,
1092:Drivers/BSP/Components/vl53l1cb/modules/vl53l1_api_preset_modes.c **** 	VL53L1_tuning_parm_storage_t *ptuning_parms,
1093:Drivers/BSP/Components/vl53l1cb/modules/vl53l1_api_preset_modes.c **** 	VL53L1_zone_config_t      *pzone_cfg)
1094:Drivers/BSP/Components/vl53l1cb/modules/vl53l1_api_preset_modes.c **** {
 1738              		.loc 1 1094 1 is_stmt 1 view -0
 1739              		.cfi_startproc
 1740              		@ args = 16, pretend = 0, frame = 0
 1741              		@ frame_needed = 0, uses_anonymous_args = 0
 1742              		.loc 1 1094 1 is_stmt 0 view .LVU816
 1743 0000 70B5     		push	{r4, r5, r6, lr}
 1744              		.cfi_def_cfa_offset 16
 1745              		.cfi_offset 4, -16
 1746              		.cfi_offset 5, -12
 1747              		.cfi_offset 6, -8
 1748              		.cfi_offset 14, -4
 1749 0002 84B0     		sub	sp, sp, #16
 1750              		.cfi_def_cfa_offset 32
ARM GAS  C:\Temp\ccoVwn9Y.s 			page 51


 1751 0004 1446     		mov	r4, r2
 1752 0006 089D     		ldr	r5, [sp, #32]
1095:Drivers/BSP/Components/vl53l1cb/modules/vl53l1_api_preset_modes.c **** 
1096:Drivers/BSP/Components/vl53l1cb/modules/vl53l1_api_preset_modes.c **** 
1097:Drivers/BSP/Components/vl53l1cb/modules/vl53l1_api_preset_modes.c **** 	VL53L1_Error  status = VL53L1_ERROR_NONE;
 1753              		.loc 1 1097 2 is_stmt 1 view .LVU817
 1754              	.LVL41:
1098:Drivers/BSP/Components/vl53l1cb/modules/vl53l1_api_preset_modes.c **** 
1099:Drivers/BSP/Components/vl53l1cb/modules/vl53l1_api_preset_modes.c **** 	LOG_FUNCTION_START("");
 1755              		.loc 1 1099 24 view .LVU818
1100:Drivers/BSP/Components/vl53l1cb/modules/vl53l1_api_preset_modes.c **** 
1101:Drivers/BSP/Components/vl53l1cb/modules/vl53l1_api_preset_modes.c **** 
1102:Drivers/BSP/Components/vl53l1cb/modules/vl53l1_api_preset_modes.c **** 
1103:Drivers/BSP/Components/vl53l1cb/modules/vl53l1_api_preset_modes.c **** 	status = VL53L1_preset_mode_standard_ranging(
 1756              		.loc 1 1103 2 view .LVU819
 1757              		.loc 1 1103 11 is_stmt 0 view .LVU820
 1758 0008 0B9E     		ldr	r6, [sp, #44]
 1759 000a 0396     		str	r6, [sp, #12]
 1760 000c 0A9E     		ldr	r6, [sp, #40]
 1761 000e 0296     		str	r6, [sp, #8]
 1762 0010 099E     		ldr	r6, [sp, #36]
 1763 0012 0196     		str	r6, [sp, #4]
 1764 0014 0095     		str	r5, [sp]
 1765 0016 FFF7FEFF 		bl	VL53L1_preset_mode_standard_ranging
 1766              	.LVL42:
1104:Drivers/BSP/Components/vl53l1cb/modules/vl53l1_api_preset_modes.c **** 		pstatic,
1105:Drivers/BSP/Components/vl53l1cb/modules/vl53l1_api_preset_modes.c **** 		phistogram,
1106:Drivers/BSP/Components/vl53l1cb/modules/vl53l1_api_preset_modes.c **** 		pgeneral,
1107:Drivers/BSP/Components/vl53l1cb/modules/vl53l1_api_preset_modes.c **** 		ptiming,
1108:Drivers/BSP/Components/vl53l1cb/modules/vl53l1_api_preset_modes.c **** 		pdynamic,
1109:Drivers/BSP/Components/vl53l1cb/modules/vl53l1_api_preset_modes.c **** 		psystem,
1110:Drivers/BSP/Components/vl53l1cb/modules/vl53l1_api_preset_modes.c **** 		ptuning_parms,
1111:Drivers/BSP/Components/vl53l1cb/modules/vl53l1_api_preset_modes.c **** 		pzone_cfg);
1112:Drivers/BSP/Components/vl53l1cb/modules/vl53l1_api_preset_modes.c **** 
1113:Drivers/BSP/Components/vl53l1cb/modules/vl53l1_api_preset_modes.c **** 
1114:Drivers/BSP/Components/vl53l1cb/modules/vl53l1_api_preset_modes.c **** 
1115:Drivers/BSP/Components/vl53l1cb/modules/vl53l1_api_preset_modes.c **** 	if (status == VL53L1_ERROR_NONE) {
 1767              		.loc 1 1115 2 is_stmt 1 view .LVU821
 1768              		.loc 1 1115 5 is_stmt 0 view .LVU822
 1769 001a 18B9     		cbnz	r0, .L28
1116:Drivers/BSP/Components/vl53l1cb/modules/vl53l1_api_preset_modes.c **** 
1117:Drivers/BSP/Components/vl53l1cb/modules/vl53l1_api_preset_modes.c **** 		pgeneral->dss_config__roi_mode_control =
 1770              		.loc 1 1117 3 is_stmt 1 view .LVU823
 1771              		.loc 1 1117 42 is_stmt 0 view .LVU824
 1772 001c 0223     		movs	r3, #2
 1773 001e A372     		strb	r3, [r4, #10]
1118:Drivers/BSP/Components/vl53l1cb/modules/vl53l1_api_preset_modes.c **** 			VL53L1_DEVICEDSSMODE__REQUESTED_EFFFECTIVE_SPADS;
1119:Drivers/BSP/Components/vl53l1cb/modules/vl53l1_api_preset_modes.c **** 
1120:Drivers/BSP/Components/vl53l1cb/modules/vl53l1_api_preset_modes.c **** 		pdynamic->system__sequence_config  =
 1774              		.loc 1 1120 3 is_stmt 1 view .LVU825
 1775              		.loc 1 1120 38 is_stmt 0 view .LVU826
 1776 0020 3B23     		movs	r3, #59
 1777 0022 6B74     		strb	r3, [r5, #17]
 1778              	.L28:
1121:Drivers/BSP/Components/vl53l1cb/modules/vl53l1_api_preset_modes.c **** 				VL53L1_SEQUENCE_VHV_EN |
1122:Drivers/BSP/Components/vl53l1cb/modules/vl53l1_api_preset_modes.c **** 				VL53L1_SEQUENCE_PHASECAL_EN |
1123:Drivers/BSP/Components/vl53l1cb/modules/vl53l1_api_preset_modes.c **** 				VL53L1_SEQUENCE_DSS1_EN |
ARM GAS  C:\Temp\ccoVwn9Y.s 			page 52


1124:Drivers/BSP/Components/vl53l1cb/modules/vl53l1_api_preset_modes.c **** 				VL53L1_SEQUENCE_DSS2_EN |
1125:Drivers/BSP/Components/vl53l1cb/modules/vl53l1_api_preset_modes.c **** 				VL53L1_SEQUENCE_MM1_EN;
1126:Drivers/BSP/Components/vl53l1cb/modules/vl53l1_api_preset_modes.c **** 	}
1127:Drivers/BSP/Components/vl53l1cb/modules/vl53l1_api_preset_modes.c **** 
1128:Drivers/BSP/Components/vl53l1cb/modules/vl53l1_api_preset_modes.c **** 	LOG_FUNCTION_END(status);
 1779              		.loc 1 1128 26 is_stmt 1 view .LVU827
1129:Drivers/BSP/Components/vl53l1cb/modules/vl53l1_api_preset_modes.c **** 
1130:Drivers/BSP/Components/vl53l1cb/modules/vl53l1_api_preset_modes.c **** 	return status;
 1780              		.loc 1 1130 2 view .LVU828
1131:Drivers/BSP/Components/vl53l1cb/modules/vl53l1_api_preset_modes.c **** }
 1781              		.loc 1 1131 1 is_stmt 0 view .LVU829
 1782 0024 04B0     		add	sp, sp, #16
 1783              		.cfi_def_cfa_offset 16
 1784              		@ sp needed
 1785 0026 70BD     		pop	{r4, r5, r6, pc}
 1786              		.loc 1 1131 1 view .LVU830
 1787              		.cfi_endproc
 1788              	.LFE16:
 1790              		.section	.text.VL53L1_preset_mode_standard_ranging_mm2_cal,"ax",%progbits
 1791              		.align	1
 1792              		.global	VL53L1_preset_mode_standard_ranging_mm2_cal
 1793              		.syntax unified
 1794              		.thumb
 1795              		.thumb_func
 1797              	VL53L1_preset_mode_standard_ranging_mm2_cal:
 1798              	.LVL43:
 1799              	.LFB17:
1132:Drivers/BSP/Components/vl53l1cb/modules/vl53l1_api_preset_modes.c **** 
1133:Drivers/BSP/Components/vl53l1cb/modules/vl53l1_api_preset_modes.c **** 
1134:Drivers/BSP/Components/vl53l1cb/modules/vl53l1_api_preset_modes.c **** VL53L1_Error VL53L1_preset_mode_standard_ranging_mm2_cal(
1135:Drivers/BSP/Components/vl53l1cb/modules/vl53l1_api_preset_modes.c **** 	VL53L1_static_config_t    *pstatic,
1136:Drivers/BSP/Components/vl53l1cb/modules/vl53l1_api_preset_modes.c **** 	VL53L1_histogram_config_t *phistogram,
1137:Drivers/BSP/Components/vl53l1cb/modules/vl53l1_api_preset_modes.c **** 	VL53L1_general_config_t   *pgeneral,
1138:Drivers/BSP/Components/vl53l1cb/modules/vl53l1_api_preset_modes.c **** 	VL53L1_timing_config_t    *ptiming,
1139:Drivers/BSP/Components/vl53l1cb/modules/vl53l1_api_preset_modes.c **** 	VL53L1_dynamic_config_t   *pdynamic,
1140:Drivers/BSP/Components/vl53l1cb/modules/vl53l1_api_preset_modes.c **** 	VL53L1_system_control_t   *psystem,
1141:Drivers/BSP/Components/vl53l1cb/modules/vl53l1_api_preset_modes.c **** 	VL53L1_tuning_parm_storage_t *ptuning_parms,
1142:Drivers/BSP/Components/vl53l1cb/modules/vl53l1_api_preset_modes.c **** 	VL53L1_zone_config_t      *pzone_cfg)
1143:Drivers/BSP/Components/vl53l1cb/modules/vl53l1_api_preset_modes.c **** {
 1800              		.loc 1 1143 1 is_stmt 1 view -0
 1801              		.cfi_startproc
 1802              		@ args = 16, pretend = 0, frame = 0
 1803              		@ frame_needed = 0, uses_anonymous_args = 0
 1804              		.loc 1 1143 1 is_stmt 0 view .LVU832
 1805 0000 70B5     		push	{r4, r5, r6, lr}
 1806              		.cfi_def_cfa_offset 16
 1807              		.cfi_offset 4, -16
 1808              		.cfi_offset 5, -12
 1809              		.cfi_offset 6, -8
 1810              		.cfi_offset 14, -4
 1811 0002 84B0     		sub	sp, sp, #16
 1812              		.cfi_def_cfa_offset 32
 1813 0004 1446     		mov	r4, r2
 1814 0006 089D     		ldr	r5, [sp, #32]
1144:Drivers/BSP/Components/vl53l1cb/modules/vl53l1_api_preset_modes.c **** 
1145:Drivers/BSP/Components/vl53l1cb/modules/vl53l1_api_preset_modes.c **** 
1146:Drivers/BSP/Components/vl53l1cb/modules/vl53l1_api_preset_modes.c **** 	VL53L1_Error  status = VL53L1_ERROR_NONE;
ARM GAS  C:\Temp\ccoVwn9Y.s 			page 53


 1815              		.loc 1 1146 2 is_stmt 1 view .LVU833
 1816              	.LVL44:
1147:Drivers/BSP/Components/vl53l1cb/modules/vl53l1_api_preset_modes.c **** 
1148:Drivers/BSP/Components/vl53l1cb/modules/vl53l1_api_preset_modes.c **** 	LOG_FUNCTION_START("");
 1817              		.loc 1 1148 24 view .LVU834
1149:Drivers/BSP/Components/vl53l1cb/modules/vl53l1_api_preset_modes.c **** 
1150:Drivers/BSP/Components/vl53l1cb/modules/vl53l1_api_preset_modes.c **** 
1151:Drivers/BSP/Components/vl53l1cb/modules/vl53l1_api_preset_modes.c **** 
1152:Drivers/BSP/Components/vl53l1cb/modules/vl53l1_api_preset_modes.c **** 	status = VL53L1_preset_mode_standard_ranging(
 1818              		.loc 1 1152 2 view .LVU835
 1819              		.loc 1 1152 11 is_stmt 0 view .LVU836
 1820 0008 0B9E     		ldr	r6, [sp, #44]
 1821 000a 0396     		str	r6, [sp, #12]
 1822 000c 0A9E     		ldr	r6, [sp, #40]
 1823 000e 0296     		str	r6, [sp, #8]
 1824 0010 099E     		ldr	r6, [sp, #36]
 1825 0012 0196     		str	r6, [sp, #4]
 1826 0014 0095     		str	r5, [sp]
 1827 0016 FFF7FEFF 		bl	VL53L1_preset_mode_standard_ranging
 1828              	.LVL45:
1153:Drivers/BSP/Components/vl53l1cb/modules/vl53l1_api_preset_modes.c **** 		pstatic,
1154:Drivers/BSP/Components/vl53l1cb/modules/vl53l1_api_preset_modes.c **** 		phistogram,
1155:Drivers/BSP/Components/vl53l1cb/modules/vl53l1_api_preset_modes.c **** 		pgeneral,
1156:Drivers/BSP/Components/vl53l1cb/modules/vl53l1_api_preset_modes.c **** 		ptiming,
1157:Drivers/BSP/Components/vl53l1cb/modules/vl53l1_api_preset_modes.c **** 		pdynamic,
1158:Drivers/BSP/Components/vl53l1cb/modules/vl53l1_api_preset_modes.c **** 		psystem,
1159:Drivers/BSP/Components/vl53l1cb/modules/vl53l1_api_preset_modes.c **** 		ptuning_parms,
1160:Drivers/BSP/Components/vl53l1cb/modules/vl53l1_api_preset_modes.c **** 		pzone_cfg);
1161:Drivers/BSP/Components/vl53l1cb/modules/vl53l1_api_preset_modes.c **** 
1162:Drivers/BSP/Components/vl53l1cb/modules/vl53l1_api_preset_modes.c **** 
1163:Drivers/BSP/Components/vl53l1cb/modules/vl53l1_api_preset_modes.c **** 
1164:Drivers/BSP/Components/vl53l1cb/modules/vl53l1_api_preset_modes.c **** 	if (status == VL53L1_ERROR_NONE) {
 1829              		.loc 1 1164 2 is_stmt 1 view .LVU837
 1830              		.loc 1 1164 5 is_stmt 0 view .LVU838
 1831 001a 18B9     		cbnz	r0, .L31
1165:Drivers/BSP/Components/vl53l1cb/modules/vl53l1_api_preset_modes.c **** 
1166:Drivers/BSP/Components/vl53l1cb/modules/vl53l1_api_preset_modes.c **** 		pgeneral->dss_config__roi_mode_control =
 1832              		.loc 1 1166 3 is_stmt 1 view .LVU839
 1833              		.loc 1 1166 42 is_stmt 0 view .LVU840
 1834 001c 0223     		movs	r3, #2
 1835 001e A372     		strb	r3, [r4, #10]
1167:Drivers/BSP/Components/vl53l1cb/modules/vl53l1_api_preset_modes.c **** 			VL53L1_DEVICEDSSMODE__REQUESTED_EFFFECTIVE_SPADS;
1168:Drivers/BSP/Components/vl53l1cb/modules/vl53l1_api_preset_modes.c **** 
1169:Drivers/BSP/Components/vl53l1cb/modules/vl53l1_api_preset_modes.c **** 		pdynamic->system__sequence_config  =
 1836              		.loc 1 1169 3 is_stmt 1 view .LVU841
 1837              		.loc 1 1169 38 is_stmt 0 view .LVU842
 1838 0020 5B23     		movs	r3, #91
 1839 0022 6B74     		strb	r3, [r5, #17]
 1840              	.L31:
1170:Drivers/BSP/Components/vl53l1cb/modules/vl53l1_api_preset_modes.c **** 				VL53L1_SEQUENCE_VHV_EN |
1171:Drivers/BSP/Components/vl53l1cb/modules/vl53l1_api_preset_modes.c **** 				VL53L1_SEQUENCE_PHASECAL_EN |
1172:Drivers/BSP/Components/vl53l1cb/modules/vl53l1_api_preset_modes.c **** 				VL53L1_SEQUENCE_DSS1_EN |
1173:Drivers/BSP/Components/vl53l1cb/modules/vl53l1_api_preset_modes.c **** 				VL53L1_SEQUENCE_DSS2_EN |
1174:Drivers/BSP/Components/vl53l1cb/modules/vl53l1_api_preset_modes.c **** 				VL53L1_SEQUENCE_MM2_EN;
1175:Drivers/BSP/Components/vl53l1cb/modules/vl53l1_api_preset_modes.c **** 	}
1176:Drivers/BSP/Components/vl53l1cb/modules/vl53l1_api_preset_modes.c **** 
1177:Drivers/BSP/Components/vl53l1cb/modules/vl53l1_api_preset_modes.c **** 	LOG_FUNCTION_END(status);
ARM GAS  C:\Temp\ccoVwn9Y.s 			page 54


 1841              		.loc 1 1177 26 is_stmt 1 view .LVU843
1178:Drivers/BSP/Components/vl53l1cb/modules/vl53l1_api_preset_modes.c **** 
1179:Drivers/BSP/Components/vl53l1cb/modules/vl53l1_api_preset_modes.c **** 	return status;
 1842              		.loc 1 1179 2 view .LVU844
1180:Drivers/BSP/Components/vl53l1cb/modules/vl53l1_api_preset_modes.c **** }
 1843              		.loc 1 1180 1 is_stmt 0 view .LVU845
 1844 0024 04B0     		add	sp, sp, #16
 1845              		.cfi_def_cfa_offset 16
 1846              		@ sp needed
 1847 0026 70BD     		pop	{r4, r5, r6, pc}
 1848              		.loc 1 1180 1 view .LVU846
 1849              		.cfi_endproc
 1850              	.LFE17:
 1852              		.section	.text.VL53L1_preset_mode_timed_ranging,"ax",%progbits
 1853              		.align	1
 1854              		.global	VL53L1_preset_mode_timed_ranging
 1855              		.syntax unified
 1856              		.thumb
 1857              		.thumb_func
 1859              	VL53L1_preset_mode_timed_ranging:
 1860              	.LVL46:
 1861              	.LFB18:
1181:Drivers/BSP/Components/vl53l1cb/modules/vl53l1_api_preset_modes.c **** 
1182:Drivers/BSP/Components/vl53l1cb/modules/vl53l1_api_preset_modes.c **** 
1183:Drivers/BSP/Components/vl53l1cb/modules/vl53l1_api_preset_modes.c **** VL53L1_Error VL53L1_preset_mode_timed_ranging(
1184:Drivers/BSP/Components/vl53l1cb/modules/vl53l1_api_preset_modes.c **** 
1185:Drivers/BSP/Components/vl53l1cb/modules/vl53l1_api_preset_modes.c **** 	VL53L1_static_config_t    *pstatic,
1186:Drivers/BSP/Components/vl53l1cb/modules/vl53l1_api_preset_modes.c **** 	VL53L1_histogram_config_t *phistogram,
1187:Drivers/BSP/Components/vl53l1cb/modules/vl53l1_api_preset_modes.c **** 	VL53L1_general_config_t   *pgeneral,
1188:Drivers/BSP/Components/vl53l1cb/modules/vl53l1_api_preset_modes.c **** 	VL53L1_timing_config_t    *ptiming,
1189:Drivers/BSP/Components/vl53l1cb/modules/vl53l1_api_preset_modes.c **** 	VL53L1_dynamic_config_t   *pdynamic,
1190:Drivers/BSP/Components/vl53l1cb/modules/vl53l1_api_preset_modes.c **** 	VL53L1_system_control_t   *psystem,
1191:Drivers/BSP/Components/vl53l1cb/modules/vl53l1_api_preset_modes.c **** 	VL53L1_tuning_parm_storage_t *ptuning_parms,
1192:Drivers/BSP/Components/vl53l1cb/modules/vl53l1_api_preset_modes.c **** 	VL53L1_zone_config_t      *pzone_cfg)
1193:Drivers/BSP/Components/vl53l1cb/modules/vl53l1_api_preset_modes.c **** {
 1862              		.loc 1 1193 1 is_stmt 1 view -0
 1863              		.cfi_startproc
 1864              		@ args = 16, pretend = 0, frame = 0
 1865              		@ frame_needed = 0, uses_anonymous_args = 0
 1866              		.loc 1 1193 1 is_stmt 0 view .LVU848
 1867 0000 2DE9F041 		push	{r4, r5, r6, r7, r8, lr}
 1868              		.cfi_def_cfa_offset 24
 1869              		.cfi_offset 4, -24
 1870              		.cfi_offset 5, -20
 1871              		.cfi_offset 6, -16
 1872              		.cfi_offset 7, -12
 1873              		.cfi_offset 8, -8
 1874              		.cfi_offset 14, -4
 1875 0004 84B0     		sub	sp, sp, #16
 1876              		.cfi_def_cfa_offset 40
 1877 0006 1C46     		mov	r4, r3
 1878 0008 0A9E     		ldr	r6, [sp, #40]
 1879 000a 0B9F     		ldr	r7, [sp, #44]
 1880 000c DDF83080 		ldr	r8, [sp, #48]
1194:Drivers/BSP/Components/vl53l1cb/modules/vl53l1_api_preset_modes.c **** 
1195:Drivers/BSP/Components/vl53l1cb/modules/vl53l1_api_preset_modes.c **** 
1196:Drivers/BSP/Components/vl53l1cb/modules/vl53l1_api_preset_modes.c **** 	VL53L1_Error  status = VL53L1_ERROR_NONE;
ARM GAS  C:\Temp\ccoVwn9Y.s 			page 55


 1881              		.loc 1 1196 2 is_stmt 1 view .LVU849
 1882              	.LVL47:
1197:Drivers/BSP/Components/vl53l1cb/modules/vl53l1_api_preset_modes.c **** 
1198:Drivers/BSP/Components/vl53l1cb/modules/vl53l1_api_preset_modes.c **** 	LOG_FUNCTION_START("");
 1883              		.loc 1 1198 24 view .LVU850
1199:Drivers/BSP/Components/vl53l1cb/modules/vl53l1_api_preset_modes.c **** 
1200:Drivers/BSP/Components/vl53l1cb/modules/vl53l1_api_preset_modes.c **** 
1201:Drivers/BSP/Components/vl53l1cb/modules/vl53l1_api_preset_modes.c **** 
1202:Drivers/BSP/Components/vl53l1cb/modules/vl53l1_api_preset_modes.c **** 	status = VL53L1_preset_mode_standard_ranging(
 1884              		.loc 1 1202 2 view .LVU851
 1885              		.loc 1 1202 11 is_stmt 0 view .LVU852
 1886 0010 0D9D     		ldr	r5, [sp, #52]
 1887 0012 0395     		str	r5, [sp, #12]
 1888 0014 CDF80880 		str	r8, [sp, #8]
 1889 0018 0197     		str	r7, [sp, #4]
 1890 001a 0096     		str	r6, [sp]
 1891 001c FFF7FEFF 		bl	VL53L1_preset_mode_standard_ranging
 1892              	.LVL48:
1203:Drivers/BSP/Components/vl53l1cb/modules/vl53l1_api_preset_modes.c **** 					pstatic,
1204:Drivers/BSP/Components/vl53l1cb/modules/vl53l1_api_preset_modes.c **** 					phistogram,
1205:Drivers/BSP/Components/vl53l1cb/modules/vl53l1_api_preset_modes.c **** 					pgeneral,
1206:Drivers/BSP/Components/vl53l1cb/modules/vl53l1_api_preset_modes.c **** 					ptiming,
1207:Drivers/BSP/Components/vl53l1cb/modules/vl53l1_api_preset_modes.c **** 					pdynamic,
1208:Drivers/BSP/Components/vl53l1cb/modules/vl53l1_api_preset_modes.c **** 					psystem,
1209:Drivers/BSP/Components/vl53l1cb/modules/vl53l1_api_preset_modes.c **** 					ptuning_parms,
1210:Drivers/BSP/Components/vl53l1cb/modules/vl53l1_api_preset_modes.c **** 					pzone_cfg);
1211:Drivers/BSP/Components/vl53l1cb/modules/vl53l1_api_preset_modes.c **** 
1212:Drivers/BSP/Components/vl53l1cb/modules/vl53l1_api_preset_modes.c **** 
1213:Drivers/BSP/Components/vl53l1cb/modules/vl53l1_api_preset_modes.c **** 
1214:Drivers/BSP/Components/vl53l1cb/modules/vl53l1_api_preset_modes.c **** 	if (status == VL53L1_ERROR_NONE) {
 1893              		.loc 1 1214 2 is_stmt 1 view .LVU853
 1894              		.loc 1 1214 5 is_stmt 0 view .LVU854
 1895 0020 70B9     		cbnz	r0, .L34
1215:Drivers/BSP/Components/vl53l1cb/modules/vl53l1_api_preset_modes.c **** 
1216:Drivers/BSP/Components/vl53l1cb/modules/vl53l1_api_preset_modes.c **** 
1217:Drivers/BSP/Components/vl53l1cb/modules/vl53l1_api_preset_modes.c **** 
1218:Drivers/BSP/Components/vl53l1cb/modules/vl53l1_api_preset_modes.c **** 
1219:Drivers/BSP/Components/vl53l1cb/modules/vl53l1_api_preset_modes.c **** 		pdynamic->system__grouped_parameter_hold = 0x00;
 1896              		.loc 1 1219 3 is_stmt 1 view .LVU855
 1897              		.loc 1 1219 44 is_stmt 0 view .LVU856
 1898 0022 B074     		strb	r0, [r6, #18]
1220:Drivers/BSP/Components/vl53l1cb/modules/vl53l1_api_preset_modes.c **** 
1221:Drivers/BSP/Components/vl53l1cb/modules/vl53l1_api_preset_modes.c **** 
1222:Drivers/BSP/Components/vl53l1cb/modules/vl53l1_api_preset_modes.c **** 		ptiming->range_config__timeout_macrop_a_hi = 0x00;
 1899              		.loc 1 1222 3 is_stmt 1 view .LVU857
 1900              		.loc 1 1222 46 is_stmt 0 view .LVU858
 1901 0024 2071     		strb	r0, [r4, #4]
1223:Drivers/BSP/Components/vl53l1cb/modules/vl53l1_api_preset_modes.c **** 		ptiming->range_config__timeout_macrop_a_lo = 0xB1;
 1902              		.loc 1 1223 3 is_stmt 1 view .LVU859
 1903              		.loc 1 1223 46 is_stmt 0 view .LVU860
 1904 0026 B122     		movs	r2, #177
 1905 0028 6271     		strb	r2, [r4, #5]
1224:Drivers/BSP/Components/vl53l1cb/modules/vl53l1_api_preset_modes.c **** 
1225:Drivers/BSP/Components/vl53l1cb/modules/vl53l1_api_preset_modes.c **** 		ptiming->range_config__timeout_macrop_b_hi = 0x00;
 1906              		.loc 1 1225 3 is_stmt 1 view .LVU861
 1907              		.loc 1 1225 46 is_stmt 0 view .LVU862
 1908 002a E071     		strb	r0, [r4, #7]
ARM GAS  C:\Temp\ccoVwn9Y.s 			page 56


1226:Drivers/BSP/Components/vl53l1cb/modules/vl53l1_api_preset_modes.c **** 		ptiming->range_config__timeout_macrop_b_lo = 0xD4;
 1909              		.loc 1 1226 3 is_stmt 1 view .LVU863
 1910              		.loc 1 1226 46 is_stmt 0 view .LVU864
 1911 002c D423     		movs	r3, #212
 1912 002e 2372     		strb	r3, [r4, #8]
1227:Drivers/BSP/Components/vl53l1cb/modules/vl53l1_api_preset_modes.c **** 
1228:Drivers/BSP/Components/vl53l1cb/modules/vl53l1_api_preset_modes.c **** 
1229:Drivers/BSP/Components/vl53l1cb/modules/vl53l1_api_preset_modes.c **** 
1230:Drivers/BSP/Components/vl53l1cb/modules/vl53l1_api_preset_modes.c **** 		ptiming->system__intermeasurement_period = 0x00000600;
 1913              		.loc 1 1230 3 is_stmt 1 view .LVU865
 1914              		.loc 1 1230 44 is_stmt 0 view .LVU866
 1915 0030 4FF4C063 		mov	r3, #1536
 1916 0034 2361     		str	r3, [r4, #16]
1231:Drivers/BSP/Components/vl53l1cb/modules/vl53l1_api_preset_modes.c **** 		pdynamic->system__seed_config =
 1917              		.loc 1 1231 3 is_stmt 1 view .LVU867
1232:Drivers/BSP/Components/vl53l1cb/modules/vl53l1_api_preset_modes.c **** 				ptuning_parms->tp_timed_seed_cfg;
 1918              		.loc 1 1232 18 is_stmt 0 view .LVU868
 1919 0036 98F82830 		ldrb	r3, [r8, #40]	@ zero_extendqisi2
1231:Drivers/BSP/Components/vl53l1cb/modules/vl53l1_api_preset_modes.c **** 		pdynamic->system__seed_config =
 1920              		.loc 1 1231 33 view .LVU869
 1921 003a F371     		strb	r3, [r6, #7]
1233:Drivers/BSP/Components/vl53l1cb/modules/vl53l1_api_preset_modes.c **** 
1234:Drivers/BSP/Components/vl53l1cb/modules/vl53l1_api_preset_modes.c **** 
1235:Drivers/BSP/Components/vl53l1cb/modules/vl53l1_api_preset_modes.c **** 
1236:Drivers/BSP/Components/vl53l1cb/modules/vl53l1_api_preset_modes.c **** 
1237:Drivers/BSP/Components/vl53l1cb/modules/vl53l1_api_preset_modes.c **** 		psystem->system__mode_start =
 1922              		.loc 1 1237 3 is_stmt 1 view .LVU870
 1923              		.loc 1 1237 31 is_stmt 0 view .LVU871
 1924 003c 4023     		movs	r3, #64
 1925 003e 3B71     		strb	r3, [r7, #4]
 1926              	.L34:
1238:Drivers/BSP/Components/vl53l1cb/modules/vl53l1_api_preset_modes.c **** 				VL53L1_DEVICESCHEDULERMODE_PSEUDO_SOLO |
1239:Drivers/BSP/Components/vl53l1cb/modules/vl53l1_api_preset_modes.c **** 				VL53L1_DEVICEREADOUTMODE_SINGLE_SD     |
1240:Drivers/BSP/Components/vl53l1cb/modules/vl53l1_api_preset_modes.c **** 				VL53L1_DEVICEMEASUREMENTMODE_TIMED;
1241:Drivers/BSP/Components/vl53l1cb/modules/vl53l1_api_preset_modes.c **** 	}
1242:Drivers/BSP/Components/vl53l1cb/modules/vl53l1_api_preset_modes.c **** 
1243:Drivers/BSP/Components/vl53l1cb/modules/vl53l1_api_preset_modes.c **** 	LOG_FUNCTION_END(status);
 1927              		.loc 1 1243 26 is_stmt 1 view .LVU872
1244:Drivers/BSP/Components/vl53l1cb/modules/vl53l1_api_preset_modes.c **** 
1245:Drivers/BSP/Components/vl53l1cb/modules/vl53l1_api_preset_modes.c **** 	return status;
 1928              		.loc 1 1245 2 view .LVU873
1246:Drivers/BSP/Components/vl53l1cb/modules/vl53l1_api_preset_modes.c **** }
 1929              		.loc 1 1246 1 is_stmt 0 view .LVU874
 1930 0040 04B0     		add	sp, sp, #16
 1931              		.cfi_def_cfa_offset 24
 1932              		@ sp needed
 1933 0042 BDE8F081 		pop	{r4, r5, r6, r7, r8, pc}
 1934              		.loc 1 1246 1 view .LVU875
 1935              		.cfi_endproc
 1936              	.LFE18:
 1938              		.section	.text.VL53L1_preset_mode_timed_ranging_short_range,"ax",%progbits
 1939              		.align	1
 1940              		.global	VL53L1_preset_mode_timed_ranging_short_range
 1941              		.syntax unified
 1942              		.thumb
 1943              		.thumb_func
 1945              	VL53L1_preset_mode_timed_ranging_short_range:
ARM GAS  C:\Temp\ccoVwn9Y.s 			page 57


 1946              	.LVL49:
 1947              	.LFB19:
1247:Drivers/BSP/Components/vl53l1cb/modules/vl53l1_api_preset_modes.c **** 
1248:Drivers/BSP/Components/vl53l1cb/modules/vl53l1_api_preset_modes.c **** VL53L1_Error VL53L1_preset_mode_timed_ranging_short_range(
1249:Drivers/BSP/Components/vl53l1cb/modules/vl53l1_api_preset_modes.c **** 
1250:Drivers/BSP/Components/vl53l1cb/modules/vl53l1_api_preset_modes.c **** 	VL53L1_static_config_t    *pstatic,
1251:Drivers/BSP/Components/vl53l1cb/modules/vl53l1_api_preset_modes.c **** 	VL53L1_histogram_config_t *phistogram,
1252:Drivers/BSP/Components/vl53l1cb/modules/vl53l1_api_preset_modes.c **** 	VL53L1_general_config_t   *pgeneral,
1253:Drivers/BSP/Components/vl53l1cb/modules/vl53l1_api_preset_modes.c **** 	VL53L1_timing_config_t    *ptiming,
1254:Drivers/BSP/Components/vl53l1cb/modules/vl53l1_api_preset_modes.c **** 	VL53L1_dynamic_config_t   *pdynamic,
1255:Drivers/BSP/Components/vl53l1cb/modules/vl53l1_api_preset_modes.c **** 	VL53L1_system_control_t   *psystem,
1256:Drivers/BSP/Components/vl53l1cb/modules/vl53l1_api_preset_modes.c **** 	VL53L1_tuning_parm_storage_t *ptuning_parms,
1257:Drivers/BSP/Components/vl53l1cb/modules/vl53l1_api_preset_modes.c **** 	VL53L1_zone_config_t      *pzone_cfg)
1258:Drivers/BSP/Components/vl53l1cb/modules/vl53l1_api_preset_modes.c **** {
 1948              		.loc 1 1258 1 is_stmt 1 view -0
 1949              		.cfi_startproc
 1950              		@ args = 16, pretend = 0, frame = 0
 1951              		@ frame_needed = 0, uses_anonymous_args = 0
 1952              		.loc 1 1258 1 is_stmt 0 view .LVU877
 1953 0000 2DE9F041 		push	{r4, r5, r6, r7, r8, lr}
 1954              		.cfi_def_cfa_offset 24
 1955              		.cfi_offset 4, -24
 1956              		.cfi_offset 5, -20
 1957              		.cfi_offset 6, -16
 1958              		.cfi_offset 7, -12
 1959              		.cfi_offset 8, -8
 1960              		.cfi_offset 14, -4
 1961 0004 84B0     		sub	sp, sp, #16
 1962              		.cfi_def_cfa_offset 40
 1963 0006 1C46     		mov	r4, r3
 1964 0008 0A9E     		ldr	r6, [sp, #40]
 1965 000a 0B9F     		ldr	r7, [sp, #44]
 1966 000c DDF83080 		ldr	r8, [sp, #48]
1259:Drivers/BSP/Components/vl53l1cb/modules/vl53l1_api_preset_modes.c **** 
1260:Drivers/BSP/Components/vl53l1cb/modules/vl53l1_api_preset_modes.c **** 
1261:Drivers/BSP/Components/vl53l1cb/modules/vl53l1_api_preset_modes.c **** 	VL53L1_Error  status = VL53L1_ERROR_NONE;
 1967              		.loc 1 1261 2 is_stmt 1 view .LVU878
 1968              	.LVL50:
1262:Drivers/BSP/Components/vl53l1cb/modules/vl53l1_api_preset_modes.c **** 
1263:Drivers/BSP/Components/vl53l1cb/modules/vl53l1_api_preset_modes.c **** 	LOG_FUNCTION_START("");
 1969              		.loc 1 1263 24 view .LVU879
1264:Drivers/BSP/Components/vl53l1cb/modules/vl53l1_api_preset_modes.c **** 
1265:Drivers/BSP/Components/vl53l1cb/modules/vl53l1_api_preset_modes.c **** 
1266:Drivers/BSP/Components/vl53l1cb/modules/vl53l1_api_preset_modes.c **** 
1267:Drivers/BSP/Components/vl53l1cb/modules/vl53l1_api_preset_modes.c **** 	status = VL53L1_preset_mode_standard_ranging_short_range(
 1970              		.loc 1 1267 2 view .LVU880
 1971              		.loc 1 1267 11 is_stmt 0 view .LVU881
 1972 0010 0D9D     		ldr	r5, [sp, #52]
 1973 0012 0395     		str	r5, [sp, #12]
 1974 0014 CDF80880 		str	r8, [sp, #8]
 1975 0018 0197     		str	r7, [sp, #4]
 1976 001a 0096     		str	r6, [sp]
 1977 001c FFF7FEFF 		bl	VL53L1_preset_mode_standard_ranging_short_range
 1978              	.LVL51:
1268:Drivers/BSP/Components/vl53l1cb/modules/vl53l1_api_preset_modes.c **** 					pstatic,
1269:Drivers/BSP/Components/vl53l1cb/modules/vl53l1_api_preset_modes.c **** 					phistogram,
1270:Drivers/BSP/Components/vl53l1cb/modules/vl53l1_api_preset_modes.c **** 					pgeneral,
ARM GAS  C:\Temp\ccoVwn9Y.s 			page 58


1271:Drivers/BSP/Components/vl53l1cb/modules/vl53l1_api_preset_modes.c **** 					ptiming,
1272:Drivers/BSP/Components/vl53l1cb/modules/vl53l1_api_preset_modes.c **** 					pdynamic,
1273:Drivers/BSP/Components/vl53l1cb/modules/vl53l1_api_preset_modes.c **** 					psystem,
1274:Drivers/BSP/Components/vl53l1cb/modules/vl53l1_api_preset_modes.c **** 					ptuning_parms,
1275:Drivers/BSP/Components/vl53l1cb/modules/vl53l1_api_preset_modes.c **** 					pzone_cfg);
1276:Drivers/BSP/Components/vl53l1cb/modules/vl53l1_api_preset_modes.c **** 
1277:Drivers/BSP/Components/vl53l1cb/modules/vl53l1_api_preset_modes.c **** 
1278:Drivers/BSP/Components/vl53l1cb/modules/vl53l1_api_preset_modes.c **** 
1279:Drivers/BSP/Components/vl53l1cb/modules/vl53l1_api_preset_modes.c **** 	if (status == VL53L1_ERROR_NONE) {
 1979              		.loc 1 1279 2 is_stmt 1 view .LVU882
 1980              		.loc 1 1279 5 is_stmt 0 view .LVU883
 1981 0020 78B9     		cbnz	r0, .L37
1280:Drivers/BSP/Components/vl53l1cb/modules/vl53l1_api_preset_modes.c **** 
1281:Drivers/BSP/Components/vl53l1cb/modules/vl53l1_api_preset_modes.c **** 
1282:Drivers/BSP/Components/vl53l1cb/modules/vl53l1_api_preset_modes.c **** 
1283:Drivers/BSP/Components/vl53l1cb/modules/vl53l1_api_preset_modes.c **** 
1284:Drivers/BSP/Components/vl53l1cb/modules/vl53l1_api_preset_modes.c **** 		pdynamic->system__grouped_parameter_hold = 0x00;
 1982              		.loc 1 1284 3 is_stmt 1 view .LVU884
 1983              		.loc 1 1284 44 is_stmt 0 view .LVU885
 1984 0022 B074     		strb	r0, [r6, #18]
1285:Drivers/BSP/Components/vl53l1cb/modules/vl53l1_api_preset_modes.c **** 
1286:Drivers/BSP/Components/vl53l1cb/modules/vl53l1_api_preset_modes.c **** 
1287:Drivers/BSP/Components/vl53l1cb/modules/vl53l1_api_preset_modes.c **** 
1288:Drivers/BSP/Components/vl53l1cb/modules/vl53l1_api_preset_modes.c **** 
1289:Drivers/BSP/Components/vl53l1cb/modules/vl53l1_api_preset_modes.c **** 
1290:Drivers/BSP/Components/vl53l1cb/modules/vl53l1_api_preset_modes.c **** 		ptiming->range_config__timeout_macrop_a_hi = 0x01;
 1985              		.loc 1 1290 3 is_stmt 1 view .LVU886
 1986              		.loc 1 1290 46 is_stmt 0 view .LVU887
 1987 0024 0123     		movs	r3, #1
 1988 0026 2371     		strb	r3, [r4, #4]
1291:Drivers/BSP/Components/vl53l1cb/modules/vl53l1_api_preset_modes.c **** 		ptiming->range_config__timeout_macrop_a_lo = 0x84;
 1989              		.loc 1 1291 3 is_stmt 1 view .LVU888
 1990              		.loc 1 1291 46 is_stmt 0 view .LVU889
 1991 0028 8422     		movs	r2, #132
 1992 002a 6271     		strb	r2, [r4, #5]
1292:Drivers/BSP/Components/vl53l1cb/modules/vl53l1_api_preset_modes.c **** 
1293:Drivers/BSP/Components/vl53l1cb/modules/vl53l1_api_preset_modes.c **** 		ptiming->range_config__timeout_macrop_b_hi = 0x01;
 1993              		.loc 1 1293 3 is_stmt 1 view .LVU890
 1994              		.loc 1 1293 46 is_stmt 0 view .LVU891
 1995 002c E371     		strb	r3, [r4, #7]
1294:Drivers/BSP/Components/vl53l1cb/modules/vl53l1_api_preset_modes.c **** 		ptiming->range_config__timeout_macrop_b_lo = 0xB1;
 1996              		.loc 1 1294 3 is_stmt 1 view .LVU892
 1997              		.loc 1 1294 46 is_stmt 0 view .LVU893
 1998 002e B123     		movs	r3, #177
 1999 0030 2372     		strb	r3, [r4, #8]
1295:Drivers/BSP/Components/vl53l1cb/modules/vl53l1_api_preset_modes.c **** 
1296:Drivers/BSP/Components/vl53l1cb/modules/vl53l1_api_preset_modes.c **** 		ptiming->system__intermeasurement_period = 0x00000600;
 2000              		.loc 1 1296 3 is_stmt 1 view .LVU894
 2001              		.loc 1 1296 44 is_stmt 0 view .LVU895
 2002 0032 4FF4C063 		mov	r3, #1536
 2003 0036 2361     		str	r3, [r4, #16]
1297:Drivers/BSP/Components/vl53l1cb/modules/vl53l1_api_preset_modes.c **** 		pdynamic->system__seed_config =
 2004              		.loc 1 1297 3 is_stmt 1 view .LVU896
1298:Drivers/BSP/Components/vl53l1cb/modules/vl53l1_api_preset_modes.c **** 				ptuning_parms->tp_timed_seed_cfg;
 2005              		.loc 1 1298 18 is_stmt 0 view .LVU897
 2006 0038 98F82830 		ldrb	r3, [r8, #40]	@ zero_extendqisi2
1297:Drivers/BSP/Components/vl53l1cb/modules/vl53l1_api_preset_modes.c **** 		pdynamic->system__seed_config =
ARM GAS  C:\Temp\ccoVwn9Y.s 			page 59


 2007              		.loc 1 1297 33 view .LVU898
 2008 003c F371     		strb	r3, [r6, #7]
1299:Drivers/BSP/Components/vl53l1cb/modules/vl53l1_api_preset_modes.c **** 
1300:Drivers/BSP/Components/vl53l1cb/modules/vl53l1_api_preset_modes.c **** 
1301:Drivers/BSP/Components/vl53l1cb/modules/vl53l1_api_preset_modes.c **** 
1302:Drivers/BSP/Components/vl53l1cb/modules/vl53l1_api_preset_modes.c **** 
1303:Drivers/BSP/Components/vl53l1cb/modules/vl53l1_api_preset_modes.c **** 		psystem->system__mode_start =
 2009              		.loc 1 1303 3 is_stmt 1 view .LVU899
 2010              		.loc 1 1303 31 is_stmt 0 view .LVU900
 2011 003e 4023     		movs	r3, #64
 2012 0040 3B71     		strb	r3, [r7, #4]
 2013              	.L37:
1304:Drivers/BSP/Components/vl53l1cb/modules/vl53l1_api_preset_modes.c **** 				VL53L1_DEVICESCHEDULERMODE_PSEUDO_SOLO |
1305:Drivers/BSP/Components/vl53l1cb/modules/vl53l1_api_preset_modes.c **** 				VL53L1_DEVICEREADOUTMODE_SINGLE_SD     |
1306:Drivers/BSP/Components/vl53l1cb/modules/vl53l1_api_preset_modes.c **** 				VL53L1_DEVICEMEASUREMENTMODE_TIMED;
1307:Drivers/BSP/Components/vl53l1cb/modules/vl53l1_api_preset_modes.c **** 	}
1308:Drivers/BSP/Components/vl53l1cb/modules/vl53l1_api_preset_modes.c **** 
1309:Drivers/BSP/Components/vl53l1cb/modules/vl53l1_api_preset_modes.c **** 	LOG_FUNCTION_END(status);
 2014              		.loc 1 1309 26 is_stmt 1 view .LVU901
1310:Drivers/BSP/Components/vl53l1cb/modules/vl53l1_api_preset_modes.c **** 
1311:Drivers/BSP/Components/vl53l1cb/modules/vl53l1_api_preset_modes.c **** 	return status;
 2015              		.loc 1 1311 2 view .LVU902
1312:Drivers/BSP/Components/vl53l1cb/modules/vl53l1_api_preset_modes.c **** }
 2016              		.loc 1 1312 1 is_stmt 0 view .LVU903
 2017 0042 04B0     		add	sp, sp, #16
 2018              		.cfi_def_cfa_offset 24
 2019              		@ sp needed
 2020 0044 BDE8F081 		pop	{r4, r5, r6, r7, r8, pc}
 2021              		.loc 1 1312 1 view .LVU904
 2022              		.cfi_endproc
 2023              	.LFE19:
 2025              		.section	.text.VL53L1_preset_mode_timed_ranging_long_range,"ax",%progbits
 2026              		.align	1
 2027              		.global	VL53L1_preset_mode_timed_ranging_long_range
 2028              		.syntax unified
 2029              		.thumb
 2030              		.thumb_func
 2032              	VL53L1_preset_mode_timed_ranging_long_range:
 2033              	.LVL52:
 2034              	.LFB20:
1313:Drivers/BSP/Components/vl53l1cb/modules/vl53l1_api_preset_modes.c **** 
1314:Drivers/BSP/Components/vl53l1cb/modules/vl53l1_api_preset_modes.c **** VL53L1_Error VL53L1_preset_mode_timed_ranging_long_range(
1315:Drivers/BSP/Components/vl53l1cb/modules/vl53l1_api_preset_modes.c **** 
1316:Drivers/BSP/Components/vl53l1cb/modules/vl53l1_api_preset_modes.c **** 	VL53L1_static_config_t    *pstatic,
1317:Drivers/BSP/Components/vl53l1cb/modules/vl53l1_api_preset_modes.c **** 	VL53L1_histogram_config_t *phistogram,
1318:Drivers/BSP/Components/vl53l1cb/modules/vl53l1_api_preset_modes.c **** 	VL53L1_general_config_t   *pgeneral,
1319:Drivers/BSP/Components/vl53l1cb/modules/vl53l1_api_preset_modes.c **** 	VL53L1_timing_config_t    *ptiming,
1320:Drivers/BSP/Components/vl53l1cb/modules/vl53l1_api_preset_modes.c **** 	VL53L1_dynamic_config_t   *pdynamic,
1321:Drivers/BSP/Components/vl53l1cb/modules/vl53l1_api_preset_modes.c **** 	VL53L1_system_control_t   *psystem,
1322:Drivers/BSP/Components/vl53l1cb/modules/vl53l1_api_preset_modes.c **** 	VL53L1_tuning_parm_storage_t *ptuning_parms,
1323:Drivers/BSP/Components/vl53l1cb/modules/vl53l1_api_preset_modes.c **** 	VL53L1_zone_config_t      *pzone_cfg)
1324:Drivers/BSP/Components/vl53l1cb/modules/vl53l1_api_preset_modes.c **** {
 2035              		.loc 1 1324 1 is_stmt 1 view -0
 2036              		.cfi_startproc
 2037              		@ args = 16, pretend = 0, frame = 0
 2038              		@ frame_needed = 0, uses_anonymous_args = 0
 2039              		.loc 1 1324 1 is_stmt 0 view .LVU906
ARM GAS  C:\Temp\ccoVwn9Y.s 			page 60


 2040 0000 2DE9F041 		push	{r4, r5, r6, r7, r8, lr}
 2041              		.cfi_def_cfa_offset 24
 2042              		.cfi_offset 4, -24
 2043              		.cfi_offset 5, -20
 2044              		.cfi_offset 6, -16
 2045              		.cfi_offset 7, -12
 2046              		.cfi_offset 8, -8
 2047              		.cfi_offset 14, -4
 2048 0004 84B0     		sub	sp, sp, #16
 2049              		.cfi_def_cfa_offset 40
 2050 0006 1C46     		mov	r4, r3
 2051 0008 0A9E     		ldr	r6, [sp, #40]
 2052 000a 0B9F     		ldr	r7, [sp, #44]
 2053 000c DDF83080 		ldr	r8, [sp, #48]
1325:Drivers/BSP/Components/vl53l1cb/modules/vl53l1_api_preset_modes.c **** 
1326:Drivers/BSP/Components/vl53l1cb/modules/vl53l1_api_preset_modes.c **** 
1327:Drivers/BSP/Components/vl53l1cb/modules/vl53l1_api_preset_modes.c **** 	VL53L1_Error  status = VL53L1_ERROR_NONE;
 2054              		.loc 1 1327 2 is_stmt 1 view .LVU907
 2055              	.LVL53:
1328:Drivers/BSP/Components/vl53l1cb/modules/vl53l1_api_preset_modes.c **** 
1329:Drivers/BSP/Components/vl53l1cb/modules/vl53l1_api_preset_modes.c **** 	LOG_FUNCTION_START("");
 2056              		.loc 1 1329 24 view .LVU908
1330:Drivers/BSP/Components/vl53l1cb/modules/vl53l1_api_preset_modes.c **** 
1331:Drivers/BSP/Components/vl53l1cb/modules/vl53l1_api_preset_modes.c **** 
1332:Drivers/BSP/Components/vl53l1cb/modules/vl53l1_api_preset_modes.c **** 
1333:Drivers/BSP/Components/vl53l1cb/modules/vl53l1_api_preset_modes.c **** 	status = VL53L1_preset_mode_standard_ranging_long_range(
 2057              		.loc 1 1333 2 view .LVU909
 2058              		.loc 1 1333 11 is_stmt 0 view .LVU910
 2059 0010 0D9D     		ldr	r5, [sp, #52]
 2060 0012 0395     		str	r5, [sp, #12]
 2061 0014 CDF80880 		str	r8, [sp, #8]
 2062 0018 0197     		str	r7, [sp, #4]
 2063 001a 0096     		str	r6, [sp]
 2064 001c FFF7FEFF 		bl	VL53L1_preset_mode_standard_ranging_long_range
 2065              	.LVL54:
1334:Drivers/BSP/Components/vl53l1cb/modules/vl53l1_api_preset_modes.c **** 					pstatic,
1335:Drivers/BSP/Components/vl53l1cb/modules/vl53l1_api_preset_modes.c **** 					phistogram,
1336:Drivers/BSP/Components/vl53l1cb/modules/vl53l1_api_preset_modes.c **** 					pgeneral,
1337:Drivers/BSP/Components/vl53l1cb/modules/vl53l1_api_preset_modes.c **** 					ptiming,
1338:Drivers/BSP/Components/vl53l1cb/modules/vl53l1_api_preset_modes.c **** 					pdynamic,
1339:Drivers/BSP/Components/vl53l1cb/modules/vl53l1_api_preset_modes.c **** 					psystem,
1340:Drivers/BSP/Components/vl53l1cb/modules/vl53l1_api_preset_modes.c **** 					ptuning_parms,
1341:Drivers/BSP/Components/vl53l1cb/modules/vl53l1_api_preset_modes.c **** 					pzone_cfg);
1342:Drivers/BSP/Components/vl53l1cb/modules/vl53l1_api_preset_modes.c **** 
1343:Drivers/BSP/Components/vl53l1cb/modules/vl53l1_api_preset_modes.c **** 
1344:Drivers/BSP/Components/vl53l1cb/modules/vl53l1_api_preset_modes.c **** 
1345:Drivers/BSP/Components/vl53l1cb/modules/vl53l1_api_preset_modes.c **** 	if (status == VL53L1_ERROR_NONE) {
 2066              		.loc 1 1345 2 is_stmt 1 view .LVU911
 2067              		.loc 1 1345 5 is_stmt 0 view .LVU912
 2068 0020 70B9     		cbnz	r0, .L40
1346:Drivers/BSP/Components/vl53l1cb/modules/vl53l1_api_preset_modes.c **** 
1347:Drivers/BSP/Components/vl53l1cb/modules/vl53l1_api_preset_modes.c **** 
1348:Drivers/BSP/Components/vl53l1cb/modules/vl53l1_api_preset_modes.c **** 
1349:Drivers/BSP/Components/vl53l1cb/modules/vl53l1_api_preset_modes.c **** 
1350:Drivers/BSP/Components/vl53l1cb/modules/vl53l1_api_preset_modes.c **** 		pdynamic->system__grouped_parameter_hold = 0x00;
 2069              		.loc 1 1350 3 is_stmt 1 view .LVU913
 2070              		.loc 1 1350 44 is_stmt 0 view .LVU914
ARM GAS  C:\Temp\ccoVwn9Y.s 			page 61


 2071 0022 B074     		strb	r0, [r6, #18]
1351:Drivers/BSP/Components/vl53l1cb/modules/vl53l1_api_preset_modes.c **** 
1352:Drivers/BSP/Components/vl53l1cb/modules/vl53l1_api_preset_modes.c **** 
1353:Drivers/BSP/Components/vl53l1cb/modules/vl53l1_api_preset_modes.c **** 
1354:Drivers/BSP/Components/vl53l1cb/modules/vl53l1_api_preset_modes.c **** 
1355:Drivers/BSP/Components/vl53l1cb/modules/vl53l1_api_preset_modes.c **** 
1356:Drivers/BSP/Components/vl53l1cb/modules/vl53l1_api_preset_modes.c **** 		ptiming->range_config__timeout_macrop_a_hi = 0x00;
 2072              		.loc 1 1356 3 is_stmt 1 view .LVU915
 2073              		.loc 1 1356 46 is_stmt 0 view .LVU916
 2074 0024 2071     		strb	r0, [r4, #4]
1357:Drivers/BSP/Components/vl53l1cb/modules/vl53l1_api_preset_modes.c **** 		ptiming->range_config__timeout_macrop_a_lo = 0x97;
 2075              		.loc 1 1357 3 is_stmt 1 view .LVU917
 2076              		.loc 1 1357 46 is_stmt 0 view .LVU918
 2077 0026 9722     		movs	r2, #151
 2078 0028 6271     		strb	r2, [r4, #5]
1358:Drivers/BSP/Components/vl53l1cb/modules/vl53l1_api_preset_modes.c **** 
1359:Drivers/BSP/Components/vl53l1cb/modules/vl53l1_api_preset_modes.c **** 		ptiming->range_config__timeout_macrop_b_hi = 0x00;
 2079              		.loc 1 1359 3 is_stmt 1 view .LVU919
 2080              		.loc 1 1359 46 is_stmt 0 view .LVU920
 2081 002a E071     		strb	r0, [r4, #7]
1360:Drivers/BSP/Components/vl53l1cb/modules/vl53l1_api_preset_modes.c **** 		ptiming->range_config__timeout_macrop_b_lo = 0xB1;
 2082              		.loc 1 1360 3 is_stmt 1 view .LVU921
 2083              		.loc 1 1360 46 is_stmt 0 view .LVU922
 2084 002c B123     		movs	r3, #177
 2085 002e 2372     		strb	r3, [r4, #8]
1361:Drivers/BSP/Components/vl53l1cb/modules/vl53l1_api_preset_modes.c **** 
1362:Drivers/BSP/Components/vl53l1cb/modules/vl53l1_api_preset_modes.c **** 		ptiming->system__intermeasurement_period = 0x00000600;
 2086              		.loc 1 1362 3 is_stmt 1 view .LVU923
 2087              		.loc 1 1362 44 is_stmt 0 view .LVU924
 2088 0030 4FF4C063 		mov	r3, #1536
 2089 0034 2361     		str	r3, [r4, #16]
1363:Drivers/BSP/Components/vl53l1cb/modules/vl53l1_api_preset_modes.c **** 		pdynamic->system__seed_config =
 2090              		.loc 1 1363 3 is_stmt 1 view .LVU925
1364:Drivers/BSP/Components/vl53l1cb/modules/vl53l1_api_preset_modes.c **** 				ptuning_parms->tp_timed_seed_cfg;
 2091              		.loc 1 1364 18 is_stmt 0 view .LVU926
 2092 0036 98F82830 		ldrb	r3, [r8, #40]	@ zero_extendqisi2
1363:Drivers/BSP/Components/vl53l1cb/modules/vl53l1_api_preset_modes.c **** 		pdynamic->system__seed_config =
 2093              		.loc 1 1363 33 view .LVU927
 2094 003a F371     		strb	r3, [r6, #7]
1365:Drivers/BSP/Components/vl53l1cb/modules/vl53l1_api_preset_modes.c **** 
1366:Drivers/BSP/Components/vl53l1cb/modules/vl53l1_api_preset_modes.c **** 
1367:Drivers/BSP/Components/vl53l1cb/modules/vl53l1_api_preset_modes.c **** 
1368:Drivers/BSP/Components/vl53l1cb/modules/vl53l1_api_preset_modes.c **** 
1369:Drivers/BSP/Components/vl53l1cb/modules/vl53l1_api_preset_modes.c **** 		psystem->system__mode_start =
 2095              		.loc 1 1369 3 is_stmt 1 view .LVU928
 2096              		.loc 1 1369 31 is_stmt 0 view .LVU929
 2097 003c 4023     		movs	r3, #64
 2098 003e 3B71     		strb	r3, [r7, #4]
 2099              	.L40:
1370:Drivers/BSP/Components/vl53l1cb/modules/vl53l1_api_preset_modes.c **** 				VL53L1_DEVICESCHEDULERMODE_PSEUDO_SOLO |
1371:Drivers/BSP/Components/vl53l1cb/modules/vl53l1_api_preset_modes.c **** 				VL53L1_DEVICEREADOUTMODE_SINGLE_SD     |
1372:Drivers/BSP/Components/vl53l1cb/modules/vl53l1_api_preset_modes.c **** 				VL53L1_DEVICEMEASUREMENTMODE_TIMED;
1373:Drivers/BSP/Components/vl53l1cb/modules/vl53l1_api_preset_modes.c **** 	}
1374:Drivers/BSP/Components/vl53l1cb/modules/vl53l1_api_preset_modes.c **** 
1375:Drivers/BSP/Components/vl53l1cb/modules/vl53l1_api_preset_modes.c **** 	LOG_FUNCTION_END(status);
 2100              		.loc 1 1375 26 is_stmt 1 view .LVU930
1376:Drivers/BSP/Components/vl53l1cb/modules/vl53l1_api_preset_modes.c **** 
ARM GAS  C:\Temp\ccoVwn9Y.s 			page 62


1377:Drivers/BSP/Components/vl53l1cb/modules/vl53l1_api_preset_modes.c **** 	return status;
 2101              		.loc 1 1377 2 view .LVU931
1378:Drivers/BSP/Components/vl53l1cb/modules/vl53l1_api_preset_modes.c **** }
 2102              		.loc 1 1378 1 is_stmt 0 view .LVU932
 2103 0040 04B0     		add	sp, sp, #16
 2104              		.cfi_def_cfa_offset 24
 2105              		@ sp needed
 2106 0042 BDE8F081 		pop	{r4, r5, r6, r7, r8, pc}
 2107              		.loc 1 1378 1 view .LVU933
 2108              		.cfi_endproc
 2109              	.LFE20:
 2111              		.section	.text.VL53L1_preset_mode_low_power_auto_ranging,"ax",%progbits
 2112              		.align	1
 2113              		.global	VL53L1_preset_mode_low_power_auto_ranging
 2114              		.syntax unified
 2115              		.thumb
 2116              		.thumb_func
 2118              	VL53L1_preset_mode_low_power_auto_ranging:
 2119              	.LVL55:
 2120              	.LFB21:
1379:Drivers/BSP/Components/vl53l1cb/modules/vl53l1_api_preset_modes.c **** 
1380:Drivers/BSP/Components/vl53l1cb/modules/vl53l1_api_preset_modes.c **** 
1381:Drivers/BSP/Components/vl53l1cb/modules/vl53l1_api_preset_modes.c **** VL53L1_Error VL53L1_preset_mode_low_power_auto_ranging(
1382:Drivers/BSP/Components/vl53l1cb/modules/vl53l1_api_preset_modes.c **** 
1383:Drivers/BSP/Components/vl53l1cb/modules/vl53l1_api_preset_modes.c **** 	VL53L1_static_config_t    *pstatic,
1384:Drivers/BSP/Components/vl53l1cb/modules/vl53l1_api_preset_modes.c **** 	VL53L1_histogram_config_t *phistogram,
1385:Drivers/BSP/Components/vl53l1cb/modules/vl53l1_api_preset_modes.c **** 	VL53L1_general_config_t   *pgeneral,
1386:Drivers/BSP/Components/vl53l1cb/modules/vl53l1_api_preset_modes.c **** 	VL53L1_timing_config_t    *ptiming,
1387:Drivers/BSP/Components/vl53l1cb/modules/vl53l1_api_preset_modes.c **** 	VL53L1_dynamic_config_t   *pdynamic,
1388:Drivers/BSP/Components/vl53l1cb/modules/vl53l1_api_preset_modes.c **** 	VL53L1_system_control_t   *psystem,
1389:Drivers/BSP/Components/vl53l1cb/modules/vl53l1_api_preset_modes.c **** 	VL53L1_tuning_parm_storage_t *ptuning_parms,
1390:Drivers/BSP/Components/vl53l1cb/modules/vl53l1_api_preset_modes.c **** 	VL53L1_zone_config_t      *pzone_cfg,
1391:Drivers/BSP/Components/vl53l1cb/modules/vl53l1_api_preset_modes.c **** 	VL53L1_low_power_auto_data_t *plpadata)
1392:Drivers/BSP/Components/vl53l1cb/modules/vl53l1_api_preset_modes.c **** {
 2121              		.loc 1 1392 1 is_stmt 1 view -0
 2122              		.cfi_startproc
 2123              		@ args = 20, pretend = 0, frame = 0
 2124              		@ frame_needed = 0, uses_anonymous_args = 0
 2125              		.loc 1 1392 1 is_stmt 0 view .LVU935
 2126 0000 70B5     		push	{r4, r5, r6, lr}
 2127              		.cfi_def_cfa_offset 16
 2128              		.cfi_offset 4, -16
 2129              		.cfi_offset 5, -12
 2130              		.cfi_offset 6, -8
 2131              		.cfi_offset 14, -4
 2132 0002 84B0     		sub	sp, sp, #16
 2133              		.cfi_def_cfa_offset 32
 2134 0004 1446     		mov	r4, r2
 2135 0006 089D     		ldr	r5, [sp, #32]
1393:Drivers/BSP/Components/vl53l1cb/modules/vl53l1_api_preset_modes.c **** 
1394:Drivers/BSP/Components/vl53l1cb/modules/vl53l1_api_preset_modes.c **** 
1395:Drivers/BSP/Components/vl53l1cb/modules/vl53l1_api_preset_modes.c **** 	VL53L1_Error  status = VL53L1_ERROR_NONE;
 2136              		.loc 1 1395 2 is_stmt 1 view .LVU936
 2137              	.LVL56:
1396:Drivers/BSP/Components/vl53l1cb/modules/vl53l1_api_preset_modes.c **** 
1397:Drivers/BSP/Components/vl53l1cb/modules/vl53l1_api_preset_modes.c **** 	LOG_FUNCTION_START("");
 2138              		.loc 1 1397 24 view .LVU937
ARM GAS  C:\Temp\ccoVwn9Y.s 			page 63


1398:Drivers/BSP/Components/vl53l1cb/modules/vl53l1_api_preset_modes.c **** 
1399:Drivers/BSP/Components/vl53l1cb/modules/vl53l1_api_preset_modes.c **** 
1400:Drivers/BSP/Components/vl53l1cb/modules/vl53l1_api_preset_modes.c **** 
1401:Drivers/BSP/Components/vl53l1cb/modules/vl53l1_api_preset_modes.c **** 	status = VL53L1_preset_mode_timed_ranging(
 2139              		.loc 1 1401 2 view .LVU938
 2140              		.loc 1 1401 11 is_stmt 0 view .LVU939
 2141 0008 0B9E     		ldr	r6, [sp, #44]
 2142 000a 0396     		str	r6, [sp, #12]
 2143 000c 0A9E     		ldr	r6, [sp, #40]
 2144 000e 0296     		str	r6, [sp, #8]
 2145 0010 099E     		ldr	r6, [sp, #36]
 2146 0012 0196     		str	r6, [sp, #4]
 2147 0014 0095     		str	r5, [sp]
 2148 0016 FFF7FEFF 		bl	VL53L1_preset_mode_timed_ranging
 2149              	.LVL57:
1402:Drivers/BSP/Components/vl53l1cb/modules/vl53l1_api_preset_modes.c **** 					pstatic,
1403:Drivers/BSP/Components/vl53l1cb/modules/vl53l1_api_preset_modes.c **** 					phistogram,
1404:Drivers/BSP/Components/vl53l1cb/modules/vl53l1_api_preset_modes.c **** 					pgeneral,
1405:Drivers/BSP/Components/vl53l1cb/modules/vl53l1_api_preset_modes.c **** 					ptiming,
1406:Drivers/BSP/Components/vl53l1cb/modules/vl53l1_api_preset_modes.c **** 					pdynamic,
1407:Drivers/BSP/Components/vl53l1cb/modules/vl53l1_api_preset_modes.c **** 					psystem,
1408:Drivers/BSP/Components/vl53l1cb/modules/vl53l1_api_preset_modes.c **** 					ptuning_parms,
1409:Drivers/BSP/Components/vl53l1cb/modules/vl53l1_api_preset_modes.c **** 					pzone_cfg);
1410:Drivers/BSP/Components/vl53l1cb/modules/vl53l1_api_preset_modes.c **** 
1411:Drivers/BSP/Components/vl53l1cb/modules/vl53l1_api_preset_modes.c **** 
1412:Drivers/BSP/Components/vl53l1cb/modules/vl53l1_api_preset_modes.c **** 
1413:Drivers/BSP/Components/vl53l1cb/modules/vl53l1_api_preset_modes.c **** 	if (status == VL53L1_ERROR_NONE) {
 2150              		.loc 1 1413 2 is_stmt 1 view .LVU940
 2151              		.loc 1 1413 5 is_stmt 0 view .LVU941
 2152 001a 08B1     		cbz	r0, .L45
 2153              	.LVL58:
 2154              	.L43:
1414:Drivers/BSP/Components/vl53l1cb/modules/vl53l1_api_preset_modes.c **** 		status = VL53L1_config_low_power_auto_mode(
1415:Drivers/BSP/Components/vl53l1cb/modules/vl53l1_api_preset_modes.c **** 				pgeneral,
1416:Drivers/BSP/Components/vl53l1cb/modules/vl53l1_api_preset_modes.c **** 				pdynamic,
1417:Drivers/BSP/Components/vl53l1cb/modules/vl53l1_api_preset_modes.c **** 				plpadata
1418:Drivers/BSP/Components/vl53l1cb/modules/vl53l1_api_preset_modes.c **** 				);
1419:Drivers/BSP/Components/vl53l1cb/modules/vl53l1_api_preset_modes.c **** 	}
1420:Drivers/BSP/Components/vl53l1cb/modules/vl53l1_api_preset_modes.c **** 
1421:Drivers/BSP/Components/vl53l1cb/modules/vl53l1_api_preset_modes.c **** 	LOG_FUNCTION_END(status);
 2155              		.loc 1 1421 26 is_stmt 1 view .LVU942
1422:Drivers/BSP/Components/vl53l1cb/modules/vl53l1_api_preset_modes.c **** 
1423:Drivers/BSP/Components/vl53l1cb/modules/vl53l1_api_preset_modes.c **** 	return status;
 2156              		.loc 1 1423 2 view .LVU943
1424:Drivers/BSP/Components/vl53l1cb/modules/vl53l1_api_preset_modes.c **** }
 2157              		.loc 1 1424 1 is_stmt 0 view .LVU944
 2158 001c 04B0     		add	sp, sp, #16
 2159              		.cfi_remember_state
 2160              		.cfi_def_cfa_offset 16
 2161              		@ sp needed
 2162 001e 70BD     		pop	{r4, r5, r6, pc}
 2163              	.LVL59:
 2164              	.L45:
 2165              		.cfi_restore_state
1414:Drivers/BSP/Components/vl53l1cb/modules/vl53l1_api_preset_modes.c **** 		status = VL53L1_config_low_power_auto_mode(
 2166              		.loc 1 1414 3 is_stmt 1 view .LVU945
1414:Drivers/BSP/Components/vl53l1cb/modules/vl53l1_api_preset_modes.c **** 		status = VL53L1_config_low_power_auto_mode(
ARM GAS  C:\Temp\ccoVwn9Y.s 			page 64


 2167              		.loc 1 1414 12 is_stmt 0 view .LVU946
 2168 0020 0C9A     		ldr	r2, [sp, #48]
 2169 0022 2946     		mov	r1, r5
 2170 0024 2046     		mov	r0, r4
 2171 0026 FFF7FEFF 		bl	VL53L1_config_low_power_auto_mode
 2172              	.LVL60:
1414:Drivers/BSP/Components/vl53l1cb/modules/vl53l1_api_preset_modes.c **** 		status = VL53L1_config_low_power_auto_mode(
 2173              		.loc 1 1414 12 view .LVU947
 2174 002a F7E7     		b	.L43
 2175              		.cfi_endproc
 2176              	.LFE21:
 2178              		.section	.text.VL53L1_preset_mode_low_power_auto_short_ranging,"ax",%progbits
 2179              		.align	1
 2180              		.global	VL53L1_preset_mode_low_power_auto_short_ranging
 2181              		.syntax unified
 2182              		.thumb
 2183              		.thumb_func
 2185              	VL53L1_preset_mode_low_power_auto_short_ranging:
 2186              	.LVL61:
 2187              	.LFB22:
1425:Drivers/BSP/Components/vl53l1cb/modules/vl53l1_api_preset_modes.c **** 
1426:Drivers/BSP/Components/vl53l1cb/modules/vl53l1_api_preset_modes.c **** VL53L1_Error VL53L1_preset_mode_low_power_auto_short_ranging(
1427:Drivers/BSP/Components/vl53l1cb/modules/vl53l1_api_preset_modes.c **** 
1428:Drivers/BSP/Components/vl53l1cb/modules/vl53l1_api_preset_modes.c **** 	VL53L1_static_config_t    *pstatic,
1429:Drivers/BSP/Components/vl53l1cb/modules/vl53l1_api_preset_modes.c **** 	VL53L1_histogram_config_t *phistogram,
1430:Drivers/BSP/Components/vl53l1cb/modules/vl53l1_api_preset_modes.c **** 	VL53L1_general_config_t   *pgeneral,
1431:Drivers/BSP/Components/vl53l1cb/modules/vl53l1_api_preset_modes.c **** 	VL53L1_timing_config_t    *ptiming,
1432:Drivers/BSP/Components/vl53l1cb/modules/vl53l1_api_preset_modes.c **** 	VL53L1_dynamic_config_t   *pdynamic,
1433:Drivers/BSP/Components/vl53l1cb/modules/vl53l1_api_preset_modes.c **** 	VL53L1_system_control_t   *psystem,
1434:Drivers/BSP/Components/vl53l1cb/modules/vl53l1_api_preset_modes.c **** 	VL53L1_tuning_parm_storage_t *ptuning_parms,
1435:Drivers/BSP/Components/vl53l1cb/modules/vl53l1_api_preset_modes.c **** 	VL53L1_zone_config_t      *pzone_cfg,
1436:Drivers/BSP/Components/vl53l1cb/modules/vl53l1_api_preset_modes.c **** 	VL53L1_low_power_auto_data_t *plpadata)
1437:Drivers/BSP/Components/vl53l1cb/modules/vl53l1_api_preset_modes.c **** {
 2188              		.loc 1 1437 1 is_stmt 1 view -0
 2189              		.cfi_startproc
 2190              		@ args = 20, pretend = 0, frame = 0
 2191              		@ frame_needed = 0, uses_anonymous_args = 0
 2192              		.loc 1 1437 1 is_stmt 0 view .LVU949
 2193 0000 70B5     		push	{r4, r5, r6, lr}
 2194              		.cfi_def_cfa_offset 16
 2195              		.cfi_offset 4, -16
 2196              		.cfi_offset 5, -12
 2197              		.cfi_offset 6, -8
 2198              		.cfi_offset 14, -4
 2199 0002 84B0     		sub	sp, sp, #16
 2200              		.cfi_def_cfa_offset 32
 2201 0004 1446     		mov	r4, r2
 2202 0006 089D     		ldr	r5, [sp, #32]
1438:Drivers/BSP/Components/vl53l1cb/modules/vl53l1_api_preset_modes.c **** 
1439:Drivers/BSP/Components/vl53l1cb/modules/vl53l1_api_preset_modes.c **** 
1440:Drivers/BSP/Components/vl53l1cb/modules/vl53l1_api_preset_modes.c **** 	VL53L1_Error  status = VL53L1_ERROR_NONE;
 2203              		.loc 1 1440 2 is_stmt 1 view .LVU950
 2204              	.LVL62:
1441:Drivers/BSP/Components/vl53l1cb/modules/vl53l1_api_preset_modes.c **** 
1442:Drivers/BSP/Components/vl53l1cb/modules/vl53l1_api_preset_modes.c **** 	LOG_FUNCTION_START("");
 2205              		.loc 1 1442 24 view .LVU951
1443:Drivers/BSP/Components/vl53l1cb/modules/vl53l1_api_preset_modes.c **** 
ARM GAS  C:\Temp\ccoVwn9Y.s 			page 65


1444:Drivers/BSP/Components/vl53l1cb/modules/vl53l1_api_preset_modes.c **** 
1445:Drivers/BSP/Components/vl53l1cb/modules/vl53l1_api_preset_modes.c **** 
1446:Drivers/BSP/Components/vl53l1cb/modules/vl53l1_api_preset_modes.c **** 	status = VL53L1_preset_mode_timed_ranging_short_range(
 2206              		.loc 1 1446 2 view .LVU952
 2207              		.loc 1 1446 11 is_stmt 0 view .LVU953
 2208 0008 0B9E     		ldr	r6, [sp, #44]
 2209 000a 0396     		str	r6, [sp, #12]
 2210 000c 0A9E     		ldr	r6, [sp, #40]
 2211 000e 0296     		str	r6, [sp, #8]
 2212 0010 099E     		ldr	r6, [sp, #36]
 2213 0012 0196     		str	r6, [sp, #4]
 2214 0014 0095     		str	r5, [sp]
 2215 0016 FFF7FEFF 		bl	VL53L1_preset_mode_timed_ranging_short_range
 2216              	.LVL63:
1447:Drivers/BSP/Components/vl53l1cb/modules/vl53l1_api_preset_modes.c **** 					pstatic,
1448:Drivers/BSP/Components/vl53l1cb/modules/vl53l1_api_preset_modes.c **** 					phistogram,
1449:Drivers/BSP/Components/vl53l1cb/modules/vl53l1_api_preset_modes.c **** 					pgeneral,
1450:Drivers/BSP/Components/vl53l1cb/modules/vl53l1_api_preset_modes.c **** 					ptiming,
1451:Drivers/BSP/Components/vl53l1cb/modules/vl53l1_api_preset_modes.c **** 					pdynamic,
1452:Drivers/BSP/Components/vl53l1cb/modules/vl53l1_api_preset_modes.c **** 					psystem,
1453:Drivers/BSP/Components/vl53l1cb/modules/vl53l1_api_preset_modes.c **** 					ptuning_parms,
1454:Drivers/BSP/Components/vl53l1cb/modules/vl53l1_api_preset_modes.c **** 					pzone_cfg);
1455:Drivers/BSP/Components/vl53l1cb/modules/vl53l1_api_preset_modes.c **** 
1456:Drivers/BSP/Components/vl53l1cb/modules/vl53l1_api_preset_modes.c **** 
1457:Drivers/BSP/Components/vl53l1cb/modules/vl53l1_api_preset_modes.c **** 
1458:Drivers/BSP/Components/vl53l1cb/modules/vl53l1_api_preset_modes.c **** 	if (status == VL53L1_ERROR_NONE) {
 2217              		.loc 1 1458 2 is_stmt 1 view .LVU954
 2218              		.loc 1 1458 5 is_stmt 0 view .LVU955
 2219 001a 08B1     		cbz	r0, .L49
 2220              	.LVL64:
 2221              	.L47:
1459:Drivers/BSP/Components/vl53l1cb/modules/vl53l1_api_preset_modes.c **** 		status = VL53L1_config_low_power_auto_mode(
1460:Drivers/BSP/Components/vl53l1cb/modules/vl53l1_api_preset_modes.c **** 				pgeneral,
1461:Drivers/BSP/Components/vl53l1cb/modules/vl53l1_api_preset_modes.c **** 				pdynamic,
1462:Drivers/BSP/Components/vl53l1cb/modules/vl53l1_api_preset_modes.c **** 				plpadata
1463:Drivers/BSP/Components/vl53l1cb/modules/vl53l1_api_preset_modes.c **** 				);
1464:Drivers/BSP/Components/vl53l1cb/modules/vl53l1_api_preset_modes.c **** 	}
1465:Drivers/BSP/Components/vl53l1cb/modules/vl53l1_api_preset_modes.c **** 
1466:Drivers/BSP/Components/vl53l1cb/modules/vl53l1_api_preset_modes.c **** 	LOG_FUNCTION_END(status);
 2222              		.loc 1 1466 26 is_stmt 1 view .LVU956
1467:Drivers/BSP/Components/vl53l1cb/modules/vl53l1_api_preset_modes.c **** 
1468:Drivers/BSP/Components/vl53l1cb/modules/vl53l1_api_preset_modes.c **** 	return status;
 2223              		.loc 1 1468 2 view .LVU957
1469:Drivers/BSP/Components/vl53l1cb/modules/vl53l1_api_preset_modes.c **** }
 2224              		.loc 1 1469 1 is_stmt 0 view .LVU958
 2225 001c 04B0     		add	sp, sp, #16
 2226              		.cfi_remember_state
 2227              		.cfi_def_cfa_offset 16
 2228              		@ sp needed
 2229 001e 70BD     		pop	{r4, r5, r6, pc}
 2230              	.LVL65:
 2231              	.L49:
 2232              		.cfi_restore_state
1459:Drivers/BSP/Components/vl53l1cb/modules/vl53l1_api_preset_modes.c **** 		status = VL53L1_config_low_power_auto_mode(
 2233              		.loc 1 1459 3 is_stmt 1 view .LVU959
1459:Drivers/BSP/Components/vl53l1cb/modules/vl53l1_api_preset_modes.c **** 		status = VL53L1_config_low_power_auto_mode(
 2234              		.loc 1 1459 12 is_stmt 0 view .LVU960
ARM GAS  C:\Temp\ccoVwn9Y.s 			page 66


 2235 0020 0C9A     		ldr	r2, [sp, #48]
 2236 0022 2946     		mov	r1, r5
 2237 0024 2046     		mov	r0, r4
 2238 0026 FFF7FEFF 		bl	VL53L1_config_low_power_auto_mode
 2239              	.LVL66:
1459:Drivers/BSP/Components/vl53l1cb/modules/vl53l1_api_preset_modes.c **** 		status = VL53L1_config_low_power_auto_mode(
 2240              		.loc 1 1459 12 view .LVU961
 2241 002a F7E7     		b	.L47
 2242              		.cfi_endproc
 2243              	.LFE22:
 2245              		.section	.text.VL53L1_preset_mode_low_power_auto_long_ranging,"ax",%progbits
 2246              		.align	1
 2247              		.global	VL53L1_preset_mode_low_power_auto_long_ranging
 2248              		.syntax unified
 2249              		.thumb
 2250              		.thumb_func
 2252              	VL53L1_preset_mode_low_power_auto_long_ranging:
 2253              	.LVL67:
 2254              	.LFB23:
1470:Drivers/BSP/Components/vl53l1cb/modules/vl53l1_api_preset_modes.c **** 
1471:Drivers/BSP/Components/vl53l1cb/modules/vl53l1_api_preset_modes.c **** VL53L1_Error VL53L1_preset_mode_low_power_auto_long_ranging(
1472:Drivers/BSP/Components/vl53l1cb/modules/vl53l1_api_preset_modes.c **** 
1473:Drivers/BSP/Components/vl53l1cb/modules/vl53l1_api_preset_modes.c **** 	VL53L1_static_config_t    *pstatic,
1474:Drivers/BSP/Components/vl53l1cb/modules/vl53l1_api_preset_modes.c **** 	VL53L1_histogram_config_t *phistogram,
1475:Drivers/BSP/Components/vl53l1cb/modules/vl53l1_api_preset_modes.c **** 	VL53L1_general_config_t   *pgeneral,
1476:Drivers/BSP/Components/vl53l1cb/modules/vl53l1_api_preset_modes.c **** 	VL53L1_timing_config_t    *ptiming,
1477:Drivers/BSP/Components/vl53l1cb/modules/vl53l1_api_preset_modes.c **** 	VL53L1_dynamic_config_t   *pdynamic,
1478:Drivers/BSP/Components/vl53l1cb/modules/vl53l1_api_preset_modes.c **** 	VL53L1_system_control_t   *psystem,
1479:Drivers/BSP/Components/vl53l1cb/modules/vl53l1_api_preset_modes.c **** 	VL53L1_tuning_parm_storage_t *ptuning_parms,
1480:Drivers/BSP/Components/vl53l1cb/modules/vl53l1_api_preset_modes.c **** 	VL53L1_zone_config_t      *pzone_cfg,
1481:Drivers/BSP/Components/vl53l1cb/modules/vl53l1_api_preset_modes.c **** 	VL53L1_low_power_auto_data_t *plpadata)
1482:Drivers/BSP/Components/vl53l1cb/modules/vl53l1_api_preset_modes.c **** {
 2255              		.loc 1 1482 1 is_stmt 1 view -0
 2256              		.cfi_startproc
 2257              		@ args = 20, pretend = 0, frame = 0
 2258              		@ frame_needed = 0, uses_anonymous_args = 0
 2259              		.loc 1 1482 1 is_stmt 0 view .LVU963
 2260 0000 70B5     		push	{r4, r5, r6, lr}
 2261              		.cfi_def_cfa_offset 16
 2262              		.cfi_offset 4, -16
 2263              		.cfi_offset 5, -12
 2264              		.cfi_offset 6, -8
 2265              		.cfi_offset 14, -4
 2266 0002 84B0     		sub	sp, sp, #16
 2267              		.cfi_def_cfa_offset 32
 2268 0004 1446     		mov	r4, r2
 2269 0006 089D     		ldr	r5, [sp, #32]
1483:Drivers/BSP/Components/vl53l1cb/modules/vl53l1_api_preset_modes.c **** 
1484:Drivers/BSP/Components/vl53l1cb/modules/vl53l1_api_preset_modes.c **** 
1485:Drivers/BSP/Components/vl53l1cb/modules/vl53l1_api_preset_modes.c **** 	VL53L1_Error  status = VL53L1_ERROR_NONE;
 2270              		.loc 1 1485 2 is_stmt 1 view .LVU964
 2271              	.LVL68:
1486:Drivers/BSP/Components/vl53l1cb/modules/vl53l1_api_preset_modes.c **** 
1487:Drivers/BSP/Components/vl53l1cb/modules/vl53l1_api_preset_modes.c **** 	LOG_FUNCTION_START("");
 2272              		.loc 1 1487 24 view .LVU965
1488:Drivers/BSP/Components/vl53l1cb/modules/vl53l1_api_preset_modes.c **** 
1489:Drivers/BSP/Components/vl53l1cb/modules/vl53l1_api_preset_modes.c **** 
ARM GAS  C:\Temp\ccoVwn9Y.s 			page 67


1490:Drivers/BSP/Components/vl53l1cb/modules/vl53l1_api_preset_modes.c **** 
1491:Drivers/BSP/Components/vl53l1cb/modules/vl53l1_api_preset_modes.c **** 	status = VL53L1_preset_mode_timed_ranging_long_range(
 2273              		.loc 1 1491 2 view .LVU966
 2274              		.loc 1 1491 11 is_stmt 0 view .LVU967
 2275 0008 0B9E     		ldr	r6, [sp, #44]
 2276 000a 0396     		str	r6, [sp, #12]
 2277 000c 0A9E     		ldr	r6, [sp, #40]
 2278 000e 0296     		str	r6, [sp, #8]
 2279 0010 099E     		ldr	r6, [sp, #36]
 2280 0012 0196     		str	r6, [sp, #4]
 2281 0014 0095     		str	r5, [sp]
 2282 0016 FFF7FEFF 		bl	VL53L1_preset_mode_timed_ranging_long_range
 2283              	.LVL69:
1492:Drivers/BSP/Components/vl53l1cb/modules/vl53l1_api_preset_modes.c **** 					pstatic,
1493:Drivers/BSP/Components/vl53l1cb/modules/vl53l1_api_preset_modes.c **** 					phistogram,
1494:Drivers/BSP/Components/vl53l1cb/modules/vl53l1_api_preset_modes.c **** 					pgeneral,
1495:Drivers/BSP/Components/vl53l1cb/modules/vl53l1_api_preset_modes.c **** 					ptiming,
1496:Drivers/BSP/Components/vl53l1cb/modules/vl53l1_api_preset_modes.c **** 					pdynamic,
1497:Drivers/BSP/Components/vl53l1cb/modules/vl53l1_api_preset_modes.c **** 					psystem,
1498:Drivers/BSP/Components/vl53l1cb/modules/vl53l1_api_preset_modes.c **** 					ptuning_parms,
1499:Drivers/BSP/Components/vl53l1cb/modules/vl53l1_api_preset_modes.c **** 					pzone_cfg);
1500:Drivers/BSP/Components/vl53l1cb/modules/vl53l1_api_preset_modes.c **** 
1501:Drivers/BSP/Components/vl53l1cb/modules/vl53l1_api_preset_modes.c **** 
1502:Drivers/BSP/Components/vl53l1cb/modules/vl53l1_api_preset_modes.c **** 
1503:Drivers/BSP/Components/vl53l1cb/modules/vl53l1_api_preset_modes.c **** 	if (status == VL53L1_ERROR_NONE) {
 2284              		.loc 1 1503 2 is_stmt 1 view .LVU968
 2285              		.loc 1 1503 5 is_stmt 0 view .LVU969
 2286 001a 08B1     		cbz	r0, .L53
 2287              	.LVL70:
 2288              	.L51:
1504:Drivers/BSP/Components/vl53l1cb/modules/vl53l1_api_preset_modes.c **** 		status = VL53L1_config_low_power_auto_mode(
1505:Drivers/BSP/Components/vl53l1cb/modules/vl53l1_api_preset_modes.c **** 				pgeneral,
1506:Drivers/BSP/Components/vl53l1cb/modules/vl53l1_api_preset_modes.c **** 				pdynamic,
1507:Drivers/BSP/Components/vl53l1cb/modules/vl53l1_api_preset_modes.c **** 				plpadata
1508:Drivers/BSP/Components/vl53l1cb/modules/vl53l1_api_preset_modes.c **** 				);
1509:Drivers/BSP/Components/vl53l1cb/modules/vl53l1_api_preset_modes.c **** 	}
1510:Drivers/BSP/Components/vl53l1cb/modules/vl53l1_api_preset_modes.c **** 
1511:Drivers/BSP/Components/vl53l1cb/modules/vl53l1_api_preset_modes.c **** 	LOG_FUNCTION_END(status);
 2289              		.loc 1 1511 26 is_stmt 1 view .LVU970
1512:Drivers/BSP/Components/vl53l1cb/modules/vl53l1_api_preset_modes.c **** 
1513:Drivers/BSP/Components/vl53l1cb/modules/vl53l1_api_preset_modes.c **** 	return status;
 2290              		.loc 1 1513 2 view .LVU971
1514:Drivers/BSP/Components/vl53l1cb/modules/vl53l1_api_preset_modes.c **** }
 2291              		.loc 1 1514 1 is_stmt 0 view .LVU972
 2292 001c 04B0     		add	sp, sp, #16
 2293              		.cfi_remember_state
 2294              		.cfi_def_cfa_offset 16
 2295              		@ sp needed
 2296 001e 70BD     		pop	{r4, r5, r6, pc}
 2297              	.LVL71:
 2298              	.L53:
 2299              		.cfi_restore_state
1504:Drivers/BSP/Components/vl53l1cb/modules/vl53l1_api_preset_modes.c **** 		status = VL53L1_config_low_power_auto_mode(
 2300              		.loc 1 1504 3 is_stmt 1 view .LVU973
1504:Drivers/BSP/Components/vl53l1cb/modules/vl53l1_api_preset_modes.c **** 		status = VL53L1_config_low_power_auto_mode(
 2301              		.loc 1 1504 12 is_stmt 0 view .LVU974
 2302 0020 0C9A     		ldr	r2, [sp, #48]
ARM GAS  C:\Temp\ccoVwn9Y.s 			page 68


 2303 0022 2946     		mov	r1, r5
 2304 0024 2046     		mov	r0, r4
 2305 0026 FFF7FEFF 		bl	VL53L1_config_low_power_auto_mode
 2306              	.LVL72:
1504:Drivers/BSP/Components/vl53l1cb/modules/vl53l1_api_preset_modes.c **** 		status = VL53L1_config_low_power_auto_mode(
 2307              		.loc 1 1504 12 view .LVU975
 2308 002a F7E7     		b	.L51
 2309              		.cfi_endproc
 2310              	.LFE23:
 2312              		.section	.text.VL53L1_preset_mode_singleshot_ranging,"ax",%progbits
 2313              		.align	1
 2314              		.global	VL53L1_preset_mode_singleshot_ranging
 2315              		.syntax unified
 2316              		.thumb
 2317              		.thumb_func
 2319              	VL53L1_preset_mode_singleshot_ranging:
 2320              	.LVL73:
 2321              	.LFB24:
1515:Drivers/BSP/Components/vl53l1cb/modules/vl53l1_api_preset_modes.c **** 
1516:Drivers/BSP/Components/vl53l1cb/modules/vl53l1_api_preset_modes.c **** 
1517:Drivers/BSP/Components/vl53l1cb/modules/vl53l1_api_preset_modes.c **** 
1518:Drivers/BSP/Components/vl53l1cb/modules/vl53l1_api_preset_modes.c **** VL53L1_Error VL53L1_preset_mode_singleshot_ranging(
1519:Drivers/BSP/Components/vl53l1cb/modules/vl53l1_api_preset_modes.c **** 
1520:Drivers/BSP/Components/vl53l1cb/modules/vl53l1_api_preset_modes.c **** 	VL53L1_static_config_t    *pstatic,
1521:Drivers/BSP/Components/vl53l1cb/modules/vl53l1_api_preset_modes.c **** 	VL53L1_histogram_config_t *phistogram,
1522:Drivers/BSP/Components/vl53l1cb/modules/vl53l1_api_preset_modes.c **** 	VL53L1_general_config_t   *pgeneral,
1523:Drivers/BSP/Components/vl53l1cb/modules/vl53l1_api_preset_modes.c **** 	VL53L1_timing_config_t    *ptiming,
1524:Drivers/BSP/Components/vl53l1cb/modules/vl53l1_api_preset_modes.c **** 	VL53L1_dynamic_config_t   *pdynamic,
1525:Drivers/BSP/Components/vl53l1cb/modules/vl53l1_api_preset_modes.c **** 	VL53L1_system_control_t   *psystem,
1526:Drivers/BSP/Components/vl53l1cb/modules/vl53l1_api_preset_modes.c **** 	VL53L1_tuning_parm_storage_t *ptuning_parms,
1527:Drivers/BSP/Components/vl53l1cb/modules/vl53l1_api_preset_modes.c **** 	VL53L1_zone_config_t      *pzone_cfg)
1528:Drivers/BSP/Components/vl53l1cb/modules/vl53l1_api_preset_modes.c **** {
 2322              		.loc 1 1528 1 is_stmt 1 view -0
 2323              		.cfi_startproc
 2324              		@ args = 16, pretend = 0, frame = 0
 2325              		@ frame_needed = 0, uses_anonymous_args = 0
 2326              		.loc 1 1528 1 is_stmt 0 view .LVU977
 2327 0000 2DE9F041 		push	{r4, r5, r6, r7, r8, lr}
 2328              		.cfi_def_cfa_offset 24
 2329              		.cfi_offset 4, -24
 2330              		.cfi_offset 5, -20
 2331              		.cfi_offset 6, -16
 2332              		.cfi_offset 7, -12
 2333              		.cfi_offset 8, -8
 2334              		.cfi_offset 14, -4
 2335 0004 84B0     		sub	sp, sp, #16
 2336              		.cfi_def_cfa_offset 40
 2337 0006 1C46     		mov	r4, r3
 2338 0008 0A9E     		ldr	r6, [sp, #40]
 2339 000a 0B9F     		ldr	r7, [sp, #44]
 2340 000c DDF83080 		ldr	r8, [sp, #48]
1529:Drivers/BSP/Components/vl53l1cb/modules/vl53l1_api_preset_modes.c **** 
1530:Drivers/BSP/Components/vl53l1cb/modules/vl53l1_api_preset_modes.c **** 
1531:Drivers/BSP/Components/vl53l1cb/modules/vl53l1_api_preset_modes.c **** 	VL53L1_Error  status = VL53L1_ERROR_NONE;
 2341              		.loc 1 1531 2 is_stmt 1 view .LVU978
 2342              	.LVL74:
1532:Drivers/BSP/Components/vl53l1cb/modules/vl53l1_api_preset_modes.c **** 
ARM GAS  C:\Temp\ccoVwn9Y.s 			page 69


1533:Drivers/BSP/Components/vl53l1cb/modules/vl53l1_api_preset_modes.c **** 	LOG_FUNCTION_START("");
 2343              		.loc 1 1533 24 view .LVU979
1534:Drivers/BSP/Components/vl53l1cb/modules/vl53l1_api_preset_modes.c **** 
1535:Drivers/BSP/Components/vl53l1cb/modules/vl53l1_api_preset_modes.c **** 
1536:Drivers/BSP/Components/vl53l1cb/modules/vl53l1_api_preset_modes.c **** 
1537:Drivers/BSP/Components/vl53l1cb/modules/vl53l1_api_preset_modes.c **** 	status = VL53L1_preset_mode_standard_ranging(
 2344              		.loc 1 1537 2 view .LVU980
 2345              		.loc 1 1537 11 is_stmt 0 view .LVU981
 2346 0010 0D9D     		ldr	r5, [sp, #52]
 2347 0012 0395     		str	r5, [sp, #12]
 2348 0014 CDF80880 		str	r8, [sp, #8]
 2349 0018 0197     		str	r7, [sp, #4]
 2350 001a 0096     		str	r6, [sp]
 2351 001c FFF7FEFF 		bl	VL53L1_preset_mode_standard_ranging
 2352              	.LVL75:
1538:Drivers/BSP/Components/vl53l1cb/modules/vl53l1_api_preset_modes.c **** 		pstatic,
1539:Drivers/BSP/Components/vl53l1cb/modules/vl53l1_api_preset_modes.c **** 		phistogram,
1540:Drivers/BSP/Components/vl53l1cb/modules/vl53l1_api_preset_modes.c **** 		pgeneral,
1541:Drivers/BSP/Components/vl53l1cb/modules/vl53l1_api_preset_modes.c **** 		ptiming,
1542:Drivers/BSP/Components/vl53l1cb/modules/vl53l1_api_preset_modes.c **** 		pdynamic,
1543:Drivers/BSP/Components/vl53l1cb/modules/vl53l1_api_preset_modes.c **** 		psystem,
1544:Drivers/BSP/Components/vl53l1cb/modules/vl53l1_api_preset_modes.c **** 		ptuning_parms,
1545:Drivers/BSP/Components/vl53l1cb/modules/vl53l1_api_preset_modes.c **** 		pzone_cfg);
1546:Drivers/BSP/Components/vl53l1cb/modules/vl53l1_api_preset_modes.c **** 
1547:Drivers/BSP/Components/vl53l1cb/modules/vl53l1_api_preset_modes.c **** 
1548:Drivers/BSP/Components/vl53l1cb/modules/vl53l1_api_preset_modes.c **** 
1549:Drivers/BSP/Components/vl53l1cb/modules/vl53l1_api_preset_modes.c **** 	if (status == VL53L1_ERROR_NONE) {
 2353              		.loc 1 1549 2 is_stmt 1 view .LVU982
 2354              		.loc 1 1549 5 is_stmt 0 view .LVU983
 2355 0020 58B9     		cbnz	r0, .L55
1550:Drivers/BSP/Components/vl53l1cb/modules/vl53l1_api_preset_modes.c **** 
1551:Drivers/BSP/Components/vl53l1cb/modules/vl53l1_api_preset_modes.c **** 
1552:Drivers/BSP/Components/vl53l1cb/modules/vl53l1_api_preset_modes.c **** 
1553:Drivers/BSP/Components/vl53l1cb/modules/vl53l1_api_preset_modes.c **** 
1554:Drivers/BSP/Components/vl53l1cb/modules/vl53l1_api_preset_modes.c **** 		pdynamic->system__grouped_parameter_hold = 0x00;
 2356              		.loc 1 1554 3 is_stmt 1 view .LVU984
 2357              		.loc 1 1554 44 is_stmt 0 view .LVU985
 2358 0022 B074     		strb	r0, [r6, #18]
1555:Drivers/BSP/Components/vl53l1cb/modules/vl53l1_api_preset_modes.c **** 
1556:Drivers/BSP/Components/vl53l1cb/modules/vl53l1_api_preset_modes.c **** 
1557:Drivers/BSP/Components/vl53l1cb/modules/vl53l1_api_preset_modes.c **** 
1558:Drivers/BSP/Components/vl53l1cb/modules/vl53l1_api_preset_modes.c **** 
1559:Drivers/BSP/Components/vl53l1cb/modules/vl53l1_api_preset_modes.c **** 		ptiming->range_config__timeout_macrop_a_hi = 0x00;
 2359              		.loc 1 1559 3 is_stmt 1 view .LVU986
 2360              		.loc 1 1559 46 is_stmt 0 view .LVU987
 2361 0024 2071     		strb	r0, [r4, #4]
1560:Drivers/BSP/Components/vl53l1cb/modules/vl53l1_api_preset_modes.c **** 		ptiming->range_config__timeout_macrop_a_lo = 0xB1;
 2362              		.loc 1 1560 3 is_stmt 1 view .LVU988
 2363              		.loc 1 1560 46 is_stmt 0 view .LVU989
 2364 0026 B122     		movs	r2, #177
 2365 0028 6271     		strb	r2, [r4, #5]
1561:Drivers/BSP/Components/vl53l1cb/modules/vl53l1_api_preset_modes.c **** 
1562:Drivers/BSP/Components/vl53l1cb/modules/vl53l1_api_preset_modes.c **** 		ptiming->range_config__timeout_macrop_b_hi = 0x00;
 2366              		.loc 1 1562 3 is_stmt 1 view .LVU990
 2367              		.loc 1 1562 46 is_stmt 0 view .LVU991
 2368 002a E071     		strb	r0, [r4, #7]
1563:Drivers/BSP/Components/vl53l1cb/modules/vl53l1_api_preset_modes.c **** 		ptiming->range_config__timeout_macrop_b_lo = 0xD4;
ARM GAS  C:\Temp\ccoVwn9Y.s 			page 70


 2369              		.loc 1 1563 3 is_stmt 1 view .LVU992
 2370              		.loc 1 1563 46 is_stmt 0 view .LVU993
 2371 002c D423     		movs	r3, #212
 2372 002e 2372     		strb	r3, [r4, #8]
1564:Drivers/BSP/Components/vl53l1cb/modules/vl53l1_api_preset_modes.c **** 
1565:Drivers/BSP/Components/vl53l1cb/modules/vl53l1_api_preset_modes.c **** 		pdynamic->system__seed_config =
 2373              		.loc 1 1565 3 is_stmt 1 view .LVU994
1566:Drivers/BSP/Components/vl53l1cb/modules/vl53l1_api_preset_modes.c **** 				ptuning_parms->tp_timed_seed_cfg;
 2374              		.loc 1 1566 18 is_stmt 0 view .LVU995
 2375 0030 98F82830 		ldrb	r3, [r8, #40]	@ zero_extendqisi2
1565:Drivers/BSP/Components/vl53l1cb/modules/vl53l1_api_preset_modes.c **** 				ptuning_parms->tp_timed_seed_cfg;
 2376              		.loc 1 1565 33 view .LVU996
 2377 0034 F371     		strb	r3, [r6, #7]
1567:Drivers/BSP/Components/vl53l1cb/modules/vl53l1_api_preset_modes.c **** 
1568:Drivers/BSP/Components/vl53l1cb/modules/vl53l1_api_preset_modes.c **** 
1569:Drivers/BSP/Components/vl53l1cb/modules/vl53l1_api_preset_modes.c **** 
1570:Drivers/BSP/Components/vl53l1cb/modules/vl53l1_api_preset_modes.c **** 
1571:Drivers/BSP/Components/vl53l1cb/modules/vl53l1_api_preset_modes.c **** 		psystem->system__mode_start =
 2378              		.loc 1 1571 3 is_stmt 1 view .LVU997
 2379              		.loc 1 1571 31 is_stmt 0 view .LVU998
 2380 0036 1023     		movs	r3, #16
 2381 0038 3B71     		strb	r3, [r7, #4]
 2382              	.L55:
1572:Drivers/BSP/Components/vl53l1cb/modules/vl53l1_api_preset_modes.c **** 				VL53L1_DEVICESCHEDULERMODE_PSEUDO_SOLO |
1573:Drivers/BSP/Components/vl53l1cb/modules/vl53l1_api_preset_modes.c **** 				VL53L1_DEVICEREADOUTMODE_SINGLE_SD     |
1574:Drivers/BSP/Components/vl53l1cb/modules/vl53l1_api_preset_modes.c **** 				VL53L1_DEVICEMEASUREMENTMODE_SINGLESHOT;
1575:Drivers/BSP/Components/vl53l1cb/modules/vl53l1_api_preset_modes.c **** 	}
1576:Drivers/BSP/Components/vl53l1cb/modules/vl53l1_api_preset_modes.c **** 
1577:Drivers/BSP/Components/vl53l1cb/modules/vl53l1_api_preset_modes.c **** 	LOG_FUNCTION_END(status);
 2383              		.loc 1 1577 26 is_stmt 1 view .LVU999
1578:Drivers/BSP/Components/vl53l1cb/modules/vl53l1_api_preset_modes.c **** 
1579:Drivers/BSP/Components/vl53l1cb/modules/vl53l1_api_preset_modes.c **** 	return status;
 2384              		.loc 1 1579 2 view .LVU1000
1580:Drivers/BSP/Components/vl53l1cb/modules/vl53l1_api_preset_modes.c **** }
 2385              		.loc 1 1580 1 is_stmt 0 view .LVU1001
 2386 003a 04B0     		add	sp, sp, #16
 2387              		.cfi_def_cfa_offset 24
 2388              		@ sp needed
 2389 003c BDE8F081 		pop	{r4, r5, r6, r7, r8, pc}
 2390              		.loc 1 1580 1 view .LVU1002
 2391              		.cfi_endproc
 2392              	.LFE24:
 2394              		.section	.text.VL53L1_preset_mode_olt,"ax",%progbits
 2395              		.align	1
 2396              		.global	VL53L1_preset_mode_olt
 2397              		.syntax unified
 2398              		.thumb
 2399              		.thumb_func
 2401              	VL53L1_preset_mode_olt:
 2402              	.LVL76:
 2403              	.LFB48:
1581:Drivers/BSP/Components/vl53l1cb/modules/vl53l1_api_preset_modes.c **** 
1582:Drivers/BSP/Components/vl53l1cb/modules/vl53l1_api_preset_modes.c **** 
1583:Drivers/BSP/Components/vl53l1cb/modules/vl53l1_api_preset_modes.c **** VL53L1_Error VL53L1_preset_mode_histogram_ranging(
1584:Drivers/BSP/Components/vl53l1cb/modules/vl53l1_api_preset_modes.c **** 	VL53L1_hist_post_process_config_t  *phistpostprocess,
1585:Drivers/BSP/Components/vl53l1cb/modules/vl53l1_api_preset_modes.c **** 	VL53L1_static_config_t             *pstatic,
1586:Drivers/BSP/Components/vl53l1cb/modules/vl53l1_api_preset_modes.c **** 	VL53L1_histogram_config_t          *phistogram,
ARM GAS  C:\Temp\ccoVwn9Y.s 			page 71


1587:Drivers/BSP/Components/vl53l1cb/modules/vl53l1_api_preset_modes.c **** 	VL53L1_general_config_t            *pgeneral,
1588:Drivers/BSP/Components/vl53l1cb/modules/vl53l1_api_preset_modes.c **** 	VL53L1_timing_config_t             *ptiming,
1589:Drivers/BSP/Components/vl53l1cb/modules/vl53l1_api_preset_modes.c **** 	VL53L1_dynamic_config_t            *pdynamic,
1590:Drivers/BSP/Components/vl53l1cb/modules/vl53l1_api_preset_modes.c **** 	VL53L1_system_control_t            *psystem,
1591:Drivers/BSP/Components/vl53l1cb/modules/vl53l1_api_preset_modes.c **** 	VL53L1_tuning_parm_storage_t       *ptuning_parms,
1592:Drivers/BSP/Components/vl53l1cb/modules/vl53l1_api_preset_modes.c **** 	VL53L1_zone_config_t               *pzone_cfg)
1593:Drivers/BSP/Components/vl53l1cb/modules/vl53l1_api_preset_modes.c **** {
1594:Drivers/BSP/Components/vl53l1cb/modules/vl53l1_api_preset_modes.c **** 
1595:Drivers/BSP/Components/vl53l1cb/modules/vl53l1_api_preset_modes.c **** 
1596:Drivers/BSP/Components/vl53l1cb/modules/vl53l1_api_preset_modes.c **** 	VL53L1_Error  status = VL53L1_ERROR_NONE;
1597:Drivers/BSP/Components/vl53l1cb/modules/vl53l1_api_preset_modes.c **** 
1598:Drivers/BSP/Components/vl53l1cb/modules/vl53l1_api_preset_modes.c **** 	LOG_FUNCTION_START("");
1599:Drivers/BSP/Components/vl53l1cb/modules/vl53l1_api_preset_modes.c **** 
1600:Drivers/BSP/Components/vl53l1cb/modules/vl53l1_api_preset_modes.c **** 
1601:Drivers/BSP/Components/vl53l1cb/modules/vl53l1_api_preset_modes.c **** 
1602:Drivers/BSP/Components/vl53l1cb/modules/vl53l1_api_preset_modes.c **** 	status =
1603:Drivers/BSP/Components/vl53l1cb/modules/vl53l1_api_preset_modes.c **** 		VL53L1_preset_mode_standard_ranging(
1604:Drivers/BSP/Components/vl53l1cb/modules/vl53l1_api_preset_modes.c **** 			pstatic,
1605:Drivers/BSP/Components/vl53l1cb/modules/vl53l1_api_preset_modes.c **** 			phistogram,
1606:Drivers/BSP/Components/vl53l1cb/modules/vl53l1_api_preset_modes.c **** 			pgeneral,
1607:Drivers/BSP/Components/vl53l1cb/modules/vl53l1_api_preset_modes.c **** 			ptiming,
1608:Drivers/BSP/Components/vl53l1cb/modules/vl53l1_api_preset_modes.c **** 			pdynamic,
1609:Drivers/BSP/Components/vl53l1cb/modules/vl53l1_api_preset_modes.c **** 			psystem,
1610:Drivers/BSP/Components/vl53l1cb/modules/vl53l1_api_preset_modes.c **** 			ptuning_parms,
1611:Drivers/BSP/Components/vl53l1cb/modules/vl53l1_api_preset_modes.c **** 			pzone_cfg);
1612:Drivers/BSP/Components/vl53l1cb/modules/vl53l1_api_preset_modes.c **** 
1613:Drivers/BSP/Components/vl53l1cb/modules/vl53l1_api_preset_modes.c **** 
1614:Drivers/BSP/Components/vl53l1cb/modules/vl53l1_api_preset_modes.c **** 
1615:Drivers/BSP/Components/vl53l1cb/modules/vl53l1_api_preset_modes.c **** 	if (status == VL53L1_ERROR_NONE) {
1616:Drivers/BSP/Components/vl53l1cb/modules/vl53l1_api_preset_modes.c **** 
1617:Drivers/BSP/Components/vl53l1cb/modules/vl53l1_api_preset_modes.c **** 
1618:Drivers/BSP/Components/vl53l1cb/modules/vl53l1_api_preset_modes.c **** 
1619:Drivers/BSP/Components/vl53l1cb/modules/vl53l1_api_preset_modes.c **** 		pstatic->dss_config__target_total_rate_mcps = 0x1400;
1620:Drivers/BSP/Components/vl53l1cb/modules/vl53l1_api_preset_modes.c **** 
1621:Drivers/BSP/Components/vl53l1cb/modules/vl53l1_api_preset_modes.c **** 
1622:Drivers/BSP/Components/vl53l1cb/modules/vl53l1_api_preset_modes.c **** 
1623:Drivers/BSP/Components/vl53l1cb/modules/vl53l1_api_preset_modes.c **** 		VL53L1_init_histogram_config_structure(
1624:Drivers/BSP/Components/vl53l1cb/modules/vl53l1_api_preset_modes.c **** 				7, 0, 1, 2, 3, 4,
1625:Drivers/BSP/Components/vl53l1cb/modules/vl53l1_api_preset_modes.c **** 				0, 1, 2, 3, 4, 5,
1626:Drivers/BSP/Components/vl53l1cb/modules/vl53l1_api_preset_modes.c **** 				phistogram);
1627:Drivers/BSP/Components/vl53l1cb/modules/vl53l1_api_preset_modes.c **** 
1628:Drivers/BSP/Components/vl53l1cb/modules/vl53l1_api_preset_modes.c **** 
1629:Drivers/BSP/Components/vl53l1cb/modules/vl53l1_api_preset_modes.c **** 		VL53L1_init_histogram_multizone_config_structure(
1630:Drivers/BSP/Components/vl53l1cb/modules/vl53l1_api_preset_modes.c **** 				7, 0, 1, 2, 3, 4,
1631:Drivers/BSP/Components/vl53l1cb/modules/vl53l1_api_preset_modes.c **** 				0, 1, 2, 3, 4, 5,
1632:Drivers/BSP/Components/vl53l1cb/modules/vl53l1_api_preset_modes.c **** 				&(pzone_cfg->multizone_hist_cfg));
1633:Drivers/BSP/Components/vl53l1cb/modules/vl53l1_api_preset_modes.c **** 
1634:Drivers/BSP/Components/vl53l1cb/modules/vl53l1_api_preset_modes.c **** 
1635:Drivers/BSP/Components/vl53l1cb/modules/vl53l1_api_preset_modes.c **** 
1636:Drivers/BSP/Components/vl53l1cb/modules/vl53l1_api_preset_modes.c **** 
1637:Drivers/BSP/Components/vl53l1cb/modules/vl53l1_api_preset_modes.c **** 		ptiming->range_config__vcsel_period_a = 0x09;
1638:Drivers/BSP/Components/vl53l1cb/modules/vl53l1_api_preset_modes.c **** 		ptiming->range_config__vcsel_period_b = 0x0B;
1639:Drivers/BSP/Components/vl53l1cb/modules/vl53l1_api_preset_modes.c **** 		pdynamic->sd_config__woi_sd0 = 0x09;
1640:Drivers/BSP/Components/vl53l1cb/modules/vl53l1_api_preset_modes.c **** 		pdynamic->sd_config__woi_sd1 = 0x0B;
1641:Drivers/BSP/Components/vl53l1cb/modules/vl53l1_api_preset_modes.c **** 
1642:Drivers/BSP/Components/vl53l1cb/modules/vl53l1_api_preset_modes.c **** 
1643:Drivers/BSP/Components/vl53l1cb/modules/vl53l1_api_preset_modes.c **** 
ARM GAS  C:\Temp\ccoVwn9Y.s 			page 72


1644:Drivers/BSP/Components/vl53l1cb/modules/vl53l1_api_preset_modes.c **** 
1645:Drivers/BSP/Components/vl53l1cb/modules/vl53l1_api_preset_modes.c **** 		ptiming->mm_config__timeout_macrop_a_hi = 0x00;
1646:Drivers/BSP/Components/vl53l1cb/modules/vl53l1_api_preset_modes.c **** 		ptiming->mm_config__timeout_macrop_a_lo = 0x20;
1647:Drivers/BSP/Components/vl53l1cb/modules/vl53l1_api_preset_modes.c **** 		ptiming->mm_config__timeout_macrop_b_hi = 0x00;
1648:Drivers/BSP/Components/vl53l1cb/modules/vl53l1_api_preset_modes.c **** 		ptiming->mm_config__timeout_macrop_b_lo = 0x1A;
1649:Drivers/BSP/Components/vl53l1cb/modules/vl53l1_api_preset_modes.c **** 
1650:Drivers/BSP/Components/vl53l1cb/modules/vl53l1_api_preset_modes.c **** 
1651:Drivers/BSP/Components/vl53l1cb/modules/vl53l1_api_preset_modes.c **** 		ptiming->range_config__timeout_macrop_a_hi = 0x00;
1652:Drivers/BSP/Components/vl53l1cb/modules/vl53l1_api_preset_modes.c **** 		ptiming->range_config__timeout_macrop_a_lo = 0x28;
1653:Drivers/BSP/Components/vl53l1cb/modules/vl53l1_api_preset_modes.c **** 
1654:Drivers/BSP/Components/vl53l1cb/modules/vl53l1_api_preset_modes.c **** 
1655:Drivers/BSP/Components/vl53l1cb/modules/vl53l1_api_preset_modes.c **** 		ptiming->range_config__timeout_macrop_b_hi = 0x00;
1656:Drivers/BSP/Components/vl53l1cb/modules/vl53l1_api_preset_modes.c **** 		ptiming->range_config__timeout_macrop_b_lo = 0x21;
1657:Drivers/BSP/Components/vl53l1cb/modules/vl53l1_api_preset_modes.c **** 
1658:Drivers/BSP/Components/vl53l1cb/modules/vl53l1_api_preset_modes.c **** 
1659:Drivers/BSP/Components/vl53l1cb/modules/vl53l1_api_preset_modes.c **** 		pgeneral->phasecal_config__timeout_macrop = 0xF5;
1660:Drivers/BSP/Components/vl53l1cb/modules/vl53l1_api_preset_modes.c **** 
1661:Drivers/BSP/Components/vl53l1cb/modules/vl53l1_api_preset_modes.c **** 
1662:Drivers/BSP/Components/vl53l1cb/modules/vl53l1_api_preset_modes.c **** 
1663:Drivers/BSP/Components/vl53l1cb/modules/vl53l1_api_preset_modes.c **** 		phistpostprocess->valid_phase_low = 0x08;
1664:Drivers/BSP/Components/vl53l1cb/modules/vl53l1_api_preset_modes.c **** 		phistpostprocess->valid_phase_high = 0x88;
1665:Drivers/BSP/Components/vl53l1cb/modules/vl53l1_api_preset_modes.c **** 
1666:Drivers/BSP/Components/vl53l1cb/modules/vl53l1_api_preset_modes.c **** 
1667:Drivers/BSP/Components/vl53l1cb/modules/vl53l1_api_preset_modes.c **** 
1668:Drivers/BSP/Components/vl53l1cb/modules/vl53l1_api_preset_modes.c **** 		VL53L1_copy_hist_cfg_to_static_cfg(
1669:Drivers/BSP/Components/vl53l1cb/modules/vl53l1_api_preset_modes.c **** 				phistogram,
1670:Drivers/BSP/Components/vl53l1cb/modules/vl53l1_api_preset_modes.c **** 				pstatic,
1671:Drivers/BSP/Components/vl53l1cb/modules/vl53l1_api_preset_modes.c **** 				pgeneral,
1672:Drivers/BSP/Components/vl53l1cb/modules/vl53l1_api_preset_modes.c **** 				ptiming,
1673:Drivers/BSP/Components/vl53l1cb/modules/vl53l1_api_preset_modes.c **** 				pdynamic);
1674:Drivers/BSP/Components/vl53l1cb/modules/vl53l1_api_preset_modes.c **** 
1675:Drivers/BSP/Components/vl53l1cb/modules/vl53l1_api_preset_modes.c **** 
1676:Drivers/BSP/Components/vl53l1cb/modules/vl53l1_api_preset_modes.c **** 
1677:Drivers/BSP/Components/vl53l1cb/modules/vl53l1_api_preset_modes.c **** 
1678:Drivers/BSP/Components/vl53l1cb/modules/vl53l1_api_preset_modes.c **** 		pdynamic->system__sequence_config =
1679:Drivers/BSP/Components/vl53l1cb/modules/vl53l1_api_preset_modes.c **** 				VL53L1_SEQUENCE_VHV_EN |
1680:Drivers/BSP/Components/vl53l1cb/modules/vl53l1_api_preset_modes.c **** 				VL53L1_SEQUENCE_PHASECAL_EN |
1681:Drivers/BSP/Components/vl53l1cb/modules/vl53l1_api_preset_modes.c **** 				VL53L1_SEQUENCE_DSS1_EN |
1682:Drivers/BSP/Components/vl53l1cb/modules/vl53l1_api_preset_modes.c **** 				VL53L1_SEQUENCE_DSS2_EN |
1683:Drivers/BSP/Components/vl53l1cb/modules/vl53l1_api_preset_modes.c **** 
1684:Drivers/BSP/Components/vl53l1cb/modules/vl53l1_api_preset_modes.c **** 
1685:Drivers/BSP/Components/vl53l1cb/modules/vl53l1_api_preset_modes.c **** 				VL53L1_SEQUENCE_RANGE_EN;
1686:Drivers/BSP/Components/vl53l1cb/modules/vl53l1_api_preset_modes.c **** 
1687:Drivers/BSP/Components/vl53l1cb/modules/vl53l1_api_preset_modes.c **** 
1688:Drivers/BSP/Components/vl53l1cb/modules/vl53l1_api_preset_modes.c **** 
1689:Drivers/BSP/Components/vl53l1cb/modules/vl53l1_api_preset_modes.c **** 
1690:Drivers/BSP/Components/vl53l1cb/modules/vl53l1_api_preset_modes.c **** 		psystem->system__mode_start =
1691:Drivers/BSP/Components/vl53l1cb/modules/vl53l1_api_preset_modes.c **** 				VL53L1_DEVICESCHEDULERMODE_HISTOGRAM |
1692:Drivers/BSP/Components/vl53l1cb/modules/vl53l1_api_preset_modes.c **** 				VL53L1_DEVICEREADOUTMODE_DUAL_SD |
1693:Drivers/BSP/Components/vl53l1cb/modules/vl53l1_api_preset_modes.c **** 				VL53L1_DEVICEMEASUREMENTMODE_BACKTOBACK;
1694:Drivers/BSP/Components/vl53l1cb/modules/vl53l1_api_preset_modes.c **** 	}
1695:Drivers/BSP/Components/vl53l1cb/modules/vl53l1_api_preset_modes.c **** 
1696:Drivers/BSP/Components/vl53l1cb/modules/vl53l1_api_preset_modes.c **** 	LOG_FUNCTION_END(status);
1697:Drivers/BSP/Components/vl53l1cb/modules/vl53l1_api_preset_modes.c **** 
1698:Drivers/BSP/Components/vl53l1cb/modules/vl53l1_api_preset_modes.c **** 	return status;
1699:Drivers/BSP/Components/vl53l1cb/modules/vl53l1_api_preset_modes.c **** }
1700:Drivers/BSP/Components/vl53l1cb/modules/vl53l1_api_preset_modes.c **** 
ARM GAS  C:\Temp\ccoVwn9Y.s 			page 73


1701:Drivers/BSP/Components/vl53l1cb/modules/vl53l1_api_preset_modes.c **** 
1702:Drivers/BSP/Components/vl53l1cb/modules/vl53l1_api_preset_modes.c **** VL53L1_Error VL53L1_preset_mode_histogram_ranging_with_mm1(
1703:Drivers/BSP/Components/vl53l1cb/modules/vl53l1_api_preset_modes.c **** 	VL53L1_hist_post_process_config_t  *phistpostprocess,
1704:Drivers/BSP/Components/vl53l1cb/modules/vl53l1_api_preset_modes.c **** 	VL53L1_static_config_t             *pstatic,
1705:Drivers/BSP/Components/vl53l1cb/modules/vl53l1_api_preset_modes.c **** 	VL53L1_histogram_config_t          *phistogram,
1706:Drivers/BSP/Components/vl53l1cb/modules/vl53l1_api_preset_modes.c **** 	VL53L1_general_config_t            *pgeneral,
1707:Drivers/BSP/Components/vl53l1cb/modules/vl53l1_api_preset_modes.c **** 	VL53L1_timing_config_t             *ptiming,
1708:Drivers/BSP/Components/vl53l1cb/modules/vl53l1_api_preset_modes.c **** 	VL53L1_dynamic_config_t            *pdynamic,
1709:Drivers/BSP/Components/vl53l1cb/modules/vl53l1_api_preset_modes.c **** 	VL53L1_system_control_t            *psystem,
1710:Drivers/BSP/Components/vl53l1cb/modules/vl53l1_api_preset_modes.c **** 	VL53L1_tuning_parm_storage_t       *ptuning_parms,
1711:Drivers/BSP/Components/vl53l1cb/modules/vl53l1_api_preset_modes.c **** 	VL53L1_zone_config_t               *pzone_cfg)
1712:Drivers/BSP/Components/vl53l1cb/modules/vl53l1_api_preset_modes.c **** {
1713:Drivers/BSP/Components/vl53l1cb/modules/vl53l1_api_preset_modes.c **** 
1714:Drivers/BSP/Components/vl53l1cb/modules/vl53l1_api_preset_modes.c **** 
1715:Drivers/BSP/Components/vl53l1cb/modules/vl53l1_api_preset_modes.c **** 	VL53L1_Error  status = VL53L1_ERROR_NONE;
1716:Drivers/BSP/Components/vl53l1cb/modules/vl53l1_api_preset_modes.c **** 
1717:Drivers/BSP/Components/vl53l1cb/modules/vl53l1_api_preset_modes.c **** 	LOG_FUNCTION_START("");
1718:Drivers/BSP/Components/vl53l1cb/modules/vl53l1_api_preset_modes.c **** 
1719:Drivers/BSP/Components/vl53l1cb/modules/vl53l1_api_preset_modes.c **** 
1720:Drivers/BSP/Components/vl53l1cb/modules/vl53l1_api_preset_modes.c **** 
1721:Drivers/BSP/Components/vl53l1cb/modules/vl53l1_api_preset_modes.c **** 	status =
1722:Drivers/BSP/Components/vl53l1cb/modules/vl53l1_api_preset_modes.c **** 		VL53L1_preset_mode_histogram_ranging(
1723:Drivers/BSP/Components/vl53l1cb/modules/vl53l1_api_preset_modes.c **** 			phistpostprocess,
1724:Drivers/BSP/Components/vl53l1cb/modules/vl53l1_api_preset_modes.c **** 			pstatic,
1725:Drivers/BSP/Components/vl53l1cb/modules/vl53l1_api_preset_modes.c **** 			phistogram,
1726:Drivers/BSP/Components/vl53l1cb/modules/vl53l1_api_preset_modes.c **** 			pgeneral,
1727:Drivers/BSP/Components/vl53l1cb/modules/vl53l1_api_preset_modes.c **** 			ptiming,
1728:Drivers/BSP/Components/vl53l1cb/modules/vl53l1_api_preset_modes.c **** 			pdynamic,
1729:Drivers/BSP/Components/vl53l1cb/modules/vl53l1_api_preset_modes.c **** 			psystem,
1730:Drivers/BSP/Components/vl53l1cb/modules/vl53l1_api_preset_modes.c **** 			ptuning_parms,
1731:Drivers/BSP/Components/vl53l1cb/modules/vl53l1_api_preset_modes.c **** 			pzone_cfg);
1732:Drivers/BSP/Components/vl53l1cb/modules/vl53l1_api_preset_modes.c **** 
1733:Drivers/BSP/Components/vl53l1cb/modules/vl53l1_api_preset_modes.c **** 
1734:Drivers/BSP/Components/vl53l1cb/modules/vl53l1_api_preset_modes.c **** 
1735:Drivers/BSP/Components/vl53l1cb/modules/vl53l1_api_preset_modes.c **** 	if (status == VL53L1_ERROR_NONE) {
1736:Drivers/BSP/Components/vl53l1cb/modules/vl53l1_api_preset_modes.c **** 
1737:Drivers/BSP/Components/vl53l1cb/modules/vl53l1_api_preset_modes.c **** 
1738:Drivers/BSP/Components/vl53l1cb/modules/vl53l1_api_preset_modes.c **** 
1739:Drivers/BSP/Components/vl53l1cb/modules/vl53l1_api_preset_modes.c **** 		VL53L1_init_histogram_config_structure(
1740:Drivers/BSP/Components/vl53l1cb/modules/vl53l1_api_preset_modes.c **** 				  7,   0,   1, 2, 3, 4,
1741:Drivers/BSP/Components/vl53l1cb/modules/vl53l1_api_preset_modes.c **** 				8+0, 8+1, 8+2, 3, 4, 5,
1742:Drivers/BSP/Components/vl53l1cb/modules/vl53l1_api_preset_modes.c **** 				phistogram);
1743:Drivers/BSP/Components/vl53l1cb/modules/vl53l1_api_preset_modes.c **** 
1744:Drivers/BSP/Components/vl53l1cb/modules/vl53l1_api_preset_modes.c **** 
1745:Drivers/BSP/Components/vl53l1cb/modules/vl53l1_api_preset_modes.c **** 		VL53L1_init_histogram_multizone_config_structure(
1746:Drivers/BSP/Components/vl53l1cb/modules/vl53l1_api_preset_modes.c **** 				  7,  0,    1, 2, 3, 4,
1747:Drivers/BSP/Components/vl53l1cb/modules/vl53l1_api_preset_modes.c **** 				8+0, 8+1, 8+2, 3, 4, 5,
1748:Drivers/BSP/Components/vl53l1cb/modules/vl53l1_api_preset_modes.c **** 				&(pzone_cfg->multizone_hist_cfg));
1749:Drivers/BSP/Components/vl53l1cb/modules/vl53l1_api_preset_modes.c **** 
1750:Drivers/BSP/Components/vl53l1cb/modules/vl53l1_api_preset_modes.c **** 
1751:Drivers/BSP/Components/vl53l1cb/modules/vl53l1_api_preset_modes.c **** 
1752:Drivers/BSP/Components/vl53l1cb/modules/vl53l1_api_preset_modes.c **** 		VL53L1_copy_hist_cfg_to_static_cfg(
1753:Drivers/BSP/Components/vl53l1cb/modules/vl53l1_api_preset_modes.c **** 				phistogram,
1754:Drivers/BSP/Components/vl53l1cb/modules/vl53l1_api_preset_modes.c **** 				pstatic,
1755:Drivers/BSP/Components/vl53l1cb/modules/vl53l1_api_preset_modes.c **** 				pgeneral,
1756:Drivers/BSP/Components/vl53l1cb/modules/vl53l1_api_preset_modes.c **** 				ptiming,
1757:Drivers/BSP/Components/vl53l1cb/modules/vl53l1_api_preset_modes.c **** 				pdynamic);
ARM GAS  C:\Temp\ccoVwn9Y.s 			page 74


1758:Drivers/BSP/Components/vl53l1cb/modules/vl53l1_api_preset_modes.c **** 
1759:Drivers/BSP/Components/vl53l1cb/modules/vl53l1_api_preset_modes.c **** 
1760:Drivers/BSP/Components/vl53l1cb/modules/vl53l1_api_preset_modes.c **** 
1761:Drivers/BSP/Components/vl53l1cb/modules/vl53l1_api_preset_modes.c **** 		pdynamic->system__sequence_config =
1762:Drivers/BSP/Components/vl53l1cb/modules/vl53l1_api_preset_modes.c **** 				VL53L1_SEQUENCE_VHV_EN |
1763:Drivers/BSP/Components/vl53l1cb/modules/vl53l1_api_preset_modes.c **** 				VL53L1_SEQUENCE_PHASECAL_EN |
1764:Drivers/BSP/Components/vl53l1cb/modules/vl53l1_api_preset_modes.c **** 				VL53L1_SEQUENCE_DSS1_EN |
1765:Drivers/BSP/Components/vl53l1cb/modules/vl53l1_api_preset_modes.c **** 				VL53L1_SEQUENCE_DSS2_EN |
1766:Drivers/BSP/Components/vl53l1cb/modules/vl53l1_api_preset_modes.c **** 				VL53L1_SEQUENCE_MM1_EN |
1767:Drivers/BSP/Components/vl53l1cb/modules/vl53l1_api_preset_modes.c **** 				VL53L1_SEQUENCE_RANGE_EN;
1768:Drivers/BSP/Components/vl53l1cb/modules/vl53l1_api_preset_modes.c **** 
1769:Drivers/BSP/Components/vl53l1cb/modules/vl53l1_api_preset_modes.c **** 
1770:Drivers/BSP/Components/vl53l1cb/modules/vl53l1_api_preset_modes.c **** 
1771:Drivers/BSP/Components/vl53l1cb/modules/vl53l1_api_preset_modes.c **** 		psystem->system__mode_start =
1772:Drivers/BSP/Components/vl53l1cb/modules/vl53l1_api_preset_modes.c **** 				VL53L1_DEVICESCHEDULERMODE_HISTOGRAM |
1773:Drivers/BSP/Components/vl53l1cb/modules/vl53l1_api_preset_modes.c **** 				VL53L1_DEVICEREADOUTMODE_DUAL_SD |
1774:Drivers/BSP/Components/vl53l1cb/modules/vl53l1_api_preset_modes.c **** 				VL53L1_DEVICEMEASUREMENTMODE_BACKTOBACK;
1775:Drivers/BSP/Components/vl53l1cb/modules/vl53l1_api_preset_modes.c **** 	}
1776:Drivers/BSP/Components/vl53l1cb/modules/vl53l1_api_preset_modes.c **** 
1777:Drivers/BSP/Components/vl53l1cb/modules/vl53l1_api_preset_modes.c **** 	LOG_FUNCTION_END(status);
1778:Drivers/BSP/Components/vl53l1cb/modules/vl53l1_api_preset_modes.c **** 
1779:Drivers/BSP/Components/vl53l1cb/modules/vl53l1_api_preset_modes.c **** 	return status;
1780:Drivers/BSP/Components/vl53l1cb/modules/vl53l1_api_preset_modes.c **** }
1781:Drivers/BSP/Components/vl53l1cb/modules/vl53l1_api_preset_modes.c **** 
1782:Drivers/BSP/Components/vl53l1cb/modules/vl53l1_api_preset_modes.c **** 
1783:Drivers/BSP/Components/vl53l1cb/modules/vl53l1_api_preset_modes.c **** VL53L1_Error VL53L1_preset_mode_histogram_ranging_with_mm2(
1784:Drivers/BSP/Components/vl53l1cb/modules/vl53l1_api_preset_modes.c **** 	VL53L1_hist_post_process_config_t  *phistpostprocess,
1785:Drivers/BSP/Components/vl53l1cb/modules/vl53l1_api_preset_modes.c **** 	VL53L1_static_config_t             *pstatic,
1786:Drivers/BSP/Components/vl53l1cb/modules/vl53l1_api_preset_modes.c **** 	VL53L1_histogram_config_t          *phistogram,
1787:Drivers/BSP/Components/vl53l1cb/modules/vl53l1_api_preset_modes.c **** 	VL53L1_general_config_t            *pgeneral,
1788:Drivers/BSP/Components/vl53l1cb/modules/vl53l1_api_preset_modes.c **** 	VL53L1_timing_config_t             *ptiming,
1789:Drivers/BSP/Components/vl53l1cb/modules/vl53l1_api_preset_modes.c **** 	VL53L1_dynamic_config_t            *pdynamic,
1790:Drivers/BSP/Components/vl53l1cb/modules/vl53l1_api_preset_modes.c **** 	VL53L1_system_control_t            *psystem,
1791:Drivers/BSP/Components/vl53l1cb/modules/vl53l1_api_preset_modes.c **** 	VL53L1_tuning_parm_storage_t       *ptuning_parms,
1792:Drivers/BSP/Components/vl53l1cb/modules/vl53l1_api_preset_modes.c **** 	VL53L1_zone_config_t               *pzone_cfg)
1793:Drivers/BSP/Components/vl53l1cb/modules/vl53l1_api_preset_modes.c **** {
1794:Drivers/BSP/Components/vl53l1cb/modules/vl53l1_api_preset_modes.c **** 
1795:Drivers/BSP/Components/vl53l1cb/modules/vl53l1_api_preset_modes.c **** 
1796:Drivers/BSP/Components/vl53l1cb/modules/vl53l1_api_preset_modes.c **** 	VL53L1_Error  status = VL53L1_ERROR_NONE;
1797:Drivers/BSP/Components/vl53l1cb/modules/vl53l1_api_preset_modes.c **** 
1798:Drivers/BSP/Components/vl53l1cb/modules/vl53l1_api_preset_modes.c **** 	LOG_FUNCTION_START("");
1799:Drivers/BSP/Components/vl53l1cb/modules/vl53l1_api_preset_modes.c **** 
1800:Drivers/BSP/Components/vl53l1cb/modules/vl53l1_api_preset_modes.c **** 
1801:Drivers/BSP/Components/vl53l1cb/modules/vl53l1_api_preset_modes.c **** 
1802:Drivers/BSP/Components/vl53l1cb/modules/vl53l1_api_preset_modes.c **** 	status =
1803:Drivers/BSP/Components/vl53l1cb/modules/vl53l1_api_preset_modes.c **** 		VL53L1_preset_mode_histogram_ranging_with_mm1(
1804:Drivers/BSP/Components/vl53l1cb/modules/vl53l1_api_preset_modes.c **** 			phistpostprocess,
1805:Drivers/BSP/Components/vl53l1cb/modules/vl53l1_api_preset_modes.c **** 			pstatic,
1806:Drivers/BSP/Components/vl53l1cb/modules/vl53l1_api_preset_modes.c **** 			phistogram,
1807:Drivers/BSP/Components/vl53l1cb/modules/vl53l1_api_preset_modes.c **** 			pgeneral,
1808:Drivers/BSP/Components/vl53l1cb/modules/vl53l1_api_preset_modes.c **** 			ptiming,
1809:Drivers/BSP/Components/vl53l1cb/modules/vl53l1_api_preset_modes.c **** 			pdynamic,
1810:Drivers/BSP/Components/vl53l1cb/modules/vl53l1_api_preset_modes.c **** 			psystem,
1811:Drivers/BSP/Components/vl53l1cb/modules/vl53l1_api_preset_modes.c **** 			ptuning_parms,
1812:Drivers/BSP/Components/vl53l1cb/modules/vl53l1_api_preset_modes.c **** 			pzone_cfg);
1813:Drivers/BSP/Components/vl53l1cb/modules/vl53l1_api_preset_modes.c **** 
1814:Drivers/BSP/Components/vl53l1cb/modules/vl53l1_api_preset_modes.c **** 
ARM GAS  C:\Temp\ccoVwn9Y.s 			page 75


1815:Drivers/BSP/Components/vl53l1cb/modules/vl53l1_api_preset_modes.c **** 
1816:Drivers/BSP/Components/vl53l1cb/modules/vl53l1_api_preset_modes.c **** 	if (status == VL53L1_ERROR_NONE) {
1817:Drivers/BSP/Components/vl53l1cb/modules/vl53l1_api_preset_modes.c **** 
1818:Drivers/BSP/Components/vl53l1cb/modules/vl53l1_api_preset_modes.c **** 
1819:Drivers/BSP/Components/vl53l1cb/modules/vl53l1_api_preset_modes.c **** 
1820:Drivers/BSP/Components/vl53l1cb/modules/vl53l1_api_preset_modes.c **** 		pdynamic->system__sequence_config =
1821:Drivers/BSP/Components/vl53l1cb/modules/vl53l1_api_preset_modes.c **** 				VL53L1_SEQUENCE_VHV_EN |
1822:Drivers/BSP/Components/vl53l1cb/modules/vl53l1_api_preset_modes.c **** 				VL53L1_SEQUENCE_PHASECAL_EN |
1823:Drivers/BSP/Components/vl53l1cb/modules/vl53l1_api_preset_modes.c **** 				VL53L1_SEQUENCE_DSS1_EN |
1824:Drivers/BSP/Components/vl53l1cb/modules/vl53l1_api_preset_modes.c **** 				VL53L1_SEQUENCE_DSS2_EN |
1825:Drivers/BSP/Components/vl53l1cb/modules/vl53l1_api_preset_modes.c **** 				VL53L1_SEQUENCE_MM2_EN |
1826:Drivers/BSP/Components/vl53l1cb/modules/vl53l1_api_preset_modes.c **** 				VL53L1_SEQUENCE_RANGE_EN;
1827:Drivers/BSP/Components/vl53l1cb/modules/vl53l1_api_preset_modes.c **** 	}
1828:Drivers/BSP/Components/vl53l1cb/modules/vl53l1_api_preset_modes.c **** 
1829:Drivers/BSP/Components/vl53l1cb/modules/vl53l1_api_preset_modes.c **** 	LOG_FUNCTION_END(status);
1830:Drivers/BSP/Components/vl53l1cb/modules/vl53l1_api_preset_modes.c **** 
1831:Drivers/BSP/Components/vl53l1cb/modules/vl53l1_api_preset_modes.c **** 	return status;
1832:Drivers/BSP/Components/vl53l1cb/modules/vl53l1_api_preset_modes.c **** }
1833:Drivers/BSP/Components/vl53l1cb/modules/vl53l1_api_preset_modes.c **** 
1834:Drivers/BSP/Components/vl53l1cb/modules/vl53l1_api_preset_modes.c **** 
1835:Drivers/BSP/Components/vl53l1cb/modules/vl53l1_api_preset_modes.c **** VL53L1_Error VL53L1_preset_mode_histogram_ranging_mm1_cal(
1836:Drivers/BSP/Components/vl53l1cb/modules/vl53l1_api_preset_modes.c **** 	VL53L1_hist_post_process_config_t  *phistpostprocess,
1837:Drivers/BSP/Components/vl53l1cb/modules/vl53l1_api_preset_modes.c **** 	VL53L1_static_config_t             *pstatic,
1838:Drivers/BSP/Components/vl53l1cb/modules/vl53l1_api_preset_modes.c **** 	VL53L1_histogram_config_t          *phistogram,
1839:Drivers/BSP/Components/vl53l1cb/modules/vl53l1_api_preset_modes.c **** 	VL53L1_general_config_t            *pgeneral,
1840:Drivers/BSP/Components/vl53l1cb/modules/vl53l1_api_preset_modes.c **** 	VL53L1_timing_config_t             *ptiming,
1841:Drivers/BSP/Components/vl53l1cb/modules/vl53l1_api_preset_modes.c **** 	VL53L1_dynamic_config_t            *pdynamic,
1842:Drivers/BSP/Components/vl53l1cb/modules/vl53l1_api_preset_modes.c **** 	VL53L1_system_control_t            *psystem,
1843:Drivers/BSP/Components/vl53l1cb/modules/vl53l1_api_preset_modes.c **** 	VL53L1_tuning_parm_storage_t       *ptuning_parms,
1844:Drivers/BSP/Components/vl53l1cb/modules/vl53l1_api_preset_modes.c **** 	VL53L1_zone_config_t               *pzone_cfg)
1845:Drivers/BSP/Components/vl53l1cb/modules/vl53l1_api_preset_modes.c **** {
1846:Drivers/BSP/Components/vl53l1cb/modules/vl53l1_api_preset_modes.c **** 
1847:Drivers/BSP/Components/vl53l1cb/modules/vl53l1_api_preset_modes.c **** 
1848:Drivers/BSP/Components/vl53l1cb/modules/vl53l1_api_preset_modes.c **** 	VL53L1_Error  status = VL53L1_ERROR_NONE;
1849:Drivers/BSP/Components/vl53l1cb/modules/vl53l1_api_preset_modes.c **** 
1850:Drivers/BSP/Components/vl53l1cb/modules/vl53l1_api_preset_modes.c **** 	LOG_FUNCTION_START("");
1851:Drivers/BSP/Components/vl53l1cb/modules/vl53l1_api_preset_modes.c **** 
1852:Drivers/BSP/Components/vl53l1cb/modules/vl53l1_api_preset_modes.c **** 
1853:Drivers/BSP/Components/vl53l1cb/modules/vl53l1_api_preset_modes.c **** 
1854:Drivers/BSP/Components/vl53l1cb/modules/vl53l1_api_preset_modes.c **** 	status =
1855:Drivers/BSP/Components/vl53l1cb/modules/vl53l1_api_preset_modes.c **** 		VL53L1_preset_mode_histogram_ranging(
1856:Drivers/BSP/Components/vl53l1cb/modules/vl53l1_api_preset_modes.c **** 			phistpostprocess,
1857:Drivers/BSP/Components/vl53l1cb/modules/vl53l1_api_preset_modes.c **** 			pstatic,
1858:Drivers/BSP/Components/vl53l1cb/modules/vl53l1_api_preset_modes.c **** 			phistogram,
1859:Drivers/BSP/Components/vl53l1cb/modules/vl53l1_api_preset_modes.c **** 			pgeneral,
1860:Drivers/BSP/Components/vl53l1cb/modules/vl53l1_api_preset_modes.c **** 			ptiming,
1861:Drivers/BSP/Components/vl53l1cb/modules/vl53l1_api_preset_modes.c **** 			pdynamic,
1862:Drivers/BSP/Components/vl53l1cb/modules/vl53l1_api_preset_modes.c **** 			psystem,
1863:Drivers/BSP/Components/vl53l1cb/modules/vl53l1_api_preset_modes.c **** 			ptuning_parms,
1864:Drivers/BSP/Components/vl53l1cb/modules/vl53l1_api_preset_modes.c **** 			pzone_cfg);
1865:Drivers/BSP/Components/vl53l1cb/modules/vl53l1_api_preset_modes.c **** 
1866:Drivers/BSP/Components/vl53l1cb/modules/vl53l1_api_preset_modes.c **** 
1867:Drivers/BSP/Components/vl53l1cb/modules/vl53l1_api_preset_modes.c **** 
1868:Drivers/BSP/Components/vl53l1cb/modules/vl53l1_api_preset_modes.c **** 	if (status == VL53L1_ERROR_NONE) {
1869:Drivers/BSP/Components/vl53l1cb/modules/vl53l1_api_preset_modes.c **** 
1870:Drivers/BSP/Components/vl53l1cb/modules/vl53l1_api_preset_modes.c **** 
1871:Drivers/BSP/Components/vl53l1cb/modules/vl53l1_api_preset_modes.c **** 
ARM GAS  C:\Temp\ccoVwn9Y.s 			page 76


1872:Drivers/BSP/Components/vl53l1cb/modules/vl53l1_api_preset_modes.c **** 		VL53L1_init_histogram_config_structure(
1873:Drivers/BSP/Components/vl53l1cb/modules/vl53l1_api_preset_modes.c **** 				  7, 8+0, 8+1, 8+2, 8+3, 8+4,
1874:Drivers/BSP/Components/vl53l1cb/modules/vl53l1_api_preset_modes.c **** 				8+0, 8+1, 8+2, 8+3, 8+4, 8+5,
1875:Drivers/BSP/Components/vl53l1cb/modules/vl53l1_api_preset_modes.c **** 				phistogram);
1876:Drivers/BSP/Components/vl53l1cb/modules/vl53l1_api_preset_modes.c **** 
1877:Drivers/BSP/Components/vl53l1cb/modules/vl53l1_api_preset_modes.c **** 
1878:Drivers/BSP/Components/vl53l1cb/modules/vl53l1_api_preset_modes.c **** 		VL53L1_init_histogram_multizone_config_structure(
1879:Drivers/BSP/Components/vl53l1cb/modules/vl53l1_api_preset_modes.c **** 				  7, 8+0, 8+1, 8+2, 8+3, 8+4,
1880:Drivers/BSP/Components/vl53l1cb/modules/vl53l1_api_preset_modes.c **** 				8+0, 8+1, 8+2, 8+3, 8+4, 8+5,
1881:Drivers/BSP/Components/vl53l1cb/modules/vl53l1_api_preset_modes.c **** 				&(pzone_cfg->multizone_hist_cfg));
1882:Drivers/BSP/Components/vl53l1cb/modules/vl53l1_api_preset_modes.c **** 
1883:Drivers/BSP/Components/vl53l1cb/modules/vl53l1_api_preset_modes.c **** 
1884:Drivers/BSP/Components/vl53l1cb/modules/vl53l1_api_preset_modes.c **** 
1885:Drivers/BSP/Components/vl53l1cb/modules/vl53l1_api_preset_modes.c **** 		VL53L1_copy_hist_cfg_to_static_cfg(
1886:Drivers/BSP/Components/vl53l1cb/modules/vl53l1_api_preset_modes.c **** 				phistogram,
1887:Drivers/BSP/Components/vl53l1cb/modules/vl53l1_api_preset_modes.c **** 				pstatic,
1888:Drivers/BSP/Components/vl53l1cb/modules/vl53l1_api_preset_modes.c **** 				pgeneral,
1889:Drivers/BSP/Components/vl53l1cb/modules/vl53l1_api_preset_modes.c **** 				ptiming,
1890:Drivers/BSP/Components/vl53l1cb/modules/vl53l1_api_preset_modes.c **** 				pdynamic);
1891:Drivers/BSP/Components/vl53l1cb/modules/vl53l1_api_preset_modes.c **** 
1892:Drivers/BSP/Components/vl53l1cb/modules/vl53l1_api_preset_modes.c **** 
1893:Drivers/BSP/Components/vl53l1cb/modules/vl53l1_api_preset_modes.c **** 
1894:Drivers/BSP/Components/vl53l1cb/modules/vl53l1_api_preset_modes.c **** 		pgeneral->dss_config__roi_mode_control =
1895:Drivers/BSP/Components/vl53l1cb/modules/vl53l1_api_preset_modes.c **** 			VL53L1_DEVICEDSSMODE__REQUESTED_EFFFECTIVE_SPADS;
1896:Drivers/BSP/Components/vl53l1cb/modules/vl53l1_api_preset_modes.c **** 
1897:Drivers/BSP/Components/vl53l1cb/modules/vl53l1_api_preset_modes.c **** 
1898:Drivers/BSP/Components/vl53l1cb/modules/vl53l1_api_preset_modes.c **** 
1899:Drivers/BSP/Components/vl53l1cb/modules/vl53l1_api_preset_modes.c **** 		pdynamic->system__sequence_config =
1900:Drivers/BSP/Components/vl53l1cb/modules/vl53l1_api_preset_modes.c **** 				VL53L1_SEQUENCE_VHV_EN |
1901:Drivers/BSP/Components/vl53l1cb/modules/vl53l1_api_preset_modes.c **** 				VL53L1_SEQUENCE_PHASECAL_EN |
1902:Drivers/BSP/Components/vl53l1cb/modules/vl53l1_api_preset_modes.c **** 				VL53L1_SEQUENCE_DSS1_EN |
1903:Drivers/BSP/Components/vl53l1cb/modules/vl53l1_api_preset_modes.c **** 				VL53L1_SEQUENCE_DSS2_EN |
1904:Drivers/BSP/Components/vl53l1cb/modules/vl53l1_api_preset_modes.c **** 				VL53L1_SEQUENCE_MM1_EN |
1905:Drivers/BSP/Components/vl53l1cb/modules/vl53l1_api_preset_modes.c **** 				VL53L1_SEQUENCE_RANGE_EN;
1906:Drivers/BSP/Components/vl53l1cb/modules/vl53l1_api_preset_modes.c **** 
1907:Drivers/BSP/Components/vl53l1cb/modules/vl53l1_api_preset_modes.c **** 	}
1908:Drivers/BSP/Components/vl53l1cb/modules/vl53l1_api_preset_modes.c **** 
1909:Drivers/BSP/Components/vl53l1cb/modules/vl53l1_api_preset_modes.c **** 	LOG_FUNCTION_END(status);
1910:Drivers/BSP/Components/vl53l1cb/modules/vl53l1_api_preset_modes.c **** 
1911:Drivers/BSP/Components/vl53l1cb/modules/vl53l1_api_preset_modes.c **** 	return status;
1912:Drivers/BSP/Components/vl53l1cb/modules/vl53l1_api_preset_modes.c **** }
1913:Drivers/BSP/Components/vl53l1cb/modules/vl53l1_api_preset_modes.c **** 
1914:Drivers/BSP/Components/vl53l1cb/modules/vl53l1_api_preset_modes.c **** 
1915:Drivers/BSP/Components/vl53l1cb/modules/vl53l1_api_preset_modes.c **** VL53L1_Error VL53L1_preset_mode_histogram_ranging_mm2_cal(
1916:Drivers/BSP/Components/vl53l1cb/modules/vl53l1_api_preset_modes.c **** 	VL53L1_hist_post_process_config_t  *phistpostprocess,
1917:Drivers/BSP/Components/vl53l1cb/modules/vl53l1_api_preset_modes.c **** 	VL53L1_static_config_t             *pstatic,
1918:Drivers/BSP/Components/vl53l1cb/modules/vl53l1_api_preset_modes.c **** 	VL53L1_histogram_config_t          *phistogram,
1919:Drivers/BSP/Components/vl53l1cb/modules/vl53l1_api_preset_modes.c **** 	VL53L1_general_config_t            *pgeneral,
1920:Drivers/BSP/Components/vl53l1cb/modules/vl53l1_api_preset_modes.c **** 	VL53L1_timing_config_t             *ptiming,
1921:Drivers/BSP/Components/vl53l1cb/modules/vl53l1_api_preset_modes.c **** 	VL53L1_dynamic_config_t            *pdynamic,
1922:Drivers/BSP/Components/vl53l1cb/modules/vl53l1_api_preset_modes.c **** 	VL53L1_system_control_t            *psystem,
1923:Drivers/BSP/Components/vl53l1cb/modules/vl53l1_api_preset_modes.c **** 	VL53L1_tuning_parm_storage_t       *ptuning_parms,
1924:Drivers/BSP/Components/vl53l1cb/modules/vl53l1_api_preset_modes.c **** 	VL53L1_zone_config_t               *pzone_cfg)
1925:Drivers/BSP/Components/vl53l1cb/modules/vl53l1_api_preset_modes.c **** {
1926:Drivers/BSP/Components/vl53l1cb/modules/vl53l1_api_preset_modes.c **** 
1927:Drivers/BSP/Components/vl53l1cb/modules/vl53l1_api_preset_modes.c **** 
1928:Drivers/BSP/Components/vl53l1cb/modules/vl53l1_api_preset_modes.c **** 	VL53L1_Error  status = VL53L1_ERROR_NONE;
ARM GAS  C:\Temp\ccoVwn9Y.s 			page 77


1929:Drivers/BSP/Components/vl53l1cb/modules/vl53l1_api_preset_modes.c **** 
1930:Drivers/BSP/Components/vl53l1cb/modules/vl53l1_api_preset_modes.c **** 	LOG_FUNCTION_START("");
1931:Drivers/BSP/Components/vl53l1cb/modules/vl53l1_api_preset_modes.c **** 
1932:Drivers/BSP/Components/vl53l1cb/modules/vl53l1_api_preset_modes.c **** 
1933:Drivers/BSP/Components/vl53l1cb/modules/vl53l1_api_preset_modes.c **** 
1934:Drivers/BSP/Components/vl53l1cb/modules/vl53l1_api_preset_modes.c **** 	status =
1935:Drivers/BSP/Components/vl53l1cb/modules/vl53l1_api_preset_modes.c **** 		VL53L1_preset_mode_histogram_ranging_mm1_cal(
1936:Drivers/BSP/Components/vl53l1cb/modules/vl53l1_api_preset_modes.c **** 				phistpostprocess,
1937:Drivers/BSP/Components/vl53l1cb/modules/vl53l1_api_preset_modes.c **** 				pstatic,
1938:Drivers/BSP/Components/vl53l1cb/modules/vl53l1_api_preset_modes.c **** 				phistogram,
1939:Drivers/BSP/Components/vl53l1cb/modules/vl53l1_api_preset_modes.c **** 				pgeneral,
1940:Drivers/BSP/Components/vl53l1cb/modules/vl53l1_api_preset_modes.c **** 				ptiming,
1941:Drivers/BSP/Components/vl53l1cb/modules/vl53l1_api_preset_modes.c **** 				pdynamic,
1942:Drivers/BSP/Components/vl53l1cb/modules/vl53l1_api_preset_modes.c **** 				psystem,
1943:Drivers/BSP/Components/vl53l1cb/modules/vl53l1_api_preset_modes.c **** 				ptuning_parms,
1944:Drivers/BSP/Components/vl53l1cb/modules/vl53l1_api_preset_modes.c **** 				pzone_cfg);
1945:Drivers/BSP/Components/vl53l1cb/modules/vl53l1_api_preset_modes.c **** 
1946:Drivers/BSP/Components/vl53l1cb/modules/vl53l1_api_preset_modes.c **** 	if (status == VL53L1_ERROR_NONE) {
1947:Drivers/BSP/Components/vl53l1cb/modules/vl53l1_api_preset_modes.c **** 
1948:Drivers/BSP/Components/vl53l1cb/modules/vl53l1_api_preset_modes.c **** 
1949:Drivers/BSP/Components/vl53l1cb/modules/vl53l1_api_preset_modes.c **** 
1950:Drivers/BSP/Components/vl53l1cb/modules/vl53l1_api_preset_modes.c **** 		pdynamic->system__sequence_config =
1951:Drivers/BSP/Components/vl53l1cb/modules/vl53l1_api_preset_modes.c **** 				VL53L1_SEQUENCE_VHV_EN |
1952:Drivers/BSP/Components/vl53l1cb/modules/vl53l1_api_preset_modes.c **** 				VL53L1_SEQUENCE_PHASECAL_EN |
1953:Drivers/BSP/Components/vl53l1cb/modules/vl53l1_api_preset_modes.c **** 				VL53L1_SEQUENCE_DSS1_EN |
1954:Drivers/BSP/Components/vl53l1cb/modules/vl53l1_api_preset_modes.c **** 				VL53L1_SEQUENCE_DSS2_EN |
1955:Drivers/BSP/Components/vl53l1cb/modules/vl53l1_api_preset_modes.c **** 				VL53L1_SEQUENCE_MM2_EN |
1956:Drivers/BSP/Components/vl53l1cb/modules/vl53l1_api_preset_modes.c **** 				VL53L1_SEQUENCE_RANGE_EN;
1957:Drivers/BSP/Components/vl53l1cb/modules/vl53l1_api_preset_modes.c **** 
1958:Drivers/BSP/Components/vl53l1cb/modules/vl53l1_api_preset_modes.c **** 	}
1959:Drivers/BSP/Components/vl53l1cb/modules/vl53l1_api_preset_modes.c **** 
1960:Drivers/BSP/Components/vl53l1cb/modules/vl53l1_api_preset_modes.c **** 	LOG_FUNCTION_END(status);
1961:Drivers/BSP/Components/vl53l1cb/modules/vl53l1_api_preset_modes.c **** 
1962:Drivers/BSP/Components/vl53l1cb/modules/vl53l1_api_preset_modes.c **** 	return status;
1963:Drivers/BSP/Components/vl53l1cb/modules/vl53l1_api_preset_modes.c **** }
1964:Drivers/BSP/Components/vl53l1cb/modules/vl53l1_api_preset_modes.c **** 
1965:Drivers/BSP/Components/vl53l1cb/modules/vl53l1_api_preset_modes.c **** 
1966:Drivers/BSP/Components/vl53l1cb/modules/vl53l1_api_preset_modes.c **** VL53L1_Error VL53L1_preset_mode_histogram_ranging_short_timing(
1967:Drivers/BSP/Components/vl53l1cb/modules/vl53l1_api_preset_modes.c **** 	VL53L1_hist_post_process_config_t  *phistpostprocess,
1968:Drivers/BSP/Components/vl53l1cb/modules/vl53l1_api_preset_modes.c **** 	VL53L1_static_config_t             *pstatic,
1969:Drivers/BSP/Components/vl53l1cb/modules/vl53l1_api_preset_modes.c **** 	VL53L1_histogram_config_t          *phistogram,
1970:Drivers/BSP/Components/vl53l1cb/modules/vl53l1_api_preset_modes.c **** 	VL53L1_general_config_t            *pgeneral,
1971:Drivers/BSP/Components/vl53l1cb/modules/vl53l1_api_preset_modes.c **** 	VL53L1_timing_config_t             *ptiming,
1972:Drivers/BSP/Components/vl53l1cb/modules/vl53l1_api_preset_modes.c **** 	VL53L1_dynamic_config_t            *pdynamic,
1973:Drivers/BSP/Components/vl53l1cb/modules/vl53l1_api_preset_modes.c **** 	VL53L1_system_control_t            *psystem,
1974:Drivers/BSP/Components/vl53l1cb/modules/vl53l1_api_preset_modes.c **** 	VL53L1_tuning_parm_storage_t       *ptuning_parms,
1975:Drivers/BSP/Components/vl53l1cb/modules/vl53l1_api_preset_modes.c **** 	VL53L1_zone_config_t               *pzone_cfg)
1976:Drivers/BSP/Components/vl53l1cb/modules/vl53l1_api_preset_modes.c **** {
1977:Drivers/BSP/Components/vl53l1cb/modules/vl53l1_api_preset_modes.c **** 
1978:Drivers/BSP/Components/vl53l1cb/modules/vl53l1_api_preset_modes.c **** 
1979:Drivers/BSP/Components/vl53l1cb/modules/vl53l1_api_preset_modes.c **** 	VL53L1_Error  status = VL53L1_ERROR_NONE;
1980:Drivers/BSP/Components/vl53l1cb/modules/vl53l1_api_preset_modes.c **** 
1981:Drivers/BSP/Components/vl53l1cb/modules/vl53l1_api_preset_modes.c **** 	LOG_FUNCTION_START("");
1982:Drivers/BSP/Components/vl53l1cb/modules/vl53l1_api_preset_modes.c **** 
1983:Drivers/BSP/Components/vl53l1cb/modules/vl53l1_api_preset_modes.c **** 
1984:Drivers/BSP/Components/vl53l1cb/modules/vl53l1_api_preset_modes.c **** 
1985:Drivers/BSP/Components/vl53l1cb/modules/vl53l1_api_preset_modes.c **** 	status =
ARM GAS  C:\Temp\ccoVwn9Y.s 			page 78


1986:Drivers/BSP/Components/vl53l1cb/modules/vl53l1_api_preset_modes.c **** 		VL53L1_preset_mode_histogram_ranging(
1987:Drivers/BSP/Components/vl53l1cb/modules/vl53l1_api_preset_modes.c **** 			phistpostprocess,
1988:Drivers/BSP/Components/vl53l1cb/modules/vl53l1_api_preset_modes.c **** 			pstatic,
1989:Drivers/BSP/Components/vl53l1cb/modules/vl53l1_api_preset_modes.c **** 			phistogram,
1990:Drivers/BSP/Components/vl53l1cb/modules/vl53l1_api_preset_modes.c **** 			pgeneral,
1991:Drivers/BSP/Components/vl53l1cb/modules/vl53l1_api_preset_modes.c **** 			ptiming,
1992:Drivers/BSP/Components/vl53l1cb/modules/vl53l1_api_preset_modes.c **** 			pdynamic,
1993:Drivers/BSP/Components/vl53l1cb/modules/vl53l1_api_preset_modes.c **** 			psystem,
1994:Drivers/BSP/Components/vl53l1cb/modules/vl53l1_api_preset_modes.c **** 			ptuning_parms,
1995:Drivers/BSP/Components/vl53l1cb/modules/vl53l1_api_preset_modes.c **** 			pzone_cfg);
1996:Drivers/BSP/Components/vl53l1cb/modules/vl53l1_api_preset_modes.c **** 
1997:Drivers/BSP/Components/vl53l1cb/modules/vl53l1_api_preset_modes.c **** 
1998:Drivers/BSP/Components/vl53l1cb/modules/vl53l1_api_preset_modes.c **** 
1999:Drivers/BSP/Components/vl53l1cb/modules/vl53l1_api_preset_modes.c **** 	if (status == VL53L1_ERROR_NONE) {
2000:Drivers/BSP/Components/vl53l1cb/modules/vl53l1_api_preset_modes.c **** 
2001:Drivers/BSP/Components/vl53l1cb/modules/vl53l1_api_preset_modes.c **** 
2002:Drivers/BSP/Components/vl53l1cb/modules/vl53l1_api_preset_modes.c **** 
2003:Drivers/BSP/Components/vl53l1cb/modules/vl53l1_api_preset_modes.c **** 		pstatic->dss_config__target_total_rate_mcps = 0x1400;
2004:Drivers/BSP/Components/vl53l1cb/modules/vl53l1_api_preset_modes.c **** 
2005:Drivers/BSP/Components/vl53l1cb/modules/vl53l1_api_preset_modes.c **** 
2006:Drivers/BSP/Components/vl53l1cb/modules/vl53l1_api_preset_modes.c **** 
2007:Drivers/BSP/Components/vl53l1cb/modules/vl53l1_api_preset_modes.c **** 		VL53L1_init_histogram_config_structure(
2008:Drivers/BSP/Components/vl53l1cb/modules/vl53l1_api_preset_modes.c **** 				7, 0, 1, 2, 3, 4,
2009:Drivers/BSP/Components/vl53l1cb/modules/vl53l1_api_preset_modes.c **** 				7, 0, 1, 2, 3, 4,
2010:Drivers/BSP/Components/vl53l1cb/modules/vl53l1_api_preset_modes.c **** 				phistogram);
2011:Drivers/BSP/Components/vl53l1cb/modules/vl53l1_api_preset_modes.c **** 
2012:Drivers/BSP/Components/vl53l1cb/modules/vl53l1_api_preset_modes.c **** 
2013:Drivers/BSP/Components/vl53l1cb/modules/vl53l1_api_preset_modes.c **** 		VL53L1_init_histogram_multizone_config_structure(
2014:Drivers/BSP/Components/vl53l1cb/modules/vl53l1_api_preset_modes.c **** 				7, 0, 1, 2, 3, 4,
2015:Drivers/BSP/Components/vl53l1cb/modules/vl53l1_api_preset_modes.c **** 				7, 0, 1, 2, 3, 4,
2016:Drivers/BSP/Components/vl53l1cb/modules/vl53l1_api_preset_modes.c **** 				&(pzone_cfg->multizone_hist_cfg));
2017:Drivers/BSP/Components/vl53l1cb/modules/vl53l1_api_preset_modes.c **** 
2018:Drivers/BSP/Components/vl53l1cb/modules/vl53l1_api_preset_modes.c **** 
2019:Drivers/BSP/Components/vl53l1cb/modules/vl53l1_api_preset_modes.c **** 
2020:Drivers/BSP/Components/vl53l1cb/modules/vl53l1_api_preset_modes.c **** 		VL53L1_copy_hist_cfg_to_static_cfg(
2021:Drivers/BSP/Components/vl53l1cb/modules/vl53l1_api_preset_modes.c **** 				phistogram,
2022:Drivers/BSP/Components/vl53l1cb/modules/vl53l1_api_preset_modes.c **** 				pstatic,
2023:Drivers/BSP/Components/vl53l1cb/modules/vl53l1_api_preset_modes.c **** 				pgeneral,
2024:Drivers/BSP/Components/vl53l1cb/modules/vl53l1_api_preset_modes.c **** 				ptiming,
2025:Drivers/BSP/Components/vl53l1cb/modules/vl53l1_api_preset_modes.c **** 				pdynamic);
2026:Drivers/BSP/Components/vl53l1cb/modules/vl53l1_api_preset_modes.c **** 
2027:Drivers/BSP/Components/vl53l1cb/modules/vl53l1_api_preset_modes.c **** 
2028:Drivers/BSP/Components/vl53l1cb/modules/vl53l1_api_preset_modes.c **** 
2029:Drivers/BSP/Components/vl53l1cb/modules/vl53l1_api_preset_modes.c **** 		ptiming->range_config__vcsel_period_a = 0x04;
2030:Drivers/BSP/Components/vl53l1cb/modules/vl53l1_api_preset_modes.c **** 		ptiming->range_config__vcsel_period_b = 0x03;
2031:Drivers/BSP/Components/vl53l1cb/modules/vl53l1_api_preset_modes.c **** 		ptiming->mm_config__timeout_macrop_a_hi = 0x00;
2032:Drivers/BSP/Components/vl53l1cb/modules/vl53l1_api_preset_modes.c **** 		ptiming->mm_config__timeout_macrop_a_lo = 0x42;
2033:Drivers/BSP/Components/vl53l1cb/modules/vl53l1_api_preset_modes.c **** 		ptiming->mm_config__timeout_macrop_b_hi = 0x00;
2034:Drivers/BSP/Components/vl53l1cb/modules/vl53l1_api_preset_modes.c **** 		ptiming->mm_config__timeout_macrop_b_lo = 0x42;
2035:Drivers/BSP/Components/vl53l1cb/modules/vl53l1_api_preset_modes.c **** 		ptiming->range_config__timeout_macrop_a_hi = 0x00;
2036:Drivers/BSP/Components/vl53l1cb/modules/vl53l1_api_preset_modes.c **** 		ptiming->range_config__timeout_macrop_a_lo = 0x52;
2037:Drivers/BSP/Components/vl53l1cb/modules/vl53l1_api_preset_modes.c **** 		ptiming->range_config__timeout_macrop_b_hi = 0x00;
2038:Drivers/BSP/Components/vl53l1cb/modules/vl53l1_api_preset_modes.c **** 		ptiming->range_config__timeout_macrop_b_lo = 0x66;
2039:Drivers/BSP/Components/vl53l1cb/modules/vl53l1_api_preset_modes.c **** 
2040:Drivers/BSP/Components/vl53l1cb/modules/vl53l1_api_preset_modes.c **** 		pgeneral->cal_config__vcsel_start = 0x04;
2041:Drivers/BSP/Components/vl53l1cb/modules/vl53l1_api_preset_modes.c **** 
2042:Drivers/BSP/Components/vl53l1cb/modules/vl53l1_api_preset_modes.c **** 
ARM GAS  C:\Temp\ccoVwn9Y.s 			page 79


2043:Drivers/BSP/Components/vl53l1cb/modules/vl53l1_api_preset_modes.c **** 
2044:Drivers/BSP/Components/vl53l1cb/modules/vl53l1_api_preset_modes.c **** 		pgeneral->phasecal_config__timeout_macrop = 0xa4;
2045:Drivers/BSP/Components/vl53l1cb/modules/vl53l1_api_preset_modes.c **** 
2046:Drivers/BSP/Components/vl53l1cb/modules/vl53l1_api_preset_modes.c **** 
2047:Drivers/BSP/Components/vl53l1cb/modules/vl53l1_api_preset_modes.c **** 
2048:Drivers/BSP/Components/vl53l1cb/modules/vl53l1_api_preset_modes.c **** 		pdynamic->system__sequence_config =
2049:Drivers/BSP/Components/vl53l1cb/modules/vl53l1_api_preset_modes.c **** 				VL53L1_SEQUENCE_VHV_EN |
2050:Drivers/BSP/Components/vl53l1cb/modules/vl53l1_api_preset_modes.c **** 				VL53L1_SEQUENCE_PHASECAL_EN |
2051:Drivers/BSP/Components/vl53l1cb/modules/vl53l1_api_preset_modes.c **** 				VL53L1_SEQUENCE_DSS1_EN |
2052:Drivers/BSP/Components/vl53l1cb/modules/vl53l1_api_preset_modes.c **** 				VL53L1_SEQUENCE_DSS2_EN |
2053:Drivers/BSP/Components/vl53l1cb/modules/vl53l1_api_preset_modes.c **** 
2054:Drivers/BSP/Components/vl53l1cb/modules/vl53l1_api_preset_modes.c **** 
2055:Drivers/BSP/Components/vl53l1cb/modules/vl53l1_api_preset_modes.c **** 				VL53L1_SEQUENCE_RANGE_EN;
2056:Drivers/BSP/Components/vl53l1cb/modules/vl53l1_api_preset_modes.c **** 
2057:Drivers/BSP/Components/vl53l1cb/modules/vl53l1_api_preset_modes.c **** 
2058:Drivers/BSP/Components/vl53l1cb/modules/vl53l1_api_preset_modes.c **** 
2059:Drivers/BSP/Components/vl53l1cb/modules/vl53l1_api_preset_modes.c **** 
2060:Drivers/BSP/Components/vl53l1cb/modules/vl53l1_api_preset_modes.c **** 		psystem->system__mode_start =
2061:Drivers/BSP/Components/vl53l1cb/modules/vl53l1_api_preset_modes.c **** 				VL53L1_DEVICESCHEDULERMODE_HISTOGRAM |
2062:Drivers/BSP/Components/vl53l1cb/modules/vl53l1_api_preset_modes.c **** 				VL53L1_DEVICEREADOUTMODE_DUAL_SD |
2063:Drivers/BSP/Components/vl53l1cb/modules/vl53l1_api_preset_modes.c **** 				VL53L1_DEVICEMEASUREMENTMODE_BACKTOBACK;
2064:Drivers/BSP/Components/vl53l1cb/modules/vl53l1_api_preset_modes.c **** 	}
2065:Drivers/BSP/Components/vl53l1cb/modules/vl53l1_api_preset_modes.c **** 
2066:Drivers/BSP/Components/vl53l1cb/modules/vl53l1_api_preset_modes.c **** 	LOG_FUNCTION_END(status);
2067:Drivers/BSP/Components/vl53l1cb/modules/vl53l1_api_preset_modes.c **** 
2068:Drivers/BSP/Components/vl53l1cb/modules/vl53l1_api_preset_modes.c **** 	return status;
2069:Drivers/BSP/Components/vl53l1cb/modules/vl53l1_api_preset_modes.c **** }
2070:Drivers/BSP/Components/vl53l1cb/modules/vl53l1_api_preset_modes.c **** 
2071:Drivers/BSP/Components/vl53l1cb/modules/vl53l1_api_preset_modes.c **** 
2072:Drivers/BSP/Components/vl53l1cb/modules/vl53l1_api_preset_modes.c **** VL53L1_Error VL53L1_preset_mode_histogram_long_range(
2073:Drivers/BSP/Components/vl53l1cb/modules/vl53l1_api_preset_modes.c **** 	VL53L1_hist_post_process_config_t  *phistpostprocess,
2074:Drivers/BSP/Components/vl53l1cb/modules/vl53l1_api_preset_modes.c **** 	VL53L1_static_config_t             *pstatic,
2075:Drivers/BSP/Components/vl53l1cb/modules/vl53l1_api_preset_modes.c **** 	VL53L1_histogram_config_t          *phistogram,
2076:Drivers/BSP/Components/vl53l1cb/modules/vl53l1_api_preset_modes.c **** 	VL53L1_general_config_t            *pgeneral,
2077:Drivers/BSP/Components/vl53l1cb/modules/vl53l1_api_preset_modes.c **** 	VL53L1_timing_config_t             *ptiming,
2078:Drivers/BSP/Components/vl53l1cb/modules/vl53l1_api_preset_modes.c **** 	VL53L1_dynamic_config_t            *pdynamic,
2079:Drivers/BSP/Components/vl53l1cb/modules/vl53l1_api_preset_modes.c **** 	VL53L1_system_control_t            *psystem,
2080:Drivers/BSP/Components/vl53l1cb/modules/vl53l1_api_preset_modes.c **** 	VL53L1_tuning_parm_storage_t       *ptuning_parms,
2081:Drivers/BSP/Components/vl53l1cb/modules/vl53l1_api_preset_modes.c **** 	VL53L1_zone_config_t               *pzone_cfg)
2082:Drivers/BSP/Components/vl53l1cb/modules/vl53l1_api_preset_modes.c **** {
2083:Drivers/BSP/Components/vl53l1cb/modules/vl53l1_api_preset_modes.c **** 
2084:Drivers/BSP/Components/vl53l1cb/modules/vl53l1_api_preset_modes.c **** 
2085:Drivers/BSP/Components/vl53l1cb/modules/vl53l1_api_preset_modes.c **** 	VL53L1_Error  status = VL53L1_ERROR_NONE;
2086:Drivers/BSP/Components/vl53l1cb/modules/vl53l1_api_preset_modes.c **** 
2087:Drivers/BSP/Components/vl53l1cb/modules/vl53l1_api_preset_modes.c **** 	LOG_FUNCTION_START("");
2088:Drivers/BSP/Components/vl53l1cb/modules/vl53l1_api_preset_modes.c **** 
2089:Drivers/BSP/Components/vl53l1cb/modules/vl53l1_api_preset_modes.c **** 
2090:Drivers/BSP/Components/vl53l1cb/modules/vl53l1_api_preset_modes.c **** 
2091:Drivers/BSP/Components/vl53l1cb/modules/vl53l1_api_preset_modes.c **** 	status =
2092:Drivers/BSP/Components/vl53l1cb/modules/vl53l1_api_preset_modes.c **** 		VL53L1_preset_mode_histogram_ranging(
2093:Drivers/BSP/Components/vl53l1cb/modules/vl53l1_api_preset_modes.c **** 			phistpostprocess,
2094:Drivers/BSP/Components/vl53l1cb/modules/vl53l1_api_preset_modes.c **** 			pstatic,
2095:Drivers/BSP/Components/vl53l1cb/modules/vl53l1_api_preset_modes.c **** 			phistogram,
2096:Drivers/BSP/Components/vl53l1cb/modules/vl53l1_api_preset_modes.c **** 			pgeneral,
2097:Drivers/BSP/Components/vl53l1cb/modules/vl53l1_api_preset_modes.c **** 			ptiming,
2098:Drivers/BSP/Components/vl53l1cb/modules/vl53l1_api_preset_modes.c **** 			pdynamic,
2099:Drivers/BSP/Components/vl53l1cb/modules/vl53l1_api_preset_modes.c **** 			psystem,
ARM GAS  C:\Temp\ccoVwn9Y.s 			page 80


2100:Drivers/BSP/Components/vl53l1cb/modules/vl53l1_api_preset_modes.c **** 			ptuning_parms,
2101:Drivers/BSP/Components/vl53l1cb/modules/vl53l1_api_preset_modes.c **** 			pzone_cfg);
2102:Drivers/BSP/Components/vl53l1cb/modules/vl53l1_api_preset_modes.c **** 
2103:Drivers/BSP/Components/vl53l1cb/modules/vl53l1_api_preset_modes.c **** 
2104:Drivers/BSP/Components/vl53l1cb/modules/vl53l1_api_preset_modes.c **** 
2105:Drivers/BSP/Components/vl53l1cb/modules/vl53l1_api_preset_modes.c **** 	if (status == VL53L1_ERROR_NONE) {
2106:Drivers/BSP/Components/vl53l1cb/modules/vl53l1_api_preset_modes.c **** 
2107:Drivers/BSP/Components/vl53l1cb/modules/vl53l1_api_preset_modes.c **** 
2108:Drivers/BSP/Components/vl53l1cb/modules/vl53l1_api_preset_modes.c **** 
2109:Drivers/BSP/Components/vl53l1cb/modules/vl53l1_api_preset_modes.c **** 
2110:Drivers/BSP/Components/vl53l1cb/modules/vl53l1_api_preset_modes.c **** 
2111:Drivers/BSP/Components/vl53l1cb/modules/vl53l1_api_preset_modes.c **** 		VL53L1_init_histogram_config_structure(
2112:Drivers/BSP/Components/vl53l1cb/modules/vl53l1_api_preset_modes.c **** 			7, 0, 1, 2, 3, 4,
2113:Drivers/BSP/Components/vl53l1cb/modules/vl53l1_api_preset_modes.c **** 			0, 1, 2, 3, 4, 5,
2114:Drivers/BSP/Components/vl53l1cb/modules/vl53l1_api_preset_modes.c **** 			phistogram);
2115:Drivers/BSP/Components/vl53l1cb/modules/vl53l1_api_preset_modes.c **** 
2116:Drivers/BSP/Components/vl53l1cb/modules/vl53l1_api_preset_modes.c **** 
2117:Drivers/BSP/Components/vl53l1cb/modules/vl53l1_api_preset_modes.c **** 		VL53L1_init_histogram_multizone_config_structure(
2118:Drivers/BSP/Components/vl53l1cb/modules/vl53l1_api_preset_modes.c **** 			7, 0, 1, 2, 3, 4,
2119:Drivers/BSP/Components/vl53l1cb/modules/vl53l1_api_preset_modes.c **** 			0, 1, 2, 3, 4, 5,
2120:Drivers/BSP/Components/vl53l1cb/modules/vl53l1_api_preset_modes.c **** 			&(pzone_cfg->multizone_hist_cfg));
2121:Drivers/BSP/Components/vl53l1cb/modules/vl53l1_api_preset_modes.c **** 
2122:Drivers/BSP/Components/vl53l1cb/modules/vl53l1_api_preset_modes.c **** 
2123:Drivers/BSP/Components/vl53l1cb/modules/vl53l1_api_preset_modes.c **** 
2124:Drivers/BSP/Components/vl53l1cb/modules/vl53l1_api_preset_modes.c **** 		VL53L1_copy_hist_cfg_to_static_cfg(
2125:Drivers/BSP/Components/vl53l1cb/modules/vl53l1_api_preset_modes.c **** 			phistogram,
2126:Drivers/BSP/Components/vl53l1cb/modules/vl53l1_api_preset_modes.c **** 			pstatic,
2127:Drivers/BSP/Components/vl53l1cb/modules/vl53l1_api_preset_modes.c **** 			pgeneral,
2128:Drivers/BSP/Components/vl53l1cb/modules/vl53l1_api_preset_modes.c **** 			ptiming,
2129:Drivers/BSP/Components/vl53l1cb/modules/vl53l1_api_preset_modes.c **** 			pdynamic);
2130:Drivers/BSP/Components/vl53l1cb/modules/vl53l1_api_preset_modes.c **** 
2131:Drivers/BSP/Components/vl53l1cb/modules/vl53l1_api_preset_modes.c **** 
2132:Drivers/BSP/Components/vl53l1cb/modules/vl53l1_api_preset_modes.c **** 
2133:Drivers/BSP/Components/vl53l1cb/modules/vl53l1_api_preset_modes.c **** 		ptiming->range_config__vcsel_period_a = 0x09;
2134:Drivers/BSP/Components/vl53l1cb/modules/vl53l1_api_preset_modes.c **** 		ptiming->range_config__vcsel_period_b = 0x0b;
2135:Drivers/BSP/Components/vl53l1cb/modules/vl53l1_api_preset_modes.c **** 
2136:Drivers/BSP/Components/vl53l1cb/modules/vl53l1_api_preset_modes.c **** 
2137:Drivers/BSP/Components/vl53l1cb/modules/vl53l1_api_preset_modes.c **** 
2138:Drivers/BSP/Components/vl53l1cb/modules/vl53l1_api_preset_modes.c **** 		ptiming->mm_config__timeout_macrop_a_hi = 0x00;
2139:Drivers/BSP/Components/vl53l1cb/modules/vl53l1_api_preset_modes.c **** 		ptiming->mm_config__timeout_macrop_a_lo = 0x21;
2140:Drivers/BSP/Components/vl53l1cb/modules/vl53l1_api_preset_modes.c **** 		ptiming->mm_config__timeout_macrop_b_hi = 0x00;
2141:Drivers/BSP/Components/vl53l1cb/modules/vl53l1_api_preset_modes.c **** 		ptiming->mm_config__timeout_macrop_b_lo = 0x1b;
2142:Drivers/BSP/Components/vl53l1cb/modules/vl53l1_api_preset_modes.c **** 
2143:Drivers/BSP/Components/vl53l1cb/modules/vl53l1_api_preset_modes.c **** 
2144:Drivers/BSP/Components/vl53l1cb/modules/vl53l1_api_preset_modes.c **** 
2145:Drivers/BSP/Components/vl53l1cb/modules/vl53l1_api_preset_modes.c **** 		ptiming->range_config__timeout_macrop_a_hi = 0x00;
2146:Drivers/BSP/Components/vl53l1cb/modules/vl53l1_api_preset_modes.c **** 		ptiming->range_config__timeout_macrop_a_lo = 0x29;
2147:Drivers/BSP/Components/vl53l1cb/modules/vl53l1_api_preset_modes.c **** 		ptiming->range_config__timeout_macrop_b_hi = 0x00;
2148:Drivers/BSP/Components/vl53l1cb/modules/vl53l1_api_preset_modes.c **** 		ptiming->range_config__timeout_macrop_b_lo = 0x22;
2149:Drivers/BSP/Components/vl53l1cb/modules/vl53l1_api_preset_modes.c **** 
2150:Drivers/BSP/Components/vl53l1cb/modules/vl53l1_api_preset_modes.c **** 
2151:Drivers/BSP/Components/vl53l1cb/modules/vl53l1_api_preset_modes.c **** 
2152:Drivers/BSP/Components/vl53l1cb/modules/vl53l1_api_preset_modes.c **** 		pgeneral->cal_config__vcsel_start = 0x09;
2153:Drivers/BSP/Components/vl53l1cb/modules/vl53l1_api_preset_modes.c **** 
2154:Drivers/BSP/Components/vl53l1cb/modules/vl53l1_api_preset_modes.c **** 
2155:Drivers/BSP/Components/vl53l1cb/modules/vl53l1_api_preset_modes.c **** 
2156:Drivers/BSP/Components/vl53l1cb/modules/vl53l1_api_preset_modes.c **** 		pgeneral->phasecal_config__timeout_macrop = 0xF5;
ARM GAS  C:\Temp\ccoVwn9Y.s 			page 81


2157:Drivers/BSP/Components/vl53l1cb/modules/vl53l1_api_preset_modes.c **** 
2158:Drivers/BSP/Components/vl53l1cb/modules/vl53l1_api_preset_modes.c **** 
2159:Drivers/BSP/Components/vl53l1cb/modules/vl53l1_api_preset_modes.c **** 
2160:Drivers/BSP/Components/vl53l1cb/modules/vl53l1_api_preset_modes.c **** 		pdynamic->sd_config__woi_sd0 = 0x09;
2161:Drivers/BSP/Components/vl53l1cb/modules/vl53l1_api_preset_modes.c **** 		pdynamic->sd_config__woi_sd1 = 0x0B;
2162:Drivers/BSP/Components/vl53l1cb/modules/vl53l1_api_preset_modes.c **** 		pdynamic->sd_config__initial_phase_sd0            =
2163:Drivers/BSP/Components/vl53l1cb/modules/vl53l1_api_preset_modes.c **** 				ptuning_parms->tp_init_phase_rtn_hist_long;
2164:Drivers/BSP/Components/vl53l1cb/modules/vl53l1_api_preset_modes.c **** 		pdynamic->sd_config__initial_phase_sd1            =
2165:Drivers/BSP/Components/vl53l1cb/modules/vl53l1_api_preset_modes.c **** 				ptuning_parms->tp_init_phase_ref_hist_long;
2166:Drivers/BSP/Components/vl53l1cb/modules/vl53l1_api_preset_modes.c **** 
2167:Drivers/BSP/Components/vl53l1cb/modules/vl53l1_api_preset_modes.c **** 
2168:Drivers/BSP/Components/vl53l1cb/modules/vl53l1_api_preset_modes.c **** 
2169:Drivers/BSP/Components/vl53l1cb/modules/vl53l1_api_preset_modes.c **** 		phistpostprocess->valid_phase_low = 0x08;
2170:Drivers/BSP/Components/vl53l1cb/modules/vl53l1_api_preset_modes.c **** 		phistpostprocess->valid_phase_high = 0x88;
2171:Drivers/BSP/Components/vl53l1cb/modules/vl53l1_api_preset_modes.c **** 
2172:Drivers/BSP/Components/vl53l1cb/modules/vl53l1_api_preset_modes.c **** 		pdynamic->system__sequence_config =
2173:Drivers/BSP/Components/vl53l1cb/modules/vl53l1_api_preset_modes.c **** 				VL53L1_SEQUENCE_VHV_EN |
2174:Drivers/BSP/Components/vl53l1cb/modules/vl53l1_api_preset_modes.c **** 				VL53L1_SEQUENCE_PHASECAL_EN |
2175:Drivers/BSP/Components/vl53l1cb/modules/vl53l1_api_preset_modes.c **** 				VL53L1_SEQUENCE_DSS1_EN |
2176:Drivers/BSP/Components/vl53l1cb/modules/vl53l1_api_preset_modes.c **** 				VL53L1_SEQUENCE_DSS2_EN |
2177:Drivers/BSP/Components/vl53l1cb/modules/vl53l1_api_preset_modes.c **** 				VL53L1_SEQUENCE_RANGE_EN;
2178:Drivers/BSP/Components/vl53l1cb/modules/vl53l1_api_preset_modes.c **** 
2179:Drivers/BSP/Components/vl53l1cb/modules/vl53l1_api_preset_modes.c **** 
2180:Drivers/BSP/Components/vl53l1cb/modules/vl53l1_api_preset_modes.c **** 
2181:Drivers/BSP/Components/vl53l1cb/modules/vl53l1_api_preset_modes.c **** 
2182:Drivers/BSP/Components/vl53l1cb/modules/vl53l1_api_preset_modes.c **** 		psystem->system__mode_start =
2183:Drivers/BSP/Components/vl53l1cb/modules/vl53l1_api_preset_modes.c **** 				VL53L1_DEVICESCHEDULERMODE_HISTOGRAM |
2184:Drivers/BSP/Components/vl53l1cb/modules/vl53l1_api_preset_modes.c **** 				VL53L1_DEVICEREADOUTMODE_DUAL_SD |
2185:Drivers/BSP/Components/vl53l1cb/modules/vl53l1_api_preset_modes.c **** 				VL53L1_DEVICEMEASUREMENTMODE_BACKTOBACK;
2186:Drivers/BSP/Components/vl53l1cb/modules/vl53l1_api_preset_modes.c **** 	}
2187:Drivers/BSP/Components/vl53l1cb/modules/vl53l1_api_preset_modes.c **** 
2188:Drivers/BSP/Components/vl53l1cb/modules/vl53l1_api_preset_modes.c **** 	LOG_FUNCTION_END(status);
2189:Drivers/BSP/Components/vl53l1cb/modules/vl53l1_api_preset_modes.c **** 
2190:Drivers/BSP/Components/vl53l1cb/modules/vl53l1_api_preset_modes.c **** 	return status;
2191:Drivers/BSP/Components/vl53l1cb/modules/vl53l1_api_preset_modes.c **** }
2192:Drivers/BSP/Components/vl53l1cb/modules/vl53l1_api_preset_modes.c **** 
2193:Drivers/BSP/Components/vl53l1cb/modules/vl53l1_api_preset_modes.c **** 
2194:Drivers/BSP/Components/vl53l1cb/modules/vl53l1_api_preset_modes.c **** VL53L1_Error VL53L1_preset_mode_histogram_long_range_mm1(
2195:Drivers/BSP/Components/vl53l1cb/modules/vl53l1_api_preset_modes.c **** 	VL53L1_hist_post_process_config_t  *phistpostprocess,
2196:Drivers/BSP/Components/vl53l1cb/modules/vl53l1_api_preset_modes.c **** 	VL53L1_static_config_t             *pstatic,
2197:Drivers/BSP/Components/vl53l1cb/modules/vl53l1_api_preset_modes.c **** 	VL53L1_histogram_config_t          *phistogram,
2198:Drivers/BSP/Components/vl53l1cb/modules/vl53l1_api_preset_modes.c **** 	VL53L1_general_config_t            *pgeneral,
2199:Drivers/BSP/Components/vl53l1cb/modules/vl53l1_api_preset_modes.c **** 	VL53L1_timing_config_t             *ptiming,
2200:Drivers/BSP/Components/vl53l1cb/modules/vl53l1_api_preset_modes.c **** 	VL53L1_dynamic_config_t            *pdynamic,
2201:Drivers/BSP/Components/vl53l1cb/modules/vl53l1_api_preset_modes.c **** 	VL53L1_system_control_t            *psystem,
2202:Drivers/BSP/Components/vl53l1cb/modules/vl53l1_api_preset_modes.c **** 	VL53L1_tuning_parm_storage_t       *ptuning_parms,
2203:Drivers/BSP/Components/vl53l1cb/modules/vl53l1_api_preset_modes.c **** 	VL53L1_zone_config_t               *pzone_cfg)
2204:Drivers/BSP/Components/vl53l1cb/modules/vl53l1_api_preset_modes.c **** {
2205:Drivers/BSP/Components/vl53l1cb/modules/vl53l1_api_preset_modes.c **** 
2206:Drivers/BSP/Components/vl53l1cb/modules/vl53l1_api_preset_modes.c **** 
2207:Drivers/BSP/Components/vl53l1cb/modules/vl53l1_api_preset_modes.c **** 	VL53L1_Error  status = VL53L1_ERROR_NONE;
2208:Drivers/BSP/Components/vl53l1cb/modules/vl53l1_api_preset_modes.c **** 
2209:Drivers/BSP/Components/vl53l1cb/modules/vl53l1_api_preset_modes.c **** 	LOG_FUNCTION_START("");
2210:Drivers/BSP/Components/vl53l1cb/modules/vl53l1_api_preset_modes.c **** 
2211:Drivers/BSP/Components/vl53l1cb/modules/vl53l1_api_preset_modes.c **** 
2212:Drivers/BSP/Components/vl53l1cb/modules/vl53l1_api_preset_modes.c **** 
2213:Drivers/BSP/Components/vl53l1cb/modules/vl53l1_api_preset_modes.c **** 	status =
ARM GAS  C:\Temp\ccoVwn9Y.s 			page 82


2214:Drivers/BSP/Components/vl53l1cb/modules/vl53l1_api_preset_modes.c **** 		VL53L1_preset_mode_histogram_long_range(
2215:Drivers/BSP/Components/vl53l1cb/modules/vl53l1_api_preset_modes.c **** 			phistpostprocess,
2216:Drivers/BSP/Components/vl53l1cb/modules/vl53l1_api_preset_modes.c **** 			pstatic,
2217:Drivers/BSP/Components/vl53l1cb/modules/vl53l1_api_preset_modes.c **** 			phistogram,
2218:Drivers/BSP/Components/vl53l1cb/modules/vl53l1_api_preset_modes.c **** 			pgeneral,
2219:Drivers/BSP/Components/vl53l1cb/modules/vl53l1_api_preset_modes.c **** 			ptiming,
2220:Drivers/BSP/Components/vl53l1cb/modules/vl53l1_api_preset_modes.c **** 			pdynamic,
2221:Drivers/BSP/Components/vl53l1cb/modules/vl53l1_api_preset_modes.c **** 			psystem,
2222:Drivers/BSP/Components/vl53l1cb/modules/vl53l1_api_preset_modes.c **** 			ptuning_parms,
2223:Drivers/BSP/Components/vl53l1cb/modules/vl53l1_api_preset_modes.c **** 			pzone_cfg);
2224:Drivers/BSP/Components/vl53l1cb/modules/vl53l1_api_preset_modes.c **** 
2225:Drivers/BSP/Components/vl53l1cb/modules/vl53l1_api_preset_modes.c **** 
2226:Drivers/BSP/Components/vl53l1cb/modules/vl53l1_api_preset_modes.c **** 
2227:Drivers/BSP/Components/vl53l1cb/modules/vl53l1_api_preset_modes.c **** 	if (status == VL53L1_ERROR_NONE) {
2228:Drivers/BSP/Components/vl53l1cb/modules/vl53l1_api_preset_modes.c **** 
2229:Drivers/BSP/Components/vl53l1cb/modules/vl53l1_api_preset_modes.c **** 
2230:Drivers/BSP/Components/vl53l1cb/modules/vl53l1_api_preset_modes.c **** 
2231:Drivers/BSP/Components/vl53l1cb/modules/vl53l1_api_preset_modes.c **** 
2232:Drivers/BSP/Components/vl53l1cb/modules/vl53l1_api_preset_modes.c **** 
2233:Drivers/BSP/Components/vl53l1cb/modules/vl53l1_api_preset_modes.c **** 		VL53L1_init_histogram_config_structure(
2234:Drivers/BSP/Components/vl53l1cb/modules/vl53l1_api_preset_modes.c **** 				  7,   0,   1, 2, 3, 4,
2235:Drivers/BSP/Components/vl53l1cb/modules/vl53l1_api_preset_modes.c **** 				8+0, 8+1, 8+2, 3, 4, 5,
2236:Drivers/BSP/Components/vl53l1cb/modules/vl53l1_api_preset_modes.c **** 				phistogram);
2237:Drivers/BSP/Components/vl53l1cb/modules/vl53l1_api_preset_modes.c **** 
2238:Drivers/BSP/Components/vl53l1cb/modules/vl53l1_api_preset_modes.c **** 
2239:Drivers/BSP/Components/vl53l1cb/modules/vl53l1_api_preset_modes.c **** 		VL53L1_init_histogram_multizone_config_structure(
2240:Drivers/BSP/Components/vl53l1cb/modules/vl53l1_api_preset_modes.c **** 				  7,   0,   1, 2, 3, 4,
2241:Drivers/BSP/Components/vl53l1cb/modules/vl53l1_api_preset_modes.c **** 				8+0, 8+1, 8+2, 3, 4, 5,
2242:Drivers/BSP/Components/vl53l1cb/modules/vl53l1_api_preset_modes.c **** 				&(pzone_cfg->multizone_hist_cfg));
2243:Drivers/BSP/Components/vl53l1cb/modules/vl53l1_api_preset_modes.c **** 
2244:Drivers/BSP/Components/vl53l1cb/modules/vl53l1_api_preset_modes.c **** 
2245:Drivers/BSP/Components/vl53l1cb/modules/vl53l1_api_preset_modes.c **** 
2246:Drivers/BSP/Components/vl53l1cb/modules/vl53l1_api_preset_modes.c **** 		VL53L1_copy_hist_cfg_to_static_cfg(
2247:Drivers/BSP/Components/vl53l1cb/modules/vl53l1_api_preset_modes.c **** 				phistogram,
2248:Drivers/BSP/Components/vl53l1cb/modules/vl53l1_api_preset_modes.c **** 				pstatic,
2249:Drivers/BSP/Components/vl53l1cb/modules/vl53l1_api_preset_modes.c **** 				pgeneral,
2250:Drivers/BSP/Components/vl53l1cb/modules/vl53l1_api_preset_modes.c **** 				ptiming,
2251:Drivers/BSP/Components/vl53l1cb/modules/vl53l1_api_preset_modes.c **** 				pdynamic);
2252:Drivers/BSP/Components/vl53l1cb/modules/vl53l1_api_preset_modes.c **** 
2253:Drivers/BSP/Components/vl53l1cb/modules/vl53l1_api_preset_modes.c **** 
2254:Drivers/BSP/Components/vl53l1cb/modules/vl53l1_api_preset_modes.c **** 
2255:Drivers/BSP/Components/vl53l1cb/modules/vl53l1_api_preset_modes.c **** 		pdynamic->system__sequence_config =
2256:Drivers/BSP/Components/vl53l1cb/modules/vl53l1_api_preset_modes.c **** 				VL53L1_SEQUENCE_VHV_EN |
2257:Drivers/BSP/Components/vl53l1cb/modules/vl53l1_api_preset_modes.c **** 				VL53L1_SEQUENCE_PHASECAL_EN |
2258:Drivers/BSP/Components/vl53l1cb/modules/vl53l1_api_preset_modes.c **** 				VL53L1_SEQUENCE_DSS1_EN |
2259:Drivers/BSP/Components/vl53l1cb/modules/vl53l1_api_preset_modes.c **** 				VL53L1_SEQUENCE_DSS2_EN |
2260:Drivers/BSP/Components/vl53l1cb/modules/vl53l1_api_preset_modes.c **** 				VL53L1_SEQUENCE_MM1_EN |
2261:Drivers/BSP/Components/vl53l1cb/modules/vl53l1_api_preset_modes.c **** 				VL53L1_SEQUENCE_RANGE_EN;
2262:Drivers/BSP/Components/vl53l1cb/modules/vl53l1_api_preset_modes.c **** 	}
2263:Drivers/BSP/Components/vl53l1cb/modules/vl53l1_api_preset_modes.c **** 
2264:Drivers/BSP/Components/vl53l1cb/modules/vl53l1_api_preset_modes.c **** 	LOG_FUNCTION_END(status);
2265:Drivers/BSP/Components/vl53l1cb/modules/vl53l1_api_preset_modes.c **** 
2266:Drivers/BSP/Components/vl53l1cb/modules/vl53l1_api_preset_modes.c **** 	return status;
2267:Drivers/BSP/Components/vl53l1cb/modules/vl53l1_api_preset_modes.c **** }
2268:Drivers/BSP/Components/vl53l1cb/modules/vl53l1_api_preset_modes.c **** 
2269:Drivers/BSP/Components/vl53l1cb/modules/vl53l1_api_preset_modes.c **** 
2270:Drivers/BSP/Components/vl53l1cb/modules/vl53l1_api_preset_modes.c **** VL53L1_Error VL53L1_preset_mode_histogram_long_range_mm2(
ARM GAS  C:\Temp\ccoVwn9Y.s 			page 83


2271:Drivers/BSP/Components/vl53l1cb/modules/vl53l1_api_preset_modes.c **** 	VL53L1_hist_post_process_config_t  *phistpostprocess,
2272:Drivers/BSP/Components/vl53l1cb/modules/vl53l1_api_preset_modes.c **** 	VL53L1_static_config_t             *pstatic,
2273:Drivers/BSP/Components/vl53l1cb/modules/vl53l1_api_preset_modes.c **** 	VL53L1_histogram_config_t          *phistogram,
2274:Drivers/BSP/Components/vl53l1cb/modules/vl53l1_api_preset_modes.c **** 	VL53L1_general_config_t            *pgeneral,
2275:Drivers/BSP/Components/vl53l1cb/modules/vl53l1_api_preset_modes.c **** 	VL53L1_timing_config_t             *ptiming,
2276:Drivers/BSP/Components/vl53l1cb/modules/vl53l1_api_preset_modes.c **** 	VL53L1_dynamic_config_t            *pdynamic,
2277:Drivers/BSP/Components/vl53l1cb/modules/vl53l1_api_preset_modes.c **** 	VL53L1_system_control_t            *psystem,
2278:Drivers/BSP/Components/vl53l1cb/modules/vl53l1_api_preset_modes.c **** 	VL53L1_tuning_parm_storage_t      *ptuning_parms,
2279:Drivers/BSP/Components/vl53l1cb/modules/vl53l1_api_preset_modes.c **** 	VL53L1_zone_config_t               *pzone_cfg)
2280:Drivers/BSP/Components/vl53l1cb/modules/vl53l1_api_preset_modes.c **** {
2281:Drivers/BSP/Components/vl53l1cb/modules/vl53l1_api_preset_modes.c **** 
2282:Drivers/BSP/Components/vl53l1cb/modules/vl53l1_api_preset_modes.c **** 
2283:Drivers/BSP/Components/vl53l1cb/modules/vl53l1_api_preset_modes.c **** 	VL53L1_Error  status = VL53L1_ERROR_NONE;
2284:Drivers/BSP/Components/vl53l1cb/modules/vl53l1_api_preset_modes.c **** 
2285:Drivers/BSP/Components/vl53l1cb/modules/vl53l1_api_preset_modes.c **** 	LOG_FUNCTION_START("");
2286:Drivers/BSP/Components/vl53l1cb/modules/vl53l1_api_preset_modes.c **** 
2287:Drivers/BSP/Components/vl53l1cb/modules/vl53l1_api_preset_modes.c **** 
2288:Drivers/BSP/Components/vl53l1cb/modules/vl53l1_api_preset_modes.c **** 
2289:Drivers/BSP/Components/vl53l1cb/modules/vl53l1_api_preset_modes.c **** 	status =
2290:Drivers/BSP/Components/vl53l1cb/modules/vl53l1_api_preset_modes.c **** 		VL53L1_preset_mode_histogram_long_range_mm1(
2291:Drivers/BSP/Components/vl53l1cb/modules/vl53l1_api_preset_modes.c **** 			phistpostprocess,
2292:Drivers/BSP/Components/vl53l1cb/modules/vl53l1_api_preset_modes.c **** 			pstatic,
2293:Drivers/BSP/Components/vl53l1cb/modules/vl53l1_api_preset_modes.c **** 			phistogram,
2294:Drivers/BSP/Components/vl53l1cb/modules/vl53l1_api_preset_modes.c **** 			pgeneral,
2295:Drivers/BSP/Components/vl53l1cb/modules/vl53l1_api_preset_modes.c **** 			ptiming,
2296:Drivers/BSP/Components/vl53l1cb/modules/vl53l1_api_preset_modes.c **** 			pdynamic,
2297:Drivers/BSP/Components/vl53l1cb/modules/vl53l1_api_preset_modes.c **** 			psystem,
2298:Drivers/BSP/Components/vl53l1cb/modules/vl53l1_api_preset_modes.c **** 			ptuning_parms,
2299:Drivers/BSP/Components/vl53l1cb/modules/vl53l1_api_preset_modes.c **** 			pzone_cfg);
2300:Drivers/BSP/Components/vl53l1cb/modules/vl53l1_api_preset_modes.c **** 
2301:Drivers/BSP/Components/vl53l1cb/modules/vl53l1_api_preset_modes.c **** 
2302:Drivers/BSP/Components/vl53l1cb/modules/vl53l1_api_preset_modes.c **** 
2303:Drivers/BSP/Components/vl53l1cb/modules/vl53l1_api_preset_modes.c **** 	if (status == VL53L1_ERROR_NONE) {
2304:Drivers/BSP/Components/vl53l1cb/modules/vl53l1_api_preset_modes.c **** 
2305:Drivers/BSP/Components/vl53l1cb/modules/vl53l1_api_preset_modes.c **** 
2306:Drivers/BSP/Components/vl53l1cb/modules/vl53l1_api_preset_modes.c **** 
2307:Drivers/BSP/Components/vl53l1cb/modules/vl53l1_api_preset_modes.c **** 		pdynamic->system__sequence_config =
2308:Drivers/BSP/Components/vl53l1cb/modules/vl53l1_api_preset_modes.c **** 				VL53L1_SEQUENCE_VHV_EN |
2309:Drivers/BSP/Components/vl53l1cb/modules/vl53l1_api_preset_modes.c **** 				VL53L1_SEQUENCE_PHASECAL_EN |
2310:Drivers/BSP/Components/vl53l1cb/modules/vl53l1_api_preset_modes.c **** 				VL53L1_SEQUENCE_DSS1_EN |
2311:Drivers/BSP/Components/vl53l1cb/modules/vl53l1_api_preset_modes.c **** 				VL53L1_SEQUENCE_DSS2_EN |
2312:Drivers/BSP/Components/vl53l1cb/modules/vl53l1_api_preset_modes.c **** 				VL53L1_SEQUENCE_MM2_EN |
2313:Drivers/BSP/Components/vl53l1cb/modules/vl53l1_api_preset_modes.c **** 				VL53L1_SEQUENCE_RANGE_EN;
2314:Drivers/BSP/Components/vl53l1cb/modules/vl53l1_api_preset_modes.c **** 	}
2315:Drivers/BSP/Components/vl53l1cb/modules/vl53l1_api_preset_modes.c **** 
2316:Drivers/BSP/Components/vl53l1cb/modules/vl53l1_api_preset_modes.c **** 	LOG_FUNCTION_END(status);
2317:Drivers/BSP/Components/vl53l1cb/modules/vl53l1_api_preset_modes.c **** 
2318:Drivers/BSP/Components/vl53l1cb/modules/vl53l1_api_preset_modes.c **** 	return status;
2319:Drivers/BSP/Components/vl53l1cb/modules/vl53l1_api_preset_modes.c **** }
2320:Drivers/BSP/Components/vl53l1cb/modules/vl53l1_api_preset_modes.c **** 
2321:Drivers/BSP/Components/vl53l1cb/modules/vl53l1_api_preset_modes.c **** 
2322:Drivers/BSP/Components/vl53l1cb/modules/vl53l1_api_preset_modes.c **** 
2323:Drivers/BSP/Components/vl53l1cb/modules/vl53l1_api_preset_modes.c **** VL53L1_Error VL53L1_preset_mode_histogram_medium_range(
2324:Drivers/BSP/Components/vl53l1cb/modules/vl53l1_api_preset_modes.c **** 	VL53L1_hist_post_process_config_t  *phistpostprocess,
2325:Drivers/BSP/Components/vl53l1cb/modules/vl53l1_api_preset_modes.c **** 	VL53L1_static_config_t             *pstatic,
2326:Drivers/BSP/Components/vl53l1cb/modules/vl53l1_api_preset_modes.c **** 	VL53L1_histogram_config_t          *phistogram,
2327:Drivers/BSP/Components/vl53l1cb/modules/vl53l1_api_preset_modes.c **** 	VL53L1_general_config_t            *pgeneral,
ARM GAS  C:\Temp\ccoVwn9Y.s 			page 84


2328:Drivers/BSP/Components/vl53l1cb/modules/vl53l1_api_preset_modes.c **** 	VL53L1_timing_config_t             *ptiming,
2329:Drivers/BSP/Components/vl53l1cb/modules/vl53l1_api_preset_modes.c **** 	VL53L1_dynamic_config_t            *pdynamic,
2330:Drivers/BSP/Components/vl53l1cb/modules/vl53l1_api_preset_modes.c **** 	VL53L1_system_control_t            *psystem,
2331:Drivers/BSP/Components/vl53l1cb/modules/vl53l1_api_preset_modes.c **** 	VL53L1_tuning_parm_storage_t       *ptuning_parms,
2332:Drivers/BSP/Components/vl53l1cb/modules/vl53l1_api_preset_modes.c **** 	VL53L1_zone_config_t               *pzone_cfg)
2333:Drivers/BSP/Components/vl53l1cb/modules/vl53l1_api_preset_modes.c **** {
2334:Drivers/BSP/Components/vl53l1cb/modules/vl53l1_api_preset_modes.c **** 
2335:Drivers/BSP/Components/vl53l1cb/modules/vl53l1_api_preset_modes.c **** 
2336:Drivers/BSP/Components/vl53l1cb/modules/vl53l1_api_preset_modes.c **** 	VL53L1_Error  status = VL53L1_ERROR_NONE;
2337:Drivers/BSP/Components/vl53l1cb/modules/vl53l1_api_preset_modes.c **** 
2338:Drivers/BSP/Components/vl53l1cb/modules/vl53l1_api_preset_modes.c **** 	LOG_FUNCTION_START("");
2339:Drivers/BSP/Components/vl53l1cb/modules/vl53l1_api_preset_modes.c **** 
2340:Drivers/BSP/Components/vl53l1cb/modules/vl53l1_api_preset_modes.c **** 
2341:Drivers/BSP/Components/vl53l1cb/modules/vl53l1_api_preset_modes.c **** 
2342:Drivers/BSP/Components/vl53l1cb/modules/vl53l1_api_preset_modes.c **** 	status =
2343:Drivers/BSP/Components/vl53l1cb/modules/vl53l1_api_preset_modes.c **** 		VL53L1_preset_mode_histogram_ranging(
2344:Drivers/BSP/Components/vl53l1cb/modules/vl53l1_api_preset_modes.c **** 			phistpostprocess,
2345:Drivers/BSP/Components/vl53l1cb/modules/vl53l1_api_preset_modes.c **** 			pstatic,
2346:Drivers/BSP/Components/vl53l1cb/modules/vl53l1_api_preset_modes.c **** 			phistogram,
2347:Drivers/BSP/Components/vl53l1cb/modules/vl53l1_api_preset_modes.c **** 			pgeneral,
2348:Drivers/BSP/Components/vl53l1cb/modules/vl53l1_api_preset_modes.c **** 			ptiming,
2349:Drivers/BSP/Components/vl53l1cb/modules/vl53l1_api_preset_modes.c **** 			pdynamic,
2350:Drivers/BSP/Components/vl53l1cb/modules/vl53l1_api_preset_modes.c **** 			psystem,
2351:Drivers/BSP/Components/vl53l1cb/modules/vl53l1_api_preset_modes.c **** 			ptuning_parms,
2352:Drivers/BSP/Components/vl53l1cb/modules/vl53l1_api_preset_modes.c **** 			pzone_cfg);
2353:Drivers/BSP/Components/vl53l1cb/modules/vl53l1_api_preset_modes.c **** 
2354:Drivers/BSP/Components/vl53l1cb/modules/vl53l1_api_preset_modes.c **** 
2355:Drivers/BSP/Components/vl53l1cb/modules/vl53l1_api_preset_modes.c **** 
2356:Drivers/BSP/Components/vl53l1cb/modules/vl53l1_api_preset_modes.c **** 	if (status == VL53L1_ERROR_NONE) {
2357:Drivers/BSP/Components/vl53l1cb/modules/vl53l1_api_preset_modes.c **** 
2358:Drivers/BSP/Components/vl53l1cb/modules/vl53l1_api_preset_modes.c **** 
2359:Drivers/BSP/Components/vl53l1cb/modules/vl53l1_api_preset_modes.c **** 
2360:Drivers/BSP/Components/vl53l1cb/modules/vl53l1_api_preset_modes.c **** 
2361:Drivers/BSP/Components/vl53l1cb/modules/vl53l1_api_preset_modes.c **** 
2362:Drivers/BSP/Components/vl53l1cb/modules/vl53l1_api_preset_modes.c **** 		VL53L1_init_histogram_config_structure(
2363:Drivers/BSP/Components/vl53l1cb/modules/vl53l1_api_preset_modes.c **** 				7, 0, 1, 1, 2, 2,
2364:Drivers/BSP/Components/vl53l1cb/modules/vl53l1_api_preset_modes.c **** 				0, 1, 2, 1, 2, 3,
2365:Drivers/BSP/Components/vl53l1cb/modules/vl53l1_api_preset_modes.c **** 				phistogram);
2366:Drivers/BSP/Components/vl53l1cb/modules/vl53l1_api_preset_modes.c **** 
2367:Drivers/BSP/Components/vl53l1cb/modules/vl53l1_api_preset_modes.c **** 
2368:Drivers/BSP/Components/vl53l1cb/modules/vl53l1_api_preset_modes.c **** 		VL53L1_init_histogram_multizone_config_structure(
2369:Drivers/BSP/Components/vl53l1cb/modules/vl53l1_api_preset_modes.c **** 				7, 0, 1, 1, 2, 2,
2370:Drivers/BSP/Components/vl53l1cb/modules/vl53l1_api_preset_modes.c **** 				0, 1, 2, 1, 2, 3,
2371:Drivers/BSP/Components/vl53l1cb/modules/vl53l1_api_preset_modes.c **** 				&(pzone_cfg->multizone_hist_cfg));
2372:Drivers/BSP/Components/vl53l1cb/modules/vl53l1_api_preset_modes.c **** 
2373:Drivers/BSP/Components/vl53l1cb/modules/vl53l1_api_preset_modes.c **** 
2374:Drivers/BSP/Components/vl53l1cb/modules/vl53l1_api_preset_modes.c **** 
2375:Drivers/BSP/Components/vl53l1cb/modules/vl53l1_api_preset_modes.c **** 		VL53L1_copy_hist_cfg_to_static_cfg(
2376:Drivers/BSP/Components/vl53l1cb/modules/vl53l1_api_preset_modes.c **** 				phistogram,
2377:Drivers/BSP/Components/vl53l1cb/modules/vl53l1_api_preset_modes.c **** 				pstatic,
2378:Drivers/BSP/Components/vl53l1cb/modules/vl53l1_api_preset_modes.c **** 				pgeneral,
2379:Drivers/BSP/Components/vl53l1cb/modules/vl53l1_api_preset_modes.c **** 				ptiming,
2380:Drivers/BSP/Components/vl53l1cb/modules/vl53l1_api_preset_modes.c **** 				pdynamic);
2381:Drivers/BSP/Components/vl53l1cb/modules/vl53l1_api_preset_modes.c **** 
2382:Drivers/BSP/Components/vl53l1cb/modules/vl53l1_api_preset_modes.c **** 
2383:Drivers/BSP/Components/vl53l1cb/modules/vl53l1_api_preset_modes.c **** 
2384:Drivers/BSP/Components/vl53l1cb/modules/vl53l1_api_preset_modes.c **** 		ptiming->range_config__vcsel_period_a = 0x05;
ARM GAS  C:\Temp\ccoVwn9Y.s 			page 85


2385:Drivers/BSP/Components/vl53l1cb/modules/vl53l1_api_preset_modes.c **** 		ptiming->range_config__vcsel_period_b = 0x07;
2386:Drivers/BSP/Components/vl53l1cb/modules/vl53l1_api_preset_modes.c **** 
2387:Drivers/BSP/Components/vl53l1cb/modules/vl53l1_api_preset_modes.c **** 
2388:Drivers/BSP/Components/vl53l1cb/modules/vl53l1_api_preset_modes.c **** 
2389:Drivers/BSP/Components/vl53l1cb/modules/vl53l1_api_preset_modes.c **** 		ptiming->mm_config__timeout_macrop_a_hi = 0x00;
2390:Drivers/BSP/Components/vl53l1cb/modules/vl53l1_api_preset_modes.c **** 		ptiming->mm_config__timeout_macrop_a_lo = 0x36;
2391:Drivers/BSP/Components/vl53l1cb/modules/vl53l1_api_preset_modes.c **** 		ptiming->mm_config__timeout_macrop_b_hi = 0x00;
2392:Drivers/BSP/Components/vl53l1cb/modules/vl53l1_api_preset_modes.c **** 		ptiming->mm_config__timeout_macrop_b_lo = 0x28;
2393:Drivers/BSP/Components/vl53l1cb/modules/vl53l1_api_preset_modes.c **** 
2394:Drivers/BSP/Components/vl53l1cb/modules/vl53l1_api_preset_modes.c **** 
2395:Drivers/BSP/Components/vl53l1cb/modules/vl53l1_api_preset_modes.c **** 
2396:Drivers/BSP/Components/vl53l1cb/modules/vl53l1_api_preset_modes.c **** 		ptiming->range_config__timeout_macrop_a_hi = 0x00;
2397:Drivers/BSP/Components/vl53l1cb/modules/vl53l1_api_preset_modes.c **** 		ptiming->range_config__timeout_macrop_a_lo = 0x44;
2398:Drivers/BSP/Components/vl53l1cb/modules/vl53l1_api_preset_modes.c **** 		ptiming->range_config__timeout_macrop_b_hi = 0x00;
2399:Drivers/BSP/Components/vl53l1cb/modules/vl53l1_api_preset_modes.c **** 		ptiming->range_config__timeout_macrop_b_lo = 0x33;
2400:Drivers/BSP/Components/vl53l1cb/modules/vl53l1_api_preset_modes.c **** 
2401:Drivers/BSP/Components/vl53l1cb/modules/vl53l1_api_preset_modes.c **** 
2402:Drivers/BSP/Components/vl53l1cb/modules/vl53l1_api_preset_modes.c **** 
2403:Drivers/BSP/Components/vl53l1cb/modules/vl53l1_api_preset_modes.c **** 		pgeneral->cal_config__vcsel_start = 0x05;
2404:Drivers/BSP/Components/vl53l1cb/modules/vl53l1_api_preset_modes.c **** 
2405:Drivers/BSP/Components/vl53l1cb/modules/vl53l1_api_preset_modes.c **** 
2406:Drivers/BSP/Components/vl53l1cb/modules/vl53l1_api_preset_modes.c **** 
2407:Drivers/BSP/Components/vl53l1cb/modules/vl53l1_api_preset_modes.c **** 		pgeneral->phasecal_config__timeout_macrop = 0xF5;
2408:Drivers/BSP/Components/vl53l1cb/modules/vl53l1_api_preset_modes.c **** 
2409:Drivers/BSP/Components/vl53l1cb/modules/vl53l1_api_preset_modes.c **** 
2410:Drivers/BSP/Components/vl53l1cb/modules/vl53l1_api_preset_modes.c **** 
2411:Drivers/BSP/Components/vl53l1cb/modules/vl53l1_api_preset_modes.c **** 		pdynamic->sd_config__woi_sd0 = 0x05;
2412:Drivers/BSP/Components/vl53l1cb/modules/vl53l1_api_preset_modes.c **** 		pdynamic->sd_config__woi_sd1 = 0x07;
2413:Drivers/BSP/Components/vl53l1cb/modules/vl53l1_api_preset_modes.c **** 		pdynamic->sd_config__initial_phase_sd0            =
2414:Drivers/BSP/Components/vl53l1cb/modules/vl53l1_api_preset_modes.c **** 			ptuning_parms->tp_init_phase_rtn_hist_med;
2415:Drivers/BSP/Components/vl53l1cb/modules/vl53l1_api_preset_modes.c **** 		pdynamic->sd_config__initial_phase_sd1            =
2416:Drivers/BSP/Components/vl53l1cb/modules/vl53l1_api_preset_modes.c **** 			ptuning_parms->tp_init_phase_ref_hist_med;
2417:Drivers/BSP/Components/vl53l1cb/modules/vl53l1_api_preset_modes.c **** 
2418:Drivers/BSP/Components/vl53l1cb/modules/vl53l1_api_preset_modes.c **** 
2419:Drivers/BSP/Components/vl53l1cb/modules/vl53l1_api_preset_modes.c **** 
2420:Drivers/BSP/Components/vl53l1cb/modules/vl53l1_api_preset_modes.c **** 		phistpostprocess->valid_phase_low = 0x08;
2421:Drivers/BSP/Components/vl53l1cb/modules/vl53l1_api_preset_modes.c **** 		phistpostprocess->valid_phase_high = 0x48;
2422:Drivers/BSP/Components/vl53l1cb/modules/vl53l1_api_preset_modes.c **** 
2423:Drivers/BSP/Components/vl53l1cb/modules/vl53l1_api_preset_modes.c **** 		pdynamic->system__sequence_config =
2424:Drivers/BSP/Components/vl53l1cb/modules/vl53l1_api_preset_modes.c **** 				VL53L1_SEQUENCE_VHV_EN |
2425:Drivers/BSP/Components/vl53l1cb/modules/vl53l1_api_preset_modes.c **** 				VL53L1_SEQUENCE_PHASECAL_EN |
2426:Drivers/BSP/Components/vl53l1cb/modules/vl53l1_api_preset_modes.c **** 				VL53L1_SEQUENCE_DSS1_EN |
2427:Drivers/BSP/Components/vl53l1cb/modules/vl53l1_api_preset_modes.c **** 				VL53L1_SEQUENCE_DSS2_EN |
2428:Drivers/BSP/Components/vl53l1cb/modules/vl53l1_api_preset_modes.c **** 				VL53L1_SEQUENCE_RANGE_EN;
2429:Drivers/BSP/Components/vl53l1cb/modules/vl53l1_api_preset_modes.c **** 
2430:Drivers/BSP/Components/vl53l1cb/modules/vl53l1_api_preset_modes.c **** 
2431:Drivers/BSP/Components/vl53l1cb/modules/vl53l1_api_preset_modes.c **** 
2432:Drivers/BSP/Components/vl53l1cb/modules/vl53l1_api_preset_modes.c **** 
2433:Drivers/BSP/Components/vl53l1cb/modules/vl53l1_api_preset_modes.c **** 		psystem->system__mode_start =
2434:Drivers/BSP/Components/vl53l1cb/modules/vl53l1_api_preset_modes.c **** 				VL53L1_DEVICESCHEDULERMODE_HISTOGRAM |
2435:Drivers/BSP/Components/vl53l1cb/modules/vl53l1_api_preset_modes.c **** 				VL53L1_DEVICEREADOUTMODE_DUAL_SD |
2436:Drivers/BSP/Components/vl53l1cb/modules/vl53l1_api_preset_modes.c **** 				VL53L1_DEVICEMEASUREMENTMODE_BACKTOBACK;
2437:Drivers/BSP/Components/vl53l1cb/modules/vl53l1_api_preset_modes.c **** 	}
2438:Drivers/BSP/Components/vl53l1cb/modules/vl53l1_api_preset_modes.c **** 
2439:Drivers/BSP/Components/vl53l1cb/modules/vl53l1_api_preset_modes.c **** 	LOG_FUNCTION_END(status);
2440:Drivers/BSP/Components/vl53l1cb/modules/vl53l1_api_preset_modes.c **** 
2441:Drivers/BSP/Components/vl53l1cb/modules/vl53l1_api_preset_modes.c **** 	return status;
ARM GAS  C:\Temp\ccoVwn9Y.s 			page 86


2442:Drivers/BSP/Components/vl53l1cb/modules/vl53l1_api_preset_modes.c **** }
2443:Drivers/BSP/Components/vl53l1cb/modules/vl53l1_api_preset_modes.c **** 
2444:Drivers/BSP/Components/vl53l1cb/modules/vl53l1_api_preset_modes.c **** 
2445:Drivers/BSP/Components/vl53l1cb/modules/vl53l1_api_preset_modes.c **** VL53L1_Error VL53L1_preset_mode_histogram_medium_range_mm1(
2446:Drivers/BSP/Components/vl53l1cb/modules/vl53l1_api_preset_modes.c **** 	VL53L1_hist_post_process_config_t  *phistpostprocess,
2447:Drivers/BSP/Components/vl53l1cb/modules/vl53l1_api_preset_modes.c **** 	VL53L1_static_config_t             *pstatic,
2448:Drivers/BSP/Components/vl53l1cb/modules/vl53l1_api_preset_modes.c **** 	VL53L1_histogram_config_t          *phistogram,
2449:Drivers/BSP/Components/vl53l1cb/modules/vl53l1_api_preset_modes.c **** 	VL53L1_general_config_t            *pgeneral,
2450:Drivers/BSP/Components/vl53l1cb/modules/vl53l1_api_preset_modes.c **** 	VL53L1_timing_config_t             *ptiming,
2451:Drivers/BSP/Components/vl53l1cb/modules/vl53l1_api_preset_modes.c **** 	VL53L1_dynamic_config_t            *pdynamic,
2452:Drivers/BSP/Components/vl53l1cb/modules/vl53l1_api_preset_modes.c **** 	VL53L1_system_control_t            *psystem,
2453:Drivers/BSP/Components/vl53l1cb/modules/vl53l1_api_preset_modes.c **** 	VL53L1_tuning_parm_storage_t       *ptuning_parms,
2454:Drivers/BSP/Components/vl53l1cb/modules/vl53l1_api_preset_modes.c **** 	VL53L1_zone_config_t               *pzone_cfg)
2455:Drivers/BSP/Components/vl53l1cb/modules/vl53l1_api_preset_modes.c **** {
2456:Drivers/BSP/Components/vl53l1cb/modules/vl53l1_api_preset_modes.c **** 
2457:Drivers/BSP/Components/vl53l1cb/modules/vl53l1_api_preset_modes.c **** 
2458:Drivers/BSP/Components/vl53l1cb/modules/vl53l1_api_preset_modes.c **** 	VL53L1_Error  status = VL53L1_ERROR_NONE;
2459:Drivers/BSP/Components/vl53l1cb/modules/vl53l1_api_preset_modes.c **** 
2460:Drivers/BSP/Components/vl53l1cb/modules/vl53l1_api_preset_modes.c **** 	LOG_FUNCTION_START("");
2461:Drivers/BSP/Components/vl53l1cb/modules/vl53l1_api_preset_modes.c **** 
2462:Drivers/BSP/Components/vl53l1cb/modules/vl53l1_api_preset_modes.c **** 
2463:Drivers/BSP/Components/vl53l1cb/modules/vl53l1_api_preset_modes.c **** 
2464:Drivers/BSP/Components/vl53l1cb/modules/vl53l1_api_preset_modes.c **** 	status =
2465:Drivers/BSP/Components/vl53l1cb/modules/vl53l1_api_preset_modes.c **** 		VL53L1_preset_mode_histogram_medium_range(
2466:Drivers/BSP/Components/vl53l1cb/modules/vl53l1_api_preset_modes.c **** 			phistpostprocess,
2467:Drivers/BSP/Components/vl53l1cb/modules/vl53l1_api_preset_modes.c **** 			pstatic,
2468:Drivers/BSP/Components/vl53l1cb/modules/vl53l1_api_preset_modes.c **** 			phistogram,
2469:Drivers/BSP/Components/vl53l1cb/modules/vl53l1_api_preset_modes.c **** 			pgeneral,
2470:Drivers/BSP/Components/vl53l1cb/modules/vl53l1_api_preset_modes.c **** 			ptiming,
2471:Drivers/BSP/Components/vl53l1cb/modules/vl53l1_api_preset_modes.c **** 			pdynamic,
2472:Drivers/BSP/Components/vl53l1cb/modules/vl53l1_api_preset_modes.c **** 			psystem,
2473:Drivers/BSP/Components/vl53l1cb/modules/vl53l1_api_preset_modes.c **** 			ptuning_parms,
2474:Drivers/BSP/Components/vl53l1cb/modules/vl53l1_api_preset_modes.c **** 			pzone_cfg);
2475:Drivers/BSP/Components/vl53l1cb/modules/vl53l1_api_preset_modes.c **** 
2476:Drivers/BSP/Components/vl53l1cb/modules/vl53l1_api_preset_modes.c **** 
2477:Drivers/BSP/Components/vl53l1cb/modules/vl53l1_api_preset_modes.c **** 
2478:Drivers/BSP/Components/vl53l1cb/modules/vl53l1_api_preset_modes.c **** 	if (status == VL53L1_ERROR_NONE) {
2479:Drivers/BSP/Components/vl53l1cb/modules/vl53l1_api_preset_modes.c **** 
2480:Drivers/BSP/Components/vl53l1cb/modules/vl53l1_api_preset_modes.c **** 
2481:Drivers/BSP/Components/vl53l1cb/modules/vl53l1_api_preset_modes.c **** 
2482:Drivers/BSP/Components/vl53l1cb/modules/vl53l1_api_preset_modes.c **** 		VL53L1_init_histogram_config_structure(
2483:Drivers/BSP/Components/vl53l1cb/modules/vl53l1_api_preset_modes.c **** 				  7,   0,   1, 1, 2, 2,
2484:Drivers/BSP/Components/vl53l1cb/modules/vl53l1_api_preset_modes.c **** 				8+0, 8+1, 8+2, 1, 2, 3,
2485:Drivers/BSP/Components/vl53l1cb/modules/vl53l1_api_preset_modes.c **** 				phistogram);
2486:Drivers/BSP/Components/vl53l1cb/modules/vl53l1_api_preset_modes.c **** 
2487:Drivers/BSP/Components/vl53l1cb/modules/vl53l1_api_preset_modes.c **** 
2488:Drivers/BSP/Components/vl53l1cb/modules/vl53l1_api_preset_modes.c **** 		VL53L1_init_histogram_multizone_config_structure(
2489:Drivers/BSP/Components/vl53l1cb/modules/vl53l1_api_preset_modes.c **** 				  7,   0,   1, 1, 2, 2,
2490:Drivers/BSP/Components/vl53l1cb/modules/vl53l1_api_preset_modes.c **** 				8+0, 8+1, 8+2, 1, 2, 3,
2491:Drivers/BSP/Components/vl53l1cb/modules/vl53l1_api_preset_modes.c **** 				&(pzone_cfg->multizone_hist_cfg));
2492:Drivers/BSP/Components/vl53l1cb/modules/vl53l1_api_preset_modes.c **** 
2493:Drivers/BSP/Components/vl53l1cb/modules/vl53l1_api_preset_modes.c **** 
2494:Drivers/BSP/Components/vl53l1cb/modules/vl53l1_api_preset_modes.c **** 
2495:Drivers/BSP/Components/vl53l1cb/modules/vl53l1_api_preset_modes.c **** 		VL53L1_copy_hist_cfg_to_static_cfg(
2496:Drivers/BSP/Components/vl53l1cb/modules/vl53l1_api_preset_modes.c **** 				phistogram,
2497:Drivers/BSP/Components/vl53l1cb/modules/vl53l1_api_preset_modes.c **** 				pstatic,
2498:Drivers/BSP/Components/vl53l1cb/modules/vl53l1_api_preset_modes.c **** 				pgeneral,
ARM GAS  C:\Temp\ccoVwn9Y.s 			page 87


2499:Drivers/BSP/Components/vl53l1cb/modules/vl53l1_api_preset_modes.c **** 				ptiming,
2500:Drivers/BSP/Components/vl53l1cb/modules/vl53l1_api_preset_modes.c **** 				pdynamic);
2501:Drivers/BSP/Components/vl53l1cb/modules/vl53l1_api_preset_modes.c **** 
2502:Drivers/BSP/Components/vl53l1cb/modules/vl53l1_api_preset_modes.c **** 
2503:Drivers/BSP/Components/vl53l1cb/modules/vl53l1_api_preset_modes.c **** 
2504:Drivers/BSP/Components/vl53l1cb/modules/vl53l1_api_preset_modes.c **** 		pdynamic->system__sequence_config =
2505:Drivers/BSP/Components/vl53l1cb/modules/vl53l1_api_preset_modes.c **** 				VL53L1_SEQUENCE_VHV_EN |
2506:Drivers/BSP/Components/vl53l1cb/modules/vl53l1_api_preset_modes.c **** 				VL53L1_SEQUENCE_PHASECAL_EN |
2507:Drivers/BSP/Components/vl53l1cb/modules/vl53l1_api_preset_modes.c **** 				VL53L1_SEQUENCE_DSS1_EN |
2508:Drivers/BSP/Components/vl53l1cb/modules/vl53l1_api_preset_modes.c **** 				VL53L1_SEQUENCE_DSS2_EN |
2509:Drivers/BSP/Components/vl53l1cb/modules/vl53l1_api_preset_modes.c **** 				VL53L1_SEQUENCE_MM1_EN  |
2510:Drivers/BSP/Components/vl53l1cb/modules/vl53l1_api_preset_modes.c **** 				VL53L1_SEQUENCE_RANGE_EN;
2511:Drivers/BSP/Components/vl53l1cb/modules/vl53l1_api_preset_modes.c **** 	}
2512:Drivers/BSP/Components/vl53l1cb/modules/vl53l1_api_preset_modes.c **** 
2513:Drivers/BSP/Components/vl53l1cb/modules/vl53l1_api_preset_modes.c **** 	LOG_FUNCTION_END(status);
2514:Drivers/BSP/Components/vl53l1cb/modules/vl53l1_api_preset_modes.c **** 
2515:Drivers/BSP/Components/vl53l1cb/modules/vl53l1_api_preset_modes.c **** 	return status;
2516:Drivers/BSP/Components/vl53l1cb/modules/vl53l1_api_preset_modes.c **** }
2517:Drivers/BSP/Components/vl53l1cb/modules/vl53l1_api_preset_modes.c **** 
2518:Drivers/BSP/Components/vl53l1cb/modules/vl53l1_api_preset_modes.c **** 
2519:Drivers/BSP/Components/vl53l1cb/modules/vl53l1_api_preset_modes.c **** VL53L1_Error VL53L1_preset_mode_histogram_medium_range_mm2(
2520:Drivers/BSP/Components/vl53l1cb/modules/vl53l1_api_preset_modes.c **** 	VL53L1_hist_post_process_config_t  *phistpostprocess,
2521:Drivers/BSP/Components/vl53l1cb/modules/vl53l1_api_preset_modes.c **** 	VL53L1_static_config_t             *pstatic,
2522:Drivers/BSP/Components/vl53l1cb/modules/vl53l1_api_preset_modes.c **** 	VL53L1_histogram_config_t          *phistogram,
2523:Drivers/BSP/Components/vl53l1cb/modules/vl53l1_api_preset_modes.c **** 	VL53L1_general_config_t            *pgeneral,
2524:Drivers/BSP/Components/vl53l1cb/modules/vl53l1_api_preset_modes.c **** 	VL53L1_timing_config_t             *ptiming,
2525:Drivers/BSP/Components/vl53l1cb/modules/vl53l1_api_preset_modes.c **** 	VL53L1_dynamic_config_t            *pdynamic,
2526:Drivers/BSP/Components/vl53l1cb/modules/vl53l1_api_preset_modes.c **** 	VL53L1_system_control_t            *psystem,
2527:Drivers/BSP/Components/vl53l1cb/modules/vl53l1_api_preset_modes.c **** 	VL53L1_tuning_parm_storage_t       *ptuning_parms,
2528:Drivers/BSP/Components/vl53l1cb/modules/vl53l1_api_preset_modes.c **** 	VL53L1_zone_config_t               *pzone_cfg)
2529:Drivers/BSP/Components/vl53l1cb/modules/vl53l1_api_preset_modes.c **** {
2530:Drivers/BSP/Components/vl53l1cb/modules/vl53l1_api_preset_modes.c **** 
2531:Drivers/BSP/Components/vl53l1cb/modules/vl53l1_api_preset_modes.c **** 
2532:Drivers/BSP/Components/vl53l1cb/modules/vl53l1_api_preset_modes.c **** 	VL53L1_Error  status = VL53L1_ERROR_NONE;
2533:Drivers/BSP/Components/vl53l1cb/modules/vl53l1_api_preset_modes.c **** 
2534:Drivers/BSP/Components/vl53l1cb/modules/vl53l1_api_preset_modes.c **** 	LOG_FUNCTION_START("");
2535:Drivers/BSP/Components/vl53l1cb/modules/vl53l1_api_preset_modes.c **** 
2536:Drivers/BSP/Components/vl53l1cb/modules/vl53l1_api_preset_modes.c **** 
2537:Drivers/BSP/Components/vl53l1cb/modules/vl53l1_api_preset_modes.c **** 
2538:Drivers/BSP/Components/vl53l1cb/modules/vl53l1_api_preset_modes.c **** 	status =
2539:Drivers/BSP/Components/vl53l1cb/modules/vl53l1_api_preset_modes.c **** 		VL53L1_preset_mode_histogram_medium_range_mm1(
2540:Drivers/BSP/Components/vl53l1cb/modules/vl53l1_api_preset_modes.c **** 			phistpostprocess,
2541:Drivers/BSP/Components/vl53l1cb/modules/vl53l1_api_preset_modes.c **** 			pstatic,
2542:Drivers/BSP/Components/vl53l1cb/modules/vl53l1_api_preset_modes.c **** 			phistogram,
2543:Drivers/BSP/Components/vl53l1cb/modules/vl53l1_api_preset_modes.c **** 			pgeneral,
2544:Drivers/BSP/Components/vl53l1cb/modules/vl53l1_api_preset_modes.c **** 			ptiming,
2545:Drivers/BSP/Components/vl53l1cb/modules/vl53l1_api_preset_modes.c **** 			pdynamic,
2546:Drivers/BSP/Components/vl53l1cb/modules/vl53l1_api_preset_modes.c **** 			psystem,
2547:Drivers/BSP/Components/vl53l1cb/modules/vl53l1_api_preset_modes.c **** 			ptuning_parms,
2548:Drivers/BSP/Components/vl53l1cb/modules/vl53l1_api_preset_modes.c **** 			pzone_cfg);
2549:Drivers/BSP/Components/vl53l1cb/modules/vl53l1_api_preset_modes.c **** 
2550:Drivers/BSP/Components/vl53l1cb/modules/vl53l1_api_preset_modes.c **** 
2551:Drivers/BSP/Components/vl53l1cb/modules/vl53l1_api_preset_modes.c **** 
2552:Drivers/BSP/Components/vl53l1cb/modules/vl53l1_api_preset_modes.c **** 	if (status == VL53L1_ERROR_NONE) {
2553:Drivers/BSP/Components/vl53l1cb/modules/vl53l1_api_preset_modes.c **** 
2554:Drivers/BSP/Components/vl53l1cb/modules/vl53l1_api_preset_modes.c **** 
2555:Drivers/BSP/Components/vl53l1cb/modules/vl53l1_api_preset_modes.c **** 
ARM GAS  C:\Temp\ccoVwn9Y.s 			page 88


2556:Drivers/BSP/Components/vl53l1cb/modules/vl53l1_api_preset_modes.c **** 		pdynamic->system__sequence_config =
2557:Drivers/BSP/Components/vl53l1cb/modules/vl53l1_api_preset_modes.c **** 				VL53L1_SEQUENCE_VHV_EN |
2558:Drivers/BSP/Components/vl53l1cb/modules/vl53l1_api_preset_modes.c **** 				VL53L1_SEQUENCE_PHASECAL_EN |
2559:Drivers/BSP/Components/vl53l1cb/modules/vl53l1_api_preset_modes.c **** 				VL53L1_SEQUENCE_DSS1_EN |
2560:Drivers/BSP/Components/vl53l1cb/modules/vl53l1_api_preset_modes.c **** 				VL53L1_SEQUENCE_DSS2_EN |
2561:Drivers/BSP/Components/vl53l1cb/modules/vl53l1_api_preset_modes.c **** 				VL53L1_SEQUENCE_MM2_EN |
2562:Drivers/BSP/Components/vl53l1cb/modules/vl53l1_api_preset_modes.c **** 				VL53L1_SEQUENCE_RANGE_EN;
2563:Drivers/BSP/Components/vl53l1cb/modules/vl53l1_api_preset_modes.c **** 	}
2564:Drivers/BSP/Components/vl53l1cb/modules/vl53l1_api_preset_modes.c **** 
2565:Drivers/BSP/Components/vl53l1cb/modules/vl53l1_api_preset_modes.c **** 	LOG_FUNCTION_END(status);
2566:Drivers/BSP/Components/vl53l1cb/modules/vl53l1_api_preset_modes.c **** 
2567:Drivers/BSP/Components/vl53l1cb/modules/vl53l1_api_preset_modes.c **** 	return status;
2568:Drivers/BSP/Components/vl53l1cb/modules/vl53l1_api_preset_modes.c **** }
2569:Drivers/BSP/Components/vl53l1cb/modules/vl53l1_api_preset_modes.c **** 
2570:Drivers/BSP/Components/vl53l1cb/modules/vl53l1_api_preset_modes.c **** 
2571:Drivers/BSP/Components/vl53l1cb/modules/vl53l1_api_preset_modes.c **** VL53L1_Error VL53L1_preset_mode_histogram_short_range(
2572:Drivers/BSP/Components/vl53l1cb/modules/vl53l1_api_preset_modes.c **** 	VL53L1_hist_post_process_config_t  *phistpostprocess,
2573:Drivers/BSP/Components/vl53l1cb/modules/vl53l1_api_preset_modes.c **** 	VL53L1_static_config_t             *pstatic,
2574:Drivers/BSP/Components/vl53l1cb/modules/vl53l1_api_preset_modes.c **** 	VL53L1_histogram_config_t          *phistogram,
2575:Drivers/BSP/Components/vl53l1cb/modules/vl53l1_api_preset_modes.c **** 	VL53L1_general_config_t            *pgeneral,
2576:Drivers/BSP/Components/vl53l1cb/modules/vl53l1_api_preset_modes.c **** 	VL53L1_timing_config_t             *ptiming,
2577:Drivers/BSP/Components/vl53l1cb/modules/vl53l1_api_preset_modes.c **** 	VL53L1_dynamic_config_t            *pdynamic,
2578:Drivers/BSP/Components/vl53l1cb/modules/vl53l1_api_preset_modes.c **** 	VL53L1_system_control_t            *psystem,
2579:Drivers/BSP/Components/vl53l1cb/modules/vl53l1_api_preset_modes.c **** 	VL53L1_tuning_parm_storage_t       *ptuning_parms,
2580:Drivers/BSP/Components/vl53l1cb/modules/vl53l1_api_preset_modes.c **** 	VL53L1_zone_config_t               *pzone_cfg)
2581:Drivers/BSP/Components/vl53l1cb/modules/vl53l1_api_preset_modes.c **** {
2582:Drivers/BSP/Components/vl53l1cb/modules/vl53l1_api_preset_modes.c **** 
2583:Drivers/BSP/Components/vl53l1cb/modules/vl53l1_api_preset_modes.c **** 
2584:Drivers/BSP/Components/vl53l1cb/modules/vl53l1_api_preset_modes.c **** 	VL53L1_Error  status = VL53L1_ERROR_NONE;
2585:Drivers/BSP/Components/vl53l1cb/modules/vl53l1_api_preset_modes.c **** 
2586:Drivers/BSP/Components/vl53l1cb/modules/vl53l1_api_preset_modes.c **** 	LOG_FUNCTION_START("");
2587:Drivers/BSP/Components/vl53l1cb/modules/vl53l1_api_preset_modes.c **** 
2588:Drivers/BSP/Components/vl53l1cb/modules/vl53l1_api_preset_modes.c **** 
2589:Drivers/BSP/Components/vl53l1cb/modules/vl53l1_api_preset_modes.c **** 
2590:Drivers/BSP/Components/vl53l1cb/modules/vl53l1_api_preset_modes.c **** 	status =
2591:Drivers/BSP/Components/vl53l1cb/modules/vl53l1_api_preset_modes.c **** 		VL53L1_preset_mode_histogram_ranging(
2592:Drivers/BSP/Components/vl53l1cb/modules/vl53l1_api_preset_modes.c **** 			phistpostprocess,
2593:Drivers/BSP/Components/vl53l1cb/modules/vl53l1_api_preset_modes.c **** 			pstatic,
2594:Drivers/BSP/Components/vl53l1cb/modules/vl53l1_api_preset_modes.c **** 			phistogram,
2595:Drivers/BSP/Components/vl53l1cb/modules/vl53l1_api_preset_modes.c **** 			pgeneral,
2596:Drivers/BSP/Components/vl53l1cb/modules/vl53l1_api_preset_modes.c **** 			ptiming,
2597:Drivers/BSP/Components/vl53l1cb/modules/vl53l1_api_preset_modes.c **** 			pdynamic,
2598:Drivers/BSP/Components/vl53l1cb/modules/vl53l1_api_preset_modes.c **** 			psystem,
2599:Drivers/BSP/Components/vl53l1cb/modules/vl53l1_api_preset_modes.c **** 			ptuning_parms,
2600:Drivers/BSP/Components/vl53l1cb/modules/vl53l1_api_preset_modes.c **** 			pzone_cfg);
2601:Drivers/BSP/Components/vl53l1cb/modules/vl53l1_api_preset_modes.c **** 
2602:Drivers/BSP/Components/vl53l1cb/modules/vl53l1_api_preset_modes.c **** 
2603:Drivers/BSP/Components/vl53l1cb/modules/vl53l1_api_preset_modes.c **** 
2604:Drivers/BSP/Components/vl53l1cb/modules/vl53l1_api_preset_modes.c **** 	if (status == VL53L1_ERROR_NONE) {
2605:Drivers/BSP/Components/vl53l1cb/modules/vl53l1_api_preset_modes.c **** 
2606:Drivers/BSP/Components/vl53l1cb/modules/vl53l1_api_preset_modes.c **** 
2607:Drivers/BSP/Components/vl53l1cb/modules/vl53l1_api_preset_modes.c **** 
2608:Drivers/BSP/Components/vl53l1cb/modules/vl53l1_api_preset_modes.c **** 
2609:Drivers/BSP/Components/vl53l1cb/modules/vl53l1_api_preset_modes.c **** 
2610:Drivers/BSP/Components/vl53l1cb/modules/vl53l1_api_preset_modes.c **** 		VL53L1_init_histogram_config_structure(
2611:Drivers/BSP/Components/vl53l1cb/modules/vl53l1_api_preset_modes.c **** 				7, 7, 0, 1, 1, 1,
2612:Drivers/BSP/Components/vl53l1cb/modules/vl53l1_api_preset_modes.c **** 				0, 1, 1, 1, 2, 2,
ARM GAS  C:\Temp\ccoVwn9Y.s 			page 89


2613:Drivers/BSP/Components/vl53l1cb/modules/vl53l1_api_preset_modes.c **** 				phistogram);
2614:Drivers/BSP/Components/vl53l1cb/modules/vl53l1_api_preset_modes.c **** 
2615:Drivers/BSP/Components/vl53l1cb/modules/vl53l1_api_preset_modes.c **** 
2616:Drivers/BSP/Components/vl53l1cb/modules/vl53l1_api_preset_modes.c **** 		VL53L1_init_histogram_multizone_config_structure(
2617:Drivers/BSP/Components/vl53l1cb/modules/vl53l1_api_preset_modes.c **** 				7, 7, 0, 1, 1, 1,
2618:Drivers/BSP/Components/vl53l1cb/modules/vl53l1_api_preset_modes.c **** 				0, 1, 1, 1, 2, 2,
2619:Drivers/BSP/Components/vl53l1cb/modules/vl53l1_api_preset_modes.c **** 				&(pzone_cfg->multizone_hist_cfg));
2620:Drivers/BSP/Components/vl53l1cb/modules/vl53l1_api_preset_modes.c **** 
2621:Drivers/BSP/Components/vl53l1cb/modules/vl53l1_api_preset_modes.c **** 
2622:Drivers/BSP/Components/vl53l1cb/modules/vl53l1_api_preset_modes.c **** 
2623:Drivers/BSP/Components/vl53l1cb/modules/vl53l1_api_preset_modes.c **** 		VL53L1_copy_hist_cfg_to_static_cfg(
2624:Drivers/BSP/Components/vl53l1cb/modules/vl53l1_api_preset_modes.c **** 				phistogram,
2625:Drivers/BSP/Components/vl53l1cb/modules/vl53l1_api_preset_modes.c **** 				pstatic,
2626:Drivers/BSP/Components/vl53l1cb/modules/vl53l1_api_preset_modes.c **** 				pgeneral,
2627:Drivers/BSP/Components/vl53l1cb/modules/vl53l1_api_preset_modes.c **** 				ptiming,
2628:Drivers/BSP/Components/vl53l1cb/modules/vl53l1_api_preset_modes.c **** 				pdynamic);
2629:Drivers/BSP/Components/vl53l1cb/modules/vl53l1_api_preset_modes.c **** 
2630:Drivers/BSP/Components/vl53l1cb/modules/vl53l1_api_preset_modes.c **** 
2631:Drivers/BSP/Components/vl53l1cb/modules/vl53l1_api_preset_modes.c **** 
2632:Drivers/BSP/Components/vl53l1cb/modules/vl53l1_api_preset_modes.c **** 		ptiming->range_config__vcsel_period_a = 0x03;
2633:Drivers/BSP/Components/vl53l1cb/modules/vl53l1_api_preset_modes.c **** 		ptiming->range_config__vcsel_period_b = 0x05;
2634:Drivers/BSP/Components/vl53l1cb/modules/vl53l1_api_preset_modes.c **** 
2635:Drivers/BSP/Components/vl53l1cb/modules/vl53l1_api_preset_modes.c **** 
2636:Drivers/BSP/Components/vl53l1cb/modules/vl53l1_api_preset_modes.c **** 
2637:Drivers/BSP/Components/vl53l1cb/modules/vl53l1_api_preset_modes.c **** 		ptiming->mm_config__timeout_macrop_a_hi = 0x00;
2638:Drivers/BSP/Components/vl53l1cb/modules/vl53l1_api_preset_modes.c **** 		ptiming->mm_config__timeout_macrop_a_lo = 0x52;
2639:Drivers/BSP/Components/vl53l1cb/modules/vl53l1_api_preset_modes.c **** 		ptiming->mm_config__timeout_macrop_b_hi = 0x00;
2640:Drivers/BSP/Components/vl53l1cb/modules/vl53l1_api_preset_modes.c **** 		ptiming->mm_config__timeout_macrop_b_lo = 0x37;
2641:Drivers/BSP/Components/vl53l1cb/modules/vl53l1_api_preset_modes.c **** 
2642:Drivers/BSP/Components/vl53l1cb/modules/vl53l1_api_preset_modes.c **** 
2643:Drivers/BSP/Components/vl53l1cb/modules/vl53l1_api_preset_modes.c **** 
2644:Drivers/BSP/Components/vl53l1cb/modules/vl53l1_api_preset_modes.c **** 		ptiming->range_config__timeout_macrop_a_hi = 0x00;
2645:Drivers/BSP/Components/vl53l1cb/modules/vl53l1_api_preset_modes.c **** 		ptiming->range_config__timeout_macrop_a_lo = 0x66;
2646:Drivers/BSP/Components/vl53l1cb/modules/vl53l1_api_preset_modes.c **** 		ptiming->range_config__timeout_macrop_b_hi = 0x00;
2647:Drivers/BSP/Components/vl53l1cb/modules/vl53l1_api_preset_modes.c **** 		ptiming->range_config__timeout_macrop_b_lo = 0x44;
2648:Drivers/BSP/Components/vl53l1cb/modules/vl53l1_api_preset_modes.c **** 
2649:Drivers/BSP/Components/vl53l1cb/modules/vl53l1_api_preset_modes.c **** 
2650:Drivers/BSP/Components/vl53l1cb/modules/vl53l1_api_preset_modes.c **** 
2651:Drivers/BSP/Components/vl53l1cb/modules/vl53l1_api_preset_modes.c **** 		pgeneral->cal_config__vcsel_start = 0x03;
2652:Drivers/BSP/Components/vl53l1cb/modules/vl53l1_api_preset_modes.c **** 
2653:Drivers/BSP/Components/vl53l1cb/modules/vl53l1_api_preset_modes.c **** 
2654:Drivers/BSP/Components/vl53l1cb/modules/vl53l1_api_preset_modes.c **** 
2655:Drivers/BSP/Components/vl53l1cb/modules/vl53l1_api_preset_modes.c **** 		pgeneral->phasecal_config__timeout_macrop = 0xF5;
2656:Drivers/BSP/Components/vl53l1cb/modules/vl53l1_api_preset_modes.c **** 
2657:Drivers/BSP/Components/vl53l1cb/modules/vl53l1_api_preset_modes.c **** 
2658:Drivers/BSP/Components/vl53l1cb/modules/vl53l1_api_preset_modes.c **** 
2659:Drivers/BSP/Components/vl53l1cb/modules/vl53l1_api_preset_modes.c **** 		pdynamic->sd_config__woi_sd0 = 0x03;
2660:Drivers/BSP/Components/vl53l1cb/modules/vl53l1_api_preset_modes.c **** 		pdynamic->sd_config__woi_sd1 = 0x05;
2661:Drivers/BSP/Components/vl53l1cb/modules/vl53l1_api_preset_modes.c **** 		pdynamic->sd_config__initial_phase_sd0            =
2662:Drivers/BSP/Components/vl53l1cb/modules/vl53l1_api_preset_modes.c **** 			ptuning_parms->tp_init_phase_rtn_hist_short;
2663:Drivers/BSP/Components/vl53l1cb/modules/vl53l1_api_preset_modes.c **** 		pdynamic->sd_config__initial_phase_sd1            =
2664:Drivers/BSP/Components/vl53l1cb/modules/vl53l1_api_preset_modes.c **** 			ptuning_parms->tp_init_phase_ref_hist_short;
2665:Drivers/BSP/Components/vl53l1cb/modules/vl53l1_api_preset_modes.c **** 
2666:Drivers/BSP/Components/vl53l1cb/modules/vl53l1_api_preset_modes.c **** 
2667:Drivers/BSP/Components/vl53l1cb/modules/vl53l1_api_preset_modes.c **** 		phistpostprocess->valid_phase_low = 0x08;
2668:Drivers/BSP/Components/vl53l1cb/modules/vl53l1_api_preset_modes.c **** 		phistpostprocess->valid_phase_high = 0x28;
2669:Drivers/BSP/Components/vl53l1cb/modules/vl53l1_api_preset_modes.c **** 
ARM GAS  C:\Temp\ccoVwn9Y.s 			page 90


2670:Drivers/BSP/Components/vl53l1cb/modules/vl53l1_api_preset_modes.c **** 		pdynamic->system__sequence_config =
2671:Drivers/BSP/Components/vl53l1cb/modules/vl53l1_api_preset_modes.c **** 				VL53L1_SEQUENCE_VHV_EN |
2672:Drivers/BSP/Components/vl53l1cb/modules/vl53l1_api_preset_modes.c **** 				VL53L1_SEQUENCE_PHASECAL_EN |
2673:Drivers/BSP/Components/vl53l1cb/modules/vl53l1_api_preset_modes.c **** 				VL53L1_SEQUENCE_DSS1_EN |
2674:Drivers/BSP/Components/vl53l1cb/modules/vl53l1_api_preset_modes.c **** 				VL53L1_SEQUENCE_DSS2_EN |
2675:Drivers/BSP/Components/vl53l1cb/modules/vl53l1_api_preset_modes.c **** 				VL53L1_SEQUENCE_MM1_EN  |
2676:Drivers/BSP/Components/vl53l1cb/modules/vl53l1_api_preset_modes.c **** 
2677:Drivers/BSP/Components/vl53l1cb/modules/vl53l1_api_preset_modes.c **** 				VL53L1_SEQUENCE_RANGE_EN;
2678:Drivers/BSP/Components/vl53l1cb/modules/vl53l1_api_preset_modes.c **** 
2679:Drivers/BSP/Components/vl53l1cb/modules/vl53l1_api_preset_modes.c **** 
2680:Drivers/BSP/Components/vl53l1cb/modules/vl53l1_api_preset_modes.c **** 
2681:Drivers/BSP/Components/vl53l1cb/modules/vl53l1_api_preset_modes.c **** 
2682:Drivers/BSP/Components/vl53l1cb/modules/vl53l1_api_preset_modes.c **** 		psystem->system__mode_start =
2683:Drivers/BSP/Components/vl53l1cb/modules/vl53l1_api_preset_modes.c **** 				VL53L1_DEVICESCHEDULERMODE_HISTOGRAM |
2684:Drivers/BSP/Components/vl53l1cb/modules/vl53l1_api_preset_modes.c **** 				VL53L1_DEVICEREADOUTMODE_DUAL_SD |
2685:Drivers/BSP/Components/vl53l1cb/modules/vl53l1_api_preset_modes.c **** 				VL53L1_DEVICEMEASUREMENTMODE_BACKTOBACK;
2686:Drivers/BSP/Components/vl53l1cb/modules/vl53l1_api_preset_modes.c **** 	}
2687:Drivers/BSP/Components/vl53l1cb/modules/vl53l1_api_preset_modes.c **** 
2688:Drivers/BSP/Components/vl53l1cb/modules/vl53l1_api_preset_modes.c **** 	LOG_FUNCTION_END(status);
2689:Drivers/BSP/Components/vl53l1cb/modules/vl53l1_api_preset_modes.c **** 
2690:Drivers/BSP/Components/vl53l1cb/modules/vl53l1_api_preset_modes.c **** 	return status;
2691:Drivers/BSP/Components/vl53l1cb/modules/vl53l1_api_preset_modes.c **** }
2692:Drivers/BSP/Components/vl53l1cb/modules/vl53l1_api_preset_modes.c **** 
2693:Drivers/BSP/Components/vl53l1cb/modules/vl53l1_api_preset_modes.c **** 
2694:Drivers/BSP/Components/vl53l1cb/modules/vl53l1_api_preset_modes.c **** 
2695:Drivers/BSP/Components/vl53l1cb/modules/vl53l1_api_preset_modes.c **** VL53L1_Error VL53L1_preset_mode_special_histogram_short_range(
2696:Drivers/BSP/Components/vl53l1cb/modules/vl53l1_api_preset_modes.c **** 	VL53L1_hist_post_process_config_t  *phistpostprocess,
2697:Drivers/BSP/Components/vl53l1cb/modules/vl53l1_api_preset_modes.c **** 	VL53L1_static_config_t             *pstatic,
2698:Drivers/BSP/Components/vl53l1cb/modules/vl53l1_api_preset_modes.c **** 	VL53L1_histogram_config_t          *phistogram,
2699:Drivers/BSP/Components/vl53l1cb/modules/vl53l1_api_preset_modes.c **** 	VL53L1_general_config_t            *pgeneral,
2700:Drivers/BSP/Components/vl53l1cb/modules/vl53l1_api_preset_modes.c **** 	VL53L1_timing_config_t             *ptiming,
2701:Drivers/BSP/Components/vl53l1cb/modules/vl53l1_api_preset_modes.c **** 	VL53L1_dynamic_config_t            *pdynamic,
2702:Drivers/BSP/Components/vl53l1cb/modules/vl53l1_api_preset_modes.c **** 	VL53L1_system_control_t            *psystem,
2703:Drivers/BSP/Components/vl53l1cb/modules/vl53l1_api_preset_modes.c **** 	VL53L1_tuning_parm_storage_t       *ptuning_parms,
2704:Drivers/BSP/Components/vl53l1cb/modules/vl53l1_api_preset_modes.c **** 	VL53L1_zone_config_t               *pzone_cfg)
2705:Drivers/BSP/Components/vl53l1cb/modules/vl53l1_api_preset_modes.c **** {
2706:Drivers/BSP/Components/vl53l1cb/modules/vl53l1_api_preset_modes.c **** 
2707:Drivers/BSP/Components/vl53l1cb/modules/vl53l1_api_preset_modes.c **** 
2708:Drivers/BSP/Components/vl53l1cb/modules/vl53l1_api_preset_modes.c **** 	VL53L1_Error  status = VL53L1_ERROR_NONE;
2709:Drivers/BSP/Components/vl53l1cb/modules/vl53l1_api_preset_modes.c **** 
2710:Drivers/BSP/Components/vl53l1cb/modules/vl53l1_api_preset_modes.c **** 	LOG_FUNCTION_START("");
2711:Drivers/BSP/Components/vl53l1cb/modules/vl53l1_api_preset_modes.c **** 
2712:Drivers/BSP/Components/vl53l1cb/modules/vl53l1_api_preset_modes.c **** 
2713:Drivers/BSP/Components/vl53l1cb/modules/vl53l1_api_preset_modes.c **** 
2714:Drivers/BSP/Components/vl53l1cb/modules/vl53l1_api_preset_modes.c **** 	status =
2715:Drivers/BSP/Components/vl53l1cb/modules/vl53l1_api_preset_modes.c **** 		VL53L1_preset_mode_histogram_short_range(
2716:Drivers/BSP/Components/vl53l1cb/modules/vl53l1_api_preset_modes.c **** 			phistpostprocess,
2717:Drivers/BSP/Components/vl53l1cb/modules/vl53l1_api_preset_modes.c **** 			pstatic,
2718:Drivers/BSP/Components/vl53l1cb/modules/vl53l1_api_preset_modes.c **** 			phistogram,
2719:Drivers/BSP/Components/vl53l1cb/modules/vl53l1_api_preset_modes.c **** 			pgeneral,
2720:Drivers/BSP/Components/vl53l1cb/modules/vl53l1_api_preset_modes.c **** 			ptiming,
2721:Drivers/BSP/Components/vl53l1cb/modules/vl53l1_api_preset_modes.c **** 			pdynamic,
2722:Drivers/BSP/Components/vl53l1cb/modules/vl53l1_api_preset_modes.c **** 			psystem,
2723:Drivers/BSP/Components/vl53l1cb/modules/vl53l1_api_preset_modes.c **** 			ptuning_parms,
2724:Drivers/BSP/Components/vl53l1cb/modules/vl53l1_api_preset_modes.c **** 			pzone_cfg);
2725:Drivers/BSP/Components/vl53l1cb/modules/vl53l1_api_preset_modes.c **** 
2726:Drivers/BSP/Components/vl53l1cb/modules/vl53l1_api_preset_modes.c **** 
ARM GAS  C:\Temp\ccoVwn9Y.s 			page 91


2727:Drivers/BSP/Components/vl53l1cb/modules/vl53l1_api_preset_modes.c **** 
2728:Drivers/BSP/Components/vl53l1cb/modules/vl53l1_api_preset_modes.c **** 	if (status == VL53L1_ERROR_NONE) {
2729:Drivers/BSP/Components/vl53l1cb/modules/vl53l1_api_preset_modes.c **** 
2730:Drivers/BSP/Components/vl53l1cb/modules/vl53l1_api_preset_modes.c **** 
2731:Drivers/BSP/Components/vl53l1cb/modules/vl53l1_api_preset_modes.c **** 
2732:Drivers/BSP/Components/vl53l1cb/modules/vl53l1_api_preset_modes.c **** 
2733:Drivers/BSP/Components/vl53l1cb/modules/vl53l1_api_preset_modes.c **** 
2734:Drivers/BSP/Components/vl53l1cb/modules/vl53l1_api_preset_modes.c **** 		VL53L1_init_histogram_config_structure(
2735:Drivers/BSP/Components/vl53l1cb/modules/vl53l1_api_preset_modes.c **** 				7, 7, 0, 0, 1, 1,
2736:Drivers/BSP/Components/vl53l1cb/modules/vl53l1_api_preset_modes.c **** 				0, 0, 0, 1, 1, 1,
2737:Drivers/BSP/Components/vl53l1cb/modules/vl53l1_api_preset_modes.c **** 				phistogram);
2738:Drivers/BSP/Components/vl53l1cb/modules/vl53l1_api_preset_modes.c **** 
2739:Drivers/BSP/Components/vl53l1cb/modules/vl53l1_api_preset_modes.c **** 
2740:Drivers/BSP/Components/vl53l1cb/modules/vl53l1_api_preset_modes.c **** 		VL53L1_init_histogram_multizone_config_structure(
2741:Drivers/BSP/Components/vl53l1cb/modules/vl53l1_api_preset_modes.c **** 				7, 7, 0, 0, 1, 1,
2742:Drivers/BSP/Components/vl53l1cb/modules/vl53l1_api_preset_modes.c **** 				0, 0, 0, 1, 1, 1,
2743:Drivers/BSP/Components/vl53l1cb/modules/vl53l1_api_preset_modes.c **** 				&(pzone_cfg->multizone_hist_cfg));
2744:Drivers/BSP/Components/vl53l1cb/modules/vl53l1_api_preset_modes.c **** 
2745:Drivers/BSP/Components/vl53l1cb/modules/vl53l1_api_preset_modes.c **** 
2746:Drivers/BSP/Components/vl53l1cb/modules/vl53l1_api_preset_modes.c **** 
2747:Drivers/BSP/Components/vl53l1cb/modules/vl53l1_api_preset_modes.c **** 		VL53L1_copy_hist_cfg_to_static_cfg(
2748:Drivers/BSP/Components/vl53l1cb/modules/vl53l1_api_preset_modes.c **** 				phistogram,
2749:Drivers/BSP/Components/vl53l1cb/modules/vl53l1_api_preset_modes.c **** 				pstatic,
2750:Drivers/BSP/Components/vl53l1cb/modules/vl53l1_api_preset_modes.c **** 				pgeneral,
2751:Drivers/BSP/Components/vl53l1cb/modules/vl53l1_api_preset_modes.c **** 				ptiming,
2752:Drivers/BSP/Components/vl53l1cb/modules/vl53l1_api_preset_modes.c **** 				pdynamic);
2753:Drivers/BSP/Components/vl53l1cb/modules/vl53l1_api_preset_modes.c **** 
2754:Drivers/BSP/Components/vl53l1cb/modules/vl53l1_api_preset_modes.c **** 
2755:Drivers/BSP/Components/vl53l1cb/modules/vl53l1_api_preset_modes.c **** 
2756:Drivers/BSP/Components/vl53l1cb/modules/vl53l1_api_preset_modes.c **** 		ptiming->range_config__vcsel_period_a = 0x02;
2757:Drivers/BSP/Components/vl53l1cb/modules/vl53l1_api_preset_modes.c **** 		ptiming->range_config__vcsel_period_b = 0x03;
2758:Drivers/BSP/Components/vl53l1cb/modules/vl53l1_api_preset_modes.c **** 
2759:Drivers/BSP/Components/vl53l1cb/modules/vl53l1_api_preset_modes.c **** 
2760:Drivers/BSP/Components/vl53l1cb/modules/vl53l1_api_preset_modes.c **** 
2761:Drivers/BSP/Components/vl53l1cb/modules/vl53l1_api_preset_modes.c **** 		pgeneral->cal_config__vcsel_start = 0x00;
2762:Drivers/BSP/Components/vl53l1cb/modules/vl53l1_api_preset_modes.c **** 
2763:Drivers/BSP/Components/vl53l1cb/modules/vl53l1_api_preset_modes.c **** 
2764:Drivers/BSP/Components/vl53l1cb/modules/vl53l1_api_preset_modes.c **** 
2765:Drivers/BSP/Components/vl53l1cb/modules/vl53l1_api_preset_modes.c **** 		pgeneral->phasecal_config__target = 0x31;
2766:Drivers/BSP/Components/vl53l1cb/modules/vl53l1_api_preset_modes.c **** 
2767:Drivers/BSP/Components/vl53l1cb/modules/vl53l1_api_preset_modes.c **** 
2768:Drivers/BSP/Components/vl53l1cb/modules/vl53l1_api_preset_modes.c **** 
2769:Drivers/BSP/Components/vl53l1cb/modules/vl53l1_api_preset_modes.c **** 		pdynamic->sd_config__woi_sd0 = 0x02;
2770:Drivers/BSP/Components/vl53l1cb/modules/vl53l1_api_preset_modes.c **** 		pdynamic->sd_config__woi_sd1 = 0x03;
2771:Drivers/BSP/Components/vl53l1cb/modules/vl53l1_api_preset_modes.c **** 		pdynamic->sd_config__initial_phase_sd0            =
2772:Drivers/BSP/Components/vl53l1cb/modules/vl53l1_api_preset_modes.c **** 			ptuning_parms->tp_init_phase_rtn_hist_short;
2773:Drivers/BSP/Components/vl53l1cb/modules/vl53l1_api_preset_modes.c **** 		pdynamic->sd_config__initial_phase_sd1            =
2774:Drivers/BSP/Components/vl53l1cb/modules/vl53l1_api_preset_modes.c **** 			ptuning_parms->tp_init_phase_ref_hist_short;
2775:Drivers/BSP/Components/vl53l1cb/modules/vl53l1_api_preset_modes.c **** 
2776:Drivers/BSP/Components/vl53l1cb/modules/vl53l1_api_preset_modes.c **** 
2777:Drivers/BSP/Components/vl53l1cb/modules/vl53l1_api_preset_modes.c **** 
2778:Drivers/BSP/Components/vl53l1cb/modules/vl53l1_api_preset_modes.c **** 		phistpostprocess->valid_phase_low = 0x10;
2779:Drivers/BSP/Components/vl53l1cb/modules/vl53l1_api_preset_modes.c **** 		phistpostprocess->valid_phase_high = 0x18;
2780:Drivers/BSP/Components/vl53l1cb/modules/vl53l1_api_preset_modes.c **** 
2781:Drivers/BSP/Components/vl53l1cb/modules/vl53l1_api_preset_modes.c **** 	}
2782:Drivers/BSP/Components/vl53l1cb/modules/vl53l1_api_preset_modes.c **** 
2783:Drivers/BSP/Components/vl53l1cb/modules/vl53l1_api_preset_modes.c **** 	LOG_FUNCTION_END(status);
ARM GAS  C:\Temp\ccoVwn9Y.s 			page 92


2784:Drivers/BSP/Components/vl53l1cb/modules/vl53l1_api_preset_modes.c **** 
2785:Drivers/BSP/Components/vl53l1cb/modules/vl53l1_api_preset_modes.c **** 	return status;
2786:Drivers/BSP/Components/vl53l1cb/modules/vl53l1_api_preset_modes.c **** }
2787:Drivers/BSP/Components/vl53l1cb/modules/vl53l1_api_preset_modes.c **** 
2788:Drivers/BSP/Components/vl53l1cb/modules/vl53l1_api_preset_modes.c **** 
2789:Drivers/BSP/Components/vl53l1cb/modules/vl53l1_api_preset_modes.c **** 
2790:Drivers/BSP/Components/vl53l1cb/modules/vl53l1_api_preset_modes.c **** VL53L1_Error VL53L1_preset_mode_histogram_short_range_mm1(
2791:Drivers/BSP/Components/vl53l1cb/modules/vl53l1_api_preset_modes.c **** 	VL53L1_hist_post_process_config_t  *phistpostprocess,
2792:Drivers/BSP/Components/vl53l1cb/modules/vl53l1_api_preset_modes.c **** 	VL53L1_static_config_t             *pstatic,
2793:Drivers/BSP/Components/vl53l1cb/modules/vl53l1_api_preset_modes.c **** 	VL53L1_histogram_config_t          *phistogram,
2794:Drivers/BSP/Components/vl53l1cb/modules/vl53l1_api_preset_modes.c **** 	VL53L1_general_config_t            *pgeneral,
2795:Drivers/BSP/Components/vl53l1cb/modules/vl53l1_api_preset_modes.c **** 	VL53L1_timing_config_t             *ptiming,
2796:Drivers/BSP/Components/vl53l1cb/modules/vl53l1_api_preset_modes.c **** 	VL53L1_dynamic_config_t            *pdynamic,
2797:Drivers/BSP/Components/vl53l1cb/modules/vl53l1_api_preset_modes.c **** 	VL53L1_system_control_t            *psystem,
2798:Drivers/BSP/Components/vl53l1cb/modules/vl53l1_api_preset_modes.c **** 	VL53L1_tuning_parm_storage_t       *ptuning_parms,
2799:Drivers/BSP/Components/vl53l1cb/modules/vl53l1_api_preset_modes.c **** 	VL53L1_zone_config_t               *pzone_cfg)
2800:Drivers/BSP/Components/vl53l1cb/modules/vl53l1_api_preset_modes.c **** {
2801:Drivers/BSP/Components/vl53l1cb/modules/vl53l1_api_preset_modes.c **** 
2802:Drivers/BSP/Components/vl53l1cb/modules/vl53l1_api_preset_modes.c **** 
2803:Drivers/BSP/Components/vl53l1cb/modules/vl53l1_api_preset_modes.c **** 	VL53L1_Error  status = VL53L1_ERROR_NONE;
2804:Drivers/BSP/Components/vl53l1cb/modules/vl53l1_api_preset_modes.c **** 
2805:Drivers/BSP/Components/vl53l1cb/modules/vl53l1_api_preset_modes.c **** 	LOG_FUNCTION_START("");
2806:Drivers/BSP/Components/vl53l1cb/modules/vl53l1_api_preset_modes.c **** 
2807:Drivers/BSP/Components/vl53l1cb/modules/vl53l1_api_preset_modes.c **** 
2808:Drivers/BSP/Components/vl53l1cb/modules/vl53l1_api_preset_modes.c **** 
2809:Drivers/BSP/Components/vl53l1cb/modules/vl53l1_api_preset_modes.c **** 	status =
2810:Drivers/BSP/Components/vl53l1cb/modules/vl53l1_api_preset_modes.c **** 		VL53L1_preset_mode_histogram_short_range(
2811:Drivers/BSP/Components/vl53l1cb/modules/vl53l1_api_preset_modes.c **** 			phistpostprocess,
2812:Drivers/BSP/Components/vl53l1cb/modules/vl53l1_api_preset_modes.c **** 				pstatic,
2813:Drivers/BSP/Components/vl53l1cb/modules/vl53l1_api_preset_modes.c **** 				phistogram,
2814:Drivers/BSP/Components/vl53l1cb/modules/vl53l1_api_preset_modes.c **** 				pgeneral,
2815:Drivers/BSP/Components/vl53l1cb/modules/vl53l1_api_preset_modes.c **** 				ptiming,
2816:Drivers/BSP/Components/vl53l1cb/modules/vl53l1_api_preset_modes.c **** 				pdynamic,
2817:Drivers/BSP/Components/vl53l1cb/modules/vl53l1_api_preset_modes.c **** 				psystem,
2818:Drivers/BSP/Components/vl53l1cb/modules/vl53l1_api_preset_modes.c **** 				ptuning_parms,
2819:Drivers/BSP/Components/vl53l1cb/modules/vl53l1_api_preset_modes.c **** 				pzone_cfg);
2820:Drivers/BSP/Components/vl53l1cb/modules/vl53l1_api_preset_modes.c **** 
2821:Drivers/BSP/Components/vl53l1cb/modules/vl53l1_api_preset_modes.c **** 
2822:Drivers/BSP/Components/vl53l1cb/modules/vl53l1_api_preset_modes.c **** 
2823:Drivers/BSP/Components/vl53l1cb/modules/vl53l1_api_preset_modes.c **** 	if (status == VL53L1_ERROR_NONE) {
2824:Drivers/BSP/Components/vl53l1cb/modules/vl53l1_api_preset_modes.c **** 
2825:Drivers/BSP/Components/vl53l1cb/modules/vl53l1_api_preset_modes.c **** 
2826:Drivers/BSP/Components/vl53l1cb/modules/vl53l1_api_preset_modes.c **** 
2827:Drivers/BSP/Components/vl53l1cb/modules/vl53l1_api_preset_modes.c **** 
2828:Drivers/BSP/Components/vl53l1cb/modules/vl53l1_api_preset_modes.c **** 
2829:Drivers/BSP/Components/vl53l1cb/modules/vl53l1_api_preset_modes.c **** 		VL53L1_init_histogram_config_structure(
2830:Drivers/BSP/Components/vl53l1cb/modules/vl53l1_api_preset_modes.c **** 				  7,   7, 0, 1, 1, 1,
2831:Drivers/BSP/Components/vl53l1cb/modules/vl53l1_api_preset_modes.c **** 				8+0, 8+1, 1, 1, 2, 2,
2832:Drivers/BSP/Components/vl53l1cb/modules/vl53l1_api_preset_modes.c **** 				phistogram);
2833:Drivers/BSP/Components/vl53l1cb/modules/vl53l1_api_preset_modes.c **** 
2834:Drivers/BSP/Components/vl53l1cb/modules/vl53l1_api_preset_modes.c **** 
2835:Drivers/BSP/Components/vl53l1cb/modules/vl53l1_api_preset_modes.c **** 		VL53L1_init_histogram_multizone_config_structure(
2836:Drivers/BSP/Components/vl53l1cb/modules/vl53l1_api_preset_modes.c **** 				  7,   7, 0, 1, 1, 1,
2837:Drivers/BSP/Components/vl53l1cb/modules/vl53l1_api_preset_modes.c **** 				8+0, 8+1, 1, 1, 2, 2,
2838:Drivers/BSP/Components/vl53l1cb/modules/vl53l1_api_preset_modes.c **** 				&(pzone_cfg->multizone_hist_cfg));
2839:Drivers/BSP/Components/vl53l1cb/modules/vl53l1_api_preset_modes.c **** 
2840:Drivers/BSP/Components/vl53l1cb/modules/vl53l1_api_preset_modes.c **** 
ARM GAS  C:\Temp\ccoVwn9Y.s 			page 93


2841:Drivers/BSP/Components/vl53l1cb/modules/vl53l1_api_preset_modes.c **** 
2842:Drivers/BSP/Components/vl53l1cb/modules/vl53l1_api_preset_modes.c **** 		VL53L1_copy_hist_cfg_to_static_cfg(
2843:Drivers/BSP/Components/vl53l1cb/modules/vl53l1_api_preset_modes.c **** 				phistogram,
2844:Drivers/BSP/Components/vl53l1cb/modules/vl53l1_api_preset_modes.c **** 				pstatic,
2845:Drivers/BSP/Components/vl53l1cb/modules/vl53l1_api_preset_modes.c **** 				pgeneral,
2846:Drivers/BSP/Components/vl53l1cb/modules/vl53l1_api_preset_modes.c **** 				ptiming,
2847:Drivers/BSP/Components/vl53l1cb/modules/vl53l1_api_preset_modes.c **** 				pdynamic);
2848:Drivers/BSP/Components/vl53l1cb/modules/vl53l1_api_preset_modes.c **** 
2849:Drivers/BSP/Components/vl53l1cb/modules/vl53l1_api_preset_modes.c **** 
2850:Drivers/BSP/Components/vl53l1cb/modules/vl53l1_api_preset_modes.c **** 
2851:Drivers/BSP/Components/vl53l1cb/modules/vl53l1_api_preset_modes.c **** 		pdynamic->system__sequence_config =
2852:Drivers/BSP/Components/vl53l1cb/modules/vl53l1_api_preset_modes.c **** 				VL53L1_SEQUENCE_VHV_EN |
2853:Drivers/BSP/Components/vl53l1cb/modules/vl53l1_api_preset_modes.c **** 				VL53L1_SEQUENCE_PHASECAL_EN |
2854:Drivers/BSP/Components/vl53l1cb/modules/vl53l1_api_preset_modes.c **** 				VL53L1_SEQUENCE_DSS1_EN |
2855:Drivers/BSP/Components/vl53l1cb/modules/vl53l1_api_preset_modes.c **** 				VL53L1_SEQUENCE_DSS2_EN |
2856:Drivers/BSP/Components/vl53l1cb/modules/vl53l1_api_preset_modes.c **** 				VL53L1_SEQUENCE_MM1_EN  |
2857:Drivers/BSP/Components/vl53l1cb/modules/vl53l1_api_preset_modes.c **** 				VL53L1_SEQUENCE_RANGE_EN;
2858:Drivers/BSP/Components/vl53l1cb/modules/vl53l1_api_preset_modes.c **** 
2859:Drivers/BSP/Components/vl53l1cb/modules/vl53l1_api_preset_modes.c **** 	}
2860:Drivers/BSP/Components/vl53l1cb/modules/vl53l1_api_preset_modes.c **** 
2861:Drivers/BSP/Components/vl53l1cb/modules/vl53l1_api_preset_modes.c **** 	LOG_FUNCTION_END(status);
2862:Drivers/BSP/Components/vl53l1cb/modules/vl53l1_api_preset_modes.c **** 
2863:Drivers/BSP/Components/vl53l1cb/modules/vl53l1_api_preset_modes.c **** 	return status;
2864:Drivers/BSP/Components/vl53l1cb/modules/vl53l1_api_preset_modes.c **** }
2865:Drivers/BSP/Components/vl53l1cb/modules/vl53l1_api_preset_modes.c **** 
2866:Drivers/BSP/Components/vl53l1cb/modules/vl53l1_api_preset_modes.c **** 
2867:Drivers/BSP/Components/vl53l1cb/modules/vl53l1_api_preset_modes.c **** VL53L1_Error VL53L1_preset_mode_histogram_short_range_mm2(
2868:Drivers/BSP/Components/vl53l1cb/modules/vl53l1_api_preset_modes.c **** 	VL53L1_hist_post_process_config_t  *phistpostprocess,
2869:Drivers/BSP/Components/vl53l1cb/modules/vl53l1_api_preset_modes.c **** 	VL53L1_static_config_t             *pstatic,
2870:Drivers/BSP/Components/vl53l1cb/modules/vl53l1_api_preset_modes.c **** 	VL53L1_histogram_config_t          *phistogram,
2871:Drivers/BSP/Components/vl53l1cb/modules/vl53l1_api_preset_modes.c **** 	VL53L1_general_config_t            *pgeneral,
2872:Drivers/BSP/Components/vl53l1cb/modules/vl53l1_api_preset_modes.c **** 	VL53L1_timing_config_t             *ptiming,
2873:Drivers/BSP/Components/vl53l1cb/modules/vl53l1_api_preset_modes.c **** 	VL53L1_dynamic_config_t            *pdynamic,
2874:Drivers/BSP/Components/vl53l1cb/modules/vl53l1_api_preset_modes.c **** 	VL53L1_system_control_t            *psystem,
2875:Drivers/BSP/Components/vl53l1cb/modules/vl53l1_api_preset_modes.c **** 	VL53L1_tuning_parm_storage_t       *ptuning_parms,
2876:Drivers/BSP/Components/vl53l1cb/modules/vl53l1_api_preset_modes.c **** 	VL53L1_zone_config_t               *pzone_cfg)
2877:Drivers/BSP/Components/vl53l1cb/modules/vl53l1_api_preset_modes.c **** {
2878:Drivers/BSP/Components/vl53l1cb/modules/vl53l1_api_preset_modes.c **** 
2879:Drivers/BSP/Components/vl53l1cb/modules/vl53l1_api_preset_modes.c **** 
2880:Drivers/BSP/Components/vl53l1cb/modules/vl53l1_api_preset_modes.c **** 	VL53L1_Error  status = VL53L1_ERROR_NONE;
2881:Drivers/BSP/Components/vl53l1cb/modules/vl53l1_api_preset_modes.c **** 
2882:Drivers/BSP/Components/vl53l1cb/modules/vl53l1_api_preset_modes.c **** 	LOG_FUNCTION_START("");
2883:Drivers/BSP/Components/vl53l1cb/modules/vl53l1_api_preset_modes.c **** 
2884:Drivers/BSP/Components/vl53l1cb/modules/vl53l1_api_preset_modes.c **** 
2885:Drivers/BSP/Components/vl53l1cb/modules/vl53l1_api_preset_modes.c **** 
2886:Drivers/BSP/Components/vl53l1cb/modules/vl53l1_api_preset_modes.c **** 	status =
2887:Drivers/BSP/Components/vl53l1cb/modules/vl53l1_api_preset_modes.c **** 		VL53L1_preset_mode_histogram_short_range_mm1(
2888:Drivers/BSP/Components/vl53l1cb/modules/vl53l1_api_preset_modes.c **** 			phistpostprocess,
2889:Drivers/BSP/Components/vl53l1cb/modules/vl53l1_api_preset_modes.c **** 			pstatic,
2890:Drivers/BSP/Components/vl53l1cb/modules/vl53l1_api_preset_modes.c **** 			phistogram,
2891:Drivers/BSP/Components/vl53l1cb/modules/vl53l1_api_preset_modes.c **** 			pgeneral,
2892:Drivers/BSP/Components/vl53l1cb/modules/vl53l1_api_preset_modes.c **** 			ptiming,
2893:Drivers/BSP/Components/vl53l1cb/modules/vl53l1_api_preset_modes.c **** 			pdynamic,
2894:Drivers/BSP/Components/vl53l1cb/modules/vl53l1_api_preset_modes.c **** 			psystem,
2895:Drivers/BSP/Components/vl53l1cb/modules/vl53l1_api_preset_modes.c **** 			ptuning_parms,
2896:Drivers/BSP/Components/vl53l1cb/modules/vl53l1_api_preset_modes.c **** 			pzone_cfg);
2897:Drivers/BSP/Components/vl53l1cb/modules/vl53l1_api_preset_modes.c **** 
ARM GAS  C:\Temp\ccoVwn9Y.s 			page 94


2898:Drivers/BSP/Components/vl53l1cb/modules/vl53l1_api_preset_modes.c **** 
2899:Drivers/BSP/Components/vl53l1cb/modules/vl53l1_api_preset_modes.c **** 
2900:Drivers/BSP/Components/vl53l1cb/modules/vl53l1_api_preset_modes.c **** 	if (status == VL53L1_ERROR_NONE) {
2901:Drivers/BSP/Components/vl53l1cb/modules/vl53l1_api_preset_modes.c **** 
2902:Drivers/BSP/Components/vl53l1cb/modules/vl53l1_api_preset_modes.c **** 
2903:Drivers/BSP/Components/vl53l1cb/modules/vl53l1_api_preset_modes.c **** 
2904:Drivers/BSP/Components/vl53l1cb/modules/vl53l1_api_preset_modes.c **** 		pdynamic->system__sequence_config =
2905:Drivers/BSP/Components/vl53l1cb/modules/vl53l1_api_preset_modes.c **** 				VL53L1_SEQUENCE_VHV_EN |
2906:Drivers/BSP/Components/vl53l1cb/modules/vl53l1_api_preset_modes.c **** 				VL53L1_SEQUENCE_PHASECAL_EN |
2907:Drivers/BSP/Components/vl53l1cb/modules/vl53l1_api_preset_modes.c **** 				VL53L1_SEQUENCE_DSS1_EN |
2908:Drivers/BSP/Components/vl53l1cb/modules/vl53l1_api_preset_modes.c **** 				VL53L1_SEQUENCE_DSS2_EN |
2909:Drivers/BSP/Components/vl53l1cb/modules/vl53l1_api_preset_modes.c **** 				VL53L1_SEQUENCE_MM2_EN |
2910:Drivers/BSP/Components/vl53l1cb/modules/vl53l1_api_preset_modes.c **** 				VL53L1_SEQUENCE_RANGE_EN;
2911:Drivers/BSP/Components/vl53l1cb/modules/vl53l1_api_preset_modes.c **** 	}
2912:Drivers/BSP/Components/vl53l1cb/modules/vl53l1_api_preset_modes.c **** 
2913:Drivers/BSP/Components/vl53l1cb/modules/vl53l1_api_preset_modes.c **** 	LOG_FUNCTION_END(status);
2914:Drivers/BSP/Components/vl53l1cb/modules/vl53l1_api_preset_modes.c **** 
2915:Drivers/BSP/Components/vl53l1cb/modules/vl53l1_api_preset_modes.c **** 	return status;
2916:Drivers/BSP/Components/vl53l1cb/modules/vl53l1_api_preset_modes.c **** }
2917:Drivers/BSP/Components/vl53l1cb/modules/vl53l1_api_preset_modes.c **** 
2918:Drivers/BSP/Components/vl53l1cb/modules/vl53l1_api_preset_modes.c **** 
2919:Drivers/BSP/Components/vl53l1cb/modules/vl53l1_api_preset_modes.c **** 
2920:Drivers/BSP/Components/vl53l1cb/modules/vl53l1_api_preset_modes.c **** VL53L1_Error VL53L1_preset_mode_histogram_characterisation(
2921:Drivers/BSP/Components/vl53l1cb/modules/vl53l1_api_preset_modes.c **** 	VL53L1_hist_post_process_config_t  *phistpostprocess,
2922:Drivers/BSP/Components/vl53l1cb/modules/vl53l1_api_preset_modes.c **** 	VL53L1_static_config_t             *pstatic,
2923:Drivers/BSP/Components/vl53l1cb/modules/vl53l1_api_preset_modes.c **** 	VL53L1_histogram_config_t          *phistogram,
2924:Drivers/BSP/Components/vl53l1cb/modules/vl53l1_api_preset_modes.c **** 	VL53L1_general_config_t            *pgeneral,
2925:Drivers/BSP/Components/vl53l1cb/modules/vl53l1_api_preset_modes.c **** 	VL53L1_timing_config_t             *ptiming,
2926:Drivers/BSP/Components/vl53l1cb/modules/vl53l1_api_preset_modes.c **** 	VL53L1_dynamic_config_t            *pdynamic,
2927:Drivers/BSP/Components/vl53l1cb/modules/vl53l1_api_preset_modes.c **** 	VL53L1_system_control_t            *psystem,
2928:Drivers/BSP/Components/vl53l1cb/modules/vl53l1_api_preset_modes.c **** 	VL53L1_tuning_parm_storage_t       *ptuning_parms,
2929:Drivers/BSP/Components/vl53l1cb/modules/vl53l1_api_preset_modes.c **** 	VL53L1_zone_config_t               *pzone_cfg)
2930:Drivers/BSP/Components/vl53l1cb/modules/vl53l1_api_preset_modes.c **** {
2931:Drivers/BSP/Components/vl53l1cb/modules/vl53l1_api_preset_modes.c **** 
2932:Drivers/BSP/Components/vl53l1cb/modules/vl53l1_api_preset_modes.c **** 
2933:Drivers/BSP/Components/vl53l1cb/modules/vl53l1_api_preset_modes.c **** 	VL53L1_Error  status = VL53L1_ERROR_NONE;
2934:Drivers/BSP/Components/vl53l1cb/modules/vl53l1_api_preset_modes.c **** 
2935:Drivers/BSP/Components/vl53l1cb/modules/vl53l1_api_preset_modes.c **** 	LOG_FUNCTION_START("");
2936:Drivers/BSP/Components/vl53l1cb/modules/vl53l1_api_preset_modes.c **** 
2937:Drivers/BSP/Components/vl53l1cb/modules/vl53l1_api_preset_modes.c **** 
2938:Drivers/BSP/Components/vl53l1cb/modules/vl53l1_api_preset_modes.c **** 
2939:Drivers/BSP/Components/vl53l1cb/modules/vl53l1_api_preset_modes.c **** 	status =
2940:Drivers/BSP/Components/vl53l1cb/modules/vl53l1_api_preset_modes.c **** 		VL53L1_preset_mode_histogram_ranging(
2941:Drivers/BSP/Components/vl53l1cb/modules/vl53l1_api_preset_modes.c **** 			phistpostprocess,
2942:Drivers/BSP/Components/vl53l1cb/modules/vl53l1_api_preset_modes.c **** 			pstatic,
2943:Drivers/BSP/Components/vl53l1cb/modules/vl53l1_api_preset_modes.c **** 			phistogram,
2944:Drivers/BSP/Components/vl53l1cb/modules/vl53l1_api_preset_modes.c **** 			pgeneral,
2945:Drivers/BSP/Components/vl53l1cb/modules/vl53l1_api_preset_modes.c **** 			ptiming,
2946:Drivers/BSP/Components/vl53l1cb/modules/vl53l1_api_preset_modes.c **** 			pdynamic,
2947:Drivers/BSP/Components/vl53l1cb/modules/vl53l1_api_preset_modes.c **** 			psystem,
2948:Drivers/BSP/Components/vl53l1cb/modules/vl53l1_api_preset_modes.c **** 			ptuning_parms,
2949:Drivers/BSP/Components/vl53l1cb/modules/vl53l1_api_preset_modes.c **** 			pzone_cfg);
2950:Drivers/BSP/Components/vl53l1cb/modules/vl53l1_api_preset_modes.c **** 
2951:Drivers/BSP/Components/vl53l1cb/modules/vl53l1_api_preset_modes.c **** 
2952:Drivers/BSP/Components/vl53l1cb/modules/vl53l1_api_preset_modes.c **** 
2953:Drivers/BSP/Components/vl53l1cb/modules/vl53l1_api_preset_modes.c **** 	if (status == VL53L1_ERROR_NONE) {
2954:Drivers/BSP/Components/vl53l1cb/modules/vl53l1_api_preset_modes.c **** 
ARM GAS  C:\Temp\ccoVwn9Y.s 			page 95


2955:Drivers/BSP/Components/vl53l1cb/modules/vl53l1_api_preset_modes.c **** 
2956:Drivers/BSP/Components/vl53l1cb/modules/vl53l1_api_preset_modes.c **** 
2957:Drivers/BSP/Components/vl53l1cb/modules/vl53l1_api_preset_modes.c **** 		pstatic->debug__ctrl = 0x01;
2958:Drivers/BSP/Components/vl53l1cb/modules/vl53l1_api_preset_modes.c **** 		psystem->power_management__go1_power_force = 0x01;
2959:Drivers/BSP/Components/vl53l1cb/modules/vl53l1_api_preset_modes.c **** 
2960:Drivers/BSP/Components/vl53l1cb/modules/vl53l1_api_preset_modes.c **** 		pdynamic->system__sequence_config               =
2961:Drivers/BSP/Components/vl53l1cb/modules/vl53l1_api_preset_modes.c **** 				VL53L1_SEQUENCE_VHV_EN |
2962:Drivers/BSP/Components/vl53l1cb/modules/vl53l1_api_preset_modes.c **** 				VL53L1_SEQUENCE_PHASECAL_EN |
2963:Drivers/BSP/Components/vl53l1cb/modules/vl53l1_api_preset_modes.c **** 				VL53L1_SEQUENCE_RANGE_EN;
2964:Drivers/BSP/Components/vl53l1cb/modules/vl53l1_api_preset_modes.c **** 
2965:Drivers/BSP/Components/vl53l1cb/modules/vl53l1_api_preset_modes.c **** 		psystem->system__mode_start                     =
2966:Drivers/BSP/Components/vl53l1cb/modules/vl53l1_api_preset_modes.c **** 				VL53L1_DEVICESCHEDULERMODE_HISTOGRAM    |
2967:Drivers/BSP/Components/vl53l1cb/modules/vl53l1_api_preset_modes.c **** 				VL53L1_DEVICEREADOUTMODE_SPLIT_MANUAL   |
2968:Drivers/BSP/Components/vl53l1cb/modules/vl53l1_api_preset_modes.c **** 				VL53L1_DEVICEMEASUREMENTMODE_BACKTOBACK;
2969:Drivers/BSP/Components/vl53l1cb/modules/vl53l1_api_preset_modes.c **** 	}
2970:Drivers/BSP/Components/vl53l1cb/modules/vl53l1_api_preset_modes.c **** 
2971:Drivers/BSP/Components/vl53l1cb/modules/vl53l1_api_preset_modes.c **** 	LOG_FUNCTION_END(status);
2972:Drivers/BSP/Components/vl53l1cb/modules/vl53l1_api_preset_modes.c **** 
2973:Drivers/BSP/Components/vl53l1cb/modules/vl53l1_api_preset_modes.c **** 	return status;
2974:Drivers/BSP/Components/vl53l1cb/modules/vl53l1_api_preset_modes.c **** }
2975:Drivers/BSP/Components/vl53l1cb/modules/vl53l1_api_preset_modes.c **** 
2976:Drivers/BSP/Components/vl53l1cb/modules/vl53l1_api_preset_modes.c **** 
2977:Drivers/BSP/Components/vl53l1cb/modules/vl53l1_api_preset_modes.c **** VL53L1_Error VL53L1_preset_mode_histogram_xtalk_planar(
2978:Drivers/BSP/Components/vl53l1cb/modules/vl53l1_api_preset_modes.c **** 	VL53L1_hist_post_process_config_t  *phistpostprocess,
2979:Drivers/BSP/Components/vl53l1cb/modules/vl53l1_api_preset_modes.c **** 	VL53L1_static_config_t             *pstatic,
2980:Drivers/BSP/Components/vl53l1cb/modules/vl53l1_api_preset_modes.c **** 	VL53L1_histogram_config_t          *phistogram,
2981:Drivers/BSP/Components/vl53l1cb/modules/vl53l1_api_preset_modes.c **** 	VL53L1_general_config_t            *pgeneral,
2982:Drivers/BSP/Components/vl53l1cb/modules/vl53l1_api_preset_modes.c **** 	VL53L1_timing_config_t             *ptiming,
2983:Drivers/BSP/Components/vl53l1cb/modules/vl53l1_api_preset_modes.c **** 	VL53L1_dynamic_config_t            *pdynamic,
2984:Drivers/BSP/Components/vl53l1cb/modules/vl53l1_api_preset_modes.c **** 	VL53L1_system_control_t            *psystem,
2985:Drivers/BSP/Components/vl53l1cb/modules/vl53l1_api_preset_modes.c **** 	VL53L1_tuning_parm_storage_t       *ptuning_parms,
2986:Drivers/BSP/Components/vl53l1cb/modules/vl53l1_api_preset_modes.c **** 	VL53L1_zone_config_t               *pzone_cfg)
2987:Drivers/BSP/Components/vl53l1cb/modules/vl53l1_api_preset_modes.c **** {
2988:Drivers/BSP/Components/vl53l1cb/modules/vl53l1_api_preset_modes.c **** 
2989:Drivers/BSP/Components/vl53l1cb/modules/vl53l1_api_preset_modes.c **** 
2990:Drivers/BSP/Components/vl53l1cb/modules/vl53l1_api_preset_modes.c **** 	VL53L1_Error  status = VL53L1_ERROR_NONE;
2991:Drivers/BSP/Components/vl53l1cb/modules/vl53l1_api_preset_modes.c **** 
2992:Drivers/BSP/Components/vl53l1cb/modules/vl53l1_api_preset_modes.c **** 	LOG_FUNCTION_START("");
2993:Drivers/BSP/Components/vl53l1cb/modules/vl53l1_api_preset_modes.c **** 
2994:Drivers/BSP/Components/vl53l1cb/modules/vl53l1_api_preset_modes.c **** 
2995:Drivers/BSP/Components/vl53l1cb/modules/vl53l1_api_preset_modes.c **** 
2996:Drivers/BSP/Components/vl53l1cb/modules/vl53l1_api_preset_modes.c **** 	status =
2997:Drivers/BSP/Components/vl53l1cb/modules/vl53l1_api_preset_modes.c **** 		VL53L1_preset_mode_histogram_multizone_long_range(
2998:Drivers/BSP/Components/vl53l1cb/modules/vl53l1_api_preset_modes.c **** 			phistpostprocess,
2999:Drivers/BSP/Components/vl53l1cb/modules/vl53l1_api_preset_modes.c **** 			pstatic,
3000:Drivers/BSP/Components/vl53l1cb/modules/vl53l1_api_preset_modes.c **** 			phistogram,
3001:Drivers/BSP/Components/vl53l1cb/modules/vl53l1_api_preset_modes.c **** 			pgeneral,
3002:Drivers/BSP/Components/vl53l1cb/modules/vl53l1_api_preset_modes.c **** 			ptiming,
3003:Drivers/BSP/Components/vl53l1cb/modules/vl53l1_api_preset_modes.c **** 			pdynamic,
3004:Drivers/BSP/Components/vl53l1cb/modules/vl53l1_api_preset_modes.c **** 			psystem,
3005:Drivers/BSP/Components/vl53l1cb/modules/vl53l1_api_preset_modes.c **** 			ptuning_parms,
3006:Drivers/BSP/Components/vl53l1cb/modules/vl53l1_api_preset_modes.c **** 			pzone_cfg);
3007:Drivers/BSP/Components/vl53l1cb/modules/vl53l1_api_preset_modes.c **** 
3008:Drivers/BSP/Components/vl53l1cb/modules/vl53l1_api_preset_modes.c **** 
3009:Drivers/BSP/Components/vl53l1cb/modules/vl53l1_api_preset_modes.c **** 
3010:Drivers/BSP/Components/vl53l1cb/modules/vl53l1_api_preset_modes.c **** 	if (status == VL53L1_ERROR_NONE) {
3011:Drivers/BSP/Components/vl53l1cb/modules/vl53l1_api_preset_modes.c **** 
ARM GAS  C:\Temp\ccoVwn9Y.s 			page 96


3012:Drivers/BSP/Components/vl53l1cb/modules/vl53l1_api_preset_modes.c **** 
3013:Drivers/BSP/Components/vl53l1cb/modules/vl53l1_api_preset_modes.c **** 
3014:Drivers/BSP/Components/vl53l1cb/modules/vl53l1_api_preset_modes.c **** 		status =
3015:Drivers/BSP/Components/vl53l1cb/modules/vl53l1_api_preset_modes.c **** 			VL53L1_zone_preset_xtalk_planar(
3016:Drivers/BSP/Components/vl53l1cb/modules/vl53l1_api_preset_modes.c **** 				pgeneral,
3017:Drivers/BSP/Components/vl53l1cb/modules/vl53l1_api_preset_modes.c **** 				pzone_cfg);
3018:Drivers/BSP/Components/vl53l1cb/modules/vl53l1_api_preset_modes.c **** 
3019:Drivers/BSP/Components/vl53l1cb/modules/vl53l1_api_preset_modes.c **** 
3020:Drivers/BSP/Components/vl53l1cb/modules/vl53l1_api_preset_modes.c **** 
3021:Drivers/BSP/Components/vl53l1cb/modules/vl53l1_api_preset_modes.c **** 		ptiming->range_config__vcsel_period_a = 0x09;
3022:Drivers/BSP/Components/vl53l1cb/modules/vl53l1_api_preset_modes.c **** 		ptiming->range_config__vcsel_period_b = 0x09;
3023:Drivers/BSP/Components/vl53l1cb/modules/vl53l1_api_preset_modes.c **** 
3024:Drivers/BSP/Components/vl53l1cb/modules/vl53l1_api_preset_modes.c **** 
3025:Drivers/BSP/Components/vl53l1cb/modules/vl53l1_api_preset_modes.c **** 
3026:Drivers/BSP/Components/vl53l1cb/modules/vl53l1_api_preset_modes.c **** 		VL53L1_init_histogram_config_structure(
3027:Drivers/BSP/Components/vl53l1cb/modules/vl53l1_api_preset_modes.c **** 			7, 0, 1, 2, 3, 4,
3028:Drivers/BSP/Components/vl53l1cb/modules/vl53l1_api_preset_modes.c **** 			7, 0, 1, 2, 3, 4,
3029:Drivers/BSP/Components/vl53l1cb/modules/vl53l1_api_preset_modes.c **** 			phistogram);
3030:Drivers/BSP/Components/vl53l1cb/modules/vl53l1_api_preset_modes.c **** 
3031:Drivers/BSP/Components/vl53l1cb/modules/vl53l1_api_preset_modes.c **** 
3032:Drivers/BSP/Components/vl53l1cb/modules/vl53l1_api_preset_modes.c **** 
3033:Drivers/BSP/Components/vl53l1cb/modules/vl53l1_api_preset_modes.c **** 		VL53L1_init_histogram_multizone_config_structure(
3034:Drivers/BSP/Components/vl53l1cb/modules/vl53l1_api_preset_modes.c **** 			7, 0, 1, 2, 3, 4,
3035:Drivers/BSP/Components/vl53l1cb/modules/vl53l1_api_preset_modes.c **** 			7, 0, 1, 2, 3, 4,
3036:Drivers/BSP/Components/vl53l1cb/modules/vl53l1_api_preset_modes.c **** 			&(pzone_cfg->multizone_hist_cfg));
3037:Drivers/BSP/Components/vl53l1cb/modules/vl53l1_api_preset_modes.c **** 
3038:Drivers/BSP/Components/vl53l1cb/modules/vl53l1_api_preset_modes.c **** 
3039:Drivers/BSP/Components/vl53l1cb/modules/vl53l1_api_preset_modes.c **** 
3040:Drivers/BSP/Components/vl53l1cb/modules/vl53l1_api_preset_modes.c **** 
3041:Drivers/BSP/Components/vl53l1cb/modules/vl53l1_api_preset_modes.c **** 		if (status == VL53L1_ERROR_NONE) {
3042:Drivers/BSP/Components/vl53l1cb/modules/vl53l1_api_preset_modes.c **** 			status =
3043:Drivers/BSP/Components/vl53l1cb/modules/vl53l1_api_preset_modes.c **** 			VL53L1_set_histogram_multizone_initial_bin_config(
3044:Drivers/BSP/Components/vl53l1cb/modules/vl53l1_api_preset_modes.c **** 			pzone_cfg,
3045:Drivers/BSP/Components/vl53l1cb/modules/vl53l1_api_preset_modes.c **** 			phistogram,
3046:Drivers/BSP/Components/vl53l1cb/modules/vl53l1_api_preset_modes.c **** 			&(pzone_cfg->multizone_hist_cfg));
3047:Drivers/BSP/Components/vl53l1cb/modules/vl53l1_api_preset_modes.c **** 		}
3048:Drivers/BSP/Components/vl53l1cb/modules/vl53l1_api_preset_modes.c **** 
3049:Drivers/BSP/Components/vl53l1cb/modules/vl53l1_api_preset_modes.c **** 
3050:Drivers/BSP/Components/vl53l1cb/modules/vl53l1_api_preset_modes.c **** 
3051:Drivers/BSP/Components/vl53l1cb/modules/vl53l1_api_preset_modes.c **** 		VL53L1_copy_hist_cfg_to_static_cfg(
3052:Drivers/BSP/Components/vl53l1cb/modules/vl53l1_api_preset_modes.c **** 			phistogram,
3053:Drivers/BSP/Components/vl53l1cb/modules/vl53l1_api_preset_modes.c **** 			pstatic,
3054:Drivers/BSP/Components/vl53l1cb/modules/vl53l1_api_preset_modes.c **** 			pgeneral,
3055:Drivers/BSP/Components/vl53l1cb/modules/vl53l1_api_preset_modes.c **** 			ptiming,
3056:Drivers/BSP/Components/vl53l1cb/modules/vl53l1_api_preset_modes.c **** 			pdynamic);
3057:Drivers/BSP/Components/vl53l1cb/modules/vl53l1_api_preset_modes.c **** 
3058:Drivers/BSP/Components/vl53l1cb/modules/vl53l1_api_preset_modes.c **** 	}
3059:Drivers/BSP/Components/vl53l1cb/modules/vl53l1_api_preset_modes.c **** 
3060:Drivers/BSP/Components/vl53l1cb/modules/vl53l1_api_preset_modes.c **** 	LOG_FUNCTION_END(status);
3061:Drivers/BSP/Components/vl53l1cb/modules/vl53l1_api_preset_modes.c **** 
3062:Drivers/BSP/Components/vl53l1cb/modules/vl53l1_api_preset_modes.c **** 	return status;
3063:Drivers/BSP/Components/vl53l1cb/modules/vl53l1_api_preset_modes.c **** }
3064:Drivers/BSP/Components/vl53l1cb/modules/vl53l1_api_preset_modes.c **** 
3065:Drivers/BSP/Components/vl53l1cb/modules/vl53l1_api_preset_modes.c **** VL53L1_Error VL53L1_preset_mode_histogram_xtalk_mm1(
3066:Drivers/BSP/Components/vl53l1cb/modules/vl53l1_api_preset_modes.c **** 	VL53L1_hist_post_process_config_t  *phistpostprocess,
3067:Drivers/BSP/Components/vl53l1cb/modules/vl53l1_api_preset_modes.c **** 	VL53L1_static_config_t             *pstatic,
3068:Drivers/BSP/Components/vl53l1cb/modules/vl53l1_api_preset_modes.c **** 	VL53L1_histogram_config_t          *phistogram,
ARM GAS  C:\Temp\ccoVwn9Y.s 			page 97


3069:Drivers/BSP/Components/vl53l1cb/modules/vl53l1_api_preset_modes.c **** 	VL53L1_general_config_t            *pgeneral,
3070:Drivers/BSP/Components/vl53l1cb/modules/vl53l1_api_preset_modes.c **** 	VL53L1_timing_config_t             *ptiming,
3071:Drivers/BSP/Components/vl53l1cb/modules/vl53l1_api_preset_modes.c **** 	VL53L1_dynamic_config_t            *pdynamic,
3072:Drivers/BSP/Components/vl53l1cb/modules/vl53l1_api_preset_modes.c **** 	VL53L1_system_control_t            *psystem,
3073:Drivers/BSP/Components/vl53l1cb/modules/vl53l1_api_preset_modes.c **** 	VL53L1_tuning_parm_storage_t       *ptuning_parms,
3074:Drivers/BSP/Components/vl53l1cb/modules/vl53l1_api_preset_modes.c **** 	VL53L1_zone_config_t               *pzone_cfg)
3075:Drivers/BSP/Components/vl53l1cb/modules/vl53l1_api_preset_modes.c **** {
3076:Drivers/BSP/Components/vl53l1cb/modules/vl53l1_api_preset_modes.c **** 
3077:Drivers/BSP/Components/vl53l1cb/modules/vl53l1_api_preset_modes.c **** 
3078:Drivers/BSP/Components/vl53l1cb/modules/vl53l1_api_preset_modes.c **** 	VL53L1_Error  status = VL53L1_ERROR_NONE;
3079:Drivers/BSP/Components/vl53l1cb/modules/vl53l1_api_preset_modes.c **** 
3080:Drivers/BSP/Components/vl53l1cb/modules/vl53l1_api_preset_modes.c **** 	LOG_FUNCTION_START("");
3081:Drivers/BSP/Components/vl53l1cb/modules/vl53l1_api_preset_modes.c **** 
3082:Drivers/BSP/Components/vl53l1cb/modules/vl53l1_api_preset_modes.c **** 
3083:Drivers/BSP/Components/vl53l1cb/modules/vl53l1_api_preset_modes.c **** 
3084:Drivers/BSP/Components/vl53l1cb/modules/vl53l1_api_preset_modes.c **** 	status =
3085:Drivers/BSP/Components/vl53l1cb/modules/vl53l1_api_preset_modes.c **** 		VL53L1_preset_mode_histogram_ranging(
3086:Drivers/BSP/Components/vl53l1cb/modules/vl53l1_api_preset_modes.c **** 			phistpostprocess,
3087:Drivers/BSP/Components/vl53l1cb/modules/vl53l1_api_preset_modes.c **** 			pstatic,
3088:Drivers/BSP/Components/vl53l1cb/modules/vl53l1_api_preset_modes.c **** 			phistogram,
3089:Drivers/BSP/Components/vl53l1cb/modules/vl53l1_api_preset_modes.c **** 			pgeneral,
3090:Drivers/BSP/Components/vl53l1cb/modules/vl53l1_api_preset_modes.c **** 			ptiming,
3091:Drivers/BSP/Components/vl53l1cb/modules/vl53l1_api_preset_modes.c **** 			pdynamic,
3092:Drivers/BSP/Components/vl53l1cb/modules/vl53l1_api_preset_modes.c **** 			psystem,
3093:Drivers/BSP/Components/vl53l1cb/modules/vl53l1_api_preset_modes.c **** 			ptuning_parms,
3094:Drivers/BSP/Components/vl53l1cb/modules/vl53l1_api_preset_modes.c **** 			pzone_cfg);
3095:Drivers/BSP/Components/vl53l1cb/modules/vl53l1_api_preset_modes.c **** 
3096:Drivers/BSP/Components/vl53l1cb/modules/vl53l1_api_preset_modes.c **** 
3097:Drivers/BSP/Components/vl53l1cb/modules/vl53l1_api_preset_modes.c **** 
3098:Drivers/BSP/Components/vl53l1cb/modules/vl53l1_api_preset_modes.c **** 
3099:Drivers/BSP/Components/vl53l1cb/modules/vl53l1_api_preset_modes.c **** 	if (status == VL53L1_ERROR_NONE) {
3100:Drivers/BSP/Components/vl53l1cb/modules/vl53l1_api_preset_modes.c **** 
3101:Drivers/BSP/Components/vl53l1cb/modules/vl53l1_api_preset_modes.c **** 
3102:Drivers/BSP/Components/vl53l1cb/modules/vl53l1_api_preset_modes.c **** 
3103:Drivers/BSP/Components/vl53l1cb/modules/vl53l1_api_preset_modes.c **** 
3104:Drivers/BSP/Components/vl53l1cb/modules/vl53l1_api_preset_modes.c **** 
3105:Drivers/BSP/Components/vl53l1cb/modules/vl53l1_api_preset_modes.c **** 		VL53L1_init_histogram_config_structure(
3106:Drivers/BSP/Components/vl53l1cb/modules/vl53l1_api_preset_modes.c **** 				8+7, 8+0, 8+1, 8+2, 8+3, 8+4,
3107:Drivers/BSP/Components/vl53l1cb/modules/vl53l1_api_preset_modes.c **** 				8+7, 8+0, 8+1, 8+2, 8+3, 8+4,
3108:Drivers/BSP/Components/vl53l1cb/modules/vl53l1_api_preset_modes.c **** 				phistogram);
3109:Drivers/BSP/Components/vl53l1cb/modules/vl53l1_api_preset_modes.c **** 
3110:Drivers/BSP/Components/vl53l1cb/modules/vl53l1_api_preset_modes.c **** 
3111:Drivers/BSP/Components/vl53l1cb/modules/vl53l1_api_preset_modes.c **** 		VL53L1_init_histogram_multizone_config_structure(
3112:Drivers/BSP/Components/vl53l1cb/modules/vl53l1_api_preset_modes.c **** 				8+7, 8+0, 8+1, 8+2, 8+3, 8+4,
3113:Drivers/BSP/Components/vl53l1cb/modules/vl53l1_api_preset_modes.c **** 				8+7, 8+0, 8+1, 8+2, 8+3, 8+4,
3114:Drivers/BSP/Components/vl53l1cb/modules/vl53l1_api_preset_modes.c **** 				&(pzone_cfg->multizone_hist_cfg));
3115:Drivers/BSP/Components/vl53l1cb/modules/vl53l1_api_preset_modes.c **** 
3116:Drivers/BSP/Components/vl53l1cb/modules/vl53l1_api_preset_modes.c **** 
3117:Drivers/BSP/Components/vl53l1cb/modules/vl53l1_api_preset_modes.c **** 
3118:Drivers/BSP/Components/vl53l1cb/modules/vl53l1_api_preset_modes.c **** 		VL53L1_copy_hist_cfg_to_static_cfg(
3119:Drivers/BSP/Components/vl53l1cb/modules/vl53l1_api_preset_modes.c **** 				phistogram,
3120:Drivers/BSP/Components/vl53l1cb/modules/vl53l1_api_preset_modes.c **** 				pstatic,
3121:Drivers/BSP/Components/vl53l1cb/modules/vl53l1_api_preset_modes.c **** 				pgeneral,
3122:Drivers/BSP/Components/vl53l1cb/modules/vl53l1_api_preset_modes.c **** 				ptiming,
3123:Drivers/BSP/Components/vl53l1cb/modules/vl53l1_api_preset_modes.c **** 				pdynamic);
3124:Drivers/BSP/Components/vl53l1cb/modules/vl53l1_api_preset_modes.c **** 
3125:Drivers/BSP/Components/vl53l1cb/modules/vl53l1_api_preset_modes.c **** 
ARM GAS  C:\Temp\ccoVwn9Y.s 			page 98


3126:Drivers/BSP/Components/vl53l1cb/modules/vl53l1_api_preset_modes.c **** 
3127:Drivers/BSP/Components/vl53l1cb/modules/vl53l1_api_preset_modes.c **** 		ptiming->range_config__vcsel_period_a = 0x09;
3128:Drivers/BSP/Components/vl53l1cb/modules/vl53l1_api_preset_modes.c **** 		ptiming->range_config__vcsel_period_b = 0x09;
3129:Drivers/BSP/Components/vl53l1cb/modules/vl53l1_api_preset_modes.c **** 
3130:Drivers/BSP/Components/vl53l1cb/modules/vl53l1_api_preset_modes.c **** 
3131:Drivers/BSP/Components/vl53l1cb/modules/vl53l1_api_preset_modes.c **** 
3132:Drivers/BSP/Components/vl53l1cb/modules/vl53l1_api_preset_modes.c **** 		ptiming->mm_config__timeout_macrop_a_hi = 0x00;
3133:Drivers/BSP/Components/vl53l1cb/modules/vl53l1_api_preset_modes.c **** 		ptiming->mm_config__timeout_macrop_a_lo = 0x21;
3134:Drivers/BSP/Components/vl53l1cb/modules/vl53l1_api_preset_modes.c **** 		ptiming->mm_config__timeout_macrop_b_hi = 0x00;
3135:Drivers/BSP/Components/vl53l1cb/modules/vl53l1_api_preset_modes.c **** 		ptiming->mm_config__timeout_macrop_b_lo = 0x21;
3136:Drivers/BSP/Components/vl53l1cb/modules/vl53l1_api_preset_modes.c **** 
3137:Drivers/BSP/Components/vl53l1cb/modules/vl53l1_api_preset_modes.c **** 
3138:Drivers/BSP/Components/vl53l1cb/modules/vl53l1_api_preset_modes.c **** 
3139:Drivers/BSP/Components/vl53l1cb/modules/vl53l1_api_preset_modes.c **** 		ptiming->range_config__timeout_macrop_a_hi = 0x00;
3140:Drivers/BSP/Components/vl53l1cb/modules/vl53l1_api_preset_modes.c **** 		ptiming->range_config__timeout_macrop_a_lo = 0x29;
3141:Drivers/BSP/Components/vl53l1cb/modules/vl53l1_api_preset_modes.c **** 		ptiming->range_config__timeout_macrop_b_hi = 0x00;
3142:Drivers/BSP/Components/vl53l1cb/modules/vl53l1_api_preset_modes.c **** 		ptiming->range_config__timeout_macrop_b_lo = 0x29;
3143:Drivers/BSP/Components/vl53l1cb/modules/vl53l1_api_preset_modes.c **** 
3144:Drivers/BSP/Components/vl53l1cb/modules/vl53l1_api_preset_modes.c **** 
3145:Drivers/BSP/Components/vl53l1cb/modules/vl53l1_api_preset_modes.c **** 
3146:Drivers/BSP/Components/vl53l1cb/modules/vl53l1_api_preset_modes.c **** 		pgeneral->cal_config__vcsel_start = 0x09;
3147:Drivers/BSP/Components/vl53l1cb/modules/vl53l1_api_preset_modes.c **** 
3148:Drivers/BSP/Components/vl53l1cb/modules/vl53l1_api_preset_modes.c **** 
3149:Drivers/BSP/Components/vl53l1cb/modules/vl53l1_api_preset_modes.c **** 
3150:Drivers/BSP/Components/vl53l1cb/modules/vl53l1_api_preset_modes.c **** 		pgeneral->phasecal_config__timeout_macrop = 0xF5;
3151:Drivers/BSP/Components/vl53l1cb/modules/vl53l1_api_preset_modes.c **** 
3152:Drivers/BSP/Components/vl53l1cb/modules/vl53l1_api_preset_modes.c **** 
3153:Drivers/BSP/Components/vl53l1cb/modules/vl53l1_api_preset_modes.c **** 
3154:Drivers/BSP/Components/vl53l1cb/modules/vl53l1_api_preset_modes.c **** 		pdynamic->sd_config__woi_sd0 = 0x09;
3155:Drivers/BSP/Components/vl53l1cb/modules/vl53l1_api_preset_modes.c **** 		pdynamic->sd_config__woi_sd1 = 0x09;
3156:Drivers/BSP/Components/vl53l1cb/modules/vl53l1_api_preset_modes.c **** 		pdynamic->sd_config__initial_phase_sd0 = 0x09;
3157:Drivers/BSP/Components/vl53l1cb/modules/vl53l1_api_preset_modes.c **** 		pdynamic->sd_config__initial_phase_sd1 = 0x06;
3158:Drivers/BSP/Components/vl53l1cb/modules/vl53l1_api_preset_modes.c **** 
3159:Drivers/BSP/Components/vl53l1cb/modules/vl53l1_api_preset_modes.c **** 		pdynamic->system__sequence_config =
3160:Drivers/BSP/Components/vl53l1cb/modules/vl53l1_api_preset_modes.c **** 				VL53L1_SEQUENCE_VHV_EN |
3161:Drivers/BSP/Components/vl53l1cb/modules/vl53l1_api_preset_modes.c **** 				VL53L1_SEQUENCE_PHASECAL_EN |
3162:Drivers/BSP/Components/vl53l1cb/modules/vl53l1_api_preset_modes.c **** 				VL53L1_SEQUENCE_DSS1_EN |
3163:Drivers/BSP/Components/vl53l1cb/modules/vl53l1_api_preset_modes.c **** 				VL53L1_SEQUENCE_DSS2_EN |
3164:Drivers/BSP/Components/vl53l1cb/modules/vl53l1_api_preset_modes.c **** 				VL53L1_SEQUENCE_MM1_EN |
3165:Drivers/BSP/Components/vl53l1cb/modules/vl53l1_api_preset_modes.c **** 				VL53L1_SEQUENCE_RANGE_EN;
3166:Drivers/BSP/Components/vl53l1cb/modules/vl53l1_api_preset_modes.c **** 
3167:Drivers/BSP/Components/vl53l1cb/modules/vl53l1_api_preset_modes.c **** 
3168:Drivers/BSP/Components/vl53l1cb/modules/vl53l1_api_preset_modes.c **** 
3169:Drivers/BSP/Components/vl53l1cb/modules/vl53l1_api_preset_modes.c **** 
3170:Drivers/BSP/Components/vl53l1cb/modules/vl53l1_api_preset_modes.c **** 		psystem->system__mode_start =
3171:Drivers/BSP/Components/vl53l1cb/modules/vl53l1_api_preset_modes.c **** 				VL53L1_DEVICESCHEDULERMODE_HISTOGRAM |
3172:Drivers/BSP/Components/vl53l1cb/modules/vl53l1_api_preset_modes.c **** 				VL53L1_DEVICEREADOUTMODE_DUAL_SD |
3173:Drivers/BSP/Components/vl53l1cb/modules/vl53l1_api_preset_modes.c **** 				VL53L1_DEVICEMEASUREMENTMODE_BACKTOBACK;
3174:Drivers/BSP/Components/vl53l1cb/modules/vl53l1_api_preset_modes.c **** 	}
3175:Drivers/BSP/Components/vl53l1cb/modules/vl53l1_api_preset_modes.c **** 
3176:Drivers/BSP/Components/vl53l1cb/modules/vl53l1_api_preset_modes.c **** 	LOG_FUNCTION_END(status);
3177:Drivers/BSP/Components/vl53l1cb/modules/vl53l1_api_preset_modes.c **** 
3178:Drivers/BSP/Components/vl53l1cb/modules/vl53l1_api_preset_modes.c **** 	return status;
3179:Drivers/BSP/Components/vl53l1cb/modules/vl53l1_api_preset_modes.c **** }
3180:Drivers/BSP/Components/vl53l1cb/modules/vl53l1_api_preset_modes.c **** 
3181:Drivers/BSP/Components/vl53l1cb/modules/vl53l1_api_preset_modes.c **** 
3182:Drivers/BSP/Components/vl53l1cb/modules/vl53l1_api_preset_modes.c **** VL53L1_Error VL53L1_preset_mode_histogram_xtalk_mm2(
ARM GAS  C:\Temp\ccoVwn9Y.s 			page 99


3183:Drivers/BSP/Components/vl53l1cb/modules/vl53l1_api_preset_modes.c **** 	VL53L1_hist_post_process_config_t  *phistpostprocess,
3184:Drivers/BSP/Components/vl53l1cb/modules/vl53l1_api_preset_modes.c **** 	VL53L1_static_config_t             *pstatic,
3185:Drivers/BSP/Components/vl53l1cb/modules/vl53l1_api_preset_modes.c **** 	VL53L1_histogram_config_t          *phistogram,
3186:Drivers/BSP/Components/vl53l1cb/modules/vl53l1_api_preset_modes.c **** 	VL53L1_general_config_t            *pgeneral,
3187:Drivers/BSP/Components/vl53l1cb/modules/vl53l1_api_preset_modes.c **** 	VL53L1_timing_config_t             *ptiming,
3188:Drivers/BSP/Components/vl53l1cb/modules/vl53l1_api_preset_modes.c **** 	VL53L1_dynamic_config_t            *pdynamic,
3189:Drivers/BSP/Components/vl53l1cb/modules/vl53l1_api_preset_modes.c **** 	VL53L1_system_control_t            *psystem,
3190:Drivers/BSP/Components/vl53l1cb/modules/vl53l1_api_preset_modes.c **** 	VL53L1_tuning_parm_storage_t       *ptuning_parms,
3191:Drivers/BSP/Components/vl53l1cb/modules/vl53l1_api_preset_modes.c **** 	VL53L1_zone_config_t               *pzone_cfg)
3192:Drivers/BSP/Components/vl53l1cb/modules/vl53l1_api_preset_modes.c **** {
3193:Drivers/BSP/Components/vl53l1cb/modules/vl53l1_api_preset_modes.c **** 
3194:Drivers/BSP/Components/vl53l1cb/modules/vl53l1_api_preset_modes.c **** 
3195:Drivers/BSP/Components/vl53l1cb/modules/vl53l1_api_preset_modes.c **** 	VL53L1_Error  status = VL53L1_ERROR_NONE;
3196:Drivers/BSP/Components/vl53l1cb/modules/vl53l1_api_preset_modes.c **** 
3197:Drivers/BSP/Components/vl53l1cb/modules/vl53l1_api_preset_modes.c **** 	LOG_FUNCTION_START("");
3198:Drivers/BSP/Components/vl53l1cb/modules/vl53l1_api_preset_modes.c **** 
3199:Drivers/BSP/Components/vl53l1cb/modules/vl53l1_api_preset_modes.c **** 
3200:Drivers/BSP/Components/vl53l1cb/modules/vl53l1_api_preset_modes.c **** 
3201:Drivers/BSP/Components/vl53l1cb/modules/vl53l1_api_preset_modes.c **** 	status =
3202:Drivers/BSP/Components/vl53l1cb/modules/vl53l1_api_preset_modes.c **** 		VL53L1_preset_mode_histogram_xtalk_mm1(
3203:Drivers/BSP/Components/vl53l1cb/modules/vl53l1_api_preset_modes.c **** 			phistpostprocess,
3204:Drivers/BSP/Components/vl53l1cb/modules/vl53l1_api_preset_modes.c **** 			pstatic,
3205:Drivers/BSP/Components/vl53l1cb/modules/vl53l1_api_preset_modes.c **** 			phistogram,
3206:Drivers/BSP/Components/vl53l1cb/modules/vl53l1_api_preset_modes.c **** 			pgeneral,
3207:Drivers/BSP/Components/vl53l1cb/modules/vl53l1_api_preset_modes.c **** 			ptiming,
3208:Drivers/BSP/Components/vl53l1cb/modules/vl53l1_api_preset_modes.c **** 			pdynamic,
3209:Drivers/BSP/Components/vl53l1cb/modules/vl53l1_api_preset_modes.c **** 			psystem,
3210:Drivers/BSP/Components/vl53l1cb/modules/vl53l1_api_preset_modes.c **** 			ptuning_parms,
3211:Drivers/BSP/Components/vl53l1cb/modules/vl53l1_api_preset_modes.c **** 			pzone_cfg);
3212:Drivers/BSP/Components/vl53l1cb/modules/vl53l1_api_preset_modes.c **** 
3213:Drivers/BSP/Components/vl53l1cb/modules/vl53l1_api_preset_modes.c **** 
3214:Drivers/BSP/Components/vl53l1cb/modules/vl53l1_api_preset_modes.c **** 		pdynamic->system__sequence_config =
3215:Drivers/BSP/Components/vl53l1cb/modules/vl53l1_api_preset_modes.c **** 				VL53L1_SEQUENCE_VHV_EN |
3216:Drivers/BSP/Components/vl53l1cb/modules/vl53l1_api_preset_modes.c **** 				VL53L1_SEQUENCE_PHASECAL_EN |
3217:Drivers/BSP/Components/vl53l1cb/modules/vl53l1_api_preset_modes.c **** 				VL53L1_SEQUENCE_DSS1_EN |
3218:Drivers/BSP/Components/vl53l1cb/modules/vl53l1_api_preset_modes.c **** 				VL53L1_SEQUENCE_DSS2_EN |
3219:Drivers/BSP/Components/vl53l1cb/modules/vl53l1_api_preset_modes.c **** 				VL53L1_SEQUENCE_MM2_EN |
3220:Drivers/BSP/Components/vl53l1cb/modules/vl53l1_api_preset_modes.c **** 				VL53L1_SEQUENCE_RANGE_EN;
3221:Drivers/BSP/Components/vl53l1cb/modules/vl53l1_api_preset_modes.c **** 
3222:Drivers/BSP/Components/vl53l1cb/modules/vl53l1_api_preset_modes.c **** 
3223:Drivers/BSP/Components/vl53l1cb/modules/vl53l1_api_preset_modes.c **** 
3224:Drivers/BSP/Components/vl53l1cb/modules/vl53l1_api_preset_modes.c **** 	LOG_FUNCTION_END(status);
3225:Drivers/BSP/Components/vl53l1cb/modules/vl53l1_api_preset_modes.c **** 
3226:Drivers/BSP/Components/vl53l1cb/modules/vl53l1_api_preset_modes.c **** 	return status;
3227:Drivers/BSP/Components/vl53l1cb/modules/vl53l1_api_preset_modes.c **** }
3228:Drivers/BSP/Components/vl53l1cb/modules/vl53l1_api_preset_modes.c **** 
3229:Drivers/BSP/Components/vl53l1cb/modules/vl53l1_api_preset_modes.c **** 
3230:Drivers/BSP/Components/vl53l1cb/modules/vl53l1_api_preset_modes.c **** 
3231:Drivers/BSP/Components/vl53l1cb/modules/vl53l1_api_preset_modes.c **** 
3232:Drivers/BSP/Components/vl53l1cb/modules/vl53l1_api_preset_modes.c **** VL53L1_Error VL53L1_preset_mode_histogram_multizone(
3233:Drivers/BSP/Components/vl53l1cb/modules/vl53l1_api_preset_modes.c **** 	VL53L1_hist_post_process_config_t  *phistpostprocess,
3234:Drivers/BSP/Components/vl53l1cb/modules/vl53l1_api_preset_modes.c **** 	VL53L1_static_config_t             *pstatic,
3235:Drivers/BSP/Components/vl53l1cb/modules/vl53l1_api_preset_modes.c **** 	VL53L1_histogram_config_t          *phistogram,
3236:Drivers/BSP/Components/vl53l1cb/modules/vl53l1_api_preset_modes.c **** 	VL53L1_general_config_t            *pgeneral,
3237:Drivers/BSP/Components/vl53l1cb/modules/vl53l1_api_preset_modes.c **** 	VL53L1_timing_config_t             *ptiming,
3238:Drivers/BSP/Components/vl53l1cb/modules/vl53l1_api_preset_modes.c **** 	VL53L1_dynamic_config_t            *pdynamic,
3239:Drivers/BSP/Components/vl53l1cb/modules/vl53l1_api_preset_modes.c **** 	VL53L1_system_control_t            *psystem,
ARM GAS  C:\Temp\ccoVwn9Y.s 			page 100


3240:Drivers/BSP/Components/vl53l1cb/modules/vl53l1_api_preset_modes.c **** 	VL53L1_tuning_parm_storage_t       *ptuning_parms,
3241:Drivers/BSP/Components/vl53l1cb/modules/vl53l1_api_preset_modes.c **** 	VL53L1_zone_config_t               *pzone_cfg)
3242:Drivers/BSP/Components/vl53l1cb/modules/vl53l1_api_preset_modes.c **** {
3243:Drivers/BSP/Components/vl53l1cb/modules/vl53l1_api_preset_modes.c **** 
3244:Drivers/BSP/Components/vl53l1cb/modules/vl53l1_api_preset_modes.c **** 
3245:Drivers/BSP/Components/vl53l1cb/modules/vl53l1_api_preset_modes.c **** 	VL53L1_Error  status = VL53L1_ERROR_NONE;
3246:Drivers/BSP/Components/vl53l1cb/modules/vl53l1_api_preset_modes.c **** 
3247:Drivers/BSP/Components/vl53l1cb/modules/vl53l1_api_preset_modes.c **** 	LOG_FUNCTION_START("");
3248:Drivers/BSP/Components/vl53l1cb/modules/vl53l1_api_preset_modes.c **** 
3249:Drivers/BSP/Components/vl53l1cb/modules/vl53l1_api_preset_modes.c **** 
3250:Drivers/BSP/Components/vl53l1cb/modules/vl53l1_api_preset_modes.c **** 
3251:Drivers/BSP/Components/vl53l1cb/modules/vl53l1_api_preset_modes.c **** 	status =
3252:Drivers/BSP/Components/vl53l1cb/modules/vl53l1_api_preset_modes.c **** 		VL53L1_preset_mode_histogram_medium_range(
3253:Drivers/BSP/Components/vl53l1cb/modules/vl53l1_api_preset_modes.c **** 			phistpostprocess,
3254:Drivers/BSP/Components/vl53l1cb/modules/vl53l1_api_preset_modes.c **** 			pstatic,
3255:Drivers/BSP/Components/vl53l1cb/modules/vl53l1_api_preset_modes.c **** 			phistogram,
3256:Drivers/BSP/Components/vl53l1cb/modules/vl53l1_api_preset_modes.c **** 			pgeneral,
3257:Drivers/BSP/Components/vl53l1cb/modules/vl53l1_api_preset_modes.c **** 			ptiming,
3258:Drivers/BSP/Components/vl53l1cb/modules/vl53l1_api_preset_modes.c **** 			pdynamic,
3259:Drivers/BSP/Components/vl53l1cb/modules/vl53l1_api_preset_modes.c **** 			psystem,
3260:Drivers/BSP/Components/vl53l1cb/modules/vl53l1_api_preset_modes.c **** 			ptuning_parms,
3261:Drivers/BSP/Components/vl53l1cb/modules/vl53l1_api_preset_modes.c **** 			pzone_cfg);
3262:Drivers/BSP/Components/vl53l1cb/modules/vl53l1_api_preset_modes.c **** 
3263:Drivers/BSP/Components/vl53l1cb/modules/vl53l1_api_preset_modes.c **** 
3264:Drivers/BSP/Components/vl53l1cb/modules/vl53l1_api_preset_modes.c **** 
3265:Drivers/BSP/Components/vl53l1cb/modules/vl53l1_api_preset_modes.c **** 	if (status == VL53L1_ERROR_NONE) {
3266:Drivers/BSP/Components/vl53l1cb/modules/vl53l1_api_preset_modes.c **** 
3267:Drivers/BSP/Components/vl53l1cb/modules/vl53l1_api_preset_modes.c **** 
3268:Drivers/BSP/Components/vl53l1cb/modules/vl53l1_api_preset_modes.c **** 
3269:Drivers/BSP/Components/vl53l1cb/modules/vl53l1_api_preset_modes.c **** 		status =
3270:Drivers/BSP/Components/vl53l1cb/modules/vl53l1_api_preset_modes.c **** 			VL53L1_init_zone_config_structure(
3271:Drivers/BSP/Components/vl53l1cb/modules/vl53l1_api_preset_modes.c **** 				4, 8, 2,
3272:Drivers/BSP/Components/vl53l1cb/modules/vl53l1_api_preset_modes.c **** 				4, 8, 2,
3273:Drivers/BSP/Components/vl53l1cb/modules/vl53l1_api_preset_modes.c **** 				7, 7,
3274:Drivers/BSP/Components/vl53l1cb/modules/vl53l1_api_preset_modes.c **** 				pzone_cfg);
3275:Drivers/BSP/Components/vl53l1cb/modules/vl53l1_api_preset_modes.c **** 
3276:Drivers/BSP/Components/vl53l1cb/modules/vl53l1_api_preset_modes.c **** 		pgeneral->global_config__stream_divider =
3277:Drivers/BSP/Components/vl53l1cb/modules/vl53l1_api_preset_modes.c **** 			pzone_cfg->active_zones + 1;
3278:Drivers/BSP/Components/vl53l1cb/modules/vl53l1_api_preset_modes.c **** 
3279:Drivers/BSP/Components/vl53l1cb/modules/vl53l1_api_preset_modes.c **** 
3280:Drivers/BSP/Components/vl53l1cb/modules/vl53l1_api_preset_modes.c **** 
3281:Drivers/BSP/Components/vl53l1cb/modules/vl53l1_api_preset_modes.c **** 		if (status == VL53L1_ERROR_NONE) {
3282:Drivers/BSP/Components/vl53l1cb/modules/vl53l1_api_preset_modes.c **** 			status =
3283:Drivers/BSP/Components/vl53l1cb/modules/vl53l1_api_preset_modes.c **** 			VL53L1_set_histogram_multizone_initial_bin_config(
3284:Drivers/BSP/Components/vl53l1cb/modules/vl53l1_api_preset_modes.c **** 				pzone_cfg,
3285:Drivers/BSP/Components/vl53l1cb/modules/vl53l1_api_preset_modes.c **** 				phistogram,
3286:Drivers/BSP/Components/vl53l1cb/modules/vl53l1_api_preset_modes.c **** 				&(pzone_cfg->multizone_hist_cfg));
3287:Drivers/BSP/Components/vl53l1cb/modules/vl53l1_api_preset_modes.c **** 		}
3288:Drivers/BSP/Components/vl53l1cb/modules/vl53l1_api_preset_modes.c **** 
3289:Drivers/BSP/Components/vl53l1cb/modules/vl53l1_api_preset_modes.c **** 		VL53L1_copy_hist_cfg_to_static_cfg(
3290:Drivers/BSP/Components/vl53l1cb/modules/vl53l1_api_preset_modes.c **** 				phistogram,
3291:Drivers/BSP/Components/vl53l1cb/modules/vl53l1_api_preset_modes.c **** 				pstatic,
3292:Drivers/BSP/Components/vl53l1cb/modules/vl53l1_api_preset_modes.c **** 				pgeneral,
3293:Drivers/BSP/Components/vl53l1cb/modules/vl53l1_api_preset_modes.c **** 				ptiming,
3294:Drivers/BSP/Components/vl53l1cb/modules/vl53l1_api_preset_modes.c **** 				pdynamic);
3295:Drivers/BSP/Components/vl53l1cb/modules/vl53l1_api_preset_modes.c **** 	}
3296:Drivers/BSP/Components/vl53l1cb/modules/vl53l1_api_preset_modes.c **** 
ARM GAS  C:\Temp\ccoVwn9Y.s 			page 101


3297:Drivers/BSP/Components/vl53l1cb/modules/vl53l1_api_preset_modes.c **** 	LOG_FUNCTION_END(status);
3298:Drivers/BSP/Components/vl53l1cb/modules/vl53l1_api_preset_modes.c **** 
3299:Drivers/BSP/Components/vl53l1cb/modules/vl53l1_api_preset_modes.c **** 	return status;
3300:Drivers/BSP/Components/vl53l1cb/modules/vl53l1_api_preset_modes.c **** }
3301:Drivers/BSP/Components/vl53l1cb/modules/vl53l1_api_preset_modes.c **** 
3302:Drivers/BSP/Components/vl53l1cb/modules/vl53l1_api_preset_modes.c **** VL53L1_Error VL53L1_preset_mode_histogram_multizone_short_range(
3303:Drivers/BSP/Components/vl53l1cb/modules/vl53l1_api_preset_modes.c **** 	VL53L1_hist_post_process_config_t  *phistpostprocess,
3304:Drivers/BSP/Components/vl53l1cb/modules/vl53l1_api_preset_modes.c **** 	VL53L1_static_config_t             *pstatic,
3305:Drivers/BSP/Components/vl53l1cb/modules/vl53l1_api_preset_modes.c **** 	VL53L1_histogram_config_t          *phistogram,
3306:Drivers/BSP/Components/vl53l1cb/modules/vl53l1_api_preset_modes.c **** 	VL53L1_general_config_t            *pgeneral,
3307:Drivers/BSP/Components/vl53l1cb/modules/vl53l1_api_preset_modes.c **** 	VL53L1_timing_config_t             *ptiming,
3308:Drivers/BSP/Components/vl53l1cb/modules/vl53l1_api_preset_modes.c **** 	VL53L1_dynamic_config_t            *pdynamic,
3309:Drivers/BSP/Components/vl53l1cb/modules/vl53l1_api_preset_modes.c **** 	VL53L1_system_control_t            *psystem,
3310:Drivers/BSP/Components/vl53l1cb/modules/vl53l1_api_preset_modes.c **** 	VL53L1_tuning_parm_storage_t       *ptuning_parms,
3311:Drivers/BSP/Components/vl53l1cb/modules/vl53l1_api_preset_modes.c **** 	VL53L1_zone_config_t               *pzone_cfg)
3312:Drivers/BSP/Components/vl53l1cb/modules/vl53l1_api_preset_modes.c **** {
3313:Drivers/BSP/Components/vl53l1cb/modules/vl53l1_api_preset_modes.c **** 
3314:Drivers/BSP/Components/vl53l1cb/modules/vl53l1_api_preset_modes.c **** 
3315:Drivers/BSP/Components/vl53l1cb/modules/vl53l1_api_preset_modes.c **** 	VL53L1_Error  status = VL53L1_ERROR_NONE;
3316:Drivers/BSP/Components/vl53l1cb/modules/vl53l1_api_preset_modes.c **** 
3317:Drivers/BSP/Components/vl53l1cb/modules/vl53l1_api_preset_modes.c **** 	LOG_FUNCTION_START("");
3318:Drivers/BSP/Components/vl53l1cb/modules/vl53l1_api_preset_modes.c **** 
3319:Drivers/BSP/Components/vl53l1cb/modules/vl53l1_api_preset_modes.c **** 
3320:Drivers/BSP/Components/vl53l1cb/modules/vl53l1_api_preset_modes.c **** 
3321:Drivers/BSP/Components/vl53l1cb/modules/vl53l1_api_preset_modes.c **** 	status =
3322:Drivers/BSP/Components/vl53l1cb/modules/vl53l1_api_preset_modes.c **** 		VL53L1_preset_mode_histogram_short_range(
3323:Drivers/BSP/Components/vl53l1cb/modules/vl53l1_api_preset_modes.c **** 			phistpostprocess,
3324:Drivers/BSP/Components/vl53l1cb/modules/vl53l1_api_preset_modes.c **** 			pstatic,
3325:Drivers/BSP/Components/vl53l1cb/modules/vl53l1_api_preset_modes.c **** 			phistogram,
3326:Drivers/BSP/Components/vl53l1cb/modules/vl53l1_api_preset_modes.c **** 			pgeneral,
3327:Drivers/BSP/Components/vl53l1cb/modules/vl53l1_api_preset_modes.c **** 			ptiming,
3328:Drivers/BSP/Components/vl53l1cb/modules/vl53l1_api_preset_modes.c **** 			pdynamic,
3329:Drivers/BSP/Components/vl53l1cb/modules/vl53l1_api_preset_modes.c **** 			psystem,
3330:Drivers/BSP/Components/vl53l1cb/modules/vl53l1_api_preset_modes.c **** 			ptuning_parms,
3331:Drivers/BSP/Components/vl53l1cb/modules/vl53l1_api_preset_modes.c **** 			pzone_cfg);
3332:Drivers/BSP/Components/vl53l1cb/modules/vl53l1_api_preset_modes.c **** 
3333:Drivers/BSP/Components/vl53l1cb/modules/vl53l1_api_preset_modes.c **** 
3334:Drivers/BSP/Components/vl53l1cb/modules/vl53l1_api_preset_modes.c **** 
3335:Drivers/BSP/Components/vl53l1cb/modules/vl53l1_api_preset_modes.c **** 	if (status == VL53L1_ERROR_NONE) {
3336:Drivers/BSP/Components/vl53l1cb/modules/vl53l1_api_preset_modes.c **** 
3337:Drivers/BSP/Components/vl53l1cb/modules/vl53l1_api_preset_modes.c **** 
3338:Drivers/BSP/Components/vl53l1cb/modules/vl53l1_api_preset_modes.c **** 
3339:Drivers/BSP/Components/vl53l1cb/modules/vl53l1_api_preset_modes.c **** 		status =
3340:Drivers/BSP/Components/vl53l1cb/modules/vl53l1_api_preset_modes.c **** 			VL53L1_init_zone_config_structure(
3341:Drivers/BSP/Components/vl53l1cb/modules/vl53l1_api_preset_modes.c **** 				4, 8, 2,
3342:Drivers/BSP/Components/vl53l1cb/modules/vl53l1_api_preset_modes.c **** 				4, 8, 2,
3343:Drivers/BSP/Components/vl53l1cb/modules/vl53l1_api_preset_modes.c **** 				7, 7,
3344:Drivers/BSP/Components/vl53l1cb/modules/vl53l1_api_preset_modes.c **** 				pzone_cfg);
3345:Drivers/BSP/Components/vl53l1cb/modules/vl53l1_api_preset_modes.c **** 
3346:Drivers/BSP/Components/vl53l1cb/modules/vl53l1_api_preset_modes.c **** 		pgeneral->global_config__stream_divider =
3347:Drivers/BSP/Components/vl53l1cb/modules/vl53l1_api_preset_modes.c **** 			pzone_cfg->active_zones + 1;
3348:Drivers/BSP/Components/vl53l1cb/modules/vl53l1_api_preset_modes.c **** 
3349:Drivers/BSP/Components/vl53l1cb/modules/vl53l1_api_preset_modes.c **** 
3350:Drivers/BSP/Components/vl53l1cb/modules/vl53l1_api_preset_modes.c **** 
3351:Drivers/BSP/Components/vl53l1cb/modules/vl53l1_api_preset_modes.c **** 		if (status == VL53L1_ERROR_NONE) {
3352:Drivers/BSP/Components/vl53l1cb/modules/vl53l1_api_preset_modes.c **** 			status =
3353:Drivers/BSP/Components/vl53l1cb/modules/vl53l1_api_preset_modes.c **** 			VL53L1_set_histogram_multizone_initial_bin_config(
ARM GAS  C:\Temp\ccoVwn9Y.s 			page 102


3354:Drivers/BSP/Components/vl53l1cb/modules/vl53l1_api_preset_modes.c **** 			pzone_cfg,
3355:Drivers/BSP/Components/vl53l1cb/modules/vl53l1_api_preset_modes.c **** 			phistogram,
3356:Drivers/BSP/Components/vl53l1cb/modules/vl53l1_api_preset_modes.c **** 			&(pzone_cfg->multizone_hist_cfg)
3357:Drivers/BSP/Components/vl53l1cb/modules/vl53l1_api_preset_modes.c **** 			);
3358:Drivers/BSP/Components/vl53l1cb/modules/vl53l1_api_preset_modes.c **** 		}
3359:Drivers/BSP/Components/vl53l1cb/modules/vl53l1_api_preset_modes.c **** 
3360:Drivers/BSP/Components/vl53l1cb/modules/vl53l1_api_preset_modes.c **** 
3361:Drivers/BSP/Components/vl53l1cb/modules/vl53l1_api_preset_modes.c **** 
3362:Drivers/BSP/Components/vl53l1cb/modules/vl53l1_api_preset_modes.c **** 		VL53L1_copy_hist_cfg_to_static_cfg(
3363:Drivers/BSP/Components/vl53l1cb/modules/vl53l1_api_preset_modes.c **** 				phistogram,
3364:Drivers/BSP/Components/vl53l1cb/modules/vl53l1_api_preset_modes.c **** 				pstatic,
3365:Drivers/BSP/Components/vl53l1cb/modules/vl53l1_api_preset_modes.c **** 				pgeneral,
3366:Drivers/BSP/Components/vl53l1cb/modules/vl53l1_api_preset_modes.c **** 				ptiming,
3367:Drivers/BSP/Components/vl53l1cb/modules/vl53l1_api_preset_modes.c **** 				pdynamic);
3368:Drivers/BSP/Components/vl53l1cb/modules/vl53l1_api_preset_modes.c **** 	}
3369:Drivers/BSP/Components/vl53l1cb/modules/vl53l1_api_preset_modes.c **** 
3370:Drivers/BSP/Components/vl53l1cb/modules/vl53l1_api_preset_modes.c **** 	LOG_FUNCTION_END(status);
3371:Drivers/BSP/Components/vl53l1cb/modules/vl53l1_api_preset_modes.c **** 
3372:Drivers/BSP/Components/vl53l1cb/modules/vl53l1_api_preset_modes.c **** 	return status;
3373:Drivers/BSP/Components/vl53l1cb/modules/vl53l1_api_preset_modes.c **** }
3374:Drivers/BSP/Components/vl53l1cb/modules/vl53l1_api_preset_modes.c **** 
3375:Drivers/BSP/Components/vl53l1cb/modules/vl53l1_api_preset_modes.c **** 
3376:Drivers/BSP/Components/vl53l1cb/modules/vl53l1_api_preset_modes.c **** VL53L1_Error VL53L1_preset_mode_histogram_multizone_long_range(
3377:Drivers/BSP/Components/vl53l1cb/modules/vl53l1_api_preset_modes.c **** 	VL53L1_hist_post_process_config_t  *phistpostprocess,
3378:Drivers/BSP/Components/vl53l1cb/modules/vl53l1_api_preset_modes.c **** 	VL53L1_static_config_t             *pstatic,
3379:Drivers/BSP/Components/vl53l1cb/modules/vl53l1_api_preset_modes.c **** 	VL53L1_histogram_config_t          *phistogram,
3380:Drivers/BSP/Components/vl53l1cb/modules/vl53l1_api_preset_modes.c **** 	VL53L1_general_config_t            *pgeneral,
3381:Drivers/BSP/Components/vl53l1cb/modules/vl53l1_api_preset_modes.c **** 	VL53L1_timing_config_t             *ptiming,
3382:Drivers/BSP/Components/vl53l1cb/modules/vl53l1_api_preset_modes.c **** 	VL53L1_dynamic_config_t            *pdynamic,
3383:Drivers/BSP/Components/vl53l1cb/modules/vl53l1_api_preset_modes.c **** 	VL53L1_system_control_t            *psystem,
3384:Drivers/BSP/Components/vl53l1cb/modules/vl53l1_api_preset_modes.c **** 	VL53L1_tuning_parm_storage_t       *ptuning_parms,
3385:Drivers/BSP/Components/vl53l1cb/modules/vl53l1_api_preset_modes.c **** 	VL53L1_zone_config_t               *pzone_cfg)
3386:Drivers/BSP/Components/vl53l1cb/modules/vl53l1_api_preset_modes.c **** {
3387:Drivers/BSP/Components/vl53l1cb/modules/vl53l1_api_preset_modes.c **** 
3388:Drivers/BSP/Components/vl53l1cb/modules/vl53l1_api_preset_modes.c **** 
3389:Drivers/BSP/Components/vl53l1cb/modules/vl53l1_api_preset_modes.c **** 	VL53L1_Error  status = VL53L1_ERROR_NONE;
3390:Drivers/BSP/Components/vl53l1cb/modules/vl53l1_api_preset_modes.c **** 
3391:Drivers/BSP/Components/vl53l1cb/modules/vl53l1_api_preset_modes.c **** 	LOG_FUNCTION_START("");
3392:Drivers/BSP/Components/vl53l1cb/modules/vl53l1_api_preset_modes.c **** 
3393:Drivers/BSP/Components/vl53l1cb/modules/vl53l1_api_preset_modes.c **** 
3394:Drivers/BSP/Components/vl53l1cb/modules/vl53l1_api_preset_modes.c **** 
3395:Drivers/BSP/Components/vl53l1cb/modules/vl53l1_api_preset_modes.c **** 	status =
3396:Drivers/BSP/Components/vl53l1cb/modules/vl53l1_api_preset_modes.c **** 		VL53L1_preset_mode_histogram_long_range(
3397:Drivers/BSP/Components/vl53l1cb/modules/vl53l1_api_preset_modes.c **** 			phistpostprocess,
3398:Drivers/BSP/Components/vl53l1cb/modules/vl53l1_api_preset_modes.c **** 			pstatic,
3399:Drivers/BSP/Components/vl53l1cb/modules/vl53l1_api_preset_modes.c **** 			phistogram,
3400:Drivers/BSP/Components/vl53l1cb/modules/vl53l1_api_preset_modes.c **** 			pgeneral,
3401:Drivers/BSP/Components/vl53l1cb/modules/vl53l1_api_preset_modes.c **** 			ptiming,
3402:Drivers/BSP/Components/vl53l1cb/modules/vl53l1_api_preset_modes.c **** 			pdynamic,
3403:Drivers/BSP/Components/vl53l1cb/modules/vl53l1_api_preset_modes.c **** 			psystem,
3404:Drivers/BSP/Components/vl53l1cb/modules/vl53l1_api_preset_modes.c **** 			ptuning_parms,
3405:Drivers/BSP/Components/vl53l1cb/modules/vl53l1_api_preset_modes.c **** 			pzone_cfg);
3406:Drivers/BSP/Components/vl53l1cb/modules/vl53l1_api_preset_modes.c **** 
3407:Drivers/BSP/Components/vl53l1cb/modules/vl53l1_api_preset_modes.c **** 
3408:Drivers/BSP/Components/vl53l1cb/modules/vl53l1_api_preset_modes.c **** 
3409:Drivers/BSP/Components/vl53l1cb/modules/vl53l1_api_preset_modes.c **** 	if (status == VL53L1_ERROR_NONE) {
3410:Drivers/BSP/Components/vl53l1cb/modules/vl53l1_api_preset_modes.c **** 
ARM GAS  C:\Temp\ccoVwn9Y.s 			page 103


3411:Drivers/BSP/Components/vl53l1cb/modules/vl53l1_api_preset_modes.c **** 
3412:Drivers/BSP/Components/vl53l1cb/modules/vl53l1_api_preset_modes.c **** 
3413:Drivers/BSP/Components/vl53l1cb/modules/vl53l1_api_preset_modes.c **** 		status =
3414:Drivers/BSP/Components/vl53l1cb/modules/vl53l1_api_preset_modes.c **** 			VL53L1_init_zone_config_structure(
3415:Drivers/BSP/Components/vl53l1cb/modules/vl53l1_api_preset_modes.c **** 				4, 8, 2,
3416:Drivers/BSP/Components/vl53l1cb/modules/vl53l1_api_preset_modes.c **** 				4, 8, 2,
3417:Drivers/BSP/Components/vl53l1cb/modules/vl53l1_api_preset_modes.c **** 				7, 7,
3418:Drivers/BSP/Components/vl53l1cb/modules/vl53l1_api_preset_modes.c **** 				pzone_cfg);
3419:Drivers/BSP/Components/vl53l1cb/modules/vl53l1_api_preset_modes.c **** 
3420:Drivers/BSP/Components/vl53l1cb/modules/vl53l1_api_preset_modes.c **** 		pgeneral->global_config__stream_divider =
3421:Drivers/BSP/Components/vl53l1cb/modules/vl53l1_api_preset_modes.c **** 			pzone_cfg->active_zones + 1;
3422:Drivers/BSP/Components/vl53l1cb/modules/vl53l1_api_preset_modes.c **** 
3423:Drivers/BSP/Components/vl53l1cb/modules/vl53l1_api_preset_modes.c **** 
3424:Drivers/BSP/Components/vl53l1cb/modules/vl53l1_api_preset_modes.c **** 
3425:Drivers/BSP/Components/vl53l1cb/modules/vl53l1_api_preset_modes.c **** 		if (status == VL53L1_ERROR_NONE) {
3426:Drivers/BSP/Components/vl53l1cb/modules/vl53l1_api_preset_modes.c **** 			status =
3427:Drivers/BSP/Components/vl53l1cb/modules/vl53l1_api_preset_modes.c **** 			VL53L1_set_histogram_multizone_initial_bin_config(
3428:Drivers/BSP/Components/vl53l1cb/modules/vl53l1_api_preset_modes.c **** 				pzone_cfg,
3429:Drivers/BSP/Components/vl53l1cb/modules/vl53l1_api_preset_modes.c **** 				phistogram,
3430:Drivers/BSP/Components/vl53l1cb/modules/vl53l1_api_preset_modes.c **** 				&(pzone_cfg->multizone_hist_cfg));
3431:Drivers/BSP/Components/vl53l1cb/modules/vl53l1_api_preset_modes.c **** 		}
3432:Drivers/BSP/Components/vl53l1cb/modules/vl53l1_api_preset_modes.c **** 
3433:Drivers/BSP/Components/vl53l1cb/modules/vl53l1_api_preset_modes.c **** 
3434:Drivers/BSP/Components/vl53l1cb/modules/vl53l1_api_preset_modes.c **** 
3435:Drivers/BSP/Components/vl53l1cb/modules/vl53l1_api_preset_modes.c **** 		VL53L1_copy_hist_cfg_to_static_cfg(
3436:Drivers/BSP/Components/vl53l1cb/modules/vl53l1_api_preset_modes.c **** 			phistogram,
3437:Drivers/BSP/Components/vl53l1cb/modules/vl53l1_api_preset_modes.c **** 			pstatic,
3438:Drivers/BSP/Components/vl53l1cb/modules/vl53l1_api_preset_modes.c **** 			pgeneral,
3439:Drivers/BSP/Components/vl53l1cb/modules/vl53l1_api_preset_modes.c **** 			ptiming,
3440:Drivers/BSP/Components/vl53l1cb/modules/vl53l1_api_preset_modes.c **** 			pdynamic);
3441:Drivers/BSP/Components/vl53l1cb/modules/vl53l1_api_preset_modes.c **** 	}
3442:Drivers/BSP/Components/vl53l1cb/modules/vl53l1_api_preset_modes.c **** 
3443:Drivers/BSP/Components/vl53l1cb/modules/vl53l1_api_preset_modes.c **** 	LOG_FUNCTION_END(status);
3444:Drivers/BSP/Components/vl53l1cb/modules/vl53l1_api_preset_modes.c **** 
3445:Drivers/BSP/Components/vl53l1cb/modules/vl53l1_api_preset_modes.c **** 	return status;
3446:Drivers/BSP/Components/vl53l1cb/modules/vl53l1_api_preset_modes.c **** }
3447:Drivers/BSP/Components/vl53l1cb/modules/vl53l1_api_preset_modes.c **** 
3448:Drivers/BSP/Components/vl53l1cb/modules/vl53l1_api_preset_modes.c **** 
3449:Drivers/BSP/Components/vl53l1cb/modules/vl53l1_api_preset_modes.c **** 
3450:Drivers/BSP/Components/vl53l1cb/modules/vl53l1_api_preset_modes.c **** 
3451:Drivers/BSP/Components/vl53l1cb/modules/vl53l1_api_preset_modes.c **** VL53L1_Error VL53L1_preset_mode_olt(
3452:Drivers/BSP/Components/vl53l1cb/modules/vl53l1_api_preset_modes.c **** 	VL53L1_static_config_t    *pstatic,
3453:Drivers/BSP/Components/vl53l1cb/modules/vl53l1_api_preset_modes.c **** 	VL53L1_histogram_config_t *phistogram,
3454:Drivers/BSP/Components/vl53l1cb/modules/vl53l1_api_preset_modes.c **** 	VL53L1_general_config_t   *pgeneral,
3455:Drivers/BSP/Components/vl53l1cb/modules/vl53l1_api_preset_modes.c **** 	VL53L1_timing_config_t    *ptiming,
3456:Drivers/BSP/Components/vl53l1cb/modules/vl53l1_api_preset_modes.c **** 	VL53L1_dynamic_config_t   *pdynamic,
3457:Drivers/BSP/Components/vl53l1cb/modules/vl53l1_api_preset_modes.c **** 	VL53L1_system_control_t   *psystem,
3458:Drivers/BSP/Components/vl53l1cb/modules/vl53l1_api_preset_modes.c **** 	VL53L1_tuning_parm_storage_t *ptuning_parms,
3459:Drivers/BSP/Components/vl53l1cb/modules/vl53l1_api_preset_modes.c **** 	VL53L1_zone_config_t      *pzone_cfg)
3460:Drivers/BSP/Components/vl53l1cb/modules/vl53l1_api_preset_modes.c **** {
 2404              		.loc 1 3460 1 is_stmt 1 view -0
 2405              		.cfi_startproc
 2406              		@ args = 16, pretend = 0, frame = 0
 2407              		@ frame_needed = 0, uses_anonymous_args = 0
 2408              		.loc 1 3460 1 is_stmt 0 view .LVU1004
 2409 0000 30B5     		push	{r4, r5, lr}
 2410              		.cfi_def_cfa_offset 12
ARM GAS  C:\Temp\ccoVwn9Y.s 			page 104


 2411              		.cfi_offset 4, -12
 2412              		.cfi_offset 5, -8
 2413              		.cfi_offset 14, -4
 2414 0002 85B0     		sub	sp, sp, #20
 2415              		.cfi_def_cfa_offset 32
 2416 0004 099C     		ldr	r4, [sp, #36]
3461:Drivers/BSP/Components/vl53l1cb/modules/vl53l1_api_preset_modes.c **** 
3462:Drivers/BSP/Components/vl53l1cb/modules/vl53l1_api_preset_modes.c **** 
3463:Drivers/BSP/Components/vl53l1cb/modules/vl53l1_api_preset_modes.c **** 	VL53L1_Error  status = VL53L1_ERROR_NONE;
 2417              		.loc 1 3463 2 is_stmt 1 view .LVU1005
 2418              	.LVL77:
3464:Drivers/BSP/Components/vl53l1cb/modules/vl53l1_api_preset_modes.c **** 
3465:Drivers/BSP/Components/vl53l1cb/modules/vl53l1_api_preset_modes.c **** 	LOG_FUNCTION_START("");
 2419              		.loc 1 3465 24 view .LVU1006
3466:Drivers/BSP/Components/vl53l1cb/modules/vl53l1_api_preset_modes.c **** 
3467:Drivers/BSP/Components/vl53l1cb/modules/vl53l1_api_preset_modes.c **** 
3468:Drivers/BSP/Components/vl53l1cb/modules/vl53l1_api_preset_modes.c **** 
3469:Drivers/BSP/Components/vl53l1cb/modules/vl53l1_api_preset_modes.c **** 	status = VL53L1_preset_mode_standard_ranging(
 2420              		.loc 1 3469 2 view .LVU1007
 2421              		.loc 1 3469 11 is_stmt 0 view .LVU1008
 2422 0006 0B9D     		ldr	r5, [sp, #44]
 2423 0008 0395     		str	r5, [sp, #12]
 2424 000a 0A9D     		ldr	r5, [sp, #40]
 2425 000c 0295     		str	r5, [sp, #8]
 2426 000e 0194     		str	r4, [sp, #4]
 2427 0010 089D     		ldr	r5, [sp, #32]
 2428 0012 0095     		str	r5, [sp]
 2429 0014 FFF7FEFF 		bl	VL53L1_preset_mode_standard_ranging
 2430              	.LVL78:
3470:Drivers/BSP/Components/vl53l1cb/modules/vl53l1_api_preset_modes.c **** 					pstatic,
3471:Drivers/BSP/Components/vl53l1cb/modules/vl53l1_api_preset_modes.c **** 					phistogram,
3472:Drivers/BSP/Components/vl53l1cb/modules/vl53l1_api_preset_modes.c **** 					pgeneral,
3473:Drivers/BSP/Components/vl53l1cb/modules/vl53l1_api_preset_modes.c **** 					ptiming,
3474:Drivers/BSP/Components/vl53l1cb/modules/vl53l1_api_preset_modes.c **** 					pdynamic,
3475:Drivers/BSP/Components/vl53l1cb/modules/vl53l1_api_preset_modes.c **** 					psystem,
3476:Drivers/BSP/Components/vl53l1cb/modules/vl53l1_api_preset_modes.c **** 					ptuning_parms,
3477:Drivers/BSP/Components/vl53l1cb/modules/vl53l1_api_preset_modes.c **** 					pzone_cfg);
3478:Drivers/BSP/Components/vl53l1cb/modules/vl53l1_api_preset_modes.c **** 
3479:Drivers/BSP/Components/vl53l1cb/modules/vl53l1_api_preset_modes.c **** 
3480:Drivers/BSP/Components/vl53l1cb/modules/vl53l1_api_preset_modes.c **** 
3481:Drivers/BSP/Components/vl53l1cb/modules/vl53l1_api_preset_modes.c **** 	if (status == VL53L1_ERROR_NONE)
 2431              		.loc 1 3481 2 is_stmt 1 view .LVU1009
 2432              		.loc 1 3481 5 is_stmt 0 view .LVU1010
 2433 0018 08B9     		cbnz	r0, .L58
3482:Drivers/BSP/Components/vl53l1cb/modules/vl53l1_api_preset_modes.c **** 
3483:Drivers/BSP/Components/vl53l1cb/modules/vl53l1_api_preset_modes.c **** 		psystem->system__stream_count_ctrl = 0x01;
 2434              		.loc 1 3483 3 is_stmt 1 view .LVU1011
 2435              		.loc 1 3483 38 is_stmt 0 view .LVU1012
 2436 001a 0123     		movs	r3, #1
 2437 001c 6370     		strb	r3, [r4, #1]
 2438              	.L58:
3484:Drivers/BSP/Components/vl53l1cb/modules/vl53l1_api_preset_modes.c **** 
3485:Drivers/BSP/Components/vl53l1cb/modules/vl53l1_api_preset_modes.c **** 	LOG_FUNCTION_END(status);
 2439              		.loc 1 3485 26 is_stmt 1 view .LVU1013
3486:Drivers/BSP/Components/vl53l1cb/modules/vl53l1_api_preset_modes.c **** 
3487:Drivers/BSP/Components/vl53l1cb/modules/vl53l1_api_preset_modes.c **** 	return status;
 2440              		.loc 1 3487 2 view .LVU1014
ARM GAS  C:\Temp\ccoVwn9Y.s 			page 105


3488:Drivers/BSP/Components/vl53l1cb/modules/vl53l1_api_preset_modes.c **** }
 2441              		.loc 1 3488 1 is_stmt 0 view .LVU1015
 2442 001e 05B0     		add	sp, sp, #20
 2443              		.cfi_def_cfa_offset 12
 2444              		@ sp needed
 2445 0020 30BD     		pop	{r4, r5, pc}
 2446              		.loc 1 3488 1 view .LVU1016
 2447              		.cfi_endproc
 2448              	.LFE48:
 2450              		.section	.text.VL53L1_copy_hist_cfg_to_static_cfg,"ax",%progbits
 2451              		.align	1
 2452              		.global	VL53L1_copy_hist_cfg_to_static_cfg
 2453              		.syntax unified
 2454              		.thumb
 2455              		.thumb_func
 2457              	VL53L1_copy_hist_cfg_to_static_cfg:
 2458              	.LVL79:
 2459              	.LFB49:
3489:Drivers/BSP/Components/vl53l1cb/modules/vl53l1_api_preset_modes.c **** 
3490:Drivers/BSP/Components/vl53l1cb/modules/vl53l1_api_preset_modes.c **** 
3491:Drivers/BSP/Components/vl53l1cb/modules/vl53l1_api_preset_modes.c **** void VL53L1_copy_hist_cfg_to_static_cfg(
3492:Drivers/BSP/Components/vl53l1cb/modules/vl53l1_api_preset_modes.c **** 	VL53L1_histogram_config_t *phistogram,
3493:Drivers/BSP/Components/vl53l1cb/modules/vl53l1_api_preset_modes.c **** 	VL53L1_static_config_t    *pstatic,
3494:Drivers/BSP/Components/vl53l1cb/modules/vl53l1_api_preset_modes.c **** 	VL53L1_general_config_t   *pgeneral,
3495:Drivers/BSP/Components/vl53l1cb/modules/vl53l1_api_preset_modes.c **** 	VL53L1_timing_config_t    *ptiming,
3496:Drivers/BSP/Components/vl53l1cb/modules/vl53l1_api_preset_modes.c **** 	VL53L1_dynamic_config_t   *pdynamic)
3497:Drivers/BSP/Components/vl53l1cb/modules/vl53l1_api_preset_modes.c **** {
 2460              		.loc 1 3497 1 is_stmt 1 view -0
 2461              		.cfi_startproc
 2462              		@ args = 4, pretend = 0, frame = 0
 2463              		@ frame_needed = 0, uses_anonymous_args = 0
 2464              		.loc 1 3497 1 is_stmt 0 view .LVU1018
 2465 0000 00B5     		push	{lr}
 2466              		.cfi_def_cfa_offset 4
 2467              		.cfi_offset 14, -4
 2468 0002 019A     		ldr	r2, [sp, #4]
 2469              	.LVL80:
3498:Drivers/BSP/Components/vl53l1cb/modules/vl53l1_api_preset_modes.c **** 
3499:Drivers/BSP/Components/vl53l1cb/modules/vl53l1_api_preset_modes.c **** 
3500:Drivers/BSP/Components/vl53l1cb/modules/vl53l1_api_preset_modes.c **** 	LOG_FUNCTION_START("");
 2470              		.loc 1 3500 24 is_stmt 1 view .LVU1019
3501:Drivers/BSP/Components/vl53l1cb/modules/vl53l1_api_preset_modes.c **** 
3502:Drivers/BSP/Components/vl53l1cb/modules/vl53l1_api_preset_modes.c **** 	SUPPRESS_UNUSED_WARNING(pgeneral);
 2471              		.loc 1 3502 2 view .LVU1020
3503:Drivers/BSP/Components/vl53l1cb/modules/vl53l1_api_preset_modes.c **** 
3504:Drivers/BSP/Components/vl53l1cb/modules/vl53l1_api_preset_modes.c **** 	pstatic->sigma_estimator__effective_pulse_width_ns =
 2472              		.loc 1 3504 2 view .LVU1021
3505:Drivers/BSP/Components/vl53l1cb/modules/vl53l1_api_preset_modes.c **** 			phistogram->histogram_config__high_amb_even_bin_0_1;
 2473              		.loc 1 3505 14 is_stmt 0 view .LVU1022
 2474 0004 90F80FC0 		ldrb	ip, [r0, #15]	@ zero_extendqisi2
3504:Drivers/BSP/Components/vl53l1cb/modules/vl53l1_api_preset_modes.c **** 			phistogram->histogram_config__high_amb_even_bin_0_1;
 2475              		.loc 1 3504 53 view .LVU1023
 2476 0008 81F812C0 		strb	ip, [r1, #18]
3506:Drivers/BSP/Components/vl53l1cb/modules/vl53l1_api_preset_modes.c **** 	pstatic->sigma_estimator__effective_ambient_width_ns =
 2477              		.loc 1 3506 2 is_stmt 1 view .LVU1024
3507:Drivers/BSP/Components/vl53l1cb/modules/vl53l1_api_preset_modes.c **** 			phistogram->histogram_config__high_amb_even_bin_2_3;
 2478              		.loc 1 3507 14 is_stmt 0 view .LVU1025
ARM GAS  C:\Temp\ccoVwn9Y.s 			page 106


 2479 000c 90F810C0 		ldrb	ip, [r0, #16]	@ zero_extendqisi2
3506:Drivers/BSP/Components/vl53l1cb/modules/vl53l1_api_preset_modes.c **** 	pstatic->sigma_estimator__effective_ambient_width_ns =
 2480              		.loc 1 3506 55 view .LVU1026
 2481 0010 81F813C0 		strb	ip, [r1, #19]
3508:Drivers/BSP/Components/vl53l1cb/modules/vl53l1_api_preset_modes.c **** 	pstatic->sigma_estimator__sigma_ref_mm =
 2482              		.loc 1 3508 2 is_stmt 1 view .LVU1027
3509:Drivers/BSP/Components/vl53l1cb/modules/vl53l1_api_preset_modes.c **** 			phistogram->histogram_config__high_amb_even_bin_4_5;
 2483              		.loc 1 3509 14 is_stmt 0 view .LVU1028
 2484 0014 90F811C0 		ldrb	ip, [r0, #17]	@ zero_extendqisi2
3508:Drivers/BSP/Components/vl53l1cb/modules/vl53l1_api_preset_modes.c **** 	pstatic->sigma_estimator__sigma_ref_mm =
 2485              		.loc 1 3508 41 view .LVU1029
 2486 0018 81F814C0 		strb	ip, [r1, #20]
3510:Drivers/BSP/Components/vl53l1cb/modules/vl53l1_api_preset_modes.c **** 
3511:Drivers/BSP/Components/vl53l1cb/modules/vl53l1_api_preset_modes.c **** 	pstatic->algo__crosstalk_compensation_valid_height_mm =
 2487              		.loc 1 3511 2 is_stmt 1 view .LVU1030
3512:Drivers/BSP/Components/vl53l1cb/modules/vl53l1_api_preset_modes.c **** 			phistogram->histogram_config__high_amb_odd_bin_0_1;
 2488              		.loc 1 3512 14 is_stmt 0 view .LVU1031
 2489 001c 90F812C0 		ldrb	ip, [r0, #18]	@ zero_extendqisi2
3511:Drivers/BSP/Components/vl53l1cb/modules/vl53l1_api_preset_modes.c **** 			phistogram->histogram_config__high_amb_odd_bin_0_1;
 2490              		.loc 1 3511 56 view .LVU1032
 2491 0020 81F815C0 		strb	ip, [r1, #21]
3513:Drivers/BSP/Components/vl53l1cb/modules/vl53l1_api_preset_modes.c **** 
3514:Drivers/BSP/Components/vl53l1cb/modules/vl53l1_api_preset_modes.c **** 	pstatic->spare_host_config__static_config_spare_0 =
 2492              		.loc 1 3514 2 is_stmt 1 view .LVU1033
3515:Drivers/BSP/Components/vl53l1cb/modules/vl53l1_api_preset_modes.c **** 			phistogram->histogram_config__high_amb_odd_bin_2_3;
 2493              		.loc 1 3515 14 is_stmt 0 view .LVU1034
 2494 0024 90F813C0 		ldrb	ip, [r0, #19]	@ zero_extendqisi2
3514:Drivers/BSP/Components/vl53l1cb/modules/vl53l1_api_preset_modes.c **** 			phistogram->histogram_config__high_amb_odd_bin_2_3;
 2495              		.loc 1 3514 52 view .LVU1035
 2496 0028 81F816C0 		strb	ip, [r1, #22]
3516:Drivers/BSP/Components/vl53l1cb/modules/vl53l1_api_preset_modes.c **** 	pstatic->spare_host_config__static_config_spare_1 =
 2497              		.loc 1 3516 2 is_stmt 1 view .LVU1036
3517:Drivers/BSP/Components/vl53l1cb/modules/vl53l1_api_preset_modes.c **** 			phistogram->histogram_config__high_amb_odd_bin_4_5;
 2498              		.loc 1 3517 14 is_stmt 0 view .LVU1037
 2499 002c 90F814C0 		ldrb	ip, [r0, #20]	@ zero_extendqisi2
3516:Drivers/BSP/Components/vl53l1cb/modules/vl53l1_api_preset_modes.c **** 	pstatic->spare_host_config__static_config_spare_1 =
 2500              		.loc 1 3516 52 view .LVU1038
 2501 0030 81F817C0 		strb	ip, [r1, #23]
3518:Drivers/BSP/Components/vl53l1cb/modules/vl53l1_api_preset_modes.c **** 
3519:Drivers/BSP/Components/vl53l1cb/modules/vl53l1_api_preset_modes.c **** 	pstatic->algo__range_ignore_threshold_mcps =
 2502              		.loc 1 3519 2 is_stmt 1 view .LVU1039
3520:Drivers/BSP/Components/vl53l1cb/modules/vl53l1_api_preset_modes.c **** 		(((uint16_t)phistogram->histogram_config__mid_amb_even_bin_0_1)
 2503              		.loc 1 3520 25 is_stmt 0 view .LVU1040
 2504 0034 90F807E0 		ldrb	lr, [r0, #7]	@ zero_extendqisi2
3521:Drivers/BSP/Components/vl53l1cb/modules/vl53l1_api_preset_modes.c **** 				<< 8)
3522:Drivers/BSP/Components/vl53l1cb/modules/vl53l1_api_preset_modes.c **** 		+ (uint16_t)phistogram->histogram_config__mid_amb_even_bin_2_3;
 2505              		.loc 1 3522 25 view .LVU1041
 2506 0038 90F808C0 		ldrb	ip, [r0, #8]	@ zero_extendqisi2
 2507              		.loc 1 3522 3 view .LVU1042
 2508 003c 0CEB0E2C 		add	ip, ip, lr, lsl #8
3519:Drivers/BSP/Components/vl53l1cb/modules/vl53l1_api_preset_modes.c **** 		(((uint16_t)phistogram->histogram_config__mid_amb_even_bin_0_1)
 2509              		.loc 1 3519 45 view .LVU1043
 2510 0040 A1F818C0 		strh	ip, [r1, #24]	@ movhi
3523:Drivers/BSP/Components/vl53l1cb/modules/vl53l1_api_preset_modes.c **** 
3524:Drivers/BSP/Components/vl53l1cb/modules/vl53l1_api_preset_modes.c **** 	pstatic->algo__range_ignore_valid_height_mm =
 2511              		.loc 1 3524 2 is_stmt 1 view .LVU1044
3525:Drivers/BSP/Components/vl53l1cb/modules/vl53l1_api_preset_modes.c **** 			phistogram->histogram_config__mid_amb_even_bin_4_5;
ARM GAS  C:\Temp\ccoVwn9Y.s 			page 107


 2512              		.loc 1 3525 14 is_stmt 0 view .LVU1045
 2513 0044 90F809C0 		ldrb	ip, [r0, #9]	@ zero_extendqisi2
3524:Drivers/BSP/Components/vl53l1cb/modules/vl53l1_api_preset_modes.c **** 			phistogram->histogram_config__mid_amb_even_bin_4_5;
 2514              		.loc 1 3524 46 view .LVU1046
 2515 0048 81F81AC0 		strb	ip, [r1, #26]
3526:Drivers/BSP/Components/vl53l1cb/modules/vl53l1_api_preset_modes.c **** 	pstatic->algo__range_min_clip =
 2516              		.loc 1 3526 2 is_stmt 1 view .LVU1047
3527:Drivers/BSP/Components/vl53l1cb/modules/vl53l1_api_preset_modes.c **** 			phistogram->histogram_config__mid_amb_odd_bin_0_1;
 2517              		.loc 1 3527 14 is_stmt 0 view .LVU1048
 2518 004c 90F80AC0 		ldrb	ip, [r0, #10]	@ zero_extendqisi2
3526:Drivers/BSP/Components/vl53l1cb/modules/vl53l1_api_preset_modes.c **** 	pstatic->algo__range_min_clip =
 2519              		.loc 1 3526 32 view .LVU1049
 2520 0050 81F81BC0 		strb	ip, [r1, #27]
3528:Drivers/BSP/Components/vl53l1cb/modules/vl53l1_api_preset_modes.c **** 	pstatic->algo__consistency_check__tolerance =
 2521              		.loc 1 3528 2 is_stmt 1 view .LVU1050
3529:Drivers/BSP/Components/vl53l1cb/modules/vl53l1_api_preset_modes.c **** 			phistogram->histogram_config__mid_amb_odd_bin_2;
 2522              		.loc 1 3529 14 is_stmt 0 view .LVU1051
 2523 0054 90F80BC0 		ldrb	ip, [r0, #11]	@ zero_extendqisi2
3528:Drivers/BSP/Components/vl53l1cb/modules/vl53l1_api_preset_modes.c **** 	pstatic->algo__consistency_check__tolerance =
 2524              		.loc 1 3528 46 view .LVU1052
 2525 0058 81F81CC0 		strb	ip, [r1, #28]
3530:Drivers/BSP/Components/vl53l1cb/modules/vl53l1_api_preset_modes.c **** 
3531:Drivers/BSP/Components/vl53l1cb/modules/vl53l1_api_preset_modes.c **** 	pstatic->spare_host_config__static_config_spare_2 =
 2526              		.loc 1 3531 2 is_stmt 1 view .LVU1053
3532:Drivers/BSP/Components/vl53l1cb/modules/vl53l1_api_preset_modes.c **** 			phistogram->histogram_config__mid_amb_odd_bin_3_4;
 2527              		.loc 1 3532 14 is_stmt 0 view .LVU1054
 2528 005c 90F80CC0 		ldrb	ip, [r0, #12]	@ zero_extendqisi2
3531:Drivers/BSP/Components/vl53l1cb/modules/vl53l1_api_preset_modes.c **** 			phistogram->histogram_config__mid_amb_odd_bin_3_4;
 2529              		.loc 1 3531 52 view .LVU1055
 2530 0060 81F81DC0 		strb	ip, [r1, #29]
3533:Drivers/BSP/Components/vl53l1cb/modules/vl53l1_api_preset_modes.c **** 	pstatic->sd_config__reset_stages_msb =
 2531              		.loc 1 3533 2 is_stmt 1 view .LVU1056
3534:Drivers/BSP/Components/vl53l1cb/modules/vl53l1_api_preset_modes.c **** 			phistogram->histogram_config__mid_amb_odd_bin_5;
 2532              		.loc 1 3534 14 is_stmt 0 view .LVU1057
 2533 0064 90F80DC0 		ldrb	ip, [r0, #13]	@ zero_extendqisi2
3533:Drivers/BSP/Components/vl53l1cb/modules/vl53l1_api_preset_modes.c **** 	pstatic->sd_config__reset_stages_msb =
 2534              		.loc 1 3533 39 view .LVU1058
 2535 0068 81F81EC0 		strb	ip, [r1, #30]
3535:Drivers/BSP/Components/vl53l1cb/modules/vl53l1_api_preset_modes.c **** 
3536:Drivers/BSP/Components/vl53l1cb/modules/vl53l1_api_preset_modes.c **** 	pstatic->sd_config__reset_stages_lsb =
 2536              		.loc 1 3536 2 is_stmt 1 view .LVU1059
3537:Drivers/BSP/Components/vl53l1cb/modules/vl53l1_api_preset_modes.c **** 			phistogram->histogram_config__user_bin_offset;
 2537              		.loc 1 3537 14 is_stmt 0 view .LVU1060
 2538 006c 90F80EC0 		ldrb	ip, [r0, #14]	@ zero_extendqisi2
3536:Drivers/BSP/Components/vl53l1cb/modules/vl53l1_api_preset_modes.c **** 			phistogram->histogram_config__user_bin_offset;
 2539              		.loc 1 3536 39 view .LVU1061
 2540 0070 81F81FC0 		strb	ip, [r1, #31]
3538:Drivers/BSP/Components/vl53l1cb/modules/vl53l1_api_preset_modes.c **** 
3539:Drivers/BSP/Components/vl53l1cb/modules/vl53l1_api_preset_modes.c **** 	ptiming->range_config__sigma_thresh =
 2541              		.loc 1 3539 2 is_stmt 1 view .LVU1062
3540:Drivers/BSP/Components/vl53l1cb/modules/vl53l1_api_preset_modes.c **** 		(((uint16_t)phistogram->histogram_config__low_amb_even_bin_0_1)
 2542              		.loc 1 3540 25 is_stmt 0 view .LVU1063
 2543 0074 90F801C0 		ldrb	ip, [r0, #1]	@ zero_extendqisi2
3541:Drivers/BSP/Components/vl53l1cb/modules/vl53l1_api_preset_modes.c **** 				<< 8)
3542:Drivers/BSP/Components/vl53l1cb/modules/vl53l1_api_preset_modes.c **** 		+ (uint16_t)phistogram->histogram_config__low_amb_even_bin_2_3;
 2544              		.loc 1 3542 25 view .LVU1064
 2545 0078 8178     		ldrb	r1, [r0, #2]	@ zero_extendqisi2
ARM GAS  C:\Temp\ccoVwn9Y.s 			page 108


 2546              	.LVL81:
 2547              		.loc 1 3542 3 view .LVU1065
 2548 007a 01EB0C21 		add	r1, r1, ip, lsl #8
3539:Drivers/BSP/Components/vl53l1cb/modules/vl53l1_api_preset_modes.c **** 		(((uint16_t)phistogram->histogram_config__low_amb_even_bin_0_1)
 2549              		.loc 1 3539 38 view .LVU1066
 2550 007e 5981     		strh	r1, [r3, #10]	@ movhi
3543:Drivers/BSP/Components/vl53l1cb/modules/vl53l1_api_preset_modes.c **** 
3544:Drivers/BSP/Components/vl53l1cb/modules/vl53l1_api_preset_modes.c **** 	ptiming->range_config__min_count_rate_rtn_limit_mcps =
 2551              		.loc 1 3544 2 is_stmt 1 view .LVU1067
3545:Drivers/BSP/Components/vl53l1cb/modules/vl53l1_api_preset_modes.c **** 		(((uint16_t)phistogram->histogram_config__low_amb_even_bin_4_5)
 2552              		.loc 1 3545 25 is_stmt 0 view .LVU1068
 2553 0080 90F803C0 		ldrb	ip, [r0, #3]	@ zero_extendqisi2
3546:Drivers/BSP/Components/vl53l1cb/modules/vl53l1_api_preset_modes.c **** 				<< 8)
3547:Drivers/BSP/Components/vl53l1cb/modules/vl53l1_api_preset_modes.c **** 		+ (uint16_t)phistogram->histogram_config__low_amb_odd_bin_0_1;
 2554              		.loc 1 3547 25 view .LVU1069
 2555 0084 0179     		ldrb	r1, [r0, #4]	@ zero_extendqisi2
 2556              		.loc 1 3547 3 view .LVU1070
 2557 0086 01EB0C21 		add	r1, r1, ip, lsl #8
3544:Drivers/BSP/Components/vl53l1cb/modules/vl53l1_api_preset_modes.c **** 		(((uint16_t)phistogram->histogram_config__low_amb_even_bin_4_5)
 2558              		.loc 1 3544 55 view .LVU1071
 2559 008a 9981     		strh	r1, [r3, #12]	@ movhi
3548:Drivers/BSP/Components/vl53l1cb/modules/vl53l1_api_preset_modes.c **** 
3549:Drivers/BSP/Components/vl53l1cb/modules/vl53l1_api_preset_modes.c **** 	ptiming->range_config__valid_phase_low =
 2560              		.loc 1 3549 2 is_stmt 1 view .LVU1072
3550:Drivers/BSP/Components/vl53l1cb/modules/vl53l1_api_preset_modes.c **** 			phistogram->histogram_config__low_amb_odd_bin_2_3;
 2561              		.loc 1 3550 14 is_stmt 0 view .LVU1073
 2562 008c 4179     		ldrb	r1, [r0, #5]	@ zero_extendqisi2
3549:Drivers/BSP/Components/vl53l1cb/modules/vl53l1_api_preset_modes.c **** 			phistogram->histogram_config__low_amb_odd_bin_2_3;
 2563              		.loc 1 3549 41 view .LVU1074
 2564 008e 9973     		strb	r1, [r3, #14]
3551:Drivers/BSP/Components/vl53l1cb/modules/vl53l1_api_preset_modes.c **** 	ptiming->range_config__valid_phase_high =
 2565              		.loc 1 3551 2 is_stmt 1 view .LVU1075
3552:Drivers/BSP/Components/vl53l1cb/modules/vl53l1_api_preset_modes.c **** 			phistogram->histogram_config__low_amb_odd_bin_4_5;
 2566              		.loc 1 3552 14 is_stmt 0 view .LVU1076
 2567 0090 8179     		ldrb	r1, [r0, #6]	@ zero_extendqisi2
3551:Drivers/BSP/Components/vl53l1cb/modules/vl53l1_api_preset_modes.c **** 	ptiming->range_config__valid_phase_high =
 2568              		.loc 1 3551 42 view .LVU1077
 2569 0092 D973     		strb	r1, [r3, #15]
3553:Drivers/BSP/Components/vl53l1cb/modules/vl53l1_api_preset_modes.c **** 
3554:Drivers/BSP/Components/vl53l1cb/modules/vl53l1_api_preset_modes.c **** 	pdynamic->system__thresh_high =
 2570              		.loc 1 3554 2 is_stmt 1 view .LVU1078
3555:Drivers/BSP/Components/vl53l1cb/modules/vl53l1_api_preset_modes.c **** 			phistogram->histogram_config__amb_thresh_low;
 2571              		.loc 1 3555 14 is_stmt 0 view .LVU1079
 2572 0094 C38A     		ldrh	r3, [r0, #22]
 2573              	.LVL82:
3554:Drivers/BSP/Components/vl53l1cb/modules/vl53l1_api_preset_modes.c **** 			phistogram->histogram_config__amb_thresh_low;
 2574              		.loc 1 3554 32 view .LVU1080
 2575 0096 5380     		strh	r3, [r2, #2]	@ movhi
3556:Drivers/BSP/Components/vl53l1cb/modules/vl53l1_api_preset_modes.c **** 
3557:Drivers/BSP/Components/vl53l1cb/modules/vl53l1_api_preset_modes.c **** 	pdynamic->system__thresh_low =
 2576              		.loc 1 3557 2 is_stmt 1 view .LVU1081
3558:Drivers/BSP/Components/vl53l1cb/modules/vl53l1_api_preset_modes.c **** 			phistogram->histogram_config__amb_thresh_high;
 2577              		.loc 1 3558 14 is_stmt 0 view .LVU1082
 2578 0098 038B     		ldrh	r3, [r0, #24]
3557:Drivers/BSP/Components/vl53l1cb/modules/vl53l1_api_preset_modes.c **** 			phistogram->histogram_config__amb_thresh_high;
 2579              		.loc 1 3557 31 view .LVU1083
 2580 009a 9380     		strh	r3, [r2, #4]	@ movhi
ARM GAS  C:\Temp\ccoVwn9Y.s 			page 109


3559:Drivers/BSP/Components/vl53l1cb/modules/vl53l1_api_preset_modes.c **** 
3560:Drivers/BSP/Components/vl53l1cb/modules/vl53l1_api_preset_modes.c **** 	pdynamic->system__enable_xtalk_per_quadrant =
 2581              		.loc 1 3560 2 is_stmt 1 view .LVU1084
3561:Drivers/BSP/Components/vl53l1cb/modules/vl53l1_api_preset_modes.c **** 			phistogram->histogram_config__spad_array_selection;
 2582              		.loc 1 3561 14 is_stmt 0 view .LVU1085
 2583 009c 0378     		ldrb	r3, [r0]	@ zero_extendqisi2
3560:Drivers/BSP/Components/vl53l1cb/modules/vl53l1_api_preset_modes.c **** 			phistogram->histogram_config__spad_array_selection;
 2584              		.loc 1 3560 46 view .LVU1086
 2585 009e 9371     		strb	r3, [r2, #6]
3562:Drivers/BSP/Components/vl53l1cb/modules/vl53l1_api_preset_modes.c **** 
3563:Drivers/BSP/Components/vl53l1cb/modules/vl53l1_api_preset_modes.c **** 	LOG_FUNCTION_END(0);
 2586              		.loc 1 3563 21 is_stmt 1 view .LVU1087
3564:Drivers/BSP/Components/vl53l1cb/modules/vl53l1_api_preset_modes.c **** 
3565:Drivers/BSP/Components/vl53l1cb/modules/vl53l1_api_preset_modes.c **** }
 2587              		.loc 1 3565 1 is_stmt 0 view .LVU1088
 2588 00a0 5DF804FB 		ldr	pc, [sp], #4
 2589              		.loc 1 3565 1 view .LVU1089
 2590              		.cfi_endproc
 2591              	.LFE49:
 2593              		.section	.text.VL53L1_preset_mode_histogram_ranging,"ax",%progbits
 2594              		.align	1
 2595              		.global	VL53L1_preset_mode_histogram_ranging
 2596              		.syntax unified
 2597              		.thumb
 2598              		.thumb_func
 2600              	VL53L1_preset_mode_histogram_ranging:
 2601              	.LVL83:
 2602              	.LFB25:
1593:Drivers/BSP/Components/vl53l1cb/modules/vl53l1_api_preset_modes.c **** 
 2603              		.loc 1 1593 1 is_stmt 1 view -0
 2604              		.cfi_startproc
 2605              		@ args = 20, pretend = 0, frame = 8
 2606              		@ frame_needed = 0, uses_anonymous_args = 0
1593:Drivers/BSP/Components/vl53l1cb/modules/vl53l1_api_preset_modes.c **** 
 2607              		.loc 1 1593 1 is_stmt 0 view .LVU1091
 2608 0000 2DE9F04F 		push	{r4, r5, r6, r7, r8, r9, r10, fp, lr}
 2609              		.cfi_def_cfa_offset 36
 2610              		.cfi_offset 4, -36
 2611              		.cfi_offset 5, -32
 2612              		.cfi_offset 6, -28
 2613              		.cfi_offset 7, -24
 2614              		.cfi_offset 8, -20
 2615              		.cfi_offset 9, -16
 2616              		.cfi_offset 10, -12
 2617              		.cfi_offset 11, -8
 2618              		.cfi_offset 14, -4
 2619 0004 8DB0     		sub	sp, sp, #52
 2620              		.cfi_def_cfa_offset 88
 2621 0006 0B90     		str	r0, [sp, #44]
 2622 0008 8846     		mov	r8, r1
 2623 000a 1546     		mov	r5, r2
 2624 000c 9946     		mov	r9, r3
 2625 000e 169C     		ldr	r4, [sp, #88]
1596:Drivers/BSP/Components/vl53l1cb/modules/vl53l1_api_preset_modes.c **** 
 2626              		.loc 1 1596 2 is_stmt 1 view .LVU1092
 2627              	.LVL84:
1598:Drivers/BSP/Components/vl53l1cb/modules/vl53l1_api_preset_modes.c **** 
ARM GAS  C:\Temp\ccoVwn9Y.s 			page 110


 2628              		.loc 1 1598 24 view .LVU1093
1602:Drivers/BSP/Components/vl53l1cb/modules/vl53l1_api_preset_modes.c **** 		VL53L1_preset_mode_standard_ranging(
 2629              		.loc 1 1602 2 view .LVU1094
1603:Drivers/BSP/Components/vl53l1cb/modules/vl53l1_api_preset_modes.c **** 			pstatic,
 2630              		.loc 1 1603 3 is_stmt 0 view .LVU1095
 2631 0010 1A9B     		ldr	r3, [sp, #104]
 2632              	.LVL85:
1603:Drivers/BSP/Components/vl53l1cb/modules/vl53l1_api_preset_modes.c **** 			pstatic,
 2633              		.loc 1 1603 3 view .LVU1096
 2634 0012 0393     		str	r3, [sp, #12]
 2635 0014 199B     		ldr	r3, [sp, #100]
 2636 0016 0293     		str	r3, [sp, #8]
 2637 0018 189B     		ldr	r3, [sp, #96]
 2638 001a 0193     		str	r3, [sp, #4]
 2639 001c 179B     		ldr	r3, [sp, #92]
 2640 001e 0093     		str	r3, [sp]
 2641 0020 2346     		mov	r3, r4
 2642 0022 4A46     		mov	r2, r9
 2643              	.LVL86:
1603:Drivers/BSP/Components/vl53l1cb/modules/vl53l1_api_preset_modes.c **** 			pstatic,
 2644              		.loc 1 1603 3 view .LVU1097
 2645 0024 2946     		mov	r1, r5
 2646              	.LVL87:
1603:Drivers/BSP/Components/vl53l1cb/modules/vl53l1_api_preset_modes.c **** 			pstatic,
 2647              		.loc 1 1603 3 view .LVU1098
 2648 0026 4046     		mov	r0, r8
 2649              	.LVL88:
1603:Drivers/BSP/Components/vl53l1cb/modules/vl53l1_api_preset_modes.c **** 			pstatic,
 2650              		.loc 1 1603 3 view .LVU1099
 2651 0028 FFF7FEFF 		bl	VL53L1_preset_mode_standard_ranging
 2652              	.LVL89:
1615:Drivers/BSP/Components/vl53l1cb/modules/vl53l1_api_preset_modes.c **** 
 2653              		.loc 1 1615 2 is_stmt 1 view .LVU1100
1615:Drivers/BSP/Components/vl53l1cb/modules/vl53l1_api_preset_modes.c **** 
 2654              		.loc 1 1615 5 is_stmt 0 view .LVU1101
 2655 002c 0A90     		str	r0, [sp, #40]
 2656 002e 18B1     		cbz	r0, .L65
 2657              	.LVL90:
 2658              	.L63:
1696:Drivers/BSP/Components/vl53l1cb/modules/vl53l1_api_preset_modes.c **** 
 2659              		.loc 1 1696 26 is_stmt 1 view .LVU1102
1698:Drivers/BSP/Components/vl53l1cb/modules/vl53l1_api_preset_modes.c **** }
 2660              		.loc 1 1698 2 view .LVU1103
1699:Drivers/BSP/Components/vl53l1cb/modules/vl53l1_api_preset_modes.c **** 
 2661              		.loc 1 1699 1 is_stmt 0 view .LVU1104
 2662 0030 0A98     		ldr	r0, [sp, #40]
 2663 0032 0DB0     		add	sp, sp, #52
 2664              		.cfi_remember_state
 2665              		.cfi_def_cfa_offset 36
 2666              		@ sp needed
 2667 0034 BDE8F08F 		pop	{r4, r5, r6, r7, r8, r9, r10, fp, pc}
 2668              	.LVL91:
 2669              	.L65:
 2670              		.cfi_restore_state
1619:Drivers/BSP/Components/vl53l1cb/modules/vl53l1_api_preset_modes.c **** 
 2671              		.loc 1 1619 3 is_stmt 1 view .LVU1105
1619:Drivers/BSP/Components/vl53l1cb/modules/vl53l1_api_preset_modes.c **** 
ARM GAS  C:\Temp\ccoVwn9Y.s 			page 111


 2672              		.loc 1 1619 47 is_stmt 0 view .LVU1106
 2673 0038 4FF4A053 		mov	r3, #5120
 2674 003c A8F80030 		strh	r3, [r8]	@ movhi
1623:Drivers/BSP/Components/vl53l1cb/modules/vl53l1_api_preset_modes.c **** 				7, 0, 1, 2, 3, 4,
 2675              		.loc 1 1623 3 is_stmt 1 view .LVU1107
 2676 0040 0895     		str	r5, [sp, #32]
 2677 0042 0523     		movs	r3, #5
 2678 0044 0793     		str	r3, [sp, #28]
 2679 0046 4FF0040B 		mov	fp, #4
 2680 004a CDF818B0 		str	fp, [sp, #24]
 2681 004e 0326     		movs	r6, #3
 2682 0050 0596     		str	r6, [sp, #20]
 2683 0052 0227     		movs	r7, #2
 2684 0054 0497     		str	r7, [sp, #16]
 2685 0056 0123     		movs	r3, #1
 2686 0058 0393     		str	r3, [sp, #12]
 2687 005a 4FF0000A 		mov	r10, #0
 2688 005e CDF808A0 		str	r10, [sp, #8]
 2689 0062 CDF804B0 		str	fp, [sp, #4]
 2690 0066 0096     		str	r6, [sp]
 2691 0068 3B46     		mov	r3, r7
 2692 006a 0122     		movs	r2, #1
 2693 006c 5146     		mov	r1, r10
 2694 006e 0720     		movs	r0, #7
 2695              	.LVL92:
1623:Drivers/BSP/Components/vl53l1cb/modules/vl53l1_api_preset_modes.c **** 				7, 0, 1, 2, 3, 4,
 2696              		.loc 1 1623 3 is_stmt 0 view .LVU1108
 2697 0070 FFF7FEFF 		bl	VL53L1_init_histogram_config_structure
 2698              	.LVL93:
1629:Drivers/BSP/Components/vl53l1cb/modules/vl53l1_api_preset_modes.c **** 				7, 0, 1, 2, 3, 4,
 2699              		.loc 1 1629 3 is_stmt 1 view .LVU1109
 2700 0074 1A9B     		ldr	r3, [sp, #104]
 2701 0076 3B44     		add	r3, r3, r7
 2702 0078 0893     		str	r3, [sp, #32]
 2703 007a 0523     		movs	r3, #5
 2704 007c 0793     		str	r3, [sp, #28]
 2705 007e CDF818B0 		str	fp, [sp, #24]
 2706 0082 0596     		str	r6, [sp, #20]
 2707 0084 0497     		str	r7, [sp, #16]
 2708 0086 0123     		movs	r3, #1
 2709 0088 0393     		str	r3, [sp, #12]
 2710 008a CDF808A0 		str	r10, [sp, #8]
 2711 008e CDF804B0 		str	fp, [sp, #4]
 2712 0092 0096     		str	r6, [sp]
 2713 0094 3B46     		mov	r3, r7
 2714 0096 0122     		movs	r2, #1
 2715 0098 5146     		mov	r1, r10
 2716 009a 0720     		movs	r0, #7
 2717 009c FFF7FEFF 		bl	VL53L1_init_histogram_multizone_config_structure
 2718              	.LVL94:
1637:Drivers/BSP/Components/vl53l1cb/modules/vl53l1_api_preset_modes.c **** 		ptiming->range_config__vcsel_period_b = 0x0B;
 2719              		.loc 1 1637 3 view .LVU1110
1637:Drivers/BSP/Components/vl53l1cb/modules/vl53l1_api_preset_modes.c **** 		ptiming->range_config__vcsel_period_b = 0x0B;
 2720              		.loc 1 1637 41 is_stmt 0 view .LVU1111
 2721 00a0 0922     		movs	r2, #9
 2722 00a2 A271     		strb	r2, [r4, #6]
1638:Drivers/BSP/Components/vl53l1cb/modules/vl53l1_api_preset_modes.c **** 		pdynamic->sd_config__woi_sd0 = 0x09;
ARM GAS  C:\Temp\ccoVwn9Y.s 			page 112


 2723              		.loc 1 1638 3 is_stmt 1 view .LVU1112
1638:Drivers/BSP/Components/vl53l1cb/modules/vl53l1_api_preset_modes.c **** 		pdynamic->sd_config__woi_sd0 = 0x09;
 2724              		.loc 1 1638 41 is_stmt 0 view .LVU1113
 2725 00a4 0B23     		movs	r3, #11
 2726 00a6 6372     		strb	r3, [r4, #9]
1639:Drivers/BSP/Components/vl53l1cb/modules/vl53l1_api_preset_modes.c **** 		pdynamic->sd_config__woi_sd1 = 0x0B;
 2727              		.loc 1 1639 3 is_stmt 1 view .LVU1114
1639:Drivers/BSP/Components/vl53l1cb/modules/vl53l1_api_preset_modes.c **** 		pdynamic->sd_config__woi_sd1 = 0x0B;
 2728              		.loc 1 1639 32 is_stmt 0 view .LVU1115
 2729 00a8 1799     		ldr	r1, [sp, #92]
 2730 00aa 0A72     		strb	r2, [r1, #8]
1640:Drivers/BSP/Components/vl53l1cb/modules/vl53l1_api_preset_modes.c **** 
 2731              		.loc 1 1640 3 is_stmt 1 view .LVU1116
1640:Drivers/BSP/Components/vl53l1cb/modules/vl53l1_api_preset_modes.c **** 
 2732              		.loc 1 1640 32 is_stmt 0 view .LVU1117
 2733 00ac 4B72     		strb	r3, [r1, #9]
1645:Drivers/BSP/Components/vl53l1cb/modules/vl53l1_api_preset_modes.c **** 		ptiming->mm_config__timeout_macrop_a_lo = 0x20;
 2734              		.loc 1 1645 3 is_stmt 1 view .LVU1118
1645:Drivers/BSP/Components/vl53l1cb/modules/vl53l1_api_preset_modes.c **** 		ptiming->mm_config__timeout_macrop_a_lo = 0x20;
 2735              		.loc 1 1645 43 is_stmt 0 view .LVU1119
 2736 00ae 84F800A0 		strb	r10, [r4]
1646:Drivers/BSP/Components/vl53l1cb/modules/vl53l1_api_preset_modes.c **** 		ptiming->mm_config__timeout_macrop_b_hi = 0x00;
 2737              		.loc 1 1646 3 is_stmt 1 view .LVU1120
1646:Drivers/BSP/Components/vl53l1cb/modules/vl53l1_api_preset_modes.c **** 		ptiming->mm_config__timeout_macrop_b_hi = 0x00;
 2738              		.loc 1 1646 43 is_stmt 0 view .LVU1121
 2739 00b2 2023     		movs	r3, #32
 2740 00b4 6370     		strb	r3, [r4, #1]
1647:Drivers/BSP/Components/vl53l1cb/modules/vl53l1_api_preset_modes.c **** 		ptiming->mm_config__timeout_macrop_b_lo = 0x1A;
 2741              		.loc 1 1647 3 is_stmt 1 view .LVU1122
1647:Drivers/BSP/Components/vl53l1cb/modules/vl53l1_api_preset_modes.c **** 		ptiming->mm_config__timeout_macrop_b_lo = 0x1A;
 2742              		.loc 1 1647 43 is_stmt 0 view .LVU1123
 2743 00b6 84F802A0 		strb	r10, [r4, #2]
1648:Drivers/BSP/Components/vl53l1cb/modules/vl53l1_api_preset_modes.c **** 
 2744              		.loc 1 1648 3 is_stmt 1 view .LVU1124
1648:Drivers/BSP/Components/vl53l1cb/modules/vl53l1_api_preset_modes.c **** 
 2745              		.loc 1 1648 43 is_stmt 0 view .LVU1125
 2746 00ba 1A23     		movs	r3, #26
 2747 00bc E370     		strb	r3, [r4, #3]
1651:Drivers/BSP/Components/vl53l1cb/modules/vl53l1_api_preset_modes.c **** 		ptiming->range_config__timeout_macrop_a_lo = 0x28;
 2748              		.loc 1 1651 3 is_stmt 1 view .LVU1126
1651:Drivers/BSP/Components/vl53l1cb/modules/vl53l1_api_preset_modes.c **** 		ptiming->range_config__timeout_macrop_a_lo = 0x28;
 2749              		.loc 1 1651 46 is_stmt 0 view .LVU1127
 2750 00be 84F804A0 		strb	r10, [r4, #4]
1652:Drivers/BSP/Components/vl53l1cb/modules/vl53l1_api_preset_modes.c **** 
 2751              		.loc 1 1652 3 is_stmt 1 view .LVU1128
1652:Drivers/BSP/Components/vl53l1cb/modules/vl53l1_api_preset_modes.c **** 
 2752              		.loc 1 1652 46 is_stmt 0 view .LVU1129
 2753 00c2 2823     		movs	r3, #40
 2754 00c4 6371     		strb	r3, [r4, #5]
1655:Drivers/BSP/Components/vl53l1cb/modules/vl53l1_api_preset_modes.c **** 		ptiming->range_config__timeout_macrop_b_lo = 0x21;
 2755              		.loc 1 1655 3 is_stmt 1 view .LVU1130
1655:Drivers/BSP/Components/vl53l1cb/modules/vl53l1_api_preset_modes.c **** 		ptiming->range_config__timeout_macrop_b_lo = 0x21;
 2756              		.loc 1 1655 46 is_stmt 0 view .LVU1131
 2757 00c6 84F807A0 		strb	r10, [r4, #7]
1656:Drivers/BSP/Components/vl53l1cb/modules/vl53l1_api_preset_modes.c **** 
 2758              		.loc 1 1656 3 is_stmt 1 view .LVU1132
1656:Drivers/BSP/Components/vl53l1cb/modules/vl53l1_api_preset_modes.c **** 
ARM GAS  C:\Temp\ccoVwn9Y.s 			page 113


 2759              		.loc 1 1656 46 is_stmt 0 view .LVU1133
 2760 00ca 2123     		movs	r3, #33
 2761 00cc 2372     		strb	r3, [r4, #8]
1659:Drivers/BSP/Components/vl53l1cb/modules/vl53l1_api_preset_modes.c **** 
 2762              		.loc 1 1659 3 is_stmt 1 view .LVU1134
1659:Drivers/BSP/Components/vl53l1cb/modules/vl53l1_api_preset_modes.c **** 
 2763              		.loc 1 1659 45 is_stmt 0 view .LVU1135
 2764 00ce F523     		movs	r3, #245
 2765 00d0 89F80730 		strb	r3, [r9, #7]
1663:Drivers/BSP/Components/vl53l1cb/modules/vl53l1_api_preset_modes.c **** 		phistpostprocess->valid_phase_high = 0x88;
 2766              		.loc 1 1663 3 is_stmt 1 view .LVU1136
1663:Drivers/BSP/Components/vl53l1cb/modules/vl53l1_api_preset_modes.c **** 		phistpostprocess->valid_phase_high = 0x88;
 2767              		.loc 1 1663 37 is_stmt 0 view .LVU1137
 2768 00d4 0823     		movs	r3, #8
 2769 00d6 0B9A     		ldr	r2, [sp, #44]
 2770 00d8 82F82030 		strb	r3, [r2, #32]
1664:Drivers/BSP/Components/vl53l1cb/modules/vl53l1_api_preset_modes.c **** 
 2771              		.loc 1 1664 3 is_stmt 1 view .LVU1138
1664:Drivers/BSP/Components/vl53l1cb/modules/vl53l1_api_preset_modes.c **** 
 2772              		.loc 1 1664 38 is_stmt 0 view .LVU1139
 2773 00dc 8823     		movs	r3, #136
 2774 00de 82F82130 		strb	r3, [r2, #33]
1668:Drivers/BSP/Components/vl53l1cb/modules/vl53l1_api_preset_modes.c **** 				phistogram,
 2775              		.loc 1 1668 3 is_stmt 1 view .LVU1140
 2776 00e2 0091     		str	r1, [sp]
 2777 00e4 2346     		mov	r3, r4
 2778 00e6 4A46     		mov	r2, r9
 2779 00e8 4146     		mov	r1, r8
 2780 00ea 2846     		mov	r0, r5
 2781 00ec FFF7FEFF 		bl	VL53L1_copy_hist_cfg_to_static_cfg
 2782              	.LVL95:
1678:Drivers/BSP/Components/vl53l1cb/modules/vl53l1_api_preset_modes.c **** 				VL53L1_SEQUENCE_VHV_EN |
 2783              		.loc 1 1678 3 view .LVU1141
1678:Drivers/BSP/Components/vl53l1cb/modules/vl53l1_api_preset_modes.c **** 				VL53L1_SEQUENCE_VHV_EN |
 2784              		.loc 1 1678 37 is_stmt 0 view .LVU1142
 2785 00f0 9B23     		movs	r3, #155
 2786 00f2 179A     		ldr	r2, [sp, #92]
 2787 00f4 5374     		strb	r3, [r2, #17]
1690:Drivers/BSP/Components/vl53l1cb/modules/vl53l1_api_preset_modes.c **** 				VL53L1_DEVICESCHEDULERMODE_HISTOGRAM |
 2788              		.loc 1 1690 3 is_stmt 1 view .LVU1143
1690:Drivers/BSP/Components/vl53l1cb/modules/vl53l1_api_preset_modes.c **** 				VL53L1_DEVICESCHEDULERMODE_HISTOGRAM |
 2789              		.loc 1 1690 31 is_stmt 0 view .LVU1144
 2790 00f6 2623     		movs	r3, #38
 2791 00f8 189A     		ldr	r2, [sp, #96]
 2792 00fa 1371     		strb	r3, [r2, #4]
 2793 00fc 98E7     		b	.L63
 2794              		.cfi_endproc
 2795              	.LFE25:
 2797              		.section	.text.VL53L1_preset_mode_histogram_characterisation,"ax",%progbits
 2798              		.align	1
 2799              		.global	VL53L1_preset_mode_histogram_characterisation
 2800              		.syntax unified
 2801              		.thumb
 2802              		.thumb_func
 2804              	VL53L1_preset_mode_histogram_characterisation:
 2805              	.LVL96:
 2806              	.LFB41:
ARM GAS  C:\Temp\ccoVwn9Y.s 			page 114


2930:Drivers/BSP/Components/vl53l1cb/modules/vl53l1_api_preset_modes.c **** 
 2807              		.loc 1 2930 1 is_stmt 1 view -0
 2808              		.cfi_startproc
 2809              		@ args = 20, pretend = 0, frame = 0
 2810              		@ frame_needed = 0, uses_anonymous_args = 0
2930:Drivers/BSP/Components/vl53l1cb/modules/vl53l1_api_preset_modes.c **** 
 2811              		.loc 1 2930 1 is_stmt 0 view .LVU1146
 2812 0000 F0B5     		push	{r4, r5, r6, r7, lr}
 2813              		.cfi_def_cfa_offset 20
 2814              		.cfi_offset 4, -20
 2815              		.cfi_offset 5, -16
 2816              		.cfi_offset 6, -12
 2817              		.cfi_offset 7, -8
 2818              		.cfi_offset 14, -4
 2819 0002 87B0     		sub	sp, sp, #28
 2820              		.cfi_def_cfa_offset 48
 2821 0004 0E46     		mov	r6, r1
 2822 0006 0D9D     		ldr	r5, [sp, #52]
 2823 0008 0E9C     		ldr	r4, [sp, #56]
2933:Drivers/BSP/Components/vl53l1cb/modules/vl53l1_api_preset_modes.c **** 
 2824              		.loc 1 2933 2 is_stmt 1 view .LVU1147
 2825              	.LVL97:
2935:Drivers/BSP/Components/vl53l1cb/modules/vl53l1_api_preset_modes.c **** 
 2826              		.loc 1 2935 24 view .LVU1148
2939:Drivers/BSP/Components/vl53l1cb/modules/vl53l1_api_preset_modes.c **** 		VL53L1_preset_mode_histogram_ranging(
 2827              		.loc 1 2939 2 view .LVU1149
2940:Drivers/BSP/Components/vl53l1cb/modules/vl53l1_api_preset_modes.c **** 			phistpostprocess,
 2828              		.loc 1 2940 3 is_stmt 0 view .LVU1150
 2829 000a 109F     		ldr	r7, [sp, #64]
 2830 000c 0497     		str	r7, [sp, #16]
 2831 000e 0F9F     		ldr	r7, [sp, #60]
 2832 0010 0397     		str	r7, [sp, #12]
 2833 0012 0294     		str	r4, [sp, #8]
 2834 0014 0195     		str	r5, [sp, #4]
 2835 0016 0C9F     		ldr	r7, [sp, #48]
 2836 0018 0097     		str	r7, [sp]
 2837 001a FFF7FEFF 		bl	VL53L1_preset_mode_histogram_ranging
 2838              	.LVL98:
2953:Drivers/BSP/Components/vl53l1cb/modules/vl53l1_api_preset_modes.c **** 
 2839              		.loc 1 2953 2 is_stmt 1 view .LVU1151
2953:Drivers/BSP/Components/vl53l1cb/modules/vl53l1_api_preset_modes.c **** 
 2840              		.loc 1 2953 5 is_stmt 0 view .LVU1152
 2841 001e 30B9     		cbnz	r0, .L67
2957:Drivers/BSP/Components/vl53l1cb/modules/vl53l1_api_preset_modes.c **** 		psystem->power_management__go1_power_force = 0x01;
 2842              		.loc 1 2957 3 is_stmt 1 view .LVU1153
2957:Drivers/BSP/Components/vl53l1cb/modules/vl53l1_api_preset_modes.c **** 		psystem->power_management__go1_power_force = 0x01;
 2843              		.loc 1 2957 24 is_stmt 0 view .LVU1154
 2844 0020 0123     		movs	r3, #1
 2845 0022 B370     		strb	r3, [r6, #2]
2958:Drivers/BSP/Components/vl53l1cb/modules/vl53l1_api_preset_modes.c **** 
 2846              		.loc 1 2958 3 is_stmt 1 view .LVU1155
2958:Drivers/BSP/Components/vl53l1cb/modules/vl53l1_api_preset_modes.c **** 
 2847              		.loc 1 2958 46 is_stmt 0 view .LVU1156
 2848 0024 2370     		strb	r3, [r4]
2960:Drivers/BSP/Components/vl53l1cb/modules/vl53l1_api_preset_modes.c **** 				VL53L1_SEQUENCE_VHV_EN |
 2849              		.loc 1 2960 3 is_stmt 1 view .LVU1157
2960:Drivers/BSP/Components/vl53l1cb/modules/vl53l1_api_preset_modes.c **** 				VL53L1_SEQUENCE_VHV_EN |
ARM GAS  C:\Temp\ccoVwn9Y.s 			page 115


 2850              		.loc 1 2960 51 is_stmt 0 view .LVU1158
 2851 0026 8323     		movs	r3, #131
 2852 0028 6B74     		strb	r3, [r5, #17]
2965:Drivers/BSP/Components/vl53l1cb/modules/vl53l1_api_preset_modes.c **** 				VL53L1_DEVICESCHEDULERMODE_HISTOGRAM    |
 2853              		.loc 1 2965 3 is_stmt 1 view .LVU1159
2965:Drivers/BSP/Components/vl53l1cb/modules/vl53l1_api_preset_modes.c **** 				VL53L1_DEVICESCHEDULERMODE_HISTOGRAM    |
 2854              		.loc 1 2965 51 is_stmt 0 view .LVU1160
 2855 002a 2E23     		movs	r3, #46
 2856 002c 2371     		strb	r3, [r4, #4]
 2857              	.L67:
2971:Drivers/BSP/Components/vl53l1cb/modules/vl53l1_api_preset_modes.c **** 
 2858              		.loc 1 2971 26 is_stmt 1 view .LVU1161
2973:Drivers/BSP/Components/vl53l1cb/modules/vl53l1_api_preset_modes.c **** }
 2859              		.loc 1 2973 2 view .LVU1162
2974:Drivers/BSP/Components/vl53l1cb/modules/vl53l1_api_preset_modes.c **** 
 2860              		.loc 1 2974 1 is_stmt 0 view .LVU1163
 2861 002e 07B0     		add	sp, sp, #28
 2862              		.cfi_def_cfa_offset 20
 2863              		@ sp needed
 2864 0030 F0BD     		pop	{r4, r5, r6, r7, pc}
2974:Drivers/BSP/Components/vl53l1cb/modules/vl53l1_api_preset_modes.c **** 
 2865              		.loc 1 2974 1 view .LVU1164
 2866              		.cfi_endproc
 2867              	.LFE41:
 2869              		.section	.text.VL53L1_preset_mode_histogram_ranging_with_mm1,"ax",%progbits
 2870              		.align	1
 2871              		.global	VL53L1_preset_mode_histogram_ranging_with_mm1
 2872              		.syntax unified
 2873              		.thumb
 2874              		.thumb_func
 2876              	VL53L1_preset_mode_histogram_ranging_with_mm1:
 2877              	.LVL99:
 2878              	.LFB26:
1712:Drivers/BSP/Components/vl53l1cb/modules/vl53l1_api_preset_modes.c **** 
 2879              		.loc 1 1712 1 is_stmt 1 view -0
 2880              		.cfi_startproc
 2881              		@ args = 20, pretend = 0, frame = 16
 2882              		@ frame_needed = 0, uses_anonymous_args = 0
1712:Drivers/BSP/Components/vl53l1cb/modules/vl53l1_api_preset_modes.c **** 
 2883              		.loc 1 1712 1 is_stmt 0 view .LVU1166
 2884 0000 2DE9F04F 		push	{r4, r5, r6, r7, r8, r9, r10, fp, lr}
 2885              		.cfi_def_cfa_offset 36
 2886              		.cfi_offset 4, -36
 2887              		.cfi_offset 5, -32
 2888              		.cfi_offset 6, -28
 2889              		.cfi_offset 7, -24
 2890              		.cfi_offset 8, -20
 2891              		.cfi_offset 9, -16
 2892              		.cfi_offset 10, -12
 2893              		.cfi_offset 11, -8
 2894              		.cfi_offset 14, -4
 2895 0004 8FB0     		sub	sp, sp, #60
 2896              		.cfi_def_cfa_offset 96
 2897 0006 0C91     		str	r1, [sp, #48]
 2898 0008 0B92     		str	r2, [sp, #44]
 2899 000a 0D93     		str	r3, [sp, #52]
 2900 000c 1C9D     		ldr	r5, [sp, #112]
ARM GAS  C:\Temp\ccoVwn9Y.s 			page 116


1715:Drivers/BSP/Components/vl53l1cb/modules/vl53l1_api_preset_modes.c **** 
 2901              		.loc 1 1715 2 is_stmt 1 view .LVU1167
 2902              	.LVL100:
1717:Drivers/BSP/Components/vl53l1cb/modules/vl53l1_api_preset_modes.c **** 
 2903              		.loc 1 1717 24 view .LVU1168
1721:Drivers/BSP/Components/vl53l1cb/modules/vl53l1_api_preset_modes.c **** 		VL53L1_preset_mode_histogram_ranging(
 2904              		.loc 1 1721 2 view .LVU1169
1722:Drivers/BSP/Components/vl53l1cb/modules/vl53l1_api_preset_modes.c **** 			phistpostprocess,
 2905              		.loc 1 1722 3 is_stmt 0 view .LVU1170
 2906 000e 0495     		str	r5, [sp, #16]
 2907 0010 1B9F     		ldr	r7, [sp, #108]
 2908 0012 0397     		str	r7, [sp, #12]
 2909 0014 1A9C     		ldr	r4, [sp, #104]
 2910 0016 0294     		str	r4, [sp, #8]
 2911 0018 199C     		ldr	r4, [sp, #100]
 2912 001a 0194     		str	r4, [sp, #4]
 2913 001c 189C     		ldr	r4, [sp, #96]
 2914 001e 0094     		str	r4, [sp]
 2915 0020 FFF7FEFF 		bl	VL53L1_preset_mode_histogram_ranging
 2916              	.LVL101:
1735:Drivers/BSP/Components/vl53l1cb/modules/vl53l1_api_preset_modes.c **** 
 2917              		.loc 1 1735 2 is_stmt 1 view .LVU1171
1735:Drivers/BSP/Components/vl53l1cb/modules/vl53l1_api_preset_modes.c **** 
 2918              		.loc 1 1735 5 is_stmt 0 view .LVU1172
 2919 0024 0746     		mov	r7, r0
 2920 0026 18B1     		cbz	r0, .L72
 2921              	.LVL102:
 2922              	.L70:
1777:Drivers/BSP/Components/vl53l1cb/modules/vl53l1_api_preset_modes.c **** 
 2923              		.loc 1 1777 26 is_stmt 1 view .LVU1173
1779:Drivers/BSP/Components/vl53l1cb/modules/vl53l1_api_preset_modes.c **** }
 2924              		.loc 1 1779 2 view .LVU1174
1780:Drivers/BSP/Components/vl53l1cb/modules/vl53l1_api_preset_modes.c **** 
 2925              		.loc 1 1780 1 is_stmt 0 view .LVU1175
 2926 0028 3846     		mov	r0, r7
 2927 002a 0FB0     		add	sp, sp, #60
 2928              		.cfi_remember_state
 2929              		.cfi_def_cfa_offset 36
 2930              		@ sp needed
 2931 002c BDE8F08F 		pop	{r4, r5, r6, r7, r8, r9, r10, fp, pc}
 2932              	.LVL103:
 2933              	.L72:
 2934              		.cfi_restore_state
1739:Drivers/BSP/Components/vl53l1cb/modules/vl53l1_api_preset_modes.c **** 				  7,   0,   1, 2, 3, 4,
 2935              		.loc 1 1739 3 is_stmt 1 view .LVU1176
 2936 0030 0B9B     		ldr	r3, [sp, #44]
 2937 0032 0893     		str	r3, [sp, #32]
 2938 0034 4FF0050B 		mov	fp, #5
 2939 0038 CDF81CB0 		str	fp, [sp, #28]
 2940 003c 4FF00409 		mov	r9, #4
 2941 0040 CDF81890 		str	r9, [sp, #24]
 2942 0044 4FF00308 		mov	r8, #3
 2943 0048 CDF81480 		str	r8, [sp, #20]
 2944 004c 4FF00A0A 		mov	r10, #10
 2945 0050 CDF810A0 		str	r10, [sp, #16]
 2946 0054 0924     		movs	r4, #9
 2947 0056 0394     		str	r4, [sp, #12]
ARM GAS  C:\Temp\ccoVwn9Y.s 			page 117


 2948 0058 0826     		movs	r6, #8
 2949 005a 0296     		str	r6, [sp, #8]
 2950 005c CDF80490 		str	r9, [sp, #4]
 2951 0060 CDF80080 		str	r8, [sp]
 2952 0064 0223     		movs	r3, #2
 2953 0066 0122     		movs	r2, #1
 2954 0068 0021     		movs	r1, #0
 2955 006a 0720     		movs	r0, #7
 2956              	.LVL104:
1739:Drivers/BSP/Components/vl53l1cb/modules/vl53l1_api_preset_modes.c **** 				  7,   0,   1, 2, 3, 4,
 2957              		.loc 1 1739 3 is_stmt 0 view .LVU1177
 2958 006c FFF7FEFF 		bl	VL53L1_init_histogram_config_structure
 2959              	.LVL105:
1745:Drivers/BSP/Components/vl53l1cb/modules/vl53l1_api_preset_modes.c **** 				  7,  0,    1, 2, 3, 4,
 2960              		.loc 1 1745 3 is_stmt 1 view .LVU1178
 2961 0070 0235     		adds	r5, r5, #2
 2962 0072 0895     		str	r5, [sp, #32]
 2963 0074 CDF81CB0 		str	fp, [sp, #28]
 2964 0078 CDF81890 		str	r9, [sp, #24]
 2965 007c CDF81480 		str	r8, [sp, #20]
 2966 0080 CDF810A0 		str	r10, [sp, #16]
 2967 0084 0394     		str	r4, [sp, #12]
 2968 0086 0296     		str	r6, [sp, #8]
 2969 0088 CDF80490 		str	r9, [sp, #4]
 2970 008c CDF80080 		str	r8, [sp]
 2971 0090 0223     		movs	r3, #2
 2972 0092 0122     		movs	r2, #1
 2973 0094 0021     		movs	r1, #0
 2974 0096 0720     		movs	r0, #7
 2975 0098 FFF7FEFF 		bl	VL53L1_init_histogram_multizone_config_structure
 2976              	.LVL106:
1752:Drivers/BSP/Components/vl53l1cb/modules/vl53l1_api_preset_modes.c **** 				phistogram,
 2977              		.loc 1 1752 3 view .LVU1179
 2978 009c 199A     		ldr	r2, [sp, #100]
 2979 009e 0092     		str	r2, [sp]
 2980 00a0 189B     		ldr	r3, [sp, #96]
 2981 00a2 0D9A     		ldr	r2, [sp, #52]
 2982 00a4 0C99     		ldr	r1, [sp, #48]
 2983 00a6 0B98     		ldr	r0, [sp, #44]
 2984 00a8 FFF7FEFF 		bl	VL53L1_copy_hist_cfg_to_static_cfg
 2985              	.LVL107:
1761:Drivers/BSP/Components/vl53l1cb/modules/vl53l1_api_preset_modes.c **** 				VL53L1_SEQUENCE_VHV_EN |
 2986              		.loc 1 1761 3 view .LVU1180
1761:Drivers/BSP/Components/vl53l1cb/modules/vl53l1_api_preset_modes.c **** 				VL53L1_SEQUENCE_VHV_EN |
 2987              		.loc 1 1761 37 is_stmt 0 view .LVU1181
 2988 00ac BB23     		movs	r3, #187
 2989 00ae 199A     		ldr	r2, [sp, #100]
 2990 00b0 5374     		strb	r3, [r2, #17]
1771:Drivers/BSP/Components/vl53l1cb/modules/vl53l1_api_preset_modes.c **** 				VL53L1_DEVICESCHEDULERMODE_HISTOGRAM |
 2991              		.loc 1 1771 3 is_stmt 1 view .LVU1182
1771:Drivers/BSP/Components/vl53l1cb/modules/vl53l1_api_preset_modes.c **** 				VL53L1_DEVICESCHEDULERMODE_HISTOGRAM |
 2992              		.loc 1 1771 31 is_stmt 0 view .LVU1183
 2993 00b2 2623     		movs	r3, #38
 2994 00b4 1A9A     		ldr	r2, [sp, #104]
 2995 00b6 1371     		strb	r3, [r2, #4]
 2996 00b8 B6E7     		b	.L70
 2997              		.cfi_endproc
ARM GAS  C:\Temp\ccoVwn9Y.s 			page 118


 2998              	.LFE26:
 3000              		.section	.text.VL53L1_preset_mode_histogram_ranging_with_mm2,"ax",%progbits
 3001              		.align	1
 3002              		.global	VL53L1_preset_mode_histogram_ranging_with_mm2
 3003              		.syntax unified
 3004              		.thumb
 3005              		.thumb_func
 3007              	VL53L1_preset_mode_histogram_ranging_with_mm2:
 3008              	.LVL108:
 3009              	.LFB27:
1793:Drivers/BSP/Components/vl53l1cb/modules/vl53l1_api_preset_modes.c **** 
 3010              		.loc 1 1793 1 is_stmt 1 view -0
 3011              		.cfi_startproc
 3012              		@ args = 20, pretend = 0, frame = 0
 3013              		@ frame_needed = 0, uses_anonymous_args = 0
1793:Drivers/BSP/Components/vl53l1cb/modules/vl53l1_api_preset_modes.c **** 
 3014              		.loc 1 1793 1 is_stmt 0 view .LVU1185
 3015 0000 30B5     		push	{r4, r5, lr}
 3016              		.cfi_def_cfa_offset 12
 3017              		.cfi_offset 4, -12
 3018              		.cfi_offset 5, -8
 3019              		.cfi_offset 14, -4
 3020 0002 87B0     		sub	sp, sp, #28
 3021              		.cfi_def_cfa_offset 40
 3022 0004 0B9C     		ldr	r4, [sp, #44]
1796:Drivers/BSP/Components/vl53l1cb/modules/vl53l1_api_preset_modes.c **** 
 3023              		.loc 1 1796 2 is_stmt 1 view .LVU1186
 3024              	.LVL109:
1798:Drivers/BSP/Components/vl53l1cb/modules/vl53l1_api_preset_modes.c **** 
 3025              		.loc 1 1798 24 view .LVU1187
1802:Drivers/BSP/Components/vl53l1cb/modules/vl53l1_api_preset_modes.c **** 		VL53L1_preset_mode_histogram_ranging_with_mm1(
 3026              		.loc 1 1802 2 view .LVU1188
1803:Drivers/BSP/Components/vl53l1cb/modules/vl53l1_api_preset_modes.c **** 			phistpostprocess,
 3027              		.loc 1 1803 3 is_stmt 0 view .LVU1189
 3028 0006 0E9D     		ldr	r5, [sp, #56]
 3029 0008 0495     		str	r5, [sp, #16]
 3030 000a 0D9D     		ldr	r5, [sp, #52]
 3031 000c 0395     		str	r5, [sp, #12]
 3032 000e 0C9D     		ldr	r5, [sp, #48]
 3033 0010 0295     		str	r5, [sp, #8]
 3034 0012 0194     		str	r4, [sp, #4]
 3035 0014 0A9D     		ldr	r5, [sp, #40]
 3036 0016 0095     		str	r5, [sp]
 3037 0018 FFF7FEFF 		bl	VL53L1_preset_mode_histogram_ranging_with_mm1
 3038              	.LVL110:
1816:Drivers/BSP/Components/vl53l1cb/modules/vl53l1_api_preset_modes.c **** 
 3039              		.loc 1 1816 2 is_stmt 1 view .LVU1190
1816:Drivers/BSP/Components/vl53l1cb/modules/vl53l1_api_preset_modes.c **** 
 3040              		.loc 1 1816 5 is_stmt 0 view .LVU1191
 3041 001c 08B9     		cbnz	r0, .L74
1820:Drivers/BSP/Components/vl53l1cb/modules/vl53l1_api_preset_modes.c **** 				VL53L1_SEQUENCE_VHV_EN |
 3042              		.loc 1 1820 3 is_stmt 1 view .LVU1192
1820:Drivers/BSP/Components/vl53l1cb/modules/vl53l1_api_preset_modes.c **** 				VL53L1_SEQUENCE_VHV_EN |
 3043              		.loc 1 1820 37 is_stmt 0 view .LVU1193
 3044 001e DB23     		movs	r3, #219
 3045 0020 6374     		strb	r3, [r4, #17]
 3046              	.L74:
ARM GAS  C:\Temp\ccoVwn9Y.s 			page 119


1829:Drivers/BSP/Components/vl53l1cb/modules/vl53l1_api_preset_modes.c **** 
 3047              		.loc 1 1829 26 is_stmt 1 view .LVU1194
1831:Drivers/BSP/Components/vl53l1cb/modules/vl53l1_api_preset_modes.c **** }
 3048              		.loc 1 1831 2 view .LVU1195
1832:Drivers/BSP/Components/vl53l1cb/modules/vl53l1_api_preset_modes.c **** 
 3049              		.loc 1 1832 1 is_stmt 0 view .LVU1196
 3050 0022 07B0     		add	sp, sp, #28
 3051              		.cfi_def_cfa_offset 12
 3052              		@ sp needed
 3053 0024 30BD     		pop	{r4, r5, pc}
1832:Drivers/BSP/Components/vl53l1cb/modules/vl53l1_api_preset_modes.c **** 
 3054              		.loc 1 1832 1 view .LVU1197
 3055              		.cfi_endproc
 3056              	.LFE27:
 3058              		.section	.text.VL53L1_preset_mode_histogram_ranging_mm1_cal,"ax",%progbits
 3059              		.align	1
 3060              		.global	VL53L1_preset_mode_histogram_ranging_mm1_cal
 3061              		.syntax unified
 3062              		.thumb
 3063              		.thumb_func
 3065              	VL53L1_preset_mode_histogram_ranging_mm1_cal:
 3066              	.LVL111:
 3067              	.LFB28:
1845:Drivers/BSP/Components/vl53l1cb/modules/vl53l1_api_preset_modes.c **** 
 3068              		.loc 1 1845 1 is_stmt 1 view -0
 3069              		.cfi_startproc
 3070              		@ args = 20, pretend = 0, frame = 8
 3071              		@ frame_needed = 0, uses_anonymous_args = 0
1845:Drivers/BSP/Components/vl53l1cb/modules/vl53l1_api_preset_modes.c **** 
 3072              		.loc 1 1845 1 is_stmt 0 view .LVU1199
 3073 0000 2DE9F04F 		push	{r4, r5, r6, r7, r8, r9, r10, fp, lr}
 3074              		.cfi_def_cfa_offset 36
 3075              		.cfi_offset 4, -36
 3076              		.cfi_offset 5, -32
 3077              		.cfi_offset 6, -28
 3078              		.cfi_offset 7, -24
 3079              		.cfi_offset 8, -20
 3080              		.cfi_offset 9, -16
 3081              		.cfi_offset 10, -12
 3082              		.cfi_offset 11, -8
 3083              		.cfi_offset 14, -4
 3084 0004 8DB0     		sub	sp, sp, #52
 3085              		.cfi_def_cfa_offset 88
 3086 0006 0B91     		str	r1, [sp, #44]
 3087 0008 0A92     		str	r2, [sp, #40]
 3088 000a 9B46     		mov	fp, r3
1848:Drivers/BSP/Components/vl53l1cb/modules/vl53l1_api_preset_modes.c **** 
 3089              		.loc 1 1848 2 is_stmt 1 view .LVU1200
 3090              	.LVL112:
1850:Drivers/BSP/Components/vl53l1cb/modules/vl53l1_api_preset_modes.c **** 
 3091              		.loc 1 1850 24 view .LVU1201
1854:Drivers/BSP/Components/vl53l1cb/modules/vl53l1_api_preset_modes.c **** 		VL53L1_preset_mode_histogram_ranging(
 3092              		.loc 1 1854 2 view .LVU1202
1855:Drivers/BSP/Components/vl53l1cb/modules/vl53l1_api_preset_modes.c **** 			phistpostprocess,
 3093              		.loc 1 1855 3 is_stmt 0 view .LVU1203
 3094 000c 1A9C     		ldr	r4, [sp, #104]
 3095 000e 0494     		str	r4, [sp, #16]
ARM GAS  C:\Temp\ccoVwn9Y.s 			page 120


 3096 0010 199D     		ldr	r5, [sp, #100]
 3097 0012 0395     		str	r5, [sp, #12]
 3098 0014 189D     		ldr	r5, [sp, #96]
 3099 0016 0295     		str	r5, [sp, #8]
 3100 0018 179C     		ldr	r4, [sp, #92]
 3101 001a 0194     		str	r4, [sp, #4]
 3102 001c 169C     		ldr	r4, [sp, #88]
 3103 001e 0094     		str	r4, [sp]
 3104 0020 FFF7FEFF 		bl	VL53L1_preset_mode_histogram_ranging
 3105              	.LVL113:
1868:Drivers/BSP/Components/vl53l1cb/modules/vl53l1_api_preset_modes.c **** 
 3106              		.loc 1 1868 2 is_stmt 1 view .LVU1204
1868:Drivers/BSP/Components/vl53l1cb/modules/vl53l1_api_preset_modes.c **** 
 3107              		.loc 1 1868 5 is_stmt 0 view .LVU1205
 3108 0024 0546     		mov	r5, r0
 3109 0026 18B1     		cbz	r0, .L79
 3110              	.LVL114:
 3111              	.L77:
1909:Drivers/BSP/Components/vl53l1cb/modules/vl53l1_api_preset_modes.c **** 
 3112              		.loc 1 1909 26 is_stmt 1 view .LVU1206
1911:Drivers/BSP/Components/vl53l1cb/modules/vl53l1_api_preset_modes.c **** }
 3113              		.loc 1 1911 2 view .LVU1207
1912:Drivers/BSP/Components/vl53l1cb/modules/vl53l1_api_preset_modes.c **** 
 3114              		.loc 1 1912 1 is_stmt 0 view .LVU1208
 3115 0028 2846     		mov	r0, r5
 3116 002a 0DB0     		add	sp, sp, #52
 3117              		.cfi_remember_state
 3118              		.cfi_def_cfa_offset 36
 3119              		@ sp needed
 3120 002c BDE8F08F 		pop	{r4, r5, r6, r7, r8, r9, r10, fp, pc}
 3121              	.LVL115:
 3122              	.L79:
 3123              		.cfi_restore_state
1872:Drivers/BSP/Components/vl53l1cb/modules/vl53l1_api_preset_modes.c **** 				  7, 8+0, 8+1, 8+2, 8+3, 8+4,
 3124              		.loc 1 1872 3 is_stmt 1 view .LVU1209
 3125 0030 0A9B     		ldr	r3, [sp, #40]
 3126 0032 0893     		str	r3, [sp, #32]
 3127 0034 0D24     		movs	r4, #13
 3128 0036 0794     		str	r4, [sp, #28]
 3129 0038 4FF00C0A 		mov	r10, #12
 3130 003c CDF818A0 		str	r10, [sp, #24]
 3131 0040 4FF00B09 		mov	r9, #11
 3132 0044 CDF81490 		str	r9, [sp, #20]
 3133 0048 4FF00A08 		mov	r8, #10
 3134 004c CDF81080 		str	r8, [sp, #16]
 3135 0050 0927     		movs	r7, #9
 3136 0052 0397     		str	r7, [sp, #12]
 3137 0054 0826     		movs	r6, #8
 3138 0056 0296     		str	r6, [sp, #8]
 3139 0058 CDF804A0 		str	r10, [sp, #4]
 3140 005c CDF80090 		str	r9, [sp]
 3141 0060 4346     		mov	r3, r8
 3142 0062 3A46     		mov	r2, r7
 3143 0064 3146     		mov	r1, r6
 3144 0066 0720     		movs	r0, #7
 3145              	.LVL116:
1872:Drivers/BSP/Components/vl53l1cb/modules/vl53l1_api_preset_modes.c **** 				  7, 8+0, 8+1, 8+2, 8+3, 8+4,
ARM GAS  C:\Temp\ccoVwn9Y.s 			page 121


 3146              		.loc 1 1872 3 is_stmt 0 view .LVU1210
 3147 0068 FFF7FEFF 		bl	VL53L1_init_histogram_config_structure
 3148              	.LVL117:
1878:Drivers/BSP/Components/vl53l1cb/modules/vl53l1_api_preset_modes.c **** 				  7, 8+0, 8+1, 8+2, 8+3, 8+4,
 3149              		.loc 1 1878 3 is_stmt 1 view .LVU1211
 3150 006c 1A9A     		ldr	r2, [sp, #104]
 3151 006e 931C     		adds	r3, r2, #2
 3152 0070 0893     		str	r3, [sp, #32]
 3153 0072 0794     		str	r4, [sp, #28]
 3154 0074 CDF818A0 		str	r10, [sp, #24]
 3155 0078 CDF81490 		str	r9, [sp, #20]
 3156 007c CDF81080 		str	r8, [sp, #16]
 3157 0080 0397     		str	r7, [sp, #12]
 3158 0082 0296     		str	r6, [sp, #8]
 3159 0084 CDF804A0 		str	r10, [sp, #4]
 3160 0088 CDF80090 		str	r9, [sp]
 3161 008c 4346     		mov	r3, r8
 3162 008e 3A46     		mov	r2, r7
 3163 0090 3146     		mov	r1, r6
 3164 0092 0720     		movs	r0, #7
 3165 0094 FFF7FEFF 		bl	VL53L1_init_histogram_multizone_config_structure
 3166              	.LVL118:
1885:Drivers/BSP/Components/vl53l1cb/modules/vl53l1_api_preset_modes.c **** 				phistogram,
 3167              		.loc 1 1885 3 view .LVU1212
 3168 0098 179A     		ldr	r2, [sp, #92]
 3169 009a 0092     		str	r2, [sp]
 3170 009c 169B     		ldr	r3, [sp, #88]
 3171 009e 5A46     		mov	r2, fp
 3172 00a0 0B99     		ldr	r1, [sp, #44]
 3173 00a2 0A98     		ldr	r0, [sp, #40]
 3174 00a4 FFF7FEFF 		bl	VL53L1_copy_hist_cfg_to_static_cfg
 3175              	.LVL119:
1894:Drivers/BSP/Components/vl53l1cb/modules/vl53l1_api_preset_modes.c **** 			VL53L1_DEVICEDSSMODE__REQUESTED_EFFFECTIVE_SPADS;
 3176              		.loc 1 1894 3 view .LVU1213
1894:Drivers/BSP/Components/vl53l1cb/modules/vl53l1_api_preset_modes.c **** 			VL53L1_DEVICEDSSMODE__REQUESTED_EFFFECTIVE_SPADS;
 3177              		.loc 1 1894 42 is_stmt 0 view .LVU1214
 3178 00a8 0223     		movs	r3, #2
 3179 00aa 8BF80A30 		strb	r3, [fp, #10]
1899:Drivers/BSP/Components/vl53l1cb/modules/vl53l1_api_preset_modes.c **** 				VL53L1_SEQUENCE_VHV_EN |
 3180              		.loc 1 1899 3 is_stmt 1 view .LVU1215
1899:Drivers/BSP/Components/vl53l1cb/modules/vl53l1_api_preset_modes.c **** 				VL53L1_SEQUENCE_VHV_EN |
 3181              		.loc 1 1899 37 is_stmt 0 view .LVU1216
 3182 00ae BB23     		movs	r3, #187
 3183 00b0 179A     		ldr	r2, [sp, #92]
 3184 00b2 5374     		strb	r3, [r2, #17]
 3185 00b4 B8E7     		b	.L77
 3186              		.cfi_endproc
 3187              	.LFE28:
 3189              		.section	.text.VL53L1_preset_mode_histogram_ranging_mm2_cal,"ax",%progbits
 3190              		.align	1
 3191              		.global	VL53L1_preset_mode_histogram_ranging_mm2_cal
 3192              		.syntax unified
 3193              		.thumb
 3194              		.thumb_func
 3196              	VL53L1_preset_mode_histogram_ranging_mm2_cal:
 3197              	.LVL120:
 3198              	.LFB29:
ARM GAS  C:\Temp\ccoVwn9Y.s 			page 122


1925:Drivers/BSP/Components/vl53l1cb/modules/vl53l1_api_preset_modes.c **** 
 3199              		.loc 1 1925 1 is_stmt 1 view -0
 3200              		.cfi_startproc
 3201              		@ args = 20, pretend = 0, frame = 0
 3202              		@ frame_needed = 0, uses_anonymous_args = 0
1925:Drivers/BSP/Components/vl53l1cb/modules/vl53l1_api_preset_modes.c **** 
 3203              		.loc 1 1925 1 is_stmt 0 view .LVU1218
 3204 0000 30B5     		push	{r4, r5, lr}
 3205              		.cfi_def_cfa_offset 12
 3206              		.cfi_offset 4, -12
 3207              		.cfi_offset 5, -8
 3208              		.cfi_offset 14, -4
 3209 0002 87B0     		sub	sp, sp, #28
 3210              		.cfi_def_cfa_offset 40
 3211 0004 0B9C     		ldr	r4, [sp, #44]
1928:Drivers/BSP/Components/vl53l1cb/modules/vl53l1_api_preset_modes.c **** 
 3212              		.loc 1 1928 2 is_stmt 1 view .LVU1219
 3213              	.LVL121:
1930:Drivers/BSP/Components/vl53l1cb/modules/vl53l1_api_preset_modes.c **** 
 3214              		.loc 1 1930 24 view .LVU1220
1934:Drivers/BSP/Components/vl53l1cb/modules/vl53l1_api_preset_modes.c **** 		VL53L1_preset_mode_histogram_ranging_mm1_cal(
 3215              		.loc 1 1934 2 view .LVU1221
1935:Drivers/BSP/Components/vl53l1cb/modules/vl53l1_api_preset_modes.c **** 				phistpostprocess,
 3216              		.loc 1 1935 3 is_stmt 0 view .LVU1222
 3217 0006 0E9D     		ldr	r5, [sp, #56]
 3218 0008 0495     		str	r5, [sp, #16]
 3219 000a 0D9D     		ldr	r5, [sp, #52]
 3220 000c 0395     		str	r5, [sp, #12]
 3221 000e 0C9D     		ldr	r5, [sp, #48]
 3222 0010 0295     		str	r5, [sp, #8]
 3223 0012 0194     		str	r4, [sp, #4]
 3224 0014 0A9D     		ldr	r5, [sp, #40]
 3225 0016 0095     		str	r5, [sp]
 3226 0018 FFF7FEFF 		bl	VL53L1_preset_mode_histogram_ranging_mm1_cal
 3227              	.LVL122:
1946:Drivers/BSP/Components/vl53l1cb/modules/vl53l1_api_preset_modes.c **** 
 3228              		.loc 1 1946 2 is_stmt 1 view .LVU1223
1946:Drivers/BSP/Components/vl53l1cb/modules/vl53l1_api_preset_modes.c **** 
 3229              		.loc 1 1946 5 is_stmt 0 view .LVU1224
 3230 001c 08B9     		cbnz	r0, .L81
1950:Drivers/BSP/Components/vl53l1cb/modules/vl53l1_api_preset_modes.c **** 				VL53L1_SEQUENCE_VHV_EN |
 3231              		.loc 1 1950 3 is_stmt 1 view .LVU1225
1950:Drivers/BSP/Components/vl53l1cb/modules/vl53l1_api_preset_modes.c **** 				VL53L1_SEQUENCE_VHV_EN |
 3232              		.loc 1 1950 37 is_stmt 0 view .LVU1226
 3233 001e DB23     		movs	r3, #219
 3234 0020 6374     		strb	r3, [r4, #17]
 3235              	.L81:
1960:Drivers/BSP/Components/vl53l1cb/modules/vl53l1_api_preset_modes.c **** 
 3236              		.loc 1 1960 26 is_stmt 1 view .LVU1227
1962:Drivers/BSP/Components/vl53l1cb/modules/vl53l1_api_preset_modes.c **** }
 3237              		.loc 1 1962 2 view .LVU1228
1963:Drivers/BSP/Components/vl53l1cb/modules/vl53l1_api_preset_modes.c **** 
 3238              		.loc 1 1963 1 is_stmt 0 view .LVU1229
 3239 0022 07B0     		add	sp, sp, #28
 3240              		.cfi_def_cfa_offset 12
 3241              		@ sp needed
 3242 0024 30BD     		pop	{r4, r5, pc}
ARM GAS  C:\Temp\ccoVwn9Y.s 			page 123


1963:Drivers/BSP/Components/vl53l1cb/modules/vl53l1_api_preset_modes.c **** 
 3243              		.loc 1 1963 1 view .LVU1230
 3244              		.cfi_endproc
 3245              	.LFE29:
 3247              		.section	.text.VL53L1_preset_mode_histogram_ranging_short_timing,"ax",%progbits
 3248              		.align	1
 3249              		.global	VL53L1_preset_mode_histogram_ranging_short_timing
 3250              		.syntax unified
 3251              		.thumb
 3252              		.thumb_func
 3254              	VL53L1_preset_mode_histogram_ranging_short_timing:
 3255              	.LVL123:
 3256              	.LFB30:
1976:Drivers/BSP/Components/vl53l1cb/modules/vl53l1_api_preset_modes.c **** 
 3257              		.loc 1 1976 1 is_stmt 1 view -0
 3258              		.cfi_startproc
 3259              		@ args = 20, pretend = 0, frame = 16
 3260              		@ frame_needed = 0, uses_anonymous_args = 0
1976:Drivers/BSP/Components/vl53l1cb/modules/vl53l1_api_preset_modes.c **** 
 3261              		.loc 1 1976 1 is_stmt 0 view .LVU1232
 3262 0000 2DE9F04F 		push	{r4, r5, r6, r7, r8, r9, r10, fp, lr}
 3263              		.cfi_def_cfa_offset 36
 3264              		.cfi_offset 4, -36
 3265              		.cfi_offset 5, -32
 3266              		.cfi_offset 6, -28
 3267              		.cfi_offset 7, -24
 3268              		.cfi_offset 8, -20
 3269              		.cfi_offset 9, -16
 3270              		.cfi_offset 10, -12
 3271              		.cfi_offset 11, -8
 3272              		.cfi_offset 14, -4
 3273 0004 8FB0     		sub	sp, sp, #60
 3274              		.cfi_def_cfa_offset 96
 3275 0006 0C91     		str	r1, [sp, #48]
 3276 0008 0D92     		str	r2, [sp, #52]
 3277 000a 1F46     		mov	r7, r3
 3278 000c 189C     		ldr	r4, [sp, #96]
1979:Drivers/BSP/Components/vl53l1cb/modules/vl53l1_api_preset_modes.c **** 
 3279              		.loc 1 1979 2 is_stmt 1 view .LVU1233
 3280              	.LVL124:
1981:Drivers/BSP/Components/vl53l1cb/modules/vl53l1_api_preset_modes.c **** 
 3281              		.loc 1 1981 24 view .LVU1234
1985:Drivers/BSP/Components/vl53l1cb/modules/vl53l1_api_preset_modes.c **** 		VL53L1_preset_mode_histogram_ranging(
 3282              		.loc 1 1985 2 view .LVU1235
1986:Drivers/BSP/Components/vl53l1cb/modules/vl53l1_api_preset_modes.c **** 			phistpostprocess,
 3283              		.loc 1 1986 3 is_stmt 0 view .LVU1236
 3284 000e 1C9D     		ldr	r5, [sp, #112]
 3285 0010 0495     		str	r5, [sp, #16]
 3286 0012 1B9E     		ldr	r6, [sp, #108]
 3287 0014 0396     		str	r6, [sp, #12]
 3288 0016 1A9D     		ldr	r5, [sp, #104]
 3289 0018 0295     		str	r5, [sp, #8]
 3290 001a 199D     		ldr	r5, [sp, #100]
 3291 001c 0195     		str	r5, [sp, #4]
 3292 001e 0094     		str	r4, [sp]
 3293 0020 FFF7FEFF 		bl	VL53L1_preset_mode_histogram_ranging
 3294              	.LVL125:
ARM GAS  C:\Temp\ccoVwn9Y.s 			page 124


1999:Drivers/BSP/Components/vl53l1cb/modules/vl53l1_api_preset_modes.c **** 
 3295              		.loc 1 1999 2 is_stmt 1 view .LVU1237
1999:Drivers/BSP/Components/vl53l1cb/modules/vl53l1_api_preset_modes.c **** 
 3296              		.loc 1 1999 5 is_stmt 0 view .LVU1238
 3297 0024 0B90     		str	r0, [sp, #44]
 3298 0026 18B1     		cbz	r0, .L86
 3299              	.LVL126:
 3300              	.L84:
2066:Drivers/BSP/Components/vl53l1cb/modules/vl53l1_api_preset_modes.c **** 
 3301              		.loc 1 2066 26 is_stmt 1 view .LVU1239
2068:Drivers/BSP/Components/vl53l1cb/modules/vl53l1_api_preset_modes.c **** }
 3302              		.loc 1 2068 2 view .LVU1240
2069:Drivers/BSP/Components/vl53l1cb/modules/vl53l1_api_preset_modes.c **** 
 3303              		.loc 1 2069 1 is_stmt 0 view .LVU1241
 3304 0028 0B98     		ldr	r0, [sp, #44]
 3305 002a 0FB0     		add	sp, sp, #60
 3306              		.cfi_remember_state
 3307              		.cfi_def_cfa_offset 36
 3308              		@ sp needed
 3309 002c BDE8F08F 		pop	{r4, r5, r6, r7, r8, r9, r10, fp, pc}
 3310              	.LVL127:
 3311              	.L86:
 3312              		.cfi_restore_state
2003:Drivers/BSP/Components/vl53l1cb/modules/vl53l1_api_preset_modes.c **** 
 3313              		.loc 1 2003 3 is_stmt 1 view .LVU1242
2003:Drivers/BSP/Components/vl53l1cb/modules/vl53l1_api_preset_modes.c **** 
 3314              		.loc 1 2003 47 is_stmt 0 view .LVU1243
 3315 0030 4FF4A053 		mov	r3, #5120
 3316 0034 0C9A     		ldr	r2, [sp, #48]
 3317 0036 1380     		strh	r3, [r2]	@ movhi
2007:Drivers/BSP/Components/vl53l1cb/modules/vl53l1_api_preset_modes.c **** 				7, 0, 1, 2, 3, 4,
 3318              		.loc 1 2007 3 is_stmt 1 view .LVU1244
 3319 0038 0D9B     		ldr	r3, [sp, #52]
 3320 003a 0893     		str	r3, [sp, #32]
 3321 003c 4FF00408 		mov	r8, #4
 3322 0040 CDF81C80 		str	r8, [sp, #28]
 3323 0044 4FF00309 		mov	r9, #3
 3324 0048 CDF81890 		str	r9, [sp, #24]
 3325 004c 4FF0020B 		mov	fp, #2
 3326 0050 CDF814B0 		str	fp, [sp, #20]
 3327 0054 4FF0010A 		mov	r10, #1
 3328 0058 CDF810A0 		str	r10, [sp, #16]
 3329 005c 0026     		movs	r6, #0
 3330 005e 0396     		str	r6, [sp, #12]
 3331 0060 0725     		movs	r5, #7
 3332 0062 0295     		str	r5, [sp, #8]
 3333 0064 CDF80480 		str	r8, [sp, #4]
 3334 0068 CDF80090 		str	r9, [sp]
 3335 006c 5B46     		mov	r3, fp
 3336 006e 5246     		mov	r2, r10
 3337 0070 3146     		mov	r1, r6
 3338 0072 2846     		mov	r0, r5
 3339              	.LVL128:
2007:Drivers/BSP/Components/vl53l1cb/modules/vl53l1_api_preset_modes.c **** 				7, 0, 1, 2, 3, 4,
 3340              		.loc 1 2007 3 is_stmt 0 view .LVU1245
 3341 0074 FFF7FEFF 		bl	VL53L1_init_histogram_config_structure
 3342              	.LVL129:
ARM GAS  C:\Temp\ccoVwn9Y.s 			page 125


2013:Drivers/BSP/Components/vl53l1cb/modules/vl53l1_api_preset_modes.c **** 				7, 0, 1, 2, 3, 4,
 3343              		.loc 1 2013 3 is_stmt 1 view .LVU1246
 3344 0078 1C9B     		ldr	r3, [sp, #112]
 3345 007a 5B44     		add	r3, r3, fp
 3346 007c 0893     		str	r3, [sp, #32]
 3347 007e CDF81C80 		str	r8, [sp, #28]
 3348 0082 CDF81890 		str	r9, [sp, #24]
 3349 0086 CDF814B0 		str	fp, [sp, #20]
 3350 008a CDF810A0 		str	r10, [sp, #16]
 3351 008e 0396     		str	r6, [sp, #12]
 3352 0090 0295     		str	r5, [sp, #8]
 3353 0092 CDF80480 		str	r8, [sp, #4]
 3354 0096 CDF80090 		str	r9, [sp]
 3355 009a 5B46     		mov	r3, fp
 3356 009c 5246     		mov	r2, r10
 3357 009e 3146     		mov	r1, r6
 3358 00a0 2846     		mov	r0, r5
 3359 00a2 FFF7FEFF 		bl	VL53L1_init_histogram_multizone_config_structure
 3360              	.LVL130:
2020:Drivers/BSP/Components/vl53l1cb/modules/vl53l1_api_preset_modes.c **** 				phistogram,
 3361              		.loc 1 2020 3 view .LVU1247
 3362 00a6 199D     		ldr	r5, [sp, #100]
 3363 00a8 0095     		str	r5, [sp]
 3364 00aa 2346     		mov	r3, r4
 3365 00ac 3A46     		mov	r2, r7
 3366 00ae 0C99     		ldr	r1, [sp, #48]
 3367 00b0 0D98     		ldr	r0, [sp, #52]
 3368 00b2 FFF7FEFF 		bl	VL53L1_copy_hist_cfg_to_static_cfg
 3369              	.LVL131:
2029:Drivers/BSP/Components/vl53l1cb/modules/vl53l1_api_preset_modes.c **** 		ptiming->range_config__vcsel_period_b = 0x03;
 3370              		.loc 1 2029 3 view .LVU1248
2029:Drivers/BSP/Components/vl53l1cb/modules/vl53l1_api_preset_modes.c **** 		ptiming->range_config__vcsel_period_b = 0x03;
 3371              		.loc 1 2029 41 is_stmt 0 view .LVU1249
 3372 00b6 84F80680 		strb	r8, [r4, #6]
2030:Drivers/BSP/Components/vl53l1cb/modules/vl53l1_api_preset_modes.c **** 		ptiming->mm_config__timeout_macrop_a_hi = 0x00;
 3373              		.loc 1 2030 3 is_stmt 1 view .LVU1250
2030:Drivers/BSP/Components/vl53l1cb/modules/vl53l1_api_preset_modes.c **** 		ptiming->mm_config__timeout_macrop_a_hi = 0x00;
 3374              		.loc 1 2030 41 is_stmt 0 view .LVU1251
 3375 00ba 84F80990 		strb	r9, [r4, #9]
2031:Drivers/BSP/Components/vl53l1cb/modules/vl53l1_api_preset_modes.c **** 		ptiming->mm_config__timeout_macrop_a_lo = 0x42;
 3376              		.loc 1 2031 3 is_stmt 1 view .LVU1252
2031:Drivers/BSP/Components/vl53l1cb/modules/vl53l1_api_preset_modes.c **** 		ptiming->mm_config__timeout_macrop_a_lo = 0x42;
 3377              		.loc 1 2031 43 is_stmt 0 view .LVU1253
 3378 00be 2670     		strb	r6, [r4]
2032:Drivers/BSP/Components/vl53l1cb/modules/vl53l1_api_preset_modes.c **** 		ptiming->mm_config__timeout_macrop_b_hi = 0x00;
 3379              		.loc 1 2032 3 is_stmt 1 view .LVU1254
2032:Drivers/BSP/Components/vl53l1cb/modules/vl53l1_api_preset_modes.c **** 		ptiming->mm_config__timeout_macrop_b_hi = 0x00;
 3380              		.loc 1 2032 43 is_stmt 0 view .LVU1255
 3381 00c0 4223     		movs	r3, #66
 3382 00c2 6370     		strb	r3, [r4, #1]
2033:Drivers/BSP/Components/vl53l1cb/modules/vl53l1_api_preset_modes.c **** 		ptiming->mm_config__timeout_macrop_b_lo = 0x42;
 3383              		.loc 1 2033 3 is_stmt 1 view .LVU1256
2033:Drivers/BSP/Components/vl53l1cb/modules/vl53l1_api_preset_modes.c **** 		ptiming->mm_config__timeout_macrop_b_lo = 0x42;
 3384              		.loc 1 2033 43 is_stmt 0 view .LVU1257
 3385 00c4 A670     		strb	r6, [r4, #2]
2034:Drivers/BSP/Components/vl53l1cb/modules/vl53l1_api_preset_modes.c **** 		ptiming->range_config__timeout_macrop_a_hi = 0x00;
 3386              		.loc 1 2034 3 is_stmt 1 view .LVU1258
ARM GAS  C:\Temp\ccoVwn9Y.s 			page 126


2034:Drivers/BSP/Components/vl53l1cb/modules/vl53l1_api_preset_modes.c **** 		ptiming->range_config__timeout_macrop_a_hi = 0x00;
 3387              		.loc 1 2034 43 is_stmt 0 view .LVU1259
 3388 00c6 E370     		strb	r3, [r4, #3]
2035:Drivers/BSP/Components/vl53l1cb/modules/vl53l1_api_preset_modes.c **** 		ptiming->range_config__timeout_macrop_a_lo = 0x52;
 3389              		.loc 1 2035 3 is_stmt 1 view .LVU1260
2035:Drivers/BSP/Components/vl53l1cb/modules/vl53l1_api_preset_modes.c **** 		ptiming->range_config__timeout_macrop_a_lo = 0x52;
 3390              		.loc 1 2035 46 is_stmt 0 view .LVU1261
 3391 00c8 2671     		strb	r6, [r4, #4]
2036:Drivers/BSP/Components/vl53l1cb/modules/vl53l1_api_preset_modes.c **** 		ptiming->range_config__timeout_macrop_b_hi = 0x00;
 3392              		.loc 1 2036 3 is_stmt 1 view .LVU1262
2036:Drivers/BSP/Components/vl53l1cb/modules/vl53l1_api_preset_modes.c **** 		ptiming->range_config__timeout_macrop_b_hi = 0x00;
 3393              		.loc 1 2036 46 is_stmt 0 view .LVU1263
 3394 00ca 5223     		movs	r3, #82
 3395 00cc 6371     		strb	r3, [r4, #5]
2037:Drivers/BSP/Components/vl53l1cb/modules/vl53l1_api_preset_modes.c **** 		ptiming->range_config__timeout_macrop_b_lo = 0x66;
 3396              		.loc 1 2037 3 is_stmt 1 view .LVU1264
2037:Drivers/BSP/Components/vl53l1cb/modules/vl53l1_api_preset_modes.c **** 		ptiming->range_config__timeout_macrop_b_lo = 0x66;
 3397              		.loc 1 2037 46 is_stmt 0 view .LVU1265
 3398 00ce E671     		strb	r6, [r4, #7]
2038:Drivers/BSP/Components/vl53l1cb/modules/vl53l1_api_preset_modes.c **** 
 3399              		.loc 1 2038 3 is_stmt 1 view .LVU1266
2038:Drivers/BSP/Components/vl53l1cb/modules/vl53l1_api_preset_modes.c **** 
 3400              		.loc 1 2038 46 is_stmt 0 view .LVU1267
 3401 00d0 6623     		movs	r3, #102
 3402 00d2 2372     		strb	r3, [r4, #8]
2040:Drivers/BSP/Components/vl53l1cb/modules/vl53l1_api_preset_modes.c **** 
 3403              		.loc 1 2040 3 is_stmt 1 view .LVU1268
2040:Drivers/BSP/Components/vl53l1cb/modules/vl53l1_api_preset_modes.c **** 
 3404              		.loc 1 2040 37 is_stmt 0 view .LVU1269
 3405 00d4 87F80380 		strb	r8, [r7, #3]
2044:Drivers/BSP/Components/vl53l1cb/modules/vl53l1_api_preset_modes.c **** 
 3406              		.loc 1 2044 3 is_stmt 1 view .LVU1270
2044:Drivers/BSP/Components/vl53l1cb/modules/vl53l1_api_preset_modes.c **** 
 3407              		.loc 1 2044 45 is_stmt 0 view .LVU1271
 3408 00d8 A423     		movs	r3, #164
 3409 00da FB71     		strb	r3, [r7, #7]
2048:Drivers/BSP/Components/vl53l1cb/modules/vl53l1_api_preset_modes.c **** 				VL53L1_SEQUENCE_VHV_EN |
 3410              		.loc 1 2048 3 is_stmt 1 view .LVU1272
2048:Drivers/BSP/Components/vl53l1cb/modules/vl53l1_api_preset_modes.c **** 				VL53L1_SEQUENCE_VHV_EN |
 3411              		.loc 1 2048 37 is_stmt 0 view .LVU1273
 3412 00dc 9B23     		movs	r3, #155
 3413 00de 199A     		ldr	r2, [sp, #100]
 3414 00e0 5374     		strb	r3, [r2, #17]
2060:Drivers/BSP/Components/vl53l1cb/modules/vl53l1_api_preset_modes.c **** 				VL53L1_DEVICESCHEDULERMODE_HISTOGRAM |
 3415              		.loc 1 2060 3 is_stmt 1 view .LVU1274
2060:Drivers/BSP/Components/vl53l1cb/modules/vl53l1_api_preset_modes.c **** 				VL53L1_DEVICESCHEDULERMODE_HISTOGRAM |
 3416              		.loc 1 2060 31 is_stmt 0 view .LVU1275
 3417 00e2 2623     		movs	r3, #38
 3418 00e4 1A9A     		ldr	r2, [sp, #104]
 3419 00e6 1371     		strb	r3, [r2, #4]
 3420 00e8 9EE7     		b	.L84
 3421              		.cfi_endproc
 3422              	.LFE30:
 3424              		.section	.text.VL53L1_preset_mode_histogram_long_range,"ax",%progbits
 3425              		.align	1
 3426              		.global	VL53L1_preset_mode_histogram_long_range
 3427              		.syntax unified
ARM GAS  C:\Temp\ccoVwn9Y.s 			page 127


 3428              		.thumb
 3429              		.thumb_func
 3431              	VL53L1_preset_mode_histogram_long_range:
 3432              	.LVL132:
 3433              	.LFB31:
2082:Drivers/BSP/Components/vl53l1cb/modules/vl53l1_api_preset_modes.c **** 
 3434              		.loc 1 2082 1 is_stmt 1 view -0
 3435              		.cfi_startproc
 3436              		@ args = 20, pretend = 0, frame = 16
 3437              		@ frame_needed = 0, uses_anonymous_args = 0
2082:Drivers/BSP/Components/vl53l1cb/modules/vl53l1_api_preset_modes.c **** 
 3438              		.loc 1 2082 1 is_stmt 0 view .LVU1277
 3439 0000 2DE9F04F 		push	{r4, r5, r6, r7, r8, r9, r10, fp, lr}
 3440              		.cfi_def_cfa_offset 36
 3441              		.cfi_offset 4, -36
 3442              		.cfi_offset 5, -32
 3443              		.cfi_offset 6, -28
 3444              		.cfi_offset 7, -24
 3445              		.cfi_offset 8, -20
 3446              		.cfi_offset 9, -16
 3447              		.cfi_offset 10, -12
 3448              		.cfi_offset 11, -8
 3449              		.cfi_offset 14, -4
 3450 0004 8FB0     		sub	sp, sp, #60
 3451              		.cfi_def_cfa_offset 96
 3452 0006 0C90     		str	r0, [sp, #48]
 3453 0008 0D91     		str	r1, [sp, #52]
 3454 000a 0B92     		str	r2, [sp, #44]
 3455 000c 1F46     		mov	r7, r3
 3456 000e 189C     		ldr	r4, [sp, #96]
 3457 0010 199D     		ldr	r5, [sp, #100]
2085:Drivers/BSP/Components/vl53l1cb/modules/vl53l1_api_preset_modes.c **** 
 3458              		.loc 1 2085 2 is_stmt 1 view .LVU1278
 3459              	.LVL133:
2087:Drivers/BSP/Components/vl53l1cb/modules/vl53l1_api_preset_modes.c **** 
 3460              		.loc 1 2087 24 view .LVU1279
2091:Drivers/BSP/Components/vl53l1cb/modules/vl53l1_api_preset_modes.c **** 		VL53L1_preset_mode_histogram_ranging(
 3461              		.loc 1 2091 2 view .LVU1280
2092:Drivers/BSP/Components/vl53l1cb/modules/vl53l1_api_preset_modes.c **** 			phistpostprocess,
 3462              		.loc 1 2092 3 is_stmt 0 view .LVU1281
 3463 0012 1C9E     		ldr	r6, [sp, #112]
 3464 0014 0496     		str	r6, [sp, #16]
 3465 0016 1B9E     		ldr	r6, [sp, #108]
 3466 0018 0396     		str	r6, [sp, #12]
 3467 001a 1A9E     		ldr	r6, [sp, #104]
 3468 001c 0296     		str	r6, [sp, #8]
 3469 001e 0195     		str	r5, [sp, #4]
 3470 0020 0094     		str	r4, [sp]
 3471 0022 FFF7FEFF 		bl	VL53L1_preset_mode_histogram_ranging
 3472              	.LVL134:
2105:Drivers/BSP/Components/vl53l1cb/modules/vl53l1_api_preset_modes.c **** 
 3473              		.loc 1 2105 2 is_stmt 1 view .LVU1282
2105:Drivers/BSP/Components/vl53l1cb/modules/vl53l1_api_preset_modes.c **** 
 3474              		.loc 1 2105 5 is_stmt 0 view .LVU1283
 3475 0026 0A90     		str	r0, [sp, #40]
 3476 0028 18B1     		cbz	r0, .L90
 3477              	.LVL135:
ARM GAS  C:\Temp\ccoVwn9Y.s 			page 128


 3478              	.L88:
2188:Drivers/BSP/Components/vl53l1cb/modules/vl53l1_api_preset_modes.c **** 
 3479              		.loc 1 2188 26 is_stmt 1 view .LVU1284
2190:Drivers/BSP/Components/vl53l1cb/modules/vl53l1_api_preset_modes.c **** }
 3480              		.loc 1 2190 2 view .LVU1285
2191:Drivers/BSP/Components/vl53l1cb/modules/vl53l1_api_preset_modes.c **** 
 3481              		.loc 1 2191 1 is_stmt 0 view .LVU1286
 3482 002a 0A98     		ldr	r0, [sp, #40]
 3483 002c 0FB0     		add	sp, sp, #60
 3484              		.cfi_remember_state
 3485              		.cfi_def_cfa_offset 36
 3486              		@ sp needed
 3487 002e BDE8F08F 		pop	{r4, r5, r6, r7, r8, r9, r10, fp, pc}
 3488              	.LVL136:
 3489              	.L90:
 3490              		.cfi_restore_state
2111:Drivers/BSP/Components/vl53l1cb/modules/vl53l1_api_preset_modes.c **** 			7, 0, 1, 2, 3, 4,
 3491              		.loc 1 2111 3 is_stmt 1 view .LVU1287
 3492 0032 0B9B     		ldr	r3, [sp, #44]
 3493 0034 0893     		str	r3, [sp, #32]
 3494 0036 0522     		movs	r2, #5
 3495 0038 0792     		str	r2, [sp, #28]
 3496 003a 4FF0040B 		mov	fp, #4
 3497 003e CDF818B0 		str	fp, [sp, #24]
 3498 0042 4FF0030A 		mov	r10, #3
 3499 0046 CDF814A0 		str	r10, [sp, #20]
 3500 004a 4FF00209 		mov	r9, #2
 3501 004e CDF81090 		str	r9, [sp, #16]
 3502 0052 0126     		movs	r6, #1
 3503 0054 0396     		str	r6, [sp, #12]
 3504 0056 4FF00008 		mov	r8, #0
 3505 005a CDF80880 		str	r8, [sp, #8]
 3506 005e CDF804B0 		str	fp, [sp, #4]
 3507 0062 CDF800A0 		str	r10, [sp]
 3508 0066 4B46     		mov	r3, r9
 3509 0068 3246     		mov	r2, r6
 3510 006a 4146     		mov	r1, r8
 3511 006c 0720     		movs	r0, #7
 3512              	.LVL137:
2111:Drivers/BSP/Components/vl53l1cb/modules/vl53l1_api_preset_modes.c **** 			7, 0, 1, 2, 3, 4,
 3513              		.loc 1 2111 3 is_stmt 0 view .LVU1288
 3514 006e FFF7FEFF 		bl	VL53L1_init_histogram_config_structure
 3515              	.LVL138:
2117:Drivers/BSP/Components/vl53l1cb/modules/vl53l1_api_preset_modes.c **** 			7, 0, 1, 2, 3, 4,
 3516              		.loc 1 2117 3 is_stmt 1 view .LVU1289
 3517 0072 1C9A     		ldr	r2, [sp, #112]
 3518 0074 02EB0903 		add	r3, r2, r9
 3519 0078 0893     		str	r3, [sp, #32]
 3520 007a 0522     		movs	r2, #5
 3521 007c 0792     		str	r2, [sp, #28]
 3522 007e CDF818B0 		str	fp, [sp, #24]
 3523 0082 CDF814A0 		str	r10, [sp, #20]
 3524 0086 CDF81090 		str	r9, [sp, #16]
 3525 008a 0396     		str	r6, [sp, #12]
 3526 008c CDF80880 		str	r8, [sp, #8]
 3527 0090 CDF804B0 		str	fp, [sp, #4]
 3528 0094 CDF800A0 		str	r10, [sp]
ARM GAS  C:\Temp\ccoVwn9Y.s 			page 129


 3529 0098 4B46     		mov	r3, r9
 3530 009a 3246     		mov	r2, r6
 3531 009c 4146     		mov	r1, r8
 3532 009e 0720     		movs	r0, #7
 3533 00a0 FFF7FEFF 		bl	VL53L1_init_histogram_multizone_config_structure
 3534              	.LVL139:
2124:Drivers/BSP/Components/vl53l1cb/modules/vl53l1_api_preset_modes.c **** 			phistogram,
 3535              		.loc 1 2124 3 view .LVU1290
 3536 00a4 0095     		str	r5, [sp]
 3537 00a6 2346     		mov	r3, r4
 3538 00a8 3A46     		mov	r2, r7
 3539 00aa 0D99     		ldr	r1, [sp, #52]
 3540 00ac 0B98     		ldr	r0, [sp, #44]
 3541 00ae FFF7FEFF 		bl	VL53L1_copy_hist_cfg_to_static_cfg
 3542              	.LVL140:
2133:Drivers/BSP/Components/vl53l1cb/modules/vl53l1_api_preset_modes.c **** 		ptiming->range_config__vcsel_period_b = 0x0b;
 3543              		.loc 1 2133 3 view .LVU1291
2133:Drivers/BSP/Components/vl53l1cb/modules/vl53l1_api_preset_modes.c **** 		ptiming->range_config__vcsel_period_b = 0x0b;
 3544              		.loc 1 2133 41 is_stmt 0 view .LVU1292
 3545 00b2 0923     		movs	r3, #9
 3546 00b4 A371     		strb	r3, [r4, #6]
2134:Drivers/BSP/Components/vl53l1cb/modules/vl53l1_api_preset_modes.c **** 
 3547              		.loc 1 2134 3 is_stmt 1 view .LVU1293
2134:Drivers/BSP/Components/vl53l1cb/modules/vl53l1_api_preset_modes.c **** 
 3548              		.loc 1 2134 41 is_stmt 0 view .LVU1294
 3549 00b6 0B22     		movs	r2, #11
 3550 00b8 6272     		strb	r2, [r4, #9]
2138:Drivers/BSP/Components/vl53l1cb/modules/vl53l1_api_preset_modes.c **** 		ptiming->mm_config__timeout_macrop_a_lo = 0x21;
 3551              		.loc 1 2138 3 is_stmt 1 view .LVU1295
2138:Drivers/BSP/Components/vl53l1cb/modules/vl53l1_api_preset_modes.c **** 		ptiming->mm_config__timeout_macrop_a_lo = 0x21;
 3552              		.loc 1 2138 43 is_stmt 0 view .LVU1296
 3553 00ba 84F80080 		strb	r8, [r4]
2139:Drivers/BSP/Components/vl53l1cb/modules/vl53l1_api_preset_modes.c **** 		ptiming->mm_config__timeout_macrop_b_hi = 0x00;
 3554              		.loc 1 2139 3 is_stmt 1 view .LVU1297
2139:Drivers/BSP/Components/vl53l1cb/modules/vl53l1_api_preset_modes.c **** 		ptiming->mm_config__timeout_macrop_b_hi = 0x00;
 3555              		.loc 1 2139 43 is_stmt 0 view .LVU1298
 3556 00be 2121     		movs	r1, #33
 3557 00c0 6170     		strb	r1, [r4, #1]
2140:Drivers/BSP/Components/vl53l1cb/modules/vl53l1_api_preset_modes.c **** 		ptiming->mm_config__timeout_macrop_b_lo = 0x1b;
 3558              		.loc 1 2140 3 is_stmt 1 view .LVU1299
2140:Drivers/BSP/Components/vl53l1cb/modules/vl53l1_api_preset_modes.c **** 		ptiming->mm_config__timeout_macrop_b_lo = 0x1b;
 3559              		.loc 1 2140 43 is_stmt 0 view .LVU1300
 3560 00c2 84F80280 		strb	r8, [r4, #2]
2141:Drivers/BSP/Components/vl53l1cb/modules/vl53l1_api_preset_modes.c **** 
 3561              		.loc 1 2141 3 is_stmt 1 view .LVU1301
2141:Drivers/BSP/Components/vl53l1cb/modules/vl53l1_api_preset_modes.c **** 
 3562              		.loc 1 2141 43 is_stmt 0 view .LVU1302
 3563 00c6 1B21     		movs	r1, #27
 3564 00c8 E170     		strb	r1, [r4, #3]
2145:Drivers/BSP/Components/vl53l1cb/modules/vl53l1_api_preset_modes.c **** 		ptiming->range_config__timeout_macrop_a_lo = 0x29;
 3565              		.loc 1 2145 3 is_stmt 1 view .LVU1303
2145:Drivers/BSP/Components/vl53l1cb/modules/vl53l1_api_preset_modes.c **** 		ptiming->range_config__timeout_macrop_a_lo = 0x29;
 3566              		.loc 1 2145 46 is_stmt 0 view .LVU1304
 3567 00ca 84F80480 		strb	r8, [r4, #4]
2146:Drivers/BSP/Components/vl53l1cb/modules/vl53l1_api_preset_modes.c **** 		ptiming->range_config__timeout_macrop_b_hi = 0x00;
 3568              		.loc 1 2146 3 is_stmt 1 view .LVU1305
2146:Drivers/BSP/Components/vl53l1cb/modules/vl53l1_api_preset_modes.c **** 		ptiming->range_config__timeout_macrop_b_hi = 0x00;
ARM GAS  C:\Temp\ccoVwn9Y.s 			page 130


 3569              		.loc 1 2146 46 is_stmt 0 view .LVU1306
 3570 00ce 2921     		movs	r1, #41
 3571 00d0 6171     		strb	r1, [r4, #5]
2147:Drivers/BSP/Components/vl53l1cb/modules/vl53l1_api_preset_modes.c **** 		ptiming->range_config__timeout_macrop_b_lo = 0x22;
 3572              		.loc 1 2147 3 is_stmt 1 view .LVU1307
2147:Drivers/BSP/Components/vl53l1cb/modules/vl53l1_api_preset_modes.c **** 		ptiming->range_config__timeout_macrop_b_lo = 0x22;
 3573              		.loc 1 2147 46 is_stmt 0 view .LVU1308
 3574 00d2 84F80780 		strb	r8, [r4, #7]
2148:Drivers/BSP/Components/vl53l1cb/modules/vl53l1_api_preset_modes.c **** 
 3575              		.loc 1 2148 3 is_stmt 1 view .LVU1309
2148:Drivers/BSP/Components/vl53l1cb/modules/vl53l1_api_preset_modes.c **** 
 3576              		.loc 1 2148 46 is_stmt 0 view .LVU1310
 3577 00d6 2221     		movs	r1, #34
 3578 00d8 2172     		strb	r1, [r4, #8]
2152:Drivers/BSP/Components/vl53l1cb/modules/vl53l1_api_preset_modes.c **** 
 3579              		.loc 1 2152 3 is_stmt 1 view .LVU1311
2152:Drivers/BSP/Components/vl53l1cb/modules/vl53l1_api_preset_modes.c **** 
 3580              		.loc 1 2152 37 is_stmt 0 view .LVU1312
 3581 00da FB70     		strb	r3, [r7, #3]
2156:Drivers/BSP/Components/vl53l1cb/modules/vl53l1_api_preset_modes.c **** 
 3582              		.loc 1 2156 3 is_stmt 1 view .LVU1313
2156:Drivers/BSP/Components/vl53l1cb/modules/vl53l1_api_preset_modes.c **** 
 3583              		.loc 1 2156 45 is_stmt 0 view .LVU1314
 3584 00dc F521     		movs	r1, #245
 3585 00de F971     		strb	r1, [r7, #7]
2160:Drivers/BSP/Components/vl53l1cb/modules/vl53l1_api_preset_modes.c **** 		pdynamic->sd_config__woi_sd1 = 0x0B;
 3586              		.loc 1 2160 3 is_stmt 1 view .LVU1315
2160:Drivers/BSP/Components/vl53l1cb/modules/vl53l1_api_preset_modes.c **** 		pdynamic->sd_config__woi_sd1 = 0x0B;
 3587              		.loc 1 2160 32 is_stmt 0 view .LVU1316
 3588 00e0 2B72     		strb	r3, [r5, #8]
2161:Drivers/BSP/Components/vl53l1cb/modules/vl53l1_api_preset_modes.c **** 		pdynamic->sd_config__initial_phase_sd0            =
 3589              		.loc 1 2161 3 is_stmt 1 view .LVU1317
2161:Drivers/BSP/Components/vl53l1cb/modules/vl53l1_api_preset_modes.c **** 		pdynamic->sd_config__initial_phase_sd0            =
 3590              		.loc 1 2161 32 is_stmt 0 view .LVU1318
 3591 00e2 6A72     		strb	r2, [r5, #9]
2162:Drivers/BSP/Components/vl53l1cb/modules/vl53l1_api_preset_modes.c **** 				ptuning_parms->tp_init_phase_rtn_hist_long;
 3592              		.loc 1 2162 3 is_stmt 1 view .LVU1319
2163:Drivers/BSP/Components/vl53l1cb/modules/vl53l1_api_preset_modes.c **** 		pdynamic->sd_config__initial_phase_sd1            =
 3593              		.loc 1 2163 18 is_stmt 0 view .LVU1320
 3594 00e4 1B9B     		ldr	r3, [sp, #108]
 3595 00e6 1B7B     		ldrb	r3, [r3, #12]	@ zero_extendqisi2
2162:Drivers/BSP/Components/vl53l1cb/modules/vl53l1_api_preset_modes.c **** 				ptuning_parms->tp_init_phase_rtn_hist_long;
 3596              		.loc 1 2162 53 view .LVU1321
 3597 00e8 AB72     		strb	r3, [r5, #10]
2164:Drivers/BSP/Components/vl53l1cb/modules/vl53l1_api_preset_modes.c **** 				ptuning_parms->tp_init_phase_ref_hist_long;
 3598              		.loc 1 2164 3 is_stmt 1 view .LVU1322
2165:Drivers/BSP/Components/vl53l1cb/modules/vl53l1_api_preset_modes.c **** 
 3599              		.loc 1 2165 18 is_stmt 0 view .LVU1323
 3600 00ea 1B9B     		ldr	r3, [sp, #108]
 3601 00ec DB7B     		ldrb	r3, [r3, #15]	@ zero_extendqisi2
2164:Drivers/BSP/Components/vl53l1cb/modules/vl53l1_api_preset_modes.c **** 				ptuning_parms->tp_init_phase_ref_hist_long;
 3602              		.loc 1 2164 53 view .LVU1324
 3603 00ee EB72     		strb	r3, [r5, #11]
2169:Drivers/BSP/Components/vl53l1cb/modules/vl53l1_api_preset_modes.c **** 		phistpostprocess->valid_phase_high = 0x88;
 3604              		.loc 1 2169 3 is_stmt 1 view .LVU1325
2169:Drivers/BSP/Components/vl53l1cb/modules/vl53l1_api_preset_modes.c **** 		phistpostprocess->valid_phase_high = 0x88;
 3605              		.loc 1 2169 37 is_stmt 0 view .LVU1326
ARM GAS  C:\Temp\ccoVwn9Y.s 			page 131


 3606 00f0 0823     		movs	r3, #8
 3607 00f2 0C9A     		ldr	r2, [sp, #48]
 3608 00f4 82F82030 		strb	r3, [r2, #32]
2170:Drivers/BSP/Components/vl53l1cb/modules/vl53l1_api_preset_modes.c **** 
 3609              		.loc 1 2170 3 is_stmt 1 view .LVU1327
2170:Drivers/BSP/Components/vl53l1cb/modules/vl53l1_api_preset_modes.c **** 
 3610              		.loc 1 2170 38 is_stmt 0 view .LVU1328
 3611 00f8 8823     		movs	r3, #136
 3612 00fa 82F82130 		strb	r3, [r2, #33]
2172:Drivers/BSP/Components/vl53l1cb/modules/vl53l1_api_preset_modes.c **** 				VL53L1_SEQUENCE_VHV_EN |
 3613              		.loc 1 2172 3 is_stmt 1 view .LVU1329
2172:Drivers/BSP/Components/vl53l1cb/modules/vl53l1_api_preset_modes.c **** 				VL53L1_SEQUENCE_VHV_EN |
 3614              		.loc 1 2172 37 is_stmt 0 view .LVU1330
 3615 00fe 9B23     		movs	r3, #155
 3616 0100 6B74     		strb	r3, [r5, #17]
2182:Drivers/BSP/Components/vl53l1cb/modules/vl53l1_api_preset_modes.c **** 				VL53L1_DEVICESCHEDULERMODE_HISTOGRAM |
 3617              		.loc 1 2182 3 is_stmt 1 view .LVU1331
2182:Drivers/BSP/Components/vl53l1cb/modules/vl53l1_api_preset_modes.c **** 				VL53L1_DEVICESCHEDULERMODE_HISTOGRAM |
 3618              		.loc 1 2182 31 is_stmt 0 view .LVU1332
 3619 0102 2623     		movs	r3, #38
 3620 0104 1A9A     		ldr	r2, [sp, #104]
 3621 0106 1371     		strb	r3, [r2, #4]
 3622 0108 8FE7     		b	.L88
 3623              		.cfi_endproc
 3624              	.LFE31:
 3626              		.section	.text.VL53L1_preset_mode_histogram_long_range_mm1,"ax",%progbits
 3627              		.align	1
 3628              		.global	VL53L1_preset_mode_histogram_long_range_mm1
 3629              		.syntax unified
 3630              		.thumb
 3631              		.thumb_func
 3633              	VL53L1_preset_mode_histogram_long_range_mm1:
 3634              	.LVL141:
 3635              	.LFB32:
2204:Drivers/BSP/Components/vl53l1cb/modules/vl53l1_api_preset_modes.c **** 
 3636              		.loc 1 2204 1 is_stmt 1 view -0
 3637              		.cfi_startproc
 3638              		@ args = 20, pretend = 0, frame = 8
 3639              		@ frame_needed = 0, uses_anonymous_args = 0
2204:Drivers/BSP/Components/vl53l1cb/modules/vl53l1_api_preset_modes.c **** 
 3640              		.loc 1 2204 1 is_stmt 0 view .LVU1334
 3641 0000 2DE9F04F 		push	{r4, r5, r6, r7, r8, r9, r10, fp, lr}
 3642              		.cfi_def_cfa_offset 36
 3643              		.cfi_offset 4, -36
 3644              		.cfi_offset 5, -32
 3645              		.cfi_offset 6, -28
 3646              		.cfi_offset 7, -24
 3647              		.cfi_offset 8, -20
 3648              		.cfi_offset 9, -16
 3649              		.cfi_offset 10, -12
 3650              		.cfi_offset 11, -8
 3651              		.cfi_offset 14, -4
 3652 0004 8DB0     		sub	sp, sp, #52
 3653              		.cfi_def_cfa_offset 88
 3654 0006 0A91     		str	r1, [sp, #40]
 3655 0008 1446     		mov	r4, r2
 3656 000a 0B93     		str	r3, [sp, #44]
ARM GAS  C:\Temp\ccoVwn9Y.s 			page 132


2207:Drivers/BSP/Components/vl53l1cb/modules/vl53l1_api_preset_modes.c **** 
 3657              		.loc 1 2207 2 is_stmt 1 view .LVU1335
 3658              	.LVL142:
2209:Drivers/BSP/Components/vl53l1cb/modules/vl53l1_api_preset_modes.c **** 
 3659              		.loc 1 2209 24 view .LVU1336
2213:Drivers/BSP/Components/vl53l1cb/modules/vl53l1_api_preset_modes.c **** 		VL53L1_preset_mode_histogram_long_range(
 3660              		.loc 1 2213 2 view .LVU1337
2214:Drivers/BSP/Components/vl53l1cb/modules/vl53l1_api_preset_modes.c **** 			phistpostprocess,
 3661              		.loc 1 2214 3 is_stmt 0 view .LVU1338
 3662 000c 1A9D     		ldr	r5, [sp, #104]
 3663 000e 0495     		str	r5, [sp, #16]
 3664 0010 199D     		ldr	r5, [sp, #100]
 3665 0012 0395     		str	r5, [sp, #12]
 3666 0014 189D     		ldr	r5, [sp, #96]
 3667 0016 0295     		str	r5, [sp, #8]
 3668 0018 179D     		ldr	r5, [sp, #92]
 3669 001a 0195     		str	r5, [sp, #4]
 3670 001c 169D     		ldr	r5, [sp, #88]
 3671 001e 0095     		str	r5, [sp]
 3672 0020 FFF7FEFF 		bl	VL53L1_preset_mode_histogram_long_range
 3673              	.LVL143:
2227:Drivers/BSP/Components/vl53l1cb/modules/vl53l1_api_preset_modes.c **** 
 3674              		.loc 1 2227 2 is_stmt 1 view .LVU1339
2227:Drivers/BSP/Components/vl53l1cb/modules/vl53l1_api_preset_modes.c **** 
 3675              		.loc 1 2227 5 is_stmt 0 view .LVU1340
 3676 0024 0546     		mov	r5, r0
 3677 0026 18B1     		cbz	r0, .L94
 3678              	.LVL144:
 3679              	.L92:
2264:Drivers/BSP/Components/vl53l1cb/modules/vl53l1_api_preset_modes.c **** 
 3680              		.loc 1 2264 26 is_stmt 1 view .LVU1341
2266:Drivers/BSP/Components/vl53l1cb/modules/vl53l1_api_preset_modes.c **** }
 3681              		.loc 1 2266 2 view .LVU1342
2267:Drivers/BSP/Components/vl53l1cb/modules/vl53l1_api_preset_modes.c **** 
 3682              		.loc 1 2267 1 is_stmt 0 view .LVU1343
 3683 0028 2846     		mov	r0, r5
 3684 002a 0DB0     		add	sp, sp, #52
 3685              		.cfi_remember_state
 3686              		.cfi_def_cfa_offset 36
 3687              		@ sp needed
 3688 002c BDE8F08F 		pop	{r4, r5, r6, r7, r8, r9, r10, fp, pc}
 3689              	.LVL145:
 3690              	.L94:
 3691              		.cfi_restore_state
2233:Drivers/BSP/Components/vl53l1cb/modules/vl53l1_api_preset_modes.c **** 				  7,   0,   1, 2, 3, 4,
 3692              		.loc 1 2233 3 is_stmt 1 view .LVU1344
 3693 0030 0894     		str	r4, [sp, #32]
 3694 0032 4FF0050B 		mov	fp, #5
 3695 0036 CDF81CB0 		str	fp, [sp, #28]
 3696 003a 0427     		movs	r7, #4
 3697 003c 0697     		str	r7, [sp, #24]
 3698 003e 0326     		movs	r6, #3
 3699 0040 0596     		str	r6, [sp, #20]
 3700 0042 4FF00A0A 		mov	r10, #10
 3701 0046 CDF810A0 		str	r10, [sp, #16]
 3702 004a 4FF00909 		mov	r9, #9
 3703 004e CDF80C90 		str	r9, [sp, #12]
ARM GAS  C:\Temp\ccoVwn9Y.s 			page 133


 3704 0052 4FF00808 		mov	r8, #8
 3705 0056 CDF80880 		str	r8, [sp, #8]
 3706 005a 0197     		str	r7, [sp, #4]
 3707 005c 0096     		str	r6, [sp]
 3708 005e 0223     		movs	r3, #2
 3709 0060 0122     		movs	r2, #1
 3710 0062 0021     		movs	r1, #0
 3711 0064 0720     		movs	r0, #7
 3712              	.LVL146:
2233:Drivers/BSP/Components/vl53l1cb/modules/vl53l1_api_preset_modes.c **** 				  7,   0,   1, 2, 3, 4,
 3713              		.loc 1 2233 3 is_stmt 0 view .LVU1345
 3714 0066 FFF7FEFF 		bl	VL53L1_init_histogram_config_structure
 3715              	.LVL147:
2239:Drivers/BSP/Components/vl53l1cb/modules/vl53l1_api_preset_modes.c **** 				  7,   0,   1, 2, 3, 4,
 3716              		.loc 1 2239 3 is_stmt 1 view .LVU1346
 3717 006a 1A9B     		ldr	r3, [sp, #104]
 3718 006c 0233     		adds	r3, r3, #2
 3719 006e 0893     		str	r3, [sp, #32]
 3720 0070 CDF81CB0 		str	fp, [sp, #28]
 3721 0074 0697     		str	r7, [sp, #24]
 3722 0076 0596     		str	r6, [sp, #20]
 3723 0078 CDF810A0 		str	r10, [sp, #16]
 3724 007c CDF80C90 		str	r9, [sp, #12]
 3725 0080 CDF80880 		str	r8, [sp, #8]
 3726 0084 0197     		str	r7, [sp, #4]
 3727 0086 0096     		str	r6, [sp]
 3728 0088 0223     		movs	r3, #2
 3729 008a 0122     		movs	r2, #1
 3730 008c 0021     		movs	r1, #0
 3731 008e 0720     		movs	r0, #7
 3732 0090 FFF7FEFF 		bl	VL53L1_init_histogram_multizone_config_structure
 3733              	.LVL148:
2246:Drivers/BSP/Components/vl53l1cb/modules/vl53l1_api_preset_modes.c **** 				phistogram,
 3734              		.loc 1 2246 3 view .LVU1347
 3735 0094 179B     		ldr	r3, [sp, #92]
 3736 0096 0093     		str	r3, [sp]
 3737 0098 169B     		ldr	r3, [sp, #88]
 3738 009a 0B9A     		ldr	r2, [sp, #44]
 3739 009c 0A99     		ldr	r1, [sp, #40]
 3740 009e 2046     		mov	r0, r4
 3741 00a0 FFF7FEFF 		bl	VL53L1_copy_hist_cfg_to_static_cfg
 3742              	.LVL149:
2255:Drivers/BSP/Components/vl53l1cb/modules/vl53l1_api_preset_modes.c **** 				VL53L1_SEQUENCE_VHV_EN |
 3743              		.loc 1 2255 3 view .LVU1348
2255:Drivers/BSP/Components/vl53l1cb/modules/vl53l1_api_preset_modes.c **** 				VL53L1_SEQUENCE_VHV_EN |
 3744              		.loc 1 2255 37 is_stmt 0 view .LVU1349
 3745 00a4 BB23     		movs	r3, #187
 3746 00a6 179A     		ldr	r2, [sp, #92]
 3747 00a8 5374     		strb	r3, [r2, #17]
 3748 00aa BDE7     		b	.L92
 3749              		.cfi_endproc
 3750              	.LFE32:
 3752              		.section	.text.VL53L1_preset_mode_histogram_long_range_mm2,"ax",%progbits
 3753              		.align	1
 3754              		.global	VL53L1_preset_mode_histogram_long_range_mm2
 3755              		.syntax unified
 3756              		.thumb
ARM GAS  C:\Temp\ccoVwn9Y.s 			page 134


 3757              		.thumb_func
 3759              	VL53L1_preset_mode_histogram_long_range_mm2:
 3760              	.LVL150:
 3761              	.LFB33:
2280:Drivers/BSP/Components/vl53l1cb/modules/vl53l1_api_preset_modes.c **** 
 3762              		.loc 1 2280 1 is_stmt 1 view -0
 3763              		.cfi_startproc
 3764              		@ args = 20, pretend = 0, frame = 0
 3765              		@ frame_needed = 0, uses_anonymous_args = 0
2280:Drivers/BSP/Components/vl53l1cb/modules/vl53l1_api_preset_modes.c **** 
 3766              		.loc 1 2280 1 is_stmt 0 view .LVU1351
 3767 0000 30B5     		push	{r4, r5, lr}
 3768              		.cfi_def_cfa_offset 12
 3769              		.cfi_offset 4, -12
 3770              		.cfi_offset 5, -8
 3771              		.cfi_offset 14, -4
 3772 0002 87B0     		sub	sp, sp, #28
 3773              		.cfi_def_cfa_offset 40
 3774 0004 0B9C     		ldr	r4, [sp, #44]
2283:Drivers/BSP/Components/vl53l1cb/modules/vl53l1_api_preset_modes.c **** 
 3775              		.loc 1 2283 2 is_stmt 1 view .LVU1352
 3776              	.LVL151:
2285:Drivers/BSP/Components/vl53l1cb/modules/vl53l1_api_preset_modes.c **** 
 3777              		.loc 1 2285 24 view .LVU1353
2289:Drivers/BSP/Components/vl53l1cb/modules/vl53l1_api_preset_modes.c **** 		VL53L1_preset_mode_histogram_long_range_mm1(
 3778              		.loc 1 2289 2 view .LVU1354
2290:Drivers/BSP/Components/vl53l1cb/modules/vl53l1_api_preset_modes.c **** 			phistpostprocess,
 3779              		.loc 1 2290 3 is_stmt 0 view .LVU1355
 3780 0006 0E9D     		ldr	r5, [sp, #56]
 3781 0008 0495     		str	r5, [sp, #16]
 3782 000a 0D9D     		ldr	r5, [sp, #52]
 3783 000c 0395     		str	r5, [sp, #12]
 3784 000e 0C9D     		ldr	r5, [sp, #48]
 3785 0010 0295     		str	r5, [sp, #8]
 3786 0012 0194     		str	r4, [sp, #4]
 3787 0014 0A9D     		ldr	r5, [sp, #40]
 3788 0016 0095     		str	r5, [sp]
 3789 0018 FFF7FEFF 		bl	VL53L1_preset_mode_histogram_long_range_mm1
 3790              	.LVL152:
2303:Drivers/BSP/Components/vl53l1cb/modules/vl53l1_api_preset_modes.c **** 
 3791              		.loc 1 2303 2 is_stmt 1 view .LVU1356
2303:Drivers/BSP/Components/vl53l1cb/modules/vl53l1_api_preset_modes.c **** 
 3792              		.loc 1 2303 5 is_stmt 0 view .LVU1357
 3793 001c 08B9     		cbnz	r0, .L96
2307:Drivers/BSP/Components/vl53l1cb/modules/vl53l1_api_preset_modes.c **** 				VL53L1_SEQUENCE_VHV_EN |
 3794              		.loc 1 2307 3 is_stmt 1 view .LVU1358
2307:Drivers/BSP/Components/vl53l1cb/modules/vl53l1_api_preset_modes.c **** 				VL53L1_SEQUENCE_VHV_EN |
 3795              		.loc 1 2307 37 is_stmt 0 view .LVU1359
 3796 001e DB23     		movs	r3, #219
 3797 0020 6374     		strb	r3, [r4, #17]
 3798              	.L96:
2316:Drivers/BSP/Components/vl53l1cb/modules/vl53l1_api_preset_modes.c **** 
 3799              		.loc 1 2316 26 is_stmt 1 view .LVU1360
2318:Drivers/BSP/Components/vl53l1cb/modules/vl53l1_api_preset_modes.c **** }
 3800              		.loc 1 2318 2 view .LVU1361
2319:Drivers/BSP/Components/vl53l1cb/modules/vl53l1_api_preset_modes.c **** 
 3801              		.loc 1 2319 1 is_stmt 0 view .LVU1362
ARM GAS  C:\Temp\ccoVwn9Y.s 			page 135


 3802 0022 07B0     		add	sp, sp, #28
 3803              		.cfi_def_cfa_offset 12
 3804              		@ sp needed
 3805 0024 30BD     		pop	{r4, r5, pc}
2319:Drivers/BSP/Components/vl53l1cb/modules/vl53l1_api_preset_modes.c **** 
 3806              		.loc 1 2319 1 view .LVU1363
 3807              		.cfi_endproc
 3808              	.LFE33:
 3810              		.section	.text.VL53L1_preset_mode_histogram_medium_range,"ax",%progbits
 3811              		.align	1
 3812              		.global	VL53L1_preset_mode_histogram_medium_range
 3813              		.syntax unified
 3814              		.thumb
 3815              		.thumb_func
 3817              	VL53L1_preset_mode_histogram_medium_range:
 3818              	.LVL153:
 3819              	.LFB34:
2333:Drivers/BSP/Components/vl53l1cb/modules/vl53l1_api_preset_modes.c **** 
 3820              		.loc 1 2333 1 is_stmt 1 view -0
 3821              		.cfi_startproc
 3822              		@ args = 20, pretend = 0, frame = 16
 3823              		@ frame_needed = 0, uses_anonymous_args = 0
2333:Drivers/BSP/Components/vl53l1cb/modules/vl53l1_api_preset_modes.c **** 
 3824              		.loc 1 2333 1 is_stmt 0 view .LVU1365
 3825 0000 2DE9F04F 		push	{r4, r5, r6, r7, r8, r9, r10, fp, lr}
 3826              		.cfi_def_cfa_offset 36
 3827              		.cfi_offset 4, -36
 3828              		.cfi_offset 5, -32
 3829              		.cfi_offset 6, -28
 3830              		.cfi_offset 7, -24
 3831              		.cfi_offset 8, -20
 3832              		.cfi_offset 9, -16
 3833              		.cfi_offset 10, -12
 3834              		.cfi_offset 11, -8
 3835              		.cfi_offset 14, -4
 3836 0004 8FB0     		sub	sp, sp, #60
 3837              		.cfi_def_cfa_offset 96
 3838 0006 0B90     		str	r0, [sp, #44]
 3839 0008 0C91     		str	r1, [sp, #48]
 3840 000a 9046     		mov	r8, r2
 3841 000c 0D93     		str	r3, [sp, #52]
 3842 000e 189C     		ldr	r4, [sp, #96]
 3843 0010 199D     		ldr	r5, [sp, #100]
 3844 0012 1C9E     		ldr	r6, [sp, #112]
2336:Drivers/BSP/Components/vl53l1cb/modules/vl53l1_api_preset_modes.c **** 
 3845              		.loc 1 2336 2 is_stmt 1 view .LVU1366
 3846              	.LVL154:
2338:Drivers/BSP/Components/vl53l1cb/modules/vl53l1_api_preset_modes.c **** 
 3847              		.loc 1 2338 24 view .LVU1367
2342:Drivers/BSP/Components/vl53l1cb/modules/vl53l1_api_preset_modes.c **** 		VL53L1_preset_mode_histogram_ranging(
 3848              		.loc 1 2342 2 view .LVU1368
2343:Drivers/BSP/Components/vl53l1cb/modules/vl53l1_api_preset_modes.c **** 			phistpostprocess,
 3849              		.loc 1 2343 3 is_stmt 0 view .LVU1369
 3850 0014 0496     		str	r6, [sp, #16]
 3851 0016 1B9F     		ldr	r7, [sp, #108]
 3852 0018 0397     		str	r7, [sp, #12]
 3853 001a 1A9F     		ldr	r7, [sp, #104]
ARM GAS  C:\Temp\ccoVwn9Y.s 			page 136


 3854 001c 0297     		str	r7, [sp, #8]
 3855 001e 0195     		str	r5, [sp, #4]
 3856 0020 0094     		str	r4, [sp]
 3857 0022 FFF7FEFF 		bl	VL53L1_preset_mode_histogram_ranging
 3858              	.LVL155:
2356:Drivers/BSP/Components/vl53l1cb/modules/vl53l1_api_preset_modes.c **** 
 3859              		.loc 1 2356 2 is_stmt 1 view .LVU1370
2356:Drivers/BSP/Components/vl53l1cb/modules/vl53l1_api_preset_modes.c **** 
 3860              		.loc 1 2356 5 is_stmt 0 view .LVU1371
 3861 0026 8346     		mov	fp, r0
 3862 0028 18B1     		cbz	r0, .L101
 3863              	.LVL156:
 3864              	.L99:
2439:Drivers/BSP/Components/vl53l1cb/modules/vl53l1_api_preset_modes.c **** 
 3865              		.loc 1 2439 26 is_stmt 1 view .LVU1372
2441:Drivers/BSP/Components/vl53l1cb/modules/vl53l1_api_preset_modes.c **** }
 3866              		.loc 1 2441 2 view .LVU1373
2442:Drivers/BSP/Components/vl53l1cb/modules/vl53l1_api_preset_modes.c **** 
 3867              		.loc 1 2442 1 is_stmt 0 view .LVU1374
 3868 002a 5846     		mov	r0, fp
 3869 002c 0FB0     		add	sp, sp, #60
 3870              		.cfi_remember_state
 3871              		.cfi_def_cfa_offset 36
 3872              		@ sp needed
 3873 002e BDE8F08F 		pop	{r4, r5, r6, r7, r8, r9, r10, fp, pc}
 3874              	.LVL157:
 3875              	.L101:
 3876              		.cfi_restore_state
2362:Drivers/BSP/Components/vl53l1cb/modules/vl53l1_api_preset_modes.c **** 				7, 0, 1, 1, 2, 2,
 3877              		.loc 1 2362 3 is_stmt 1 view .LVU1375
 3878 0032 4746     		mov	r7, r8
 3879 0034 CDF82080 		str	r8, [sp, #32]
 3880 0038 0323     		movs	r3, #3
 3881 003a 0793     		str	r3, [sp, #28]
 3882 003c 4FF0020A 		mov	r10, #2
 3883 0040 CDF818A0 		str	r10, [sp, #24]
 3884 0044 4FF00109 		mov	r9, #1
 3885 0048 CDF81490 		str	r9, [sp, #20]
 3886 004c CDF810A0 		str	r10, [sp, #16]
 3887 0050 CDF80C90 		str	r9, [sp, #12]
 3888 0054 4FF00008 		mov	r8, #0
 3889              	.LVL158:
2362:Drivers/BSP/Components/vl53l1cb/modules/vl53l1_api_preset_modes.c **** 				7, 0, 1, 1, 2, 2,
 3890              		.loc 1 2362 3 is_stmt 0 view .LVU1376
 3891 0058 CDF80880 		str	r8, [sp, #8]
 3892 005c CDF804A0 		str	r10, [sp, #4]
 3893 0060 CDF800A0 		str	r10, [sp]
 3894 0064 4B46     		mov	r3, r9
 3895 0066 4A46     		mov	r2, r9
 3896 0068 4146     		mov	r1, r8
 3897 006a 0720     		movs	r0, #7
 3898              	.LVL159:
2362:Drivers/BSP/Components/vl53l1cb/modules/vl53l1_api_preset_modes.c **** 				7, 0, 1, 1, 2, 2,
 3899              		.loc 1 2362 3 view .LVU1377
 3900 006c FFF7FEFF 		bl	VL53L1_init_histogram_config_structure
 3901              	.LVL160:
2368:Drivers/BSP/Components/vl53l1cb/modules/vl53l1_api_preset_modes.c **** 				7, 0, 1, 1, 2, 2,
ARM GAS  C:\Temp\ccoVwn9Y.s 			page 137


 3902              		.loc 1 2368 3 is_stmt 1 view .LVU1378
 3903 0070 5644     		add	r6, r6, r10
 3904 0072 0896     		str	r6, [sp, #32]
 3905 0074 0323     		movs	r3, #3
 3906 0076 0793     		str	r3, [sp, #28]
 3907 0078 CDF818A0 		str	r10, [sp, #24]
 3908 007c CDF81490 		str	r9, [sp, #20]
 3909 0080 CDF810A0 		str	r10, [sp, #16]
 3910 0084 CDF80C90 		str	r9, [sp, #12]
 3911 0088 CDF80880 		str	r8, [sp, #8]
 3912 008c CDF804A0 		str	r10, [sp, #4]
 3913 0090 CDF800A0 		str	r10, [sp]
 3914 0094 4B46     		mov	r3, r9
 3915 0096 4A46     		mov	r2, r9
 3916 0098 4146     		mov	r1, r8
 3917 009a 0720     		movs	r0, #7
 3918 009c FFF7FEFF 		bl	VL53L1_init_histogram_multizone_config_structure
 3919              	.LVL161:
2375:Drivers/BSP/Components/vl53l1cb/modules/vl53l1_api_preset_modes.c **** 				phistogram,
 3920              		.loc 1 2375 3 view .LVU1379
 3921 00a0 0095     		str	r5, [sp]
 3922 00a2 2346     		mov	r3, r4
 3923 00a4 0D9E     		ldr	r6, [sp, #52]
 3924 00a6 3246     		mov	r2, r6
 3925 00a8 0C99     		ldr	r1, [sp, #48]
 3926 00aa 3846     		mov	r0, r7
 3927 00ac FFF7FEFF 		bl	VL53L1_copy_hist_cfg_to_static_cfg
 3928              	.LVL162:
2384:Drivers/BSP/Components/vl53l1cb/modules/vl53l1_api_preset_modes.c **** 		ptiming->range_config__vcsel_period_b = 0x07;
 3929              		.loc 1 2384 3 view .LVU1380
2384:Drivers/BSP/Components/vl53l1cb/modules/vl53l1_api_preset_modes.c **** 		ptiming->range_config__vcsel_period_b = 0x07;
 3930              		.loc 1 2384 41 is_stmt 0 view .LVU1381
 3931 00b0 0523     		movs	r3, #5
 3932 00b2 A371     		strb	r3, [r4, #6]
2385:Drivers/BSP/Components/vl53l1cb/modules/vl53l1_api_preset_modes.c **** 
 3933              		.loc 1 2385 3 is_stmt 1 view .LVU1382
2385:Drivers/BSP/Components/vl53l1cb/modules/vl53l1_api_preset_modes.c **** 
 3934              		.loc 1 2385 41 is_stmt 0 view .LVU1383
 3935 00b4 0722     		movs	r2, #7
 3936 00b6 6272     		strb	r2, [r4, #9]
2389:Drivers/BSP/Components/vl53l1cb/modules/vl53l1_api_preset_modes.c **** 		ptiming->mm_config__timeout_macrop_a_lo = 0x36;
 3937              		.loc 1 2389 3 is_stmt 1 view .LVU1384
2389:Drivers/BSP/Components/vl53l1cb/modules/vl53l1_api_preset_modes.c **** 		ptiming->mm_config__timeout_macrop_a_lo = 0x36;
 3938              		.loc 1 2389 43 is_stmt 0 view .LVU1385
 3939 00b8 84F80080 		strb	r8, [r4]
2390:Drivers/BSP/Components/vl53l1cb/modules/vl53l1_api_preset_modes.c **** 		ptiming->mm_config__timeout_macrop_b_hi = 0x00;
 3940              		.loc 1 2390 3 is_stmt 1 view .LVU1386
2390:Drivers/BSP/Components/vl53l1cb/modules/vl53l1_api_preset_modes.c **** 		ptiming->mm_config__timeout_macrop_b_hi = 0x00;
 3941              		.loc 1 2390 43 is_stmt 0 view .LVU1387
 3942 00bc 3621     		movs	r1, #54
 3943 00be 6170     		strb	r1, [r4, #1]
2391:Drivers/BSP/Components/vl53l1cb/modules/vl53l1_api_preset_modes.c **** 		ptiming->mm_config__timeout_macrop_b_lo = 0x28;
 3944              		.loc 1 2391 3 is_stmt 1 view .LVU1388
2391:Drivers/BSP/Components/vl53l1cb/modules/vl53l1_api_preset_modes.c **** 		ptiming->mm_config__timeout_macrop_b_lo = 0x28;
 3945              		.loc 1 2391 43 is_stmt 0 view .LVU1389
 3946 00c0 84F80280 		strb	r8, [r4, #2]
2392:Drivers/BSP/Components/vl53l1cb/modules/vl53l1_api_preset_modes.c **** 
ARM GAS  C:\Temp\ccoVwn9Y.s 			page 138


 3947              		.loc 1 2392 3 is_stmt 1 view .LVU1390
2392:Drivers/BSP/Components/vl53l1cb/modules/vl53l1_api_preset_modes.c **** 
 3948              		.loc 1 2392 43 is_stmt 0 view .LVU1391
 3949 00c4 2821     		movs	r1, #40
 3950 00c6 E170     		strb	r1, [r4, #3]
2396:Drivers/BSP/Components/vl53l1cb/modules/vl53l1_api_preset_modes.c **** 		ptiming->range_config__timeout_macrop_a_lo = 0x44;
 3951              		.loc 1 2396 3 is_stmt 1 view .LVU1392
2396:Drivers/BSP/Components/vl53l1cb/modules/vl53l1_api_preset_modes.c **** 		ptiming->range_config__timeout_macrop_a_lo = 0x44;
 3952              		.loc 1 2396 46 is_stmt 0 view .LVU1393
 3953 00c8 84F80480 		strb	r8, [r4, #4]
2397:Drivers/BSP/Components/vl53l1cb/modules/vl53l1_api_preset_modes.c **** 		ptiming->range_config__timeout_macrop_b_hi = 0x00;
 3954              		.loc 1 2397 3 is_stmt 1 view .LVU1394
2397:Drivers/BSP/Components/vl53l1cb/modules/vl53l1_api_preset_modes.c **** 		ptiming->range_config__timeout_macrop_b_hi = 0x00;
 3955              		.loc 1 2397 46 is_stmt 0 view .LVU1395
 3956 00cc 4421     		movs	r1, #68
 3957 00ce 6171     		strb	r1, [r4, #5]
2398:Drivers/BSP/Components/vl53l1cb/modules/vl53l1_api_preset_modes.c **** 		ptiming->range_config__timeout_macrop_b_lo = 0x33;
 3958              		.loc 1 2398 3 is_stmt 1 view .LVU1396
2398:Drivers/BSP/Components/vl53l1cb/modules/vl53l1_api_preset_modes.c **** 		ptiming->range_config__timeout_macrop_b_lo = 0x33;
 3959              		.loc 1 2398 46 is_stmt 0 view .LVU1397
 3960 00d0 84F80780 		strb	r8, [r4, #7]
2399:Drivers/BSP/Components/vl53l1cb/modules/vl53l1_api_preset_modes.c **** 
 3961              		.loc 1 2399 3 is_stmt 1 view .LVU1398
2399:Drivers/BSP/Components/vl53l1cb/modules/vl53l1_api_preset_modes.c **** 
 3962              		.loc 1 2399 46 is_stmt 0 view .LVU1399
 3963 00d4 3321     		movs	r1, #51
 3964 00d6 2172     		strb	r1, [r4, #8]
2403:Drivers/BSP/Components/vl53l1cb/modules/vl53l1_api_preset_modes.c **** 
 3965              		.loc 1 2403 3 is_stmt 1 view .LVU1400
2403:Drivers/BSP/Components/vl53l1cb/modules/vl53l1_api_preset_modes.c **** 
 3966              		.loc 1 2403 37 is_stmt 0 view .LVU1401
 3967 00d8 F370     		strb	r3, [r6, #3]
2407:Drivers/BSP/Components/vl53l1cb/modules/vl53l1_api_preset_modes.c **** 
 3968              		.loc 1 2407 3 is_stmt 1 view .LVU1402
2407:Drivers/BSP/Components/vl53l1cb/modules/vl53l1_api_preset_modes.c **** 
 3969              		.loc 1 2407 45 is_stmt 0 view .LVU1403
 3970 00da F521     		movs	r1, #245
 3971 00dc F171     		strb	r1, [r6, #7]
2411:Drivers/BSP/Components/vl53l1cb/modules/vl53l1_api_preset_modes.c **** 		pdynamic->sd_config__woi_sd1 = 0x07;
 3972              		.loc 1 2411 3 is_stmt 1 view .LVU1404
2411:Drivers/BSP/Components/vl53l1cb/modules/vl53l1_api_preset_modes.c **** 		pdynamic->sd_config__woi_sd1 = 0x07;
 3973              		.loc 1 2411 32 is_stmt 0 view .LVU1405
 3974 00de 2B72     		strb	r3, [r5, #8]
2412:Drivers/BSP/Components/vl53l1cb/modules/vl53l1_api_preset_modes.c **** 		pdynamic->sd_config__initial_phase_sd0            =
 3975              		.loc 1 2412 3 is_stmt 1 view .LVU1406
2412:Drivers/BSP/Components/vl53l1cb/modules/vl53l1_api_preset_modes.c **** 		pdynamic->sd_config__initial_phase_sd0            =
 3976              		.loc 1 2412 32 is_stmt 0 view .LVU1407
 3977 00e0 6A72     		strb	r2, [r5, #9]
2413:Drivers/BSP/Components/vl53l1cb/modules/vl53l1_api_preset_modes.c **** 			ptuning_parms->tp_init_phase_rtn_hist_med;
 3978              		.loc 1 2413 3 is_stmt 1 view .LVU1408
2414:Drivers/BSP/Components/vl53l1cb/modules/vl53l1_api_preset_modes.c **** 		pdynamic->sd_config__initial_phase_sd1            =
 3979              		.loc 1 2414 17 is_stmt 0 view .LVU1409
 3980 00e2 1B9B     		ldr	r3, [sp, #108]
 3981 00e4 5B7B     		ldrb	r3, [r3, #13]	@ zero_extendqisi2
2413:Drivers/BSP/Components/vl53l1cb/modules/vl53l1_api_preset_modes.c **** 			ptuning_parms->tp_init_phase_rtn_hist_med;
 3982              		.loc 1 2413 53 view .LVU1410
 3983 00e6 AB72     		strb	r3, [r5, #10]
ARM GAS  C:\Temp\ccoVwn9Y.s 			page 139


2415:Drivers/BSP/Components/vl53l1cb/modules/vl53l1_api_preset_modes.c **** 			ptuning_parms->tp_init_phase_ref_hist_med;
 3984              		.loc 1 2415 3 is_stmt 1 view .LVU1411
2416:Drivers/BSP/Components/vl53l1cb/modules/vl53l1_api_preset_modes.c **** 
 3985              		.loc 1 2416 17 is_stmt 0 view .LVU1412
 3986 00e8 1B9B     		ldr	r3, [sp, #108]
 3987 00ea 1B7C     		ldrb	r3, [r3, #16]	@ zero_extendqisi2
2415:Drivers/BSP/Components/vl53l1cb/modules/vl53l1_api_preset_modes.c **** 			ptuning_parms->tp_init_phase_ref_hist_med;
 3988              		.loc 1 2415 53 view .LVU1413
 3989 00ec EB72     		strb	r3, [r5, #11]
2420:Drivers/BSP/Components/vl53l1cb/modules/vl53l1_api_preset_modes.c **** 		phistpostprocess->valid_phase_high = 0x48;
 3990              		.loc 1 2420 3 is_stmt 1 view .LVU1414
2420:Drivers/BSP/Components/vl53l1cb/modules/vl53l1_api_preset_modes.c **** 		phistpostprocess->valid_phase_high = 0x48;
 3991              		.loc 1 2420 37 is_stmt 0 view .LVU1415
 3992 00ee 0823     		movs	r3, #8
 3993 00f0 0B9A     		ldr	r2, [sp, #44]
 3994 00f2 82F82030 		strb	r3, [r2, #32]
2421:Drivers/BSP/Components/vl53l1cb/modules/vl53l1_api_preset_modes.c **** 
 3995              		.loc 1 2421 3 is_stmt 1 view .LVU1416
2421:Drivers/BSP/Components/vl53l1cb/modules/vl53l1_api_preset_modes.c **** 
 3996              		.loc 1 2421 38 is_stmt 0 view .LVU1417
 3997 00f6 4823     		movs	r3, #72
 3998 00f8 82F82130 		strb	r3, [r2, #33]
2423:Drivers/BSP/Components/vl53l1cb/modules/vl53l1_api_preset_modes.c **** 				VL53L1_SEQUENCE_VHV_EN |
 3999              		.loc 1 2423 3 is_stmt 1 view .LVU1418
2423:Drivers/BSP/Components/vl53l1cb/modules/vl53l1_api_preset_modes.c **** 				VL53L1_SEQUENCE_VHV_EN |
 4000              		.loc 1 2423 37 is_stmt 0 view .LVU1419
 4001 00fc 9B23     		movs	r3, #155
 4002 00fe 6B74     		strb	r3, [r5, #17]
2433:Drivers/BSP/Components/vl53l1cb/modules/vl53l1_api_preset_modes.c **** 				VL53L1_DEVICESCHEDULERMODE_HISTOGRAM |
 4003              		.loc 1 2433 3 is_stmt 1 view .LVU1420
2433:Drivers/BSP/Components/vl53l1cb/modules/vl53l1_api_preset_modes.c **** 				VL53L1_DEVICESCHEDULERMODE_HISTOGRAM |
 4004              		.loc 1 2433 31 is_stmt 0 view .LVU1421
 4005 0100 2623     		movs	r3, #38
 4006 0102 1A9A     		ldr	r2, [sp, #104]
 4007 0104 1371     		strb	r3, [r2, #4]
 4008 0106 90E7     		b	.L99
 4009              		.cfi_endproc
 4010              	.LFE34:
 4012              		.section	.text.VL53L1_preset_mode_histogram_medium_range_mm1,"ax",%progbits
 4013              		.align	1
 4014              		.global	VL53L1_preset_mode_histogram_medium_range_mm1
 4015              		.syntax unified
 4016              		.thumb
 4017              		.thumb_func
 4019              	VL53L1_preset_mode_histogram_medium_range_mm1:
 4020              	.LVL163:
 4021              	.LFB35:
2455:Drivers/BSP/Components/vl53l1cb/modules/vl53l1_api_preset_modes.c **** 
 4022              		.loc 1 2455 1 is_stmt 1 view -0
 4023              		.cfi_startproc
 4024              		@ args = 20, pretend = 0, frame = 8
 4025              		@ frame_needed = 0, uses_anonymous_args = 0
2455:Drivers/BSP/Components/vl53l1cb/modules/vl53l1_api_preset_modes.c **** 
 4026              		.loc 1 2455 1 is_stmt 0 view .LVU1423
 4027 0000 2DE9F04F 		push	{r4, r5, r6, r7, r8, r9, r10, fp, lr}
 4028              		.cfi_def_cfa_offset 36
 4029              		.cfi_offset 4, -36
ARM GAS  C:\Temp\ccoVwn9Y.s 			page 140


 4030              		.cfi_offset 5, -32
 4031              		.cfi_offset 6, -28
 4032              		.cfi_offset 7, -24
 4033              		.cfi_offset 8, -20
 4034              		.cfi_offset 9, -16
 4035              		.cfi_offset 10, -12
 4036              		.cfi_offset 11, -8
 4037              		.cfi_offset 14, -4
 4038 0004 8DB0     		sub	sp, sp, #52
 4039              		.cfi_def_cfa_offset 88
 4040 0006 0A91     		str	r1, [sp, #40]
 4041 0008 1446     		mov	r4, r2
 4042 000a 0B93     		str	r3, [sp, #44]
2458:Drivers/BSP/Components/vl53l1cb/modules/vl53l1_api_preset_modes.c **** 
 4043              		.loc 1 2458 2 is_stmt 1 view .LVU1424
 4044              	.LVL164:
2460:Drivers/BSP/Components/vl53l1cb/modules/vl53l1_api_preset_modes.c **** 
 4045              		.loc 1 2460 24 view .LVU1425
2464:Drivers/BSP/Components/vl53l1cb/modules/vl53l1_api_preset_modes.c **** 		VL53L1_preset_mode_histogram_medium_range(
 4046              		.loc 1 2464 2 view .LVU1426
2465:Drivers/BSP/Components/vl53l1cb/modules/vl53l1_api_preset_modes.c **** 			phistpostprocess,
 4047              		.loc 1 2465 3 is_stmt 0 view .LVU1427
 4048 000c 1A9D     		ldr	r5, [sp, #104]
 4049 000e 0495     		str	r5, [sp, #16]
 4050 0010 199D     		ldr	r5, [sp, #100]
 4051 0012 0395     		str	r5, [sp, #12]
 4052 0014 189D     		ldr	r5, [sp, #96]
 4053 0016 0295     		str	r5, [sp, #8]
 4054 0018 179D     		ldr	r5, [sp, #92]
 4055 001a 0195     		str	r5, [sp, #4]
 4056 001c 169D     		ldr	r5, [sp, #88]
 4057 001e 0095     		str	r5, [sp]
 4058 0020 FFF7FEFF 		bl	VL53L1_preset_mode_histogram_medium_range
 4059              	.LVL165:
2478:Drivers/BSP/Components/vl53l1cb/modules/vl53l1_api_preset_modes.c **** 
 4060              		.loc 1 2478 2 is_stmt 1 view .LVU1428
2478:Drivers/BSP/Components/vl53l1cb/modules/vl53l1_api_preset_modes.c **** 
 4061              		.loc 1 2478 5 is_stmt 0 view .LVU1429
 4062 0024 0746     		mov	r7, r0
 4063 0026 18B1     		cbz	r0, .L105
 4064              	.LVL166:
 4065              	.L103:
2513:Drivers/BSP/Components/vl53l1cb/modules/vl53l1_api_preset_modes.c **** 
 4066              		.loc 1 2513 26 is_stmt 1 view .LVU1430
2515:Drivers/BSP/Components/vl53l1cb/modules/vl53l1_api_preset_modes.c **** }
 4067              		.loc 1 2515 2 view .LVU1431
2516:Drivers/BSP/Components/vl53l1cb/modules/vl53l1_api_preset_modes.c **** 
 4068              		.loc 1 2516 1 is_stmt 0 view .LVU1432
 4069 0028 3846     		mov	r0, r7
 4070 002a 0DB0     		add	sp, sp, #52
 4071              		.cfi_remember_state
 4072              		.cfi_def_cfa_offset 36
 4073              		@ sp needed
 4074 002c BDE8F08F 		pop	{r4, r5, r6, r7, r8, r9, r10, fp, pc}
 4075              	.LVL167:
 4076              	.L105:
 4077              		.cfi_restore_state
ARM GAS  C:\Temp\ccoVwn9Y.s 			page 141


2482:Drivers/BSP/Components/vl53l1cb/modules/vl53l1_api_preset_modes.c **** 				  7,   0,   1, 1, 2, 2,
 4078              		.loc 1 2482 3 is_stmt 1 view .LVU1433
 4079 0030 0894     		str	r4, [sp, #32]
 4080 0032 4FF0030B 		mov	fp, #3
 4081 0036 CDF81CB0 		str	fp, [sp, #28]
 4082 003a 0226     		movs	r6, #2
 4083 003c 0696     		str	r6, [sp, #24]
 4084 003e 0125     		movs	r5, #1
 4085 0040 0595     		str	r5, [sp, #20]
 4086 0042 4FF00A0A 		mov	r10, #10
 4087 0046 CDF810A0 		str	r10, [sp, #16]
 4088 004a 4FF00909 		mov	r9, #9
 4089 004e CDF80C90 		str	r9, [sp, #12]
 4090 0052 4FF00808 		mov	r8, #8
 4091 0056 CDF80880 		str	r8, [sp, #8]
 4092 005a 0196     		str	r6, [sp, #4]
 4093 005c 0096     		str	r6, [sp]
 4094 005e 2B46     		mov	r3, r5
 4095 0060 2A46     		mov	r2, r5
 4096 0062 0021     		movs	r1, #0
 4097 0064 0720     		movs	r0, #7
 4098              	.LVL168:
2482:Drivers/BSP/Components/vl53l1cb/modules/vl53l1_api_preset_modes.c **** 				  7,   0,   1, 1, 2, 2,
 4099              		.loc 1 2482 3 is_stmt 0 view .LVU1434
 4100 0066 FFF7FEFF 		bl	VL53L1_init_histogram_config_structure
 4101              	.LVL169:
2488:Drivers/BSP/Components/vl53l1cb/modules/vl53l1_api_preset_modes.c **** 				  7,   0,   1, 1, 2, 2,
 4102              		.loc 1 2488 3 is_stmt 1 view .LVU1435
 4103 006a 1A9B     		ldr	r3, [sp, #104]
 4104 006c 3344     		add	r3, r3, r6
 4105 006e 0893     		str	r3, [sp, #32]
 4106 0070 CDF81CB0 		str	fp, [sp, #28]
 4107 0074 0696     		str	r6, [sp, #24]
 4108 0076 0595     		str	r5, [sp, #20]
 4109 0078 CDF810A0 		str	r10, [sp, #16]
 4110 007c CDF80C90 		str	r9, [sp, #12]
 4111 0080 CDF80880 		str	r8, [sp, #8]
 4112 0084 0196     		str	r6, [sp, #4]
 4113 0086 0096     		str	r6, [sp]
 4114 0088 2B46     		mov	r3, r5
 4115 008a 2A46     		mov	r2, r5
 4116 008c 0021     		movs	r1, #0
 4117 008e 0720     		movs	r0, #7
 4118 0090 FFF7FEFF 		bl	VL53L1_init_histogram_multizone_config_structure
 4119              	.LVL170:
2495:Drivers/BSP/Components/vl53l1cb/modules/vl53l1_api_preset_modes.c **** 				phistogram,
 4120              		.loc 1 2495 3 view .LVU1436
 4121 0094 179B     		ldr	r3, [sp, #92]
 4122 0096 0093     		str	r3, [sp]
 4123 0098 169B     		ldr	r3, [sp, #88]
 4124 009a 0B9A     		ldr	r2, [sp, #44]
 4125 009c 0A99     		ldr	r1, [sp, #40]
 4126 009e 2046     		mov	r0, r4
 4127 00a0 FFF7FEFF 		bl	VL53L1_copy_hist_cfg_to_static_cfg
 4128              	.LVL171:
2504:Drivers/BSP/Components/vl53l1cb/modules/vl53l1_api_preset_modes.c **** 				VL53L1_SEQUENCE_VHV_EN |
 4129              		.loc 1 2504 3 view .LVU1437
ARM GAS  C:\Temp\ccoVwn9Y.s 			page 142


2504:Drivers/BSP/Components/vl53l1cb/modules/vl53l1_api_preset_modes.c **** 				VL53L1_SEQUENCE_VHV_EN |
 4130              		.loc 1 2504 37 is_stmt 0 view .LVU1438
 4131 00a4 BB23     		movs	r3, #187
 4132 00a6 179A     		ldr	r2, [sp, #92]
 4133 00a8 5374     		strb	r3, [r2, #17]
 4134 00aa BDE7     		b	.L103
 4135              		.cfi_endproc
 4136              	.LFE35:
 4138              		.section	.text.VL53L1_preset_mode_histogram_medium_range_mm2,"ax",%progbits
 4139              		.align	1
 4140              		.global	VL53L1_preset_mode_histogram_medium_range_mm2
 4141              		.syntax unified
 4142              		.thumb
 4143              		.thumb_func
 4145              	VL53L1_preset_mode_histogram_medium_range_mm2:
 4146              	.LVL172:
 4147              	.LFB36:
2529:Drivers/BSP/Components/vl53l1cb/modules/vl53l1_api_preset_modes.c **** 
 4148              		.loc 1 2529 1 is_stmt 1 view -0
 4149              		.cfi_startproc
 4150              		@ args = 20, pretend = 0, frame = 0
 4151              		@ frame_needed = 0, uses_anonymous_args = 0
2529:Drivers/BSP/Components/vl53l1cb/modules/vl53l1_api_preset_modes.c **** 
 4152              		.loc 1 2529 1 is_stmt 0 view .LVU1440
 4153 0000 30B5     		push	{r4, r5, lr}
 4154              		.cfi_def_cfa_offset 12
 4155              		.cfi_offset 4, -12
 4156              		.cfi_offset 5, -8
 4157              		.cfi_offset 14, -4
 4158 0002 87B0     		sub	sp, sp, #28
 4159              		.cfi_def_cfa_offset 40
 4160 0004 0B9C     		ldr	r4, [sp, #44]
2532:Drivers/BSP/Components/vl53l1cb/modules/vl53l1_api_preset_modes.c **** 
 4161              		.loc 1 2532 2 is_stmt 1 view .LVU1441
 4162              	.LVL173:
2534:Drivers/BSP/Components/vl53l1cb/modules/vl53l1_api_preset_modes.c **** 
 4163              		.loc 1 2534 24 view .LVU1442
2538:Drivers/BSP/Components/vl53l1cb/modules/vl53l1_api_preset_modes.c **** 		VL53L1_preset_mode_histogram_medium_range_mm1(
 4164              		.loc 1 2538 2 view .LVU1443
2539:Drivers/BSP/Components/vl53l1cb/modules/vl53l1_api_preset_modes.c **** 			phistpostprocess,
 4165              		.loc 1 2539 3 is_stmt 0 view .LVU1444
 4166 0006 0E9D     		ldr	r5, [sp, #56]
 4167 0008 0495     		str	r5, [sp, #16]
 4168 000a 0D9D     		ldr	r5, [sp, #52]
 4169 000c 0395     		str	r5, [sp, #12]
 4170 000e 0C9D     		ldr	r5, [sp, #48]
 4171 0010 0295     		str	r5, [sp, #8]
 4172 0012 0194     		str	r4, [sp, #4]
 4173 0014 0A9D     		ldr	r5, [sp, #40]
 4174 0016 0095     		str	r5, [sp]
 4175 0018 FFF7FEFF 		bl	VL53L1_preset_mode_histogram_medium_range_mm1
 4176              	.LVL174:
2552:Drivers/BSP/Components/vl53l1cb/modules/vl53l1_api_preset_modes.c **** 
 4177              		.loc 1 2552 2 is_stmt 1 view .LVU1445
2552:Drivers/BSP/Components/vl53l1cb/modules/vl53l1_api_preset_modes.c **** 
 4178              		.loc 1 2552 5 is_stmt 0 view .LVU1446
 4179 001c 08B9     		cbnz	r0, .L107
ARM GAS  C:\Temp\ccoVwn9Y.s 			page 143


2556:Drivers/BSP/Components/vl53l1cb/modules/vl53l1_api_preset_modes.c **** 				VL53L1_SEQUENCE_VHV_EN |
 4180              		.loc 1 2556 3 is_stmt 1 view .LVU1447
2556:Drivers/BSP/Components/vl53l1cb/modules/vl53l1_api_preset_modes.c **** 				VL53L1_SEQUENCE_VHV_EN |
 4181              		.loc 1 2556 37 is_stmt 0 view .LVU1448
 4182 001e DB23     		movs	r3, #219
 4183 0020 6374     		strb	r3, [r4, #17]
 4184              	.L107:
2565:Drivers/BSP/Components/vl53l1cb/modules/vl53l1_api_preset_modes.c **** 
 4185              		.loc 1 2565 26 is_stmt 1 view .LVU1449
2567:Drivers/BSP/Components/vl53l1cb/modules/vl53l1_api_preset_modes.c **** }
 4186              		.loc 1 2567 2 view .LVU1450
2568:Drivers/BSP/Components/vl53l1cb/modules/vl53l1_api_preset_modes.c **** 
 4187              		.loc 1 2568 1 is_stmt 0 view .LVU1451
 4188 0022 07B0     		add	sp, sp, #28
 4189              		.cfi_def_cfa_offset 12
 4190              		@ sp needed
 4191 0024 30BD     		pop	{r4, r5, pc}
2568:Drivers/BSP/Components/vl53l1cb/modules/vl53l1_api_preset_modes.c **** 
 4192              		.loc 1 2568 1 view .LVU1452
 4193              		.cfi_endproc
 4194              	.LFE36:
 4196              		.section	.text.VL53L1_preset_mode_histogram_short_range,"ax",%progbits
 4197              		.align	1
 4198              		.global	VL53L1_preset_mode_histogram_short_range
 4199              		.syntax unified
 4200              		.thumb
 4201              		.thumb_func
 4203              	VL53L1_preset_mode_histogram_short_range:
 4204              	.LVL175:
 4205              	.LFB37:
2581:Drivers/BSP/Components/vl53l1cb/modules/vl53l1_api_preset_modes.c **** 
 4206              		.loc 1 2581 1 is_stmt 1 view -0
 4207              		.cfi_startproc
 4208              		@ args = 20, pretend = 0, frame = 16
 4209              		@ frame_needed = 0, uses_anonymous_args = 0
2581:Drivers/BSP/Components/vl53l1cb/modules/vl53l1_api_preset_modes.c **** 
 4210              		.loc 1 2581 1 is_stmt 0 view .LVU1454
 4211 0000 2DE9F04F 		push	{r4, r5, r6, r7, r8, r9, r10, fp, lr}
 4212              		.cfi_def_cfa_offset 36
 4213              		.cfi_offset 4, -36
 4214              		.cfi_offset 5, -32
 4215              		.cfi_offset 6, -28
 4216              		.cfi_offset 7, -24
 4217              		.cfi_offset 8, -20
 4218              		.cfi_offset 9, -16
 4219              		.cfi_offset 10, -12
 4220              		.cfi_offset 11, -8
 4221              		.cfi_offset 14, -4
 4222 0004 8FB0     		sub	sp, sp, #60
 4223              		.cfi_def_cfa_offset 96
 4224 0006 0C90     		str	r0, [sp, #48]
 4225 0008 0D91     		str	r1, [sp, #52]
 4226 000a 0B92     		str	r2, [sp, #44]
 4227 000c 9846     		mov	r8, r3
 4228 000e 189C     		ldr	r4, [sp, #96]
 4229 0010 199F     		ldr	r7, [sp, #100]
 4230 0012 1C9E     		ldr	r6, [sp, #112]
ARM GAS  C:\Temp\ccoVwn9Y.s 			page 144


2584:Drivers/BSP/Components/vl53l1cb/modules/vl53l1_api_preset_modes.c **** 
 4231              		.loc 1 2584 2 is_stmt 1 view .LVU1455
 4232              	.LVL176:
2586:Drivers/BSP/Components/vl53l1cb/modules/vl53l1_api_preset_modes.c **** 
 4233              		.loc 1 2586 24 view .LVU1456
2590:Drivers/BSP/Components/vl53l1cb/modules/vl53l1_api_preset_modes.c **** 		VL53L1_preset_mode_histogram_ranging(
 4234              		.loc 1 2590 2 view .LVU1457
2591:Drivers/BSP/Components/vl53l1cb/modules/vl53l1_api_preset_modes.c **** 			phistpostprocess,
 4235              		.loc 1 2591 3 is_stmt 0 view .LVU1458
 4236 0014 0496     		str	r6, [sp, #16]
 4237 0016 1B9D     		ldr	r5, [sp, #108]
 4238 0018 0395     		str	r5, [sp, #12]
 4239 001a 1A9D     		ldr	r5, [sp, #104]
 4240 001c 0295     		str	r5, [sp, #8]
 4241 001e 0197     		str	r7, [sp, #4]
 4242 0020 0094     		str	r4, [sp]
 4243 0022 FFF7FEFF 		bl	VL53L1_preset_mode_histogram_ranging
 4244              	.LVL177:
2604:Drivers/BSP/Components/vl53l1cb/modules/vl53l1_api_preset_modes.c **** 
 4245              		.loc 1 2604 2 is_stmt 1 view .LVU1459
2604:Drivers/BSP/Components/vl53l1cb/modules/vl53l1_api_preset_modes.c **** 
 4246              		.loc 1 2604 5 is_stmt 0 view .LVU1460
 4247 0026 8246     		mov	r10, r0
 4248 0028 18B1     		cbz	r0, .L112
 4249              	.LVL178:
 4250              	.L110:
2688:Drivers/BSP/Components/vl53l1cb/modules/vl53l1_api_preset_modes.c **** 
 4251              		.loc 1 2688 26 is_stmt 1 view .LVU1461
2690:Drivers/BSP/Components/vl53l1cb/modules/vl53l1_api_preset_modes.c **** }
 4252              		.loc 1 2690 2 view .LVU1462
2691:Drivers/BSP/Components/vl53l1cb/modules/vl53l1_api_preset_modes.c **** 
 4253              		.loc 1 2691 1 is_stmt 0 view .LVU1463
 4254 002a 5046     		mov	r0, r10
 4255 002c 0FB0     		add	sp, sp, #60
 4256              		.cfi_remember_state
 4257              		.cfi_def_cfa_offset 36
 4258              		@ sp needed
 4259 002e BDE8F08F 		pop	{r4, r5, r6, r7, r8, r9, r10, fp, pc}
 4260              	.LVL179:
 4261              	.L112:
 4262              		.cfi_restore_state
2610:Drivers/BSP/Components/vl53l1cb/modules/vl53l1_api_preset_modes.c **** 				7, 7, 0, 1, 1, 1,
 4263              		.loc 1 2610 3 is_stmt 1 view .LVU1464
 4264 0032 0B9B     		ldr	r3, [sp, #44]
 4265 0034 0893     		str	r3, [sp, #32]
 4266 0036 4FF0020B 		mov	fp, #2
 4267 003a CDF81CB0 		str	fp, [sp, #28]
 4268 003e CDF818B0 		str	fp, [sp, #24]
 4269 0042 0125     		movs	r5, #1
 4270 0044 0595     		str	r5, [sp, #20]
 4271 0046 0495     		str	r5, [sp, #16]
 4272 0048 0395     		str	r5, [sp, #12]
 4273 004a 4FF00009 		mov	r9, #0
 4274 004e CDF80890 		str	r9, [sp, #8]
 4275 0052 0195     		str	r5, [sp, #4]
 4276 0054 0095     		str	r5, [sp]
 4277 0056 2B46     		mov	r3, r5
ARM GAS  C:\Temp\ccoVwn9Y.s 			page 145


 4278 0058 4A46     		mov	r2, r9
 4279 005a 0721     		movs	r1, #7
 4280 005c 0846     		mov	r0, r1
 4281              	.LVL180:
2610:Drivers/BSP/Components/vl53l1cb/modules/vl53l1_api_preset_modes.c **** 				7, 7, 0, 1, 1, 1,
 4282              		.loc 1 2610 3 is_stmt 0 view .LVU1465
 4283 005e FFF7FEFF 		bl	VL53L1_init_histogram_config_structure
 4284              	.LVL181:
2616:Drivers/BSP/Components/vl53l1cb/modules/vl53l1_api_preset_modes.c **** 				7, 7, 0, 1, 1, 1,
 4285              		.loc 1 2616 3 is_stmt 1 view .LVU1466
 4286 0062 5E44     		add	r6, r6, fp
 4287 0064 0896     		str	r6, [sp, #32]
 4288 0066 CDF81CB0 		str	fp, [sp, #28]
 4289 006a CDF818B0 		str	fp, [sp, #24]
 4290 006e 0595     		str	r5, [sp, #20]
 4291 0070 0495     		str	r5, [sp, #16]
 4292 0072 0395     		str	r5, [sp, #12]
 4293 0074 CDF80890 		str	r9, [sp, #8]
 4294 0078 0195     		str	r5, [sp, #4]
 4295 007a 0095     		str	r5, [sp]
 4296 007c 2B46     		mov	r3, r5
 4297 007e 4A46     		mov	r2, r9
 4298 0080 0721     		movs	r1, #7
 4299 0082 0846     		mov	r0, r1
 4300 0084 FFF7FEFF 		bl	VL53L1_init_histogram_multizone_config_structure
 4301              	.LVL182:
2623:Drivers/BSP/Components/vl53l1cb/modules/vl53l1_api_preset_modes.c **** 				phistogram,
 4302              		.loc 1 2623 3 view .LVU1467
 4303 0088 0097     		str	r7, [sp]
 4304 008a 2346     		mov	r3, r4
 4305 008c 4246     		mov	r2, r8
 4306 008e 0D99     		ldr	r1, [sp, #52]
 4307 0090 0B98     		ldr	r0, [sp, #44]
 4308 0092 FFF7FEFF 		bl	VL53L1_copy_hist_cfg_to_static_cfg
 4309              	.LVL183:
2632:Drivers/BSP/Components/vl53l1cb/modules/vl53l1_api_preset_modes.c **** 		ptiming->range_config__vcsel_period_b = 0x05;
 4310              		.loc 1 2632 3 view .LVU1468
2632:Drivers/BSP/Components/vl53l1cb/modules/vl53l1_api_preset_modes.c **** 		ptiming->range_config__vcsel_period_b = 0x05;
 4311              		.loc 1 2632 41 is_stmt 0 view .LVU1469
 4312 0096 0323     		movs	r3, #3
 4313 0098 A371     		strb	r3, [r4, #6]
2633:Drivers/BSP/Components/vl53l1cb/modules/vl53l1_api_preset_modes.c **** 
 4314              		.loc 1 2633 3 is_stmt 1 view .LVU1470
2633:Drivers/BSP/Components/vl53l1cb/modules/vl53l1_api_preset_modes.c **** 
 4315              		.loc 1 2633 41 is_stmt 0 view .LVU1471
 4316 009a 0522     		movs	r2, #5
 4317 009c 6272     		strb	r2, [r4, #9]
2637:Drivers/BSP/Components/vl53l1cb/modules/vl53l1_api_preset_modes.c **** 		ptiming->mm_config__timeout_macrop_a_lo = 0x52;
 4318              		.loc 1 2637 3 is_stmt 1 view .LVU1472
2637:Drivers/BSP/Components/vl53l1cb/modules/vl53l1_api_preset_modes.c **** 		ptiming->mm_config__timeout_macrop_a_lo = 0x52;
 4319              		.loc 1 2637 43 is_stmt 0 view .LVU1473
 4320 009e 84F80090 		strb	r9, [r4]
2638:Drivers/BSP/Components/vl53l1cb/modules/vl53l1_api_preset_modes.c **** 		ptiming->mm_config__timeout_macrop_b_hi = 0x00;
 4321              		.loc 1 2638 3 is_stmt 1 view .LVU1474
2638:Drivers/BSP/Components/vl53l1cb/modules/vl53l1_api_preset_modes.c **** 		ptiming->mm_config__timeout_macrop_b_hi = 0x00;
 4322              		.loc 1 2638 43 is_stmt 0 view .LVU1475
 4323 00a2 5221     		movs	r1, #82
ARM GAS  C:\Temp\ccoVwn9Y.s 			page 146


 4324 00a4 6170     		strb	r1, [r4, #1]
2639:Drivers/BSP/Components/vl53l1cb/modules/vl53l1_api_preset_modes.c **** 		ptiming->mm_config__timeout_macrop_b_lo = 0x37;
 4325              		.loc 1 2639 3 is_stmt 1 view .LVU1476
2639:Drivers/BSP/Components/vl53l1cb/modules/vl53l1_api_preset_modes.c **** 		ptiming->mm_config__timeout_macrop_b_lo = 0x37;
 4326              		.loc 1 2639 43 is_stmt 0 view .LVU1477
 4327 00a6 84F80290 		strb	r9, [r4, #2]
2640:Drivers/BSP/Components/vl53l1cb/modules/vl53l1_api_preset_modes.c **** 
 4328              		.loc 1 2640 3 is_stmt 1 view .LVU1478
2640:Drivers/BSP/Components/vl53l1cb/modules/vl53l1_api_preset_modes.c **** 
 4329              		.loc 1 2640 43 is_stmt 0 view .LVU1479
 4330 00aa 3721     		movs	r1, #55
 4331 00ac E170     		strb	r1, [r4, #3]
2644:Drivers/BSP/Components/vl53l1cb/modules/vl53l1_api_preset_modes.c **** 		ptiming->range_config__timeout_macrop_a_lo = 0x66;
 4332              		.loc 1 2644 3 is_stmt 1 view .LVU1480
2644:Drivers/BSP/Components/vl53l1cb/modules/vl53l1_api_preset_modes.c **** 		ptiming->range_config__timeout_macrop_a_lo = 0x66;
 4333              		.loc 1 2644 46 is_stmt 0 view .LVU1481
 4334 00ae 84F80490 		strb	r9, [r4, #4]
2645:Drivers/BSP/Components/vl53l1cb/modules/vl53l1_api_preset_modes.c **** 		ptiming->range_config__timeout_macrop_b_hi = 0x00;
 4335              		.loc 1 2645 3 is_stmt 1 view .LVU1482
2645:Drivers/BSP/Components/vl53l1cb/modules/vl53l1_api_preset_modes.c **** 		ptiming->range_config__timeout_macrop_b_hi = 0x00;
 4336              		.loc 1 2645 46 is_stmt 0 view .LVU1483
 4337 00b2 6621     		movs	r1, #102
 4338 00b4 6171     		strb	r1, [r4, #5]
2646:Drivers/BSP/Components/vl53l1cb/modules/vl53l1_api_preset_modes.c **** 		ptiming->range_config__timeout_macrop_b_lo = 0x44;
 4339              		.loc 1 2646 3 is_stmt 1 view .LVU1484
2646:Drivers/BSP/Components/vl53l1cb/modules/vl53l1_api_preset_modes.c **** 		ptiming->range_config__timeout_macrop_b_lo = 0x44;
 4340              		.loc 1 2646 46 is_stmt 0 view .LVU1485
 4341 00b6 84F80790 		strb	r9, [r4, #7]
2647:Drivers/BSP/Components/vl53l1cb/modules/vl53l1_api_preset_modes.c **** 
 4342              		.loc 1 2647 3 is_stmt 1 view .LVU1486
2647:Drivers/BSP/Components/vl53l1cb/modules/vl53l1_api_preset_modes.c **** 
 4343              		.loc 1 2647 46 is_stmt 0 view .LVU1487
 4344 00ba 4421     		movs	r1, #68
 4345 00bc 2172     		strb	r1, [r4, #8]
2651:Drivers/BSP/Components/vl53l1cb/modules/vl53l1_api_preset_modes.c **** 
 4346              		.loc 1 2651 3 is_stmt 1 view .LVU1488
2651:Drivers/BSP/Components/vl53l1cb/modules/vl53l1_api_preset_modes.c **** 
 4347              		.loc 1 2651 37 is_stmt 0 view .LVU1489
 4348 00be 88F80330 		strb	r3, [r8, #3]
2655:Drivers/BSP/Components/vl53l1cb/modules/vl53l1_api_preset_modes.c **** 
 4349              		.loc 1 2655 3 is_stmt 1 view .LVU1490
2655:Drivers/BSP/Components/vl53l1cb/modules/vl53l1_api_preset_modes.c **** 
 4350              		.loc 1 2655 45 is_stmt 0 view .LVU1491
 4351 00c2 F521     		movs	r1, #245
 4352 00c4 88F80710 		strb	r1, [r8, #7]
2659:Drivers/BSP/Components/vl53l1cb/modules/vl53l1_api_preset_modes.c **** 		pdynamic->sd_config__woi_sd1 = 0x05;
 4353              		.loc 1 2659 3 is_stmt 1 view .LVU1492
2659:Drivers/BSP/Components/vl53l1cb/modules/vl53l1_api_preset_modes.c **** 		pdynamic->sd_config__woi_sd1 = 0x05;
 4354              		.loc 1 2659 32 is_stmt 0 view .LVU1493
 4355 00c8 3B72     		strb	r3, [r7, #8]
2660:Drivers/BSP/Components/vl53l1cb/modules/vl53l1_api_preset_modes.c **** 		pdynamic->sd_config__initial_phase_sd0            =
 4356              		.loc 1 2660 3 is_stmt 1 view .LVU1494
2660:Drivers/BSP/Components/vl53l1cb/modules/vl53l1_api_preset_modes.c **** 		pdynamic->sd_config__initial_phase_sd0            =
 4357              		.loc 1 2660 32 is_stmt 0 view .LVU1495
 4358 00ca 7A72     		strb	r2, [r7, #9]
2661:Drivers/BSP/Components/vl53l1cb/modules/vl53l1_api_preset_modes.c **** 			ptuning_parms->tp_init_phase_rtn_hist_short;
 4359              		.loc 1 2661 3 is_stmt 1 view .LVU1496
ARM GAS  C:\Temp\ccoVwn9Y.s 			page 147


2662:Drivers/BSP/Components/vl53l1cb/modules/vl53l1_api_preset_modes.c **** 		pdynamic->sd_config__initial_phase_sd1            =
 4360              		.loc 1 2662 17 is_stmt 0 view .LVU1497
 4361 00cc 1B9B     		ldr	r3, [sp, #108]
 4362 00ce 9B7B     		ldrb	r3, [r3, #14]	@ zero_extendqisi2
2661:Drivers/BSP/Components/vl53l1cb/modules/vl53l1_api_preset_modes.c **** 			ptuning_parms->tp_init_phase_rtn_hist_short;
 4363              		.loc 1 2661 53 view .LVU1498
 4364 00d0 BB72     		strb	r3, [r7, #10]
2663:Drivers/BSP/Components/vl53l1cb/modules/vl53l1_api_preset_modes.c **** 			ptuning_parms->tp_init_phase_ref_hist_short;
 4365              		.loc 1 2663 3 is_stmt 1 view .LVU1499
2664:Drivers/BSP/Components/vl53l1cb/modules/vl53l1_api_preset_modes.c **** 
 4366              		.loc 1 2664 17 is_stmt 0 view .LVU1500
 4367 00d2 1B9B     		ldr	r3, [sp, #108]
 4368 00d4 5B7C     		ldrb	r3, [r3, #17]	@ zero_extendqisi2
2663:Drivers/BSP/Components/vl53l1cb/modules/vl53l1_api_preset_modes.c **** 			ptuning_parms->tp_init_phase_ref_hist_short;
 4369              		.loc 1 2663 53 view .LVU1501
 4370 00d6 FB72     		strb	r3, [r7, #11]
2667:Drivers/BSP/Components/vl53l1cb/modules/vl53l1_api_preset_modes.c **** 		phistpostprocess->valid_phase_high = 0x28;
 4371              		.loc 1 2667 3 is_stmt 1 view .LVU1502
2667:Drivers/BSP/Components/vl53l1cb/modules/vl53l1_api_preset_modes.c **** 		phistpostprocess->valid_phase_high = 0x28;
 4372              		.loc 1 2667 37 is_stmt 0 view .LVU1503
 4373 00d8 0823     		movs	r3, #8
 4374 00da 0C9A     		ldr	r2, [sp, #48]
 4375 00dc 82F82030 		strb	r3, [r2, #32]
2668:Drivers/BSP/Components/vl53l1cb/modules/vl53l1_api_preset_modes.c **** 
 4376              		.loc 1 2668 3 is_stmt 1 view .LVU1504
2668:Drivers/BSP/Components/vl53l1cb/modules/vl53l1_api_preset_modes.c **** 
 4377              		.loc 1 2668 38 is_stmt 0 view .LVU1505
 4378 00e0 2823     		movs	r3, #40
 4379 00e2 82F82130 		strb	r3, [r2, #33]
2670:Drivers/BSP/Components/vl53l1cb/modules/vl53l1_api_preset_modes.c **** 				VL53L1_SEQUENCE_VHV_EN |
 4380              		.loc 1 2670 3 is_stmt 1 view .LVU1506
2670:Drivers/BSP/Components/vl53l1cb/modules/vl53l1_api_preset_modes.c **** 				VL53L1_SEQUENCE_VHV_EN |
 4381              		.loc 1 2670 37 is_stmt 0 view .LVU1507
 4382 00e6 BB23     		movs	r3, #187
 4383 00e8 7B74     		strb	r3, [r7, #17]
2682:Drivers/BSP/Components/vl53l1cb/modules/vl53l1_api_preset_modes.c **** 				VL53L1_DEVICESCHEDULERMODE_HISTOGRAM |
 4384              		.loc 1 2682 3 is_stmt 1 view .LVU1508
2682:Drivers/BSP/Components/vl53l1cb/modules/vl53l1_api_preset_modes.c **** 				VL53L1_DEVICESCHEDULERMODE_HISTOGRAM |
 4385              		.loc 1 2682 31 is_stmt 0 view .LVU1509
 4386 00ea 2623     		movs	r3, #38
 4387 00ec 1A9A     		ldr	r2, [sp, #104]
 4388 00ee 1371     		strb	r3, [r2, #4]
 4389 00f0 9BE7     		b	.L110
 4390              		.cfi_endproc
 4391              	.LFE37:
 4393              		.section	.text.VL53L1_preset_mode_special_histogram_short_range,"ax",%progbits
 4394              		.align	1
 4395              		.global	VL53L1_preset_mode_special_histogram_short_range
 4396              		.syntax unified
 4397              		.thumb
 4398              		.thumb_func
 4400              	VL53L1_preset_mode_special_histogram_short_range:
 4401              	.LVL184:
 4402              	.LFB38:
2705:Drivers/BSP/Components/vl53l1cb/modules/vl53l1_api_preset_modes.c **** 
 4403              		.loc 1 2705 1 is_stmt 1 view -0
 4404              		.cfi_startproc
ARM GAS  C:\Temp\ccoVwn9Y.s 			page 148


 4405              		@ args = 20, pretend = 0, frame = 8
 4406              		@ frame_needed = 0, uses_anonymous_args = 0
2705:Drivers/BSP/Components/vl53l1cb/modules/vl53l1_api_preset_modes.c **** 
 4407              		.loc 1 2705 1 is_stmt 0 view .LVU1511
 4408 0000 2DE9F04F 		push	{r4, r5, r6, r7, r8, r9, r10, fp, lr}
 4409              		.cfi_def_cfa_offset 36
 4410              		.cfi_offset 4, -36
 4411              		.cfi_offset 5, -32
 4412              		.cfi_offset 6, -28
 4413              		.cfi_offset 7, -24
 4414              		.cfi_offset 8, -20
 4415              		.cfi_offset 9, -16
 4416              		.cfi_offset 10, -12
 4417              		.cfi_offset 11, -8
 4418              		.cfi_offset 14, -4
 4419 0004 8DB0     		sub	sp, sp, #52
 4420              		.cfi_def_cfa_offset 88
 4421 0006 8246     		mov	r10, r0
 4422 0008 0B91     		str	r1, [sp, #44]
 4423 000a 0A92     		str	r2, [sp, #40]
 4424 000c 1C46     		mov	r4, r3
 4425 000e 169E     		ldr	r6, [sp, #88]
 4426 0010 DDF85C80 		ldr	r8, [sp, #92]
 4427 0014 1A9F     		ldr	r7, [sp, #104]
2708:Drivers/BSP/Components/vl53l1cb/modules/vl53l1_api_preset_modes.c **** 
 4428              		.loc 1 2708 2 is_stmt 1 view .LVU1512
 4429              	.LVL185:
2710:Drivers/BSP/Components/vl53l1cb/modules/vl53l1_api_preset_modes.c **** 
 4430              		.loc 1 2710 24 view .LVU1513
2714:Drivers/BSP/Components/vl53l1cb/modules/vl53l1_api_preset_modes.c **** 		VL53L1_preset_mode_histogram_short_range(
 4431              		.loc 1 2714 2 view .LVU1514
2715:Drivers/BSP/Components/vl53l1cb/modules/vl53l1_api_preset_modes.c **** 			phistpostprocess,
 4432              		.loc 1 2715 3 is_stmt 0 view .LVU1515
 4433 0016 0497     		str	r7, [sp, #16]
 4434 0018 199D     		ldr	r5, [sp, #100]
 4435 001a 0395     		str	r5, [sp, #12]
 4436 001c 189D     		ldr	r5, [sp, #96]
 4437 001e 0295     		str	r5, [sp, #8]
 4438 0020 CDF80480 		str	r8, [sp, #4]
 4439 0024 0096     		str	r6, [sp]
 4440 0026 FFF7FEFF 		bl	VL53L1_preset_mode_histogram_short_range
 4441              	.LVL186:
2728:Drivers/BSP/Components/vl53l1cb/modules/vl53l1_api_preset_modes.c **** 
 4442              		.loc 1 2728 2 is_stmt 1 view .LVU1516
2728:Drivers/BSP/Components/vl53l1cb/modules/vl53l1_api_preset_modes.c **** 
 4443              		.loc 1 2728 5 is_stmt 0 view .LVU1517
 4444 002a 8346     		mov	fp, r0
 4445 002c 18B1     		cbz	r0, .L116
 4446              	.LVL187:
 4447              	.L114:
2783:Drivers/BSP/Components/vl53l1cb/modules/vl53l1_api_preset_modes.c **** 
 4448              		.loc 1 2783 26 is_stmt 1 view .LVU1518
2785:Drivers/BSP/Components/vl53l1cb/modules/vl53l1_api_preset_modes.c **** }
 4449              		.loc 1 2785 2 view .LVU1519
2786:Drivers/BSP/Components/vl53l1cb/modules/vl53l1_api_preset_modes.c **** 
 4450              		.loc 1 2786 1 is_stmt 0 view .LVU1520
 4451 002e 5846     		mov	r0, fp
ARM GAS  C:\Temp\ccoVwn9Y.s 			page 149


 4452 0030 0DB0     		add	sp, sp, #52
 4453              		.cfi_remember_state
 4454              		.cfi_def_cfa_offset 36
 4455              		@ sp needed
 4456 0032 BDE8F08F 		pop	{r4, r5, r6, r7, r8, r9, r10, fp, pc}
 4457              	.LVL188:
 4458              	.L116:
 4459              		.cfi_restore_state
2734:Drivers/BSP/Components/vl53l1cb/modules/vl53l1_api_preset_modes.c **** 				7, 7, 0, 0, 1, 1,
 4460              		.loc 1 2734 3 is_stmt 1 view .LVU1521
 4461 0036 0A9B     		ldr	r3, [sp, #40]
 4462 0038 0893     		str	r3, [sp, #32]
 4463 003a 4FF00109 		mov	r9, #1
 4464 003e CDF81C90 		str	r9, [sp, #28]
 4465 0042 CDF81890 		str	r9, [sp, #24]
 4466 0046 CDF81490 		str	r9, [sp, #20]
 4467 004a 0025     		movs	r5, #0
 4468 004c 0495     		str	r5, [sp, #16]
 4469 004e 0395     		str	r5, [sp, #12]
 4470 0050 0295     		str	r5, [sp, #8]
 4471 0052 CDF80490 		str	r9, [sp, #4]
 4472 0056 CDF80090 		str	r9, [sp]
 4473 005a 2B46     		mov	r3, r5
 4474 005c 2A46     		mov	r2, r5
 4475 005e 0721     		movs	r1, #7
 4476 0060 0846     		mov	r0, r1
 4477              	.LVL189:
2734:Drivers/BSP/Components/vl53l1cb/modules/vl53l1_api_preset_modes.c **** 				7, 7, 0, 0, 1, 1,
 4478              		.loc 1 2734 3 is_stmt 0 view .LVU1522
 4479 0062 FFF7FEFF 		bl	VL53L1_init_histogram_config_structure
 4480              	.LVL190:
2740:Drivers/BSP/Components/vl53l1cb/modules/vl53l1_api_preset_modes.c **** 				7, 7, 0, 0, 1, 1,
 4481              		.loc 1 2740 3 is_stmt 1 view .LVU1523
 4482 0066 0237     		adds	r7, r7, #2
 4483 0068 0897     		str	r7, [sp, #32]
 4484 006a CDF81C90 		str	r9, [sp, #28]
 4485 006e CDF81890 		str	r9, [sp, #24]
 4486 0072 CDF81490 		str	r9, [sp, #20]
 4487 0076 0495     		str	r5, [sp, #16]
 4488 0078 0395     		str	r5, [sp, #12]
 4489 007a 0295     		str	r5, [sp, #8]
 4490 007c CDF80490 		str	r9, [sp, #4]
 4491 0080 CDF80090 		str	r9, [sp]
 4492 0084 2B46     		mov	r3, r5
 4493 0086 2A46     		mov	r2, r5
 4494 0088 0721     		movs	r1, #7
 4495 008a 0846     		mov	r0, r1
 4496 008c FFF7FEFF 		bl	VL53L1_init_histogram_multizone_config_structure
 4497              	.LVL191:
2747:Drivers/BSP/Components/vl53l1cb/modules/vl53l1_api_preset_modes.c **** 				phistogram,
 4498              		.loc 1 2747 3 view .LVU1524
 4499 0090 CDF80080 		str	r8, [sp]
 4500 0094 3346     		mov	r3, r6
 4501 0096 2246     		mov	r2, r4
 4502 0098 0B99     		ldr	r1, [sp, #44]
 4503 009a 0A98     		ldr	r0, [sp, #40]
 4504 009c FFF7FEFF 		bl	VL53L1_copy_hist_cfg_to_static_cfg
ARM GAS  C:\Temp\ccoVwn9Y.s 			page 150


 4505              	.LVL192:
2756:Drivers/BSP/Components/vl53l1cb/modules/vl53l1_api_preset_modes.c **** 		ptiming->range_config__vcsel_period_b = 0x03;
 4506              		.loc 1 2756 3 view .LVU1525
2756:Drivers/BSP/Components/vl53l1cb/modules/vl53l1_api_preset_modes.c **** 		ptiming->range_config__vcsel_period_b = 0x03;
 4507              		.loc 1 2756 41 is_stmt 0 view .LVU1526
 4508 00a0 0222     		movs	r2, #2
 4509 00a2 B271     		strb	r2, [r6, #6]
2757:Drivers/BSP/Components/vl53l1cb/modules/vl53l1_api_preset_modes.c **** 
 4510              		.loc 1 2757 3 is_stmt 1 view .LVU1527
2757:Drivers/BSP/Components/vl53l1cb/modules/vl53l1_api_preset_modes.c **** 
 4511              		.loc 1 2757 41 is_stmt 0 view .LVU1528
 4512 00a4 0323     		movs	r3, #3
 4513 00a6 7372     		strb	r3, [r6, #9]
2761:Drivers/BSP/Components/vl53l1cb/modules/vl53l1_api_preset_modes.c **** 
 4514              		.loc 1 2761 3 is_stmt 1 view .LVU1529
2761:Drivers/BSP/Components/vl53l1cb/modules/vl53l1_api_preset_modes.c **** 
 4515              		.loc 1 2761 37 is_stmt 0 view .LVU1530
 4516 00a8 E570     		strb	r5, [r4, #3]
2765:Drivers/BSP/Components/vl53l1cb/modules/vl53l1_api_preset_modes.c **** 
 4517              		.loc 1 2765 3 is_stmt 1 view .LVU1531
2765:Drivers/BSP/Components/vl53l1cb/modules/vl53l1_api_preset_modes.c **** 
 4518              		.loc 1 2765 37 is_stmt 0 view .LVU1532
 4519 00aa 3121     		movs	r1, #49
 4520 00ac 2172     		strb	r1, [r4, #8]
2769:Drivers/BSP/Components/vl53l1cb/modules/vl53l1_api_preset_modes.c **** 		pdynamic->sd_config__woi_sd1 = 0x03;
 4521              		.loc 1 2769 3 is_stmt 1 view .LVU1533
2769:Drivers/BSP/Components/vl53l1cb/modules/vl53l1_api_preset_modes.c **** 		pdynamic->sd_config__woi_sd1 = 0x03;
 4522              		.loc 1 2769 32 is_stmt 0 view .LVU1534
 4523 00ae 88F80820 		strb	r2, [r8, #8]
2770:Drivers/BSP/Components/vl53l1cb/modules/vl53l1_api_preset_modes.c **** 		pdynamic->sd_config__initial_phase_sd0            =
 4524              		.loc 1 2770 3 is_stmt 1 view .LVU1535
2770:Drivers/BSP/Components/vl53l1cb/modules/vl53l1_api_preset_modes.c **** 		pdynamic->sd_config__initial_phase_sd0            =
 4525              		.loc 1 2770 32 is_stmt 0 view .LVU1536
 4526 00b2 88F80930 		strb	r3, [r8, #9]
2771:Drivers/BSP/Components/vl53l1cb/modules/vl53l1_api_preset_modes.c **** 			ptuning_parms->tp_init_phase_rtn_hist_short;
 4527              		.loc 1 2771 3 is_stmt 1 view .LVU1537
2772:Drivers/BSP/Components/vl53l1cb/modules/vl53l1_api_preset_modes.c **** 		pdynamic->sd_config__initial_phase_sd1            =
 4528              		.loc 1 2772 17 is_stmt 0 view .LVU1538
 4529 00b6 199B     		ldr	r3, [sp, #100]
 4530 00b8 9B7B     		ldrb	r3, [r3, #14]	@ zero_extendqisi2
2771:Drivers/BSP/Components/vl53l1cb/modules/vl53l1_api_preset_modes.c **** 			ptuning_parms->tp_init_phase_rtn_hist_short;
 4531              		.loc 1 2771 53 view .LVU1539
 4532 00ba 88F80A30 		strb	r3, [r8, #10]
2773:Drivers/BSP/Components/vl53l1cb/modules/vl53l1_api_preset_modes.c **** 			ptuning_parms->tp_init_phase_ref_hist_short;
 4533              		.loc 1 2773 3 is_stmt 1 view .LVU1540
2774:Drivers/BSP/Components/vl53l1cb/modules/vl53l1_api_preset_modes.c **** 
 4534              		.loc 1 2774 17 is_stmt 0 view .LVU1541
 4535 00be 199B     		ldr	r3, [sp, #100]
 4536 00c0 5B7C     		ldrb	r3, [r3, #17]	@ zero_extendqisi2
2773:Drivers/BSP/Components/vl53l1cb/modules/vl53l1_api_preset_modes.c **** 			ptuning_parms->tp_init_phase_ref_hist_short;
 4537              		.loc 1 2773 53 view .LVU1542
 4538 00c2 88F80B30 		strb	r3, [r8, #11]
2778:Drivers/BSP/Components/vl53l1cb/modules/vl53l1_api_preset_modes.c **** 		phistpostprocess->valid_phase_high = 0x18;
 4539              		.loc 1 2778 3 is_stmt 1 view .LVU1543
2778:Drivers/BSP/Components/vl53l1cb/modules/vl53l1_api_preset_modes.c **** 		phistpostprocess->valid_phase_high = 0x18;
 4540              		.loc 1 2778 37 is_stmt 0 view .LVU1544
 4541 00c6 1023     		movs	r3, #16
ARM GAS  C:\Temp\ccoVwn9Y.s 			page 151


 4542 00c8 8AF82030 		strb	r3, [r10, #32]
2779:Drivers/BSP/Components/vl53l1cb/modules/vl53l1_api_preset_modes.c **** 
 4543              		.loc 1 2779 3 is_stmt 1 view .LVU1545
2779:Drivers/BSP/Components/vl53l1cb/modules/vl53l1_api_preset_modes.c **** 
 4544              		.loc 1 2779 38 is_stmt 0 view .LVU1546
 4545 00cc 1823     		movs	r3, #24
 4546 00ce 8AF82130 		strb	r3, [r10, #33]
 4547 00d2 ACE7     		b	.L114
 4548              		.cfi_endproc
 4549              	.LFE38:
 4551              		.section	.text.VL53L1_preset_mode_histogram_short_range_mm1,"ax",%progbits
 4552              		.align	1
 4553              		.global	VL53L1_preset_mode_histogram_short_range_mm1
 4554              		.syntax unified
 4555              		.thumb
 4556              		.thumb_func
 4558              	VL53L1_preset_mode_histogram_short_range_mm1:
 4559              	.LVL193:
 4560              	.LFB39:
2800:Drivers/BSP/Components/vl53l1cb/modules/vl53l1_api_preset_modes.c **** 
 4561              		.loc 1 2800 1 is_stmt 1 view -0
 4562              		.cfi_startproc
 4563              		@ args = 20, pretend = 0, frame = 8
 4564              		@ frame_needed = 0, uses_anonymous_args = 0
2800:Drivers/BSP/Components/vl53l1cb/modules/vl53l1_api_preset_modes.c **** 
 4565              		.loc 1 2800 1 is_stmt 0 view .LVU1548
 4566 0000 2DE9F04F 		push	{r4, r5, r6, r7, r8, r9, r10, fp, lr}
 4567              		.cfi_def_cfa_offset 36
 4568              		.cfi_offset 4, -36
 4569              		.cfi_offset 5, -32
 4570              		.cfi_offset 6, -28
 4571              		.cfi_offset 7, -24
 4572              		.cfi_offset 8, -20
 4573              		.cfi_offset 9, -16
 4574              		.cfi_offset 10, -12
 4575              		.cfi_offset 11, -8
 4576              		.cfi_offset 14, -4
 4577 0004 8DB0     		sub	sp, sp, #52
 4578              		.cfi_def_cfa_offset 88
 4579 0006 0B91     		str	r1, [sp, #44]
 4580 0008 1446     		mov	r4, r2
 4581 000a 1E46     		mov	r6, r3
 4582 000c 179F     		ldr	r7, [sp, #92]
2803:Drivers/BSP/Components/vl53l1cb/modules/vl53l1_api_preset_modes.c **** 
 4583              		.loc 1 2803 2 is_stmt 1 view .LVU1549
 4584              	.LVL194:
2805:Drivers/BSP/Components/vl53l1cb/modules/vl53l1_api_preset_modes.c **** 
 4585              		.loc 1 2805 24 view .LVU1550
2809:Drivers/BSP/Components/vl53l1cb/modules/vl53l1_api_preset_modes.c **** 		VL53L1_preset_mode_histogram_short_range(
 4586              		.loc 1 2809 2 view .LVU1551
2810:Drivers/BSP/Components/vl53l1cb/modules/vl53l1_api_preset_modes.c **** 			phistpostprocess,
 4587              		.loc 1 2810 3 is_stmt 0 view .LVU1552
 4588 000e 1A9D     		ldr	r5, [sp, #104]
 4589 0010 0495     		str	r5, [sp, #16]
 4590 0012 199D     		ldr	r5, [sp, #100]
 4591 0014 0395     		str	r5, [sp, #12]
 4592 0016 189D     		ldr	r5, [sp, #96]
ARM GAS  C:\Temp\ccoVwn9Y.s 			page 152


 4593 0018 0295     		str	r5, [sp, #8]
 4594 001a 0197     		str	r7, [sp, #4]
 4595 001c 169D     		ldr	r5, [sp, #88]
 4596 001e 0095     		str	r5, [sp]
 4597 0020 FFF7FEFF 		bl	VL53L1_preset_mode_histogram_short_range
 4598              	.LVL195:
2823:Drivers/BSP/Components/vl53l1cb/modules/vl53l1_api_preset_modes.c **** 
 4599              		.loc 1 2823 2 is_stmt 1 view .LVU1553
2823:Drivers/BSP/Components/vl53l1cb/modules/vl53l1_api_preset_modes.c **** 
 4600              		.loc 1 2823 5 is_stmt 0 view .LVU1554
 4601 0024 8046     		mov	r8, r0
 4602 0026 18B1     		cbz	r0, .L120
 4603              	.LVL196:
 4604              	.L118:
2861:Drivers/BSP/Components/vl53l1cb/modules/vl53l1_api_preset_modes.c **** 
 4605              		.loc 1 2861 26 is_stmt 1 view .LVU1555
2863:Drivers/BSP/Components/vl53l1cb/modules/vl53l1_api_preset_modes.c **** }
 4606              		.loc 1 2863 2 view .LVU1556
2864:Drivers/BSP/Components/vl53l1cb/modules/vl53l1_api_preset_modes.c **** 
 4607              		.loc 1 2864 1 is_stmt 0 view .LVU1557
 4608 0028 4046     		mov	r0, r8
 4609 002a 0DB0     		add	sp, sp, #52
 4610              		.cfi_remember_state
 4611              		.cfi_def_cfa_offset 36
 4612              		@ sp needed
 4613 002c BDE8F08F 		pop	{r4, r5, r6, r7, r8, r9, r10, fp, pc}
 4614              	.LVL197:
 4615              	.L120:
 4616              		.cfi_restore_state
2829:Drivers/BSP/Components/vl53l1cb/modules/vl53l1_api_preset_modes.c **** 				  7,   7, 0, 1, 1, 1,
 4617              		.loc 1 2829 3 is_stmt 1 view .LVU1558
 4618 0030 0894     		str	r4, [sp, #32]
 4619 0032 4FF00209 		mov	r9, #2
 4620 0036 CDF81C90 		str	r9, [sp, #28]
 4621 003a CDF81890 		str	r9, [sp, #24]
 4622 003e 0125     		movs	r5, #1
 4623 0040 0595     		str	r5, [sp, #20]
 4624 0042 0495     		str	r5, [sp, #16]
 4625 0044 4FF0090B 		mov	fp, #9
 4626 0048 CDF80CB0 		str	fp, [sp, #12]
 4627 004c 4FF0080A 		mov	r10, #8
 4628 0050 CDF808A0 		str	r10, [sp, #8]
 4629 0054 0195     		str	r5, [sp, #4]
 4630 0056 0095     		str	r5, [sp]
 4631 0058 2B46     		mov	r3, r5
 4632 005a 0022     		movs	r2, #0
 4633 005c 0721     		movs	r1, #7
 4634 005e 0846     		mov	r0, r1
 4635              	.LVL198:
2829:Drivers/BSP/Components/vl53l1cb/modules/vl53l1_api_preset_modes.c **** 				  7,   7, 0, 1, 1, 1,
 4636              		.loc 1 2829 3 is_stmt 0 view .LVU1559
 4637 0060 FFF7FEFF 		bl	VL53L1_init_histogram_config_structure
 4638              	.LVL199:
2835:Drivers/BSP/Components/vl53l1cb/modules/vl53l1_api_preset_modes.c **** 				  7,   7, 0, 1, 1, 1,
 4639              		.loc 1 2835 3 is_stmt 1 view .LVU1560
 4640 0064 1A9B     		ldr	r3, [sp, #104]
 4641 0066 4B44     		add	r3, r3, r9
ARM GAS  C:\Temp\ccoVwn9Y.s 			page 153


 4642 0068 0893     		str	r3, [sp, #32]
 4643 006a CDF81C90 		str	r9, [sp, #28]
 4644 006e CDF81890 		str	r9, [sp, #24]
 4645 0072 0595     		str	r5, [sp, #20]
 4646 0074 0495     		str	r5, [sp, #16]
 4647 0076 CDF80CB0 		str	fp, [sp, #12]
 4648 007a CDF808A0 		str	r10, [sp, #8]
 4649 007e 0195     		str	r5, [sp, #4]
 4650 0080 0095     		str	r5, [sp]
 4651 0082 2B46     		mov	r3, r5
 4652 0084 0022     		movs	r2, #0
 4653 0086 0721     		movs	r1, #7
 4654 0088 0846     		mov	r0, r1
 4655 008a FFF7FEFF 		bl	VL53L1_init_histogram_multizone_config_structure
 4656              	.LVL200:
2842:Drivers/BSP/Components/vl53l1cb/modules/vl53l1_api_preset_modes.c **** 				phistogram,
 4657              		.loc 1 2842 3 view .LVU1561
 4658 008e 0097     		str	r7, [sp]
 4659 0090 169B     		ldr	r3, [sp, #88]
 4660 0092 3246     		mov	r2, r6
 4661 0094 0B99     		ldr	r1, [sp, #44]
 4662 0096 2046     		mov	r0, r4
 4663 0098 FFF7FEFF 		bl	VL53L1_copy_hist_cfg_to_static_cfg
 4664              	.LVL201:
2851:Drivers/BSP/Components/vl53l1cb/modules/vl53l1_api_preset_modes.c **** 				VL53L1_SEQUENCE_VHV_EN |
 4665              		.loc 1 2851 3 view .LVU1562
2851:Drivers/BSP/Components/vl53l1cb/modules/vl53l1_api_preset_modes.c **** 				VL53L1_SEQUENCE_VHV_EN |
 4666              		.loc 1 2851 37 is_stmt 0 view .LVU1563
 4667 009c BB23     		movs	r3, #187
 4668 009e 7B74     		strb	r3, [r7, #17]
 4669 00a0 C2E7     		b	.L118
 4670              		.cfi_endproc
 4671              	.LFE39:
 4673              		.section	.text.VL53L1_preset_mode_histogram_short_range_mm2,"ax",%progbits
 4674              		.align	1
 4675              		.global	VL53L1_preset_mode_histogram_short_range_mm2
 4676              		.syntax unified
 4677              		.thumb
 4678              		.thumb_func
 4680              	VL53L1_preset_mode_histogram_short_range_mm2:
 4681              	.LVL202:
 4682              	.LFB40:
2877:Drivers/BSP/Components/vl53l1cb/modules/vl53l1_api_preset_modes.c **** 
 4683              		.loc 1 2877 1 is_stmt 1 view -0
 4684              		.cfi_startproc
 4685              		@ args = 20, pretend = 0, frame = 0
 4686              		@ frame_needed = 0, uses_anonymous_args = 0
2877:Drivers/BSP/Components/vl53l1cb/modules/vl53l1_api_preset_modes.c **** 
 4687              		.loc 1 2877 1 is_stmt 0 view .LVU1565
 4688 0000 30B5     		push	{r4, r5, lr}
 4689              		.cfi_def_cfa_offset 12
 4690              		.cfi_offset 4, -12
 4691              		.cfi_offset 5, -8
 4692              		.cfi_offset 14, -4
 4693 0002 87B0     		sub	sp, sp, #28
 4694              		.cfi_def_cfa_offset 40
 4695 0004 0B9C     		ldr	r4, [sp, #44]
ARM GAS  C:\Temp\ccoVwn9Y.s 			page 154


2880:Drivers/BSP/Components/vl53l1cb/modules/vl53l1_api_preset_modes.c **** 
 4696              		.loc 1 2880 2 is_stmt 1 view .LVU1566
 4697              	.LVL203:
2882:Drivers/BSP/Components/vl53l1cb/modules/vl53l1_api_preset_modes.c **** 
 4698              		.loc 1 2882 24 view .LVU1567
2886:Drivers/BSP/Components/vl53l1cb/modules/vl53l1_api_preset_modes.c **** 		VL53L1_preset_mode_histogram_short_range_mm1(
 4699              		.loc 1 2886 2 view .LVU1568
2887:Drivers/BSP/Components/vl53l1cb/modules/vl53l1_api_preset_modes.c **** 			phistpostprocess,
 4700              		.loc 1 2887 3 is_stmt 0 view .LVU1569
 4701 0006 0E9D     		ldr	r5, [sp, #56]
 4702 0008 0495     		str	r5, [sp, #16]
 4703 000a 0D9D     		ldr	r5, [sp, #52]
 4704 000c 0395     		str	r5, [sp, #12]
 4705 000e 0C9D     		ldr	r5, [sp, #48]
 4706 0010 0295     		str	r5, [sp, #8]
 4707 0012 0194     		str	r4, [sp, #4]
 4708 0014 0A9D     		ldr	r5, [sp, #40]
 4709 0016 0095     		str	r5, [sp]
 4710 0018 FFF7FEFF 		bl	VL53L1_preset_mode_histogram_short_range_mm1
 4711              	.LVL204:
2900:Drivers/BSP/Components/vl53l1cb/modules/vl53l1_api_preset_modes.c **** 
 4712              		.loc 1 2900 2 is_stmt 1 view .LVU1570
2900:Drivers/BSP/Components/vl53l1cb/modules/vl53l1_api_preset_modes.c **** 
 4713              		.loc 1 2900 5 is_stmt 0 view .LVU1571
 4714 001c 08B9     		cbnz	r0, .L122
2904:Drivers/BSP/Components/vl53l1cb/modules/vl53l1_api_preset_modes.c **** 				VL53L1_SEQUENCE_VHV_EN |
 4715              		.loc 1 2904 3 is_stmt 1 view .LVU1572
2904:Drivers/BSP/Components/vl53l1cb/modules/vl53l1_api_preset_modes.c **** 				VL53L1_SEQUENCE_VHV_EN |
 4716              		.loc 1 2904 37 is_stmt 0 view .LVU1573
 4717 001e DB23     		movs	r3, #219
 4718 0020 6374     		strb	r3, [r4, #17]
 4719              	.L122:
2913:Drivers/BSP/Components/vl53l1cb/modules/vl53l1_api_preset_modes.c **** 
 4720              		.loc 1 2913 26 is_stmt 1 view .LVU1574
2915:Drivers/BSP/Components/vl53l1cb/modules/vl53l1_api_preset_modes.c **** }
 4721              		.loc 1 2915 2 view .LVU1575
2916:Drivers/BSP/Components/vl53l1cb/modules/vl53l1_api_preset_modes.c **** 
 4722              		.loc 1 2916 1 is_stmt 0 view .LVU1576
 4723 0022 07B0     		add	sp, sp, #28
 4724              		.cfi_def_cfa_offset 12
 4725              		@ sp needed
 4726 0024 30BD     		pop	{r4, r5, pc}
2916:Drivers/BSP/Components/vl53l1cb/modules/vl53l1_api_preset_modes.c **** 
 4727              		.loc 1 2916 1 view .LVU1577
 4728              		.cfi_endproc
 4729              	.LFE40:
 4731              		.section	.text.VL53L1_preset_mode_histogram_xtalk_mm1,"ax",%progbits
 4732              		.align	1
 4733              		.global	VL53L1_preset_mode_histogram_xtalk_mm1
 4734              		.syntax unified
 4735              		.thumb
 4736              		.thumb_func
 4738              	VL53L1_preset_mode_histogram_xtalk_mm1:
 4739              	.LVL205:
 4740              	.LFB43:
3075:Drivers/BSP/Components/vl53l1cb/modules/vl53l1_api_preset_modes.c **** 
 4741              		.loc 1 3075 1 is_stmt 1 view -0
ARM GAS  C:\Temp\ccoVwn9Y.s 			page 155


 4742              		.cfi_startproc
 4743              		@ args = 20, pretend = 0, frame = 16
 4744              		@ frame_needed = 0, uses_anonymous_args = 0
3075:Drivers/BSP/Components/vl53l1cb/modules/vl53l1_api_preset_modes.c **** 
 4745              		.loc 1 3075 1 is_stmt 0 view .LVU1579
 4746 0000 2DE9F04F 		push	{r4, r5, r6, r7, r8, r9, r10, fp, lr}
 4747              		.cfi_def_cfa_offset 36
 4748              		.cfi_offset 4, -36
 4749              		.cfi_offset 5, -32
 4750              		.cfi_offset 6, -28
 4751              		.cfi_offset 7, -24
 4752              		.cfi_offset 8, -20
 4753              		.cfi_offset 9, -16
 4754              		.cfi_offset 10, -12
 4755              		.cfi_offset 11, -8
 4756              		.cfi_offset 14, -4
 4757 0004 8FB0     		sub	sp, sp, #60
 4758              		.cfi_def_cfa_offset 96
 4759 0006 0C91     		str	r1, [sp, #48]
 4760 0008 0B92     		str	r2, [sp, #44]
 4761 000a 0D93     		str	r3, [sp, #52]
 4762 000c 189C     		ldr	r4, [sp, #96]
 4763 000e 199D     		ldr	r5, [sp, #100]
3078:Drivers/BSP/Components/vl53l1cb/modules/vl53l1_api_preset_modes.c **** 
 4764              		.loc 1 3078 2 is_stmt 1 view .LVU1580
 4765              	.LVL206:
3080:Drivers/BSP/Components/vl53l1cb/modules/vl53l1_api_preset_modes.c **** 
 4766              		.loc 1 3080 24 view .LVU1581
3084:Drivers/BSP/Components/vl53l1cb/modules/vl53l1_api_preset_modes.c **** 		VL53L1_preset_mode_histogram_ranging(
 4767              		.loc 1 3084 2 view .LVU1582
3085:Drivers/BSP/Components/vl53l1cb/modules/vl53l1_api_preset_modes.c **** 			phistpostprocess,
 4768              		.loc 1 3085 3 is_stmt 0 view .LVU1583
 4769 0010 1C9E     		ldr	r6, [sp, #112]
 4770 0012 0496     		str	r6, [sp, #16]
 4771 0014 1B9E     		ldr	r6, [sp, #108]
 4772 0016 0396     		str	r6, [sp, #12]
 4773 0018 1A9E     		ldr	r6, [sp, #104]
 4774 001a 0296     		str	r6, [sp, #8]
 4775 001c 0195     		str	r5, [sp, #4]
 4776 001e 0094     		str	r4, [sp]
 4777 0020 FFF7FEFF 		bl	VL53L1_preset_mode_histogram_ranging
 4778              	.LVL207:
3099:Drivers/BSP/Components/vl53l1cb/modules/vl53l1_api_preset_modes.c **** 
 4779              		.loc 1 3099 2 is_stmt 1 view .LVU1584
3099:Drivers/BSP/Components/vl53l1cb/modules/vl53l1_api_preset_modes.c **** 
 4780              		.loc 1 3099 5 is_stmt 0 view .LVU1585
 4781 0024 0A90     		str	r0, [sp, #40]
 4782 0026 18B1     		cbz	r0, .L127
 4783              	.LVL208:
 4784              	.L125:
3176:Drivers/BSP/Components/vl53l1cb/modules/vl53l1_api_preset_modes.c **** 
 4785              		.loc 1 3176 26 is_stmt 1 view .LVU1586
3178:Drivers/BSP/Components/vl53l1cb/modules/vl53l1_api_preset_modes.c **** }
 4786              		.loc 1 3178 2 view .LVU1587
3179:Drivers/BSP/Components/vl53l1cb/modules/vl53l1_api_preset_modes.c **** 
 4787              		.loc 1 3179 1 is_stmt 0 view .LVU1588
 4788 0028 0A98     		ldr	r0, [sp, #40]
ARM GAS  C:\Temp\ccoVwn9Y.s 			page 156


 4789 002a 0FB0     		add	sp, sp, #60
 4790              		.cfi_remember_state
 4791              		.cfi_def_cfa_offset 36
 4792              		@ sp needed
 4793 002c BDE8F08F 		pop	{r4, r5, r6, r7, r8, r9, r10, fp, pc}
 4794              	.LVL209:
 4795              	.L127:
 4796              		.cfi_restore_state
3105:Drivers/BSP/Components/vl53l1cb/modules/vl53l1_api_preset_modes.c **** 				8+7, 8+0, 8+1, 8+2, 8+3, 8+4,
 4797              		.loc 1 3105 3 is_stmt 1 view .LVU1589
 4798 0030 0B9B     		ldr	r3, [sp, #44]
 4799 0032 0893     		str	r3, [sp, #32]
 4800 0034 4FF00C0B 		mov	fp, #12
 4801 0038 CDF81CB0 		str	fp, [sp, #28]
 4802 003c 4FF00B0A 		mov	r10, #11
 4803 0040 CDF818A0 		str	r10, [sp, #24]
 4804 0044 4FF00A09 		mov	r9, #10
 4805 0048 CDF81490 		str	r9, [sp, #20]
 4806 004c 4FF00908 		mov	r8, #9
 4807 0050 CDF81080 		str	r8, [sp, #16]
 4808 0054 0827     		movs	r7, #8
 4809 0056 0397     		str	r7, [sp, #12]
 4810 0058 0F26     		movs	r6, #15
 4811 005a 0296     		str	r6, [sp, #8]
 4812 005c CDF804B0 		str	fp, [sp, #4]
 4813 0060 CDF800A0 		str	r10, [sp]
 4814 0064 4B46     		mov	r3, r9
 4815 0066 4246     		mov	r2, r8
 4816 0068 3946     		mov	r1, r7
 4817 006a 3046     		mov	r0, r6
 4818              	.LVL210:
3105:Drivers/BSP/Components/vl53l1cb/modules/vl53l1_api_preset_modes.c **** 				8+7, 8+0, 8+1, 8+2, 8+3, 8+4,
 4819              		.loc 1 3105 3 is_stmt 0 view .LVU1590
 4820 006c FFF7FEFF 		bl	VL53L1_init_histogram_config_structure
 4821              	.LVL211:
3111:Drivers/BSP/Components/vl53l1cb/modules/vl53l1_api_preset_modes.c **** 				8+7, 8+0, 8+1, 8+2, 8+3, 8+4,
 4822              		.loc 1 3111 3 is_stmt 1 view .LVU1591
 4823 0070 1C9A     		ldr	r2, [sp, #112]
 4824 0072 931C     		adds	r3, r2, #2
 4825 0074 0893     		str	r3, [sp, #32]
 4826 0076 CDF81CB0 		str	fp, [sp, #28]
 4827 007a CDF818A0 		str	r10, [sp, #24]
 4828 007e CDF81490 		str	r9, [sp, #20]
 4829 0082 CDF81080 		str	r8, [sp, #16]
 4830 0086 0397     		str	r7, [sp, #12]
 4831 0088 0296     		str	r6, [sp, #8]
 4832 008a CDF804B0 		str	fp, [sp, #4]
 4833 008e CDF800A0 		str	r10, [sp]
 4834 0092 4B46     		mov	r3, r9
 4835 0094 4246     		mov	r2, r8
 4836 0096 3946     		mov	r1, r7
 4837 0098 3046     		mov	r0, r6
 4838 009a FFF7FEFF 		bl	VL53L1_init_histogram_multizone_config_structure
 4839              	.LVL212:
3118:Drivers/BSP/Components/vl53l1cb/modules/vl53l1_api_preset_modes.c **** 				phistogram,
 4840              		.loc 1 3118 3 view .LVU1592
 4841 009e 0095     		str	r5, [sp]
ARM GAS  C:\Temp\ccoVwn9Y.s 			page 157


 4842 00a0 2346     		mov	r3, r4
 4843 00a2 0D9E     		ldr	r6, [sp, #52]
 4844 00a4 3246     		mov	r2, r6
 4845 00a6 0C99     		ldr	r1, [sp, #48]
 4846 00a8 0B98     		ldr	r0, [sp, #44]
 4847 00aa FFF7FEFF 		bl	VL53L1_copy_hist_cfg_to_static_cfg
 4848              	.LVL213:
3127:Drivers/BSP/Components/vl53l1cb/modules/vl53l1_api_preset_modes.c **** 		ptiming->range_config__vcsel_period_b = 0x09;
 4849              		.loc 1 3127 3 view .LVU1593
3127:Drivers/BSP/Components/vl53l1cb/modules/vl53l1_api_preset_modes.c **** 		ptiming->range_config__vcsel_period_b = 0x09;
 4850              		.loc 1 3127 41 is_stmt 0 view .LVU1594
 4851 00ae 84F80680 		strb	r8, [r4, #6]
3128:Drivers/BSP/Components/vl53l1cb/modules/vl53l1_api_preset_modes.c **** 
 4852              		.loc 1 3128 3 is_stmt 1 view .LVU1595
3128:Drivers/BSP/Components/vl53l1cb/modules/vl53l1_api_preset_modes.c **** 
 4853              		.loc 1 3128 41 is_stmt 0 view .LVU1596
 4854 00b2 84F80980 		strb	r8, [r4, #9]
3132:Drivers/BSP/Components/vl53l1cb/modules/vl53l1_api_preset_modes.c **** 		ptiming->mm_config__timeout_macrop_a_lo = 0x21;
 4855              		.loc 1 3132 3 is_stmt 1 view .LVU1597
3132:Drivers/BSP/Components/vl53l1cb/modules/vl53l1_api_preset_modes.c **** 		ptiming->mm_config__timeout_macrop_a_lo = 0x21;
 4856              		.loc 1 3132 43 is_stmt 0 view .LVU1598
 4857 00b6 0023     		movs	r3, #0
 4858 00b8 2370     		strb	r3, [r4]
3133:Drivers/BSP/Components/vl53l1cb/modules/vl53l1_api_preset_modes.c **** 		ptiming->mm_config__timeout_macrop_b_hi = 0x00;
 4859              		.loc 1 3133 3 is_stmt 1 view .LVU1599
3133:Drivers/BSP/Components/vl53l1cb/modules/vl53l1_api_preset_modes.c **** 		ptiming->mm_config__timeout_macrop_b_hi = 0x00;
 4860              		.loc 1 3133 43 is_stmt 0 view .LVU1600
 4861 00ba 2122     		movs	r2, #33
 4862 00bc 6270     		strb	r2, [r4, #1]
3134:Drivers/BSP/Components/vl53l1cb/modules/vl53l1_api_preset_modes.c **** 		ptiming->mm_config__timeout_macrop_b_lo = 0x21;
 4863              		.loc 1 3134 3 is_stmt 1 view .LVU1601
3134:Drivers/BSP/Components/vl53l1cb/modules/vl53l1_api_preset_modes.c **** 		ptiming->mm_config__timeout_macrop_b_lo = 0x21;
 4864              		.loc 1 3134 43 is_stmt 0 view .LVU1602
 4865 00be A370     		strb	r3, [r4, #2]
3135:Drivers/BSP/Components/vl53l1cb/modules/vl53l1_api_preset_modes.c **** 
 4866              		.loc 1 3135 3 is_stmt 1 view .LVU1603
3135:Drivers/BSP/Components/vl53l1cb/modules/vl53l1_api_preset_modes.c **** 
 4867              		.loc 1 3135 43 is_stmt 0 view .LVU1604
 4868 00c0 E270     		strb	r2, [r4, #3]
3139:Drivers/BSP/Components/vl53l1cb/modules/vl53l1_api_preset_modes.c **** 		ptiming->range_config__timeout_macrop_a_lo = 0x29;
 4869              		.loc 1 3139 3 is_stmt 1 view .LVU1605
3139:Drivers/BSP/Components/vl53l1cb/modules/vl53l1_api_preset_modes.c **** 		ptiming->range_config__timeout_macrop_a_lo = 0x29;
 4870              		.loc 1 3139 46 is_stmt 0 view .LVU1606
 4871 00c2 2371     		strb	r3, [r4, #4]
3140:Drivers/BSP/Components/vl53l1cb/modules/vl53l1_api_preset_modes.c **** 		ptiming->range_config__timeout_macrop_b_hi = 0x00;
 4872              		.loc 1 3140 3 is_stmt 1 view .LVU1607
3140:Drivers/BSP/Components/vl53l1cb/modules/vl53l1_api_preset_modes.c **** 		ptiming->range_config__timeout_macrop_b_hi = 0x00;
 4873              		.loc 1 3140 46 is_stmt 0 view .LVU1608
 4874 00c4 2922     		movs	r2, #41
 4875 00c6 6271     		strb	r2, [r4, #5]
3141:Drivers/BSP/Components/vl53l1cb/modules/vl53l1_api_preset_modes.c **** 		ptiming->range_config__timeout_macrop_b_lo = 0x29;
 4876              		.loc 1 3141 3 is_stmt 1 view .LVU1609
3141:Drivers/BSP/Components/vl53l1cb/modules/vl53l1_api_preset_modes.c **** 		ptiming->range_config__timeout_macrop_b_lo = 0x29;
 4877              		.loc 1 3141 46 is_stmt 0 view .LVU1610
 4878 00c8 E371     		strb	r3, [r4, #7]
3142:Drivers/BSP/Components/vl53l1cb/modules/vl53l1_api_preset_modes.c **** 
 4879              		.loc 1 3142 3 is_stmt 1 view .LVU1611
ARM GAS  C:\Temp\ccoVwn9Y.s 			page 158


3142:Drivers/BSP/Components/vl53l1cb/modules/vl53l1_api_preset_modes.c **** 
 4880              		.loc 1 3142 46 is_stmt 0 view .LVU1612
 4881 00ca 2272     		strb	r2, [r4, #8]
3146:Drivers/BSP/Components/vl53l1cb/modules/vl53l1_api_preset_modes.c **** 
 4882              		.loc 1 3146 3 is_stmt 1 view .LVU1613
3146:Drivers/BSP/Components/vl53l1cb/modules/vl53l1_api_preset_modes.c **** 
 4883              		.loc 1 3146 37 is_stmt 0 view .LVU1614
 4884 00cc 86F80380 		strb	r8, [r6, #3]
3150:Drivers/BSP/Components/vl53l1cb/modules/vl53l1_api_preset_modes.c **** 
 4885              		.loc 1 3150 3 is_stmt 1 view .LVU1615
3150:Drivers/BSP/Components/vl53l1cb/modules/vl53l1_api_preset_modes.c **** 
 4886              		.loc 1 3150 45 is_stmt 0 view .LVU1616
 4887 00d0 F523     		movs	r3, #245
 4888 00d2 F371     		strb	r3, [r6, #7]
3154:Drivers/BSP/Components/vl53l1cb/modules/vl53l1_api_preset_modes.c **** 		pdynamic->sd_config__woi_sd1 = 0x09;
 4889              		.loc 1 3154 3 is_stmt 1 view .LVU1617
3154:Drivers/BSP/Components/vl53l1cb/modules/vl53l1_api_preset_modes.c **** 		pdynamic->sd_config__woi_sd1 = 0x09;
 4890              		.loc 1 3154 32 is_stmt 0 view .LVU1618
 4891 00d4 85F80880 		strb	r8, [r5, #8]
3155:Drivers/BSP/Components/vl53l1cb/modules/vl53l1_api_preset_modes.c **** 		pdynamic->sd_config__initial_phase_sd0 = 0x09;
 4892              		.loc 1 3155 3 is_stmt 1 view .LVU1619
3155:Drivers/BSP/Components/vl53l1cb/modules/vl53l1_api_preset_modes.c **** 		pdynamic->sd_config__initial_phase_sd0 = 0x09;
 4893              		.loc 1 3155 32 is_stmt 0 view .LVU1620
 4894 00d8 85F80980 		strb	r8, [r5, #9]
3156:Drivers/BSP/Components/vl53l1cb/modules/vl53l1_api_preset_modes.c **** 		pdynamic->sd_config__initial_phase_sd1 = 0x06;
 4895              		.loc 1 3156 3 is_stmt 1 view .LVU1621
3156:Drivers/BSP/Components/vl53l1cb/modules/vl53l1_api_preset_modes.c **** 		pdynamic->sd_config__initial_phase_sd1 = 0x06;
 4896              		.loc 1 3156 42 is_stmt 0 view .LVU1622
 4897 00dc 85F80A80 		strb	r8, [r5, #10]
3157:Drivers/BSP/Components/vl53l1cb/modules/vl53l1_api_preset_modes.c **** 
 4898              		.loc 1 3157 3 is_stmt 1 view .LVU1623
3157:Drivers/BSP/Components/vl53l1cb/modules/vl53l1_api_preset_modes.c **** 
 4899              		.loc 1 3157 42 is_stmt 0 view .LVU1624
 4900 00e0 0623     		movs	r3, #6
 4901 00e2 EB72     		strb	r3, [r5, #11]
3159:Drivers/BSP/Components/vl53l1cb/modules/vl53l1_api_preset_modes.c **** 				VL53L1_SEQUENCE_VHV_EN |
 4902              		.loc 1 3159 3 is_stmt 1 view .LVU1625
3159:Drivers/BSP/Components/vl53l1cb/modules/vl53l1_api_preset_modes.c **** 				VL53L1_SEQUENCE_VHV_EN |
 4903              		.loc 1 3159 37 is_stmt 0 view .LVU1626
 4904 00e4 BB23     		movs	r3, #187
 4905 00e6 6B74     		strb	r3, [r5, #17]
3170:Drivers/BSP/Components/vl53l1cb/modules/vl53l1_api_preset_modes.c **** 				VL53L1_DEVICESCHEDULERMODE_HISTOGRAM |
 4906              		.loc 1 3170 3 is_stmt 1 view .LVU1627
3170:Drivers/BSP/Components/vl53l1cb/modules/vl53l1_api_preset_modes.c **** 				VL53L1_DEVICESCHEDULERMODE_HISTOGRAM |
 4907              		.loc 1 3170 31 is_stmt 0 view .LVU1628
 4908 00e8 2623     		movs	r3, #38
 4909 00ea 1A9A     		ldr	r2, [sp, #104]
 4910 00ec 1371     		strb	r3, [r2, #4]
 4911 00ee 9BE7     		b	.L125
 4912              		.cfi_endproc
 4913              	.LFE43:
 4915              		.section	.text.VL53L1_preset_mode_histogram_xtalk_mm2,"ax",%progbits
 4916              		.align	1
 4917              		.global	VL53L1_preset_mode_histogram_xtalk_mm2
 4918              		.syntax unified
 4919              		.thumb
 4920              		.thumb_func
ARM GAS  C:\Temp\ccoVwn9Y.s 			page 159


 4922              	VL53L1_preset_mode_histogram_xtalk_mm2:
 4923              	.LVL214:
 4924              	.LFB44:
3192:Drivers/BSP/Components/vl53l1cb/modules/vl53l1_api_preset_modes.c **** 
 4925              		.loc 1 3192 1 is_stmt 1 view -0
 4926              		.cfi_startproc
 4927              		@ args = 20, pretend = 0, frame = 0
 4928              		@ frame_needed = 0, uses_anonymous_args = 0
3192:Drivers/BSP/Components/vl53l1cb/modules/vl53l1_api_preset_modes.c **** 
 4929              		.loc 1 3192 1 is_stmt 0 view .LVU1630
 4930 0000 30B5     		push	{r4, r5, lr}
 4931              		.cfi_def_cfa_offset 12
 4932              		.cfi_offset 4, -12
 4933              		.cfi_offset 5, -8
 4934              		.cfi_offset 14, -4
 4935 0002 87B0     		sub	sp, sp, #28
 4936              		.cfi_def_cfa_offset 40
 4937 0004 0B9C     		ldr	r4, [sp, #44]
3195:Drivers/BSP/Components/vl53l1cb/modules/vl53l1_api_preset_modes.c **** 
 4938              		.loc 1 3195 2 is_stmt 1 view .LVU1631
 4939              	.LVL215:
3197:Drivers/BSP/Components/vl53l1cb/modules/vl53l1_api_preset_modes.c **** 
 4940              		.loc 1 3197 24 view .LVU1632
3201:Drivers/BSP/Components/vl53l1cb/modules/vl53l1_api_preset_modes.c **** 		VL53L1_preset_mode_histogram_xtalk_mm1(
 4941              		.loc 1 3201 2 view .LVU1633
3202:Drivers/BSP/Components/vl53l1cb/modules/vl53l1_api_preset_modes.c **** 			phistpostprocess,
 4942              		.loc 1 3202 3 is_stmt 0 view .LVU1634
 4943 0006 0E9D     		ldr	r5, [sp, #56]
 4944 0008 0495     		str	r5, [sp, #16]
 4945 000a 0D9D     		ldr	r5, [sp, #52]
 4946 000c 0395     		str	r5, [sp, #12]
 4947 000e 0C9D     		ldr	r5, [sp, #48]
 4948 0010 0295     		str	r5, [sp, #8]
 4949 0012 0194     		str	r4, [sp, #4]
 4950 0014 0A9D     		ldr	r5, [sp, #40]
 4951 0016 0095     		str	r5, [sp]
 4952 0018 FFF7FEFF 		bl	VL53L1_preset_mode_histogram_xtalk_mm1
 4953              	.LVL216:
3214:Drivers/BSP/Components/vl53l1cb/modules/vl53l1_api_preset_modes.c **** 				VL53L1_SEQUENCE_VHV_EN |
 4954              		.loc 1 3214 3 is_stmt 1 view .LVU1635
3214:Drivers/BSP/Components/vl53l1cb/modules/vl53l1_api_preset_modes.c **** 				VL53L1_SEQUENCE_VHV_EN |
 4955              		.loc 1 3214 37 is_stmt 0 view .LVU1636
 4956 001c DB23     		movs	r3, #219
 4957 001e 6374     		strb	r3, [r4, #17]
3224:Drivers/BSP/Components/vl53l1cb/modules/vl53l1_api_preset_modes.c **** 
 4958              		.loc 1 3224 26 is_stmt 1 view .LVU1637
3226:Drivers/BSP/Components/vl53l1cb/modules/vl53l1_api_preset_modes.c **** }
 4959              		.loc 1 3226 2 view .LVU1638
3227:Drivers/BSP/Components/vl53l1cb/modules/vl53l1_api_preset_modes.c **** 
 4960              		.loc 1 3227 1 is_stmt 0 view .LVU1639
 4961 0020 07B0     		add	sp, sp, #28
 4962              		.cfi_def_cfa_offset 12
 4963              		@ sp needed
 4964 0022 30BD     		pop	{r4, r5, pc}
3227:Drivers/BSP/Components/vl53l1cb/modules/vl53l1_api_preset_modes.c **** 
 4965              		.loc 1 3227 1 view .LVU1640
 4966              		.cfi_endproc
ARM GAS  C:\Temp\ccoVwn9Y.s 			page 160


 4967              	.LFE44:
 4969              		.section	.text.VL53L1_preset_mode_histogram_multizone,"ax",%progbits
 4970              		.align	1
 4971              		.global	VL53L1_preset_mode_histogram_multizone
 4972              		.syntax unified
 4973              		.thumb
 4974              		.thumb_func
 4976              	VL53L1_preset_mode_histogram_multizone:
 4977              	.LVL217:
 4978              	.LFB45:
3242:Drivers/BSP/Components/vl53l1cb/modules/vl53l1_api_preset_modes.c **** 
 4979              		.loc 1 3242 1 is_stmt 1 view -0
 4980              		.cfi_startproc
 4981              		@ args = 20, pretend = 0, frame = 0
 4982              		@ frame_needed = 0, uses_anonymous_args = 0
3242:Drivers/BSP/Components/vl53l1cb/modules/vl53l1_api_preset_modes.c **** 
 4983              		.loc 1 3242 1 is_stmt 0 view .LVU1642
 4984 0000 2DE9F045 		push	{r4, r5, r6, r7, r8, r10, lr}
 4985              		.cfi_def_cfa_offset 28
 4986              		.cfi_offset 4, -28
 4987              		.cfi_offset 5, -24
 4988              		.cfi_offset 6, -20
 4989              		.cfi_offset 7, -16
 4990              		.cfi_offset 8, -12
 4991              		.cfi_offset 10, -8
 4992              		.cfi_offset 14, -4
 4993 0004 87B0     		sub	sp, sp, #28
 4994              		.cfi_def_cfa_offset 56
 4995 0006 8846     		mov	r8, r1
 4996 0008 1746     		mov	r7, r2
 4997 000a 1C46     		mov	r4, r3
 4998 000c 129D     		ldr	r5, [sp, #72]
3245:Drivers/BSP/Components/vl53l1cb/modules/vl53l1_api_preset_modes.c **** 
 4999              		.loc 1 3245 2 is_stmt 1 view .LVU1643
 5000              	.LVL218:
3247:Drivers/BSP/Components/vl53l1cb/modules/vl53l1_api_preset_modes.c **** 
 5001              		.loc 1 3247 24 view .LVU1644
3251:Drivers/BSP/Components/vl53l1cb/modules/vl53l1_api_preset_modes.c **** 		VL53L1_preset_mode_histogram_medium_range(
 5002              		.loc 1 3251 2 view .LVU1645
3252:Drivers/BSP/Components/vl53l1cb/modules/vl53l1_api_preset_modes.c **** 			phistpostprocess,
 5003              		.loc 1 3252 3 is_stmt 0 view .LVU1646
 5004 000e 0495     		str	r5, [sp, #16]
 5005 0010 119E     		ldr	r6, [sp, #68]
 5006 0012 0396     		str	r6, [sp, #12]
 5007 0014 109E     		ldr	r6, [sp, #64]
 5008 0016 0296     		str	r6, [sp, #8]
 5009 0018 0F9E     		ldr	r6, [sp, #60]
 5010 001a 0196     		str	r6, [sp, #4]
 5011 001c 0E9E     		ldr	r6, [sp, #56]
 5012 001e 0096     		str	r6, [sp]
 5013 0020 FFF7FEFF 		bl	VL53L1_preset_mode_histogram_medium_range
 5014              	.LVL219:
3265:Drivers/BSP/Components/vl53l1cb/modules/vl53l1_api_preset_modes.c **** 
 5015              		.loc 1 3265 2 is_stmt 1 view .LVU1647
3265:Drivers/BSP/Components/vl53l1cb/modules/vl53l1_api_preset_modes.c **** 
 5016              		.loc 1 3265 5 is_stmt 0 view .LVU1648
 5017 0024 8246     		mov	r10, r0
ARM GAS  C:\Temp\ccoVwn9Y.s 			page 161


 5018 0026 18B1     		cbz	r0, .L134
 5019              	.LVL220:
 5020              	.L131:
3297:Drivers/BSP/Components/vl53l1cb/modules/vl53l1_api_preset_modes.c **** 
 5021              		.loc 1 3297 26 is_stmt 1 view .LVU1649
3299:Drivers/BSP/Components/vl53l1cb/modules/vl53l1_api_preset_modes.c **** }
 5022              		.loc 1 3299 2 view .LVU1650
3300:Drivers/BSP/Components/vl53l1cb/modules/vl53l1_api_preset_modes.c **** 
 5023              		.loc 1 3300 1 is_stmt 0 view .LVU1651
 5024 0028 5046     		mov	r0, r10
 5025 002a 07B0     		add	sp, sp, #28
 5026              		.cfi_remember_state
 5027              		.cfi_def_cfa_offset 28
 5028              		@ sp needed
 5029 002c BDE8F085 		pop	{r4, r5, r6, r7, r8, r10, pc}
 5030              	.LVL221:
 5031              	.L134:
 5032              		.cfi_restore_state
3269:Drivers/BSP/Components/vl53l1cb/modules/vl53l1_api_preset_modes.c **** 			VL53L1_init_zone_config_structure(
 5033              		.loc 1 3269 3 is_stmt 1 view .LVU1652
3270:Drivers/BSP/Components/vl53l1cb/modules/vl53l1_api_preset_modes.c **** 				4, 8, 2,
 5034              		.loc 1 3270 4 is_stmt 0 view .LVU1653
 5035 0030 0495     		str	r5, [sp, #16]
 5036 0032 0723     		movs	r3, #7
 5037 0034 0393     		str	r3, [sp, #12]
 5038 0036 0293     		str	r3, [sp, #8]
 5039 0038 0222     		movs	r2, #2
 5040 003a 0192     		str	r2, [sp, #4]
 5041 003c 0821     		movs	r1, #8
 5042 003e 0091     		str	r1, [sp]
 5043 0040 0423     		movs	r3, #4
 5044 0042 1846     		mov	r0, r3
 5045              	.LVL222:
3270:Drivers/BSP/Components/vl53l1cb/modules/vl53l1_api_preset_modes.c **** 				4, 8, 2,
 5046              		.loc 1 3270 4 view .LVU1654
 5047 0044 FFF7FEFF 		bl	VL53L1_init_zone_config_structure
 5048              	.LVL223:
3276:Drivers/BSP/Components/vl53l1cb/modules/vl53l1_api_preset_modes.c **** 			pzone_cfg->active_zones + 1;
 5049              		.loc 1 3276 3 is_stmt 1 view .LVU1655
3277:Drivers/BSP/Components/vl53l1cb/modules/vl53l1_api_preset_modes.c **** 
 5050              		.loc 1 3277 13 is_stmt 0 view .LVU1656
 5051 0048 6B78     		ldrb	r3, [r5, #1]	@ zero_extendqisi2
3277:Drivers/BSP/Components/vl53l1cb/modules/vl53l1_api_preset_modes.c **** 
 5052              		.loc 1 3277 28 view .LVU1657
 5053 004a 0133     		adds	r3, r3, #1
3276:Drivers/BSP/Components/vl53l1cb/modules/vl53l1_api_preset_modes.c **** 			pzone_cfg->active_zones + 1;
 5054              		.loc 1 3276 43 view .LVU1658
 5055 004c 6370     		strb	r3, [r4, #1]
3281:Drivers/BSP/Components/vl53l1cb/modules/vl53l1_api_preset_modes.c **** 			status =
 5056              		.loc 1 3281 3 is_stmt 1 view .LVU1659
3281:Drivers/BSP/Components/vl53l1cb/modules/vl53l1_api_preset_modes.c **** 			status =
 5057              		.loc 1 3281 6 is_stmt 0 view .LVU1660
 5058 004e 8246     		mov	r10, r0
 5059 0050 40B1     		cbz	r0, .L135
 5060              	.LVL224:
 5061              	.L132:
3289:Drivers/BSP/Components/vl53l1cb/modules/vl53l1_api_preset_modes.c **** 				phistogram,
ARM GAS  C:\Temp\ccoVwn9Y.s 			page 162


 5062              		.loc 1 3289 3 is_stmt 1 view .LVU1661
 5063 0052 0F9B     		ldr	r3, [sp, #60]
 5064 0054 0093     		str	r3, [sp]
 5065 0056 0E9B     		ldr	r3, [sp, #56]
 5066 0058 2246     		mov	r2, r4
 5067 005a 4146     		mov	r1, r8
 5068 005c 3846     		mov	r0, r7
 5069 005e FFF7FEFF 		bl	VL53L1_copy_hist_cfg_to_static_cfg
 5070              	.LVL225:
 5071 0062 E1E7     		b	.L131
 5072              	.LVL226:
 5073              	.L135:
3282:Drivers/BSP/Components/vl53l1cb/modules/vl53l1_api_preset_modes.c **** 			VL53L1_set_histogram_multizone_initial_bin_config(
 5074              		.loc 1 3282 4 view .LVU1662
3283:Drivers/BSP/Components/vl53l1cb/modules/vl53l1_api_preset_modes.c **** 				pzone_cfg,
 5075              		.loc 1 3283 4 is_stmt 0 view .LVU1663
 5076 0064 AA1C     		adds	r2, r5, #2
 5077 0066 3946     		mov	r1, r7
 5078 0068 2846     		mov	r0, r5
 5079              	.LVL227:
3283:Drivers/BSP/Components/vl53l1cb/modules/vl53l1_api_preset_modes.c **** 				pzone_cfg,
 5080              		.loc 1 3283 4 view .LVU1664
 5081 006a FFF7FEFF 		bl	VL53L1_set_histogram_multizone_initial_bin_config
 5082              	.LVL228:
 5083 006e 8246     		mov	r10, r0
 5084              	.LVL229:
3283:Drivers/BSP/Components/vl53l1cb/modules/vl53l1_api_preset_modes.c **** 				pzone_cfg,
 5085              		.loc 1 3283 4 view .LVU1665
 5086 0070 EFE7     		b	.L132
 5087              		.cfi_endproc
 5088              	.LFE45:
 5090              		.section	.text.VL53L1_preset_mode_histogram_multizone_short_range,"ax",%progbits
 5091              		.align	1
 5092              		.global	VL53L1_preset_mode_histogram_multizone_short_range
 5093              		.syntax unified
 5094              		.thumb
 5095              		.thumb_func
 5097              	VL53L1_preset_mode_histogram_multizone_short_range:
 5098              	.LVL230:
 5099              	.LFB46:
3312:Drivers/BSP/Components/vl53l1cb/modules/vl53l1_api_preset_modes.c **** 
 5100              		.loc 1 3312 1 is_stmt 1 view -0
 5101              		.cfi_startproc
 5102              		@ args = 20, pretend = 0, frame = 0
 5103              		@ frame_needed = 0, uses_anonymous_args = 0
3312:Drivers/BSP/Components/vl53l1cb/modules/vl53l1_api_preset_modes.c **** 
 5104              		.loc 1 3312 1 is_stmt 0 view .LVU1667
 5105 0000 2DE9F045 		push	{r4, r5, r6, r7, r8, r10, lr}
 5106              		.cfi_def_cfa_offset 28
 5107              		.cfi_offset 4, -28
 5108              		.cfi_offset 5, -24
 5109              		.cfi_offset 6, -20
 5110              		.cfi_offset 7, -16
 5111              		.cfi_offset 8, -12
 5112              		.cfi_offset 10, -8
 5113              		.cfi_offset 14, -4
 5114 0004 87B0     		sub	sp, sp, #28
ARM GAS  C:\Temp\ccoVwn9Y.s 			page 163


 5115              		.cfi_def_cfa_offset 56
 5116 0006 8846     		mov	r8, r1
 5117 0008 1746     		mov	r7, r2
 5118 000a 1C46     		mov	r4, r3
 5119 000c 129D     		ldr	r5, [sp, #72]
3315:Drivers/BSP/Components/vl53l1cb/modules/vl53l1_api_preset_modes.c **** 
 5120              		.loc 1 3315 2 is_stmt 1 view .LVU1668
 5121              	.LVL231:
3317:Drivers/BSP/Components/vl53l1cb/modules/vl53l1_api_preset_modes.c **** 
 5122              		.loc 1 3317 24 view .LVU1669
3321:Drivers/BSP/Components/vl53l1cb/modules/vl53l1_api_preset_modes.c **** 		VL53L1_preset_mode_histogram_short_range(
 5123              		.loc 1 3321 2 view .LVU1670
3322:Drivers/BSP/Components/vl53l1cb/modules/vl53l1_api_preset_modes.c **** 			phistpostprocess,
 5124              		.loc 1 3322 3 is_stmt 0 view .LVU1671
 5125 000e 0495     		str	r5, [sp, #16]
 5126 0010 119E     		ldr	r6, [sp, #68]
 5127 0012 0396     		str	r6, [sp, #12]
 5128 0014 109E     		ldr	r6, [sp, #64]
 5129 0016 0296     		str	r6, [sp, #8]
 5130 0018 0F9E     		ldr	r6, [sp, #60]
 5131 001a 0196     		str	r6, [sp, #4]
 5132 001c 0E9E     		ldr	r6, [sp, #56]
 5133 001e 0096     		str	r6, [sp]
 5134 0020 FFF7FEFF 		bl	VL53L1_preset_mode_histogram_short_range
 5135              	.LVL232:
3335:Drivers/BSP/Components/vl53l1cb/modules/vl53l1_api_preset_modes.c **** 
 5136              		.loc 1 3335 2 is_stmt 1 view .LVU1672
3335:Drivers/BSP/Components/vl53l1cb/modules/vl53l1_api_preset_modes.c **** 
 5137              		.loc 1 3335 5 is_stmt 0 view .LVU1673
 5138 0024 8246     		mov	r10, r0
 5139 0026 18B1     		cbz	r0, .L140
 5140              	.LVL233:
 5141              	.L137:
3370:Drivers/BSP/Components/vl53l1cb/modules/vl53l1_api_preset_modes.c **** 
 5142              		.loc 1 3370 26 is_stmt 1 view .LVU1674
3372:Drivers/BSP/Components/vl53l1cb/modules/vl53l1_api_preset_modes.c **** }
 5143              		.loc 1 3372 2 view .LVU1675
3373:Drivers/BSP/Components/vl53l1cb/modules/vl53l1_api_preset_modes.c **** 
 5144              		.loc 1 3373 1 is_stmt 0 view .LVU1676
 5145 0028 5046     		mov	r0, r10
 5146 002a 07B0     		add	sp, sp, #28
 5147              		.cfi_remember_state
 5148              		.cfi_def_cfa_offset 28
 5149              		@ sp needed
 5150 002c BDE8F085 		pop	{r4, r5, r6, r7, r8, r10, pc}
 5151              	.LVL234:
 5152              	.L140:
 5153              		.cfi_restore_state
3339:Drivers/BSP/Components/vl53l1cb/modules/vl53l1_api_preset_modes.c **** 			VL53L1_init_zone_config_structure(
 5154              		.loc 1 3339 3 is_stmt 1 view .LVU1677
3340:Drivers/BSP/Components/vl53l1cb/modules/vl53l1_api_preset_modes.c **** 				4, 8, 2,
 5155              		.loc 1 3340 4 is_stmt 0 view .LVU1678
 5156 0030 0495     		str	r5, [sp, #16]
 5157 0032 0723     		movs	r3, #7
 5158 0034 0393     		str	r3, [sp, #12]
 5159 0036 0293     		str	r3, [sp, #8]
 5160 0038 0222     		movs	r2, #2
ARM GAS  C:\Temp\ccoVwn9Y.s 			page 164


 5161 003a 0192     		str	r2, [sp, #4]
 5162 003c 0821     		movs	r1, #8
 5163 003e 0091     		str	r1, [sp]
 5164 0040 0423     		movs	r3, #4
 5165 0042 1846     		mov	r0, r3
 5166              	.LVL235:
3340:Drivers/BSP/Components/vl53l1cb/modules/vl53l1_api_preset_modes.c **** 				4, 8, 2,
 5167              		.loc 1 3340 4 view .LVU1679
 5168 0044 FFF7FEFF 		bl	VL53L1_init_zone_config_structure
 5169              	.LVL236:
3346:Drivers/BSP/Components/vl53l1cb/modules/vl53l1_api_preset_modes.c **** 			pzone_cfg->active_zones + 1;
 5170              		.loc 1 3346 3 is_stmt 1 view .LVU1680
3347:Drivers/BSP/Components/vl53l1cb/modules/vl53l1_api_preset_modes.c **** 
 5171              		.loc 1 3347 13 is_stmt 0 view .LVU1681
 5172 0048 6B78     		ldrb	r3, [r5, #1]	@ zero_extendqisi2
3347:Drivers/BSP/Components/vl53l1cb/modules/vl53l1_api_preset_modes.c **** 
 5173              		.loc 1 3347 28 view .LVU1682
 5174 004a 0133     		adds	r3, r3, #1
3346:Drivers/BSP/Components/vl53l1cb/modules/vl53l1_api_preset_modes.c **** 			pzone_cfg->active_zones + 1;
 5175              		.loc 1 3346 43 view .LVU1683
 5176 004c 6370     		strb	r3, [r4, #1]
3351:Drivers/BSP/Components/vl53l1cb/modules/vl53l1_api_preset_modes.c **** 			status =
 5177              		.loc 1 3351 3 is_stmt 1 view .LVU1684
3351:Drivers/BSP/Components/vl53l1cb/modules/vl53l1_api_preset_modes.c **** 			status =
 5178              		.loc 1 3351 6 is_stmt 0 view .LVU1685
 5179 004e 8246     		mov	r10, r0
 5180 0050 40B1     		cbz	r0, .L141
 5181              	.LVL237:
 5182              	.L138:
3362:Drivers/BSP/Components/vl53l1cb/modules/vl53l1_api_preset_modes.c **** 				phistogram,
 5183              		.loc 1 3362 3 is_stmt 1 view .LVU1686
 5184 0052 0F9B     		ldr	r3, [sp, #60]
 5185 0054 0093     		str	r3, [sp]
 5186 0056 0E9B     		ldr	r3, [sp, #56]
 5187 0058 2246     		mov	r2, r4
 5188 005a 4146     		mov	r1, r8
 5189 005c 3846     		mov	r0, r7
 5190 005e FFF7FEFF 		bl	VL53L1_copy_hist_cfg_to_static_cfg
 5191              	.LVL238:
 5192 0062 E1E7     		b	.L137
 5193              	.LVL239:
 5194              	.L141:
3352:Drivers/BSP/Components/vl53l1cb/modules/vl53l1_api_preset_modes.c **** 			VL53L1_set_histogram_multizone_initial_bin_config(
 5195              		.loc 1 3352 4 view .LVU1687
3353:Drivers/BSP/Components/vl53l1cb/modules/vl53l1_api_preset_modes.c **** 			pzone_cfg,
 5196              		.loc 1 3353 4 is_stmt 0 view .LVU1688
 5197 0064 AA1C     		adds	r2, r5, #2
 5198 0066 3946     		mov	r1, r7
 5199 0068 2846     		mov	r0, r5
 5200              	.LVL240:
3353:Drivers/BSP/Components/vl53l1cb/modules/vl53l1_api_preset_modes.c **** 			pzone_cfg,
 5201              		.loc 1 3353 4 view .LVU1689
 5202 006a FFF7FEFF 		bl	VL53L1_set_histogram_multizone_initial_bin_config
 5203              	.LVL241:
 5204 006e 8246     		mov	r10, r0
 5205              	.LVL242:
3353:Drivers/BSP/Components/vl53l1cb/modules/vl53l1_api_preset_modes.c **** 			pzone_cfg,
ARM GAS  C:\Temp\ccoVwn9Y.s 			page 165


 5206              		.loc 1 3353 4 view .LVU1690
 5207 0070 EFE7     		b	.L138
 5208              		.cfi_endproc
 5209              	.LFE46:
 5211              		.section	.text.VL53L1_preset_mode_histogram_multizone_long_range,"ax",%progbits
 5212              		.align	1
 5213              		.global	VL53L1_preset_mode_histogram_multizone_long_range
 5214              		.syntax unified
 5215              		.thumb
 5216              		.thumb_func
 5218              	VL53L1_preset_mode_histogram_multizone_long_range:
 5219              	.LVL243:
 5220              	.LFB47:
3386:Drivers/BSP/Components/vl53l1cb/modules/vl53l1_api_preset_modes.c **** 
 5221              		.loc 1 3386 1 is_stmt 1 view -0
 5222              		.cfi_startproc
 5223              		@ args = 20, pretend = 0, frame = 0
 5224              		@ frame_needed = 0, uses_anonymous_args = 0
3386:Drivers/BSP/Components/vl53l1cb/modules/vl53l1_api_preset_modes.c **** 
 5225              		.loc 1 3386 1 is_stmt 0 view .LVU1692
 5226 0000 2DE9F045 		push	{r4, r5, r6, r7, r8, r10, lr}
 5227              		.cfi_def_cfa_offset 28
 5228              		.cfi_offset 4, -28
 5229              		.cfi_offset 5, -24
 5230              		.cfi_offset 6, -20
 5231              		.cfi_offset 7, -16
 5232              		.cfi_offset 8, -12
 5233              		.cfi_offset 10, -8
 5234              		.cfi_offset 14, -4
 5235 0004 87B0     		sub	sp, sp, #28
 5236              		.cfi_def_cfa_offset 56
 5237 0006 8846     		mov	r8, r1
 5238 0008 1746     		mov	r7, r2
 5239 000a 1C46     		mov	r4, r3
 5240 000c 129D     		ldr	r5, [sp, #72]
3389:Drivers/BSP/Components/vl53l1cb/modules/vl53l1_api_preset_modes.c **** 
 5241              		.loc 1 3389 2 is_stmt 1 view .LVU1693
 5242              	.LVL244:
3391:Drivers/BSP/Components/vl53l1cb/modules/vl53l1_api_preset_modes.c **** 
 5243              		.loc 1 3391 24 view .LVU1694
3395:Drivers/BSP/Components/vl53l1cb/modules/vl53l1_api_preset_modes.c **** 		VL53L1_preset_mode_histogram_long_range(
 5244              		.loc 1 3395 2 view .LVU1695
3396:Drivers/BSP/Components/vl53l1cb/modules/vl53l1_api_preset_modes.c **** 			phistpostprocess,
 5245              		.loc 1 3396 3 is_stmt 0 view .LVU1696
 5246 000e 0495     		str	r5, [sp, #16]
 5247 0010 119E     		ldr	r6, [sp, #68]
 5248 0012 0396     		str	r6, [sp, #12]
 5249 0014 109E     		ldr	r6, [sp, #64]
 5250 0016 0296     		str	r6, [sp, #8]
 5251 0018 0F9E     		ldr	r6, [sp, #60]
 5252 001a 0196     		str	r6, [sp, #4]
 5253 001c 0E9E     		ldr	r6, [sp, #56]
 5254 001e 0096     		str	r6, [sp]
 5255 0020 FFF7FEFF 		bl	VL53L1_preset_mode_histogram_long_range
 5256              	.LVL245:
3409:Drivers/BSP/Components/vl53l1cb/modules/vl53l1_api_preset_modes.c **** 
 5257              		.loc 1 3409 2 is_stmt 1 view .LVU1697
ARM GAS  C:\Temp\ccoVwn9Y.s 			page 166


3409:Drivers/BSP/Components/vl53l1cb/modules/vl53l1_api_preset_modes.c **** 
 5258              		.loc 1 3409 5 is_stmt 0 view .LVU1698
 5259 0024 8246     		mov	r10, r0
 5260 0026 18B1     		cbz	r0, .L146
 5261              	.LVL246:
 5262              	.L143:
3443:Drivers/BSP/Components/vl53l1cb/modules/vl53l1_api_preset_modes.c **** 
 5263              		.loc 1 3443 26 is_stmt 1 view .LVU1699
3445:Drivers/BSP/Components/vl53l1cb/modules/vl53l1_api_preset_modes.c **** }
 5264              		.loc 1 3445 2 view .LVU1700
3446:Drivers/BSP/Components/vl53l1cb/modules/vl53l1_api_preset_modes.c **** 
 5265              		.loc 1 3446 1 is_stmt 0 view .LVU1701
 5266 0028 5046     		mov	r0, r10
 5267 002a 07B0     		add	sp, sp, #28
 5268              		.cfi_remember_state
 5269              		.cfi_def_cfa_offset 28
 5270              		@ sp needed
 5271 002c BDE8F085 		pop	{r4, r5, r6, r7, r8, r10, pc}
 5272              	.LVL247:
 5273              	.L146:
 5274              		.cfi_restore_state
3413:Drivers/BSP/Components/vl53l1cb/modules/vl53l1_api_preset_modes.c **** 			VL53L1_init_zone_config_structure(
 5275              		.loc 1 3413 3 is_stmt 1 view .LVU1702
3414:Drivers/BSP/Components/vl53l1cb/modules/vl53l1_api_preset_modes.c **** 				4, 8, 2,
 5276              		.loc 1 3414 4 is_stmt 0 view .LVU1703
 5277 0030 0495     		str	r5, [sp, #16]
 5278 0032 0723     		movs	r3, #7
 5279 0034 0393     		str	r3, [sp, #12]
 5280 0036 0293     		str	r3, [sp, #8]
 5281 0038 0222     		movs	r2, #2
 5282 003a 0192     		str	r2, [sp, #4]
 5283 003c 0821     		movs	r1, #8
 5284 003e 0091     		str	r1, [sp]
 5285 0040 0423     		movs	r3, #4
 5286 0042 1846     		mov	r0, r3
 5287              	.LVL248:
3414:Drivers/BSP/Components/vl53l1cb/modules/vl53l1_api_preset_modes.c **** 				4, 8, 2,
 5288              		.loc 1 3414 4 view .LVU1704
 5289 0044 FFF7FEFF 		bl	VL53L1_init_zone_config_structure
 5290              	.LVL249:
3420:Drivers/BSP/Components/vl53l1cb/modules/vl53l1_api_preset_modes.c **** 			pzone_cfg->active_zones + 1;
 5291              		.loc 1 3420 3 is_stmt 1 view .LVU1705
3421:Drivers/BSP/Components/vl53l1cb/modules/vl53l1_api_preset_modes.c **** 
 5292              		.loc 1 3421 13 is_stmt 0 view .LVU1706
 5293 0048 6B78     		ldrb	r3, [r5, #1]	@ zero_extendqisi2
3421:Drivers/BSP/Components/vl53l1cb/modules/vl53l1_api_preset_modes.c **** 
 5294              		.loc 1 3421 28 view .LVU1707
 5295 004a 0133     		adds	r3, r3, #1
3420:Drivers/BSP/Components/vl53l1cb/modules/vl53l1_api_preset_modes.c **** 			pzone_cfg->active_zones + 1;
 5296              		.loc 1 3420 43 view .LVU1708
 5297 004c 6370     		strb	r3, [r4, #1]
3425:Drivers/BSP/Components/vl53l1cb/modules/vl53l1_api_preset_modes.c **** 			status =
 5298              		.loc 1 3425 3 is_stmt 1 view .LVU1709
3425:Drivers/BSP/Components/vl53l1cb/modules/vl53l1_api_preset_modes.c **** 			status =
 5299              		.loc 1 3425 6 is_stmt 0 view .LVU1710
 5300 004e 8246     		mov	r10, r0
 5301 0050 40B1     		cbz	r0, .L147
ARM GAS  C:\Temp\ccoVwn9Y.s 			page 167


 5302              	.LVL250:
 5303              	.L144:
3435:Drivers/BSP/Components/vl53l1cb/modules/vl53l1_api_preset_modes.c **** 			phistogram,
 5304              		.loc 1 3435 3 is_stmt 1 view .LVU1711
 5305 0052 0F9B     		ldr	r3, [sp, #60]
 5306 0054 0093     		str	r3, [sp]
 5307 0056 0E9B     		ldr	r3, [sp, #56]
 5308 0058 2246     		mov	r2, r4
 5309 005a 4146     		mov	r1, r8
 5310 005c 3846     		mov	r0, r7
 5311 005e FFF7FEFF 		bl	VL53L1_copy_hist_cfg_to_static_cfg
 5312              	.LVL251:
 5313 0062 E1E7     		b	.L143
 5314              	.LVL252:
 5315              	.L147:
3426:Drivers/BSP/Components/vl53l1cb/modules/vl53l1_api_preset_modes.c **** 			VL53L1_set_histogram_multizone_initial_bin_config(
 5316              		.loc 1 3426 4 view .LVU1712
3427:Drivers/BSP/Components/vl53l1cb/modules/vl53l1_api_preset_modes.c **** 				pzone_cfg,
 5317              		.loc 1 3427 4 is_stmt 0 view .LVU1713
 5318 0064 AA1C     		adds	r2, r5, #2
 5319 0066 3946     		mov	r1, r7
 5320 0068 2846     		mov	r0, r5
 5321              	.LVL253:
3427:Drivers/BSP/Components/vl53l1cb/modules/vl53l1_api_preset_modes.c **** 				pzone_cfg,
 5322              		.loc 1 3427 4 view .LVU1714
 5323 006a FFF7FEFF 		bl	VL53L1_set_histogram_multizone_initial_bin_config
 5324              	.LVL254:
 5325 006e 8246     		mov	r10, r0
 5326              	.LVL255:
3427:Drivers/BSP/Components/vl53l1cb/modules/vl53l1_api_preset_modes.c **** 				pzone_cfg,
 5327              		.loc 1 3427 4 view .LVU1715
 5328 0070 EFE7     		b	.L144
 5329              		.cfi_endproc
 5330              	.LFE47:
 5332              		.section	.text.VL53L1_preset_mode_histogram_xtalk_planar,"ax",%progbits
 5333              		.align	1
 5334              		.global	VL53L1_preset_mode_histogram_xtalk_planar
 5335              		.syntax unified
 5336              		.thumb
 5337              		.thumb_func
 5339              	VL53L1_preset_mode_histogram_xtalk_planar:
 5340              	.LVL256:
 5341              	.LFB42:
2987:Drivers/BSP/Components/vl53l1cb/modules/vl53l1_api_preset_modes.c **** 
 5342              		.loc 1 2987 1 is_stmt 1 view -0
 5343              		.cfi_startproc
 5344              		@ args = 20, pretend = 0, frame = 16
 5345              		@ frame_needed = 0, uses_anonymous_args = 0
2987:Drivers/BSP/Components/vl53l1cb/modules/vl53l1_api_preset_modes.c **** 
 5346              		.loc 1 2987 1 is_stmt 0 view .LVU1717
 5347 0000 2DE9F04F 		push	{r4, r5, r6, r7, r8, r9, r10, fp, lr}
 5348              		.cfi_def_cfa_offset 36
 5349              		.cfi_offset 4, -36
 5350              		.cfi_offset 5, -32
 5351              		.cfi_offset 6, -28
 5352              		.cfi_offset 7, -24
 5353              		.cfi_offset 8, -20
ARM GAS  C:\Temp\ccoVwn9Y.s 			page 168


 5354              		.cfi_offset 9, -16
 5355              		.cfi_offset 10, -12
 5356              		.cfi_offset 11, -8
 5357              		.cfi_offset 14, -4
 5358 0004 8FB0     		sub	sp, sp, #60
 5359              		.cfi_def_cfa_offset 96
 5360 0006 0C91     		str	r1, [sp, #48]
 5361 0008 9346     		mov	fp, r2
 5362 000a 0B93     		str	r3, [sp, #44]
2990:Drivers/BSP/Components/vl53l1cb/modules/vl53l1_api_preset_modes.c **** 
 5363              		.loc 1 2990 2 is_stmt 1 view .LVU1718
 5364              	.LVL257:
2992:Drivers/BSP/Components/vl53l1cb/modules/vl53l1_api_preset_modes.c **** 
 5365              		.loc 1 2992 24 view .LVU1719
2996:Drivers/BSP/Components/vl53l1cb/modules/vl53l1_api_preset_modes.c **** 		VL53L1_preset_mode_histogram_multizone_long_range(
 5366              		.loc 1 2996 2 view .LVU1720
2997:Drivers/BSP/Components/vl53l1cb/modules/vl53l1_api_preset_modes.c **** 			phistpostprocess,
 5367              		.loc 1 2997 3 is_stmt 0 view .LVU1721
 5368 000c 1C9C     		ldr	r4, [sp, #112]
 5369 000e 0494     		str	r4, [sp, #16]
 5370 0010 1B9C     		ldr	r4, [sp, #108]
 5371 0012 0394     		str	r4, [sp, #12]
 5372 0014 1A9C     		ldr	r4, [sp, #104]
 5373 0016 0294     		str	r4, [sp, #8]
 5374 0018 199C     		ldr	r4, [sp, #100]
 5375 001a 0194     		str	r4, [sp, #4]
 5376 001c 189C     		ldr	r4, [sp, #96]
 5377 001e 0094     		str	r4, [sp]
 5378 0020 FFF7FEFF 		bl	VL53L1_preset_mode_histogram_multizone_long_range
 5379              	.LVL258:
3010:Drivers/BSP/Components/vl53l1cb/modules/vl53l1_api_preset_modes.c **** 
 5380              		.loc 1 3010 2 is_stmt 1 view .LVU1722
3010:Drivers/BSP/Components/vl53l1cb/modules/vl53l1_api_preset_modes.c **** 
 5381              		.loc 1 3010 5 is_stmt 0 view .LVU1723
 5382 0024 0446     		mov	r4, r0
 5383 0026 18B1     		cbz	r0, .L152
 5384              	.LVL259:
 5385              	.L149:
3060:Drivers/BSP/Components/vl53l1cb/modules/vl53l1_api_preset_modes.c **** 
 5386              		.loc 1 3060 26 is_stmt 1 view .LVU1724
3062:Drivers/BSP/Components/vl53l1cb/modules/vl53l1_api_preset_modes.c **** }
 5387              		.loc 1 3062 2 view .LVU1725
3063:Drivers/BSP/Components/vl53l1cb/modules/vl53l1_api_preset_modes.c **** 
 5388              		.loc 1 3063 1 is_stmt 0 view .LVU1726
 5389 0028 2046     		mov	r0, r4
 5390 002a 0FB0     		add	sp, sp, #60
 5391              		.cfi_remember_state
 5392              		.cfi_def_cfa_offset 36
 5393              		@ sp needed
 5394 002c BDE8F08F 		pop	{r4, r5, r6, r7, r8, r9, r10, fp, pc}
 5395              	.LVL260:
 5396              	.L152:
 5397              		.cfi_restore_state
3014:Drivers/BSP/Components/vl53l1cb/modules/vl53l1_api_preset_modes.c **** 			VL53L1_zone_preset_xtalk_planar(
 5398              		.loc 1 3014 3 is_stmt 1 view .LVU1727
3015:Drivers/BSP/Components/vl53l1cb/modules/vl53l1_api_preset_modes.c **** 				pgeneral,
 5399              		.loc 1 3015 4 is_stmt 0 view .LVU1728
ARM GAS  C:\Temp\ccoVwn9Y.s 			page 169


 5400 0030 1C99     		ldr	r1, [sp, #112]
 5401 0032 0B98     		ldr	r0, [sp, #44]
 5402              	.LVL261:
3015:Drivers/BSP/Components/vl53l1cb/modules/vl53l1_api_preset_modes.c **** 				pgeneral,
 5403              		.loc 1 3015 4 view .LVU1729
 5404 0034 FFF7FEFF 		bl	VL53L1_zone_preset_xtalk_planar
 5405              	.LVL262:
 5406 0038 0446     		mov	r4, r0
 5407              	.LVL263:
3021:Drivers/BSP/Components/vl53l1cb/modules/vl53l1_api_preset_modes.c **** 		ptiming->range_config__vcsel_period_b = 0x09;
 5408              		.loc 1 3021 3 is_stmt 1 view .LVU1730
3021:Drivers/BSP/Components/vl53l1cb/modules/vl53l1_api_preset_modes.c **** 		ptiming->range_config__vcsel_period_b = 0x09;
 5409              		.loc 1 3021 41 is_stmt 0 view .LVU1731
 5410 003a 0923     		movs	r3, #9
 5411 003c 189A     		ldr	r2, [sp, #96]
 5412 003e 9371     		strb	r3, [r2, #6]
3022:Drivers/BSP/Components/vl53l1cb/modules/vl53l1_api_preset_modes.c **** 
 5413              		.loc 1 3022 3 is_stmt 1 view .LVU1732
3022:Drivers/BSP/Components/vl53l1cb/modules/vl53l1_api_preset_modes.c **** 
 5414              		.loc 1 3022 41 is_stmt 0 view .LVU1733
 5415 0040 5372     		strb	r3, [r2, #9]
3026:Drivers/BSP/Components/vl53l1cb/modules/vl53l1_api_preset_modes.c **** 			7, 0, 1, 2, 3, 4,
 5416              		.loc 1 3026 3 is_stmt 1 view .LVU1734
 5417 0042 CDF820B0 		str	fp, [sp, #32]
 5418 0046 4FF0040A 		mov	r10, #4
 5419 004a CDF81CA0 		str	r10, [sp, #28]
 5420 004e 4FF00309 		mov	r9, #3
 5421 0052 CDF81890 		str	r9, [sp, #24]
 5422 0056 4FF00208 		mov	r8, #2
 5423 005a CDF81480 		str	r8, [sp, #20]
 5424 005e 0127     		movs	r7, #1
 5425 0060 0497     		str	r7, [sp, #16]
 5426 0062 0026     		movs	r6, #0
 5427 0064 0396     		str	r6, [sp, #12]
 5428 0066 0725     		movs	r5, #7
 5429 0068 0295     		str	r5, [sp, #8]
 5430 006a CDF804A0 		str	r10, [sp, #4]
 5431 006e CDF80090 		str	r9, [sp]
 5432 0072 4346     		mov	r3, r8
 5433 0074 3A46     		mov	r2, r7
 5434 0076 3146     		mov	r1, r6
 5435 0078 2846     		mov	r0, r5
 5436 007a FFF7FEFF 		bl	VL53L1_init_histogram_config_structure
 5437              	.LVL264:
3033:Drivers/BSP/Components/vl53l1cb/modules/vl53l1_api_preset_modes.c **** 			7, 0, 1, 2, 3, 4,
 5438              		.loc 1 3033 3 view .LVU1735
 5439 007e 1C9B     		ldr	r3, [sp, #112]
 5440 0080 4344     		add	r3, r3, r8
 5441 0082 0D93     		str	r3, [sp, #52]
 5442 0084 0893     		str	r3, [sp, #32]
 5443 0086 CDF81CA0 		str	r10, [sp, #28]
 5444 008a CDF81890 		str	r9, [sp, #24]
 5445 008e CDF81480 		str	r8, [sp, #20]
 5446 0092 0497     		str	r7, [sp, #16]
 5447 0094 0396     		str	r6, [sp, #12]
 5448 0096 0295     		str	r5, [sp, #8]
 5449 0098 CDF804A0 		str	r10, [sp, #4]
ARM GAS  C:\Temp\ccoVwn9Y.s 			page 170


 5450 009c CDF80090 		str	r9, [sp]
 5451 00a0 4346     		mov	r3, r8
 5452 00a2 3A46     		mov	r2, r7
 5453 00a4 3146     		mov	r1, r6
 5454 00a6 2846     		mov	r0, r5
 5455 00a8 FFF7FEFF 		bl	VL53L1_init_histogram_multizone_config_structure
 5456              	.LVL265:
3041:Drivers/BSP/Components/vl53l1cb/modules/vl53l1_api_preset_modes.c **** 			status =
 5457              		.loc 1 3041 3 view .LVU1736
3041:Drivers/BSP/Components/vl53l1cb/modules/vl53l1_api_preset_modes.c **** 			status =
 5458              		.loc 1 3041 6 is_stmt 0 view .LVU1737
 5459 00ac 44B1     		cbz	r4, .L153
 5460              	.L150:
3051:Drivers/BSP/Components/vl53l1cb/modules/vl53l1_api_preset_modes.c **** 			phistogram,
 5461              		.loc 1 3051 3 is_stmt 1 view .LVU1738
 5462 00ae 199B     		ldr	r3, [sp, #100]
 5463 00b0 0093     		str	r3, [sp]
 5464 00b2 189B     		ldr	r3, [sp, #96]
 5465 00b4 0B9A     		ldr	r2, [sp, #44]
 5466 00b6 0C99     		ldr	r1, [sp, #48]
 5467 00b8 5846     		mov	r0, fp
 5468 00ba FFF7FEFF 		bl	VL53L1_copy_hist_cfg_to_static_cfg
 5469              	.LVL266:
 5470 00be B3E7     		b	.L149
 5471              	.L153:
3042:Drivers/BSP/Components/vl53l1cb/modules/vl53l1_api_preset_modes.c **** 			VL53L1_set_histogram_multizone_initial_bin_config(
 5472              		.loc 1 3042 4 view .LVU1739
3043:Drivers/BSP/Components/vl53l1cb/modules/vl53l1_api_preset_modes.c **** 			pzone_cfg,
 5473              		.loc 1 3043 4 is_stmt 0 view .LVU1740
 5474 00c0 0D9A     		ldr	r2, [sp, #52]
 5475 00c2 5946     		mov	r1, fp
 5476 00c4 1C98     		ldr	r0, [sp, #112]
 5477 00c6 FFF7FEFF 		bl	VL53L1_set_histogram_multizone_initial_bin_config
 5478              	.LVL267:
 5479 00ca 0446     		mov	r4, r0
 5480              	.LVL268:
3043:Drivers/BSP/Components/vl53l1cb/modules/vl53l1_api_preset_modes.c **** 			pzone_cfg,
 5481              		.loc 1 3043 4 view .LVU1741
 5482 00cc EFE7     		b	.L150
 5483              		.cfi_endproc
 5484              	.LFE42:
 5486              		.section	.text.VL53L1_copy_hist_bins_to_static_cfg,"ax",%progbits
 5487              		.align	1
 5488              		.global	VL53L1_copy_hist_bins_to_static_cfg
 5489              		.syntax unified
 5490              		.thumb
 5491              		.thumb_func
 5493              	VL53L1_copy_hist_bins_to_static_cfg:
 5494              	.LVL269:
 5495              	.LFB50:
3566:Drivers/BSP/Components/vl53l1cb/modules/vl53l1_api_preset_modes.c **** 
3567:Drivers/BSP/Components/vl53l1cb/modules/vl53l1_api_preset_modes.c **** void VL53L1_copy_hist_bins_to_static_cfg(
3568:Drivers/BSP/Components/vl53l1cb/modules/vl53l1_api_preset_modes.c **** 	VL53L1_histogram_config_t *phistogram,
3569:Drivers/BSP/Components/vl53l1cb/modules/vl53l1_api_preset_modes.c **** 	VL53L1_static_config_t    *pstatic,
3570:Drivers/BSP/Components/vl53l1cb/modules/vl53l1_api_preset_modes.c **** 	VL53L1_timing_config_t    *ptiming)
3571:Drivers/BSP/Components/vl53l1cb/modules/vl53l1_api_preset_modes.c **** {
 5496              		.loc 1 3571 1 is_stmt 1 view -0
ARM GAS  C:\Temp\ccoVwn9Y.s 			page 171


 5497              		.cfi_startproc
 5498              		@ args = 0, pretend = 0, frame = 0
 5499              		@ frame_needed = 0, uses_anonymous_args = 0
 5500              		@ link register save eliminated.
3572:Drivers/BSP/Components/vl53l1cb/modules/vl53l1_api_preset_modes.c **** 
3573:Drivers/BSP/Components/vl53l1cb/modules/vl53l1_api_preset_modes.c **** 
3574:Drivers/BSP/Components/vl53l1cb/modules/vl53l1_api_preset_modes.c **** 	LOG_FUNCTION_START("");
 5501              		.loc 1 3574 24 view .LVU1743
3575:Drivers/BSP/Components/vl53l1cb/modules/vl53l1_api_preset_modes.c **** 
3576:Drivers/BSP/Components/vl53l1cb/modules/vl53l1_api_preset_modes.c **** 	pstatic->sigma_estimator__effective_pulse_width_ns =
 5502              		.loc 1 3576 2 view .LVU1744
3577:Drivers/BSP/Components/vl53l1cb/modules/vl53l1_api_preset_modes.c **** 			phistogram->histogram_config__high_amb_even_bin_0_1;
 5503              		.loc 1 3577 14 is_stmt 0 view .LVU1745
 5504 0000 C37B     		ldrb	r3, [r0, #15]	@ zero_extendqisi2
3576:Drivers/BSP/Components/vl53l1cb/modules/vl53l1_api_preset_modes.c **** 			phistogram->histogram_config__high_amb_even_bin_0_1;
 5505              		.loc 1 3576 53 view .LVU1746
 5506 0002 8B74     		strb	r3, [r1, #18]
3578:Drivers/BSP/Components/vl53l1cb/modules/vl53l1_api_preset_modes.c **** 	pstatic->sigma_estimator__effective_ambient_width_ns =
 5507              		.loc 1 3578 2 is_stmt 1 view .LVU1747
3579:Drivers/BSP/Components/vl53l1cb/modules/vl53l1_api_preset_modes.c **** 			phistogram->histogram_config__high_amb_even_bin_2_3;
 5508              		.loc 1 3579 14 is_stmt 0 view .LVU1748
 5509 0004 037C     		ldrb	r3, [r0, #16]	@ zero_extendqisi2
3578:Drivers/BSP/Components/vl53l1cb/modules/vl53l1_api_preset_modes.c **** 	pstatic->sigma_estimator__effective_ambient_width_ns =
 5510              		.loc 1 3578 55 view .LVU1749
 5511 0006 CB74     		strb	r3, [r1, #19]
3580:Drivers/BSP/Components/vl53l1cb/modules/vl53l1_api_preset_modes.c **** 	pstatic->sigma_estimator__sigma_ref_mm =
 5512              		.loc 1 3580 2 is_stmt 1 view .LVU1750
3581:Drivers/BSP/Components/vl53l1cb/modules/vl53l1_api_preset_modes.c **** 			phistogram->histogram_config__high_amb_even_bin_4_5;
 5513              		.loc 1 3581 14 is_stmt 0 view .LVU1751
 5514 0008 437C     		ldrb	r3, [r0, #17]	@ zero_extendqisi2
3580:Drivers/BSP/Components/vl53l1cb/modules/vl53l1_api_preset_modes.c **** 	pstatic->sigma_estimator__sigma_ref_mm =
 5515              		.loc 1 3580 41 view .LVU1752
 5516 000a 0B75     		strb	r3, [r1, #20]
3582:Drivers/BSP/Components/vl53l1cb/modules/vl53l1_api_preset_modes.c **** 
3583:Drivers/BSP/Components/vl53l1cb/modules/vl53l1_api_preset_modes.c **** 	pstatic->algo__crosstalk_compensation_valid_height_mm =
 5517              		.loc 1 3583 2 is_stmt 1 view .LVU1753
3584:Drivers/BSP/Components/vl53l1cb/modules/vl53l1_api_preset_modes.c **** 			phistogram->histogram_config__high_amb_odd_bin_0_1;
 5518              		.loc 1 3584 14 is_stmt 0 view .LVU1754
 5519 000c 837C     		ldrb	r3, [r0, #18]	@ zero_extendqisi2
3583:Drivers/BSP/Components/vl53l1cb/modules/vl53l1_api_preset_modes.c **** 			phistogram->histogram_config__high_amb_odd_bin_0_1;
 5520              		.loc 1 3583 56 view .LVU1755
 5521 000e 4B75     		strb	r3, [r1, #21]
3585:Drivers/BSP/Components/vl53l1cb/modules/vl53l1_api_preset_modes.c **** 
3586:Drivers/BSP/Components/vl53l1cb/modules/vl53l1_api_preset_modes.c **** 	pstatic->spare_host_config__static_config_spare_0 =
 5522              		.loc 1 3586 2 is_stmt 1 view .LVU1756
3587:Drivers/BSP/Components/vl53l1cb/modules/vl53l1_api_preset_modes.c **** 			phistogram->histogram_config__high_amb_odd_bin_2_3;
 5523              		.loc 1 3587 14 is_stmt 0 view .LVU1757
 5524 0010 C37C     		ldrb	r3, [r0, #19]	@ zero_extendqisi2
3586:Drivers/BSP/Components/vl53l1cb/modules/vl53l1_api_preset_modes.c **** 			phistogram->histogram_config__high_amb_odd_bin_2_3;
 5525              		.loc 1 3586 52 view .LVU1758
 5526 0012 8B75     		strb	r3, [r1, #22]
3588:Drivers/BSP/Components/vl53l1cb/modules/vl53l1_api_preset_modes.c **** 	pstatic->spare_host_config__static_config_spare_1 =
 5527              		.loc 1 3588 2 is_stmt 1 view .LVU1759
3589:Drivers/BSP/Components/vl53l1cb/modules/vl53l1_api_preset_modes.c **** 			phistogram->histogram_config__high_amb_odd_bin_4_5;
 5528              		.loc 1 3589 14 is_stmt 0 view .LVU1760
 5529 0014 037D     		ldrb	r3, [r0, #20]	@ zero_extendqisi2
3588:Drivers/BSP/Components/vl53l1cb/modules/vl53l1_api_preset_modes.c **** 	pstatic->spare_host_config__static_config_spare_1 =
ARM GAS  C:\Temp\ccoVwn9Y.s 			page 172


 5530              		.loc 1 3588 52 view .LVU1761
 5531 0016 CB75     		strb	r3, [r1, #23]
3590:Drivers/BSP/Components/vl53l1cb/modules/vl53l1_api_preset_modes.c **** 
3591:Drivers/BSP/Components/vl53l1cb/modules/vl53l1_api_preset_modes.c **** 	pstatic->algo__range_ignore_threshold_mcps =
 5532              		.loc 1 3591 2 is_stmt 1 view .LVU1762
3592:Drivers/BSP/Components/vl53l1cb/modules/vl53l1_api_preset_modes.c **** 		(((uint16_t)phistogram->histogram_config__mid_amb_even_bin_0_1)
 5533              		.loc 1 3592 25 is_stmt 0 view .LVU1763
 5534 0018 90F807C0 		ldrb	ip, [r0, #7]	@ zero_extendqisi2
3593:Drivers/BSP/Components/vl53l1cb/modules/vl53l1_api_preset_modes.c **** 				<< 8)
3594:Drivers/BSP/Components/vl53l1cb/modules/vl53l1_api_preset_modes.c **** 		+ (uint16_t)phistogram->histogram_config__mid_amb_even_bin_2_3;
 5535              		.loc 1 3594 25 view .LVU1764
 5536 001c 037A     		ldrb	r3, [r0, #8]	@ zero_extendqisi2
 5537              		.loc 1 3594 3 view .LVU1765
 5538 001e 03EB0C23 		add	r3, r3, ip, lsl #8
3591:Drivers/BSP/Components/vl53l1cb/modules/vl53l1_api_preset_modes.c **** 		(((uint16_t)phistogram->histogram_config__mid_amb_even_bin_0_1)
 5539              		.loc 1 3591 45 view .LVU1766
 5540 0022 0B83     		strh	r3, [r1, #24]	@ movhi
3595:Drivers/BSP/Components/vl53l1cb/modules/vl53l1_api_preset_modes.c **** 
3596:Drivers/BSP/Components/vl53l1cb/modules/vl53l1_api_preset_modes.c **** 	pstatic->algo__range_ignore_valid_height_mm =
 5541              		.loc 1 3596 2 is_stmt 1 view .LVU1767
3597:Drivers/BSP/Components/vl53l1cb/modules/vl53l1_api_preset_modes.c **** 			phistogram->histogram_config__mid_amb_even_bin_4_5;
 5542              		.loc 1 3597 14 is_stmt 0 view .LVU1768
 5543 0024 437A     		ldrb	r3, [r0, #9]	@ zero_extendqisi2
3596:Drivers/BSP/Components/vl53l1cb/modules/vl53l1_api_preset_modes.c **** 			phistogram->histogram_config__mid_amb_even_bin_4_5;
 5544              		.loc 1 3596 46 view .LVU1769
 5545 0026 8B76     		strb	r3, [r1, #26]
3598:Drivers/BSP/Components/vl53l1cb/modules/vl53l1_api_preset_modes.c **** 	pstatic->algo__range_min_clip =
 5546              		.loc 1 3598 2 is_stmt 1 view .LVU1770
3599:Drivers/BSP/Components/vl53l1cb/modules/vl53l1_api_preset_modes.c **** 			phistogram->histogram_config__mid_amb_odd_bin_0_1;
 5547              		.loc 1 3599 14 is_stmt 0 view .LVU1771
 5548 0028 837A     		ldrb	r3, [r0, #10]	@ zero_extendqisi2
3598:Drivers/BSP/Components/vl53l1cb/modules/vl53l1_api_preset_modes.c **** 	pstatic->algo__range_min_clip =
 5549              		.loc 1 3598 32 view .LVU1772
 5550 002a CB76     		strb	r3, [r1, #27]
3600:Drivers/BSP/Components/vl53l1cb/modules/vl53l1_api_preset_modes.c **** 	pstatic->algo__consistency_check__tolerance =
 5551              		.loc 1 3600 2 is_stmt 1 view .LVU1773
3601:Drivers/BSP/Components/vl53l1cb/modules/vl53l1_api_preset_modes.c **** 			phistogram->histogram_config__mid_amb_odd_bin_2;
 5552              		.loc 1 3601 14 is_stmt 0 view .LVU1774
 5553 002c C37A     		ldrb	r3, [r0, #11]	@ zero_extendqisi2
3600:Drivers/BSP/Components/vl53l1cb/modules/vl53l1_api_preset_modes.c **** 	pstatic->algo__consistency_check__tolerance =
 5554              		.loc 1 3600 46 view .LVU1775
 5555 002e 0B77     		strb	r3, [r1, #28]
3602:Drivers/BSP/Components/vl53l1cb/modules/vl53l1_api_preset_modes.c **** 
3603:Drivers/BSP/Components/vl53l1cb/modules/vl53l1_api_preset_modes.c **** 	pstatic->spare_host_config__static_config_spare_2 =
 5556              		.loc 1 3603 2 is_stmt 1 view .LVU1776
3604:Drivers/BSP/Components/vl53l1cb/modules/vl53l1_api_preset_modes.c **** 			phistogram->histogram_config__mid_amb_odd_bin_3_4;
 5557              		.loc 1 3604 14 is_stmt 0 view .LVU1777
 5558 0030 037B     		ldrb	r3, [r0, #12]	@ zero_extendqisi2
3603:Drivers/BSP/Components/vl53l1cb/modules/vl53l1_api_preset_modes.c **** 			phistogram->histogram_config__mid_amb_odd_bin_3_4;
 5559              		.loc 1 3603 52 view .LVU1778
 5560 0032 4B77     		strb	r3, [r1, #29]
3605:Drivers/BSP/Components/vl53l1cb/modules/vl53l1_api_preset_modes.c **** 	pstatic->sd_config__reset_stages_msb =
 5561              		.loc 1 3605 2 is_stmt 1 view .LVU1779
3606:Drivers/BSP/Components/vl53l1cb/modules/vl53l1_api_preset_modes.c **** 			phistogram->histogram_config__mid_amb_odd_bin_5;
 5562              		.loc 1 3606 14 is_stmt 0 view .LVU1780
 5563 0034 437B     		ldrb	r3, [r0, #13]	@ zero_extendqisi2
3605:Drivers/BSP/Components/vl53l1cb/modules/vl53l1_api_preset_modes.c **** 	pstatic->sd_config__reset_stages_msb =
ARM GAS  C:\Temp\ccoVwn9Y.s 			page 173


 5564              		.loc 1 3605 39 view .LVU1781
 5565 0036 8B77     		strb	r3, [r1, #30]
3607:Drivers/BSP/Components/vl53l1cb/modules/vl53l1_api_preset_modes.c **** 
3608:Drivers/BSP/Components/vl53l1cb/modules/vl53l1_api_preset_modes.c **** 	ptiming->range_config__sigma_thresh =
 5566              		.loc 1 3608 2 is_stmt 1 view .LVU1782
3609:Drivers/BSP/Components/vl53l1cb/modules/vl53l1_api_preset_modes.c **** 		(((uint16_t)phistogram->histogram_config__low_amb_even_bin_0_1)
 5567              		.loc 1 3609 25 is_stmt 0 view .LVU1783
 5568 0038 4178     		ldrb	r1, [r0, #1]	@ zero_extendqisi2
 5569              	.LVL270:
3610:Drivers/BSP/Components/vl53l1cb/modules/vl53l1_api_preset_modes.c **** 				<< 8)
3611:Drivers/BSP/Components/vl53l1cb/modules/vl53l1_api_preset_modes.c **** 		+ (uint16_t)phistogram->histogram_config__low_amb_even_bin_2_3;
 5570              		.loc 1 3611 25 view .LVU1784
 5571 003a 8378     		ldrb	r3, [r0, #2]	@ zero_extendqisi2
 5572              		.loc 1 3611 3 view .LVU1785
 5573 003c 03EB0123 		add	r3, r3, r1, lsl #8
3608:Drivers/BSP/Components/vl53l1cb/modules/vl53l1_api_preset_modes.c **** 		(((uint16_t)phistogram->histogram_config__low_amb_even_bin_0_1)
 5574              		.loc 1 3608 38 view .LVU1786
 5575 0040 5381     		strh	r3, [r2, #10]	@ movhi
3612:Drivers/BSP/Components/vl53l1cb/modules/vl53l1_api_preset_modes.c **** 
3613:Drivers/BSP/Components/vl53l1cb/modules/vl53l1_api_preset_modes.c **** 	ptiming->range_config__min_count_rate_rtn_limit_mcps =
 5576              		.loc 1 3613 2 is_stmt 1 view .LVU1787
3614:Drivers/BSP/Components/vl53l1cb/modules/vl53l1_api_preset_modes.c **** 		(((uint16_t)phistogram->histogram_config__low_amb_even_bin_4_5)
 5577              		.loc 1 3614 25 is_stmt 0 view .LVU1788
 5578 0042 C178     		ldrb	r1, [r0, #3]	@ zero_extendqisi2
3615:Drivers/BSP/Components/vl53l1cb/modules/vl53l1_api_preset_modes.c **** 				<< 8)
3616:Drivers/BSP/Components/vl53l1cb/modules/vl53l1_api_preset_modes.c **** 		+ (uint16_t)phistogram->histogram_config__low_amb_odd_bin_0_1;
 5579              		.loc 1 3616 25 view .LVU1789
 5580 0044 0379     		ldrb	r3, [r0, #4]	@ zero_extendqisi2
 5581              		.loc 1 3616 3 view .LVU1790
 5582 0046 03EB0123 		add	r3, r3, r1, lsl #8
3613:Drivers/BSP/Components/vl53l1cb/modules/vl53l1_api_preset_modes.c **** 		(((uint16_t)phistogram->histogram_config__low_amb_even_bin_4_5)
 5583              		.loc 1 3613 55 view .LVU1791
 5584 004a 9381     		strh	r3, [r2, #12]	@ movhi
3617:Drivers/BSP/Components/vl53l1cb/modules/vl53l1_api_preset_modes.c **** 
3618:Drivers/BSP/Components/vl53l1cb/modules/vl53l1_api_preset_modes.c **** 	ptiming->range_config__valid_phase_low =
 5585              		.loc 1 3618 2 is_stmt 1 view .LVU1792
3619:Drivers/BSP/Components/vl53l1cb/modules/vl53l1_api_preset_modes.c **** 			phistogram->histogram_config__low_amb_odd_bin_2_3;
 5586              		.loc 1 3619 14 is_stmt 0 view .LVU1793
 5587 004c 4379     		ldrb	r3, [r0, #5]	@ zero_extendqisi2
3618:Drivers/BSP/Components/vl53l1cb/modules/vl53l1_api_preset_modes.c **** 			phistogram->histogram_config__low_amb_odd_bin_2_3;
 5588              		.loc 1 3618 41 view .LVU1794
 5589 004e 9373     		strb	r3, [r2, #14]
3620:Drivers/BSP/Components/vl53l1cb/modules/vl53l1_api_preset_modes.c **** 	ptiming->range_config__valid_phase_high =
 5590              		.loc 1 3620 2 is_stmt 1 view .LVU1795
3621:Drivers/BSP/Components/vl53l1cb/modules/vl53l1_api_preset_modes.c **** 			phistogram->histogram_config__low_amb_odd_bin_4_5;
 5591              		.loc 1 3621 14 is_stmt 0 view .LVU1796
 5592 0050 8379     		ldrb	r3, [r0, #6]	@ zero_extendqisi2
3620:Drivers/BSP/Components/vl53l1cb/modules/vl53l1_api_preset_modes.c **** 	ptiming->range_config__valid_phase_high =
 5593              		.loc 1 3620 42 view .LVU1797
 5594 0052 D373     		strb	r3, [r2, #15]
3622:Drivers/BSP/Components/vl53l1cb/modules/vl53l1_api_preset_modes.c **** 
3623:Drivers/BSP/Components/vl53l1cb/modules/vl53l1_api_preset_modes.c **** 	LOG_FUNCTION_END(0);
 5595              		.loc 1 3623 21 is_stmt 1 view .LVU1798
3624:Drivers/BSP/Components/vl53l1cb/modules/vl53l1_api_preset_modes.c **** 
3625:Drivers/BSP/Components/vl53l1cb/modules/vl53l1_api_preset_modes.c **** }
 5596              		.loc 1 3625 1 is_stmt 0 view .LVU1799
 5597 0054 7047     		bx	lr
ARM GAS  C:\Temp\ccoVwn9Y.s 			page 174


 5598              		.cfi_endproc
 5599              	.LFE50:
 5601              		.section	.text.VL53L1_preset_mode_histogram_ranging_ref,"ax",%progbits
 5602              		.align	1
 5603              		.global	VL53L1_preset_mode_histogram_ranging_ref
 5604              		.syntax unified
 5605              		.thumb
 5606              		.thumb_func
 5608              	VL53L1_preset_mode_histogram_ranging_ref:
 5609              	.LVL271:
 5610              	.LFB51:
3626:Drivers/BSP/Components/vl53l1cb/modules/vl53l1_api_preset_modes.c **** 
3627:Drivers/BSP/Components/vl53l1cb/modules/vl53l1_api_preset_modes.c **** 
3628:Drivers/BSP/Components/vl53l1cb/modules/vl53l1_api_preset_modes.c **** VL53L1_Error VL53L1_preset_mode_histogram_ranging_ref(
3629:Drivers/BSP/Components/vl53l1cb/modules/vl53l1_api_preset_modes.c **** 	VL53L1_hist_post_process_config_t  *phistpostprocess,
3630:Drivers/BSP/Components/vl53l1cb/modules/vl53l1_api_preset_modes.c **** 	VL53L1_static_config_t             *pstatic,
3631:Drivers/BSP/Components/vl53l1cb/modules/vl53l1_api_preset_modes.c **** 	VL53L1_histogram_config_t          *phistogram,
3632:Drivers/BSP/Components/vl53l1cb/modules/vl53l1_api_preset_modes.c **** 	VL53L1_general_config_t            *pgeneral,
3633:Drivers/BSP/Components/vl53l1cb/modules/vl53l1_api_preset_modes.c **** 	VL53L1_timing_config_t             *ptiming,
3634:Drivers/BSP/Components/vl53l1cb/modules/vl53l1_api_preset_modes.c **** 	VL53L1_dynamic_config_t            *pdynamic,
3635:Drivers/BSP/Components/vl53l1cb/modules/vl53l1_api_preset_modes.c **** 	VL53L1_system_control_t            *psystem,
3636:Drivers/BSP/Components/vl53l1cb/modules/vl53l1_api_preset_modes.c **** 	VL53L1_tuning_parm_storage_t       *ptuning_parms,
3637:Drivers/BSP/Components/vl53l1cb/modules/vl53l1_api_preset_modes.c **** 	VL53L1_zone_config_t               *pzone_cfg)
3638:Drivers/BSP/Components/vl53l1cb/modules/vl53l1_api_preset_modes.c **** {
 5611              		.loc 1 3638 1 is_stmt 1 view -0
 5612              		.cfi_startproc
 5613              		@ args = 20, pretend = 0, frame = 0
 5614              		@ frame_needed = 0, uses_anonymous_args = 0
 5615              		.loc 1 3638 1 is_stmt 0 view .LVU1801
 5616 0000 2DE9F043 		push	{r4, r5, r6, r7, r8, r9, lr}
 5617              		.cfi_def_cfa_offset 28
 5618              		.cfi_offset 4, -28
 5619              		.cfi_offset 5, -24
 5620              		.cfi_offset 6, -20
 5621              		.cfi_offset 7, -16
 5622              		.cfi_offset 8, -12
 5623              		.cfi_offset 9, -8
 5624              		.cfi_offset 14, -4
 5625 0004 87B0     		sub	sp, sp, #28
 5626              		.cfi_def_cfa_offset 56
 5627 0006 0F46     		mov	r7, r1
 5628 0008 1446     		mov	r4, r2
 5629 000a 9846     		mov	r8, r3
 5630 000c 0F9E     		ldr	r6, [sp, #60]
3639:Drivers/BSP/Components/vl53l1cb/modules/vl53l1_api_preset_modes.c **** 
3640:Drivers/BSP/Components/vl53l1cb/modules/vl53l1_api_preset_modes.c **** 
3641:Drivers/BSP/Components/vl53l1cb/modules/vl53l1_api_preset_modes.c **** 	VL53L1_Error  status = VL53L1_ERROR_NONE;
 5631              		.loc 1 3641 2 is_stmt 1 view .LVU1802
 5632              	.LVL272:
3642:Drivers/BSP/Components/vl53l1cb/modules/vl53l1_api_preset_modes.c **** 
3643:Drivers/BSP/Components/vl53l1cb/modules/vl53l1_api_preset_modes.c **** 	LOG_FUNCTION_START("");
 5633              		.loc 1 3643 24 view .LVU1803
3644:Drivers/BSP/Components/vl53l1cb/modules/vl53l1_api_preset_modes.c **** 
3645:Drivers/BSP/Components/vl53l1cb/modules/vl53l1_api_preset_modes.c **** 
3646:Drivers/BSP/Components/vl53l1cb/modules/vl53l1_api_preset_modes.c **** 
3647:Drivers/BSP/Components/vl53l1cb/modules/vl53l1_api_preset_modes.c **** 	status =
 5634              		.loc 1 3647 2 view .LVU1804
ARM GAS  C:\Temp\ccoVwn9Y.s 			page 175


3648:Drivers/BSP/Components/vl53l1cb/modules/vl53l1_api_preset_modes.c **** 		VL53L1_preset_mode_histogram_ranging(
 5635              		.loc 1 3648 3 is_stmt 0 view .LVU1805
 5636 000e 129D     		ldr	r5, [sp, #72]
 5637 0010 0495     		str	r5, [sp, #16]
 5638 0012 119D     		ldr	r5, [sp, #68]
 5639 0014 0395     		str	r5, [sp, #12]
 5640 0016 109D     		ldr	r5, [sp, #64]
 5641 0018 0295     		str	r5, [sp, #8]
 5642 001a 0196     		str	r6, [sp, #4]
 5643 001c 0E9D     		ldr	r5, [sp, #56]
 5644 001e 0095     		str	r5, [sp]
 5645 0020 FFF7FEFF 		bl	VL53L1_preset_mode_histogram_ranging
 5646              	.LVL273:
3649:Drivers/BSP/Components/vl53l1cb/modules/vl53l1_api_preset_modes.c **** 			phistpostprocess,
3650:Drivers/BSP/Components/vl53l1cb/modules/vl53l1_api_preset_modes.c **** 			pstatic,
3651:Drivers/BSP/Components/vl53l1cb/modules/vl53l1_api_preset_modes.c **** 			phistogram,
3652:Drivers/BSP/Components/vl53l1cb/modules/vl53l1_api_preset_modes.c **** 			pgeneral,
3653:Drivers/BSP/Components/vl53l1cb/modules/vl53l1_api_preset_modes.c **** 			ptiming,
3654:Drivers/BSP/Components/vl53l1cb/modules/vl53l1_api_preset_modes.c **** 			pdynamic,
3655:Drivers/BSP/Components/vl53l1cb/modules/vl53l1_api_preset_modes.c **** 			psystem,
3656:Drivers/BSP/Components/vl53l1cb/modules/vl53l1_api_preset_modes.c **** 			ptuning_parms,
3657:Drivers/BSP/Components/vl53l1cb/modules/vl53l1_api_preset_modes.c **** 			pzone_cfg);
3658:Drivers/BSP/Components/vl53l1cb/modules/vl53l1_api_preset_modes.c **** 
3659:Drivers/BSP/Components/vl53l1cb/modules/vl53l1_api_preset_modes.c **** 
3660:Drivers/BSP/Components/vl53l1cb/modules/vl53l1_api_preset_modes.c **** 
3661:Drivers/BSP/Components/vl53l1cb/modules/vl53l1_api_preset_modes.c **** 	if (status == VL53L1_ERROR_NONE) {
 5647              		.loc 1 3661 2 is_stmt 1 view .LVU1806
 5648              		.loc 1 3661 5 is_stmt 0 view .LVU1807
 5649 0024 8146     		mov	r9, r0
 5650 0026 18B1     		cbz	r0, .L158
 5651              	.LVL274:
 5652              	.L156:
3662:Drivers/BSP/Components/vl53l1cb/modules/vl53l1_api_preset_modes.c **** 
3663:Drivers/BSP/Components/vl53l1cb/modules/vl53l1_api_preset_modes.c **** 
3664:Drivers/BSP/Components/vl53l1cb/modules/vl53l1_api_preset_modes.c **** 
3665:Drivers/BSP/Components/vl53l1cb/modules/vl53l1_api_preset_modes.c **** 		phistogram->histogram_config__spad_array_selection = 0x01;
3666:Drivers/BSP/Components/vl53l1cb/modules/vl53l1_api_preset_modes.c **** 
3667:Drivers/BSP/Components/vl53l1cb/modules/vl53l1_api_preset_modes.c **** 
3668:Drivers/BSP/Components/vl53l1cb/modules/vl53l1_api_preset_modes.c **** 
3669:Drivers/BSP/Components/vl53l1cb/modules/vl53l1_api_preset_modes.c **** 		VL53L1_copy_hist_cfg_to_static_cfg(
3670:Drivers/BSP/Components/vl53l1cb/modules/vl53l1_api_preset_modes.c **** 				phistogram,
3671:Drivers/BSP/Components/vl53l1cb/modules/vl53l1_api_preset_modes.c **** 				pstatic,
3672:Drivers/BSP/Components/vl53l1cb/modules/vl53l1_api_preset_modes.c **** 				pgeneral,
3673:Drivers/BSP/Components/vl53l1cb/modules/vl53l1_api_preset_modes.c **** 				ptiming,
3674:Drivers/BSP/Components/vl53l1cb/modules/vl53l1_api_preset_modes.c **** 				pdynamic);
3675:Drivers/BSP/Components/vl53l1cb/modules/vl53l1_api_preset_modes.c **** 	}
3676:Drivers/BSP/Components/vl53l1cb/modules/vl53l1_api_preset_modes.c **** 
3677:Drivers/BSP/Components/vl53l1cb/modules/vl53l1_api_preset_modes.c **** 	LOG_FUNCTION_END(status);
 5653              		.loc 1 3677 26 is_stmt 1 view .LVU1808
3678:Drivers/BSP/Components/vl53l1cb/modules/vl53l1_api_preset_modes.c **** 
3679:Drivers/BSP/Components/vl53l1cb/modules/vl53l1_api_preset_modes.c **** 	return status;
 5654              		.loc 1 3679 2 view .LVU1809
3680:Drivers/BSP/Components/vl53l1cb/modules/vl53l1_api_preset_modes.c **** }
 5655              		.loc 1 3680 1 is_stmt 0 view .LVU1810
 5656 0028 4846     		mov	r0, r9
 5657 002a 07B0     		add	sp, sp, #28
 5658              		.cfi_remember_state
ARM GAS  C:\Temp\ccoVwn9Y.s 			page 176


 5659              		.cfi_def_cfa_offset 28
 5660              		@ sp needed
 5661 002c BDE8F083 		pop	{r4, r5, r6, r7, r8, r9, pc}
 5662              	.LVL275:
 5663              	.L158:
 5664              		.cfi_restore_state
3665:Drivers/BSP/Components/vl53l1cb/modules/vl53l1_api_preset_modes.c **** 
 5665              		.loc 1 3665 3 is_stmt 1 view .LVU1811
3665:Drivers/BSP/Components/vl53l1cb/modules/vl53l1_api_preset_modes.c **** 
 5666              		.loc 1 3665 54 is_stmt 0 view .LVU1812
 5667 0030 0123     		movs	r3, #1
 5668 0032 2370     		strb	r3, [r4]
3669:Drivers/BSP/Components/vl53l1cb/modules/vl53l1_api_preset_modes.c **** 				phistogram,
 5669              		.loc 1 3669 3 is_stmt 1 view .LVU1813
 5670 0034 0096     		str	r6, [sp]
 5671 0036 0E9B     		ldr	r3, [sp, #56]
 5672 0038 4246     		mov	r2, r8
 5673 003a 3946     		mov	r1, r7
 5674 003c 2046     		mov	r0, r4
 5675              	.LVL276:
3669:Drivers/BSP/Components/vl53l1cb/modules/vl53l1_api_preset_modes.c **** 				phistogram,
 5676              		.loc 1 3669 3 is_stmt 0 view .LVU1814
 5677 003e FFF7FEFF 		bl	VL53L1_copy_hist_cfg_to_static_cfg
 5678              	.LVL277:
 5679 0042 F1E7     		b	.L156
 5680              		.cfi_endproc
 5681              	.LFE51:
 5683              		.text
 5684              	.Letext0:
 5685              		.file 2 "c:\\users\\jessejabezarendse\\appdata\\roaming\\code\\user\\globalstorage\\bmd.stm32-for-
 5686              		.file 3 "c:\\users\\jessejabezarendse\\appdata\\roaming\\code\\user\\globalstorage\\bmd.stm32-for-
 5687              		.file 4 "Drivers/BSP/Components/vl53l1cb/modules/vl53l1_error_codes.h"
 5688              		.file 5 "Drivers/BSP/Components/vl53l1cb/modules/vl53l1_register_structs.h"
 5689              		.file 6 "Drivers/BSP/Components/vl53l1cb/modules/vl53l1_ll_device.h"
 5690              		.file 7 "Drivers/BSP/Components/vl53l1cb/modules/vl53l1_dmax_structs.h"
 5691              		.file 8 "Drivers/BSP/Components/vl53l1cb/modules/vl53l1_hist_structs.h"
 5692              		.file 9 "Drivers/BSP/Components/vl53l1cb/modules/vl53l1_ll_def.h"
 5693              		.file 10 "Drivers/BSP/Components/vl53l1cb/modules/vl53l1_zone_presets.h"
 5694              		.file 11 "Drivers/BSP/Components/vl53l1cb/modules/vl53l1_core.h"
ARM GAS  C:\Temp\ccoVwn9Y.s 			page 177


DEFINED SYMBOLS
                            *ABS*:00000000 vl53l1_api_preset_modes.c
  C:\Temp\ccoVwn9Y.s:21     .text.VL53L1_init_refspadchar_config_struct:00000000 $t
  C:\Temp\ccoVwn9Y.s:27     .text.VL53L1_init_refspadchar_config_struct:00000000 VL53L1_init_refspadchar_config_struct
  C:\Temp\ccoVwn9Y.s:72     .text.VL53L1_init_ssc_config_struct:00000000 $t
  C:\Temp\ccoVwn9Y.s:78     .text.VL53L1_init_ssc_config_struct:00000000 VL53L1_init_ssc_config_struct
  C:\Temp\ccoVwn9Y.s:125    .text.VL53L1_init_xtalk_config_struct:00000000 $t
  C:\Temp\ccoVwn9Y.s:131    .text.VL53L1_init_xtalk_config_struct:00000000 VL53L1_init_xtalk_config_struct
  C:\Temp\ccoVwn9Y.s:258    .text.VL53L1_init_xtalk_extract_config_struct:00000000 $t
  C:\Temp\ccoVwn9Y.s:264    .text.VL53L1_init_xtalk_extract_config_struct:00000000 VL53L1_init_xtalk_extract_config_struct
  C:\Temp\ccoVwn9Y.s:321    .text.VL53L1_init_offset_cal_config_struct:00000000 $t
  C:\Temp\ccoVwn9Y.s:327    .text.VL53L1_init_offset_cal_config_struct:00000000 VL53L1_init_offset_cal_config_struct
  C:\Temp\ccoVwn9Y.s:375    .text.VL53L1_init_zone_cal_config_struct:00000000 $t
  C:\Temp\ccoVwn9Y.s:381    .text.VL53L1_init_zone_cal_config_struct:00000000 VL53L1_init_zone_cal_config_struct
  C:\Temp\ccoVwn9Y.s:426    .text.VL53L1_init_hist_post_process_config_struct:00000000 $t
  C:\Temp\ccoVwn9Y.s:432    .text.VL53L1_init_hist_post_process_config_struct:00000000 VL53L1_init_hist_post_process_config_struct
  C:\Temp\ccoVwn9Y.s:561    .text.VL53L1_init_dmax_calibration_data_struct:00000000 $t
  C:\Temp\ccoVwn9Y.s:567    .text.VL53L1_init_dmax_calibration_data_struct:00000000 VL53L1_init_dmax_calibration_data_struct
  C:\Temp\ccoVwn9Y.s:608    .text.VL53L1_init_tuning_parm_storage_struct:00000000 $t
  C:\Temp\ccoVwn9Y.s:614    .text.VL53L1_init_tuning_parm_storage_struct:00000000 VL53L1_init_tuning_parm_storage_struct
  C:\Temp\ccoVwn9Y.s:1015   .text.VL53L1_init_hist_gen3_dmax_config_struct:00000000 $t
  C:\Temp\ccoVwn9Y.s:1021   .text.VL53L1_init_hist_gen3_dmax_config_struct:00000000 VL53L1_init_hist_gen3_dmax_config_struct
  C:\Temp\ccoVwn9Y.s:1090   .text.VL53L1_preset_mode_standard_ranging:00000000 $t
  C:\Temp\ccoVwn9Y.s:1096   .text.VL53L1_preset_mode_standard_ranging:00000000 VL53L1_preset_mode_standard_ranging
  C:\Temp\ccoVwn9Y.s:1535   .text.VL53L1_preset_mode_standard_ranging_short_range:00000000 $t
  C:\Temp\ccoVwn9Y.s:1541   .text.VL53L1_preset_mode_standard_ranging_short_range:00000000 VL53L1_preset_mode_standard_ranging_short_range
  C:\Temp\ccoVwn9Y.s:1632   .text.VL53L1_preset_mode_standard_ranging_long_range:00000000 $t
  C:\Temp\ccoVwn9Y.s:1638   .text.VL53L1_preset_mode_standard_ranging_long_range:00000000 VL53L1_preset_mode_standard_ranging_long_range
  C:\Temp\ccoVwn9Y.s:1729   .text.VL53L1_preset_mode_standard_ranging_mm1_cal:00000000 $t
  C:\Temp\ccoVwn9Y.s:1735   .text.VL53L1_preset_mode_standard_ranging_mm1_cal:00000000 VL53L1_preset_mode_standard_ranging_mm1_cal
  C:\Temp\ccoVwn9Y.s:1791   .text.VL53L1_preset_mode_standard_ranging_mm2_cal:00000000 $t
  C:\Temp\ccoVwn9Y.s:1797   .text.VL53L1_preset_mode_standard_ranging_mm2_cal:00000000 VL53L1_preset_mode_standard_ranging_mm2_cal
  C:\Temp\ccoVwn9Y.s:1853   .text.VL53L1_preset_mode_timed_ranging:00000000 $t
  C:\Temp\ccoVwn9Y.s:1859   .text.VL53L1_preset_mode_timed_ranging:00000000 VL53L1_preset_mode_timed_ranging
  C:\Temp\ccoVwn9Y.s:1939   .text.VL53L1_preset_mode_timed_ranging_short_range:00000000 $t
  C:\Temp\ccoVwn9Y.s:1945   .text.VL53L1_preset_mode_timed_ranging_short_range:00000000 VL53L1_preset_mode_timed_ranging_short_range
  C:\Temp\ccoVwn9Y.s:2026   .text.VL53L1_preset_mode_timed_ranging_long_range:00000000 $t
  C:\Temp\ccoVwn9Y.s:2032   .text.VL53L1_preset_mode_timed_ranging_long_range:00000000 VL53L1_preset_mode_timed_ranging_long_range
  C:\Temp\ccoVwn9Y.s:2112   .text.VL53L1_preset_mode_low_power_auto_ranging:00000000 $t
  C:\Temp\ccoVwn9Y.s:2118   .text.VL53L1_preset_mode_low_power_auto_ranging:00000000 VL53L1_preset_mode_low_power_auto_ranging
  C:\Temp\ccoVwn9Y.s:2179   .text.VL53L1_preset_mode_low_power_auto_short_ranging:00000000 $t
  C:\Temp\ccoVwn9Y.s:2185   .text.VL53L1_preset_mode_low_power_auto_short_ranging:00000000 VL53L1_preset_mode_low_power_auto_short_ranging
  C:\Temp\ccoVwn9Y.s:2246   .text.VL53L1_preset_mode_low_power_auto_long_ranging:00000000 $t
  C:\Temp\ccoVwn9Y.s:2252   .text.VL53L1_preset_mode_low_power_auto_long_ranging:00000000 VL53L1_preset_mode_low_power_auto_long_ranging
  C:\Temp\ccoVwn9Y.s:2313   .text.VL53L1_preset_mode_singleshot_ranging:00000000 $t
  C:\Temp\ccoVwn9Y.s:2319   .text.VL53L1_preset_mode_singleshot_ranging:00000000 VL53L1_preset_mode_singleshot_ranging
  C:\Temp\ccoVwn9Y.s:2395   .text.VL53L1_preset_mode_olt:00000000 $t
  C:\Temp\ccoVwn9Y.s:2401   .text.VL53L1_preset_mode_olt:00000000 VL53L1_preset_mode_olt
  C:\Temp\ccoVwn9Y.s:2451   .text.VL53L1_copy_hist_cfg_to_static_cfg:00000000 $t
  C:\Temp\ccoVwn9Y.s:2457   .text.VL53L1_copy_hist_cfg_to_static_cfg:00000000 VL53L1_copy_hist_cfg_to_static_cfg
  C:\Temp\ccoVwn9Y.s:2594   .text.VL53L1_preset_mode_histogram_ranging:00000000 $t
  C:\Temp\ccoVwn9Y.s:2600   .text.VL53L1_preset_mode_histogram_ranging:00000000 VL53L1_preset_mode_histogram_ranging
  C:\Temp\ccoVwn9Y.s:2798   .text.VL53L1_preset_mode_histogram_characterisation:00000000 $t
  C:\Temp\ccoVwn9Y.s:2804   .text.VL53L1_preset_mode_histogram_characterisation:00000000 VL53L1_preset_mode_histogram_characterisation
  C:\Temp\ccoVwn9Y.s:2870   .text.VL53L1_preset_mode_histogram_ranging_with_mm1:00000000 $t
  C:\Temp\ccoVwn9Y.s:2876   .text.VL53L1_preset_mode_histogram_ranging_with_mm1:00000000 VL53L1_preset_mode_histogram_ranging_with_mm1
  C:\Temp\ccoVwn9Y.s:3001   .text.VL53L1_preset_mode_histogram_ranging_with_mm2:00000000 $t
ARM GAS  C:\Temp\ccoVwn9Y.s 			page 178


  C:\Temp\ccoVwn9Y.s:3007   .text.VL53L1_preset_mode_histogram_ranging_with_mm2:00000000 VL53L1_preset_mode_histogram_ranging_with_mm2
  C:\Temp\ccoVwn9Y.s:3059   .text.VL53L1_preset_mode_histogram_ranging_mm1_cal:00000000 $t
  C:\Temp\ccoVwn9Y.s:3065   .text.VL53L1_preset_mode_histogram_ranging_mm1_cal:00000000 VL53L1_preset_mode_histogram_ranging_mm1_cal
  C:\Temp\ccoVwn9Y.s:3190   .text.VL53L1_preset_mode_histogram_ranging_mm2_cal:00000000 $t
  C:\Temp\ccoVwn9Y.s:3196   .text.VL53L1_preset_mode_histogram_ranging_mm2_cal:00000000 VL53L1_preset_mode_histogram_ranging_mm2_cal
  C:\Temp\ccoVwn9Y.s:3248   .text.VL53L1_preset_mode_histogram_ranging_short_timing:00000000 $t
  C:\Temp\ccoVwn9Y.s:3254   .text.VL53L1_preset_mode_histogram_ranging_short_timing:00000000 VL53L1_preset_mode_histogram_ranging_short_timing
  C:\Temp\ccoVwn9Y.s:3425   .text.VL53L1_preset_mode_histogram_long_range:00000000 $t
  C:\Temp\ccoVwn9Y.s:3431   .text.VL53L1_preset_mode_histogram_long_range:00000000 VL53L1_preset_mode_histogram_long_range
  C:\Temp\ccoVwn9Y.s:3627   .text.VL53L1_preset_mode_histogram_long_range_mm1:00000000 $t
  C:\Temp\ccoVwn9Y.s:3633   .text.VL53L1_preset_mode_histogram_long_range_mm1:00000000 VL53L1_preset_mode_histogram_long_range_mm1
  C:\Temp\ccoVwn9Y.s:3753   .text.VL53L1_preset_mode_histogram_long_range_mm2:00000000 $t
  C:\Temp\ccoVwn9Y.s:3759   .text.VL53L1_preset_mode_histogram_long_range_mm2:00000000 VL53L1_preset_mode_histogram_long_range_mm2
  C:\Temp\ccoVwn9Y.s:3811   .text.VL53L1_preset_mode_histogram_medium_range:00000000 $t
  C:\Temp\ccoVwn9Y.s:3817   .text.VL53L1_preset_mode_histogram_medium_range:00000000 VL53L1_preset_mode_histogram_medium_range
  C:\Temp\ccoVwn9Y.s:4013   .text.VL53L1_preset_mode_histogram_medium_range_mm1:00000000 $t
  C:\Temp\ccoVwn9Y.s:4019   .text.VL53L1_preset_mode_histogram_medium_range_mm1:00000000 VL53L1_preset_mode_histogram_medium_range_mm1
  C:\Temp\ccoVwn9Y.s:4139   .text.VL53L1_preset_mode_histogram_medium_range_mm2:00000000 $t
  C:\Temp\ccoVwn9Y.s:4145   .text.VL53L1_preset_mode_histogram_medium_range_mm2:00000000 VL53L1_preset_mode_histogram_medium_range_mm2
  C:\Temp\ccoVwn9Y.s:4197   .text.VL53L1_preset_mode_histogram_short_range:00000000 $t
  C:\Temp\ccoVwn9Y.s:4203   .text.VL53L1_preset_mode_histogram_short_range:00000000 VL53L1_preset_mode_histogram_short_range
  C:\Temp\ccoVwn9Y.s:4394   .text.VL53L1_preset_mode_special_histogram_short_range:00000000 $t
  C:\Temp\ccoVwn9Y.s:4400   .text.VL53L1_preset_mode_special_histogram_short_range:00000000 VL53L1_preset_mode_special_histogram_short_range
  C:\Temp\ccoVwn9Y.s:4552   .text.VL53L1_preset_mode_histogram_short_range_mm1:00000000 $t
  C:\Temp\ccoVwn9Y.s:4558   .text.VL53L1_preset_mode_histogram_short_range_mm1:00000000 VL53L1_preset_mode_histogram_short_range_mm1
  C:\Temp\ccoVwn9Y.s:4674   .text.VL53L1_preset_mode_histogram_short_range_mm2:00000000 $t
  C:\Temp\ccoVwn9Y.s:4680   .text.VL53L1_preset_mode_histogram_short_range_mm2:00000000 VL53L1_preset_mode_histogram_short_range_mm2
  C:\Temp\ccoVwn9Y.s:4732   .text.VL53L1_preset_mode_histogram_xtalk_mm1:00000000 $t
  C:\Temp\ccoVwn9Y.s:4738   .text.VL53L1_preset_mode_histogram_xtalk_mm1:00000000 VL53L1_preset_mode_histogram_xtalk_mm1
  C:\Temp\ccoVwn9Y.s:4916   .text.VL53L1_preset_mode_histogram_xtalk_mm2:00000000 $t
  C:\Temp\ccoVwn9Y.s:4922   .text.VL53L1_preset_mode_histogram_xtalk_mm2:00000000 VL53L1_preset_mode_histogram_xtalk_mm2
  C:\Temp\ccoVwn9Y.s:4970   .text.VL53L1_preset_mode_histogram_multizone:00000000 $t
  C:\Temp\ccoVwn9Y.s:4976   .text.VL53L1_preset_mode_histogram_multizone:00000000 VL53L1_preset_mode_histogram_multizone
  C:\Temp\ccoVwn9Y.s:5091   .text.VL53L1_preset_mode_histogram_multizone_short_range:00000000 $t
  C:\Temp\ccoVwn9Y.s:5097   .text.VL53L1_preset_mode_histogram_multizone_short_range:00000000 VL53L1_preset_mode_histogram_multizone_short_range
  C:\Temp\ccoVwn9Y.s:5212   .text.VL53L1_preset_mode_histogram_multizone_long_range:00000000 $t
  C:\Temp\ccoVwn9Y.s:5218   .text.VL53L1_preset_mode_histogram_multizone_long_range:00000000 VL53L1_preset_mode_histogram_multizone_long_range
  C:\Temp\ccoVwn9Y.s:5333   .text.VL53L1_preset_mode_histogram_xtalk_planar:00000000 $t
  C:\Temp\ccoVwn9Y.s:5339   .text.VL53L1_preset_mode_histogram_xtalk_planar:00000000 VL53L1_preset_mode_histogram_xtalk_planar
  C:\Temp\ccoVwn9Y.s:5487   .text.VL53L1_copy_hist_bins_to_static_cfg:00000000 $t
  C:\Temp\ccoVwn9Y.s:5493   .text.VL53L1_copy_hist_bins_to_static_cfg:00000000 VL53L1_copy_hist_bins_to_static_cfg
  C:\Temp\ccoVwn9Y.s:5602   .text.VL53L1_preset_mode_histogram_ranging_ref:00000000 $t
  C:\Temp\ccoVwn9Y.s:5608   .text.VL53L1_preset_mode_histogram_ranging_ref:00000000 VL53L1_preset_mode_histogram_ranging_ref

UNDEFINED SYMBOLS
VL53L1_calc_range_ignore_threshold
VL53L1_config_low_power_auto_mode
VL53L1_init_histogram_config_structure
VL53L1_init_histogram_multizone_config_structure
VL53L1_init_zone_config_structure
VL53L1_set_histogram_multizone_initial_bin_config
VL53L1_zone_preset_xtalk_planar
