ARM GAS  C:\Temp\cc0JxbDz.s 			page 1


   1              		.cpu cortex-m4
   2              		.arch armv7e-m
   3              		.fpu fpv4-sp-d16
   4              		.eabi_attribute 27, 1
   5              		.eabi_attribute 28, 1
   6              		.eabi_attribute 20, 1
   7              		.eabi_attribute 21, 1
   8              		.eabi_attribute 23, 3
   9              		.eabi_attribute 24, 1
  10              		.eabi_attribute 25, 1
  11              		.eabi_attribute 26, 1
  12              		.eabi_attribute 30, 1
  13              		.eabi_attribute 34, 1
  14              		.eabi_attribute 18, 4
  15              		.file	"stm32f4xx_hal_dma_ex.c"
  16              		.text
  17              		.section	.text.DMA_MultiBufferSetConfig,"ax",%progbits
  18              		.align	1
  19              		.syntax unified
  20              		.thumb
  21              		.thumb_func
  23              	DMA_MultiBufferSetConfig:
  24              		@ args = 0, pretend = 0, frame = 0
  25              		@ frame_needed = 0, uses_anonymous_args = 0
  26              		@ link register save eliminated.
  27 0000 10B4     		push	{r4}
  28 0002 0468     		ldr	r4, [r0]
  29 0004 6360     		str	r3, [r4, #4]
  30 0006 8368     		ldr	r3, [r0, #8]
  31 0008 402B     		cmp	r3, #64
  32 000a 06D0     		beq	.L5
  33 000c 0368     		ldr	r3, [r0]
  34 000e 9960     		str	r1, [r3, #8]
  35 0010 0368     		ldr	r3, [r0]
  36 0012 DA60     		str	r2, [r3, #12]
  37              	.L1:
  38 0014 5DF8044B 		ldr	r4, [sp], #4
  39 0018 7047     		bx	lr
  40              	.L5:
  41 001a 0368     		ldr	r3, [r0]
  42 001c 9A60     		str	r2, [r3, #8]
  43 001e 0368     		ldr	r3, [r0]
  44 0020 D960     		str	r1, [r3, #12]
  45 0022 F7E7     		b	.L1
  47              		.section	.rodata.HAL_DMAEx_MultiBufferStart.str1.4,"aMS",%progbits,1
  48              		.align	2
  49              	.LC0:
  50 0000 44726976 		.ascii	"Drivers/STM32F4xx_HAL_Driver/Src/stm32f4xx_hal_dma_"
  50      6572732F 
  50      53544D33 
  50      32463478 
  50      785F4841 
  51 0033 65782E63 		.ascii	"ex.c\000"
  51      00
  52              		.section	.text.HAL_DMAEx_MultiBufferStart,"ax",%progbits
  53              		.align	1
  54              		.global	HAL_DMAEx_MultiBufferStart
ARM GAS  C:\Temp\cc0JxbDz.s 			page 2


  55              		.syntax unified
  56              		.thumb
  57              		.thumb_func
  59              	HAL_DMAEx_MultiBufferStart:
  60              		@ args = 4, pretend = 0, frame = 0
  61              		@ frame_needed = 0, uses_anonymous_args = 0
  62 0000 2DE9F041 		push	{r4, r5, r6, r7, r8, lr}
  63 0004 0446     		mov	r4, r0
  64 0006 0D46     		mov	r5, r1
  65 0008 1646     		mov	r6, r2
  66 000a 9846     		mov	r8, r3
  67 000c 069F     		ldr	r7, [sp, #24]
  68 000e 7A1E     		subs	r2, r7, #1
  69 0010 4FF6FE73 		movw	r3, #65534
  70 0014 9A42     		cmp	r2, r3
  71 0016 11D8     		bhi	.L13
  72              	.L7:
  73 0018 A368     		ldr	r3, [r4, #8]
  74 001a 802B     		cmp	r3, #128
  75 001c 13D0     		beq	.L14
  76 001e 94F83430 		ldrb	r3, [r4, #52]	@ zero_extendqisi2
  77 0022 012B     		cmp	r3, #1
  78 0024 2CD0     		beq	.L10
  79 0026 0123     		movs	r3, #1
  80 0028 84F83430 		strb	r3, [r4, #52]
  81 002c 94F83530 		ldrb	r3, [r4, #53]	@ zero_extendqisi2
  82 0030 DBB2     		uxtb	r3, r3
  83 0032 012B     		cmp	r3, #1
  84 0034 0CD0     		beq	.L15
  85 0036 0220     		movs	r0, #2
  86              	.L9:
  87 0038 BDE8F081 		pop	{r4, r5, r6, r7, r8, pc}
  88              	.L13:
  89 003c 6921     		movs	r1, #105
  90 003e 1148     		ldr	r0, .L16
  91 0040 FFF7FEFF 		bl	assert_failed
  92 0044 E8E7     		b	.L7
  93              	.L14:
  94 0046 4FF48073 		mov	r3, #256
  95 004a 6365     		str	r3, [r4, #84]
  96 004c 0120     		movs	r0, #1
  97 004e F3E7     		b	.L9
  98              	.L15:
  99 0050 0223     		movs	r3, #2
 100 0052 84F83530 		strb	r3, [r4, #53]
 101 0056 2268     		ldr	r2, [r4]
 102 0058 1368     		ldr	r3, [r2]
 103 005a 43F48023 		orr	r3, r3, #262144
 104 005e 1360     		str	r3, [r2]
 105 0060 2368     		ldr	r3, [r4]
 106 0062 C3F81080 		str	r8, [r3, #16]
 107 0066 3B46     		mov	r3, r7
 108 0068 3246     		mov	r2, r6
 109 006a 2946     		mov	r1, r5
 110 006c 2046     		mov	r0, r4
 111 006e FFF7FEFF 		bl	DMA_MultiBufferSetConfig
 112 0072 2268     		ldr	r2, [r4]
ARM GAS  C:\Temp\cc0JxbDz.s 			page 3


 113 0074 1368     		ldr	r3, [r2]
 114 0076 43F00103 		orr	r3, r3, #1
 115 007a 1360     		str	r3, [r2]
 116 007c 0020     		movs	r0, #0
 117 007e DBE7     		b	.L9
 118              	.L10:
 119 0080 0220     		movs	r0, #2
 120 0082 D9E7     		b	.L9
 121              	.L17:
 122              		.align	2
 123              	.L16:
 124 0084 00000000 		.word	.LC0
 126              		.section	.text.HAL_DMAEx_MultiBufferStart_IT,"ax",%progbits
 127              		.align	1
 128              		.global	HAL_DMAEx_MultiBufferStart_IT
 129              		.syntax unified
 130              		.thumb
 131              		.thumb_func
 133              	HAL_DMAEx_MultiBufferStart_IT:
 134              		@ args = 4, pretend = 0, frame = 0
 135              		@ frame_needed = 0, uses_anonymous_args = 0
 136 0000 2DE9F041 		push	{r4, r5, r6, r7, r8, lr}
 137 0004 0446     		mov	r4, r0
 138 0006 0D46     		mov	r5, r1
 139 0008 1646     		mov	r6, r2
 140 000a 9846     		mov	r8, r3
 141 000c 069F     		ldr	r7, [sp, #24]
 142 000e 791E     		subs	r1, r7, #1
 143 0010 4FF6FE72 		movw	r2, #65534
 144 0014 9142     		cmp	r1, r2
 145 0016 1AD8     		bhi	.L309
 146              	.L19:
 147 0018 A268     		ldr	r2, [r4, #8]
 148 001a 802A     		cmp	r2, #128
 149 001c 1CD0     		beq	.L310
 150 001e E36B     		ldr	r3, [r4, #60]
 151 0020 FBB1     		cbz	r3, .L22
 152 0022 636C     		ldr	r3, [r4, #68]
 153 0024 EBB1     		cbz	r3, .L22
 154 0026 E36C     		ldr	r3, [r4, #76]
 155 0028 DBB1     		cbz	r3, .L22
 156 002a 94F83430 		ldrb	r3, [r4, #52]	@ zero_extendqisi2
 157 002e 012B     		cmp	r3, #1
 158 0030 00F07387 		beq	.L67
 159 0034 0123     		movs	r3, #1
 160 0036 84F83430 		strb	r3, [r4, #52]
 161 003a 94F83530 		ldrb	r3, [r4, #53]	@ zero_extendqisi2
 162 003e DBB2     		uxtb	r3, r3
 163 0040 012B     		cmp	r3, #1
 164 0042 13D0     		beq	.L311
 165 0044 0023     		movs	r3, #0
 166 0046 84F83430 		strb	r3, [r4, #52]
 167 004a 0220     		movs	r0, #2
 168 004c 0CE0     		b	.L21
 169              	.L309:
 170 004e 9F21     		movs	r1, #159
 171 0050 B248     		ldr	r0, .L333
ARM GAS  C:\Temp\cc0JxbDz.s 			page 4


 172 0052 FFF7FEFF 		bl	assert_failed
 173 0056 DFE7     		b	.L19
 174              	.L310:
 175 0058 4FF48073 		mov	r3, #256
 176 005c 6365     		str	r3, [r4, #84]
 177 005e 0120     		movs	r0, #1
 178 0060 02E0     		b	.L21
 179              	.L22:
 180 0062 4023     		movs	r3, #64
 181 0064 6365     		str	r3, [r4, #84]
 182 0066 0120     		movs	r0, #1
 183              	.L21:
 184 0068 BDE8F081 		pop	{r4, r5, r6, r7, r8, pc}
 185              	.L311:
 186 006c 0223     		movs	r3, #2
 187 006e 84F83530 		strb	r3, [r4, #53]
 188 0072 0023     		movs	r3, #0
 189 0074 6365     		str	r3, [r4, #84]
 190 0076 2268     		ldr	r2, [r4]
 191 0078 1368     		ldr	r3, [r2]
 192 007a 43F48023 		orr	r3, r3, #262144
 193 007e 1360     		str	r3, [r2]
 194 0080 2368     		ldr	r3, [r4]
 195 0082 C3F81080 		str	r8, [r3, #16]
 196 0086 3B46     		mov	r3, r7
 197 0088 3246     		mov	r2, r6
 198 008a 2946     		mov	r1, r5
 199 008c 2046     		mov	r0, r4
 200 008e FFF7FEFF 		bl	DMA_MultiBufferSetConfig
 201 0092 2368     		ldr	r3, [r4]
 202 0094 A24A     		ldr	r2, .L333+4
 203 0096 9342     		cmp	r3, r2
 204 0098 40F29880 		bls	.L25
 205 009c A2F58962 		sub	r2, r2, #1096
 206 00a0 9342     		cmp	r3, r2
 207 00a2 31D0     		beq	.L68
 208 00a4 02F58062 		add	r2, r2, #1024
 209 00a8 9342     		cmp	r3, r2
 210 00aa 74D0     		beq	.L69
 211 00ac A2F56872 		sub	r2, r2, #928
 212 00b0 9342     		cmp	r3, r2
 213 00b2 72D0     		beq	.L70
 214 00b4 02F58062 		add	r2, r2, #1024
 215 00b8 9342     		cmp	r3, r2
 216 00ba 70D0     		beq	.L71
 217 00bc A2F58962 		sub	r2, r2, #1096
 218 00c0 9342     		cmp	r3, r2
 219 00c2 6ED0     		beq	.L72
 220 00c4 02F58062 		add	r2, r2, #1024
 221 00c8 9342     		cmp	r3, r2
 222 00ca 6DD0     		beq	.L73
 223 00cc A2F56872 		sub	r2, r2, #928
 224 00d0 9342     		cmp	r3, r2
 225 00d2 6CD0     		beq	.L74
 226 00d4 02F58062 		add	r2, r2, #1024
 227 00d8 9342     		cmp	r3, r2
 228 00da 6BD0     		beq	.L75
ARM GAS  C:\Temp\cc0JxbDz.s 			page 5


 229 00dc A2F58962 		sub	r2, r2, #1096
 230 00e0 9342     		cmp	r3, r2
 231 00e2 6AD0     		beq	.L76
 232 00e4 02F58062 		add	r2, r2, #1024
 233 00e8 9342     		cmp	r3, r2
 234 00ea 69D0     		beq	.L77
 235 00ec A2F56872 		sub	r2, r2, #928
 236 00f0 9342     		cmp	r3, r2
 237 00f2 68D0     		beq	.L78
 238 00f4 02F58062 		add	r2, r2, #1024
 239 00f8 9342     		cmp	r3, r2
 240 00fa 02D0     		beq	.L312
 241 00fc 4FF00062 		mov	r2, #134217728
 242 0100 03E0     		b	.L26
 243              	.L312:
 244 0102 4FF40012 		mov	r2, #2097152
 245 0106 00E0     		b	.L26
 246              	.L68:
 247 0108 2022     		movs	r2, #32
 248              	.L26:
 249 010a 864B     		ldr	r3, .L333+8
 250 010c DA60     		str	r2, [r3, #12]
 251              	.L27:
 252 010e 2368     		ldr	r3, [r4]
 253 0110 834A     		ldr	r2, .L333+4
 254 0112 9342     		cmp	r3, r2
 255 0114 40F2CD81 		bls	.L33
 256 0118 A2F58962 		sub	r2, r2, #1096
 257 011c 9342     		cmp	r3, r2
 258 011e 00F06681 		beq	.L116
 259 0122 02F58062 		add	r2, r2, #1024
 260 0126 9342     		cmp	r3, r2
 261 0128 00F0A881 		beq	.L117
 262 012c A2F56872 		sub	r2, r2, #928
 263 0130 9342     		cmp	r3, r2
 264 0132 00F0A581 		beq	.L118
 265 0136 02F58062 		add	r2, r2, #1024
 266 013a 9342     		cmp	r3, r2
 267 013c 00F0A281 		beq	.L119
 268 0140 A2F58962 		sub	r2, r2, #1096
 269 0144 9342     		cmp	r3, r2
 270 0146 00F09F81 		beq	.L120
 271 014a 02F58062 		add	r2, r2, #1024
 272 014e 9342     		cmp	r3, r2
 273 0150 00F09D81 		beq	.L121
 274 0154 A2F56872 		sub	r2, r2, #928
 275 0158 9342     		cmp	r3, r2
 276 015a 00F09B81 		beq	.L122
 277 015e 02F58062 		add	r2, r2, #1024
 278 0162 9342     		cmp	r3, r2
 279 0164 00F09981 		beq	.L123
 280 0168 A2F58962 		sub	r2, r2, #1096
 281 016c 9342     		cmp	r3, r2
 282 016e 00F09781 		beq	.L124
 283 0172 02F58062 		add	r2, r2, #1024
 284 0176 9342     		cmp	r3, r2
 285 0178 00F09581 		beq	.L125
ARM GAS  C:\Temp\cc0JxbDz.s 			page 6


 286 017c A2F56872 		sub	r2, r2, #928
 287 0180 9342     		cmp	r3, r2
 288 0182 00F09381 		beq	.L126
 289 0186 02F58062 		add	r2, r2, #1024
 290 018a 9342     		cmp	r3, r2
 291 018c 00F02C81 		beq	.L313
 292 0190 4FF08062 		mov	r2, #67108864
 293 0194 2CE1     		b	.L34
 294              	.L69:
 295 0196 2022     		movs	r2, #32
 296 0198 B7E7     		b	.L26
 297              	.L70:
 298 019a 2022     		movs	r2, #32
 299 019c B5E7     		b	.L26
 300              	.L71:
 301 019e 2022     		movs	r2, #32
 302 01a0 B3E7     		b	.L26
 303              	.L72:
 304 01a2 4FF40062 		mov	r2, #2048
 305 01a6 B0E7     		b	.L26
 306              	.L73:
 307 01a8 4FF40062 		mov	r2, #2048
 308 01ac ADE7     		b	.L26
 309              	.L74:
 310 01ae 4FF40062 		mov	r2, #2048
 311 01b2 AAE7     		b	.L26
 312              	.L75:
 313 01b4 4FF40062 		mov	r2, #2048
 314 01b8 A7E7     		b	.L26
 315              	.L76:
 316 01ba 4FF40012 		mov	r2, #2097152
 317 01be A4E7     		b	.L26
 318              	.L77:
 319 01c0 4FF40012 		mov	r2, #2097152
 320 01c4 A1E7     		b	.L26
 321              	.L78:
 322 01c6 4FF40012 		mov	r2, #2097152
 323 01ca 9EE7     		b	.L26
 324              	.L25:
 325 01cc 564A     		ldr	r2, .L333+12
 326 01ce 9342     		cmp	r3, r2
 327 01d0 53D9     		bls	.L28
 328 01d2 A83A     		subs	r2, r2, #168
 329 01d4 9342     		cmp	r3, r2
 330 01d6 31D0     		beq	.L80
 331 01d8 02F58062 		add	r2, r2, #1024
 332 01dc 9342     		cmp	r3, r2
 333 01de 31D0     		beq	.L81
 334 01e0 A2F56872 		sub	r2, r2, #928
 335 01e4 9342     		cmp	r3, r2
 336 01e6 2FD0     		beq	.L82
 337 01e8 02F58062 		add	r2, r2, #1024
 338 01ec 9342     		cmp	r3, r2
 339 01ee 2DD0     		beq	.L83
 340 01f0 A2F58962 		sub	r2, r2, #1096
 341 01f4 9342     		cmp	r3, r2
 342 01f6 2BD0     		beq	.L84
ARM GAS  C:\Temp\cc0JxbDz.s 			page 7


 343 01f8 02F58062 		add	r2, r2, #1024
 344 01fc 9342     		cmp	r3, r2
 345 01fe 2AD0     		beq	.L85
 346 0200 A2F56872 		sub	r2, r2, #928
 347 0204 9342     		cmp	r3, r2
 348 0206 29D0     		beq	.L86
 349 0208 02F58062 		add	r2, r2, #1024
 350 020c 9342     		cmp	r3, r2
 351 020e 28D0     		beq	.L87
 352 0210 A2F58962 		sub	r2, r2, #1096
 353 0214 9342     		cmp	r3, r2
 354 0216 27D0     		beq	.L88
 355 0218 02F58062 		add	r2, r2, #1024
 356 021c 9342     		cmp	r3, r2
 357 021e 26D0     		beq	.L89
 358 0220 A2F56872 		sub	r2, r2, #928
 359 0224 9342     		cmp	r3, r2
 360 0226 25D0     		beq	.L90
 361 0228 02F58062 		add	r2, r2, #1024
 362 022c 9342     		cmp	r3, r2
 363 022e 02D0     		beq	.L314
 364 0230 4FF00063 		mov	r3, #134217728
 365 0234 03E0     		b	.L29
 366              	.L314:
 367 0236 4FF40013 		mov	r3, #2097152
 368 023a 00E0     		b	.L29
 369              	.L80:
 370 023c 2023     		movs	r3, #32
 371              	.L29:
 372 023e 394A     		ldr	r2, .L333+8
 373 0240 9360     		str	r3, [r2, #8]
 374 0242 64E7     		b	.L27
 375              	.L81:
 376 0244 2023     		movs	r3, #32
 377 0246 FAE7     		b	.L29
 378              	.L82:
 379 0248 2023     		movs	r3, #32
 380 024a F8E7     		b	.L29
 381              	.L83:
 382 024c 2023     		movs	r3, #32
 383 024e F6E7     		b	.L29
 384              	.L84:
 385 0250 4FF40063 		mov	r3, #2048
 386 0254 F3E7     		b	.L29
 387              	.L85:
 388 0256 4FF40063 		mov	r3, #2048
 389 025a F0E7     		b	.L29
 390              	.L86:
 391 025c 4FF40063 		mov	r3, #2048
 392 0260 EDE7     		b	.L29
 393              	.L87:
 394 0262 4FF40063 		mov	r3, #2048
 395 0266 EAE7     		b	.L29
 396              	.L88:
 397 0268 4FF40013 		mov	r3, #2097152
 398 026c E7E7     		b	.L29
 399              	.L89:
ARM GAS  C:\Temp\cc0JxbDz.s 			page 8


 400 026e 4FF40013 		mov	r3, #2097152
 401 0272 E4E7     		b	.L29
 402              	.L90:
 403 0274 4FF40013 		mov	r3, #2097152
 404 0278 E1E7     		b	.L29
 405              	.L28:
 406 027a 2C4A     		ldr	r2, .L333+16
 407 027c 9342     		cmp	r3, r2
 408 027e 5FD9     		bls	.L30
 409 0280 483A     		subs	r2, r2, #72
 410 0282 9342     		cmp	r3, r2
 411 0284 31D0     		beq	.L92
 412 0286 02F58062 		add	r2, r2, #1024
 413 028a 9342     		cmp	r3, r2
 414 028c 31D0     		beq	.L93
 415 028e A2F56872 		sub	r2, r2, #928
 416 0292 9342     		cmp	r3, r2
 417 0294 2FD0     		beq	.L94
 418 0296 02F58062 		add	r2, r2, #1024
 419 029a 9342     		cmp	r3, r2
 420 029c 2DD0     		beq	.L95
 421 029e A2F58962 		sub	r2, r2, #1096
 422 02a2 9342     		cmp	r3, r2
 423 02a4 2BD0     		beq	.L96
 424 02a6 02F58062 		add	r2, r2, #1024
 425 02aa 9342     		cmp	r3, r2
 426 02ac 2AD0     		beq	.L97
 427 02ae A2F56872 		sub	r2, r2, #928
 428 02b2 9342     		cmp	r3, r2
 429 02b4 29D0     		beq	.L98
 430 02b6 02F58062 		add	r2, r2, #1024
 431 02ba 9342     		cmp	r3, r2
 432 02bc 28D0     		beq	.L99
 433 02be A2F58962 		sub	r2, r2, #1096
 434 02c2 9342     		cmp	r3, r2
 435 02c4 27D0     		beq	.L100
 436 02c6 02F58062 		add	r2, r2, #1024
 437 02ca 9342     		cmp	r3, r2
 438 02cc 32D0     		beq	.L101
 439 02ce A2F56872 		sub	r2, r2, #928
 440 02d2 9342     		cmp	r3, r2
 441 02d4 31D0     		beq	.L102
 442 02d6 02F58062 		add	r2, r2, #1024
 443 02da 9342     		cmp	r3, r2
 444 02dc 02D0     		beq	.L315
 445 02de 4FF00063 		mov	r3, #134217728
 446 02e2 03E0     		b	.L31
 447              	.L315:
 448 02e4 4FF40013 		mov	r3, #2097152
 449 02e8 00E0     		b	.L31
 450              	.L92:
 451 02ea 2023     		movs	r3, #32
 452              	.L31:
 453 02ec 104A     		ldr	r2, .L333+20
 454 02ee D360     		str	r3, [r2, #12]
 455 02f0 0DE7     		b	.L27
 456              	.L93:
ARM GAS  C:\Temp\cc0JxbDz.s 			page 9


 457 02f2 2023     		movs	r3, #32
 458 02f4 FAE7     		b	.L31
 459              	.L94:
 460 02f6 2023     		movs	r3, #32
 461 02f8 F8E7     		b	.L31
 462              	.L95:
 463 02fa 2023     		movs	r3, #32
 464 02fc F6E7     		b	.L31
 465              	.L96:
 466 02fe 4FF40063 		mov	r3, #2048
 467 0302 F3E7     		b	.L31
 468              	.L97:
 469 0304 4FF40063 		mov	r3, #2048
 470 0308 F0E7     		b	.L31
 471              	.L98:
 472 030a 4FF40063 		mov	r3, #2048
 473 030e EDE7     		b	.L31
 474              	.L99:
 475 0310 4FF40063 		mov	r3, #2048
 476 0314 EAE7     		b	.L31
 477              	.L100:
 478 0316 4FF40013 		mov	r3, #2097152
 479 031a E7E7     		b	.L31
 480              	.L334:
 481              		.align	2
 482              	.L333:
 483 031c 00000000 		.word	.LC0
 484 0320 58640240 		.word	1073898584
 485 0324 00640240 		.word	1073898496
 486 0328 B8600240 		.word	1073897656
 487 032c 58600240 		.word	1073897560
 488 0330 00600240 		.word	1073897472
 489              	.L101:
 490 0334 4FF40013 		mov	r3, #2097152
 491 0338 D8E7     		b	.L31
 492              	.L102:
 493 033a 4FF40013 		mov	r3, #2097152
 494 033e D5E7     		b	.L31
 495              	.L30:
 496 0340 B14A     		ldr	r2, .L335
 497 0342 9342     		cmp	r3, r2
 498 0344 31D0     		beq	.L104
 499 0346 02F58062 		add	r2, r2, #1024
 500 034a 9342     		cmp	r3, r2
 501 034c 31D0     		beq	.L105
 502 034e A2F56872 		sub	r2, r2, #928
 503 0352 9342     		cmp	r3, r2
 504 0354 2FD0     		beq	.L106
 505 0356 02F58062 		add	r2, r2, #1024
 506 035a 9342     		cmp	r3, r2
 507 035c 2DD0     		beq	.L107
 508 035e A2F58962 		sub	r2, r2, #1096
 509 0362 9342     		cmp	r3, r2
 510 0364 2BD0     		beq	.L108
 511 0366 02F58062 		add	r2, r2, #1024
 512 036a 9342     		cmp	r3, r2
 513 036c 2AD0     		beq	.L109
ARM GAS  C:\Temp\cc0JxbDz.s 			page 10


 514 036e A2F56872 		sub	r2, r2, #928
 515 0372 9342     		cmp	r3, r2
 516 0374 29D0     		beq	.L110
 517 0376 02F58062 		add	r2, r2, #1024
 518 037a 9342     		cmp	r3, r2
 519 037c 28D0     		beq	.L111
 520 037e A2F58962 		sub	r2, r2, #1096
 521 0382 9342     		cmp	r3, r2
 522 0384 27D0     		beq	.L112
 523 0386 02F58062 		add	r2, r2, #1024
 524 038a 9342     		cmp	r3, r2
 525 038c 26D0     		beq	.L113
 526 038e A2F56872 		sub	r2, r2, #928
 527 0392 9342     		cmp	r3, r2
 528 0394 25D0     		beq	.L114
 529 0396 02F58062 		add	r2, r2, #1024
 530 039a 9342     		cmp	r3, r2
 531 039c 02D0     		beq	.L316
 532 039e 4FF00063 		mov	r3, #134217728
 533 03a2 03E0     		b	.L32
 534              	.L316:
 535 03a4 4FF40013 		mov	r3, #2097152
 536 03a8 00E0     		b	.L32
 537              	.L104:
 538 03aa 2023     		movs	r3, #32
 539              	.L32:
 540 03ac 974A     		ldr	r2, .L335+4
 541 03ae 9360     		str	r3, [r2, #8]
 542 03b0 ADE6     		b	.L27
 543              	.L105:
 544 03b2 2023     		movs	r3, #32
 545 03b4 FAE7     		b	.L32
 546              	.L106:
 547 03b6 2023     		movs	r3, #32
 548 03b8 F8E7     		b	.L32
 549              	.L107:
 550 03ba 2023     		movs	r3, #32
 551 03bc F6E7     		b	.L32
 552              	.L108:
 553 03be 4FF40063 		mov	r3, #2048
 554 03c2 F3E7     		b	.L32
 555              	.L109:
 556 03c4 4FF40063 		mov	r3, #2048
 557 03c8 F0E7     		b	.L32
 558              	.L110:
 559 03ca 4FF40063 		mov	r3, #2048
 560 03ce EDE7     		b	.L32
 561              	.L111:
 562 03d0 4FF40063 		mov	r3, #2048
 563 03d4 EAE7     		b	.L32
 564              	.L112:
 565 03d6 4FF40013 		mov	r3, #2097152
 566 03da E7E7     		b	.L32
 567              	.L113:
 568 03dc 4FF40013 		mov	r3, #2097152
 569 03e0 E4E7     		b	.L32
 570              	.L114:
ARM GAS  C:\Temp\cc0JxbDz.s 			page 11


 571 03e2 4FF40013 		mov	r3, #2097152
 572 03e6 E1E7     		b	.L32
 573              	.L313:
 574 03e8 4FF48012 		mov	r2, #1048576
 575 03ec 00E0     		b	.L34
 576              	.L116:
 577 03ee 1022     		movs	r2, #16
 578              	.L34:
 579 03f0 874B     		ldr	r3, .L335+8
 580 03f2 DA60     		str	r2, [r3, #12]
 581              	.L35:
 582 03f4 2368     		ldr	r3, [r4]
 583 03f6 874A     		ldr	r2, .L335+12
 584 03f8 9342     		cmp	r3, r2
 585 03fa 40F2CD81 		bls	.L41
 586 03fe A2F58962 		sub	r2, r2, #1096
 587 0402 9342     		cmp	r3, r2
 588 0404 00F06681 		beq	.L164
 589 0408 02F58062 		add	r2, r2, #1024
 590 040c 9342     		cmp	r3, r2
 591 040e 00F0A881 		beq	.L165
 592 0412 A2F56872 		sub	r2, r2, #928
 593 0416 9342     		cmp	r3, r2
 594 0418 00F0A581 		beq	.L166
 595 041c 02F58062 		add	r2, r2, #1024
 596 0420 9342     		cmp	r3, r2
 597 0422 00F0A281 		beq	.L167
 598 0426 A2F58962 		sub	r2, r2, #1096
 599 042a 9342     		cmp	r3, r2
 600 042c 00F09F81 		beq	.L168
 601 0430 02F58062 		add	r2, r2, #1024
 602 0434 9342     		cmp	r3, r2
 603 0436 00F09D81 		beq	.L169
 604 043a A2F56872 		sub	r2, r2, #928
 605 043e 9342     		cmp	r3, r2
 606 0440 00F09B81 		beq	.L170
 607 0444 02F58062 		add	r2, r2, #1024
 608 0448 9342     		cmp	r3, r2
 609 044a 00F09981 		beq	.L171
 610 044e A2F58962 		sub	r2, r2, #1096
 611 0452 9342     		cmp	r3, r2
 612 0454 00F09781 		beq	.L172
 613 0458 02F58062 		add	r2, r2, #1024
 614 045c 9342     		cmp	r3, r2
 615 045e 00F09581 		beq	.L173
 616 0462 A2F56872 		sub	r2, r2, #928
 617 0466 9342     		cmp	r3, r2
 618 0468 00F09381 		beq	.L174
 619 046c 02F58062 		add	r2, r2, #1024
 620 0470 9342     		cmp	r3, r2
 621 0472 00F02C81 		beq	.L317
 622 0476 4FF00072 		mov	r2, #33554432
 623 047a 2CE1     		b	.L42
 624              	.L117:
 625 047c 1022     		movs	r2, #16
 626 047e B7E7     		b	.L34
 627              	.L118:
ARM GAS  C:\Temp\cc0JxbDz.s 			page 12


 628 0480 1022     		movs	r2, #16
 629 0482 B5E7     		b	.L34
 630              	.L119:
 631 0484 1022     		movs	r2, #16
 632 0486 B3E7     		b	.L34
 633              	.L120:
 634 0488 4FF48062 		mov	r2, #1024
 635 048c B0E7     		b	.L34
 636              	.L121:
 637 048e 4FF48062 		mov	r2, #1024
 638 0492 ADE7     		b	.L34
 639              	.L122:
 640 0494 4FF48062 		mov	r2, #1024
 641 0498 AAE7     		b	.L34
 642              	.L123:
 643 049a 4FF48062 		mov	r2, #1024
 644 049e A7E7     		b	.L34
 645              	.L124:
 646 04a0 4FF48012 		mov	r2, #1048576
 647 04a4 A4E7     		b	.L34
 648              	.L125:
 649 04a6 4FF48012 		mov	r2, #1048576
 650 04aa A1E7     		b	.L34
 651              	.L126:
 652 04ac 4FF48012 		mov	r2, #1048576
 653 04b0 9EE7     		b	.L34
 654              	.L33:
 655 04b2 594A     		ldr	r2, .L335+16
 656 04b4 9342     		cmp	r3, r2
 657 04b6 53D9     		bls	.L36
 658 04b8 A83A     		subs	r2, r2, #168
 659 04ba 9342     		cmp	r3, r2
 660 04bc 31D0     		beq	.L128
 661 04be 02F58062 		add	r2, r2, #1024
 662 04c2 9342     		cmp	r3, r2
 663 04c4 31D0     		beq	.L129
 664 04c6 A2F56872 		sub	r2, r2, #928
 665 04ca 9342     		cmp	r3, r2
 666 04cc 2FD0     		beq	.L130
 667 04ce 02F58062 		add	r2, r2, #1024
 668 04d2 9342     		cmp	r3, r2
 669 04d4 2DD0     		beq	.L131
 670 04d6 A2F58962 		sub	r2, r2, #1096
 671 04da 9342     		cmp	r3, r2
 672 04dc 2BD0     		beq	.L132
 673 04de 02F58062 		add	r2, r2, #1024
 674 04e2 9342     		cmp	r3, r2
 675 04e4 2AD0     		beq	.L133
 676 04e6 A2F56872 		sub	r2, r2, #928
 677 04ea 9342     		cmp	r3, r2
 678 04ec 29D0     		beq	.L134
 679 04ee 02F58062 		add	r2, r2, #1024
 680 04f2 9342     		cmp	r3, r2
 681 04f4 28D0     		beq	.L135
 682 04f6 A2F58962 		sub	r2, r2, #1096
 683 04fa 9342     		cmp	r3, r2
 684 04fc 27D0     		beq	.L136
ARM GAS  C:\Temp\cc0JxbDz.s 			page 13


 685 04fe 02F58062 		add	r2, r2, #1024
 686 0502 9342     		cmp	r3, r2
 687 0504 26D0     		beq	.L137
 688 0506 A2F56872 		sub	r2, r2, #928
 689 050a 9342     		cmp	r3, r2
 690 050c 25D0     		beq	.L138
 691 050e 02F58062 		add	r2, r2, #1024
 692 0512 9342     		cmp	r3, r2
 693 0514 02D0     		beq	.L318
 694 0516 4FF08063 		mov	r3, #67108864
 695 051a 03E0     		b	.L37
 696              	.L318:
 697 051c 4FF48013 		mov	r3, #1048576
 698 0520 00E0     		b	.L37
 699              	.L128:
 700 0522 1023     		movs	r3, #16
 701              	.L37:
 702 0524 3A4A     		ldr	r2, .L335+8
 703 0526 9360     		str	r3, [r2, #8]
 704 0528 64E7     		b	.L35
 705              	.L129:
 706 052a 1023     		movs	r3, #16
 707 052c FAE7     		b	.L37
 708              	.L130:
 709 052e 1023     		movs	r3, #16
 710 0530 F8E7     		b	.L37
 711              	.L131:
 712 0532 1023     		movs	r3, #16
 713 0534 F6E7     		b	.L37
 714              	.L132:
 715 0536 4FF48063 		mov	r3, #1024
 716 053a F3E7     		b	.L37
 717              	.L133:
 718 053c 4FF48063 		mov	r3, #1024
 719 0540 F0E7     		b	.L37
 720              	.L134:
 721 0542 4FF48063 		mov	r3, #1024
 722 0546 EDE7     		b	.L37
 723              	.L135:
 724 0548 4FF48063 		mov	r3, #1024
 725 054c EAE7     		b	.L37
 726              	.L136:
 727 054e 4FF48013 		mov	r3, #1048576
 728 0552 E7E7     		b	.L37
 729              	.L137:
 730 0554 4FF48013 		mov	r3, #1048576
 731 0558 E4E7     		b	.L37
 732              	.L138:
 733 055a 4FF48013 		mov	r3, #1048576
 734 055e E1E7     		b	.L37
 735              	.L36:
 736 0560 2E4A     		ldr	r2, .L335+20
 737 0562 9342     		cmp	r3, r2
 738 0564 5FD9     		bls	.L38
 739 0566 483A     		subs	r2, r2, #72
 740 0568 9342     		cmp	r3, r2
 741 056a 31D0     		beq	.L140
ARM GAS  C:\Temp\cc0JxbDz.s 			page 14


 742 056c 02F58062 		add	r2, r2, #1024
 743 0570 9342     		cmp	r3, r2
 744 0572 31D0     		beq	.L141
 745 0574 A2F56872 		sub	r2, r2, #928
 746 0578 9342     		cmp	r3, r2
 747 057a 2FD0     		beq	.L142
 748 057c 02F58062 		add	r2, r2, #1024
 749 0580 9342     		cmp	r3, r2
 750 0582 2DD0     		beq	.L143
 751 0584 A2F58962 		sub	r2, r2, #1096
 752 0588 9342     		cmp	r3, r2
 753 058a 2BD0     		beq	.L144
 754 058c 02F58062 		add	r2, r2, #1024
 755 0590 9342     		cmp	r3, r2
 756 0592 2AD0     		beq	.L145
 757 0594 A2F56872 		sub	r2, r2, #928
 758 0598 9342     		cmp	r3, r2
 759 059a 29D0     		beq	.L146
 760 059c 02F58062 		add	r2, r2, #1024
 761 05a0 9342     		cmp	r3, r2
 762 05a2 28D0     		beq	.L147
 763 05a4 A2F58962 		sub	r2, r2, #1096
 764 05a8 9342     		cmp	r3, r2
 765 05aa 27D0     		beq	.L148
 766 05ac 02F58062 		add	r2, r2, #1024
 767 05b0 9342     		cmp	r3, r2
 768 05b2 26D0     		beq	.L149
 769 05b4 A2F56872 		sub	r2, r2, #928
 770 05b8 9342     		cmp	r3, r2
 771 05ba 31D0     		beq	.L150
 772 05bc 02F58062 		add	r2, r2, #1024
 773 05c0 9342     		cmp	r3, r2
 774 05c2 02D0     		beq	.L319
 775 05c4 4FF08063 		mov	r3, #67108864
 776 05c8 03E0     		b	.L39
 777              	.L319:
 778 05ca 4FF48013 		mov	r3, #1048576
 779 05ce 00E0     		b	.L39
 780              	.L140:
 781 05d0 1023     		movs	r3, #16
 782              	.L39:
 783 05d2 0E4A     		ldr	r2, .L335+4
 784 05d4 D360     		str	r3, [r2, #12]
 785 05d6 0DE7     		b	.L35
 786              	.L141:
 787 05d8 1023     		movs	r3, #16
 788 05da FAE7     		b	.L39
 789              	.L142:
 790 05dc 1023     		movs	r3, #16
 791 05de F8E7     		b	.L39
 792              	.L143:
 793 05e0 1023     		movs	r3, #16
 794 05e2 F6E7     		b	.L39
 795              	.L144:
 796 05e4 4FF48063 		mov	r3, #1024
 797 05e8 F3E7     		b	.L39
 798              	.L145:
ARM GAS  C:\Temp\cc0JxbDz.s 			page 15


 799 05ea 4FF48063 		mov	r3, #1024
 800 05ee F0E7     		b	.L39
 801              	.L146:
 802 05f0 4FF48063 		mov	r3, #1024
 803 05f4 EDE7     		b	.L39
 804              	.L147:
 805 05f6 4FF48063 		mov	r3, #1024
 806 05fa EAE7     		b	.L39
 807              	.L148:
 808 05fc 4FF48013 		mov	r3, #1048576
 809 0600 E7E7     		b	.L39
 810              	.L149:
 811 0602 4FF48013 		mov	r3, #1048576
 812 0606 E4E7     		b	.L39
 813              	.L336:
 814              		.align	2
 815              	.L335:
 816 0608 10600240 		.word	1073897488
 817 060c 00600240 		.word	1073897472
 818 0610 00640240 		.word	1073898496
 819 0614 58640240 		.word	1073898584
 820 0618 B8600240 		.word	1073897656
 821 061c 58600240 		.word	1073897560
 822              	.L150:
 823 0620 4FF48013 		mov	r3, #1048576
 824 0624 D5E7     		b	.L39
 825              	.L38:
 826 0626 B24A     		ldr	r2, .L337
 827 0628 9342     		cmp	r3, r2
 828 062a 31D0     		beq	.L152
 829 062c 02F58062 		add	r2, r2, #1024
 830 0630 9342     		cmp	r3, r2
 831 0632 31D0     		beq	.L153
 832 0634 A2F56872 		sub	r2, r2, #928
 833 0638 9342     		cmp	r3, r2
 834 063a 2FD0     		beq	.L154
 835 063c 02F58062 		add	r2, r2, #1024
 836 0640 9342     		cmp	r3, r2
 837 0642 2DD0     		beq	.L155
 838 0644 A2F58962 		sub	r2, r2, #1096
 839 0648 9342     		cmp	r3, r2
 840 064a 2BD0     		beq	.L156
 841 064c 02F58062 		add	r2, r2, #1024
 842 0650 9342     		cmp	r3, r2
 843 0652 2AD0     		beq	.L157
 844 0654 A2F56872 		sub	r2, r2, #928
 845 0658 9342     		cmp	r3, r2
 846 065a 29D0     		beq	.L158
 847 065c 02F58062 		add	r2, r2, #1024
 848 0660 9342     		cmp	r3, r2
 849 0662 28D0     		beq	.L159
 850 0664 A2F58962 		sub	r2, r2, #1096
 851 0668 9342     		cmp	r3, r2
 852 066a 27D0     		beq	.L160
 853 066c 02F58062 		add	r2, r2, #1024
 854 0670 9342     		cmp	r3, r2
 855 0672 26D0     		beq	.L161
ARM GAS  C:\Temp\cc0JxbDz.s 			page 16


 856 0674 A2F56872 		sub	r2, r2, #928
 857 0678 9342     		cmp	r3, r2
 858 067a 25D0     		beq	.L162
 859 067c 02F58062 		add	r2, r2, #1024
 860 0680 9342     		cmp	r3, r2
 861 0682 02D0     		beq	.L320
 862 0684 4FF08063 		mov	r3, #67108864
 863 0688 03E0     		b	.L40
 864              	.L320:
 865 068a 4FF48013 		mov	r3, #1048576
 866 068e 00E0     		b	.L40
 867              	.L152:
 868 0690 1023     		movs	r3, #16
 869              	.L40:
 870 0692 984A     		ldr	r2, .L337+4
 871 0694 9360     		str	r3, [r2, #8]
 872 0696 ADE6     		b	.L35
 873              	.L153:
 874 0698 1023     		movs	r3, #16
 875 069a FAE7     		b	.L40
 876              	.L154:
 877 069c 1023     		movs	r3, #16
 878 069e F8E7     		b	.L40
 879              	.L155:
 880 06a0 1023     		movs	r3, #16
 881 06a2 F6E7     		b	.L40
 882              	.L156:
 883 06a4 4FF48063 		mov	r3, #1024
 884 06a8 F3E7     		b	.L40
 885              	.L157:
 886 06aa 4FF48063 		mov	r3, #1024
 887 06ae F0E7     		b	.L40
 888              	.L158:
 889 06b0 4FF48063 		mov	r3, #1024
 890 06b4 EDE7     		b	.L40
 891              	.L159:
 892 06b6 4FF48063 		mov	r3, #1024
 893 06ba EAE7     		b	.L40
 894              	.L160:
 895 06bc 4FF48013 		mov	r3, #1048576
 896 06c0 E7E7     		b	.L40
 897              	.L161:
 898 06c2 4FF48013 		mov	r3, #1048576
 899 06c6 E4E7     		b	.L40
 900              	.L162:
 901 06c8 4FF48013 		mov	r3, #1048576
 902 06cc E1E7     		b	.L40
 903              	.L317:
 904 06ce 4FF40022 		mov	r2, #524288
 905 06d2 00E0     		b	.L42
 906              	.L164:
 907 06d4 0822     		movs	r2, #8
 908              	.L42:
 909 06d6 884B     		ldr	r3, .L337+8
 910 06d8 DA60     		str	r2, [r3, #12]
 911              	.L43:
 912 06da 2368     		ldr	r3, [r4]
ARM GAS  C:\Temp\cc0JxbDz.s 			page 17


 913 06dc 874A     		ldr	r2, .L337+12
 914 06de 9342     		cmp	r3, r2
 915 06e0 40F2CE81 		bls	.L49
 916 06e4 A2F58962 		sub	r2, r2, #1096
 917 06e8 9342     		cmp	r3, r2
 918 06ea 00F06781 		beq	.L212
 919 06ee 02F58062 		add	r2, r2, #1024
 920 06f2 9342     		cmp	r3, r2
 921 06f4 00F0A981 		beq	.L213
 922 06f8 A2F56872 		sub	r2, r2, #928
 923 06fc 9342     		cmp	r3, r2
 924 06fe 00F0A681 		beq	.L214
 925 0702 02F58062 		add	r2, r2, #1024
 926 0706 9342     		cmp	r3, r2
 927 0708 00F0A381 		beq	.L215
 928 070c A2F58962 		sub	r2, r2, #1096
 929 0710 9342     		cmp	r3, r2
 930 0712 00F0A081 		beq	.L216
 931 0716 02F58062 		add	r2, r2, #1024
 932 071a 9342     		cmp	r3, r2
 933 071c 00F09E81 		beq	.L217
 934 0720 A2F56872 		sub	r2, r2, #928
 935 0724 9342     		cmp	r3, r2
 936 0726 00F09C81 		beq	.L218
 937 072a 02F58062 		add	r2, r2, #1024
 938 072e 9342     		cmp	r3, r2
 939 0730 00F09A81 		beq	.L219
 940 0734 A2F58962 		sub	r2, r2, #1096
 941 0738 9342     		cmp	r3, r2
 942 073a 00F09881 		beq	.L220
 943 073e 02F58062 		add	r2, r2, #1024
 944 0742 9342     		cmp	r3, r2
 945 0744 00F09681 		beq	.L221
 946 0748 A2F56872 		sub	r2, r2, #928
 947 074c 9342     		cmp	r3, r2
 948 074e 00F09481 		beq	.L222
 949 0752 02F58062 		add	r2, r2, #1024
 950 0756 9342     		cmp	r3, r2
 951 0758 00F02D81 		beq	.L321
 952 075c 4FF08072 		mov	r2, #16777216
 953 0760 2DE1     		b	.L50
 954              	.L165:
 955 0762 0822     		movs	r2, #8
 956 0764 B7E7     		b	.L42
 957              	.L166:
 958 0766 0822     		movs	r2, #8
 959 0768 B5E7     		b	.L42
 960              	.L167:
 961 076a 0822     		movs	r2, #8
 962 076c B3E7     		b	.L42
 963              	.L168:
 964 076e 4FF40072 		mov	r2, #512
 965 0772 B0E7     		b	.L42
 966              	.L169:
 967 0774 4FF40072 		mov	r2, #512
 968 0778 ADE7     		b	.L42
 969              	.L170:
ARM GAS  C:\Temp\cc0JxbDz.s 			page 18


 970 077a 4FF40072 		mov	r2, #512
 971 077e AAE7     		b	.L42
 972              	.L171:
 973 0780 4FF40072 		mov	r2, #512
 974 0784 A7E7     		b	.L42
 975              	.L172:
 976 0786 4FF40022 		mov	r2, #524288
 977 078a A4E7     		b	.L42
 978              	.L173:
 979 078c 4FF40022 		mov	r2, #524288
 980 0790 A1E7     		b	.L42
 981              	.L174:
 982 0792 4FF40022 		mov	r2, #524288
 983 0796 9EE7     		b	.L42
 984              	.L41:
 985 0798 594A     		ldr	r2, .L337+16
 986 079a 9342     		cmp	r3, r2
 987 079c 53D9     		bls	.L44
 988 079e A83A     		subs	r2, r2, #168
 989 07a0 9342     		cmp	r3, r2
 990 07a2 31D0     		beq	.L176
 991 07a4 02F58062 		add	r2, r2, #1024
 992 07a8 9342     		cmp	r3, r2
 993 07aa 31D0     		beq	.L177
 994 07ac A2F56872 		sub	r2, r2, #928
 995 07b0 9342     		cmp	r3, r2
 996 07b2 2FD0     		beq	.L178
 997 07b4 02F58062 		add	r2, r2, #1024
 998 07b8 9342     		cmp	r3, r2
 999 07ba 2DD0     		beq	.L179
 1000 07bc A2F58962 		sub	r2, r2, #1096
 1001 07c0 9342     		cmp	r3, r2
 1002 07c2 2BD0     		beq	.L180
 1003 07c4 02F58062 		add	r2, r2, #1024
 1004 07c8 9342     		cmp	r3, r2
 1005 07ca 2AD0     		beq	.L181
 1006 07cc A2F56872 		sub	r2, r2, #928
 1007 07d0 9342     		cmp	r3, r2
 1008 07d2 29D0     		beq	.L182
 1009 07d4 02F58062 		add	r2, r2, #1024
 1010 07d8 9342     		cmp	r3, r2
 1011 07da 28D0     		beq	.L183
 1012 07dc A2F58962 		sub	r2, r2, #1096
 1013 07e0 9342     		cmp	r3, r2
 1014 07e2 27D0     		beq	.L184
 1015 07e4 02F58062 		add	r2, r2, #1024
 1016 07e8 9342     		cmp	r3, r2
 1017 07ea 26D0     		beq	.L185
 1018 07ec A2F56872 		sub	r2, r2, #928
 1019 07f0 9342     		cmp	r3, r2
 1020 07f2 25D0     		beq	.L186
 1021 07f4 02F58062 		add	r2, r2, #1024
 1022 07f8 9342     		cmp	r3, r2
 1023 07fa 02D0     		beq	.L322
 1024 07fc 4FF00073 		mov	r3, #33554432
 1025 0800 03E0     		b	.L45
 1026              	.L322:
ARM GAS  C:\Temp\cc0JxbDz.s 			page 19


 1027 0802 4FF40023 		mov	r3, #524288
 1028 0806 00E0     		b	.L45
 1029              	.L176:
 1030 0808 0823     		movs	r3, #8
 1031              	.L45:
 1032 080a 3B4A     		ldr	r2, .L337+8
 1033 080c 9360     		str	r3, [r2, #8]
 1034 080e 64E7     		b	.L43
 1035              	.L177:
 1036 0810 0823     		movs	r3, #8
 1037 0812 FAE7     		b	.L45
 1038              	.L178:
 1039 0814 0823     		movs	r3, #8
 1040 0816 F8E7     		b	.L45
 1041              	.L179:
 1042 0818 0823     		movs	r3, #8
 1043 081a F6E7     		b	.L45
 1044              	.L180:
 1045 081c 4FF40073 		mov	r3, #512
 1046 0820 F3E7     		b	.L45
 1047              	.L181:
 1048 0822 4FF40073 		mov	r3, #512
 1049 0826 F0E7     		b	.L45
 1050              	.L182:
 1051 0828 4FF40073 		mov	r3, #512
 1052 082c EDE7     		b	.L45
 1053              	.L183:
 1054 082e 4FF40073 		mov	r3, #512
 1055 0832 EAE7     		b	.L45
 1056              	.L184:
 1057 0834 4FF40023 		mov	r3, #524288
 1058 0838 E7E7     		b	.L45
 1059              	.L185:
 1060 083a 4FF40023 		mov	r3, #524288
 1061 083e E4E7     		b	.L45
 1062              	.L186:
 1063 0840 4FF40023 		mov	r3, #524288
 1064 0844 E1E7     		b	.L45
 1065              	.L44:
 1066 0846 2F4A     		ldr	r2, .L337+20
 1067 0848 9342     		cmp	r3, r2
 1068 084a 60D9     		bls	.L46
 1069 084c 483A     		subs	r2, r2, #72
 1070 084e 9342     		cmp	r3, r2
 1071 0850 31D0     		beq	.L188
 1072 0852 02F58062 		add	r2, r2, #1024
 1073 0856 9342     		cmp	r3, r2
 1074 0858 31D0     		beq	.L189
 1075 085a A2F56872 		sub	r2, r2, #928
 1076 085e 9342     		cmp	r3, r2
 1077 0860 2FD0     		beq	.L190
 1078 0862 02F58062 		add	r2, r2, #1024
 1079 0866 9342     		cmp	r3, r2
 1080 0868 2DD0     		beq	.L191
 1081 086a A2F58962 		sub	r2, r2, #1096
 1082 086e 9342     		cmp	r3, r2
 1083 0870 2BD0     		beq	.L192
ARM GAS  C:\Temp\cc0JxbDz.s 			page 20


 1084 0872 02F58062 		add	r2, r2, #1024
 1085 0876 9342     		cmp	r3, r2
 1086 0878 2AD0     		beq	.L193
 1087 087a A2F56872 		sub	r2, r2, #928
 1088 087e 9342     		cmp	r3, r2
 1089 0880 29D0     		beq	.L194
 1090 0882 02F58062 		add	r2, r2, #1024
 1091 0886 9342     		cmp	r3, r2
 1092 0888 28D0     		beq	.L195
 1093 088a A2F58962 		sub	r2, r2, #1096
 1094 088e 9342     		cmp	r3, r2
 1095 0890 27D0     		beq	.L196
 1096 0892 02F58062 		add	r2, r2, #1024
 1097 0896 9342     		cmp	r3, r2
 1098 0898 26D0     		beq	.L197
 1099 089a A2F56872 		sub	r2, r2, #928
 1100 089e 9342     		cmp	r3, r2
 1101 08a0 32D0     		beq	.L198
 1102 08a2 02F58062 		add	r2, r2, #1024
 1103 08a6 9342     		cmp	r3, r2
 1104 08a8 02D0     		beq	.L323
 1105 08aa 4FF00073 		mov	r3, #33554432
 1106 08ae 03E0     		b	.L47
 1107              	.L323:
 1108 08b0 4FF40023 		mov	r3, #524288
 1109 08b4 00E0     		b	.L47
 1110              	.L188:
 1111 08b6 0823     		movs	r3, #8
 1112              	.L47:
 1113 08b8 0E4A     		ldr	r2, .L337+4
 1114 08ba D360     		str	r3, [r2, #12]
 1115 08bc 0DE7     		b	.L43
 1116              	.L189:
 1117 08be 0823     		movs	r3, #8
 1118 08c0 FAE7     		b	.L47
 1119              	.L190:
 1120 08c2 0823     		movs	r3, #8
 1121 08c4 F8E7     		b	.L47
 1122              	.L191:
 1123 08c6 0823     		movs	r3, #8
 1124 08c8 F6E7     		b	.L47
 1125              	.L192:
 1126 08ca 4FF40073 		mov	r3, #512
 1127 08ce F3E7     		b	.L47
 1128              	.L193:
 1129 08d0 4FF40073 		mov	r3, #512
 1130 08d4 F0E7     		b	.L47
 1131              	.L194:
 1132 08d6 4FF40073 		mov	r3, #512
 1133 08da EDE7     		b	.L47
 1134              	.L195:
 1135 08dc 4FF40073 		mov	r3, #512
 1136 08e0 EAE7     		b	.L47
 1137              	.L196:
 1138 08e2 4FF40023 		mov	r3, #524288
 1139 08e6 E7E7     		b	.L47
 1140              	.L197:
ARM GAS  C:\Temp\cc0JxbDz.s 			page 21


 1141 08e8 4FF40023 		mov	r3, #524288
 1142 08ec E4E7     		b	.L47
 1143              	.L338:
 1144 08ee 00BF     		.align	2
 1145              	.L337:
 1146 08f0 10600240 		.word	1073897488
 1147 08f4 00600240 		.word	1073897472
 1148 08f8 00640240 		.word	1073898496
 1149 08fc 58640240 		.word	1073898584
 1150 0900 B8600240 		.word	1073897656
 1151 0904 58600240 		.word	1073897560
 1152              	.L198:
 1153 0908 4FF40023 		mov	r3, #524288
 1154 090c D4E7     		b	.L47
 1155              	.L46:
 1156 090e B24A     		ldr	r2, .L339
 1157 0910 9342     		cmp	r3, r2
 1158 0912 31D0     		beq	.L200
 1159 0914 02F58062 		add	r2, r2, #1024
 1160 0918 9342     		cmp	r3, r2
 1161 091a 31D0     		beq	.L201
 1162 091c A2F56872 		sub	r2, r2, #928
 1163 0920 9342     		cmp	r3, r2
 1164 0922 2FD0     		beq	.L202
 1165 0924 02F58062 		add	r2, r2, #1024
 1166 0928 9342     		cmp	r3, r2
 1167 092a 2DD0     		beq	.L203
 1168 092c A2F58962 		sub	r2, r2, #1096
 1169 0930 9342     		cmp	r3, r2
 1170 0932 2BD0     		beq	.L204
 1171 0934 02F58062 		add	r2, r2, #1024
 1172 0938 9342     		cmp	r3, r2
 1173 093a 2AD0     		beq	.L205
 1174 093c A2F56872 		sub	r2, r2, #928
 1175 0940 9342     		cmp	r3, r2
 1176 0942 29D0     		beq	.L206
 1177 0944 02F58062 		add	r2, r2, #1024
 1178 0948 9342     		cmp	r3, r2
 1179 094a 28D0     		beq	.L207
 1180 094c A2F58962 		sub	r2, r2, #1096
 1181 0950 9342     		cmp	r3, r2
 1182 0952 27D0     		beq	.L208
 1183 0954 02F58062 		add	r2, r2, #1024
 1184 0958 9342     		cmp	r3, r2
 1185 095a 26D0     		beq	.L209
 1186 095c A2F56872 		sub	r2, r2, #928
 1187 0960 9342     		cmp	r3, r2
 1188 0962 25D0     		beq	.L210
 1189 0964 02F58062 		add	r2, r2, #1024
 1190 0968 9342     		cmp	r3, r2
 1191 096a 02D0     		beq	.L324
 1192 096c 4FF00073 		mov	r3, #33554432
 1193 0970 03E0     		b	.L48
 1194              	.L324:
 1195 0972 4FF40023 		mov	r3, #524288
 1196 0976 00E0     		b	.L48
 1197              	.L200:
ARM GAS  C:\Temp\cc0JxbDz.s 			page 22


 1198 0978 0823     		movs	r3, #8
 1199              	.L48:
 1200 097a 984A     		ldr	r2, .L339+4
 1201 097c 9360     		str	r3, [r2, #8]
 1202 097e ACE6     		b	.L43
 1203              	.L201:
 1204 0980 0823     		movs	r3, #8
 1205 0982 FAE7     		b	.L48
 1206              	.L202:
 1207 0984 0823     		movs	r3, #8
 1208 0986 F8E7     		b	.L48
 1209              	.L203:
 1210 0988 0823     		movs	r3, #8
 1211 098a F6E7     		b	.L48
 1212              	.L204:
 1213 098c 4FF40073 		mov	r3, #512
 1214 0990 F3E7     		b	.L48
 1215              	.L205:
 1216 0992 4FF40073 		mov	r3, #512
 1217 0996 F0E7     		b	.L48
 1218              	.L206:
 1219 0998 4FF40073 		mov	r3, #512
 1220 099c EDE7     		b	.L48
 1221              	.L207:
 1222 099e 4FF40073 		mov	r3, #512
 1223 09a2 EAE7     		b	.L48
 1224              	.L208:
 1225 09a4 4FF40023 		mov	r3, #524288
 1226 09a8 E7E7     		b	.L48
 1227              	.L209:
 1228 09aa 4FF40023 		mov	r3, #524288
 1229 09ae E4E7     		b	.L48
 1230              	.L210:
 1231 09b0 4FF40023 		mov	r3, #524288
 1232 09b4 E1E7     		b	.L48
 1233              	.L321:
 1234 09b6 4FF48022 		mov	r2, #262144
 1235 09ba 00E0     		b	.L50
 1236              	.L212:
 1237 09bc 0422     		movs	r2, #4
 1238              	.L50:
 1239 09be 884B     		ldr	r3, .L339+8
 1240 09c0 DA60     		str	r2, [r3, #12]
 1241              	.L51:
 1242 09c2 2368     		ldr	r3, [r4]
 1243 09c4 874A     		ldr	r2, .L339+12
 1244 09c6 9342     		cmp	r3, r2
 1245 09c8 40F2A181 		bls	.L57
 1246 09cc A2F58962 		sub	r2, r2, #1096
 1247 09d0 9342     		cmp	r3, r2
 1248 09d2 00F06781 		beq	.L260
 1249 09d6 02F58062 		add	r2, r2, #1024
 1250 09da 9342     		cmp	r3, r2
 1251 09dc 00F08081 		beq	.L261
 1252 09e0 A2F56872 		sub	r2, r2, #928
 1253 09e4 9342     		cmp	r3, r2
 1254 09e6 00F07D81 		beq	.L262
ARM GAS  C:\Temp\cc0JxbDz.s 			page 23


 1255 09ea 02F58062 		add	r2, r2, #1024
 1256 09ee 9342     		cmp	r3, r2
 1257 09f0 00F07A81 		beq	.L263
 1258 09f4 A2F58962 		sub	r2, r2, #1096
 1259 09f8 9342     		cmp	r3, r2
 1260 09fa 00F07781 		beq	.L264
 1261 09fe 02F58062 		add	r2, r2, #1024
 1262 0a02 9342     		cmp	r3, r2
 1263 0a04 00F07481 		beq	.L265
 1264 0a08 A2F56872 		sub	r2, r2, #928
 1265 0a0c 9342     		cmp	r3, r2
 1266 0a0e 00F07181 		beq	.L266
 1267 0a12 02F58062 		add	r2, r2, #1024
 1268 0a16 9342     		cmp	r3, r2
 1269 0a18 00F06E81 		beq	.L267
 1270 0a1c A2F58962 		sub	r2, r2, #1096
 1271 0a20 9342     		cmp	r3, r2
 1272 0a22 00F06B81 		beq	.L268
 1273 0a26 02F58062 		add	r2, r2, #1024
 1274 0a2a 9342     		cmp	r3, r2
 1275 0a2c 00F06981 		beq	.L269
 1276 0a30 A2F56872 		sub	r2, r2, #928
 1277 0a34 9342     		cmp	r3, r2
 1278 0a36 00F06781 		beq	.L270
 1279 0a3a 02F58062 		add	r2, r2, #1024
 1280 0a3e 9342     		cmp	r3, r2
 1281 0a40 00F02D81 		beq	.L325
 1282 0a44 4FF48002 		mov	r2, #4194304
 1283 0a48 2DE1     		b	.L58
 1284              	.L213:
 1285 0a4a 0422     		movs	r2, #4
 1286 0a4c B7E7     		b	.L50
 1287              	.L214:
 1288 0a4e 0422     		movs	r2, #4
 1289 0a50 B5E7     		b	.L50
 1290              	.L215:
 1291 0a52 0422     		movs	r2, #4
 1292 0a54 B3E7     		b	.L50
 1293              	.L216:
 1294 0a56 4FF48072 		mov	r2, #256
 1295 0a5a B0E7     		b	.L50
 1296              	.L217:
 1297 0a5c 4FF48072 		mov	r2, #256
 1298 0a60 ADE7     		b	.L50
 1299              	.L218:
 1300 0a62 4FF48072 		mov	r2, #256
 1301 0a66 AAE7     		b	.L50
 1302              	.L219:
 1303 0a68 4FF48072 		mov	r2, #256
 1304 0a6c A7E7     		b	.L50
 1305              	.L220:
 1306 0a6e 4FF48022 		mov	r2, #262144
 1307 0a72 A4E7     		b	.L50
 1308              	.L221:
 1309 0a74 4FF48022 		mov	r2, #262144
 1310 0a78 A1E7     		b	.L50
 1311              	.L222:
ARM GAS  C:\Temp\cc0JxbDz.s 			page 24


 1312 0a7a 4FF48022 		mov	r2, #262144
 1313 0a7e 9EE7     		b	.L50
 1314              	.L49:
 1315 0a80 594A     		ldr	r2, .L339+16
 1316 0a82 9342     		cmp	r3, r2
 1317 0a84 53D9     		bls	.L52
 1318 0a86 A83A     		subs	r2, r2, #168
 1319 0a88 9342     		cmp	r3, r2
 1320 0a8a 31D0     		beq	.L224
 1321 0a8c 02F58062 		add	r2, r2, #1024
 1322 0a90 9342     		cmp	r3, r2
 1323 0a92 31D0     		beq	.L225
 1324 0a94 A2F56872 		sub	r2, r2, #928
 1325 0a98 9342     		cmp	r3, r2
 1326 0a9a 2FD0     		beq	.L226
 1327 0a9c 02F58062 		add	r2, r2, #1024
 1328 0aa0 9342     		cmp	r3, r2
 1329 0aa2 2DD0     		beq	.L227
 1330 0aa4 A2F58962 		sub	r2, r2, #1096
 1331 0aa8 9342     		cmp	r3, r2
 1332 0aaa 2BD0     		beq	.L228
 1333 0aac 02F58062 		add	r2, r2, #1024
 1334 0ab0 9342     		cmp	r3, r2
 1335 0ab2 2AD0     		beq	.L229
 1336 0ab4 A2F56872 		sub	r2, r2, #928
 1337 0ab8 9342     		cmp	r3, r2
 1338 0aba 29D0     		beq	.L230
 1339 0abc 02F58062 		add	r2, r2, #1024
 1340 0ac0 9342     		cmp	r3, r2
 1341 0ac2 28D0     		beq	.L231
 1342 0ac4 A2F58962 		sub	r2, r2, #1096
 1343 0ac8 9342     		cmp	r3, r2
 1344 0aca 27D0     		beq	.L232
 1345 0acc 02F58062 		add	r2, r2, #1024
 1346 0ad0 9342     		cmp	r3, r2
 1347 0ad2 26D0     		beq	.L233
 1348 0ad4 A2F56872 		sub	r2, r2, #928
 1349 0ad8 9342     		cmp	r3, r2
 1350 0ada 25D0     		beq	.L234
 1351 0adc 02F58062 		add	r2, r2, #1024
 1352 0ae0 9342     		cmp	r3, r2
 1353 0ae2 02D0     		beq	.L326
 1354 0ae4 4FF08073 		mov	r3, #16777216
 1355 0ae8 03E0     		b	.L53
 1356              	.L326:
 1357 0aea 4FF48023 		mov	r3, #262144
 1358 0aee 00E0     		b	.L53
 1359              	.L224:
 1360 0af0 0423     		movs	r3, #4
 1361              	.L53:
 1362 0af2 3B4A     		ldr	r2, .L339+8
 1363 0af4 9360     		str	r3, [r2, #8]
 1364 0af6 64E7     		b	.L51
 1365              	.L225:
 1366 0af8 0423     		movs	r3, #4
 1367 0afa FAE7     		b	.L53
 1368              	.L226:
ARM GAS  C:\Temp\cc0JxbDz.s 			page 25


 1369 0afc 0423     		movs	r3, #4
 1370 0afe F8E7     		b	.L53
 1371              	.L227:
 1372 0b00 0423     		movs	r3, #4
 1373 0b02 F6E7     		b	.L53
 1374              	.L228:
 1375 0b04 4FF48073 		mov	r3, #256
 1376 0b08 F3E7     		b	.L53
 1377              	.L229:
 1378 0b0a 4FF48073 		mov	r3, #256
 1379 0b0e F0E7     		b	.L53
 1380              	.L230:
 1381 0b10 4FF48073 		mov	r3, #256
 1382 0b14 EDE7     		b	.L53
 1383              	.L231:
 1384 0b16 4FF48073 		mov	r3, #256
 1385 0b1a EAE7     		b	.L53
 1386              	.L232:
 1387 0b1c 4FF48023 		mov	r3, #262144
 1388 0b20 E7E7     		b	.L53
 1389              	.L233:
 1390 0b22 4FF48023 		mov	r3, #262144
 1391 0b26 E4E7     		b	.L53
 1392              	.L234:
 1393 0b28 4FF48023 		mov	r3, #262144
 1394 0b2c E1E7     		b	.L53
 1395              	.L52:
 1396 0b2e 2F4A     		ldr	r2, .L339+20
 1397 0b30 9342     		cmp	r3, r2
 1398 0b32 60D9     		bls	.L54
 1399 0b34 483A     		subs	r2, r2, #72
 1400 0b36 9342     		cmp	r3, r2
 1401 0b38 31D0     		beq	.L236
 1402 0b3a 02F58062 		add	r2, r2, #1024
 1403 0b3e 9342     		cmp	r3, r2
 1404 0b40 31D0     		beq	.L237
 1405 0b42 A2F56872 		sub	r2, r2, #928
 1406 0b46 9342     		cmp	r3, r2
 1407 0b48 2FD0     		beq	.L238
 1408 0b4a 02F58062 		add	r2, r2, #1024
 1409 0b4e 9342     		cmp	r3, r2
 1410 0b50 2DD0     		beq	.L239
 1411 0b52 A2F58962 		sub	r2, r2, #1096
 1412 0b56 9342     		cmp	r3, r2
 1413 0b58 2BD0     		beq	.L240
 1414 0b5a 02F58062 		add	r2, r2, #1024
 1415 0b5e 9342     		cmp	r3, r2
 1416 0b60 2AD0     		beq	.L241
 1417 0b62 A2F56872 		sub	r2, r2, #928
 1418 0b66 9342     		cmp	r3, r2
 1419 0b68 29D0     		beq	.L242
 1420 0b6a 02F58062 		add	r2, r2, #1024
 1421 0b6e 9342     		cmp	r3, r2
 1422 0b70 28D0     		beq	.L243
 1423 0b72 A2F58962 		sub	r2, r2, #1096
 1424 0b76 9342     		cmp	r3, r2
 1425 0b78 27D0     		beq	.L244
ARM GAS  C:\Temp\cc0JxbDz.s 			page 26


 1426 0b7a 02F58062 		add	r2, r2, #1024
 1427 0b7e 9342     		cmp	r3, r2
 1428 0b80 26D0     		beq	.L245
 1429 0b82 A2F56872 		sub	r2, r2, #928
 1430 0b86 9342     		cmp	r3, r2
 1431 0b88 32D0     		beq	.L246
 1432 0b8a 02F58062 		add	r2, r2, #1024
 1433 0b8e 9342     		cmp	r3, r2
 1434 0b90 02D0     		beq	.L327
 1435 0b92 4FF08073 		mov	r3, #16777216
 1436 0b96 03E0     		b	.L55
 1437              	.L327:
 1438 0b98 4FF48023 		mov	r3, #262144
 1439 0b9c 00E0     		b	.L55
 1440              	.L236:
 1441 0b9e 0423     		movs	r3, #4
 1442              	.L55:
 1443 0ba0 0E4A     		ldr	r2, .L339+4
 1444 0ba2 D360     		str	r3, [r2, #12]
 1445 0ba4 0DE7     		b	.L51
 1446              	.L237:
 1447 0ba6 0423     		movs	r3, #4
 1448 0ba8 FAE7     		b	.L55
 1449              	.L238:
 1450 0baa 0423     		movs	r3, #4
 1451 0bac F8E7     		b	.L55
 1452              	.L239:
 1453 0bae 0423     		movs	r3, #4
 1454 0bb0 F6E7     		b	.L55
 1455              	.L240:
 1456 0bb2 4FF48073 		mov	r3, #256
 1457 0bb6 F3E7     		b	.L55
 1458              	.L241:
 1459 0bb8 4FF48073 		mov	r3, #256
 1460 0bbc F0E7     		b	.L55
 1461              	.L242:
 1462 0bbe 4FF48073 		mov	r3, #256
 1463 0bc2 EDE7     		b	.L55
 1464              	.L243:
 1465 0bc4 4FF48073 		mov	r3, #256
 1466 0bc8 EAE7     		b	.L55
 1467              	.L244:
 1468 0bca 4FF48023 		mov	r3, #262144
 1469 0bce E7E7     		b	.L55
 1470              	.L245:
 1471 0bd0 4FF48023 		mov	r3, #262144
 1472 0bd4 E4E7     		b	.L55
 1473              	.L340:
 1474 0bd6 00BF     		.align	2
 1475              	.L339:
 1476 0bd8 10600240 		.word	1073897488
 1477 0bdc 00600240 		.word	1073897472
 1478 0be0 00640240 		.word	1073898496
 1479 0be4 58640240 		.word	1073898584
 1480 0be8 B8600240 		.word	1073897656
 1481 0bec 58600240 		.word	1073897560
 1482              	.L246:
ARM GAS  C:\Temp\cc0JxbDz.s 			page 27


 1483 0bf0 4FF48023 		mov	r3, #262144
 1484 0bf4 D4E7     		b	.L55
 1485              	.L54:
 1486 0bf6 994A     		ldr	r2, .L341
 1487 0bf8 9342     		cmp	r3, r2
 1488 0bfa 31D0     		beq	.L248
 1489 0bfc 02F58062 		add	r2, r2, #1024
 1490 0c00 9342     		cmp	r3, r2
 1491 0c02 31D0     		beq	.L249
 1492 0c04 A2F56872 		sub	r2, r2, #928
 1493 0c08 9342     		cmp	r3, r2
 1494 0c0a 2FD0     		beq	.L250
 1495 0c0c 02F58062 		add	r2, r2, #1024
 1496 0c10 9342     		cmp	r3, r2
 1497 0c12 2DD0     		beq	.L251
 1498 0c14 A2F58962 		sub	r2, r2, #1096
 1499 0c18 9342     		cmp	r3, r2
 1500 0c1a 2BD0     		beq	.L252
 1501 0c1c 02F58062 		add	r2, r2, #1024
 1502 0c20 9342     		cmp	r3, r2
 1503 0c22 2AD0     		beq	.L253
 1504 0c24 A2F56872 		sub	r2, r2, #928
 1505 0c28 9342     		cmp	r3, r2
 1506 0c2a 29D0     		beq	.L254
 1507 0c2c 02F58062 		add	r2, r2, #1024
 1508 0c30 9342     		cmp	r3, r2
 1509 0c32 28D0     		beq	.L255
 1510 0c34 A2F58962 		sub	r2, r2, #1096
 1511 0c38 9342     		cmp	r3, r2
 1512 0c3a 27D0     		beq	.L256
 1513 0c3c 02F58062 		add	r2, r2, #1024
 1514 0c40 9342     		cmp	r3, r2
 1515 0c42 26D0     		beq	.L257
 1516 0c44 A2F56872 		sub	r2, r2, #928
 1517 0c48 9342     		cmp	r3, r2
 1518 0c4a 25D0     		beq	.L258
 1519 0c4c 02F58062 		add	r2, r2, #1024
 1520 0c50 9342     		cmp	r3, r2
 1521 0c52 02D0     		beq	.L328
 1522 0c54 4FF08073 		mov	r3, #16777216
 1523 0c58 03E0     		b	.L56
 1524              	.L328:
 1525 0c5a 4FF48023 		mov	r3, #262144
 1526 0c5e 00E0     		b	.L56
 1527              	.L248:
 1528 0c60 0423     		movs	r3, #4
 1529              	.L56:
 1530 0c62 7F4A     		ldr	r2, .L341+4
 1531 0c64 9360     		str	r3, [r2, #8]
 1532 0c66 ACE6     		b	.L51
 1533              	.L249:
 1534 0c68 0423     		movs	r3, #4
 1535 0c6a FAE7     		b	.L56
 1536              	.L250:
 1537 0c6c 0423     		movs	r3, #4
 1538 0c6e F8E7     		b	.L56
 1539              	.L251:
ARM GAS  C:\Temp\cc0JxbDz.s 			page 28


 1540 0c70 0423     		movs	r3, #4
 1541 0c72 F6E7     		b	.L56
 1542              	.L252:
 1543 0c74 4FF48073 		mov	r3, #256
 1544 0c78 F3E7     		b	.L56
 1545              	.L253:
 1546 0c7a 4FF48073 		mov	r3, #256
 1547 0c7e F0E7     		b	.L56
 1548              	.L254:
 1549 0c80 4FF48073 		mov	r3, #256
 1550 0c84 EDE7     		b	.L56
 1551              	.L255:
 1552 0c86 4FF48073 		mov	r3, #256
 1553 0c8a EAE7     		b	.L56
 1554              	.L256:
 1555 0c8c 4FF48023 		mov	r3, #262144
 1556 0c90 E7E7     		b	.L56
 1557              	.L257:
 1558 0c92 4FF48023 		mov	r3, #262144
 1559 0c96 E4E7     		b	.L56
 1560              	.L258:
 1561 0c98 4FF48023 		mov	r3, #262144
 1562 0c9c E1E7     		b	.L56
 1563              	.L325:
 1564 0c9e 4FF48032 		mov	r2, #65536
 1565 0ca2 00E0     		b	.L58
 1566              	.L260:
 1567 0ca4 0122     		movs	r2, #1
 1568              	.L58:
 1569 0ca6 6F4B     		ldr	r3, .L341+8
 1570 0ca8 DA60     		str	r2, [r3, #12]
 1571              	.L59:
 1572 0caa 2268     		ldr	r2, [r4]
 1573 0cac 1368     		ldr	r3, [r2]
 1574 0cae 43F01603 		orr	r3, r3, #22
 1575 0cb2 1360     		str	r3, [r2]
 1576 0cb4 2268     		ldr	r2, [r4]
 1577 0cb6 5369     		ldr	r3, [r2, #20]
 1578 0cb8 43F08003 		orr	r3, r3, #128
 1579 0cbc 5361     		str	r3, [r2, #20]
 1580 0cbe 236C     		ldr	r3, [r4, #64]
 1581 0cc0 002B     		cmp	r3, #0
 1582 0cc2 00F02581 		beq	.L329
 1583              	.L65:
 1584 0cc6 2268     		ldr	r2, [r4]
 1585 0cc8 1368     		ldr	r3, [r2]
 1586 0cca 43F00803 		orr	r3, r3, #8
 1587 0cce 1360     		str	r3, [r2]
 1588              	.L66:
 1589 0cd0 2268     		ldr	r2, [r4]
 1590 0cd2 1368     		ldr	r3, [r2]
 1591 0cd4 43F00103 		orr	r3, r3, #1
 1592 0cd8 1360     		str	r3, [r2]
 1593 0cda 0020     		movs	r0, #0
 1594 0cdc FFF7C4B9 		b	.L21
 1595              	.L261:
 1596 0ce0 0122     		movs	r2, #1
ARM GAS  C:\Temp\cc0JxbDz.s 			page 29


 1597 0ce2 E0E7     		b	.L58
 1598              	.L262:
 1599 0ce4 0122     		movs	r2, #1
 1600 0ce6 DEE7     		b	.L58
 1601              	.L263:
 1602 0ce8 0122     		movs	r2, #1
 1603 0cea DCE7     		b	.L58
 1604              	.L264:
 1605 0cec 4022     		movs	r2, #64
 1606 0cee DAE7     		b	.L58
 1607              	.L265:
 1608 0cf0 4022     		movs	r2, #64
 1609 0cf2 D8E7     		b	.L58
 1610              	.L266:
 1611 0cf4 4022     		movs	r2, #64
 1612 0cf6 D6E7     		b	.L58
 1613              	.L267:
 1614 0cf8 4022     		movs	r2, #64
 1615 0cfa D4E7     		b	.L58
 1616              	.L268:
 1617 0cfc 4FF48032 		mov	r2, #65536
 1618 0d00 D1E7     		b	.L58
 1619              	.L269:
 1620 0d02 4FF48032 		mov	r2, #65536
 1621 0d06 CEE7     		b	.L58
 1622              	.L270:
 1623 0d08 4FF48032 		mov	r2, #65536
 1624 0d0c CBE7     		b	.L58
 1625              	.L57:
 1626 0d0e 564A     		ldr	r2, .L341+12
 1627 0d10 9342     		cmp	r3, r2
 1628 0d12 4FD9     		bls	.L60
 1629 0d14 A83A     		subs	r2, r2, #168
 1630 0d16 9342     		cmp	r3, r2
 1631 0d18 31D0     		beq	.L272
 1632 0d1a 02F58062 		add	r2, r2, #1024
 1633 0d1e 9342     		cmp	r3, r2
 1634 0d20 31D0     		beq	.L273
 1635 0d22 A2F56872 		sub	r2, r2, #928
 1636 0d26 9342     		cmp	r3, r2
 1637 0d28 2FD0     		beq	.L274
 1638 0d2a 02F58062 		add	r2, r2, #1024
 1639 0d2e 9342     		cmp	r3, r2
 1640 0d30 2DD0     		beq	.L275
 1641 0d32 A2F58962 		sub	r2, r2, #1096
 1642 0d36 9342     		cmp	r3, r2
 1643 0d38 2BD0     		beq	.L276
 1644 0d3a 02F58062 		add	r2, r2, #1024
 1645 0d3e 9342     		cmp	r3, r2
 1646 0d40 29D0     		beq	.L277
 1647 0d42 A2F56872 		sub	r2, r2, #928
 1648 0d46 9342     		cmp	r3, r2
 1649 0d48 27D0     		beq	.L278
 1650 0d4a 02F58062 		add	r2, r2, #1024
 1651 0d4e 9342     		cmp	r3, r2
 1652 0d50 25D0     		beq	.L279
 1653 0d52 A2F58962 		sub	r2, r2, #1096
ARM GAS  C:\Temp\cc0JxbDz.s 			page 30


 1654 0d56 9342     		cmp	r3, r2
 1655 0d58 23D0     		beq	.L280
 1656 0d5a 02F58062 		add	r2, r2, #1024
 1657 0d5e 9342     		cmp	r3, r2
 1658 0d60 22D0     		beq	.L281
 1659 0d62 A2F56872 		sub	r2, r2, #928
 1660 0d66 9342     		cmp	r3, r2
 1661 0d68 21D0     		beq	.L282
 1662 0d6a 02F58062 		add	r2, r2, #1024
 1663 0d6e 9342     		cmp	r3, r2
 1664 0d70 02D0     		beq	.L330
 1665 0d72 4FF48003 		mov	r3, #4194304
 1666 0d76 03E0     		b	.L61
 1667              	.L330:
 1668 0d78 4FF48033 		mov	r3, #65536
 1669 0d7c 00E0     		b	.L61
 1670              	.L272:
 1671 0d7e 0123     		movs	r3, #1
 1672              	.L61:
 1673 0d80 384A     		ldr	r2, .L341+8
 1674 0d82 9360     		str	r3, [r2, #8]
 1675 0d84 91E7     		b	.L59
 1676              	.L273:
 1677 0d86 0123     		movs	r3, #1
 1678 0d88 FAE7     		b	.L61
 1679              	.L274:
 1680 0d8a 0123     		movs	r3, #1
 1681 0d8c F8E7     		b	.L61
 1682              	.L275:
 1683 0d8e 0123     		movs	r3, #1
 1684 0d90 F6E7     		b	.L61
 1685              	.L276:
 1686 0d92 4023     		movs	r3, #64
 1687 0d94 F4E7     		b	.L61
 1688              	.L277:
 1689 0d96 4023     		movs	r3, #64
 1690 0d98 F2E7     		b	.L61
 1691              	.L278:
 1692 0d9a 4023     		movs	r3, #64
 1693 0d9c F0E7     		b	.L61
 1694              	.L279:
 1695 0d9e 4023     		movs	r3, #64
 1696 0da0 EEE7     		b	.L61
 1697              	.L280:
 1698 0da2 4FF48033 		mov	r3, #65536
 1699 0da6 EBE7     		b	.L61
 1700              	.L281:
 1701 0da8 4FF48033 		mov	r3, #65536
 1702 0dac E8E7     		b	.L61
 1703              	.L282:
 1704 0dae 4FF48033 		mov	r3, #65536
 1705 0db2 E5E7     		b	.L61
 1706              	.L60:
 1707 0db4 2D4A     		ldr	r2, .L341+16
 1708 0db6 9342     		cmp	r3, r2
 1709 0db8 5AD9     		bls	.L62
 1710 0dba 483A     		subs	r2, r2, #72
ARM GAS  C:\Temp\cc0JxbDz.s 			page 31


 1711 0dbc 9342     		cmp	r3, r2
 1712 0dbe 31D0     		beq	.L284
 1713 0dc0 02F58062 		add	r2, r2, #1024
 1714 0dc4 9342     		cmp	r3, r2
 1715 0dc6 31D0     		beq	.L285
 1716 0dc8 A2F56872 		sub	r2, r2, #928
 1717 0dcc 9342     		cmp	r3, r2
 1718 0dce 2FD0     		beq	.L286
 1719 0dd0 02F58062 		add	r2, r2, #1024
 1720 0dd4 9342     		cmp	r3, r2
 1721 0dd6 2DD0     		beq	.L287
 1722 0dd8 A2F58962 		sub	r2, r2, #1096
 1723 0ddc 9342     		cmp	r3, r2
 1724 0dde 2BD0     		beq	.L288
 1725 0de0 02F58062 		add	r2, r2, #1024
 1726 0de4 9342     		cmp	r3, r2
 1727 0de6 29D0     		beq	.L289
 1728 0de8 A2F56872 		sub	r2, r2, #928
 1729 0dec 9342     		cmp	r3, r2
 1730 0dee 27D0     		beq	.L290
 1731 0df0 02F58062 		add	r2, r2, #1024
 1732 0df4 9342     		cmp	r3, r2
 1733 0df6 25D0     		beq	.L291
 1734 0df8 A2F58962 		sub	r2, r2, #1096
 1735 0dfc 9342     		cmp	r3, r2
 1736 0dfe 23D0     		beq	.L292
 1737 0e00 02F58062 		add	r2, r2, #1024
 1738 0e04 9342     		cmp	r3, r2
 1739 0e06 22D0     		beq	.L293
 1740 0e08 A2F56872 		sub	r2, r2, #928
 1741 0e0c 9342     		cmp	r3, r2
 1742 0e0e 21D0     		beq	.L294
 1743 0e10 02F58062 		add	r2, r2, #1024
 1744 0e14 9342     		cmp	r3, r2
 1745 0e16 02D0     		beq	.L331
 1746 0e18 4FF48003 		mov	r3, #4194304
 1747 0e1c 03E0     		b	.L63
 1748              	.L331:
 1749 0e1e 4FF48033 		mov	r3, #65536
 1750 0e22 00E0     		b	.L63
 1751              	.L284:
 1752 0e24 0123     		movs	r3, #1
 1753              	.L63:
 1754 0e26 0E4A     		ldr	r2, .L341+4
 1755 0e28 D360     		str	r3, [r2, #12]
 1756 0e2a 3EE7     		b	.L59
 1757              	.L285:
 1758 0e2c 0123     		movs	r3, #1
 1759 0e2e FAE7     		b	.L63
 1760              	.L286:
 1761 0e30 0123     		movs	r3, #1
 1762 0e32 F8E7     		b	.L63
 1763              	.L287:
 1764 0e34 0123     		movs	r3, #1
 1765 0e36 F6E7     		b	.L63
 1766              	.L288:
 1767 0e38 4023     		movs	r3, #64
ARM GAS  C:\Temp\cc0JxbDz.s 			page 32


 1768 0e3a F4E7     		b	.L63
 1769              	.L289:
 1770 0e3c 4023     		movs	r3, #64
 1771 0e3e F2E7     		b	.L63
 1772              	.L290:
 1773 0e40 4023     		movs	r3, #64
 1774 0e42 F0E7     		b	.L63
 1775              	.L291:
 1776 0e44 4023     		movs	r3, #64
 1777 0e46 EEE7     		b	.L63
 1778              	.L292:
 1779 0e48 4FF48033 		mov	r3, #65536
 1780 0e4c EBE7     		b	.L63
 1781              	.L293:
 1782 0e4e 4FF48033 		mov	r3, #65536
 1783 0e52 E8E7     		b	.L63
 1784              	.L294:
 1785 0e54 4FF48033 		mov	r3, #65536
 1786 0e58 E5E7     		b	.L63
 1787              	.L342:
 1788 0e5a 00BF     		.align	2
 1789              	.L341:
 1790 0e5c 10600240 		.word	1073897488
 1791 0e60 00600240 		.word	1073897472
 1792 0e64 00640240 		.word	1073898496
 1793 0e68 B8600240 		.word	1073897656
 1794 0e6c 58600240 		.word	1073897560
 1795              	.L62:
 1796 0e70 2B4A     		ldr	r2, .L343
 1797 0e72 9342     		cmp	r3, r2
 1798 0e74 31D0     		beq	.L296
 1799 0e76 02F58062 		add	r2, r2, #1024
 1800 0e7a 9342     		cmp	r3, r2
 1801 0e7c 31D0     		beq	.L297
 1802 0e7e A2F56872 		sub	r2, r2, #928
 1803 0e82 9342     		cmp	r3, r2
 1804 0e84 2FD0     		beq	.L298
 1805 0e86 02F58062 		add	r2, r2, #1024
 1806 0e8a 9342     		cmp	r3, r2
 1807 0e8c 2DD0     		beq	.L299
 1808 0e8e A2F58962 		sub	r2, r2, #1096
 1809 0e92 9342     		cmp	r3, r2
 1810 0e94 2BD0     		beq	.L300
 1811 0e96 02F58062 		add	r2, r2, #1024
 1812 0e9a 9342     		cmp	r3, r2
 1813 0e9c 29D0     		beq	.L301
 1814 0e9e A2F56872 		sub	r2, r2, #928
 1815 0ea2 9342     		cmp	r3, r2
 1816 0ea4 27D0     		beq	.L302
 1817 0ea6 02F58062 		add	r2, r2, #1024
 1818 0eaa 9342     		cmp	r3, r2
 1819 0eac 25D0     		beq	.L303
 1820 0eae A2F58962 		sub	r2, r2, #1096
 1821 0eb2 9342     		cmp	r3, r2
 1822 0eb4 23D0     		beq	.L304
 1823 0eb6 02F58062 		add	r2, r2, #1024
 1824 0eba 9342     		cmp	r3, r2
ARM GAS  C:\Temp\cc0JxbDz.s 			page 33


 1825 0ebc 22D0     		beq	.L305
 1826 0ebe A2F56872 		sub	r2, r2, #928
 1827 0ec2 9342     		cmp	r3, r2
 1828 0ec4 21D0     		beq	.L306
 1829 0ec6 02F58062 		add	r2, r2, #1024
 1830 0eca 9342     		cmp	r3, r2
 1831 0ecc 02D0     		beq	.L332
 1832 0ece 4FF48003 		mov	r3, #4194304
 1833 0ed2 03E0     		b	.L64
 1834              	.L332:
 1835 0ed4 4FF48033 		mov	r3, #65536
 1836 0ed8 00E0     		b	.L64
 1837              	.L296:
 1838 0eda 0123     		movs	r3, #1
 1839              	.L64:
 1840 0edc 114A     		ldr	r2, .L343+4
 1841 0ede 9360     		str	r3, [r2, #8]
 1842 0ee0 E3E6     		b	.L59
 1843              	.L297:
 1844 0ee2 0123     		movs	r3, #1
 1845 0ee4 FAE7     		b	.L64
 1846              	.L298:
 1847 0ee6 0123     		movs	r3, #1
 1848 0ee8 F8E7     		b	.L64
 1849              	.L299:
 1850 0eea 0123     		movs	r3, #1
 1851 0eec F6E7     		b	.L64
 1852              	.L300:
 1853 0eee 4023     		movs	r3, #64
 1854 0ef0 F4E7     		b	.L64
 1855              	.L301:
 1856 0ef2 4023     		movs	r3, #64
 1857 0ef4 F2E7     		b	.L64
 1858              	.L302:
 1859 0ef6 4023     		movs	r3, #64
 1860 0ef8 F0E7     		b	.L64
 1861              	.L303:
 1862 0efa 4023     		movs	r3, #64
 1863 0efc EEE7     		b	.L64
 1864              	.L304:
 1865 0efe 4FF48033 		mov	r3, #65536
 1866 0f02 EBE7     		b	.L64
 1867              	.L305:
 1868 0f04 4FF48033 		mov	r3, #65536
 1869 0f08 E8E7     		b	.L64
 1870              	.L306:
 1871 0f0a 4FF48033 		mov	r3, #65536
 1872 0f0e E5E7     		b	.L64
 1873              	.L329:
 1874 0f10 A36C     		ldr	r3, [r4, #72]
 1875 0f12 002B     		cmp	r3, #0
 1876 0f14 7FF4D7AE 		bne	.L65
 1877 0f18 DAE6     		b	.L66
 1878              	.L67:
 1879 0f1a 0220     		movs	r0, #2
 1880 0f1c FFF7A4B8 		b	.L21
 1881              	.L344:
ARM GAS  C:\Temp\cc0JxbDz.s 			page 34


 1882              		.align	2
 1883              	.L343:
 1884 0f20 10600240 		.word	1073897488
 1885 0f24 00600240 		.word	1073897472
 1887              		.section	.text.HAL_DMAEx_ChangeMemory,"ax",%progbits
 1888              		.align	1
 1889              		.global	HAL_DMAEx_ChangeMemory
 1890              		.syntax unified
 1891              		.thumb
 1892              		.thumb_func
 1894              	HAL_DMAEx_ChangeMemory:
 1895              		@ args = 0, pretend = 0, frame = 0
 1896              		@ frame_needed = 0, uses_anonymous_args = 0
 1897              		@ link register save eliminated.
 1898 0000 1AB9     		cbnz	r2, .L346
 1899 0002 0368     		ldr	r3, [r0]
 1900 0004 D960     		str	r1, [r3, #12]
 1901              	.L347:
 1902 0006 0020     		movs	r0, #0
 1903 0008 7047     		bx	lr
 1904              	.L346:
 1905 000a 0368     		ldr	r3, [r0]
 1906 000c 1961     		str	r1, [r3, #16]
 1907 000e FAE7     		b	.L347
 1909              		.ident	"GCC: (xPack GNU Arm Embedded GCC x86_64) 12.3.1 20230626"
ARM GAS  C:\Temp\cc0JxbDz.s 			page 35

