ARM GAS  C:\Temp\ccaZfZb8.s 			page 1


   1              		.cpu cortex-m4
   2              		.arch armv7e-m
   3              		.fpu fpv4-sp-d16
   4              		.eabi_attribute 27, 1
   5              		.eabi_attribute 28, 1
   6              		.eabi_attribute 20, 1
   7              		.eabi_attribute 21, 1
   8              		.eabi_attribute 23, 3
   9              		.eabi_attribute 24, 1
  10              		.eabi_attribute 25, 1
  11              		.eabi_attribute 26, 1
  12              		.eabi_attribute 30, 1
  13              		.eabi_attribute 34, 1
  14              		.eabi_attribute 18, 4
  15              		.file	"stm32f4xx_hal_rcc.c"
  16              		.text
  17              	.Ltext0:
  18              		.cfi_sections	.debug_frame
  19              		.file 1 "Drivers/STM32F4xx_HAL_Driver/Src/stm32f4xx_hal_rcc.c"
  20              		.section	.text.HAL_RCC_DeInit,"ax",%progbits
  21              		.align	1
  22              		.weak	HAL_RCC_DeInit
  23              		.syntax unified
  24              		.thumb
  25              		.thumb_func
  27              	HAL_RCC_DeInit:
  28              	.LFB134:
   1:Drivers/STM32F4xx_HAL_Driver/Src/stm32f4xx_hal_rcc.c **** /**
   2:Drivers/STM32F4xx_HAL_Driver/Src/stm32f4xx_hal_rcc.c ****   ******************************************************************************
   3:Drivers/STM32F4xx_HAL_Driver/Src/stm32f4xx_hal_rcc.c ****   * @file    stm32f4xx_hal_rcc.c
   4:Drivers/STM32F4xx_HAL_Driver/Src/stm32f4xx_hal_rcc.c ****   * @author  MCD Application Team
   5:Drivers/STM32F4xx_HAL_Driver/Src/stm32f4xx_hal_rcc.c ****   * @brief   RCC HAL module driver.
   6:Drivers/STM32F4xx_HAL_Driver/Src/stm32f4xx_hal_rcc.c ****   *          This file provides firmware functions to manage the following
   7:Drivers/STM32F4xx_HAL_Driver/Src/stm32f4xx_hal_rcc.c ****   *          functionalities of the Reset and Clock Control (RCC) peripheral:
   8:Drivers/STM32F4xx_HAL_Driver/Src/stm32f4xx_hal_rcc.c ****   *           + Initialization and de-initialization functions
   9:Drivers/STM32F4xx_HAL_Driver/Src/stm32f4xx_hal_rcc.c ****   *           + Peripheral Control functions
  10:Drivers/STM32F4xx_HAL_Driver/Src/stm32f4xx_hal_rcc.c ****   *
  11:Drivers/STM32F4xx_HAL_Driver/Src/stm32f4xx_hal_rcc.c ****   @verbatim
  12:Drivers/STM32F4xx_HAL_Driver/Src/stm32f4xx_hal_rcc.c ****   ==============================================================================
  13:Drivers/STM32F4xx_HAL_Driver/Src/stm32f4xx_hal_rcc.c ****                       ##### RCC specific features #####
  14:Drivers/STM32F4xx_HAL_Driver/Src/stm32f4xx_hal_rcc.c ****   ==============================================================================
  15:Drivers/STM32F4xx_HAL_Driver/Src/stm32f4xx_hal_rcc.c ****     [..]
  16:Drivers/STM32F4xx_HAL_Driver/Src/stm32f4xx_hal_rcc.c ****       After reset the device is running from Internal High Speed oscillator
  17:Drivers/STM32F4xx_HAL_Driver/Src/stm32f4xx_hal_rcc.c ****       (HSI 16MHz) with Flash 0 wait state, Flash prefetch buffer, D-Cache
  18:Drivers/STM32F4xx_HAL_Driver/Src/stm32f4xx_hal_rcc.c ****       and I-Cache are disabled, and all peripherals are off except internal
  19:Drivers/STM32F4xx_HAL_Driver/Src/stm32f4xx_hal_rcc.c ****       SRAM, Flash and JTAG.
  20:Drivers/STM32F4xx_HAL_Driver/Src/stm32f4xx_hal_rcc.c ****       (+) There is no prescaler on High speed (AHB) and Low speed (APB) busses;
  21:Drivers/STM32F4xx_HAL_Driver/Src/stm32f4xx_hal_rcc.c ****           all peripherals mapped on these busses are running at HSI speed.
  22:Drivers/STM32F4xx_HAL_Driver/Src/stm32f4xx_hal_rcc.c ****       (+) The clock for all peripherals is switched off, except the SRAM and FLASH.
  23:Drivers/STM32F4xx_HAL_Driver/Src/stm32f4xx_hal_rcc.c ****       (+) All GPIOs are in input floating state, except the JTAG pins which
  24:Drivers/STM32F4xx_HAL_Driver/Src/stm32f4xx_hal_rcc.c ****           are assigned to be used for debug purpose.
  25:Drivers/STM32F4xx_HAL_Driver/Src/stm32f4xx_hal_rcc.c **** 
  26:Drivers/STM32F4xx_HAL_Driver/Src/stm32f4xx_hal_rcc.c ****     [..]
  27:Drivers/STM32F4xx_HAL_Driver/Src/stm32f4xx_hal_rcc.c ****       Once the device started from reset, the user application has to:
  28:Drivers/STM32F4xx_HAL_Driver/Src/stm32f4xx_hal_rcc.c ****       (+) Configure the clock source to be used to drive the System clock
  29:Drivers/STM32F4xx_HAL_Driver/Src/stm32f4xx_hal_rcc.c ****           (if the application needs higher frequency/performance)
  30:Drivers/STM32F4xx_HAL_Driver/Src/stm32f4xx_hal_rcc.c ****       (+) Configure the System clock frequency and Flash settings
ARM GAS  C:\Temp\ccaZfZb8.s 			page 2


  31:Drivers/STM32F4xx_HAL_Driver/Src/stm32f4xx_hal_rcc.c ****       (+) Configure the AHB and APB busses prescalers
  32:Drivers/STM32F4xx_HAL_Driver/Src/stm32f4xx_hal_rcc.c ****       (+) Enable the clock for the peripheral(s) to be used
  33:Drivers/STM32F4xx_HAL_Driver/Src/stm32f4xx_hal_rcc.c ****       (+) Configure the clock source(s) for peripherals which clocks are not
  34:Drivers/STM32F4xx_HAL_Driver/Src/stm32f4xx_hal_rcc.c ****           derived from the System clock (I2S, RTC, ADC, USB OTG FS/SDIO/RNG)
  35:Drivers/STM32F4xx_HAL_Driver/Src/stm32f4xx_hal_rcc.c **** 
  36:Drivers/STM32F4xx_HAL_Driver/Src/stm32f4xx_hal_rcc.c ****                       ##### RCC Limitations #####
  37:Drivers/STM32F4xx_HAL_Driver/Src/stm32f4xx_hal_rcc.c ****   ==============================================================================
  38:Drivers/STM32F4xx_HAL_Driver/Src/stm32f4xx_hal_rcc.c ****     [..]
  39:Drivers/STM32F4xx_HAL_Driver/Src/stm32f4xx_hal_rcc.c ****       A delay between an RCC peripheral clock enable and the effective peripheral
  40:Drivers/STM32F4xx_HAL_Driver/Src/stm32f4xx_hal_rcc.c ****       enabling should be taken into account in order to manage the peripheral read/write
  41:Drivers/STM32F4xx_HAL_Driver/Src/stm32f4xx_hal_rcc.c ****       from/to registers.
  42:Drivers/STM32F4xx_HAL_Driver/Src/stm32f4xx_hal_rcc.c ****       (+) This delay depends on the peripheral mapping.
  43:Drivers/STM32F4xx_HAL_Driver/Src/stm32f4xx_hal_rcc.c ****       (+) If peripheral is mapped on AHB: the delay is 2 AHB clock cycle
  44:Drivers/STM32F4xx_HAL_Driver/Src/stm32f4xx_hal_rcc.c ****           after the clock enable bit is set on the hardware register
  45:Drivers/STM32F4xx_HAL_Driver/Src/stm32f4xx_hal_rcc.c ****       (+) If peripheral is mapped on APB: the delay is 2 APB clock cycle
  46:Drivers/STM32F4xx_HAL_Driver/Src/stm32f4xx_hal_rcc.c ****           after the clock enable bit is set on the hardware register
  47:Drivers/STM32F4xx_HAL_Driver/Src/stm32f4xx_hal_rcc.c **** 
  48:Drivers/STM32F4xx_HAL_Driver/Src/stm32f4xx_hal_rcc.c ****     [..]
  49:Drivers/STM32F4xx_HAL_Driver/Src/stm32f4xx_hal_rcc.c ****       Implemented Workaround:
  50:Drivers/STM32F4xx_HAL_Driver/Src/stm32f4xx_hal_rcc.c ****       (+) For AHB & APB peripherals, a dummy read to the peripheral register has been
  51:Drivers/STM32F4xx_HAL_Driver/Src/stm32f4xx_hal_rcc.c ****           inserted in each __HAL_RCC_PPP_CLK_ENABLE() macro.
  52:Drivers/STM32F4xx_HAL_Driver/Src/stm32f4xx_hal_rcc.c **** 
  53:Drivers/STM32F4xx_HAL_Driver/Src/stm32f4xx_hal_rcc.c ****   @endverbatim
  54:Drivers/STM32F4xx_HAL_Driver/Src/stm32f4xx_hal_rcc.c ****   ******************************************************************************
  55:Drivers/STM32F4xx_HAL_Driver/Src/stm32f4xx_hal_rcc.c ****   * @attention
  56:Drivers/STM32F4xx_HAL_Driver/Src/stm32f4xx_hal_rcc.c ****   *
  57:Drivers/STM32F4xx_HAL_Driver/Src/stm32f4xx_hal_rcc.c ****   * Copyright (c) 2017 STMicroelectronics.
  58:Drivers/STM32F4xx_HAL_Driver/Src/stm32f4xx_hal_rcc.c ****   * All rights reserved.
  59:Drivers/STM32F4xx_HAL_Driver/Src/stm32f4xx_hal_rcc.c ****   *
  60:Drivers/STM32F4xx_HAL_Driver/Src/stm32f4xx_hal_rcc.c ****   * This software is licensed under terms that can be found in the LICENSE file in
  61:Drivers/STM32F4xx_HAL_Driver/Src/stm32f4xx_hal_rcc.c ****   * the root directory of this software component.
  62:Drivers/STM32F4xx_HAL_Driver/Src/stm32f4xx_hal_rcc.c ****   * If no LICENSE file comes with this software, it is provided AS-IS.
  63:Drivers/STM32F4xx_HAL_Driver/Src/stm32f4xx_hal_rcc.c ****   ******************************************************************************
  64:Drivers/STM32F4xx_HAL_Driver/Src/stm32f4xx_hal_rcc.c ****   */
  65:Drivers/STM32F4xx_HAL_Driver/Src/stm32f4xx_hal_rcc.c **** 
  66:Drivers/STM32F4xx_HAL_Driver/Src/stm32f4xx_hal_rcc.c **** /* Includes ------------------------------------------------------------------*/
  67:Drivers/STM32F4xx_HAL_Driver/Src/stm32f4xx_hal_rcc.c **** #include "stm32f4xx_hal.h"
  68:Drivers/STM32F4xx_HAL_Driver/Src/stm32f4xx_hal_rcc.c **** 
  69:Drivers/STM32F4xx_HAL_Driver/Src/stm32f4xx_hal_rcc.c **** /** @addtogroup STM32F4xx_HAL_Driver
  70:Drivers/STM32F4xx_HAL_Driver/Src/stm32f4xx_hal_rcc.c ****   * @{
  71:Drivers/STM32F4xx_HAL_Driver/Src/stm32f4xx_hal_rcc.c ****   */
  72:Drivers/STM32F4xx_HAL_Driver/Src/stm32f4xx_hal_rcc.c **** 
  73:Drivers/STM32F4xx_HAL_Driver/Src/stm32f4xx_hal_rcc.c **** /** @defgroup RCC RCC
  74:Drivers/STM32F4xx_HAL_Driver/Src/stm32f4xx_hal_rcc.c ****   * @brief RCC HAL module driver
  75:Drivers/STM32F4xx_HAL_Driver/Src/stm32f4xx_hal_rcc.c ****   * @{
  76:Drivers/STM32F4xx_HAL_Driver/Src/stm32f4xx_hal_rcc.c ****   */
  77:Drivers/STM32F4xx_HAL_Driver/Src/stm32f4xx_hal_rcc.c **** 
  78:Drivers/STM32F4xx_HAL_Driver/Src/stm32f4xx_hal_rcc.c **** #ifdef HAL_RCC_MODULE_ENABLED
  79:Drivers/STM32F4xx_HAL_Driver/Src/stm32f4xx_hal_rcc.c **** 
  80:Drivers/STM32F4xx_HAL_Driver/Src/stm32f4xx_hal_rcc.c **** /* Private typedef -----------------------------------------------------------*/
  81:Drivers/STM32F4xx_HAL_Driver/Src/stm32f4xx_hal_rcc.c **** /* Private define ------------------------------------------------------------*/
  82:Drivers/STM32F4xx_HAL_Driver/Src/stm32f4xx_hal_rcc.c **** /** @addtogroup RCC_Private_Constants
  83:Drivers/STM32F4xx_HAL_Driver/Src/stm32f4xx_hal_rcc.c ****   * @{
  84:Drivers/STM32F4xx_HAL_Driver/Src/stm32f4xx_hal_rcc.c ****   */
  85:Drivers/STM32F4xx_HAL_Driver/Src/stm32f4xx_hal_rcc.c **** 
  86:Drivers/STM32F4xx_HAL_Driver/Src/stm32f4xx_hal_rcc.c **** /* Private macro -------------------------------------------------------------*/
  87:Drivers/STM32F4xx_HAL_Driver/Src/stm32f4xx_hal_rcc.c **** #define __MCO1_CLK_ENABLE()   __HAL_RCC_GPIOA_CLK_ENABLE()
ARM GAS  C:\Temp\ccaZfZb8.s 			page 3


  88:Drivers/STM32F4xx_HAL_Driver/Src/stm32f4xx_hal_rcc.c **** #define MCO1_GPIO_PORT        GPIOA
  89:Drivers/STM32F4xx_HAL_Driver/Src/stm32f4xx_hal_rcc.c **** #define MCO1_PIN              GPIO_PIN_8
  90:Drivers/STM32F4xx_HAL_Driver/Src/stm32f4xx_hal_rcc.c **** 
  91:Drivers/STM32F4xx_HAL_Driver/Src/stm32f4xx_hal_rcc.c **** #define __MCO2_CLK_ENABLE()   __HAL_RCC_GPIOC_CLK_ENABLE()
  92:Drivers/STM32F4xx_HAL_Driver/Src/stm32f4xx_hal_rcc.c **** #define MCO2_GPIO_PORT         GPIOC
  93:Drivers/STM32F4xx_HAL_Driver/Src/stm32f4xx_hal_rcc.c **** #define MCO2_PIN               GPIO_PIN_9
  94:Drivers/STM32F4xx_HAL_Driver/Src/stm32f4xx_hal_rcc.c **** /**
  95:Drivers/STM32F4xx_HAL_Driver/Src/stm32f4xx_hal_rcc.c ****   * @}
  96:Drivers/STM32F4xx_HAL_Driver/Src/stm32f4xx_hal_rcc.c ****   */
  97:Drivers/STM32F4xx_HAL_Driver/Src/stm32f4xx_hal_rcc.c **** 
  98:Drivers/STM32F4xx_HAL_Driver/Src/stm32f4xx_hal_rcc.c **** /* Private variables ---------------------------------------------------------*/
  99:Drivers/STM32F4xx_HAL_Driver/Src/stm32f4xx_hal_rcc.c **** /** @defgroup RCC_Private_Variables RCC Private Variables
 100:Drivers/STM32F4xx_HAL_Driver/Src/stm32f4xx_hal_rcc.c ****   * @{
 101:Drivers/STM32F4xx_HAL_Driver/Src/stm32f4xx_hal_rcc.c ****   */
 102:Drivers/STM32F4xx_HAL_Driver/Src/stm32f4xx_hal_rcc.c **** /**
 103:Drivers/STM32F4xx_HAL_Driver/Src/stm32f4xx_hal_rcc.c ****   * @}
 104:Drivers/STM32F4xx_HAL_Driver/Src/stm32f4xx_hal_rcc.c ****   */
 105:Drivers/STM32F4xx_HAL_Driver/Src/stm32f4xx_hal_rcc.c **** /* Private function prototypes -----------------------------------------------*/
 106:Drivers/STM32F4xx_HAL_Driver/Src/stm32f4xx_hal_rcc.c **** /* Private functions ---------------------------------------------------------*/
 107:Drivers/STM32F4xx_HAL_Driver/Src/stm32f4xx_hal_rcc.c **** 
 108:Drivers/STM32F4xx_HAL_Driver/Src/stm32f4xx_hal_rcc.c **** /** @defgroup RCC_Exported_Functions RCC Exported Functions
 109:Drivers/STM32F4xx_HAL_Driver/Src/stm32f4xx_hal_rcc.c ****   *  @{
 110:Drivers/STM32F4xx_HAL_Driver/Src/stm32f4xx_hal_rcc.c ****   */
 111:Drivers/STM32F4xx_HAL_Driver/Src/stm32f4xx_hal_rcc.c **** 
 112:Drivers/STM32F4xx_HAL_Driver/Src/stm32f4xx_hal_rcc.c **** /** @defgroup RCC_Exported_Functions_Group1 Initialization and de-initialization functions
 113:Drivers/STM32F4xx_HAL_Driver/Src/stm32f4xx_hal_rcc.c ****  *  @brief    Initialization and Configuration functions
 114:Drivers/STM32F4xx_HAL_Driver/Src/stm32f4xx_hal_rcc.c ****  *
 115:Drivers/STM32F4xx_HAL_Driver/Src/stm32f4xx_hal_rcc.c **** @verbatim
 116:Drivers/STM32F4xx_HAL_Driver/Src/stm32f4xx_hal_rcc.c ****  ===============================================================================
 117:Drivers/STM32F4xx_HAL_Driver/Src/stm32f4xx_hal_rcc.c ****            ##### Initialization and de-initialization functions #####
 118:Drivers/STM32F4xx_HAL_Driver/Src/stm32f4xx_hal_rcc.c ****  ===============================================================================
 119:Drivers/STM32F4xx_HAL_Driver/Src/stm32f4xx_hal_rcc.c ****     [..]
 120:Drivers/STM32F4xx_HAL_Driver/Src/stm32f4xx_hal_rcc.c ****       This section provides functions allowing to configure the internal/external oscillators
 121:Drivers/STM32F4xx_HAL_Driver/Src/stm32f4xx_hal_rcc.c ****       (HSE, HSI, LSE, LSI, PLL, CSS and MCO) and the System busses clocks (SYSCLK, AHB, APB1
 122:Drivers/STM32F4xx_HAL_Driver/Src/stm32f4xx_hal_rcc.c ****        and APB2).
 123:Drivers/STM32F4xx_HAL_Driver/Src/stm32f4xx_hal_rcc.c **** 
 124:Drivers/STM32F4xx_HAL_Driver/Src/stm32f4xx_hal_rcc.c ****     [..] Internal/external clock and PLL configuration
 125:Drivers/STM32F4xx_HAL_Driver/Src/stm32f4xx_hal_rcc.c ****          (#) HSI (high-speed internal), 16 MHz factory-trimmed RC used directly or through
 126:Drivers/STM32F4xx_HAL_Driver/Src/stm32f4xx_hal_rcc.c ****              the PLL as System clock source.
 127:Drivers/STM32F4xx_HAL_Driver/Src/stm32f4xx_hal_rcc.c **** 
 128:Drivers/STM32F4xx_HAL_Driver/Src/stm32f4xx_hal_rcc.c ****          (#) LSI (low-speed internal), 32 KHz low consumption RC used as IWDG and/or RTC
 129:Drivers/STM32F4xx_HAL_Driver/Src/stm32f4xx_hal_rcc.c ****              clock source.
 130:Drivers/STM32F4xx_HAL_Driver/Src/stm32f4xx_hal_rcc.c **** 
 131:Drivers/STM32F4xx_HAL_Driver/Src/stm32f4xx_hal_rcc.c ****          (#) HSE (high-speed external), 4 to 26 MHz crystal oscillator used directly or
 132:Drivers/STM32F4xx_HAL_Driver/Src/stm32f4xx_hal_rcc.c ****              through the PLL as System clock source. Can be used also as RTC clock source.
 133:Drivers/STM32F4xx_HAL_Driver/Src/stm32f4xx_hal_rcc.c **** 
 134:Drivers/STM32F4xx_HAL_Driver/Src/stm32f4xx_hal_rcc.c ****          (#) LSE (low-speed external), 32 KHz oscillator used as RTC clock source.
 135:Drivers/STM32F4xx_HAL_Driver/Src/stm32f4xx_hal_rcc.c **** 
 136:Drivers/STM32F4xx_HAL_Driver/Src/stm32f4xx_hal_rcc.c ****          (#) PLL (clocked by HSI or HSE), featuring two different output clocks:
 137:Drivers/STM32F4xx_HAL_Driver/Src/stm32f4xx_hal_rcc.c ****            (++) The first output is used to generate the high speed system clock (up to 168 MHz)
 138:Drivers/STM32F4xx_HAL_Driver/Src/stm32f4xx_hal_rcc.c ****            (++) The second output is used to generate the clock for the USB OTG FS (48 MHz),
 139:Drivers/STM32F4xx_HAL_Driver/Src/stm32f4xx_hal_rcc.c ****                 the random analog generator (<=48 MHz) and the SDIO (<= 48 MHz).
 140:Drivers/STM32F4xx_HAL_Driver/Src/stm32f4xx_hal_rcc.c **** 
 141:Drivers/STM32F4xx_HAL_Driver/Src/stm32f4xx_hal_rcc.c ****          (#) CSS (Clock security system), once enable using the macro __HAL_RCC_CSS_ENABLE()
 142:Drivers/STM32F4xx_HAL_Driver/Src/stm32f4xx_hal_rcc.c ****              and if a HSE clock failure occurs(HSE used directly or through PLL as System
 143:Drivers/STM32F4xx_HAL_Driver/Src/stm32f4xx_hal_rcc.c ****              clock source), the System clocks automatically switched to HSI and an interrupt
 144:Drivers/STM32F4xx_HAL_Driver/Src/stm32f4xx_hal_rcc.c ****              is generated if enabled. The interrupt is linked to the Cortex-M4 NMI
ARM GAS  C:\Temp\ccaZfZb8.s 			page 4


 145:Drivers/STM32F4xx_HAL_Driver/Src/stm32f4xx_hal_rcc.c ****              (Non-Maskable Interrupt) exception vector.
 146:Drivers/STM32F4xx_HAL_Driver/Src/stm32f4xx_hal_rcc.c **** 
 147:Drivers/STM32F4xx_HAL_Driver/Src/stm32f4xx_hal_rcc.c ****          (#) MCO1 (microcontroller clock output), used to output HSI, LSE, HSE or PLL
 148:Drivers/STM32F4xx_HAL_Driver/Src/stm32f4xx_hal_rcc.c ****              clock (through a configurable prescaler) on PA8 pin.
 149:Drivers/STM32F4xx_HAL_Driver/Src/stm32f4xx_hal_rcc.c **** 
 150:Drivers/STM32F4xx_HAL_Driver/Src/stm32f4xx_hal_rcc.c ****          (#) MCO2 (microcontroller clock output), used to output HSE, PLL, SYSCLK or PLLI2S
 151:Drivers/STM32F4xx_HAL_Driver/Src/stm32f4xx_hal_rcc.c ****              clock (through a configurable prescaler) on PC9 pin.
 152:Drivers/STM32F4xx_HAL_Driver/Src/stm32f4xx_hal_rcc.c **** 
 153:Drivers/STM32F4xx_HAL_Driver/Src/stm32f4xx_hal_rcc.c ****     [..] System, AHB and APB busses clocks configuration
 154:Drivers/STM32F4xx_HAL_Driver/Src/stm32f4xx_hal_rcc.c ****          (#) Several clock sources can be used to drive the System clock (SYSCLK): HSI,
 155:Drivers/STM32F4xx_HAL_Driver/Src/stm32f4xx_hal_rcc.c ****              HSE and PLL.
 156:Drivers/STM32F4xx_HAL_Driver/Src/stm32f4xx_hal_rcc.c ****              The AHB clock (HCLK) is derived from System clock through configurable
 157:Drivers/STM32F4xx_HAL_Driver/Src/stm32f4xx_hal_rcc.c ****              prescaler and used to clock the CPU, memory and peripherals mapped
 158:Drivers/STM32F4xx_HAL_Driver/Src/stm32f4xx_hal_rcc.c ****              on AHB bus (DMA, GPIO...). APB1 (PCLK1) and APB2 (PCLK2) clocks are derived
 159:Drivers/STM32F4xx_HAL_Driver/Src/stm32f4xx_hal_rcc.c ****              from AHB clock through configurable prescalers and used to clock
 160:Drivers/STM32F4xx_HAL_Driver/Src/stm32f4xx_hal_rcc.c ****              the peripherals mapped on these busses. You can use
 161:Drivers/STM32F4xx_HAL_Driver/Src/stm32f4xx_hal_rcc.c ****              "HAL_RCC_GetSysClockFreq()" function to retrieve the frequencies of these clocks.
 162:Drivers/STM32F4xx_HAL_Driver/Src/stm32f4xx_hal_rcc.c **** 
 163:Drivers/STM32F4xx_HAL_Driver/Src/stm32f4xx_hal_rcc.c ****          (#) For the STM32F405xx/07xx and STM32F415xx/17xx devices, the maximum
 164:Drivers/STM32F4xx_HAL_Driver/Src/stm32f4xx_hal_rcc.c ****              frequency of the SYSCLK and HCLK is 168 MHz, PCLK2 84 MHz and PCLK1 42 MHz.
 165:Drivers/STM32F4xx_HAL_Driver/Src/stm32f4xx_hal_rcc.c ****              Depending on the device voltage range, the maximum frequency should
 166:Drivers/STM32F4xx_HAL_Driver/Src/stm32f4xx_hal_rcc.c ****              be adapted accordingly (refer to the product datasheets for more details).
 167:Drivers/STM32F4xx_HAL_Driver/Src/stm32f4xx_hal_rcc.c **** 
 168:Drivers/STM32F4xx_HAL_Driver/Src/stm32f4xx_hal_rcc.c ****          (#) For the STM32F42xxx, STM32F43xxx, STM32F446xx, STM32F469xx and STM32F479xx devices,
 169:Drivers/STM32F4xx_HAL_Driver/Src/stm32f4xx_hal_rcc.c ****              the maximum frequency of the SYSCLK and HCLK is 180 MHz, PCLK2 90 MHz and PCLK1 45 MHz
 170:Drivers/STM32F4xx_HAL_Driver/Src/stm32f4xx_hal_rcc.c ****              Depending on the device voltage range, the maximum frequency should
 171:Drivers/STM32F4xx_HAL_Driver/Src/stm32f4xx_hal_rcc.c ****              be adapted accordingly (refer to the product datasheets for more details).
 172:Drivers/STM32F4xx_HAL_Driver/Src/stm32f4xx_hal_rcc.c **** 
 173:Drivers/STM32F4xx_HAL_Driver/Src/stm32f4xx_hal_rcc.c ****          (#) For the STM32F401xx, the maximum frequency of the SYSCLK and HCLK is 84 MHz,
 174:Drivers/STM32F4xx_HAL_Driver/Src/stm32f4xx_hal_rcc.c ****              PCLK2 84 MHz and PCLK1 42 MHz.
 175:Drivers/STM32F4xx_HAL_Driver/Src/stm32f4xx_hal_rcc.c ****              Depending on the device voltage range, the maximum frequency should
 176:Drivers/STM32F4xx_HAL_Driver/Src/stm32f4xx_hal_rcc.c ****              be adapted accordingly (refer to the product datasheets for more details).
 177:Drivers/STM32F4xx_HAL_Driver/Src/stm32f4xx_hal_rcc.c **** 
 178:Drivers/STM32F4xx_HAL_Driver/Src/stm32f4xx_hal_rcc.c ****          (#) For the STM32F41xxx, the maximum frequency of the SYSCLK and HCLK is 100 MHz,
 179:Drivers/STM32F4xx_HAL_Driver/Src/stm32f4xx_hal_rcc.c ****              PCLK2 100 MHz and PCLK1 50 MHz.
 180:Drivers/STM32F4xx_HAL_Driver/Src/stm32f4xx_hal_rcc.c ****              Depending on the device voltage range, the maximum frequency should
 181:Drivers/STM32F4xx_HAL_Driver/Src/stm32f4xx_hal_rcc.c ****              be adapted accordingly (refer to the product datasheets for more details).
 182:Drivers/STM32F4xx_HAL_Driver/Src/stm32f4xx_hal_rcc.c **** 
 183:Drivers/STM32F4xx_HAL_Driver/Src/stm32f4xx_hal_rcc.c **** @endverbatim
 184:Drivers/STM32F4xx_HAL_Driver/Src/stm32f4xx_hal_rcc.c ****   * @{
 185:Drivers/STM32F4xx_HAL_Driver/Src/stm32f4xx_hal_rcc.c ****   */
 186:Drivers/STM32F4xx_HAL_Driver/Src/stm32f4xx_hal_rcc.c **** 
 187:Drivers/STM32F4xx_HAL_Driver/Src/stm32f4xx_hal_rcc.c **** /**
 188:Drivers/STM32F4xx_HAL_Driver/Src/stm32f4xx_hal_rcc.c ****   * @brief  Resets the RCC clock configuration to the default reset state.
 189:Drivers/STM32F4xx_HAL_Driver/Src/stm32f4xx_hal_rcc.c ****   * @note   The default reset state of the clock configuration is given below:
 190:Drivers/STM32F4xx_HAL_Driver/Src/stm32f4xx_hal_rcc.c ****   *            - HSI ON and used as system clock source
 191:Drivers/STM32F4xx_HAL_Driver/Src/stm32f4xx_hal_rcc.c ****   *            - HSE and PLL OFF
 192:Drivers/STM32F4xx_HAL_Driver/Src/stm32f4xx_hal_rcc.c ****   *            - AHB, APB1 and APB2 prescaler set to 1.
 193:Drivers/STM32F4xx_HAL_Driver/Src/stm32f4xx_hal_rcc.c ****   *            - CSS, MCO1 and MCO2 OFF
 194:Drivers/STM32F4xx_HAL_Driver/Src/stm32f4xx_hal_rcc.c ****   *            - All interrupts disabled
 195:Drivers/STM32F4xx_HAL_Driver/Src/stm32f4xx_hal_rcc.c ****   * @note   This function doesn't modify the configuration of the
 196:Drivers/STM32F4xx_HAL_Driver/Src/stm32f4xx_hal_rcc.c ****   *            - Peripheral clocks
 197:Drivers/STM32F4xx_HAL_Driver/Src/stm32f4xx_hal_rcc.c ****   *            - LSI, LSE and RTC clocks
 198:Drivers/STM32F4xx_HAL_Driver/Src/stm32f4xx_hal_rcc.c ****   * @retval HAL status
 199:Drivers/STM32F4xx_HAL_Driver/Src/stm32f4xx_hal_rcc.c ****   */
 200:Drivers/STM32F4xx_HAL_Driver/Src/stm32f4xx_hal_rcc.c **** __weak HAL_StatusTypeDef HAL_RCC_DeInit(void)
 201:Drivers/STM32F4xx_HAL_Driver/Src/stm32f4xx_hal_rcc.c **** {
ARM GAS  C:\Temp\ccaZfZb8.s 			page 5


  29              		.loc 1 201 1 view -0
  30              		.cfi_startproc
  31              		@ args = 0, pretend = 0, frame = 0
  32              		@ frame_needed = 0, uses_anonymous_args = 0
  33              		@ link register save eliminated.
 202:Drivers/STM32F4xx_HAL_Driver/Src/stm32f4xx_hal_rcc.c ****   return HAL_OK;
  34              		.loc 1 202 3 view .LVU1
 203:Drivers/STM32F4xx_HAL_Driver/Src/stm32f4xx_hal_rcc.c **** }
  35              		.loc 1 203 1 is_stmt 0 view .LVU2
  36 0000 0020     		movs	r0, #0
  37 0002 7047     		bx	lr
  38              		.cfi_endproc
  39              	.LFE134:
  41              		.section	.rodata.HAL_RCC_OscConfig.str1.4,"aMS",%progbits,1
  42              		.align	2
  43              	.LC0:
  44 0000 44726976 		.ascii	"Drivers/STM32F4xx_HAL_Driver/Src/stm32f4xx_hal_rcc."
  44      6572732F 
  44      53544D33 
  44      32463478 
  44      785F4841 
  45 0033 6300     		.ascii	"c\000"
  46              		.section	.text.HAL_RCC_OscConfig,"ax",%progbits
  47              		.align	1
  48              		.weak	HAL_RCC_OscConfig
  49              		.syntax unified
  50              		.thumb
  51              		.thumb_func
  53              	HAL_RCC_OscConfig:
  54              	.LVL0:
  55              	.LFB135:
 204:Drivers/STM32F4xx_HAL_Driver/Src/stm32f4xx_hal_rcc.c **** 
 205:Drivers/STM32F4xx_HAL_Driver/Src/stm32f4xx_hal_rcc.c **** /**
 206:Drivers/STM32F4xx_HAL_Driver/Src/stm32f4xx_hal_rcc.c ****   * @brief  Initializes the RCC Oscillators according to the specified parameters in the
 207:Drivers/STM32F4xx_HAL_Driver/Src/stm32f4xx_hal_rcc.c ****   *         RCC_OscInitTypeDef.
 208:Drivers/STM32F4xx_HAL_Driver/Src/stm32f4xx_hal_rcc.c ****   * @param  RCC_OscInitStruct pointer to an RCC_OscInitTypeDef structure that
 209:Drivers/STM32F4xx_HAL_Driver/Src/stm32f4xx_hal_rcc.c ****   *         contains the configuration information for the RCC Oscillators.
 210:Drivers/STM32F4xx_HAL_Driver/Src/stm32f4xx_hal_rcc.c ****   * @note   The PLL is not disabled when used as system clock.
 211:Drivers/STM32F4xx_HAL_Driver/Src/stm32f4xx_hal_rcc.c ****   * @note   Transitions LSE Bypass to LSE On and LSE On to LSE Bypass are not
 212:Drivers/STM32F4xx_HAL_Driver/Src/stm32f4xx_hal_rcc.c ****   *         supported by this API. User should request a transition to LSE Off
 213:Drivers/STM32F4xx_HAL_Driver/Src/stm32f4xx_hal_rcc.c ****   *         first and then LSE On or LSE Bypass.
 214:Drivers/STM32F4xx_HAL_Driver/Src/stm32f4xx_hal_rcc.c ****   * @note   Transition HSE Bypass to HSE On and HSE On to HSE Bypass are not
 215:Drivers/STM32F4xx_HAL_Driver/Src/stm32f4xx_hal_rcc.c ****   *         supported by this API. User should request a transition to HSE Off
 216:Drivers/STM32F4xx_HAL_Driver/Src/stm32f4xx_hal_rcc.c ****   *         first and then HSE On or HSE Bypass.
 217:Drivers/STM32F4xx_HAL_Driver/Src/stm32f4xx_hal_rcc.c ****   * @retval HAL status
 218:Drivers/STM32F4xx_HAL_Driver/Src/stm32f4xx_hal_rcc.c ****   */
 219:Drivers/STM32F4xx_HAL_Driver/Src/stm32f4xx_hal_rcc.c **** __weak HAL_StatusTypeDef HAL_RCC_OscConfig(RCC_OscInitTypeDef  *RCC_OscInitStruct)
 220:Drivers/STM32F4xx_HAL_Driver/Src/stm32f4xx_hal_rcc.c **** {
  56              		.loc 1 220 1 is_stmt 1 view -0
  57              		.cfi_startproc
  58              		@ args = 0, pretend = 0, frame = 8
  59              		@ frame_needed = 0, uses_anonymous_args = 0
 221:Drivers/STM32F4xx_HAL_Driver/Src/stm32f4xx_hal_rcc.c ****   uint32_t tickstart, pll_config;
  60              		.loc 1 221 3 view .LVU4
 222:Drivers/STM32F4xx_HAL_Driver/Src/stm32f4xx_hal_rcc.c **** 
 223:Drivers/STM32F4xx_HAL_Driver/Src/stm32f4xx_hal_rcc.c ****   /* Check Null pointer */
 224:Drivers/STM32F4xx_HAL_Driver/Src/stm32f4xx_hal_rcc.c ****   if(RCC_OscInitStruct == NULL)
ARM GAS  C:\Temp\ccaZfZb8.s 			page 6


  61              		.loc 1 224 3 view .LVU5
  62              		.loc 1 224 5 is_stmt 0 view .LVU6
  63 0000 0028     		cmp	r0, #0
  64 0002 00F06182 		beq	.L65
 220:Drivers/STM32F4xx_HAL_Driver/Src/stm32f4xx_hal_rcc.c ****   uint32_t tickstart, pll_config;
  65              		.loc 1 220 1 view .LVU7
  66 0006 70B5     		push	{r4, r5, r6, lr}
  67              		.cfi_def_cfa_offset 16
  68              		.cfi_offset 4, -16
  69              		.cfi_offset 5, -12
  70              		.cfi_offset 6, -8
  71              		.cfi_offset 14, -4
  72 0008 82B0     		sub	sp, sp, #8
  73              		.cfi_def_cfa_offset 24
  74 000a 0446     		mov	r4, r0
 225:Drivers/STM32F4xx_HAL_Driver/Src/stm32f4xx_hal_rcc.c ****   {
 226:Drivers/STM32F4xx_HAL_Driver/Src/stm32f4xx_hal_rcc.c ****     return HAL_ERROR;
 227:Drivers/STM32F4xx_HAL_Driver/Src/stm32f4xx_hal_rcc.c ****   }
 228:Drivers/STM32F4xx_HAL_Driver/Src/stm32f4xx_hal_rcc.c **** 
 229:Drivers/STM32F4xx_HAL_Driver/Src/stm32f4xx_hal_rcc.c ****   /* Check the parameters */
 230:Drivers/STM32F4xx_HAL_Driver/Src/stm32f4xx_hal_rcc.c ****   assert_param(IS_RCC_OSCILLATORTYPE(RCC_OscInitStruct->OscillatorType));
  75              		.loc 1 230 3 is_stmt 1 view .LVU8
  76 000c 0368     		ldr	r3, [r0]
  77 000e 0F2B     		cmp	r3, #15
  78 0010 39D8     		bhi	.L92
  79              	.LVL1:
  80              	.L4:
 231:Drivers/STM32F4xx_HAL_Driver/Src/stm32f4xx_hal_rcc.c ****   /*------------------------------- HSE Configuration ------------------------*/
 232:Drivers/STM32F4xx_HAL_Driver/Src/stm32f4xx_hal_rcc.c ****   if(((RCC_OscInitStruct->OscillatorType) & RCC_OSCILLATORTYPE_HSE) == RCC_OSCILLATORTYPE_HSE)
  81              		.loc 1 232 3 view .LVU9
  82              		.loc 1 232 25 is_stmt 0 view .LVU10
  83 0012 2368     		ldr	r3, [r4]
  84              		.loc 1 232 5 view .LVU11
  85 0014 13F0010F 		tst	r3, #1
  86 0018 4DD0     		beq	.L5
 233:Drivers/STM32F4xx_HAL_Driver/Src/stm32f4xx_hal_rcc.c ****   {
 234:Drivers/STM32F4xx_HAL_Driver/Src/stm32f4xx_hal_rcc.c ****     /* Check the parameters */
 235:Drivers/STM32F4xx_HAL_Driver/Src/stm32f4xx_hal_rcc.c ****     assert_param(IS_RCC_HSE(RCC_OscInitStruct->HSEState));
  87              		.loc 1 235 5 is_stmt 1 view .LVU12
  88 001a 6368     		ldr	r3, [r4, #4]
  89 001c 2BB1     		cbz	r3, .L6
  90              		.loc 1 235 5 is_stmt 0 discriminator 1 view .LVU13
  91 001e B3F5803F 		cmp	r3, #65536
  92 0022 02D0     		beq	.L6
  93              		.loc 1 235 5 discriminator 2 view .LVU14
  94 0024 B3F5A02F 		cmp	r3, #327680
  95 0028 32D1     		bne	.L93
  96              	.L6:
 236:Drivers/STM32F4xx_HAL_Driver/Src/stm32f4xx_hal_rcc.c ****     /* When the HSE is used as system clock or clock source for PLL in these cases HSE will not dis
 237:Drivers/STM32F4xx_HAL_Driver/Src/stm32f4xx_hal_rcc.c ****     if((__HAL_RCC_GET_SYSCLK_SOURCE() == RCC_CFGR_SWS_HSE) ||\
  97              		.loc 1 237 5 is_stmt 1 view .LVU15
  98              		.loc 1 237 9 is_stmt 0 view .LVU16
  99 002a 804B     		ldr	r3, .L116
 100 002c 9B68     		ldr	r3, [r3, #8]
 101 002e 03F00C03 		and	r3, r3, #12
 102              		.loc 1 237 7 view .LVU17
 103 0032 042B     		cmp	r3, #4
ARM GAS  C:\Temp\ccaZfZb8.s 			page 7


 104 0034 36D0     		beq	.L7
 238:Drivers/STM32F4xx_HAL_Driver/Src/stm32f4xx_hal_rcc.c ****       ((__HAL_RCC_GET_SYSCLK_SOURCE() == RCC_CFGR_SWS_PLL) && ((RCC->PLLCFGR & RCC_PLLCFGR_PLLSRC) 
 105              		.loc 1 238 9 discriminator 1 view .LVU18
 106 0036 7D4B     		ldr	r3, .L116
 107 0038 9B68     		ldr	r3, [r3, #8]
 108 003a 03F00C03 		and	r3, r3, #12
 237:Drivers/STM32F4xx_HAL_Driver/Src/stm32f4xx_hal_rcc.c ****       ((__HAL_RCC_GET_SYSCLK_SOURCE() == RCC_CFGR_SWS_PLL) && ((RCC->PLLCFGR & RCC_PLLCFGR_PLLSRC) 
 109              		.loc 1 237 60 discriminator 1 view .LVU19
 110 003e 082B     		cmp	r3, #8
 111 0040 2BD0     		beq	.L94
 112              	.L8:
 239:Drivers/STM32F4xx_HAL_Driver/Src/stm32f4xx_hal_rcc.c ****     {
 240:Drivers/STM32F4xx_HAL_Driver/Src/stm32f4xx_hal_rcc.c ****       if((__HAL_RCC_GET_FLAG(RCC_FLAG_HSERDY) != RESET) && (RCC_OscInitStruct->HSEState == RCC_HSE_
 241:Drivers/STM32F4xx_HAL_Driver/Src/stm32f4xx_hal_rcc.c ****       {
 242:Drivers/STM32F4xx_HAL_Driver/Src/stm32f4xx_hal_rcc.c ****         return HAL_ERROR;
 243:Drivers/STM32F4xx_HAL_Driver/Src/stm32f4xx_hal_rcc.c ****       }
 244:Drivers/STM32F4xx_HAL_Driver/Src/stm32f4xx_hal_rcc.c ****     }
 245:Drivers/STM32F4xx_HAL_Driver/Src/stm32f4xx_hal_rcc.c ****     else
 246:Drivers/STM32F4xx_HAL_Driver/Src/stm32f4xx_hal_rcc.c ****     {
 247:Drivers/STM32F4xx_HAL_Driver/Src/stm32f4xx_hal_rcc.c ****       /* Set the new HSE configuration ---------------------------------------*/
 248:Drivers/STM32F4xx_HAL_Driver/Src/stm32f4xx_hal_rcc.c ****       __HAL_RCC_HSE_CONFIG(RCC_OscInitStruct->HSEState);
 113              		.loc 1 248 7 is_stmt 1 view .LVU20
 114              		.loc 1 248 7 view .LVU21
 115 0042 6368     		ldr	r3, [r4, #4]
 116 0044 B3F5803F 		cmp	r3, #65536
 117 0048 5FD0     		beq	.L95
 118              		.loc 1 248 7 discriminator 2 view .LVU22
 119 004a B3F5A02F 		cmp	r3, #327680
 120 004e 62D0     		beq	.L96
 121              		.loc 1 248 7 discriminator 5 view .LVU23
 122 0050 764B     		ldr	r3, .L116
 123 0052 1A68     		ldr	r2, [r3]
 124 0054 22F48032 		bic	r2, r2, #65536
 125 0058 1A60     		str	r2, [r3]
 126              		.loc 1 248 7 discriminator 5 view .LVU24
 127 005a 1A68     		ldr	r2, [r3]
 128 005c 22F48022 		bic	r2, r2, #262144
 129 0060 1A60     		str	r2, [r3]
 130              	.L10:
 131              		.loc 1 248 7 discriminator 7 view .LVU25
 249:Drivers/STM32F4xx_HAL_Driver/Src/stm32f4xx_hal_rcc.c **** 
 250:Drivers/STM32F4xx_HAL_Driver/Src/stm32f4xx_hal_rcc.c ****       /* Check the HSE State */
 251:Drivers/STM32F4xx_HAL_Driver/Src/stm32f4xx_hal_rcc.c ****       if((RCC_OscInitStruct->HSEState) != RCC_HSE_OFF)
 132              		.loc 1 251 7 discriminator 7 view .LVU26
 133              		.loc 1 251 28 is_stmt 0 discriminator 7 view .LVU27
 134 0062 6368     		ldr	r3, [r4, #4]
 135              		.loc 1 251 9 discriminator 7 view .LVU28
 136 0064 002B     		cmp	r3, #0
 137 0066 60D0     		beq	.L12
 252:Drivers/STM32F4xx_HAL_Driver/Src/stm32f4xx_hal_rcc.c ****       {
 253:Drivers/STM32F4xx_HAL_Driver/Src/stm32f4xx_hal_rcc.c ****         /* Get Start Tick */
 254:Drivers/STM32F4xx_HAL_Driver/Src/stm32f4xx_hal_rcc.c ****         tickstart = HAL_GetTick();
 138              		.loc 1 254 9 is_stmt 1 view .LVU29
 139              		.loc 1 254 21 is_stmt 0 view .LVU30
 140 0068 FFF7FEFF 		bl	HAL_GetTick
 141              	.LVL2:
 142 006c 0546     		mov	r5, r0
ARM GAS  C:\Temp\ccaZfZb8.s 			page 8


 143              	.LVL3:
 255:Drivers/STM32F4xx_HAL_Driver/Src/stm32f4xx_hal_rcc.c **** 
 256:Drivers/STM32F4xx_HAL_Driver/Src/stm32f4xx_hal_rcc.c ****         /* Wait till HSE is ready */
 257:Drivers/STM32F4xx_HAL_Driver/Src/stm32f4xx_hal_rcc.c ****         while(__HAL_RCC_GET_FLAG(RCC_FLAG_HSERDY) == RESET)
 144              		.loc 1 257 9 is_stmt 1 view .LVU31
 145              	.L13:
 146              		.loc 1 257 51 view .LVU32
 147              		.loc 1 257 15 is_stmt 0 view .LVU33
 148 006e 6F4B     		ldr	r3, .L116
 149 0070 1B68     		ldr	r3, [r3]
 150              		.loc 1 257 51 view .LVU34
 151 0072 13F4003F 		tst	r3, #131072
 152 0076 1ED1     		bne	.L5
 258:Drivers/STM32F4xx_HAL_Driver/Src/stm32f4xx_hal_rcc.c ****         {
 259:Drivers/STM32F4xx_HAL_Driver/Src/stm32f4xx_hal_rcc.c ****           if((HAL_GetTick() - tickstart ) > HSE_TIMEOUT_VALUE)
 153              		.loc 1 259 11 is_stmt 1 view .LVU35
 154              		.loc 1 259 15 is_stmt 0 view .LVU36
 155 0078 FFF7FEFF 		bl	HAL_GetTick
 156              	.LVL4:
 157              		.loc 1 259 29 view .LVU37
 158 007c 401B     		subs	r0, r0, r5
 159              		.loc 1 259 13 view .LVU38
 160 007e 6428     		cmp	r0, #100
 161 0080 F5D9     		bls	.L13
 260:Drivers/STM32F4xx_HAL_Driver/Src/stm32f4xx_hal_rcc.c ****           {
 261:Drivers/STM32F4xx_HAL_Driver/Src/stm32f4xx_hal_rcc.c ****             return HAL_TIMEOUT;
 162              		.loc 1 261 20 view .LVU39
 163 0082 0320     		movs	r0, #3
 164 0084 27E2     		b	.L3
 165              	.LVL5:
 166              	.L92:
 230:Drivers/STM32F4xx_HAL_Driver/Src/stm32f4xx_hal_rcc.c ****   /*------------------------------- HSE Configuration ------------------------*/
 167              		.loc 1 230 3 discriminator 1 view .LVU40
 168 0086 E621     		movs	r1, #230
 169 0088 6948     		ldr	r0, .L116+4
 170              	.LVL6:
 230:Drivers/STM32F4xx_HAL_Driver/Src/stm32f4xx_hal_rcc.c ****   /*------------------------------- HSE Configuration ------------------------*/
 171              		.loc 1 230 3 discriminator 1 view .LVU41
 172 008a FFF7FEFF 		bl	assert_failed
 173              	.LVL7:
 174 008e C0E7     		b	.L4
 175              	.L93:
 235:Drivers/STM32F4xx_HAL_Driver/Src/stm32f4xx_hal_rcc.c ****     /* When the HSE is used as system clock or clock source for PLL in these cases HSE will not dis
 176              		.loc 1 235 5 discriminator 3 view .LVU42
 177 0090 EB21     		movs	r1, #235
 178 0092 6748     		ldr	r0, .L116+4
 179 0094 FFF7FEFF 		bl	assert_failed
 180              	.LVL8:
 181 0098 C7E7     		b	.L6
 182              	.L94:
 238:Drivers/STM32F4xx_HAL_Driver/Src/stm32f4xx_hal_rcc.c ****     {
 183              		.loc 1 238 68 view .LVU43
 184 009a 644B     		ldr	r3, .L116
 185 009c 5B68     		ldr	r3, [r3, #4]
 238:Drivers/STM32F4xx_HAL_Driver/Src/stm32f4xx_hal_rcc.c ****     {
 186              		.loc 1 238 60 view .LVU44
 187 009e 13F4800F 		tst	r3, #4194304
ARM GAS  C:\Temp\ccaZfZb8.s 			page 9


 188 00a2 CED0     		beq	.L8
 189              	.L7:
 240:Drivers/STM32F4xx_HAL_Driver/Src/stm32f4xx_hal_rcc.c ****       {
 190              		.loc 1 240 7 is_stmt 1 view .LVU45
 240:Drivers/STM32F4xx_HAL_Driver/Src/stm32f4xx_hal_rcc.c ****       {
 191              		.loc 1 240 11 is_stmt 0 view .LVU46
 192 00a4 614B     		ldr	r3, .L116
 193 00a6 1B68     		ldr	r3, [r3]
 240:Drivers/STM32F4xx_HAL_Driver/Src/stm32f4xx_hal_rcc.c ****       {
 194              		.loc 1 240 9 view .LVU47
 195 00a8 13F4003F 		tst	r3, #131072
 196 00ac 03D0     		beq	.L5
 240:Drivers/STM32F4xx_HAL_Driver/Src/stm32f4xx_hal_rcc.c ****       {
 197              		.loc 1 240 78 discriminator 1 view .LVU48
 198 00ae 6368     		ldr	r3, [r4, #4]
 240:Drivers/STM32F4xx_HAL_Driver/Src/stm32f4xx_hal_rcc.c ****       {
 199              		.loc 1 240 57 discriminator 1 view .LVU49
 200 00b0 002B     		cmp	r3, #0
 201 00b2 00F00B82 		beq	.L97
 202              	.L5:
 262:Drivers/STM32F4xx_HAL_Driver/Src/stm32f4xx_hal_rcc.c ****           }
 263:Drivers/STM32F4xx_HAL_Driver/Src/stm32f4xx_hal_rcc.c ****         }
 264:Drivers/STM32F4xx_HAL_Driver/Src/stm32f4xx_hal_rcc.c ****       }
 265:Drivers/STM32F4xx_HAL_Driver/Src/stm32f4xx_hal_rcc.c ****       else
 266:Drivers/STM32F4xx_HAL_Driver/Src/stm32f4xx_hal_rcc.c ****       {
 267:Drivers/STM32F4xx_HAL_Driver/Src/stm32f4xx_hal_rcc.c ****         /* Get Start Tick */
 268:Drivers/STM32F4xx_HAL_Driver/Src/stm32f4xx_hal_rcc.c ****         tickstart = HAL_GetTick();
 269:Drivers/STM32F4xx_HAL_Driver/Src/stm32f4xx_hal_rcc.c **** 
 270:Drivers/STM32F4xx_HAL_Driver/Src/stm32f4xx_hal_rcc.c ****         /* Wait till HSE is bypassed or disabled */
 271:Drivers/STM32F4xx_HAL_Driver/Src/stm32f4xx_hal_rcc.c ****         while(__HAL_RCC_GET_FLAG(RCC_FLAG_HSERDY) != RESET)
 272:Drivers/STM32F4xx_HAL_Driver/Src/stm32f4xx_hal_rcc.c ****         {
 273:Drivers/STM32F4xx_HAL_Driver/Src/stm32f4xx_hal_rcc.c ****           if((HAL_GetTick() - tickstart ) > HSE_TIMEOUT_VALUE)
 274:Drivers/STM32F4xx_HAL_Driver/Src/stm32f4xx_hal_rcc.c ****           {
 275:Drivers/STM32F4xx_HAL_Driver/Src/stm32f4xx_hal_rcc.c ****             return HAL_TIMEOUT;
 276:Drivers/STM32F4xx_HAL_Driver/Src/stm32f4xx_hal_rcc.c ****           }
 277:Drivers/STM32F4xx_HAL_Driver/Src/stm32f4xx_hal_rcc.c ****         }
 278:Drivers/STM32F4xx_HAL_Driver/Src/stm32f4xx_hal_rcc.c ****       }
 279:Drivers/STM32F4xx_HAL_Driver/Src/stm32f4xx_hal_rcc.c ****     }
 280:Drivers/STM32F4xx_HAL_Driver/Src/stm32f4xx_hal_rcc.c ****   }
 281:Drivers/STM32F4xx_HAL_Driver/Src/stm32f4xx_hal_rcc.c ****   /*----------------------------- HSI Configuration --------------------------*/
 282:Drivers/STM32F4xx_HAL_Driver/Src/stm32f4xx_hal_rcc.c ****   if(((RCC_OscInitStruct->OscillatorType) & RCC_OSCILLATORTYPE_HSI) == RCC_OSCILLATORTYPE_HSI)
 203              		.loc 1 282 3 is_stmt 1 view .LVU50
 204              		.loc 1 282 25 is_stmt 0 view .LVU51
 205 00b6 2368     		ldr	r3, [r4]
 206              		.loc 1 282 5 view .LVU52
 207 00b8 13F0020F 		tst	r3, #2
 208 00bc 66D0     		beq	.L17
 283:Drivers/STM32F4xx_HAL_Driver/Src/stm32f4xx_hal_rcc.c ****   {
 284:Drivers/STM32F4xx_HAL_Driver/Src/stm32f4xx_hal_rcc.c ****     /* Check the parameters */
 285:Drivers/STM32F4xx_HAL_Driver/Src/stm32f4xx_hal_rcc.c ****     assert_param(IS_RCC_HSI(RCC_OscInitStruct->HSIState));
 209              		.loc 1 285 5 is_stmt 1 view .LVU53
 210 00be E368     		ldr	r3, [r4, #12]
 211 00c0 012B     		cmp	r3, #1
 212 00c2 41D8     		bhi	.L98
 213              	.L18:
 286:Drivers/STM32F4xx_HAL_Driver/Src/stm32f4xx_hal_rcc.c ****     assert_param(IS_RCC_CALIBRATION_VALUE(RCC_OscInitStruct->HSICalibrationValue));
 214              		.loc 1 286 5 view .LVU54
ARM GAS  C:\Temp\ccaZfZb8.s 			page 10


 215 00c4 2369     		ldr	r3, [r4, #16]
 216 00c6 1F2B     		cmp	r3, #31
 217 00c8 44D8     		bhi	.L99
 218              	.L19:
 287:Drivers/STM32F4xx_HAL_Driver/Src/stm32f4xx_hal_rcc.c **** 
 288:Drivers/STM32F4xx_HAL_Driver/Src/stm32f4xx_hal_rcc.c ****     /* Check if HSI is used as system clock or as PLL source when PLL is selected as system clock *
 289:Drivers/STM32F4xx_HAL_Driver/Src/stm32f4xx_hal_rcc.c ****     if((__HAL_RCC_GET_SYSCLK_SOURCE() == RCC_CFGR_SWS_HSI) ||\
 219              		.loc 1 289 5 view .LVU55
 220              		.loc 1 289 9 is_stmt 0 view .LVU56
 221 00ca 584B     		ldr	r3, .L116
 222 00cc 9B68     		ldr	r3, [r3, #8]
 223              		.loc 1 289 7 view .LVU57
 224 00ce 13F00C0F 		tst	r3, #12
 225 00d2 4AD0     		beq	.L20
 290:Drivers/STM32F4xx_HAL_Driver/Src/stm32f4xx_hal_rcc.c ****       ((__HAL_RCC_GET_SYSCLK_SOURCE() == RCC_CFGR_SWS_PLL) && ((RCC->PLLCFGR & RCC_PLLCFGR_PLLSRC) 
 226              		.loc 1 290 9 discriminator 1 view .LVU58
 227 00d4 554B     		ldr	r3, .L116
 228 00d6 9B68     		ldr	r3, [r3, #8]
 229 00d8 03F00C03 		and	r3, r3, #12
 289:Drivers/STM32F4xx_HAL_Driver/Src/stm32f4xx_hal_rcc.c ****       ((__HAL_RCC_GET_SYSCLK_SOURCE() == RCC_CFGR_SWS_PLL) && ((RCC->PLLCFGR & RCC_PLLCFGR_PLLSRC) 
 230              		.loc 1 289 60 discriminator 1 view .LVU59
 231 00dc 082B     		cmp	r3, #8
 232 00de 3FD0     		beq	.L100
 233              	.L21:
 291:Drivers/STM32F4xx_HAL_Driver/Src/stm32f4xx_hal_rcc.c ****     {
 292:Drivers/STM32F4xx_HAL_Driver/Src/stm32f4xx_hal_rcc.c ****       /* When HSI is used as system clock it will not disabled */
 293:Drivers/STM32F4xx_HAL_Driver/Src/stm32f4xx_hal_rcc.c ****       if((__HAL_RCC_GET_FLAG(RCC_FLAG_HSIRDY) != RESET) && (RCC_OscInitStruct->HSIState != RCC_HSI_
 294:Drivers/STM32F4xx_HAL_Driver/Src/stm32f4xx_hal_rcc.c ****       {
 295:Drivers/STM32F4xx_HAL_Driver/Src/stm32f4xx_hal_rcc.c ****         return HAL_ERROR;
 296:Drivers/STM32F4xx_HAL_Driver/Src/stm32f4xx_hal_rcc.c ****       }
 297:Drivers/STM32F4xx_HAL_Driver/Src/stm32f4xx_hal_rcc.c ****       /* Otherwise, just the calibration is allowed */
 298:Drivers/STM32F4xx_HAL_Driver/Src/stm32f4xx_hal_rcc.c ****       else
 299:Drivers/STM32F4xx_HAL_Driver/Src/stm32f4xx_hal_rcc.c ****       {
 300:Drivers/STM32F4xx_HAL_Driver/Src/stm32f4xx_hal_rcc.c ****         /* Adjusts the Internal High Speed oscillator (HSI) calibration value.*/
 301:Drivers/STM32F4xx_HAL_Driver/Src/stm32f4xx_hal_rcc.c ****         __HAL_RCC_HSI_CALIBRATIONVALUE_ADJUST(RCC_OscInitStruct->HSICalibrationValue);
 302:Drivers/STM32F4xx_HAL_Driver/Src/stm32f4xx_hal_rcc.c ****       }
 303:Drivers/STM32F4xx_HAL_Driver/Src/stm32f4xx_hal_rcc.c ****     }
 304:Drivers/STM32F4xx_HAL_Driver/Src/stm32f4xx_hal_rcc.c ****     else
 305:Drivers/STM32F4xx_HAL_Driver/Src/stm32f4xx_hal_rcc.c ****     {
 306:Drivers/STM32F4xx_HAL_Driver/Src/stm32f4xx_hal_rcc.c ****       /* Check the HSI State */
 307:Drivers/STM32F4xx_HAL_Driver/Src/stm32f4xx_hal_rcc.c ****       if((RCC_OscInitStruct->HSIState)!= RCC_HSI_OFF)
 234              		.loc 1 307 7 is_stmt 1 view .LVU60
 235              		.loc 1 307 28 is_stmt 0 view .LVU61
 236 00e0 E368     		ldr	r3, [r4, #12]
 237              		.loc 1 307 9 view .LVU62
 238 00e2 002B     		cmp	r3, #0
 239 00e4 77D0     		beq	.L23
 308:Drivers/STM32F4xx_HAL_Driver/Src/stm32f4xx_hal_rcc.c ****       {
 309:Drivers/STM32F4xx_HAL_Driver/Src/stm32f4xx_hal_rcc.c ****         /* Enable the Internal High Speed oscillator (HSI). */
 310:Drivers/STM32F4xx_HAL_Driver/Src/stm32f4xx_hal_rcc.c ****         __HAL_RCC_HSI_ENABLE();
 240              		.loc 1 310 9 is_stmt 1 view .LVU63
 241 00e6 534B     		ldr	r3, .L116+8
 242 00e8 0122     		movs	r2, #1
 243 00ea 1A60     		str	r2, [r3]
 311:Drivers/STM32F4xx_HAL_Driver/Src/stm32f4xx_hal_rcc.c **** 
 312:Drivers/STM32F4xx_HAL_Driver/Src/stm32f4xx_hal_rcc.c ****         /* Get Start Tick*/
 313:Drivers/STM32F4xx_HAL_Driver/Src/stm32f4xx_hal_rcc.c ****         tickstart = HAL_GetTick();
ARM GAS  C:\Temp\ccaZfZb8.s 			page 11


 244              		.loc 1 313 9 view .LVU64
 245              		.loc 1 313 21 is_stmt 0 view .LVU65
 246 00ec FFF7FEFF 		bl	HAL_GetTick
 247              	.LVL9:
 248 00f0 0546     		mov	r5, r0
 249              	.LVL10:
 314:Drivers/STM32F4xx_HAL_Driver/Src/stm32f4xx_hal_rcc.c **** 
 315:Drivers/STM32F4xx_HAL_Driver/Src/stm32f4xx_hal_rcc.c ****         /* Wait till HSI is ready */
 316:Drivers/STM32F4xx_HAL_Driver/Src/stm32f4xx_hal_rcc.c ****         while(__HAL_RCC_GET_FLAG(RCC_FLAG_HSIRDY) == RESET)
 250              		.loc 1 316 9 is_stmt 1 view .LVU66
 251              	.L24:
 252              		.loc 1 316 51 view .LVU67
 253              		.loc 1 316 15 is_stmt 0 view .LVU68
 254 00f2 4E4B     		ldr	r3, .L116
 255 00f4 1B68     		ldr	r3, [r3]
 256              		.loc 1 316 51 view .LVU69
 257 00f6 13F0020F 		tst	r3, #2
 258 00fa 63D1     		bne	.L101
 317:Drivers/STM32F4xx_HAL_Driver/Src/stm32f4xx_hal_rcc.c ****         {
 318:Drivers/STM32F4xx_HAL_Driver/Src/stm32f4xx_hal_rcc.c ****           if((HAL_GetTick() - tickstart ) > HSI_TIMEOUT_VALUE)
 259              		.loc 1 318 11 is_stmt 1 view .LVU70
 260              		.loc 1 318 15 is_stmt 0 view .LVU71
 261 00fc FFF7FEFF 		bl	HAL_GetTick
 262              	.LVL11:
 263              		.loc 1 318 29 view .LVU72
 264 0100 401B     		subs	r0, r0, r5
 265              		.loc 1 318 13 view .LVU73
 266 0102 0228     		cmp	r0, #2
 267 0104 F5D9     		bls	.L24
 319:Drivers/STM32F4xx_HAL_Driver/Src/stm32f4xx_hal_rcc.c ****           {
 320:Drivers/STM32F4xx_HAL_Driver/Src/stm32f4xx_hal_rcc.c ****             return HAL_TIMEOUT;
 268              		.loc 1 320 20 view .LVU74
 269 0106 0320     		movs	r0, #3
 270 0108 E5E1     		b	.L3
 271              	.LVL12:
 272              	.L95:
 248:Drivers/STM32F4xx_HAL_Driver/Src/stm32f4xx_hal_rcc.c **** 
 273              		.loc 1 248 7 is_stmt 1 discriminator 1 view .LVU75
 274 010a 484A     		ldr	r2, .L116
 275 010c 1368     		ldr	r3, [r2]
 276 010e 43F48033 		orr	r3, r3, #65536
 277 0112 1360     		str	r3, [r2]
 278 0114 A5E7     		b	.L10
 279              	.L96:
 248:Drivers/STM32F4xx_HAL_Driver/Src/stm32f4xx_hal_rcc.c **** 
 280              		.loc 1 248 7 discriminator 4 view .LVU76
 281 0116 454B     		ldr	r3, .L116
 282 0118 1A68     		ldr	r2, [r3]
 283 011a 42F48022 		orr	r2, r2, #262144
 284 011e 1A60     		str	r2, [r3]
 248:Drivers/STM32F4xx_HAL_Driver/Src/stm32f4xx_hal_rcc.c **** 
 285              		.loc 1 248 7 discriminator 4 view .LVU77
 286 0120 1A68     		ldr	r2, [r3]
 287 0122 42F48032 		orr	r2, r2, #65536
 288 0126 1A60     		str	r2, [r3]
 289 0128 9BE7     		b	.L10
 290              	.L12:
ARM GAS  C:\Temp\ccaZfZb8.s 			page 12


 268:Drivers/STM32F4xx_HAL_Driver/Src/stm32f4xx_hal_rcc.c **** 
 291              		.loc 1 268 9 view .LVU78
 268:Drivers/STM32F4xx_HAL_Driver/Src/stm32f4xx_hal_rcc.c **** 
 292              		.loc 1 268 21 is_stmt 0 view .LVU79
 293 012a FFF7FEFF 		bl	HAL_GetTick
 294              	.LVL13:
 295 012e 0546     		mov	r5, r0
 296              	.LVL14:
 271:Drivers/STM32F4xx_HAL_Driver/Src/stm32f4xx_hal_rcc.c ****         {
 297              		.loc 1 271 9 is_stmt 1 view .LVU80
 298              	.L15:
 271:Drivers/STM32F4xx_HAL_Driver/Src/stm32f4xx_hal_rcc.c ****         {
 299              		.loc 1 271 51 view .LVU81
 271:Drivers/STM32F4xx_HAL_Driver/Src/stm32f4xx_hal_rcc.c ****         {
 300              		.loc 1 271 15 is_stmt 0 view .LVU82
 301 0130 3E4B     		ldr	r3, .L116
 302 0132 1B68     		ldr	r3, [r3]
 271:Drivers/STM32F4xx_HAL_Driver/Src/stm32f4xx_hal_rcc.c ****         {
 303              		.loc 1 271 51 view .LVU83
 304 0134 13F4003F 		tst	r3, #131072
 305 0138 BDD0     		beq	.L5
 273:Drivers/STM32F4xx_HAL_Driver/Src/stm32f4xx_hal_rcc.c ****           {
 306              		.loc 1 273 11 is_stmt 1 view .LVU84
 273:Drivers/STM32F4xx_HAL_Driver/Src/stm32f4xx_hal_rcc.c ****           {
 307              		.loc 1 273 15 is_stmt 0 view .LVU85
 308 013a FFF7FEFF 		bl	HAL_GetTick
 309              	.LVL15:
 273:Drivers/STM32F4xx_HAL_Driver/Src/stm32f4xx_hal_rcc.c ****           {
 310              		.loc 1 273 29 view .LVU86
 311 013e 401B     		subs	r0, r0, r5
 273:Drivers/STM32F4xx_HAL_Driver/Src/stm32f4xx_hal_rcc.c ****           {
 312              		.loc 1 273 13 view .LVU87
 313 0140 6428     		cmp	r0, #100
 314 0142 F5D9     		bls	.L15
 275:Drivers/STM32F4xx_HAL_Driver/Src/stm32f4xx_hal_rcc.c ****           }
 315              		.loc 1 275 20 view .LVU88
 316 0144 0320     		movs	r0, #3
 317 0146 C6E1     		b	.L3
 318              	.LVL16:
 319              	.L98:
 285:Drivers/STM32F4xx_HAL_Driver/Src/stm32f4xx_hal_rcc.c ****     assert_param(IS_RCC_CALIBRATION_VALUE(RCC_OscInitStruct->HSICalibrationValue));
 320              		.loc 1 285 5 discriminator 1 view .LVU89
 321 0148 40F21D11 		movw	r1, #285
 322 014c 3848     		ldr	r0, .L116+4
 323 014e FFF7FEFF 		bl	assert_failed
 324              	.LVL17:
 325 0152 B7E7     		b	.L18
 326              	.L99:
 286:Drivers/STM32F4xx_HAL_Driver/Src/stm32f4xx_hal_rcc.c **** 
 327              		.loc 1 286 5 discriminator 1 view .LVU90
 328 0154 4FF48F71 		mov	r1, #286
 329 0158 3548     		ldr	r0, .L116+4
 330 015a FFF7FEFF 		bl	assert_failed
 331              	.LVL18:
 332 015e B4E7     		b	.L19
 333              	.L100:
 290:Drivers/STM32F4xx_HAL_Driver/Src/stm32f4xx_hal_rcc.c ****     {
ARM GAS  C:\Temp\ccaZfZb8.s 			page 13


 334              		.loc 1 290 68 view .LVU91
 335 0160 324B     		ldr	r3, .L116
 336 0162 5B68     		ldr	r3, [r3, #4]
 290:Drivers/STM32F4xx_HAL_Driver/Src/stm32f4xx_hal_rcc.c ****     {
 337              		.loc 1 290 60 view .LVU92
 338 0164 13F4800F 		tst	r3, #4194304
 339 0168 BAD1     		bne	.L21
 340              	.L20:
 293:Drivers/STM32F4xx_HAL_Driver/Src/stm32f4xx_hal_rcc.c ****       {
 341              		.loc 1 293 7 is_stmt 1 view .LVU93
 293:Drivers/STM32F4xx_HAL_Driver/Src/stm32f4xx_hal_rcc.c ****       {
 342              		.loc 1 293 11 is_stmt 0 view .LVU94
 343 016a 304B     		ldr	r3, .L116
 344 016c 1B68     		ldr	r3, [r3]
 293:Drivers/STM32F4xx_HAL_Driver/Src/stm32f4xx_hal_rcc.c ****       {
 345              		.loc 1 293 9 view .LVU95
 346 016e 13F0020F 		tst	r3, #2
 347 0172 03D0     		beq	.L22
 293:Drivers/STM32F4xx_HAL_Driver/Src/stm32f4xx_hal_rcc.c ****       {
 348              		.loc 1 293 78 discriminator 1 view .LVU96
 349 0174 E368     		ldr	r3, [r4, #12]
 293:Drivers/STM32F4xx_HAL_Driver/Src/stm32f4xx_hal_rcc.c ****       {
 350              		.loc 1 293 57 discriminator 1 view .LVU97
 351 0176 012B     		cmp	r3, #1
 352 0178 40F0AA81 		bne	.L69
 353              	.L22:
 301:Drivers/STM32F4xx_HAL_Driver/Src/stm32f4xx_hal_rcc.c ****       }
 354              		.loc 1 301 9 is_stmt 1 view .LVU98
 355 017c 2B4A     		ldr	r2, .L116
 356 017e 1368     		ldr	r3, [r2]
 357 0180 23F0F803 		bic	r3, r3, #248
 358 0184 2169     		ldr	r1, [r4, #16]
 359 0186 43EAC103 		orr	r3, r3, r1, lsl #3
 360 018a 1360     		str	r3, [r2]
 361              	.L17:
 321:Drivers/STM32F4xx_HAL_Driver/Src/stm32f4xx_hal_rcc.c ****           }
 322:Drivers/STM32F4xx_HAL_Driver/Src/stm32f4xx_hal_rcc.c ****         }
 323:Drivers/STM32F4xx_HAL_Driver/Src/stm32f4xx_hal_rcc.c **** 
 324:Drivers/STM32F4xx_HAL_Driver/Src/stm32f4xx_hal_rcc.c ****         /* Adjusts the Internal High Speed oscillator (HSI) calibration value. */
 325:Drivers/STM32F4xx_HAL_Driver/Src/stm32f4xx_hal_rcc.c ****         __HAL_RCC_HSI_CALIBRATIONVALUE_ADJUST(RCC_OscInitStruct->HSICalibrationValue);
 326:Drivers/STM32F4xx_HAL_Driver/Src/stm32f4xx_hal_rcc.c ****       }
 327:Drivers/STM32F4xx_HAL_Driver/Src/stm32f4xx_hal_rcc.c ****       else
 328:Drivers/STM32F4xx_HAL_Driver/Src/stm32f4xx_hal_rcc.c ****       {
 329:Drivers/STM32F4xx_HAL_Driver/Src/stm32f4xx_hal_rcc.c ****         /* Disable the Internal High Speed oscillator (HSI). */
 330:Drivers/STM32F4xx_HAL_Driver/Src/stm32f4xx_hal_rcc.c ****         __HAL_RCC_HSI_DISABLE();
 331:Drivers/STM32F4xx_HAL_Driver/Src/stm32f4xx_hal_rcc.c **** 
 332:Drivers/STM32F4xx_HAL_Driver/Src/stm32f4xx_hal_rcc.c ****         /* Get Start Tick*/
 333:Drivers/STM32F4xx_HAL_Driver/Src/stm32f4xx_hal_rcc.c ****         tickstart = HAL_GetTick();
 334:Drivers/STM32F4xx_HAL_Driver/Src/stm32f4xx_hal_rcc.c **** 
 335:Drivers/STM32F4xx_HAL_Driver/Src/stm32f4xx_hal_rcc.c ****         /* Wait till HSI is ready */
 336:Drivers/STM32F4xx_HAL_Driver/Src/stm32f4xx_hal_rcc.c ****         while(__HAL_RCC_GET_FLAG(RCC_FLAG_HSIRDY) != RESET)
 337:Drivers/STM32F4xx_HAL_Driver/Src/stm32f4xx_hal_rcc.c ****         {
 338:Drivers/STM32F4xx_HAL_Driver/Src/stm32f4xx_hal_rcc.c ****           if((HAL_GetTick() - tickstart ) > HSI_TIMEOUT_VALUE)
 339:Drivers/STM32F4xx_HAL_Driver/Src/stm32f4xx_hal_rcc.c ****           {
 340:Drivers/STM32F4xx_HAL_Driver/Src/stm32f4xx_hal_rcc.c ****             return HAL_TIMEOUT;
 341:Drivers/STM32F4xx_HAL_Driver/Src/stm32f4xx_hal_rcc.c ****           }
 342:Drivers/STM32F4xx_HAL_Driver/Src/stm32f4xx_hal_rcc.c ****         }
ARM GAS  C:\Temp\ccaZfZb8.s 			page 14


 343:Drivers/STM32F4xx_HAL_Driver/Src/stm32f4xx_hal_rcc.c ****       }
 344:Drivers/STM32F4xx_HAL_Driver/Src/stm32f4xx_hal_rcc.c ****     }
 345:Drivers/STM32F4xx_HAL_Driver/Src/stm32f4xx_hal_rcc.c ****   }
 346:Drivers/STM32F4xx_HAL_Driver/Src/stm32f4xx_hal_rcc.c ****   /*------------------------------ LSI Configuration -------------------------*/
 347:Drivers/STM32F4xx_HAL_Driver/Src/stm32f4xx_hal_rcc.c ****   if(((RCC_OscInitStruct->OscillatorType) & RCC_OSCILLATORTYPE_LSI) == RCC_OSCILLATORTYPE_LSI)
 362              		.loc 1 347 3 view .LVU99
 363              		.loc 1 347 25 is_stmt 0 view .LVU100
 364 018c 2368     		ldr	r3, [r4]
 365              		.loc 1 347 5 view .LVU101
 366 018e 13F0080F 		tst	r3, #8
 367 0192 51D0     		beq	.L28
 348:Drivers/STM32F4xx_HAL_Driver/Src/stm32f4xx_hal_rcc.c ****   {
 349:Drivers/STM32F4xx_HAL_Driver/Src/stm32f4xx_hal_rcc.c ****     /* Check the parameters */
 350:Drivers/STM32F4xx_HAL_Driver/Src/stm32f4xx_hal_rcc.c ****     assert_param(IS_RCC_LSI(RCC_OscInitStruct->LSIState));
 368              		.loc 1 350 5 is_stmt 1 view .LVU102
 369 0194 6369     		ldr	r3, [r4, #20]
 370 0196 012B     		cmp	r3, #1
 371 0198 2FD8     		bhi	.L102
 372              	.L29:
 351:Drivers/STM32F4xx_HAL_Driver/Src/stm32f4xx_hal_rcc.c **** 
 352:Drivers/STM32F4xx_HAL_Driver/Src/stm32f4xx_hal_rcc.c ****     /* Check the LSI State */
 353:Drivers/STM32F4xx_HAL_Driver/Src/stm32f4xx_hal_rcc.c ****     if((RCC_OscInitStruct->LSIState)!= RCC_LSI_OFF)
 373              		.loc 1 353 5 view .LVU103
 374              		.loc 1 353 26 is_stmt 0 view .LVU104
 375 019a 6369     		ldr	r3, [r4, #20]
 376              		.loc 1 353 7 view .LVU105
 377 019c 9BB3     		cbz	r3, .L30
 354:Drivers/STM32F4xx_HAL_Driver/Src/stm32f4xx_hal_rcc.c ****     {
 355:Drivers/STM32F4xx_HAL_Driver/Src/stm32f4xx_hal_rcc.c ****       /* Enable the Internal Low Speed oscillator (LSI). */
 356:Drivers/STM32F4xx_HAL_Driver/Src/stm32f4xx_hal_rcc.c ****       __HAL_RCC_LSI_ENABLE();
 378              		.loc 1 356 7 is_stmt 1 view .LVU106
 379 019e 254B     		ldr	r3, .L116+8
 380 01a0 0122     		movs	r2, #1
 381 01a2 C3F8802E 		str	r2, [r3, #3712]
 357:Drivers/STM32F4xx_HAL_Driver/Src/stm32f4xx_hal_rcc.c **** 
 358:Drivers/STM32F4xx_HAL_Driver/Src/stm32f4xx_hal_rcc.c ****       /* Get Start Tick*/
 359:Drivers/STM32F4xx_HAL_Driver/Src/stm32f4xx_hal_rcc.c ****       tickstart = HAL_GetTick();
 382              		.loc 1 359 7 view .LVU107
 383              		.loc 1 359 19 is_stmt 0 view .LVU108
 384 01a6 FFF7FEFF 		bl	HAL_GetTick
 385              	.LVL19:
 386 01aa 0546     		mov	r5, r0
 387              	.LVL20:
 360:Drivers/STM32F4xx_HAL_Driver/Src/stm32f4xx_hal_rcc.c **** 
 361:Drivers/STM32F4xx_HAL_Driver/Src/stm32f4xx_hal_rcc.c ****       /* Wait till LSI is ready */
 362:Drivers/STM32F4xx_HAL_Driver/Src/stm32f4xx_hal_rcc.c ****       while(__HAL_RCC_GET_FLAG(RCC_FLAG_LSIRDY) == RESET)
 388              		.loc 1 362 7 is_stmt 1 view .LVU109
 389              	.L31:
 390              		.loc 1 362 49 view .LVU110
 391              		.loc 1 362 13 is_stmt 0 view .LVU111
 392 01ac 1F4B     		ldr	r3, .L116
 393 01ae 5B6F     		ldr	r3, [r3, #116]
 394              		.loc 1 362 49 view .LVU112
 395 01b0 13F0020F 		tst	r3, #2
 396 01b4 40D1     		bne	.L28
 363:Drivers/STM32F4xx_HAL_Driver/Src/stm32f4xx_hal_rcc.c ****       {
 364:Drivers/STM32F4xx_HAL_Driver/Src/stm32f4xx_hal_rcc.c ****         if((HAL_GetTick() - tickstart ) > LSI_TIMEOUT_VALUE)
ARM GAS  C:\Temp\ccaZfZb8.s 			page 15


 397              		.loc 1 364 9 is_stmt 1 view .LVU113
 398              		.loc 1 364 13 is_stmt 0 view .LVU114
 399 01b6 FFF7FEFF 		bl	HAL_GetTick
 400              	.LVL21:
 401              		.loc 1 364 27 view .LVU115
 402 01ba 401B     		subs	r0, r0, r5
 403              		.loc 1 364 11 view .LVU116
 404 01bc 0228     		cmp	r0, #2
 405 01be F5D9     		bls	.L31
 365:Drivers/STM32F4xx_HAL_Driver/Src/stm32f4xx_hal_rcc.c ****         {
 366:Drivers/STM32F4xx_HAL_Driver/Src/stm32f4xx_hal_rcc.c ****           return HAL_TIMEOUT;
 406              		.loc 1 366 18 view .LVU117
 407 01c0 0320     		movs	r0, #3
 408 01c2 88E1     		b	.L3
 409              	.L101:
 325:Drivers/STM32F4xx_HAL_Driver/Src/stm32f4xx_hal_rcc.c ****       }
 410              		.loc 1 325 9 is_stmt 1 view .LVU118
 411 01c4 194A     		ldr	r2, .L116
 412 01c6 1368     		ldr	r3, [r2]
 413 01c8 23F0F803 		bic	r3, r3, #248
 414 01cc 2169     		ldr	r1, [r4, #16]
 415 01ce 43EAC103 		orr	r3, r3, r1, lsl #3
 416 01d2 1360     		str	r3, [r2]
 417 01d4 DAE7     		b	.L17
 418              	.LVL22:
 419              	.L23:
 330:Drivers/STM32F4xx_HAL_Driver/Src/stm32f4xx_hal_rcc.c **** 
 420              		.loc 1 330 9 view .LVU119
 421 01d6 174B     		ldr	r3, .L116+8
 422 01d8 0022     		movs	r2, #0
 423 01da 1A60     		str	r2, [r3]
 333:Drivers/STM32F4xx_HAL_Driver/Src/stm32f4xx_hal_rcc.c **** 
 424              		.loc 1 333 9 view .LVU120
 333:Drivers/STM32F4xx_HAL_Driver/Src/stm32f4xx_hal_rcc.c **** 
 425              		.loc 1 333 21 is_stmt 0 view .LVU121
 426 01dc FFF7FEFF 		bl	HAL_GetTick
 427              	.LVL23:
 428 01e0 0546     		mov	r5, r0
 429              	.LVL24:
 336:Drivers/STM32F4xx_HAL_Driver/Src/stm32f4xx_hal_rcc.c ****         {
 430              		.loc 1 336 9 is_stmt 1 view .LVU122
 431              	.L26:
 336:Drivers/STM32F4xx_HAL_Driver/Src/stm32f4xx_hal_rcc.c ****         {
 432              		.loc 1 336 51 view .LVU123
 336:Drivers/STM32F4xx_HAL_Driver/Src/stm32f4xx_hal_rcc.c ****         {
 433              		.loc 1 336 15 is_stmt 0 view .LVU124
 434 01e2 124B     		ldr	r3, .L116
 435 01e4 1B68     		ldr	r3, [r3]
 336:Drivers/STM32F4xx_HAL_Driver/Src/stm32f4xx_hal_rcc.c ****         {
 436              		.loc 1 336 51 view .LVU125
 437 01e6 13F0020F 		tst	r3, #2
 438 01ea CFD0     		beq	.L17
 338:Drivers/STM32F4xx_HAL_Driver/Src/stm32f4xx_hal_rcc.c ****           {
 439              		.loc 1 338 11 is_stmt 1 view .LVU126
 338:Drivers/STM32F4xx_HAL_Driver/Src/stm32f4xx_hal_rcc.c ****           {
 440              		.loc 1 338 15 is_stmt 0 view .LVU127
 441 01ec FFF7FEFF 		bl	HAL_GetTick
ARM GAS  C:\Temp\ccaZfZb8.s 			page 16


 442              	.LVL25:
 338:Drivers/STM32F4xx_HAL_Driver/Src/stm32f4xx_hal_rcc.c ****           {
 443              		.loc 1 338 29 view .LVU128
 444 01f0 401B     		subs	r0, r0, r5
 338:Drivers/STM32F4xx_HAL_Driver/Src/stm32f4xx_hal_rcc.c ****           {
 445              		.loc 1 338 13 view .LVU129
 446 01f2 0228     		cmp	r0, #2
 447 01f4 F5D9     		bls	.L26
 340:Drivers/STM32F4xx_HAL_Driver/Src/stm32f4xx_hal_rcc.c ****           }
 448              		.loc 1 340 20 view .LVU130
 449 01f6 0320     		movs	r0, #3
 450 01f8 6DE1     		b	.L3
 451              	.LVL26:
 452              	.L102:
 350:Drivers/STM32F4xx_HAL_Driver/Src/stm32f4xx_hal_rcc.c **** 
 453              		.loc 1 350 5 discriminator 1 view .LVU131
 454 01fa 4FF4AF71 		mov	r1, #350
 455 01fe 0C48     		ldr	r0, .L116+4
 456 0200 FFF7FEFF 		bl	assert_failed
 457              	.LVL27:
 458 0204 C9E7     		b	.L29
 459              	.L30:
 367:Drivers/STM32F4xx_HAL_Driver/Src/stm32f4xx_hal_rcc.c ****         }
 368:Drivers/STM32F4xx_HAL_Driver/Src/stm32f4xx_hal_rcc.c ****       }
 369:Drivers/STM32F4xx_HAL_Driver/Src/stm32f4xx_hal_rcc.c ****     }
 370:Drivers/STM32F4xx_HAL_Driver/Src/stm32f4xx_hal_rcc.c ****     else
 371:Drivers/STM32F4xx_HAL_Driver/Src/stm32f4xx_hal_rcc.c ****     {
 372:Drivers/STM32F4xx_HAL_Driver/Src/stm32f4xx_hal_rcc.c ****       /* Disable the Internal Low Speed oscillator (LSI). */
 373:Drivers/STM32F4xx_HAL_Driver/Src/stm32f4xx_hal_rcc.c ****       __HAL_RCC_LSI_DISABLE();
 460              		.loc 1 373 7 is_stmt 1 view .LVU132
 461 0206 0B4B     		ldr	r3, .L116+8
 462 0208 0022     		movs	r2, #0
 463 020a C3F8802E 		str	r2, [r3, #3712]
 374:Drivers/STM32F4xx_HAL_Driver/Src/stm32f4xx_hal_rcc.c **** 
 375:Drivers/STM32F4xx_HAL_Driver/Src/stm32f4xx_hal_rcc.c ****       /* Get Start Tick */
 376:Drivers/STM32F4xx_HAL_Driver/Src/stm32f4xx_hal_rcc.c ****       tickstart = HAL_GetTick();
 464              		.loc 1 376 7 view .LVU133
 465              		.loc 1 376 19 is_stmt 0 view .LVU134
 466 020e FFF7FEFF 		bl	HAL_GetTick
 467              	.LVL28:
 468 0212 0546     		mov	r5, r0
 469              	.LVL29:
 377:Drivers/STM32F4xx_HAL_Driver/Src/stm32f4xx_hal_rcc.c **** 
 378:Drivers/STM32F4xx_HAL_Driver/Src/stm32f4xx_hal_rcc.c ****       /* Wait till LSI is ready */
 379:Drivers/STM32F4xx_HAL_Driver/Src/stm32f4xx_hal_rcc.c ****       while(__HAL_RCC_GET_FLAG(RCC_FLAG_LSIRDY) != RESET)
 470              		.loc 1 379 7 is_stmt 1 view .LVU135
 471              	.L33:
 472              		.loc 1 379 49 view .LVU136
 473              		.loc 1 379 13 is_stmt 0 view .LVU137
 474 0214 054B     		ldr	r3, .L116
 475 0216 5B6F     		ldr	r3, [r3, #116]
 476              		.loc 1 379 49 view .LVU138
 477 0218 13F0020F 		tst	r3, #2
 478 021c 0CD0     		beq	.L28
 380:Drivers/STM32F4xx_HAL_Driver/Src/stm32f4xx_hal_rcc.c ****       {
 381:Drivers/STM32F4xx_HAL_Driver/Src/stm32f4xx_hal_rcc.c ****         if((HAL_GetTick() - tickstart ) > LSI_TIMEOUT_VALUE)
 479              		.loc 1 381 9 is_stmt 1 view .LVU139
ARM GAS  C:\Temp\ccaZfZb8.s 			page 17


 480              		.loc 1 381 13 is_stmt 0 view .LVU140
 481 021e FFF7FEFF 		bl	HAL_GetTick
 482              	.LVL30:
 483              		.loc 1 381 27 view .LVU141
 484 0222 401B     		subs	r0, r0, r5
 485              		.loc 1 381 11 view .LVU142
 486 0224 0228     		cmp	r0, #2
 487 0226 F5D9     		bls	.L33
 382:Drivers/STM32F4xx_HAL_Driver/Src/stm32f4xx_hal_rcc.c ****         {
 383:Drivers/STM32F4xx_HAL_Driver/Src/stm32f4xx_hal_rcc.c ****           return HAL_TIMEOUT;
 488              		.loc 1 383 18 view .LVU143
 489 0228 0320     		movs	r0, #3
 490 022a 54E1     		b	.L3
 491              	.L117:
 492              		.align	2
 493              	.L116:
 494 022c 00380240 		.word	1073887232
 495 0230 00000000 		.word	.LC0
 496 0234 00004742 		.word	1111949312
 497              	.LVL31:
 498              	.L28:
 384:Drivers/STM32F4xx_HAL_Driver/Src/stm32f4xx_hal_rcc.c ****         }
 385:Drivers/STM32F4xx_HAL_Driver/Src/stm32f4xx_hal_rcc.c ****       }
 386:Drivers/STM32F4xx_HAL_Driver/Src/stm32f4xx_hal_rcc.c ****     }
 387:Drivers/STM32F4xx_HAL_Driver/Src/stm32f4xx_hal_rcc.c ****   }
 388:Drivers/STM32F4xx_HAL_Driver/Src/stm32f4xx_hal_rcc.c ****   /*------------------------------ LSE Configuration -------------------------*/
 389:Drivers/STM32F4xx_HAL_Driver/Src/stm32f4xx_hal_rcc.c ****   if(((RCC_OscInitStruct->OscillatorType) & RCC_OSCILLATORTYPE_LSE) == RCC_OSCILLATORTYPE_LSE)
 499              		.loc 1 389 3 is_stmt 1 view .LVU144
 500              		.loc 1 389 25 is_stmt 0 view .LVU145
 501 0238 2368     		ldr	r3, [r4]
 502              		.loc 1 389 5 view .LVU146
 503 023a 13F0040F 		tst	r3, #4
 504 023e 7CD0     		beq	.L35
 505              	.LBB2:
 390:Drivers/STM32F4xx_HAL_Driver/Src/stm32f4xx_hal_rcc.c ****   {
 391:Drivers/STM32F4xx_HAL_Driver/Src/stm32f4xx_hal_rcc.c ****     FlagStatus       pwrclkchanged = RESET;
 506              		.loc 1 391 5 is_stmt 1 view .LVU147
 507              	.LVL32:
 392:Drivers/STM32F4xx_HAL_Driver/Src/stm32f4xx_hal_rcc.c **** 
 393:Drivers/STM32F4xx_HAL_Driver/Src/stm32f4xx_hal_rcc.c ****     /* Check the parameters */
 394:Drivers/STM32F4xx_HAL_Driver/Src/stm32f4xx_hal_rcc.c ****     assert_param(IS_RCC_LSE(RCC_OscInitStruct->LSEState));
 508              		.loc 1 394 5 view .LVU148
 509 0240 A368     		ldr	r3, [r4, #8]
 510 0242 012B     		cmp	r3, #1
 511 0244 01D9     		bls	.L36
 512              		.loc 1 394 5 is_stmt 0 discriminator 1 view .LVU149
 513 0246 052B     		cmp	r3, #5
 514 0248 38D1     		bne	.L103
 515              	.L36:
 395:Drivers/STM32F4xx_HAL_Driver/Src/stm32f4xx_hal_rcc.c **** 
 396:Drivers/STM32F4xx_HAL_Driver/Src/stm32f4xx_hal_rcc.c ****     /* Update LSE configuration in Backup Domain control register    */
 397:Drivers/STM32F4xx_HAL_Driver/Src/stm32f4xx_hal_rcc.c ****     /* Requires to enable write access to Backup Domain of necessary */
 398:Drivers/STM32F4xx_HAL_Driver/Src/stm32f4xx_hal_rcc.c ****     if(__HAL_RCC_PWR_IS_CLK_DISABLED())
 516              		.loc 1 398 5 is_stmt 1 view .LVU150
 517              		.loc 1 398 8 is_stmt 0 view .LVU151
 518 024a A54B     		ldr	r3, .L118
 519 024c 1B6C     		ldr	r3, [r3, #64]
ARM GAS  C:\Temp\ccaZfZb8.s 			page 18


 520              		.loc 1 398 7 view .LVU152
 521 024e 13F0805F 		tst	r3, #268435456
 522 0252 39D1     		bne	.L74
 399:Drivers/STM32F4xx_HAL_Driver/Src/stm32f4xx_hal_rcc.c ****     {
 400:Drivers/STM32F4xx_HAL_Driver/Src/stm32f4xx_hal_rcc.c ****       __HAL_RCC_PWR_CLK_ENABLE();
 523              		.loc 1 400 7 is_stmt 1 view .LVU153
 524              	.LBB3:
 525              		.loc 1 400 7 view .LVU154
 526 0254 0023     		movs	r3, #0
 527 0256 0193     		str	r3, [sp, #4]
 528              		.loc 1 400 7 view .LVU155
 529 0258 A14B     		ldr	r3, .L118
 530 025a 1A6C     		ldr	r2, [r3, #64]
 531 025c 42F08052 		orr	r2, r2, #268435456
 532 0260 1A64     		str	r2, [r3, #64]
 533              		.loc 1 400 7 view .LVU156
 534 0262 1B6C     		ldr	r3, [r3, #64]
 535 0264 03F08053 		and	r3, r3, #268435456
 536 0268 0193     		str	r3, [sp, #4]
 537              		.loc 1 400 7 view .LVU157
 538 026a 019B     		ldr	r3, [sp, #4]
 539              	.LBE3:
 540              		.loc 1 400 7 view .LVU158
 401:Drivers/STM32F4xx_HAL_Driver/Src/stm32f4xx_hal_rcc.c ****       pwrclkchanged = SET;
 541              		.loc 1 401 7 view .LVU159
 542              	.LVL33:
 543              		.loc 1 401 21 is_stmt 0 view .LVU160
 544 026c 0125     		movs	r5, #1
 545              	.LVL34:
 546              	.L37:
 402:Drivers/STM32F4xx_HAL_Driver/Src/stm32f4xx_hal_rcc.c ****     }
 403:Drivers/STM32F4xx_HAL_Driver/Src/stm32f4xx_hal_rcc.c **** 
 404:Drivers/STM32F4xx_HAL_Driver/Src/stm32f4xx_hal_rcc.c ****     if(HAL_IS_BIT_CLR(PWR->CR, PWR_CR_DBP))
 547              		.loc 1 404 5 is_stmt 1 view .LVU161
 548              		.loc 1 404 8 is_stmt 0 view .LVU162
 549 026e 9D4B     		ldr	r3, .L118+4
 550 0270 1B68     		ldr	r3, [r3]
 551              		.loc 1 404 7 view .LVU163
 552 0272 13F4807F 		tst	r3, #256
 553 0276 29D0     		beq	.L104
 554              	.L38:
 405:Drivers/STM32F4xx_HAL_Driver/Src/stm32f4xx_hal_rcc.c ****     {
 406:Drivers/STM32F4xx_HAL_Driver/Src/stm32f4xx_hal_rcc.c ****       /* Enable write access to Backup domain */
 407:Drivers/STM32F4xx_HAL_Driver/Src/stm32f4xx_hal_rcc.c ****       SET_BIT(PWR->CR, PWR_CR_DBP);
 408:Drivers/STM32F4xx_HAL_Driver/Src/stm32f4xx_hal_rcc.c **** 
 409:Drivers/STM32F4xx_HAL_Driver/Src/stm32f4xx_hal_rcc.c ****       /* Wait for Backup domain Write protection disable */
 410:Drivers/STM32F4xx_HAL_Driver/Src/stm32f4xx_hal_rcc.c ****       tickstart = HAL_GetTick();
 411:Drivers/STM32F4xx_HAL_Driver/Src/stm32f4xx_hal_rcc.c **** 
 412:Drivers/STM32F4xx_HAL_Driver/Src/stm32f4xx_hal_rcc.c ****       while(HAL_IS_BIT_CLR(PWR->CR, PWR_CR_DBP))
 413:Drivers/STM32F4xx_HAL_Driver/Src/stm32f4xx_hal_rcc.c ****       {
 414:Drivers/STM32F4xx_HAL_Driver/Src/stm32f4xx_hal_rcc.c ****         if((HAL_GetTick() - tickstart) > RCC_DBP_TIMEOUT_VALUE)
 415:Drivers/STM32F4xx_HAL_Driver/Src/stm32f4xx_hal_rcc.c ****         {
 416:Drivers/STM32F4xx_HAL_Driver/Src/stm32f4xx_hal_rcc.c ****           return HAL_TIMEOUT;
 417:Drivers/STM32F4xx_HAL_Driver/Src/stm32f4xx_hal_rcc.c ****         }
 418:Drivers/STM32F4xx_HAL_Driver/Src/stm32f4xx_hal_rcc.c ****       }
 419:Drivers/STM32F4xx_HAL_Driver/Src/stm32f4xx_hal_rcc.c ****     }
 420:Drivers/STM32F4xx_HAL_Driver/Src/stm32f4xx_hal_rcc.c **** 
ARM GAS  C:\Temp\ccaZfZb8.s 			page 19


 421:Drivers/STM32F4xx_HAL_Driver/Src/stm32f4xx_hal_rcc.c ****     /* Set the new LSE configuration -----------------------------------------*/
 422:Drivers/STM32F4xx_HAL_Driver/Src/stm32f4xx_hal_rcc.c ****     __HAL_RCC_LSE_CONFIG(RCC_OscInitStruct->LSEState);
 555              		.loc 1 422 5 is_stmt 1 view .LVU164
 556              		.loc 1 422 5 view .LVU165
 557 0278 A368     		ldr	r3, [r4, #8]
 558 027a 012B     		cmp	r3, #1
 559 027c 3AD0     		beq	.L105
 560              		.loc 1 422 5 discriminator 2 view .LVU166
 561 027e 052B     		cmp	r3, #5
 562 0280 3ED0     		beq	.L106
 563              		.loc 1 422 5 discriminator 5 view .LVU167
 564 0282 974B     		ldr	r3, .L118
 565 0284 1A6F     		ldr	r2, [r3, #112]
 566 0286 22F00102 		bic	r2, r2, #1
 567 028a 1A67     		str	r2, [r3, #112]
 568              		.loc 1 422 5 discriminator 5 view .LVU168
 569 028c 1A6F     		ldr	r2, [r3, #112]
 570 028e 22F00402 		bic	r2, r2, #4
 571 0292 1A67     		str	r2, [r3, #112]
 572              	.L42:
 573              		.loc 1 422 5 discriminator 7 view .LVU169
 423:Drivers/STM32F4xx_HAL_Driver/Src/stm32f4xx_hal_rcc.c ****     /* Check the LSE State */
 424:Drivers/STM32F4xx_HAL_Driver/Src/stm32f4xx_hal_rcc.c ****     if((RCC_OscInitStruct->LSEState) != RCC_LSE_OFF)
 574              		.loc 1 424 5 discriminator 7 view .LVU170
 575              		.loc 1 424 26 is_stmt 0 discriminator 7 view .LVU171
 576 0294 A368     		ldr	r3, [r4, #8]
 577              		.loc 1 424 7 discriminator 7 view .LVU172
 578 0296 002B     		cmp	r3, #0
 579 0298 3CD0     		beq	.L44
 425:Drivers/STM32F4xx_HAL_Driver/Src/stm32f4xx_hal_rcc.c ****     {
 426:Drivers/STM32F4xx_HAL_Driver/Src/stm32f4xx_hal_rcc.c ****       /* Get Start Tick*/
 427:Drivers/STM32F4xx_HAL_Driver/Src/stm32f4xx_hal_rcc.c ****       tickstart = HAL_GetTick();
 580              		.loc 1 427 7 is_stmt 1 view .LVU173
 581              		.loc 1 427 19 is_stmt 0 view .LVU174
 582 029a FFF7FEFF 		bl	HAL_GetTick
 583              	.LVL35:
 584 029e 0646     		mov	r6, r0
 585              	.LVL36:
 428:Drivers/STM32F4xx_HAL_Driver/Src/stm32f4xx_hal_rcc.c **** 
 429:Drivers/STM32F4xx_HAL_Driver/Src/stm32f4xx_hal_rcc.c ****       /* Wait till LSE is ready */
 430:Drivers/STM32F4xx_HAL_Driver/Src/stm32f4xx_hal_rcc.c ****       while(__HAL_RCC_GET_FLAG(RCC_FLAG_LSERDY) == RESET)
 586              		.loc 1 430 7 is_stmt 1 view .LVU175
 587              	.L45:
 588              		.loc 1 430 49 view .LVU176
 589              		.loc 1 430 13 is_stmt 0 view .LVU177
 590 02a0 8F4B     		ldr	r3, .L118
 591 02a2 1B6F     		ldr	r3, [r3, #112]
 592              		.loc 1 430 49 view .LVU178
 593 02a4 13F0020F 		tst	r3, #2
 594 02a8 45D1     		bne	.L47
 431:Drivers/STM32F4xx_HAL_Driver/Src/stm32f4xx_hal_rcc.c ****       {
 432:Drivers/STM32F4xx_HAL_Driver/Src/stm32f4xx_hal_rcc.c ****         if((HAL_GetTick() - tickstart ) > RCC_LSE_TIMEOUT_VALUE)
 595              		.loc 1 432 9 is_stmt 1 view .LVU179
 596              		.loc 1 432 13 is_stmt 0 view .LVU180
 597 02aa FFF7FEFF 		bl	HAL_GetTick
 598              	.LVL37:
 599              		.loc 1 432 27 view .LVU181
ARM GAS  C:\Temp\ccaZfZb8.s 			page 20


 600 02ae 801B     		subs	r0, r0, r6
 601              		.loc 1 432 11 view .LVU182
 602 02b0 41F28833 		movw	r3, #5000
 603 02b4 9842     		cmp	r0, r3
 604 02b6 F3D9     		bls	.L45
 433:Drivers/STM32F4xx_HAL_Driver/Src/stm32f4xx_hal_rcc.c ****         {
 434:Drivers/STM32F4xx_HAL_Driver/Src/stm32f4xx_hal_rcc.c ****           return HAL_TIMEOUT;
 605              		.loc 1 434 18 view .LVU183
 606 02b8 0320     		movs	r0, #3
 607 02ba 0CE1     		b	.L3
 608              	.LVL38:
 609              	.L103:
 394:Drivers/STM32F4xx_HAL_Driver/Src/stm32f4xx_hal_rcc.c **** 
 610              		.loc 1 394 5 discriminator 2 view .LVU184
 611 02bc 4FF4C571 		mov	r1, #394
 612 02c0 8948     		ldr	r0, .L118+8
 613 02c2 FFF7FEFF 		bl	assert_failed
 614              	.LVL39:
 615 02c6 C0E7     		b	.L36
 616              	.L74:
 391:Drivers/STM32F4xx_HAL_Driver/Src/stm32f4xx_hal_rcc.c **** 
 617              		.loc 1 391 22 view .LVU185
 618 02c8 0025     		movs	r5, #0
 619 02ca D0E7     		b	.L37
 620              	.LVL40:
 621              	.L104:
 407:Drivers/STM32F4xx_HAL_Driver/Src/stm32f4xx_hal_rcc.c **** 
 622              		.loc 1 407 7 is_stmt 1 view .LVU186
 623 02cc 854A     		ldr	r2, .L118+4
 624 02ce 1368     		ldr	r3, [r2]
 625 02d0 43F48073 		orr	r3, r3, #256
 626 02d4 1360     		str	r3, [r2]
 410:Drivers/STM32F4xx_HAL_Driver/Src/stm32f4xx_hal_rcc.c **** 
 627              		.loc 1 410 7 view .LVU187
 410:Drivers/STM32F4xx_HAL_Driver/Src/stm32f4xx_hal_rcc.c **** 
 628              		.loc 1 410 19 is_stmt 0 view .LVU188
 629 02d6 FFF7FEFF 		bl	HAL_GetTick
 630              	.LVL41:
 631 02da 0646     		mov	r6, r0
 632              	.LVL42:
 412:Drivers/STM32F4xx_HAL_Driver/Src/stm32f4xx_hal_rcc.c ****       {
 633              		.loc 1 412 7 is_stmt 1 view .LVU189
 634              	.L39:
 412:Drivers/STM32F4xx_HAL_Driver/Src/stm32f4xx_hal_rcc.c ****       {
 635              		.loc 1 412 13 view .LVU190
 636 02dc 814B     		ldr	r3, .L118+4
 637 02de 1B68     		ldr	r3, [r3]
 638 02e0 13F4807F 		tst	r3, #256
 639 02e4 C8D1     		bne	.L38
 414:Drivers/STM32F4xx_HAL_Driver/Src/stm32f4xx_hal_rcc.c ****         {
 640              		.loc 1 414 9 view .LVU191
 414:Drivers/STM32F4xx_HAL_Driver/Src/stm32f4xx_hal_rcc.c ****         {
 641              		.loc 1 414 13 is_stmt 0 view .LVU192
 642 02e6 FFF7FEFF 		bl	HAL_GetTick
 643              	.LVL43:
 414:Drivers/STM32F4xx_HAL_Driver/Src/stm32f4xx_hal_rcc.c ****         {
 644              		.loc 1 414 27 view .LVU193
ARM GAS  C:\Temp\ccaZfZb8.s 			page 21


 645 02ea 801B     		subs	r0, r0, r6
 414:Drivers/STM32F4xx_HAL_Driver/Src/stm32f4xx_hal_rcc.c ****         {
 646              		.loc 1 414 11 view .LVU194
 647 02ec 0228     		cmp	r0, #2
 648 02ee F5D9     		bls	.L39
 416:Drivers/STM32F4xx_HAL_Driver/Src/stm32f4xx_hal_rcc.c ****         }
 649              		.loc 1 416 18 view .LVU195
 650 02f0 0320     		movs	r0, #3
 651 02f2 F0E0     		b	.L3
 652              	.LVL44:
 653              	.L105:
 422:Drivers/STM32F4xx_HAL_Driver/Src/stm32f4xx_hal_rcc.c ****     /* Check the LSE State */
 654              		.loc 1 422 5 is_stmt 1 discriminator 1 view .LVU196
 655 02f4 7A4A     		ldr	r2, .L118
 656 02f6 136F     		ldr	r3, [r2, #112]
 657 02f8 43F00103 		orr	r3, r3, #1
 658 02fc 1367     		str	r3, [r2, #112]
 659 02fe C9E7     		b	.L42
 660              	.L106:
 422:Drivers/STM32F4xx_HAL_Driver/Src/stm32f4xx_hal_rcc.c ****     /* Check the LSE State */
 661              		.loc 1 422 5 discriminator 4 view .LVU197
 662 0300 774B     		ldr	r3, .L118
 663 0302 1A6F     		ldr	r2, [r3, #112]
 664 0304 42F00402 		orr	r2, r2, #4
 665 0308 1A67     		str	r2, [r3, #112]
 422:Drivers/STM32F4xx_HAL_Driver/Src/stm32f4xx_hal_rcc.c ****     /* Check the LSE State */
 666              		.loc 1 422 5 discriminator 4 view .LVU198
 667 030a 1A6F     		ldr	r2, [r3, #112]
 668 030c 42F00102 		orr	r2, r2, #1
 669 0310 1A67     		str	r2, [r3, #112]
 670 0312 BFE7     		b	.L42
 671              	.L44:
 435:Drivers/STM32F4xx_HAL_Driver/Src/stm32f4xx_hal_rcc.c ****         }
 436:Drivers/STM32F4xx_HAL_Driver/Src/stm32f4xx_hal_rcc.c ****       }
 437:Drivers/STM32F4xx_HAL_Driver/Src/stm32f4xx_hal_rcc.c ****     }
 438:Drivers/STM32F4xx_HAL_Driver/Src/stm32f4xx_hal_rcc.c ****     else
 439:Drivers/STM32F4xx_HAL_Driver/Src/stm32f4xx_hal_rcc.c ****     {
 440:Drivers/STM32F4xx_HAL_Driver/Src/stm32f4xx_hal_rcc.c ****       /* Get Start Tick */
 441:Drivers/STM32F4xx_HAL_Driver/Src/stm32f4xx_hal_rcc.c ****       tickstart = HAL_GetTick();
 672              		.loc 1 441 7 view .LVU199
 673              		.loc 1 441 19 is_stmt 0 view .LVU200
 674 0314 FFF7FEFF 		bl	HAL_GetTick
 675              	.LVL45:
 676 0318 0646     		mov	r6, r0
 677              	.LVL46:
 442:Drivers/STM32F4xx_HAL_Driver/Src/stm32f4xx_hal_rcc.c **** 
 443:Drivers/STM32F4xx_HAL_Driver/Src/stm32f4xx_hal_rcc.c ****       /* Wait till LSE is ready */
 444:Drivers/STM32F4xx_HAL_Driver/Src/stm32f4xx_hal_rcc.c ****       while(__HAL_RCC_GET_FLAG(RCC_FLAG_LSERDY) != RESET)
 678              		.loc 1 444 7 is_stmt 1 view .LVU201
 679              	.L48:
 680              		.loc 1 444 49 view .LVU202
 681              		.loc 1 444 13 is_stmt 0 view .LVU203
 682 031a 714B     		ldr	r3, .L118
 683 031c 1B6F     		ldr	r3, [r3, #112]
 684              		.loc 1 444 49 view .LVU204
 685 031e 13F0020F 		tst	r3, #2
 686 0322 08D0     		beq	.L47
ARM GAS  C:\Temp\ccaZfZb8.s 			page 22


 445:Drivers/STM32F4xx_HAL_Driver/Src/stm32f4xx_hal_rcc.c ****       {
 446:Drivers/STM32F4xx_HAL_Driver/Src/stm32f4xx_hal_rcc.c ****         if((HAL_GetTick() - tickstart ) > RCC_LSE_TIMEOUT_VALUE)
 687              		.loc 1 446 9 is_stmt 1 view .LVU205
 688              		.loc 1 446 13 is_stmt 0 view .LVU206
 689 0324 FFF7FEFF 		bl	HAL_GetTick
 690              	.LVL47:
 691              		.loc 1 446 27 view .LVU207
 692 0328 801B     		subs	r0, r0, r6
 693              		.loc 1 446 11 view .LVU208
 694 032a 41F28833 		movw	r3, #5000
 695 032e 9842     		cmp	r0, r3
 696 0330 F3D9     		bls	.L48
 447:Drivers/STM32F4xx_HAL_Driver/Src/stm32f4xx_hal_rcc.c ****         {
 448:Drivers/STM32F4xx_HAL_Driver/Src/stm32f4xx_hal_rcc.c ****           return HAL_TIMEOUT;
 697              		.loc 1 448 18 view .LVU209
 698 0332 0320     		movs	r0, #3
 699 0334 CFE0     		b	.L3
 700              	.L47:
 449:Drivers/STM32F4xx_HAL_Driver/Src/stm32f4xx_hal_rcc.c ****         }
 450:Drivers/STM32F4xx_HAL_Driver/Src/stm32f4xx_hal_rcc.c ****       }
 451:Drivers/STM32F4xx_HAL_Driver/Src/stm32f4xx_hal_rcc.c ****     }
 452:Drivers/STM32F4xx_HAL_Driver/Src/stm32f4xx_hal_rcc.c **** 
 453:Drivers/STM32F4xx_HAL_Driver/Src/stm32f4xx_hal_rcc.c ****     /* Restore clock configuration if changed */
 454:Drivers/STM32F4xx_HAL_Driver/Src/stm32f4xx_hal_rcc.c ****     if(pwrclkchanged == SET)
 701              		.loc 1 454 5 is_stmt 1 view .LVU210
 702              		.loc 1 454 7 is_stmt 0 view .LVU211
 703 0336 002D     		cmp	r5, #0
 704 0338 3FD1     		bne	.L107
 705              	.LVL48:
 706              	.L35:
 707              		.loc 1 454 7 view .LVU212
 708              	.LBE2:
 455:Drivers/STM32F4xx_HAL_Driver/Src/stm32f4xx_hal_rcc.c ****     {
 456:Drivers/STM32F4xx_HAL_Driver/Src/stm32f4xx_hal_rcc.c ****       __HAL_RCC_PWR_CLK_DISABLE();
 457:Drivers/STM32F4xx_HAL_Driver/Src/stm32f4xx_hal_rcc.c ****     }
 458:Drivers/STM32F4xx_HAL_Driver/Src/stm32f4xx_hal_rcc.c ****   }
 459:Drivers/STM32F4xx_HAL_Driver/Src/stm32f4xx_hal_rcc.c ****   /*-------------------------------- PLL Configuration -----------------------*/
 460:Drivers/STM32F4xx_HAL_Driver/Src/stm32f4xx_hal_rcc.c ****   /* Check the parameters */
 461:Drivers/STM32F4xx_HAL_Driver/Src/stm32f4xx_hal_rcc.c ****   assert_param(IS_RCC_PLL(RCC_OscInitStruct->PLL.PLLState));
 709              		.loc 1 461 3 is_stmt 1 view .LVU213
 710 033a A369     		ldr	r3, [r4, #24]
 711 033c 022B     		cmp	r3, #2
 712 033e 42D8     		bhi	.L108
 713              	.L50:
 462:Drivers/STM32F4xx_HAL_Driver/Src/stm32f4xx_hal_rcc.c ****   if ((RCC_OscInitStruct->PLL.PLLState) != RCC_PLL_NONE)
 714              		.loc 1 462 3 view .LVU214
 715              		.loc 1 462 30 is_stmt 0 view .LVU215
 716 0340 A369     		ldr	r3, [r4, #24]
 717              		.loc 1 462 6 view .LVU216
 718 0342 002B     		cmp	r3, #0
 719 0344 00F0C680 		beq	.L78
 463:Drivers/STM32F4xx_HAL_Driver/Src/stm32f4xx_hal_rcc.c ****   {
 464:Drivers/STM32F4xx_HAL_Driver/Src/stm32f4xx_hal_rcc.c ****     /* Check if the PLL is used as system clock or not */
 465:Drivers/STM32F4xx_HAL_Driver/Src/stm32f4xx_hal_rcc.c ****     if(__HAL_RCC_GET_SYSCLK_SOURCE() != RCC_CFGR_SWS_PLL)
 720              		.loc 1 465 5 is_stmt 1 view .LVU217
 721              		.loc 1 465 8 is_stmt 0 view .LVU218
 722 0348 654A     		ldr	r2, .L118
ARM GAS  C:\Temp\ccaZfZb8.s 			page 23


 723 034a 9268     		ldr	r2, [r2, #8]
 724 034c 02F00C02 		and	r2, r2, #12
 725              		.loc 1 465 7 view .LVU219
 726 0350 082A     		cmp	r2, #8
 727 0352 00F09480 		beq	.L51
 466:Drivers/STM32F4xx_HAL_Driver/Src/stm32f4xx_hal_rcc.c ****     {
 467:Drivers/STM32F4xx_HAL_Driver/Src/stm32f4xx_hal_rcc.c ****       if((RCC_OscInitStruct->PLL.PLLState) == RCC_PLL_ON)
 728              		.loc 1 467 7 is_stmt 1 view .LVU220
 729              		.loc 1 467 9 is_stmt 0 view .LVU221
 730 0356 022B     		cmp	r3, #2
 731 0358 7DD1     		bne	.L52
 468:Drivers/STM32F4xx_HAL_Driver/Src/stm32f4xx_hal_rcc.c ****       {
 469:Drivers/STM32F4xx_HAL_Driver/Src/stm32f4xx_hal_rcc.c ****         /* Check the parameters */
 470:Drivers/STM32F4xx_HAL_Driver/Src/stm32f4xx_hal_rcc.c ****         assert_param(IS_RCC_PLLSOURCE(RCC_OscInitStruct->PLL.PLLSource));
 732              		.loc 1 470 9 is_stmt 1 view .LVU222
 733 035a E369     		ldr	r3, [r4, #28]
 734 035c 13B1     		cbz	r3, .L53
 735              		.loc 1 470 9 is_stmt 0 discriminator 1 view .LVU223
 736 035e B3F5800F 		cmp	r3, #4194304
 737 0362 36D1     		bne	.L109
 738              	.L53:
 471:Drivers/STM32F4xx_HAL_Driver/Src/stm32f4xx_hal_rcc.c ****         assert_param(IS_RCC_PLLM_VALUE(RCC_OscInitStruct->PLL.PLLM));
 739              		.loc 1 471 9 is_stmt 1 view .LVU224
 740 0364 236A     		ldr	r3, [r4, #32]
 741 0366 023B     		subs	r3, r3, #2
 742 0368 3D2B     		cmp	r3, #61
 743 036a 38D8     		bhi	.L110
 744              	.L54:
 472:Drivers/STM32F4xx_HAL_Driver/Src/stm32f4xx_hal_rcc.c ****         assert_param(IS_RCC_PLLN_VALUE(RCC_OscInitStruct->PLL.PLLN));
 745              		.loc 1 472 9 view .LVU225
 746 036c 636A     		ldr	r3, [r4, #36]
 747 036e 323B     		subs	r3, r3, #50
 748 0370 B3F5BF7F 		cmp	r3, #382
 749 0374 39D8     		bhi	.L111
 750              	.L55:
 473:Drivers/STM32F4xx_HAL_Driver/Src/stm32f4xx_hal_rcc.c ****         assert_param(IS_RCC_PLLP_VALUE(RCC_OscInitStruct->PLL.PLLP));
 751              		.loc 1 473 9 view .LVU226
 752 0376 A36A     		ldr	r3, [r4, #40]
 753 0378 022B     		cmp	r3, #2
 754 037a 08D0     		beq	.L56
 755 037c 082B     		cmp	r3, #8
 756 037e 3AD8     		bhi	.L57
 757 0380 4FF4A872 		mov	r2, #336
 758 0384 22FA03F3 		lsr	r3, r2, r3
 759 0388 13F0010F 		tst	r3, #1
 760 038c 33D0     		beq	.L57
 761              	.L56:
 474:Drivers/STM32F4xx_HAL_Driver/Src/stm32f4xx_hal_rcc.c ****         assert_param(IS_RCC_PLLQ_VALUE(RCC_OscInitStruct->PLL.PLLQ));
 762              		.loc 1 474 9 view .LVU227
 763 038e E36A     		ldr	r3, [r4, #44]
 764 0390 023B     		subs	r3, r3, #2
 765 0392 0D2B     		cmp	r3, #13
 766 0394 35D8     		bhi	.L112
 767              	.L58:
 475:Drivers/STM32F4xx_HAL_Driver/Src/stm32f4xx_hal_rcc.c **** 
 476:Drivers/STM32F4xx_HAL_Driver/Src/stm32f4xx_hal_rcc.c ****         /* Disable the main PLL. */
 477:Drivers/STM32F4xx_HAL_Driver/Src/stm32f4xx_hal_rcc.c ****         __HAL_RCC_PLL_DISABLE();
ARM GAS  C:\Temp\ccaZfZb8.s 			page 24


 768              		.loc 1 477 9 view .LVU228
 769 0396 554B     		ldr	r3, .L118+12
 770 0398 0022     		movs	r2, #0
 771 039a 1A66     		str	r2, [r3, #96]
 478:Drivers/STM32F4xx_HAL_Driver/Src/stm32f4xx_hal_rcc.c **** 
 479:Drivers/STM32F4xx_HAL_Driver/Src/stm32f4xx_hal_rcc.c ****         /* Get Start Tick */
 480:Drivers/STM32F4xx_HAL_Driver/Src/stm32f4xx_hal_rcc.c ****         tickstart = HAL_GetTick();
 772              		.loc 1 480 9 view .LVU229
 773              		.loc 1 480 21 is_stmt 0 view .LVU230
 774 039c FFF7FEFF 		bl	HAL_GetTick
 775              	.LVL49:
 776 03a0 0546     		mov	r5, r0
 777              	.LVL50:
 481:Drivers/STM32F4xx_HAL_Driver/Src/stm32f4xx_hal_rcc.c **** 
 482:Drivers/STM32F4xx_HAL_Driver/Src/stm32f4xx_hal_rcc.c ****         /* Wait till PLL is disabled */
 483:Drivers/STM32F4xx_HAL_Driver/Src/stm32f4xx_hal_rcc.c ****         while(__HAL_RCC_GET_FLAG(RCC_FLAG_PLLRDY) != RESET)
 778              		.loc 1 483 9 is_stmt 1 view .LVU231
 779              	.L59:
 780              		.loc 1 483 51 view .LVU232
 781              		.loc 1 483 15 is_stmt 0 view .LVU233
 782 03a2 4F4B     		ldr	r3, .L118
 783 03a4 1B68     		ldr	r3, [r3]
 784              		.loc 1 483 51 view .LVU234
 785 03a6 13F0007F 		tst	r3, #33554432
 786 03aa 30D0     		beq	.L113
 484:Drivers/STM32F4xx_HAL_Driver/Src/stm32f4xx_hal_rcc.c ****         {
 485:Drivers/STM32F4xx_HAL_Driver/Src/stm32f4xx_hal_rcc.c ****           if((HAL_GetTick() - tickstart ) > PLL_TIMEOUT_VALUE)
 787              		.loc 1 485 11 is_stmt 1 view .LVU235
 788              		.loc 1 485 15 is_stmt 0 view .LVU236
 789 03ac FFF7FEFF 		bl	HAL_GetTick
 790              	.LVL51:
 791              		.loc 1 485 29 view .LVU237
 792 03b0 401B     		subs	r0, r0, r5
 793              		.loc 1 485 13 view .LVU238
 794 03b2 0228     		cmp	r0, #2
 795 03b4 F5D9     		bls	.L59
 486:Drivers/STM32F4xx_HAL_Driver/Src/stm32f4xx_hal_rcc.c ****           {
 487:Drivers/STM32F4xx_HAL_Driver/Src/stm32f4xx_hal_rcc.c ****             return HAL_TIMEOUT;
 796              		.loc 1 487 20 view .LVU239
 797 03b6 0320     		movs	r0, #3
 798 03b8 8DE0     		b	.L3
 799              	.LVL52:
 800              	.L107:
 801              	.LBB4:
 456:Drivers/STM32F4xx_HAL_Driver/Src/stm32f4xx_hal_rcc.c ****     }
 802              		.loc 1 456 7 is_stmt 1 view .LVU240
 803 03ba 494A     		ldr	r2, .L118
 804 03bc 136C     		ldr	r3, [r2, #64]
 805 03be 23F08053 		bic	r3, r3, #268435456
 806 03c2 1364     		str	r3, [r2, #64]
 807 03c4 B9E7     		b	.L35
 808              	.LVL53:
 809              	.L108:
 456:Drivers/STM32F4xx_HAL_Driver/Src/stm32f4xx_hal_rcc.c ****     }
 810              		.loc 1 456 7 is_stmt 0 view .LVU241
 811              	.LBE4:
 461:Drivers/STM32F4xx_HAL_Driver/Src/stm32f4xx_hal_rcc.c ****   if ((RCC_OscInitStruct->PLL.PLLState) != RCC_PLL_NONE)
ARM GAS  C:\Temp\ccaZfZb8.s 			page 25


 812              		.loc 1 461 3 discriminator 1 view .LVU242
 813 03c6 40F2CD11 		movw	r1, #461
 814 03ca 4748     		ldr	r0, .L118+8
 815 03cc FFF7FEFF 		bl	assert_failed
 816              	.LVL54:
 817 03d0 B6E7     		b	.L50
 818              	.L109:
 470:Drivers/STM32F4xx_HAL_Driver/Src/stm32f4xx_hal_rcc.c ****         assert_param(IS_RCC_PLLM_VALUE(RCC_OscInitStruct->PLL.PLLM));
 819              		.loc 1 470 9 discriminator 2 view .LVU243
 820 03d2 4FF4EB71 		mov	r1, #470
 821 03d6 4448     		ldr	r0, .L118+8
 822 03d8 FFF7FEFF 		bl	assert_failed
 823              	.LVL55:
 824 03dc C2E7     		b	.L53
 825              	.L110:
 471:Drivers/STM32F4xx_HAL_Driver/Src/stm32f4xx_hal_rcc.c ****         assert_param(IS_RCC_PLLN_VALUE(RCC_OscInitStruct->PLL.PLLN));
 826              		.loc 1 471 9 discriminator 1 view .LVU244
 827 03de 40F2D711 		movw	r1, #471
 828 03e2 4148     		ldr	r0, .L118+8
 829 03e4 FFF7FEFF 		bl	assert_failed
 830              	.LVL56:
 831 03e8 C0E7     		b	.L54
 832              	.L111:
 472:Drivers/STM32F4xx_HAL_Driver/Src/stm32f4xx_hal_rcc.c ****         assert_param(IS_RCC_PLLP_VALUE(RCC_OscInitStruct->PLL.PLLP));
 833              		.loc 1 472 9 discriminator 1 view .LVU245
 834 03ea 4FF4EC71 		mov	r1, #472
 835 03ee 3E48     		ldr	r0, .L118+8
 836 03f0 FFF7FEFF 		bl	assert_failed
 837              	.LVL57:
 838 03f4 BFE7     		b	.L55
 839              	.L57:
 473:Drivers/STM32F4xx_HAL_Driver/Src/stm32f4xx_hal_rcc.c ****         assert_param(IS_RCC_PLLQ_VALUE(RCC_OscInitStruct->PLL.PLLQ));
 840              		.loc 1 473 9 discriminator 4 view .LVU246
 841 03f6 40F2D911 		movw	r1, #473
 842 03fa 3B48     		ldr	r0, .L118+8
 843 03fc FFF7FEFF 		bl	assert_failed
 844              	.LVL58:
 845 0400 C5E7     		b	.L56
 846              	.L112:
 474:Drivers/STM32F4xx_HAL_Driver/Src/stm32f4xx_hal_rcc.c **** 
 847              		.loc 1 474 9 discriminator 1 view .LVU247
 848 0402 4FF4ED71 		mov	r1, #474
 849 0406 3848     		ldr	r0, .L118+8
 850 0408 FFF7FEFF 		bl	assert_failed
 851              	.LVL59:
 852 040c C3E7     		b	.L58
 853              	.LVL60:
 854              	.L113:
 488:Drivers/STM32F4xx_HAL_Driver/Src/stm32f4xx_hal_rcc.c ****           }
 489:Drivers/STM32F4xx_HAL_Driver/Src/stm32f4xx_hal_rcc.c ****         }
 490:Drivers/STM32F4xx_HAL_Driver/Src/stm32f4xx_hal_rcc.c **** 
 491:Drivers/STM32F4xx_HAL_Driver/Src/stm32f4xx_hal_rcc.c ****         /* Configure the main PLL clock source, multiplication and division factors. */
 492:Drivers/STM32F4xx_HAL_Driver/Src/stm32f4xx_hal_rcc.c ****         WRITE_REG(RCC->PLLCFGR, (RCC_OscInitStruct->PLL.PLLSource                                  
 855              		.loc 1 492 9 is_stmt 1 view .LVU248
 856 040e E369     		ldr	r3, [r4, #28]
 857 0410 226A     		ldr	r2, [r4, #32]
 858 0412 1343     		orrs	r3, r3, r2
ARM GAS  C:\Temp\ccaZfZb8.s 			page 26


 859 0414 626A     		ldr	r2, [r4, #36]
 860 0416 43EA8213 		orr	r3, r3, r2, lsl #6
 861 041a A26A     		ldr	r2, [r4, #40]
 862 041c 5208     		lsrs	r2, r2, #1
 863 041e 013A     		subs	r2, r2, #1
 864 0420 43EA0243 		orr	r3, r3, r2, lsl #16
 865 0424 E26A     		ldr	r2, [r4, #44]
 866 0426 43EA0263 		orr	r3, r3, r2, lsl #24
 867 042a 2D4A     		ldr	r2, .L118
 868 042c 5360     		str	r3, [r2, #4]
 493:Drivers/STM32F4xx_HAL_Driver/Src/stm32f4xx_hal_rcc.c ****                                  RCC_OscInitStruct->PLL.PLLM                                       
 494:Drivers/STM32F4xx_HAL_Driver/Src/stm32f4xx_hal_rcc.c ****                                  (RCC_OscInitStruct->PLL.PLLN << RCC_PLLCFGR_PLLN_Pos)             
 495:Drivers/STM32F4xx_HAL_Driver/Src/stm32f4xx_hal_rcc.c ****                                  (((RCC_OscInitStruct->PLL.PLLP >> 1U) - 1U) << RCC_PLLCFGR_PLLP_Po
 496:Drivers/STM32F4xx_HAL_Driver/Src/stm32f4xx_hal_rcc.c ****                                  (RCC_OscInitStruct->PLL.PLLQ << RCC_PLLCFGR_PLLQ_Pos)));
 497:Drivers/STM32F4xx_HAL_Driver/Src/stm32f4xx_hal_rcc.c ****         /* Enable the main PLL. */
 498:Drivers/STM32F4xx_HAL_Driver/Src/stm32f4xx_hal_rcc.c ****         __HAL_RCC_PLL_ENABLE();
 869              		.loc 1 498 9 view .LVU249
 870 042e 2F4B     		ldr	r3, .L118+12
 871 0430 0122     		movs	r2, #1
 872 0432 1A66     		str	r2, [r3, #96]
 499:Drivers/STM32F4xx_HAL_Driver/Src/stm32f4xx_hal_rcc.c **** 
 500:Drivers/STM32F4xx_HAL_Driver/Src/stm32f4xx_hal_rcc.c ****         /* Get Start Tick */
 501:Drivers/STM32F4xx_HAL_Driver/Src/stm32f4xx_hal_rcc.c ****         tickstart = HAL_GetTick();
 873              		.loc 1 501 9 view .LVU250
 874              		.loc 1 501 21 is_stmt 0 view .LVU251
 875 0434 FFF7FEFF 		bl	HAL_GetTick
 876              	.LVL61:
 877 0438 0446     		mov	r4, r0
 878              	.LVL62:
 502:Drivers/STM32F4xx_HAL_Driver/Src/stm32f4xx_hal_rcc.c **** 
 503:Drivers/STM32F4xx_HAL_Driver/Src/stm32f4xx_hal_rcc.c ****         /* Wait till PLL is ready */
 504:Drivers/STM32F4xx_HAL_Driver/Src/stm32f4xx_hal_rcc.c ****         while(__HAL_RCC_GET_FLAG(RCC_FLAG_PLLRDY) == RESET)
 879              		.loc 1 504 9 is_stmt 1 view .LVU252
 880              	.L61:
 881              		.loc 1 504 51 view .LVU253
 882              		.loc 1 504 15 is_stmt 0 view .LVU254
 883 043a 294B     		ldr	r3, .L118
 884 043c 1B68     		ldr	r3, [r3]
 885              		.loc 1 504 51 view .LVU255
 886 043e 13F0007F 		tst	r3, #33554432
 887 0442 06D1     		bne	.L114
 505:Drivers/STM32F4xx_HAL_Driver/Src/stm32f4xx_hal_rcc.c ****         {
 506:Drivers/STM32F4xx_HAL_Driver/Src/stm32f4xx_hal_rcc.c ****           if((HAL_GetTick() - tickstart ) > PLL_TIMEOUT_VALUE)
 888              		.loc 1 506 11 is_stmt 1 view .LVU256
 889              		.loc 1 506 15 is_stmt 0 view .LVU257
 890 0444 FFF7FEFF 		bl	HAL_GetTick
 891              	.LVL63:
 892              		.loc 1 506 29 view .LVU258
 893 0448 001B     		subs	r0, r0, r4
 894              		.loc 1 506 13 view .LVU259
 895 044a 0228     		cmp	r0, #2
 896 044c F5D9     		bls	.L61
 507:Drivers/STM32F4xx_HAL_Driver/Src/stm32f4xx_hal_rcc.c ****           {
 508:Drivers/STM32F4xx_HAL_Driver/Src/stm32f4xx_hal_rcc.c ****             return HAL_TIMEOUT;
 897              		.loc 1 508 20 view .LVU260
 898 044e 0320     		movs	r0, #3
 899 0450 41E0     		b	.L3
ARM GAS  C:\Temp\ccaZfZb8.s 			page 27


 900              	.L114:
 509:Drivers/STM32F4xx_HAL_Driver/Src/stm32f4xx_hal_rcc.c ****           }
 510:Drivers/STM32F4xx_HAL_Driver/Src/stm32f4xx_hal_rcc.c ****         }
 511:Drivers/STM32F4xx_HAL_Driver/Src/stm32f4xx_hal_rcc.c ****       }
 512:Drivers/STM32F4xx_HAL_Driver/Src/stm32f4xx_hal_rcc.c ****       else
 513:Drivers/STM32F4xx_HAL_Driver/Src/stm32f4xx_hal_rcc.c ****       {
 514:Drivers/STM32F4xx_HAL_Driver/Src/stm32f4xx_hal_rcc.c ****         /* Disable the main PLL. */
 515:Drivers/STM32F4xx_HAL_Driver/Src/stm32f4xx_hal_rcc.c ****         __HAL_RCC_PLL_DISABLE();
 516:Drivers/STM32F4xx_HAL_Driver/Src/stm32f4xx_hal_rcc.c **** 
 517:Drivers/STM32F4xx_HAL_Driver/Src/stm32f4xx_hal_rcc.c ****         /* Get Start Tick */
 518:Drivers/STM32F4xx_HAL_Driver/Src/stm32f4xx_hal_rcc.c ****         tickstart = HAL_GetTick();
 519:Drivers/STM32F4xx_HAL_Driver/Src/stm32f4xx_hal_rcc.c **** 
 520:Drivers/STM32F4xx_HAL_Driver/Src/stm32f4xx_hal_rcc.c ****         /* Wait till PLL is disabled */
 521:Drivers/STM32F4xx_HAL_Driver/Src/stm32f4xx_hal_rcc.c ****         while(__HAL_RCC_GET_FLAG(RCC_FLAG_PLLRDY) != RESET)
 522:Drivers/STM32F4xx_HAL_Driver/Src/stm32f4xx_hal_rcc.c ****         {
 523:Drivers/STM32F4xx_HAL_Driver/Src/stm32f4xx_hal_rcc.c ****           if((HAL_GetTick() - tickstart ) > PLL_TIMEOUT_VALUE)
 524:Drivers/STM32F4xx_HAL_Driver/Src/stm32f4xx_hal_rcc.c ****           {
 525:Drivers/STM32F4xx_HAL_Driver/Src/stm32f4xx_hal_rcc.c ****             return HAL_TIMEOUT;
 526:Drivers/STM32F4xx_HAL_Driver/Src/stm32f4xx_hal_rcc.c ****           }
 527:Drivers/STM32F4xx_HAL_Driver/Src/stm32f4xx_hal_rcc.c ****         }
 528:Drivers/STM32F4xx_HAL_Driver/Src/stm32f4xx_hal_rcc.c ****       }
 529:Drivers/STM32F4xx_HAL_Driver/Src/stm32f4xx_hal_rcc.c ****     }
 530:Drivers/STM32F4xx_HAL_Driver/Src/stm32f4xx_hal_rcc.c ****     else
 531:Drivers/STM32F4xx_HAL_Driver/Src/stm32f4xx_hal_rcc.c ****     {
 532:Drivers/STM32F4xx_HAL_Driver/Src/stm32f4xx_hal_rcc.c ****       /* Check if there is a request to disable the PLL used as System clock source */
 533:Drivers/STM32F4xx_HAL_Driver/Src/stm32f4xx_hal_rcc.c ****       if((RCC_OscInitStruct->PLL.PLLState) == RCC_PLL_OFF)
 534:Drivers/STM32F4xx_HAL_Driver/Src/stm32f4xx_hal_rcc.c ****       {
 535:Drivers/STM32F4xx_HAL_Driver/Src/stm32f4xx_hal_rcc.c ****         return HAL_ERROR;
 536:Drivers/STM32F4xx_HAL_Driver/Src/stm32f4xx_hal_rcc.c ****       }
 537:Drivers/STM32F4xx_HAL_Driver/Src/stm32f4xx_hal_rcc.c ****       else
 538:Drivers/STM32F4xx_HAL_Driver/Src/stm32f4xx_hal_rcc.c ****       {
 539:Drivers/STM32F4xx_HAL_Driver/Src/stm32f4xx_hal_rcc.c ****         /* Do not return HAL_ERROR if request repeats the current configuration */
 540:Drivers/STM32F4xx_HAL_Driver/Src/stm32f4xx_hal_rcc.c ****         pll_config = RCC->PLLCFGR;
 541:Drivers/STM32F4xx_HAL_Driver/Src/stm32f4xx_hal_rcc.c **** #if defined (RCC_PLLCFGR_PLLR)
 542:Drivers/STM32F4xx_HAL_Driver/Src/stm32f4xx_hal_rcc.c ****         if (((RCC_OscInitStruct->PLL.PLLState) == RCC_PLL_OFF) ||
 543:Drivers/STM32F4xx_HAL_Driver/Src/stm32f4xx_hal_rcc.c ****             (READ_BIT(pll_config, RCC_PLLCFGR_PLLSRC) != RCC_OscInitStruct->PLL.PLLSource) ||
 544:Drivers/STM32F4xx_HAL_Driver/Src/stm32f4xx_hal_rcc.c ****             (READ_BIT(pll_config, RCC_PLLCFGR_PLLM) != (RCC_OscInitStruct->PLL.PLLM) << RCC_PLLCFGR
 545:Drivers/STM32F4xx_HAL_Driver/Src/stm32f4xx_hal_rcc.c ****             (READ_BIT(pll_config, RCC_PLLCFGR_PLLN) != (RCC_OscInitStruct->PLL.PLLN) << RCC_PLLCFGR
 546:Drivers/STM32F4xx_HAL_Driver/Src/stm32f4xx_hal_rcc.c ****             (READ_BIT(pll_config, RCC_PLLCFGR_PLLP) != (((RCC_OscInitStruct->PLL.PLLP >> 1U) - 1U))
 547:Drivers/STM32F4xx_HAL_Driver/Src/stm32f4xx_hal_rcc.c ****             (READ_BIT(pll_config, RCC_PLLCFGR_PLLQ) != (RCC_OscInitStruct->PLL.PLLQ << RCC_PLLCFGR_
 548:Drivers/STM32F4xx_HAL_Driver/Src/stm32f4xx_hal_rcc.c ****             (READ_BIT(pll_config, RCC_PLLCFGR_PLLR) != (RCC_OscInitStruct->PLL.PLLR << RCC_PLLCFGR_
 549:Drivers/STM32F4xx_HAL_Driver/Src/stm32f4xx_hal_rcc.c **** #else
 550:Drivers/STM32F4xx_HAL_Driver/Src/stm32f4xx_hal_rcc.c ****         if (((RCC_OscInitStruct->PLL.PLLState) == RCC_PLL_OFF) ||
 551:Drivers/STM32F4xx_HAL_Driver/Src/stm32f4xx_hal_rcc.c ****             (READ_BIT(pll_config, RCC_PLLCFGR_PLLSRC) != RCC_OscInitStruct->PLL.PLLSource) ||
 552:Drivers/STM32F4xx_HAL_Driver/Src/stm32f4xx_hal_rcc.c ****             (READ_BIT(pll_config, RCC_PLLCFGR_PLLM) != (RCC_OscInitStruct->PLL.PLLM) << RCC_PLLCFGR
 553:Drivers/STM32F4xx_HAL_Driver/Src/stm32f4xx_hal_rcc.c ****             (READ_BIT(pll_config, RCC_PLLCFGR_PLLN) != (RCC_OscInitStruct->PLL.PLLN) << RCC_PLLCFGR
 554:Drivers/STM32F4xx_HAL_Driver/Src/stm32f4xx_hal_rcc.c ****             (READ_BIT(pll_config, RCC_PLLCFGR_PLLP) != (((RCC_OscInitStruct->PLL.PLLP >> 1U) - 1U))
 555:Drivers/STM32F4xx_HAL_Driver/Src/stm32f4xx_hal_rcc.c ****             (READ_BIT(pll_config, RCC_PLLCFGR_PLLQ) != (RCC_OscInitStruct->PLL.PLLQ << RCC_PLLCFGR_
 556:Drivers/STM32F4xx_HAL_Driver/Src/stm32f4xx_hal_rcc.c **** #endif
 557:Drivers/STM32F4xx_HAL_Driver/Src/stm32f4xx_hal_rcc.c ****         {
 558:Drivers/STM32F4xx_HAL_Driver/Src/stm32f4xx_hal_rcc.c ****           return HAL_ERROR;
 559:Drivers/STM32F4xx_HAL_Driver/Src/stm32f4xx_hal_rcc.c ****         }
 560:Drivers/STM32F4xx_HAL_Driver/Src/stm32f4xx_hal_rcc.c ****       }
 561:Drivers/STM32F4xx_HAL_Driver/Src/stm32f4xx_hal_rcc.c ****     }
 562:Drivers/STM32F4xx_HAL_Driver/Src/stm32f4xx_hal_rcc.c ****   }
 563:Drivers/STM32F4xx_HAL_Driver/Src/stm32f4xx_hal_rcc.c ****   return HAL_OK;
 901              		.loc 1 563 10 view .LVU261
ARM GAS  C:\Temp\ccaZfZb8.s 			page 28


 902 0452 0020     		movs	r0, #0
 903 0454 3FE0     		b	.L3
 904              	.LVL64:
 905              	.L52:
 515:Drivers/STM32F4xx_HAL_Driver/Src/stm32f4xx_hal_rcc.c **** 
 906              		.loc 1 515 9 is_stmt 1 view .LVU262
 907 0456 254B     		ldr	r3, .L118+12
 908 0458 0022     		movs	r2, #0
 909 045a 1A66     		str	r2, [r3, #96]
 518:Drivers/STM32F4xx_HAL_Driver/Src/stm32f4xx_hal_rcc.c **** 
 910              		.loc 1 518 9 view .LVU263
 518:Drivers/STM32F4xx_HAL_Driver/Src/stm32f4xx_hal_rcc.c **** 
 911              		.loc 1 518 21 is_stmt 0 view .LVU264
 912 045c FFF7FEFF 		bl	HAL_GetTick
 913              	.LVL65:
 914 0460 0446     		mov	r4, r0
 915              	.LVL66:
 521:Drivers/STM32F4xx_HAL_Driver/Src/stm32f4xx_hal_rcc.c ****         {
 916              		.loc 1 521 9 is_stmt 1 view .LVU265
 917              	.L63:
 521:Drivers/STM32F4xx_HAL_Driver/Src/stm32f4xx_hal_rcc.c ****         {
 918              		.loc 1 521 51 view .LVU266
 521:Drivers/STM32F4xx_HAL_Driver/Src/stm32f4xx_hal_rcc.c ****         {
 919              		.loc 1 521 15 is_stmt 0 view .LVU267
 920 0462 1F4B     		ldr	r3, .L118
 921 0464 1B68     		ldr	r3, [r3]
 521:Drivers/STM32F4xx_HAL_Driver/Src/stm32f4xx_hal_rcc.c ****         {
 922              		.loc 1 521 51 view .LVU268
 923 0466 13F0007F 		tst	r3, #33554432
 924 046a 06D0     		beq	.L115
 523:Drivers/STM32F4xx_HAL_Driver/Src/stm32f4xx_hal_rcc.c ****           {
 925              		.loc 1 523 11 is_stmt 1 view .LVU269
 523:Drivers/STM32F4xx_HAL_Driver/Src/stm32f4xx_hal_rcc.c ****           {
 926              		.loc 1 523 15 is_stmt 0 view .LVU270
 927 046c FFF7FEFF 		bl	HAL_GetTick
 928              	.LVL67:
 523:Drivers/STM32F4xx_HAL_Driver/Src/stm32f4xx_hal_rcc.c ****           {
 929              		.loc 1 523 29 view .LVU271
 930 0470 001B     		subs	r0, r0, r4
 523:Drivers/STM32F4xx_HAL_Driver/Src/stm32f4xx_hal_rcc.c ****           {
 931              		.loc 1 523 13 view .LVU272
 932 0472 0228     		cmp	r0, #2
 933 0474 F5D9     		bls	.L63
 525:Drivers/STM32F4xx_HAL_Driver/Src/stm32f4xx_hal_rcc.c ****           }
 934              		.loc 1 525 20 view .LVU273
 935 0476 0320     		movs	r0, #3
 936 0478 2DE0     		b	.L3
 937              	.L115:
 938              		.loc 1 563 10 view .LVU274
 939 047a 0020     		movs	r0, #0
 940 047c 2BE0     		b	.L3
 941              	.LVL68:
 942              	.L51:
 533:Drivers/STM32F4xx_HAL_Driver/Src/stm32f4xx_hal_rcc.c ****       {
 943              		.loc 1 533 7 is_stmt 1 view .LVU275
 533:Drivers/STM32F4xx_HAL_Driver/Src/stm32f4xx_hal_rcc.c ****       {
 944              		.loc 1 533 9 is_stmt 0 view .LVU276
ARM GAS  C:\Temp\ccaZfZb8.s 			page 29


 945 047e 012B     		cmp	r3, #1
 946 0480 2BD0     		beq	.L82
 540:Drivers/STM32F4xx_HAL_Driver/Src/stm32f4xx_hal_rcc.c **** #if defined (RCC_PLLCFGR_PLLR)
 947              		.loc 1 540 9 is_stmt 1 view .LVU277
 540:Drivers/STM32F4xx_HAL_Driver/Src/stm32f4xx_hal_rcc.c **** #if defined (RCC_PLLCFGR_PLLR)
 948              		.loc 1 540 20 is_stmt 0 view .LVU278
 949 0482 174B     		ldr	r3, .L118
 950 0484 5B68     		ldr	r3, [r3, #4]
 951              	.LVL69:
 550:Drivers/STM32F4xx_HAL_Driver/Src/stm32f4xx_hal_rcc.c ****             (READ_BIT(pll_config, RCC_PLLCFGR_PLLSRC) != RCC_OscInitStruct->PLL.PLLSource) ||
 952              		.loc 1 550 9 is_stmt 1 view .LVU279
 551:Drivers/STM32F4xx_HAL_Driver/Src/stm32f4xx_hal_rcc.c ****             (READ_BIT(pll_config, RCC_PLLCFGR_PLLM) != (RCC_OscInitStruct->PLL.PLLM) << RCC_PLLCFGR
 953              		.loc 1 551 14 is_stmt 0 view .LVU280
 954 0486 03F48001 		and	r1, r3, #4194304
 551:Drivers/STM32F4xx_HAL_Driver/Src/stm32f4xx_hal_rcc.c ****             (READ_BIT(pll_config, RCC_PLLCFGR_PLLM) != (RCC_OscInitStruct->PLL.PLLM) << RCC_PLLCFGR
 955              		.loc 1 551 80 view .LVU281
 956 048a E269     		ldr	r2, [r4, #28]
 550:Drivers/STM32F4xx_HAL_Driver/Src/stm32f4xx_hal_rcc.c ****             (READ_BIT(pll_config, RCC_PLLCFGR_PLLSRC) != RCC_OscInitStruct->PLL.PLLSource) ||
 957              		.loc 1 550 64 view .LVU282
 958 048c 9142     		cmp	r1, r2
 959 048e 2FD1     		bne	.L83
 552:Drivers/STM32F4xx_HAL_Driver/Src/stm32f4xx_hal_rcc.c ****             (READ_BIT(pll_config, RCC_PLLCFGR_PLLN) != (RCC_OscInitStruct->PLL.PLLN) << RCC_PLLCFGR
 960              		.loc 1 552 14 view .LVU283
 961 0490 03F03F02 		and	r2, r3, #63
 552:Drivers/STM32F4xx_HAL_Driver/Src/stm32f4xx_hal_rcc.c ****             (READ_BIT(pll_config, RCC_PLLCFGR_PLLN) != (RCC_OscInitStruct->PLL.PLLN) << RCC_PLLCFGR
 962              		.loc 1 552 86 view .LVU284
 963 0494 216A     		ldr	r1, [r4, #32]
 551:Drivers/STM32F4xx_HAL_Driver/Src/stm32f4xx_hal_rcc.c ****             (READ_BIT(pll_config, RCC_PLLCFGR_PLLM) != (RCC_OscInitStruct->PLL.PLLM) << RCC_PLLCFGR
 964              		.loc 1 551 92 view .LVU285
 965 0496 8A42     		cmp	r2, r1
 966 0498 2CD1     		bne	.L84
 553:Drivers/STM32F4xx_HAL_Driver/Src/stm32f4xx_hal_rcc.c ****             (READ_BIT(pll_config, RCC_PLLCFGR_PLLP) != (((RCC_OscInitStruct->PLL.PLLP >> 1U) - 1U))
 967              		.loc 1 553 79 view .LVU286
 968 049a 616A     		ldr	r1, [r4, #36]
 552:Drivers/STM32F4xx_HAL_Driver/Src/stm32f4xx_hal_rcc.c ****             (READ_BIT(pll_config, RCC_PLLCFGR_PLLN) != (RCC_OscInitStruct->PLL.PLLN) << RCC_PLLCFGR
 969              		.loc 1 552 111 view .LVU287
 970 049c 47F6C072 		movw	r2, #32704
 971 04a0 1A40     		ands	r2, r2, r3
 972 04a2 B2EB811F 		cmp	r2, r1, lsl #6
 973 04a6 27D1     		bne	.L85
 554:Drivers/STM32F4xx_HAL_Driver/Src/stm32f4xx_hal_rcc.c ****             (READ_BIT(pll_config, RCC_PLLCFGR_PLLQ) != (RCC_OscInitStruct->PLL.PLLQ << RCC_PLLCFGR_
 974              		.loc 1 554 14 view .LVU288
 975 04a8 03F44031 		and	r1, r3, #196608
 554:Drivers/STM32F4xx_HAL_Driver/Src/stm32f4xx_hal_rcc.c ****             (READ_BIT(pll_config, RCC_PLLCFGR_PLLQ) != (RCC_OscInitStruct->PLL.PLLQ << RCC_PLLCFGR_
 976              		.loc 1 554 81 view .LVU289
 977 04ac A26A     		ldr	r2, [r4, #40]
 554:Drivers/STM32F4xx_HAL_Driver/Src/stm32f4xx_hal_rcc.c ****             (READ_BIT(pll_config, RCC_PLLCFGR_PLLQ) != (RCC_OscInitStruct->PLL.PLLQ << RCC_PLLCFGR_
 978              		.loc 1 554 87 view .LVU290
 979 04ae 5208     		lsrs	r2, r2, #1
 554:Drivers/STM32F4xx_HAL_Driver/Src/stm32f4xx_hal_rcc.c ****             (READ_BIT(pll_config, RCC_PLLCFGR_PLLQ) != (RCC_OscInitStruct->PLL.PLLQ << RCC_PLLCFGR_
 980              		.loc 1 554 94 view .LVU291
 981 04b0 013A     		subs	r2, r2, #1
 553:Drivers/STM32F4xx_HAL_Driver/Src/stm32f4xx_hal_rcc.c ****             (READ_BIT(pll_config, RCC_PLLCFGR_PLLP) != (((RCC_OscInitStruct->PLL.PLLP >> 1U) - 1U))
 982              		.loc 1 553 111 view .LVU292
 983 04b2 B1EB024F 		cmp	r1, r2, lsl #16
 984 04b6 21D1     		bne	.L86
 555:Drivers/STM32F4xx_HAL_Driver/Src/stm32f4xx_hal_rcc.c **** #endif
ARM GAS  C:\Temp\ccaZfZb8.s 			page 30


 985              		.loc 1 555 14 view .LVU293
 986 04b8 03F07063 		and	r3, r3, #251658240
 987              	.LVL70:
 555:Drivers/STM32F4xx_HAL_Driver/Src/stm32f4xx_hal_rcc.c **** #endif
 988              		.loc 1 555 79 view .LVU294
 989 04bc E26A     		ldr	r2, [r4, #44]
 554:Drivers/STM32F4xx_HAL_Driver/Src/stm32f4xx_hal_rcc.c ****             (READ_BIT(pll_config, RCC_PLLCFGR_PLLQ) != (RCC_OscInitStruct->PLL.PLLQ << RCC_PLLCFGR_
 990              		.loc 1 554 126 view .LVU295
 991 04be B3EB026F 		cmp	r3, r2, lsl #24
 992 04c2 1DD1     		bne	.L87
 993              		.loc 1 563 10 view .LVU296
 994 04c4 0020     		movs	r0, #0
 995 04c6 06E0     		b	.L3
 996              	.LVL71:
 997              	.L65:
 998              		.cfi_def_cfa_offset 0
 999              		.cfi_restore 4
 1000              		.cfi_restore 5
 1001              		.cfi_restore 6
 1002              		.cfi_restore 14
 226:Drivers/STM32F4xx_HAL_Driver/Src/stm32f4xx_hal_rcc.c ****   }
 1003              		.loc 1 226 12 view .LVU297
 1004 04c8 0120     		movs	r0, #1
 1005              	.LVL72:
 564:Drivers/STM32F4xx_HAL_Driver/Src/stm32f4xx_hal_rcc.c **** }
 1006              		.loc 1 564 1 view .LVU298
 1007 04ca 7047     		bx	lr
 1008              	.LVL73:
 1009              	.L97:
 1010              		.cfi_def_cfa_offset 24
 1011              		.cfi_offset 4, -16
 1012              		.cfi_offset 5, -12
 1013              		.cfi_offset 6, -8
 1014              		.cfi_offset 14, -4
 242:Drivers/STM32F4xx_HAL_Driver/Src/stm32f4xx_hal_rcc.c ****       }
 1015              		.loc 1 242 16 view .LVU299
 1016 04cc 0120     		movs	r0, #1
 1017 04ce 02E0     		b	.L3
 1018              	.L69:
 295:Drivers/STM32F4xx_HAL_Driver/Src/stm32f4xx_hal_rcc.c ****       }
 1019              		.loc 1 295 16 view .LVU300
 1020 04d0 0120     		movs	r0, #1
 1021 04d2 00E0     		b	.L3
 1022              	.L78:
 563:Drivers/STM32F4xx_HAL_Driver/Src/stm32f4xx_hal_rcc.c **** }
 1023              		.loc 1 563 10 view .LVU301
 1024 04d4 0020     		movs	r0, #0
 1025              	.LVL74:
 1026              	.L3:
 1027              		.loc 1 564 1 view .LVU302
 1028 04d6 02B0     		add	sp, sp, #8
 1029              		.cfi_remember_state
 1030              		.cfi_def_cfa_offset 16
 1031              		@ sp needed
 1032 04d8 70BD     		pop	{r4, r5, r6, pc}
 1033              	.LVL75:
 1034              	.L82:
ARM GAS  C:\Temp\ccaZfZb8.s 			page 31


 1035              		.cfi_restore_state
 535:Drivers/STM32F4xx_HAL_Driver/Src/stm32f4xx_hal_rcc.c ****       }
 1036              		.loc 1 535 16 view .LVU303
 1037 04da 0120     		movs	r0, #1
 1038 04dc FBE7     		b	.L3
 1039              	.L119:
 1040 04de 00BF     		.align	2
 1041              	.L118:
 1042 04e0 00380240 		.word	1073887232
 1043 04e4 00700040 		.word	1073770496
 1044 04e8 00000000 		.word	.LC0
 1045 04ec 00004742 		.word	1111949312
 1046              	.LVL76:
 1047              	.L83:
 558:Drivers/STM32F4xx_HAL_Driver/Src/stm32f4xx_hal_rcc.c ****         }
 1048              		.loc 1 558 18 view .LVU304
 1049 04f0 0120     		movs	r0, #1
 1050 04f2 F0E7     		b	.L3
 1051              	.L84:
 1052 04f4 0120     		movs	r0, #1
 1053 04f6 EEE7     		b	.L3
 1054              	.L85:
 1055 04f8 0120     		movs	r0, #1
 1056 04fa ECE7     		b	.L3
 1057              	.L86:
 1058 04fc 0120     		movs	r0, #1
 1059 04fe EAE7     		b	.L3
 1060              	.LVL77:
 1061              	.L87:
 558:Drivers/STM32F4xx_HAL_Driver/Src/stm32f4xx_hal_rcc.c ****         }
 1062              		.loc 1 558 18 view .LVU305
 1063 0500 0120     		movs	r0, #1
 1064 0502 E8E7     		b	.L3
 1065              		.cfi_endproc
 1066              	.LFE135:
 1068              		.section	.text.HAL_RCC_MCOConfig,"ax",%progbits
 1069              		.align	1
 1070              		.global	HAL_RCC_MCOConfig
 1071              		.syntax unified
 1072              		.thumb
 1073              		.thumb_func
 1075              	HAL_RCC_MCOConfig:
 1076              	.LVL78:
 1077              	.LFB137:
 565:Drivers/STM32F4xx_HAL_Driver/Src/stm32f4xx_hal_rcc.c **** 
 566:Drivers/STM32F4xx_HAL_Driver/Src/stm32f4xx_hal_rcc.c **** /**
 567:Drivers/STM32F4xx_HAL_Driver/Src/stm32f4xx_hal_rcc.c ****   * @brief  Initializes the CPU, AHB and APB busses clocks according to the specified
 568:Drivers/STM32F4xx_HAL_Driver/Src/stm32f4xx_hal_rcc.c ****   *         parameters in the RCC_ClkInitStruct.
 569:Drivers/STM32F4xx_HAL_Driver/Src/stm32f4xx_hal_rcc.c ****   * @param  RCC_ClkInitStruct pointer to an RCC_OscInitTypeDef structure that
 570:Drivers/STM32F4xx_HAL_Driver/Src/stm32f4xx_hal_rcc.c ****   *         contains the configuration information for the RCC peripheral.
 571:Drivers/STM32F4xx_HAL_Driver/Src/stm32f4xx_hal_rcc.c ****   * @param  FLatency FLASH Latency, this parameter depend on device selected
 572:Drivers/STM32F4xx_HAL_Driver/Src/stm32f4xx_hal_rcc.c ****   *
 573:Drivers/STM32F4xx_HAL_Driver/Src/stm32f4xx_hal_rcc.c ****   * @note   The SystemCoreClock CMSIS variable is used to store System Clock Frequency
 574:Drivers/STM32F4xx_HAL_Driver/Src/stm32f4xx_hal_rcc.c ****   *         and updated by HAL_RCC_GetHCLKFreq() function called within this function
 575:Drivers/STM32F4xx_HAL_Driver/Src/stm32f4xx_hal_rcc.c ****   *
 576:Drivers/STM32F4xx_HAL_Driver/Src/stm32f4xx_hal_rcc.c ****   * @note   The HSI is used (enabled by hardware) as system clock source after
 577:Drivers/STM32F4xx_HAL_Driver/Src/stm32f4xx_hal_rcc.c ****   *         startup from Reset, wake-up from STOP and STANDBY mode, or in case
ARM GAS  C:\Temp\ccaZfZb8.s 			page 32


 578:Drivers/STM32F4xx_HAL_Driver/Src/stm32f4xx_hal_rcc.c ****   *         of failure of the HSE used directly or indirectly as system clock
 579:Drivers/STM32F4xx_HAL_Driver/Src/stm32f4xx_hal_rcc.c ****   *         (if the Clock Security System CSS is enabled).
 580:Drivers/STM32F4xx_HAL_Driver/Src/stm32f4xx_hal_rcc.c ****   *
 581:Drivers/STM32F4xx_HAL_Driver/Src/stm32f4xx_hal_rcc.c ****   * @note   A switch from one clock source to another occurs only if the target
 582:Drivers/STM32F4xx_HAL_Driver/Src/stm32f4xx_hal_rcc.c ****   *         clock source is ready (clock stable after startup delay or PLL locked).
 583:Drivers/STM32F4xx_HAL_Driver/Src/stm32f4xx_hal_rcc.c ****   *         If a clock source which is not yet ready is selected, the switch will
 584:Drivers/STM32F4xx_HAL_Driver/Src/stm32f4xx_hal_rcc.c ****   *         occur when the clock source will be ready.
 585:Drivers/STM32F4xx_HAL_Driver/Src/stm32f4xx_hal_rcc.c ****   *
 586:Drivers/STM32F4xx_HAL_Driver/Src/stm32f4xx_hal_rcc.c ****   * @note   Depending on the device voltage range, the software has to set correctly
 587:Drivers/STM32F4xx_HAL_Driver/Src/stm32f4xx_hal_rcc.c ****   *         HPRE[3:0] bits to ensure that HCLK not exceed the maximum allowed frequency
 588:Drivers/STM32F4xx_HAL_Driver/Src/stm32f4xx_hal_rcc.c ****   *         (for more details refer to section above "Initialization/de-initialization functions")
 589:Drivers/STM32F4xx_HAL_Driver/Src/stm32f4xx_hal_rcc.c ****   * @retval None
 590:Drivers/STM32F4xx_HAL_Driver/Src/stm32f4xx_hal_rcc.c ****   */
 591:Drivers/STM32F4xx_HAL_Driver/Src/stm32f4xx_hal_rcc.c **** HAL_StatusTypeDef HAL_RCC_ClockConfig(RCC_ClkInitTypeDef  *RCC_ClkInitStruct, uint32_t FLatency)
 592:Drivers/STM32F4xx_HAL_Driver/Src/stm32f4xx_hal_rcc.c **** {
 593:Drivers/STM32F4xx_HAL_Driver/Src/stm32f4xx_hal_rcc.c ****   uint32_t tickstart;
 594:Drivers/STM32F4xx_HAL_Driver/Src/stm32f4xx_hal_rcc.c **** 
 595:Drivers/STM32F4xx_HAL_Driver/Src/stm32f4xx_hal_rcc.c ****   /* Check Null pointer */
 596:Drivers/STM32F4xx_HAL_Driver/Src/stm32f4xx_hal_rcc.c ****   if(RCC_ClkInitStruct == NULL)
 597:Drivers/STM32F4xx_HAL_Driver/Src/stm32f4xx_hal_rcc.c ****   {
 598:Drivers/STM32F4xx_HAL_Driver/Src/stm32f4xx_hal_rcc.c ****     return HAL_ERROR;
 599:Drivers/STM32F4xx_HAL_Driver/Src/stm32f4xx_hal_rcc.c ****   }
 600:Drivers/STM32F4xx_HAL_Driver/Src/stm32f4xx_hal_rcc.c **** 
 601:Drivers/STM32F4xx_HAL_Driver/Src/stm32f4xx_hal_rcc.c ****   /* Check the parameters */
 602:Drivers/STM32F4xx_HAL_Driver/Src/stm32f4xx_hal_rcc.c ****   assert_param(IS_RCC_CLOCKTYPE(RCC_ClkInitStruct->ClockType));
 603:Drivers/STM32F4xx_HAL_Driver/Src/stm32f4xx_hal_rcc.c ****   assert_param(IS_FLASH_LATENCY(FLatency));
 604:Drivers/STM32F4xx_HAL_Driver/Src/stm32f4xx_hal_rcc.c **** 
 605:Drivers/STM32F4xx_HAL_Driver/Src/stm32f4xx_hal_rcc.c ****   /* To correctly read data from FLASH memory, the number of wait states (LATENCY)
 606:Drivers/STM32F4xx_HAL_Driver/Src/stm32f4xx_hal_rcc.c ****     must be correctly programmed according to the frequency of the CPU clock
 607:Drivers/STM32F4xx_HAL_Driver/Src/stm32f4xx_hal_rcc.c ****     (HCLK) and the supply voltage of the device. */
 608:Drivers/STM32F4xx_HAL_Driver/Src/stm32f4xx_hal_rcc.c **** 
 609:Drivers/STM32F4xx_HAL_Driver/Src/stm32f4xx_hal_rcc.c ****   /* Increasing the number of wait states because of higher CPU frequency */
 610:Drivers/STM32F4xx_HAL_Driver/Src/stm32f4xx_hal_rcc.c ****   if(FLatency > __HAL_FLASH_GET_LATENCY())
 611:Drivers/STM32F4xx_HAL_Driver/Src/stm32f4xx_hal_rcc.c ****   {
 612:Drivers/STM32F4xx_HAL_Driver/Src/stm32f4xx_hal_rcc.c ****     /* Program the new number of wait states to the LATENCY bits in the FLASH_ACR register */
 613:Drivers/STM32F4xx_HAL_Driver/Src/stm32f4xx_hal_rcc.c ****     __HAL_FLASH_SET_LATENCY(FLatency);
 614:Drivers/STM32F4xx_HAL_Driver/Src/stm32f4xx_hal_rcc.c **** 
 615:Drivers/STM32F4xx_HAL_Driver/Src/stm32f4xx_hal_rcc.c ****     /* Check that the new number of wait states is taken into account to access the Flash
 616:Drivers/STM32F4xx_HAL_Driver/Src/stm32f4xx_hal_rcc.c ****     memory by reading the FLASH_ACR register */
 617:Drivers/STM32F4xx_HAL_Driver/Src/stm32f4xx_hal_rcc.c ****     if(__HAL_FLASH_GET_LATENCY() != FLatency)
 618:Drivers/STM32F4xx_HAL_Driver/Src/stm32f4xx_hal_rcc.c ****     {
 619:Drivers/STM32F4xx_HAL_Driver/Src/stm32f4xx_hal_rcc.c ****       return HAL_ERROR;
 620:Drivers/STM32F4xx_HAL_Driver/Src/stm32f4xx_hal_rcc.c ****     }
 621:Drivers/STM32F4xx_HAL_Driver/Src/stm32f4xx_hal_rcc.c ****   }
 622:Drivers/STM32F4xx_HAL_Driver/Src/stm32f4xx_hal_rcc.c **** 
 623:Drivers/STM32F4xx_HAL_Driver/Src/stm32f4xx_hal_rcc.c ****   /*-------------------------- HCLK Configuration --------------------------*/
 624:Drivers/STM32F4xx_HAL_Driver/Src/stm32f4xx_hal_rcc.c ****   if(((RCC_ClkInitStruct->ClockType) & RCC_CLOCKTYPE_HCLK) == RCC_CLOCKTYPE_HCLK)
 625:Drivers/STM32F4xx_HAL_Driver/Src/stm32f4xx_hal_rcc.c ****   {
 626:Drivers/STM32F4xx_HAL_Driver/Src/stm32f4xx_hal_rcc.c ****     /* Set the highest APBx dividers in order to ensure that we do not go through
 627:Drivers/STM32F4xx_HAL_Driver/Src/stm32f4xx_hal_rcc.c ****        a non-spec phase whatever we decrease or increase HCLK. */
 628:Drivers/STM32F4xx_HAL_Driver/Src/stm32f4xx_hal_rcc.c ****     if(((RCC_ClkInitStruct->ClockType) & RCC_CLOCKTYPE_PCLK1) == RCC_CLOCKTYPE_PCLK1)
 629:Drivers/STM32F4xx_HAL_Driver/Src/stm32f4xx_hal_rcc.c ****     {
 630:Drivers/STM32F4xx_HAL_Driver/Src/stm32f4xx_hal_rcc.c ****       MODIFY_REG(RCC->CFGR, RCC_CFGR_PPRE1, RCC_HCLK_DIV16);
 631:Drivers/STM32F4xx_HAL_Driver/Src/stm32f4xx_hal_rcc.c ****     }
 632:Drivers/STM32F4xx_HAL_Driver/Src/stm32f4xx_hal_rcc.c **** 
 633:Drivers/STM32F4xx_HAL_Driver/Src/stm32f4xx_hal_rcc.c ****     if(((RCC_ClkInitStruct->ClockType) & RCC_CLOCKTYPE_PCLK2) == RCC_CLOCKTYPE_PCLK2)
 634:Drivers/STM32F4xx_HAL_Driver/Src/stm32f4xx_hal_rcc.c ****     {
ARM GAS  C:\Temp\ccaZfZb8.s 			page 33


 635:Drivers/STM32F4xx_HAL_Driver/Src/stm32f4xx_hal_rcc.c ****       MODIFY_REG(RCC->CFGR, RCC_CFGR_PPRE2, (RCC_HCLK_DIV16 << 3));
 636:Drivers/STM32F4xx_HAL_Driver/Src/stm32f4xx_hal_rcc.c ****     }
 637:Drivers/STM32F4xx_HAL_Driver/Src/stm32f4xx_hal_rcc.c **** 
 638:Drivers/STM32F4xx_HAL_Driver/Src/stm32f4xx_hal_rcc.c ****     assert_param(IS_RCC_HCLK(RCC_ClkInitStruct->AHBCLKDivider));
 639:Drivers/STM32F4xx_HAL_Driver/Src/stm32f4xx_hal_rcc.c ****     MODIFY_REG(RCC->CFGR, RCC_CFGR_HPRE, RCC_ClkInitStruct->AHBCLKDivider);
 640:Drivers/STM32F4xx_HAL_Driver/Src/stm32f4xx_hal_rcc.c ****   }
 641:Drivers/STM32F4xx_HAL_Driver/Src/stm32f4xx_hal_rcc.c **** 
 642:Drivers/STM32F4xx_HAL_Driver/Src/stm32f4xx_hal_rcc.c ****   /*------------------------- SYSCLK Configuration ---------------------------*/
 643:Drivers/STM32F4xx_HAL_Driver/Src/stm32f4xx_hal_rcc.c ****   if(((RCC_ClkInitStruct->ClockType) & RCC_CLOCKTYPE_SYSCLK) == RCC_CLOCKTYPE_SYSCLK)
 644:Drivers/STM32F4xx_HAL_Driver/Src/stm32f4xx_hal_rcc.c ****   {
 645:Drivers/STM32F4xx_HAL_Driver/Src/stm32f4xx_hal_rcc.c ****     assert_param(IS_RCC_SYSCLKSOURCE(RCC_ClkInitStruct->SYSCLKSource));
 646:Drivers/STM32F4xx_HAL_Driver/Src/stm32f4xx_hal_rcc.c **** 
 647:Drivers/STM32F4xx_HAL_Driver/Src/stm32f4xx_hal_rcc.c ****     /* HSE is selected as System Clock Source */
 648:Drivers/STM32F4xx_HAL_Driver/Src/stm32f4xx_hal_rcc.c ****     if(RCC_ClkInitStruct->SYSCLKSource == RCC_SYSCLKSOURCE_HSE)
 649:Drivers/STM32F4xx_HAL_Driver/Src/stm32f4xx_hal_rcc.c ****     {
 650:Drivers/STM32F4xx_HAL_Driver/Src/stm32f4xx_hal_rcc.c ****       /* Check the HSE ready flag */
 651:Drivers/STM32F4xx_HAL_Driver/Src/stm32f4xx_hal_rcc.c ****       if(__HAL_RCC_GET_FLAG(RCC_FLAG_HSERDY) == RESET)
 652:Drivers/STM32F4xx_HAL_Driver/Src/stm32f4xx_hal_rcc.c ****       {
 653:Drivers/STM32F4xx_HAL_Driver/Src/stm32f4xx_hal_rcc.c ****         return HAL_ERROR;
 654:Drivers/STM32F4xx_HAL_Driver/Src/stm32f4xx_hal_rcc.c ****       }
 655:Drivers/STM32F4xx_HAL_Driver/Src/stm32f4xx_hal_rcc.c ****     }
 656:Drivers/STM32F4xx_HAL_Driver/Src/stm32f4xx_hal_rcc.c ****     /* PLL is selected as System Clock Source */
 657:Drivers/STM32F4xx_HAL_Driver/Src/stm32f4xx_hal_rcc.c ****     else if((RCC_ClkInitStruct->SYSCLKSource == RCC_SYSCLKSOURCE_PLLCLK)   ||
 658:Drivers/STM32F4xx_HAL_Driver/Src/stm32f4xx_hal_rcc.c ****             (RCC_ClkInitStruct->SYSCLKSource == RCC_SYSCLKSOURCE_PLLRCLK))
 659:Drivers/STM32F4xx_HAL_Driver/Src/stm32f4xx_hal_rcc.c ****     {
 660:Drivers/STM32F4xx_HAL_Driver/Src/stm32f4xx_hal_rcc.c ****       /* Check the PLL ready flag */
 661:Drivers/STM32F4xx_HAL_Driver/Src/stm32f4xx_hal_rcc.c ****       if(__HAL_RCC_GET_FLAG(RCC_FLAG_PLLRDY) == RESET)
 662:Drivers/STM32F4xx_HAL_Driver/Src/stm32f4xx_hal_rcc.c ****       {
 663:Drivers/STM32F4xx_HAL_Driver/Src/stm32f4xx_hal_rcc.c ****         return HAL_ERROR;
 664:Drivers/STM32F4xx_HAL_Driver/Src/stm32f4xx_hal_rcc.c ****       }
 665:Drivers/STM32F4xx_HAL_Driver/Src/stm32f4xx_hal_rcc.c ****     }
 666:Drivers/STM32F4xx_HAL_Driver/Src/stm32f4xx_hal_rcc.c ****     /* HSI is selected as System Clock Source */
 667:Drivers/STM32F4xx_HAL_Driver/Src/stm32f4xx_hal_rcc.c ****     else
 668:Drivers/STM32F4xx_HAL_Driver/Src/stm32f4xx_hal_rcc.c ****     {
 669:Drivers/STM32F4xx_HAL_Driver/Src/stm32f4xx_hal_rcc.c ****       /* Check the HSI ready flag */
 670:Drivers/STM32F4xx_HAL_Driver/Src/stm32f4xx_hal_rcc.c ****       if(__HAL_RCC_GET_FLAG(RCC_FLAG_HSIRDY) == RESET)
 671:Drivers/STM32F4xx_HAL_Driver/Src/stm32f4xx_hal_rcc.c ****       {
 672:Drivers/STM32F4xx_HAL_Driver/Src/stm32f4xx_hal_rcc.c ****         return HAL_ERROR;
 673:Drivers/STM32F4xx_HAL_Driver/Src/stm32f4xx_hal_rcc.c ****       }
 674:Drivers/STM32F4xx_HAL_Driver/Src/stm32f4xx_hal_rcc.c ****     }
 675:Drivers/STM32F4xx_HAL_Driver/Src/stm32f4xx_hal_rcc.c **** 
 676:Drivers/STM32F4xx_HAL_Driver/Src/stm32f4xx_hal_rcc.c ****     __HAL_RCC_SYSCLK_CONFIG(RCC_ClkInitStruct->SYSCLKSource);
 677:Drivers/STM32F4xx_HAL_Driver/Src/stm32f4xx_hal_rcc.c **** 
 678:Drivers/STM32F4xx_HAL_Driver/Src/stm32f4xx_hal_rcc.c ****     /* Get Start Tick */
 679:Drivers/STM32F4xx_HAL_Driver/Src/stm32f4xx_hal_rcc.c ****     tickstart = HAL_GetTick();
 680:Drivers/STM32F4xx_HAL_Driver/Src/stm32f4xx_hal_rcc.c **** 
 681:Drivers/STM32F4xx_HAL_Driver/Src/stm32f4xx_hal_rcc.c ****     while (__HAL_RCC_GET_SYSCLK_SOURCE() != (RCC_ClkInitStruct->SYSCLKSource << RCC_CFGR_SWS_Pos))
 682:Drivers/STM32F4xx_HAL_Driver/Src/stm32f4xx_hal_rcc.c ****     {
 683:Drivers/STM32F4xx_HAL_Driver/Src/stm32f4xx_hal_rcc.c ****       if ((HAL_GetTick() - tickstart) > CLOCKSWITCH_TIMEOUT_VALUE)
 684:Drivers/STM32F4xx_HAL_Driver/Src/stm32f4xx_hal_rcc.c ****       {
 685:Drivers/STM32F4xx_HAL_Driver/Src/stm32f4xx_hal_rcc.c ****         return HAL_TIMEOUT;
 686:Drivers/STM32F4xx_HAL_Driver/Src/stm32f4xx_hal_rcc.c ****       }
 687:Drivers/STM32F4xx_HAL_Driver/Src/stm32f4xx_hal_rcc.c ****     }
 688:Drivers/STM32F4xx_HAL_Driver/Src/stm32f4xx_hal_rcc.c ****   }
 689:Drivers/STM32F4xx_HAL_Driver/Src/stm32f4xx_hal_rcc.c **** 
 690:Drivers/STM32F4xx_HAL_Driver/Src/stm32f4xx_hal_rcc.c ****   /* Decreasing the number of wait states because of lower CPU frequency */
 691:Drivers/STM32F4xx_HAL_Driver/Src/stm32f4xx_hal_rcc.c ****   if(FLatency < __HAL_FLASH_GET_LATENCY())
ARM GAS  C:\Temp\ccaZfZb8.s 			page 34


 692:Drivers/STM32F4xx_HAL_Driver/Src/stm32f4xx_hal_rcc.c ****   {
 693:Drivers/STM32F4xx_HAL_Driver/Src/stm32f4xx_hal_rcc.c ****      /* Program the new number of wait states to the LATENCY bits in the FLASH_ACR register */
 694:Drivers/STM32F4xx_HAL_Driver/Src/stm32f4xx_hal_rcc.c ****     __HAL_FLASH_SET_LATENCY(FLatency);
 695:Drivers/STM32F4xx_HAL_Driver/Src/stm32f4xx_hal_rcc.c **** 
 696:Drivers/STM32F4xx_HAL_Driver/Src/stm32f4xx_hal_rcc.c ****     /* Check that the new number of wait states is taken into account to access the Flash
 697:Drivers/STM32F4xx_HAL_Driver/Src/stm32f4xx_hal_rcc.c ****     memory by reading the FLASH_ACR register */
 698:Drivers/STM32F4xx_HAL_Driver/Src/stm32f4xx_hal_rcc.c ****     if(__HAL_FLASH_GET_LATENCY() != FLatency)
 699:Drivers/STM32F4xx_HAL_Driver/Src/stm32f4xx_hal_rcc.c ****     {
 700:Drivers/STM32F4xx_HAL_Driver/Src/stm32f4xx_hal_rcc.c ****       return HAL_ERROR;
 701:Drivers/STM32F4xx_HAL_Driver/Src/stm32f4xx_hal_rcc.c ****     }
 702:Drivers/STM32F4xx_HAL_Driver/Src/stm32f4xx_hal_rcc.c ****   }
 703:Drivers/STM32F4xx_HAL_Driver/Src/stm32f4xx_hal_rcc.c **** 
 704:Drivers/STM32F4xx_HAL_Driver/Src/stm32f4xx_hal_rcc.c ****   /*-------------------------- PCLK1 Configuration ---------------------------*/
 705:Drivers/STM32F4xx_HAL_Driver/Src/stm32f4xx_hal_rcc.c ****   if(((RCC_ClkInitStruct->ClockType) & RCC_CLOCKTYPE_PCLK1) == RCC_CLOCKTYPE_PCLK1)
 706:Drivers/STM32F4xx_HAL_Driver/Src/stm32f4xx_hal_rcc.c ****   {
 707:Drivers/STM32F4xx_HAL_Driver/Src/stm32f4xx_hal_rcc.c ****     assert_param(IS_RCC_PCLK(RCC_ClkInitStruct->APB1CLKDivider));
 708:Drivers/STM32F4xx_HAL_Driver/Src/stm32f4xx_hal_rcc.c ****     MODIFY_REG(RCC->CFGR, RCC_CFGR_PPRE1, RCC_ClkInitStruct->APB1CLKDivider);
 709:Drivers/STM32F4xx_HAL_Driver/Src/stm32f4xx_hal_rcc.c ****   }
 710:Drivers/STM32F4xx_HAL_Driver/Src/stm32f4xx_hal_rcc.c **** 
 711:Drivers/STM32F4xx_HAL_Driver/Src/stm32f4xx_hal_rcc.c ****   /*-------------------------- PCLK2 Configuration ---------------------------*/
 712:Drivers/STM32F4xx_HAL_Driver/Src/stm32f4xx_hal_rcc.c ****   if(((RCC_ClkInitStruct->ClockType) & RCC_CLOCKTYPE_PCLK2) == RCC_CLOCKTYPE_PCLK2)
 713:Drivers/STM32F4xx_HAL_Driver/Src/stm32f4xx_hal_rcc.c ****   {
 714:Drivers/STM32F4xx_HAL_Driver/Src/stm32f4xx_hal_rcc.c ****     assert_param(IS_RCC_PCLK(RCC_ClkInitStruct->APB2CLKDivider));
 715:Drivers/STM32F4xx_HAL_Driver/Src/stm32f4xx_hal_rcc.c ****     MODIFY_REG(RCC->CFGR, RCC_CFGR_PPRE2, ((RCC_ClkInitStruct->APB2CLKDivider) << 3U));
 716:Drivers/STM32F4xx_HAL_Driver/Src/stm32f4xx_hal_rcc.c ****   }
 717:Drivers/STM32F4xx_HAL_Driver/Src/stm32f4xx_hal_rcc.c **** 
 718:Drivers/STM32F4xx_HAL_Driver/Src/stm32f4xx_hal_rcc.c ****   /* Update the SystemCoreClock global variable */
 719:Drivers/STM32F4xx_HAL_Driver/Src/stm32f4xx_hal_rcc.c ****   SystemCoreClock = HAL_RCC_GetSysClockFreq() >> AHBPrescTable[(RCC->CFGR & RCC_CFGR_HPRE)>> RCC_CF
 720:Drivers/STM32F4xx_HAL_Driver/Src/stm32f4xx_hal_rcc.c **** 
 721:Drivers/STM32F4xx_HAL_Driver/Src/stm32f4xx_hal_rcc.c ****   /* Configure the source of time base considering new system clocks settings */
 722:Drivers/STM32F4xx_HAL_Driver/Src/stm32f4xx_hal_rcc.c ****   HAL_InitTick (uwTickPrio);
 723:Drivers/STM32F4xx_HAL_Driver/Src/stm32f4xx_hal_rcc.c **** 
 724:Drivers/STM32F4xx_HAL_Driver/Src/stm32f4xx_hal_rcc.c ****   return HAL_OK;
 725:Drivers/STM32F4xx_HAL_Driver/Src/stm32f4xx_hal_rcc.c **** }
 726:Drivers/STM32F4xx_HAL_Driver/Src/stm32f4xx_hal_rcc.c **** 
 727:Drivers/STM32F4xx_HAL_Driver/Src/stm32f4xx_hal_rcc.c **** /**
 728:Drivers/STM32F4xx_HAL_Driver/Src/stm32f4xx_hal_rcc.c ****   * @}
 729:Drivers/STM32F4xx_HAL_Driver/Src/stm32f4xx_hal_rcc.c ****   */
 730:Drivers/STM32F4xx_HAL_Driver/Src/stm32f4xx_hal_rcc.c **** 
 731:Drivers/STM32F4xx_HAL_Driver/Src/stm32f4xx_hal_rcc.c **** /** @defgroup RCC_Exported_Functions_Group2 Peripheral Control functions
 732:Drivers/STM32F4xx_HAL_Driver/Src/stm32f4xx_hal_rcc.c ****  *  @brief   RCC clocks control functions
 733:Drivers/STM32F4xx_HAL_Driver/Src/stm32f4xx_hal_rcc.c ****  *
 734:Drivers/STM32F4xx_HAL_Driver/Src/stm32f4xx_hal_rcc.c **** @verbatim
 735:Drivers/STM32F4xx_HAL_Driver/Src/stm32f4xx_hal_rcc.c ****  ===============================================================================
 736:Drivers/STM32F4xx_HAL_Driver/Src/stm32f4xx_hal_rcc.c ****                       ##### Peripheral Control functions #####
 737:Drivers/STM32F4xx_HAL_Driver/Src/stm32f4xx_hal_rcc.c ****  ===============================================================================
 738:Drivers/STM32F4xx_HAL_Driver/Src/stm32f4xx_hal_rcc.c ****     [..]
 739:Drivers/STM32F4xx_HAL_Driver/Src/stm32f4xx_hal_rcc.c ****     This subsection provides a set of functions allowing to control the RCC Clocks
 740:Drivers/STM32F4xx_HAL_Driver/Src/stm32f4xx_hal_rcc.c ****     frequencies.
 741:Drivers/STM32F4xx_HAL_Driver/Src/stm32f4xx_hal_rcc.c **** 
 742:Drivers/STM32F4xx_HAL_Driver/Src/stm32f4xx_hal_rcc.c **** @endverbatim
 743:Drivers/STM32F4xx_HAL_Driver/Src/stm32f4xx_hal_rcc.c ****   * @{
 744:Drivers/STM32F4xx_HAL_Driver/Src/stm32f4xx_hal_rcc.c ****   */
 745:Drivers/STM32F4xx_HAL_Driver/Src/stm32f4xx_hal_rcc.c **** 
 746:Drivers/STM32F4xx_HAL_Driver/Src/stm32f4xx_hal_rcc.c **** /**
 747:Drivers/STM32F4xx_HAL_Driver/Src/stm32f4xx_hal_rcc.c ****   * @brief  Selects the clock source to output on MCO1 pin(PA8) or on MCO2 pin(PC9).
 748:Drivers/STM32F4xx_HAL_Driver/Src/stm32f4xx_hal_rcc.c ****   * @note   PA8/PC9 should be configured in alternate function mode.
ARM GAS  C:\Temp\ccaZfZb8.s 			page 35


 749:Drivers/STM32F4xx_HAL_Driver/Src/stm32f4xx_hal_rcc.c ****   * @param  RCC_MCOx specifies the output direction for the clock source.
 750:Drivers/STM32F4xx_HAL_Driver/Src/stm32f4xx_hal_rcc.c ****   *          This parameter can be one of the following values:
 751:Drivers/STM32F4xx_HAL_Driver/Src/stm32f4xx_hal_rcc.c ****   *            @arg RCC_MCO1: Clock source to output on MCO1 pin(PA8).
 752:Drivers/STM32F4xx_HAL_Driver/Src/stm32f4xx_hal_rcc.c ****   *            @arg RCC_MCO2: Clock source to output on MCO2 pin(PC9).
 753:Drivers/STM32F4xx_HAL_Driver/Src/stm32f4xx_hal_rcc.c ****   * @param  RCC_MCOSource specifies the clock source to output.
 754:Drivers/STM32F4xx_HAL_Driver/Src/stm32f4xx_hal_rcc.c ****   *          This parameter can be one of the following values:
 755:Drivers/STM32F4xx_HAL_Driver/Src/stm32f4xx_hal_rcc.c ****   *            @arg RCC_MCO1SOURCE_HSI: HSI clock selected as MCO1 source
 756:Drivers/STM32F4xx_HAL_Driver/Src/stm32f4xx_hal_rcc.c ****   *            @arg RCC_MCO1SOURCE_LSE: LSE clock selected as MCO1 source
 757:Drivers/STM32F4xx_HAL_Driver/Src/stm32f4xx_hal_rcc.c ****   *            @arg RCC_MCO1SOURCE_HSE: HSE clock selected as MCO1 source
 758:Drivers/STM32F4xx_HAL_Driver/Src/stm32f4xx_hal_rcc.c ****   *            @arg RCC_MCO1SOURCE_PLLCLK: main PLL clock selected as MCO1 source
 759:Drivers/STM32F4xx_HAL_Driver/Src/stm32f4xx_hal_rcc.c ****   *            @arg RCC_MCO2SOURCE_SYSCLK: System clock (SYSCLK) selected as MCO2 source
 760:Drivers/STM32F4xx_HAL_Driver/Src/stm32f4xx_hal_rcc.c ****   *            @arg RCC_MCO2SOURCE_PLLI2SCLK: PLLI2S clock selected as MCO2 source, available for a
 761:Drivers/STM32F4xx_HAL_Driver/Src/stm32f4xx_hal_rcc.c ****   *            @arg RCC_MCO2SOURCE_I2SCLK: I2SCLK clock selected as MCO2 source, available only for
 762:Drivers/STM32F4xx_HAL_Driver/Src/stm32f4xx_hal_rcc.c ****   *            @arg RCC_MCO2SOURCE_HSE: HSE clock selected as MCO2 source
 763:Drivers/STM32F4xx_HAL_Driver/Src/stm32f4xx_hal_rcc.c ****   *            @arg RCC_MCO2SOURCE_PLLCLK: main PLL clock selected as MCO2 source
 764:Drivers/STM32F4xx_HAL_Driver/Src/stm32f4xx_hal_rcc.c ****   * @param  RCC_MCODiv specifies the MCOx prescaler.
 765:Drivers/STM32F4xx_HAL_Driver/Src/stm32f4xx_hal_rcc.c ****   *          This parameter can be one of the following values:
 766:Drivers/STM32F4xx_HAL_Driver/Src/stm32f4xx_hal_rcc.c ****   *            @arg RCC_MCODIV_1: no division applied to MCOx clock
 767:Drivers/STM32F4xx_HAL_Driver/Src/stm32f4xx_hal_rcc.c ****   *            @arg RCC_MCODIV_2: division by 2 applied to MCOx clock
 768:Drivers/STM32F4xx_HAL_Driver/Src/stm32f4xx_hal_rcc.c ****   *            @arg RCC_MCODIV_3: division by 3 applied to MCOx clock
 769:Drivers/STM32F4xx_HAL_Driver/Src/stm32f4xx_hal_rcc.c ****   *            @arg RCC_MCODIV_4: division by 4 applied to MCOx clock
 770:Drivers/STM32F4xx_HAL_Driver/Src/stm32f4xx_hal_rcc.c ****   *            @arg RCC_MCODIV_5: division by 5 applied to MCOx clock
 771:Drivers/STM32F4xx_HAL_Driver/Src/stm32f4xx_hal_rcc.c ****   * @note  For STM32F410Rx devices to output I2SCLK clock on MCO2 you should have
 772:Drivers/STM32F4xx_HAL_Driver/Src/stm32f4xx_hal_rcc.c ****   *        at last one of the SPI clocks enabled (SPI1, SPI2 or SPI5).
 773:Drivers/STM32F4xx_HAL_Driver/Src/stm32f4xx_hal_rcc.c ****   * @retval None
 774:Drivers/STM32F4xx_HAL_Driver/Src/stm32f4xx_hal_rcc.c ****   */
 775:Drivers/STM32F4xx_HAL_Driver/Src/stm32f4xx_hal_rcc.c **** void HAL_RCC_MCOConfig(uint32_t RCC_MCOx, uint32_t RCC_MCOSource, uint32_t RCC_MCODiv)
 776:Drivers/STM32F4xx_HAL_Driver/Src/stm32f4xx_hal_rcc.c **** {
 1078              		.loc 1 776 1 is_stmt 1 view -0
 1079              		.cfi_startproc
 1080              		@ args = 0, pretend = 0, frame = 32
 1081              		@ frame_needed = 0, uses_anonymous_args = 0
 1082              		.loc 1 776 1 is_stmt 0 view .LVU307
 1083 0000 70B5     		push	{r4, r5, r6, lr}
 1084              		.cfi_def_cfa_offset 16
 1085              		.cfi_offset 4, -16
 1086              		.cfi_offset 5, -12
 1087              		.cfi_offset 6, -8
 1088              		.cfi_offset 14, -4
 1089 0002 88B0     		sub	sp, sp, #32
 1090              		.cfi_def_cfa_offset 48
 1091 0004 0646     		mov	r6, r0
 1092 0006 0D46     		mov	r5, r1
 1093 0008 1446     		mov	r4, r2
 777:Drivers/STM32F4xx_HAL_Driver/Src/stm32f4xx_hal_rcc.c ****   GPIO_InitTypeDef GPIO_InitStruct;
 1094              		.loc 1 777 3 is_stmt 1 view .LVU308
 778:Drivers/STM32F4xx_HAL_Driver/Src/stm32f4xx_hal_rcc.c ****   /* Check the parameters */
 779:Drivers/STM32F4xx_HAL_Driver/Src/stm32f4xx_hal_rcc.c ****   assert_param(IS_RCC_MCO(RCC_MCOx));
 1095              		.loc 1 779 3 view .LVU309
 1096 000a 0128     		cmp	r0, #1
 1097 000c 39D8     		bhi	.L128
 1098              	.LVL79:
 1099              	.L121:
 780:Drivers/STM32F4xx_HAL_Driver/Src/stm32f4xx_hal_rcc.c ****   assert_param(IS_RCC_MCODIV(RCC_MCODiv));
 1100              		.loc 1 780 3 view .LVU310
 1101 000e 5CB1     		cbz	r4, .L122
 1102              		.loc 1 780 3 is_stmt 0 discriminator 1 view .LVU311
ARM GAS  C:\Temp\ccaZfZb8.s 			page 36


 1103 0010 B4F1806F 		cmp	r4, #67108864
 1104 0014 08D0     		beq	.L122
 1105              		.loc 1 780 3 discriminator 2 view .LVU312
 1106 0016 B4F1A06F 		cmp	r4, #83886080
 1107 001a 05D0     		beq	.L122
 1108              		.loc 1 780 3 discriminator 3 view .LVU313
 1109 001c B4F1C06F 		cmp	r4, #100663296
 1110 0020 02D0     		beq	.L122
 1111              		.loc 1 780 3 discriminator 4 view .LVU314
 1112 0022 B4F1E06F 		cmp	r4, #117440512
 1113 0026 32D1     		bne	.L129
 1114              	.L122:
 781:Drivers/STM32F4xx_HAL_Driver/Src/stm32f4xx_hal_rcc.c ****   /* RCC_MCO1 */
 782:Drivers/STM32F4xx_HAL_Driver/Src/stm32f4xx_hal_rcc.c ****   if(RCC_MCOx == RCC_MCO1)
 1115              		.loc 1 782 3 is_stmt 1 view .LVU315
 1116              		.loc 1 782 5 is_stmt 0 view .LVU316
 1117 0028 002E     		cmp	r6, #0
 1118 002a 3CD1     		bne	.L123
 783:Drivers/STM32F4xx_HAL_Driver/Src/stm32f4xx_hal_rcc.c ****   {
 784:Drivers/STM32F4xx_HAL_Driver/Src/stm32f4xx_hal_rcc.c ****     assert_param(IS_RCC_MCO1SOURCE(RCC_MCOSource));
 1119              		.loc 1 784 5 is_stmt 1 view .LVU317
 1120 002c 45B1     		cbz	r5, .L124
 1121              		.loc 1 784 5 is_stmt 0 discriminator 1 view .LVU318
 1122 002e B5F5001F 		cmp	r5, #2097152
 1123 0032 05D0     		beq	.L124
 1124              		.loc 1 784 5 discriminator 2 view .LVU319
 1125 0034 B5F5800F 		cmp	r5, #4194304
 1126 0038 02D0     		beq	.L124
 1127              		.loc 1 784 5 discriminator 3 view .LVU320
 1128 003a B5F5C00F 		cmp	r5, #6291456
 1129 003e 2CD1     		bne	.L130
 1130              	.L124:
 785:Drivers/STM32F4xx_HAL_Driver/Src/stm32f4xx_hal_rcc.c **** 
 786:Drivers/STM32F4xx_HAL_Driver/Src/stm32f4xx_hal_rcc.c ****     /* MCO1 Clock Enable */
 787:Drivers/STM32F4xx_HAL_Driver/Src/stm32f4xx_hal_rcc.c ****     __MCO1_CLK_ENABLE();
 1131              		.loc 1 787 5 is_stmt 1 view .LVU321
 1132              	.LBB5:
 1133              		.loc 1 787 5 view .LVU322
 1134 0040 0023     		movs	r3, #0
 1135 0042 0193     		str	r3, [sp, #4]
 1136              		.loc 1 787 5 view .LVU323
 1137 0044 304E     		ldr	r6, .L132
 1138              	.LVL80:
 1139              		.loc 1 787 5 is_stmt 0 view .LVU324
 1140 0046 326B     		ldr	r2, [r6, #48]
 1141 0048 42F00102 		orr	r2, r2, #1
 1142 004c 3263     		str	r2, [r6, #48]
 1143              		.loc 1 787 5 is_stmt 1 view .LVU325
 1144 004e 326B     		ldr	r2, [r6, #48]
 1145 0050 02F00102 		and	r2, r2, #1
 1146 0054 0192     		str	r2, [sp, #4]
 1147              		.loc 1 787 5 view .LVU326
 1148 0056 019A     		ldr	r2, [sp, #4]
 1149              	.LBE5:
 1150              		.loc 1 787 5 view .LVU327
 788:Drivers/STM32F4xx_HAL_Driver/Src/stm32f4xx_hal_rcc.c **** 
 789:Drivers/STM32F4xx_HAL_Driver/Src/stm32f4xx_hal_rcc.c ****     /* Configure the MCO1 pin in alternate function mode */
ARM GAS  C:\Temp\ccaZfZb8.s 			page 37


 790:Drivers/STM32F4xx_HAL_Driver/Src/stm32f4xx_hal_rcc.c ****     GPIO_InitStruct.Pin = MCO1_PIN;
 1151              		.loc 1 790 5 view .LVU328
 1152              		.loc 1 790 25 is_stmt 0 view .LVU329
 1153 0058 4FF48072 		mov	r2, #256
 1154 005c 0392     		str	r2, [sp, #12]
 791:Drivers/STM32F4xx_HAL_Driver/Src/stm32f4xx_hal_rcc.c ****     GPIO_InitStruct.Mode = GPIO_MODE_AF_PP;
 1155              		.loc 1 791 5 is_stmt 1 view .LVU330
 1156              		.loc 1 791 26 is_stmt 0 view .LVU331
 1157 005e 0222     		movs	r2, #2
 1158 0060 0492     		str	r2, [sp, #16]
 792:Drivers/STM32F4xx_HAL_Driver/Src/stm32f4xx_hal_rcc.c ****     GPIO_InitStruct.Speed = GPIO_SPEED_FREQ_VERY_HIGH;
 1159              		.loc 1 792 5 is_stmt 1 view .LVU332
 1160              		.loc 1 792 27 is_stmt 0 view .LVU333
 1161 0062 0322     		movs	r2, #3
 1162 0064 0692     		str	r2, [sp, #24]
 793:Drivers/STM32F4xx_HAL_Driver/Src/stm32f4xx_hal_rcc.c ****     GPIO_InitStruct.Pull = GPIO_NOPULL;
 1163              		.loc 1 793 5 is_stmt 1 view .LVU334
 1164              		.loc 1 793 26 is_stmt 0 view .LVU335
 1165 0066 0593     		str	r3, [sp, #20]
 794:Drivers/STM32F4xx_HAL_Driver/Src/stm32f4xx_hal_rcc.c ****     GPIO_InitStruct.Alternate = GPIO_AF0_MCO;
 1166              		.loc 1 794 5 is_stmt 1 view .LVU336
 1167              		.loc 1 794 31 is_stmt 0 view .LVU337
 1168 0068 0793     		str	r3, [sp, #28]
 795:Drivers/STM32F4xx_HAL_Driver/Src/stm32f4xx_hal_rcc.c ****     HAL_GPIO_Init(MCO1_GPIO_PORT, &GPIO_InitStruct);
 1169              		.loc 1 795 5 is_stmt 1 view .LVU338
 1170 006a 03A9     		add	r1, sp, #12
 1171 006c 2748     		ldr	r0, .L132+4
 1172 006e FFF7FEFF 		bl	HAL_GPIO_Init
 1173              	.LVL81:
 796:Drivers/STM32F4xx_HAL_Driver/Src/stm32f4xx_hal_rcc.c **** 
 797:Drivers/STM32F4xx_HAL_Driver/Src/stm32f4xx_hal_rcc.c ****     /* Mask MCO1 and MCO1PRE[2:0] bits then Select MCO1 clock source and prescaler */
 798:Drivers/STM32F4xx_HAL_Driver/Src/stm32f4xx_hal_rcc.c ****     MODIFY_REG(RCC->CFGR, (RCC_CFGR_MCO1 | RCC_CFGR_MCO1PRE), (RCC_MCOSource | RCC_MCODiv));
 1174              		.loc 1 798 5 view .LVU339
 1175 0072 B368     		ldr	r3, [r6, #8]
 1176 0074 23F0EC63 		bic	r3, r3, #123731968
 1177 0078 2C43     		orrs	r4, r4, r5
 1178              	.LVL82:
 1179              		.loc 1 798 5 is_stmt 0 view .LVU340
 1180 007a 1C43     		orrs	r4, r4, r3
 1181 007c B460     		str	r4, [r6, #8]
 1182              	.LVL83:
 1183              	.L120:
 799:Drivers/STM32F4xx_HAL_Driver/Src/stm32f4xx_hal_rcc.c **** 
 800:Drivers/STM32F4xx_HAL_Driver/Src/stm32f4xx_hal_rcc.c ****    /* This RCC MCO1 enable feature is available only on STM32F410xx devices */
 801:Drivers/STM32F4xx_HAL_Driver/Src/stm32f4xx_hal_rcc.c **** #if defined(RCC_CFGR_MCO1EN)
 802:Drivers/STM32F4xx_HAL_Driver/Src/stm32f4xx_hal_rcc.c ****     __HAL_RCC_MCO1_ENABLE();
 803:Drivers/STM32F4xx_HAL_Driver/Src/stm32f4xx_hal_rcc.c **** #endif /* RCC_CFGR_MCO1EN */
 804:Drivers/STM32F4xx_HAL_Driver/Src/stm32f4xx_hal_rcc.c ****   }
 805:Drivers/STM32F4xx_HAL_Driver/Src/stm32f4xx_hal_rcc.c **** #if defined(RCC_CFGR_MCO2)
 806:Drivers/STM32F4xx_HAL_Driver/Src/stm32f4xx_hal_rcc.c ****   else
 807:Drivers/STM32F4xx_HAL_Driver/Src/stm32f4xx_hal_rcc.c ****   {
 808:Drivers/STM32F4xx_HAL_Driver/Src/stm32f4xx_hal_rcc.c ****     assert_param(IS_RCC_MCO2SOURCE(RCC_MCOSource));
 809:Drivers/STM32F4xx_HAL_Driver/Src/stm32f4xx_hal_rcc.c **** 
 810:Drivers/STM32F4xx_HAL_Driver/Src/stm32f4xx_hal_rcc.c ****     /* MCO2 Clock Enable */
 811:Drivers/STM32F4xx_HAL_Driver/Src/stm32f4xx_hal_rcc.c ****     __MCO2_CLK_ENABLE();
 812:Drivers/STM32F4xx_HAL_Driver/Src/stm32f4xx_hal_rcc.c **** 
 813:Drivers/STM32F4xx_HAL_Driver/Src/stm32f4xx_hal_rcc.c ****     /* Configure the MCO2 pin in alternate function mode */
ARM GAS  C:\Temp\ccaZfZb8.s 			page 38


 814:Drivers/STM32F4xx_HAL_Driver/Src/stm32f4xx_hal_rcc.c ****     GPIO_InitStruct.Pin = MCO2_PIN;
 815:Drivers/STM32F4xx_HAL_Driver/Src/stm32f4xx_hal_rcc.c ****     GPIO_InitStruct.Mode = GPIO_MODE_AF_PP;
 816:Drivers/STM32F4xx_HAL_Driver/Src/stm32f4xx_hal_rcc.c ****     GPIO_InitStruct.Speed = GPIO_SPEED_FREQ_VERY_HIGH;
 817:Drivers/STM32F4xx_HAL_Driver/Src/stm32f4xx_hal_rcc.c ****     GPIO_InitStruct.Pull = GPIO_NOPULL;
 818:Drivers/STM32F4xx_HAL_Driver/Src/stm32f4xx_hal_rcc.c ****     GPIO_InitStruct.Alternate = GPIO_AF0_MCO;
 819:Drivers/STM32F4xx_HAL_Driver/Src/stm32f4xx_hal_rcc.c ****     HAL_GPIO_Init(MCO2_GPIO_PORT, &GPIO_InitStruct);
 820:Drivers/STM32F4xx_HAL_Driver/Src/stm32f4xx_hal_rcc.c **** 
 821:Drivers/STM32F4xx_HAL_Driver/Src/stm32f4xx_hal_rcc.c ****     /* Mask MCO2 and MCO2PRE[2:0] bits then Select MCO2 clock source and prescaler */
 822:Drivers/STM32F4xx_HAL_Driver/Src/stm32f4xx_hal_rcc.c ****     MODIFY_REG(RCC->CFGR, (RCC_CFGR_MCO2 | RCC_CFGR_MCO2PRE), (RCC_MCOSource | (RCC_MCODiv << 3U)))
 823:Drivers/STM32F4xx_HAL_Driver/Src/stm32f4xx_hal_rcc.c **** 
 824:Drivers/STM32F4xx_HAL_Driver/Src/stm32f4xx_hal_rcc.c ****    /* This RCC MCO2 enable feature is available only on STM32F410Rx devices */
 825:Drivers/STM32F4xx_HAL_Driver/Src/stm32f4xx_hal_rcc.c **** #if defined(RCC_CFGR_MCO2EN)
 826:Drivers/STM32F4xx_HAL_Driver/Src/stm32f4xx_hal_rcc.c ****     __HAL_RCC_MCO2_ENABLE();
 827:Drivers/STM32F4xx_HAL_Driver/Src/stm32f4xx_hal_rcc.c **** #endif /* RCC_CFGR_MCO2EN */
 828:Drivers/STM32F4xx_HAL_Driver/Src/stm32f4xx_hal_rcc.c ****   }
 829:Drivers/STM32F4xx_HAL_Driver/Src/stm32f4xx_hal_rcc.c **** #endif /* RCC_CFGR_MCO2 */
 830:Drivers/STM32F4xx_HAL_Driver/Src/stm32f4xx_hal_rcc.c **** }
 1184              		.loc 1 830 1 view .LVU341
 1185 007e 08B0     		add	sp, sp, #32
 1186              		.cfi_remember_state
 1187              		.cfi_def_cfa_offset 16
 1188              		@ sp needed
 1189 0080 70BD     		pop	{r4, r5, r6, pc}
 1190              	.LVL84:
 1191              	.L128:
 1192              		.cfi_restore_state
 779:Drivers/STM32F4xx_HAL_Driver/Src/stm32f4xx_hal_rcc.c ****   assert_param(IS_RCC_MCODIV(RCC_MCODiv));
 1193              		.loc 1 779 3 discriminator 1 view .LVU342
 1194 0082 40F20B31 		movw	r1, #779
 1195              	.LVL85:
 779:Drivers/STM32F4xx_HAL_Driver/Src/stm32f4xx_hal_rcc.c ****   assert_param(IS_RCC_MCODIV(RCC_MCODiv));
 1196              		.loc 1 779 3 discriminator 1 view .LVU343
 1197 0086 2248     		ldr	r0, .L132+8
 1198              	.LVL86:
 779:Drivers/STM32F4xx_HAL_Driver/Src/stm32f4xx_hal_rcc.c ****   assert_param(IS_RCC_MCODIV(RCC_MCODiv));
 1199              		.loc 1 779 3 discriminator 1 view .LVU344
 1200 0088 FFF7FEFF 		bl	assert_failed
 1201              	.LVL87:
 779:Drivers/STM32F4xx_HAL_Driver/Src/stm32f4xx_hal_rcc.c ****   assert_param(IS_RCC_MCODIV(RCC_MCODiv));
 1202              		.loc 1 779 3 discriminator 1 view .LVU345
 1203 008c BFE7     		b	.L121
 1204              	.L129:
 780:Drivers/STM32F4xx_HAL_Driver/Src/stm32f4xx_hal_rcc.c ****   /* RCC_MCO1 */
 1205              		.loc 1 780 3 discriminator 5 view .LVU346
 1206 008e 4FF44371 		mov	r1, #780
 1207 0092 1F48     		ldr	r0, .L132+8
 1208 0094 FFF7FEFF 		bl	assert_failed
 1209              	.LVL88:
 1210 0098 C6E7     		b	.L122
 1211              	.L130:
 784:Drivers/STM32F4xx_HAL_Driver/Src/stm32f4xx_hal_rcc.c **** 
 1212              		.loc 1 784 5 discriminator 4 view .LVU347
 1213 009a 4FF44471 		mov	r1, #784
 1214 009e 1C48     		ldr	r0, .L132+8
 1215 00a0 FFF7FEFF 		bl	assert_failed
 1216              	.LVL89:
 1217 00a4 CCE7     		b	.L124
ARM GAS  C:\Temp\ccaZfZb8.s 			page 39


 1218              	.L123:
 808:Drivers/STM32F4xx_HAL_Driver/Src/stm32f4xx_hal_rcc.c **** 
 1219              		.loc 1 808 5 is_stmt 1 view .LVU348
 1220 00a6 45B1     		cbz	r5, .L126
 808:Drivers/STM32F4xx_HAL_Driver/Src/stm32f4xx_hal_rcc.c **** 
 1221              		.loc 1 808 5 is_stmt 0 discriminator 1 view .LVU349
 1222 00a8 B5F1804F 		cmp	r5, #1073741824
 1223 00ac 05D0     		beq	.L126
 808:Drivers/STM32F4xx_HAL_Driver/Src/stm32f4xx_hal_rcc.c **** 
 1224              		.loc 1 808 5 discriminator 2 view .LVU350
 1225 00ae B5F1004F 		cmp	r5, #-2147483648
 1226 00b2 02D0     		beq	.L126
 808:Drivers/STM32F4xx_HAL_Driver/Src/stm32f4xx_hal_rcc.c **** 
 1227              		.loc 1 808 5 discriminator 3 view .LVU351
 1228 00b4 B5F1404F 		cmp	r5, #-1073741824
 1229 00b8 20D1     		bne	.L131
 1230              	.L126:
 811:Drivers/STM32F4xx_HAL_Driver/Src/stm32f4xx_hal_rcc.c **** 
 1231              		.loc 1 811 5 is_stmt 1 view .LVU352
 1232              	.LBB6:
 811:Drivers/STM32F4xx_HAL_Driver/Src/stm32f4xx_hal_rcc.c **** 
 1233              		.loc 1 811 5 view .LVU353
 1234 00ba 0023     		movs	r3, #0
 1235 00bc 0293     		str	r3, [sp, #8]
 811:Drivers/STM32F4xx_HAL_Driver/Src/stm32f4xx_hal_rcc.c **** 
 1236              		.loc 1 811 5 view .LVU354
 1237 00be 124E     		ldr	r6, .L132
 1238              	.LVL90:
 811:Drivers/STM32F4xx_HAL_Driver/Src/stm32f4xx_hal_rcc.c **** 
 1239              		.loc 1 811 5 is_stmt 0 view .LVU355
 1240 00c0 326B     		ldr	r2, [r6, #48]
 1241 00c2 42F00402 		orr	r2, r2, #4
 1242 00c6 3263     		str	r2, [r6, #48]
 811:Drivers/STM32F4xx_HAL_Driver/Src/stm32f4xx_hal_rcc.c **** 
 1243              		.loc 1 811 5 is_stmt 1 view .LVU356
 1244 00c8 326B     		ldr	r2, [r6, #48]
 1245 00ca 02F00402 		and	r2, r2, #4
 1246 00ce 0292     		str	r2, [sp, #8]
 811:Drivers/STM32F4xx_HAL_Driver/Src/stm32f4xx_hal_rcc.c **** 
 1247              		.loc 1 811 5 view .LVU357
 1248 00d0 029A     		ldr	r2, [sp, #8]
 1249              	.LBE6:
 811:Drivers/STM32F4xx_HAL_Driver/Src/stm32f4xx_hal_rcc.c **** 
 1250              		.loc 1 811 5 view .LVU358
 814:Drivers/STM32F4xx_HAL_Driver/Src/stm32f4xx_hal_rcc.c ****     GPIO_InitStruct.Mode = GPIO_MODE_AF_PP;
 1251              		.loc 1 814 5 view .LVU359
 814:Drivers/STM32F4xx_HAL_Driver/Src/stm32f4xx_hal_rcc.c ****     GPIO_InitStruct.Mode = GPIO_MODE_AF_PP;
 1252              		.loc 1 814 25 is_stmt 0 view .LVU360
 1253 00d2 4FF40072 		mov	r2, #512
 1254 00d6 0392     		str	r2, [sp, #12]
 815:Drivers/STM32F4xx_HAL_Driver/Src/stm32f4xx_hal_rcc.c ****     GPIO_InitStruct.Speed = GPIO_SPEED_FREQ_VERY_HIGH;
 1255              		.loc 1 815 5 is_stmt 1 view .LVU361
 815:Drivers/STM32F4xx_HAL_Driver/Src/stm32f4xx_hal_rcc.c ****     GPIO_InitStruct.Speed = GPIO_SPEED_FREQ_VERY_HIGH;
 1256              		.loc 1 815 26 is_stmt 0 view .LVU362
 1257 00d8 0222     		movs	r2, #2
 1258 00da 0492     		str	r2, [sp, #16]
 816:Drivers/STM32F4xx_HAL_Driver/Src/stm32f4xx_hal_rcc.c ****     GPIO_InitStruct.Pull = GPIO_NOPULL;
ARM GAS  C:\Temp\ccaZfZb8.s 			page 40


 1259              		.loc 1 816 5 is_stmt 1 view .LVU363
 816:Drivers/STM32F4xx_HAL_Driver/Src/stm32f4xx_hal_rcc.c ****     GPIO_InitStruct.Pull = GPIO_NOPULL;
 1260              		.loc 1 816 27 is_stmt 0 view .LVU364
 1261 00dc 0322     		movs	r2, #3
 1262 00de 0692     		str	r2, [sp, #24]
 817:Drivers/STM32F4xx_HAL_Driver/Src/stm32f4xx_hal_rcc.c ****     GPIO_InitStruct.Alternate = GPIO_AF0_MCO;
 1263              		.loc 1 817 5 is_stmt 1 view .LVU365
 817:Drivers/STM32F4xx_HAL_Driver/Src/stm32f4xx_hal_rcc.c ****     GPIO_InitStruct.Alternate = GPIO_AF0_MCO;
 1264              		.loc 1 817 26 is_stmt 0 view .LVU366
 1265 00e0 0593     		str	r3, [sp, #20]
 818:Drivers/STM32F4xx_HAL_Driver/Src/stm32f4xx_hal_rcc.c ****     HAL_GPIO_Init(MCO2_GPIO_PORT, &GPIO_InitStruct);
 1266              		.loc 1 818 5 is_stmt 1 view .LVU367
 818:Drivers/STM32F4xx_HAL_Driver/Src/stm32f4xx_hal_rcc.c ****     HAL_GPIO_Init(MCO2_GPIO_PORT, &GPIO_InitStruct);
 1267              		.loc 1 818 31 is_stmt 0 view .LVU368
 1268 00e2 0793     		str	r3, [sp, #28]
 819:Drivers/STM32F4xx_HAL_Driver/Src/stm32f4xx_hal_rcc.c **** 
 1269              		.loc 1 819 5 is_stmt 1 view .LVU369
 1270 00e4 03A9     		add	r1, sp, #12
 1271 00e6 0B48     		ldr	r0, .L132+12
 1272 00e8 FFF7FEFF 		bl	HAL_GPIO_Init
 1273              	.LVL91:
 822:Drivers/STM32F4xx_HAL_Driver/Src/stm32f4xx_hal_rcc.c **** 
 1274              		.loc 1 822 5 view .LVU370
 1275 00ec B368     		ldr	r3, [r6, #8]
 1276 00ee 23F07843 		bic	r3, r3, #-134217728
 1277 00f2 45EAC405 		orr	r5, r5, r4, lsl #3
 1278              	.LVL92:
 822:Drivers/STM32F4xx_HAL_Driver/Src/stm32f4xx_hal_rcc.c **** 
 1279              		.loc 1 822 5 is_stmt 0 view .LVU371
 1280 00f6 2B43     		orrs	r3, r3, r5
 1281 00f8 B360     		str	r3, [r6, #8]
 1282              		.loc 1 830 1 view .LVU372
 1283 00fa C0E7     		b	.L120
 1284              	.LVL93:
 1285              	.L131:
 808:Drivers/STM32F4xx_HAL_Driver/Src/stm32f4xx_hal_rcc.c **** 
 1286              		.loc 1 808 5 discriminator 4 view .LVU373
 1287 00fc 4FF44A71 		mov	r1, #808
 1288 0100 0348     		ldr	r0, .L132+8
 1289 0102 FFF7FEFF 		bl	assert_failed
 1290              	.LVL94:
 1291 0106 D8E7     		b	.L126
 1292              	.L133:
 1293              		.align	2
 1294              	.L132:
 1295 0108 00380240 		.word	1073887232
 1296 010c 00000240 		.word	1073872896
 1297 0110 00000000 		.word	.LC0
 1298 0114 00080240 		.word	1073874944
 1299              		.cfi_endproc
 1300              	.LFE137:
 1302              		.section	.text.HAL_RCC_EnableCSS,"ax",%progbits
 1303              		.align	1
 1304              		.global	HAL_RCC_EnableCSS
 1305              		.syntax unified
 1306              		.thumb
 1307              		.thumb_func
ARM GAS  C:\Temp\ccaZfZb8.s 			page 41


 1309              	HAL_RCC_EnableCSS:
 1310              	.LFB138:
 831:Drivers/STM32F4xx_HAL_Driver/Src/stm32f4xx_hal_rcc.c **** 
 832:Drivers/STM32F4xx_HAL_Driver/Src/stm32f4xx_hal_rcc.c **** /**
 833:Drivers/STM32F4xx_HAL_Driver/Src/stm32f4xx_hal_rcc.c ****   * @brief  Enables the Clock Security System.
 834:Drivers/STM32F4xx_HAL_Driver/Src/stm32f4xx_hal_rcc.c ****   * @note   If a failure is detected on the HSE oscillator clock, this oscillator
 835:Drivers/STM32F4xx_HAL_Driver/Src/stm32f4xx_hal_rcc.c ****   *         is automatically disabled and an interrupt is generated to inform the
 836:Drivers/STM32F4xx_HAL_Driver/Src/stm32f4xx_hal_rcc.c ****   *         software about the failure (Clock Security System Interrupt, CSSI),
 837:Drivers/STM32F4xx_HAL_Driver/Src/stm32f4xx_hal_rcc.c ****   *         allowing the MCU to perform rescue operations. The CSSI is linked to
 838:Drivers/STM32F4xx_HAL_Driver/Src/stm32f4xx_hal_rcc.c ****   *         the Cortex-M4 NMI (Non-Maskable Interrupt) exception vector.
 839:Drivers/STM32F4xx_HAL_Driver/Src/stm32f4xx_hal_rcc.c ****   * @retval None
 840:Drivers/STM32F4xx_HAL_Driver/Src/stm32f4xx_hal_rcc.c ****   */
 841:Drivers/STM32F4xx_HAL_Driver/Src/stm32f4xx_hal_rcc.c **** void HAL_RCC_EnableCSS(void)
 842:Drivers/STM32F4xx_HAL_Driver/Src/stm32f4xx_hal_rcc.c **** {
 1311              		.loc 1 842 1 is_stmt 1 view -0
 1312              		.cfi_startproc
 1313              		@ args = 0, pretend = 0, frame = 0
 1314              		@ frame_needed = 0, uses_anonymous_args = 0
 1315              		@ link register save eliminated.
 843:Drivers/STM32F4xx_HAL_Driver/Src/stm32f4xx_hal_rcc.c ****   *(__IO uint32_t *) RCC_CR_CSSON_BB = (uint32_t)ENABLE;
 1316              		.loc 1 843 3 view .LVU375
 1317              		.loc 1 843 38 is_stmt 0 view .LVU376
 1318 0000 014B     		ldr	r3, .L135
 1319 0002 0122     		movs	r2, #1
 1320 0004 DA64     		str	r2, [r3, #76]
 844:Drivers/STM32F4xx_HAL_Driver/Src/stm32f4xx_hal_rcc.c **** }
 1321              		.loc 1 844 1 view .LVU377
 1322 0006 7047     		bx	lr
 1323              	.L136:
 1324              		.align	2
 1325              	.L135:
 1326 0008 00004742 		.word	1111949312
 1327              		.cfi_endproc
 1328              	.LFE138:
 1330              		.section	.text.HAL_RCC_DisableCSS,"ax",%progbits
 1331              		.align	1
 1332              		.global	HAL_RCC_DisableCSS
 1333              		.syntax unified
 1334              		.thumb
 1335              		.thumb_func
 1337              	HAL_RCC_DisableCSS:
 1338              	.LFB139:
 845:Drivers/STM32F4xx_HAL_Driver/Src/stm32f4xx_hal_rcc.c **** 
 846:Drivers/STM32F4xx_HAL_Driver/Src/stm32f4xx_hal_rcc.c **** /**
 847:Drivers/STM32F4xx_HAL_Driver/Src/stm32f4xx_hal_rcc.c ****   * @brief  Disables the Clock Security System.
 848:Drivers/STM32F4xx_HAL_Driver/Src/stm32f4xx_hal_rcc.c ****   * @retval None
 849:Drivers/STM32F4xx_HAL_Driver/Src/stm32f4xx_hal_rcc.c ****   */
 850:Drivers/STM32F4xx_HAL_Driver/Src/stm32f4xx_hal_rcc.c **** void HAL_RCC_DisableCSS(void)
 851:Drivers/STM32F4xx_HAL_Driver/Src/stm32f4xx_hal_rcc.c **** {
 1339              		.loc 1 851 1 is_stmt 1 view -0
 1340              		.cfi_startproc
 1341              		@ args = 0, pretend = 0, frame = 0
 1342              		@ frame_needed = 0, uses_anonymous_args = 0
 1343              		@ link register save eliminated.
 852:Drivers/STM32F4xx_HAL_Driver/Src/stm32f4xx_hal_rcc.c ****   *(__IO uint32_t *) RCC_CR_CSSON_BB = (uint32_t)DISABLE;
 1344              		.loc 1 852 3 view .LVU379
 1345              		.loc 1 852 38 is_stmt 0 view .LVU380
ARM GAS  C:\Temp\ccaZfZb8.s 			page 42


 1346 0000 014B     		ldr	r3, .L138
 1347 0002 0022     		movs	r2, #0
 1348 0004 DA64     		str	r2, [r3, #76]
 853:Drivers/STM32F4xx_HAL_Driver/Src/stm32f4xx_hal_rcc.c **** }
 1349              		.loc 1 853 1 view .LVU381
 1350 0006 7047     		bx	lr
 1351              	.L139:
 1352              		.align	2
 1353              	.L138:
 1354 0008 00004742 		.word	1111949312
 1355              		.cfi_endproc
 1356              	.LFE139:
 1358              		.global	__aeabi_uldivmod
 1359              		.section	.text.HAL_RCC_GetSysClockFreq,"ax",%progbits
 1360              		.align	1
 1361              		.weak	HAL_RCC_GetSysClockFreq
 1362              		.syntax unified
 1363              		.thumb
 1364              		.thumb_func
 1366              	HAL_RCC_GetSysClockFreq:
 1367              	.LFB140:
 854:Drivers/STM32F4xx_HAL_Driver/Src/stm32f4xx_hal_rcc.c **** 
 855:Drivers/STM32F4xx_HAL_Driver/Src/stm32f4xx_hal_rcc.c **** /**
 856:Drivers/STM32F4xx_HAL_Driver/Src/stm32f4xx_hal_rcc.c ****   * @brief  Returns the SYSCLK frequency
 857:Drivers/STM32F4xx_HAL_Driver/Src/stm32f4xx_hal_rcc.c ****   *
 858:Drivers/STM32F4xx_HAL_Driver/Src/stm32f4xx_hal_rcc.c ****   * @note   The system frequency computed by this function is not the real
 859:Drivers/STM32F4xx_HAL_Driver/Src/stm32f4xx_hal_rcc.c ****   *         frequency in the chip. It is calculated based on the predefined
 860:Drivers/STM32F4xx_HAL_Driver/Src/stm32f4xx_hal_rcc.c ****   *         constant and the selected clock source:
 861:Drivers/STM32F4xx_HAL_Driver/Src/stm32f4xx_hal_rcc.c ****   * @note     If SYSCLK source is HSI, function returns values based on HSI_VALUE(*)
 862:Drivers/STM32F4xx_HAL_Driver/Src/stm32f4xx_hal_rcc.c ****   * @note     If SYSCLK source is HSE, function returns values based on HSE_VALUE(**)
 863:Drivers/STM32F4xx_HAL_Driver/Src/stm32f4xx_hal_rcc.c ****   * @note     If SYSCLK source is PLL, function returns values based on HSE_VALUE(**)
 864:Drivers/STM32F4xx_HAL_Driver/Src/stm32f4xx_hal_rcc.c ****   *           or HSI_VALUE(*) multiplied/divided by the PLL factors.
 865:Drivers/STM32F4xx_HAL_Driver/Src/stm32f4xx_hal_rcc.c ****   * @note     (*) HSI_VALUE is a constant defined in stm32f4xx_hal_conf.h file (default value
 866:Drivers/STM32F4xx_HAL_Driver/Src/stm32f4xx_hal_rcc.c ****   *               16 MHz) but the real value may vary depending on the variations
 867:Drivers/STM32F4xx_HAL_Driver/Src/stm32f4xx_hal_rcc.c ****   *               in voltage and temperature.
 868:Drivers/STM32F4xx_HAL_Driver/Src/stm32f4xx_hal_rcc.c ****   * @note     (**) HSE_VALUE is a constant defined in stm32f4xx_hal_conf.h file (default value
 869:Drivers/STM32F4xx_HAL_Driver/Src/stm32f4xx_hal_rcc.c ****   *                25 MHz), user has to ensure that HSE_VALUE is same as the real
 870:Drivers/STM32F4xx_HAL_Driver/Src/stm32f4xx_hal_rcc.c ****   *                frequency of the crystal used. Otherwise, this function may
 871:Drivers/STM32F4xx_HAL_Driver/Src/stm32f4xx_hal_rcc.c ****   *                have wrong result.
 872:Drivers/STM32F4xx_HAL_Driver/Src/stm32f4xx_hal_rcc.c ****   *
 873:Drivers/STM32F4xx_HAL_Driver/Src/stm32f4xx_hal_rcc.c ****   * @note   The result of this function could be not correct when using fractional
 874:Drivers/STM32F4xx_HAL_Driver/Src/stm32f4xx_hal_rcc.c ****   *         value for HSE crystal.
 875:Drivers/STM32F4xx_HAL_Driver/Src/stm32f4xx_hal_rcc.c ****   *
 876:Drivers/STM32F4xx_HAL_Driver/Src/stm32f4xx_hal_rcc.c ****   * @note   This function can be used by the user application to compute the
 877:Drivers/STM32F4xx_HAL_Driver/Src/stm32f4xx_hal_rcc.c ****   *         baudrate for the communication peripherals or configure other parameters.
 878:Drivers/STM32F4xx_HAL_Driver/Src/stm32f4xx_hal_rcc.c ****   *
 879:Drivers/STM32F4xx_HAL_Driver/Src/stm32f4xx_hal_rcc.c ****   * @note   Each time SYSCLK changes, this function must be called to update the
 880:Drivers/STM32F4xx_HAL_Driver/Src/stm32f4xx_hal_rcc.c ****   *         right SYSCLK value. Otherwise, any configuration based on this function will be incorre
 881:Drivers/STM32F4xx_HAL_Driver/Src/stm32f4xx_hal_rcc.c ****   *
 882:Drivers/STM32F4xx_HAL_Driver/Src/stm32f4xx_hal_rcc.c ****   *
 883:Drivers/STM32F4xx_HAL_Driver/Src/stm32f4xx_hal_rcc.c ****   * @retval SYSCLK frequency
 884:Drivers/STM32F4xx_HAL_Driver/Src/stm32f4xx_hal_rcc.c ****   */
 885:Drivers/STM32F4xx_HAL_Driver/Src/stm32f4xx_hal_rcc.c **** __weak uint32_t HAL_RCC_GetSysClockFreq(void)
 886:Drivers/STM32F4xx_HAL_Driver/Src/stm32f4xx_hal_rcc.c **** {
 1368              		.loc 1 886 1 is_stmt 1 view -0
 1369              		.cfi_startproc
 1370              		@ args = 0, pretend = 0, frame = 0
ARM GAS  C:\Temp\ccaZfZb8.s 			page 43


 1371              		@ frame_needed = 0, uses_anonymous_args = 0
 1372 0000 08B5     		push	{r3, lr}
 1373              		.cfi_def_cfa_offset 8
 1374              		.cfi_offset 3, -8
 1375              		.cfi_offset 14, -4
 887:Drivers/STM32F4xx_HAL_Driver/Src/stm32f4xx_hal_rcc.c ****   uint32_t pllm = 0U, pllvco = 0U, pllp = 0U;
 1376              		.loc 1 887 3 view .LVU383
 1377              	.LVL95:
 888:Drivers/STM32F4xx_HAL_Driver/Src/stm32f4xx_hal_rcc.c ****   uint32_t sysclockfreq = 0U;
 1378              		.loc 1 888 3 view .LVU384
 889:Drivers/STM32F4xx_HAL_Driver/Src/stm32f4xx_hal_rcc.c **** 
 890:Drivers/STM32F4xx_HAL_Driver/Src/stm32f4xx_hal_rcc.c ****   /* Get SYSCLK source -------------------------------------------------------*/
 891:Drivers/STM32F4xx_HAL_Driver/Src/stm32f4xx_hal_rcc.c ****   switch (RCC->CFGR & RCC_CFGR_SWS)
 1379              		.loc 1 891 3 view .LVU385
 1380              		.loc 1 891 14 is_stmt 0 view .LVU386
 1381 0002 334B     		ldr	r3, .L147
 1382 0004 9B68     		ldr	r3, [r3, #8]
 1383              		.loc 1 891 21 view .LVU387
 1384 0006 03F00C03 		and	r3, r3, #12
 1385              		.loc 1 891 3 view .LVU388
 1386 000a 042B     		cmp	r3, #4
 1387 000c 5BD0     		beq	.L144
 1388 000e 082B     		cmp	r3, #8
 1389 0010 5BD1     		bne	.L145
 892:Drivers/STM32F4xx_HAL_Driver/Src/stm32f4xx_hal_rcc.c ****   {
 893:Drivers/STM32F4xx_HAL_Driver/Src/stm32f4xx_hal_rcc.c ****     case RCC_CFGR_SWS_HSI:  /* HSI used as system clock source */
 894:Drivers/STM32F4xx_HAL_Driver/Src/stm32f4xx_hal_rcc.c ****     {
 895:Drivers/STM32F4xx_HAL_Driver/Src/stm32f4xx_hal_rcc.c ****       sysclockfreq = HSI_VALUE;
 896:Drivers/STM32F4xx_HAL_Driver/Src/stm32f4xx_hal_rcc.c ****        break;
 897:Drivers/STM32F4xx_HAL_Driver/Src/stm32f4xx_hal_rcc.c ****     }
 898:Drivers/STM32F4xx_HAL_Driver/Src/stm32f4xx_hal_rcc.c ****     case RCC_CFGR_SWS_HSE:  /* HSE used as system clock  source */
 899:Drivers/STM32F4xx_HAL_Driver/Src/stm32f4xx_hal_rcc.c ****     {
 900:Drivers/STM32F4xx_HAL_Driver/Src/stm32f4xx_hal_rcc.c ****       sysclockfreq = HSE_VALUE;
 901:Drivers/STM32F4xx_HAL_Driver/Src/stm32f4xx_hal_rcc.c ****       break;
 902:Drivers/STM32F4xx_HAL_Driver/Src/stm32f4xx_hal_rcc.c ****     }
 903:Drivers/STM32F4xx_HAL_Driver/Src/stm32f4xx_hal_rcc.c ****     case RCC_CFGR_SWS_PLL:  /* PLL used as system clock  source */
 904:Drivers/STM32F4xx_HAL_Driver/Src/stm32f4xx_hal_rcc.c ****     {
 905:Drivers/STM32F4xx_HAL_Driver/Src/stm32f4xx_hal_rcc.c ****       /* PLL_VCO = (HSE_VALUE or HSI_VALUE / PLLM) * PLLN
 906:Drivers/STM32F4xx_HAL_Driver/Src/stm32f4xx_hal_rcc.c ****       SYSCLK = PLL_VCO / PLLP */
 907:Drivers/STM32F4xx_HAL_Driver/Src/stm32f4xx_hal_rcc.c ****       pllm = RCC->PLLCFGR & RCC_PLLCFGR_PLLM;
 1390              		.loc 1 907 7 is_stmt 1 view .LVU389
 1391              		.loc 1 907 17 is_stmt 0 view .LVU390
 1392 0012 2F4B     		ldr	r3, .L147
 1393 0014 5A68     		ldr	r2, [r3, #4]
 1394              		.loc 1 907 12 view .LVU391
 1395 0016 02F03F02 		and	r2, r2, #63
 1396              	.LVL96:
 908:Drivers/STM32F4xx_HAL_Driver/Src/stm32f4xx_hal_rcc.c ****       if(__HAL_RCC_GET_PLL_OSCSOURCE() != RCC_PLLSOURCE_HSI)
 1397              		.loc 1 908 7 is_stmt 1 view .LVU392
 1398              		.loc 1 908 10 is_stmt 0 view .LVU393
 1399 001a 5B68     		ldr	r3, [r3, #4]
 1400              		.loc 1 908 9 view .LVU394
 1401 001c 13F4800F 		tst	r3, #4194304
 1402 0020 2CD0     		beq	.L142
 909:Drivers/STM32F4xx_HAL_Driver/Src/stm32f4xx_hal_rcc.c ****       {
 910:Drivers/STM32F4xx_HAL_Driver/Src/stm32f4xx_hal_rcc.c ****         /* HSE used as PLL clock source */
 911:Drivers/STM32F4xx_HAL_Driver/Src/stm32f4xx_hal_rcc.c ****         pllvco = (uint32_t) ((((uint64_t) HSE_VALUE * ((uint64_t) ((RCC->PLLCFGR & RCC_PLLCFGR_PLLN
ARM GAS  C:\Temp\ccaZfZb8.s 			page 44


 1403              		.loc 1 911 9 is_stmt 1 view .LVU395
 1404              		.loc 1 911 72 is_stmt 0 view .LVU396
 1405 0022 2B4B     		ldr	r3, .L147
 1406 0024 5868     		ldr	r0, [r3, #4]
 1407              		.loc 1 911 56 view .LVU397
 1408 0026 C0F38810 		ubfx	r0, r0, #6, #9
 1409              		.loc 1 911 53 view .LVU398
 1410 002a 4FEA401C 		lsl	ip, r0, #5
 1411 002e BCEB000C 		subs	ip, ip, r0
 1412 0032 6EEB0E0E 		sbc	lr, lr, lr
 1413 0036 4FEA8E13 		lsl	r3, lr, #6
 1414 003a 43EA9C63 		orr	r3, r3, ip, lsr #26
 1415 003e 4FEA8C11 		lsl	r1, ip, #6
 1416 0042 B1EB0C01 		subs	r1, r1, ip
 1417 0046 63EB0E03 		sbc	r3, r3, lr
 1418 004a DB00     		lsls	r3, r3, #3
 1419 004c 43EA5173 		orr	r3, r3, r1, lsr #29
 1420 0050 C900     		lsls	r1, r1, #3
 1421 0052 11EB000C 		adds	ip, r1, r0
 1422 0056 43F10003 		adc	r3, r3, #0
 1423 005a 5902     		lsls	r1, r3, #9
 1424              		.loc 1 911 130 view .LVU399
 1425 005c 0023     		movs	r3, #0
 1426 005e 4FEA4C20 		lsl	r0, ip, #9
 1427 0062 41EADC51 		orr	r1, r1, ip, lsr #23
 1428 0066 FFF7FEFF 		bl	__aeabi_uldivmod
 1429              	.LVL97:
 1430              	.L143:
 912:Drivers/STM32F4xx_HAL_Driver/Src/stm32f4xx_hal_rcc.c ****       }
 913:Drivers/STM32F4xx_HAL_Driver/Src/stm32f4xx_hal_rcc.c ****       else
 914:Drivers/STM32F4xx_HAL_Driver/Src/stm32f4xx_hal_rcc.c ****       {
 915:Drivers/STM32F4xx_HAL_Driver/Src/stm32f4xx_hal_rcc.c ****         /* HSI used as PLL clock source */
 916:Drivers/STM32F4xx_HAL_Driver/Src/stm32f4xx_hal_rcc.c ****         pllvco = (uint32_t) ((((uint64_t) HSI_VALUE * ((uint64_t) ((RCC->PLLCFGR & RCC_PLLCFGR_PLLN
 917:Drivers/STM32F4xx_HAL_Driver/Src/stm32f4xx_hal_rcc.c ****       }
 918:Drivers/STM32F4xx_HAL_Driver/Src/stm32f4xx_hal_rcc.c ****       pllp = ((((RCC->PLLCFGR & RCC_PLLCFGR_PLLP) >> RCC_PLLCFGR_PLLP_Pos) + 1U) *2U);
 1431              		.loc 1 918 7 is_stmt 1 view .LVU400
 1432              		.loc 1 918 21 is_stmt 0 view .LVU401
 1433 006a 194B     		ldr	r3, .L147
 1434 006c 5B68     		ldr	r3, [r3, #4]
 1435              		.loc 1 918 51 view .LVU402
 1436 006e C3F30143 		ubfx	r3, r3, #16, #2
 1437              		.loc 1 918 76 view .LVU403
 1438 0072 0133     		adds	r3, r3, #1
 1439              		.loc 1 918 12 view .LVU404
 1440 0074 5B00     		lsls	r3, r3, #1
 1441              	.LVL98:
 919:Drivers/STM32F4xx_HAL_Driver/Src/stm32f4xx_hal_rcc.c **** 
 920:Drivers/STM32F4xx_HAL_Driver/Src/stm32f4xx_hal_rcc.c ****       sysclockfreq = pllvco/pllp;
 1442              		.loc 1 920 7 is_stmt 1 view .LVU405
 1443              		.loc 1 920 20 is_stmt 0 view .LVU406
 1444 0076 B0FBF3F0 		udiv	r0, r0, r3
 1445              	.LVL99:
 921:Drivers/STM32F4xx_HAL_Driver/Src/stm32f4xx_hal_rcc.c ****       break;
 1446              		.loc 1 921 7 is_stmt 1 view .LVU407
 1447 007a 27E0     		b	.L140
 1448              	.LVL100:
 1449              	.L142:
ARM GAS  C:\Temp\ccaZfZb8.s 			page 45


 916:Drivers/STM32F4xx_HAL_Driver/Src/stm32f4xx_hal_rcc.c ****       }
 1450              		.loc 1 916 9 view .LVU408
 916:Drivers/STM32F4xx_HAL_Driver/Src/stm32f4xx_hal_rcc.c ****       }
 1451              		.loc 1 916 72 is_stmt 0 view .LVU409
 1452 007c 144B     		ldr	r3, .L147
 1453 007e 5868     		ldr	r0, [r3, #4]
 916:Drivers/STM32F4xx_HAL_Driver/Src/stm32f4xx_hal_rcc.c ****       }
 1454              		.loc 1 916 56 view .LVU410
 1455 0080 C0F38810 		ubfx	r0, r0, #6, #9
 916:Drivers/STM32F4xx_HAL_Driver/Src/stm32f4xx_hal_rcc.c ****       }
 1456              		.loc 1 916 53 view .LVU411
 1457 0084 4FEA401C 		lsl	ip, r0, #5
 1458 0088 BCEB000C 		subs	ip, ip, r0
 1459 008c 6EEB0E0E 		sbc	lr, lr, lr
 1460 0090 4FEA8E13 		lsl	r3, lr, #6
 1461 0094 43EA9C63 		orr	r3, r3, ip, lsr #26
 1462 0098 4FEA8C11 		lsl	r1, ip, #6
 1463 009c B1EB0C01 		subs	r1, r1, ip
 1464 00a0 63EB0E03 		sbc	r3, r3, lr
 1465 00a4 DB00     		lsls	r3, r3, #3
 1466 00a6 43EA5173 		orr	r3, r3, r1, lsr #29
 1467 00aa C900     		lsls	r1, r1, #3
 1468 00ac 11EB000C 		adds	ip, r1, r0
 1469 00b0 43F10003 		adc	r3, r3, #0
 1470 00b4 9902     		lsls	r1, r3, #10
 916:Drivers/STM32F4xx_HAL_Driver/Src/stm32f4xx_hal_rcc.c ****       }
 1471              		.loc 1 916 130 view .LVU412
 1472 00b6 0023     		movs	r3, #0
 1473 00b8 4FEA8C20 		lsl	r0, ip, #10
 1474 00bc 41EA9C51 		orr	r1, r1, ip, lsr #22
 1475 00c0 FFF7FEFF 		bl	__aeabi_uldivmod
 1476              	.LVL101:
 916:Drivers/STM32F4xx_HAL_Driver/Src/stm32f4xx_hal_rcc.c ****       }
 1477              		.loc 1 916 130 view .LVU413
 1478 00c4 D1E7     		b	.L143
 1479              	.LVL102:
 1480              	.L144:
 900:Drivers/STM32F4xx_HAL_Driver/Src/stm32f4xx_hal_rcc.c ****       break;
 1481              		.loc 1 900 20 view .LVU414
 1482 00c6 0348     		ldr	r0, .L147+4
 1483 00c8 00E0     		b	.L140
 1484              	.L145:
 891:Drivers/STM32F4xx_HAL_Driver/Src/stm32f4xx_hal_rcc.c ****   {
 1485              		.loc 1 891 3 view .LVU415
 1486 00ca 0348     		ldr	r0, .L147+8
 1487              	.LVL103:
 922:Drivers/STM32F4xx_HAL_Driver/Src/stm32f4xx_hal_rcc.c ****     }
 923:Drivers/STM32F4xx_HAL_Driver/Src/stm32f4xx_hal_rcc.c ****     default:
 924:Drivers/STM32F4xx_HAL_Driver/Src/stm32f4xx_hal_rcc.c ****     {
 925:Drivers/STM32F4xx_HAL_Driver/Src/stm32f4xx_hal_rcc.c ****       sysclockfreq = HSI_VALUE;
 926:Drivers/STM32F4xx_HAL_Driver/Src/stm32f4xx_hal_rcc.c ****       break;
 927:Drivers/STM32F4xx_HAL_Driver/Src/stm32f4xx_hal_rcc.c ****     }
 928:Drivers/STM32F4xx_HAL_Driver/Src/stm32f4xx_hal_rcc.c ****   }
 929:Drivers/STM32F4xx_HAL_Driver/Src/stm32f4xx_hal_rcc.c ****   return sysclockfreq;
 1488              		.loc 1 929 3 is_stmt 1 view .LVU416
 1489              	.L140:
 930:Drivers/STM32F4xx_HAL_Driver/Src/stm32f4xx_hal_rcc.c **** }
ARM GAS  C:\Temp\ccaZfZb8.s 			page 46


 1490              		.loc 1 930 1 is_stmt 0 view .LVU417
 1491 00cc 08BD     		pop	{r3, pc}
 1492              	.L148:
 1493 00ce 00BF     		.align	2
 1494              	.L147:
 1495 00d0 00380240 		.word	1073887232
 1496 00d4 00127A00 		.word	8000000
 1497 00d8 0024F400 		.word	16000000
 1498              		.cfi_endproc
 1499              	.LFE140:
 1501              		.section	.text.HAL_RCC_ClockConfig,"ax",%progbits
 1502              		.align	1
 1503              		.global	HAL_RCC_ClockConfig
 1504              		.syntax unified
 1505              		.thumb
 1506              		.thumb_func
 1508              	HAL_RCC_ClockConfig:
 1509              	.LVL104:
 1510              	.LFB136:
 592:Drivers/STM32F4xx_HAL_Driver/Src/stm32f4xx_hal_rcc.c ****   uint32_t tickstart;
 1511              		.loc 1 592 1 is_stmt 1 view -0
 1512              		.cfi_startproc
 1513              		@ args = 0, pretend = 0, frame = 0
 1514              		@ frame_needed = 0, uses_anonymous_args = 0
 593:Drivers/STM32F4xx_HAL_Driver/Src/stm32f4xx_hal_rcc.c **** 
 1515              		.loc 1 593 3 view .LVU419
 596:Drivers/STM32F4xx_HAL_Driver/Src/stm32f4xx_hal_rcc.c ****   {
 1516              		.loc 1 596 3 view .LVU420
 596:Drivers/STM32F4xx_HAL_Driver/Src/stm32f4xx_hal_rcc.c ****   {
 1517              		.loc 1 596 5 is_stmt 0 view .LVU421
 1518 0000 0028     		cmp	r0, #0
 1519 0002 00F0FA80 		beq	.L173
 592:Drivers/STM32F4xx_HAL_Driver/Src/stm32f4xx_hal_rcc.c ****   uint32_t tickstart;
 1520              		.loc 1 592 1 view .LVU422
 1521 0006 70B5     		push	{r4, r5, r6, lr}
 1522              		.cfi_def_cfa_offset 16
 1523              		.cfi_offset 4, -16
 1524              		.cfi_offset 5, -12
 1525              		.cfi_offset 6, -8
 1526              		.cfi_offset 14, -4
 1527 0008 0D46     		mov	r5, r1
 1528 000a 0446     		mov	r4, r0
 602:Drivers/STM32F4xx_HAL_Driver/Src/stm32f4xx_hal_rcc.c ****   assert_param(IS_FLASH_LATENCY(FLatency));
 1529              		.loc 1 602 3 is_stmt 1 view .LVU423
 1530 000c 0368     		ldr	r3, [r0]
 1531 000e 013B     		subs	r3, r3, #1
 1532 0010 0E2B     		cmp	r3, #14
 1533 0012 30D8     		bhi	.L184
 1534              	.LVL105:
 1535              	.L151:
 603:Drivers/STM32F4xx_HAL_Driver/Src/stm32f4xx_hal_rcc.c **** 
 1536              		.loc 1 603 3 view .LVU424
 1537 0014 072D     		cmp	r5, #7
 1538 0016 34D8     		bhi	.L185
 1539              	.L152:
 610:Drivers/STM32F4xx_HAL_Driver/Src/stm32f4xx_hal_rcc.c ****   {
 1540              		.loc 1 610 3 view .LVU425
ARM GAS  C:\Temp\ccaZfZb8.s 			page 47


 610:Drivers/STM32F4xx_HAL_Driver/Src/stm32f4xx_hal_rcc.c ****   {
 1541              		.loc 1 610 17 is_stmt 0 view .LVU426
 1542 0018 7C4B     		ldr	r3, .L192
 1543 001a 1B68     		ldr	r3, [r3]
 1544 001c 03F00703 		and	r3, r3, #7
 610:Drivers/STM32F4xx_HAL_Driver/Src/stm32f4xx_hal_rcc.c ****   {
 1545              		.loc 1 610 5 view .LVU427
 1546 0020 AB42     		cmp	r3, r5
 1547 0022 08D2     		bcs	.L153
 613:Drivers/STM32F4xx_HAL_Driver/Src/stm32f4xx_hal_rcc.c **** 
 1548              		.loc 1 613 5 is_stmt 1 view .LVU428
 1549 0024 EBB2     		uxtb	r3, r5
 1550 0026 794A     		ldr	r2, .L192
 1551 0028 1370     		strb	r3, [r2]
 617:Drivers/STM32F4xx_HAL_Driver/Src/stm32f4xx_hal_rcc.c ****     {
 1552              		.loc 1 617 5 view .LVU429
 617:Drivers/STM32F4xx_HAL_Driver/Src/stm32f4xx_hal_rcc.c ****     {
 1553              		.loc 1 617 8 is_stmt 0 view .LVU430
 1554 002a 1368     		ldr	r3, [r2]
 1555 002c 03F00703 		and	r3, r3, #7
 617:Drivers/STM32F4xx_HAL_Driver/Src/stm32f4xx_hal_rcc.c ****     {
 1556              		.loc 1 617 7 view .LVU431
 1557 0030 AB42     		cmp	r3, r5
 1558 0032 40F0E480 		bne	.L174
 1559              	.L153:
 624:Drivers/STM32F4xx_HAL_Driver/Src/stm32f4xx_hal_rcc.c ****   {
 1560              		.loc 1 624 3 is_stmt 1 view .LVU432
 624:Drivers/STM32F4xx_HAL_Driver/Src/stm32f4xx_hal_rcc.c ****   {
 1561              		.loc 1 624 25 is_stmt 0 view .LVU433
 1562 0036 2368     		ldr	r3, [r4]
 624:Drivers/STM32F4xx_HAL_Driver/Src/stm32f4xx_hal_rcc.c ****   {
 1563              		.loc 1 624 5 view .LVU434
 1564 0038 13F0020F 		tst	r3, #2
 1565 003c 32D0     		beq	.L154
 628:Drivers/STM32F4xx_HAL_Driver/Src/stm32f4xx_hal_rcc.c ****     {
 1566              		.loc 1 628 5 is_stmt 1 view .LVU435
 628:Drivers/STM32F4xx_HAL_Driver/Src/stm32f4xx_hal_rcc.c ****     {
 1567              		.loc 1 628 7 is_stmt 0 view .LVU436
 1568 003e 13F0040F 		tst	r3, #4
 1569 0042 04D0     		beq	.L155
 630:Drivers/STM32F4xx_HAL_Driver/Src/stm32f4xx_hal_rcc.c ****     }
 1570              		.loc 1 630 7 is_stmt 1 view .LVU437
 1571 0044 724A     		ldr	r2, .L192+4
 1572 0046 9368     		ldr	r3, [r2, #8]
 1573 0048 43F4E053 		orr	r3, r3, #7168
 1574 004c 9360     		str	r3, [r2, #8]
 1575              	.L155:
 633:Drivers/STM32F4xx_HAL_Driver/Src/stm32f4xx_hal_rcc.c ****     {
 1576              		.loc 1 633 5 view .LVU438
 633:Drivers/STM32F4xx_HAL_Driver/Src/stm32f4xx_hal_rcc.c ****     {
 1577              		.loc 1 633 27 is_stmt 0 view .LVU439
 1578 004e 2368     		ldr	r3, [r4]
 633:Drivers/STM32F4xx_HAL_Driver/Src/stm32f4xx_hal_rcc.c ****     {
 1579              		.loc 1 633 7 view .LVU440
 1580 0050 13F0080F 		tst	r3, #8
 1581 0054 04D0     		beq	.L156
 635:Drivers/STM32F4xx_HAL_Driver/Src/stm32f4xx_hal_rcc.c ****     }
ARM GAS  C:\Temp\ccaZfZb8.s 			page 48


 1582              		.loc 1 635 7 is_stmt 1 view .LVU441
 1583 0056 6E4A     		ldr	r2, .L192+4
 1584 0058 9368     		ldr	r3, [r2, #8]
 1585 005a 43F46043 		orr	r3, r3, #57344
 1586 005e 9360     		str	r3, [r2, #8]
 1587              	.L156:
 638:Drivers/STM32F4xx_HAL_Driver/Src/stm32f4xx_hal_rcc.c ****     MODIFY_REG(RCC->CFGR, RCC_CFGR_HPRE, RCC_ClkInitStruct->AHBCLKDivider);
 1588              		.loc 1 638 5 view .LVU442
 1589 0060 A368     		ldr	r3, [r4, #8]
 1590 0062 C3B1     		cbz	r3, .L157
 1591 0064 C02B     		cmp	r3, #192
 1592 0066 16D0     		beq	.L157
 1593 0068 49D8     		bhi	.L158
 1594 006a A02B     		cmp	r3, #160
 1595 006c 13D0     		beq	.L157
 1596 006e 0ED9     		bls	.L186
 1597 0070 B02B     		cmp	r3, #176
 1598 0072 10D0     		beq	.L157
 1599 0074 49E0     		b	.L160
 1600              	.LVL106:
 1601              	.L184:
 602:Drivers/STM32F4xx_HAL_Driver/Src/stm32f4xx_hal_rcc.c ****   assert_param(IS_FLASH_LATENCY(FLatency));
 1602              		.loc 1 602 3 is_stmt 0 discriminator 1 view .LVU443
 1603 0076 40F25A21 		movw	r1, #602
 1604              	.LVL107:
 602:Drivers/STM32F4xx_HAL_Driver/Src/stm32f4xx_hal_rcc.c ****   assert_param(IS_FLASH_LATENCY(FLatency));
 1605              		.loc 1 602 3 discriminator 1 view .LVU444
 1606 007a 6648     		ldr	r0, .L192+8
 1607              	.LVL108:
 602:Drivers/STM32F4xx_HAL_Driver/Src/stm32f4xx_hal_rcc.c ****   assert_param(IS_FLASH_LATENCY(FLatency));
 1608              		.loc 1 602 3 discriminator 1 view .LVU445
 1609 007c FFF7FEFF 		bl	assert_failed
 1610              	.LVL109:
 1611 0080 C8E7     		b	.L151
 1612              	.L185:
 603:Drivers/STM32F4xx_HAL_Driver/Src/stm32f4xx_hal_rcc.c **** 
 1613              		.loc 1 603 3 discriminator 1 view .LVU446
 1614 0082 40F25B21 		movw	r1, #603
 1615 0086 6348     		ldr	r0, .L192+8
 1616 0088 FFF7FEFF 		bl	assert_failed
 1617              	.LVL110:
 1618 008c C4E7     		b	.L152
 1619              	.L186:
 603:Drivers/STM32F4xx_HAL_Driver/Src/stm32f4xx_hal_rcc.c **** 
 1620              		.loc 1 603 3 discriminator 1 view .LVU447
 1621 008e 802B     		cmp	r3, #128
 1622 0090 01D0     		beq	.L157
 1623 0092 902B     		cmp	r3, #144
 1624 0094 39D1     		bne	.L160
 1625              	.L157:
 639:Drivers/STM32F4xx_HAL_Driver/Src/stm32f4xx_hal_rcc.c ****   }
 1626              		.loc 1 639 5 is_stmt 1 view .LVU448
 1627 0096 5E4A     		ldr	r2, .L192+4
 1628 0098 9368     		ldr	r3, [r2, #8]
 1629 009a 23F0F003 		bic	r3, r3, #240
 1630 009e A168     		ldr	r1, [r4, #8]
 1631 00a0 0B43     		orrs	r3, r3, r1
ARM GAS  C:\Temp\ccaZfZb8.s 			page 49


 1632 00a2 9360     		str	r3, [r2, #8]
 1633              	.L154:
 643:Drivers/STM32F4xx_HAL_Driver/Src/stm32f4xx_hal_rcc.c ****   {
 1634              		.loc 1 643 3 view .LVU449
 643:Drivers/STM32F4xx_HAL_Driver/Src/stm32f4xx_hal_rcc.c ****   {
 1635              		.loc 1 643 25 is_stmt 0 view .LVU450
 1636 00a4 2368     		ldr	r3, [r4]
 643:Drivers/STM32F4xx_HAL_Driver/Src/stm32f4xx_hal_rcc.c ****   {
 1637              		.loc 1 643 5 view .LVU451
 1638 00a6 13F0010F 		tst	r3, #1
 1639 00aa 48D0     		beq	.L161
 645:Drivers/STM32F4xx_HAL_Driver/Src/stm32f4xx_hal_rcc.c **** 
 1640              		.loc 1 645 5 is_stmt 1 view .LVU452
 1641 00ac 6368     		ldr	r3, [r4, #4]
 1642 00ae 032B     		cmp	r3, #3
 1643 00b0 31D8     		bhi	.L187
 1644              	.L162:
 648:Drivers/STM32F4xx_HAL_Driver/Src/stm32f4xx_hal_rcc.c ****     {
 1645              		.loc 1 648 5 view .LVU453
 648:Drivers/STM32F4xx_HAL_Driver/Src/stm32f4xx_hal_rcc.c ****     {
 1646              		.loc 1 648 25 is_stmt 0 view .LVU454
 1647 00b2 6368     		ldr	r3, [r4, #4]
 648:Drivers/STM32F4xx_HAL_Driver/Src/stm32f4xx_hal_rcc.c ****     {
 1648              		.loc 1 648 7 view .LVU455
 1649 00b4 012B     		cmp	r3, #1
 1650 00b6 34D0     		beq	.L188
 657:Drivers/STM32F4xx_HAL_Driver/Src/stm32f4xx_hal_rcc.c ****             (RCC_ClkInitStruct->SYSCLKSource == RCC_SYSCLKSOURCE_PLLRCLK))
 1651              		.loc 1 657 10 is_stmt 1 view .LVU456
 657:Drivers/STM32F4xx_HAL_Driver/Src/stm32f4xx_hal_rcc.c ****             (RCC_ClkInitStruct->SYSCLKSource == RCC_SYSCLKSOURCE_PLLRCLK))
 1652              		.loc 1 657 76 is_stmt 0 view .LVU457
 1653 00b8 9A1E     		subs	r2, r3, #2
 657:Drivers/STM32F4xx_HAL_Driver/Src/stm32f4xx_hal_rcc.c ****             (RCC_ClkInitStruct->SYSCLKSource == RCC_SYSCLKSOURCE_PLLRCLK))
 1654              		.loc 1 657 12 view .LVU458
 1655 00ba 012A     		cmp	r2, #1
 1656 00bc 38D9     		bls	.L189
 670:Drivers/STM32F4xx_HAL_Driver/Src/stm32f4xx_hal_rcc.c ****       {
 1657              		.loc 1 670 7 is_stmt 1 view .LVU459
 670:Drivers/STM32F4xx_HAL_Driver/Src/stm32f4xx_hal_rcc.c ****       {
 1658              		.loc 1 670 10 is_stmt 0 view .LVU460
 1659 00be 544A     		ldr	r2, .L192+4
 1660 00c0 1268     		ldr	r2, [r2]
 670:Drivers/STM32F4xx_HAL_Driver/Src/stm32f4xx_hal_rcc.c ****       {
 1661              		.loc 1 670 9 view .LVU461
 1662 00c2 12F0020F 		tst	r2, #2
 1663 00c6 00F09C80 		beq	.L177
 1664              	.L164:
 676:Drivers/STM32F4xx_HAL_Driver/Src/stm32f4xx_hal_rcc.c **** 
 1665              		.loc 1 676 5 is_stmt 1 view .LVU462
 1666 00ca 5149     		ldr	r1, .L192+4
 1667 00cc 8A68     		ldr	r2, [r1, #8]
 1668 00ce 22F00302 		bic	r2, r2, #3
 1669 00d2 1343     		orrs	r3, r3, r2
 1670 00d4 8B60     		str	r3, [r1, #8]
 679:Drivers/STM32F4xx_HAL_Driver/Src/stm32f4xx_hal_rcc.c **** 
 1671              		.loc 1 679 5 view .LVU463
 679:Drivers/STM32F4xx_HAL_Driver/Src/stm32f4xx_hal_rcc.c **** 
 1672              		.loc 1 679 17 is_stmt 0 view .LVU464
ARM GAS  C:\Temp\ccaZfZb8.s 			page 50


 1673 00d6 FFF7FEFF 		bl	HAL_GetTick
 1674              	.LVL111:
 1675 00da 0646     		mov	r6, r0
 1676              	.LVL112:
 681:Drivers/STM32F4xx_HAL_Driver/Src/stm32f4xx_hal_rcc.c ****     {
 1677              		.loc 1 681 5 is_stmt 1 view .LVU465
 1678              	.L166:
 681:Drivers/STM32F4xx_HAL_Driver/Src/stm32f4xx_hal_rcc.c ****     {
 1679              		.loc 1 681 42 view .LVU466
 681:Drivers/STM32F4xx_HAL_Driver/Src/stm32f4xx_hal_rcc.c ****     {
 1680              		.loc 1 681 12 is_stmt 0 view .LVU467
 1681 00dc 4C4B     		ldr	r3, .L192+4
 1682 00de 9B68     		ldr	r3, [r3, #8]
 1683 00e0 03F00C03 		and	r3, r3, #12
 681:Drivers/STM32F4xx_HAL_Driver/Src/stm32f4xx_hal_rcc.c ****     {
 1684              		.loc 1 681 63 view .LVU468
 1685 00e4 6268     		ldr	r2, [r4, #4]
 681:Drivers/STM32F4xx_HAL_Driver/Src/stm32f4xx_hal_rcc.c ****     {
 1686              		.loc 1 681 42 view .LVU469
 1687 00e6 B3EB820F 		cmp	r3, r2, lsl #2
 1688 00ea 28D0     		beq	.L161
 683:Drivers/STM32F4xx_HAL_Driver/Src/stm32f4xx_hal_rcc.c ****       {
 1689              		.loc 1 683 7 is_stmt 1 view .LVU470
 683:Drivers/STM32F4xx_HAL_Driver/Src/stm32f4xx_hal_rcc.c ****       {
 1690              		.loc 1 683 12 is_stmt 0 view .LVU471
 1691 00ec FFF7FEFF 		bl	HAL_GetTick
 1692              	.LVL113:
 683:Drivers/STM32F4xx_HAL_Driver/Src/stm32f4xx_hal_rcc.c ****       {
 1693              		.loc 1 683 26 view .LVU472
 1694 00f0 801B     		subs	r0, r0, r6
 683:Drivers/STM32F4xx_HAL_Driver/Src/stm32f4xx_hal_rcc.c ****       {
 1695              		.loc 1 683 10 view .LVU473
 1696 00f2 41F28833 		movw	r3, #5000
 1697 00f6 9842     		cmp	r0, r3
 1698 00f8 F0D9     		bls	.L166
 685:Drivers/STM32F4xx_HAL_Driver/Src/stm32f4xx_hal_rcc.c ****       }
 1699              		.loc 1 685 16 view .LVU474
 1700 00fa 0320     		movs	r0, #3
 1701 00fc 70E0     		b	.L150
 1702              	.LVL114:
 1703              	.L158:
 685:Drivers/STM32F4xx_HAL_Driver/Src/stm32f4xx_hal_rcc.c ****       }
 1704              		.loc 1 685 16 view .LVU475
 1705 00fe E02B     		cmp	r3, #224
 1706 0100 C9D0     		beq	.L157
 1707 0102 F02B     		cmp	r3, #240
 1708 0104 C7D0     		beq	.L157
 1709 0106 D02B     		cmp	r3, #208
 1710 0108 C5D0     		beq	.L157
 1711              	.L160:
 638:Drivers/STM32F4xx_HAL_Driver/Src/stm32f4xx_hal_rcc.c ****     MODIFY_REG(RCC->CFGR, RCC_CFGR_HPRE, RCC_ClkInitStruct->AHBCLKDivider);
 1712              		.loc 1 638 5 discriminator 9 view .LVU476
 1713 010a 40F27E21 		movw	r1, #638
 1714 010e 4148     		ldr	r0, .L192+8
 1715 0110 FFF7FEFF 		bl	assert_failed
 1716              	.LVL115:
 1717 0114 BFE7     		b	.L157
ARM GAS  C:\Temp\ccaZfZb8.s 			page 51


 1718              	.L187:
 645:Drivers/STM32F4xx_HAL_Driver/Src/stm32f4xx_hal_rcc.c **** 
 1719              		.loc 1 645 5 discriminator 1 view .LVU477
 1720 0116 40F28521 		movw	r1, #645
 1721 011a 3E48     		ldr	r0, .L192+8
 1722 011c FFF7FEFF 		bl	assert_failed
 1723              	.LVL116:
 1724 0120 C7E7     		b	.L162
 1725              	.L188:
 651:Drivers/STM32F4xx_HAL_Driver/Src/stm32f4xx_hal_rcc.c ****       {
 1726              		.loc 1 651 7 is_stmt 1 view .LVU478
 651:Drivers/STM32F4xx_HAL_Driver/Src/stm32f4xx_hal_rcc.c ****       {
 1727              		.loc 1 651 10 is_stmt 0 view .LVU479
 1728 0122 3B4A     		ldr	r2, .L192+4
 1729 0124 1268     		ldr	r2, [r2]
 651:Drivers/STM32F4xx_HAL_Driver/Src/stm32f4xx_hal_rcc.c ****       {
 1730              		.loc 1 651 9 view .LVU480
 1731 0126 12F4003F 		tst	r2, #131072
 1732 012a CED1     		bne	.L164
 653:Drivers/STM32F4xx_HAL_Driver/Src/stm32f4xx_hal_rcc.c ****       }
 1733              		.loc 1 653 16 view .LVU481
 1734 012c 0120     		movs	r0, #1
 1735 012e 57E0     		b	.L150
 1736              	.L189:
 661:Drivers/STM32F4xx_HAL_Driver/Src/stm32f4xx_hal_rcc.c ****       {
 1737              		.loc 1 661 7 is_stmt 1 view .LVU482
 661:Drivers/STM32F4xx_HAL_Driver/Src/stm32f4xx_hal_rcc.c ****       {
 1738              		.loc 1 661 10 is_stmt 0 view .LVU483
 1739 0130 374A     		ldr	r2, .L192+4
 1740 0132 1268     		ldr	r2, [r2]
 661:Drivers/STM32F4xx_HAL_Driver/Src/stm32f4xx_hal_rcc.c ****       {
 1741              		.loc 1 661 9 view .LVU484
 1742 0134 12F0007F 		tst	r2, #33554432
 1743 0138 C7D1     		bne	.L164
 663:Drivers/STM32F4xx_HAL_Driver/Src/stm32f4xx_hal_rcc.c ****       }
 1744              		.loc 1 663 16 view .LVU485
 1745 013a 0120     		movs	r0, #1
 1746 013c 50E0     		b	.L150
 1747              	.L161:
 691:Drivers/STM32F4xx_HAL_Driver/Src/stm32f4xx_hal_rcc.c ****   {
 1748              		.loc 1 691 3 is_stmt 1 view .LVU486
 691:Drivers/STM32F4xx_HAL_Driver/Src/stm32f4xx_hal_rcc.c ****   {
 1749              		.loc 1 691 17 is_stmt 0 view .LVU487
 1750 013e 334B     		ldr	r3, .L192
 1751 0140 1B68     		ldr	r3, [r3]
 1752 0142 03F00703 		and	r3, r3, #7
 691:Drivers/STM32F4xx_HAL_Driver/Src/stm32f4xx_hal_rcc.c ****   {
 1753              		.loc 1 691 5 view .LVU488
 1754 0146 AB42     		cmp	r3, r5
 1755 0148 07D9     		bls	.L168
 694:Drivers/STM32F4xx_HAL_Driver/Src/stm32f4xx_hal_rcc.c **** 
 1756              		.loc 1 694 5 is_stmt 1 view .LVU489
 1757 014a EAB2     		uxtb	r2, r5
 1758 014c 2F4B     		ldr	r3, .L192
 1759 014e 1A70     		strb	r2, [r3]
 698:Drivers/STM32F4xx_HAL_Driver/Src/stm32f4xx_hal_rcc.c ****     {
 1760              		.loc 1 698 5 view .LVU490
ARM GAS  C:\Temp\ccaZfZb8.s 			page 52


 698:Drivers/STM32F4xx_HAL_Driver/Src/stm32f4xx_hal_rcc.c ****     {
 1761              		.loc 1 698 8 is_stmt 0 view .LVU491
 1762 0150 1B68     		ldr	r3, [r3]
 1763 0152 03F00703 		and	r3, r3, #7
 698:Drivers/STM32F4xx_HAL_Driver/Src/stm32f4xx_hal_rcc.c ****     {
 1764              		.loc 1 698 7 view .LVU492
 1765 0156 AB42     		cmp	r3, r5
 1766 0158 55D1     		bne	.L179
 1767              	.L168:
 705:Drivers/STM32F4xx_HAL_Driver/Src/stm32f4xx_hal_rcc.c ****   {
 1768              		.loc 1 705 3 is_stmt 1 view .LVU493
 705:Drivers/STM32F4xx_HAL_Driver/Src/stm32f4xx_hal_rcc.c ****   {
 1769              		.loc 1 705 25 is_stmt 0 view .LVU494
 1770 015a 2368     		ldr	r3, [r4]
 705:Drivers/STM32F4xx_HAL_Driver/Src/stm32f4xx_hal_rcc.c ****   {
 1771              		.loc 1 705 5 view .LVU495
 1772 015c 13F0040F 		tst	r3, #4
 1773 0160 14D0     		beq	.L169
 707:Drivers/STM32F4xx_HAL_Driver/Src/stm32f4xx_hal_rcc.c ****     MODIFY_REG(RCC->CFGR, RCC_CFGR_PPRE1, RCC_ClkInitStruct->APB1CLKDivider);
 1774              		.loc 1 707 5 is_stmt 1 view .LVU496
 1775 0162 E368     		ldr	r3, [r4, #12]
 1776 0164 5BB1     		cbz	r3, .L170
 707:Drivers/STM32F4xx_HAL_Driver/Src/stm32f4xx_hal_rcc.c ****     MODIFY_REG(RCC->CFGR, RCC_CFGR_PPRE1, RCC_ClkInitStruct->APB1CLKDivider);
 1777              		.loc 1 707 5 is_stmt 0 discriminator 1 view .LVU497
 1778 0166 B3F5805F 		cmp	r3, #4096
 1779 016a 08D0     		beq	.L170
 707:Drivers/STM32F4xx_HAL_Driver/Src/stm32f4xx_hal_rcc.c ****     MODIFY_REG(RCC->CFGR, RCC_CFGR_PPRE1, RCC_ClkInitStruct->APB1CLKDivider);
 1780              		.loc 1 707 5 discriminator 2 view .LVU498
 1781 016c B3F5A05F 		cmp	r3, #5120
 1782 0170 05D0     		beq	.L170
 707:Drivers/STM32F4xx_HAL_Driver/Src/stm32f4xx_hal_rcc.c ****     MODIFY_REG(RCC->CFGR, RCC_CFGR_PPRE1, RCC_ClkInitStruct->APB1CLKDivider);
 1783              		.loc 1 707 5 discriminator 3 view .LVU499
 1784 0172 B3F5C05F 		cmp	r3, #6144
 1785 0176 02D0     		beq	.L170
 707:Drivers/STM32F4xx_HAL_Driver/Src/stm32f4xx_hal_rcc.c ****     MODIFY_REG(RCC->CFGR, RCC_CFGR_PPRE1, RCC_ClkInitStruct->APB1CLKDivider);
 1786              		.loc 1 707 5 discriminator 4 view .LVU500
 1787 0178 B3F5E05F 		cmp	r3, #7168
 1788 017c 31D1     		bne	.L190
 1789              	.L170:
 708:Drivers/STM32F4xx_HAL_Driver/Src/stm32f4xx_hal_rcc.c ****   }
 1790              		.loc 1 708 5 is_stmt 1 view .LVU501
 1791 017e 244A     		ldr	r2, .L192+4
 1792 0180 9368     		ldr	r3, [r2, #8]
 1793 0182 23F4E053 		bic	r3, r3, #7168
 1794 0186 E168     		ldr	r1, [r4, #12]
 1795 0188 0B43     		orrs	r3, r3, r1
 1796 018a 9360     		str	r3, [r2, #8]
 1797              	.L169:
 712:Drivers/STM32F4xx_HAL_Driver/Src/stm32f4xx_hal_rcc.c ****   {
 1798              		.loc 1 712 3 view .LVU502
 712:Drivers/STM32F4xx_HAL_Driver/Src/stm32f4xx_hal_rcc.c ****   {
 1799              		.loc 1 712 25 is_stmt 0 view .LVU503
 1800 018c 2368     		ldr	r3, [r4]
 712:Drivers/STM32F4xx_HAL_Driver/Src/stm32f4xx_hal_rcc.c ****   {
 1801              		.loc 1 712 5 view .LVU504
 1802 018e 13F0080F 		tst	r3, #8
 1803 0192 15D0     		beq	.L171
ARM GAS  C:\Temp\ccaZfZb8.s 			page 53


 714:Drivers/STM32F4xx_HAL_Driver/Src/stm32f4xx_hal_rcc.c ****     MODIFY_REG(RCC->CFGR, RCC_CFGR_PPRE2, ((RCC_ClkInitStruct->APB2CLKDivider) << 3U));
 1804              		.loc 1 714 5 is_stmt 1 view .LVU505
 1805 0194 2369     		ldr	r3, [r4, #16]
 1806 0196 5BB1     		cbz	r3, .L172
 714:Drivers/STM32F4xx_HAL_Driver/Src/stm32f4xx_hal_rcc.c ****     MODIFY_REG(RCC->CFGR, RCC_CFGR_PPRE2, ((RCC_ClkInitStruct->APB2CLKDivider) << 3U));
 1807              		.loc 1 714 5 is_stmt 0 discriminator 1 view .LVU506
 1808 0198 B3F5805F 		cmp	r3, #4096
 1809 019c 08D0     		beq	.L172
 714:Drivers/STM32F4xx_HAL_Driver/Src/stm32f4xx_hal_rcc.c ****     MODIFY_REG(RCC->CFGR, RCC_CFGR_PPRE2, ((RCC_ClkInitStruct->APB2CLKDivider) << 3U));
 1810              		.loc 1 714 5 discriminator 2 view .LVU507
 1811 019e B3F5A05F 		cmp	r3, #5120
 1812 01a2 05D0     		beq	.L172
 714:Drivers/STM32F4xx_HAL_Driver/Src/stm32f4xx_hal_rcc.c ****     MODIFY_REG(RCC->CFGR, RCC_CFGR_PPRE2, ((RCC_ClkInitStruct->APB2CLKDivider) << 3U));
 1813              		.loc 1 714 5 discriminator 3 view .LVU508
 1814 01a4 B3F5C05F 		cmp	r3, #6144
 1815 01a8 02D0     		beq	.L172
 714:Drivers/STM32F4xx_HAL_Driver/Src/stm32f4xx_hal_rcc.c ****     MODIFY_REG(RCC->CFGR, RCC_CFGR_PPRE2, ((RCC_ClkInitStruct->APB2CLKDivider) << 3U));
 1816              		.loc 1 714 5 discriminator 4 view .LVU509
 1817 01aa B3F5E05F 		cmp	r3, #7168
 1818 01ae 1ED1     		bne	.L191
 1819              	.L172:
 715:Drivers/STM32F4xx_HAL_Driver/Src/stm32f4xx_hal_rcc.c ****   }
 1820              		.loc 1 715 5 is_stmt 1 view .LVU510
 1821 01b0 174A     		ldr	r2, .L192+4
 1822 01b2 9368     		ldr	r3, [r2, #8]
 1823 01b4 23F46043 		bic	r3, r3, #57344
 1824 01b8 2169     		ldr	r1, [r4, #16]
 1825 01ba 43EAC103 		orr	r3, r3, r1, lsl #3
 1826 01be 9360     		str	r3, [r2, #8]
 1827              	.L171:
 719:Drivers/STM32F4xx_HAL_Driver/Src/stm32f4xx_hal_rcc.c **** 
 1828              		.loc 1 719 3 view .LVU511
 719:Drivers/STM32F4xx_HAL_Driver/Src/stm32f4xx_hal_rcc.c **** 
 1829              		.loc 1 719 21 is_stmt 0 view .LVU512
 1830 01c0 FFF7FEFF 		bl	HAL_RCC_GetSysClockFreq
 1831              	.LVL117:
 719:Drivers/STM32F4xx_HAL_Driver/Src/stm32f4xx_hal_rcc.c **** 
 1832              		.loc 1 719 68 view .LVU513
 1833 01c4 124B     		ldr	r3, .L192+4
 1834 01c6 9B68     		ldr	r3, [r3, #8]
 719:Drivers/STM32F4xx_HAL_Driver/Src/stm32f4xx_hal_rcc.c **** 
 1835              		.loc 1 719 91 view .LVU514
 1836 01c8 C3F30313 		ubfx	r3, r3, #4, #4
 719:Drivers/STM32F4xx_HAL_Driver/Src/stm32f4xx_hal_rcc.c **** 
 1837              		.loc 1 719 63 view .LVU515
 1838 01cc 124A     		ldr	r2, .L192+12
 1839 01ce D35C     		ldrb	r3, [r2, r3]	@ zero_extendqisi2
 719:Drivers/STM32F4xx_HAL_Driver/Src/stm32f4xx_hal_rcc.c **** 
 1840              		.loc 1 719 47 view .LVU516
 1841 01d0 D840     		lsrs	r0, r0, r3
 719:Drivers/STM32F4xx_HAL_Driver/Src/stm32f4xx_hal_rcc.c **** 
 1842              		.loc 1 719 19 view .LVU517
 1843 01d2 124B     		ldr	r3, .L192+16
 1844 01d4 1860     		str	r0, [r3]
 722:Drivers/STM32F4xx_HAL_Driver/Src/stm32f4xx_hal_rcc.c **** 
 1845              		.loc 1 722 3 is_stmt 1 view .LVU518
 1846 01d6 124B     		ldr	r3, .L192+20
ARM GAS  C:\Temp\ccaZfZb8.s 			page 54


 1847 01d8 1868     		ldr	r0, [r3]
 1848 01da FFF7FEFF 		bl	HAL_InitTick
 1849              	.LVL118:
 724:Drivers/STM32F4xx_HAL_Driver/Src/stm32f4xx_hal_rcc.c **** }
 1850              		.loc 1 724 3 view .LVU519
 724:Drivers/STM32F4xx_HAL_Driver/Src/stm32f4xx_hal_rcc.c **** }
 1851              		.loc 1 724 10 is_stmt 0 view .LVU520
 1852 01de 0020     		movs	r0, #0
 1853              	.L150:
 725:Drivers/STM32F4xx_HAL_Driver/Src/stm32f4xx_hal_rcc.c **** 
 1854              		.loc 1 725 1 view .LVU521
 1855 01e0 70BD     		pop	{r4, r5, r6, pc}
 1856              	.LVL119:
 1857              	.L190:
 707:Drivers/STM32F4xx_HAL_Driver/Src/stm32f4xx_hal_rcc.c ****     MODIFY_REG(RCC->CFGR, RCC_CFGR_PPRE1, RCC_ClkInitStruct->APB1CLKDivider);
 1858              		.loc 1 707 5 discriminator 5 view .LVU522
 1859 01e2 40F2C321 		movw	r1, #707
 1860 01e6 0B48     		ldr	r0, .L192+8
 1861 01e8 FFF7FEFF 		bl	assert_failed
 1862              	.LVL120:
 1863 01ec C7E7     		b	.L170
 1864              	.L191:
 714:Drivers/STM32F4xx_HAL_Driver/Src/stm32f4xx_hal_rcc.c ****     MODIFY_REG(RCC->CFGR, RCC_CFGR_PPRE2, ((RCC_ClkInitStruct->APB2CLKDivider) << 3U));
 1865              		.loc 1 714 5 discriminator 5 view .LVU523
 1866 01ee 40F2CA21 		movw	r1, #714
 1867 01f2 0848     		ldr	r0, .L192+8
 1868 01f4 FFF7FEFF 		bl	assert_failed
 1869              	.LVL121:
 1870 01f8 DAE7     		b	.L172
 1871              	.LVL122:
 1872              	.L173:
 1873              		.cfi_def_cfa_offset 0
 1874              		.cfi_restore 4
 1875              		.cfi_restore 5
 1876              		.cfi_restore 6
 1877              		.cfi_restore 14
 598:Drivers/STM32F4xx_HAL_Driver/Src/stm32f4xx_hal_rcc.c ****   }
 1878              		.loc 1 598 12 view .LVU524
 1879 01fa 0120     		movs	r0, #1
 1880              	.LVL123:
 725:Drivers/STM32F4xx_HAL_Driver/Src/stm32f4xx_hal_rcc.c **** 
 1881              		.loc 1 725 1 view .LVU525
 1882 01fc 7047     		bx	lr
 1883              	.LVL124:
 1884              	.L174:
 1885              		.cfi_def_cfa_offset 16
 1886              		.cfi_offset 4, -16
 1887              		.cfi_offset 5, -12
 1888              		.cfi_offset 6, -8
 1889              		.cfi_offset 14, -4
 619:Drivers/STM32F4xx_HAL_Driver/Src/stm32f4xx_hal_rcc.c ****     }
 1890              		.loc 1 619 14 view .LVU526
 1891 01fe 0120     		movs	r0, #1
 1892 0200 EEE7     		b	.L150
 1893              	.L177:
 672:Drivers/STM32F4xx_HAL_Driver/Src/stm32f4xx_hal_rcc.c ****       }
 1894              		.loc 1 672 16 view .LVU527
ARM GAS  C:\Temp\ccaZfZb8.s 			page 55


 1895 0202 0120     		movs	r0, #1
 1896 0204 ECE7     		b	.L150
 1897              	.L179:
 700:Drivers/STM32F4xx_HAL_Driver/Src/stm32f4xx_hal_rcc.c ****     }
 1898              		.loc 1 700 14 view .LVU528
 1899 0206 0120     		movs	r0, #1
 1900 0208 EAE7     		b	.L150
 1901              	.L193:
 1902 020a 00BF     		.align	2
 1903              	.L192:
 1904 020c 003C0240 		.word	1073888256
 1905 0210 00380240 		.word	1073887232
 1906 0214 00000000 		.word	.LC0
 1907 0218 00000000 		.word	AHBPrescTable
 1908 021c 00000000 		.word	SystemCoreClock
 1909 0220 00000000 		.word	uwTickPrio
 1910              		.cfi_endproc
 1911              	.LFE136:
 1913              		.section	.text.HAL_RCC_GetHCLKFreq,"ax",%progbits
 1914              		.align	1
 1915              		.global	HAL_RCC_GetHCLKFreq
 1916              		.syntax unified
 1917              		.thumb
 1918              		.thumb_func
 1920              	HAL_RCC_GetHCLKFreq:
 1921              	.LFB141:
 931:Drivers/STM32F4xx_HAL_Driver/Src/stm32f4xx_hal_rcc.c **** 
 932:Drivers/STM32F4xx_HAL_Driver/Src/stm32f4xx_hal_rcc.c **** /**
 933:Drivers/STM32F4xx_HAL_Driver/Src/stm32f4xx_hal_rcc.c ****   * @brief  Returns the HCLK frequency
 934:Drivers/STM32F4xx_HAL_Driver/Src/stm32f4xx_hal_rcc.c ****   * @note   Each time HCLK changes, this function must be called to update the
 935:Drivers/STM32F4xx_HAL_Driver/Src/stm32f4xx_hal_rcc.c ****   *         right HCLK value. Otherwise, any configuration based on this function will be incorrect
 936:Drivers/STM32F4xx_HAL_Driver/Src/stm32f4xx_hal_rcc.c ****   *
 937:Drivers/STM32F4xx_HAL_Driver/Src/stm32f4xx_hal_rcc.c ****   * @note   The SystemCoreClock CMSIS variable is used to store System Clock Frequency
 938:Drivers/STM32F4xx_HAL_Driver/Src/stm32f4xx_hal_rcc.c ****   *         and updated within this function
 939:Drivers/STM32F4xx_HAL_Driver/Src/stm32f4xx_hal_rcc.c ****   * @retval HCLK frequency
 940:Drivers/STM32F4xx_HAL_Driver/Src/stm32f4xx_hal_rcc.c ****   */
 941:Drivers/STM32F4xx_HAL_Driver/Src/stm32f4xx_hal_rcc.c **** uint32_t HAL_RCC_GetHCLKFreq(void)
 942:Drivers/STM32F4xx_HAL_Driver/Src/stm32f4xx_hal_rcc.c **** {
 1922              		.loc 1 942 1 is_stmt 1 view -0
 1923              		.cfi_startproc
 1924              		@ args = 0, pretend = 0, frame = 0
 1925              		@ frame_needed = 0, uses_anonymous_args = 0
 1926              		@ link register save eliminated.
 943:Drivers/STM32F4xx_HAL_Driver/Src/stm32f4xx_hal_rcc.c ****   return SystemCoreClock;
 1927              		.loc 1 943 3 view .LVU530
 944:Drivers/STM32F4xx_HAL_Driver/Src/stm32f4xx_hal_rcc.c **** }
 1928              		.loc 1 944 1 is_stmt 0 view .LVU531
 1929 0000 014B     		ldr	r3, .L195
 1930 0002 1868     		ldr	r0, [r3]
 1931 0004 7047     		bx	lr
 1932              	.L196:
 1933 0006 00BF     		.align	2
 1934              	.L195:
 1935 0008 00000000 		.word	SystemCoreClock
 1936              		.cfi_endproc
 1937              	.LFE141:
 1939              		.section	.text.HAL_RCC_GetPCLK1Freq,"ax",%progbits
ARM GAS  C:\Temp\ccaZfZb8.s 			page 56


 1940              		.align	1
 1941              		.global	HAL_RCC_GetPCLK1Freq
 1942              		.syntax unified
 1943              		.thumb
 1944              		.thumb_func
 1946              	HAL_RCC_GetPCLK1Freq:
 1947              	.LFB142:
 945:Drivers/STM32F4xx_HAL_Driver/Src/stm32f4xx_hal_rcc.c **** 
 946:Drivers/STM32F4xx_HAL_Driver/Src/stm32f4xx_hal_rcc.c **** /**
 947:Drivers/STM32F4xx_HAL_Driver/Src/stm32f4xx_hal_rcc.c ****   * @brief  Returns the PCLK1 frequency
 948:Drivers/STM32F4xx_HAL_Driver/Src/stm32f4xx_hal_rcc.c ****   * @note   Each time PCLK1 changes, this function must be called to update the
 949:Drivers/STM32F4xx_HAL_Driver/Src/stm32f4xx_hal_rcc.c ****   *         right PCLK1 value. Otherwise, any configuration based on this function will be incorrec
 950:Drivers/STM32F4xx_HAL_Driver/Src/stm32f4xx_hal_rcc.c ****   * @retval PCLK1 frequency
 951:Drivers/STM32F4xx_HAL_Driver/Src/stm32f4xx_hal_rcc.c ****   */
 952:Drivers/STM32F4xx_HAL_Driver/Src/stm32f4xx_hal_rcc.c **** uint32_t HAL_RCC_GetPCLK1Freq(void)
 953:Drivers/STM32F4xx_HAL_Driver/Src/stm32f4xx_hal_rcc.c **** {
 1948              		.loc 1 953 1 is_stmt 1 view -0
 1949              		.cfi_startproc
 1950              		@ args = 0, pretend = 0, frame = 0
 1951              		@ frame_needed = 0, uses_anonymous_args = 0
 1952 0000 08B5     		push	{r3, lr}
 1953              		.cfi_def_cfa_offset 8
 1954              		.cfi_offset 3, -8
 1955              		.cfi_offset 14, -4
 954:Drivers/STM32F4xx_HAL_Driver/Src/stm32f4xx_hal_rcc.c ****   /* Get HCLK source and Compute PCLK1 frequency ---------------------------*/
 955:Drivers/STM32F4xx_HAL_Driver/Src/stm32f4xx_hal_rcc.c ****   return (HAL_RCC_GetHCLKFreq() >> APBPrescTable[(RCC->CFGR & RCC_CFGR_PPRE1)>> RCC_CFGR_PPRE1_Pos]
 1956              		.loc 1 955 3 view .LVU533
 1957              		.loc 1 955 11 is_stmt 0 view .LVU534
 1958 0002 FFF7FEFF 		bl	HAL_RCC_GetHCLKFreq
 1959              	.LVL125:
 1960              		.loc 1 955 54 view .LVU535
 1961 0006 044B     		ldr	r3, .L199
 1962 0008 9B68     		ldr	r3, [r3, #8]
 1963              		.loc 1 955 78 view .LVU536
 1964 000a C3F38223 		ubfx	r3, r3, #10, #3
 1965              		.loc 1 955 49 view .LVU537
 1966 000e 034A     		ldr	r2, .L199+4
 1967 0010 D35C     		ldrb	r3, [r2, r3]	@ zero_extendqisi2
 956:Drivers/STM32F4xx_HAL_Driver/Src/stm32f4xx_hal_rcc.c **** }
 1968              		.loc 1 956 1 view .LVU538
 1969 0012 D840     		lsrs	r0, r0, r3
 1970 0014 08BD     		pop	{r3, pc}
 1971              	.L200:
 1972 0016 00BF     		.align	2
 1973              	.L199:
 1974 0018 00380240 		.word	1073887232
 1975 001c 00000000 		.word	APBPrescTable
 1976              		.cfi_endproc
 1977              	.LFE142:
 1979              		.section	.text.HAL_RCC_GetPCLK2Freq,"ax",%progbits
 1980              		.align	1
 1981              		.global	HAL_RCC_GetPCLK2Freq
 1982              		.syntax unified
 1983              		.thumb
 1984              		.thumb_func
 1986              	HAL_RCC_GetPCLK2Freq:
 1987              	.LFB143:
ARM GAS  C:\Temp\ccaZfZb8.s 			page 57


 957:Drivers/STM32F4xx_HAL_Driver/Src/stm32f4xx_hal_rcc.c **** 
 958:Drivers/STM32F4xx_HAL_Driver/Src/stm32f4xx_hal_rcc.c **** /**
 959:Drivers/STM32F4xx_HAL_Driver/Src/stm32f4xx_hal_rcc.c ****   * @brief  Returns the PCLK2 frequency
 960:Drivers/STM32F4xx_HAL_Driver/Src/stm32f4xx_hal_rcc.c ****   * @note   Each time PCLK2 changes, this function must be called to update the
 961:Drivers/STM32F4xx_HAL_Driver/Src/stm32f4xx_hal_rcc.c ****   *         right PCLK2 value. Otherwise, any configuration based on this function will be incorrec
 962:Drivers/STM32F4xx_HAL_Driver/Src/stm32f4xx_hal_rcc.c ****   * @retval PCLK2 frequency
 963:Drivers/STM32F4xx_HAL_Driver/Src/stm32f4xx_hal_rcc.c ****   */
 964:Drivers/STM32F4xx_HAL_Driver/Src/stm32f4xx_hal_rcc.c **** uint32_t HAL_RCC_GetPCLK2Freq(void)
 965:Drivers/STM32F4xx_HAL_Driver/Src/stm32f4xx_hal_rcc.c **** {
 1988              		.loc 1 965 1 is_stmt 1 view -0
 1989              		.cfi_startproc
 1990              		@ args = 0, pretend = 0, frame = 0
 1991              		@ frame_needed = 0, uses_anonymous_args = 0
 1992 0000 08B5     		push	{r3, lr}
 1993              		.cfi_def_cfa_offset 8
 1994              		.cfi_offset 3, -8
 1995              		.cfi_offset 14, -4
 966:Drivers/STM32F4xx_HAL_Driver/Src/stm32f4xx_hal_rcc.c ****   /* Get HCLK source and Compute PCLK2 frequency ---------------------------*/
 967:Drivers/STM32F4xx_HAL_Driver/Src/stm32f4xx_hal_rcc.c ****   return (HAL_RCC_GetHCLKFreq()>> APBPrescTable[(RCC->CFGR & RCC_CFGR_PPRE2)>> RCC_CFGR_PPRE2_Pos])
 1996              		.loc 1 967 3 view .LVU540
 1997              		.loc 1 967 11 is_stmt 0 view .LVU541
 1998 0002 FFF7FEFF 		bl	HAL_RCC_GetHCLKFreq
 1999              	.LVL126:
 2000              		.loc 1 967 53 view .LVU542
 2001 0006 044B     		ldr	r3, .L203
 2002 0008 9B68     		ldr	r3, [r3, #8]
 2003              		.loc 1 967 77 view .LVU543
 2004 000a C3F34233 		ubfx	r3, r3, #13, #3
 2005              		.loc 1 967 48 view .LVU544
 2006 000e 034A     		ldr	r2, .L203+4
 2007 0010 D35C     		ldrb	r3, [r2, r3]	@ zero_extendqisi2
 968:Drivers/STM32F4xx_HAL_Driver/Src/stm32f4xx_hal_rcc.c **** }
 2008              		.loc 1 968 1 view .LVU545
 2009 0012 D840     		lsrs	r0, r0, r3
 2010 0014 08BD     		pop	{r3, pc}
 2011              	.L204:
 2012 0016 00BF     		.align	2
 2013              	.L203:
 2014 0018 00380240 		.word	1073887232
 2015 001c 00000000 		.word	APBPrescTable
 2016              		.cfi_endproc
 2017              	.LFE143:
 2019              		.section	.text.HAL_RCC_GetOscConfig,"ax",%progbits
 2020              		.align	1
 2021              		.weak	HAL_RCC_GetOscConfig
 2022              		.syntax unified
 2023              		.thumb
 2024              		.thumb_func
 2026              	HAL_RCC_GetOscConfig:
 2027              	.LVL127:
 2028              	.LFB144:
 969:Drivers/STM32F4xx_HAL_Driver/Src/stm32f4xx_hal_rcc.c **** 
 970:Drivers/STM32F4xx_HAL_Driver/Src/stm32f4xx_hal_rcc.c **** /**
 971:Drivers/STM32F4xx_HAL_Driver/Src/stm32f4xx_hal_rcc.c ****   * @brief  Configures the RCC_OscInitStruct according to the internal
 972:Drivers/STM32F4xx_HAL_Driver/Src/stm32f4xx_hal_rcc.c ****   * RCC configuration registers.
 973:Drivers/STM32F4xx_HAL_Driver/Src/stm32f4xx_hal_rcc.c ****   * @param  RCC_OscInitStruct pointer to an RCC_OscInitTypeDef structure that
 974:Drivers/STM32F4xx_HAL_Driver/Src/stm32f4xx_hal_rcc.c ****   * will be configured.
ARM GAS  C:\Temp\ccaZfZb8.s 			page 58


 975:Drivers/STM32F4xx_HAL_Driver/Src/stm32f4xx_hal_rcc.c ****   * @retval None
 976:Drivers/STM32F4xx_HAL_Driver/Src/stm32f4xx_hal_rcc.c ****   */
 977:Drivers/STM32F4xx_HAL_Driver/Src/stm32f4xx_hal_rcc.c **** __weak void HAL_RCC_GetOscConfig(RCC_OscInitTypeDef  *RCC_OscInitStruct)
 978:Drivers/STM32F4xx_HAL_Driver/Src/stm32f4xx_hal_rcc.c **** {
 2029              		.loc 1 978 1 is_stmt 1 view -0
 2030              		.cfi_startproc
 2031              		@ args = 0, pretend = 0, frame = 0
 2032              		@ frame_needed = 0, uses_anonymous_args = 0
 2033              		@ link register save eliminated.
 979:Drivers/STM32F4xx_HAL_Driver/Src/stm32f4xx_hal_rcc.c ****   /* Set all possible values for the Oscillator type parameter ---------------*/
 980:Drivers/STM32F4xx_HAL_Driver/Src/stm32f4xx_hal_rcc.c ****   RCC_OscInitStruct->OscillatorType = RCC_OSCILLATORTYPE_HSE | RCC_OSCILLATORTYPE_HSI | RCC_OSCILLA
 2034              		.loc 1 980 3 view .LVU547
 2035              		.loc 1 980 37 is_stmt 0 view .LVU548
 2036 0000 0F23     		movs	r3, #15
 2037 0002 0360     		str	r3, [r0]
 981:Drivers/STM32F4xx_HAL_Driver/Src/stm32f4xx_hal_rcc.c **** 
 982:Drivers/STM32F4xx_HAL_Driver/Src/stm32f4xx_hal_rcc.c ****   /* Get the HSE configuration -----------------------------------------------*/
 983:Drivers/STM32F4xx_HAL_Driver/Src/stm32f4xx_hal_rcc.c ****   if((RCC->CR &RCC_CR_HSEBYP) == RCC_CR_HSEBYP)
 2038              		.loc 1 983 3 is_stmt 1 view .LVU549
 2039              		.loc 1 983 10 is_stmt 0 view .LVU550
 2040 0004 304B     		ldr	r3, .L218
 2041 0006 1B68     		ldr	r3, [r3]
 2042              		.loc 1 983 5 view .LVU551
 2043 0008 13F4802F 		tst	r3, #262144
 2044 000c 3BD0     		beq	.L206
 984:Drivers/STM32F4xx_HAL_Driver/Src/stm32f4xx_hal_rcc.c ****   {
 985:Drivers/STM32F4xx_HAL_Driver/Src/stm32f4xx_hal_rcc.c ****     RCC_OscInitStruct->HSEState = RCC_HSE_BYPASS;
 2045              		.loc 1 985 5 is_stmt 1 view .LVU552
 2046              		.loc 1 985 33 is_stmt 0 view .LVU553
 2047 000e 4FF4A023 		mov	r3, #327680
 2048 0012 4360     		str	r3, [r0, #4]
 2049              	.L207:
 986:Drivers/STM32F4xx_HAL_Driver/Src/stm32f4xx_hal_rcc.c ****   }
 987:Drivers/STM32F4xx_HAL_Driver/Src/stm32f4xx_hal_rcc.c ****   else if((RCC->CR &RCC_CR_HSEON) == RCC_CR_HSEON)
 988:Drivers/STM32F4xx_HAL_Driver/Src/stm32f4xx_hal_rcc.c ****   {
 989:Drivers/STM32F4xx_HAL_Driver/Src/stm32f4xx_hal_rcc.c ****     RCC_OscInitStruct->HSEState = RCC_HSE_ON;
 990:Drivers/STM32F4xx_HAL_Driver/Src/stm32f4xx_hal_rcc.c ****   }
 991:Drivers/STM32F4xx_HAL_Driver/Src/stm32f4xx_hal_rcc.c ****   else
 992:Drivers/STM32F4xx_HAL_Driver/Src/stm32f4xx_hal_rcc.c ****   {
 993:Drivers/STM32F4xx_HAL_Driver/Src/stm32f4xx_hal_rcc.c ****     RCC_OscInitStruct->HSEState = RCC_HSE_OFF;
 994:Drivers/STM32F4xx_HAL_Driver/Src/stm32f4xx_hal_rcc.c ****   }
 995:Drivers/STM32F4xx_HAL_Driver/Src/stm32f4xx_hal_rcc.c **** 
 996:Drivers/STM32F4xx_HAL_Driver/Src/stm32f4xx_hal_rcc.c ****   /* Get the HSI configuration -----------------------------------------------*/
 997:Drivers/STM32F4xx_HAL_Driver/Src/stm32f4xx_hal_rcc.c ****   if((RCC->CR &RCC_CR_HSION) == RCC_CR_HSION)
 2050              		.loc 1 997 3 is_stmt 1 view .LVU554
 2051              		.loc 1 997 10 is_stmt 0 view .LVU555
 2052 0014 2C4B     		ldr	r3, .L218
 2053 0016 1B68     		ldr	r3, [r3]
 2054              		.loc 1 997 5 view .LVU556
 2055 0018 13F0010F 		tst	r3, #1
 2056 001c 3FD0     		beq	.L209
 998:Drivers/STM32F4xx_HAL_Driver/Src/stm32f4xx_hal_rcc.c ****   {
 999:Drivers/STM32F4xx_HAL_Driver/Src/stm32f4xx_hal_rcc.c ****     RCC_OscInitStruct->HSIState = RCC_HSI_ON;
 2057              		.loc 1 999 5 is_stmt 1 view .LVU557
 2058              		.loc 1 999 33 is_stmt 0 view .LVU558
 2059 001e 0123     		movs	r3, #1
 2060 0020 C360     		str	r3, [r0, #12]
ARM GAS  C:\Temp\ccaZfZb8.s 			page 59


 2061              	.L210:
1000:Drivers/STM32F4xx_HAL_Driver/Src/stm32f4xx_hal_rcc.c ****   }
1001:Drivers/STM32F4xx_HAL_Driver/Src/stm32f4xx_hal_rcc.c ****   else
1002:Drivers/STM32F4xx_HAL_Driver/Src/stm32f4xx_hal_rcc.c ****   {
1003:Drivers/STM32F4xx_HAL_Driver/Src/stm32f4xx_hal_rcc.c ****     RCC_OscInitStruct->HSIState = RCC_HSI_OFF;
1004:Drivers/STM32F4xx_HAL_Driver/Src/stm32f4xx_hal_rcc.c ****   }
1005:Drivers/STM32F4xx_HAL_Driver/Src/stm32f4xx_hal_rcc.c **** 
1006:Drivers/STM32F4xx_HAL_Driver/Src/stm32f4xx_hal_rcc.c ****   RCC_OscInitStruct->HSICalibrationValue = (uint32_t)((RCC->CR &RCC_CR_HSITRIM) >> RCC_CR_HSITRIM_P
 2062              		.loc 1 1006 3 is_stmt 1 view .LVU559
 2063              		.loc 1 1006 59 is_stmt 0 view .LVU560
 2064 0022 294A     		ldr	r2, .L218
 2065 0024 1368     		ldr	r3, [r2]
 2066              		.loc 1 1006 44 view .LVU561
 2067 0026 C3F3C403 		ubfx	r3, r3, #3, #5
 2068              		.loc 1 1006 42 view .LVU562
 2069 002a 0361     		str	r3, [r0, #16]
1007:Drivers/STM32F4xx_HAL_Driver/Src/stm32f4xx_hal_rcc.c **** 
1008:Drivers/STM32F4xx_HAL_Driver/Src/stm32f4xx_hal_rcc.c ****   /* Get the LSE configuration -----------------------------------------------*/
1009:Drivers/STM32F4xx_HAL_Driver/Src/stm32f4xx_hal_rcc.c ****   if((RCC->BDCR &RCC_BDCR_LSEBYP) == RCC_BDCR_LSEBYP)
 2070              		.loc 1 1009 3 is_stmt 1 view .LVU563
 2071              		.loc 1 1009 10 is_stmt 0 view .LVU564
 2072 002c 136F     		ldr	r3, [r2, #112]
 2073              		.loc 1 1009 5 view .LVU565
 2074 002e 13F0040F 		tst	r3, #4
 2075 0032 37D0     		beq	.L211
1010:Drivers/STM32F4xx_HAL_Driver/Src/stm32f4xx_hal_rcc.c ****   {
1011:Drivers/STM32F4xx_HAL_Driver/Src/stm32f4xx_hal_rcc.c ****     RCC_OscInitStruct->LSEState = RCC_LSE_BYPASS;
 2076              		.loc 1 1011 5 is_stmt 1 view .LVU566
 2077              		.loc 1 1011 33 is_stmt 0 view .LVU567
 2078 0034 0523     		movs	r3, #5
 2079 0036 8360     		str	r3, [r0, #8]
 2080              	.L212:
1012:Drivers/STM32F4xx_HAL_Driver/Src/stm32f4xx_hal_rcc.c ****   }
1013:Drivers/STM32F4xx_HAL_Driver/Src/stm32f4xx_hal_rcc.c ****   else if((RCC->BDCR &RCC_BDCR_LSEON) == RCC_BDCR_LSEON)
1014:Drivers/STM32F4xx_HAL_Driver/Src/stm32f4xx_hal_rcc.c ****   {
1015:Drivers/STM32F4xx_HAL_Driver/Src/stm32f4xx_hal_rcc.c ****     RCC_OscInitStruct->LSEState = RCC_LSE_ON;
1016:Drivers/STM32F4xx_HAL_Driver/Src/stm32f4xx_hal_rcc.c ****   }
1017:Drivers/STM32F4xx_HAL_Driver/Src/stm32f4xx_hal_rcc.c ****   else
1018:Drivers/STM32F4xx_HAL_Driver/Src/stm32f4xx_hal_rcc.c ****   {
1019:Drivers/STM32F4xx_HAL_Driver/Src/stm32f4xx_hal_rcc.c ****     RCC_OscInitStruct->LSEState = RCC_LSE_OFF;
1020:Drivers/STM32F4xx_HAL_Driver/Src/stm32f4xx_hal_rcc.c ****   }
1021:Drivers/STM32F4xx_HAL_Driver/Src/stm32f4xx_hal_rcc.c **** 
1022:Drivers/STM32F4xx_HAL_Driver/Src/stm32f4xx_hal_rcc.c ****   /* Get the LSI configuration -----------------------------------------------*/
1023:Drivers/STM32F4xx_HAL_Driver/Src/stm32f4xx_hal_rcc.c ****   if((RCC->CSR &RCC_CSR_LSION) == RCC_CSR_LSION)
 2081              		.loc 1 1023 3 is_stmt 1 view .LVU568
 2082              		.loc 1 1023 10 is_stmt 0 view .LVU569
 2083 0038 234B     		ldr	r3, .L218
 2084 003a 5B6F     		ldr	r3, [r3, #116]
 2085              		.loc 1 1023 5 view .LVU570
 2086 003c 13F0010F 		tst	r3, #1
 2087 0040 3BD0     		beq	.L214
1024:Drivers/STM32F4xx_HAL_Driver/Src/stm32f4xx_hal_rcc.c ****   {
1025:Drivers/STM32F4xx_HAL_Driver/Src/stm32f4xx_hal_rcc.c ****     RCC_OscInitStruct->LSIState = RCC_LSI_ON;
 2088              		.loc 1 1025 5 is_stmt 1 view .LVU571
 2089              		.loc 1 1025 33 is_stmt 0 view .LVU572
 2090 0042 0123     		movs	r3, #1
 2091 0044 4361     		str	r3, [r0, #20]
ARM GAS  C:\Temp\ccaZfZb8.s 			page 60


 2092              	.L215:
1026:Drivers/STM32F4xx_HAL_Driver/Src/stm32f4xx_hal_rcc.c ****   }
1027:Drivers/STM32F4xx_HAL_Driver/Src/stm32f4xx_hal_rcc.c ****   else
1028:Drivers/STM32F4xx_HAL_Driver/Src/stm32f4xx_hal_rcc.c ****   {
1029:Drivers/STM32F4xx_HAL_Driver/Src/stm32f4xx_hal_rcc.c ****     RCC_OscInitStruct->LSIState = RCC_LSI_OFF;
1030:Drivers/STM32F4xx_HAL_Driver/Src/stm32f4xx_hal_rcc.c ****   }
1031:Drivers/STM32F4xx_HAL_Driver/Src/stm32f4xx_hal_rcc.c **** 
1032:Drivers/STM32F4xx_HAL_Driver/Src/stm32f4xx_hal_rcc.c ****   /* Get the PLL configuration -----------------------------------------------*/
1033:Drivers/STM32F4xx_HAL_Driver/Src/stm32f4xx_hal_rcc.c ****   if((RCC->CR &RCC_CR_PLLON) == RCC_CR_PLLON)
 2093              		.loc 1 1033 3 is_stmt 1 view .LVU573
 2094              		.loc 1 1033 10 is_stmt 0 view .LVU574
 2095 0046 204B     		ldr	r3, .L218
 2096 0048 1B68     		ldr	r3, [r3]
 2097              		.loc 1 1033 5 view .LVU575
 2098 004a 13F0807F 		tst	r3, #16777216
 2099 004e 37D0     		beq	.L216
1034:Drivers/STM32F4xx_HAL_Driver/Src/stm32f4xx_hal_rcc.c ****   {
1035:Drivers/STM32F4xx_HAL_Driver/Src/stm32f4xx_hal_rcc.c ****     RCC_OscInitStruct->PLL.PLLState = RCC_PLL_ON;
 2100              		.loc 1 1035 5 is_stmt 1 view .LVU576
 2101              		.loc 1 1035 37 is_stmt 0 view .LVU577
 2102 0050 0223     		movs	r3, #2
 2103 0052 8361     		str	r3, [r0, #24]
 2104              	.L217:
1036:Drivers/STM32F4xx_HAL_Driver/Src/stm32f4xx_hal_rcc.c ****   }
1037:Drivers/STM32F4xx_HAL_Driver/Src/stm32f4xx_hal_rcc.c ****   else
1038:Drivers/STM32F4xx_HAL_Driver/Src/stm32f4xx_hal_rcc.c ****   {
1039:Drivers/STM32F4xx_HAL_Driver/Src/stm32f4xx_hal_rcc.c ****     RCC_OscInitStruct->PLL.PLLState = RCC_PLL_OFF;
1040:Drivers/STM32F4xx_HAL_Driver/Src/stm32f4xx_hal_rcc.c ****   }
1041:Drivers/STM32F4xx_HAL_Driver/Src/stm32f4xx_hal_rcc.c ****   RCC_OscInitStruct->PLL.PLLSource = (uint32_t)(RCC->PLLCFGR & RCC_PLLCFGR_PLLSRC);
 2105              		.loc 1 1041 3 is_stmt 1 view .LVU578
 2106              		.loc 1 1041 52 is_stmt 0 view .LVU579
 2107 0054 1C4A     		ldr	r2, .L218
 2108 0056 5368     		ldr	r3, [r2, #4]
 2109              		.loc 1 1041 38 view .LVU580
 2110 0058 03F48003 		and	r3, r3, #4194304
 2111              		.loc 1 1041 36 view .LVU581
 2112 005c C361     		str	r3, [r0, #28]
1042:Drivers/STM32F4xx_HAL_Driver/Src/stm32f4xx_hal_rcc.c ****   RCC_OscInitStruct->PLL.PLLM = (uint32_t)(RCC->PLLCFGR & RCC_PLLCFGR_PLLM);
 2113              		.loc 1 1042 3 is_stmt 1 view .LVU582
 2114              		.loc 1 1042 47 is_stmt 0 view .LVU583
 2115 005e 5368     		ldr	r3, [r2, #4]
 2116              		.loc 1 1042 33 view .LVU584
 2117 0060 03F03F03 		and	r3, r3, #63
 2118              		.loc 1 1042 31 view .LVU585
 2119 0064 0362     		str	r3, [r0, #32]
1043:Drivers/STM32F4xx_HAL_Driver/Src/stm32f4xx_hal_rcc.c ****   RCC_OscInitStruct->PLL.PLLN = (uint32_t)((RCC->PLLCFGR & RCC_PLLCFGR_PLLN) >> RCC_PLLCFGR_PLLN_Po
 2120              		.loc 1 1043 3 is_stmt 1 view .LVU586
 2121              		.loc 1 1043 48 is_stmt 0 view .LVU587
 2122 0066 5368     		ldr	r3, [r2, #4]
 2123              		.loc 1 1043 33 view .LVU588
 2124 0068 C3F38813 		ubfx	r3, r3, #6, #9
 2125              		.loc 1 1043 31 view .LVU589
 2126 006c 4362     		str	r3, [r0, #36]
1044:Drivers/STM32F4xx_HAL_Driver/Src/stm32f4xx_hal_rcc.c ****   RCC_OscInitStruct->PLL.PLLP = (uint32_t)((((RCC->PLLCFGR & RCC_PLLCFGR_PLLP) + RCC_PLLCFGR_PLLP_0
 2127              		.loc 1 1044 3 is_stmt 1 view .LVU590
 2128              		.loc 1 1044 50 is_stmt 0 view .LVU591
 2129 006e 5368     		ldr	r3, [r2, #4]
ARM GAS  C:\Temp\ccaZfZb8.s 			page 61


 2130              		.loc 1 1044 60 view .LVU592
 2131 0070 03F44033 		and	r3, r3, #196608
 2132              		.loc 1 1044 80 view .LVU593
 2133 0074 03F58033 		add	r3, r3, #65536
 2134              		.loc 1 1044 33 view .LVU594
 2135 0078 DB0B     		lsrs	r3, r3, #15
 2136              		.loc 1 1044 31 view .LVU595
 2137 007a 8362     		str	r3, [r0, #40]
1045:Drivers/STM32F4xx_HAL_Driver/Src/stm32f4xx_hal_rcc.c ****   RCC_OscInitStruct->PLL.PLLQ = (uint32_t)((RCC->PLLCFGR & RCC_PLLCFGR_PLLQ) >> RCC_PLLCFGR_PLLQ_Po
 2138              		.loc 1 1045 3 is_stmt 1 view .LVU596
 2139              		.loc 1 1045 48 is_stmt 0 view .LVU597
 2140 007c 5368     		ldr	r3, [r2, #4]
 2141              		.loc 1 1045 33 view .LVU598
 2142 007e C3F30363 		ubfx	r3, r3, #24, #4
 2143              		.loc 1 1045 31 view .LVU599
 2144 0082 C362     		str	r3, [r0, #44]
1046:Drivers/STM32F4xx_HAL_Driver/Src/stm32f4xx_hal_rcc.c **** }
 2145              		.loc 1 1046 1 view .LVU600
 2146 0084 7047     		bx	lr
 2147              	.L206:
 987:Drivers/STM32F4xx_HAL_Driver/Src/stm32f4xx_hal_rcc.c ****   {
 2148              		.loc 1 987 8 is_stmt 1 view .LVU601
 987:Drivers/STM32F4xx_HAL_Driver/Src/stm32f4xx_hal_rcc.c ****   {
 2149              		.loc 1 987 15 is_stmt 0 view .LVU602
 2150 0086 104B     		ldr	r3, .L218
 2151 0088 1B68     		ldr	r3, [r3]
 987:Drivers/STM32F4xx_HAL_Driver/Src/stm32f4xx_hal_rcc.c ****   {
 2152              		.loc 1 987 10 view .LVU603
 2153 008a 13F4803F 		tst	r3, #65536
 2154 008e 03D0     		beq	.L208
 989:Drivers/STM32F4xx_HAL_Driver/Src/stm32f4xx_hal_rcc.c ****   }
 2155              		.loc 1 989 5 is_stmt 1 view .LVU604
 989:Drivers/STM32F4xx_HAL_Driver/Src/stm32f4xx_hal_rcc.c ****   }
 2156              		.loc 1 989 33 is_stmt 0 view .LVU605
 2157 0090 4FF48033 		mov	r3, #65536
 2158 0094 4360     		str	r3, [r0, #4]
 2159 0096 BDE7     		b	.L207
 2160              	.L208:
 993:Drivers/STM32F4xx_HAL_Driver/Src/stm32f4xx_hal_rcc.c ****   }
 2161              		.loc 1 993 5 is_stmt 1 view .LVU606
 993:Drivers/STM32F4xx_HAL_Driver/Src/stm32f4xx_hal_rcc.c ****   }
 2162              		.loc 1 993 33 is_stmt 0 view .LVU607
 2163 0098 0023     		movs	r3, #0
 2164 009a 4360     		str	r3, [r0, #4]
 2165 009c BAE7     		b	.L207
 2166              	.L209:
1003:Drivers/STM32F4xx_HAL_Driver/Src/stm32f4xx_hal_rcc.c ****   }
 2167              		.loc 1 1003 5 is_stmt 1 view .LVU608
1003:Drivers/STM32F4xx_HAL_Driver/Src/stm32f4xx_hal_rcc.c ****   }
 2168              		.loc 1 1003 33 is_stmt 0 view .LVU609
 2169 009e 0023     		movs	r3, #0
 2170 00a0 C360     		str	r3, [r0, #12]
 2171 00a2 BEE7     		b	.L210
 2172              	.L211:
1013:Drivers/STM32F4xx_HAL_Driver/Src/stm32f4xx_hal_rcc.c ****   {
 2173              		.loc 1 1013 8 is_stmt 1 view .LVU610
1013:Drivers/STM32F4xx_HAL_Driver/Src/stm32f4xx_hal_rcc.c ****   {
ARM GAS  C:\Temp\ccaZfZb8.s 			page 62


 2174              		.loc 1 1013 15 is_stmt 0 view .LVU611
 2175 00a4 084B     		ldr	r3, .L218
 2176 00a6 1B6F     		ldr	r3, [r3, #112]
1013:Drivers/STM32F4xx_HAL_Driver/Src/stm32f4xx_hal_rcc.c ****   {
 2177              		.loc 1 1013 10 view .LVU612
 2178 00a8 13F0010F 		tst	r3, #1
 2179 00ac 02D0     		beq	.L213
1015:Drivers/STM32F4xx_HAL_Driver/Src/stm32f4xx_hal_rcc.c ****   }
 2180              		.loc 1 1015 5 is_stmt 1 view .LVU613
1015:Drivers/STM32F4xx_HAL_Driver/Src/stm32f4xx_hal_rcc.c ****   }
 2181              		.loc 1 1015 33 is_stmt 0 view .LVU614
 2182 00ae 0123     		movs	r3, #1
 2183 00b0 8360     		str	r3, [r0, #8]
 2184 00b2 C1E7     		b	.L212
 2185              	.L213:
1019:Drivers/STM32F4xx_HAL_Driver/Src/stm32f4xx_hal_rcc.c ****   }
 2186              		.loc 1 1019 5 is_stmt 1 view .LVU615
1019:Drivers/STM32F4xx_HAL_Driver/Src/stm32f4xx_hal_rcc.c ****   }
 2187              		.loc 1 1019 33 is_stmt 0 view .LVU616
 2188 00b4 0023     		movs	r3, #0
 2189 00b6 8360     		str	r3, [r0, #8]
 2190 00b8 BEE7     		b	.L212
 2191              	.L214:
1029:Drivers/STM32F4xx_HAL_Driver/Src/stm32f4xx_hal_rcc.c ****   }
 2192              		.loc 1 1029 5 is_stmt 1 view .LVU617
1029:Drivers/STM32F4xx_HAL_Driver/Src/stm32f4xx_hal_rcc.c ****   }
 2193              		.loc 1 1029 33 is_stmt 0 view .LVU618
 2194 00ba 0023     		movs	r3, #0
 2195 00bc 4361     		str	r3, [r0, #20]
 2196 00be C2E7     		b	.L215
 2197              	.L216:
1039:Drivers/STM32F4xx_HAL_Driver/Src/stm32f4xx_hal_rcc.c ****   }
 2198              		.loc 1 1039 5 is_stmt 1 view .LVU619
1039:Drivers/STM32F4xx_HAL_Driver/Src/stm32f4xx_hal_rcc.c ****   }
 2199              		.loc 1 1039 37 is_stmt 0 view .LVU620
 2200 00c0 0123     		movs	r3, #1
 2201 00c2 8361     		str	r3, [r0, #24]
 2202 00c4 C6E7     		b	.L217
 2203              	.L219:
 2204 00c6 00BF     		.align	2
 2205              	.L218:
 2206 00c8 00380240 		.word	1073887232
 2207              		.cfi_endproc
 2208              	.LFE144:
 2210              		.section	.text.HAL_RCC_GetClockConfig,"ax",%progbits
 2211              		.align	1
 2212              		.global	HAL_RCC_GetClockConfig
 2213              		.syntax unified
 2214              		.thumb
 2215              		.thumb_func
 2217              	HAL_RCC_GetClockConfig:
 2218              	.LVL128:
 2219              	.LFB145:
1047:Drivers/STM32F4xx_HAL_Driver/Src/stm32f4xx_hal_rcc.c **** 
1048:Drivers/STM32F4xx_HAL_Driver/Src/stm32f4xx_hal_rcc.c **** /**
1049:Drivers/STM32F4xx_HAL_Driver/Src/stm32f4xx_hal_rcc.c ****   * @brief  Configures the RCC_ClkInitStruct according to the internal
1050:Drivers/STM32F4xx_HAL_Driver/Src/stm32f4xx_hal_rcc.c ****   * RCC configuration registers.
ARM GAS  C:\Temp\ccaZfZb8.s 			page 63


1051:Drivers/STM32F4xx_HAL_Driver/Src/stm32f4xx_hal_rcc.c ****   * @param  RCC_ClkInitStruct pointer to an RCC_ClkInitTypeDef structure that
1052:Drivers/STM32F4xx_HAL_Driver/Src/stm32f4xx_hal_rcc.c ****   * will be configured.
1053:Drivers/STM32F4xx_HAL_Driver/Src/stm32f4xx_hal_rcc.c ****   * @param  pFLatency Pointer on the Flash Latency.
1054:Drivers/STM32F4xx_HAL_Driver/Src/stm32f4xx_hal_rcc.c ****   * @retval None
1055:Drivers/STM32F4xx_HAL_Driver/Src/stm32f4xx_hal_rcc.c ****   */
1056:Drivers/STM32F4xx_HAL_Driver/Src/stm32f4xx_hal_rcc.c **** void HAL_RCC_GetClockConfig(RCC_ClkInitTypeDef  *RCC_ClkInitStruct, uint32_t *pFLatency)
1057:Drivers/STM32F4xx_HAL_Driver/Src/stm32f4xx_hal_rcc.c **** {
 2220              		.loc 1 1057 1 is_stmt 1 view -0
 2221              		.cfi_startproc
 2222              		@ args = 0, pretend = 0, frame = 0
 2223              		@ frame_needed = 0, uses_anonymous_args = 0
 2224              		@ link register save eliminated.
1058:Drivers/STM32F4xx_HAL_Driver/Src/stm32f4xx_hal_rcc.c ****   /* Set all possible values for the Clock type parameter --------------------*/
1059:Drivers/STM32F4xx_HAL_Driver/Src/stm32f4xx_hal_rcc.c ****   RCC_ClkInitStruct->ClockType = RCC_CLOCKTYPE_SYSCLK | RCC_CLOCKTYPE_HCLK | RCC_CLOCKTYPE_PCLK1 | 
 2225              		.loc 1 1059 3 view .LVU622
 2226              		.loc 1 1059 32 is_stmt 0 view .LVU623
 2227 0000 0F23     		movs	r3, #15
 2228 0002 0360     		str	r3, [r0]
1060:Drivers/STM32F4xx_HAL_Driver/Src/stm32f4xx_hal_rcc.c **** 
1061:Drivers/STM32F4xx_HAL_Driver/Src/stm32f4xx_hal_rcc.c ****   /* Get the SYSCLK configuration --------------------------------------------*/
1062:Drivers/STM32F4xx_HAL_Driver/Src/stm32f4xx_hal_rcc.c ****   RCC_ClkInitStruct->SYSCLKSource = (uint32_t)(RCC->CFGR & RCC_CFGR_SW);
 2229              		.loc 1 1062 3 is_stmt 1 view .LVU624
 2230              		.loc 1 1062 51 is_stmt 0 view .LVU625
 2231 0004 0B4B     		ldr	r3, .L221
 2232 0006 9A68     		ldr	r2, [r3, #8]
 2233              		.loc 1 1062 37 view .LVU626
 2234 0008 02F00302 		and	r2, r2, #3
 2235              		.loc 1 1062 35 view .LVU627
 2236 000c 4260     		str	r2, [r0, #4]
1063:Drivers/STM32F4xx_HAL_Driver/Src/stm32f4xx_hal_rcc.c **** 
1064:Drivers/STM32F4xx_HAL_Driver/Src/stm32f4xx_hal_rcc.c ****   /* Get the HCLK configuration ----------------------------------------------*/
1065:Drivers/STM32F4xx_HAL_Driver/Src/stm32f4xx_hal_rcc.c ****   RCC_ClkInitStruct->AHBCLKDivider = (uint32_t)(RCC->CFGR & RCC_CFGR_HPRE);
 2237              		.loc 1 1065 3 is_stmt 1 view .LVU628
 2238              		.loc 1 1065 52 is_stmt 0 view .LVU629
 2239 000e 9A68     		ldr	r2, [r3, #8]
 2240              		.loc 1 1065 38 view .LVU630
 2241 0010 02F0F002 		and	r2, r2, #240
 2242              		.loc 1 1065 36 view .LVU631
 2243 0014 8260     		str	r2, [r0, #8]
1066:Drivers/STM32F4xx_HAL_Driver/Src/stm32f4xx_hal_rcc.c **** 
1067:Drivers/STM32F4xx_HAL_Driver/Src/stm32f4xx_hal_rcc.c ****   /* Get the APB1 configuration ----------------------------------------------*/
1068:Drivers/STM32F4xx_HAL_Driver/Src/stm32f4xx_hal_rcc.c ****   RCC_ClkInitStruct->APB1CLKDivider = (uint32_t)(RCC->CFGR & RCC_CFGR_PPRE1);
 2244              		.loc 1 1068 3 is_stmt 1 view .LVU632
 2245              		.loc 1 1068 53 is_stmt 0 view .LVU633
 2246 0016 9A68     		ldr	r2, [r3, #8]
 2247              		.loc 1 1068 39 view .LVU634
 2248 0018 02F4E052 		and	r2, r2, #7168
 2249              		.loc 1 1068 37 view .LVU635
 2250 001c C260     		str	r2, [r0, #12]
1069:Drivers/STM32F4xx_HAL_Driver/Src/stm32f4xx_hal_rcc.c **** 
1070:Drivers/STM32F4xx_HAL_Driver/Src/stm32f4xx_hal_rcc.c ****   /* Get the APB2 configuration ----------------------------------------------*/
1071:Drivers/STM32F4xx_HAL_Driver/Src/stm32f4xx_hal_rcc.c ****   RCC_ClkInitStruct->APB2CLKDivider = (uint32_t)((RCC->CFGR & RCC_CFGR_PPRE2) >> 3U);
 2251              		.loc 1 1071 3 is_stmt 1 view .LVU636
 2252              		.loc 1 1071 54 is_stmt 0 view .LVU637
 2253 001e 9B68     		ldr	r3, [r3, #8]
 2254              		.loc 1 1071 39 view .LVU638
 2255 0020 DB08     		lsrs	r3, r3, #3
ARM GAS  C:\Temp\ccaZfZb8.s 			page 64


 2256 0022 03F4E053 		and	r3, r3, #7168
 2257              		.loc 1 1071 37 view .LVU639
 2258 0026 0361     		str	r3, [r0, #16]
1072:Drivers/STM32F4xx_HAL_Driver/Src/stm32f4xx_hal_rcc.c **** 
1073:Drivers/STM32F4xx_HAL_Driver/Src/stm32f4xx_hal_rcc.c ****   /* Get the Flash Wait State (Latency) configuration ------------------------*/
1074:Drivers/STM32F4xx_HAL_Driver/Src/stm32f4xx_hal_rcc.c ****   *pFLatency = (uint32_t)(FLASH->ACR & FLASH_ACR_LATENCY);
 2259              		.loc 1 1074 3 is_stmt 1 view .LVU640
 2260              		.loc 1 1074 32 is_stmt 0 view .LVU641
 2261 0028 034B     		ldr	r3, .L221+4
 2262 002a 1B68     		ldr	r3, [r3]
 2263              		.loc 1 1074 16 view .LVU642
 2264 002c 03F00703 		and	r3, r3, #7
 2265              		.loc 1 1074 14 view .LVU643
 2266 0030 0B60     		str	r3, [r1]
1075:Drivers/STM32F4xx_HAL_Driver/Src/stm32f4xx_hal_rcc.c **** }
 2267              		.loc 1 1075 1 view .LVU644
 2268 0032 7047     		bx	lr
 2269              	.L222:
 2270              		.align	2
 2271              	.L221:
 2272 0034 00380240 		.word	1073887232
 2273 0038 003C0240 		.word	1073888256
 2274              		.cfi_endproc
 2275              	.LFE145:
 2277              		.section	.text.HAL_RCC_CSSCallback,"ax",%progbits
 2278              		.align	1
 2279              		.weak	HAL_RCC_CSSCallback
 2280              		.syntax unified
 2281              		.thumb
 2282              		.thumb_func
 2284              	HAL_RCC_CSSCallback:
 2285              	.LFB147:
1076:Drivers/STM32F4xx_HAL_Driver/Src/stm32f4xx_hal_rcc.c **** 
1077:Drivers/STM32F4xx_HAL_Driver/Src/stm32f4xx_hal_rcc.c **** /**
1078:Drivers/STM32F4xx_HAL_Driver/Src/stm32f4xx_hal_rcc.c ****   * @brief This function handles the RCC CSS interrupt request.
1079:Drivers/STM32F4xx_HAL_Driver/Src/stm32f4xx_hal_rcc.c ****   * @note This API should be called under the NMI_Handler().
1080:Drivers/STM32F4xx_HAL_Driver/Src/stm32f4xx_hal_rcc.c ****   * @retval None
1081:Drivers/STM32F4xx_HAL_Driver/Src/stm32f4xx_hal_rcc.c ****   */
1082:Drivers/STM32F4xx_HAL_Driver/Src/stm32f4xx_hal_rcc.c **** void HAL_RCC_NMI_IRQHandler(void)
1083:Drivers/STM32F4xx_HAL_Driver/Src/stm32f4xx_hal_rcc.c **** {
1084:Drivers/STM32F4xx_HAL_Driver/Src/stm32f4xx_hal_rcc.c ****   /* Check RCC CSSF flag  */
1085:Drivers/STM32F4xx_HAL_Driver/Src/stm32f4xx_hal_rcc.c ****   if(__HAL_RCC_GET_IT(RCC_IT_CSS))
1086:Drivers/STM32F4xx_HAL_Driver/Src/stm32f4xx_hal_rcc.c ****   {
1087:Drivers/STM32F4xx_HAL_Driver/Src/stm32f4xx_hal_rcc.c ****     /* RCC Clock Security System interrupt user callback */
1088:Drivers/STM32F4xx_HAL_Driver/Src/stm32f4xx_hal_rcc.c ****     HAL_RCC_CSSCallback();
1089:Drivers/STM32F4xx_HAL_Driver/Src/stm32f4xx_hal_rcc.c **** 
1090:Drivers/STM32F4xx_HAL_Driver/Src/stm32f4xx_hal_rcc.c ****     /* Clear RCC CSS pending bit */
1091:Drivers/STM32F4xx_HAL_Driver/Src/stm32f4xx_hal_rcc.c ****     __HAL_RCC_CLEAR_IT(RCC_IT_CSS);
1092:Drivers/STM32F4xx_HAL_Driver/Src/stm32f4xx_hal_rcc.c ****   }
1093:Drivers/STM32F4xx_HAL_Driver/Src/stm32f4xx_hal_rcc.c **** }
1094:Drivers/STM32F4xx_HAL_Driver/Src/stm32f4xx_hal_rcc.c **** 
1095:Drivers/STM32F4xx_HAL_Driver/Src/stm32f4xx_hal_rcc.c **** /**
1096:Drivers/STM32F4xx_HAL_Driver/Src/stm32f4xx_hal_rcc.c ****   * @brief  RCC Clock Security System interrupt callback
1097:Drivers/STM32F4xx_HAL_Driver/Src/stm32f4xx_hal_rcc.c ****   * @retval None
1098:Drivers/STM32F4xx_HAL_Driver/Src/stm32f4xx_hal_rcc.c ****   */
1099:Drivers/STM32F4xx_HAL_Driver/Src/stm32f4xx_hal_rcc.c **** __weak void HAL_RCC_CSSCallback(void)
1100:Drivers/STM32F4xx_HAL_Driver/Src/stm32f4xx_hal_rcc.c **** {
ARM GAS  C:\Temp\ccaZfZb8.s 			page 65


 2286              		.loc 1 1100 1 is_stmt 1 view -0
 2287              		.cfi_startproc
 2288              		@ args = 0, pretend = 0, frame = 0
 2289              		@ frame_needed = 0, uses_anonymous_args = 0
 2290              		@ link register save eliminated.
1101:Drivers/STM32F4xx_HAL_Driver/Src/stm32f4xx_hal_rcc.c ****   /* NOTE : This function Should not be modified, when the callback is needed,
1102:Drivers/STM32F4xx_HAL_Driver/Src/stm32f4xx_hal_rcc.c ****             the HAL_RCC_CSSCallback could be implemented in the user file
1103:Drivers/STM32F4xx_HAL_Driver/Src/stm32f4xx_hal_rcc.c ****    */
1104:Drivers/STM32F4xx_HAL_Driver/Src/stm32f4xx_hal_rcc.c **** }
 2291              		.loc 1 1104 1 view .LVU646
 2292 0000 7047     		bx	lr
 2293              		.cfi_endproc
 2294              	.LFE147:
 2296              		.section	.text.HAL_RCC_NMI_IRQHandler,"ax",%progbits
 2297              		.align	1
 2298              		.global	HAL_RCC_NMI_IRQHandler
 2299              		.syntax unified
 2300              		.thumb
 2301              		.thumb_func
 2303              	HAL_RCC_NMI_IRQHandler:
 2304              	.LFB146:
1083:Drivers/STM32F4xx_HAL_Driver/Src/stm32f4xx_hal_rcc.c ****   /* Check RCC CSSF flag  */
 2305              		.loc 1 1083 1 view -0
 2306              		.cfi_startproc
 2307              		@ args = 0, pretend = 0, frame = 0
 2308              		@ frame_needed = 0, uses_anonymous_args = 0
 2309 0000 08B5     		push	{r3, lr}
 2310              		.cfi_def_cfa_offset 8
 2311              		.cfi_offset 3, -8
 2312              		.cfi_offset 14, -4
1085:Drivers/STM32F4xx_HAL_Driver/Src/stm32f4xx_hal_rcc.c ****   {
 2313              		.loc 1 1085 3 view .LVU648
1085:Drivers/STM32F4xx_HAL_Driver/Src/stm32f4xx_hal_rcc.c ****   {
 2314              		.loc 1 1085 6 is_stmt 0 view .LVU649
 2315 0002 064B     		ldr	r3, .L228
 2316 0004 DB68     		ldr	r3, [r3, #12]
1085:Drivers/STM32F4xx_HAL_Driver/Src/stm32f4xx_hal_rcc.c ****   {
 2317              		.loc 1 1085 5 view .LVU650
 2318 0006 13F0800F 		tst	r3, #128
 2319 000a 00D1     		bne	.L227
 2320              	.L224:
1093:Drivers/STM32F4xx_HAL_Driver/Src/stm32f4xx_hal_rcc.c **** 
 2321              		.loc 1 1093 1 view .LVU651
 2322 000c 08BD     		pop	{r3, pc}
 2323              	.L227:
1088:Drivers/STM32F4xx_HAL_Driver/Src/stm32f4xx_hal_rcc.c **** 
 2324              		.loc 1 1088 5 is_stmt 1 view .LVU652
 2325 000e FFF7FEFF 		bl	HAL_RCC_CSSCallback
 2326              	.LVL129:
1091:Drivers/STM32F4xx_HAL_Driver/Src/stm32f4xx_hal_rcc.c ****   }
 2327              		.loc 1 1091 5 view .LVU653
 2328 0012 024B     		ldr	r3, .L228
 2329 0014 8022     		movs	r2, #128
 2330 0016 9A73     		strb	r2, [r3, #14]
1093:Drivers/STM32F4xx_HAL_Driver/Src/stm32f4xx_hal_rcc.c **** 
 2331              		.loc 1 1093 1 is_stmt 0 view .LVU654
 2332 0018 F8E7     		b	.L224
ARM GAS  C:\Temp\ccaZfZb8.s 			page 66


 2333              	.L229:
 2334 001a 00BF     		.align	2
 2335              	.L228:
 2336 001c 00380240 		.word	1073887232
 2337              		.cfi_endproc
 2338              	.LFE146:
 2340              		.text
 2341              	.Letext0:
 2342              		.file 2 "c:\\users\\jessejabezarendse\\appdata\\roaming\\code\\user\\globalstorage\\bmd.stm32-for-
 2343              		.file 3 "c:\\users\\jessejabezarendse\\appdata\\roaming\\code\\user\\globalstorage\\bmd.stm32-for-
 2344              		.file 4 "Drivers/CMSIS/Device/ST/STM32F4xx/Include/system_stm32f4xx.h"
 2345              		.file 5 "Drivers/CMSIS/Device/ST/STM32F4xx/Include/stm32f411xe.h"
 2346              		.file 6 "Drivers/CMSIS/Device/ST/STM32F4xx/Include/stm32f4xx.h"
 2347              		.file 7 "Drivers/STM32F4xx_HAL_Driver/Inc/stm32f4xx_hal_def.h"
 2348              		.file 8 "Drivers/STM32F4xx_HAL_Driver/Inc/stm32f4xx_hal_rcc_ex.h"
 2349              		.file 9 "Drivers/STM32F4xx_HAL_Driver/Inc/stm32f4xx_hal_rcc.h"
 2350              		.file 10 "Drivers/STM32F4xx_HAL_Driver/Inc/stm32f4xx_hal_gpio.h"
 2351              		.file 11 "Drivers/STM32F4xx_HAL_Driver/Inc/stm32f4xx_hal.h"
 2352              		.file 12 "Core/Inc/stm32f4xx_hal_conf.h"
ARM GAS  C:\Temp\ccaZfZb8.s 			page 67

