ARM GAS  C:\Temp\ccWgMXa1.s 			page 1


   1              		.cpu cortex-m4
   2              		.arch armv7e-m
   3              		.fpu fpv4-sp-d16
   4              		.eabi_attribute 27, 1
   5              		.eabi_attribute 28, 1
   6              		.eabi_attribute 20, 1
   7              		.eabi_attribute 21, 1
   8              		.eabi_attribute 23, 3
   9              		.eabi_attribute 24, 1
  10              		.eabi_attribute 25, 1
  11              		.eabi_attribute 26, 1
  12              		.eabi_attribute 30, 1
  13              		.eabi_attribute 34, 1
  14              		.eabi_attribute 18, 4
  15              		.file	"vl53l1_wait.c"
  16              		.text
  17              	.Ltext0:
  18              		.cfi_sections	.debug_frame
  19              		.file 1 "Drivers/BSP/Components/vl53l1cb/modules/vl53l1_wait.c"
  20              		.section	.text.VL53L1_is_boot_complete,"ax",%progbits
  21              		.align	1
  22              		.global	VL53L1_is_boot_complete
  23              		.syntax unified
  24              		.thumb
  25              		.thumb_func
  27              	VL53L1_is_boot_complete:
  28              	.LVL0:
  29              	.LFB7:
   1:Drivers/BSP/Components/vl53l1cb/modules/vl53l1_wait.c **** /**
   2:Drivers/BSP/Components/vl53l1cb/modules/vl53l1_wait.c ****  ******************************************************************************
   3:Drivers/BSP/Components/vl53l1cb/modules/vl53l1_wait.c ****  * Copyright (c) 2020, STMicroelectronics - All Rights Reserved
   4:Drivers/BSP/Components/vl53l1cb/modules/vl53l1_wait.c ****  *
   5:Drivers/BSP/Components/vl53l1cb/modules/vl53l1_wait.c ****  * This software is licensed under terms that can be found in the LICENSE file
   6:Drivers/BSP/Components/vl53l1cb/modules/vl53l1_wait.c ****  * in the root directory of this software component.
   7:Drivers/BSP/Components/vl53l1cb/modules/vl53l1_wait.c ****  * If no LICENSE file comes with this software, it is provided AS-IS.
   8:Drivers/BSP/Components/vl53l1cb/modules/vl53l1_wait.c ****  *
   9:Drivers/BSP/Components/vl53l1cb/modules/vl53l1_wait.c ****  ******************************************************************************
  10:Drivers/BSP/Components/vl53l1cb/modules/vl53l1_wait.c ****  */
  11:Drivers/BSP/Components/vl53l1cb/modules/vl53l1_wait.c **** 
  12:Drivers/BSP/Components/vl53l1cb/modules/vl53l1_wait.c **** 
  13:Drivers/BSP/Components/vl53l1cb/modules/vl53l1_wait.c **** 
  14:Drivers/BSP/Components/vl53l1cb/modules/vl53l1_wait.c **** 
  15:Drivers/BSP/Components/vl53l1cb/modules/vl53l1_wait.c **** 
  16:Drivers/BSP/Components/vl53l1cb/modules/vl53l1_wait.c **** #include "vl53l1_ll_def.h"
  17:Drivers/BSP/Components/vl53l1cb/modules/vl53l1_wait.c **** #include "vl53l1_ll_device.h"
  18:Drivers/BSP/Components/vl53l1cb/modules/vl53l1_wait.c **** #include "vl53l1_platform.h"
  19:Drivers/BSP/Components/vl53l1cb/modules/vl53l1_wait.c **** #include "vl53l1_core.h"
  20:Drivers/BSP/Components/vl53l1cb/modules/vl53l1_wait.c **** #include "vl53l1_silicon_core.h"
  21:Drivers/BSP/Components/vl53l1cb/modules/vl53l1_wait.c **** #include "vl53l1_wait.h"
  22:Drivers/BSP/Components/vl53l1cb/modules/vl53l1_wait.c **** #include "vl53l1_register_settings.h"
  23:Drivers/BSP/Components/vl53l1cb/modules/vl53l1_wait.c **** 
  24:Drivers/BSP/Components/vl53l1cb/modules/vl53l1_wait.c **** 
  25:Drivers/BSP/Components/vl53l1cb/modules/vl53l1_wait.c **** #define LOG_FUNCTION_START(fmt, ...) \
  26:Drivers/BSP/Components/vl53l1cb/modules/vl53l1_wait.c **** 	_LOG_FUNCTION_START(VL53L1_TRACE_MODULE_CORE, fmt, ##__VA_ARGS__)
  27:Drivers/BSP/Components/vl53l1cb/modules/vl53l1_wait.c **** #define LOG_FUNCTION_END(status, ...) \
  28:Drivers/BSP/Components/vl53l1cb/modules/vl53l1_wait.c **** 	_LOG_FUNCTION_END(VL53L1_TRACE_MODULE_CORE, status, ##__VA_ARGS__)
  29:Drivers/BSP/Components/vl53l1cb/modules/vl53l1_wait.c **** #define LOG_FUNCTION_END_FMT(status, fmt, ...) \
ARM GAS  C:\Temp\ccWgMXa1.s 			page 2


  30:Drivers/BSP/Components/vl53l1cb/modules/vl53l1_wait.c **** 	_LOG_FUNCTION_END_FMT(VL53L1_TRACE_MODULE_CORE, status, \
  31:Drivers/BSP/Components/vl53l1cb/modules/vl53l1_wait.c **** 		fmt, ##__VA_ARGS__)
  32:Drivers/BSP/Components/vl53l1cb/modules/vl53l1_wait.c **** 
  33:Drivers/BSP/Components/vl53l1cb/modules/vl53l1_wait.c **** 
  34:Drivers/BSP/Components/vl53l1cb/modules/vl53l1_wait.c **** VL53L1_Error VL53L1_wait_for_boot_completion(
  35:Drivers/BSP/Components/vl53l1cb/modules/vl53l1_wait.c **** 	VL53L1_DEV     Dev)
  36:Drivers/BSP/Components/vl53l1cb/modules/vl53l1_wait.c **** {
  37:Drivers/BSP/Components/vl53l1cb/modules/vl53l1_wait.c **** 
  38:Drivers/BSP/Components/vl53l1cb/modules/vl53l1_wait.c **** 
  39:Drivers/BSP/Components/vl53l1cb/modules/vl53l1_wait.c **** 
  40:Drivers/BSP/Components/vl53l1cb/modules/vl53l1_wait.c **** 	VL53L1_Error status = VL53L1_ERROR_NONE;
  41:Drivers/BSP/Components/vl53l1cb/modules/vl53l1_wait.c **** 	VL53L1_LLDriverData_t *pdev = VL53L1DevStructGetLLDriverHandle(Dev);
  42:Drivers/BSP/Components/vl53l1cb/modules/vl53l1_wait.c **** 
  43:Drivers/BSP/Components/vl53l1cb/modules/vl53l1_wait.c **** 	uint8_t      fw_ready  = 0;
  44:Drivers/BSP/Components/vl53l1cb/modules/vl53l1_wait.c **** 
  45:Drivers/BSP/Components/vl53l1cb/modules/vl53l1_wait.c **** 	LOG_FUNCTION_START("");
  46:Drivers/BSP/Components/vl53l1cb/modules/vl53l1_wait.c **** 
  47:Drivers/BSP/Components/vl53l1cb/modules/vl53l1_wait.c **** 	if (pdev->wait_method == VL53L1_WAIT_METHOD_BLOCKING) {
  48:Drivers/BSP/Components/vl53l1cb/modules/vl53l1_wait.c **** 
  49:Drivers/BSP/Components/vl53l1cb/modules/vl53l1_wait.c **** 
  50:Drivers/BSP/Components/vl53l1cb/modules/vl53l1_wait.c **** 
  51:Drivers/BSP/Components/vl53l1cb/modules/vl53l1_wait.c **** 		status =
  52:Drivers/BSP/Components/vl53l1cb/modules/vl53l1_wait.c **** 			VL53L1_poll_for_boot_completion(
  53:Drivers/BSP/Components/vl53l1cb/modules/vl53l1_wait.c **** 				Dev,
  54:Drivers/BSP/Components/vl53l1cb/modules/vl53l1_wait.c **** 				VL53L1_BOOT_COMPLETION_POLLING_TIMEOUT_MS);
  55:Drivers/BSP/Components/vl53l1cb/modules/vl53l1_wait.c **** 
  56:Drivers/BSP/Components/vl53l1cb/modules/vl53l1_wait.c **** 	} else {
  57:Drivers/BSP/Components/vl53l1cb/modules/vl53l1_wait.c **** 
  58:Drivers/BSP/Components/vl53l1cb/modules/vl53l1_wait.c **** 
  59:Drivers/BSP/Components/vl53l1cb/modules/vl53l1_wait.c **** 
  60:Drivers/BSP/Components/vl53l1cb/modules/vl53l1_wait.c **** 		fw_ready = 0;
  61:Drivers/BSP/Components/vl53l1cb/modules/vl53l1_wait.c **** 		while (fw_ready == 0x00 && status == VL53L1_ERROR_NONE) {
  62:Drivers/BSP/Components/vl53l1cb/modules/vl53l1_wait.c **** 			status = VL53L1_is_boot_complete(
  63:Drivers/BSP/Components/vl53l1cb/modules/vl53l1_wait.c **** 				Dev,
  64:Drivers/BSP/Components/vl53l1cb/modules/vl53l1_wait.c **** 				&fw_ready);
  65:Drivers/BSP/Components/vl53l1cb/modules/vl53l1_wait.c **** 
  66:Drivers/BSP/Components/vl53l1cb/modules/vl53l1_wait.c **** 			if (status == VL53L1_ERROR_NONE) {
  67:Drivers/BSP/Components/vl53l1cb/modules/vl53l1_wait.c **** 				status = VL53L1_WaitMs(
  68:Drivers/BSP/Components/vl53l1cb/modules/vl53l1_wait.c **** 					Dev,
  69:Drivers/BSP/Components/vl53l1cb/modules/vl53l1_wait.c **** 					VL53L1_POLLING_DELAY_MS);
  70:Drivers/BSP/Components/vl53l1cb/modules/vl53l1_wait.c **** 			}
  71:Drivers/BSP/Components/vl53l1cb/modules/vl53l1_wait.c **** 		}
  72:Drivers/BSP/Components/vl53l1cb/modules/vl53l1_wait.c **** 	}
  73:Drivers/BSP/Components/vl53l1cb/modules/vl53l1_wait.c **** 
  74:Drivers/BSP/Components/vl53l1cb/modules/vl53l1_wait.c **** 	LOG_FUNCTION_END(status);
  75:Drivers/BSP/Components/vl53l1cb/modules/vl53l1_wait.c **** 
  76:Drivers/BSP/Components/vl53l1cb/modules/vl53l1_wait.c **** 	return status;
  77:Drivers/BSP/Components/vl53l1cb/modules/vl53l1_wait.c **** 
  78:Drivers/BSP/Components/vl53l1cb/modules/vl53l1_wait.c **** }
  79:Drivers/BSP/Components/vl53l1cb/modules/vl53l1_wait.c **** 
  80:Drivers/BSP/Components/vl53l1cb/modules/vl53l1_wait.c **** 
  81:Drivers/BSP/Components/vl53l1cb/modules/vl53l1_wait.c **** VL53L1_Error VL53L1_wait_for_firmware_ready(
  82:Drivers/BSP/Components/vl53l1cb/modules/vl53l1_wait.c **** 	VL53L1_DEV     Dev)
  83:Drivers/BSP/Components/vl53l1cb/modules/vl53l1_wait.c **** {
  84:Drivers/BSP/Components/vl53l1cb/modules/vl53l1_wait.c **** 
  85:Drivers/BSP/Components/vl53l1cb/modules/vl53l1_wait.c **** 
  86:Drivers/BSP/Components/vl53l1cb/modules/vl53l1_wait.c **** 
ARM GAS  C:\Temp\ccWgMXa1.s 			page 3


  87:Drivers/BSP/Components/vl53l1cb/modules/vl53l1_wait.c **** 	VL53L1_Error status = VL53L1_ERROR_NONE;
  88:Drivers/BSP/Components/vl53l1cb/modules/vl53l1_wait.c **** 	VL53L1_LLDriverData_t *pdev = VL53L1DevStructGetLLDriverHandle(Dev);
  89:Drivers/BSP/Components/vl53l1cb/modules/vl53l1_wait.c **** 
  90:Drivers/BSP/Components/vl53l1cb/modules/vl53l1_wait.c **** 	uint8_t      fw_ready  = 0;
  91:Drivers/BSP/Components/vl53l1cb/modules/vl53l1_wait.c **** 	uint8_t      mode_start  = 0;
  92:Drivers/BSP/Components/vl53l1cb/modules/vl53l1_wait.c **** 
  93:Drivers/BSP/Components/vl53l1cb/modules/vl53l1_wait.c **** 	LOG_FUNCTION_START("");
  94:Drivers/BSP/Components/vl53l1cb/modules/vl53l1_wait.c **** 
  95:Drivers/BSP/Components/vl53l1cb/modules/vl53l1_wait.c **** 
  96:Drivers/BSP/Components/vl53l1cb/modules/vl53l1_wait.c **** 	mode_start =
  97:Drivers/BSP/Components/vl53l1cb/modules/vl53l1_wait.c **** 		pdev->sys_ctrl.system__mode_start &
  98:Drivers/BSP/Components/vl53l1cb/modules/vl53l1_wait.c **** 		VL53L1_DEVICEMEASUREMENTMODE_MODE_MASK;
  99:Drivers/BSP/Components/vl53l1cb/modules/vl53l1_wait.c **** 
 100:Drivers/BSP/Components/vl53l1cb/modules/vl53l1_wait.c **** 
 101:Drivers/BSP/Components/vl53l1cb/modules/vl53l1_wait.c **** 
 102:Drivers/BSP/Components/vl53l1cb/modules/vl53l1_wait.c **** 	if ((mode_start == VL53L1_DEVICEMEASUREMENTMODE_TIMED) ||
 103:Drivers/BSP/Components/vl53l1cb/modules/vl53l1_wait.c **** 		(mode_start == VL53L1_DEVICEMEASUREMENTMODE_SINGLESHOT)) {
 104:Drivers/BSP/Components/vl53l1cb/modules/vl53l1_wait.c **** 
 105:Drivers/BSP/Components/vl53l1cb/modules/vl53l1_wait.c **** 		if (pdev->wait_method == VL53L1_WAIT_METHOD_BLOCKING) {
 106:Drivers/BSP/Components/vl53l1cb/modules/vl53l1_wait.c **** 
 107:Drivers/BSP/Components/vl53l1cb/modules/vl53l1_wait.c **** 
 108:Drivers/BSP/Components/vl53l1cb/modules/vl53l1_wait.c **** 
 109:Drivers/BSP/Components/vl53l1cb/modules/vl53l1_wait.c **** 			status =
 110:Drivers/BSP/Components/vl53l1cb/modules/vl53l1_wait.c **** 			VL53L1_poll_for_firmware_ready(
 111:Drivers/BSP/Components/vl53l1cb/modules/vl53l1_wait.c **** 				Dev,
 112:Drivers/BSP/Components/vl53l1cb/modules/vl53l1_wait.c **** 				VL53L1_RANGE_COMPLETION_POLLING_TIMEOUT_MS);
 113:Drivers/BSP/Components/vl53l1cb/modules/vl53l1_wait.c **** 
 114:Drivers/BSP/Components/vl53l1cb/modules/vl53l1_wait.c **** 		} else {
 115:Drivers/BSP/Components/vl53l1cb/modules/vl53l1_wait.c **** 
 116:Drivers/BSP/Components/vl53l1cb/modules/vl53l1_wait.c **** 
 117:Drivers/BSP/Components/vl53l1cb/modules/vl53l1_wait.c **** 
 118:Drivers/BSP/Components/vl53l1cb/modules/vl53l1_wait.c **** 			fw_ready = 0;
 119:Drivers/BSP/Components/vl53l1cb/modules/vl53l1_wait.c **** 			while (fw_ready == 0x00 && status ==
 120:Drivers/BSP/Components/vl53l1cb/modules/vl53l1_wait.c **** 					VL53L1_ERROR_NONE) {
 121:Drivers/BSP/Components/vl53l1cb/modules/vl53l1_wait.c **** 				status = VL53L1_is_firmware_ready(
 122:Drivers/BSP/Components/vl53l1cb/modules/vl53l1_wait.c **** 					Dev,
 123:Drivers/BSP/Components/vl53l1cb/modules/vl53l1_wait.c **** 					&fw_ready);
 124:Drivers/BSP/Components/vl53l1cb/modules/vl53l1_wait.c **** 
 125:Drivers/BSP/Components/vl53l1cb/modules/vl53l1_wait.c **** 				if (status == VL53L1_ERROR_NONE) {
 126:Drivers/BSP/Components/vl53l1cb/modules/vl53l1_wait.c **** 					status = VL53L1_WaitMs(
 127:Drivers/BSP/Components/vl53l1cb/modules/vl53l1_wait.c **** 						Dev,
 128:Drivers/BSP/Components/vl53l1cb/modules/vl53l1_wait.c **** 						VL53L1_POLLING_DELAY_MS);
 129:Drivers/BSP/Components/vl53l1cb/modules/vl53l1_wait.c **** 				}
 130:Drivers/BSP/Components/vl53l1cb/modules/vl53l1_wait.c **** 			}
 131:Drivers/BSP/Components/vl53l1cb/modules/vl53l1_wait.c **** 		}
 132:Drivers/BSP/Components/vl53l1cb/modules/vl53l1_wait.c **** 	}
 133:Drivers/BSP/Components/vl53l1cb/modules/vl53l1_wait.c **** 
 134:Drivers/BSP/Components/vl53l1cb/modules/vl53l1_wait.c **** 	LOG_FUNCTION_END(status);
 135:Drivers/BSP/Components/vl53l1cb/modules/vl53l1_wait.c **** 
 136:Drivers/BSP/Components/vl53l1cb/modules/vl53l1_wait.c **** 	return status;
 137:Drivers/BSP/Components/vl53l1cb/modules/vl53l1_wait.c **** }
 138:Drivers/BSP/Components/vl53l1cb/modules/vl53l1_wait.c **** 
 139:Drivers/BSP/Components/vl53l1cb/modules/vl53l1_wait.c **** 
 140:Drivers/BSP/Components/vl53l1cb/modules/vl53l1_wait.c **** VL53L1_Error VL53L1_wait_for_range_completion(
 141:Drivers/BSP/Components/vl53l1cb/modules/vl53l1_wait.c **** 	VL53L1_DEV     Dev)
 142:Drivers/BSP/Components/vl53l1cb/modules/vl53l1_wait.c **** {
 143:Drivers/BSP/Components/vl53l1cb/modules/vl53l1_wait.c **** 
ARM GAS  C:\Temp\ccWgMXa1.s 			page 4


 144:Drivers/BSP/Components/vl53l1cb/modules/vl53l1_wait.c **** 
 145:Drivers/BSP/Components/vl53l1cb/modules/vl53l1_wait.c **** 
 146:Drivers/BSP/Components/vl53l1cb/modules/vl53l1_wait.c **** 	VL53L1_Error status = VL53L1_ERROR_NONE;
 147:Drivers/BSP/Components/vl53l1cb/modules/vl53l1_wait.c **** 	VL53L1_LLDriverData_t *pdev = VL53L1DevStructGetLLDriverHandle(Dev);
 148:Drivers/BSP/Components/vl53l1cb/modules/vl53l1_wait.c **** 
 149:Drivers/BSP/Components/vl53l1cb/modules/vl53l1_wait.c **** 	uint8_t      data_ready  = 0;
 150:Drivers/BSP/Components/vl53l1cb/modules/vl53l1_wait.c **** 
 151:Drivers/BSP/Components/vl53l1cb/modules/vl53l1_wait.c **** 	LOG_FUNCTION_START("");
 152:Drivers/BSP/Components/vl53l1cb/modules/vl53l1_wait.c **** 
 153:Drivers/BSP/Components/vl53l1cb/modules/vl53l1_wait.c **** 	if (pdev->wait_method == VL53L1_WAIT_METHOD_BLOCKING) {
 154:Drivers/BSP/Components/vl53l1cb/modules/vl53l1_wait.c **** 
 155:Drivers/BSP/Components/vl53l1cb/modules/vl53l1_wait.c **** 
 156:Drivers/BSP/Components/vl53l1cb/modules/vl53l1_wait.c **** 
 157:Drivers/BSP/Components/vl53l1cb/modules/vl53l1_wait.c **** 		status =
 158:Drivers/BSP/Components/vl53l1cb/modules/vl53l1_wait.c **** 			VL53L1_poll_for_range_completion(
 159:Drivers/BSP/Components/vl53l1cb/modules/vl53l1_wait.c **** 				Dev,
 160:Drivers/BSP/Components/vl53l1cb/modules/vl53l1_wait.c **** 				VL53L1_RANGE_COMPLETION_POLLING_TIMEOUT_MS);
 161:Drivers/BSP/Components/vl53l1cb/modules/vl53l1_wait.c **** 
 162:Drivers/BSP/Components/vl53l1cb/modules/vl53l1_wait.c **** 	} else {
 163:Drivers/BSP/Components/vl53l1cb/modules/vl53l1_wait.c **** 
 164:Drivers/BSP/Components/vl53l1cb/modules/vl53l1_wait.c **** 
 165:Drivers/BSP/Components/vl53l1cb/modules/vl53l1_wait.c **** 
 166:Drivers/BSP/Components/vl53l1cb/modules/vl53l1_wait.c **** 		data_ready = 0;
 167:Drivers/BSP/Components/vl53l1cb/modules/vl53l1_wait.c **** 		while (data_ready == 0x00 && status == VL53L1_ERROR_NONE) {
 168:Drivers/BSP/Components/vl53l1cb/modules/vl53l1_wait.c **** 			status = VL53L1_is_new_data_ready(
 169:Drivers/BSP/Components/vl53l1cb/modules/vl53l1_wait.c **** 				Dev,
 170:Drivers/BSP/Components/vl53l1cb/modules/vl53l1_wait.c **** 				&data_ready);
 171:Drivers/BSP/Components/vl53l1cb/modules/vl53l1_wait.c **** 
 172:Drivers/BSP/Components/vl53l1cb/modules/vl53l1_wait.c **** 			if (status == VL53L1_ERROR_NONE) {
 173:Drivers/BSP/Components/vl53l1cb/modules/vl53l1_wait.c **** 				status = VL53L1_WaitMs(
 174:Drivers/BSP/Components/vl53l1cb/modules/vl53l1_wait.c **** 					Dev,
 175:Drivers/BSP/Components/vl53l1cb/modules/vl53l1_wait.c **** 					VL53L1_POLLING_DELAY_MS);
 176:Drivers/BSP/Components/vl53l1cb/modules/vl53l1_wait.c **** 			}
 177:Drivers/BSP/Components/vl53l1cb/modules/vl53l1_wait.c **** 		}
 178:Drivers/BSP/Components/vl53l1cb/modules/vl53l1_wait.c **** 	}
 179:Drivers/BSP/Components/vl53l1cb/modules/vl53l1_wait.c **** 
 180:Drivers/BSP/Components/vl53l1cb/modules/vl53l1_wait.c **** 	LOG_FUNCTION_END(status);
 181:Drivers/BSP/Components/vl53l1cb/modules/vl53l1_wait.c **** 
 182:Drivers/BSP/Components/vl53l1cb/modules/vl53l1_wait.c **** 	return status;
 183:Drivers/BSP/Components/vl53l1cb/modules/vl53l1_wait.c **** }
 184:Drivers/BSP/Components/vl53l1cb/modules/vl53l1_wait.c **** 
 185:Drivers/BSP/Components/vl53l1cb/modules/vl53l1_wait.c **** 
 186:Drivers/BSP/Components/vl53l1cb/modules/vl53l1_wait.c **** VL53L1_Error VL53L1_wait_for_test_completion(
 187:Drivers/BSP/Components/vl53l1cb/modules/vl53l1_wait.c **** 	VL53L1_DEV     Dev)
 188:Drivers/BSP/Components/vl53l1cb/modules/vl53l1_wait.c **** {
 189:Drivers/BSP/Components/vl53l1cb/modules/vl53l1_wait.c **** 
 190:Drivers/BSP/Components/vl53l1cb/modules/vl53l1_wait.c **** 
 191:Drivers/BSP/Components/vl53l1cb/modules/vl53l1_wait.c **** 
 192:Drivers/BSP/Components/vl53l1cb/modules/vl53l1_wait.c **** 	VL53L1_Error status = VL53L1_ERROR_NONE;
 193:Drivers/BSP/Components/vl53l1cb/modules/vl53l1_wait.c **** 	VL53L1_LLDriverData_t *pdev = VL53L1DevStructGetLLDriverHandle(Dev);
 194:Drivers/BSP/Components/vl53l1cb/modules/vl53l1_wait.c **** 
 195:Drivers/BSP/Components/vl53l1cb/modules/vl53l1_wait.c **** 	uint8_t      data_ready  = 0;
 196:Drivers/BSP/Components/vl53l1cb/modules/vl53l1_wait.c **** 
 197:Drivers/BSP/Components/vl53l1cb/modules/vl53l1_wait.c **** 	LOG_FUNCTION_START("");
 198:Drivers/BSP/Components/vl53l1cb/modules/vl53l1_wait.c **** 
 199:Drivers/BSP/Components/vl53l1cb/modules/vl53l1_wait.c **** 	if (pdev->wait_method == VL53L1_WAIT_METHOD_BLOCKING) {
 200:Drivers/BSP/Components/vl53l1cb/modules/vl53l1_wait.c **** 
ARM GAS  C:\Temp\ccWgMXa1.s 			page 5


 201:Drivers/BSP/Components/vl53l1cb/modules/vl53l1_wait.c **** 
 202:Drivers/BSP/Components/vl53l1cb/modules/vl53l1_wait.c **** 
 203:Drivers/BSP/Components/vl53l1cb/modules/vl53l1_wait.c **** 		status =
 204:Drivers/BSP/Components/vl53l1cb/modules/vl53l1_wait.c **** 			VL53L1_poll_for_range_completion(
 205:Drivers/BSP/Components/vl53l1cb/modules/vl53l1_wait.c **** 				Dev,
 206:Drivers/BSP/Components/vl53l1cb/modules/vl53l1_wait.c **** 				VL53L1_TEST_COMPLETION_POLLING_TIMEOUT_MS);
 207:Drivers/BSP/Components/vl53l1cb/modules/vl53l1_wait.c **** 
 208:Drivers/BSP/Components/vl53l1cb/modules/vl53l1_wait.c **** 	} else {
 209:Drivers/BSP/Components/vl53l1cb/modules/vl53l1_wait.c **** 
 210:Drivers/BSP/Components/vl53l1cb/modules/vl53l1_wait.c **** 
 211:Drivers/BSP/Components/vl53l1cb/modules/vl53l1_wait.c **** 
 212:Drivers/BSP/Components/vl53l1cb/modules/vl53l1_wait.c **** 		data_ready = 0;
 213:Drivers/BSP/Components/vl53l1cb/modules/vl53l1_wait.c **** 		while (data_ready == 0x00 && status == VL53L1_ERROR_NONE) {
 214:Drivers/BSP/Components/vl53l1cb/modules/vl53l1_wait.c **** 			status = VL53L1_is_new_data_ready(
 215:Drivers/BSP/Components/vl53l1cb/modules/vl53l1_wait.c **** 				Dev,
 216:Drivers/BSP/Components/vl53l1cb/modules/vl53l1_wait.c **** 				&data_ready);
 217:Drivers/BSP/Components/vl53l1cb/modules/vl53l1_wait.c **** 
 218:Drivers/BSP/Components/vl53l1cb/modules/vl53l1_wait.c **** 			if (status == VL53L1_ERROR_NONE) {
 219:Drivers/BSP/Components/vl53l1cb/modules/vl53l1_wait.c **** 				status = VL53L1_WaitMs(
 220:Drivers/BSP/Components/vl53l1cb/modules/vl53l1_wait.c **** 					Dev,
 221:Drivers/BSP/Components/vl53l1cb/modules/vl53l1_wait.c **** 					VL53L1_POLLING_DELAY_MS);
 222:Drivers/BSP/Components/vl53l1cb/modules/vl53l1_wait.c **** 			}
 223:Drivers/BSP/Components/vl53l1cb/modules/vl53l1_wait.c **** 		}
 224:Drivers/BSP/Components/vl53l1cb/modules/vl53l1_wait.c **** 	}
 225:Drivers/BSP/Components/vl53l1cb/modules/vl53l1_wait.c **** 
 226:Drivers/BSP/Components/vl53l1cb/modules/vl53l1_wait.c **** 	LOG_FUNCTION_END(status);
 227:Drivers/BSP/Components/vl53l1cb/modules/vl53l1_wait.c **** 
 228:Drivers/BSP/Components/vl53l1cb/modules/vl53l1_wait.c **** 	return status;
 229:Drivers/BSP/Components/vl53l1cb/modules/vl53l1_wait.c **** }
 230:Drivers/BSP/Components/vl53l1cb/modules/vl53l1_wait.c **** 
 231:Drivers/BSP/Components/vl53l1cb/modules/vl53l1_wait.c **** 
 232:Drivers/BSP/Components/vl53l1cb/modules/vl53l1_wait.c **** 
 233:Drivers/BSP/Components/vl53l1cb/modules/vl53l1_wait.c **** 
 234:Drivers/BSP/Components/vl53l1cb/modules/vl53l1_wait.c **** VL53L1_Error VL53L1_is_boot_complete(
 235:Drivers/BSP/Components/vl53l1cb/modules/vl53l1_wait.c **** 	VL53L1_DEV     Dev,
 236:Drivers/BSP/Components/vl53l1cb/modules/vl53l1_wait.c **** 	uint8_t       *pready)
 237:Drivers/BSP/Components/vl53l1cb/modules/vl53l1_wait.c **** {
  30              		.loc 1 237 1 view -0
  31              		.cfi_startproc
  32              		@ args = 0, pretend = 0, frame = 8
  33              		@ frame_needed = 0, uses_anonymous_args = 0
  34              		.loc 1 237 1 is_stmt 0 view .LVU1
  35 0000 70B5     		push	{r4, r5, r6, lr}
  36              		.cfi_def_cfa_offset 16
  37              		.cfi_offset 4, -16
  38              		.cfi_offset 5, -12
  39              		.cfi_offset 6, -8
  40              		.cfi_offset 14, -4
  41 0002 82B0     		sub	sp, sp, #8
  42              		.cfi_def_cfa_offset 24
  43 0004 0546     		mov	r5, r0
  44 0006 0E46     		mov	r6, r1
 238:Drivers/BSP/Components/vl53l1cb/modules/vl53l1_wait.c **** 
 239:Drivers/BSP/Components/vl53l1cb/modules/vl53l1_wait.c **** 
 240:Drivers/BSP/Components/vl53l1cb/modules/vl53l1_wait.c **** 	VL53L1_Error status = VL53L1_ERROR_NONE;
  45              		.loc 1 240 2 is_stmt 1 view .LVU2
  46              	.LVL1:
ARM GAS  C:\Temp\ccWgMXa1.s 			page 6


 241:Drivers/BSP/Components/vl53l1cb/modules/vl53l1_wait.c **** 	uint8_t  firmware__system_status = 0;
  47              		.loc 1 241 2 view .LVU3
  48              		.loc 1 241 11 is_stmt 0 view .LVU4
  49 0008 0023     		movs	r3, #0
  50 000a 8DF80730 		strb	r3, [sp, #7]
 242:Drivers/BSP/Components/vl53l1cb/modules/vl53l1_wait.c **** 
 243:Drivers/BSP/Components/vl53l1cb/modules/vl53l1_wait.c **** 	LOG_FUNCTION_START("");
  51              		.loc 1 243 24 is_stmt 1 view .LVU5
 244:Drivers/BSP/Components/vl53l1cb/modules/vl53l1_wait.c **** 
 245:Drivers/BSP/Components/vl53l1cb/modules/vl53l1_wait.c **** 
 246:Drivers/BSP/Components/vl53l1cb/modules/vl53l1_wait.c **** 
 247:Drivers/BSP/Components/vl53l1cb/modules/vl53l1_wait.c **** 	status =
  52              		.loc 1 247 2 view .LVU6
 248:Drivers/BSP/Components/vl53l1cb/modules/vl53l1_wait.c **** 		VL53L1_RdByte(
  53              		.loc 1 248 3 is_stmt 0 view .LVU7
  54 000e 0DF10702 		add	r2, sp, #7
  55 0012 E521     		movs	r1, #229
  56              	.LVL2:
  57              		.loc 1 248 3 view .LVU8
  58 0014 FFF7FEFF 		bl	VL53L1_RdByte
  59              	.LVL3:
  60              		.loc 1 248 3 view .LVU9
  61 0018 0446     		mov	r4, r0
  62              	.LVL4:
 249:Drivers/BSP/Components/vl53l1cb/modules/vl53l1_wait.c **** 			Dev,
 250:Drivers/BSP/Components/vl53l1cb/modules/vl53l1_wait.c **** 			VL53L1_FIRMWARE__SYSTEM_STATUS,
 251:Drivers/BSP/Components/vl53l1cb/modules/vl53l1_wait.c **** 			&firmware__system_status);
 252:Drivers/BSP/Components/vl53l1cb/modules/vl53l1_wait.c **** 
 253:Drivers/BSP/Components/vl53l1cb/modules/vl53l1_wait.c **** 
 254:Drivers/BSP/Components/vl53l1cb/modules/vl53l1_wait.c **** 
 255:Drivers/BSP/Components/vl53l1cb/modules/vl53l1_wait.c **** 	if ((firmware__system_status & 0x01) == 0x01) {
  63              		.loc 1 255 2 is_stmt 1 view .LVU10
  64              		.loc 1 255 31 is_stmt 0 view .LVU11
  65 001a 9DF80730 		ldrb	r3, [sp, #7]	@ zero_extendqisi2
  66              		.loc 1 255 5 view .LVU12
  67 001e 13F0010F 		tst	r3, #1
  68 0022 08D0     		beq	.L2
 256:Drivers/BSP/Components/vl53l1cb/modules/vl53l1_wait.c **** 		*pready = 0x01;
  69              		.loc 1 256 3 is_stmt 1 view .LVU13
  70              		.loc 1 256 11 is_stmt 0 view .LVU14
  71 0024 0123     		movs	r3, #1
  72 0026 3370     		strb	r3, [r6]
 257:Drivers/BSP/Components/vl53l1cb/modules/vl53l1_wait.c **** 		VL53L1_init_ll_driver_state(
  73              		.loc 1 257 3 is_stmt 1 view .LVU15
  74 0028 0321     		movs	r1, #3
  75 002a 2846     		mov	r0, r5
  76 002c FFF7FEFF 		bl	VL53L1_init_ll_driver_state
  77              	.LVL5:
  78              	.L3:
 258:Drivers/BSP/Components/vl53l1cb/modules/vl53l1_wait.c **** 			Dev,
 259:Drivers/BSP/Components/vl53l1cb/modules/vl53l1_wait.c **** 			VL53L1_DEVICESTATE_SW_STANDBY);
 260:Drivers/BSP/Components/vl53l1cb/modules/vl53l1_wait.c **** 	} else {
 261:Drivers/BSP/Components/vl53l1cb/modules/vl53l1_wait.c **** 		*pready = 0x00;
 262:Drivers/BSP/Components/vl53l1cb/modules/vl53l1_wait.c **** 		VL53L1_init_ll_driver_state(
 263:Drivers/BSP/Components/vl53l1cb/modules/vl53l1_wait.c **** 			Dev,
 264:Drivers/BSP/Components/vl53l1cb/modules/vl53l1_wait.c **** 			VL53L1_DEVICESTATE_FW_COLDBOOT);
 265:Drivers/BSP/Components/vl53l1cb/modules/vl53l1_wait.c **** 	}
ARM GAS  C:\Temp\ccWgMXa1.s 			page 7


 266:Drivers/BSP/Components/vl53l1cb/modules/vl53l1_wait.c **** 
 267:Drivers/BSP/Components/vl53l1cb/modules/vl53l1_wait.c **** 	LOG_FUNCTION_END(status);
  79              		.loc 1 267 26 view .LVU16
 268:Drivers/BSP/Components/vl53l1cb/modules/vl53l1_wait.c **** 
 269:Drivers/BSP/Components/vl53l1cb/modules/vl53l1_wait.c **** 	return status;
  80              		.loc 1 269 2 view .LVU17
 270:Drivers/BSP/Components/vl53l1cb/modules/vl53l1_wait.c **** }
  81              		.loc 1 270 1 is_stmt 0 view .LVU18
  82 0030 2046     		mov	r0, r4
  83 0032 02B0     		add	sp, sp, #8
  84              		.cfi_remember_state
  85              		.cfi_def_cfa_offset 16
  86              		@ sp needed
  87 0034 70BD     		pop	{r4, r5, r6, pc}
  88              	.LVL6:
  89              	.L2:
  90              		.cfi_restore_state
 261:Drivers/BSP/Components/vl53l1cb/modules/vl53l1_wait.c **** 		VL53L1_init_ll_driver_state(
  91              		.loc 1 261 3 is_stmt 1 view .LVU19
 261:Drivers/BSP/Components/vl53l1cb/modules/vl53l1_wait.c **** 		VL53L1_init_ll_driver_state(
  92              		.loc 1 261 11 is_stmt 0 view .LVU20
  93 0036 0023     		movs	r3, #0
  94 0038 3370     		strb	r3, [r6]
 262:Drivers/BSP/Components/vl53l1cb/modules/vl53l1_wait.c **** 			Dev,
  95              		.loc 1 262 3 is_stmt 1 view .LVU21
  96 003a 0221     		movs	r1, #2
  97 003c 2846     		mov	r0, r5
  98 003e FFF7FEFF 		bl	VL53L1_init_ll_driver_state
  99              	.LVL7:
 100 0042 F5E7     		b	.L3
 101              		.cfi_endproc
 102              	.LFE7:
 104              		.section	.text.VL53L1_is_firmware_ready,"ax",%progbits
 105              		.align	1
 106              		.global	VL53L1_is_firmware_ready
 107              		.syntax unified
 108              		.thumb
 109              		.thumb_func
 111              	VL53L1_is_firmware_ready:
 112              	.LVL8:
 113              	.LFB8:
 271:Drivers/BSP/Components/vl53l1cb/modules/vl53l1_wait.c **** 
 272:Drivers/BSP/Components/vl53l1cb/modules/vl53l1_wait.c **** 
 273:Drivers/BSP/Components/vl53l1cb/modules/vl53l1_wait.c **** VL53L1_Error VL53L1_is_firmware_ready(
 274:Drivers/BSP/Components/vl53l1cb/modules/vl53l1_wait.c **** 	VL53L1_DEV     Dev,
 275:Drivers/BSP/Components/vl53l1cb/modules/vl53l1_wait.c **** 	uint8_t       *pready)
 276:Drivers/BSP/Components/vl53l1cb/modules/vl53l1_wait.c **** {
 114              		.loc 1 276 1 view -0
 115              		.cfi_startproc
 116              		@ args = 0, pretend = 0, frame = 0
 117              		@ frame_needed = 0, uses_anonymous_args = 0
 118              		.loc 1 276 1 is_stmt 0 view .LVU23
 119 0000 38B5     		push	{r3, r4, r5, lr}
 120              		.cfi_def_cfa_offset 16
 121              		.cfi_offset 3, -16
 122              		.cfi_offset 4, -12
 123              		.cfi_offset 5, -8
ARM GAS  C:\Temp\ccWgMXa1.s 			page 8


 124              		.cfi_offset 14, -4
 125 0002 0446     		mov	r4, r0
 126 0004 0D46     		mov	r5, r1
 277:Drivers/BSP/Components/vl53l1cb/modules/vl53l1_wait.c **** 
 278:Drivers/BSP/Components/vl53l1cb/modules/vl53l1_wait.c **** 
 279:Drivers/BSP/Components/vl53l1cb/modules/vl53l1_wait.c **** 	VL53L1_Error status = VL53L1_ERROR_NONE;
 127              		.loc 1 279 2 is_stmt 1 view .LVU24
 128              	.LVL9:
 280:Drivers/BSP/Components/vl53l1cb/modules/vl53l1_wait.c **** 	VL53L1_LLDriverData_t *pdev = VL53L1DevStructGetLLDriverHandle(Dev);
 129              		.loc 1 280 2 view .LVU25
 281:Drivers/BSP/Components/vl53l1cb/modules/vl53l1_wait.c **** 
 282:Drivers/BSP/Components/vl53l1cb/modules/vl53l1_wait.c **** 	LOG_FUNCTION_START("");
 130              		.loc 1 282 24 view .LVU26
 283:Drivers/BSP/Components/vl53l1cb/modules/vl53l1_wait.c **** 
 284:Drivers/BSP/Components/vl53l1cb/modules/vl53l1_wait.c **** 	status = VL53L1_is_firmware_ready_silicon(
 131              		.loc 1 284 2 view .LVU27
 132              		.loc 1 284 11 is_stmt 0 view .LVU28
 133 0006 FFF7FEFF 		bl	VL53L1_is_firmware_ready_silicon
 134              	.LVL10:
 285:Drivers/BSP/Components/vl53l1cb/modules/vl53l1_wait.c **** 				Dev,
 286:Drivers/BSP/Components/vl53l1cb/modules/vl53l1_wait.c **** 				pready);
 287:Drivers/BSP/Components/vl53l1cb/modules/vl53l1_wait.c **** 
 288:Drivers/BSP/Components/vl53l1cb/modules/vl53l1_wait.c **** 	pdev->fw_ready = *pready;
 135              		.loc 1 288 2 is_stmt 1 view .LVU29
 136              		.loc 1 288 19 is_stmt 0 view .LVU30
 137 000a 2B78     		ldrb	r3, [r5]	@ zero_extendqisi2
 138              		.loc 1 288 17 view .LVU31
 139 000c 84F83830 		strb	r3, [r4, #56]
 289:Drivers/BSP/Components/vl53l1cb/modules/vl53l1_wait.c **** 
 290:Drivers/BSP/Components/vl53l1cb/modules/vl53l1_wait.c **** 	LOG_FUNCTION_END(status);
 140              		.loc 1 290 26 is_stmt 1 view .LVU32
 291:Drivers/BSP/Components/vl53l1cb/modules/vl53l1_wait.c **** 
 292:Drivers/BSP/Components/vl53l1cb/modules/vl53l1_wait.c **** 	return status;
 141              		.loc 1 292 2 view .LVU33
 293:Drivers/BSP/Components/vl53l1cb/modules/vl53l1_wait.c **** }
 142              		.loc 1 293 1 is_stmt 0 view .LVU34
 143 0010 38BD     		pop	{r3, r4, r5, pc}
 144              		.loc 1 293 1 view .LVU35
 145              		.cfi_endproc
 146              	.LFE8:
 148              		.section	.text.VL53L1_is_new_data_ready,"ax",%progbits
 149              		.align	1
 150              		.global	VL53L1_is_new_data_ready
 151              		.syntax unified
 152              		.thumb
 153              		.thumb_func
 155              	VL53L1_is_new_data_ready:
 156              	.LVL11:
 157              	.LFB9:
 294:Drivers/BSP/Components/vl53l1cb/modules/vl53l1_wait.c **** 
 295:Drivers/BSP/Components/vl53l1cb/modules/vl53l1_wait.c **** 
 296:Drivers/BSP/Components/vl53l1cb/modules/vl53l1_wait.c **** VL53L1_Error VL53L1_is_new_data_ready(
 297:Drivers/BSP/Components/vl53l1cb/modules/vl53l1_wait.c **** 	VL53L1_DEV     Dev,
 298:Drivers/BSP/Components/vl53l1cb/modules/vl53l1_wait.c **** 	uint8_t       *pready)
 299:Drivers/BSP/Components/vl53l1cb/modules/vl53l1_wait.c **** {
 158              		.loc 1 299 1 is_stmt 1 view -0
 159              		.cfi_startproc
ARM GAS  C:\Temp\ccWgMXa1.s 			page 9


 160              		@ args = 0, pretend = 0, frame = 8
 161              		@ frame_needed = 0, uses_anonymous_args = 0
 162              		.loc 1 299 1 is_stmt 0 view .LVU37
 163 0000 30B5     		push	{r4, r5, lr}
 164              		.cfi_def_cfa_offset 12
 165              		.cfi_offset 4, -12
 166              		.cfi_offset 5, -8
 167              		.cfi_offset 14, -4
 168 0002 83B0     		sub	sp, sp, #12
 169              		.cfi_def_cfa_offset 24
 170 0004 0C46     		mov	r4, r1
 300:Drivers/BSP/Components/vl53l1cb/modules/vl53l1_wait.c **** 
 301:Drivers/BSP/Components/vl53l1cb/modules/vl53l1_wait.c **** 
 302:Drivers/BSP/Components/vl53l1cb/modules/vl53l1_wait.c **** 	VL53L1_Error status = VL53L1_ERROR_NONE;
 171              		.loc 1 302 2 is_stmt 1 view .LVU38
 172              	.LVL12:
 303:Drivers/BSP/Components/vl53l1cb/modules/vl53l1_wait.c **** 	VL53L1_LLDriverData_t *pdev = VL53L1DevStructGetLLDriverHandle(Dev);
 173              		.loc 1 303 2 view .LVU39
 304:Drivers/BSP/Components/vl53l1cb/modules/vl53l1_wait.c **** 
 305:Drivers/BSP/Components/vl53l1cb/modules/vl53l1_wait.c **** 	uint8_t  gpio__mux_active_high_hv = 0;
 174              		.loc 1 305 2 view .LVU40
 306:Drivers/BSP/Components/vl53l1cb/modules/vl53l1_wait.c **** 	uint8_t  gpio__tio_hv_status      = 0;
 175              		.loc 1 306 2 view .LVU41
 176              		.loc 1 306 11 is_stmt 0 view .LVU42
 177 0006 0023     		movs	r3, #0
 178 0008 8DF80730 		strb	r3, [sp, #7]
 307:Drivers/BSP/Components/vl53l1cb/modules/vl53l1_wait.c **** 	uint8_t  interrupt_ready          = 0;
 179              		.loc 1 307 2 is_stmt 1 view .LVU43
 180              	.LVL13:
 308:Drivers/BSP/Components/vl53l1cb/modules/vl53l1_wait.c **** 
 309:Drivers/BSP/Components/vl53l1cb/modules/vl53l1_wait.c **** 	LOG_FUNCTION_START("");
 181              		.loc 1 309 24 view .LVU44
 310:Drivers/BSP/Components/vl53l1cb/modules/vl53l1_wait.c **** 
 311:Drivers/BSP/Components/vl53l1cb/modules/vl53l1_wait.c **** 	gpio__mux_active_high_hv =
 182              		.loc 1 311 2 view .LVU45
 312:Drivers/BSP/Components/vl53l1cb/modules/vl53l1_wait.c **** 			pdev->stat_cfg.gpio_hv_mux__ctrl &
 183              		.loc 1 312 18 is_stmt 0 view .LVU46
 184 000c 90F86A33 		ldrb	r3, [r0, #874]	@ zero_extendqisi2
 185              	.LVL14:
 313:Drivers/BSP/Components/vl53l1cb/modules/vl53l1_wait.c **** 			VL53L1_DEVICEINTERRUPTLEVEL_ACTIVE_MASK;
 314:Drivers/BSP/Components/vl53l1cb/modules/vl53l1_wait.c **** 
 315:Drivers/BSP/Components/vl53l1cb/modules/vl53l1_wait.c **** 	if (gpio__mux_active_high_hv == VL53L1_DEVICEINTERRUPTLEVEL_ACTIVE_HIGH)
 186              		.loc 1 315 2 is_stmt 1 view .LVU47
 187              		.loc 1 315 5 is_stmt 0 view .LVU48
 188 0010 13F0100F 		tst	r3, #16
 189 0014 0FD1     		bne	.L11
 316:Drivers/BSP/Components/vl53l1cb/modules/vl53l1_wait.c **** 		interrupt_ready = 0x01;
 190              		.loc 1 316 19 view .LVU49
 191 0016 0125     		movs	r5, #1
 192              	.L8:
 193              	.LVL15:
 317:Drivers/BSP/Components/vl53l1cb/modules/vl53l1_wait.c **** 	else
 318:Drivers/BSP/Components/vl53l1cb/modules/vl53l1_wait.c **** 		interrupt_ready = 0x00;
 319:Drivers/BSP/Components/vl53l1cb/modules/vl53l1_wait.c **** 
 320:Drivers/BSP/Components/vl53l1cb/modules/vl53l1_wait.c **** 
 321:Drivers/BSP/Components/vl53l1cb/modules/vl53l1_wait.c **** 
 322:Drivers/BSP/Components/vl53l1cb/modules/vl53l1_wait.c **** 	status = VL53L1_RdByte(
ARM GAS  C:\Temp\ccWgMXa1.s 			page 10


 194              		.loc 1 322 2 is_stmt 1 view .LVU50
 195              		.loc 1 322 11 is_stmt 0 view .LVU51
 196 0018 0DF10702 		add	r2, sp, #7
 197 001c 3121     		movs	r1, #49
 198              	.LVL16:
 199              		.loc 1 322 11 view .LVU52
 200 001e FFF7FEFF 		bl	VL53L1_RdByte
 201              	.LVL17:
 323:Drivers/BSP/Components/vl53l1cb/modules/vl53l1_wait.c **** 					Dev,
 324:Drivers/BSP/Components/vl53l1cb/modules/vl53l1_wait.c **** 					VL53L1_GPIO__TIO_HV_STATUS,
 325:Drivers/BSP/Components/vl53l1cb/modules/vl53l1_wait.c **** 					&gpio__tio_hv_status);
 326:Drivers/BSP/Components/vl53l1cb/modules/vl53l1_wait.c **** 
 327:Drivers/BSP/Components/vl53l1cb/modules/vl53l1_wait.c **** 
 328:Drivers/BSP/Components/vl53l1cb/modules/vl53l1_wait.c **** 
 329:Drivers/BSP/Components/vl53l1cb/modules/vl53l1_wait.c **** 	if ((gpio__tio_hv_status & 0x01) == interrupt_ready)
 202              		.loc 1 329 2 is_stmt 1 view .LVU53
 203              		.loc 1 329 27 is_stmt 0 view .LVU54
 204 0022 9DF80730 		ldrb	r3, [sp, #7]	@ zero_extendqisi2
 205              		.loc 1 329 5 view .LVU55
 206 0026 03F00103 		and	r3, r3, #1
 207 002a 9D42     		cmp	r5, r3
 208 002c 05D0     		beq	.L13
 330:Drivers/BSP/Components/vl53l1cb/modules/vl53l1_wait.c **** 		*pready = 0x01;
 331:Drivers/BSP/Components/vl53l1cb/modules/vl53l1_wait.c **** 	else
 332:Drivers/BSP/Components/vl53l1cb/modules/vl53l1_wait.c **** 		*pready = 0x00;
 209              		.loc 1 332 3 is_stmt 1 view .LVU56
 210              		.loc 1 332 11 is_stmt 0 view .LVU57
 211 002e 0023     		movs	r3, #0
 212 0030 2370     		strb	r3, [r4]
 213              	.L10:
 333:Drivers/BSP/Components/vl53l1cb/modules/vl53l1_wait.c **** 
 334:Drivers/BSP/Components/vl53l1cb/modules/vl53l1_wait.c **** 	LOG_FUNCTION_END(status);
 214              		.loc 1 334 26 is_stmt 1 view .LVU58
 335:Drivers/BSP/Components/vl53l1cb/modules/vl53l1_wait.c **** 
 336:Drivers/BSP/Components/vl53l1cb/modules/vl53l1_wait.c **** 	return status;
 215              		.loc 1 336 2 view .LVU59
 337:Drivers/BSP/Components/vl53l1cb/modules/vl53l1_wait.c **** }
 216              		.loc 1 337 1 is_stmt 0 view .LVU60
 217 0032 03B0     		add	sp, sp, #12
 218              		.cfi_remember_state
 219              		.cfi_def_cfa_offset 12
 220              		@ sp needed
 221 0034 30BD     		pop	{r4, r5, pc}
 222              	.LVL18:
 223              	.L11:
 224              		.cfi_restore_state
 318:Drivers/BSP/Components/vl53l1cb/modules/vl53l1_wait.c **** 
 225              		.loc 1 318 19 view .LVU61
 226 0036 0025     		movs	r5, #0
 227 0038 EEE7     		b	.L8
 228              	.LVL19:
 229              	.L13:
 330:Drivers/BSP/Components/vl53l1cb/modules/vl53l1_wait.c **** 	else
 230              		.loc 1 330 3 is_stmt 1 view .LVU62
 330:Drivers/BSP/Components/vl53l1cb/modules/vl53l1_wait.c **** 	else
 231              		.loc 1 330 11 is_stmt 0 view .LVU63
 232 003a 0123     		movs	r3, #1
ARM GAS  C:\Temp\ccWgMXa1.s 			page 11


 233 003c 2370     		strb	r3, [r4]
 234 003e F8E7     		b	.L10
 235              		.cfi_endproc
 236              	.LFE9:
 238              		.section	.text.VL53L1_poll_for_boot_completion,"ax",%progbits
 239              		.align	1
 240              		.global	VL53L1_poll_for_boot_completion
 241              		.syntax unified
 242              		.thumb
 243              		.thumb_func
 245              	VL53L1_poll_for_boot_completion:
 246              	.LVL20:
 247              	.LFB10:
 338:Drivers/BSP/Components/vl53l1cb/modules/vl53l1_wait.c **** 
 339:Drivers/BSP/Components/vl53l1cb/modules/vl53l1_wait.c **** 
 340:Drivers/BSP/Components/vl53l1cb/modules/vl53l1_wait.c **** 
 341:Drivers/BSP/Components/vl53l1cb/modules/vl53l1_wait.c **** 
 342:Drivers/BSP/Components/vl53l1cb/modules/vl53l1_wait.c **** VL53L1_Error VL53L1_poll_for_boot_completion(
 343:Drivers/BSP/Components/vl53l1cb/modules/vl53l1_wait.c **** 	VL53L1_DEV    Dev,
 344:Drivers/BSP/Components/vl53l1cb/modules/vl53l1_wait.c **** 	uint32_t      timeout_ms)
 345:Drivers/BSP/Components/vl53l1cb/modules/vl53l1_wait.c **** {
 248              		.loc 1 345 1 is_stmt 1 view -0
 249              		.cfi_startproc
 250              		@ args = 0, pretend = 0, frame = 0
 251              		@ frame_needed = 0, uses_anonymous_args = 0
 252              		.loc 1 345 1 is_stmt 0 view .LVU65
 253 0000 70B5     		push	{r4, r5, r6, lr}
 254              		.cfi_def_cfa_offset 16
 255              		.cfi_offset 4, -16
 256              		.cfi_offset 5, -12
 257              		.cfi_offset 6, -8
 258              		.cfi_offset 14, -4
 259 0002 82B0     		sub	sp, sp, #8
 260              		.cfi_def_cfa_offset 24
 261 0004 0446     		mov	r4, r0
 262 0006 0D46     		mov	r5, r1
 346:Drivers/BSP/Components/vl53l1cb/modules/vl53l1_wait.c **** 
 347:Drivers/BSP/Components/vl53l1cb/modules/vl53l1_wait.c **** 
 348:Drivers/BSP/Components/vl53l1cb/modules/vl53l1_wait.c **** 	VL53L1_Error status       = VL53L1_ERROR_NONE;
 263              		.loc 1 348 2 is_stmt 1 view .LVU66
 264              	.LVL21:
 349:Drivers/BSP/Components/vl53l1cb/modules/vl53l1_wait.c **** 
 350:Drivers/BSP/Components/vl53l1cb/modules/vl53l1_wait.c **** 	LOG_FUNCTION_START("");
 265              		.loc 1 350 24 view .LVU67
 351:Drivers/BSP/Components/vl53l1cb/modules/vl53l1_wait.c **** 
 352:Drivers/BSP/Components/vl53l1cb/modules/vl53l1_wait.c **** 
 353:Drivers/BSP/Components/vl53l1cb/modules/vl53l1_wait.c **** 
 354:Drivers/BSP/Components/vl53l1cb/modules/vl53l1_wait.c **** 	status = VL53L1_WaitUs(
 266              		.loc 1 354 2 view .LVU68
 267              		.loc 1 354 11 is_stmt 0 view .LVU69
 268 0008 4FF49661 		mov	r1, #1200
 269              	.LVL22:
 270              		.loc 1 354 11 view .LVU70
 271 000c FFF7FEFF 		bl	VL53L1_WaitUs
 272              	.LVL23:
 355:Drivers/BSP/Components/vl53l1cb/modules/vl53l1_wait.c **** 			Dev,
 356:Drivers/BSP/Components/vl53l1cb/modules/vl53l1_wait.c **** 			VL53L1_FIRMWARE_BOOT_TIME_US);
ARM GAS  C:\Temp\ccWgMXa1.s 			page 12


 357:Drivers/BSP/Components/vl53l1cb/modules/vl53l1_wait.c **** 
 358:Drivers/BSP/Components/vl53l1cb/modules/vl53l1_wait.c **** 	if (status == VL53L1_ERROR_NONE)
 273              		.loc 1 358 2 is_stmt 1 view .LVU71
 274              		.loc 1 358 5 is_stmt 0 view .LVU72
 275 0010 0646     		mov	r6, r0
 276 0012 10B1     		cbz	r0, .L17
 277              	.LVL24:
 278              	.L15:
 359:Drivers/BSP/Components/vl53l1cb/modules/vl53l1_wait.c **** 		status =
 360:Drivers/BSP/Components/vl53l1cb/modules/vl53l1_wait.c **** 			VL53L1_WaitValueMaskEx(
 361:Drivers/BSP/Components/vl53l1cb/modules/vl53l1_wait.c **** 				Dev,
 362:Drivers/BSP/Components/vl53l1cb/modules/vl53l1_wait.c **** 				timeout_ms,
 363:Drivers/BSP/Components/vl53l1cb/modules/vl53l1_wait.c **** 				VL53L1_FIRMWARE__SYSTEM_STATUS,
 364:Drivers/BSP/Components/vl53l1cb/modules/vl53l1_wait.c **** 				0x01,
 365:Drivers/BSP/Components/vl53l1cb/modules/vl53l1_wait.c **** 				0x01,
 366:Drivers/BSP/Components/vl53l1cb/modules/vl53l1_wait.c **** 				VL53L1_POLLING_DELAY_MS);
 367:Drivers/BSP/Components/vl53l1cb/modules/vl53l1_wait.c **** 
 368:Drivers/BSP/Components/vl53l1cb/modules/vl53l1_wait.c **** 	if (status == VL53L1_ERROR_NONE)
 369:Drivers/BSP/Components/vl53l1cb/modules/vl53l1_wait.c **** 		VL53L1_init_ll_driver_state(Dev, VL53L1_DEVICESTATE_SW_STANDBY);
 370:Drivers/BSP/Components/vl53l1cb/modules/vl53l1_wait.c **** 
 371:Drivers/BSP/Components/vl53l1cb/modules/vl53l1_wait.c **** 	LOG_FUNCTION_END(status);
 279              		.loc 1 371 26 is_stmt 1 view .LVU73
 372:Drivers/BSP/Components/vl53l1cb/modules/vl53l1_wait.c **** 
 373:Drivers/BSP/Components/vl53l1cb/modules/vl53l1_wait.c **** 	return status;
 280              		.loc 1 373 2 view .LVU74
 374:Drivers/BSP/Components/vl53l1cb/modules/vl53l1_wait.c **** }
 281              		.loc 1 374 1 is_stmt 0 view .LVU75
 282 0014 3046     		mov	r0, r6
 283 0016 02B0     		add	sp, sp, #8
 284              		.cfi_remember_state
 285              		.cfi_def_cfa_offset 16
 286              		@ sp needed
 287 0018 70BD     		pop	{r4, r5, r6, pc}
 288              	.LVL25:
 289              	.L17:
 290              		.cfi_restore_state
 359:Drivers/BSP/Components/vl53l1cb/modules/vl53l1_wait.c **** 		status =
 291              		.loc 1 359 3 is_stmt 1 view .LVU76
 360:Drivers/BSP/Components/vl53l1cb/modules/vl53l1_wait.c **** 				Dev,
 292              		.loc 1 360 4 is_stmt 0 view .LVU77
 293 001a 0123     		movs	r3, #1
 294 001c 0193     		str	r3, [sp, #4]
 295 001e 0093     		str	r3, [sp]
 296 0020 E522     		movs	r2, #229
 297 0022 2946     		mov	r1, r5
 298 0024 2046     		mov	r0, r4
 299              	.LVL26:
 360:Drivers/BSP/Components/vl53l1cb/modules/vl53l1_wait.c **** 				Dev,
 300              		.loc 1 360 4 view .LVU78
 301 0026 FFF7FEFF 		bl	VL53L1_WaitValueMaskEx
 302              	.LVL27:
 368:Drivers/BSP/Components/vl53l1cb/modules/vl53l1_wait.c **** 		VL53L1_init_ll_driver_state(Dev, VL53L1_DEVICESTATE_SW_STANDBY);
 303              		.loc 1 368 2 is_stmt 1 view .LVU79
 368:Drivers/BSP/Components/vl53l1cb/modules/vl53l1_wait.c **** 		VL53L1_init_ll_driver_state(Dev, VL53L1_DEVICESTATE_SW_STANDBY);
 304              		.loc 1 368 5 is_stmt 0 view .LVU80
 305 002a 0646     		mov	r6, r0
 306 002c 0028     		cmp	r0, #0
ARM GAS  C:\Temp\ccWgMXa1.s 			page 13


 307 002e F1D1     		bne	.L15
 369:Drivers/BSP/Components/vl53l1cb/modules/vl53l1_wait.c **** 
 308              		.loc 1 369 3 is_stmt 1 view .LVU81
 309 0030 0321     		movs	r1, #3
 310 0032 2046     		mov	r0, r4
 311              	.LVL28:
 369:Drivers/BSP/Components/vl53l1cb/modules/vl53l1_wait.c **** 
 312              		.loc 1 369 3 is_stmt 0 view .LVU82
 313 0034 FFF7FEFF 		bl	VL53L1_init_ll_driver_state
 314              	.LVL29:
 315 0038 ECE7     		b	.L15
 316              		.cfi_endproc
 317              	.LFE10:
 319              		.section	.text.VL53L1_wait_for_boot_completion,"ax",%progbits
 320              		.align	1
 321              		.global	VL53L1_wait_for_boot_completion
 322              		.syntax unified
 323              		.thumb
 324              		.thumb_func
 326              	VL53L1_wait_for_boot_completion:
 327              	.LVL30:
 328              	.LFB3:
  36:Drivers/BSP/Components/vl53l1cb/modules/vl53l1_wait.c **** 
 329              		.loc 1 36 1 is_stmt 1 view -0
 330              		.cfi_startproc
 331              		@ args = 0, pretend = 0, frame = 8
 332              		@ frame_needed = 0, uses_anonymous_args = 0
  36:Drivers/BSP/Components/vl53l1cb/modules/vl53l1_wait.c **** 
 333              		.loc 1 36 1 is_stmt 0 view .LVU84
 334 0000 10B5     		push	{r4, lr}
 335              		.cfi_def_cfa_offset 8
 336              		.cfi_offset 4, -8
 337              		.cfi_offset 14, -4
 338 0002 82B0     		sub	sp, sp, #8
 339              		.cfi_def_cfa_offset 16
 340 0004 0446     		mov	r4, r0
  40:Drivers/BSP/Components/vl53l1cb/modules/vl53l1_wait.c **** 	VL53L1_LLDriverData_t *pdev = VL53L1DevStructGetLLDriverHandle(Dev);
 341              		.loc 1 40 2 is_stmt 1 view .LVU85
 342              	.LVL31:
  41:Drivers/BSP/Components/vl53l1cb/modules/vl53l1_wait.c **** 
 343              		.loc 1 41 2 view .LVU86
  43:Drivers/BSP/Components/vl53l1cb/modules/vl53l1_wait.c **** 
 344              		.loc 1 43 2 view .LVU87
  43:Drivers/BSP/Components/vl53l1cb/modules/vl53l1_wait.c **** 
 345              		.loc 1 43 15 is_stmt 0 view .LVU88
 346 0006 0023     		movs	r3, #0
 347 0008 8DF80730 		strb	r3, [sp, #7]
  45:Drivers/BSP/Components/vl53l1cb/modules/vl53l1_wait.c **** 
 348              		.loc 1 45 24 is_stmt 1 view .LVU89
  47:Drivers/BSP/Components/vl53l1cb/modules/vl53l1_wait.c **** 
 349              		.loc 1 47 2 view .LVU90
  47:Drivers/BSP/Components/vl53l1cb/modules/vl53l1_wait.c **** 
 350              		.loc 1 47 10 is_stmt 0 view .LVU91
 351 000c 037E     		ldrb	r3, [r0, #24]	@ zero_extendqisi2
  47:Drivers/BSP/Components/vl53l1cb/modules/vl53l1_wait.c **** 
 352              		.loc 1 47 5 view .LVU92
 353 000e 93B1     		cbz	r3, .L25
ARM GAS  C:\Temp\ccWgMXa1.s 			page 14


  40:Drivers/BSP/Components/vl53l1cb/modules/vl53l1_wait.c **** 	VL53L1_LLDriverData_t *pdev = VL53L1DevStructGetLLDriverHandle(Dev);
 354              		.loc 1 40 15 view .LVU93
 355 0010 0023     		movs	r3, #0
 356              	.LVL32:
 357              	.L21:
  61:Drivers/BSP/Components/vl53l1cb/modules/vl53l1_wait.c **** 			status = VL53L1_is_boot_complete(
 358              		.loc 1 61 27 is_stmt 1 view .LVU94
  61:Drivers/BSP/Components/vl53l1cb/modules/vl53l1_wait.c **** 			status = VL53L1_is_boot_complete(
 359              		.loc 1 61 19 is_stmt 0 view .LVU95
 360 0012 9DF80720 		ldrb	r2, [sp, #7]	@ zero_extendqisi2
  61:Drivers/BSP/Components/vl53l1cb/modules/vl53l1_wait.c **** 			status = VL53L1_is_boot_complete(
 361              		.loc 1 61 27 view .LVU96
 362 0016 9AB9     		cbnz	r2, .L20
  61:Drivers/BSP/Components/vl53l1cb/modules/vl53l1_wait.c **** 			status = VL53L1_is_boot_complete(
 363              		.loc 1 61 27 discriminator 1 view .LVU97
 364 0018 93B9     		cbnz	r3, .L20
  62:Drivers/BSP/Components/vl53l1cb/modules/vl53l1_wait.c **** 				Dev,
 365              		.loc 1 62 4 is_stmt 1 view .LVU98
  62:Drivers/BSP/Components/vl53l1cb/modules/vl53l1_wait.c **** 				Dev,
 366              		.loc 1 62 13 is_stmt 0 view .LVU99
 367 001a 0DF10701 		add	r1, sp, #7
 368 001e 2046     		mov	r0, r4
 369 0020 FFF7FEFF 		bl	VL53L1_is_boot_complete
 370              	.LVL33:
  66:Drivers/BSP/Components/vl53l1cb/modules/vl53l1_wait.c **** 				status = VL53L1_WaitMs(
 371              		.loc 1 66 4 is_stmt 1 view .LVU100
  66:Drivers/BSP/Components/vl53l1cb/modules/vl53l1_wait.c **** 				status = VL53L1_WaitMs(
 372              		.loc 1 66 7 is_stmt 0 view .LVU101
 373 0024 0346     		mov	r3, r0
 374 0026 0028     		cmp	r0, #0
 375 0028 F3D1     		bne	.L21
  67:Drivers/BSP/Components/vl53l1cb/modules/vl53l1_wait.c **** 					Dev,
 376              		.loc 1 67 5 is_stmt 1 view .LVU102
  67:Drivers/BSP/Components/vl53l1cb/modules/vl53l1_wait.c **** 					Dev,
 377              		.loc 1 67 14 is_stmt 0 view .LVU103
 378 002a 0121     		movs	r1, #1
 379 002c 2046     		mov	r0, r4
 380              	.LVL34:
  67:Drivers/BSP/Components/vl53l1cb/modules/vl53l1_wait.c **** 					Dev,
 381              		.loc 1 67 14 view .LVU104
 382 002e FFF7FEFF 		bl	VL53L1_WaitMs
 383              	.LVL35:
 384 0032 0346     		mov	r3, r0
 385              	.LVL36:
  67:Drivers/BSP/Components/vl53l1cb/modules/vl53l1_wait.c **** 					Dev,
 386              		.loc 1 67 14 view .LVU105
 387 0034 EDE7     		b	.L21
 388              	.LVL37:
 389              	.L25:
  51:Drivers/BSP/Components/vl53l1cb/modules/vl53l1_wait.c **** 			VL53L1_poll_for_boot_completion(
 390              		.loc 1 51 3 is_stmt 1 view .LVU106
  52:Drivers/BSP/Components/vl53l1cb/modules/vl53l1_wait.c **** 				Dev,
 391              		.loc 1 52 4 is_stmt 0 view .LVU107
 392 0036 4FF4FA71 		mov	r1, #500
 393 003a FFF7FEFF 		bl	VL53L1_poll_for_boot_completion
 394              	.LVL38:
  52:Drivers/BSP/Components/vl53l1cb/modules/vl53l1_wait.c **** 				Dev,
ARM GAS  C:\Temp\ccWgMXa1.s 			page 15


 395              		.loc 1 52 4 view .LVU108
 396 003e 0346     		mov	r3, r0
 397              	.LVL39:
 398              	.L20:
  74:Drivers/BSP/Components/vl53l1cb/modules/vl53l1_wait.c **** 
 399              		.loc 1 74 26 is_stmt 1 view .LVU109
  76:Drivers/BSP/Components/vl53l1cb/modules/vl53l1_wait.c **** 
 400              		.loc 1 76 2 view .LVU110
  78:Drivers/BSP/Components/vl53l1cb/modules/vl53l1_wait.c **** 
 401              		.loc 1 78 1 is_stmt 0 view .LVU111
 402 0040 1846     		mov	r0, r3
 403 0042 02B0     		add	sp, sp, #8
 404              		.cfi_def_cfa_offset 8
 405              		@ sp needed
 406 0044 10BD     		pop	{r4, pc}
  78:Drivers/BSP/Components/vl53l1cb/modules/vl53l1_wait.c **** 
 407              		.loc 1 78 1 view .LVU112
 408              		.cfi_endproc
 409              	.LFE3:
 411              		.section	.text.VL53L1_poll_for_firmware_ready,"ax",%progbits
 412              		.align	1
 413              		.global	VL53L1_poll_for_firmware_ready
 414              		.syntax unified
 415              		.thumb
 416              		.thumb_func
 418              	VL53L1_poll_for_firmware_ready:
 419              	.LVL40:
 420              	.LFB11:
 375:Drivers/BSP/Components/vl53l1cb/modules/vl53l1_wait.c **** 
 376:Drivers/BSP/Components/vl53l1cb/modules/vl53l1_wait.c **** 
 377:Drivers/BSP/Components/vl53l1cb/modules/vl53l1_wait.c **** VL53L1_Error VL53L1_poll_for_firmware_ready(
 378:Drivers/BSP/Components/vl53l1cb/modules/vl53l1_wait.c **** 	VL53L1_DEV    Dev,
 379:Drivers/BSP/Components/vl53l1cb/modules/vl53l1_wait.c **** 	uint32_t      timeout_ms)
 380:Drivers/BSP/Components/vl53l1cb/modules/vl53l1_wait.c **** {
 421              		.loc 1 380 1 is_stmt 1 view -0
 422              		.cfi_startproc
 423              		@ args = 0, pretend = 0, frame = 16
 424              		@ frame_needed = 0, uses_anonymous_args = 0
 425              		.loc 1 380 1 is_stmt 0 view .LVU114
 426 0000 70B5     		push	{r4, r5, r6, lr}
 427              		.cfi_def_cfa_offset 16
 428              		.cfi_offset 4, -16
 429              		.cfi_offset 5, -12
 430              		.cfi_offset 6, -8
 431              		.cfi_offset 14, -4
 432 0002 84B0     		sub	sp, sp, #16
 433              		.cfi_def_cfa_offset 32
 434 0004 0446     		mov	r4, r0
 435 0006 0E46     		mov	r6, r1
 381:Drivers/BSP/Components/vl53l1cb/modules/vl53l1_wait.c **** 
 382:Drivers/BSP/Components/vl53l1cb/modules/vl53l1_wait.c **** 
 383:Drivers/BSP/Components/vl53l1cb/modules/vl53l1_wait.c **** 	VL53L1_Error status          = VL53L1_ERROR_NONE;
 436              		.loc 1 383 2 is_stmt 1 view .LVU115
 437              	.LVL41:
 384:Drivers/BSP/Components/vl53l1cb/modules/vl53l1_wait.c **** 	VL53L1_LLDriverData_t *pdev = VL53L1DevStructGetLLDriverHandle(Dev);
 438              		.loc 1 384 2 view .LVU116
 385:Drivers/BSP/Components/vl53l1cb/modules/vl53l1_wait.c **** 
ARM GAS  C:\Temp\ccWgMXa1.s 			page 16


 386:Drivers/BSP/Components/vl53l1cb/modules/vl53l1_wait.c **** 	uint32_t     start_time_ms   = 0;
 439              		.loc 1 386 2 view .LVU117
 440              		.loc 1 386 15 is_stmt 0 view .LVU118
 441 0008 0025     		movs	r5, #0
 442 000a 0395     		str	r5, [sp, #12]
 387:Drivers/BSP/Components/vl53l1cb/modules/vl53l1_wait.c **** 	uint32_t     current_time_ms = 0;
 443              		.loc 1 387 2 is_stmt 1 view .LVU119
 444              		.loc 1 387 15 is_stmt 0 view .LVU120
 445 000c 0295     		str	r5, [sp, #8]
 388:Drivers/BSP/Components/vl53l1cb/modules/vl53l1_wait.c **** 	int32_t      poll_delay_ms   = VL53L1_POLLING_DELAY_MS;
 446              		.loc 1 388 2 is_stmt 1 view .LVU121
 447              	.LVL42:
 389:Drivers/BSP/Components/vl53l1cb/modules/vl53l1_wait.c **** 	uint8_t      fw_ready        = 0;
 448              		.loc 1 389 2 view .LVU122
 449              		.loc 1 389 15 is_stmt 0 view .LVU123
 450 000e 8DF80750 		strb	r5, [sp, #7]
 390:Drivers/BSP/Components/vl53l1cb/modules/vl53l1_wait.c **** 
 391:Drivers/BSP/Components/vl53l1cb/modules/vl53l1_wait.c **** 
 392:Drivers/BSP/Components/vl53l1cb/modules/vl53l1_wait.c **** 
 393:Drivers/BSP/Components/vl53l1cb/modules/vl53l1_wait.c **** 	VL53L1_GetTickCount(Dev, &start_time_ms);
 451              		.loc 1 393 2 is_stmt 1 view .LVU124
 452 0012 03A9     		add	r1, sp, #12
 453              	.LVL43:
 454              		.loc 1 393 2 is_stmt 0 view .LVU125
 455 0014 FFF7FEFF 		bl	VL53L1_GetTickCount
 456              	.LVL44:
 394:Drivers/BSP/Components/vl53l1cb/modules/vl53l1_wait.c **** 	pdev->fw_ready_poll_duration_ms = 0;
 457              		.loc 1 394 2 is_stmt 1 view .LVU126
 458              		.loc 1 394 34 is_stmt 0 view .LVU127
 459 0018 6563     		str	r5, [r4, #52]
 395:Drivers/BSP/Components/vl53l1cb/modules/vl53l1_wait.c **** 
 396:Drivers/BSP/Components/vl53l1cb/modules/vl53l1_wait.c **** 
 397:Drivers/BSP/Components/vl53l1cb/modules/vl53l1_wait.c **** 
 398:Drivers/BSP/Components/vl53l1cb/modules/vl53l1_wait.c **** 	while ((status == VL53L1_ERROR_NONE) &&
 460              		.loc 1 398 2 is_stmt 1 view .LVU128
 461              		.loc 1 398 8 is_stmt 0 view .LVU129
 462 001a 07E0     		b	.L27
 463              	.LVL45:
 464              	.L28:
 399:Drivers/BSP/Components/vl53l1cb/modules/vl53l1_wait.c **** 		   (pdev->fw_ready_poll_duration_ms < timeout_ms) &&
 400:Drivers/BSP/Components/vl53l1cb/modules/vl53l1_wait.c **** 		   (fw_ready == 0)) {
 401:Drivers/BSP/Components/vl53l1cb/modules/vl53l1_wait.c **** 
 402:Drivers/BSP/Components/vl53l1cb/modules/vl53l1_wait.c **** 		status = VL53L1_is_firmware_ready(
 403:Drivers/BSP/Components/vl53l1cb/modules/vl53l1_wait.c **** 			Dev,
 404:Drivers/BSP/Components/vl53l1cb/modules/vl53l1_wait.c **** 			&fw_ready);
 405:Drivers/BSP/Components/vl53l1cb/modules/vl53l1_wait.c **** 
 406:Drivers/BSP/Components/vl53l1cb/modules/vl53l1_wait.c **** 		if (status == VL53L1_ERROR_NONE &&
 407:Drivers/BSP/Components/vl53l1cb/modules/vl53l1_wait.c **** 			fw_ready == 0 &&
 408:Drivers/BSP/Components/vl53l1cb/modules/vl53l1_wait.c **** 			poll_delay_ms > 0) {
 409:Drivers/BSP/Components/vl53l1cb/modules/vl53l1_wait.c **** 			status = VL53L1_WaitMs(
 410:Drivers/BSP/Components/vl53l1cb/modules/vl53l1_wait.c **** 				Dev,
 411:Drivers/BSP/Components/vl53l1cb/modules/vl53l1_wait.c **** 				poll_delay_ms);
 412:Drivers/BSP/Components/vl53l1cb/modules/vl53l1_wait.c **** 		}
 413:Drivers/BSP/Components/vl53l1cb/modules/vl53l1_wait.c **** 
 414:Drivers/BSP/Components/vl53l1cb/modules/vl53l1_wait.c **** 
 415:Drivers/BSP/Components/vl53l1cb/modules/vl53l1_wait.c **** 		VL53L1_GetTickCount(Dev, &current_time_ms);
 465              		.loc 1 415 3 is_stmt 1 view .LVU130
ARM GAS  C:\Temp\ccWgMXa1.s 			page 17


 466 001c 02A9     		add	r1, sp, #8
 467 001e 2046     		mov	r0, r4
 468 0020 FFF7FEFF 		bl	VL53L1_GetTickCount
 469              	.LVL46:
 416:Drivers/BSP/Components/vl53l1cb/modules/vl53l1_wait.c **** 		pdev->fw_ready_poll_duration_ms =
 470              		.loc 1 416 3 view .LVU131
 417:Drivers/BSP/Components/vl53l1cb/modules/vl53l1_wait.c **** 				current_time_ms - start_time_ms;
 471              		.loc 1 417 21 is_stmt 0 view .LVU132
 472 0024 029B     		ldr	r3, [sp, #8]
 473 0026 039A     		ldr	r2, [sp, #12]
 474 0028 9B1A     		subs	r3, r3, r2
 416:Drivers/BSP/Components/vl53l1cb/modules/vl53l1_wait.c **** 		pdev->fw_ready_poll_duration_ms =
 475              		.loc 1 416 35 view .LVU133
 476 002a 6363     		str	r3, [r4, #52]
 477              	.LVL47:
 478              	.L27:
 399:Drivers/BSP/Components/vl53l1cb/modules/vl53l1_wait.c **** 		   (pdev->fw_ready_poll_duration_ms < timeout_ms) &&
 479              		.loc 1 399 53 is_stmt 1 view .LVU134
 480 002c BDB9     		cbnz	r5, .L29
 399:Drivers/BSP/Components/vl53l1cb/modules/vl53l1_wait.c **** 		   (pdev->fw_ready_poll_duration_ms < timeout_ms) &&
 481              		.loc 1 399 11 is_stmt 0 discriminator 1 view .LVU135
 482 002e 636B     		ldr	r3, [r4, #52]
 398:Drivers/BSP/Components/vl53l1cb/modules/vl53l1_wait.c **** 		   (pdev->fw_ready_poll_duration_ms < timeout_ms) &&
 483              		.loc 1 398 39 discriminator 1 view .LVU136
 484 0030 B342     		cmp	r3, r6
 485 0032 14D2     		bcs	.L29
 400:Drivers/BSP/Components/vl53l1cb/modules/vl53l1_wait.c **** 
 486              		.loc 1 400 16 view .LVU137
 487 0034 9DF80730 		ldrb	r3, [sp, #7]	@ zero_extendqisi2
 399:Drivers/BSP/Components/vl53l1cb/modules/vl53l1_wait.c **** 		   (fw_ready == 0)) {
 488              		.loc 1 399 53 view .LVU138
 489 0038 8BB9     		cbnz	r3, .L29
 402:Drivers/BSP/Components/vl53l1cb/modules/vl53l1_wait.c **** 			Dev,
 490              		.loc 1 402 3 is_stmt 1 view .LVU139
 402:Drivers/BSP/Components/vl53l1cb/modules/vl53l1_wait.c **** 			Dev,
 491              		.loc 1 402 12 is_stmt 0 view .LVU140
 492 003a 0DF10701 		add	r1, sp, #7
 493 003e 2046     		mov	r0, r4
 494 0040 FFF7FEFF 		bl	VL53L1_is_firmware_ready
 495              	.LVL48:
 406:Drivers/BSP/Components/vl53l1cb/modules/vl53l1_wait.c **** 			fw_ready == 0 &&
 496              		.loc 1 406 3 is_stmt 1 view .LVU141
 406:Drivers/BSP/Components/vl53l1cb/modules/vl53l1_wait.c **** 			fw_ready == 0 &&
 497              		.loc 1 406 6 is_stmt 0 view .LVU142
 498 0044 0546     		mov	r5, r0
 499 0046 0028     		cmp	r0, #0
 500 0048 E8D1     		bne	.L28
 407:Drivers/BSP/Components/vl53l1cb/modules/vl53l1_wait.c **** 			poll_delay_ms > 0) {
 501              		.loc 1 407 13 discriminator 1 view .LVU143
 502 004a 9DF80730 		ldrb	r3, [sp, #7]	@ zero_extendqisi2
 406:Drivers/BSP/Components/vl53l1cb/modules/vl53l1_wait.c **** 			fw_ready == 0 &&
 503              		.loc 1 406 35 discriminator 1 view .LVU144
 504 004e 002B     		cmp	r3, #0
 505 0050 E4D1     		bne	.L28
 409:Drivers/BSP/Components/vl53l1cb/modules/vl53l1_wait.c **** 				Dev,
 506              		.loc 1 409 4 is_stmt 1 view .LVU145
 409:Drivers/BSP/Components/vl53l1cb/modules/vl53l1_wait.c **** 				Dev,
ARM GAS  C:\Temp\ccWgMXa1.s 			page 18


 507              		.loc 1 409 13 is_stmt 0 view .LVU146
 508 0052 0121     		movs	r1, #1
 509 0054 2046     		mov	r0, r4
 510              	.LVL49:
 409:Drivers/BSP/Components/vl53l1cb/modules/vl53l1_wait.c **** 				Dev,
 511              		.loc 1 409 13 view .LVU147
 512 0056 FFF7FEFF 		bl	VL53L1_WaitMs
 513              	.LVL50:
 514 005a 0546     		mov	r5, r0
 515              	.LVL51:
 409:Drivers/BSP/Components/vl53l1cb/modules/vl53l1_wait.c **** 				Dev,
 516              		.loc 1 409 13 view .LVU148
 517 005c DEE7     		b	.L28
 518              	.L29:
 418:Drivers/BSP/Components/vl53l1cb/modules/vl53l1_wait.c **** 	}
 419:Drivers/BSP/Components/vl53l1cb/modules/vl53l1_wait.c **** 
 420:Drivers/BSP/Components/vl53l1cb/modules/vl53l1_wait.c **** 	if (fw_ready == 0 && status == VL53L1_ERROR_NONE)
 519              		.loc 1 420 2 is_stmt 1 view .LVU149
 520              		.loc 1 420 15 is_stmt 0 view .LVU150
 521 005e 9DF80730 		ldrb	r3, [sp, #7]	@ zero_extendqisi2
 522              		.loc 1 420 5 view .LVU151
 523 0062 03B9     		cbnz	r3, .L31
 524              		.loc 1 420 20 discriminator 1 view .LVU152
 525 0064 15B1     		cbz	r5, .L34
 526              	.LVL52:
 527              	.L31:
 421:Drivers/BSP/Components/vl53l1cb/modules/vl53l1_wait.c **** 		status = VL53L1_ERROR_TIME_OUT;
 422:Drivers/BSP/Components/vl53l1cb/modules/vl53l1_wait.c **** 
 423:Drivers/BSP/Components/vl53l1cb/modules/vl53l1_wait.c **** 	LOG_FUNCTION_END(status);
 528              		.loc 1 423 26 is_stmt 1 view .LVU153
 424:Drivers/BSP/Components/vl53l1cb/modules/vl53l1_wait.c **** 
 425:Drivers/BSP/Components/vl53l1cb/modules/vl53l1_wait.c **** 	return status;
 529              		.loc 1 425 2 view .LVU154
 426:Drivers/BSP/Components/vl53l1cb/modules/vl53l1_wait.c **** }
 530              		.loc 1 426 1 is_stmt 0 view .LVU155
 531 0066 2846     		mov	r0, r5
 532 0068 04B0     		add	sp, sp, #16
 533              		.cfi_remember_state
 534              		.cfi_def_cfa_offset 16
 535              		@ sp needed
 536 006a 70BD     		pop	{r4, r5, r6, pc}
 537              	.LVL53:
 538              	.L34:
 539              		.cfi_restore_state
 421:Drivers/BSP/Components/vl53l1cb/modules/vl53l1_wait.c **** 		status = VL53L1_ERROR_TIME_OUT;
 540              		.loc 1 421 10 view .LVU156
 541 006c 6FF00605 		mvn	r5, #6
 542              	.LVL54:
 421:Drivers/BSP/Components/vl53l1cb/modules/vl53l1_wait.c **** 		status = VL53L1_ERROR_TIME_OUT;
 543              		.loc 1 421 10 view .LVU157
 544 0070 F9E7     		b	.L31
 545              		.cfi_endproc
 546              	.LFE11:
 548              		.section	.text.VL53L1_wait_for_firmware_ready,"ax",%progbits
 549              		.align	1
 550              		.global	VL53L1_wait_for_firmware_ready
 551              		.syntax unified
ARM GAS  C:\Temp\ccWgMXa1.s 			page 19


 552              		.thumb
 553              		.thumb_func
 555              	VL53L1_wait_for_firmware_ready:
 556              	.LVL55:
 557              	.LFB4:
  83:Drivers/BSP/Components/vl53l1cb/modules/vl53l1_wait.c **** 
 558              		.loc 1 83 1 is_stmt 1 view -0
 559              		.cfi_startproc
 560              		@ args = 0, pretend = 0, frame = 8
 561              		@ frame_needed = 0, uses_anonymous_args = 0
  83:Drivers/BSP/Components/vl53l1cb/modules/vl53l1_wait.c **** 
 562              		.loc 1 83 1 is_stmt 0 view .LVU159
 563 0000 10B5     		push	{r4, lr}
 564              		.cfi_def_cfa_offset 8
 565              		.cfi_offset 4, -8
 566              		.cfi_offset 14, -4
 567 0002 82B0     		sub	sp, sp, #8
 568              		.cfi_def_cfa_offset 16
 569 0004 0446     		mov	r4, r0
  87:Drivers/BSP/Components/vl53l1cb/modules/vl53l1_wait.c **** 	VL53L1_LLDriverData_t *pdev = VL53L1DevStructGetLLDriverHandle(Dev);
 570              		.loc 1 87 2 is_stmt 1 view .LVU160
 571              	.LVL56:
  88:Drivers/BSP/Components/vl53l1cb/modules/vl53l1_wait.c **** 
 572              		.loc 1 88 2 view .LVU161
  90:Drivers/BSP/Components/vl53l1cb/modules/vl53l1_wait.c **** 	uint8_t      mode_start  = 0;
 573              		.loc 1 90 2 view .LVU162
  90:Drivers/BSP/Components/vl53l1cb/modules/vl53l1_wait.c **** 	uint8_t      mode_start  = 0;
 574              		.loc 1 90 15 is_stmt 0 view .LVU163
 575 0006 0023     		movs	r3, #0
 576 0008 8DF80730 		strb	r3, [sp, #7]
  91:Drivers/BSP/Components/vl53l1cb/modules/vl53l1_wait.c **** 
 577              		.loc 1 91 2 is_stmt 1 view .LVU164
 578              	.LVL57:
  93:Drivers/BSP/Components/vl53l1cb/modules/vl53l1_wait.c **** 
 579              		.loc 1 93 24 view .LVU165
  96:Drivers/BSP/Components/vl53l1cb/modules/vl53l1_wait.c **** 		pdev->sys_ctrl.system__mode_start &
 580              		.loc 1 96 2 view .LVU166
  97:Drivers/BSP/Components/vl53l1cb/modules/vl53l1_wait.c **** 		VL53L1_DEVICEMEASUREMENTMODE_MODE_MASK;
 581              		.loc 1 97 17 is_stmt 0 view .LVU167
 582 000c 90F8C433 		ldrb	r3, [r0, #964]	@ zero_extendqisi2
  96:Drivers/BSP/Components/vl53l1cb/modules/vl53l1_wait.c **** 		pdev->sys_ctrl.system__mode_start &
 583              		.loc 1 96 13 view .LVU168
 584 0010 03F0F003 		and	r3, r3, #240
 585              	.LVL58:
 102:Drivers/BSP/Components/vl53l1cb/modules/vl53l1_wait.c **** 		(mode_start == VL53L1_DEVICEMEASUREMENTMODE_SINGLESHOT)) {
 586              		.loc 1 102 2 is_stmt 1 view .LVU169
 102:Drivers/BSP/Components/vl53l1cb/modules/vl53l1_wait.c **** 		(mode_start == VL53L1_DEVICEMEASUREMENTMODE_SINGLESHOT)) {
 587              		.loc 1 102 5 is_stmt 0 view .LVU170
 588 0014 402B     		cmp	r3, #64
 589 0016 05D0     		beq	.L36
 102:Drivers/BSP/Components/vl53l1cb/modules/vl53l1_wait.c **** 		(mode_start == VL53L1_DEVICEMEASUREMENTMODE_SINGLESHOT)) {
 590              		.loc 1 102 57 discriminator 1 view .LVU171
 591 0018 102B     		cmp	r3, #16
 592 001a 03D0     		beq	.L36
  87:Drivers/BSP/Components/vl53l1cb/modules/vl53l1_wait.c **** 	VL53L1_LLDriverData_t *pdev = VL53L1DevStructGetLLDriverHandle(Dev);
 593              		.loc 1 87 15 view .LVU172
 594 001c 0023     		movs	r3, #0
ARM GAS  C:\Temp\ccWgMXa1.s 			page 20


 595              	.LVL59:
 596              	.L37:
 134:Drivers/BSP/Components/vl53l1cb/modules/vl53l1_wait.c **** 
 597              		.loc 1 134 26 is_stmt 1 view .LVU173
 136:Drivers/BSP/Components/vl53l1cb/modules/vl53l1_wait.c **** }
 598              		.loc 1 136 2 view .LVU174
 137:Drivers/BSP/Components/vl53l1cb/modules/vl53l1_wait.c **** 
 599              		.loc 1 137 1 is_stmt 0 view .LVU175
 600 001e 1846     		mov	r0, r3
 601 0020 02B0     		add	sp, sp, #8
 602              		.cfi_remember_state
 603              		.cfi_def_cfa_offset 8
 604              		@ sp needed
 605 0022 10BD     		pop	{r4, pc}
 606              	.LVL60:
 607              	.L36:
 608              		.cfi_restore_state
 105:Drivers/BSP/Components/vl53l1cb/modules/vl53l1_wait.c **** 
 609              		.loc 1 105 3 is_stmt 1 view .LVU176
 105:Drivers/BSP/Components/vl53l1cb/modules/vl53l1_wait.c **** 
 610              		.loc 1 105 11 is_stmt 0 view .LVU177
 611 0024 237E     		ldrb	r3, [r4, #24]	@ zero_extendqisi2
 612              	.LVL61:
 105:Drivers/BSP/Components/vl53l1cb/modules/vl53l1_wait.c **** 
 613              		.loc 1 105 6 view .LVU178
 614 0026 A3B1     		cbz	r3, .L44
  87:Drivers/BSP/Components/vl53l1cb/modules/vl53l1_wait.c **** 	VL53L1_LLDriverData_t *pdev = VL53L1DevStructGetLLDriverHandle(Dev);
 615              		.loc 1 87 15 view .LVU179
 616 0028 0023     		movs	r3, #0
 617              	.LVL62:
 618              	.L39:
 119:Drivers/BSP/Components/vl53l1cb/modules/vl53l1_wait.c **** 					VL53L1_ERROR_NONE) {
 619              		.loc 1 119 28 is_stmt 1 view .LVU180
 119:Drivers/BSP/Components/vl53l1cb/modules/vl53l1_wait.c **** 					VL53L1_ERROR_NONE) {
 620              		.loc 1 119 20 is_stmt 0 view .LVU181
 621 002a 9DF80720 		ldrb	r2, [sp, #7]	@ zero_extendqisi2
 119:Drivers/BSP/Components/vl53l1cb/modules/vl53l1_wait.c **** 					VL53L1_ERROR_NONE) {
 622              		.loc 1 119 28 view .LVU182
 623 002e 002A     		cmp	r2, #0
 624 0030 F5D1     		bne	.L37
 119:Drivers/BSP/Components/vl53l1cb/modules/vl53l1_wait.c **** 					VL53L1_ERROR_NONE) {
 625              		.loc 1 119 28 discriminator 1 view .LVU183
 626 0032 002B     		cmp	r3, #0
 627 0034 F3D1     		bne	.L37
 121:Drivers/BSP/Components/vl53l1cb/modules/vl53l1_wait.c **** 					Dev,
 628              		.loc 1 121 5 is_stmt 1 view .LVU184
 121:Drivers/BSP/Components/vl53l1cb/modules/vl53l1_wait.c **** 					Dev,
 629              		.loc 1 121 14 is_stmt 0 view .LVU185
 630 0036 0DF10701 		add	r1, sp, #7
 631 003a 2046     		mov	r0, r4
 632 003c FFF7FEFF 		bl	VL53L1_is_firmware_ready
 633              	.LVL63:
 125:Drivers/BSP/Components/vl53l1cb/modules/vl53l1_wait.c **** 					status = VL53L1_WaitMs(
 634              		.loc 1 125 5 is_stmt 1 view .LVU186
 125:Drivers/BSP/Components/vl53l1cb/modules/vl53l1_wait.c **** 					status = VL53L1_WaitMs(
 635              		.loc 1 125 8 is_stmt 0 view .LVU187
 636 0040 0346     		mov	r3, r0
ARM GAS  C:\Temp\ccWgMXa1.s 			page 21


 637 0042 0028     		cmp	r0, #0
 638 0044 F1D1     		bne	.L39
 126:Drivers/BSP/Components/vl53l1cb/modules/vl53l1_wait.c **** 						Dev,
 639              		.loc 1 126 6 is_stmt 1 view .LVU188
 126:Drivers/BSP/Components/vl53l1cb/modules/vl53l1_wait.c **** 						Dev,
 640              		.loc 1 126 15 is_stmt 0 view .LVU189
 641 0046 0121     		movs	r1, #1
 642 0048 2046     		mov	r0, r4
 643              	.LVL64:
 126:Drivers/BSP/Components/vl53l1cb/modules/vl53l1_wait.c **** 						Dev,
 644              		.loc 1 126 15 view .LVU190
 645 004a FFF7FEFF 		bl	VL53L1_WaitMs
 646              	.LVL65:
 647 004e 0346     		mov	r3, r0
 648              	.LVL66:
 126:Drivers/BSP/Components/vl53l1cb/modules/vl53l1_wait.c **** 						Dev,
 649              		.loc 1 126 15 view .LVU191
 650 0050 EBE7     		b	.L39
 651              	.LVL67:
 652              	.L44:
 109:Drivers/BSP/Components/vl53l1cb/modules/vl53l1_wait.c **** 			VL53L1_poll_for_firmware_ready(
 653              		.loc 1 109 4 is_stmt 1 view .LVU192
 110:Drivers/BSP/Components/vl53l1cb/modules/vl53l1_wait.c **** 				Dev,
 654              		.loc 1 110 4 is_stmt 0 view .LVU193
 655 0052 4FF4FA61 		mov	r1, #2000
 656 0056 2046     		mov	r0, r4
 657              	.LVL68:
 110:Drivers/BSP/Components/vl53l1cb/modules/vl53l1_wait.c **** 				Dev,
 658              		.loc 1 110 4 view .LVU194
 659 0058 FFF7FEFF 		bl	VL53L1_poll_for_firmware_ready
 660              	.LVL69:
 110:Drivers/BSP/Components/vl53l1cb/modules/vl53l1_wait.c **** 				Dev,
 661              		.loc 1 110 4 view .LVU195
 662 005c 0346     		mov	r3, r0
 663              	.LVL70:
 110:Drivers/BSP/Components/vl53l1cb/modules/vl53l1_wait.c **** 				Dev,
 664              		.loc 1 110 4 view .LVU196
 665 005e DEE7     		b	.L37
 666              		.cfi_endproc
 667              	.LFE4:
 669              		.section	.text.VL53L1_poll_for_range_completion,"ax",%progbits
 670              		.align	1
 671              		.global	VL53L1_poll_for_range_completion
 672              		.syntax unified
 673              		.thumb
 674              		.thumb_func
 676              	VL53L1_poll_for_range_completion:
 677              	.LVL71:
 678              	.LFB12:
 427:Drivers/BSP/Components/vl53l1cb/modules/vl53l1_wait.c **** 
 428:Drivers/BSP/Components/vl53l1cb/modules/vl53l1_wait.c **** 
 429:Drivers/BSP/Components/vl53l1cb/modules/vl53l1_wait.c **** VL53L1_Error VL53L1_poll_for_range_completion(
 430:Drivers/BSP/Components/vl53l1cb/modules/vl53l1_wait.c **** 	VL53L1_DEV     Dev,
 431:Drivers/BSP/Components/vl53l1cb/modules/vl53l1_wait.c **** 	uint32_t       timeout_ms)
 432:Drivers/BSP/Components/vl53l1cb/modules/vl53l1_wait.c **** {
 679              		.loc 1 432 1 is_stmt 1 view -0
 680              		.cfi_startproc
ARM GAS  C:\Temp\ccWgMXa1.s 			page 22


 681              		@ args = 0, pretend = 0, frame = 0
 682              		@ frame_needed = 0, uses_anonymous_args = 0
 683              		.loc 1 432 1 is_stmt 0 view .LVU198
 684 0000 00B5     		push	{lr}
 685              		.cfi_def_cfa_offset 4
 686              		.cfi_offset 14, -4
 687 0002 83B0     		sub	sp, sp, #12
 688              		.cfi_def_cfa_offset 16
 433:Drivers/BSP/Components/vl53l1cb/modules/vl53l1_wait.c **** 
 434:Drivers/BSP/Components/vl53l1cb/modules/vl53l1_wait.c **** 
 435:Drivers/BSP/Components/vl53l1cb/modules/vl53l1_wait.c **** 	VL53L1_Error status = VL53L1_ERROR_NONE;
 689              		.loc 1 435 2 is_stmt 1 view .LVU199
 690              	.LVL72:
 436:Drivers/BSP/Components/vl53l1cb/modules/vl53l1_wait.c **** 	VL53L1_LLDriverData_t *pdev = VL53L1DevStructGetLLDriverHandle(Dev);
 691              		.loc 1 436 2 view .LVU200
 437:Drivers/BSP/Components/vl53l1cb/modules/vl53l1_wait.c **** 
 438:Drivers/BSP/Components/vl53l1cb/modules/vl53l1_wait.c **** 	uint8_t  gpio__mux_active_high_hv = 0;
 692              		.loc 1 438 2 view .LVU201
 439:Drivers/BSP/Components/vl53l1cb/modules/vl53l1_wait.c **** 	uint8_t  interrupt_ready          = 0;
 693              		.loc 1 439 2 view .LVU202
 440:Drivers/BSP/Components/vl53l1cb/modules/vl53l1_wait.c **** 
 441:Drivers/BSP/Components/vl53l1cb/modules/vl53l1_wait.c **** 	LOG_FUNCTION_START("");
 694              		.loc 1 441 24 view .LVU203
 442:Drivers/BSP/Components/vl53l1cb/modules/vl53l1_wait.c **** 
 443:Drivers/BSP/Components/vl53l1cb/modules/vl53l1_wait.c **** 	gpio__mux_active_high_hv =
 695              		.loc 1 443 2 view .LVU204
 444:Drivers/BSP/Components/vl53l1cb/modules/vl53l1_wait.c **** 			pdev->stat_cfg.gpio_hv_mux__ctrl &
 696              		.loc 1 444 18 is_stmt 0 view .LVU205
 697 0004 90F86A33 		ldrb	r3, [r0, #874]	@ zero_extendqisi2
 698              	.LVL73:
 445:Drivers/BSP/Components/vl53l1cb/modules/vl53l1_wait.c **** 			VL53L1_DEVICEINTERRUPTLEVEL_ACTIVE_MASK;
 446:Drivers/BSP/Components/vl53l1cb/modules/vl53l1_wait.c **** 
 447:Drivers/BSP/Components/vl53l1cb/modules/vl53l1_wait.c **** 	if (gpio__mux_active_high_hv == VL53L1_DEVICEINTERRUPTLEVEL_ACTIVE_HIGH)
 699              		.loc 1 447 2 is_stmt 1 view .LVU206
 700              		.loc 1 447 5 is_stmt 0 view .LVU207
 701 0008 13F0100F 		tst	r3, #16
 702 000c 09D1     		bne	.L47
 448:Drivers/BSP/Components/vl53l1cb/modules/vl53l1_wait.c **** 		interrupt_ready = 0x01;
 703              		.loc 1 448 19 view .LVU208
 704 000e 0123     		movs	r3, #1
 705              	.LVL74:
 706              	.L46:
 449:Drivers/BSP/Components/vl53l1cb/modules/vl53l1_wait.c **** 	else
 450:Drivers/BSP/Components/vl53l1cb/modules/vl53l1_wait.c **** 		interrupt_ready = 0x00;
 451:Drivers/BSP/Components/vl53l1cb/modules/vl53l1_wait.c **** 
 452:Drivers/BSP/Components/vl53l1cb/modules/vl53l1_wait.c **** 	status =
 707              		.loc 1 452 2 is_stmt 1 view .LVU209
 453:Drivers/BSP/Components/vl53l1cb/modules/vl53l1_wait.c **** 		VL53L1_WaitValueMaskEx(
 708              		.loc 1 453 3 is_stmt 0 view .LVU210
 709 0010 0122     		movs	r2, #1
 710 0012 0192     		str	r2, [sp, #4]
 711              	.LVL75:
 712              		.loc 1 453 3 view .LVU211
 713 0014 0092     		str	r2, [sp]
 714 0016 3122     		movs	r2, #49
 715 0018 FFF7FEFF 		bl	VL53L1_WaitValueMaskEx
 716              	.LVL76:
ARM GAS  C:\Temp\ccWgMXa1.s 			page 23


 454:Drivers/BSP/Components/vl53l1cb/modules/vl53l1_wait.c **** 			Dev,
 455:Drivers/BSP/Components/vl53l1cb/modules/vl53l1_wait.c **** 			timeout_ms,
 456:Drivers/BSP/Components/vl53l1cb/modules/vl53l1_wait.c **** 			VL53L1_GPIO__TIO_HV_STATUS,
 457:Drivers/BSP/Components/vl53l1cb/modules/vl53l1_wait.c **** 			interrupt_ready,
 458:Drivers/BSP/Components/vl53l1cb/modules/vl53l1_wait.c **** 			0x01,
 459:Drivers/BSP/Components/vl53l1cb/modules/vl53l1_wait.c **** 			VL53L1_POLLING_DELAY_MS);
 460:Drivers/BSP/Components/vl53l1cb/modules/vl53l1_wait.c **** 
 461:Drivers/BSP/Components/vl53l1cb/modules/vl53l1_wait.c **** 	LOG_FUNCTION_END(status);
 717              		.loc 1 461 26 is_stmt 1 view .LVU212
 462:Drivers/BSP/Components/vl53l1cb/modules/vl53l1_wait.c **** 
 463:Drivers/BSP/Components/vl53l1cb/modules/vl53l1_wait.c **** 	return status;
 718              		.loc 1 463 2 view .LVU213
 464:Drivers/BSP/Components/vl53l1cb/modules/vl53l1_wait.c **** }
 719              		.loc 1 464 1 is_stmt 0 view .LVU214
 720 001c 03B0     		add	sp, sp, #12
 721              		.cfi_remember_state
 722              		.cfi_def_cfa_offset 4
 723              		@ sp needed
 724 001e 5DF804FB 		ldr	pc, [sp], #4
 725              	.LVL77:
 726              	.L47:
 727              		.cfi_restore_state
 450:Drivers/BSP/Components/vl53l1cb/modules/vl53l1_wait.c **** 
 728              		.loc 1 450 19 view .LVU215
 729 0022 0023     		movs	r3, #0
 730              	.LVL78:
 450:Drivers/BSP/Components/vl53l1cb/modules/vl53l1_wait.c **** 
 731              		.loc 1 450 19 view .LVU216
 732 0024 F4E7     		b	.L46
 733              		.cfi_endproc
 734              	.LFE12:
 736              		.section	.text.VL53L1_wait_for_range_completion,"ax",%progbits
 737              		.align	1
 738              		.global	VL53L1_wait_for_range_completion
 739              		.syntax unified
 740              		.thumb
 741              		.thumb_func
 743              	VL53L1_wait_for_range_completion:
 744              	.LVL79:
 745              	.LFB5:
 142:Drivers/BSP/Components/vl53l1cb/modules/vl53l1_wait.c **** 
 746              		.loc 1 142 1 is_stmt 1 view -0
 747              		.cfi_startproc
 748              		@ args = 0, pretend = 0, frame = 8
 749              		@ frame_needed = 0, uses_anonymous_args = 0
 142:Drivers/BSP/Components/vl53l1cb/modules/vl53l1_wait.c **** 
 750              		.loc 1 142 1 is_stmt 0 view .LVU218
 751 0000 10B5     		push	{r4, lr}
 752              		.cfi_def_cfa_offset 8
 753              		.cfi_offset 4, -8
 754              		.cfi_offset 14, -4
 755 0002 82B0     		sub	sp, sp, #8
 756              		.cfi_def_cfa_offset 16
 757 0004 0446     		mov	r4, r0
 146:Drivers/BSP/Components/vl53l1cb/modules/vl53l1_wait.c **** 	VL53L1_LLDriverData_t *pdev = VL53L1DevStructGetLLDriverHandle(Dev);
 758              		.loc 1 146 2 is_stmt 1 view .LVU219
 759              	.LVL80:
ARM GAS  C:\Temp\ccWgMXa1.s 			page 24


 147:Drivers/BSP/Components/vl53l1cb/modules/vl53l1_wait.c **** 
 760              		.loc 1 147 2 view .LVU220
 149:Drivers/BSP/Components/vl53l1cb/modules/vl53l1_wait.c **** 
 761              		.loc 1 149 2 view .LVU221
 149:Drivers/BSP/Components/vl53l1cb/modules/vl53l1_wait.c **** 
 762              		.loc 1 149 15 is_stmt 0 view .LVU222
 763 0006 0023     		movs	r3, #0
 764 0008 8DF80730 		strb	r3, [sp, #7]
 151:Drivers/BSP/Components/vl53l1cb/modules/vl53l1_wait.c **** 
 765              		.loc 1 151 24 is_stmt 1 view .LVU223
 153:Drivers/BSP/Components/vl53l1cb/modules/vl53l1_wait.c **** 
 766              		.loc 1 153 2 view .LVU224
 153:Drivers/BSP/Components/vl53l1cb/modules/vl53l1_wait.c **** 
 767              		.loc 1 153 10 is_stmt 0 view .LVU225
 768 000c 037E     		ldrb	r3, [r0, #24]	@ zero_extendqisi2
 153:Drivers/BSP/Components/vl53l1cb/modules/vl53l1_wait.c **** 
 769              		.loc 1 153 5 view .LVU226
 770 000e 93B1     		cbz	r3, .L56
 146:Drivers/BSP/Components/vl53l1cb/modules/vl53l1_wait.c **** 	VL53L1_LLDriverData_t *pdev = VL53L1DevStructGetLLDriverHandle(Dev);
 771              		.loc 1 146 15 view .LVU227
 772 0010 0023     		movs	r3, #0
 773              	.LVL81:
 774              	.L52:
 167:Drivers/BSP/Components/vl53l1cb/modules/vl53l1_wait.c **** 			status = VL53L1_is_new_data_ready(
 775              		.loc 1 167 29 is_stmt 1 view .LVU228
 167:Drivers/BSP/Components/vl53l1cb/modules/vl53l1_wait.c **** 			status = VL53L1_is_new_data_ready(
 776              		.loc 1 167 21 is_stmt 0 view .LVU229
 777 0012 9DF80720 		ldrb	r2, [sp, #7]	@ zero_extendqisi2
 167:Drivers/BSP/Components/vl53l1cb/modules/vl53l1_wait.c **** 			status = VL53L1_is_new_data_ready(
 778              		.loc 1 167 29 view .LVU230
 779 0016 9AB9     		cbnz	r2, .L51
 167:Drivers/BSP/Components/vl53l1cb/modules/vl53l1_wait.c **** 			status = VL53L1_is_new_data_ready(
 780              		.loc 1 167 29 discriminator 1 view .LVU231
 781 0018 93B9     		cbnz	r3, .L51
 168:Drivers/BSP/Components/vl53l1cb/modules/vl53l1_wait.c **** 				Dev,
 782              		.loc 1 168 4 is_stmt 1 view .LVU232
 168:Drivers/BSP/Components/vl53l1cb/modules/vl53l1_wait.c **** 				Dev,
 783              		.loc 1 168 13 is_stmt 0 view .LVU233
 784 001a 0DF10701 		add	r1, sp, #7
 785 001e 2046     		mov	r0, r4
 786 0020 FFF7FEFF 		bl	VL53L1_is_new_data_ready
 787              	.LVL82:
 172:Drivers/BSP/Components/vl53l1cb/modules/vl53l1_wait.c **** 				status = VL53L1_WaitMs(
 788              		.loc 1 172 4 is_stmt 1 view .LVU234
 172:Drivers/BSP/Components/vl53l1cb/modules/vl53l1_wait.c **** 				status = VL53L1_WaitMs(
 789              		.loc 1 172 7 is_stmt 0 view .LVU235
 790 0024 0346     		mov	r3, r0
 791 0026 0028     		cmp	r0, #0
 792 0028 F3D1     		bne	.L52
 173:Drivers/BSP/Components/vl53l1cb/modules/vl53l1_wait.c **** 					Dev,
 793              		.loc 1 173 5 is_stmt 1 view .LVU236
 173:Drivers/BSP/Components/vl53l1cb/modules/vl53l1_wait.c **** 					Dev,
 794              		.loc 1 173 14 is_stmt 0 view .LVU237
 795 002a 0121     		movs	r1, #1
 796 002c 2046     		mov	r0, r4
 797              	.LVL83:
 173:Drivers/BSP/Components/vl53l1cb/modules/vl53l1_wait.c **** 					Dev,
ARM GAS  C:\Temp\ccWgMXa1.s 			page 25


 798              		.loc 1 173 14 view .LVU238
 799 002e FFF7FEFF 		bl	VL53L1_WaitMs
 800              	.LVL84:
 801 0032 0346     		mov	r3, r0
 802              	.LVL85:
 173:Drivers/BSP/Components/vl53l1cb/modules/vl53l1_wait.c **** 					Dev,
 803              		.loc 1 173 14 view .LVU239
 804 0034 EDE7     		b	.L52
 805              	.LVL86:
 806              	.L56:
 157:Drivers/BSP/Components/vl53l1cb/modules/vl53l1_wait.c **** 			VL53L1_poll_for_range_completion(
 807              		.loc 1 157 3 is_stmt 1 view .LVU240
 158:Drivers/BSP/Components/vl53l1cb/modules/vl53l1_wait.c **** 				Dev,
 808              		.loc 1 158 4 is_stmt 0 view .LVU241
 809 0036 4FF4FA61 		mov	r1, #2000
 810 003a FFF7FEFF 		bl	VL53L1_poll_for_range_completion
 811              	.LVL87:
 158:Drivers/BSP/Components/vl53l1cb/modules/vl53l1_wait.c **** 				Dev,
 812              		.loc 1 158 4 view .LVU242
 813 003e 0346     		mov	r3, r0
 814              	.LVL88:
 815              	.L51:
 180:Drivers/BSP/Components/vl53l1cb/modules/vl53l1_wait.c **** 
 816              		.loc 1 180 26 is_stmt 1 view .LVU243
 182:Drivers/BSP/Components/vl53l1cb/modules/vl53l1_wait.c **** }
 817              		.loc 1 182 2 view .LVU244
 183:Drivers/BSP/Components/vl53l1cb/modules/vl53l1_wait.c **** 
 818              		.loc 1 183 1 is_stmt 0 view .LVU245
 819 0040 1846     		mov	r0, r3
 820 0042 02B0     		add	sp, sp, #8
 821              		.cfi_def_cfa_offset 8
 822              		@ sp needed
 823 0044 10BD     		pop	{r4, pc}
 183:Drivers/BSP/Components/vl53l1cb/modules/vl53l1_wait.c **** 
 824              		.loc 1 183 1 view .LVU246
 825              		.cfi_endproc
 826              	.LFE5:
 828              		.section	.text.VL53L1_wait_for_test_completion,"ax",%progbits
 829              		.align	1
 830              		.global	VL53L1_wait_for_test_completion
 831              		.syntax unified
 832              		.thumb
 833              		.thumb_func
 835              	VL53L1_wait_for_test_completion:
 836              	.LVL89:
 837              	.LFB6:
 188:Drivers/BSP/Components/vl53l1cb/modules/vl53l1_wait.c **** 
 838              		.loc 1 188 1 is_stmt 1 view -0
 839              		.cfi_startproc
 840              		@ args = 0, pretend = 0, frame = 8
 841              		@ frame_needed = 0, uses_anonymous_args = 0
 188:Drivers/BSP/Components/vl53l1cb/modules/vl53l1_wait.c **** 
 842              		.loc 1 188 1 is_stmt 0 view .LVU248
 843 0000 10B5     		push	{r4, lr}
 844              		.cfi_def_cfa_offset 8
 845              		.cfi_offset 4, -8
 846              		.cfi_offset 14, -4
ARM GAS  C:\Temp\ccWgMXa1.s 			page 26


 847 0002 82B0     		sub	sp, sp, #8
 848              		.cfi_def_cfa_offset 16
 849 0004 0446     		mov	r4, r0
 192:Drivers/BSP/Components/vl53l1cb/modules/vl53l1_wait.c **** 	VL53L1_LLDriverData_t *pdev = VL53L1DevStructGetLLDriverHandle(Dev);
 850              		.loc 1 192 2 is_stmt 1 view .LVU249
 851              	.LVL90:
 193:Drivers/BSP/Components/vl53l1cb/modules/vl53l1_wait.c **** 
 852              		.loc 1 193 2 view .LVU250
 195:Drivers/BSP/Components/vl53l1cb/modules/vl53l1_wait.c **** 
 853              		.loc 1 195 2 view .LVU251
 195:Drivers/BSP/Components/vl53l1cb/modules/vl53l1_wait.c **** 
 854              		.loc 1 195 15 is_stmt 0 view .LVU252
 855 0006 0023     		movs	r3, #0
 856 0008 8DF80730 		strb	r3, [sp, #7]
 197:Drivers/BSP/Components/vl53l1cb/modules/vl53l1_wait.c **** 
 857              		.loc 1 197 24 is_stmt 1 view .LVU253
 199:Drivers/BSP/Components/vl53l1cb/modules/vl53l1_wait.c **** 
 858              		.loc 1 199 2 view .LVU254
 199:Drivers/BSP/Components/vl53l1cb/modules/vl53l1_wait.c **** 
 859              		.loc 1 199 10 is_stmt 0 view .LVU255
 860 000c 037E     		ldrb	r3, [r0, #24]	@ zero_extendqisi2
 199:Drivers/BSP/Components/vl53l1cb/modules/vl53l1_wait.c **** 
 861              		.loc 1 199 5 view .LVU256
 862 000e 93B1     		cbz	r3, .L64
 192:Drivers/BSP/Components/vl53l1cb/modules/vl53l1_wait.c **** 	VL53L1_LLDriverData_t *pdev = VL53L1DevStructGetLLDriverHandle(Dev);
 863              		.loc 1 192 15 view .LVU257
 864 0010 0023     		movs	r3, #0
 865              	.LVL91:
 866              	.L60:
 213:Drivers/BSP/Components/vl53l1cb/modules/vl53l1_wait.c **** 			status = VL53L1_is_new_data_ready(
 867              		.loc 1 213 29 is_stmt 1 view .LVU258
 213:Drivers/BSP/Components/vl53l1cb/modules/vl53l1_wait.c **** 			status = VL53L1_is_new_data_ready(
 868              		.loc 1 213 21 is_stmt 0 view .LVU259
 869 0012 9DF80720 		ldrb	r2, [sp, #7]	@ zero_extendqisi2
 213:Drivers/BSP/Components/vl53l1cb/modules/vl53l1_wait.c **** 			status = VL53L1_is_new_data_ready(
 870              		.loc 1 213 29 view .LVU260
 871 0016 9AB9     		cbnz	r2, .L59
 213:Drivers/BSP/Components/vl53l1cb/modules/vl53l1_wait.c **** 			status = VL53L1_is_new_data_ready(
 872              		.loc 1 213 29 discriminator 1 view .LVU261
 873 0018 93B9     		cbnz	r3, .L59
 214:Drivers/BSP/Components/vl53l1cb/modules/vl53l1_wait.c **** 				Dev,
 874              		.loc 1 214 4 is_stmt 1 view .LVU262
 214:Drivers/BSP/Components/vl53l1cb/modules/vl53l1_wait.c **** 				Dev,
 875              		.loc 1 214 13 is_stmt 0 view .LVU263
 876 001a 0DF10701 		add	r1, sp, #7
 877 001e 2046     		mov	r0, r4
 878 0020 FFF7FEFF 		bl	VL53L1_is_new_data_ready
 879              	.LVL92:
 218:Drivers/BSP/Components/vl53l1cb/modules/vl53l1_wait.c **** 				status = VL53L1_WaitMs(
 880              		.loc 1 218 4 is_stmt 1 view .LVU264
 218:Drivers/BSP/Components/vl53l1cb/modules/vl53l1_wait.c **** 				status = VL53L1_WaitMs(
 881              		.loc 1 218 7 is_stmt 0 view .LVU265
 882 0024 0346     		mov	r3, r0
 883 0026 0028     		cmp	r0, #0
 884 0028 F3D1     		bne	.L60
 219:Drivers/BSP/Components/vl53l1cb/modules/vl53l1_wait.c **** 					Dev,
 885              		.loc 1 219 5 is_stmt 1 view .LVU266
ARM GAS  C:\Temp\ccWgMXa1.s 			page 27


 219:Drivers/BSP/Components/vl53l1cb/modules/vl53l1_wait.c **** 					Dev,
 886              		.loc 1 219 14 is_stmt 0 view .LVU267
 887 002a 0121     		movs	r1, #1
 888 002c 2046     		mov	r0, r4
 889              	.LVL93:
 219:Drivers/BSP/Components/vl53l1cb/modules/vl53l1_wait.c **** 					Dev,
 890              		.loc 1 219 14 view .LVU268
 891 002e FFF7FEFF 		bl	VL53L1_WaitMs
 892              	.LVL94:
 893 0032 0346     		mov	r3, r0
 894              	.LVL95:
 219:Drivers/BSP/Components/vl53l1cb/modules/vl53l1_wait.c **** 					Dev,
 895              		.loc 1 219 14 view .LVU269
 896 0034 EDE7     		b	.L60
 897              	.LVL96:
 898              	.L64:
 203:Drivers/BSP/Components/vl53l1cb/modules/vl53l1_wait.c **** 			VL53L1_poll_for_range_completion(
 899              		.loc 1 203 3 is_stmt 1 view .LVU270
 204:Drivers/BSP/Components/vl53l1cb/modules/vl53l1_wait.c **** 				Dev,
 900              		.loc 1 204 4 is_stmt 0 view .LVU271
 901 0036 4EF66021 		movw	r1, #60000
 902 003a FFF7FEFF 		bl	VL53L1_poll_for_range_completion
 903              	.LVL97:
 204:Drivers/BSP/Components/vl53l1cb/modules/vl53l1_wait.c **** 				Dev,
 904              		.loc 1 204 4 view .LVU272
 905 003e 0346     		mov	r3, r0
 906              	.LVL98:
 907              	.L59:
 226:Drivers/BSP/Components/vl53l1cb/modules/vl53l1_wait.c **** 
 908              		.loc 1 226 26 is_stmt 1 view .LVU273
 228:Drivers/BSP/Components/vl53l1cb/modules/vl53l1_wait.c **** }
 909              		.loc 1 228 2 view .LVU274
 229:Drivers/BSP/Components/vl53l1cb/modules/vl53l1_wait.c **** 
 910              		.loc 1 229 1 is_stmt 0 view .LVU275
 911 0040 1846     		mov	r0, r3
 912 0042 02B0     		add	sp, sp, #8
 913              		.cfi_def_cfa_offset 8
 914              		@ sp needed
 915 0044 10BD     		pop	{r4, pc}
 229:Drivers/BSP/Components/vl53l1cb/modules/vl53l1_wait.c **** 
 916              		.loc 1 229 1 view .LVU276
 917              		.cfi_endproc
 918              	.LFE6:
 920              		.text
 921              	.Letext0:
 922              		.file 2 "c:\\users\\jessejabezarendse\\appdata\\roaming\\code\\user\\globalstorage\\bmd.stm32-for-
 923              		.file 3 "c:\\users\\jessejabezarendse\\appdata\\roaming\\code\\user\\globalstorage\\bmd.stm32-for-
 924              		.file 4 "Drivers/BSP/Components/vl53l1cb/porting/vl53l1_types.h"
 925              		.file 5 "Drivers/BSP/Components/vl53l1cb/modules/vl53l1_error_codes.h"
 926              		.file 6 "Drivers/BSP/Components/vl53l1cb/modules/vl53l1_register_structs.h"
 927              		.file 7 "Drivers/BSP/Components/vl53l1cb/modules/vl53l1_ll_device.h"
 928              		.file 8 "Drivers/BSP/Components/vl53l1cb/modules/vl53l1_dmax_structs.h"
 929              		.file 9 "Drivers/BSP/Components/vl53l1cb/modules/vl53l1_hist_structs.h"
 930              		.file 10 "Drivers/BSP/Components/vl53l1cb/modules/vl53l1_ll_def.h"
 931              		.file 11 "Drivers/BSP/Components/vl53l1cb/modules/vl53l1_def.h"
 932              		.file 12 "Drivers/BSP/Components/vl53l1cb/vl53l1cb.h"
 933              		.file 13 "Drivers/BSP/Components/vl53l1cb/porting/vl53l1_platform_user_data.h"
ARM GAS  C:\Temp\ccWgMXa1.s 			page 28


 934              		.file 14 "Drivers/BSP/Components/vl53l1cb/porting/vl53l1_platform.h"
 935              		.file 15 "Drivers/BSP/Components/vl53l1cb/modules/vl53l1_silicon_core.h"
 936              		.file 16 "Drivers/BSP/Components/vl53l1cb/modules/vl53l1_core.h"
ARM GAS  C:\Temp\ccWgMXa1.s 			page 29

