ARM GAS  C:\Temp\ccl7wzJh.s 			page 1


   1              		.cpu cortex-m4
   2              		.arch armv7e-m
   3              		.fpu fpv4-sp-d16
   4              		.eabi_attribute 27, 1
   5              		.eabi_attribute 28, 1
   6              		.eabi_attribute 20, 1
   7              		.eabi_attribute 21, 1
   8              		.eabi_attribute 23, 3
   9              		.eabi_attribute 24, 1
  10              		.eabi_attribute 25, 1
  11              		.eabi_attribute 26, 1
  12              		.eabi_attribute 30, 1
  13              		.eabi_attribute 34, 1
  14              		.eabi_attribute 18, 4
  15              		.file	"iis2mdc.c"
  16              		.text
  17              	.Ltext0:
  18              		.cfi_sections	.debug_frame
  19              		.file 1 "Drivers/BSP/Components/iis2mdc/iis2mdc.c"
  20              		.section	.text.IIS2MDC_GetCapabilities,"ax",%progbits
  21              		.align	1
  22              		.global	IIS2MDC_GetCapabilities
  23              		.syntax unified
  24              		.thumb
  25              		.thumb_func
  27              	IIS2MDC_GetCapabilities:
  28              	.LVL0:
  29              	.LFB4:
   1:Drivers/BSP/Components/iis2mdc/iis2mdc.c **** /**
   2:Drivers/BSP/Components/iis2mdc/iis2mdc.c ****   ******************************************************************************
   3:Drivers/BSP/Components/iis2mdc/iis2mdc.c ****   * @file    iis2mdc.c
   4:Drivers/BSP/Components/iis2mdc/iis2mdc.c ****   * @author  MEMS Software Solutions Team
   5:Drivers/BSP/Components/iis2mdc/iis2mdc.c ****   * @brief   IIS2MDC driver file
   6:Drivers/BSP/Components/iis2mdc/iis2mdc.c ****   ******************************************************************************
   7:Drivers/BSP/Components/iis2mdc/iis2mdc.c ****   * @attention
   8:Drivers/BSP/Components/iis2mdc/iis2mdc.c ****   *
   9:Drivers/BSP/Components/iis2mdc/iis2mdc.c ****   * Copyright (c) 2019 STMicroelectronics.
  10:Drivers/BSP/Components/iis2mdc/iis2mdc.c ****   * All rights reserved.
  11:Drivers/BSP/Components/iis2mdc/iis2mdc.c ****   *
  12:Drivers/BSP/Components/iis2mdc/iis2mdc.c ****   * This software is licensed under terms that can be found in the LICENSE file
  13:Drivers/BSP/Components/iis2mdc/iis2mdc.c ****   * in the root directory of this software component.
  14:Drivers/BSP/Components/iis2mdc/iis2mdc.c ****   * If no LICENSE file comes with this software, it is provided AS-IS.
  15:Drivers/BSP/Components/iis2mdc/iis2mdc.c ****   *
  16:Drivers/BSP/Components/iis2mdc/iis2mdc.c ****   ******************************************************************************
  17:Drivers/BSP/Components/iis2mdc/iis2mdc.c ****   */
  18:Drivers/BSP/Components/iis2mdc/iis2mdc.c **** 
  19:Drivers/BSP/Components/iis2mdc/iis2mdc.c **** /* Includes ------------------------------------------------------------------*/
  20:Drivers/BSP/Components/iis2mdc/iis2mdc.c **** #include "iis2mdc.h"
  21:Drivers/BSP/Components/iis2mdc/iis2mdc.c **** 
  22:Drivers/BSP/Components/iis2mdc/iis2mdc.c **** /** @addtogroup BSP BSP
  23:Drivers/BSP/Components/iis2mdc/iis2mdc.c ****   * @{
  24:Drivers/BSP/Components/iis2mdc/iis2mdc.c ****   */
  25:Drivers/BSP/Components/iis2mdc/iis2mdc.c **** 
  26:Drivers/BSP/Components/iis2mdc/iis2mdc.c **** /** @addtogroup Component Component
  27:Drivers/BSP/Components/iis2mdc/iis2mdc.c ****   * @{
  28:Drivers/BSP/Components/iis2mdc/iis2mdc.c ****   */
  29:Drivers/BSP/Components/iis2mdc/iis2mdc.c **** 
ARM GAS  C:\Temp\ccl7wzJh.s 			page 2


  30:Drivers/BSP/Components/iis2mdc/iis2mdc.c **** /** @defgroup IIS2MDC IIS2MDC
  31:Drivers/BSP/Components/iis2mdc/iis2mdc.c ****   * @{
  32:Drivers/BSP/Components/iis2mdc/iis2mdc.c ****   */
  33:Drivers/BSP/Components/iis2mdc/iis2mdc.c **** 
  34:Drivers/BSP/Components/iis2mdc/iis2mdc.c **** /** @defgroup IIS2MDC_Exported_Variables IIS2MDC Exported Variables
  35:Drivers/BSP/Components/iis2mdc/iis2mdc.c ****   * @{
  36:Drivers/BSP/Components/iis2mdc/iis2mdc.c ****   */
  37:Drivers/BSP/Components/iis2mdc/iis2mdc.c **** 
  38:Drivers/BSP/Components/iis2mdc/iis2mdc.c **** IIS2MDC_CommonDrv_t IIS2MDC_COMMON_Driver =
  39:Drivers/BSP/Components/iis2mdc/iis2mdc.c **** {
  40:Drivers/BSP/Components/iis2mdc/iis2mdc.c ****   IIS2MDC_Init,
  41:Drivers/BSP/Components/iis2mdc/iis2mdc.c ****   IIS2MDC_DeInit,
  42:Drivers/BSP/Components/iis2mdc/iis2mdc.c ****   IIS2MDC_ReadID,
  43:Drivers/BSP/Components/iis2mdc/iis2mdc.c ****   IIS2MDC_GetCapabilities,
  44:Drivers/BSP/Components/iis2mdc/iis2mdc.c **** };
  45:Drivers/BSP/Components/iis2mdc/iis2mdc.c **** 
  46:Drivers/BSP/Components/iis2mdc/iis2mdc.c **** IIS2MDC_MAG_Drv_t IIS2MDC_MAG_Driver =
  47:Drivers/BSP/Components/iis2mdc/iis2mdc.c **** {
  48:Drivers/BSP/Components/iis2mdc/iis2mdc.c ****   IIS2MDC_MAG_Enable,
  49:Drivers/BSP/Components/iis2mdc/iis2mdc.c ****   IIS2MDC_MAG_Disable,
  50:Drivers/BSP/Components/iis2mdc/iis2mdc.c ****   IIS2MDC_MAG_GetSensitivity,
  51:Drivers/BSP/Components/iis2mdc/iis2mdc.c ****   IIS2MDC_MAG_GetOutputDataRate,
  52:Drivers/BSP/Components/iis2mdc/iis2mdc.c ****   IIS2MDC_MAG_SetOutputDataRate,
  53:Drivers/BSP/Components/iis2mdc/iis2mdc.c ****   IIS2MDC_MAG_GetFullScale,
  54:Drivers/BSP/Components/iis2mdc/iis2mdc.c ****   IIS2MDC_MAG_SetFullScale,
  55:Drivers/BSP/Components/iis2mdc/iis2mdc.c ****   IIS2MDC_MAG_GetAxes,
  56:Drivers/BSP/Components/iis2mdc/iis2mdc.c ****   IIS2MDC_MAG_GetAxesRaw,
  57:Drivers/BSP/Components/iis2mdc/iis2mdc.c **** };
  58:Drivers/BSP/Components/iis2mdc/iis2mdc.c **** 
  59:Drivers/BSP/Components/iis2mdc/iis2mdc.c **** /**
  60:Drivers/BSP/Components/iis2mdc/iis2mdc.c ****   * @}
  61:Drivers/BSP/Components/iis2mdc/iis2mdc.c ****   */
  62:Drivers/BSP/Components/iis2mdc/iis2mdc.c **** 
  63:Drivers/BSP/Components/iis2mdc/iis2mdc.c **** /** @defgroup IIS2MDC_Private_Function_Prototypes IIS2MDC Private Function Prototypes
  64:Drivers/BSP/Components/iis2mdc/iis2mdc.c ****   * @{
  65:Drivers/BSP/Components/iis2mdc/iis2mdc.c ****   */
  66:Drivers/BSP/Components/iis2mdc/iis2mdc.c **** 
  67:Drivers/BSP/Components/iis2mdc/iis2mdc.c **** static int32_t ReadMagRegWrap(void *Handle, uint8_t Reg, uint8_t *pData, uint16_t Length);
  68:Drivers/BSP/Components/iis2mdc/iis2mdc.c **** static int32_t WriteMagRegWrap(void *Handle, uint8_t Reg, uint8_t *pData, uint16_t Length);
  69:Drivers/BSP/Components/iis2mdc/iis2mdc.c **** 
  70:Drivers/BSP/Components/iis2mdc/iis2mdc.c **** /**
  71:Drivers/BSP/Components/iis2mdc/iis2mdc.c ****   * @}
  72:Drivers/BSP/Components/iis2mdc/iis2mdc.c ****   */
  73:Drivers/BSP/Components/iis2mdc/iis2mdc.c **** 
  74:Drivers/BSP/Components/iis2mdc/iis2mdc.c **** /** @defgroup IIS2MDC_Exported_Functions IIS2MDC Exported Functions
  75:Drivers/BSP/Components/iis2mdc/iis2mdc.c ****   * @{
  76:Drivers/BSP/Components/iis2mdc/iis2mdc.c ****   */
  77:Drivers/BSP/Components/iis2mdc/iis2mdc.c **** 
  78:Drivers/BSP/Components/iis2mdc/iis2mdc.c **** /**
  79:Drivers/BSP/Components/iis2mdc/iis2mdc.c ****   * @brief  Register Component Bus IO operations
  80:Drivers/BSP/Components/iis2mdc/iis2mdc.c ****   * @param  pObj the device pObj
  81:Drivers/BSP/Components/iis2mdc/iis2mdc.c ****   * @retval 0 in case of success, an error code otherwise
  82:Drivers/BSP/Components/iis2mdc/iis2mdc.c ****   */
  83:Drivers/BSP/Components/iis2mdc/iis2mdc.c **** int32_t IIS2MDC_RegisterBusIO(IIS2MDC_Object_t *pObj, IIS2MDC_IO_t *pIO)
  84:Drivers/BSP/Components/iis2mdc/iis2mdc.c **** {
  85:Drivers/BSP/Components/iis2mdc/iis2mdc.c ****   int32_t ret = IIS2MDC_OK;
  86:Drivers/BSP/Components/iis2mdc/iis2mdc.c **** 
ARM GAS  C:\Temp\ccl7wzJh.s 			page 3


  87:Drivers/BSP/Components/iis2mdc/iis2mdc.c ****   if (pObj == NULL)
  88:Drivers/BSP/Components/iis2mdc/iis2mdc.c ****   {
  89:Drivers/BSP/Components/iis2mdc/iis2mdc.c ****     ret = IIS2MDC_ERROR;
  90:Drivers/BSP/Components/iis2mdc/iis2mdc.c ****   }
  91:Drivers/BSP/Components/iis2mdc/iis2mdc.c ****   else
  92:Drivers/BSP/Components/iis2mdc/iis2mdc.c ****   {
  93:Drivers/BSP/Components/iis2mdc/iis2mdc.c ****     pObj->IO.Init      = pIO->Init;
  94:Drivers/BSP/Components/iis2mdc/iis2mdc.c ****     pObj->IO.DeInit    = pIO->DeInit;
  95:Drivers/BSP/Components/iis2mdc/iis2mdc.c ****     pObj->IO.BusType   = pIO->BusType;
  96:Drivers/BSP/Components/iis2mdc/iis2mdc.c ****     pObj->IO.Address   = pIO->Address;
  97:Drivers/BSP/Components/iis2mdc/iis2mdc.c ****     pObj->IO.WriteReg  = pIO->WriteReg;
  98:Drivers/BSP/Components/iis2mdc/iis2mdc.c ****     pObj->IO.ReadReg   = pIO->ReadReg;
  99:Drivers/BSP/Components/iis2mdc/iis2mdc.c ****     pObj->IO.GetTick   = pIO->GetTick;
 100:Drivers/BSP/Components/iis2mdc/iis2mdc.c **** 
 101:Drivers/BSP/Components/iis2mdc/iis2mdc.c ****     pObj->Ctx.read_reg  = ReadMagRegWrap;
 102:Drivers/BSP/Components/iis2mdc/iis2mdc.c ****     pObj->Ctx.write_reg = WriteMagRegWrap;
 103:Drivers/BSP/Components/iis2mdc/iis2mdc.c ****     pObj->Ctx.mdelay    = pIO->Delay;
 104:Drivers/BSP/Components/iis2mdc/iis2mdc.c ****     pObj->Ctx.handle    = pObj;
 105:Drivers/BSP/Components/iis2mdc/iis2mdc.c **** 
 106:Drivers/BSP/Components/iis2mdc/iis2mdc.c ****     if (pObj->IO.Init == NULL)
 107:Drivers/BSP/Components/iis2mdc/iis2mdc.c ****     {
 108:Drivers/BSP/Components/iis2mdc/iis2mdc.c ****       ret = IIS2MDC_ERROR;
 109:Drivers/BSP/Components/iis2mdc/iis2mdc.c ****     }
 110:Drivers/BSP/Components/iis2mdc/iis2mdc.c ****     else if (pObj->IO.Init() != IIS2MDC_OK)
 111:Drivers/BSP/Components/iis2mdc/iis2mdc.c ****     {
 112:Drivers/BSP/Components/iis2mdc/iis2mdc.c ****       ret = IIS2MDC_ERROR;
 113:Drivers/BSP/Components/iis2mdc/iis2mdc.c ****     }
 114:Drivers/BSP/Components/iis2mdc/iis2mdc.c ****     else
 115:Drivers/BSP/Components/iis2mdc/iis2mdc.c ****     {
 116:Drivers/BSP/Components/iis2mdc/iis2mdc.c ****       if (pObj->IO.BusType != IIS2MDC_I2C_BUS) /* If the bus type is not I2C */
 117:Drivers/BSP/Components/iis2mdc/iis2mdc.c ****       {
 118:Drivers/BSP/Components/iis2mdc/iis2mdc.c ****         /* Disable I2C interface support only the first time */
 119:Drivers/BSP/Components/iis2mdc/iis2mdc.c ****         if (pObj->is_initialized == 0U)
 120:Drivers/BSP/Components/iis2mdc/iis2mdc.c ****         {
 121:Drivers/BSP/Components/iis2mdc/iis2mdc.c ****           /* Disable I2C interface on the component */
 122:Drivers/BSP/Components/iis2mdc/iis2mdc.c ****           if (iis2mdc_i2c_interface_set(&(pObj->Ctx), IIS2MDC_I2C_DISABLE) != IIS2MDC_OK)
 123:Drivers/BSP/Components/iis2mdc/iis2mdc.c ****           {
 124:Drivers/BSP/Components/iis2mdc/iis2mdc.c ****             ret = IIS2MDC_ERROR;
 125:Drivers/BSP/Components/iis2mdc/iis2mdc.c ****           }
 126:Drivers/BSP/Components/iis2mdc/iis2mdc.c ****         }
 127:Drivers/BSP/Components/iis2mdc/iis2mdc.c ****       }
 128:Drivers/BSP/Components/iis2mdc/iis2mdc.c ****     }
 129:Drivers/BSP/Components/iis2mdc/iis2mdc.c ****   }
 130:Drivers/BSP/Components/iis2mdc/iis2mdc.c **** 
 131:Drivers/BSP/Components/iis2mdc/iis2mdc.c ****   return ret;
 132:Drivers/BSP/Components/iis2mdc/iis2mdc.c **** }
 133:Drivers/BSP/Components/iis2mdc/iis2mdc.c **** 
 134:Drivers/BSP/Components/iis2mdc/iis2mdc.c **** /**
 135:Drivers/BSP/Components/iis2mdc/iis2mdc.c ****   * @brief  Initialize the IIS2MDC sensor
 136:Drivers/BSP/Components/iis2mdc/iis2mdc.c ****   * @param  pObj the device pObj
 137:Drivers/BSP/Components/iis2mdc/iis2mdc.c ****   * @retval 0 in case of success, an error code otherwise
 138:Drivers/BSP/Components/iis2mdc/iis2mdc.c ****   */
 139:Drivers/BSP/Components/iis2mdc/iis2mdc.c **** int32_t IIS2MDC_Init(IIS2MDC_Object_t *pObj)
 140:Drivers/BSP/Components/iis2mdc/iis2mdc.c **** {
 141:Drivers/BSP/Components/iis2mdc/iis2mdc.c ****   /* Enable BDU */
 142:Drivers/BSP/Components/iis2mdc/iis2mdc.c ****   if (iis2mdc_block_data_update_set(&(pObj->Ctx), PROPERTY_ENABLE) != IIS2MDC_OK)
 143:Drivers/BSP/Components/iis2mdc/iis2mdc.c ****   {
ARM GAS  C:\Temp\ccl7wzJh.s 			page 4


 144:Drivers/BSP/Components/iis2mdc/iis2mdc.c ****     return IIS2MDC_ERROR;
 145:Drivers/BSP/Components/iis2mdc/iis2mdc.c ****   }
 146:Drivers/BSP/Components/iis2mdc/iis2mdc.c **** 
 147:Drivers/BSP/Components/iis2mdc/iis2mdc.c ****   /* Operating mode selection - power down */
 148:Drivers/BSP/Components/iis2mdc/iis2mdc.c ****   if (iis2mdc_operating_mode_set(&(pObj->Ctx), IIS2MDC_POWER_DOWN) != IIS2MDC_OK)
 149:Drivers/BSP/Components/iis2mdc/iis2mdc.c ****   {
 150:Drivers/BSP/Components/iis2mdc/iis2mdc.c ****     return IIS2MDC_ERROR;
 151:Drivers/BSP/Components/iis2mdc/iis2mdc.c ****   }
 152:Drivers/BSP/Components/iis2mdc/iis2mdc.c **** 
 153:Drivers/BSP/Components/iis2mdc/iis2mdc.c ****   /* Output data rate selection */
 154:Drivers/BSP/Components/iis2mdc/iis2mdc.c ****   if (iis2mdc_data_rate_set(&(pObj->Ctx), IIS2MDC_ODR_100Hz) != IIS2MDC_OK)
 155:Drivers/BSP/Components/iis2mdc/iis2mdc.c ****   {
 156:Drivers/BSP/Components/iis2mdc/iis2mdc.c ****     return IIS2MDC_ERROR;
 157:Drivers/BSP/Components/iis2mdc/iis2mdc.c ****   }
 158:Drivers/BSP/Components/iis2mdc/iis2mdc.c **** 
 159:Drivers/BSP/Components/iis2mdc/iis2mdc.c ****   /* Self Test disabled. */
 160:Drivers/BSP/Components/iis2mdc/iis2mdc.c ****   if (iis2mdc_self_test_set(&(pObj->Ctx), PROPERTY_DISABLE) != IIS2MDC_OK)
 161:Drivers/BSP/Components/iis2mdc/iis2mdc.c ****   {
 162:Drivers/BSP/Components/iis2mdc/iis2mdc.c ****     return IIS2MDC_ERROR;
 163:Drivers/BSP/Components/iis2mdc/iis2mdc.c ****   }
 164:Drivers/BSP/Components/iis2mdc/iis2mdc.c **** 
 165:Drivers/BSP/Components/iis2mdc/iis2mdc.c ****   pObj->is_initialized = 1;
 166:Drivers/BSP/Components/iis2mdc/iis2mdc.c **** 
 167:Drivers/BSP/Components/iis2mdc/iis2mdc.c ****   return IIS2MDC_OK;
 168:Drivers/BSP/Components/iis2mdc/iis2mdc.c **** }
 169:Drivers/BSP/Components/iis2mdc/iis2mdc.c **** 
 170:Drivers/BSP/Components/iis2mdc/iis2mdc.c **** /**
 171:Drivers/BSP/Components/iis2mdc/iis2mdc.c ****   * @brief  Deinitialize the IIS2MDC magnetometer sensor
 172:Drivers/BSP/Components/iis2mdc/iis2mdc.c ****   * @param  pObj the device pObj
 173:Drivers/BSP/Components/iis2mdc/iis2mdc.c ****   * @retval 0 in case of success, an error code otherwise
 174:Drivers/BSP/Components/iis2mdc/iis2mdc.c ****   */
 175:Drivers/BSP/Components/iis2mdc/iis2mdc.c **** int32_t IIS2MDC_DeInit(IIS2MDC_Object_t *pObj)
 176:Drivers/BSP/Components/iis2mdc/iis2mdc.c **** {
 177:Drivers/BSP/Components/iis2mdc/iis2mdc.c ****   /* Disable the component */
 178:Drivers/BSP/Components/iis2mdc/iis2mdc.c ****   if (IIS2MDC_MAG_Disable(pObj) != IIS2MDC_OK)
 179:Drivers/BSP/Components/iis2mdc/iis2mdc.c ****   {
 180:Drivers/BSP/Components/iis2mdc/iis2mdc.c ****     return IIS2MDC_ERROR;
 181:Drivers/BSP/Components/iis2mdc/iis2mdc.c ****   }
 182:Drivers/BSP/Components/iis2mdc/iis2mdc.c **** 
 183:Drivers/BSP/Components/iis2mdc/iis2mdc.c ****   pObj->is_initialized = 0;
 184:Drivers/BSP/Components/iis2mdc/iis2mdc.c **** 
 185:Drivers/BSP/Components/iis2mdc/iis2mdc.c ****   return IIS2MDC_OK;
 186:Drivers/BSP/Components/iis2mdc/iis2mdc.c **** }
 187:Drivers/BSP/Components/iis2mdc/iis2mdc.c **** 
 188:Drivers/BSP/Components/iis2mdc/iis2mdc.c **** /**
 189:Drivers/BSP/Components/iis2mdc/iis2mdc.c ****   * @brief  Read component ID
 190:Drivers/BSP/Components/iis2mdc/iis2mdc.c ****   * @param  pObj the device pObj
 191:Drivers/BSP/Components/iis2mdc/iis2mdc.c ****   * @param  Id the WHO_AM_I value
 192:Drivers/BSP/Components/iis2mdc/iis2mdc.c ****   * @retval 0 in case of success, an error code otherwise
 193:Drivers/BSP/Components/iis2mdc/iis2mdc.c ****   */
 194:Drivers/BSP/Components/iis2mdc/iis2mdc.c **** int32_t IIS2MDC_ReadID(IIS2MDC_Object_t *pObj, uint8_t *Id)
 195:Drivers/BSP/Components/iis2mdc/iis2mdc.c **** {
 196:Drivers/BSP/Components/iis2mdc/iis2mdc.c ****   if (iis2mdc_device_id_get(&(pObj->Ctx), Id) != IIS2MDC_OK)
 197:Drivers/BSP/Components/iis2mdc/iis2mdc.c ****   {
 198:Drivers/BSP/Components/iis2mdc/iis2mdc.c ****     return IIS2MDC_ERROR;
 199:Drivers/BSP/Components/iis2mdc/iis2mdc.c ****   }
 200:Drivers/BSP/Components/iis2mdc/iis2mdc.c **** 
ARM GAS  C:\Temp\ccl7wzJh.s 			page 5


 201:Drivers/BSP/Components/iis2mdc/iis2mdc.c ****   return IIS2MDC_OK;
 202:Drivers/BSP/Components/iis2mdc/iis2mdc.c **** }
 203:Drivers/BSP/Components/iis2mdc/iis2mdc.c **** 
 204:Drivers/BSP/Components/iis2mdc/iis2mdc.c **** /**
 205:Drivers/BSP/Components/iis2mdc/iis2mdc.c ****   * @brief  Get IIS2MDC magnetometer sensor capabilities
 206:Drivers/BSP/Components/iis2mdc/iis2mdc.c ****   * @param  pObj Component object pointer
 207:Drivers/BSP/Components/iis2mdc/iis2mdc.c ****   * @param  Capabilities pointer to IIS2MDC magnetometer sensor capabilities
 208:Drivers/BSP/Components/iis2mdc/iis2mdc.c ****   * @retval Component status
 209:Drivers/BSP/Components/iis2mdc/iis2mdc.c ****   */
 210:Drivers/BSP/Components/iis2mdc/iis2mdc.c **** int32_t IIS2MDC_GetCapabilities(IIS2MDC_Object_t *pObj, IIS2MDC_Capabilities_t *Capabilities)
 211:Drivers/BSP/Components/iis2mdc/iis2mdc.c **** {
  30              		.loc 1 211 1 view -0
  31              		.cfi_startproc
  32              		@ args = 0, pretend = 0, frame = 0
  33              		@ frame_needed = 0, uses_anonymous_args = 0
  34              		@ link register save eliminated.
 212:Drivers/BSP/Components/iis2mdc/iis2mdc.c ****   /* Prevent unused argument(s) compilation warning */
 213:Drivers/BSP/Components/iis2mdc/iis2mdc.c ****   (void)(pObj);
  35              		.loc 1 213 3 view .LVU1
 214:Drivers/BSP/Components/iis2mdc/iis2mdc.c **** 
 215:Drivers/BSP/Components/iis2mdc/iis2mdc.c ****   Capabilities->Acc          = 0;
  36              		.loc 1 215 3 view .LVU2
  37              		.loc 1 215 30 is_stmt 0 view .LVU3
  38 0000 0020     		movs	r0, #0
  39              	.LVL1:
  40              		.loc 1 215 30 view .LVU4
  41 0002 0870     		strb	r0, [r1]
 216:Drivers/BSP/Components/iis2mdc/iis2mdc.c ****   Capabilities->Gyro         = 0;
  42              		.loc 1 216 3 is_stmt 1 view .LVU5
  43              		.loc 1 216 30 is_stmt 0 view .LVU6
  44 0004 4870     		strb	r0, [r1, #1]
 217:Drivers/BSP/Components/iis2mdc/iis2mdc.c ****   Capabilities->Magneto      = 1;
  45              		.loc 1 217 3 is_stmt 1 view .LVU7
  46              		.loc 1 217 30 is_stmt 0 view .LVU8
  47 0006 0123     		movs	r3, #1
  48 0008 8B70     		strb	r3, [r1, #2]
 218:Drivers/BSP/Components/iis2mdc/iis2mdc.c ****   Capabilities->LowPower     = 0;
  49              		.loc 1 218 3 is_stmt 1 view .LVU9
  50              		.loc 1 218 30 is_stmt 0 view .LVU10
  51 000a C870     		strb	r0, [r1, #3]
 219:Drivers/BSP/Components/iis2mdc/iis2mdc.c ****   Capabilities->GyroMaxFS    = 0;
  52              		.loc 1 219 3 is_stmt 1 view .LVU11
  53              		.loc 1 219 30 is_stmt 0 view .LVU12
  54 000c 4860     		str	r0, [r1, #4]
 220:Drivers/BSP/Components/iis2mdc/iis2mdc.c ****   Capabilities->AccMaxFS     = 0;
  55              		.loc 1 220 3 is_stmt 1 view .LVU13
  56              		.loc 1 220 30 is_stmt 0 view .LVU14
  57 000e 8860     		str	r0, [r1, #8]
 221:Drivers/BSP/Components/iis2mdc/iis2mdc.c ****   Capabilities->MagMaxFS     = 50;
  58              		.loc 1 221 3 is_stmt 1 view .LVU15
  59              		.loc 1 221 30 is_stmt 0 view .LVU16
  60 0010 3223     		movs	r3, #50
  61 0012 CB60     		str	r3, [r1, #12]
 222:Drivers/BSP/Components/iis2mdc/iis2mdc.c ****   Capabilities->GyroMaxOdr   = 0.0f;
  62              		.loc 1 222 3 is_stmt 1 view .LVU17
  63              		.loc 1 222 30 is_stmt 0 view .LVU18
  64 0014 0023     		movs	r3, #0
ARM GAS  C:\Temp\ccl7wzJh.s 			page 6


  65 0016 0B61     		str	r3, [r1, #16]	@ float
 223:Drivers/BSP/Components/iis2mdc/iis2mdc.c ****   Capabilities->AccMaxOdr    = 0.0f;
  66              		.loc 1 223 3 is_stmt 1 view .LVU19
  67              		.loc 1 223 30 is_stmt 0 view .LVU20
  68 0018 4B61     		str	r3, [r1, #20]	@ float
 224:Drivers/BSP/Components/iis2mdc/iis2mdc.c ****   Capabilities->MagMaxOdr    = 100.0f;
  69              		.loc 1 224 3 is_stmt 1 view .LVU21
  70              		.loc 1 224 30 is_stmt 0 view .LVU22
  71 001a 014B     		ldr	r3, .L2
  72 001c 8B61     		str	r3, [r1, #24]	@ float
 225:Drivers/BSP/Components/iis2mdc/iis2mdc.c ****   return IIS2MDC_OK;
  73              		.loc 1 225 3 is_stmt 1 view .LVU23
 226:Drivers/BSP/Components/iis2mdc/iis2mdc.c **** }
  74              		.loc 1 226 1 is_stmt 0 view .LVU24
  75 001e 7047     		bx	lr
  76              	.L3:
  77              		.align	2
  78              	.L2:
  79 0020 0000C842 		.word	1120403456
  80              		.cfi_endproc
  81              	.LFE4:
  83              		.section	.text.IIS2MDC_MAG_GetSensitivity,"ax",%progbits
  84              		.align	1
  85              		.global	IIS2MDC_MAG_GetSensitivity
  86              		.syntax unified
  87              		.thumb
  88              		.thumb_func
  90              	IIS2MDC_MAG_GetSensitivity:
  91              	.LVL2:
  92              	.LFB7:
 227:Drivers/BSP/Components/iis2mdc/iis2mdc.c **** 
 228:Drivers/BSP/Components/iis2mdc/iis2mdc.c **** /**
 229:Drivers/BSP/Components/iis2mdc/iis2mdc.c ****   * @brief Enable the IIS2MDC magnetometer sensor
 230:Drivers/BSP/Components/iis2mdc/iis2mdc.c ****   * @param pObj the device pObj
 231:Drivers/BSP/Components/iis2mdc/iis2mdc.c ****   * @retval 0 in case of success, an error code otherwise
 232:Drivers/BSP/Components/iis2mdc/iis2mdc.c ****   */
 233:Drivers/BSP/Components/iis2mdc/iis2mdc.c **** int32_t IIS2MDC_MAG_Enable(IIS2MDC_Object_t *pObj)
 234:Drivers/BSP/Components/iis2mdc/iis2mdc.c **** {
 235:Drivers/BSP/Components/iis2mdc/iis2mdc.c ****   /* Check if the component is already enabled */
 236:Drivers/BSP/Components/iis2mdc/iis2mdc.c ****   if (pObj->mag_is_enabled == 1U)
 237:Drivers/BSP/Components/iis2mdc/iis2mdc.c ****   {
 238:Drivers/BSP/Components/iis2mdc/iis2mdc.c ****     return IIS2MDC_OK;
 239:Drivers/BSP/Components/iis2mdc/iis2mdc.c ****   }
 240:Drivers/BSP/Components/iis2mdc/iis2mdc.c **** 
 241:Drivers/BSP/Components/iis2mdc/iis2mdc.c ****   /* Output data rate selection. */
 242:Drivers/BSP/Components/iis2mdc/iis2mdc.c ****   if (iis2mdc_operating_mode_set(&(pObj->Ctx), IIS2MDC_CONTINUOUS_MODE) != IIS2MDC_OK)
 243:Drivers/BSP/Components/iis2mdc/iis2mdc.c ****   {
 244:Drivers/BSP/Components/iis2mdc/iis2mdc.c ****     return IIS2MDC_ERROR;
 245:Drivers/BSP/Components/iis2mdc/iis2mdc.c ****   }
 246:Drivers/BSP/Components/iis2mdc/iis2mdc.c **** 
 247:Drivers/BSP/Components/iis2mdc/iis2mdc.c ****   pObj->mag_is_enabled = 1;
 248:Drivers/BSP/Components/iis2mdc/iis2mdc.c **** 
 249:Drivers/BSP/Components/iis2mdc/iis2mdc.c ****   return IIS2MDC_OK;
 250:Drivers/BSP/Components/iis2mdc/iis2mdc.c **** }
 251:Drivers/BSP/Components/iis2mdc/iis2mdc.c **** 
 252:Drivers/BSP/Components/iis2mdc/iis2mdc.c **** /**
 253:Drivers/BSP/Components/iis2mdc/iis2mdc.c ****   * @brief Disable the IIS2MDC magnetometer sensor
ARM GAS  C:\Temp\ccl7wzJh.s 			page 7


 254:Drivers/BSP/Components/iis2mdc/iis2mdc.c ****   * @param pObj the device pObj
 255:Drivers/BSP/Components/iis2mdc/iis2mdc.c ****   * @retval 0 in case of success, an error code otherwise
 256:Drivers/BSP/Components/iis2mdc/iis2mdc.c ****   */
 257:Drivers/BSP/Components/iis2mdc/iis2mdc.c **** int32_t IIS2MDC_MAG_Disable(IIS2MDC_Object_t *pObj)
 258:Drivers/BSP/Components/iis2mdc/iis2mdc.c **** {
 259:Drivers/BSP/Components/iis2mdc/iis2mdc.c ****   /* Check if the component is already disabled */
 260:Drivers/BSP/Components/iis2mdc/iis2mdc.c ****   if (pObj->mag_is_enabled == 0U)
 261:Drivers/BSP/Components/iis2mdc/iis2mdc.c ****   {
 262:Drivers/BSP/Components/iis2mdc/iis2mdc.c ****     return IIS2MDC_OK;
 263:Drivers/BSP/Components/iis2mdc/iis2mdc.c ****   }
 264:Drivers/BSP/Components/iis2mdc/iis2mdc.c **** 
 265:Drivers/BSP/Components/iis2mdc/iis2mdc.c ****   /* Output data rate selection - power down. */
 266:Drivers/BSP/Components/iis2mdc/iis2mdc.c ****   if (iis2mdc_operating_mode_set(&(pObj->Ctx), IIS2MDC_POWER_DOWN) != IIS2MDC_OK)
 267:Drivers/BSP/Components/iis2mdc/iis2mdc.c ****   {
 268:Drivers/BSP/Components/iis2mdc/iis2mdc.c ****     return IIS2MDC_ERROR;
 269:Drivers/BSP/Components/iis2mdc/iis2mdc.c ****   }
 270:Drivers/BSP/Components/iis2mdc/iis2mdc.c **** 
 271:Drivers/BSP/Components/iis2mdc/iis2mdc.c ****   pObj->mag_is_enabled = 0;
 272:Drivers/BSP/Components/iis2mdc/iis2mdc.c **** 
 273:Drivers/BSP/Components/iis2mdc/iis2mdc.c ****   return IIS2MDC_OK;
 274:Drivers/BSP/Components/iis2mdc/iis2mdc.c **** }
 275:Drivers/BSP/Components/iis2mdc/iis2mdc.c **** 
 276:Drivers/BSP/Components/iis2mdc/iis2mdc.c **** /**
 277:Drivers/BSP/Components/iis2mdc/iis2mdc.c ****   * @brief  Get the IIS2MDC magnetometer sensor sensitivity
 278:Drivers/BSP/Components/iis2mdc/iis2mdc.c ****   * @param  pObj the device pObj
 279:Drivers/BSP/Components/iis2mdc/iis2mdc.c ****   * @param  Sensitivity pointer
 280:Drivers/BSP/Components/iis2mdc/iis2mdc.c ****   * @retval 0 in case of success, an error code otherwise
 281:Drivers/BSP/Components/iis2mdc/iis2mdc.c ****   */
 282:Drivers/BSP/Components/iis2mdc/iis2mdc.c **** int32_t IIS2MDC_MAG_GetSensitivity(IIS2MDC_Object_t *pObj, float *Sensitivity)
 283:Drivers/BSP/Components/iis2mdc/iis2mdc.c **** {
  93              		.loc 1 283 1 is_stmt 1 view -0
  94              		.cfi_startproc
  95              		@ args = 0, pretend = 0, frame = 0
  96              		@ frame_needed = 0, uses_anonymous_args = 0
  97              		@ link register save eliminated.
 284:Drivers/BSP/Components/iis2mdc/iis2mdc.c ****   UNUSED(pObj);
  98              		.loc 1 284 3 view .LVU26
 285:Drivers/BSP/Components/iis2mdc/iis2mdc.c ****   *Sensitivity = IIS2MDC_MAG_SENSITIVITY_FS_50GAUSS;
  99              		.loc 1 285 3 view .LVU27
 100              		.loc 1 285 16 is_stmt 0 view .LVU28
 101 0000 4FF07F53 		mov	r3, #1069547520
 102 0004 0B60     		str	r3, [r1]	@ float
 286:Drivers/BSP/Components/iis2mdc/iis2mdc.c **** 
 287:Drivers/BSP/Components/iis2mdc/iis2mdc.c ****   return IIS2MDC_OK;
 103              		.loc 1 287 3 is_stmt 1 view .LVU29
 288:Drivers/BSP/Components/iis2mdc/iis2mdc.c **** }
 104              		.loc 1 288 1 is_stmt 0 view .LVU30
 105 0006 0020     		movs	r0, #0
 106              	.LVL3:
 107              		.loc 1 288 1 view .LVU31
 108 0008 7047     		bx	lr
 109              		.cfi_endproc
 110              	.LFE7:
 112              		.section	.text.IIS2MDC_MAG_GetFullScale,"ax",%progbits
 113              		.align	1
 114              		.global	IIS2MDC_MAG_GetFullScale
 115              		.syntax unified
ARM GAS  C:\Temp\ccl7wzJh.s 			page 8


 116              		.thumb
 117              		.thumb_func
 119              	IIS2MDC_MAG_GetFullScale:
 120              	.LVL4:
 121              	.LFB10:
 289:Drivers/BSP/Components/iis2mdc/iis2mdc.c **** 
 290:Drivers/BSP/Components/iis2mdc/iis2mdc.c **** /**
 291:Drivers/BSP/Components/iis2mdc/iis2mdc.c ****   * @brief  Get the IIS2MDC magnetometer sensor output data rate
 292:Drivers/BSP/Components/iis2mdc/iis2mdc.c ****   * @param  pObj the device pObj
 293:Drivers/BSP/Components/iis2mdc/iis2mdc.c ****   * @param  Odr pointer where the output data rate is written
 294:Drivers/BSP/Components/iis2mdc/iis2mdc.c ****   * @retval 0 in case of success, an error code otherwise
 295:Drivers/BSP/Components/iis2mdc/iis2mdc.c ****   */
 296:Drivers/BSP/Components/iis2mdc/iis2mdc.c **** int32_t IIS2MDC_MAG_GetOutputDataRate(IIS2MDC_Object_t *pObj, float *Odr)
 297:Drivers/BSP/Components/iis2mdc/iis2mdc.c **** {
 298:Drivers/BSP/Components/iis2mdc/iis2mdc.c ****   int32_t ret = IIS2MDC_OK;
 299:Drivers/BSP/Components/iis2mdc/iis2mdc.c ****   iis2mdc_odr_t odr_low_level;
 300:Drivers/BSP/Components/iis2mdc/iis2mdc.c **** 
 301:Drivers/BSP/Components/iis2mdc/iis2mdc.c ****   /* Get current output data rate. */
 302:Drivers/BSP/Components/iis2mdc/iis2mdc.c ****   if (iis2mdc_data_rate_get(&(pObj->Ctx), &odr_low_level) != IIS2MDC_OK)
 303:Drivers/BSP/Components/iis2mdc/iis2mdc.c ****   {
 304:Drivers/BSP/Components/iis2mdc/iis2mdc.c ****     return IIS2MDC_ERROR;
 305:Drivers/BSP/Components/iis2mdc/iis2mdc.c ****   }
 306:Drivers/BSP/Components/iis2mdc/iis2mdc.c **** 
 307:Drivers/BSP/Components/iis2mdc/iis2mdc.c ****   switch (odr_low_level)
 308:Drivers/BSP/Components/iis2mdc/iis2mdc.c ****   {
 309:Drivers/BSP/Components/iis2mdc/iis2mdc.c ****     case IIS2MDC_ODR_10Hz:
 310:Drivers/BSP/Components/iis2mdc/iis2mdc.c ****       *Odr = 10.0f;
 311:Drivers/BSP/Components/iis2mdc/iis2mdc.c ****       break;
 312:Drivers/BSP/Components/iis2mdc/iis2mdc.c **** 
 313:Drivers/BSP/Components/iis2mdc/iis2mdc.c ****     case IIS2MDC_ODR_20Hz:
 314:Drivers/BSP/Components/iis2mdc/iis2mdc.c ****       *Odr = 20.0f;
 315:Drivers/BSP/Components/iis2mdc/iis2mdc.c ****       break;
 316:Drivers/BSP/Components/iis2mdc/iis2mdc.c **** 
 317:Drivers/BSP/Components/iis2mdc/iis2mdc.c ****     case IIS2MDC_ODR_50Hz:
 318:Drivers/BSP/Components/iis2mdc/iis2mdc.c ****       *Odr = 50.0f;
 319:Drivers/BSP/Components/iis2mdc/iis2mdc.c ****       break;
 320:Drivers/BSP/Components/iis2mdc/iis2mdc.c **** 
 321:Drivers/BSP/Components/iis2mdc/iis2mdc.c ****     case IIS2MDC_ODR_100Hz:
 322:Drivers/BSP/Components/iis2mdc/iis2mdc.c ****       *Odr = 100.0f;
 323:Drivers/BSP/Components/iis2mdc/iis2mdc.c ****       break;
 324:Drivers/BSP/Components/iis2mdc/iis2mdc.c **** 
 325:Drivers/BSP/Components/iis2mdc/iis2mdc.c ****     default:
 326:Drivers/BSP/Components/iis2mdc/iis2mdc.c ****       ret = IIS2MDC_ERROR;
 327:Drivers/BSP/Components/iis2mdc/iis2mdc.c ****       break;
 328:Drivers/BSP/Components/iis2mdc/iis2mdc.c ****   }
 329:Drivers/BSP/Components/iis2mdc/iis2mdc.c **** 
 330:Drivers/BSP/Components/iis2mdc/iis2mdc.c ****   return ret;
 331:Drivers/BSP/Components/iis2mdc/iis2mdc.c **** }
 332:Drivers/BSP/Components/iis2mdc/iis2mdc.c **** 
 333:Drivers/BSP/Components/iis2mdc/iis2mdc.c **** /**
 334:Drivers/BSP/Components/iis2mdc/iis2mdc.c ****   * @brief  Set the IIS2MDC magnetometer sensor output data rate
 335:Drivers/BSP/Components/iis2mdc/iis2mdc.c ****   * @param  pObj the device pObj
 336:Drivers/BSP/Components/iis2mdc/iis2mdc.c ****   * @param  Odr the output data rate value to be set
 337:Drivers/BSP/Components/iis2mdc/iis2mdc.c ****   * @retval 0 in case of success, an error code otherwise
 338:Drivers/BSP/Components/iis2mdc/iis2mdc.c ****   */
 339:Drivers/BSP/Components/iis2mdc/iis2mdc.c **** int32_t IIS2MDC_MAG_SetOutputDataRate(IIS2MDC_Object_t *pObj, float Odr)
 340:Drivers/BSP/Components/iis2mdc/iis2mdc.c **** {
ARM GAS  C:\Temp\ccl7wzJh.s 			page 9


 341:Drivers/BSP/Components/iis2mdc/iis2mdc.c ****   iis2mdc_odr_t new_odr;
 342:Drivers/BSP/Components/iis2mdc/iis2mdc.c **** 
 343:Drivers/BSP/Components/iis2mdc/iis2mdc.c ****   new_odr = (Odr <= 10.000f) ? IIS2MDC_ODR_10Hz
 344:Drivers/BSP/Components/iis2mdc/iis2mdc.c ****             : (Odr <= 20.000f) ? IIS2MDC_ODR_20Hz
 345:Drivers/BSP/Components/iis2mdc/iis2mdc.c ****             : (Odr <= 50.000f) ? IIS2MDC_ODR_50Hz
 346:Drivers/BSP/Components/iis2mdc/iis2mdc.c ****             :                    IIS2MDC_ODR_100Hz;
 347:Drivers/BSP/Components/iis2mdc/iis2mdc.c **** 
 348:Drivers/BSP/Components/iis2mdc/iis2mdc.c ****   if (iis2mdc_data_rate_set(&(pObj->Ctx), new_odr) != IIS2MDC_OK)
 349:Drivers/BSP/Components/iis2mdc/iis2mdc.c ****   {
 350:Drivers/BSP/Components/iis2mdc/iis2mdc.c ****     return IIS2MDC_ERROR;
 351:Drivers/BSP/Components/iis2mdc/iis2mdc.c ****   }
 352:Drivers/BSP/Components/iis2mdc/iis2mdc.c **** 
 353:Drivers/BSP/Components/iis2mdc/iis2mdc.c ****   return IIS2MDC_OK;
 354:Drivers/BSP/Components/iis2mdc/iis2mdc.c **** }
 355:Drivers/BSP/Components/iis2mdc/iis2mdc.c **** 
 356:Drivers/BSP/Components/iis2mdc/iis2mdc.c **** 
 357:Drivers/BSP/Components/iis2mdc/iis2mdc.c **** /**
 358:Drivers/BSP/Components/iis2mdc/iis2mdc.c ****   * @brief  Get the IIS2MDC magnetometer sensor full scale
 359:Drivers/BSP/Components/iis2mdc/iis2mdc.c ****   * @param  pObj the device pObj
 360:Drivers/BSP/Components/iis2mdc/iis2mdc.c ****   * @param  FullScale pointer where the full scale is written
 361:Drivers/BSP/Components/iis2mdc/iis2mdc.c ****   * @retval 0 in case of success, an error code otherwise
 362:Drivers/BSP/Components/iis2mdc/iis2mdc.c ****   */
 363:Drivers/BSP/Components/iis2mdc/iis2mdc.c **** int32_t IIS2MDC_MAG_GetFullScale(IIS2MDC_Object_t *pObj, int32_t *FullScale)
 364:Drivers/BSP/Components/iis2mdc/iis2mdc.c **** {
 122              		.loc 1 364 1 is_stmt 1 view -0
 123              		.cfi_startproc
 124              		@ args = 0, pretend = 0, frame = 0
 125              		@ frame_needed = 0, uses_anonymous_args = 0
 126              		@ link register save eliminated.
 365:Drivers/BSP/Components/iis2mdc/iis2mdc.c ****   UNUSED(pObj);
 127              		.loc 1 365 3 view .LVU33
 366:Drivers/BSP/Components/iis2mdc/iis2mdc.c ****   *FullScale = 50;
 128              		.loc 1 366 3 view .LVU34
 129              		.loc 1 366 14 is_stmt 0 view .LVU35
 130 0000 3223     		movs	r3, #50
 131 0002 0B60     		str	r3, [r1]
 367:Drivers/BSP/Components/iis2mdc/iis2mdc.c **** 
 368:Drivers/BSP/Components/iis2mdc/iis2mdc.c ****   return IIS2MDC_OK;
 132              		.loc 1 368 3 is_stmt 1 view .LVU36
 369:Drivers/BSP/Components/iis2mdc/iis2mdc.c **** }
 133              		.loc 1 369 1 is_stmt 0 view .LVU37
 134 0004 0020     		movs	r0, #0
 135              	.LVL5:
 136              		.loc 1 369 1 view .LVU38
 137 0006 7047     		bx	lr
 138              		.cfi_endproc
 139              	.LFE10:
 141              		.section	.text.IIS2MDC_MAG_SetFullScale,"ax",%progbits
 142              		.align	1
 143              		.global	IIS2MDC_MAG_SetFullScale
 144              		.syntax unified
 145              		.thumb
 146              		.thumb_func
 148              	IIS2MDC_MAG_SetFullScale:
 149              	.LVL6:
 150              	.LFB11:
 370:Drivers/BSP/Components/iis2mdc/iis2mdc.c **** 
ARM GAS  C:\Temp\ccl7wzJh.s 			page 10


 371:Drivers/BSP/Components/iis2mdc/iis2mdc.c **** /**
 372:Drivers/BSP/Components/iis2mdc/iis2mdc.c ****   * @brief  Set the IIS2MDC magnetometer sensor full scale
 373:Drivers/BSP/Components/iis2mdc/iis2mdc.c ****   * @param  pObj the device pObj
 374:Drivers/BSP/Components/iis2mdc/iis2mdc.c ****   * @param  FullScale the functional full scale to be set
 375:Drivers/BSP/Components/iis2mdc/iis2mdc.c ****   * @retval 0 in case of success, an error code otherwise
 376:Drivers/BSP/Components/iis2mdc/iis2mdc.c ****   */
 377:Drivers/BSP/Components/iis2mdc/iis2mdc.c **** int32_t IIS2MDC_MAG_SetFullScale(IIS2MDC_Object_t *pObj, int32_t FullScale)
 378:Drivers/BSP/Components/iis2mdc/iis2mdc.c **** {
 151              		.loc 1 378 1 is_stmt 1 view -0
 152              		.cfi_startproc
 153              		@ args = 0, pretend = 0, frame = 0
 154              		@ frame_needed = 0, uses_anonymous_args = 0
 155              		@ link register save eliminated.
 379:Drivers/BSP/Components/iis2mdc/iis2mdc.c ****   UNUSED(pObj);
 156              		.loc 1 379 3 view .LVU40
 380:Drivers/BSP/Components/iis2mdc/iis2mdc.c ****   UNUSED(FullScale);
 157              		.loc 1 380 3 view .LVU41
 381:Drivers/BSP/Components/iis2mdc/iis2mdc.c ****   return IIS2MDC_OK;
 158              		.loc 1 381 3 view .LVU42
 382:Drivers/BSP/Components/iis2mdc/iis2mdc.c **** }
 159              		.loc 1 382 1 is_stmt 0 view .LVU43
 160 0000 0020     		movs	r0, #0
 161              	.LVL7:
 162              		.loc 1 382 1 view .LVU44
 163 0002 7047     		bx	lr
 164              		.cfi_endproc
 165              	.LFE11:
 167              		.section	.text.ReadMagRegWrap,"ax",%progbits
 168              		.align	1
 169              		.syntax unified
 170              		.thumb
 171              		.thumb_func
 173              	ReadMagRegWrap:
 174              	.LVL8:
 175              	.LFB18:
 383:Drivers/BSP/Components/iis2mdc/iis2mdc.c **** 
 384:Drivers/BSP/Components/iis2mdc/iis2mdc.c **** /**
 385:Drivers/BSP/Components/iis2mdc/iis2mdc.c ****   * @brief  Get the IIS2MDC magnetometer sensor raw axes
 386:Drivers/BSP/Components/iis2mdc/iis2mdc.c ****   * @param  pObj the device pObj
 387:Drivers/BSP/Components/iis2mdc/iis2mdc.c ****   * @param  Value pointer where the raw values of the axes are written
 388:Drivers/BSP/Components/iis2mdc/iis2mdc.c ****   * @retval 0 in case of success, an error code otherwise
 389:Drivers/BSP/Components/iis2mdc/iis2mdc.c ****   */
 390:Drivers/BSP/Components/iis2mdc/iis2mdc.c **** int32_t IIS2MDC_MAG_GetAxesRaw(IIS2MDC_Object_t *pObj, IIS2MDC_AxesRaw_t *Value)
 391:Drivers/BSP/Components/iis2mdc/iis2mdc.c **** {
 392:Drivers/BSP/Components/iis2mdc/iis2mdc.c ****   iis2mdc_axis3bit16_t data_raw;
 393:Drivers/BSP/Components/iis2mdc/iis2mdc.c **** 
 394:Drivers/BSP/Components/iis2mdc/iis2mdc.c ****   /* Read raw data values. */
 395:Drivers/BSP/Components/iis2mdc/iis2mdc.c ****   if (iis2mdc_magnetic_raw_get(&(pObj->Ctx), data_raw.i16bit) != IIS2MDC_OK)
 396:Drivers/BSP/Components/iis2mdc/iis2mdc.c ****   {
 397:Drivers/BSP/Components/iis2mdc/iis2mdc.c ****     return IIS2MDC_ERROR;
 398:Drivers/BSP/Components/iis2mdc/iis2mdc.c ****   }
 399:Drivers/BSP/Components/iis2mdc/iis2mdc.c **** 
 400:Drivers/BSP/Components/iis2mdc/iis2mdc.c ****   /* Format the data. */
 401:Drivers/BSP/Components/iis2mdc/iis2mdc.c ****   Value->x = data_raw.i16bit[0];
 402:Drivers/BSP/Components/iis2mdc/iis2mdc.c ****   Value->y = data_raw.i16bit[1];
 403:Drivers/BSP/Components/iis2mdc/iis2mdc.c ****   Value->z = data_raw.i16bit[2];
 404:Drivers/BSP/Components/iis2mdc/iis2mdc.c **** 
ARM GAS  C:\Temp\ccl7wzJh.s 			page 11


 405:Drivers/BSP/Components/iis2mdc/iis2mdc.c ****   return IIS2MDC_OK;
 406:Drivers/BSP/Components/iis2mdc/iis2mdc.c **** }
 407:Drivers/BSP/Components/iis2mdc/iis2mdc.c **** 
 408:Drivers/BSP/Components/iis2mdc/iis2mdc.c **** /**
 409:Drivers/BSP/Components/iis2mdc/iis2mdc.c ****   * @brief  Get the IIS2MDC magnetometer sensor axes
 410:Drivers/BSP/Components/iis2mdc/iis2mdc.c ****   * @param  pObj the device pObj
 411:Drivers/BSP/Components/iis2mdc/iis2mdc.c ****   * @param  MagneticField pointer where the values of the axes are written
 412:Drivers/BSP/Components/iis2mdc/iis2mdc.c ****   * @retval 0 in case of success, an error code otherwise
 413:Drivers/BSP/Components/iis2mdc/iis2mdc.c ****   */
 414:Drivers/BSP/Components/iis2mdc/iis2mdc.c **** int32_t IIS2MDC_MAG_GetAxes(IIS2MDC_Object_t *pObj, IIS2MDC_Axes_t *MagneticField)
 415:Drivers/BSP/Components/iis2mdc/iis2mdc.c **** {
 416:Drivers/BSP/Components/iis2mdc/iis2mdc.c ****   iis2mdc_axis3bit16_t data_raw;
 417:Drivers/BSP/Components/iis2mdc/iis2mdc.c ****   float sensitivity = 0.0f;
 418:Drivers/BSP/Components/iis2mdc/iis2mdc.c **** 
 419:Drivers/BSP/Components/iis2mdc/iis2mdc.c ****   /* Read raw data values. */
 420:Drivers/BSP/Components/iis2mdc/iis2mdc.c ****   if (iis2mdc_magnetic_raw_get(&(pObj->Ctx), data_raw.i16bit) != IIS2MDC_OK)
 421:Drivers/BSP/Components/iis2mdc/iis2mdc.c ****   {
 422:Drivers/BSP/Components/iis2mdc/iis2mdc.c ****     return IIS2MDC_ERROR;
 423:Drivers/BSP/Components/iis2mdc/iis2mdc.c ****   }
 424:Drivers/BSP/Components/iis2mdc/iis2mdc.c **** 
 425:Drivers/BSP/Components/iis2mdc/iis2mdc.c ****   /* Get IIS2MDC actual sensitivity. */
 426:Drivers/BSP/Components/iis2mdc/iis2mdc.c ****   (void)IIS2MDC_MAG_GetSensitivity(pObj, &sensitivity);
 427:Drivers/BSP/Components/iis2mdc/iis2mdc.c **** 
 428:Drivers/BSP/Components/iis2mdc/iis2mdc.c ****   /* Calculate the data. */
 429:Drivers/BSP/Components/iis2mdc/iis2mdc.c ****   MagneticField->x = (int32_t)((float)((float)data_raw.i16bit[0] * sensitivity));
 430:Drivers/BSP/Components/iis2mdc/iis2mdc.c ****   MagneticField->y = (int32_t)((float)((float)data_raw.i16bit[1] * sensitivity));
 431:Drivers/BSP/Components/iis2mdc/iis2mdc.c ****   MagneticField->z = (int32_t)((float)((float)data_raw.i16bit[2] * sensitivity));
 432:Drivers/BSP/Components/iis2mdc/iis2mdc.c **** 
 433:Drivers/BSP/Components/iis2mdc/iis2mdc.c ****   return IIS2MDC_OK;
 434:Drivers/BSP/Components/iis2mdc/iis2mdc.c **** }
 435:Drivers/BSP/Components/iis2mdc/iis2mdc.c **** 
 436:Drivers/BSP/Components/iis2mdc/iis2mdc.c **** /**
 437:Drivers/BSP/Components/iis2mdc/iis2mdc.c ****   * @brief  Get the IIS2MDC register value for magnetic sensor
 438:Drivers/BSP/Components/iis2mdc/iis2mdc.c ****   * @param  pObj the device pObj
 439:Drivers/BSP/Components/iis2mdc/iis2mdc.c ****   * @param  Reg address to be read
 440:Drivers/BSP/Components/iis2mdc/iis2mdc.c ****   * @param  Data pointer where the value is written
 441:Drivers/BSP/Components/iis2mdc/iis2mdc.c ****   * @retval 0 in case of success, an error code otherwise
 442:Drivers/BSP/Components/iis2mdc/iis2mdc.c ****   */
 443:Drivers/BSP/Components/iis2mdc/iis2mdc.c **** int32_t IIS2MDC_Read_Reg(IIS2MDC_Object_t *pObj, uint8_t Reg, uint8_t *Data)
 444:Drivers/BSP/Components/iis2mdc/iis2mdc.c **** {
 445:Drivers/BSP/Components/iis2mdc/iis2mdc.c ****   if (iis2mdc_read_reg(&(pObj->Ctx), Reg, Data, 1) != IIS2MDC_OK)
 446:Drivers/BSP/Components/iis2mdc/iis2mdc.c ****   {
 447:Drivers/BSP/Components/iis2mdc/iis2mdc.c ****     return IIS2MDC_ERROR;
 448:Drivers/BSP/Components/iis2mdc/iis2mdc.c ****   }
 449:Drivers/BSP/Components/iis2mdc/iis2mdc.c **** 
 450:Drivers/BSP/Components/iis2mdc/iis2mdc.c ****   return IIS2MDC_OK;
 451:Drivers/BSP/Components/iis2mdc/iis2mdc.c **** }
 452:Drivers/BSP/Components/iis2mdc/iis2mdc.c **** 
 453:Drivers/BSP/Components/iis2mdc/iis2mdc.c **** /**
 454:Drivers/BSP/Components/iis2mdc/iis2mdc.c ****   * @brief  Set the IIS2MDC register value for magnetic sensor
 455:Drivers/BSP/Components/iis2mdc/iis2mdc.c ****   * @param  pObj the device pObj
 456:Drivers/BSP/Components/iis2mdc/iis2mdc.c ****   * @param  Reg address to be written
 457:Drivers/BSP/Components/iis2mdc/iis2mdc.c ****   * @param  Data value to be written
 458:Drivers/BSP/Components/iis2mdc/iis2mdc.c ****   * @retval 0 in case of success, an error code otherwise
 459:Drivers/BSP/Components/iis2mdc/iis2mdc.c ****   */
 460:Drivers/BSP/Components/iis2mdc/iis2mdc.c **** int32_t IIS2MDC_Write_Reg(IIS2MDC_Object_t *pObj, uint8_t Reg, uint8_t Data)
 461:Drivers/BSP/Components/iis2mdc/iis2mdc.c **** {
ARM GAS  C:\Temp\ccl7wzJh.s 			page 12


 462:Drivers/BSP/Components/iis2mdc/iis2mdc.c ****   if (iis2mdc_write_reg(&(pObj->Ctx), Reg, &Data, 1) != IIS2MDC_OK)
 463:Drivers/BSP/Components/iis2mdc/iis2mdc.c ****   {
 464:Drivers/BSP/Components/iis2mdc/iis2mdc.c ****     return IIS2MDC_ERROR;
 465:Drivers/BSP/Components/iis2mdc/iis2mdc.c ****   }
 466:Drivers/BSP/Components/iis2mdc/iis2mdc.c **** 
 467:Drivers/BSP/Components/iis2mdc/iis2mdc.c ****   return IIS2MDC_OK;
 468:Drivers/BSP/Components/iis2mdc/iis2mdc.c **** }
 469:Drivers/BSP/Components/iis2mdc/iis2mdc.c **** 
 470:Drivers/BSP/Components/iis2mdc/iis2mdc.c **** /**
 471:Drivers/BSP/Components/iis2mdc/iis2mdc.c ****   * @brief  Get the IIS2MDC MAG data ready bit value
 472:Drivers/BSP/Components/iis2mdc/iis2mdc.c ****   * @param  pObj the device pObj
 473:Drivers/BSP/Components/iis2mdc/iis2mdc.c ****   * @param  Status the status of data ready bit
 474:Drivers/BSP/Components/iis2mdc/iis2mdc.c ****   * @retval 0 in case of success, an error code otherwise
 475:Drivers/BSP/Components/iis2mdc/iis2mdc.c ****   */
 476:Drivers/BSP/Components/iis2mdc/iis2mdc.c **** int32_t IIS2MDC_MAG_Get_DRDY_Status(IIS2MDC_Object_t *pObj, uint8_t *Status)
 477:Drivers/BSP/Components/iis2mdc/iis2mdc.c **** {
 478:Drivers/BSP/Components/iis2mdc/iis2mdc.c ****   if (iis2mdc_mag_data_ready_get(&(pObj->Ctx), Status) != IIS2MDC_OK)
 479:Drivers/BSP/Components/iis2mdc/iis2mdc.c ****   {
 480:Drivers/BSP/Components/iis2mdc/iis2mdc.c ****     return IIS2MDC_ERROR;
 481:Drivers/BSP/Components/iis2mdc/iis2mdc.c ****   }
 482:Drivers/BSP/Components/iis2mdc/iis2mdc.c **** 
 483:Drivers/BSP/Components/iis2mdc/iis2mdc.c ****   return IIS2MDC_OK;
 484:Drivers/BSP/Components/iis2mdc/iis2mdc.c **** }
 485:Drivers/BSP/Components/iis2mdc/iis2mdc.c **** 
 486:Drivers/BSP/Components/iis2mdc/iis2mdc.c **** /**
 487:Drivers/BSP/Components/iis2mdc/iis2mdc.c ****   * @brief  Get the IIS2MDC MAG initialization status
 488:Drivers/BSP/Components/iis2mdc/iis2mdc.c ****   * @param  pObj the device pObj
 489:Drivers/BSP/Components/iis2mdc/iis2mdc.c ****   * @param  Status 1 if initialized, 0 otherwise
 490:Drivers/BSP/Components/iis2mdc/iis2mdc.c ****   * @retval 0 in case of success, an error code otherwise
 491:Drivers/BSP/Components/iis2mdc/iis2mdc.c ****   */
 492:Drivers/BSP/Components/iis2mdc/iis2mdc.c **** int32_t IIS2MDC_MAG_Get_Init_Status(IIS2MDC_Object_t *pObj, uint8_t *Status)
 493:Drivers/BSP/Components/iis2mdc/iis2mdc.c **** {
 494:Drivers/BSP/Components/iis2mdc/iis2mdc.c ****   if (pObj == NULL)
 495:Drivers/BSP/Components/iis2mdc/iis2mdc.c ****   {
 496:Drivers/BSP/Components/iis2mdc/iis2mdc.c ****     return IIS2MDC_ERROR;
 497:Drivers/BSP/Components/iis2mdc/iis2mdc.c ****   }
 498:Drivers/BSP/Components/iis2mdc/iis2mdc.c **** 
 499:Drivers/BSP/Components/iis2mdc/iis2mdc.c ****   *Status = pObj->is_initialized;
 500:Drivers/BSP/Components/iis2mdc/iis2mdc.c **** 
 501:Drivers/BSP/Components/iis2mdc/iis2mdc.c ****   return IIS2MDC_OK;
 502:Drivers/BSP/Components/iis2mdc/iis2mdc.c **** }
 503:Drivers/BSP/Components/iis2mdc/iis2mdc.c **** 
 504:Drivers/BSP/Components/iis2mdc/iis2mdc.c **** /**
 505:Drivers/BSP/Components/iis2mdc/iis2mdc.c ****   * @}
 506:Drivers/BSP/Components/iis2mdc/iis2mdc.c ****   */
 507:Drivers/BSP/Components/iis2mdc/iis2mdc.c **** 
 508:Drivers/BSP/Components/iis2mdc/iis2mdc.c **** /** @defgroup IIS2MDC_Private_Functions IIS2MDC Private Functions
 509:Drivers/BSP/Components/iis2mdc/iis2mdc.c ****   * @{
 510:Drivers/BSP/Components/iis2mdc/iis2mdc.c ****   */
 511:Drivers/BSP/Components/iis2mdc/iis2mdc.c **** 
 512:Drivers/BSP/Components/iis2mdc/iis2mdc.c **** /**
 513:Drivers/BSP/Components/iis2mdc/iis2mdc.c ****   * @brief  Wrap Read register component function to Bus IO function
 514:Drivers/BSP/Components/iis2mdc/iis2mdc.c ****   * @param  Handle the device handler
 515:Drivers/BSP/Components/iis2mdc/iis2mdc.c ****   * @param  Reg the register address
 516:Drivers/BSP/Components/iis2mdc/iis2mdc.c ****   * @param  pData the stored data pointer
 517:Drivers/BSP/Components/iis2mdc/iis2mdc.c ****   * @param  Length the length
 518:Drivers/BSP/Components/iis2mdc/iis2mdc.c ****   * @retval 0 in case of success, an error code otherwise
ARM GAS  C:\Temp\ccl7wzJh.s 			page 13


 519:Drivers/BSP/Components/iis2mdc/iis2mdc.c ****   */
 520:Drivers/BSP/Components/iis2mdc/iis2mdc.c **** static int32_t ReadMagRegWrap(void *Handle, uint8_t Reg, uint8_t *pData, uint16_t Length)
 521:Drivers/BSP/Components/iis2mdc/iis2mdc.c **** {
 176              		.loc 1 521 1 is_stmt 1 view -0
 177              		.cfi_startproc
 178              		@ args = 0, pretend = 0, frame = 0
 179              		@ frame_needed = 0, uses_anonymous_args = 0
 180              		.loc 1 521 1 is_stmt 0 view .LVU46
 181 0000 10B5     		push	{r4, lr}
 182              		.cfi_def_cfa_offset 8
 183              		.cfi_offset 4, -8
 184              		.cfi_offset 14, -4
 522:Drivers/BSP/Components/iis2mdc/iis2mdc.c ****   IIS2MDC_Object_t *pObj = (IIS2MDC_Object_t *)Handle;
 185              		.loc 1 522 3 is_stmt 1 view .LVU47
 186              	.LVL9:
 523:Drivers/BSP/Components/iis2mdc/iis2mdc.c **** 
 524:Drivers/BSP/Components/iis2mdc/iis2mdc.c ****   if (pObj->IO.BusType == IIS2MDC_I2C_BUS) /* I2C */
 187              		.loc 1 524 3 view .LVU48
 188              		.loc 1 524 6 is_stmt 0 view .LVU49
 189 0002 8468     		ldr	r4, [r0, #8]
 190 0004 2CB9     		cbnz	r4, .L8
 525:Drivers/BSP/Components/iis2mdc/iis2mdc.c ****   {
 526:Drivers/BSP/Components/iis2mdc/iis2mdc.c ****     /* Enable Multi-byte read */
 527:Drivers/BSP/Components/iis2mdc/iis2mdc.c ****     return pObj->IO.ReadReg(pObj->IO.Address, (Reg | 0x80U), pData, Length);
 191              		.loc 1 527 5 is_stmt 1 view .LVU50
 192              		.loc 1 527 20 is_stmt 0 view .LVU51
 193 0006 4469     		ldr	r4, [r0, #20]
 194              		.loc 1 527 12 view .LVU52
 195 0008 41F08001 		orr	r1, r1, #128
 196              	.LVL10:
 197              		.loc 1 527 12 view .LVU53
 198 000c 007B     		ldrb	r0, [r0, #12]	@ zero_extendqisi2
 199              	.LVL11:
 200              		.loc 1 527 12 view .LVU54
 201 000e A047     		blx	r4
 202              	.LVL12:
 203              	.L7:
 528:Drivers/BSP/Components/iis2mdc/iis2mdc.c ****   }
 529:Drivers/BSP/Components/iis2mdc/iis2mdc.c ****   else   /* SPI 3-Wires */
 530:Drivers/BSP/Components/iis2mdc/iis2mdc.c ****   {
 531:Drivers/BSP/Components/iis2mdc/iis2mdc.c ****     /* Enable Multi-byte read */
 532:Drivers/BSP/Components/iis2mdc/iis2mdc.c ****     return pObj->IO.ReadReg(pObj->IO.Address, (Reg | 0x40U), pData, Length);
 533:Drivers/BSP/Components/iis2mdc/iis2mdc.c ****   }
 534:Drivers/BSP/Components/iis2mdc/iis2mdc.c **** }
 204              		.loc 1 534 1 view .LVU55
 205 0010 10BD     		pop	{r4, pc}
 206              	.LVL13:
 207              	.L8:
 532:Drivers/BSP/Components/iis2mdc/iis2mdc.c ****   }
 208              		.loc 1 532 5 is_stmt 1 view .LVU56
 532:Drivers/BSP/Components/iis2mdc/iis2mdc.c ****   }
 209              		.loc 1 532 20 is_stmt 0 view .LVU57
 210 0012 4469     		ldr	r4, [r0, #20]
 532:Drivers/BSP/Components/iis2mdc/iis2mdc.c ****   }
 211              		.loc 1 532 12 view .LVU58
 212 0014 41F04001 		orr	r1, r1, #64
 213              	.LVL14:
ARM GAS  C:\Temp\ccl7wzJh.s 			page 14


 532:Drivers/BSP/Components/iis2mdc/iis2mdc.c ****   }
 214              		.loc 1 532 12 view .LVU59
 215 0018 007B     		ldrb	r0, [r0, #12]	@ zero_extendqisi2
 216              	.LVL15:
 532:Drivers/BSP/Components/iis2mdc/iis2mdc.c ****   }
 217              		.loc 1 532 12 view .LVU60
 218 001a A047     		blx	r4
 219              	.LVL16:
 532:Drivers/BSP/Components/iis2mdc/iis2mdc.c ****   }
 220              		.loc 1 532 12 view .LVU61
 221 001c F8E7     		b	.L7
 222              		.cfi_endproc
 223              	.LFE18:
 225              		.section	.text.WriteMagRegWrap,"ax",%progbits
 226              		.align	1
 227              		.syntax unified
 228              		.thumb
 229              		.thumb_func
 231              	WriteMagRegWrap:
 232              	.LVL17:
 233              	.LFB19:
 535:Drivers/BSP/Components/iis2mdc/iis2mdc.c **** 
 536:Drivers/BSP/Components/iis2mdc/iis2mdc.c **** /**
 537:Drivers/BSP/Components/iis2mdc/iis2mdc.c ****   * @brief  Wrap Write register component function to Bus IO function
 538:Drivers/BSP/Components/iis2mdc/iis2mdc.c ****   * @param  Handle the device handler
 539:Drivers/BSP/Components/iis2mdc/iis2mdc.c ****   * @param  Reg the register address
 540:Drivers/BSP/Components/iis2mdc/iis2mdc.c ****   * @param  pData the stored data pointer
 541:Drivers/BSP/Components/iis2mdc/iis2mdc.c ****   * @param  Length the length
 542:Drivers/BSP/Components/iis2mdc/iis2mdc.c ****   * @retval 0 in case of success, an error code otherwise
 543:Drivers/BSP/Components/iis2mdc/iis2mdc.c ****   */
 544:Drivers/BSP/Components/iis2mdc/iis2mdc.c **** static int32_t WriteMagRegWrap(void *Handle, uint8_t Reg, uint8_t *pData, uint16_t Length)
 545:Drivers/BSP/Components/iis2mdc/iis2mdc.c **** {
 234              		.loc 1 545 1 is_stmt 1 view -0
 235              		.cfi_startproc
 236              		@ args = 0, pretend = 0, frame = 0
 237              		@ frame_needed = 0, uses_anonymous_args = 0
 238              		.loc 1 545 1 is_stmt 0 view .LVU63
 239 0000 10B5     		push	{r4, lr}
 240              		.cfi_def_cfa_offset 8
 241              		.cfi_offset 4, -8
 242              		.cfi_offset 14, -4
 546:Drivers/BSP/Components/iis2mdc/iis2mdc.c ****   IIS2MDC_Object_t *pObj = (IIS2MDC_Object_t *)Handle;
 243              		.loc 1 546 3 is_stmt 1 view .LVU64
 244              	.LVL18:
 547:Drivers/BSP/Components/iis2mdc/iis2mdc.c **** 
 548:Drivers/BSP/Components/iis2mdc/iis2mdc.c ****   if (pObj->IO.BusType == IIS2MDC_I2C_BUS) /* I2C */
 245              		.loc 1 548 3 view .LVU65
 246              		.loc 1 548 6 is_stmt 0 view .LVU66
 247 0002 8468     		ldr	r4, [r0, #8]
 248 0004 2CB9     		cbnz	r4, .L12
 549:Drivers/BSP/Components/iis2mdc/iis2mdc.c ****   {
 550:Drivers/BSP/Components/iis2mdc/iis2mdc.c ****     /* Enable Multi-byte write */
 551:Drivers/BSP/Components/iis2mdc/iis2mdc.c ****     return pObj->IO.WriteReg(pObj->IO.Address, (Reg | 0x80U), pData, Length);
 249              		.loc 1 551 5 is_stmt 1 view .LVU67
 250              		.loc 1 551 20 is_stmt 0 view .LVU68
 251 0006 0469     		ldr	r4, [r0, #16]
 252              		.loc 1 551 12 view .LVU69
ARM GAS  C:\Temp\ccl7wzJh.s 			page 15


 253 0008 41F08001 		orr	r1, r1, #128
 254              	.LVL19:
 255              		.loc 1 551 12 view .LVU70
 256 000c 007B     		ldrb	r0, [r0, #12]	@ zero_extendqisi2
 257              	.LVL20:
 258              		.loc 1 551 12 view .LVU71
 259 000e A047     		blx	r4
 260              	.LVL21:
 261              	.L11:
 552:Drivers/BSP/Components/iis2mdc/iis2mdc.c ****   }
 553:Drivers/BSP/Components/iis2mdc/iis2mdc.c ****   else   /* SPI 3-Wires */
 554:Drivers/BSP/Components/iis2mdc/iis2mdc.c ****   {
 555:Drivers/BSP/Components/iis2mdc/iis2mdc.c ****     /* Enable Multi-byte write */
 556:Drivers/BSP/Components/iis2mdc/iis2mdc.c ****     return pObj->IO.WriteReg(pObj->IO.Address, (Reg | 0x40U), pData, Length);
 557:Drivers/BSP/Components/iis2mdc/iis2mdc.c ****   }
 558:Drivers/BSP/Components/iis2mdc/iis2mdc.c **** }
 262              		.loc 1 558 1 view .LVU72
 263 0010 10BD     		pop	{r4, pc}
 264              	.LVL22:
 265              	.L12:
 556:Drivers/BSP/Components/iis2mdc/iis2mdc.c ****   }
 266              		.loc 1 556 5 is_stmt 1 view .LVU73
 556:Drivers/BSP/Components/iis2mdc/iis2mdc.c ****   }
 267              		.loc 1 556 20 is_stmt 0 view .LVU74
 268 0012 0469     		ldr	r4, [r0, #16]
 556:Drivers/BSP/Components/iis2mdc/iis2mdc.c ****   }
 269              		.loc 1 556 12 view .LVU75
 270 0014 41F04001 		orr	r1, r1, #64
 271              	.LVL23:
 556:Drivers/BSP/Components/iis2mdc/iis2mdc.c ****   }
 272              		.loc 1 556 12 view .LVU76
 273 0018 007B     		ldrb	r0, [r0, #12]	@ zero_extendqisi2
 274              	.LVL24:
 556:Drivers/BSP/Components/iis2mdc/iis2mdc.c ****   }
 275              		.loc 1 556 12 view .LVU77
 276 001a A047     		blx	r4
 277              	.LVL25:
 556:Drivers/BSP/Components/iis2mdc/iis2mdc.c ****   }
 278              		.loc 1 556 12 view .LVU78
 279 001c F8E7     		b	.L11
 280              		.cfi_endproc
 281              	.LFE19:
 283              		.section	.text.IIS2MDC_MAG_Enable,"ax",%progbits
 284              		.align	1
 285              		.global	IIS2MDC_MAG_Enable
 286              		.syntax unified
 287              		.thumb
 288              		.thumb_func
 290              	IIS2MDC_MAG_Enable:
 291              	.LVL26:
 292              	.LFB5:
 234:Drivers/BSP/Components/iis2mdc/iis2mdc.c ****   /* Check if the component is already enabled */
 293              		.loc 1 234 1 is_stmt 1 view -0
 294              		.cfi_startproc
 295              		@ args = 0, pretend = 0, frame = 0
 296              		@ frame_needed = 0, uses_anonymous_args = 0
 236:Drivers/BSP/Components/iis2mdc/iis2mdc.c ****   {
ARM GAS  C:\Temp\ccl7wzJh.s 			page 16


 297              		.loc 1 236 3 view .LVU80
 236:Drivers/BSP/Components/iis2mdc/iis2mdc.c ****   {
 298              		.loc 1 236 11 is_stmt 0 view .LVU81
 299 0000 90F83130 		ldrb	r3, [r0, #49]	@ zero_extendqisi2
 236:Drivers/BSP/Components/iis2mdc/iis2mdc.c ****   {
 300              		.loc 1 236 6 view .LVU82
 301 0004 012B     		cmp	r3, #1
 302 0006 0AD0     		beq	.L17
 234:Drivers/BSP/Components/iis2mdc/iis2mdc.c ****   /* Check if the component is already enabled */
 303              		.loc 1 234 1 view .LVU83
 304 0008 10B5     		push	{r4, lr}
 305              		.cfi_def_cfa_offset 8
 306              		.cfi_offset 4, -8
 307              		.cfi_offset 14, -4
 308 000a 0446     		mov	r4, r0
 242:Drivers/BSP/Components/iis2mdc/iis2mdc.c ****   {
 309              		.loc 1 242 3 is_stmt 1 view .LVU84
 242:Drivers/BSP/Components/iis2mdc/iis2mdc.c ****   {
 310              		.loc 1 242 7 is_stmt 0 view .LVU85
 311 000c 0021     		movs	r1, #0
 312 000e 2030     		adds	r0, r0, #32
 313              	.LVL27:
 242:Drivers/BSP/Components/iis2mdc/iis2mdc.c ****   {
 314              		.loc 1 242 7 view .LVU86
 315 0010 FFF7FEFF 		bl	iis2mdc_operating_mode_set
 316              	.LVL28:
 242:Drivers/BSP/Components/iis2mdc/iis2mdc.c ****   {
 317              		.loc 1 242 6 view .LVU87
 318 0014 28B9     		cbnz	r0, .L18
 247:Drivers/BSP/Components/iis2mdc/iis2mdc.c **** 
 319              		.loc 1 247 3 is_stmt 1 view .LVU88
 247:Drivers/BSP/Components/iis2mdc/iis2mdc.c **** 
 320              		.loc 1 247 24 is_stmt 0 view .LVU89
 321 0016 0123     		movs	r3, #1
 322 0018 84F83130 		strb	r3, [r4, #49]
 249:Drivers/BSP/Components/iis2mdc/iis2mdc.c **** }
 323              		.loc 1 249 3 is_stmt 1 view .LVU90
 324              	.L15:
 250:Drivers/BSP/Components/iis2mdc/iis2mdc.c **** 
 325              		.loc 1 250 1 is_stmt 0 view .LVU91
 326 001c 10BD     		pop	{r4, pc}
 327              	.LVL29:
 328              	.L17:
 329              		.cfi_def_cfa_offset 0
 330              		.cfi_restore 4
 331              		.cfi_restore 14
 238:Drivers/BSP/Components/iis2mdc/iis2mdc.c ****   }
 332              		.loc 1 238 12 view .LVU92
 333 001e 0020     		movs	r0, #0
 334              	.LVL30:
 250:Drivers/BSP/Components/iis2mdc/iis2mdc.c **** 
 335              		.loc 1 250 1 view .LVU93
 336 0020 7047     		bx	lr
 337              	.LVL31:
 338              	.L18:
 339              		.cfi_def_cfa_offset 8
 340              		.cfi_offset 4, -8
ARM GAS  C:\Temp\ccl7wzJh.s 			page 17


 341              		.cfi_offset 14, -4
 244:Drivers/BSP/Components/iis2mdc/iis2mdc.c ****   }
 342              		.loc 1 244 12 view .LVU94
 343 0022 4FF0FF30 		mov	r0, #-1
 344 0026 F9E7     		b	.L15
 345              		.cfi_endproc
 346              	.LFE5:
 348              		.section	.text.IIS2MDC_MAG_Disable,"ax",%progbits
 349              		.align	1
 350              		.global	IIS2MDC_MAG_Disable
 351              		.syntax unified
 352              		.thumb
 353              		.thumb_func
 355              	IIS2MDC_MAG_Disable:
 356              	.LVL32:
 357              	.LFB6:
 258:Drivers/BSP/Components/iis2mdc/iis2mdc.c ****   /* Check if the component is already disabled */
 358              		.loc 1 258 1 is_stmt 1 view -0
 359              		.cfi_startproc
 360              		@ args = 0, pretend = 0, frame = 0
 361              		@ frame_needed = 0, uses_anonymous_args = 0
 260:Drivers/BSP/Components/iis2mdc/iis2mdc.c ****   {
 362              		.loc 1 260 3 view .LVU96
 260:Drivers/BSP/Components/iis2mdc/iis2mdc.c ****   {
 363              		.loc 1 260 11 is_stmt 0 view .LVU97
 364 0000 90F83130 		ldrb	r3, [r0, #49]	@ zero_extendqisi2
 260:Drivers/BSP/Components/iis2mdc/iis2mdc.c ****   {
 365              		.loc 1 260 6 view .LVU98
 366 0004 0BB9     		cbnz	r3, .L31
 262:Drivers/BSP/Components/iis2mdc/iis2mdc.c ****   }
 367              		.loc 1 262 12 view .LVU99
 368 0006 0020     		movs	r0, #0
 369              	.LVL33:
 274:Drivers/BSP/Components/iis2mdc/iis2mdc.c **** 
 370              		.loc 1 274 1 view .LVU100
 371 0008 7047     		bx	lr
 372              	.LVL34:
 373              	.L31:
 258:Drivers/BSP/Components/iis2mdc/iis2mdc.c ****   /* Check if the component is already disabled */
 374              		.loc 1 258 1 view .LVU101
 375 000a 10B5     		push	{r4, lr}
 376              		.cfi_def_cfa_offset 8
 377              		.cfi_offset 4, -8
 378              		.cfi_offset 14, -4
 379 000c 0446     		mov	r4, r0
 266:Drivers/BSP/Components/iis2mdc/iis2mdc.c ****   {
 380              		.loc 1 266 3 is_stmt 1 view .LVU102
 266:Drivers/BSP/Components/iis2mdc/iis2mdc.c ****   {
 381              		.loc 1 266 7 is_stmt 0 view .LVU103
 382 000e 0221     		movs	r1, #2
 383 0010 2030     		adds	r0, r0, #32
 384              	.LVL35:
 266:Drivers/BSP/Components/iis2mdc/iis2mdc.c ****   {
 385              		.loc 1 266 7 view .LVU104
 386 0012 FFF7FEFF 		bl	iis2mdc_operating_mode_set
 387              	.LVL36:
 266:Drivers/BSP/Components/iis2mdc/iis2mdc.c ****   {
ARM GAS  C:\Temp\ccl7wzJh.s 			page 18


 388              		.loc 1 266 6 view .LVU105
 389 0016 10B9     		cbnz	r0, .L26
 271:Drivers/BSP/Components/iis2mdc/iis2mdc.c **** 
 390              		.loc 1 271 3 is_stmt 1 view .LVU106
 271:Drivers/BSP/Components/iis2mdc/iis2mdc.c **** 
 391              		.loc 1 271 24 is_stmt 0 view .LVU107
 392 0018 84F83100 		strb	r0, [r4, #49]
 273:Drivers/BSP/Components/iis2mdc/iis2mdc.c **** }
 393              		.loc 1 273 3 is_stmt 1 view .LVU108
 394              	.L23:
 274:Drivers/BSP/Components/iis2mdc/iis2mdc.c **** 
 395              		.loc 1 274 1 is_stmt 0 view .LVU109
 396 001c 10BD     		pop	{r4, pc}
 397              	.LVL37:
 398              	.L26:
 268:Drivers/BSP/Components/iis2mdc/iis2mdc.c ****   }
 399              		.loc 1 268 12 view .LVU110
 400 001e 4FF0FF30 		mov	r0, #-1
 401 0022 FBE7     		b	.L23
 402              		.cfi_endproc
 403              	.LFE6:
 405              		.section	.text.IIS2MDC_DeInit,"ax",%progbits
 406              		.align	1
 407              		.global	IIS2MDC_DeInit
 408              		.syntax unified
 409              		.thumb
 410              		.thumb_func
 412              	IIS2MDC_DeInit:
 413              	.LVL38:
 414              	.LFB2:
 176:Drivers/BSP/Components/iis2mdc/iis2mdc.c ****   /* Disable the component */
 415              		.loc 1 176 1 is_stmt 1 view -0
 416              		.cfi_startproc
 417              		@ args = 0, pretend = 0, frame = 0
 418              		@ frame_needed = 0, uses_anonymous_args = 0
 176:Drivers/BSP/Components/iis2mdc/iis2mdc.c ****   /* Disable the component */
 419              		.loc 1 176 1 is_stmt 0 view .LVU112
 420 0000 10B5     		push	{r4, lr}
 421              		.cfi_def_cfa_offset 8
 422              		.cfi_offset 4, -8
 423              		.cfi_offset 14, -4
 424 0002 0446     		mov	r4, r0
 178:Drivers/BSP/Components/iis2mdc/iis2mdc.c ****   {
 425              		.loc 1 178 3 is_stmt 1 view .LVU113
 178:Drivers/BSP/Components/iis2mdc/iis2mdc.c ****   {
 426              		.loc 1 178 7 is_stmt 0 view .LVU114
 427 0004 FFF7FEFF 		bl	IIS2MDC_MAG_Disable
 428              	.LVL39:
 178:Drivers/BSP/Components/iis2mdc/iis2mdc.c ****   {
 429              		.loc 1 178 6 view .LVU115
 430 0008 10B9     		cbnz	r0, .L34
 183:Drivers/BSP/Components/iis2mdc/iis2mdc.c **** 
 431              		.loc 1 183 3 is_stmt 1 view .LVU116
 183:Drivers/BSP/Components/iis2mdc/iis2mdc.c **** 
 432              		.loc 1 183 24 is_stmt 0 view .LVU117
 433 000a 84F83000 		strb	r0, [r4, #48]
 185:Drivers/BSP/Components/iis2mdc/iis2mdc.c **** }
ARM GAS  C:\Temp\ccl7wzJh.s 			page 19


 434              		.loc 1 185 3 is_stmt 1 view .LVU118
 435              	.L32:
 186:Drivers/BSP/Components/iis2mdc/iis2mdc.c **** 
 436              		.loc 1 186 1 is_stmt 0 view .LVU119
 437 000e 10BD     		pop	{r4, pc}
 438              	.LVL40:
 439              	.L34:
 180:Drivers/BSP/Components/iis2mdc/iis2mdc.c ****   }
 440              		.loc 1 180 12 view .LVU120
 441 0010 4FF0FF30 		mov	r0, #-1
 442 0014 FBE7     		b	.L32
 443              		.cfi_endproc
 444              	.LFE2:
 446              		.section	.text.IIS2MDC_MAG_SetOutputDataRate,"ax",%progbits
 447              		.align	1
 448              		.global	IIS2MDC_MAG_SetOutputDataRate
 449              		.syntax unified
 450              		.thumb
 451              		.thumb_func
 453              	IIS2MDC_MAG_SetOutputDataRate:
 454              	.LVL41:
 455              	.LFB9:
 340:Drivers/BSP/Components/iis2mdc/iis2mdc.c ****   iis2mdc_odr_t new_odr;
 456              		.loc 1 340 1 is_stmt 1 view -0
 457              		.cfi_startproc
 458              		@ args = 0, pretend = 0, frame = 0
 459              		@ frame_needed = 0, uses_anonymous_args = 0
 340:Drivers/BSP/Components/iis2mdc/iis2mdc.c ****   iis2mdc_odr_t new_odr;
 460              		.loc 1 340 1 is_stmt 0 view .LVU122
 461 0000 08B5     		push	{r3, lr}
 462              		.cfi_def_cfa_offset 8
 463              		.cfi_offset 3, -8
 464              		.cfi_offset 14, -4
 341:Drivers/BSP/Components/iis2mdc/iis2mdc.c **** 
 465              		.loc 1 341 3 is_stmt 1 view .LVU123
 343:Drivers/BSP/Components/iis2mdc/iis2mdc.c ****             : (Odr <= 20.000f) ? IIS2MDC_ODR_20Hz
 466              		.loc 1 343 3 view .LVU124
 344:Drivers/BSP/Components/iis2mdc/iis2mdc.c ****             : (Odr <= 50.000f) ? IIS2MDC_ODR_50Hz
 467              		.loc 1 344 13 is_stmt 0 view .LVU125
 468 0002 F2EE047A 		vmov.f32	s15, #1.0e+1
 469 0006 B4EEE70A 		vcmpe.f32	s0, s15
 470 000a F1EE10FA 		vmrs	APSR_nzcv, FPSCR
 471 000e 0FD9     		bls	.L40
 344:Drivers/BSP/Components/iis2mdc/iis2mdc.c ****             : (Odr <= 50.000f) ? IIS2MDC_ODR_50Hz
 472              		.loc 1 344 13 discriminator 2 view .LVU126
 473 0010 F3EE047A 		vmov.f32	s15, #2.0e+1
 474 0014 B4EEE70A 		vcmpe.f32	s0, s15
 475 0018 F1EE10FA 		vmrs	APSR_nzcv, FPSCR
 476 001c 0ED9     		bls	.L41
 344:Drivers/BSP/Components/iis2mdc/iis2mdc.c ****             : (Odr <= 50.000f) ? IIS2MDC_ODR_50Hz
 477              		.loc 1 344 13 discriminator 4 view .LVU127
 478 001e DFED0B7A 		vldr.32	s15, .L48
 479 0022 B4EEE70A 		vcmpe.f32	s0, s15
 480 0026 F1EE10FA 		vmrs	APSR_nzcv, FPSCR
 481 002a 09D8     		bhi	.L45
 344:Drivers/BSP/Components/iis2mdc/iis2mdc.c ****             : (Odr <= 50.000f) ? IIS2MDC_ODR_50Hz
 482              		.loc 1 344 13 view .LVU128
ARM GAS  C:\Temp\ccl7wzJh.s 			page 20


 483 002c 0221     		movs	r1, #2
 484 002e 00E0     		b	.L37
 485              	.L40:
 486 0030 0021     		movs	r1, #0
 487              	.L37:
 488              	.LVL42:
 348:Drivers/BSP/Components/iis2mdc/iis2mdc.c ****   {
 489              		.loc 1 348 3 is_stmt 1 view .LVU129
 348:Drivers/BSP/Components/iis2mdc/iis2mdc.c ****   {
 490              		.loc 1 348 7 is_stmt 0 view .LVU130
 491 0032 2030     		adds	r0, r0, #32
 492              	.LVL43:
 348:Drivers/BSP/Components/iis2mdc/iis2mdc.c ****   {
 493              		.loc 1 348 7 view .LVU131
 494 0034 FFF7FEFF 		bl	iis2mdc_data_rate_set
 495              	.LVL44:
 348:Drivers/BSP/Components/iis2mdc/iis2mdc.c ****   {
 496              		.loc 1 348 6 view .LVU132
 497 0038 20B9     		cbnz	r0, .L47
 498              	.L36:
 354:Drivers/BSP/Components/iis2mdc/iis2mdc.c **** 
 499              		.loc 1 354 1 view .LVU133
 500 003a 08BD     		pop	{r3, pc}
 501              	.LVL45:
 502              	.L41:
 344:Drivers/BSP/Components/iis2mdc/iis2mdc.c ****             : (Odr <= 50.000f) ? IIS2MDC_ODR_50Hz
 503              		.loc 1 344 13 view .LVU134
 504 003c 0121     		movs	r1, #1
 505 003e F8E7     		b	.L37
 506              	.L45:
 507 0040 0321     		movs	r1, #3
 508 0042 F6E7     		b	.L37
 509              	.LVL46:
 510              	.L47:
 350:Drivers/BSP/Components/iis2mdc/iis2mdc.c ****   }
 511              		.loc 1 350 12 view .LVU135
 512 0044 4FF0FF30 		mov	r0, #-1
 513 0048 F7E7     		b	.L36
 514              	.L49:
 515 004a 00BF     		.align	2
 516              	.L48:
 517 004c 00004842 		.word	1112014848
 518              		.cfi_endproc
 519              	.LFE9:
 521              		.section	.text.IIS2MDC_Init,"ax",%progbits
 522              		.align	1
 523              		.global	IIS2MDC_Init
 524              		.syntax unified
 525              		.thumb
 526              		.thumb_func
 528              	IIS2MDC_Init:
 529              	.LVL47:
 530              	.LFB1:
 140:Drivers/BSP/Components/iis2mdc/iis2mdc.c ****   /* Enable BDU */
 531              		.loc 1 140 1 is_stmt 1 view -0
 532              		.cfi_startproc
 533              		@ args = 0, pretend = 0, frame = 0
ARM GAS  C:\Temp\ccl7wzJh.s 			page 21


 534              		@ frame_needed = 0, uses_anonymous_args = 0
 140:Drivers/BSP/Components/iis2mdc/iis2mdc.c ****   /* Enable BDU */
 535              		.loc 1 140 1 is_stmt 0 view .LVU137
 536 0000 38B5     		push	{r3, r4, r5, lr}
 537              		.cfi_def_cfa_offset 16
 538              		.cfi_offset 3, -16
 539              		.cfi_offset 4, -12
 540              		.cfi_offset 5, -8
 541              		.cfi_offset 14, -4
 542 0002 0446     		mov	r4, r0
 142:Drivers/BSP/Components/iis2mdc/iis2mdc.c ****   {
 543              		.loc 1 142 3 is_stmt 1 view .LVU138
 142:Drivers/BSP/Components/iis2mdc/iis2mdc.c ****   {
 544              		.loc 1 142 7 is_stmt 0 view .LVU139
 545 0004 00F12005 		add	r5, r0, #32
 546 0008 0121     		movs	r1, #1
 547 000a 2846     		mov	r0, r5
 548              	.LVL48:
 142:Drivers/BSP/Components/iis2mdc/iis2mdc.c ****   {
 549              		.loc 1 142 7 view .LVU140
 550 000c FFF7FEFF 		bl	iis2mdc_block_data_update_set
 551              	.LVL49:
 142:Drivers/BSP/Components/iis2mdc/iis2mdc.c ****   {
 552              		.loc 1 142 6 view .LVU141
 553 0010 90B9     		cbnz	r0, .L52
 148:Drivers/BSP/Components/iis2mdc/iis2mdc.c ****   {
 554              		.loc 1 148 3 is_stmt 1 view .LVU142
 148:Drivers/BSP/Components/iis2mdc/iis2mdc.c ****   {
 555              		.loc 1 148 7 is_stmt 0 view .LVU143
 556 0012 0221     		movs	r1, #2
 557 0014 2846     		mov	r0, r5
 558 0016 FFF7FEFF 		bl	iis2mdc_operating_mode_set
 559              	.LVL50:
 148:Drivers/BSP/Components/iis2mdc/iis2mdc.c ****   {
 560              		.loc 1 148 6 view .LVU144
 561 001a 80B9     		cbnz	r0, .L53
 154:Drivers/BSP/Components/iis2mdc/iis2mdc.c ****   {
 562              		.loc 1 154 3 is_stmt 1 view .LVU145
 154:Drivers/BSP/Components/iis2mdc/iis2mdc.c ****   {
 563              		.loc 1 154 7 is_stmt 0 view .LVU146
 564 001c 0321     		movs	r1, #3
 565 001e 2846     		mov	r0, r5
 566 0020 FFF7FEFF 		bl	iis2mdc_data_rate_set
 567              	.LVL51:
 154:Drivers/BSP/Components/iis2mdc/iis2mdc.c ****   {
 568              		.loc 1 154 6 view .LVU147
 569 0024 70B9     		cbnz	r0, .L54
 160:Drivers/BSP/Components/iis2mdc/iis2mdc.c ****   {
 570              		.loc 1 160 3 is_stmt 1 view .LVU148
 160:Drivers/BSP/Components/iis2mdc/iis2mdc.c ****   {
 571              		.loc 1 160 7 is_stmt 0 view .LVU149
 572 0026 0021     		movs	r1, #0
 573 0028 2846     		mov	r0, r5
 574 002a FFF7FEFF 		bl	iis2mdc_self_test_set
 575              	.LVL52:
 160:Drivers/BSP/Components/iis2mdc/iis2mdc.c ****   {
 576              		.loc 1 160 6 view .LVU150
ARM GAS  C:\Temp\ccl7wzJh.s 			page 22


 577 002e 60B9     		cbnz	r0, .L55
 165:Drivers/BSP/Components/iis2mdc/iis2mdc.c **** 
 578              		.loc 1 165 3 is_stmt 1 view .LVU151
 165:Drivers/BSP/Components/iis2mdc/iis2mdc.c **** 
 579              		.loc 1 165 24 is_stmt 0 view .LVU152
 580 0030 0123     		movs	r3, #1
 581 0032 84F83030 		strb	r3, [r4, #48]
 167:Drivers/BSP/Components/iis2mdc/iis2mdc.c **** }
 582              		.loc 1 167 3 is_stmt 1 view .LVU153
 583              	.L50:
 168:Drivers/BSP/Components/iis2mdc/iis2mdc.c **** 
 584              		.loc 1 168 1 is_stmt 0 view .LVU154
 585 0036 38BD     		pop	{r3, r4, r5, pc}
 586              	.LVL53:
 587              	.L52:
 144:Drivers/BSP/Components/iis2mdc/iis2mdc.c ****   }
 588              		.loc 1 144 12 view .LVU155
 589 0038 4FF0FF30 		mov	r0, #-1
 590 003c FBE7     		b	.L50
 591              	.L53:
 150:Drivers/BSP/Components/iis2mdc/iis2mdc.c ****   }
 592              		.loc 1 150 12 view .LVU156
 593 003e 4FF0FF30 		mov	r0, #-1
 594 0042 F8E7     		b	.L50
 595              	.L54:
 156:Drivers/BSP/Components/iis2mdc/iis2mdc.c ****   }
 596              		.loc 1 156 12 view .LVU157
 597 0044 4FF0FF30 		mov	r0, #-1
 598 0048 F5E7     		b	.L50
 599              	.L55:
 162:Drivers/BSP/Components/iis2mdc/iis2mdc.c ****   }
 600              		.loc 1 162 12 view .LVU158
 601 004a 4FF0FF30 		mov	r0, #-1
 602 004e F2E7     		b	.L50
 603              		.cfi_endproc
 604              	.LFE1:
 606              		.section	.text.IIS2MDC_ReadID,"ax",%progbits
 607              		.align	1
 608              		.global	IIS2MDC_ReadID
 609              		.syntax unified
 610              		.thumb
 611              		.thumb_func
 613              	IIS2MDC_ReadID:
 614              	.LVL54:
 615              	.LFB3:
 195:Drivers/BSP/Components/iis2mdc/iis2mdc.c ****   if (iis2mdc_device_id_get(&(pObj->Ctx), Id) != IIS2MDC_OK)
 616              		.loc 1 195 1 is_stmt 1 view -0
 617              		.cfi_startproc
 618              		@ args = 0, pretend = 0, frame = 0
 619              		@ frame_needed = 0, uses_anonymous_args = 0
 195:Drivers/BSP/Components/iis2mdc/iis2mdc.c ****   if (iis2mdc_device_id_get(&(pObj->Ctx), Id) != IIS2MDC_OK)
 620              		.loc 1 195 1 is_stmt 0 view .LVU160
 621 0000 08B5     		push	{r3, lr}
 622              		.cfi_def_cfa_offset 8
 623              		.cfi_offset 3, -8
 624              		.cfi_offset 14, -4
 196:Drivers/BSP/Components/iis2mdc/iis2mdc.c ****   {
ARM GAS  C:\Temp\ccl7wzJh.s 			page 23


 625              		.loc 1 196 3 is_stmt 1 view .LVU161
 196:Drivers/BSP/Components/iis2mdc/iis2mdc.c ****   {
 626              		.loc 1 196 7 is_stmt 0 view .LVU162
 627 0002 2030     		adds	r0, r0, #32
 628              	.LVL55:
 196:Drivers/BSP/Components/iis2mdc/iis2mdc.c ****   {
 629              		.loc 1 196 7 view .LVU163
 630 0004 FFF7FEFF 		bl	iis2mdc_device_id_get
 631              	.LVL56:
 196:Drivers/BSP/Components/iis2mdc/iis2mdc.c ****   {
 632              		.loc 1 196 6 view .LVU164
 633 0008 00B9     		cbnz	r0, .L61
 634              	.L57:
 202:Drivers/BSP/Components/iis2mdc/iis2mdc.c **** 
 635              		.loc 1 202 1 view .LVU165
 636 000a 08BD     		pop	{r3, pc}
 637              	.L61:
 198:Drivers/BSP/Components/iis2mdc/iis2mdc.c ****   }
 638              		.loc 1 198 12 view .LVU166
 639 000c 4FF0FF30 		mov	r0, #-1
 640 0010 FBE7     		b	.L57
 641              		.cfi_endproc
 642              	.LFE3:
 644              		.section	.text.IIS2MDC_MAG_GetOutputDataRate,"ax",%progbits
 645              		.align	1
 646              		.global	IIS2MDC_MAG_GetOutputDataRate
 647              		.syntax unified
 648              		.thumb
 649              		.thumb_func
 651              	IIS2MDC_MAG_GetOutputDataRate:
 652              	.LVL57:
 653              	.LFB8:
 297:Drivers/BSP/Components/iis2mdc/iis2mdc.c ****   int32_t ret = IIS2MDC_OK;
 654              		.loc 1 297 1 is_stmt 1 view -0
 655              		.cfi_startproc
 656              		@ args = 0, pretend = 0, frame = 8
 657              		@ frame_needed = 0, uses_anonymous_args = 0
 297:Drivers/BSP/Components/iis2mdc/iis2mdc.c ****   int32_t ret = IIS2MDC_OK;
 658              		.loc 1 297 1 is_stmt 0 view .LVU168
 659 0000 10B5     		push	{r4, lr}
 660              		.cfi_def_cfa_offset 8
 661              		.cfi_offset 4, -8
 662              		.cfi_offset 14, -4
 663 0002 82B0     		sub	sp, sp, #8
 664              		.cfi_def_cfa_offset 16
 665 0004 0C46     		mov	r4, r1
 298:Drivers/BSP/Components/iis2mdc/iis2mdc.c ****   iis2mdc_odr_t odr_low_level;
 666              		.loc 1 298 3 is_stmt 1 view .LVU169
 667              	.LVL58:
 299:Drivers/BSP/Components/iis2mdc/iis2mdc.c **** 
 668              		.loc 1 299 3 view .LVU170
 302:Drivers/BSP/Components/iis2mdc/iis2mdc.c ****   {
 669              		.loc 1 302 3 view .LVU171
 302:Drivers/BSP/Components/iis2mdc/iis2mdc.c ****   {
 670              		.loc 1 302 7 is_stmt 0 view .LVU172
 671 0006 0DF10701 		add	r1, sp, #7
 672              	.LVL59:
ARM GAS  C:\Temp\ccl7wzJh.s 			page 24


 302:Drivers/BSP/Components/iis2mdc/iis2mdc.c ****   {
 673              		.loc 1 302 7 view .LVU173
 674 000a 2030     		adds	r0, r0, #32
 675              	.LVL60:
 302:Drivers/BSP/Components/iis2mdc/iis2mdc.c ****   {
 676              		.loc 1 302 7 view .LVU174
 677 000c FFF7FEFF 		bl	iis2mdc_data_rate_get
 678              	.LVL61:
 302:Drivers/BSP/Components/iis2mdc/iis2mdc.c ****   {
 679              		.loc 1 302 6 view .LVU175
 680 0010 A0B9     		cbnz	r0, .L69
 307:Drivers/BSP/Components/iis2mdc/iis2mdc.c ****   {
 681              		.loc 1 307 3 is_stmt 1 view .LVU176
 682 0012 9DF80730 		ldrb	r3, [sp, #7]	@ zero_extendqisi2
 683 0016 032B     		cmp	r3, #3
 684 0018 13D8     		bhi	.L70
 685 001a DFE803F0 		tbb	[pc, r3]
 686              	.L65:
 687 001e 02       		.byte	(.L68-.L65)/2
 688 001f 06       		.byte	(.L67-.L65)/2
 689 0020 09       		.byte	(.L66-.L65)/2
 690 0021 0C       		.byte	(.L64-.L65)/2
 691              		.p2align 1
 692              	.L68:
 310:Drivers/BSP/Components/iis2mdc/iis2mdc.c ****       break;
 693              		.loc 1 310 7 view .LVU177
 310:Drivers/BSP/Components/iis2mdc/iis2mdc.c ****       break;
 694              		.loc 1 310 12 is_stmt 0 view .LVU178
 695 0022 094B     		ldr	r3, .L72
 696 0024 2360     		str	r3, [r4]	@ float
 311:Drivers/BSP/Components/iis2mdc/iis2mdc.c **** 
 697              		.loc 1 311 7 is_stmt 1 view .LVU179
 698              	.LVL62:
 699              	.L62:
 331:Drivers/BSP/Components/iis2mdc/iis2mdc.c **** 
 700              		.loc 1 331 1 is_stmt 0 view .LVU180
 701 0026 02B0     		add	sp, sp, #8
 702              		.cfi_remember_state
 703              		.cfi_def_cfa_offset 8
 704              		@ sp needed
 705 0028 10BD     		pop	{r4, pc}
 706              	.LVL63:
 707              	.L67:
 708              		.cfi_restore_state
 314:Drivers/BSP/Components/iis2mdc/iis2mdc.c ****       break;
 709              		.loc 1 314 7 is_stmt 1 view .LVU181
 314:Drivers/BSP/Components/iis2mdc/iis2mdc.c ****       break;
 710              		.loc 1 314 12 is_stmt 0 view .LVU182
 711 002a 084B     		ldr	r3, .L72+4
 712 002c 2360     		str	r3, [r4]	@ float
 315:Drivers/BSP/Components/iis2mdc/iis2mdc.c **** 
 713              		.loc 1 315 7 is_stmt 1 view .LVU183
 714 002e FAE7     		b	.L62
 715              	.L66:
 318:Drivers/BSP/Components/iis2mdc/iis2mdc.c ****       break;
 716              		.loc 1 318 7 view .LVU184
 318:Drivers/BSP/Components/iis2mdc/iis2mdc.c ****       break;
ARM GAS  C:\Temp\ccl7wzJh.s 			page 25


 717              		.loc 1 318 12 is_stmt 0 view .LVU185
 718 0030 074B     		ldr	r3, .L72+8
 719 0032 2360     		str	r3, [r4]	@ float
 319:Drivers/BSP/Components/iis2mdc/iis2mdc.c **** 
 720              		.loc 1 319 7 is_stmt 1 view .LVU186
 721 0034 F7E7     		b	.L62
 722              	.L64:
 322:Drivers/BSP/Components/iis2mdc/iis2mdc.c ****       break;
 723              		.loc 1 322 7 view .LVU187
 322:Drivers/BSP/Components/iis2mdc/iis2mdc.c ****       break;
 724              		.loc 1 322 12 is_stmt 0 view .LVU188
 725 0036 074B     		ldr	r3, .L72+12
 726 0038 2360     		str	r3, [r4]	@ float
 323:Drivers/BSP/Components/iis2mdc/iis2mdc.c **** 
 727              		.loc 1 323 7 is_stmt 1 view .LVU189
 728 003a F4E7     		b	.L62
 729              	.L69:
 304:Drivers/BSP/Components/iis2mdc/iis2mdc.c ****   }
 730              		.loc 1 304 12 is_stmt 0 view .LVU190
 731 003c 4FF0FF30 		mov	r0, #-1
 732 0040 F1E7     		b	.L62
 733              	.L70:
 307:Drivers/BSP/Components/iis2mdc/iis2mdc.c ****   {
 734              		.loc 1 307 3 view .LVU191
 735 0042 4FF0FF30 		mov	r0, #-1
 736              	.LVL64:
 307:Drivers/BSP/Components/iis2mdc/iis2mdc.c ****   {
 737              		.loc 1 307 3 view .LVU192
 738 0046 EEE7     		b	.L62
 739              	.L73:
 740              		.align	2
 741              	.L72:
 742 0048 00002041 		.word	1092616192
 743 004c 0000A041 		.word	1101004800
 744 0050 00004842 		.word	1112014848
 745 0054 0000C842 		.word	1120403456
 746              		.cfi_endproc
 747              	.LFE8:
 749              		.section	.text.IIS2MDC_MAG_GetAxesRaw,"ax",%progbits
 750              		.align	1
 751              		.global	IIS2MDC_MAG_GetAxesRaw
 752              		.syntax unified
 753              		.thumb
 754              		.thumb_func
 756              	IIS2MDC_MAG_GetAxesRaw:
 757              	.LVL65:
 758              	.LFB12:
 391:Drivers/BSP/Components/iis2mdc/iis2mdc.c ****   iis2mdc_axis3bit16_t data_raw;
 759              		.loc 1 391 1 is_stmt 1 view -0
 760              		.cfi_startproc
 761              		@ args = 0, pretend = 0, frame = 8
 762              		@ frame_needed = 0, uses_anonymous_args = 0
 391:Drivers/BSP/Components/iis2mdc/iis2mdc.c ****   iis2mdc_axis3bit16_t data_raw;
 763              		.loc 1 391 1 is_stmt 0 view .LVU194
 764 0000 10B5     		push	{r4, lr}
 765              		.cfi_def_cfa_offset 8
 766              		.cfi_offset 4, -8
ARM GAS  C:\Temp\ccl7wzJh.s 			page 26


 767              		.cfi_offset 14, -4
 768 0002 82B0     		sub	sp, sp, #8
 769              		.cfi_def_cfa_offset 16
 770 0004 0C46     		mov	r4, r1
 392:Drivers/BSP/Components/iis2mdc/iis2mdc.c **** 
 771              		.loc 1 392 3 is_stmt 1 view .LVU195
 395:Drivers/BSP/Components/iis2mdc/iis2mdc.c ****   {
 772              		.loc 1 395 3 view .LVU196
 395:Drivers/BSP/Components/iis2mdc/iis2mdc.c ****   {
 773              		.loc 1 395 7 is_stmt 0 view .LVU197
 774 0006 6946     		mov	r1, sp
 775              	.LVL66:
 395:Drivers/BSP/Components/iis2mdc/iis2mdc.c ****   {
 776              		.loc 1 395 7 view .LVU198
 777 0008 2030     		adds	r0, r0, #32
 778              	.LVL67:
 395:Drivers/BSP/Components/iis2mdc/iis2mdc.c ****   {
 779              		.loc 1 395 7 view .LVU199
 780 000a FFF7FEFF 		bl	iis2mdc_magnetic_raw_get
 781              	.LVL68:
 395:Drivers/BSP/Components/iis2mdc/iis2mdc.c ****   {
 782              		.loc 1 395 6 view .LVU200
 783 000e 50B9     		cbnz	r0, .L76
 401:Drivers/BSP/Components/iis2mdc/iis2mdc.c ****   Value->y = data_raw.i16bit[1];
 784              		.loc 1 401 3 is_stmt 1 view .LVU201
 401:Drivers/BSP/Components/iis2mdc/iis2mdc.c ****   Value->y = data_raw.i16bit[1];
 785              		.loc 1 401 29 is_stmt 0 view .LVU202
 786 0010 BDF90030 		ldrsh	r3, [sp]
 401:Drivers/BSP/Components/iis2mdc/iis2mdc.c ****   Value->y = data_raw.i16bit[1];
 787              		.loc 1 401 12 view .LVU203
 788 0014 2380     		strh	r3, [r4]	@ movhi
 402:Drivers/BSP/Components/iis2mdc/iis2mdc.c ****   Value->z = data_raw.i16bit[2];
 789              		.loc 1 402 3 is_stmt 1 view .LVU204
 402:Drivers/BSP/Components/iis2mdc/iis2mdc.c ****   Value->z = data_raw.i16bit[2];
 790              		.loc 1 402 29 is_stmt 0 view .LVU205
 791 0016 BDF90230 		ldrsh	r3, [sp, #2]
 402:Drivers/BSP/Components/iis2mdc/iis2mdc.c ****   Value->z = data_raw.i16bit[2];
 792              		.loc 1 402 12 view .LVU206
 793 001a 6380     		strh	r3, [r4, #2]	@ movhi
 403:Drivers/BSP/Components/iis2mdc/iis2mdc.c **** 
 794              		.loc 1 403 3 is_stmt 1 view .LVU207
 403:Drivers/BSP/Components/iis2mdc/iis2mdc.c **** 
 795              		.loc 1 403 29 is_stmt 0 view .LVU208
 796 001c BDF90430 		ldrsh	r3, [sp, #4]
 403:Drivers/BSP/Components/iis2mdc/iis2mdc.c **** 
 797              		.loc 1 403 12 view .LVU209
 798 0020 A380     		strh	r3, [r4, #4]	@ movhi
 405:Drivers/BSP/Components/iis2mdc/iis2mdc.c **** }
 799              		.loc 1 405 3 is_stmt 1 view .LVU210
 800              	.L74:
 406:Drivers/BSP/Components/iis2mdc/iis2mdc.c **** 
 801              		.loc 1 406 1 is_stmt 0 view .LVU211
 802 0022 02B0     		add	sp, sp, #8
 803              		.cfi_remember_state
 804              		.cfi_def_cfa_offset 8
 805              		@ sp needed
 806 0024 10BD     		pop	{r4, pc}
ARM GAS  C:\Temp\ccl7wzJh.s 			page 27


 807              	.LVL69:
 808              	.L76:
 809              		.cfi_restore_state
 397:Drivers/BSP/Components/iis2mdc/iis2mdc.c ****   }
 810              		.loc 1 397 12 view .LVU212
 811 0026 4FF0FF30 		mov	r0, #-1
 812 002a FAE7     		b	.L74
 813              		.cfi_endproc
 814              	.LFE12:
 816              		.section	.text.IIS2MDC_MAG_GetAxes,"ax",%progbits
 817              		.align	1
 818              		.global	IIS2MDC_MAG_GetAxes
 819              		.syntax unified
 820              		.thumb
 821              		.thumb_func
 823              	IIS2MDC_MAG_GetAxes:
 824              	.LVL70:
 825              	.LFB13:
 415:Drivers/BSP/Components/iis2mdc/iis2mdc.c ****   iis2mdc_axis3bit16_t data_raw;
 826              		.loc 1 415 1 is_stmt 1 view -0
 827              		.cfi_startproc
 828              		@ args = 0, pretend = 0, frame = 16
 829              		@ frame_needed = 0, uses_anonymous_args = 0
 415:Drivers/BSP/Components/iis2mdc/iis2mdc.c ****   iis2mdc_axis3bit16_t data_raw;
 830              		.loc 1 415 1 is_stmt 0 view .LVU214
 831 0000 70B5     		push	{r4, r5, r6, lr}
 832              		.cfi_def_cfa_offset 16
 833              		.cfi_offset 4, -16
 834              		.cfi_offset 5, -12
 835              		.cfi_offset 6, -8
 836              		.cfi_offset 14, -4
 837 0002 84B0     		sub	sp, sp, #16
 838              		.cfi_def_cfa_offset 32
 839 0004 0546     		mov	r5, r0
 840 0006 0C46     		mov	r4, r1
 416:Drivers/BSP/Components/iis2mdc/iis2mdc.c ****   float sensitivity = 0.0f;
 841              		.loc 1 416 3 is_stmt 1 view .LVU215
 417:Drivers/BSP/Components/iis2mdc/iis2mdc.c **** 
 842              		.loc 1 417 3 view .LVU216
 417:Drivers/BSP/Components/iis2mdc/iis2mdc.c **** 
 843              		.loc 1 417 9 is_stmt 0 view .LVU217
 844 0008 0023     		movs	r3, #0
 845 000a 0193     		str	r3, [sp, #4]	@ float
 420:Drivers/BSP/Components/iis2mdc/iis2mdc.c ****   {
 846              		.loc 1 420 3 is_stmt 1 view .LVU218
 420:Drivers/BSP/Components/iis2mdc/iis2mdc.c ****   {
 847              		.loc 1 420 7 is_stmt 0 view .LVU219
 848 000c 02A9     		add	r1, sp, #8
 849              	.LVL71:
 420:Drivers/BSP/Components/iis2mdc/iis2mdc.c ****   {
 850              		.loc 1 420 7 view .LVU220
 851 000e 2030     		adds	r0, r0, #32
 852              	.LVL72:
 420:Drivers/BSP/Components/iis2mdc/iis2mdc.c ****   {
 853              		.loc 1 420 7 view .LVU221
 854 0010 FFF7FEFF 		bl	iis2mdc_magnetic_raw_get
 855              	.LVL73:
ARM GAS  C:\Temp\ccl7wzJh.s 			page 28


 420:Drivers/BSP/Components/iis2mdc/iis2mdc.c ****   {
 856              		.loc 1 420 6 view .LVU222
 857 0014 68BB     		cbnz	r0, .L80
 858 0016 0646     		mov	r6, r0
 426:Drivers/BSP/Components/iis2mdc/iis2mdc.c **** 
 859              		.loc 1 426 3 is_stmt 1 view .LVU223
 426:Drivers/BSP/Components/iis2mdc/iis2mdc.c **** 
 860              		.loc 1 426 9 is_stmt 0 view .LVU224
 861 0018 01A9     		add	r1, sp, #4
 862 001a 2846     		mov	r0, r5
 863 001c FFF7FEFF 		bl	IIS2MDC_MAG_GetSensitivity
 864              	.LVL74:
 429:Drivers/BSP/Components/iis2mdc/iis2mdc.c ****   MagneticField->y = (int32_t)((float)((float)data_raw.i16bit[1] * sensitivity));
 865              		.loc 1 429 3 is_stmt 1 view .LVU225
 429:Drivers/BSP/Components/iis2mdc/iis2mdc.c ****   MagneticField->y = (int32_t)((float)((float)data_raw.i16bit[1] * sensitivity));
 866              		.loc 1 429 62 is_stmt 0 view .LVU226
 867 0020 BDF90830 		ldrsh	r3, [sp, #8]
 868 0024 07EE103A 		vmov	s14, r3	@ int
 429:Drivers/BSP/Components/iis2mdc/iis2mdc.c ****   MagneticField->y = (int32_t)((float)((float)data_raw.i16bit[1] * sensitivity));
 869              		.loc 1 429 40 view .LVU227
 870 0028 B8EEC77A 		vcvt.f32.s32	s14, s14
 429:Drivers/BSP/Components/iis2mdc/iis2mdc.c ****   MagneticField->y = (int32_t)((float)((float)data_raw.i16bit[1] * sensitivity));
 871              		.loc 1 429 32 view .LVU228
 872 002c DDED017A 		vldr.32	s15, [sp, #4]
 873 0030 27EE277A 		vmul.f32	s14, s14, s15
 429:Drivers/BSP/Components/iis2mdc/iis2mdc.c ****   MagneticField->y = (int32_t)((float)((float)data_raw.i16bit[1] * sensitivity));
 874              		.loc 1 429 22 view .LVU229
 875 0034 BDEEC77A 		vcvt.s32.f32	s14, s14
 429:Drivers/BSP/Components/iis2mdc/iis2mdc.c ****   MagneticField->y = (int32_t)((float)((float)data_raw.i16bit[1] * sensitivity));
 876              		.loc 1 429 20 view .LVU230
 877 0038 84ED007A 		vstr.32	s14, [r4]	@ int
 430:Drivers/BSP/Components/iis2mdc/iis2mdc.c ****   MagneticField->z = (int32_t)((float)((float)data_raw.i16bit[2] * sensitivity));
 878              		.loc 1 430 3 is_stmt 1 view .LVU231
 430:Drivers/BSP/Components/iis2mdc/iis2mdc.c ****   MagneticField->z = (int32_t)((float)((float)data_raw.i16bit[2] * sensitivity));
 879              		.loc 1 430 62 is_stmt 0 view .LVU232
 880 003c BDF90A30 		ldrsh	r3, [sp, #10]
 881 0040 07EE103A 		vmov	s14, r3	@ int
 430:Drivers/BSP/Components/iis2mdc/iis2mdc.c ****   MagneticField->z = (int32_t)((float)((float)data_raw.i16bit[2] * sensitivity));
 882              		.loc 1 430 40 view .LVU233
 883 0044 B8EEC77A 		vcvt.f32.s32	s14, s14
 430:Drivers/BSP/Components/iis2mdc/iis2mdc.c ****   MagneticField->z = (int32_t)((float)((float)data_raw.i16bit[2] * sensitivity));
 884              		.loc 1 430 32 view .LVU234
 885 0048 27EE277A 		vmul.f32	s14, s14, s15
 430:Drivers/BSP/Components/iis2mdc/iis2mdc.c ****   MagneticField->z = (int32_t)((float)((float)data_raw.i16bit[2] * sensitivity));
 886              		.loc 1 430 22 view .LVU235
 887 004c BDEEC77A 		vcvt.s32.f32	s14, s14
 430:Drivers/BSP/Components/iis2mdc/iis2mdc.c ****   MagneticField->z = (int32_t)((float)((float)data_raw.i16bit[2] * sensitivity));
 888              		.loc 1 430 20 view .LVU236
 889 0050 84ED017A 		vstr.32	s14, [r4, #4]	@ int
 431:Drivers/BSP/Components/iis2mdc/iis2mdc.c **** 
 890              		.loc 1 431 3 is_stmt 1 view .LVU237
 431:Drivers/BSP/Components/iis2mdc/iis2mdc.c **** 
 891              		.loc 1 431 62 is_stmt 0 view .LVU238
 892 0054 BDF90C30 		ldrsh	r3, [sp, #12]
 893 0058 07EE103A 		vmov	s14, r3	@ int
 431:Drivers/BSP/Components/iis2mdc/iis2mdc.c **** 
 894              		.loc 1 431 40 view .LVU239
ARM GAS  C:\Temp\ccl7wzJh.s 			page 29


 895 005c B8EEC77A 		vcvt.f32.s32	s14, s14
 431:Drivers/BSP/Components/iis2mdc/iis2mdc.c **** 
 896              		.loc 1 431 32 view .LVU240
 897 0060 67EE877A 		vmul.f32	s15, s15, s14
 431:Drivers/BSP/Components/iis2mdc/iis2mdc.c **** 
 898              		.loc 1 431 22 view .LVU241
 899 0064 FDEEE77A 		vcvt.s32.f32	s15, s15
 431:Drivers/BSP/Components/iis2mdc/iis2mdc.c **** 
 900              		.loc 1 431 20 view .LVU242
 901 0068 C4ED027A 		vstr.32	s15, [r4, #8]	@ int
 433:Drivers/BSP/Components/iis2mdc/iis2mdc.c **** }
 902              		.loc 1 433 3 is_stmt 1 view .LVU243
 903              	.L78:
 434:Drivers/BSP/Components/iis2mdc/iis2mdc.c **** 
 904              		.loc 1 434 1 is_stmt 0 view .LVU244
 905 006c 3046     		mov	r0, r6
 906 006e 04B0     		add	sp, sp, #16
 907              		.cfi_remember_state
 908              		.cfi_def_cfa_offset 16
 909              		@ sp needed
 910 0070 70BD     		pop	{r4, r5, r6, pc}
 911              	.LVL75:
 912              	.L80:
 913              		.cfi_restore_state
 422:Drivers/BSP/Components/iis2mdc/iis2mdc.c ****   }
 914              		.loc 1 422 12 view .LVU245
 915 0072 4FF0FF36 		mov	r6, #-1
 916 0076 F9E7     		b	.L78
 917              		.cfi_endproc
 918              	.LFE13:
 920              		.section	.text.IIS2MDC_RegisterBusIO,"ax",%progbits
 921              		.align	1
 922              		.global	IIS2MDC_RegisterBusIO
 923              		.syntax unified
 924              		.thumb
 925              		.thumb_func
 927              	IIS2MDC_RegisterBusIO:
 928              	.LVL76:
 929              	.LFB0:
  84:Drivers/BSP/Components/iis2mdc/iis2mdc.c ****   int32_t ret = IIS2MDC_OK;
 930              		.loc 1 84 1 is_stmt 1 view -0
 931              		.cfi_startproc
 932              		@ args = 0, pretend = 0, frame = 0
 933              		@ frame_needed = 0, uses_anonymous_args = 0
  85:Drivers/BSP/Components/iis2mdc/iis2mdc.c **** 
 934              		.loc 1 85 3 view .LVU247
  87:Drivers/BSP/Components/iis2mdc/iis2mdc.c ****   {
 935              		.loc 1 87 3 view .LVU248
  87:Drivers/BSP/Components/iis2mdc/iis2mdc.c ****   {
 936              		.loc 1 87 6 is_stmt 0 view .LVU249
 937 0000 0028     		cmp	r0, #0
 938 0002 29D0     		beq	.L84
  84:Drivers/BSP/Components/iis2mdc/iis2mdc.c ****   int32_t ret = IIS2MDC_OK;
 939              		.loc 1 84 1 view .LVU250
 940 0004 10B5     		push	{r4, lr}
 941              		.cfi_def_cfa_offset 8
 942              		.cfi_offset 4, -8
ARM GAS  C:\Temp\ccl7wzJh.s 			page 30


 943              		.cfi_offset 14, -4
 944 0006 0446     		mov	r4, r0
  93:Drivers/BSP/Components/iis2mdc/iis2mdc.c ****     pObj->IO.DeInit    = pIO->DeInit;
 945              		.loc 1 93 5 is_stmt 1 view .LVU251
  93:Drivers/BSP/Components/iis2mdc/iis2mdc.c ****     pObj->IO.DeInit    = pIO->DeInit;
 946              		.loc 1 93 29 is_stmt 0 view .LVU252
 947 0008 0B68     		ldr	r3, [r1]
  93:Drivers/BSP/Components/iis2mdc/iis2mdc.c ****     pObj->IO.DeInit    = pIO->DeInit;
 948              		.loc 1 93 24 view .LVU253
 949 000a 0360     		str	r3, [r0]
  94:Drivers/BSP/Components/iis2mdc/iis2mdc.c ****     pObj->IO.BusType   = pIO->BusType;
 950              		.loc 1 94 5 is_stmt 1 view .LVU254
  94:Drivers/BSP/Components/iis2mdc/iis2mdc.c ****     pObj->IO.BusType   = pIO->BusType;
 951              		.loc 1 94 29 is_stmt 0 view .LVU255
 952 000c 4A68     		ldr	r2, [r1, #4]
  94:Drivers/BSP/Components/iis2mdc/iis2mdc.c ****     pObj->IO.BusType   = pIO->BusType;
 953              		.loc 1 94 24 view .LVU256
 954 000e 4260     		str	r2, [r0, #4]
  95:Drivers/BSP/Components/iis2mdc/iis2mdc.c ****     pObj->IO.Address   = pIO->Address;
 955              		.loc 1 95 5 is_stmt 1 view .LVU257
  95:Drivers/BSP/Components/iis2mdc/iis2mdc.c ****     pObj->IO.Address   = pIO->Address;
 956              		.loc 1 95 29 is_stmt 0 view .LVU258
 957 0010 8A68     		ldr	r2, [r1, #8]
  95:Drivers/BSP/Components/iis2mdc/iis2mdc.c ****     pObj->IO.Address   = pIO->Address;
 958              		.loc 1 95 24 view .LVU259
 959 0012 8260     		str	r2, [r0, #8]
  96:Drivers/BSP/Components/iis2mdc/iis2mdc.c ****     pObj->IO.WriteReg  = pIO->WriteReg;
 960              		.loc 1 96 5 is_stmt 1 view .LVU260
  96:Drivers/BSP/Components/iis2mdc/iis2mdc.c ****     pObj->IO.WriteReg  = pIO->WriteReg;
 961              		.loc 1 96 29 is_stmt 0 view .LVU261
 962 0014 0A7B     		ldrb	r2, [r1, #12]	@ zero_extendqisi2
  96:Drivers/BSP/Components/iis2mdc/iis2mdc.c ****     pObj->IO.WriteReg  = pIO->WriteReg;
 963              		.loc 1 96 24 view .LVU262
 964 0016 0273     		strb	r2, [r0, #12]
  97:Drivers/BSP/Components/iis2mdc/iis2mdc.c ****     pObj->IO.ReadReg   = pIO->ReadReg;
 965              		.loc 1 97 5 is_stmt 1 view .LVU263
  97:Drivers/BSP/Components/iis2mdc/iis2mdc.c ****     pObj->IO.ReadReg   = pIO->ReadReg;
 966              		.loc 1 97 29 is_stmt 0 view .LVU264
 967 0018 0A69     		ldr	r2, [r1, #16]
  97:Drivers/BSP/Components/iis2mdc/iis2mdc.c ****     pObj->IO.ReadReg   = pIO->ReadReg;
 968              		.loc 1 97 24 view .LVU265
 969 001a 0261     		str	r2, [r0, #16]
  98:Drivers/BSP/Components/iis2mdc/iis2mdc.c ****     pObj->IO.GetTick   = pIO->GetTick;
 970              		.loc 1 98 5 is_stmt 1 view .LVU266
  98:Drivers/BSP/Components/iis2mdc/iis2mdc.c ****     pObj->IO.GetTick   = pIO->GetTick;
 971              		.loc 1 98 29 is_stmt 0 view .LVU267
 972 001c 4A69     		ldr	r2, [r1, #20]
  98:Drivers/BSP/Components/iis2mdc/iis2mdc.c ****     pObj->IO.GetTick   = pIO->GetTick;
 973              		.loc 1 98 24 view .LVU268
 974 001e 4261     		str	r2, [r0, #20]
  99:Drivers/BSP/Components/iis2mdc/iis2mdc.c **** 
 975              		.loc 1 99 5 is_stmt 1 view .LVU269
  99:Drivers/BSP/Components/iis2mdc/iis2mdc.c **** 
 976              		.loc 1 99 29 is_stmt 0 view .LVU270
 977 0020 8A69     		ldr	r2, [r1, #24]
  99:Drivers/BSP/Components/iis2mdc/iis2mdc.c **** 
 978              		.loc 1 99 24 view .LVU271
ARM GAS  C:\Temp\ccl7wzJh.s 			page 31


 979 0022 8261     		str	r2, [r0, #24]
 101:Drivers/BSP/Components/iis2mdc/iis2mdc.c ****     pObj->Ctx.write_reg = WriteMagRegWrap;
 980              		.loc 1 101 5 is_stmt 1 view .LVU272
 101:Drivers/BSP/Components/iis2mdc/iis2mdc.c ****     pObj->Ctx.write_reg = WriteMagRegWrap;
 981              		.loc 1 101 25 is_stmt 0 view .LVU273
 982 0024 114A     		ldr	r2, .L93
 983 0026 4262     		str	r2, [r0, #36]
 102:Drivers/BSP/Components/iis2mdc/iis2mdc.c ****     pObj->Ctx.mdelay    = pIO->Delay;
 984              		.loc 1 102 5 is_stmt 1 view .LVU274
 102:Drivers/BSP/Components/iis2mdc/iis2mdc.c ****     pObj->Ctx.mdelay    = pIO->Delay;
 985              		.loc 1 102 25 is_stmt 0 view .LVU275
 986 0028 114A     		ldr	r2, .L93+4
 987 002a 0262     		str	r2, [r0, #32]
 103:Drivers/BSP/Components/iis2mdc/iis2mdc.c ****     pObj->Ctx.handle    = pObj;
 988              		.loc 1 103 5 is_stmt 1 view .LVU276
 103:Drivers/BSP/Components/iis2mdc/iis2mdc.c ****     pObj->Ctx.handle    = pObj;
 989              		.loc 1 103 30 is_stmt 0 view .LVU277
 990 002c CA69     		ldr	r2, [r1, #28]
 103:Drivers/BSP/Components/iis2mdc/iis2mdc.c ****     pObj->Ctx.handle    = pObj;
 991              		.loc 1 103 25 view .LVU278
 992 002e 8262     		str	r2, [r0, #40]
 104:Drivers/BSP/Components/iis2mdc/iis2mdc.c **** 
 993              		.loc 1 104 5 is_stmt 1 view .LVU279
 104:Drivers/BSP/Components/iis2mdc/iis2mdc.c **** 
 994              		.loc 1 104 25 is_stmt 0 view .LVU280
 995 0030 C062     		str	r0, [r0, #44]
 106:Drivers/BSP/Components/iis2mdc/iis2mdc.c ****     {
 996              		.loc 1 106 5 is_stmt 1 view .LVU281
 106:Drivers/BSP/Components/iis2mdc/iis2mdc.c ****     {
 997              		.loc 1 106 8 is_stmt 0 view .LVU282
 998 0032 A3B1     		cbz	r3, .L85
 110:Drivers/BSP/Components/iis2mdc/iis2mdc.c ****     {
 999              		.loc 1 110 10 is_stmt 1 view .LVU283
 110:Drivers/BSP/Components/iis2mdc/iis2mdc.c ****     {
 1000              		.loc 1 110 14 is_stmt 0 view .LVU284
 1001 0034 9847     		blx	r3
 1002              	.LVL77:
 110:Drivers/BSP/Components/iis2mdc/iis2mdc.c ****     {
 1003              		.loc 1 110 13 view .LVU285
 1004 0036 A8B9     		cbnz	r0, .L86
 116:Drivers/BSP/Components/iis2mdc/iis2mdc.c ****       {
 1005              		.loc 1 116 7 is_stmt 1 view .LVU286
 116:Drivers/BSP/Components/iis2mdc/iis2mdc.c ****       {
 1006              		.loc 1 116 19 is_stmt 0 view .LVU287
 1007 0038 A368     		ldr	r3, [r4, #8]
 116:Drivers/BSP/Components/iis2mdc/iis2mdc.c ****       {
 1008              		.loc 1 116 10 view .LVU288
 1009 003a 13B1     		cbz	r3, .L82
 119:Drivers/BSP/Components/iis2mdc/iis2mdc.c ****         {
 1010              		.loc 1 119 9 is_stmt 1 view .LVU289
 119:Drivers/BSP/Components/iis2mdc/iis2mdc.c ****         {
 1011              		.loc 1 119 17 is_stmt 0 view .LVU290
 1012 003c 94F83030 		ldrb	r3, [r4, #48]	@ zero_extendqisi2
 119:Drivers/BSP/Components/iis2mdc/iis2mdc.c ****         {
 1013              		.loc 1 119 12 view .LVU291
 1014 0040 03B1     		cbz	r3, .L92
 1015              	.LVL78:
ARM GAS  C:\Temp\ccl7wzJh.s 			page 32


 1016              	.L82:
 132:Drivers/BSP/Components/iis2mdc/iis2mdc.c **** 
 1017              		.loc 1 132 1 view .LVU292
 1018 0042 10BD     		pop	{r4, pc}
 1019              	.LVL79:
 1020              	.L92:
 122:Drivers/BSP/Components/iis2mdc/iis2mdc.c ****           {
 1021              		.loc 1 122 11 is_stmt 1 view .LVU293
 122:Drivers/BSP/Components/iis2mdc/iis2mdc.c ****           {
 1022              		.loc 1 122 15 is_stmt 0 view .LVU294
 1023 0044 0121     		movs	r1, #1
 1024 0046 04F12000 		add	r0, r4, #32
 1025 004a FFF7FEFF 		bl	iis2mdc_i2c_interface_set
 1026              	.LVL80:
 122:Drivers/BSP/Components/iis2mdc/iis2mdc.c ****           {
 1027              		.loc 1 122 14 view .LVU295
 1028 004e 0028     		cmp	r0, #0
 1029 0050 F7D0     		beq	.L82
 124:Drivers/BSP/Components/iis2mdc/iis2mdc.c ****           }
 1030              		.loc 1 124 17 view .LVU296
 1031 0052 4FF0FF30 		mov	r0, #-1
 1032              	.LVL81:
 131:Drivers/BSP/Components/iis2mdc/iis2mdc.c **** }
 1033              		.loc 1 131 3 is_stmt 1 view .LVU297
 131:Drivers/BSP/Components/iis2mdc/iis2mdc.c **** }
 1034              		.loc 1 131 10 is_stmt 0 view .LVU298
 1035 0056 F4E7     		b	.L82
 1036              	.LVL82:
 1037              	.L84:
 1038              		.cfi_def_cfa_offset 0
 1039              		.cfi_restore 4
 1040              		.cfi_restore 14
  89:Drivers/BSP/Components/iis2mdc/iis2mdc.c ****   }
 1041              		.loc 1 89 9 view .LVU299
 1042 0058 4FF0FF30 		mov	r0, #-1
 1043              	.LVL83:
 132:Drivers/BSP/Components/iis2mdc/iis2mdc.c **** 
 1044              		.loc 1 132 1 view .LVU300
 1045 005c 7047     		bx	lr
 1046              	.LVL84:
 1047              	.L85:
 1048              		.cfi_def_cfa_offset 8
 1049              		.cfi_offset 4, -8
 1050              		.cfi_offset 14, -4
 108:Drivers/BSP/Components/iis2mdc/iis2mdc.c ****     }
 1051              		.loc 1 108 11 view .LVU301
 1052 005e 4FF0FF30 		mov	r0, #-1
 1053              	.LVL85:
 108:Drivers/BSP/Components/iis2mdc/iis2mdc.c ****     }
 1054              		.loc 1 108 11 view .LVU302
 1055 0062 EEE7     		b	.L82
 1056              	.LVL86:
 1057              	.L86:
 112:Drivers/BSP/Components/iis2mdc/iis2mdc.c ****     }
 1058              		.loc 1 112 11 view .LVU303
 1059 0064 4FF0FF30 		mov	r0, #-1
 1060 0068 EBE7     		b	.L82
ARM GAS  C:\Temp\ccl7wzJh.s 			page 33


 1061              	.L94:
 1062 006a 00BF     		.align	2
 1063              	.L93:
 1064 006c 00000000 		.word	ReadMagRegWrap
 1065 0070 00000000 		.word	WriteMagRegWrap
 1066              		.cfi_endproc
 1067              	.LFE0:
 1069              		.section	.text.IIS2MDC_Read_Reg,"ax",%progbits
 1070              		.align	1
 1071              		.global	IIS2MDC_Read_Reg
 1072              		.syntax unified
 1073              		.thumb
 1074              		.thumb_func
 1076              	IIS2MDC_Read_Reg:
 1077              	.LVL87:
 1078              	.LFB14:
 444:Drivers/BSP/Components/iis2mdc/iis2mdc.c ****   if (iis2mdc_read_reg(&(pObj->Ctx), Reg, Data, 1) != IIS2MDC_OK)
 1079              		.loc 1 444 1 is_stmt 1 view -0
 1080              		.cfi_startproc
 1081              		@ args = 0, pretend = 0, frame = 0
 1082              		@ frame_needed = 0, uses_anonymous_args = 0
 444:Drivers/BSP/Components/iis2mdc/iis2mdc.c ****   if (iis2mdc_read_reg(&(pObj->Ctx), Reg, Data, 1) != IIS2MDC_OK)
 1083              		.loc 1 444 1 is_stmt 0 view .LVU305
 1084 0000 08B5     		push	{r3, lr}
 1085              		.cfi_def_cfa_offset 8
 1086              		.cfi_offset 3, -8
 1087              		.cfi_offset 14, -4
 445:Drivers/BSP/Components/iis2mdc/iis2mdc.c ****   {
 1088              		.loc 1 445 3 is_stmt 1 view .LVU306
 445:Drivers/BSP/Components/iis2mdc/iis2mdc.c ****   {
 1089              		.loc 1 445 7 is_stmt 0 view .LVU307
 1090 0002 0123     		movs	r3, #1
 1091 0004 2030     		adds	r0, r0, #32
 1092              	.LVL88:
 445:Drivers/BSP/Components/iis2mdc/iis2mdc.c ****   {
 1093              		.loc 1 445 7 view .LVU308
 1094 0006 FFF7FEFF 		bl	iis2mdc_read_reg
 1095              	.LVL89:
 445:Drivers/BSP/Components/iis2mdc/iis2mdc.c ****   {
 1096              		.loc 1 445 6 view .LVU309
 1097 000a 00B9     		cbnz	r0, .L99
 1098              	.L95:
 451:Drivers/BSP/Components/iis2mdc/iis2mdc.c **** 
 1099              		.loc 1 451 1 view .LVU310
 1100 000c 08BD     		pop	{r3, pc}
 1101              	.L99:
 447:Drivers/BSP/Components/iis2mdc/iis2mdc.c ****   }
 1102              		.loc 1 447 12 view .LVU311
 1103 000e 4FF0FF30 		mov	r0, #-1
 1104 0012 FBE7     		b	.L95
 1105              		.cfi_endproc
 1106              	.LFE14:
 1108              		.section	.text.IIS2MDC_Write_Reg,"ax",%progbits
 1109              		.align	1
 1110              		.global	IIS2MDC_Write_Reg
 1111              		.syntax unified
 1112              		.thumb
ARM GAS  C:\Temp\ccl7wzJh.s 			page 34


 1113              		.thumb_func
 1115              	IIS2MDC_Write_Reg:
 1116              	.LVL90:
 1117              	.LFB15:
 461:Drivers/BSP/Components/iis2mdc/iis2mdc.c ****   if (iis2mdc_write_reg(&(pObj->Ctx), Reg, &Data, 1) != IIS2MDC_OK)
 1118              		.loc 1 461 1 is_stmt 1 view -0
 1119              		.cfi_startproc
 1120              		@ args = 0, pretend = 0, frame = 8
 1121              		@ frame_needed = 0, uses_anonymous_args = 0
 461:Drivers/BSP/Components/iis2mdc/iis2mdc.c ****   if (iis2mdc_write_reg(&(pObj->Ctx), Reg, &Data, 1) != IIS2MDC_OK)
 1122              		.loc 1 461 1 is_stmt 0 view .LVU313
 1123 0000 00B5     		push	{lr}
 1124              		.cfi_def_cfa_offset 4
 1125              		.cfi_offset 14, -4
 1126 0002 83B0     		sub	sp, sp, #12
 1127              		.cfi_def_cfa_offset 16
 1128 0004 8DF80720 		strb	r2, [sp, #7]
 462:Drivers/BSP/Components/iis2mdc/iis2mdc.c ****   {
 1129              		.loc 1 462 3 is_stmt 1 view .LVU314
 462:Drivers/BSP/Components/iis2mdc/iis2mdc.c ****   {
 1130              		.loc 1 462 7 is_stmt 0 view .LVU315
 1131 0008 0123     		movs	r3, #1
 1132 000a 0DF10702 		add	r2, sp, #7
 1133              	.LVL91:
 462:Drivers/BSP/Components/iis2mdc/iis2mdc.c ****   {
 1134              		.loc 1 462 7 view .LVU316
 1135 000e 2030     		adds	r0, r0, #32
 1136              	.LVL92:
 462:Drivers/BSP/Components/iis2mdc/iis2mdc.c ****   {
 1137              		.loc 1 462 7 view .LVU317
 1138 0010 FFF7FEFF 		bl	iis2mdc_write_reg
 1139              	.LVL93:
 462:Drivers/BSP/Components/iis2mdc/iis2mdc.c ****   {
 1140              		.loc 1 462 6 view .LVU318
 1141 0014 10B9     		cbnz	r0, .L104
 1142              	.L100:
 468:Drivers/BSP/Components/iis2mdc/iis2mdc.c **** 
 1143              		.loc 1 468 1 view .LVU319
 1144 0016 03B0     		add	sp, sp, #12
 1145              		.cfi_remember_state
 1146              		.cfi_def_cfa_offset 4
 1147              		@ sp needed
 1148 0018 5DF804FB 		ldr	pc, [sp], #4
 1149              	.L104:
 1150              		.cfi_restore_state
 464:Drivers/BSP/Components/iis2mdc/iis2mdc.c ****   }
 1151              		.loc 1 464 12 view .LVU320
 1152 001c 4FF0FF30 		mov	r0, #-1
 1153 0020 F9E7     		b	.L100
 1154              		.cfi_endproc
 1155              	.LFE15:
 1157              		.section	.text.IIS2MDC_MAG_Get_DRDY_Status,"ax",%progbits
 1158              		.align	1
 1159              		.global	IIS2MDC_MAG_Get_DRDY_Status
 1160              		.syntax unified
 1161              		.thumb
 1162              		.thumb_func
ARM GAS  C:\Temp\ccl7wzJh.s 			page 35


 1164              	IIS2MDC_MAG_Get_DRDY_Status:
 1165              	.LVL94:
 1166              	.LFB16:
 477:Drivers/BSP/Components/iis2mdc/iis2mdc.c ****   if (iis2mdc_mag_data_ready_get(&(pObj->Ctx), Status) != IIS2MDC_OK)
 1167              		.loc 1 477 1 is_stmt 1 view -0
 1168              		.cfi_startproc
 1169              		@ args = 0, pretend = 0, frame = 0
 1170              		@ frame_needed = 0, uses_anonymous_args = 0
 477:Drivers/BSP/Components/iis2mdc/iis2mdc.c ****   if (iis2mdc_mag_data_ready_get(&(pObj->Ctx), Status) != IIS2MDC_OK)
 1171              		.loc 1 477 1 is_stmt 0 view .LVU322
 1172 0000 08B5     		push	{r3, lr}
 1173              		.cfi_def_cfa_offset 8
 1174              		.cfi_offset 3, -8
 1175              		.cfi_offset 14, -4
 478:Drivers/BSP/Components/iis2mdc/iis2mdc.c ****   {
 1176              		.loc 1 478 3 is_stmt 1 view .LVU323
 478:Drivers/BSP/Components/iis2mdc/iis2mdc.c ****   {
 1177              		.loc 1 478 7 is_stmt 0 view .LVU324
 1178 0002 2030     		adds	r0, r0, #32
 1179              	.LVL95:
 478:Drivers/BSP/Components/iis2mdc/iis2mdc.c ****   {
 1180              		.loc 1 478 7 view .LVU325
 1181 0004 FFF7FEFF 		bl	iis2mdc_mag_data_ready_get
 1182              	.LVL96:
 478:Drivers/BSP/Components/iis2mdc/iis2mdc.c ****   {
 1183              		.loc 1 478 6 view .LVU326
 1184 0008 00B9     		cbnz	r0, .L109
 1185              	.L105:
 484:Drivers/BSP/Components/iis2mdc/iis2mdc.c **** 
 1186              		.loc 1 484 1 view .LVU327
 1187 000a 08BD     		pop	{r3, pc}
 1188              	.L109:
 480:Drivers/BSP/Components/iis2mdc/iis2mdc.c ****   }
 1189              		.loc 1 480 12 view .LVU328
 1190 000c 4FF0FF30 		mov	r0, #-1
 1191 0010 FBE7     		b	.L105
 1192              		.cfi_endproc
 1193              	.LFE16:
 1195              		.section	.text.IIS2MDC_MAG_Get_Init_Status,"ax",%progbits
 1196              		.align	1
 1197              		.global	IIS2MDC_MAG_Get_Init_Status
 1198              		.syntax unified
 1199              		.thumb
 1200              		.thumb_func
 1202              	IIS2MDC_MAG_Get_Init_Status:
 1203              	.LVL97:
 1204              	.LFB17:
 493:Drivers/BSP/Components/iis2mdc/iis2mdc.c ****   if (pObj == NULL)
 1205              		.loc 1 493 1 is_stmt 1 view -0
 1206              		.cfi_startproc
 1207              		@ args = 0, pretend = 0, frame = 0
 1208              		@ frame_needed = 0, uses_anonymous_args = 0
 1209              		@ link register save eliminated.
 494:Drivers/BSP/Components/iis2mdc/iis2mdc.c ****   {
 1210              		.loc 1 494 3 view .LVU330
 494:Drivers/BSP/Components/iis2mdc/iis2mdc.c ****   {
 1211              		.loc 1 494 6 is_stmt 0 view .LVU331
ARM GAS  C:\Temp\ccl7wzJh.s 			page 36


 1212 0000 20B1     		cbz	r0, .L112
 499:Drivers/BSP/Components/iis2mdc/iis2mdc.c **** 
 1213              		.loc 1 499 3 is_stmt 1 view .LVU332
 499:Drivers/BSP/Components/iis2mdc/iis2mdc.c **** 
 1214              		.loc 1 499 17 is_stmt 0 view .LVU333
 1215 0002 90F83030 		ldrb	r3, [r0, #48]	@ zero_extendqisi2
 499:Drivers/BSP/Components/iis2mdc/iis2mdc.c **** 
 1216              		.loc 1 499 11 view .LVU334
 1217 0006 0B70     		strb	r3, [r1]
 501:Drivers/BSP/Components/iis2mdc/iis2mdc.c **** }
 1218              		.loc 1 501 3 is_stmt 1 view .LVU335
 501:Drivers/BSP/Components/iis2mdc/iis2mdc.c **** }
 1219              		.loc 1 501 10 is_stmt 0 view .LVU336
 1220 0008 0020     		movs	r0, #0
 1221              	.LVL98:
 501:Drivers/BSP/Components/iis2mdc/iis2mdc.c **** }
 1222              		.loc 1 501 10 view .LVU337
 1223 000a 7047     		bx	lr
 1224              	.LVL99:
 1225              	.L112:
 496:Drivers/BSP/Components/iis2mdc/iis2mdc.c ****   }
 1226              		.loc 1 496 12 view .LVU338
 1227 000c 4FF0FF30 		mov	r0, #-1
 1228              	.LVL100:
 502:Drivers/BSP/Components/iis2mdc/iis2mdc.c **** 
 1229              		.loc 1 502 1 view .LVU339
 1230 0010 7047     		bx	lr
 1231              		.cfi_endproc
 1232              	.LFE17:
 1234              		.global	IIS2MDC_MAG_Driver
 1235              		.section	.data.IIS2MDC_MAG_Driver,"aw"
 1236              		.align	2
 1239              	IIS2MDC_MAG_Driver:
 1240 0000 00000000 		.word	IIS2MDC_MAG_Enable
 1241 0004 00000000 		.word	IIS2MDC_MAG_Disable
 1242 0008 00000000 		.word	IIS2MDC_MAG_GetSensitivity
 1243 000c 00000000 		.word	IIS2MDC_MAG_GetOutputDataRate
 1244 0010 00000000 		.word	IIS2MDC_MAG_SetOutputDataRate
 1245 0014 00000000 		.word	IIS2MDC_MAG_GetFullScale
 1246 0018 00000000 		.word	IIS2MDC_MAG_SetFullScale
 1247 001c 00000000 		.word	IIS2MDC_MAG_GetAxes
 1248 0020 00000000 		.word	IIS2MDC_MAG_GetAxesRaw
 1249              		.global	IIS2MDC_COMMON_Driver
 1250              		.section	.data.IIS2MDC_COMMON_Driver,"aw"
 1251              		.align	2
 1254              	IIS2MDC_COMMON_Driver:
 1255 0000 00000000 		.word	IIS2MDC_Init
 1256 0004 00000000 		.word	IIS2MDC_DeInit
 1257 0008 00000000 		.word	IIS2MDC_ReadID
 1258 000c 00000000 		.word	IIS2MDC_GetCapabilities
 1259              		.text
 1260              	.Letext0:
 1261              		.file 2 "c:\\users\\jessejabezarendse\\appdata\\roaming\\code\\user\\globalstorage\\bmd.stm32-for-
 1262              		.file 3 "c:\\users\\jessejabezarendse\\appdata\\roaming\\code\\user\\globalstorage\\bmd.stm32-for-
 1263              		.file 4 "Drivers/BSP/Components/iis2mdc/iis2mdc_reg.h"
 1264              		.file 5 "Drivers/BSP/Components/iis2mdc/iis2mdc.h"
ARM GAS  C:\Temp\ccl7wzJh.s 			page 37

