ARM GAS  C:\Temp\ccTPfM1T.s 			page 1


   1              		.cpu cortex-m4
   2              		.arch armv7e-m
   3              		.fpu fpv4-sp-d16
   4              		.eabi_attribute 27, 1
   5              		.eabi_attribute 28, 1
   6              		.eabi_attribute 20, 1
   7              		.eabi_attribute 21, 1
   8              		.eabi_attribute 23, 3
   9              		.eabi_attribute 24, 1
  10              		.eabi_attribute 25, 1
  11              		.eabi_attribute 26, 1
  12              		.eabi_attribute 30, 1
  13              		.eabi_attribute 34, 1
  14              		.eabi_attribute 18, 4
  15              		.file	"IKS02A1_Simulink.c"
  16              		.text
  17              	.Ltext0:
  18              		.cfi_sections	.debug_frame
  19              		.file 1 "Core/Src/IKS02A1_Simulink.c"
  20              		.section	.text.getTemperature,"ax",%progbits
  21              		.align	1
  22              		.global	getTemperature
  23              		.syntax unified
  24              		.thumb
  25              		.thumb_func
  27              	getTemperature:
  28              	.LFB137:
   1:Core/Src/IKS02A1_Simulink.c **** ///////////////////////////////////////////////////////////
   2:Core/Src/IKS02A1_Simulink.c **** // Project : STM32 Nucleo + IKS02A1
   3:Core/Src/IKS02A1_Simulink.c **** // Abbreviation : AP_01
   4:Core/Src/IKS02A1_Simulink.c **** // Microcontroller: STM32 Nucleo F411RE
   5:Core/Src/IKS02A1_Simulink.c **** // Made For : Dr. Amir Patel
   6:Core/Src/IKS02A1_Simulink.c **** // @author: Jesse Jabez Arendse
   7:Core/Src/IKS02A1_Simulink.c **** // @modified: 24/08/2024
   8:Core/Src/IKS02A1_Simulink.c **** ///////////////////////////////////////////////////////////
   9:Core/Src/IKS02A1_Simulink.c **** 
  10:Core/Src/IKS02A1_Simulink.c **** #define INSTANCE_ISM330DHCX IKS02A1_ISM330DHCX_0
  11:Core/Src/IKS02A1_Simulink.c **** #define INSTANCE_IIS2DLPC   IKS02A1_IIS2DLPC_0
  12:Core/Src/IKS02A1_Simulink.c **** #define INSTANCE_IIS2MDC    IKS02A1_IIS2MDC_0
  13:Core/Src/IKS02A1_Simulink.c **** #define IIS2DLPC_TEMP_SENSITIVITY     16.0f // Sensitivity in LSB/°C
  14:Core/Src/IKS02A1_Simulink.c **** 
  15:Core/Src/IKS02A1_Simulink.c **** // Includes ///////////////////////////////////////////////
  16:Core/Src/IKS02A1_Simulink.c **** #include "iks02a1_motion_sensors.h"
  17:Core/Src/IKS02A1_Simulink.c **** // #include "stm32f4xx_nucleo.h"
  18:Core/Src/IKS02A1_Simulink.c **** #include "iks02a1_conf.h"
  19:Core/Src/IKS02A1_Simulink.c **** #include "main.h"
  20:Core/Src/IKS02A1_Simulink.c **** 
  21:Core/Src/IKS02A1_Simulink.c **** 
  22:Core/Src/IKS02A1_Simulink.c **** #include "stdio.h"
  23:Core/Src/IKS02A1_Simulink.c **** #include <stdint.h>
  24:Core/Src/IKS02A1_Simulink.c **** #include <string.h>  // For memcpy
  25:Core/Src/IKS02A1_Simulink.c **** #include <stdio.h>
  26:Core/Src/IKS02A1_Simulink.c **** 
  27:Core/Src/IKS02A1_Simulink.c **** 
  28:Core/Src/IKS02A1_Simulink.c **** // Project Parent Variables ///////////////////////////////
  29:Core/Src/IKS02A1_Simulink.c **** const uint8_t* header = 'A_J';
  30:Core/Src/IKS02A1_Simulink.c **** const uint8_t* terminator = 'J_A';
ARM GAS  C:\Temp\ccTPfM1T.s 			page 2


  31:Core/Src/IKS02A1_Simulink.c **** 
  32:Core/Src/IKS02A1_Simulink.c **** uint32_t tim2_psc;
  33:Core/Src/IKS02A1_Simulink.c **** uint32_t tim2_arr;
  34:Core/Src/IKS02A1_Simulink.c **** 
  35:Core/Src/IKS02A1_Simulink.c **** // Project Specific Variables /////////////////////////////
  36:Core/Src/IKS02A1_Simulink.c **** extern UART_HandleTypeDef huart2;
  37:Core/Src/IKS02A1_Simulink.c **** extern I2C_HandleTypeDef hi2c1;
  38:Core/Src/IKS02A1_Simulink.c **** 
  39:Core/Src/IKS02A1_Simulink.c **** extern IKS02A1_MOTION_SENSOR_Axes_t accel1_axis;
  40:Core/Src/IKS02A1_Simulink.c **** extern IKS02A1_MOTION_SENSOR_Axes_t gyro_axis;
  41:Core/Src/IKS02A1_Simulink.c **** extern IKS02A1_MOTION_SENSOR_Axes_t accel2_axis;
  42:Core/Src/IKS02A1_Simulink.c **** extern IKS02A1_MOTION_SENSOR_Axes_t mag_axis;
  43:Core/Src/IKS02A1_Simulink.c **** extern int32_t counter;
  44:Core/Src/IKS02A1_Simulink.c **** 
  45:Core/Src/IKS02A1_Simulink.c **** // mask options from BSP/Components/<IC_reg.h>
  46:Core/Src/IKS02A1_Simulink.c **** 
  47:Core/Src/IKS02A1_Simulink.c **** int32_t accel1_fsr;
  48:Core/Src/IKS02A1_Simulink.c **** float accel1_odr;
  49:Core/Src/IKS02A1_Simulink.c **** int32_t gyro_fsr;
  50:Core/Src/IKS02A1_Simulink.c **** float gyro_odr;
  51:Core/Src/IKS02A1_Simulink.c **** 
  52:Core/Src/IKS02A1_Simulink.c **** int32_t accel2_fsr;
  53:Core/Src/IKS02A1_Simulink.c **** float accel2_odr;
  54:Core/Src/IKS02A1_Simulink.c **** 
  55:Core/Src/IKS02A1_Simulink.c **** float mag_odr;
  56:Core/Src/IKS02A1_Simulink.c **** 
  57:Core/Src/IKS02A1_Simulink.c **** uint8_t temperature_raw_l;
  58:Core/Src/IKS02A1_Simulink.c **** uint8_t temperature_raw_h;
  59:Core/Src/IKS02A1_Simulink.c **** float_t temperature;
  60:Core/Src/IKS02A1_Simulink.c **** 
  61:Core/Src/IKS02A1_Simulink.c **** // Functions /////////////////////////////////////////////
  62:Core/Src/IKS02A1_Simulink.c **** 
  63:Core/Src/IKS02A1_Simulink.c **** 
  64:Core/Src/IKS02A1_Simulink.c **** void getTemperature(){
  29              		.loc 1 64 22 view -0
  30              		.cfi_startproc
  31              		@ args = 0, pretend = 0, frame = 0
  32              		@ frame_needed = 0, uses_anonymous_args = 0
  33 0000 F0B5     		push	{r4, r5, r6, r7, lr}
  34              		.cfi_def_cfa_offset 20
  35              		.cfi_offset 4, -20
  36              		.cfi_offset 5, -16
  37              		.cfi_offset 6, -12
  38              		.cfi_offset 7, -8
  39              		.cfi_offset 14, -4
  40 0002 85B0     		sub	sp, sp, #20
  41              		.cfi_def_cfa_offset 40
  65:Core/Src/IKS02A1_Simulink.c ****     HAL_I2C_Mem_Read(&hi2c1 , IIS2DLPC_I2C_ADD_H , IIS2DLPC_OUT_T_L , 1 , &temperature_raw_l , 1 , 
  42              		.loc 1 65 5 view .LVU1
  43 0004 114F     		ldr	r7, .L3
  44 0006 4FF0FF36 		mov	r6, #-1
  45 000a 0296     		str	r6, [sp, #8]
  46 000c 0124     		movs	r4, #1
  47 000e 0194     		str	r4, [sp, #4]
  48 0010 0F4D     		ldr	r5, .L3+4
  49 0012 0095     		str	r5, [sp]
  50 0014 2346     		mov	r3, r4
ARM GAS  C:\Temp\ccTPfM1T.s 			page 3


  51 0016 0D22     		movs	r2, #13
  52 0018 3321     		movs	r1, #51
  53 001a 3846     		mov	r0, r7
  54 001c FFF7FEFF 		bl	HAL_I2C_Mem_Read
  55              	.LVL0:
  66:Core/Src/IKS02A1_Simulink.c ****     HAL_I2C_Mem_Read(&hi2c1 , IIS2DLPC_I2C_ADD_H , IIS2DLPC_OUT_T_H , 1 , &temperature_raw_h , 1 , 
  56              		.loc 1 66 5 view .LVU2
  57 0020 0296     		str	r6, [sp, #8]
  58 0022 0194     		str	r4, [sp, #4]
  59 0024 0B4E     		ldr	r6, .L3+8
  60 0026 0096     		str	r6, [sp]
  61 0028 2346     		mov	r3, r4
  62 002a 0E22     		movs	r2, #14
  63 002c 3321     		movs	r1, #51
  64 002e 3846     		mov	r0, r7
  65 0030 FFF7FEFF 		bl	HAL_I2C_Mem_Read
  66              	.LVL1:
  67:Core/Src/IKS02A1_Simulink.c ****     int16_t rawTemp = (int16_t)((temperature_raw_h << 8) | temperature_raw_l); // Combine low and h
  67              		.loc 1 67 5 view .LVU3
  68              		.loc 1 67 52 is_stmt 0 view .LVU4
  69 0034 3378     		ldrb	r3, [r6]	@ zero_extendqisi2
  70 0036 1B02     		lsls	r3, r3, #8
  71              		.loc 1 67 23 view .LVU5
  72 0038 1BB2     		sxth	r3, r3
  73 003a 2878     		ldrb	r0, [r5]	@ zero_extendqisi2
  74              	.LVL2:
  68:Core/Src/IKS02A1_Simulink.c ****     temperature = iis2dlpc_from_lsb_to_celsius(rawTemp);
  75              		.loc 1 68 5 is_stmt 1 view .LVU6
  76              		.loc 1 68 19 is_stmt 0 view .LVU7
  77 003c 1843     		orrs	r0, r0, r3
  78              	.LVL3:
  79              		.loc 1 68 19 view .LVU8
  80 003e FFF7FEFF 		bl	iis2dlpc_from_lsb_to_celsius
  81              	.LVL4:
  82              		.loc 1 68 17 view .LVU9
  83 0042 054B     		ldr	r3, .L3+12
  84 0044 83ED000A 		vstr.32	s0, [r3]
  69:Core/Src/IKS02A1_Simulink.c **** }
  85              		.loc 1 69 1 view .LVU10
  86 0048 05B0     		add	sp, sp, #20
  87              		.cfi_def_cfa_offset 20
  88              		@ sp needed
  89 004a F0BD     		pop	{r4, r5, r6, r7, pc}
  90              	.L4:
  91              		.align	2
  92              	.L3:
  93 004c 00000000 		.word	hi2c1
  94 0050 00000000 		.word	temperature_raw_l
  95 0054 00000000 		.word	temperature_raw_h
  96 0058 00000000 		.word	temperature
  97              		.cfi_endproc
  98              	.LFE137:
 100              		.section	.text.bytesToFloat,"ax",%progbits
 101              		.align	1
 102              		.global	bytesToFloat
 103              		.syntax unified
 104              		.thumb
ARM GAS  C:\Temp\ccTPfM1T.s 			page 4


 105              		.thumb_func
 107              	bytesToFloat:
 108              	.LVL5:
 109              	.LFB138:
  70:Core/Src/IKS02A1_Simulink.c **** 
  71:Core/Src/IKS02A1_Simulink.c **** float bytesToFloat(uint8_t byte1 , uint8_t byte2 , uint8_t byte3 , uint8_t byte4) {
 110              		.loc 1 71 83 is_stmt 1 view -0
 111              		.cfi_startproc
 112              		@ args = 0, pretend = 0, frame = 8
 113              		@ frame_needed = 0, uses_anonymous_args = 0
 114              		@ link register save eliminated.
 115              		.loc 1 71 83 is_stmt 0 view .LVU12
 116 0000 82B0     		sub	sp, sp, #8
 117              		.cfi_def_cfa_offset 8
  72:Core/Src/IKS02A1_Simulink.c ****     float result;
 118              		.loc 1 72 5 is_stmt 1 view .LVU13
  73:Core/Src/IKS02A1_Simulink.c ****     uint8_t bytes[4] = {byte1,byte2,byte3,byte4};
 119              		.loc 1 73 5 view .LVU14
 120              		.loc 1 73 13 is_stmt 0 view .LVU15
 121 0002 8DF80400 		strb	r0, [sp, #4]
 122 0006 8DF80510 		strb	r1, [sp, #5]
 123 000a 8DF80620 		strb	r2, [sp, #6]
 124 000e 8DF80730 		strb	r3, [sp, #7]
  74:Core/Src/IKS02A1_Simulink.c **** 
  75:Core/Src/IKS02A1_Simulink.c ****     // Use memcpy to copy the 4 bytes into a float (this preserves the binary representation)
  76:Core/Src/IKS02A1_Simulink.c ****     memcpy(&result, bytes, sizeof(float));
 125              		.loc 1 76 5 is_stmt 1 view .LVU16
  77:Core/Src/IKS02A1_Simulink.c **** 
  78:Core/Src/IKS02A1_Simulink.c ****     return result;
 126              		.loc 1 78 5 view .LVU17
  79:Core/Src/IKS02A1_Simulink.c **** }
 127              		.loc 1 79 1 is_stmt 0 view .LVU18
 128 0012 9DED010A 		vldr.32	s0, [sp, #4]
 129 0016 02B0     		add	sp, sp, #8
 130              		.cfi_def_cfa_offset 0
 131              		@ sp needed
 132 0018 7047     		bx	lr
 133              		.cfi_endproc
 134              	.LFE138:
 136              		.section	.text.bytesToInt32,"ax",%progbits
 137              		.align	1
 138              		.global	bytesToInt32
 139              		.syntax unified
 140              		.thumb
 141              		.thumb_func
 143              	bytesToInt32:
 144              	.LVL6:
 145              	.LFB139:
  80:Core/Src/IKS02A1_Simulink.c **** 
  81:Core/Src/IKS02A1_Simulink.c **** int32_t bytesToInt32(uint8_t byte1 , uint8_t byte2 , uint8_t byte3 , uint8_t byte4)  {
 146              		.loc 1 81 86 is_stmt 1 view -0
 147              		.cfi_startproc
 148              		@ args = 0, pretend = 0, frame = 8
 149              		@ frame_needed = 0, uses_anonymous_args = 0
 150              		@ link register save eliminated.
 151              		.loc 1 81 86 is_stmt 0 view .LVU20
 152 0000 82B0     		sub	sp, sp, #8
ARM GAS  C:\Temp\ccTPfM1T.s 			page 5


 153              		.cfi_def_cfa_offset 8
  82:Core/Src/IKS02A1_Simulink.c ****     int32_t result;
 154              		.loc 1 82 5 is_stmt 1 view .LVU21
  83:Core/Src/IKS02A1_Simulink.c ****     uint8_t bytes[4] = {byte1,byte2,byte3,byte4};
 155              		.loc 1 83 5 view .LVU22
 156              		.loc 1 83 13 is_stmt 0 view .LVU23
 157 0002 8DF80400 		strb	r0, [sp, #4]
 158 0006 8DF80510 		strb	r1, [sp, #5]
 159 000a 8DF80620 		strb	r2, [sp, #6]
 160 000e 8DF80730 		strb	r3, [sp, #7]
  84:Core/Src/IKS02A1_Simulink.c **** 
  85:Core/Src/IKS02A1_Simulink.c ****     // Use memcpy to copy the 4 bytes into a int32_t (this preserves the binary representation)
  86:Core/Src/IKS02A1_Simulink.c ****     memcpy(&result, bytes, sizeof(int32_t));
 161              		.loc 1 86 5 is_stmt 1 view .LVU24
 162              	.LVL7:
  87:Core/Src/IKS02A1_Simulink.c **** 
  88:Core/Src/IKS02A1_Simulink.c ****     return result;
 163              		.loc 1 88 5 view .LVU25
  89:Core/Src/IKS02A1_Simulink.c **** }
 164              		.loc 1 89 1 is_stmt 0 view .LVU26
 165 0012 0198     		ldr	r0, [sp, #4]
 166              	.LVL8:
 167              		.loc 1 89 1 view .LVU27
 168 0014 02B0     		add	sp, sp, #8
 169              		.cfi_def_cfa_offset 0
 170              	.LVL9:
 171              		.loc 1 89 1 view .LVU28
 172              		@ sp needed
 173 0016 7047     		bx	lr
 174              		.cfi_endproc
 175              	.LFE139:
 177              		.section	.text.initIKS02A1,"ax",%progbits
 178              		.align	1
 179              		.global	initIKS02A1
 180              		.syntax unified
 181              		.thumb
 182              		.thumb_func
 184              	initIKS02A1:
 185              	.LFB140:
  90:Core/Src/IKS02A1_Simulink.c **** 
  91:Core/Src/IKS02A1_Simulink.c **** void initIKS02A1(){
 186              		.loc 1 91 19 is_stmt 1 view -0
 187              		.cfi_startproc
 188              		@ args = 0, pretend = 0, frame = 0
 189              		@ frame_needed = 0, uses_anonymous_args = 0
 190 0000 08B5     		push	{r3, lr}
 191              		.cfi_def_cfa_offset 8
 192              		.cfi_offset 3, -8
 193              		.cfi_offset 14, -4
  92:Core/Src/IKS02A1_Simulink.c **** 
  93:Core/Src/IKS02A1_Simulink.c **** //   IKS02A1_MOTION_SENSOR_Init(IKS02A1_ISM330DHCX_0, MOTION_ACCELERO | MOTION_GYRO);
  94:Core/Src/IKS02A1_Simulink.c **** 
  95:Core/Src/IKS02A1_Simulink.c ****   IKS02A1_MOTION_SENSOR_Init(IKS02A1_IIS2DLPC_0, MOTION_ACCELERO);
 194              		.loc 1 95 3 view .LVU30
 195 0002 0221     		movs	r1, #2
 196 0004 0120     		movs	r0, #1
 197 0006 FFF7FEFF 		bl	IKS02A1_MOTION_SENSOR_Init
ARM GAS  C:\Temp\ccTPfM1T.s 			page 6


 198              	.LVL10:
  96:Core/Src/IKS02A1_Simulink.c ****   
  97:Core/Src/IKS02A1_Simulink.c **** //   IKS02A1_MOTION_SENSOR_Init(IKS02A1_IIS2MDC_0, MOTION_MAGNETO);
  98:Core/Src/IKS02A1_Simulink.c **** 
  99:Core/Src/IKS02A1_Simulink.c **** }
 199              		.loc 1 99 1 is_stmt 0 view .LVU31
 200 000a 08BD     		pop	{r3, pc}
 201              		.cfi_endproc
 202              	.LFE140:
 204              		.section	.text.getIKS02A1,"ax",%progbits
 205              		.align	1
 206              		.global	getIKS02A1
 207              		.syntax unified
 208              		.thumb
 209              		.thumb_func
 211              	getIKS02A1:
 212              	.LFB141:
 100:Core/Src/IKS02A1_Simulink.c **** 
 101:Core/Src/IKS02A1_Simulink.c **** void getIKS02A1(){
 213              		.loc 1 101 18 is_stmt 1 view -0
 214              		.cfi_startproc
 215              		@ args = 0, pretend = 0, frame = 0
 216              		@ frame_needed = 0, uses_anonymous_args = 0
 217 0000 08B5     		push	{r3, lr}
 218              		.cfi_def_cfa_offset 8
 219              		.cfi_offset 3, -8
 220              		.cfi_offset 14, -4
 221              	.L12:
 102:Core/Src/IKS02A1_Simulink.c ****     // while (IKS02A1_MOTION_SENSOR_GetAxes(IKS02A1_ISM330DHCX_0, MOTION_ACCELERO , &accel1_axis) !
 103:Core/Src/IKS02A1_Simulink.c ****     // while (IKS02A1_MOTION_SENSOR_GetAxes(IKS02A1_ISM330DHCX_0, MOTION_GYRO     , &gyro_axis  ) !
 104:Core/Src/IKS02A1_Simulink.c ****     while (IKS02A1_MOTION_SENSOR_GetAxes(IKS02A1_IIS2DLPC_0,   MOTION_ACCELERO , &accel2_axis) != B
 222              		.loc 1 104 115 discriminator 1 view .LVU33
 223              		.loc 1 104 96 discriminator 1 view .LVU34
 224              		.loc 1 104 12 is_stmt 0 discriminator 1 view .LVU35
 225 0002 054A     		ldr	r2, .L14
 226 0004 0221     		movs	r1, #2
 227 0006 0120     		movs	r0, #1
 228 0008 FFF7FEFF 		bl	IKS02A1_MOTION_SENSOR_GetAxes
 229              	.LVL11:
 230              		.loc 1 104 96 discriminator 1 view .LVU36
 231 000c 0028     		cmp	r0, #0
 232 000e F8D1     		bne	.L12
 105:Core/Src/IKS02A1_Simulink.c ****     // while (IKS02A1_MOTION_SENSOR_GetAxes(IKS02A1_IIS2MDC_0,    MOTION_MAGNETO  , &mag_axis   ) !
 106:Core/Src/IKS02A1_Simulink.c **** 
 107:Core/Src/IKS02A1_Simulink.c ****     getTemperature();
 233              		.loc 1 107 5 is_stmt 1 view .LVU37
 234 0010 FFF7FEFF 		bl	getTemperature
 235              	.LVL12:
 108:Core/Src/IKS02A1_Simulink.c **** }
 236              		.loc 1 108 1 is_stmt 0 view .LVU38
 237 0014 08BD     		pop	{r3, pc}
 238              	.L15:
 239 0016 00BF     		.align	2
 240              	.L14:
 241 0018 00000000 		.word	accel2_axis
 242              		.cfi_endproc
 243              	.LFE141:
ARM GAS  C:\Temp\ccTPfM1T.s 			page 7


 245              		.section	.text.receivedFromSimulink,"ax",%progbits
 246              		.align	1
 247              		.global	receivedFromSimulink
 248              		.syntax unified
 249              		.thumb
 250              		.thumb_func
 252              	receivedFromSimulink:
 253              	.LVL13:
 254              	.LFB142:
 109:Core/Src/IKS02A1_Simulink.c **** 
 110:Core/Src/IKS02A1_Simulink.c **** void receivedFromSimulink(uint8_t* bigBuffer){
 255              		.loc 1 110 46 is_stmt 1 view -0
 256              		.cfi_startproc
 257              		@ args = 0, pretend = 0, frame = 0
 258              		@ frame_needed = 0, uses_anonymous_args = 0
 259              		.loc 1 110 46 is_stmt 0 view .LVU40
 260 0000 38B5     		push	{r3, r4, r5, lr}
 261              		.cfi_def_cfa_offset 16
 262              		.cfi_offset 3, -16
 263              		.cfi_offset 4, -12
 264              		.cfi_offset 5, -8
 265              		.cfi_offset 14, -4
 266 0002 0446     		mov	r4, r0
 111:Core/Src/IKS02A1_Simulink.c ****     accel2_fsr = bytesToInt32(bigBuffer[3  + 0] , bigBuffer[3  + 1] , bigBuffer[3  + 2] ,  bigBuffe
 267              		.loc 1 111 5 is_stmt 1 view .LVU41
 268              		.loc 1 111 18 is_stmt 0 view .LVU42
 269 0004 8379     		ldrb	r3, [r0, #6]	@ zero_extendqisi2
 270 0006 4279     		ldrb	r2, [r0, #5]	@ zero_extendqisi2
 271 0008 0179     		ldrb	r1, [r0, #4]	@ zero_extendqisi2
 272 000a C078     		ldrb	r0, [r0, #3]	@ zero_extendqisi2
 273              	.LVL14:
 274              		.loc 1 111 18 view .LVU43
 275 000c FFF7FEFF 		bl	bytesToInt32
 276              	.LVL15:
 277 0010 0546     		mov	r5, r0
 278              		.loc 1 111 16 view .LVU44
 279 0012 0B4B     		ldr	r3, .L18
 280 0014 1860     		str	r0, [r3]
 112:Core/Src/IKS02A1_Simulink.c ****     accel2_odr = bytesToFloat(bigBuffer[7  + 0] , bigBuffer[7  + 1] , bigBuffer[7  + 2] ,  bigBuffe
 281              		.loc 1 112 5 is_stmt 1 view .LVU45
 282              		.loc 1 112 18 is_stmt 0 view .LVU46
 283 0016 A37A     		ldrb	r3, [r4, #10]	@ zero_extendqisi2
 284 0018 627A     		ldrb	r2, [r4, #9]	@ zero_extendqisi2
 285 001a 217A     		ldrb	r1, [r4, #8]	@ zero_extendqisi2
 286 001c E079     		ldrb	r0, [r4, #7]	@ zero_extendqisi2
 287 001e FFF7FEFF 		bl	bytesToFloat
 288              	.LVL16:
 289              		.loc 1 112 16 view .LVU47
 290 0022 084C     		ldr	r4, .L18+4
 291              	.LVL17:
 292              		.loc 1 112 16 view .LVU48
 293 0024 84ED000A 		vstr.32	s0, [r4]
 113:Core/Src/IKS02A1_Simulink.c **** 
 114:Core/Src/IKS02A1_Simulink.c ****     // Accel2
 115:Core/Src/IKS02A1_Simulink.c ****     int32_t ret;
 294              		.loc 1 115 5 is_stmt 1 view .LVU49
 116:Core/Src/IKS02A1_Simulink.c ****     ret = IKS02A1_MOTION_SENSOR_SetFullScale      (INSTANCE_IIS2DLPC,MOTION_ACCELERO,accel2_fsr);
ARM GAS  C:\Temp\ccTPfM1T.s 			page 8


 295              		.loc 1 116 5 view .LVU50
 296              		.loc 1 116 11 is_stmt 0 view .LVU51
 297 0028 2A46     		mov	r2, r5
 298 002a 0221     		movs	r1, #2
 299 002c 0120     		movs	r0, #1
 300 002e FFF7FEFF 		bl	IKS02A1_MOTION_SENSOR_SetFullScale
 301              	.LVL18:
 117:Core/Src/IKS02A1_Simulink.c ****     ret = IKS02A1_MOTION_SENSOR_SetOutputDataRate (INSTANCE_IIS2DLPC,MOTION_ACCELERO,accel2_odr);
 302              		.loc 1 117 5 is_stmt 1 view .LVU52
 303              		.loc 1 117 11 is_stmt 0 view .LVU53
 304 0032 94ED000A 		vldr.32	s0, [r4]
 305 0036 0221     		movs	r1, #2
 306 0038 0120     		movs	r0, #1
 307 003a FFF7FEFF 		bl	IKS02A1_MOTION_SENSOR_SetOutputDataRate
 308              	.LVL19:
 118:Core/Src/IKS02A1_Simulink.c **** }
 309              		.loc 1 118 1 view .LVU54
 310 003e 38BD     		pop	{r3, r4, r5, pc}
 311              	.L19:
 312              		.align	2
 313              	.L18:
 314 0040 00000000 		.word	accel2_fsr
 315 0044 00000000 		.word	accel2_odr
 316              		.cfi_endproc
 317              	.LFE142:
 319              		.section	.text.sendToSimulink,"ax",%progbits
 320              		.align	1
 321              		.global	sendToSimulink
 322              		.syntax unified
 323              		.thumb
 324              		.thumb_func
 326              	sendToSimulink:
 327              	.LFB143:
 119:Core/Src/IKS02A1_Simulink.c **** 
 120:Core/Src/IKS02A1_Simulink.c **** void sendToSimulink(){
 328              		.loc 1 120 22 is_stmt 1 view -0
 329              		.cfi_startproc
 330              		@ args = 0, pretend = 0, frame = 0
 331              		@ frame_needed = 0, uses_anonymous_args = 0
 332 0000 38B5     		push	{r3, r4, r5, lr}
 333              		.cfi_def_cfa_offset 16
 334              		.cfi_offset 3, -16
 335              		.cfi_offset 4, -12
 336              		.cfi_offset 5, -8
 337              		.cfi_offset 14, -4
 121:Core/Src/IKS02A1_Simulink.c **** 
 122:Core/Src/IKS02A1_Simulink.c ****     HAL_UART_Transmit(&huart2, (uint8_t *) &header           ,3 , HAL_MAX_DELAY);
 338              		.loc 1 122 5 view .LVU56
 339 0002 1A4C     		ldr	r4, .L22
 340 0004 4FF0FF33 		mov	r3, #-1
 341 0008 0322     		movs	r2, #3
 342 000a 1949     		ldr	r1, .L22+4
 343 000c 2046     		mov	r0, r4
 344 000e FFF7FEFF 		bl	HAL_UART_Transmit
 345              	.LVL20:
 123:Core/Src/IKS02A1_Simulink.c ****     // HAL_UART_Transmit(&huart2, (int32_t *) &(accel1_axis.x)  ,4 , HAL_MAX_DELAY);
 124:Core/Src/IKS02A1_Simulink.c ****     // HAL_UART_Transmit(&huart2, (int32_t *) &accel1_axis.y    ,4 , HAL_MAX_DELAY);
ARM GAS  C:\Temp\ccTPfM1T.s 			page 9


 125:Core/Src/IKS02A1_Simulink.c ****     // HAL_UART_Transmit(&huart2, (int32_t *) &accel1_axis.z    ,4 , HAL_MAX_DELAY);
 126:Core/Src/IKS02A1_Simulink.c ****     // HAL_UART_Transmit(&huart2, (int32_t *) &gyro_axis.x      ,4 , HAL_MAX_DELAY);
 127:Core/Src/IKS02A1_Simulink.c ****     // HAL_UART_Transmit(&huart2, (int32_t *) &gyro_axis.y      ,4 , HAL_MAX_DELAY);
 128:Core/Src/IKS02A1_Simulink.c ****     // HAL_UART_Transmit(&huart2, (int32_t *) &gyro_axis.z      ,4 , HAL_MAX_DELAY);
 129:Core/Src/IKS02A1_Simulink.c ****     HAL_UART_Transmit(&huart2, (int32_t *) &accel2_axis.x    ,4 , HAL_MAX_DELAY);
 346              		.loc 1 129 5 view .LVU57
 347 0012 184D     		ldr	r5, .L22+8
 348 0014 4FF0FF33 		mov	r3, #-1
 349 0018 0422     		movs	r2, #4
 350 001a 2946     		mov	r1, r5
 351 001c 2046     		mov	r0, r4
 352 001e FFF7FEFF 		bl	HAL_UART_Transmit
 353              	.LVL21:
 130:Core/Src/IKS02A1_Simulink.c ****     HAL_UART_Transmit(&huart2, (int32_t *) &accel2_axis.y    ,4 , HAL_MAX_DELAY);
 354              		.loc 1 130 5 view .LVU58
 355 0022 4FF0FF33 		mov	r3, #-1
 356 0026 0422     		movs	r2, #4
 357 0028 A918     		adds	r1, r5, r2
 358 002a 2046     		mov	r0, r4
 359 002c FFF7FEFF 		bl	HAL_UART_Transmit
 360              	.LVL22:
 131:Core/Src/IKS02A1_Simulink.c ****     HAL_UART_Transmit(&huart2, (int32_t *) &accel2_axis.z    ,4 , HAL_MAX_DELAY);
 361              		.loc 1 131 5 view .LVU59
 362 0030 4FF0FF33 		mov	r3, #-1
 363 0034 0422     		movs	r2, #4
 364 0036 05F10801 		add	r1, r5, #8
 365 003a 2046     		mov	r0, r4
 366 003c FFF7FEFF 		bl	HAL_UART_Transmit
 367              	.LVL23:
 132:Core/Src/IKS02A1_Simulink.c ****     HAL_UART_Transmit(&huart2, (float_t *) &temperature      ,4 , HAL_MAX_DELAY);
 368              		.loc 1 132 5 view .LVU60
 369 0040 4FF0FF33 		mov	r3, #-1
 370 0044 0422     		movs	r2, #4
 371 0046 0C49     		ldr	r1, .L22+12
 372 0048 2046     		mov	r0, r4
 373 004a FFF7FEFF 		bl	HAL_UART_Transmit
 374              	.LVL24:
 133:Core/Src/IKS02A1_Simulink.c ****     // HAL_UART_Transmit(&huart2, (int32_t *) &mag_axis.x       ,4 , HAL_MAX_DELAY);
 134:Core/Src/IKS02A1_Simulink.c ****     // HAL_UART_Transmit(&huart2, (int32_t *) &mag_axis.y       ,4 , HAL_MAX_DELAY);
 135:Core/Src/IKS02A1_Simulink.c ****     // HAL_UART_Transmit(&huart2, (int32_t *) &mag_axis.z       ,4 , HAL_MAX_DELAY);
 136:Core/Src/IKS02A1_Simulink.c ****     HAL_UART_Transmit(&huart2, (int32_t *) &counter          ,4 , HAL_MAX_DELAY);
 375              		.loc 1 136 5 view .LVU61
 376 004e 4FF0FF33 		mov	r3, #-1
 377 0052 0422     		movs	r2, #4
 378 0054 0949     		ldr	r1, .L22+16
 379 0056 2046     		mov	r0, r4
 380 0058 FFF7FEFF 		bl	HAL_UART_Transmit
 381              	.LVL25:
 137:Core/Src/IKS02A1_Simulink.c ****     HAL_UART_Transmit(&huart2, (uint8_t *) &terminator       ,3 , HAL_MAX_DELAY);
 382              		.loc 1 137 5 view .LVU62
 383 005c 4FF0FF33 		mov	r3, #-1
 384 0060 0322     		movs	r2, #3
 385 0062 0749     		ldr	r1, .L22+20
 386 0064 2046     		mov	r0, r4
 387 0066 FFF7FEFF 		bl	HAL_UART_Transmit
 388              	.LVL26:
 138:Core/Src/IKS02A1_Simulink.c **** }
ARM GAS  C:\Temp\ccTPfM1T.s 			page 10


 389              		.loc 1 138 1 is_stmt 0 view .LVU63
 390 006a 38BD     		pop	{r3, r4, r5, pc}
 391              	.L23:
 392              		.align	2
 393              	.L22:
 394 006c 00000000 		.word	huart2
 395 0070 00000000 		.word	header
 396 0074 00000000 		.word	accel2_axis
 397 0078 00000000 		.word	temperature
 398 007c 00000000 		.word	counter
 399 0080 00000000 		.word	terminator
 400              		.cfi_endproc
 401              	.LFE143:
 403              		.section	.text.blueButtonPressed,"ax",%progbits
 404              		.align	1
 405              		.global	blueButtonPressed
 406              		.syntax unified
 407              		.thumb
 408              		.thumb_func
 410              	blueButtonPressed:
 411              	.LFB144:
 139:Core/Src/IKS02A1_Simulink.c **** 
 140:Core/Src/IKS02A1_Simulink.c **** void blueButtonPressed(){
 412              		.loc 1 140 25 is_stmt 1 view -0
 413              		.cfi_startproc
 414              		@ args = 0, pretend = 0, frame = 0
 415              		@ frame_needed = 0, uses_anonymous_args = 0
 416              		@ link register save eliminated.
 141:Core/Src/IKS02A1_Simulink.c **** 
 142:Core/Src/IKS02A1_Simulink.c **** }
 417              		.loc 1 142 1 view .LVU65
 418 0000 7047     		bx	lr
 419              		.cfi_endproc
 420              	.LFE144:
 422              		.section	.text.initial_calibrate,"ax",%progbits
 423              		.align	1
 424              		.global	initial_calibrate
 425              		.syntax unified
 426              		.thumb
 427              		.thumb_func
 429              	initial_calibrate:
 430              	.LFB145:
 143:Core/Src/IKS02A1_Simulink.c **** 
 144:Core/Src/IKS02A1_Simulink.c **** void initial_calibrate(){
 431              		.loc 1 144 25 view -0
 432              		.cfi_startproc
 433              		@ args = 0, pretend = 0, frame = 0
 434              		@ frame_needed = 0, uses_anonymous_args = 0
 435 0000 08B5     		push	{r3, lr}
 436              		.cfi_def_cfa_offset 8
 437              		.cfi_offset 3, -8
 438              		.cfi_offset 14, -4
 439 0002 2DED028B 		vpush.64	{d8}
 440              		.cfi_def_cfa_offset 16
 441              		.cfi_offset 80, -16
 442              		.cfi_offset 81, -12
 145:Core/Src/IKS02A1_Simulink.c ****     // Accel1
ARM GAS  C:\Temp\ccTPfM1T.s 			page 11


 146:Core/Src/IKS02A1_Simulink.c ****     // IKS02A1_MOTION_SENSOR_SetFullScale      (INSTANCE_ISM330DHCX,MOTION_ACCELERO,accel1_fsr);
 147:Core/Src/IKS02A1_Simulink.c ****     IKS02A1_MOTION_SENSOR_SetOutputDataRate (INSTANCE_ISM330DHCX,MOTION_ACCELERO,208.0f);
 443              		.loc 1 147 5 view .LVU67
 444 0006 9FED0F8A 		vldr.32	s16, .L27
 445 000a B0EE480A 		vmov.f32	s0, s16
 446 000e 0221     		movs	r1, #2
 447 0010 0020     		movs	r0, #0
 448 0012 FFF7FEFF 		bl	IKS02A1_MOTION_SENSOR_SetOutputDataRate
 449              	.LVL27:
 148:Core/Src/IKS02A1_Simulink.c ****     // Gyro1
 149:Core/Src/IKS02A1_Simulink.c ****     // IKS02A1_MOTION_SENSOR_SetFullScale      (INSTANCE_ISM330DHCX,MOTION_GYRO,gyro_fsr);
 150:Core/Src/IKS02A1_Simulink.c ****     IKS02A1_MOTION_SENSOR_SetOutputDataRate (INSTANCE_ISM330DHCX,MOTION_GYRO,208.0f);
 450              		.loc 1 150 5 view .LVU68
 451 0016 B0EE480A 		vmov.f32	s0, s16
 452 001a 0121     		movs	r1, #1
 453 001c 0020     		movs	r0, #0
 454 001e FFF7FEFF 		bl	IKS02A1_MOTION_SENSOR_SetOutputDataRate
 455              	.LVL28:
 151:Core/Src/IKS02A1_Simulink.c **** 
 152:Core/Src/IKS02A1_Simulink.c ****     // Accel2
 153:Core/Src/IKS02A1_Simulink.c ****     // IKS02A1_MOTION_SENSOR_SetFullScale      (INSTANCE_IIS2DLPC,MOTION_ACCELERO,accel2_fsr);
 154:Core/Src/IKS02A1_Simulink.c ****     IKS02A1_MOTION_SENSOR_SetOutputDataRate (INSTANCE_IIS2DLPC,MOTION_ACCELERO,accel2_odr);
 456              		.loc 1 154 5 view .LVU69
 457 0022 094B     		ldr	r3, .L27+4
 458 0024 93ED000A 		vldr.32	s0, [r3]
 459 0028 0221     		movs	r1, #2
 460 002a 0120     		movs	r0, #1
 461 002c FFF7FEFF 		bl	IKS02A1_MOTION_SENSOR_SetOutputDataRate
 462              	.LVL29:
 155:Core/Src/IKS02A1_Simulink.c **** 
 156:Core/Src/IKS02A1_Simulink.c ****     // Magneto
 157:Core/Src/IKS02A1_Simulink.c ****     IKS02A1_MOTION_SENSOR_SetOutputDataRate (INSTANCE_IIS2MDC,MOTION_MAGNETO,mag_odr);
 463              		.loc 1 157 5 view .LVU70
 464 0030 064B     		ldr	r3, .L27+8
 465 0032 93ED000A 		vldr.32	s0, [r3]
 466 0036 0421     		movs	r1, #4
 467 0038 0220     		movs	r0, #2
 468 003a FFF7FEFF 		bl	IKS02A1_MOTION_SENSOR_SetOutputDataRate
 469              	.LVL30:
 158:Core/Src/IKS02A1_Simulink.c **** }
 470              		.loc 1 158 1 is_stmt 0 view .LVU71
 471 003e BDEC028B 		vldm	sp!, {d8}
 472              		.cfi_restore 80
 473              		.cfi_restore 81
 474              		.cfi_def_cfa_offset 8
 475 0042 08BD     		pop	{r3, pc}
 476              	.L28:
 477              		.align	2
 478              	.L27:
 479 0044 00005043 		.word	1129316352
 480 0048 00000000 		.word	accel2_odr
 481 004c 00000000 		.word	mag_odr
 482              		.cfi_endproc
 483              	.LFE145:
 485              		.section	.text.calibrate_IKS02A1,"ax",%progbits
 486              		.align	1
 487              		.global	calibrate_IKS02A1
ARM GAS  C:\Temp\ccTPfM1T.s 			page 12


 488              		.syntax unified
 489              		.thumb
 490              		.thumb_func
 492              	calibrate_IKS02A1:
 493              	.LFB146:
 159:Core/Src/IKS02A1_Simulink.c **** 
 160:Core/Src/IKS02A1_Simulink.c **** 
 161:Core/Src/IKS02A1_Simulink.c **** // functions from BSP/<boards>
 162:Core/Src/IKS02A1_Simulink.c **** // parameters from BSP/<boards>
 163:Core/Src/IKS02A1_Simulink.c **** void calibrate_IKS02A1(){
 494              		.loc 1 163 25 is_stmt 1 view -0
 495              		.cfi_startproc
 496              		@ args = 0, pretend = 0, frame = 0
 497              		@ frame_needed = 0, uses_anonymous_args = 0
 498 0000 08B5     		push	{r3, lr}
 499              		.cfi_def_cfa_offset 8
 500              		.cfi_offset 3, -8
 501              		.cfi_offset 14, -4
 164:Core/Src/IKS02A1_Simulink.c **** 
 165:Core/Src/IKS02A1_Simulink.c ****     // Accel1
 166:Core/Src/IKS02A1_Simulink.c ****     IKS02A1_MOTION_SENSOR_SetFullScale      (INSTANCE_ISM330DHCX,MOTION_ACCELERO,accel1_fsr);
 502              		.loc 1 166 5 view .LVU73
 503 0002 174B     		ldr	r3, .L31
 504 0004 1A68     		ldr	r2, [r3]
 505 0006 0221     		movs	r1, #2
 506 0008 0020     		movs	r0, #0
 507 000a FFF7FEFF 		bl	IKS02A1_MOTION_SENSOR_SetFullScale
 508              	.LVL31:
 167:Core/Src/IKS02A1_Simulink.c ****     IKS02A1_MOTION_SENSOR_SetOutputDataRate (INSTANCE_ISM330DHCX,MOTION_ACCELERO,accel1_odr);
 509              		.loc 1 167 5 view .LVU74
 510 000e 154B     		ldr	r3, .L31+4
 511 0010 93ED000A 		vldr.32	s0, [r3]
 512 0014 0221     		movs	r1, #2
 513 0016 0020     		movs	r0, #0
 514 0018 FFF7FEFF 		bl	IKS02A1_MOTION_SENSOR_SetOutputDataRate
 515              	.LVL32:
 168:Core/Src/IKS02A1_Simulink.c ****     // Gyro1
 169:Core/Src/IKS02A1_Simulink.c ****     IKS02A1_MOTION_SENSOR_SetFullScale      (INSTANCE_ISM330DHCX,MOTION_GYRO,gyro_fsr);
 516              		.loc 1 169 5 view .LVU75
 517 001c 124B     		ldr	r3, .L31+8
 518 001e 1A68     		ldr	r2, [r3]
 519 0020 0121     		movs	r1, #1
 520 0022 0020     		movs	r0, #0
 521 0024 FFF7FEFF 		bl	IKS02A1_MOTION_SENSOR_SetFullScale
 522              	.LVL33:
 170:Core/Src/IKS02A1_Simulink.c ****     IKS02A1_MOTION_SENSOR_SetOutputDataRate (INSTANCE_ISM330DHCX,MOTION_GYRO,gyro_odr);
 523              		.loc 1 170 5 view .LVU76
 524 0028 104B     		ldr	r3, .L31+12
 525 002a 93ED000A 		vldr.32	s0, [r3]
 526 002e 0121     		movs	r1, #1
 527 0030 0020     		movs	r0, #0
 528 0032 FFF7FEFF 		bl	IKS02A1_MOTION_SENSOR_SetOutputDataRate
 529              	.LVL34:
 171:Core/Src/IKS02A1_Simulink.c **** 
 172:Core/Src/IKS02A1_Simulink.c ****     // Accel2
 173:Core/Src/IKS02A1_Simulink.c ****     IKS02A1_MOTION_SENSOR_SetFullScale      (INSTANCE_IIS2DLPC,MOTION_ACCELERO,accel2_fsr);
 530              		.loc 1 173 5 view .LVU77
ARM GAS  C:\Temp\ccTPfM1T.s 			page 13


 531 0036 0E4B     		ldr	r3, .L31+16
 532 0038 1A68     		ldr	r2, [r3]
 533 003a 0221     		movs	r1, #2
 534 003c 0120     		movs	r0, #1
 535 003e FFF7FEFF 		bl	IKS02A1_MOTION_SENSOR_SetFullScale
 536              	.LVL35:
 174:Core/Src/IKS02A1_Simulink.c ****     IKS02A1_MOTION_SENSOR_SetOutputDataRate (INSTANCE_IIS2DLPC,MOTION_ACCELERO,accel2_odr);
 537              		.loc 1 174 5 view .LVU78
 538 0042 0C4B     		ldr	r3, .L31+20
 539 0044 93ED000A 		vldr.32	s0, [r3]
 540 0048 0221     		movs	r1, #2
 541 004a 0120     		movs	r0, #1
 542 004c FFF7FEFF 		bl	IKS02A1_MOTION_SENSOR_SetOutputDataRate
 543              	.LVL36:
 175:Core/Src/IKS02A1_Simulink.c **** 
 176:Core/Src/IKS02A1_Simulink.c ****     // Magneto
 177:Core/Src/IKS02A1_Simulink.c ****     IKS02A1_MOTION_SENSOR_SetOutputDataRate (INSTANCE_IIS2MDC,MOTION_MAGNETO,mag_odr);
 544              		.loc 1 177 5 view .LVU79
 545 0050 094B     		ldr	r3, .L31+24
 546 0052 93ED000A 		vldr.32	s0, [r3]
 547 0056 0421     		movs	r1, #4
 548 0058 0220     		movs	r0, #2
 549 005a FFF7FEFF 		bl	IKS02A1_MOTION_SENSOR_SetOutputDataRate
 550              	.LVL37:
 178:Core/Src/IKS02A1_Simulink.c **** }...
 551              		.loc 1 178 1 is_stmt 0 view .LVU80
 552 005e 08BD     		pop	{r3, pc}
 553              	.L32:
 554              		.align	2
 555              	.L31:
 556 0060 00000000 		.word	accel1_fsr
 557 0064 00000000 		.word	accel1_odr
 558 0068 00000000 		.word	gyro_fsr
 559 006c 00000000 		.word	gyro_odr
 560 0070 00000000 		.word	accel2_fsr
 561 0074 00000000 		.word	accel2_odr
 562 0078 00000000 		.word	mag_odr
 563              		.cfi_endproc
 564              	.LFE146:
 566              		.global	temperature
 567              		.section	.bss.temperature,"aw",%nobits
 568              		.align	2
 571              	temperature:
 572 0000 00000000 		.space	4
 573              		.global	temperature_raw_h
 574              		.section	.bss.temperature_raw_h,"aw",%nobits
 577              	temperature_raw_h:
 578 0000 00       		.space	1
 579              		.global	temperature_raw_l
 580              		.section	.bss.temperature_raw_l,"aw",%nobits
 583              	temperature_raw_l:
 584 0000 00       		.space	1
 585              		.global	mag_odr
 586              		.section	.bss.mag_odr,"aw",%nobits
 587              		.align	2
 590              	mag_odr:
 591 0000 00000000 		.space	4
ARM GAS  C:\Temp\ccTPfM1T.s 			page 14


 592              		.global	accel2_odr
 593              		.section	.bss.accel2_odr,"aw",%nobits
 594              		.align	2
 597              	accel2_odr:
 598 0000 00000000 		.space	4
 599              		.global	accel2_fsr
 600              		.section	.bss.accel2_fsr,"aw",%nobits
 601              		.align	2
 604              	accel2_fsr:
 605 0000 00000000 		.space	4
 606              		.global	gyro_odr
 607              		.section	.bss.gyro_odr,"aw",%nobits
 608              		.align	2
 611              	gyro_odr:
 612 0000 00000000 		.space	4
 613              		.global	gyro_fsr
 614              		.section	.bss.gyro_fsr,"aw",%nobits
 615              		.align	2
 618              	gyro_fsr:
 619 0000 00000000 		.space	4
 620              		.global	accel1_odr
 621              		.section	.bss.accel1_odr,"aw",%nobits
 622              		.align	2
 625              	accel1_odr:
 626 0000 00000000 		.space	4
 627              		.global	accel1_fsr
 628              		.section	.bss.accel1_fsr,"aw",%nobits
 629              		.align	2
 632              	accel1_fsr:
 633 0000 00000000 		.space	4
 634              		.global	tim2_arr
 635              		.section	.bss.tim2_arr,"aw",%nobits
 636              		.align	2
 639              	tim2_arr:
 640 0000 00000000 		.space	4
 641              		.global	tim2_psc
 642              		.section	.bss.tim2_psc,"aw",%nobits
 643              		.align	2
 646              	tim2_psc:
 647 0000 00000000 		.space	4
 648              		.global	terminator
 649              		.section	.data.terminator,"aw"
 650              		.align	2
 653              	terminator:
 654 0000 415F4A00 		.word	4874049
 655              		.global	header
 656              		.section	.data.header,"aw"
 657              		.align	2
 660              	header:
 661 0000 4A5F4100 		.word	4284234
 662              		.text
 663              	.Letext0:
 664              		.file 2 "c:\\users\\jessejabezarendse\\appdata\\roaming\\code\\user\\globalstorage\\bmd.stm32-for-
 665              		.file 3 "c:\\users\\jessejabezarendse\\appdata\\roaming\\code\\user\\globalstorage\\bmd.stm32-for-
 666              		.file 4 "Drivers/CMSIS/Device/ST/STM32F4xx/Include/stm32f411xe.h"
 667              		.file 5 "Drivers/STM32F4xx_HAL_Driver/Inc/stm32f4xx_hal_def.h"
 668              		.file 6 "Drivers/STM32F4xx_HAL_Driver/Inc/stm32f4xx_hal_dma.h"
ARM GAS  C:\Temp\ccTPfM1T.s 			page 15


 669              		.file 7 "Drivers/STM32F4xx_HAL_Driver/Inc/stm32f4xx_hal_i2c.h"
 670              		.file 8 "Drivers/STM32F4xx_HAL_Driver/Inc/stm32f4xx_hal_uart.h"
 671              		.file 9 "c:\\users\\jessejabezarendse\\appdata\\roaming\\code\\user\\globalstorage\\bmd.stm32-for-
 672              		.file 10 "Drivers/BSP/IKS02A1/iks02a1_motion_sensors.h"
 673              		.file 11 "Core/Inc/stm32f4xx_nucleo_bus.h"
 674              		.file 12 "Drivers/BSP/Components/iis2dlpc/iis2dlpc_reg.h"
ARM GAS  C:\Temp\ccTPfM1T.s 			page 16

