ARM GAS  C:\Temp\ccYwOtvn.s 			page 1


   1              		.cpu cortex-m4
   2              		.arch armv7e-m
   3              		.fpu fpv4-sp-d16
   4              		.eabi_attribute 27, 1
   5              		.eabi_attribute 28, 1
   6              		.eabi_attribute 20, 1
   7              		.eabi_attribute 21, 1
   8              		.eabi_attribute 23, 3
   9              		.eabi_attribute 24, 1
  10              		.eabi_attribute 25, 1
  11              		.eabi_attribute 26, 1
  12              		.eabi_attribute 30, 1
  13              		.eabi_attribute 34, 1
  14              		.eabi_attribute 18, 4
  15              		.file	"iks02a1_motion_sensors.c"
  16              		.text
  17              	.Ltext0:
  18              		.cfi_sections	.debug_frame
  19              		.file 1 "Drivers/BSP/IKS02A1/iks02a1_motion_sensors.c"
  20              		.section	.text.ISM330DHCX_0_Probe,"ax",%progbits
  21              		.align	1
  22              		.syntax unified
  23              		.thumb
  24              		.thumb_func
  26              	ISM330DHCX_0_Probe:
  27              	.LVL0:
  28              	.LFB147:
   1:Drivers/BSP/IKS02A1/iks02a1_motion_sensors.c **** /**
   2:Drivers/BSP/IKS02A1/iks02a1_motion_sensors.c ****   ******************************************************************************
   3:Drivers/BSP/IKS02A1/iks02a1_motion_sensors.c ****   * @file    iks02a1_motion_sensors.c
   4:Drivers/BSP/IKS02A1/iks02a1_motion_sensors.c ****   * @author  MEMS Software Solutions Team
   5:Drivers/BSP/IKS02A1/iks02a1_motion_sensors.c ****   * @brief   This file provides a set of functions needed to manage the motion sensors
   6:Drivers/BSP/IKS02A1/iks02a1_motion_sensors.c ****   ******************************************************************************
   7:Drivers/BSP/IKS02A1/iks02a1_motion_sensors.c ****   * @attention
   8:Drivers/BSP/IKS02A1/iks02a1_motion_sensors.c ****   *
   9:Drivers/BSP/IKS02A1/iks02a1_motion_sensors.c ****   * Copyright (c) 2019 STMicroelectronics.
  10:Drivers/BSP/IKS02A1/iks02a1_motion_sensors.c ****   * All rights reserved.
  11:Drivers/BSP/IKS02A1/iks02a1_motion_sensors.c ****   *
  12:Drivers/BSP/IKS02A1/iks02a1_motion_sensors.c ****   * This software is licensed under terms that can be found in the LICENSE file
  13:Drivers/BSP/IKS02A1/iks02a1_motion_sensors.c ****   * in the root directory of this software component.
  14:Drivers/BSP/IKS02A1/iks02a1_motion_sensors.c ****   * If no LICENSE file comes with this software, it is provided AS-IS.
  15:Drivers/BSP/IKS02A1/iks02a1_motion_sensors.c ****   *
  16:Drivers/BSP/IKS02A1/iks02a1_motion_sensors.c ****   ******************************************************************************
  17:Drivers/BSP/IKS02A1/iks02a1_motion_sensors.c ****   */
  18:Drivers/BSP/IKS02A1/iks02a1_motion_sensors.c **** 
  19:Drivers/BSP/IKS02A1/iks02a1_motion_sensors.c **** /* Includes ------------------------------------------------------------------*/
  20:Drivers/BSP/IKS02A1/iks02a1_motion_sensors.c **** #include "iks02a1_motion_sensors.h"
  21:Drivers/BSP/IKS02A1/iks02a1_motion_sensors.c **** 
  22:Drivers/BSP/IKS02A1/iks02a1_motion_sensors.c **** /** @addtogroup BSP BSP
  23:Drivers/BSP/IKS02A1/iks02a1_motion_sensors.c ****   * @{
  24:Drivers/BSP/IKS02A1/iks02a1_motion_sensors.c ****   */
  25:Drivers/BSP/IKS02A1/iks02a1_motion_sensors.c **** 
  26:Drivers/BSP/IKS02A1/iks02a1_motion_sensors.c **** /** @addtogroup IKS02A1 IKS02A1
  27:Drivers/BSP/IKS02A1/iks02a1_motion_sensors.c ****   * @{
  28:Drivers/BSP/IKS02A1/iks02a1_motion_sensors.c ****   */
  29:Drivers/BSP/IKS02A1/iks02a1_motion_sensors.c **** 
  30:Drivers/BSP/IKS02A1/iks02a1_motion_sensors.c **** /** @defgroup IKS02A1_MOTION_SENSOR IKS02A1 MOTION SENSOR
ARM GAS  C:\Temp\ccYwOtvn.s 			page 2


  31:Drivers/BSP/IKS02A1/iks02a1_motion_sensors.c ****   * @{
  32:Drivers/BSP/IKS02A1/iks02a1_motion_sensors.c ****   */
  33:Drivers/BSP/IKS02A1/iks02a1_motion_sensors.c **** 
  34:Drivers/BSP/IKS02A1/iks02a1_motion_sensors.c **** /** @defgroup IKS02A1_MOTION_SENSOR_Exported_Variables IKS02A1 MOTION SENSOR Exported Variables
  35:Drivers/BSP/IKS02A1/iks02a1_motion_sensors.c ****   * @{
  36:Drivers/BSP/IKS02A1/iks02a1_motion_sensors.c ****   */
  37:Drivers/BSP/IKS02A1/iks02a1_motion_sensors.c **** extern void
  38:Drivers/BSP/IKS02A1/iks02a1_motion_sensors.c **** *MotionCompObj[IKS02A1_MOTION_INSTANCES_NBR]; /* This "redundant" line is here to fulfil MISRA C-20
  39:Drivers/BSP/IKS02A1/iks02a1_motion_sensors.c **** void *MotionCompObj[IKS02A1_MOTION_INSTANCES_NBR];
  40:Drivers/BSP/IKS02A1/iks02a1_motion_sensors.c **** 
  41:Drivers/BSP/IKS02A1/iks02a1_motion_sensors.c **** /**
  42:Drivers/BSP/IKS02A1/iks02a1_motion_sensors.c ****   * @}
  43:Drivers/BSP/IKS02A1/iks02a1_motion_sensors.c ****   */
  44:Drivers/BSP/IKS02A1/iks02a1_motion_sensors.c **** 
  45:Drivers/BSP/IKS02A1/iks02a1_motion_sensors.c **** /** @defgroup IKS02A1_MOTION_SENSOR_Private_Variables IKS02A1 MOTION SENSOR Private Variables
  46:Drivers/BSP/IKS02A1/iks02a1_motion_sensors.c ****   * @{
  47:Drivers/BSP/IKS02A1/iks02a1_motion_sensors.c ****   */
  48:Drivers/BSP/IKS02A1/iks02a1_motion_sensors.c **** 
  49:Drivers/BSP/IKS02A1/iks02a1_motion_sensors.c **** /* We define a jump table in order to get the correct index from the desired function. */
  50:Drivers/BSP/IKS02A1/iks02a1_motion_sensors.c **** /* This table should have a size equal to the maximum value of a function plus 1.      */
  51:Drivers/BSP/IKS02A1/iks02a1_motion_sensors.c **** /* But due to MISRA it has to be increased to 7 + 1. */
  52:Drivers/BSP/IKS02A1/iks02a1_motion_sensors.c **** static uint32_t FunctionIndex[] = {0, 0, 1, 1, 2, 2, 2, 2, 3};
  53:Drivers/BSP/IKS02A1/iks02a1_motion_sensors.c **** static MOTION_SENSOR_FuncDrv_t *MotionFuncDrv[IKS02A1_MOTION_INSTANCES_NBR][IKS02A1_MOTION_FUNCTION
  54:Drivers/BSP/IKS02A1/iks02a1_motion_sensors.c **** static MOTION_SENSOR_CommonDrv_t *MotionDrv[IKS02A1_MOTION_INSTANCES_NBR];
  55:Drivers/BSP/IKS02A1/iks02a1_motion_sensors.c **** static IKS02A1_MOTION_SENSOR_Ctx_t MotionCtx[IKS02A1_MOTION_INSTANCES_NBR];
  56:Drivers/BSP/IKS02A1/iks02a1_motion_sensors.c **** 
  57:Drivers/BSP/IKS02A1/iks02a1_motion_sensors.c **** /**
  58:Drivers/BSP/IKS02A1/iks02a1_motion_sensors.c ****   * @}
  59:Drivers/BSP/IKS02A1/iks02a1_motion_sensors.c ****   */
  60:Drivers/BSP/IKS02A1/iks02a1_motion_sensors.c **** 
  61:Drivers/BSP/IKS02A1/iks02a1_motion_sensors.c **** /** @defgroup IKS02A1_MOTION_SENSOR_Private_Function_Prototypes IKS02A1 MOTION SENSOR Private Funct
  62:Drivers/BSP/IKS02A1/iks02a1_motion_sensors.c ****   * @{
  63:Drivers/BSP/IKS02A1/iks02a1_motion_sensors.c ****   */
  64:Drivers/BSP/IKS02A1/iks02a1_motion_sensors.c **** 
  65:Drivers/BSP/IKS02A1/iks02a1_motion_sensors.c **** #if (USE_IKS02A1_MOTION_SENSOR_ISM330DHCX_0 == 1)
  66:Drivers/BSP/IKS02A1/iks02a1_motion_sensors.c **** static int32_t ISM330DHCX_0_Probe(uint32_t Functions);
  67:Drivers/BSP/IKS02A1/iks02a1_motion_sensors.c **** #endif
  68:Drivers/BSP/IKS02A1/iks02a1_motion_sensors.c **** 
  69:Drivers/BSP/IKS02A1/iks02a1_motion_sensors.c **** #if (USE_IKS02A1_MOTION_SENSOR_IIS2DLPC_0 == 1)
  70:Drivers/BSP/IKS02A1/iks02a1_motion_sensors.c **** static int32_t IIS2DLPC_0_Probe(uint32_t Functions);
  71:Drivers/BSP/IKS02A1/iks02a1_motion_sensors.c **** #endif
  72:Drivers/BSP/IKS02A1/iks02a1_motion_sensors.c **** 
  73:Drivers/BSP/IKS02A1/iks02a1_motion_sensors.c **** #if (USE_IKS02A1_MOTION_SENSOR_IIS2MDC_0 == 1)
  74:Drivers/BSP/IKS02A1/iks02a1_motion_sensors.c **** static int32_t IIS2MDC_0_Probe(uint32_t Functions);
  75:Drivers/BSP/IKS02A1/iks02a1_motion_sensors.c **** #endif
  76:Drivers/BSP/IKS02A1/iks02a1_motion_sensors.c **** 
  77:Drivers/BSP/IKS02A1/iks02a1_motion_sensors.c **** #if (USE_IKS02A1_MOTION_SENSOR_IIS2ICLX_0 == 1)
  78:Drivers/BSP/IKS02A1/iks02a1_motion_sensors.c **** static int32_t IIS2ICLX_0_Probe(uint32_t Functions);
  79:Drivers/BSP/IKS02A1/iks02a1_motion_sensors.c **** #endif
  80:Drivers/BSP/IKS02A1/iks02a1_motion_sensors.c **** 
  81:Drivers/BSP/IKS02A1/iks02a1_motion_sensors.c **** #if (USE_IKS02A1_MOTION_SENSOR_ASM330LHHX_0 == 1)
  82:Drivers/BSP/IKS02A1/iks02a1_motion_sensors.c **** static int32_t ASM330LHHX_0_Probe(uint32_t Functions);
  83:Drivers/BSP/IKS02A1/iks02a1_motion_sensors.c **** #endif
  84:Drivers/BSP/IKS02A1/iks02a1_motion_sensors.c **** 
  85:Drivers/BSP/IKS02A1/iks02a1_motion_sensors.c **** #if (USE_IKS02A1_MOTION_SENSOR_ISM330BX_0 == 1)
  86:Drivers/BSP/IKS02A1/iks02a1_motion_sensors.c **** static int32_t ISM330BX_0_Probe(uint32_t Functions);
  87:Drivers/BSP/IKS02A1/iks02a1_motion_sensors.c **** #endif
ARM GAS  C:\Temp\ccYwOtvn.s 			page 3


  88:Drivers/BSP/IKS02A1/iks02a1_motion_sensors.c **** 
  89:Drivers/BSP/IKS02A1/iks02a1_motion_sensors.c **** /**
  90:Drivers/BSP/IKS02A1/iks02a1_motion_sensors.c ****   * @}
  91:Drivers/BSP/IKS02A1/iks02a1_motion_sensors.c ****   */
  92:Drivers/BSP/IKS02A1/iks02a1_motion_sensors.c **** 
  93:Drivers/BSP/IKS02A1/iks02a1_motion_sensors.c **** /** @defgroup IKS02A1_MOTION_SENSOR_Exported_Functions IKS02A1 MOTION SENSOR Exported Functions
  94:Drivers/BSP/IKS02A1/iks02a1_motion_sensors.c ****   * @{
  95:Drivers/BSP/IKS02A1/iks02a1_motion_sensors.c ****   */
  96:Drivers/BSP/IKS02A1/iks02a1_motion_sensors.c **** 
  97:Drivers/BSP/IKS02A1/iks02a1_motion_sensors.c **** /**
  98:Drivers/BSP/IKS02A1/iks02a1_motion_sensors.c ****   * @brief  Initializes the motion sensors
  99:Drivers/BSP/IKS02A1/iks02a1_motion_sensors.c ****   * @param  Instance Motion sensor instance
 100:Drivers/BSP/IKS02A1/iks02a1_motion_sensors.c ****   * @param  Functions Motion sensor functions. Could be :
 101:Drivers/BSP/IKS02A1/iks02a1_motion_sensors.c ****   *         - MOTION_GYRO and/or MOTION_ACCELERO for instances 0, 3, 4
 102:Drivers/BSP/IKS02A1/iks02a1_motion_sensors.c ****   *         - MOTION_ACCELERO for instance 1
 103:Drivers/BSP/IKS02A1/iks02a1_motion_sensors.c ****   *         - MOTION_MAGNETO for instance 2
 104:Drivers/BSP/IKS02A1/iks02a1_motion_sensors.c ****   * @retval BSP status
 105:Drivers/BSP/IKS02A1/iks02a1_motion_sensors.c ****   */
 106:Drivers/BSP/IKS02A1/iks02a1_motion_sensors.c **** int32_t IKS02A1_MOTION_SENSOR_Init(uint32_t Instance, uint32_t Functions)
 107:Drivers/BSP/IKS02A1/iks02a1_motion_sensors.c **** {
 108:Drivers/BSP/IKS02A1/iks02a1_motion_sensors.c ****   int32_t ret = BSP_ERROR_NONE;
 109:Drivers/BSP/IKS02A1/iks02a1_motion_sensors.c ****   uint32_t function = MOTION_GYRO;
 110:Drivers/BSP/IKS02A1/iks02a1_motion_sensors.c ****   uint32_t i;
 111:Drivers/BSP/IKS02A1/iks02a1_motion_sensors.c ****   uint32_t component_functions = 0;
 112:Drivers/BSP/IKS02A1/iks02a1_motion_sensors.c ****   IKS02A1_MOTION_SENSOR_Capabilities_t cap;
 113:Drivers/BSP/IKS02A1/iks02a1_motion_sensors.c **** 
 114:Drivers/BSP/IKS02A1/iks02a1_motion_sensors.c ****   switch (Instance)
 115:Drivers/BSP/IKS02A1/iks02a1_motion_sensors.c ****   {
 116:Drivers/BSP/IKS02A1/iks02a1_motion_sensors.c **** #if (USE_IKS02A1_MOTION_SENSOR_ISM330DHCX_0 == 1)
 117:Drivers/BSP/IKS02A1/iks02a1_motion_sensors.c ****     case IKS02A1_ISM330DHCX_0:
 118:Drivers/BSP/IKS02A1/iks02a1_motion_sensors.c ****       if (ISM330DHCX_0_Probe(Functions) != BSP_ERROR_NONE)
 119:Drivers/BSP/IKS02A1/iks02a1_motion_sensors.c ****       {
 120:Drivers/BSP/IKS02A1/iks02a1_motion_sensors.c ****         return BSP_ERROR_NO_INIT;
 121:Drivers/BSP/IKS02A1/iks02a1_motion_sensors.c ****       }
 122:Drivers/BSP/IKS02A1/iks02a1_motion_sensors.c ****       if (MotionDrv[Instance]->GetCapabilities(MotionCompObj[Instance], (void *)&cap) != BSP_ERROR_
 123:Drivers/BSP/IKS02A1/iks02a1_motion_sensors.c ****       {
 124:Drivers/BSP/IKS02A1/iks02a1_motion_sensors.c ****         return BSP_ERROR_UNKNOWN_COMPONENT;
 125:Drivers/BSP/IKS02A1/iks02a1_motion_sensors.c ****       }
 126:Drivers/BSP/IKS02A1/iks02a1_motion_sensors.c ****       if (cap.Acc == 1U)
 127:Drivers/BSP/IKS02A1/iks02a1_motion_sensors.c ****       {
 128:Drivers/BSP/IKS02A1/iks02a1_motion_sensors.c ****         component_functions |= MOTION_ACCELERO;
 129:Drivers/BSP/IKS02A1/iks02a1_motion_sensors.c ****       }
 130:Drivers/BSP/IKS02A1/iks02a1_motion_sensors.c ****       if (cap.Gyro == 1U)
 131:Drivers/BSP/IKS02A1/iks02a1_motion_sensors.c ****       {
 132:Drivers/BSP/IKS02A1/iks02a1_motion_sensors.c ****         component_functions |= MOTION_GYRO;
 133:Drivers/BSP/IKS02A1/iks02a1_motion_sensors.c ****       }
 134:Drivers/BSP/IKS02A1/iks02a1_motion_sensors.c ****       if (cap.Magneto == 1U)
 135:Drivers/BSP/IKS02A1/iks02a1_motion_sensors.c ****       {
 136:Drivers/BSP/IKS02A1/iks02a1_motion_sensors.c ****         component_functions |= MOTION_MAGNETO;
 137:Drivers/BSP/IKS02A1/iks02a1_motion_sensors.c ****       }
 138:Drivers/BSP/IKS02A1/iks02a1_motion_sensors.c ****       break;
 139:Drivers/BSP/IKS02A1/iks02a1_motion_sensors.c **** #endif
 140:Drivers/BSP/IKS02A1/iks02a1_motion_sensors.c **** 
 141:Drivers/BSP/IKS02A1/iks02a1_motion_sensors.c **** #if (USE_IKS02A1_MOTION_SENSOR_IIS2DLPC_0 == 1)
 142:Drivers/BSP/IKS02A1/iks02a1_motion_sensors.c ****     case IKS02A1_IIS2DLPC_0:
 143:Drivers/BSP/IKS02A1/iks02a1_motion_sensors.c ****       if (IIS2DLPC_0_Probe(Functions) != BSP_ERROR_NONE)
 144:Drivers/BSP/IKS02A1/iks02a1_motion_sensors.c ****       {
ARM GAS  C:\Temp\ccYwOtvn.s 			page 4


 145:Drivers/BSP/IKS02A1/iks02a1_motion_sensors.c ****         return BSP_ERROR_NO_INIT;
 146:Drivers/BSP/IKS02A1/iks02a1_motion_sensors.c ****       }
 147:Drivers/BSP/IKS02A1/iks02a1_motion_sensors.c ****       if (MotionDrv[Instance]->GetCapabilities(MotionCompObj[Instance], (void *)&cap) != BSP_ERROR_
 148:Drivers/BSP/IKS02A1/iks02a1_motion_sensors.c ****       {
 149:Drivers/BSP/IKS02A1/iks02a1_motion_sensors.c ****         return BSP_ERROR_UNKNOWN_COMPONENT;
 150:Drivers/BSP/IKS02A1/iks02a1_motion_sensors.c ****       }
 151:Drivers/BSP/IKS02A1/iks02a1_motion_sensors.c ****       if (cap.Acc == 1U)
 152:Drivers/BSP/IKS02A1/iks02a1_motion_sensors.c ****       {
 153:Drivers/BSP/IKS02A1/iks02a1_motion_sensors.c ****         component_functions |= MOTION_ACCELERO;
 154:Drivers/BSP/IKS02A1/iks02a1_motion_sensors.c ****       }
 155:Drivers/BSP/IKS02A1/iks02a1_motion_sensors.c ****       if (cap.Gyro == 1U)
 156:Drivers/BSP/IKS02A1/iks02a1_motion_sensors.c ****       {
 157:Drivers/BSP/IKS02A1/iks02a1_motion_sensors.c ****         component_functions |= MOTION_GYRO;
 158:Drivers/BSP/IKS02A1/iks02a1_motion_sensors.c ****       }
 159:Drivers/BSP/IKS02A1/iks02a1_motion_sensors.c ****       if (cap.Magneto == 1U)
 160:Drivers/BSP/IKS02A1/iks02a1_motion_sensors.c ****       {
 161:Drivers/BSP/IKS02A1/iks02a1_motion_sensors.c ****         component_functions |= MOTION_MAGNETO;
 162:Drivers/BSP/IKS02A1/iks02a1_motion_sensors.c ****       }
 163:Drivers/BSP/IKS02A1/iks02a1_motion_sensors.c ****       break;
 164:Drivers/BSP/IKS02A1/iks02a1_motion_sensors.c **** #endif
 165:Drivers/BSP/IKS02A1/iks02a1_motion_sensors.c **** 
 166:Drivers/BSP/IKS02A1/iks02a1_motion_sensors.c **** #if (USE_IKS02A1_MOTION_SENSOR_IIS2MDC_0 == 1)
 167:Drivers/BSP/IKS02A1/iks02a1_motion_sensors.c ****     case IKS02A1_IIS2MDC_0:
 168:Drivers/BSP/IKS02A1/iks02a1_motion_sensors.c ****       if (IIS2MDC_0_Probe(Functions) != BSP_ERROR_NONE)
 169:Drivers/BSP/IKS02A1/iks02a1_motion_sensors.c ****       {
 170:Drivers/BSP/IKS02A1/iks02a1_motion_sensors.c ****         return BSP_ERROR_NO_INIT;
 171:Drivers/BSP/IKS02A1/iks02a1_motion_sensors.c ****       }
 172:Drivers/BSP/IKS02A1/iks02a1_motion_sensors.c ****       if (MotionDrv[Instance]->GetCapabilities(MotionCompObj[Instance], (void *)&cap) != BSP_ERROR_
 173:Drivers/BSP/IKS02A1/iks02a1_motion_sensors.c ****       {
 174:Drivers/BSP/IKS02A1/iks02a1_motion_sensors.c ****         return BSP_ERROR_UNKNOWN_COMPONENT;
 175:Drivers/BSP/IKS02A1/iks02a1_motion_sensors.c ****       }
 176:Drivers/BSP/IKS02A1/iks02a1_motion_sensors.c ****       if (cap.Acc == 1U)
 177:Drivers/BSP/IKS02A1/iks02a1_motion_sensors.c ****       {
 178:Drivers/BSP/IKS02A1/iks02a1_motion_sensors.c ****         component_functions |= MOTION_ACCELERO;
 179:Drivers/BSP/IKS02A1/iks02a1_motion_sensors.c ****       }
 180:Drivers/BSP/IKS02A1/iks02a1_motion_sensors.c ****       if (cap.Gyro == 1U)
 181:Drivers/BSP/IKS02A1/iks02a1_motion_sensors.c ****       {
 182:Drivers/BSP/IKS02A1/iks02a1_motion_sensors.c ****         component_functions |= MOTION_GYRO;
 183:Drivers/BSP/IKS02A1/iks02a1_motion_sensors.c ****       }
 184:Drivers/BSP/IKS02A1/iks02a1_motion_sensors.c ****       if (cap.Magneto == 1U)
 185:Drivers/BSP/IKS02A1/iks02a1_motion_sensors.c ****       {
 186:Drivers/BSP/IKS02A1/iks02a1_motion_sensors.c ****         component_functions |= MOTION_MAGNETO;
 187:Drivers/BSP/IKS02A1/iks02a1_motion_sensors.c ****       }
 188:Drivers/BSP/IKS02A1/iks02a1_motion_sensors.c ****       break;
 189:Drivers/BSP/IKS02A1/iks02a1_motion_sensors.c **** #endif
 190:Drivers/BSP/IKS02A1/iks02a1_motion_sensors.c **** 
 191:Drivers/BSP/IKS02A1/iks02a1_motion_sensors.c **** #if (USE_IKS02A1_MOTION_SENSOR_IIS2ICLX_0 == 1)
 192:Drivers/BSP/IKS02A1/iks02a1_motion_sensors.c ****     case IKS02A1_IIS2ICLX_0:
 193:Drivers/BSP/IKS02A1/iks02a1_motion_sensors.c ****       if (IIS2ICLX_0_Probe(Functions) != BSP_ERROR_NONE)
 194:Drivers/BSP/IKS02A1/iks02a1_motion_sensors.c ****       {
 195:Drivers/BSP/IKS02A1/iks02a1_motion_sensors.c ****         return BSP_ERROR_NO_INIT;
 196:Drivers/BSP/IKS02A1/iks02a1_motion_sensors.c ****       }
 197:Drivers/BSP/IKS02A1/iks02a1_motion_sensors.c ****       if (MotionDrv[Instance]->GetCapabilities(MotionCompObj[Instance], (void *)&cap) != BSP_ERROR_
 198:Drivers/BSP/IKS02A1/iks02a1_motion_sensors.c ****       {
 199:Drivers/BSP/IKS02A1/iks02a1_motion_sensors.c ****         return BSP_ERROR_UNKNOWN_COMPONENT;
 200:Drivers/BSP/IKS02A1/iks02a1_motion_sensors.c ****       }
 201:Drivers/BSP/IKS02A1/iks02a1_motion_sensors.c ****       if (cap.Acc == 1U)
ARM GAS  C:\Temp\ccYwOtvn.s 			page 5


 202:Drivers/BSP/IKS02A1/iks02a1_motion_sensors.c ****       {
 203:Drivers/BSP/IKS02A1/iks02a1_motion_sensors.c ****         component_functions |= MOTION_ACCELERO;
 204:Drivers/BSP/IKS02A1/iks02a1_motion_sensors.c ****       }
 205:Drivers/BSP/IKS02A1/iks02a1_motion_sensors.c ****       if (cap.Gyro == 1U)
 206:Drivers/BSP/IKS02A1/iks02a1_motion_sensors.c ****       {
 207:Drivers/BSP/IKS02A1/iks02a1_motion_sensors.c ****         component_functions |= MOTION_GYRO;
 208:Drivers/BSP/IKS02A1/iks02a1_motion_sensors.c ****       }
 209:Drivers/BSP/IKS02A1/iks02a1_motion_sensors.c ****       if (cap.Magneto == 1U)
 210:Drivers/BSP/IKS02A1/iks02a1_motion_sensors.c ****       {
 211:Drivers/BSP/IKS02A1/iks02a1_motion_sensors.c ****         component_functions |= MOTION_MAGNETO;
 212:Drivers/BSP/IKS02A1/iks02a1_motion_sensors.c ****       }
 213:Drivers/BSP/IKS02A1/iks02a1_motion_sensors.c ****       break;
 214:Drivers/BSP/IKS02A1/iks02a1_motion_sensors.c **** #endif
 215:Drivers/BSP/IKS02A1/iks02a1_motion_sensors.c **** 
 216:Drivers/BSP/IKS02A1/iks02a1_motion_sensors.c **** #if (USE_IKS02A1_MOTION_SENSOR_ASM330LHHX_0 == 1)
 217:Drivers/BSP/IKS02A1/iks02a1_motion_sensors.c ****     case IKS02A1_ASM330LHHX_0:
 218:Drivers/BSP/IKS02A1/iks02a1_motion_sensors.c ****       if (ASM330LHHX_0_Probe(Functions) != BSP_ERROR_NONE)
 219:Drivers/BSP/IKS02A1/iks02a1_motion_sensors.c ****       {
 220:Drivers/BSP/IKS02A1/iks02a1_motion_sensors.c ****         return BSP_ERROR_NO_INIT;
 221:Drivers/BSP/IKS02A1/iks02a1_motion_sensors.c ****       }
 222:Drivers/BSP/IKS02A1/iks02a1_motion_sensors.c ****       if (MotionDrv[Instance]->GetCapabilities(MotionCompObj[Instance], (void *)&cap) != BSP_ERROR_
 223:Drivers/BSP/IKS02A1/iks02a1_motion_sensors.c ****       {
 224:Drivers/BSP/IKS02A1/iks02a1_motion_sensors.c ****         return BSP_ERROR_UNKNOWN_COMPONENT;
 225:Drivers/BSP/IKS02A1/iks02a1_motion_sensors.c ****       }
 226:Drivers/BSP/IKS02A1/iks02a1_motion_sensors.c ****       if (cap.Acc == 1U)
 227:Drivers/BSP/IKS02A1/iks02a1_motion_sensors.c ****       {
 228:Drivers/BSP/IKS02A1/iks02a1_motion_sensors.c ****         component_functions |= MOTION_ACCELERO;
 229:Drivers/BSP/IKS02A1/iks02a1_motion_sensors.c ****       }
 230:Drivers/BSP/IKS02A1/iks02a1_motion_sensors.c ****       if (cap.Gyro == 1U)
 231:Drivers/BSP/IKS02A1/iks02a1_motion_sensors.c ****       {
 232:Drivers/BSP/IKS02A1/iks02a1_motion_sensors.c ****         component_functions |= MOTION_GYRO;
 233:Drivers/BSP/IKS02A1/iks02a1_motion_sensors.c ****       }
 234:Drivers/BSP/IKS02A1/iks02a1_motion_sensors.c ****       if (cap.Magneto == 1U)
 235:Drivers/BSP/IKS02A1/iks02a1_motion_sensors.c ****       {
 236:Drivers/BSP/IKS02A1/iks02a1_motion_sensors.c ****         component_functions |= MOTION_MAGNETO;
 237:Drivers/BSP/IKS02A1/iks02a1_motion_sensors.c ****       }
 238:Drivers/BSP/IKS02A1/iks02a1_motion_sensors.c ****       break;
 239:Drivers/BSP/IKS02A1/iks02a1_motion_sensors.c **** #endif
 240:Drivers/BSP/IKS02A1/iks02a1_motion_sensors.c **** 
 241:Drivers/BSP/IKS02A1/iks02a1_motion_sensors.c **** #if (USE_IKS02A1_MOTION_SENSOR_ISM330BX_0 == 1)
 242:Drivers/BSP/IKS02A1/iks02a1_motion_sensors.c ****     case IKS02A1_ISM330BX_0:
 243:Drivers/BSP/IKS02A1/iks02a1_motion_sensors.c ****       if (ISM330BX_0_Probe(Functions) != BSP_ERROR_NONE)
 244:Drivers/BSP/IKS02A1/iks02a1_motion_sensors.c ****       {
 245:Drivers/BSP/IKS02A1/iks02a1_motion_sensors.c ****         return BSP_ERROR_NO_INIT;
 246:Drivers/BSP/IKS02A1/iks02a1_motion_sensors.c ****       }
 247:Drivers/BSP/IKS02A1/iks02a1_motion_sensors.c ****       if (MotionDrv[Instance]->GetCapabilities(MotionCompObj[Instance], (void *)&cap) != BSP_ERROR_
 248:Drivers/BSP/IKS02A1/iks02a1_motion_sensors.c ****       {
 249:Drivers/BSP/IKS02A1/iks02a1_motion_sensors.c ****         return BSP_ERROR_UNKNOWN_COMPONENT;
 250:Drivers/BSP/IKS02A1/iks02a1_motion_sensors.c ****       }
 251:Drivers/BSP/IKS02A1/iks02a1_motion_sensors.c ****       if (cap.Acc == 1U)
 252:Drivers/BSP/IKS02A1/iks02a1_motion_sensors.c ****       {
 253:Drivers/BSP/IKS02A1/iks02a1_motion_sensors.c ****         component_functions |= MOTION_ACCELERO;
 254:Drivers/BSP/IKS02A1/iks02a1_motion_sensors.c ****       }
 255:Drivers/BSP/IKS02A1/iks02a1_motion_sensors.c ****       if (cap.Gyro == 1U)
 256:Drivers/BSP/IKS02A1/iks02a1_motion_sensors.c ****       {
 257:Drivers/BSP/IKS02A1/iks02a1_motion_sensors.c ****         component_functions |= MOTION_GYRO;
 258:Drivers/BSP/IKS02A1/iks02a1_motion_sensors.c ****       }
ARM GAS  C:\Temp\ccYwOtvn.s 			page 6


 259:Drivers/BSP/IKS02A1/iks02a1_motion_sensors.c ****       if (cap.Magneto == 1U)
 260:Drivers/BSP/IKS02A1/iks02a1_motion_sensors.c ****       {
 261:Drivers/BSP/IKS02A1/iks02a1_motion_sensors.c ****         component_functions |= MOTION_MAGNETO;
 262:Drivers/BSP/IKS02A1/iks02a1_motion_sensors.c ****       }
 263:Drivers/BSP/IKS02A1/iks02a1_motion_sensors.c ****       break;
 264:Drivers/BSP/IKS02A1/iks02a1_motion_sensors.c **** #endif
 265:Drivers/BSP/IKS02A1/iks02a1_motion_sensors.c **** 
 266:Drivers/BSP/IKS02A1/iks02a1_motion_sensors.c ****     default:
 267:Drivers/BSP/IKS02A1/iks02a1_motion_sensors.c ****       ret = BSP_ERROR_WRONG_PARAM;
 268:Drivers/BSP/IKS02A1/iks02a1_motion_sensors.c ****       break;
 269:Drivers/BSP/IKS02A1/iks02a1_motion_sensors.c ****   }
 270:Drivers/BSP/IKS02A1/iks02a1_motion_sensors.c **** 
 271:Drivers/BSP/IKS02A1/iks02a1_motion_sensors.c ****   if (ret != BSP_ERROR_NONE)
 272:Drivers/BSP/IKS02A1/iks02a1_motion_sensors.c ****   {
 273:Drivers/BSP/IKS02A1/iks02a1_motion_sensors.c ****     return ret;
 274:Drivers/BSP/IKS02A1/iks02a1_motion_sensors.c ****   }
 275:Drivers/BSP/IKS02A1/iks02a1_motion_sensors.c **** 
 276:Drivers/BSP/IKS02A1/iks02a1_motion_sensors.c ****   for (i = 0; i < IKS02A1_MOTION_FUNCTIONS_NBR; i++)
 277:Drivers/BSP/IKS02A1/iks02a1_motion_sensors.c ****   {
 278:Drivers/BSP/IKS02A1/iks02a1_motion_sensors.c ****     if (((Functions & function) == function) && ((component_functions & function) == function))
 279:Drivers/BSP/IKS02A1/iks02a1_motion_sensors.c ****     {
 280:Drivers/BSP/IKS02A1/iks02a1_motion_sensors.c ****       if (MotionFuncDrv[Instance][FunctionIndex[function]]->Enable(MotionCompObj[Instance]) != BSP_
 281:Drivers/BSP/IKS02A1/iks02a1_motion_sensors.c ****       {
 282:Drivers/BSP/IKS02A1/iks02a1_motion_sensors.c ****         return BSP_ERROR_COMPONENT_FAILURE;
 283:Drivers/BSP/IKS02A1/iks02a1_motion_sensors.c ****       }
 284:Drivers/BSP/IKS02A1/iks02a1_motion_sensors.c ****     }
 285:Drivers/BSP/IKS02A1/iks02a1_motion_sensors.c ****     function = function << 1;
 286:Drivers/BSP/IKS02A1/iks02a1_motion_sensors.c ****   }
 287:Drivers/BSP/IKS02A1/iks02a1_motion_sensors.c **** 
 288:Drivers/BSP/IKS02A1/iks02a1_motion_sensors.c ****   return ret;
 289:Drivers/BSP/IKS02A1/iks02a1_motion_sensors.c **** }
 290:Drivers/BSP/IKS02A1/iks02a1_motion_sensors.c **** 
 291:Drivers/BSP/IKS02A1/iks02a1_motion_sensors.c **** /**
 292:Drivers/BSP/IKS02A1/iks02a1_motion_sensors.c ****   * @brief  Deinitialize Motion sensor
 293:Drivers/BSP/IKS02A1/iks02a1_motion_sensors.c ****   * @param  Instance Motion sensor instance
 294:Drivers/BSP/IKS02A1/iks02a1_motion_sensors.c ****   * @retval BSP status
 295:Drivers/BSP/IKS02A1/iks02a1_motion_sensors.c ****   */
 296:Drivers/BSP/IKS02A1/iks02a1_motion_sensors.c **** int32_t IKS02A1_MOTION_SENSOR_DeInit(uint32_t Instance)
 297:Drivers/BSP/IKS02A1/iks02a1_motion_sensors.c **** {
 298:Drivers/BSP/IKS02A1/iks02a1_motion_sensors.c ****   int32_t ret;
 299:Drivers/BSP/IKS02A1/iks02a1_motion_sensors.c **** 
 300:Drivers/BSP/IKS02A1/iks02a1_motion_sensors.c ****   if (Instance >= IKS02A1_MOTION_INSTANCES_NBR)
 301:Drivers/BSP/IKS02A1/iks02a1_motion_sensors.c ****   {
 302:Drivers/BSP/IKS02A1/iks02a1_motion_sensors.c ****     ret = BSP_ERROR_WRONG_PARAM;
 303:Drivers/BSP/IKS02A1/iks02a1_motion_sensors.c ****   }
 304:Drivers/BSP/IKS02A1/iks02a1_motion_sensors.c ****   else if (MotionDrv[Instance]->DeInit(MotionCompObj[Instance]) != BSP_ERROR_NONE)
 305:Drivers/BSP/IKS02A1/iks02a1_motion_sensors.c ****   {
 306:Drivers/BSP/IKS02A1/iks02a1_motion_sensors.c ****     ret = BSP_ERROR_COMPONENT_FAILURE;
 307:Drivers/BSP/IKS02A1/iks02a1_motion_sensors.c ****   }
 308:Drivers/BSP/IKS02A1/iks02a1_motion_sensors.c ****   else
 309:Drivers/BSP/IKS02A1/iks02a1_motion_sensors.c ****   {
 310:Drivers/BSP/IKS02A1/iks02a1_motion_sensors.c ****     ret = BSP_ERROR_NONE;
 311:Drivers/BSP/IKS02A1/iks02a1_motion_sensors.c ****   }
 312:Drivers/BSP/IKS02A1/iks02a1_motion_sensors.c **** 
 313:Drivers/BSP/IKS02A1/iks02a1_motion_sensors.c ****   return ret;
 314:Drivers/BSP/IKS02A1/iks02a1_motion_sensors.c **** }
 315:Drivers/BSP/IKS02A1/iks02a1_motion_sensors.c **** 
ARM GAS  C:\Temp\ccYwOtvn.s 			page 7


 316:Drivers/BSP/IKS02A1/iks02a1_motion_sensors.c **** /**
 317:Drivers/BSP/IKS02A1/iks02a1_motion_sensors.c ****   * @brief  Get motion sensor instance capabilities
 318:Drivers/BSP/IKS02A1/iks02a1_motion_sensors.c ****   * @param  Instance Motion sensor instance
 319:Drivers/BSP/IKS02A1/iks02a1_motion_sensors.c ****   * @param  Capabilities pointer to motion sensor capabilities
 320:Drivers/BSP/IKS02A1/iks02a1_motion_sensors.c ****   * @retval BSP status
 321:Drivers/BSP/IKS02A1/iks02a1_motion_sensors.c ****   */
 322:Drivers/BSP/IKS02A1/iks02a1_motion_sensors.c **** int32_t IKS02A1_MOTION_SENSOR_GetCapabilities(uint32_t Instance, IKS02A1_MOTION_SENSOR_Capabilities
 323:Drivers/BSP/IKS02A1/iks02a1_motion_sensors.c **** {
 324:Drivers/BSP/IKS02A1/iks02a1_motion_sensors.c ****   int32_t ret;
 325:Drivers/BSP/IKS02A1/iks02a1_motion_sensors.c **** 
 326:Drivers/BSP/IKS02A1/iks02a1_motion_sensors.c ****   if (Instance >= IKS02A1_MOTION_INSTANCES_NBR)
 327:Drivers/BSP/IKS02A1/iks02a1_motion_sensors.c ****   {
 328:Drivers/BSP/IKS02A1/iks02a1_motion_sensors.c ****     ret = BSP_ERROR_WRONG_PARAM;
 329:Drivers/BSP/IKS02A1/iks02a1_motion_sensors.c ****   }
 330:Drivers/BSP/IKS02A1/iks02a1_motion_sensors.c ****   else if (MotionDrv[Instance]->GetCapabilities(MotionCompObj[Instance], Capabilities) != BSP_ERROR
 331:Drivers/BSP/IKS02A1/iks02a1_motion_sensors.c ****   {
 332:Drivers/BSP/IKS02A1/iks02a1_motion_sensors.c ****     ret = BSP_ERROR_UNKNOWN_COMPONENT;
 333:Drivers/BSP/IKS02A1/iks02a1_motion_sensors.c ****   }
 334:Drivers/BSP/IKS02A1/iks02a1_motion_sensors.c ****   else
 335:Drivers/BSP/IKS02A1/iks02a1_motion_sensors.c ****   {
 336:Drivers/BSP/IKS02A1/iks02a1_motion_sensors.c ****     ret = BSP_ERROR_NONE;
 337:Drivers/BSP/IKS02A1/iks02a1_motion_sensors.c ****   }
 338:Drivers/BSP/IKS02A1/iks02a1_motion_sensors.c **** 
 339:Drivers/BSP/IKS02A1/iks02a1_motion_sensors.c ****   return ret;
 340:Drivers/BSP/IKS02A1/iks02a1_motion_sensors.c **** }
 341:Drivers/BSP/IKS02A1/iks02a1_motion_sensors.c **** 
 342:Drivers/BSP/IKS02A1/iks02a1_motion_sensors.c **** /**
 343:Drivers/BSP/IKS02A1/iks02a1_motion_sensors.c ****   * @brief  Get WHOAMI value
 344:Drivers/BSP/IKS02A1/iks02a1_motion_sensors.c ****   * @param  Instance Motion sensor instance
 345:Drivers/BSP/IKS02A1/iks02a1_motion_sensors.c ****   * @param  Id WHOAMI value
 346:Drivers/BSP/IKS02A1/iks02a1_motion_sensors.c ****   * @retval BSP status
 347:Drivers/BSP/IKS02A1/iks02a1_motion_sensors.c ****   */
 348:Drivers/BSP/IKS02A1/iks02a1_motion_sensors.c **** int32_t IKS02A1_MOTION_SENSOR_ReadID(uint32_t Instance, uint8_t *Id)
 349:Drivers/BSP/IKS02A1/iks02a1_motion_sensors.c **** {
 350:Drivers/BSP/IKS02A1/iks02a1_motion_sensors.c ****   int32_t ret;
 351:Drivers/BSP/IKS02A1/iks02a1_motion_sensors.c **** 
 352:Drivers/BSP/IKS02A1/iks02a1_motion_sensors.c ****   if (Instance >= IKS02A1_MOTION_INSTANCES_NBR)
 353:Drivers/BSP/IKS02A1/iks02a1_motion_sensors.c ****   {
 354:Drivers/BSP/IKS02A1/iks02a1_motion_sensors.c ****     ret = BSP_ERROR_WRONG_PARAM;
 355:Drivers/BSP/IKS02A1/iks02a1_motion_sensors.c ****   }
 356:Drivers/BSP/IKS02A1/iks02a1_motion_sensors.c ****   else if (MotionDrv[Instance]->ReadID(MotionCompObj[Instance], Id) != BSP_ERROR_NONE)
 357:Drivers/BSP/IKS02A1/iks02a1_motion_sensors.c ****   {
 358:Drivers/BSP/IKS02A1/iks02a1_motion_sensors.c ****     ret = BSP_ERROR_UNKNOWN_COMPONENT;
 359:Drivers/BSP/IKS02A1/iks02a1_motion_sensors.c ****   }
 360:Drivers/BSP/IKS02A1/iks02a1_motion_sensors.c ****   else
 361:Drivers/BSP/IKS02A1/iks02a1_motion_sensors.c ****   {
 362:Drivers/BSP/IKS02A1/iks02a1_motion_sensors.c ****     ret = BSP_ERROR_NONE;
 363:Drivers/BSP/IKS02A1/iks02a1_motion_sensors.c ****   }
 364:Drivers/BSP/IKS02A1/iks02a1_motion_sensors.c **** 
 365:Drivers/BSP/IKS02A1/iks02a1_motion_sensors.c ****   return ret;
 366:Drivers/BSP/IKS02A1/iks02a1_motion_sensors.c **** }
 367:Drivers/BSP/IKS02A1/iks02a1_motion_sensors.c **** 
 368:Drivers/BSP/IKS02A1/iks02a1_motion_sensors.c **** /**
 369:Drivers/BSP/IKS02A1/iks02a1_motion_sensors.c ****   * @brief  Enable Motion sensor
 370:Drivers/BSP/IKS02A1/iks02a1_motion_sensors.c ****   * @param  Instance Motion sensor instance
 371:Drivers/BSP/IKS02A1/iks02a1_motion_sensors.c ****   * @param  Function Motion sensor function. Could be :
 372:Drivers/BSP/IKS02A1/iks02a1_motion_sensors.c ****   *         - MOTION_GYRO and/or MOTION_ACCELERO for instance 0
ARM GAS  C:\Temp\ccYwOtvn.s 			page 8


 373:Drivers/BSP/IKS02A1/iks02a1_motion_sensors.c ****   *         - MOTION_ACCELERO for instance 1
 374:Drivers/BSP/IKS02A1/iks02a1_motion_sensors.c ****   *         - MOTION_MAGNETO for instance 2
 375:Drivers/BSP/IKS02A1/iks02a1_motion_sensors.c ****   * @retval BSP status
 376:Drivers/BSP/IKS02A1/iks02a1_motion_sensors.c ****   */
 377:Drivers/BSP/IKS02A1/iks02a1_motion_sensors.c **** int32_t IKS02A1_MOTION_SENSOR_Enable(uint32_t Instance, uint32_t Function)
 378:Drivers/BSP/IKS02A1/iks02a1_motion_sensors.c **** {
 379:Drivers/BSP/IKS02A1/iks02a1_motion_sensors.c ****   int32_t ret;
 380:Drivers/BSP/IKS02A1/iks02a1_motion_sensors.c **** 
 381:Drivers/BSP/IKS02A1/iks02a1_motion_sensors.c ****   if (Instance >= IKS02A1_MOTION_INSTANCES_NBR)
 382:Drivers/BSP/IKS02A1/iks02a1_motion_sensors.c ****   {
 383:Drivers/BSP/IKS02A1/iks02a1_motion_sensors.c ****     ret = BSP_ERROR_WRONG_PARAM;
 384:Drivers/BSP/IKS02A1/iks02a1_motion_sensors.c ****   }
 385:Drivers/BSP/IKS02A1/iks02a1_motion_sensors.c ****   else
 386:Drivers/BSP/IKS02A1/iks02a1_motion_sensors.c ****   {
 387:Drivers/BSP/IKS02A1/iks02a1_motion_sensors.c ****     if ((MotionCtx[Instance].Functions & Function) == Function)
 388:Drivers/BSP/IKS02A1/iks02a1_motion_sensors.c ****     {
 389:Drivers/BSP/IKS02A1/iks02a1_motion_sensors.c ****       if (MotionFuncDrv[Instance][FunctionIndex[Function]]->Enable(MotionCompObj[Instance]) != BSP_
 390:Drivers/BSP/IKS02A1/iks02a1_motion_sensors.c ****       {
 391:Drivers/BSP/IKS02A1/iks02a1_motion_sensors.c ****         ret = BSP_ERROR_COMPONENT_FAILURE;
 392:Drivers/BSP/IKS02A1/iks02a1_motion_sensors.c ****       }
 393:Drivers/BSP/IKS02A1/iks02a1_motion_sensors.c ****       else
 394:Drivers/BSP/IKS02A1/iks02a1_motion_sensors.c ****       {
 395:Drivers/BSP/IKS02A1/iks02a1_motion_sensors.c ****         ret = BSP_ERROR_NONE;
 396:Drivers/BSP/IKS02A1/iks02a1_motion_sensors.c ****       }
 397:Drivers/BSP/IKS02A1/iks02a1_motion_sensors.c ****     }
 398:Drivers/BSP/IKS02A1/iks02a1_motion_sensors.c ****     else
 399:Drivers/BSP/IKS02A1/iks02a1_motion_sensors.c ****     {
 400:Drivers/BSP/IKS02A1/iks02a1_motion_sensors.c ****       ret = BSP_ERROR_WRONG_PARAM;
 401:Drivers/BSP/IKS02A1/iks02a1_motion_sensors.c ****     }
 402:Drivers/BSP/IKS02A1/iks02a1_motion_sensors.c ****   }
 403:Drivers/BSP/IKS02A1/iks02a1_motion_sensors.c **** 
 404:Drivers/BSP/IKS02A1/iks02a1_motion_sensors.c ****   return ret;
 405:Drivers/BSP/IKS02A1/iks02a1_motion_sensors.c **** }
 406:Drivers/BSP/IKS02A1/iks02a1_motion_sensors.c **** 
 407:Drivers/BSP/IKS02A1/iks02a1_motion_sensors.c **** /**
 408:Drivers/BSP/IKS02A1/iks02a1_motion_sensors.c ****   * @brief  Disable Motion sensor
 409:Drivers/BSP/IKS02A1/iks02a1_motion_sensors.c ****   * @param  Instance Motion sensor instance
 410:Drivers/BSP/IKS02A1/iks02a1_motion_sensors.c ****   * @param  Function Motion sensor function. Could be :
 411:Drivers/BSP/IKS02A1/iks02a1_motion_sensors.c ****   *         - MOTION_GYRO and/or MOTION_ACCELERO for instance 0
 412:Drivers/BSP/IKS02A1/iks02a1_motion_sensors.c ****   *         - MOTION_ACCELERO for instance 1
 413:Drivers/BSP/IKS02A1/iks02a1_motion_sensors.c ****   *         - MOTION_MAGNETO for instance 2
 414:Drivers/BSP/IKS02A1/iks02a1_motion_sensors.c ****   * @retval BSP status
 415:Drivers/BSP/IKS02A1/iks02a1_motion_sensors.c ****   */
 416:Drivers/BSP/IKS02A1/iks02a1_motion_sensors.c **** int32_t IKS02A1_MOTION_SENSOR_Disable(uint32_t Instance, uint32_t Function)
 417:Drivers/BSP/IKS02A1/iks02a1_motion_sensors.c **** {
 418:Drivers/BSP/IKS02A1/iks02a1_motion_sensors.c ****   int32_t ret;
 419:Drivers/BSP/IKS02A1/iks02a1_motion_sensors.c **** 
 420:Drivers/BSP/IKS02A1/iks02a1_motion_sensors.c ****   if (Instance >= IKS02A1_MOTION_INSTANCES_NBR)
 421:Drivers/BSP/IKS02A1/iks02a1_motion_sensors.c ****   {
 422:Drivers/BSP/IKS02A1/iks02a1_motion_sensors.c ****     ret = BSP_ERROR_WRONG_PARAM;
 423:Drivers/BSP/IKS02A1/iks02a1_motion_sensors.c ****   }
 424:Drivers/BSP/IKS02A1/iks02a1_motion_sensors.c ****   else
 425:Drivers/BSP/IKS02A1/iks02a1_motion_sensors.c ****   {
 426:Drivers/BSP/IKS02A1/iks02a1_motion_sensors.c ****     if ((MotionCtx[Instance].Functions & Function) == Function)
 427:Drivers/BSP/IKS02A1/iks02a1_motion_sensors.c ****     {
 428:Drivers/BSP/IKS02A1/iks02a1_motion_sensors.c ****       if (MotionFuncDrv[Instance][FunctionIndex[Function]]->Disable(MotionCompObj[Instance]) != BSP
 429:Drivers/BSP/IKS02A1/iks02a1_motion_sensors.c ****       {
ARM GAS  C:\Temp\ccYwOtvn.s 			page 9


 430:Drivers/BSP/IKS02A1/iks02a1_motion_sensors.c ****         ret = BSP_ERROR_COMPONENT_FAILURE;
 431:Drivers/BSP/IKS02A1/iks02a1_motion_sensors.c ****       }
 432:Drivers/BSP/IKS02A1/iks02a1_motion_sensors.c ****       else
 433:Drivers/BSP/IKS02A1/iks02a1_motion_sensors.c ****       {
 434:Drivers/BSP/IKS02A1/iks02a1_motion_sensors.c ****         ret = BSP_ERROR_NONE;
 435:Drivers/BSP/IKS02A1/iks02a1_motion_sensors.c ****       }
 436:Drivers/BSP/IKS02A1/iks02a1_motion_sensors.c ****     }
 437:Drivers/BSP/IKS02A1/iks02a1_motion_sensors.c ****     else
 438:Drivers/BSP/IKS02A1/iks02a1_motion_sensors.c ****     {
 439:Drivers/BSP/IKS02A1/iks02a1_motion_sensors.c ****       ret = BSP_ERROR_WRONG_PARAM;
 440:Drivers/BSP/IKS02A1/iks02a1_motion_sensors.c ****     }
 441:Drivers/BSP/IKS02A1/iks02a1_motion_sensors.c ****   }
 442:Drivers/BSP/IKS02A1/iks02a1_motion_sensors.c **** 
 443:Drivers/BSP/IKS02A1/iks02a1_motion_sensors.c ****   return ret;
 444:Drivers/BSP/IKS02A1/iks02a1_motion_sensors.c **** }
 445:Drivers/BSP/IKS02A1/iks02a1_motion_sensors.c **** 
 446:Drivers/BSP/IKS02A1/iks02a1_motion_sensors.c **** /**
 447:Drivers/BSP/IKS02A1/iks02a1_motion_sensors.c ****   * @brief  Get motion sensor axes data
 448:Drivers/BSP/IKS02A1/iks02a1_motion_sensors.c ****   * @param  Instance Motion sensor instance
 449:Drivers/BSP/IKS02A1/iks02a1_motion_sensors.c ****   * @param  Function Motion sensor function. Could be :
 450:Drivers/BSP/IKS02A1/iks02a1_motion_sensors.c ****   *         - MOTION_GYRO and/or MOTION_ACCELERO for instance 0
 451:Drivers/BSP/IKS02A1/iks02a1_motion_sensors.c ****   *         - MOTION_ACCELERO for instance 1
 452:Drivers/BSP/IKS02A1/iks02a1_motion_sensors.c ****   *         - MOTION_MAGNETO for instance 2
 453:Drivers/BSP/IKS02A1/iks02a1_motion_sensors.c ****   * @param  Axes pointer to axes data structure
 454:Drivers/BSP/IKS02A1/iks02a1_motion_sensors.c ****   * @retval BSP status
 455:Drivers/BSP/IKS02A1/iks02a1_motion_sensors.c ****   */
 456:Drivers/BSP/IKS02A1/iks02a1_motion_sensors.c **** int32_t IKS02A1_MOTION_SENSOR_GetAxes(uint32_t Instance, uint32_t Function, IKS02A1_MOTION_SENSOR_A
 457:Drivers/BSP/IKS02A1/iks02a1_motion_sensors.c **** {
 458:Drivers/BSP/IKS02A1/iks02a1_motion_sensors.c ****   int32_t ret;
 459:Drivers/BSP/IKS02A1/iks02a1_motion_sensors.c **** 
 460:Drivers/BSP/IKS02A1/iks02a1_motion_sensors.c ****   if (Instance >= IKS02A1_MOTION_INSTANCES_NBR)
 461:Drivers/BSP/IKS02A1/iks02a1_motion_sensors.c ****   {
 462:Drivers/BSP/IKS02A1/iks02a1_motion_sensors.c ****     ret = BSP_ERROR_WRONG_PARAM;
 463:Drivers/BSP/IKS02A1/iks02a1_motion_sensors.c ****   }
 464:Drivers/BSP/IKS02A1/iks02a1_motion_sensors.c ****   else
 465:Drivers/BSP/IKS02A1/iks02a1_motion_sensors.c ****   {
 466:Drivers/BSP/IKS02A1/iks02a1_motion_sensors.c ****     if ((MotionCtx[Instance].Functions & Function) == Function)
 467:Drivers/BSP/IKS02A1/iks02a1_motion_sensors.c ****     {
 468:Drivers/BSP/IKS02A1/iks02a1_motion_sensors.c ****       if (MotionFuncDrv[Instance][FunctionIndex[Function]]->GetAxes(MotionCompObj[Instance], Axes) 
 469:Drivers/BSP/IKS02A1/iks02a1_motion_sensors.c ****       {
 470:Drivers/BSP/IKS02A1/iks02a1_motion_sensors.c ****         ret = BSP_ERROR_COMPONENT_FAILURE;
 471:Drivers/BSP/IKS02A1/iks02a1_motion_sensors.c ****       }
 472:Drivers/BSP/IKS02A1/iks02a1_motion_sensors.c ****       else
 473:Drivers/BSP/IKS02A1/iks02a1_motion_sensors.c ****       {
 474:Drivers/BSP/IKS02A1/iks02a1_motion_sensors.c ****         ret = BSP_ERROR_NONE;
 475:Drivers/BSP/IKS02A1/iks02a1_motion_sensors.c ****       }
 476:Drivers/BSP/IKS02A1/iks02a1_motion_sensors.c ****     }
 477:Drivers/BSP/IKS02A1/iks02a1_motion_sensors.c ****     else
 478:Drivers/BSP/IKS02A1/iks02a1_motion_sensors.c ****     {
 479:Drivers/BSP/IKS02A1/iks02a1_motion_sensors.c ****       ret = BSP_ERROR_WRONG_PARAM;
 480:Drivers/BSP/IKS02A1/iks02a1_motion_sensors.c ****     }
 481:Drivers/BSP/IKS02A1/iks02a1_motion_sensors.c ****   }
 482:Drivers/BSP/IKS02A1/iks02a1_motion_sensors.c **** 
 483:Drivers/BSP/IKS02A1/iks02a1_motion_sensors.c ****   return ret;
 484:Drivers/BSP/IKS02A1/iks02a1_motion_sensors.c **** }
 485:Drivers/BSP/IKS02A1/iks02a1_motion_sensors.c **** 
 486:Drivers/BSP/IKS02A1/iks02a1_motion_sensors.c **** /**
ARM GAS  C:\Temp\ccYwOtvn.s 			page 10


 487:Drivers/BSP/IKS02A1/iks02a1_motion_sensors.c ****   * @brief  Get motion sensor axes raw data
 488:Drivers/BSP/IKS02A1/iks02a1_motion_sensors.c ****   * @param  Instance Motion sensor instance
 489:Drivers/BSP/IKS02A1/iks02a1_motion_sensors.c ****   * @param  Function Motion sensor function. Could be :
 490:Drivers/BSP/IKS02A1/iks02a1_motion_sensors.c ****   *         - MOTION_GYRO and/or MOTION_ACCELERO for instance 0
 491:Drivers/BSP/IKS02A1/iks02a1_motion_sensors.c ****   *         - MOTION_ACCELERO for instance 1
 492:Drivers/BSP/IKS02A1/iks02a1_motion_sensors.c ****   *         - MOTION_MAGNETO for instance 2
 493:Drivers/BSP/IKS02A1/iks02a1_motion_sensors.c ****   * @param  Axes pointer to axes raw data structure
 494:Drivers/BSP/IKS02A1/iks02a1_motion_sensors.c ****   * @retval BSP status
 495:Drivers/BSP/IKS02A1/iks02a1_motion_sensors.c ****   */
 496:Drivers/BSP/IKS02A1/iks02a1_motion_sensors.c **** int32_t IKS02A1_MOTION_SENSOR_GetAxesRaw(uint32_t Instance, uint32_t Function, IKS02A1_MOTION_SENSO
 497:Drivers/BSP/IKS02A1/iks02a1_motion_sensors.c **** {
 498:Drivers/BSP/IKS02A1/iks02a1_motion_sensors.c ****   int32_t ret;
 499:Drivers/BSP/IKS02A1/iks02a1_motion_sensors.c **** 
 500:Drivers/BSP/IKS02A1/iks02a1_motion_sensors.c ****   if (Instance >= IKS02A1_MOTION_INSTANCES_NBR)
 501:Drivers/BSP/IKS02A1/iks02a1_motion_sensors.c ****   {
 502:Drivers/BSP/IKS02A1/iks02a1_motion_sensors.c ****     ret = BSP_ERROR_WRONG_PARAM;
 503:Drivers/BSP/IKS02A1/iks02a1_motion_sensors.c ****   }
 504:Drivers/BSP/IKS02A1/iks02a1_motion_sensors.c ****   else
 505:Drivers/BSP/IKS02A1/iks02a1_motion_sensors.c ****   {
 506:Drivers/BSP/IKS02A1/iks02a1_motion_sensors.c ****     if ((MotionCtx[Instance].Functions & Function) == Function)
 507:Drivers/BSP/IKS02A1/iks02a1_motion_sensors.c ****     {
 508:Drivers/BSP/IKS02A1/iks02a1_motion_sensors.c ****       if (MotionFuncDrv[Instance][FunctionIndex[Function]]->GetAxesRaw(MotionCompObj[Instance], Axe
 509:Drivers/BSP/IKS02A1/iks02a1_motion_sensors.c ****       {
 510:Drivers/BSP/IKS02A1/iks02a1_motion_sensors.c ****         ret = BSP_ERROR_COMPONENT_FAILURE;
 511:Drivers/BSP/IKS02A1/iks02a1_motion_sensors.c ****       }
 512:Drivers/BSP/IKS02A1/iks02a1_motion_sensors.c ****       else
 513:Drivers/BSP/IKS02A1/iks02a1_motion_sensors.c ****       {
 514:Drivers/BSP/IKS02A1/iks02a1_motion_sensors.c ****         ret = BSP_ERROR_NONE;
 515:Drivers/BSP/IKS02A1/iks02a1_motion_sensors.c ****       }
 516:Drivers/BSP/IKS02A1/iks02a1_motion_sensors.c ****     }
 517:Drivers/BSP/IKS02A1/iks02a1_motion_sensors.c ****     else
 518:Drivers/BSP/IKS02A1/iks02a1_motion_sensors.c ****     {
 519:Drivers/BSP/IKS02A1/iks02a1_motion_sensors.c ****       ret = BSP_ERROR_WRONG_PARAM;
 520:Drivers/BSP/IKS02A1/iks02a1_motion_sensors.c ****     }
 521:Drivers/BSP/IKS02A1/iks02a1_motion_sensors.c ****   }
 522:Drivers/BSP/IKS02A1/iks02a1_motion_sensors.c **** 
 523:Drivers/BSP/IKS02A1/iks02a1_motion_sensors.c ****   return ret;
 524:Drivers/BSP/IKS02A1/iks02a1_motion_sensors.c **** }
 525:Drivers/BSP/IKS02A1/iks02a1_motion_sensors.c **** 
 526:Drivers/BSP/IKS02A1/iks02a1_motion_sensors.c **** /**
 527:Drivers/BSP/IKS02A1/iks02a1_motion_sensors.c ****   * @brief  Get motion sensor sensitivity
 528:Drivers/BSP/IKS02A1/iks02a1_motion_sensors.c ****   * @param  Instance Motion sensor instance
 529:Drivers/BSP/IKS02A1/iks02a1_motion_sensors.c ****   * @param  Function Motion sensor function. Could be :
 530:Drivers/BSP/IKS02A1/iks02a1_motion_sensors.c ****   *         - MOTION_GYRO and/or MOTION_ACCELERO for instance 0
 531:Drivers/BSP/IKS02A1/iks02a1_motion_sensors.c ****   *         - MOTION_ACCELERO for instance 1
 532:Drivers/BSP/IKS02A1/iks02a1_motion_sensors.c ****   *         - MOTION_MAGNETO for instance 2
 533:Drivers/BSP/IKS02A1/iks02a1_motion_sensors.c ****   * @param  Sensitivity pointer to sensitivity read value
 534:Drivers/BSP/IKS02A1/iks02a1_motion_sensors.c ****   * @retval BSP status
 535:Drivers/BSP/IKS02A1/iks02a1_motion_sensors.c ****   */
 536:Drivers/BSP/IKS02A1/iks02a1_motion_sensors.c **** int32_t IKS02A1_MOTION_SENSOR_GetSensitivity(uint32_t Instance, uint32_t Function, float_t *Sensiti
 537:Drivers/BSP/IKS02A1/iks02a1_motion_sensors.c **** {
 538:Drivers/BSP/IKS02A1/iks02a1_motion_sensors.c ****   int32_t ret;
 539:Drivers/BSP/IKS02A1/iks02a1_motion_sensors.c **** 
 540:Drivers/BSP/IKS02A1/iks02a1_motion_sensors.c ****   if (Instance >= IKS02A1_MOTION_INSTANCES_NBR)
 541:Drivers/BSP/IKS02A1/iks02a1_motion_sensors.c ****   {
 542:Drivers/BSP/IKS02A1/iks02a1_motion_sensors.c ****     ret = BSP_ERROR_WRONG_PARAM;
 543:Drivers/BSP/IKS02A1/iks02a1_motion_sensors.c ****   }
ARM GAS  C:\Temp\ccYwOtvn.s 			page 11


 544:Drivers/BSP/IKS02A1/iks02a1_motion_sensors.c ****   else
 545:Drivers/BSP/IKS02A1/iks02a1_motion_sensors.c ****   {
 546:Drivers/BSP/IKS02A1/iks02a1_motion_sensors.c ****     if ((MotionCtx[Instance].Functions & Function) == Function)
 547:Drivers/BSP/IKS02A1/iks02a1_motion_sensors.c ****     {
 548:Drivers/BSP/IKS02A1/iks02a1_motion_sensors.c ****       if (MotionFuncDrv[Instance][FunctionIndex[Function]]->GetSensitivity(MotionCompObj[Instance],
 549:Drivers/BSP/IKS02A1/iks02a1_motion_sensors.c ****                                                                            Sensitivity) != BSP_ERRO
 550:Drivers/BSP/IKS02A1/iks02a1_motion_sensors.c ****       {
 551:Drivers/BSP/IKS02A1/iks02a1_motion_sensors.c ****         ret = BSP_ERROR_COMPONENT_FAILURE;
 552:Drivers/BSP/IKS02A1/iks02a1_motion_sensors.c ****       }
 553:Drivers/BSP/IKS02A1/iks02a1_motion_sensors.c ****       else
 554:Drivers/BSP/IKS02A1/iks02a1_motion_sensors.c ****       {
 555:Drivers/BSP/IKS02A1/iks02a1_motion_sensors.c ****         ret = BSP_ERROR_NONE;
 556:Drivers/BSP/IKS02A1/iks02a1_motion_sensors.c ****       }
 557:Drivers/BSP/IKS02A1/iks02a1_motion_sensors.c ****     }
 558:Drivers/BSP/IKS02A1/iks02a1_motion_sensors.c ****     else
 559:Drivers/BSP/IKS02A1/iks02a1_motion_sensors.c ****     {
 560:Drivers/BSP/IKS02A1/iks02a1_motion_sensors.c ****       ret = BSP_ERROR_WRONG_PARAM;
 561:Drivers/BSP/IKS02A1/iks02a1_motion_sensors.c ****     }
 562:Drivers/BSP/IKS02A1/iks02a1_motion_sensors.c ****   }
 563:Drivers/BSP/IKS02A1/iks02a1_motion_sensors.c **** 
 564:Drivers/BSP/IKS02A1/iks02a1_motion_sensors.c ****   return ret;
 565:Drivers/BSP/IKS02A1/iks02a1_motion_sensors.c **** }
 566:Drivers/BSP/IKS02A1/iks02a1_motion_sensors.c **** 
 567:Drivers/BSP/IKS02A1/iks02a1_motion_sensors.c **** /**
 568:Drivers/BSP/IKS02A1/iks02a1_motion_sensors.c ****   * @brief  Get motion sensor Output Data Rate
 569:Drivers/BSP/IKS02A1/iks02a1_motion_sensors.c ****   * @param  Instance Motion sensor instance
 570:Drivers/BSP/IKS02A1/iks02a1_motion_sensors.c ****   * @param  Function Motion sensor function. Could be :
 571:Drivers/BSP/IKS02A1/iks02a1_motion_sensors.c ****   *         - MOTION_GYRO and/or MOTION_ACCELERO for instance 0
 572:Drivers/BSP/IKS02A1/iks02a1_motion_sensors.c ****   *         - MOTION_ACCELERO for instance 1
 573:Drivers/BSP/IKS02A1/iks02a1_motion_sensors.c ****   *         - MOTION_MAGNETO for instance 2
 574:Drivers/BSP/IKS02A1/iks02a1_motion_sensors.c ****   * @param  Odr pointer to Output Data Rate read value
 575:Drivers/BSP/IKS02A1/iks02a1_motion_sensors.c ****   * @retval BSP status
 576:Drivers/BSP/IKS02A1/iks02a1_motion_sensors.c ****   */
 577:Drivers/BSP/IKS02A1/iks02a1_motion_sensors.c **** int32_t IKS02A1_MOTION_SENSOR_GetOutputDataRate(uint32_t Instance, uint32_t Function, float_t *Odr)
 578:Drivers/BSP/IKS02A1/iks02a1_motion_sensors.c **** {
 579:Drivers/BSP/IKS02A1/iks02a1_motion_sensors.c ****   int32_t ret;
 580:Drivers/BSP/IKS02A1/iks02a1_motion_sensors.c **** 
 581:Drivers/BSP/IKS02A1/iks02a1_motion_sensors.c ****   if (Instance >= IKS02A1_MOTION_INSTANCES_NBR)
 582:Drivers/BSP/IKS02A1/iks02a1_motion_sensors.c ****   {
 583:Drivers/BSP/IKS02A1/iks02a1_motion_sensors.c ****     ret = BSP_ERROR_WRONG_PARAM;
 584:Drivers/BSP/IKS02A1/iks02a1_motion_sensors.c ****   }
 585:Drivers/BSP/IKS02A1/iks02a1_motion_sensors.c ****   else
 586:Drivers/BSP/IKS02A1/iks02a1_motion_sensors.c ****   {
 587:Drivers/BSP/IKS02A1/iks02a1_motion_sensors.c ****     if ((MotionCtx[Instance].Functions & Function) == Function)
 588:Drivers/BSP/IKS02A1/iks02a1_motion_sensors.c ****     {
 589:Drivers/BSP/IKS02A1/iks02a1_motion_sensors.c ****       if (MotionFuncDrv[Instance][FunctionIndex[Function]]->GetOutputDataRate(MotionCompObj[Instanc
 590:Drivers/BSP/IKS02A1/iks02a1_motion_sensors.c ****       {
 591:Drivers/BSP/IKS02A1/iks02a1_motion_sensors.c ****         ret = BSP_ERROR_COMPONENT_FAILURE;
 592:Drivers/BSP/IKS02A1/iks02a1_motion_sensors.c ****       }
 593:Drivers/BSP/IKS02A1/iks02a1_motion_sensors.c ****       else
 594:Drivers/BSP/IKS02A1/iks02a1_motion_sensors.c ****       {
 595:Drivers/BSP/IKS02A1/iks02a1_motion_sensors.c ****         ret = BSP_ERROR_NONE;
 596:Drivers/BSP/IKS02A1/iks02a1_motion_sensors.c ****       }
 597:Drivers/BSP/IKS02A1/iks02a1_motion_sensors.c ****     }
 598:Drivers/BSP/IKS02A1/iks02a1_motion_sensors.c ****     else
 599:Drivers/BSP/IKS02A1/iks02a1_motion_sensors.c ****     {
 600:Drivers/BSP/IKS02A1/iks02a1_motion_sensors.c ****       ret = BSP_ERROR_WRONG_PARAM;
ARM GAS  C:\Temp\ccYwOtvn.s 			page 12


 601:Drivers/BSP/IKS02A1/iks02a1_motion_sensors.c ****     }
 602:Drivers/BSP/IKS02A1/iks02a1_motion_sensors.c ****   }
 603:Drivers/BSP/IKS02A1/iks02a1_motion_sensors.c **** 
 604:Drivers/BSP/IKS02A1/iks02a1_motion_sensors.c ****   return ret;
 605:Drivers/BSP/IKS02A1/iks02a1_motion_sensors.c **** }
 606:Drivers/BSP/IKS02A1/iks02a1_motion_sensors.c **** 
 607:Drivers/BSP/IKS02A1/iks02a1_motion_sensors.c **** /**
 608:Drivers/BSP/IKS02A1/iks02a1_motion_sensors.c ****   * @brief  Get motion sensor Full Scale
 609:Drivers/BSP/IKS02A1/iks02a1_motion_sensors.c ****   * @param  Instance Motion sensor instance
 610:Drivers/BSP/IKS02A1/iks02a1_motion_sensors.c ****   * @param  Function Motion sensor function. Could be :
 611:Drivers/BSP/IKS02A1/iks02a1_motion_sensors.c ****   *         - MOTION_GYRO and/or MOTION_ACCELERO for instance 0
 612:Drivers/BSP/IKS02A1/iks02a1_motion_sensors.c ****   *         - MOTION_ACCELERO for instance 1
 613:Drivers/BSP/IKS02A1/iks02a1_motion_sensors.c ****   *         - MOTION_MAGNETO for instance 2
 614:Drivers/BSP/IKS02A1/iks02a1_motion_sensors.c ****   * @param  Fullscale pointer to Fullscale read value
 615:Drivers/BSP/IKS02A1/iks02a1_motion_sensors.c ****   * @retval BSP status
 616:Drivers/BSP/IKS02A1/iks02a1_motion_sensors.c ****   */
 617:Drivers/BSP/IKS02A1/iks02a1_motion_sensors.c **** int32_t IKS02A1_MOTION_SENSOR_GetFullScale(uint32_t Instance, uint32_t Function, int32_t *Fullscale
 618:Drivers/BSP/IKS02A1/iks02a1_motion_sensors.c **** {
 619:Drivers/BSP/IKS02A1/iks02a1_motion_sensors.c ****   int32_t ret;
 620:Drivers/BSP/IKS02A1/iks02a1_motion_sensors.c **** 
 621:Drivers/BSP/IKS02A1/iks02a1_motion_sensors.c ****   if (Instance >= IKS02A1_MOTION_INSTANCES_NBR)
 622:Drivers/BSP/IKS02A1/iks02a1_motion_sensors.c ****   {
 623:Drivers/BSP/IKS02A1/iks02a1_motion_sensors.c ****     ret = BSP_ERROR_WRONG_PARAM;
 624:Drivers/BSP/IKS02A1/iks02a1_motion_sensors.c ****   }
 625:Drivers/BSP/IKS02A1/iks02a1_motion_sensors.c ****   else
 626:Drivers/BSP/IKS02A1/iks02a1_motion_sensors.c ****   {
 627:Drivers/BSP/IKS02A1/iks02a1_motion_sensors.c ****     if ((MotionCtx[Instance].Functions & Function) == Function)
 628:Drivers/BSP/IKS02A1/iks02a1_motion_sensors.c ****     {
 629:Drivers/BSP/IKS02A1/iks02a1_motion_sensors.c ****       if (MotionFuncDrv[Instance][FunctionIndex[Function]]->GetFullScale(MotionCompObj[Instance],
 630:Drivers/BSP/IKS02A1/iks02a1_motion_sensors.c ****                                                                          Fullscale) != BSP_ERROR_NO
 631:Drivers/BSP/IKS02A1/iks02a1_motion_sensors.c ****       {
 632:Drivers/BSP/IKS02A1/iks02a1_motion_sensors.c ****         ret = BSP_ERROR_COMPONENT_FAILURE;
 633:Drivers/BSP/IKS02A1/iks02a1_motion_sensors.c ****       }
 634:Drivers/BSP/IKS02A1/iks02a1_motion_sensors.c ****       else
 635:Drivers/BSP/IKS02A1/iks02a1_motion_sensors.c ****       {
 636:Drivers/BSP/IKS02A1/iks02a1_motion_sensors.c ****         ret = BSP_ERROR_NONE;
 637:Drivers/BSP/IKS02A1/iks02a1_motion_sensors.c ****       }
 638:Drivers/BSP/IKS02A1/iks02a1_motion_sensors.c ****     }
 639:Drivers/BSP/IKS02A1/iks02a1_motion_sensors.c ****     else
 640:Drivers/BSP/IKS02A1/iks02a1_motion_sensors.c ****     {
 641:Drivers/BSP/IKS02A1/iks02a1_motion_sensors.c ****       ret = BSP_ERROR_WRONG_PARAM;
 642:Drivers/BSP/IKS02A1/iks02a1_motion_sensors.c ****     }
 643:Drivers/BSP/IKS02A1/iks02a1_motion_sensors.c ****   }
 644:Drivers/BSP/IKS02A1/iks02a1_motion_sensors.c **** 
 645:Drivers/BSP/IKS02A1/iks02a1_motion_sensors.c ****   return ret;
 646:Drivers/BSP/IKS02A1/iks02a1_motion_sensors.c **** }
 647:Drivers/BSP/IKS02A1/iks02a1_motion_sensors.c **** 
 648:Drivers/BSP/IKS02A1/iks02a1_motion_sensors.c **** /**
 649:Drivers/BSP/IKS02A1/iks02a1_motion_sensors.c ****   * @brief  Set motion sensor Output Data Rate
 650:Drivers/BSP/IKS02A1/iks02a1_motion_sensors.c ****   * @param  Instance Motion sensor instance
 651:Drivers/BSP/IKS02A1/iks02a1_motion_sensors.c ****   * @param  Function Motion sensor function. Could be :
 652:Drivers/BSP/IKS02A1/iks02a1_motion_sensors.c ****   *         - MOTION_GYRO and/or MOTION_ACCELERO for instance 0
 653:Drivers/BSP/IKS02A1/iks02a1_motion_sensors.c ****   *         - MOTION_ACCELERO for instance 1
 654:Drivers/BSP/IKS02A1/iks02a1_motion_sensors.c ****   *         - MOTION_MAGNETO for instance 2
 655:Drivers/BSP/IKS02A1/iks02a1_motion_sensors.c ****   * @param  Odr Output Data Rate value to be set
 656:Drivers/BSP/IKS02A1/iks02a1_motion_sensors.c ****   * @retval BSP status
 657:Drivers/BSP/IKS02A1/iks02a1_motion_sensors.c ****   */
ARM GAS  C:\Temp\ccYwOtvn.s 			page 13


 658:Drivers/BSP/IKS02A1/iks02a1_motion_sensors.c **** int32_t IKS02A1_MOTION_SENSOR_SetOutputDataRate(uint32_t Instance, uint32_t Function, float_t Odr)
 659:Drivers/BSP/IKS02A1/iks02a1_motion_sensors.c **** {
 660:Drivers/BSP/IKS02A1/iks02a1_motion_sensors.c ****   int32_t ret;
 661:Drivers/BSP/IKS02A1/iks02a1_motion_sensors.c **** 
 662:Drivers/BSP/IKS02A1/iks02a1_motion_sensors.c ****   if (Instance >= IKS02A1_MOTION_INSTANCES_NBR)
 663:Drivers/BSP/IKS02A1/iks02a1_motion_sensors.c ****   {
 664:Drivers/BSP/IKS02A1/iks02a1_motion_sensors.c ****     ret = BSP_ERROR_WRONG_PARAM;
 665:Drivers/BSP/IKS02A1/iks02a1_motion_sensors.c ****   }
 666:Drivers/BSP/IKS02A1/iks02a1_motion_sensors.c ****   else
 667:Drivers/BSP/IKS02A1/iks02a1_motion_sensors.c ****   {
 668:Drivers/BSP/IKS02A1/iks02a1_motion_sensors.c ****     if ((MotionCtx[Instance].Functions & Function) == Function)
 669:Drivers/BSP/IKS02A1/iks02a1_motion_sensors.c ****     {
 670:Drivers/BSP/IKS02A1/iks02a1_motion_sensors.c ****       if (MotionFuncDrv[Instance][FunctionIndex[Function]]->SetOutputDataRate(MotionCompObj[Instanc
 671:Drivers/BSP/IKS02A1/iks02a1_motion_sensors.c ****       {
 672:Drivers/BSP/IKS02A1/iks02a1_motion_sensors.c ****         ret = BSP_ERROR_COMPONENT_FAILURE;
 673:Drivers/BSP/IKS02A1/iks02a1_motion_sensors.c ****       }
 674:Drivers/BSP/IKS02A1/iks02a1_motion_sensors.c ****       else
 675:Drivers/BSP/IKS02A1/iks02a1_motion_sensors.c ****       {
 676:Drivers/BSP/IKS02A1/iks02a1_motion_sensors.c ****         ret = BSP_ERROR_NONE;
 677:Drivers/BSP/IKS02A1/iks02a1_motion_sensors.c ****       }
 678:Drivers/BSP/IKS02A1/iks02a1_motion_sensors.c ****     }
 679:Drivers/BSP/IKS02A1/iks02a1_motion_sensors.c ****     else
 680:Drivers/BSP/IKS02A1/iks02a1_motion_sensors.c ****     {
 681:Drivers/BSP/IKS02A1/iks02a1_motion_sensors.c ****       ret = BSP_ERROR_WRONG_PARAM;
 682:Drivers/BSP/IKS02A1/iks02a1_motion_sensors.c ****     }
 683:Drivers/BSP/IKS02A1/iks02a1_motion_sensors.c ****   }
 684:Drivers/BSP/IKS02A1/iks02a1_motion_sensors.c **** 
 685:Drivers/BSP/IKS02A1/iks02a1_motion_sensors.c ****   return ret;
 686:Drivers/BSP/IKS02A1/iks02a1_motion_sensors.c **** }
 687:Drivers/BSP/IKS02A1/iks02a1_motion_sensors.c **** 
 688:Drivers/BSP/IKS02A1/iks02a1_motion_sensors.c **** /**
 689:Drivers/BSP/IKS02A1/iks02a1_motion_sensors.c ****   * @brief  Set motion sensor Full Scale
 690:Drivers/BSP/IKS02A1/iks02a1_motion_sensors.c ****   * @param  Instance Motion sensor instance
 691:Drivers/BSP/IKS02A1/iks02a1_motion_sensors.c ****   * @param  Function Motion sensor function. Could be :
 692:Drivers/BSP/IKS02A1/iks02a1_motion_sensors.c ****   *         - MOTION_GYRO and/or MOTION_ACCELERO for instance 0
 693:Drivers/BSP/IKS02A1/iks02a1_motion_sensors.c ****   *         - MOTION_ACCELERO for instance 1
 694:Drivers/BSP/IKS02A1/iks02a1_motion_sensors.c ****   *         - MOTION_MAGNETO for instance 2
 695:Drivers/BSP/IKS02A1/iks02a1_motion_sensors.c ****   * @param  Fullscale Fullscale value to be set
 696:Drivers/BSP/IKS02A1/iks02a1_motion_sensors.c ****   * @retval BSP status
 697:Drivers/BSP/IKS02A1/iks02a1_motion_sensors.c ****   */
 698:Drivers/BSP/IKS02A1/iks02a1_motion_sensors.c **** int32_t IKS02A1_MOTION_SENSOR_SetFullScale(uint32_t Instance, uint32_t Function, int32_t Fullscale)
 699:Drivers/BSP/IKS02A1/iks02a1_motion_sensors.c **** {
 700:Drivers/BSP/IKS02A1/iks02a1_motion_sensors.c ****   int32_t ret;
 701:Drivers/BSP/IKS02A1/iks02a1_motion_sensors.c **** 
 702:Drivers/BSP/IKS02A1/iks02a1_motion_sensors.c ****   if (Instance >= IKS02A1_MOTION_INSTANCES_NBR)
 703:Drivers/BSP/IKS02A1/iks02a1_motion_sensors.c ****   {
 704:Drivers/BSP/IKS02A1/iks02a1_motion_sensors.c ****     ret = BSP_ERROR_WRONG_PARAM;
 705:Drivers/BSP/IKS02A1/iks02a1_motion_sensors.c ****   }
 706:Drivers/BSP/IKS02A1/iks02a1_motion_sensors.c ****   else
 707:Drivers/BSP/IKS02A1/iks02a1_motion_sensors.c ****   {
 708:Drivers/BSP/IKS02A1/iks02a1_motion_sensors.c ****     if ((MotionCtx[Instance].Functions & Function) == Function)
 709:Drivers/BSP/IKS02A1/iks02a1_motion_sensors.c ****     {
 710:Drivers/BSP/IKS02A1/iks02a1_motion_sensors.c ****       if (MotionFuncDrv[Instance][FunctionIndex[Function]]->SetFullScale(MotionCompObj[Instance],
 711:Drivers/BSP/IKS02A1/iks02a1_motion_sensors.c ****                                                                          Fullscale) != BSP_ERROR_NO
 712:Drivers/BSP/IKS02A1/iks02a1_motion_sensors.c ****       {
 713:Drivers/BSP/IKS02A1/iks02a1_motion_sensors.c ****         ret = BSP_ERROR_COMPONENT_FAILURE;
 714:Drivers/BSP/IKS02A1/iks02a1_motion_sensors.c ****       }
ARM GAS  C:\Temp\ccYwOtvn.s 			page 14


 715:Drivers/BSP/IKS02A1/iks02a1_motion_sensors.c ****       else
 716:Drivers/BSP/IKS02A1/iks02a1_motion_sensors.c ****       {
 717:Drivers/BSP/IKS02A1/iks02a1_motion_sensors.c ****         ret = BSP_ERROR_NONE;
 718:Drivers/BSP/IKS02A1/iks02a1_motion_sensors.c ****       }
 719:Drivers/BSP/IKS02A1/iks02a1_motion_sensors.c ****     }
 720:Drivers/BSP/IKS02A1/iks02a1_motion_sensors.c ****     else
 721:Drivers/BSP/IKS02A1/iks02a1_motion_sensors.c ****     {
 722:Drivers/BSP/IKS02A1/iks02a1_motion_sensors.c ****       ret = BSP_ERROR_WRONG_PARAM;
 723:Drivers/BSP/IKS02A1/iks02a1_motion_sensors.c ****     }
 724:Drivers/BSP/IKS02A1/iks02a1_motion_sensors.c ****   }
 725:Drivers/BSP/IKS02A1/iks02a1_motion_sensors.c **** 
 726:Drivers/BSP/IKS02A1/iks02a1_motion_sensors.c ****   return ret;
 727:Drivers/BSP/IKS02A1/iks02a1_motion_sensors.c **** }
 728:Drivers/BSP/IKS02A1/iks02a1_motion_sensors.c **** 
 729:Drivers/BSP/IKS02A1/iks02a1_motion_sensors.c **** /**
 730:Drivers/BSP/IKS02A1/iks02a1_motion_sensors.c ****   * @}
 731:Drivers/BSP/IKS02A1/iks02a1_motion_sensors.c ****   */
 732:Drivers/BSP/IKS02A1/iks02a1_motion_sensors.c **** 
 733:Drivers/BSP/IKS02A1/iks02a1_motion_sensors.c **** /** @defgroup IKS02A1_MOTION_SENSOR_Private_Functions IKS02A1 MOTION SENSOR Private Functions
 734:Drivers/BSP/IKS02A1/iks02a1_motion_sensors.c ****   * @{
 735:Drivers/BSP/IKS02A1/iks02a1_motion_sensors.c ****   */
 736:Drivers/BSP/IKS02A1/iks02a1_motion_sensors.c **** 
 737:Drivers/BSP/IKS02A1/iks02a1_motion_sensors.c **** #if (USE_IKS02A1_MOTION_SENSOR_ISM330DHCX_0  == 1)
 738:Drivers/BSP/IKS02A1/iks02a1_motion_sensors.c **** /**
 739:Drivers/BSP/IKS02A1/iks02a1_motion_sensors.c ****   * @brief  Register Bus IOs for instance 0 if component ID is OK
 740:Drivers/BSP/IKS02A1/iks02a1_motion_sensors.c ****   * @retval BSP status
 741:Drivers/BSP/IKS02A1/iks02a1_motion_sensors.c ****   */
 742:Drivers/BSP/IKS02A1/iks02a1_motion_sensors.c **** static int32_t ISM330DHCX_0_Probe(uint32_t Functions)
 743:Drivers/BSP/IKS02A1/iks02a1_motion_sensors.c **** {
  29              		.loc 1 743 1 view -0
  30              		.cfi_startproc
  31              		@ args = 0, pretend = 0, frame = 64
  32              		@ frame_needed = 0, uses_anonymous_args = 0
  33              		.loc 1 743 1 is_stmt 0 view .LVU1
  34 0000 70B5     		push	{r4, r5, r6, lr}
  35              		.cfi_def_cfa_offset 16
  36              		.cfi_offset 4, -16
  37              		.cfi_offset 5, -12
  38              		.cfi_offset 6, -8
  39              		.cfi_offset 14, -4
  40 0002 90B0     		sub	sp, sp, #64
  41              		.cfi_def_cfa_offset 80
  42 0004 0446     		mov	r4, r0
 744:Drivers/BSP/IKS02A1/iks02a1_motion_sensors.c ****   ISM330DHCX_IO_t            io_ctx;
  43              		.loc 1 744 3 is_stmt 1 view .LVU2
 745:Drivers/BSP/IKS02A1/iks02a1_motion_sensors.c ****   uint8_t                    id;
  44              		.loc 1 745 3 view .LVU3
 746:Drivers/BSP/IKS02A1/iks02a1_motion_sensors.c ****   static ISM330DHCX_Object_t ism330dhcx_obj_0;
  45              		.loc 1 746 3 view .LVU4
 747:Drivers/BSP/IKS02A1/iks02a1_motion_sensors.c ****   ISM330DHCX_Capabilities_t  cap;
  46              		.loc 1 747 3 view .LVU5
 748:Drivers/BSP/IKS02A1/iks02a1_motion_sensors.c ****   int32_t ret = BSP_ERROR_NONE;
  47              		.loc 1 748 3 view .LVU6
  48              	.LVL1:
 749:Drivers/BSP/IKS02A1/iks02a1_motion_sensors.c **** 
 750:Drivers/BSP/IKS02A1/iks02a1_motion_sensors.c ****   /* Configure the accelero driver */
 751:Drivers/BSP/IKS02A1/iks02a1_motion_sensors.c ****   io_ctx.BusType     = ISM330DHCX_I2C_BUS; /* I2C */
ARM GAS  C:\Temp\ccYwOtvn.s 			page 15


  49              		.loc 1 751 3 view .LVU7
  50              		.loc 1 751 22 is_stmt 0 view .LVU8
  51 0006 0023     		movs	r3, #0
  52 0008 0A93     		str	r3, [sp, #40]
 752:Drivers/BSP/IKS02A1/iks02a1_motion_sensors.c ****   io_ctx.Address     = ISM330DHCX_I2C_ADD_H;
  53              		.loc 1 752 3 is_stmt 1 view .LVU9
  54              		.loc 1 752 22 is_stmt 0 view .LVU10
  55 000a D723     		movs	r3, #215
  56 000c 8DF82C30 		strb	r3, [sp, #44]
 753:Drivers/BSP/IKS02A1/iks02a1_motion_sensors.c ****   io_ctx.Init        = IKS02A1_I2C_INIT;
  57              		.loc 1 753 3 is_stmt 1 view .LVU11
  58              		.loc 1 753 22 is_stmt 0 view .LVU12
  59 0010 394B     		ldr	r3, .L16
  60 0012 0893     		str	r3, [sp, #32]
 754:Drivers/BSP/IKS02A1/iks02a1_motion_sensors.c ****   io_ctx.DeInit      = IKS02A1_I2C_DEINIT;
  61              		.loc 1 754 3 is_stmt 1 view .LVU13
  62              		.loc 1 754 22 is_stmt 0 view .LVU14
  63 0014 394B     		ldr	r3, .L16+4
  64 0016 0993     		str	r3, [sp, #36]
 755:Drivers/BSP/IKS02A1/iks02a1_motion_sensors.c ****   io_ctx.ReadReg     = IKS02A1_I2C_READ_REG;
  65              		.loc 1 755 3 is_stmt 1 view .LVU15
  66              		.loc 1 755 22 is_stmt 0 view .LVU16
  67 0018 394B     		ldr	r3, .L16+8
  68 001a 0D93     		str	r3, [sp, #52]
 756:Drivers/BSP/IKS02A1/iks02a1_motion_sensors.c ****   io_ctx.WriteReg    = IKS02A1_I2C_WRITE_REG;
  69              		.loc 1 756 3 is_stmt 1 view .LVU17
  70              		.loc 1 756 22 is_stmt 0 view .LVU18
  71 001c 394B     		ldr	r3, .L16+12
  72 001e 0C93     		str	r3, [sp, #48]
 757:Drivers/BSP/IKS02A1/iks02a1_motion_sensors.c ****   io_ctx.GetTick     = IKS02A1_GET_TICK;
  73              		.loc 1 757 3 is_stmt 1 view .LVU19
  74              		.loc 1 757 22 is_stmt 0 view .LVU20
  75 0020 394B     		ldr	r3, .L16+16
  76 0022 0E93     		str	r3, [sp, #56]
 758:Drivers/BSP/IKS02A1/iks02a1_motion_sensors.c ****   io_ctx.Delay       = IKS02A1_DELAY;
  77              		.loc 1 758 3 is_stmt 1 view .LVU21
  78              		.loc 1 758 22 is_stmt 0 view .LVU22
  79 0024 394B     		ldr	r3, .L16+20
  80 0026 0F93     		str	r3, [sp, #60]
 759:Drivers/BSP/IKS02A1/iks02a1_motion_sensors.c **** 
 760:Drivers/BSP/IKS02A1/iks02a1_motion_sensors.c ****   if (ISM330DHCX_RegisterBusIO(&ism330dhcx_obj_0, &io_ctx) != ISM330DHCX_OK)
  81              		.loc 1 760 3 is_stmt 1 view .LVU23
  82              		.loc 1 760 7 is_stmt 0 view .LVU24
  83 0028 08A9     		add	r1, sp, #32
  84 002a 3948     		ldr	r0, .L16+24
  85              	.LVL2:
  86              		.loc 1 760 7 view .LVU25
  87 002c FFF7FEFF 		bl	ISM330DHCX_RegisterBusIO
  88              	.LVL3:
  89              		.loc 1 760 6 view .LVU26
  90 0030 0028     		cmp	r0, #0
  91 0032 52D1     		bne	.L5
 761:Drivers/BSP/IKS02A1/iks02a1_motion_sensors.c ****   {
 762:Drivers/BSP/IKS02A1/iks02a1_motion_sensors.c ****     ret = BSP_ERROR_UNKNOWN_COMPONENT;
 763:Drivers/BSP/IKS02A1/iks02a1_motion_sensors.c ****   }
 764:Drivers/BSP/IKS02A1/iks02a1_motion_sensors.c ****   else if (ISM330DHCX_Set_Mem_Bank(&ism330dhcx_obj_0, ISM330DHCX_USER_BANK) != ISM330DHCX_OK)
  92              		.loc 1 764 8 is_stmt 1 view .LVU27
ARM GAS  C:\Temp\ccYwOtvn.s 			page 16


  93              		.loc 1 764 12 is_stmt 0 view .LVU28
  94 0034 0021     		movs	r1, #0
  95 0036 3648     		ldr	r0, .L16+24
  96 0038 FFF7FEFF 		bl	ISM330DHCX_Set_Mem_Bank
  97              	.LVL4:
  98              		.loc 1 764 11 view .LVU29
  99 003c 0028     		cmp	r0, #0
 100 003e 4FD1     		bne	.L6
 765:Drivers/BSP/IKS02A1/iks02a1_motion_sensors.c ****   {
 766:Drivers/BSP/IKS02A1/iks02a1_motion_sensors.c ****     ret = BSP_ERROR_UNKNOWN_COMPONENT;
 767:Drivers/BSP/IKS02A1/iks02a1_motion_sensors.c ****   }
 768:Drivers/BSP/IKS02A1/iks02a1_motion_sensors.c ****   else if (ISM330DHCX_ReadID(&ism330dhcx_obj_0, &id) != ISM330DHCX_OK)
 101              		.loc 1 768 8 is_stmt 1 view .LVU30
 102              		.loc 1 768 12 is_stmt 0 view .LVU31
 103 0040 0DF11F01 		add	r1, sp, #31
 104 0044 3248     		ldr	r0, .L16+24
 105 0046 FFF7FEFF 		bl	ISM330DHCX_ReadID
 106              	.LVL5:
 107              		.loc 1 768 11 view .LVU32
 108 004a 0646     		mov	r6, r0
 109 004c 0028     		cmp	r0, #0
 110 004e 4AD1     		bne	.L7
 769:Drivers/BSP/IKS02A1/iks02a1_motion_sensors.c ****   {
 770:Drivers/BSP/IKS02A1/iks02a1_motion_sensors.c ****     ret = BSP_ERROR_UNKNOWN_COMPONENT;
 771:Drivers/BSP/IKS02A1/iks02a1_motion_sensors.c ****   }
 772:Drivers/BSP/IKS02A1/iks02a1_motion_sensors.c ****   else if (id != ISM330DHCX_ID)
 111              		.loc 1 772 8 is_stmt 1 view .LVU33
 112              		.loc 1 772 15 is_stmt 0 view .LVU34
 113 0050 9DF81F30 		ldrb	r3, [sp, #31]	@ zero_extendqisi2
 114              		.loc 1 772 11 view .LVU35
 115 0054 6B2B     		cmp	r3, #107
 116 0056 49D1     		bne	.L8
 773:Drivers/BSP/IKS02A1/iks02a1_motion_sensors.c ****   {
 774:Drivers/BSP/IKS02A1/iks02a1_motion_sensors.c ****     ret = BSP_ERROR_UNKNOWN_COMPONENT;
 775:Drivers/BSP/IKS02A1/iks02a1_motion_sensors.c ****   }
 776:Drivers/BSP/IKS02A1/iks02a1_motion_sensors.c ****   else
 777:Drivers/BSP/IKS02A1/iks02a1_motion_sensors.c ****   {
 778:Drivers/BSP/IKS02A1/iks02a1_motion_sensors.c ****     (void)ISM330DHCX_GetCapabilities(&ism330dhcx_obj_0, &cap);
 117              		.loc 1 778 5 is_stmt 1 view .LVU36
 118              		.loc 1 778 11 is_stmt 0 view .LVU37
 119 0058 2D4D     		ldr	r5, .L16+24
 120 005a 6946     		mov	r1, sp
 121 005c 2846     		mov	r0, r5
 122 005e FFF7FEFF 		bl	ISM330DHCX_GetCapabilities
 123              	.LVL6:
 779:Drivers/BSP/IKS02A1/iks02a1_motion_sensors.c ****     MotionCtx[IKS02A1_ISM330DHCX_0].Functions = ((uint32_t)cap.Gyro) | ((uint32_t)cap.Acc << 1) | (
 124              		.loc 1 779 5 is_stmt 1 view .LVU38
 125              		.loc 1 779 63 is_stmt 0 view .LVU39
 126 0062 9DF80120 		ldrb	r2, [sp, #1]	@ zero_extendqisi2
 127              		.loc 1 779 86 view .LVU40
 128 0066 9DF80030 		ldrb	r3, [sp]	@ zero_extendqisi2
 129              		.loc 1 779 70 view .LVU41
 130 006a 42EA4303 		orr	r3, r2, r3, lsl #1
 131              		.loc 1 779 113 view .LVU42
 132 006e 9DF80210 		ldrb	r1, [sp, #2]	@ zero_extendqisi2
 133              		.loc 1 779 97 view .LVU43
 134 0072 43EA8103 		orr	r3, r3, r1, lsl #2
ARM GAS  C:\Temp\ccYwOtvn.s 			page 17


 135              		.loc 1 779 47 view .LVU44
 136 0076 2749     		ldr	r1, .L16+28
 137 0078 0B60     		str	r3, [r1]
 780:Drivers/BSP/IKS02A1/iks02a1_motion_sensors.c **** 
 781:Drivers/BSP/IKS02A1/iks02a1_motion_sensors.c ****     MotionCompObj[IKS02A1_ISM330DHCX_0] = &ism330dhcx_obj_0;
 138              		.loc 1 781 5 is_stmt 1 view .LVU45
 139              		.loc 1 781 41 is_stmt 0 view .LVU46
 140 007a 274B     		ldr	r3, .L16+32
 141 007c 1D60     		str	r5, [r3]
 782:Drivers/BSP/IKS02A1/iks02a1_motion_sensors.c ****     /* The second cast (void *) is added to bypass Misra R11.3 rule */
 783:Drivers/BSP/IKS02A1/iks02a1_motion_sensors.c ****     MotionDrv[IKS02A1_ISM330DHCX_0] = (MOTION_SENSOR_CommonDrv_t *)(void *)&ISM330DHCX_COMMON_Drive
 142              		.loc 1 783 5 is_stmt 1 view .LVU47
 143              		.loc 1 783 37 is_stmt 0 view .LVU48
 144 007e 274B     		ldr	r3, .L16+36
 145 0080 2749     		ldr	r1, .L16+40
 146 0082 1960     		str	r1, [r3]
 784:Drivers/BSP/IKS02A1/iks02a1_motion_sensors.c **** 
 785:Drivers/BSP/IKS02A1/iks02a1_motion_sensors.c ****     if ((ret == BSP_ERROR_NONE) && ((Functions & MOTION_GYRO) == MOTION_GYRO) && (cap.Gyro == 1U))
 147              		.loc 1 785 5 is_stmt 1 view .LVU49
 148              		.loc 1 785 33 is_stmt 0 view .LVU50
 149 0084 14F0010F 		tst	r4, #1
 150 0088 01D0     		beq	.L3
 151              		.loc 1 785 79 discriminator 2 view .LVU51
 152 008a 012A     		cmp	r2, #1
 153 008c 0CD0     		beq	.L13
 154              	.L3:
 155              	.LVL7:
 786:Drivers/BSP/IKS02A1/iks02a1_motion_sensors.c ****     {
 787:Drivers/BSP/IKS02A1/iks02a1_motion_sensors.c ****       /* The second cast (void *) is added to bypass Misra R11.3 rule */
 788:Drivers/BSP/IKS02A1/iks02a1_motion_sensors.c ****       MotionFuncDrv[IKS02A1_ISM330DHCX_0][FunctionIndex[MOTION_GYRO]] = (MOTION_SENSOR_FuncDrv_t *)
 789:Drivers/BSP/IKS02A1/iks02a1_motion_sensors.c **** 
 790:Drivers/BSP/IKS02A1/iks02a1_motion_sensors.c ****       if (MotionDrv[IKS02A1_ISM330DHCX_0]->Init(MotionCompObj[IKS02A1_ISM330DHCX_0]) != ISM330DHCX_
 791:Drivers/BSP/IKS02A1/iks02a1_motion_sensors.c ****       {
 792:Drivers/BSP/IKS02A1/iks02a1_motion_sensors.c ****         ret = BSP_ERROR_COMPONENT_FAILURE;
 793:Drivers/BSP/IKS02A1/iks02a1_motion_sensors.c ****       }
 794:Drivers/BSP/IKS02A1/iks02a1_motion_sensors.c ****       else
 795:Drivers/BSP/IKS02A1/iks02a1_motion_sensors.c ****       {
 796:Drivers/BSP/IKS02A1/iks02a1_motion_sensors.c ****         ret = BSP_ERROR_NONE;
 797:Drivers/BSP/IKS02A1/iks02a1_motion_sensors.c ****       }
 798:Drivers/BSP/IKS02A1/iks02a1_motion_sensors.c ****     }
 799:Drivers/BSP/IKS02A1/iks02a1_motion_sensors.c ****     if ((ret == BSP_ERROR_NONE) && ((Functions & MOTION_ACCELERO) == MOTION_ACCELERO) && (cap.Acc =
 156              		.loc 1 799 33 discriminator 1 view .LVU52
 157 008e 14F0020F 		tst	r4, #2
 158 0092 03D0     		beq	.L4
 159              		.loc 1 799 94 discriminator 2 view .LVU53
 160 0094 9DF80030 		ldrb	r3, [sp]	@ zero_extendqisi2
 161              		.loc 1 799 87 discriminator 2 view .LVU54
 162 0098 012B     		cmp	r3, #1
 163 009a 10D0     		beq	.L14
 164              	.L4:
 800:Drivers/BSP/IKS02A1/iks02a1_motion_sensors.c ****     {
 801:Drivers/BSP/IKS02A1/iks02a1_motion_sensors.c ****       /* The second cast (void *) is added to bypass Misra R11.3 rule */
 802:Drivers/BSP/IKS02A1/iks02a1_motion_sensors.c ****       MotionFuncDrv[IKS02A1_ISM330DHCX_0][FunctionIndex[MOTION_ACCELERO]] = (MOTION_SENSOR_FuncDrv_
 803:Drivers/BSP/IKS02A1/iks02a1_motion_sensors.c ****                                                                               void *)&ISM330DHCX_AC
 804:Drivers/BSP/IKS02A1/iks02a1_motion_sensors.c **** 
 805:Drivers/BSP/IKS02A1/iks02a1_motion_sensors.c ****       if (MotionDrv[IKS02A1_ISM330DHCX_0]->Init(MotionCompObj[IKS02A1_ISM330DHCX_0]) != ISM330DHCX_
 806:Drivers/BSP/IKS02A1/iks02a1_motion_sensors.c ****       {
ARM GAS  C:\Temp\ccYwOtvn.s 			page 18


 807:Drivers/BSP/IKS02A1/iks02a1_motion_sensors.c ****         ret = BSP_ERROR_COMPONENT_FAILURE;
 808:Drivers/BSP/IKS02A1/iks02a1_motion_sensors.c ****       }
 809:Drivers/BSP/IKS02A1/iks02a1_motion_sensors.c ****       else
 810:Drivers/BSP/IKS02A1/iks02a1_motion_sensors.c ****       {
 811:Drivers/BSP/IKS02A1/iks02a1_motion_sensors.c ****         ret = BSP_ERROR_NONE;
 812:Drivers/BSP/IKS02A1/iks02a1_motion_sensors.c ****       }
 813:Drivers/BSP/IKS02A1/iks02a1_motion_sensors.c ****     }
 814:Drivers/BSP/IKS02A1/iks02a1_motion_sensors.c ****     if ((ret == BSP_ERROR_NONE) && ((Functions & MOTION_MAGNETO) == MOTION_MAGNETO))
 165              		.loc 1 814 33 discriminator 1 view .LVU55
 166 009c 14F0040F 		tst	r4, #4
 167 00a0 27D1     		bne	.L15
 168              	.L1:
 815:Drivers/BSP/IKS02A1/iks02a1_motion_sensors.c ****     {
 816:Drivers/BSP/IKS02A1/iks02a1_motion_sensors.c ****       /* Return an error if the application try to initialize a function not supported by the compo
 817:Drivers/BSP/IKS02A1/iks02a1_motion_sensors.c ****       ret = BSP_ERROR_COMPONENT_FAILURE;
 818:Drivers/BSP/IKS02A1/iks02a1_motion_sensors.c ****     }
 819:Drivers/BSP/IKS02A1/iks02a1_motion_sensors.c ****   }
 820:Drivers/BSP/IKS02A1/iks02a1_motion_sensors.c ****   return ret;
 821:Drivers/BSP/IKS02A1/iks02a1_motion_sensors.c **** }
 169              		.loc 1 821 1 view .LVU56
 170 00a2 3046     		mov	r0, r6
 171 00a4 10B0     		add	sp, sp, #64
 172              		.cfi_remember_state
 173              		.cfi_def_cfa_offset 16
 174              		@ sp needed
 175 00a6 70BD     		pop	{r4, r5, r6, pc}
 176              	.LVL8:
 177              	.L13:
 178              		.cfi_restore_state
 788:Drivers/BSP/IKS02A1/iks02a1_motion_sensors.c **** 
 179              		.loc 1 788 7 is_stmt 1 view .LVU57
 788:Drivers/BSP/IKS02A1/iks02a1_motion_sensors.c **** 
 180              		.loc 1 788 71 is_stmt 0 view .LVU58
 181 00a8 1E4B     		ldr	r3, .L16+44
 182 00aa 1F4A     		ldr	r2, .L16+48
 183 00ac 1A60     		str	r2, [r3]
 790:Drivers/BSP/IKS02A1/iks02a1_motion_sensors.c ****       {
 184              		.loc 1 790 7 is_stmt 1 view .LVU59
 790:Drivers/BSP/IKS02A1/iks02a1_motion_sensors.c ****       {
 185              		.loc 1 790 42 is_stmt 0 view .LVU60
 186 00ae 0B68     		ldr	r3, [r1]
 790:Drivers/BSP/IKS02A1/iks02a1_motion_sensors.c ****       {
 187              		.loc 1 790 11 view .LVU61
 188 00b0 2846     		mov	r0, r5
 189 00b2 9847     		blx	r3
 190              	.LVL9:
 790:Drivers/BSP/IKS02A1/iks02a1_motion_sensors.c ****       {
 191              		.loc 1 790 10 view .LVU62
 192 00b4 0028     		cmp	r0, #0
 193 00b6 EAD0     		beq	.L3
 792:Drivers/BSP/IKS02A1/iks02a1_motion_sensors.c ****       }
 194              		.loc 1 792 13 view .LVU63
 195 00b8 6FF00406 		mvn	r6, #4
 196 00bc F1E7     		b	.L1
 197              	.LVL10:
 198              	.L14:
 802:Drivers/BSP/IKS02A1/iks02a1_motion_sensors.c ****                                                                               void *)&ISM330DHCX_AC
ARM GAS  C:\Temp\ccYwOtvn.s 			page 19


 199              		.loc 1 802 7 is_stmt 1 view .LVU64
 802:Drivers/BSP/IKS02A1/iks02a1_motion_sensors.c ****                                                                               void *)&ISM330DHCX_AC
 200              		.loc 1 802 75 is_stmt 0 view .LVU65
 201 00be 194B     		ldr	r3, .L16+44
 202 00c0 1A4A     		ldr	r2, .L16+52
 203 00c2 5A60     		str	r2, [r3, #4]
 805:Drivers/BSP/IKS02A1/iks02a1_motion_sensors.c ****       {
 204              		.loc 1 805 7 is_stmt 1 view .LVU66
 805:Drivers/BSP/IKS02A1/iks02a1_motion_sensors.c ****       {
 205              		.loc 1 805 20 is_stmt 0 view .LVU67
 206 00c4 154B     		ldr	r3, .L16+36
 207 00c6 1B68     		ldr	r3, [r3]
 805:Drivers/BSP/IKS02A1/iks02a1_motion_sensors.c ****       {
 208              		.loc 1 805 42 view .LVU68
 209 00c8 1B68     		ldr	r3, [r3]
 805:Drivers/BSP/IKS02A1/iks02a1_motion_sensors.c ****       {
 210              		.loc 1 805 11 view .LVU69
 211 00ca 134A     		ldr	r2, .L16+32
 212 00cc 1068     		ldr	r0, [r2]
 213 00ce 9847     		blx	r3
 214              	.LVL11:
 805:Drivers/BSP/IKS02A1/iks02a1_motion_sensors.c ****       {
 215              		.loc 1 805 10 view .LVU70
 216 00d0 0028     		cmp	r0, #0
 217 00d2 E3D0     		beq	.L4
 807:Drivers/BSP/IKS02A1/iks02a1_motion_sensors.c ****       }
 218              		.loc 1 807 13 view .LVU71
 219 00d4 6FF00406 		mvn	r6, #4
 220 00d8 E3E7     		b	.L1
 221              	.LVL12:
 222              	.L5:
 762:Drivers/BSP/IKS02A1/iks02a1_motion_sensors.c ****   }
 223              		.loc 1 762 9 view .LVU72
 224 00da 6FF00606 		mvn	r6, #6
 225 00de E0E7     		b	.L1
 226              	.L6:
 766:Drivers/BSP/IKS02A1/iks02a1_motion_sensors.c ****   }
 227              		.loc 1 766 9 view .LVU73
 228 00e0 6FF00606 		mvn	r6, #6
 229 00e4 DDE7     		b	.L1
 230              	.L7:
 770:Drivers/BSP/IKS02A1/iks02a1_motion_sensors.c ****   }
 231              		.loc 1 770 9 view .LVU74
 232 00e6 6FF00606 		mvn	r6, #6
 233 00ea DAE7     		b	.L1
 234              	.L8:
 774:Drivers/BSP/IKS02A1/iks02a1_motion_sensors.c ****   }
 235              		.loc 1 774 9 view .LVU75
 236 00ec 6FF00606 		mvn	r6, #6
 237 00f0 D7E7     		b	.L1
 238              	.LVL13:
 239              	.L15:
 817:Drivers/BSP/IKS02A1/iks02a1_motion_sensors.c ****     }
 240              		.loc 1 817 11 view .LVU76
 241 00f2 6FF00406 		mvn	r6, #4
 242              	.LVL14:
 820:Drivers/BSP/IKS02A1/iks02a1_motion_sensors.c **** }
ARM GAS  C:\Temp\ccYwOtvn.s 			page 20


 243              		.loc 1 820 3 is_stmt 1 view .LVU77
 820:Drivers/BSP/IKS02A1/iks02a1_motion_sensors.c **** }
 244              		.loc 1 820 10 is_stmt 0 view .LVU78
 245 00f6 D4E7     		b	.L1
 246              	.L17:
 247              		.align	2
 248              	.L16:
 249 00f8 00000000 		.word	BSP_I2C1_Init
 250 00fc 00000000 		.word	BSP_I2C1_DeInit
 251 0100 00000000 		.word	BSP_I2C1_ReadReg
 252 0104 00000000 		.word	BSP_I2C1_WriteReg
 253 0108 00000000 		.word	BSP_GetTick
 254 010c 00000000 		.word	HAL_Delay
 255 0110 00000000 		.word	ism330dhcx_obj_0.2
 256 0114 00000000 		.word	MotionCtx
 257 0118 00000000 		.word	MotionCompObj
 258 011c 00000000 		.word	MotionDrv
 259 0120 00000000 		.word	ISM330DHCX_COMMON_Driver
 260 0124 00000000 		.word	MotionFuncDrv
 261 0128 00000000 		.word	ISM330DHCX_GYRO_Driver
 262 012c 00000000 		.word	ISM330DHCX_ACC_Driver
 263              		.cfi_endproc
 264              	.LFE147:
 266              		.section	.text.IIS2DLPC_0_Probe,"ax",%progbits
 267              		.align	1
 268              		.syntax unified
 269              		.thumb
 270              		.thumb_func
 272              	IIS2DLPC_0_Probe:
 273              	.LVL15:
 274              	.LFB148:
 822:Drivers/BSP/IKS02A1/iks02a1_motion_sensors.c **** #endif
 823:Drivers/BSP/IKS02A1/iks02a1_motion_sensors.c **** 
 824:Drivers/BSP/IKS02A1/iks02a1_motion_sensors.c **** #if (USE_IKS02A1_MOTION_SENSOR_IIS2DLPC_0  == 1)
 825:Drivers/BSP/IKS02A1/iks02a1_motion_sensors.c **** /**
 826:Drivers/BSP/IKS02A1/iks02a1_motion_sensors.c ****   * @brief  Register Bus IOs for instance 0 if component ID is OK
 827:Drivers/BSP/IKS02A1/iks02a1_motion_sensors.c ****   * @retval BSP status
 828:Drivers/BSP/IKS02A1/iks02a1_motion_sensors.c ****   */
 829:Drivers/BSP/IKS02A1/iks02a1_motion_sensors.c **** static int32_t IIS2DLPC_0_Probe(uint32_t Functions)
 830:Drivers/BSP/IKS02A1/iks02a1_motion_sensors.c **** {
 275              		.loc 1 830 1 is_stmt 1 view -0
 276              		.cfi_startproc
 277              		@ args = 0, pretend = 0, frame = 64
 278              		@ frame_needed = 0, uses_anonymous_args = 0
 279              		.loc 1 830 1 is_stmt 0 view .LVU80
 280 0000 70B5     		push	{r4, r5, r6, lr}
 281              		.cfi_def_cfa_offset 16
 282              		.cfi_offset 4, -16
 283              		.cfi_offset 5, -12
 284              		.cfi_offset 6, -8
 285              		.cfi_offset 14, -4
 286 0002 90B0     		sub	sp, sp, #64
 287              		.cfi_def_cfa_offset 80
 288 0004 0446     		mov	r4, r0
 831:Drivers/BSP/IKS02A1/iks02a1_motion_sensors.c ****   IIS2DLPC_IO_t            io_ctx;
 289              		.loc 1 831 3 is_stmt 1 view .LVU81
 832:Drivers/BSP/IKS02A1/iks02a1_motion_sensors.c ****   uint8_t                  id;
ARM GAS  C:\Temp\ccYwOtvn.s 			page 21


 290              		.loc 1 832 3 view .LVU82
 833:Drivers/BSP/IKS02A1/iks02a1_motion_sensors.c ****   static IIS2DLPC_Object_t iis2dlpc_obj_0;
 291              		.loc 1 833 3 view .LVU83
 834:Drivers/BSP/IKS02A1/iks02a1_motion_sensors.c ****   IIS2DLPC_Capabilities_t  cap;
 292              		.loc 1 834 3 view .LVU84
 835:Drivers/BSP/IKS02A1/iks02a1_motion_sensors.c ****   int32_t ret = BSP_ERROR_NONE;
 293              		.loc 1 835 3 view .LVU85
 294              	.LVL16:
 836:Drivers/BSP/IKS02A1/iks02a1_motion_sensors.c **** 
 837:Drivers/BSP/IKS02A1/iks02a1_motion_sensors.c ****   /* Configure the accelero driver */
 838:Drivers/BSP/IKS02A1/iks02a1_motion_sensors.c ****   io_ctx.BusType     = IIS2DLPC_I2C_BUS; /* I2C */
 295              		.loc 1 838 3 view .LVU86
 296              		.loc 1 838 22 is_stmt 0 view .LVU87
 297 0006 0023     		movs	r3, #0
 298 0008 0A93     		str	r3, [sp, #40]
 839:Drivers/BSP/IKS02A1/iks02a1_motion_sensors.c ****   io_ctx.Address     = IIS2DLPC_I2C_ADD_H;
 299              		.loc 1 839 3 is_stmt 1 view .LVU88
 300              		.loc 1 839 22 is_stmt 0 view .LVU89
 301 000a 3323     		movs	r3, #51
 302 000c 8DF82C30 		strb	r3, [sp, #44]
 840:Drivers/BSP/IKS02A1/iks02a1_motion_sensors.c ****   io_ctx.Init        = IKS02A1_I2C_INIT;
 303              		.loc 1 840 3 is_stmt 1 view .LVU90
 304              		.loc 1 840 22 is_stmt 0 view .LVU91
 305 0010 304B     		ldr	r3, .L32
 306 0012 0893     		str	r3, [sp, #32]
 841:Drivers/BSP/IKS02A1/iks02a1_motion_sensors.c ****   io_ctx.DeInit      = IKS02A1_I2C_DEINIT;
 307              		.loc 1 841 3 is_stmt 1 view .LVU92
 308              		.loc 1 841 22 is_stmt 0 view .LVU93
 309 0014 304B     		ldr	r3, .L32+4
 310 0016 0993     		str	r3, [sp, #36]
 842:Drivers/BSP/IKS02A1/iks02a1_motion_sensors.c ****   io_ctx.ReadReg     = IKS02A1_I2C_READ_REG;
 311              		.loc 1 842 3 is_stmt 1 view .LVU94
 312              		.loc 1 842 22 is_stmt 0 view .LVU95
 313 0018 304B     		ldr	r3, .L32+8
 314 001a 0D93     		str	r3, [sp, #52]
 843:Drivers/BSP/IKS02A1/iks02a1_motion_sensors.c ****   io_ctx.WriteReg    = IKS02A1_I2C_WRITE_REG;
 315              		.loc 1 843 3 is_stmt 1 view .LVU96
 316              		.loc 1 843 22 is_stmt 0 view .LVU97
 317 001c 304B     		ldr	r3, .L32+12
 318 001e 0C93     		str	r3, [sp, #48]
 844:Drivers/BSP/IKS02A1/iks02a1_motion_sensors.c ****   io_ctx.GetTick     = IKS02A1_GET_TICK;
 319              		.loc 1 844 3 is_stmt 1 view .LVU98
 320              		.loc 1 844 22 is_stmt 0 view .LVU99
 321 0020 304B     		ldr	r3, .L32+16
 322 0022 0E93     		str	r3, [sp, #56]
 845:Drivers/BSP/IKS02A1/iks02a1_motion_sensors.c ****   io_ctx.Delay       = IKS02A1_DELAY;
 323              		.loc 1 845 3 is_stmt 1 view .LVU100
 324              		.loc 1 845 22 is_stmt 0 view .LVU101
 325 0024 304B     		ldr	r3, .L32+20
 326 0026 0F93     		str	r3, [sp, #60]
 846:Drivers/BSP/IKS02A1/iks02a1_motion_sensors.c **** 
 847:Drivers/BSP/IKS02A1/iks02a1_motion_sensors.c ****   if (IIS2DLPC_RegisterBusIO(&iis2dlpc_obj_0, &io_ctx) != IIS2DLPC_OK)
 327              		.loc 1 847 3 is_stmt 1 view .LVU102
 328              		.loc 1 847 7 is_stmt 0 view .LVU103
 329 0028 08A9     		add	r1, sp, #32
 330 002a 3048     		ldr	r0, .L32+24
 331              	.LVL17:
ARM GAS  C:\Temp\ccYwOtvn.s 			page 22


 332              		.loc 1 847 7 view .LVU104
 333 002c FFF7FEFF 		bl	IIS2DLPC_RegisterBusIO
 334              	.LVL18:
 335              		.loc 1 847 6 view .LVU105
 336 0030 0028     		cmp	r0, #0
 337 0032 42D1     		bne	.L23
 848:Drivers/BSP/IKS02A1/iks02a1_motion_sensors.c ****   {
 849:Drivers/BSP/IKS02A1/iks02a1_motion_sensors.c ****     ret = BSP_ERROR_UNKNOWN_COMPONENT;
 850:Drivers/BSP/IKS02A1/iks02a1_motion_sensors.c ****   }
 851:Drivers/BSP/IKS02A1/iks02a1_motion_sensors.c ****   else if (IIS2DLPC_ReadID(&iis2dlpc_obj_0, &id) != IIS2DLPC_OK)
 338              		.loc 1 851 8 is_stmt 1 view .LVU106
 339              		.loc 1 851 12 is_stmt 0 view .LVU107
 340 0034 0DF11F01 		add	r1, sp, #31
 341 0038 2C48     		ldr	r0, .L32+24
 342 003a FFF7FEFF 		bl	IIS2DLPC_ReadID
 343              	.LVL19:
 344              		.loc 1 851 11 view .LVU108
 345 003e 0546     		mov	r5, r0
 346 0040 0028     		cmp	r0, #0
 347 0042 3DD1     		bne	.L24
 852:Drivers/BSP/IKS02A1/iks02a1_motion_sensors.c ****   {
 853:Drivers/BSP/IKS02A1/iks02a1_motion_sensors.c ****     ret = BSP_ERROR_UNKNOWN_COMPONENT;
 854:Drivers/BSP/IKS02A1/iks02a1_motion_sensors.c ****   }
 855:Drivers/BSP/IKS02A1/iks02a1_motion_sensors.c ****   else if (id != IIS2DLPC_ID)
 348              		.loc 1 855 8 is_stmt 1 view .LVU109
 349              		.loc 1 855 15 is_stmt 0 view .LVU110
 350 0044 9DF81F30 		ldrb	r3, [sp, #31]	@ zero_extendqisi2
 351              		.loc 1 855 11 view .LVU111
 352 0048 442B     		cmp	r3, #68
 353 004a 3CD1     		bne	.L25
 856:Drivers/BSP/IKS02A1/iks02a1_motion_sensors.c ****   {
 857:Drivers/BSP/IKS02A1/iks02a1_motion_sensors.c ****     ret = BSP_ERROR_UNKNOWN_COMPONENT;
 858:Drivers/BSP/IKS02A1/iks02a1_motion_sensors.c ****   }
 859:Drivers/BSP/IKS02A1/iks02a1_motion_sensors.c ****   else
 860:Drivers/BSP/IKS02A1/iks02a1_motion_sensors.c ****   {
 861:Drivers/BSP/IKS02A1/iks02a1_motion_sensors.c ****     (void)IIS2DLPC_GetCapabilities(&iis2dlpc_obj_0, &cap);
 354              		.loc 1 861 5 is_stmt 1 view .LVU112
 355              		.loc 1 861 11 is_stmt 0 view .LVU113
 356 004c 274E     		ldr	r6, .L32+24
 357 004e 6946     		mov	r1, sp
 358 0050 3046     		mov	r0, r6
 359 0052 FFF7FEFF 		bl	IIS2DLPC_GetCapabilities
 360              	.LVL20:
 862:Drivers/BSP/IKS02A1/iks02a1_motion_sensors.c ****     MotionCtx[IKS02A1_IIS2DLPC_0].Functions = ((uint32_t)cap.Gyro) | ((uint32_t)cap.Acc << 1) | ((u
 361              		.loc 1 862 5 is_stmt 1 view .LVU114
 362              		.loc 1 862 61 is_stmt 0 view .LVU115
 363 0056 9DF80120 		ldrb	r2, [sp, #1]	@ zero_extendqisi2
 364              		.loc 1 862 84 view .LVU116
 365 005a 9DF80010 		ldrb	r1, [sp]	@ zero_extendqisi2
 366              		.loc 1 862 68 view .LVU117
 367 005e 42EA4103 		orr	r3, r2, r1, lsl #1
 368              		.loc 1 862 111 view .LVU118
 369 0062 9DF80200 		ldrb	r0, [sp, #2]	@ zero_extendqisi2
 370              		.loc 1 862 95 view .LVU119
 371 0066 43EA8003 		orr	r3, r3, r0, lsl #2
 372              		.loc 1 862 45 view .LVU120
 373 006a 2148     		ldr	r0, .L32+28
ARM GAS  C:\Temp\ccYwOtvn.s 			page 23


 374 006c 4360     		str	r3, [r0, #4]
 863:Drivers/BSP/IKS02A1/iks02a1_motion_sensors.c **** 
 864:Drivers/BSP/IKS02A1/iks02a1_motion_sensors.c ****     MotionCompObj[IKS02A1_IIS2DLPC_0] = &iis2dlpc_obj_0;
 375              		.loc 1 864 5 is_stmt 1 view .LVU121
 376              		.loc 1 864 39 is_stmt 0 view .LVU122
 377 006e 214B     		ldr	r3, .L32+32
 378 0070 5E60     		str	r6, [r3, #4]
 865:Drivers/BSP/IKS02A1/iks02a1_motion_sensors.c ****     /* The second cast (void *) is added to bypass Misra R11.3 rule */
 866:Drivers/BSP/IKS02A1/iks02a1_motion_sensors.c ****     MotionDrv[IKS02A1_IIS2DLPC_0] = (MOTION_SENSOR_CommonDrv_t *)(void *)&IIS2DLPC_COMMON_Driver;
 379              		.loc 1 866 5 is_stmt 1 view .LVU123
 380              		.loc 1 866 35 is_stmt 0 view .LVU124
 381 0072 214B     		ldr	r3, .L32+36
 382 0074 2148     		ldr	r0, .L32+40
 383 0076 5860     		str	r0, [r3, #4]
 867:Drivers/BSP/IKS02A1/iks02a1_motion_sensors.c **** 
 868:Drivers/BSP/IKS02A1/iks02a1_motion_sensors.c ****     if ((ret == BSP_ERROR_NONE) && ((Functions & MOTION_GYRO) == MOTION_GYRO) && (cap.Gyro == 1U))
 384              		.loc 1 868 5 is_stmt 1 view .LVU125
 385              		.loc 1 868 33 is_stmt 0 view .LVU126
 386 0078 14F0010F 		tst	r4, #1
 387 007c 01D0     		beq	.L20
 388              		.loc 1 868 79 discriminator 2 view .LVU127
 389 007e 012A     		cmp	r2, #1
 390 0080 18D0     		beq	.L26
 391              	.L20:
 392              	.LVL21:
 869:Drivers/BSP/IKS02A1/iks02a1_motion_sensors.c ****     {
 870:Drivers/BSP/IKS02A1/iks02a1_motion_sensors.c ****       /* Return an error if the application try to initialize a function not supported by the compo
 871:Drivers/BSP/IKS02A1/iks02a1_motion_sensors.c ****       ret = BSP_ERROR_COMPONENT_FAILURE;
 872:Drivers/BSP/IKS02A1/iks02a1_motion_sensors.c ****     }
 873:Drivers/BSP/IKS02A1/iks02a1_motion_sensors.c ****     if ((ret == BSP_ERROR_NONE) && ((Functions & MOTION_ACCELERO) == MOTION_ACCELERO) && (cap.Acc =
 393              		.loc 1 873 33 discriminator 1 view .LVU128
 394 0082 14F0020F 		tst	r4, #2
 395 0086 01D0     		beq	.L21
 396              		.loc 1 873 87 discriminator 2 view .LVU129
 397 0088 0129     		cmp	r1, #1
 398 008a 06D0     		beq	.L30
 399              	.L21:
 400              	.LVL22:
 874:Drivers/BSP/IKS02A1/iks02a1_motion_sensors.c ****     {
 875:Drivers/BSP/IKS02A1/iks02a1_motion_sensors.c ****       /* The second cast (void *) is added to bypass Misra R11.3 rule */
 876:Drivers/BSP/IKS02A1/iks02a1_motion_sensors.c ****       MotionFuncDrv[IKS02A1_IIS2DLPC_0][FunctionIndex[MOTION_ACCELERO]] = (MOTION_SENSOR_FuncDrv_t 
 877:Drivers/BSP/IKS02A1/iks02a1_motion_sensors.c ****                                                                             void *)&IIS2DLPC_ACC_Dr
 878:Drivers/BSP/IKS02A1/iks02a1_motion_sensors.c **** 
 879:Drivers/BSP/IKS02A1/iks02a1_motion_sensors.c ****       if (MotionDrv[IKS02A1_IIS2DLPC_0]->Init(MotionCompObj[IKS02A1_IIS2DLPC_0]) != IIS2DLPC_OK)
 880:Drivers/BSP/IKS02A1/iks02a1_motion_sensors.c ****       {
 881:Drivers/BSP/IKS02A1/iks02a1_motion_sensors.c ****         ret = BSP_ERROR_COMPONENT_FAILURE;
 882:Drivers/BSP/IKS02A1/iks02a1_motion_sensors.c ****       }
 883:Drivers/BSP/IKS02A1/iks02a1_motion_sensors.c ****       else
 884:Drivers/BSP/IKS02A1/iks02a1_motion_sensors.c ****       {
 885:Drivers/BSP/IKS02A1/iks02a1_motion_sensors.c ****         ret = BSP_ERROR_NONE;
 886:Drivers/BSP/IKS02A1/iks02a1_motion_sensors.c ****       }
 887:Drivers/BSP/IKS02A1/iks02a1_motion_sensors.c ****     }
 888:Drivers/BSP/IKS02A1/iks02a1_motion_sensors.c ****     if ((ret == BSP_ERROR_NONE) && ((Functions & MOTION_MAGNETO) == MOTION_MAGNETO))
 401              		.loc 1 888 5 is_stmt 1 view .LVU130
 402              		.loc 1 888 8 is_stmt 0 view .LVU131
 403 008c 15B9     		cbnz	r5, .L18
 404              	.LVL23:
ARM GAS  C:\Temp\ccYwOtvn.s 			page 24


 405              	.L22:
 406              		.loc 1 888 33 discriminator 1 view .LVU132
 407 008e 14F0040F 		tst	r4, #4
 408 0092 1BD1     		bne	.L31
 409              	.L18:
 889:Drivers/BSP/IKS02A1/iks02a1_motion_sensors.c ****     {
 890:Drivers/BSP/IKS02A1/iks02a1_motion_sensors.c ****       /* Return an error if the application try to initialize a function not supported by the compo
 891:Drivers/BSP/IKS02A1/iks02a1_motion_sensors.c ****       ret = BSP_ERROR_COMPONENT_FAILURE;
 892:Drivers/BSP/IKS02A1/iks02a1_motion_sensors.c ****     }
 893:Drivers/BSP/IKS02A1/iks02a1_motion_sensors.c ****   }
 894:Drivers/BSP/IKS02A1/iks02a1_motion_sensors.c ****   return ret;
 895:Drivers/BSP/IKS02A1/iks02a1_motion_sensors.c **** }
 410              		.loc 1 895 1 view .LVU133
 411 0094 2846     		mov	r0, r5
 412 0096 10B0     		add	sp, sp, #64
 413              		.cfi_remember_state
 414              		.cfi_def_cfa_offset 16
 415              		@ sp needed
 416 0098 70BD     		pop	{r4, r5, r6, pc}
 417              	.LVL24:
 418              	.L30:
 419              		.cfi_restore_state
 876:Drivers/BSP/IKS02A1/iks02a1_motion_sensors.c ****                                                                             void *)&IIS2DLPC_ACC_Dr
 420              		.loc 1 876 7 is_stmt 1 view .LVU134
 876:Drivers/BSP/IKS02A1/iks02a1_motion_sensors.c ****                                                                             void *)&IIS2DLPC_ACC_Dr
 421              		.loc 1 876 73 is_stmt 0 view .LVU135
 422 009a 194B     		ldr	r3, .L32+44
 423 009c 194A     		ldr	r2, .L32+48
 424 009e 1A61     		str	r2, [r3, #16]
 879:Drivers/BSP/IKS02A1/iks02a1_motion_sensors.c ****       {
 425              		.loc 1 879 7 is_stmt 1 view .LVU136
 879:Drivers/BSP/IKS02A1/iks02a1_motion_sensors.c ****       {
 426              		.loc 1 879 40 is_stmt 0 view .LVU137
 427 00a0 164B     		ldr	r3, .L32+40
 428 00a2 1B68     		ldr	r3, [r3]
 879:Drivers/BSP/IKS02A1/iks02a1_motion_sensors.c ****       {
 429              		.loc 1 879 11 view .LVU138
 430 00a4 1148     		ldr	r0, .L32+24
 431 00a6 9847     		blx	r3
 432              	.LVL25:
 879:Drivers/BSP/IKS02A1/iks02a1_motion_sensors.c ****       {
 433              		.loc 1 879 10 view .LVU139
 434 00a8 0546     		mov	r5, r0
 435 00aa 0028     		cmp	r0, #0
 436 00ac EFD0     		beq	.L22
 881:Drivers/BSP/IKS02A1/iks02a1_motion_sensors.c ****       }
 437              		.loc 1 881 13 view .LVU140
 438 00ae 6FF00405 		mvn	r5, #4
 439 00b2 EFE7     		b	.L18
 440              	.LVL26:
 441              	.L26:
 871:Drivers/BSP/IKS02A1/iks02a1_motion_sensors.c ****     }
 442              		.loc 1 871 11 view .LVU141
 443 00b4 6FF00405 		mvn	r5, #4
 444 00b8 E8E7     		b	.L21
 445              	.L23:
 849:Drivers/BSP/IKS02A1/iks02a1_motion_sensors.c ****   }
ARM GAS  C:\Temp\ccYwOtvn.s 			page 25


 446              		.loc 1 849 9 view .LVU142
 447 00ba 6FF00605 		mvn	r5, #6
 448 00be E9E7     		b	.L18
 449              	.L24:
 853:Drivers/BSP/IKS02A1/iks02a1_motion_sensors.c ****   }
 450              		.loc 1 853 9 view .LVU143
 451 00c0 6FF00605 		mvn	r5, #6
 452 00c4 E6E7     		b	.L18
 453              	.L25:
 857:Drivers/BSP/IKS02A1/iks02a1_motion_sensors.c ****   }
 454              		.loc 1 857 9 view .LVU144
 455 00c6 6FF00605 		mvn	r5, #6
 456 00ca E3E7     		b	.L18
 457              	.LVL27:
 458              	.L31:
 891:Drivers/BSP/IKS02A1/iks02a1_motion_sensors.c ****     }
 459              		.loc 1 891 11 view .LVU145
 460 00cc 6FF00405 		mvn	r5, #4
 461              	.LVL28:
 894:Drivers/BSP/IKS02A1/iks02a1_motion_sensors.c **** }
 462              		.loc 1 894 3 is_stmt 1 view .LVU146
 894:Drivers/BSP/IKS02A1/iks02a1_motion_sensors.c **** }
 463              		.loc 1 894 10 is_stmt 0 view .LVU147
 464 00d0 E0E7     		b	.L18
 465              	.L33:
 466 00d2 00BF     		.align	2
 467              	.L32:
 468 00d4 00000000 		.word	BSP_I2C1_Init
 469 00d8 00000000 		.word	BSP_I2C1_DeInit
 470 00dc 00000000 		.word	BSP_I2C1_ReadReg
 471 00e0 00000000 		.word	BSP_I2C1_WriteReg
 472 00e4 00000000 		.word	BSP_GetTick
 473 00e8 00000000 		.word	HAL_Delay
 474 00ec 00000000 		.word	iis2dlpc_obj_0.1
 475 00f0 00000000 		.word	MotionCtx
 476 00f4 00000000 		.word	MotionCompObj
 477 00f8 00000000 		.word	MotionDrv
 478 00fc 00000000 		.word	IIS2DLPC_COMMON_Driver
 479 0100 00000000 		.word	MotionFuncDrv
 480 0104 00000000 		.word	IIS2DLPC_ACC_Driver
 481              		.cfi_endproc
 482              	.LFE148:
 484              		.section	.text.IIS2MDC_0_Probe,"ax",%progbits
 485              		.align	1
 486              		.syntax unified
 487              		.thumb
 488              		.thumb_func
 490              	IIS2MDC_0_Probe:
 491              	.LVL29:
 492              	.LFB149:
 896:Drivers/BSP/IKS02A1/iks02a1_motion_sensors.c **** #endif
 897:Drivers/BSP/IKS02A1/iks02a1_motion_sensors.c **** 
 898:Drivers/BSP/IKS02A1/iks02a1_motion_sensors.c **** #if (USE_IKS02A1_MOTION_SENSOR_IIS2MDC_0  == 1)
 899:Drivers/BSP/IKS02A1/iks02a1_motion_sensors.c **** /**
 900:Drivers/BSP/IKS02A1/iks02a1_motion_sensors.c ****   * @brief  Register Bus IOs for instance 0 if component ID is OK
 901:Drivers/BSP/IKS02A1/iks02a1_motion_sensors.c ****   * @retval BSP status
 902:Drivers/BSP/IKS02A1/iks02a1_motion_sensors.c ****   */
ARM GAS  C:\Temp\ccYwOtvn.s 			page 26


 903:Drivers/BSP/IKS02A1/iks02a1_motion_sensors.c **** static int32_t IIS2MDC_0_Probe(uint32_t Functions)
 904:Drivers/BSP/IKS02A1/iks02a1_motion_sensors.c **** {
 493              		.loc 1 904 1 is_stmt 1 view -0
 494              		.cfi_startproc
 495              		@ args = 0, pretend = 0, frame = 64
 496              		@ frame_needed = 0, uses_anonymous_args = 0
 497              		.loc 1 904 1 is_stmt 0 view .LVU149
 498 0000 70B5     		push	{r4, r5, r6, lr}
 499              		.cfi_def_cfa_offset 16
 500              		.cfi_offset 4, -16
 501              		.cfi_offset 5, -12
 502              		.cfi_offset 6, -8
 503              		.cfi_offset 14, -4
 504 0002 90B0     		sub	sp, sp, #64
 505              		.cfi_def_cfa_offset 80
 506 0004 0446     		mov	r4, r0
 905:Drivers/BSP/IKS02A1/iks02a1_motion_sensors.c ****   IIS2MDC_IO_t            io_ctx;
 507              		.loc 1 905 3 is_stmt 1 view .LVU150
 906:Drivers/BSP/IKS02A1/iks02a1_motion_sensors.c ****   uint8_t                 id;
 508              		.loc 1 906 3 view .LVU151
 907:Drivers/BSP/IKS02A1/iks02a1_motion_sensors.c ****   static IIS2MDC_Object_t iis2mdc_obj_0;
 509              		.loc 1 907 3 view .LVU152
 908:Drivers/BSP/IKS02A1/iks02a1_motion_sensors.c ****   IIS2MDC_Capabilities_t  cap;
 510              		.loc 1 908 3 view .LVU153
 909:Drivers/BSP/IKS02A1/iks02a1_motion_sensors.c ****   int32_t ret = BSP_ERROR_NONE;
 511              		.loc 1 909 3 view .LVU154
 512              	.LVL30:
 910:Drivers/BSP/IKS02A1/iks02a1_motion_sensors.c **** 
 911:Drivers/BSP/IKS02A1/iks02a1_motion_sensors.c ****   /* Configure the accelero driver */
 912:Drivers/BSP/IKS02A1/iks02a1_motion_sensors.c ****   io_ctx.BusType     = IIS2MDC_I2C_BUS; /* I2C */
 513              		.loc 1 912 3 view .LVU155
 514              		.loc 1 912 22 is_stmt 0 view .LVU156
 515 0006 0023     		movs	r3, #0
 516 0008 0A93     		str	r3, [sp, #40]
 913:Drivers/BSP/IKS02A1/iks02a1_motion_sensors.c ****   io_ctx.Address     = IIS2MDC_I2C_ADD;
 517              		.loc 1 913 3 is_stmt 1 view .LVU157
 518              		.loc 1 913 22 is_stmt 0 view .LVU158
 519 000a 3D23     		movs	r3, #61
 520 000c 8DF82C30 		strb	r3, [sp, #44]
 914:Drivers/BSP/IKS02A1/iks02a1_motion_sensors.c ****   io_ctx.Init        = IKS02A1_I2C_INIT;
 521              		.loc 1 914 3 is_stmt 1 view .LVU159
 522              		.loc 1 914 22 is_stmt 0 view .LVU160
 523 0010 2F4B     		ldr	r3, .L46
 524 0012 0893     		str	r3, [sp, #32]
 915:Drivers/BSP/IKS02A1/iks02a1_motion_sensors.c ****   io_ctx.DeInit      = IKS02A1_I2C_DEINIT;
 525              		.loc 1 915 3 is_stmt 1 view .LVU161
 526              		.loc 1 915 22 is_stmt 0 view .LVU162
 527 0014 2F4B     		ldr	r3, .L46+4
 528 0016 0993     		str	r3, [sp, #36]
 916:Drivers/BSP/IKS02A1/iks02a1_motion_sensors.c ****   io_ctx.ReadReg     = IKS02A1_I2C_READ_REG;
 529              		.loc 1 916 3 is_stmt 1 view .LVU163
 530              		.loc 1 916 22 is_stmt 0 view .LVU164
 531 0018 2F4B     		ldr	r3, .L46+8
 532 001a 0D93     		str	r3, [sp, #52]
 917:Drivers/BSP/IKS02A1/iks02a1_motion_sensors.c ****   io_ctx.WriteReg    = IKS02A1_I2C_WRITE_REG;
 533              		.loc 1 917 3 is_stmt 1 view .LVU165
 534              		.loc 1 917 22 is_stmt 0 view .LVU166
ARM GAS  C:\Temp\ccYwOtvn.s 			page 27


 535 001c 2F4B     		ldr	r3, .L46+12
 536 001e 0C93     		str	r3, [sp, #48]
 918:Drivers/BSP/IKS02A1/iks02a1_motion_sensors.c ****   io_ctx.GetTick     = IKS02A1_GET_TICK;
 537              		.loc 1 918 3 is_stmt 1 view .LVU167
 538              		.loc 1 918 22 is_stmt 0 view .LVU168
 539 0020 2F4B     		ldr	r3, .L46+16
 540 0022 0E93     		str	r3, [sp, #56]
 919:Drivers/BSP/IKS02A1/iks02a1_motion_sensors.c ****   io_ctx.Delay       = IKS02A1_DELAY;
 541              		.loc 1 919 3 is_stmt 1 view .LVU169
 542              		.loc 1 919 22 is_stmt 0 view .LVU170
 543 0024 2F4B     		ldr	r3, .L46+20
 544 0026 0F93     		str	r3, [sp, #60]
 920:Drivers/BSP/IKS02A1/iks02a1_motion_sensors.c **** 
 921:Drivers/BSP/IKS02A1/iks02a1_motion_sensors.c ****   if (IIS2MDC_RegisterBusIO(&iis2mdc_obj_0, &io_ctx) != IIS2MDC_OK)
 545              		.loc 1 921 3 is_stmt 1 view .LVU171
 546              		.loc 1 921 7 is_stmt 0 view .LVU172
 547 0028 08A9     		add	r1, sp, #32
 548 002a 2F48     		ldr	r0, .L46+24
 549              	.LVL31:
 550              		.loc 1 921 7 view .LVU173
 551 002c FFF7FEFF 		bl	IIS2MDC_RegisterBusIO
 552              	.LVL32:
 553              		.loc 1 921 6 view .LVU174
 554 0030 0028     		cmp	r0, #0
 555 0032 41D1     		bne	.L38
 922:Drivers/BSP/IKS02A1/iks02a1_motion_sensors.c ****   {
 923:Drivers/BSP/IKS02A1/iks02a1_motion_sensors.c ****     ret = BSP_ERROR_UNKNOWN_COMPONENT;
 924:Drivers/BSP/IKS02A1/iks02a1_motion_sensors.c ****   }
 925:Drivers/BSP/IKS02A1/iks02a1_motion_sensors.c ****   else if (IIS2MDC_ReadID(&iis2mdc_obj_0, &id) != IIS2MDC_OK)
 556              		.loc 1 925 8 is_stmt 1 view .LVU175
 557              		.loc 1 925 12 is_stmt 0 view .LVU176
 558 0034 0DF11F01 		add	r1, sp, #31
 559 0038 2B48     		ldr	r0, .L46+24
 560 003a FFF7FEFF 		bl	IIS2MDC_ReadID
 561              	.LVL33:
 562              		.loc 1 925 11 view .LVU177
 563 003e 0546     		mov	r5, r0
 564 0040 0028     		cmp	r0, #0
 565 0042 3CD1     		bne	.L39
 926:Drivers/BSP/IKS02A1/iks02a1_motion_sensors.c ****   {
 927:Drivers/BSP/IKS02A1/iks02a1_motion_sensors.c ****     ret = BSP_ERROR_UNKNOWN_COMPONENT;
 928:Drivers/BSP/IKS02A1/iks02a1_motion_sensors.c ****   }
 929:Drivers/BSP/IKS02A1/iks02a1_motion_sensors.c ****   else if (id != IIS2MDC_ID)
 566              		.loc 1 929 8 is_stmt 1 view .LVU178
 567              		.loc 1 929 15 is_stmt 0 view .LVU179
 568 0044 9DF81F30 		ldrb	r3, [sp, #31]	@ zero_extendqisi2
 569              		.loc 1 929 11 view .LVU180
 570 0048 402B     		cmp	r3, #64
 571 004a 3BD1     		bne	.L40
 930:Drivers/BSP/IKS02A1/iks02a1_motion_sensors.c ****   {
 931:Drivers/BSP/IKS02A1/iks02a1_motion_sensors.c ****     ret = BSP_ERROR_UNKNOWN_COMPONENT;
 932:Drivers/BSP/IKS02A1/iks02a1_motion_sensors.c ****   }
 933:Drivers/BSP/IKS02A1/iks02a1_motion_sensors.c ****   else
 934:Drivers/BSP/IKS02A1/iks02a1_motion_sensors.c ****   {
 935:Drivers/BSP/IKS02A1/iks02a1_motion_sensors.c ****     (void)IIS2MDC_GetCapabilities(&iis2mdc_obj_0, &cap);
 572              		.loc 1 935 5 is_stmt 1 view .LVU181
 573              		.loc 1 935 11 is_stmt 0 view .LVU182
ARM GAS  C:\Temp\ccYwOtvn.s 			page 28


 574 004c 264E     		ldr	r6, .L46+24
 575 004e 6946     		mov	r1, sp
 576 0050 3046     		mov	r0, r6
 577 0052 FFF7FEFF 		bl	IIS2MDC_GetCapabilities
 578              	.LVL34:
 936:Drivers/BSP/IKS02A1/iks02a1_motion_sensors.c ****     MotionCtx[IKS02A1_IIS2MDC_0].Functions = ((uint32_t)cap.Gyro) | ((uint32_t)cap.Acc << 1) | ((ui
 579              		.loc 1 936 5 is_stmt 1 view .LVU183
 580              		.loc 1 936 60 is_stmt 0 view .LVU184
 581 0056 9DF80120 		ldrb	r2, [sp, #1]	@ zero_extendqisi2
 582              		.loc 1 936 83 view .LVU185
 583 005a 9DF80010 		ldrb	r1, [sp]	@ zero_extendqisi2
 584              		.loc 1 936 67 view .LVU186
 585 005e 42EA4103 		orr	r3, r2, r1, lsl #1
 586              		.loc 1 936 110 view .LVU187
 587 0062 9DF80200 		ldrb	r0, [sp, #2]	@ zero_extendqisi2
 588              		.loc 1 936 94 view .LVU188
 589 0066 43EA8003 		orr	r3, r3, r0, lsl #2
 590              		.loc 1 936 44 view .LVU189
 591 006a 2048     		ldr	r0, .L46+28
 592 006c 8360     		str	r3, [r0, #8]
 937:Drivers/BSP/IKS02A1/iks02a1_motion_sensors.c **** 
 938:Drivers/BSP/IKS02A1/iks02a1_motion_sensors.c ****     MotionCompObj[IKS02A1_IIS2MDC_0] = &iis2mdc_obj_0;
 593              		.loc 1 938 5 is_stmt 1 view .LVU190
 594              		.loc 1 938 38 is_stmt 0 view .LVU191
 595 006e 204B     		ldr	r3, .L46+32
 596 0070 9E60     		str	r6, [r3, #8]
 939:Drivers/BSP/IKS02A1/iks02a1_motion_sensors.c ****     /* The second cast (void *) is added to bypass Misra R11.3 rule */
 940:Drivers/BSP/IKS02A1/iks02a1_motion_sensors.c ****     MotionDrv[IKS02A1_IIS2MDC_0] = (MOTION_SENSOR_CommonDrv_t *)(void *)&IIS2MDC_COMMON_Driver;
 597              		.loc 1 940 5 is_stmt 1 view .LVU192
 598              		.loc 1 940 34 is_stmt 0 view .LVU193
 599 0072 204B     		ldr	r3, .L46+36
 600 0074 2048     		ldr	r0, .L46+40
 601 0076 9860     		str	r0, [r3, #8]
 941:Drivers/BSP/IKS02A1/iks02a1_motion_sensors.c **** 
 942:Drivers/BSP/IKS02A1/iks02a1_motion_sensors.c ****     if ((ret == BSP_ERROR_NONE) && ((Functions & MOTION_GYRO) == MOTION_GYRO) && (cap.Gyro == 1U))
 602              		.loc 1 942 5 is_stmt 1 view .LVU194
 603              		.loc 1 942 33 is_stmt 0 view .LVU195
 604 0078 14F0010F 		tst	r4, #1
 605 007c 01D0     		beq	.L36
 606              		.loc 1 942 79 discriminator 2 view .LVU196
 607 007e 012A     		cmp	r2, #1
 608 0080 14D0     		beq	.L41
 609              	.L36:
 610              	.LVL35:
 943:Drivers/BSP/IKS02A1/iks02a1_motion_sensors.c ****     {
 944:Drivers/BSP/IKS02A1/iks02a1_motion_sensors.c ****       /* Return an error if the application try to initialize a function not supported by the compo
 945:Drivers/BSP/IKS02A1/iks02a1_motion_sensors.c ****       ret = BSP_ERROR_COMPONENT_FAILURE;
 946:Drivers/BSP/IKS02A1/iks02a1_motion_sensors.c ****     }
 947:Drivers/BSP/IKS02A1/iks02a1_motion_sensors.c ****     if ((ret == BSP_ERROR_NONE) && ((Functions & MOTION_ACCELERO) == MOTION_ACCELERO) && (cap.Acc =
 611              		.loc 1 947 33 discriminator 1 view .LVU197
 612 0082 14F0020F 		tst	r4, #2
 613 0086 01D0     		beq	.L37
 614              		.loc 1 947 87 discriminator 2 view .LVU198
 615 0088 0129     		cmp	r1, #1
 616 008a 1ED0     		beq	.L44
 617              	.L37:
 618              	.LVL36:
ARM GAS  C:\Temp\ccYwOtvn.s 			page 29


 948:Drivers/BSP/IKS02A1/iks02a1_motion_sensors.c ****     {
 949:Drivers/BSP/IKS02A1/iks02a1_motion_sensors.c ****       /* Return an error if the application try to initialize a function not supported by the compo
 950:Drivers/BSP/IKS02A1/iks02a1_motion_sensors.c ****       ret = BSP_ERROR_COMPONENT_FAILURE;
 951:Drivers/BSP/IKS02A1/iks02a1_motion_sensors.c ****     }
 952:Drivers/BSP/IKS02A1/iks02a1_motion_sensors.c ****     if ((ret == BSP_ERROR_NONE) && ((Functions & MOTION_MAGNETO) == MOTION_MAGNETO))
 619              		.loc 1 952 5 is_stmt 1 view .LVU199
 620              		.loc 1 952 8 is_stmt 0 view .LVU200
 621 008c 5DB9     		cbnz	r5, .L34
 622              		.loc 1 952 33 discriminator 1 view .LVU201
 623 008e 14F0040F 		tst	r4, #4
 624 0092 08D0     		beq	.L34
 953:Drivers/BSP/IKS02A1/iks02a1_motion_sensors.c ****     {
 954:Drivers/BSP/IKS02A1/iks02a1_motion_sensors.c ****       /* The second cast (void *) is added to bypass Misra R11.3 rule */
 955:Drivers/BSP/IKS02A1/iks02a1_motion_sensors.c ****       MotionFuncDrv[IKS02A1_IIS2MDC_0][FunctionIndex[MOTION_MAGNETO]] = (MOTION_SENSOR_FuncDrv_t *)
 625              		.loc 1 955 7 is_stmt 1 view .LVU202
 626              		.loc 1 955 71 is_stmt 0 view .LVU203
 627 0094 194B     		ldr	r3, .L46+44
 628 0096 1A4A     		ldr	r2, .L46+48
 629 0098 1A62     		str	r2, [r3, #32]
 956:Drivers/BSP/IKS02A1/iks02a1_motion_sensors.c ****                                                                           void *)&IIS2MDC_MAG_Drive
 957:Drivers/BSP/IKS02A1/iks02a1_motion_sensors.c **** 
 958:Drivers/BSP/IKS02A1/iks02a1_motion_sensors.c ****       if (MotionDrv[IKS02A1_IIS2MDC_0]->Init(MotionCompObj[IKS02A1_IIS2MDC_0]) != IIS2MDC_OK)
 630              		.loc 1 958 7 is_stmt 1 view .LVU204
 631              		.loc 1 958 39 is_stmt 0 view .LVU205
 632 009a 174B     		ldr	r3, .L46+40
 633 009c 1B68     		ldr	r3, [r3]
 634              		.loc 1 958 11 view .LVU206
 635 009e 1248     		ldr	r0, .L46+24
 636 00a0 9847     		blx	r3
 637              	.LVL37:
 638              		.loc 1 958 10 view .LVU207
 639 00a2 0546     		mov	r5, r0
 640              	.LVL38:
 641              		.loc 1 958 10 view .LVU208
 642 00a4 28B9     		cbnz	r0, .L45
 643              	.LVL39:
 644              	.L34:
 959:Drivers/BSP/IKS02A1/iks02a1_motion_sensors.c ****       {
 960:Drivers/BSP/IKS02A1/iks02a1_motion_sensors.c ****         ret = BSP_ERROR_COMPONENT_FAILURE;
 961:Drivers/BSP/IKS02A1/iks02a1_motion_sensors.c ****       }
 962:Drivers/BSP/IKS02A1/iks02a1_motion_sensors.c ****       else
 963:Drivers/BSP/IKS02A1/iks02a1_motion_sensors.c ****       {
 964:Drivers/BSP/IKS02A1/iks02a1_motion_sensors.c ****         ret = BSP_ERROR_NONE;
 965:Drivers/BSP/IKS02A1/iks02a1_motion_sensors.c ****       }
 966:Drivers/BSP/IKS02A1/iks02a1_motion_sensors.c ****     }
 967:Drivers/BSP/IKS02A1/iks02a1_motion_sensors.c ****   }
 968:Drivers/BSP/IKS02A1/iks02a1_motion_sensors.c ****   return ret;
 969:Drivers/BSP/IKS02A1/iks02a1_motion_sensors.c **** }
 645              		.loc 1 969 1 view .LVU209
 646 00a6 2846     		mov	r0, r5
 647 00a8 10B0     		add	sp, sp, #64
 648              		.cfi_remember_state
 649              		.cfi_def_cfa_offset 16
 650              		@ sp needed
 651 00aa 70BD     		pop	{r4, r5, r6, pc}
 652              	.LVL40:
 653              	.L41:
ARM GAS  C:\Temp\ccYwOtvn.s 			page 30


 654              		.cfi_restore_state
 945:Drivers/BSP/IKS02A1/iks02a1_motion_sensors.c ****     }
 655              		.loc 1 945 11 view .LVU210
 656 00ac 6FF00405 		mvn	r5, #4
 657 00b0 ECE7     		b	.L37
 658              	.LVL41:
 659              	.L45:
 960:Drivers/BSP/IKS02A1/iks02a1_motion_sensors.c ****       }
 660              		.loc 1 960 13 view .LVU211
 661 00b2 6FF00405 		mvn	r5, #4
 662 00b6 F6E7     		b	.L34
 663              	.LVL42:
 664              	.L38:
 923:Drivers/BSP/IKS02A1/iks02a1_motion_sensors.c ****   }
 665              		.loc 1 923 9 view .LVU212
 666 00b8 6FF00605 		mvn	r5, #6
 667 00bc F3E7     		b	.L34
 668              	.L39:
 927:Drivers/BSP/IKS02A1/iks02a1_motion_sensors.c ****   }
 669              		.loc 1 927 9 view .LVU213
 670 00be 6FF00605 		mvn	r5, #6
 671 00c2 F0E7     		b	.L34
 672              	.L40:
 931:Drivers/BSP/IKS02A1/iks02a1_motion_sensors.c ****   }
 673              		.loc 1 931 9 view .LVU214
 674 00c4 6FF00605 		mvn	r5, #6
 675 00c8 EDE7     		b	.L34
 676              	.LVL43:
 677              	.L44:
 950:Drivers/BSP/IKS02A1/iks02a1_motion_sensors.c ****     }
 678              		.loc 1 950 11 view .LVU215
 679 00ca 6FF00405 		mvn	r5, #4
 680              	.LVL44:
 968:Drivers/BSP/IKS02A1/iks02a1_motion_sensors.c **** }
 681              		.loc 1 968 3 is_stmt 1 view .LVU216
 968:Drivers/BSP/IKS02A1/iks02a1_motion_sensors.c **** }
 682              		.loc 1 968 10 is_stmt 0 view .LVU217
 683 00ce EAE7     		b	.L34
 684              	.L47:
 685              		.align	2
 686              	.L46:
 687 00d0 00000000 		.word	BSP_I2C1_Init
 688 00d4 00000000 		.word	BSP_I2C1_DeInit
 689 00d8 00000000 		.word	BSP_I2C1_ReadReg
 690 00dc 00000000 		.word	BSP_I2C1_WriteReg
 691 00e0 00000000 		.word	BSP_GetTick
 692 00e4 00000000 		.word	HAL_Delay
 693 00e8 00000000 		.word	iis2mdc_obj_0.0
 694 00ec 00000000 		.word	MotionCtx
 695 00f0 00000000 		.word	MotionCompObj
 696 00f4 00000000 		.word	MotionDrv
 697 00f8 00000000 		.word	IIS2MDC_COMMON_Driver
 698 00fc 00000000 		.word	MotionFuncDrv
 699 0100 00000000 		.word	IIS2MDC_MAG_Driver
 700              		.cfi_endproc
 701              	.LFE149:
 703              		.section	.text.IKS02A1_MOTION_SENSOR_Init,"ax",%progbits
ARM GAS  C:\Temp\ccYwOtvn.s 			page 31


 704              		.align	1
 705              		.global	IKS02A1_MOTION_SENSOR_Init
 706              		.syntax unified
 707              		.thumb
 708              		.thumb_func
 710              	IKS02A1_MOTION_SENSOR_Init:
 711              	.LVL45:
 712              	.LFB134:
 107:Drivers/BSP/IKS02A1/iks02a1_motion_sensors.c ****   int32_t ret = BSP_ERROR_NONE;
 713              		.loc 1 107 1 is_stmt 1 view -0
 714              		.cfi_startproc
 715              		@ args = 0, pretend = 0, frame = 32
 716              		@ frame_needed = 0, uses_anonymous_args = 0
 107:Drivers/BSP/IKS02A1/iks02a1_motion_sensors.c ****   int32_t ret = BSP_ERROR_NONE;
 717              		.loc 1 107 1 is_stmt 0 view .LVU219
 718 0000 2DE9F041 		push	{r4, r5, r6, r7, r8, lr}
 719              		.cfi_def_cfa_offset 24
 720              		.cfi_offset 4, -24
 721              		.cfi_offset 5, -20
 722              		.cfi_offset 6, -16
 723              		.cfi_offset 7, -12
 724              		.cfi_offset 8, -8
 725              		.cfi_offset 14, -4
 726 0004 88B0     		sub	sp, sp, #32
 727              		.cfi_def_cfa_offset 56
 728 0006 0446     		mov	r4, r0
 729 0008 0F46     		mov	r7, r1
 108:Drivers/BSP/IKS02A1/iks02a1_motion_sensors.c ****   uint32_t function = MOTION_GYRO;
 730              		.loc 1 108 3 is_stmt 1 view .LVU220
 731              	.LVL46:
 109:Drivers/BSP/IKS02A1/iks02a1_motion_sensors.c ****   uint32_t i;
 732              		.loc 1 109 3 view .LVU221
 110:Drivers/BSP/IKS02A1/iks02a1_motion_sensors.c ****   uint32_t component_functions = 0;
 733              		.loc 1 110 3 view .LVU222
 111:Drivers/BSP/IKS02A1/iks02a1_motion_sensors.c ****   IKS02A1_MOTION_SENSOR_Capabilities_t cap;
 734              		.loc 1 111 3 view .LVU223
 112:Drivers/BSP/IKS02A1/iks02a1_motion_sensors.c **** 
 735              		.loc 1 112 3 view .LVU224
 114:Drivers/BSP/IKS02A1/iks02a1_motion_sensors.c ****   {
 736              		.loc 1 114 3 view .LVU225
 737 000a 0128     		cmp	r0, #1
 738 000c 30D0     		beq	.L49
 739 000e 0228     		cmp	r0, #2
 740 0010 55D0     		beq	.L50
 741 0012 10B1     		cbz	r0, .L74
 742 0014 6FF00100 		mvn	r0, #1
 743              	.LVL47:
 114:Drivers/BSP/IKS02A1/iks02a1_motion_sensors.c ****   {
 744              		.loc 1 114 3 is_stmt 0 view .LVU226
 745 0018 95E0     		b	.L48
 746              	.LVL48:
 747              	.L74:
 118:Drivers/BSP/IKS02A1/iks02a1_motion_sensors.c ****       {
 748              		.loc 1 118 7 is_stmt 1 view .LVU227
 118:Drivers/BSP/IKS02A1/iks02a1_motion_sensors.c ****       {
 749              		.loc 1 118 11 is_stmt 0 view .LVU228
 750 001a 0846     		mov	r0, r1
ARM GAS  C:\Temp\ccYwOtvn.s 			page 32


 751              	.LVL49:
 118:Drivers/BSP/IKS02A1/iks02a1_motion_sensors.c ****       {
 752              		.loc 1 118 11 view .LVU229
 753 001c FFF7FEFF 		bl	ISM330DHCX_0_Probe
 754              	.LVL50:
 118:Drivers/BSP/IKS02A1/iks02a1_motion_sensors.c ****       {
 755              		.loc 1 118 10 view .LVU230
 756 0020 0028     		cmp	r0, #0
 757 0022 40F09380 		bne	.L63
 122:Drivers/BSP/IKS02A1/iks02a1_motion_sensors.c ****       {
 758              		.loc 1 122 7 is_stmt 1 view .LVU231
 122:Drivers/BSP/IKS02A1/iks02a1_motion_sensors.c ****       {
 759              		.loc 1 122 20 is_stmt 0 view .LVU232
 760 0026 524B     		ldr	r3, .L80
 761 0028 53F82430 		ldr	r3, [r3, r4, lsl #2]
 122:Drivers/BSP/IKS02A1/iks02a1_motion_sensors.c ****       {
 762              		.loc 1 122 30 view .LVU233
 763 002c DB68     		ldr	r3, [r3, #12]
 122:Drivers/BSP/IKS02A1/iks02a1_motion_sensors.c ****       {
 764              		.loc 1 122 11 view .LVU234
 765 002e 01A9     		add	r1, sp, #4
 766 0030 504A     		ldr	r2, .L80+4
 767 0032 52F82400 		ldr	r0, [r2, r4, lsl #2]
 768 0036 9847     		blx	r3
 769              	.LVL51:
 122:Drivers/BSP/IKS02A1/iks02a1_motion_sensors.c ****       {
 770              		.loc 1 122 10 view .LVU235
 771 0038 0028     		cmp	r0, #0
 772 003a 40F08A80 		bne	.L64
 126:Drivers/BSP/IKS02A1/iks02a1_motion_sensors.c ****       {
 773              		.loc 1 126 7 is_stmt 1 view .LVU236
 126:Drivers/BSP/IKS02A1/iks02a1_motion_sensors.c ****       {
 774              		.loc 1 126 14 is_stmt 0 view .LVU237
 775 003e 9DF80430 		ldrb	r3, [sp, #4]	@ zero_extendqisi2
 126:Drivers/BSP/IKS02A1/iks02a1_motion_sensors.c ****       {
 776              		.loc 1 126 10 view .LVU238
 777 0042 012B     		cmp	r3, #1
 778 0044 0BD0     		beq	.L65
 111:Drivers/BSP/IKS02A1/iks02a1_motion_sensors.c ****   IKS02A1_MOTION_SENSOR_Capabilities_t cap;
 779              		.loc 1 111 12 view .LVU239
 780 0046 A046     		mov	r8, r4
 781              	.L52:
 782              	.LVL52:
 130:Drivers/BSP/IKS02A1/iks02a1_motion_sensors.c ****       {
 783              		.loc 1 130 7 is_stmt 1 view .LVU240
 130:Drivers/BSP/IKS02A1/iks02a1_motion_sensors.c ****       {
 784              		.loc 1 130 14 is_stmt 0 view .LVU241
 785 0048 9DF80530 		ldrb	r3, [sp, #5]	@ zero_extendqisi2
 130:Drivers/BSP/IKS02A1/iks02a1_motion_sensors.c ****       {
 786              		.loc 1 130 10 view .LVU242
 787 004c 012B     		cmp	r3, #1
 788 004e 09D0     		beq	.L75
 789              	.L53:
 134:Drivers/BSP/IKS02A1/iks02a1_motion_sensors.c ****       {
 790              		.loc 1 134 7 is_stmt 1 view .LVU243
 134:Drivers/BSP/IKS02A1/iks02a1_motion_sensors.c ****       {
 791              		.loc 1 134 14 is_stmt 0 view .LVU244
ARM GAS  C:\Temp\ccYwOtvn.s 			page 33


 792 0050 9DF80630 		ldrb	r3, [sp, #6]	@ zero_extendqisi2
 134:Drivers/BSP/IKS02A1/iks02a1_motion_sensors.c ****       {
 793              		.loc 1 134 10 view .LVU245
 794 0054 012B     		cmp	r3, #1
 795 0056 08D0     		beq	.L76
 796              	.L54:
 271:Drivers/BSP/IKS02A1/iks02a1_motion_sensors.c ****   {
 797              		.loc 1 271 3 is_stmt 1 view .LVU246
 276:Drivers/BSP/IKS02A1/iks02a1_motion_sensors.c ****   {
 798              		.loc 1 276 10 is_stmt 0 view .LVU247
 799 0058 0026     		movs	r6, #0
 109:Drivers/BSP/IKS02A1/iks02a1_motion_sensors.c ****   uint32_t i;
 800              		.loc 1 109 12 view .LVU248
 801 005a 0125     		movs	r5, #1
 802 005c 57E0     		b	.L59
 803              	.LVL53:
 804              	.L65:
 128:Drivers/BSP/IKS02A1/iks02a1_motion_sensors.c ****       }
 805              		.loc 1 128 29 view .LVU249
 806 005e 4FF00208 		mov	r8, #2
 807 0062 F1E7     		b	.L52
 808              	.LVL54:
 809              	.L75:
 132:Drivers/BSP/IKS02A1/iks02a1_motion_sensors.c ****       }
 810              		.loc 1 132 9 is_stmt 1 view .LVU250
 132:Drivers/BSP/IKS02A1/iks02a1_motion_sensors.c ****       }
 811              		.loc 1 132 29 is_stmt 0 view .LVU251
 812 0064 48F00108 		orr	r8, r8, #1
 813              	.LVL55:
 132:Drivers/BSP/IKS02A1/iks02a1_motion_sensors.c ****       }
 814              		.loc 1 132 29 view .LVU252
 815 0068 F2E7     		b	.L53
 816              	.L76:
 136:Drivers/BSP/IKS02A1/iks02a1_motion_sensors.c ****       }
 817              		.loc 1 136 9 is_stmt 1 view .LVU253
 136:Drivers/BSP/IKS02A1/iks02a1_motion_sensors.c ****       }
 818              		.loc 1 136 29 is_stmt 0 view .LVU254
 819 006a 48F00408 		orr	r8, r8, #4
 820              	.LVL56:
 136:Drivers/BSP/IKS02A1/iks02a1_motion_sensors.c ****       }
 821              		.loc 1 136 29 view .LVU255
 822 006e F3E7     		b	.L54
 823              	.LVL57:
 824              	.L49:
 143:Drivers/BSP/IKS02A1/iks02a1_motion_sensors.c ****       {
 825              		.loc 1 143 7 is_stmt 1 view .LVU256
 143:Drivers/BSP/IKS02A1/iks02a1_motion_sensors.c ****       {
 826              		.loc 1 143 11 is_stmt 0 view .LVU257
 827 0070 0846     		mov	r0, r1
 828              	.LVL58:
 143:Drivers/BSP/IKS02A1/iks02a1_motion_sensors.c ****       {
 829              		.loc 1 143 11 view .LVU258
 830 0072 FFF7FEFF 		bl	IIS2DLPC_0_Probe
 831              	.LVL59:
 143:Drivers/BSP/IKS02A1/iks02a1_motion_sensors.c ****       {
 832              		.loc 1 143 10 view .LVU259
 833 0076 0028     		cmp	r0, #0
ARM GAS  C:\Temp\ccYwOtvn.s 			page 34


 834 0078 6ED1     		bne	.L66
 147:Drivers/BSP/IKS02A1/iks02a1_motion_sensors.c ****       {
 835              		.loc 1 147 7 is_stmt 1 view .LVU260
 147:Drivers/BSP/IKS02A1/iks02a1_motion_sensors.c ****       {
 836              		.loc 1 147 20 is_stmt 0 view .LVU261
 837 007a 3D4B     		ldr	r3, .L80
 838 007c 53F82430 		ldr	r3, [r3, r4, lsl #2]
 147:Drivers/BSP/IKS02A1/iks02a1_motion_sensors.c ****       {
 839              		.loc 1 147 30 view .LVU262
 840 0080 DB68     		ldr	r3, [r3, #12]
 147:Drivers/BSP/IKS02A1/iks02a1_motion_sensors.c ****       {
 841              		.loc 1 147 11 view .LVU263
 842 0082 01A9     		add	r1, sp, #4
 843 0084 3B4A     		ldr	r2, .L80+4
 844 0086 52F82400 		ldr	r0, [r2, r4, lsl #2]
 845 008a 9847     		blx	r3
 846              	.LVL60:
 147:Drivers/BSP/IKS02A1/iks02a1_motion_sensors.c ****       {
 847              		.loc 1 147 10 view .LVU264
 848 008c 0028     		cmp	r0, #0
 849 008e 66D1     		bne	.L67
 151:Drivers/BSP/IKS02A1/iks02a1_motion_sensors.c ****       {
 850              		.loc 1 151 7 is_stmt 1 view .LVU265
 151:Drivers/BSP/IKS02A1/iks02a1_motion_sensors.c ****       {
 851              		.loc 1 151 14 is_stmt 0 view .LVU266
 852 0090 9DF80430 		ldrb	r3, [sp, #4]	@ zero_extendqisi2
 151:Drivers/BSP/IKS02A1/iks02a1_motion_sensors.c ****       {
 853              		.loc 1 151 10 view .LVU267
 854 0094 012B     		cmp	r3, #1
 855 0096 0CD0     		beq	.L68
 111:Drivers/BSP/IKS02A1/iks02a1_motion_sensors.c ****   IKS02A1_MOTION_SENSOR_Capabilities_t cap;
 856              		.loc 1 111 12 view .LVU268
 857 0098 4FF00008 		mov	r8, #0
 858              	.L55:
 859              	.LVL61:
 155:Drivers/BSP/IKS02A1/iks02a1_motion_sensors.c ****       {
 860              		.loc 1 155 7 is_stmt 1 view .LVU269
 155:Drivers/BSP/IKS02A1/iks02a1_motion_sensors.c ****       {
 861              		.loc 1 155 14 is_stmt 0 view .LVU270
 862 009c 9DF80530 		ldrb	r3, [sp, #5]	@ zero_extendqisi2
 155:Drivers/BSP/IKS02A1/iks02a1_motion_sensors.c ****       {
 863              		.loc 1 155 10 view .LVU271
 864 00a0 012B     		cmp	r3, #1
 865 00a2 09D0     		beq	.L77
 866              	.L56:
 159:Drivers/BSP/IKS02A1/iks02a1_motion_sensors.c ****       {
 867              		.loc 1 159 7 is_stmt 1 view .LVU272
 159:Drivers/BSP/IKS02A1/iks02a1_motion_sensors.c ****       {
 868              		.loc 1 159 14 is_stmt 0 view .LVU273
 869 00a4 9DF80630 		ldrb	r3, [sp, #6]	@ zero_extendqisi2
 159:Drivers/BSP/IKS02A1/iks02a1_motion_sensors.c ****       {
 870              		.loc 1 159 10 view .LVU274
 871 00a8 012B     		cmp	r3, #1
 872 00aa D5D1     		bne	.L54
 161:Drivers/BSP/IKS02A1/iks02a1_motion_sensors.c ****       }
 873              		.loc 1 161 9 is_stmt 1 view .LVU275
 161:Drivers/BSP/IKS02A1/iks02a1_motion_sensors.c ****       }
ARM GAS  C:\Temp\ccYwOtvn.s 			page 35


 874              		.loc 1 161 29 is_stmt 0 view .LVU276
 875 00ac 48F00408 		orr	r8, r8, #4
 876              	.LVL62:
 161:Drivers/BSP/IKS02A1/iks02a1_motion_sensors.c ****       }
 877              		.loc 1 161 29 view .LVU277
 878 00b0 D2E7     		b	.L54
 879              	.LVL63:
 880              	.L68:
 153:Drivers/BSP/IKS02A1/iks02a1_motion_sensors.c ****       }
 881              		.loc 1 153 29 view .LVU278
 882 00b2 4FF00208 		mov	r8, #2
 883 00b6 F1E7     		b	.L55
 884              	.LVL64:
 885              	.L77:
 157:Drivers/BSP/IKS02A1/iks02a1_motion_sensors.c ****       }
 886              		.loc 1 157 9 is_stmt 1 view .LVU279
 157:Drivers/BSP/IKS02A1/iks02a1_motion_sensors.c ****       }
 887              		.loc 1 157 29 is_stmt 0 view .LVU280
 888 00b8 48F00108 		orr	r8, r8, #1
 889              	.LVL65:
 157:Drivers/BSP/IKS02A1/iks02a1_motion_sensors.c ****       }
 890              		.loc 1 157 29 view .LVU281
 891 00bc F2E7     		b	.L56
 892              	.LVL66:
 893              	.L50:
 168:Drivers/BSP/IKS02A1/iks02a1_motion_sensors.c ****       {
 894              		.loc 1 168 7 is_stmt 1 view .LVU282
 168:Drivers/BSP/IKS02A1/iks02a1_motion_sensors.c ****       {
 895              		.loc 1 168 11 is_stmt 0 view .LVU283
 896 00be 0846     		mov	r0, r1
 897              	.LVL67:
 168:Drivers/BSP/IKS02A1/iks02a1_motion_sensors.c ****       {
 898              		.loc 1 168 11 view .LVU284
 899 00c0 FFF7FEFF 		bl	IIS2MDC_0_Probe
 900              	.LVL68:
 168:Drivers/BSP/IKS02A1/iks02a1_motion_sensors.c ****       {
 901              		.loc 1 168 10 view .LVU285
 902 00c4 0028     		cmp	r0, #0
 903 00c6 4DD1     		bne	.L69
 172:Drivers/BSP/IKS02A1/iks02a1_motion_sensors.c ****       {
 904              		.loc 1 172 7 is_stmt 1 view .LVU286
 172:Drivers/BSP/IKS02A1/iks02a1_motion_sensors.c ****       {
 905              		.loc 1 172 20 is_stmt 0 view .LVU287
 906 00c8 294B     		ldr	r3, .L80
 907 00ca 53F82430 		ldr	r3, [r3, r4, lsl #2]
 172:Drivers/BSP/IKS02A1/iks02a1_motion_sensors.c ****       {
 908              		.loc 1 172 30 view .LVU288
 909 00ce DB68     		ldr	r3, [r3, #12]
 172:Drivers/BSP/IKS02A1/iks02a1_motion_sensors.c ****       {
 910              		.loc 1 172 11 view .LVU289
 911 00d0 01A9     		add	r1, sp, #4
 912 00d2 284A     		ldr	r2, .L80+4
 913 00d4 52F82400 		ldr	r0, [r2, r4, lsl #2]
 914 00d8 9847     		blx	r3
 915              	.LVL69:
 172:Drivers/BSP/IKS02A1/iks02a1_motion_sensors.c ****       {
 916              		.loc 1 172 10 view .LVU290
ARM GAS  C:\Temp\ccYwOtvn.s 			page 36


 917 00da 0028     		cmp	r0, #0
 918 00dc 45D1     		bne	.L70
 176:Drivers/BSP/IKS02A1/iks02a1_motion_sensors.c ****       {
 919              		.loc 1 176 7 is_stmt 1 view .LVU291
 176:Drivers/BSP/IKS02A1/iks02a1_motion_sensors.c ****       {
 920              		.loc 1 176 14 is_stmt 0 view .LVU292
 921 00de 9DF80430 		ldrb	r3, [sp, #4]	@ zero_extendqisi2
 176:Drivers/BSP/IKS02A1/iks02a1_motion_sensors.c ****       {
 922              		.loc 1 176 10 view .LVU293
 923 00e2 012B     		cmp	r3, #1
 924 00e4 0CD0     		beq	.L71
 111:Drivers/BSP/IKS02A1/iks02a1_motion_sensors.c ****   IKS02A1_MOTION_SENSOR_Capabilities_t cap;
 925              		.loc 1 111 12 view .LVU294
 926 00e6 4FF00008 		mov	r8, #0
 927              	.L57:
 928              	.LVL70:
 180:Drivers/BSP/IKS02A1/iks02a1_motion_sensors.c ****       {
 929              		.loc 1 180 7 is_stmt 1 view .LVU295
 180:Drivers/BSP/IKS02A1/iks02a1_motion_sensors.c ****       {
 930              		.loc 1 180 14 is_stmt 0 view .LVU296
 931 00ea 9DF80530 		ldrb	r3, [sp, #5]	@ zero_extendqisi2
 180:Drivers/BSP/IKS02A1/iks02a1_motion_sensors.c ****       {
 932              		.loc 1 180 10 view .LVU297
 933 00ee 012B     		cmp	r3, #1
 934 00f0 08D0     		beq	.L78
 935              	.L58:
 184:Drivers/BSP/IKS02A1/iks02a1_motion_sensors.c ****       {
 936              		.loc 1 184 7 is_stmt 1 view .LVU298
 184:Drivers/BSP/IKS02A1/iks02a1_motion_sensors.c ****       {
 937              		.loc 1 184 14 is_stmt 0 view .LVU299
 938 00f2 9DF80630 		ldrb	r3, [sp, #6]	@ zero_extendqisi2
 184:Drivers/BSP/IKS02A1/iks02a1_motion_sensors.c ****       {
 939              		.loc 1 184 10 view .LVU300
 940 00f6 012B     		cmp	r3, #1
 941 00f8 AED1     		bne	.L54
 186:Drivers/BSP/IKS02A1/iks02a1_motion_sensors.c ****       }
 942              		.loc 1 186 9 is_stmt 1 view .LVU301
 186:Drivers/BSP/IKS02A1/iks02a1_motion_sensors.c ****       }
 943              		.loc 1 186 29 is_stmt 0 view .LVU302
 944 00fa 48F00408 		orr	r8, r8, #4
 945              	.LVL71:
 186:Drivers/BSP/IKS02A1/iks02a1_motion_sensors.c ****       }
 946              		.loc 1 186 29 view .LVU303
 947 00fe ABE7     		b	.L54
 948              	.LVL72:
 949              	.L71:
 178:Drivers/BSP/IKS02A1/iks02a1_motion_sensors.c ****       }
 950              		.loc 1 178 29 view .LVU304
 951 0100 A046     		mov	r8, r4
 952 0102 F2E7     		b	.L57
 953              	.LVL73:
 954              	.L78:
 182:Drivers/BSP/IKS02A1/iks02a1_motion_sensors.c ****       }
 955              		.loc 1 182 9 is_stmt 1 view .LVU305
 182:Drivers/BSP/IKS02A1/iks02a1_motion_sensors.c ****       }
 956              		.loc 1 182 29 is_stmt 0 view .LVU306
 957 0104 48F00108 		orr	r8, r8, #1
ARM GAS  C:\Temp\ccYwOtvn.s 			page 37


 958              	.LVL74:
 182:Drivers/BSP/IKS02A1/iks02a1_motion_sensors.c ****       }
 959              		.loc 1 182 29 view .LVU307
 960 0108 F3E7     		b	.L58
 961              	.LVL75:
 962              	.L60:
 285:Drivers/BSP/IKS02A1/iks02a1_motion_sensors.c ****   }
 963              		.loc 1 285 5 is_stmt 1 discriminator 2 view .LVU308
 285:Drivers/BSP/IKS02A1/iks02a1_motion_sensors.c ****   }
 964              		.loc 1 285 14 is_stmt 0 discriminator 2 view .LVU309
 965 010a 6D00     		lsls	r5, r5, #1
 966              	.LVL76:
 276:Drivers/BSP/IKS02A1/iks02a1_motion_sensors.c ****   {
 967              		.loc 1 276 50 is_stmt 1 discriminator 2 view .LVU310
 968 010c 0136     		adds	r6, r6, #1
 969              	.LVL77:
 970              	.L59:
 276:Drivers/BSP/IKS02A1/iks02a1_motion_sensors.c ****   {
 971              		.loc 1 276 17 discriminator 1 view .LVU311
 972 010e 022E     		cmp	r6, #2
 973 0110 18D8     		bhi	.L79
 278:Drivers/BSP/IKS02A1/iks02a1_motion_sensors.c ****     {
 974              		.loc 1 278 5 view .LVU312
 278:Drivers/BSP/IKS02A1/iks02a1_motion_sensors.c ****     {
 975              		.loc 1 278 8 is_stmt 0 view .LVU313
 976 0112 35EA0703 		bics	r3, r5, r7
 977 0116 F8D1     		bne	.L60
 278:Drivers/BSP/IKS02A1/iks02a1_motion_sensors.c ****     {
 978              		.loc 1 278 46 discriminator 1 view .LVU314
 979 0118 35EA0803 		bics	r3, r5, r8
 980 011c F5D1     		bne	.L60
 280:Drivers/BSP/IKS02A1/iks02a1_motion_sensors.c ****       {
 981              		.loc 1 280 7 is_stmt 1 view .LVU315
 280:Drivers/BSP/IKS02A1/iks02a1_motion_sensors.c ****       {
 982              		.loc 1 280 48 is_stmt 0 view .LVU316
 983 011e 164B     		ldr	r3, .L80+8
 984 0120 53F82520 		ldr	r2, [r3, r5, lsl #2]
 280:Drivers/BSP/IKS02A1/iks02a1_motion_sensors.c ****       {
 985              		.loc 1 280 34 view .LVU317
 986 0124 04EB4403 		add	r3, r4, r4, lsl #1
 987 0128 1344     		add	r3, r3, r2
 988 012a 144A     		ldr	r2, .L80+12
 989 012c 52F82330 		ldr	r3, [r2, r3, lsl #2]
 280:Drivers/BSP/IKS02A1/iks02a1_motion_sensors.c ****       {
 990              		.loc 1 280 59 view .LVU318
 991 0130 1B68     		ldr	r3, [r3]
 280:Drivers/BSP/IKS02A1/iks02a1_motion_sensors.c ****       {
 992              		.loc 1 280 11 view .LVU319
 993 0132 104A     		ldr	r2, .L80+4
 994 0134 52F82400 		ldr	r0, [r2, r4, lsl #2]
 995 0138 9847     		blx	r3
 996              	.LVL78:
 280:Drivers/BSP/IKS02A1/iks02a1_motion_sensors.c ****       {
 997              		.loc 1 280 10 view .LVU320
 998 013a 0028     		cmp	r0, #0
 999 013c E5D0     		beq	.L60
 282:Drivers/BSP/IKS02A1/iks02a1_motion_sensors.c ****       }
ARM GAS  C:\Temp\ccYwOtvn.s 			page 38


 1000              		.loc 1 282 16 view .LVU321
 1001 013e 6FF00400 		mvn	r0, #4
 1002              	.LVL79:
 282:Drivers/BSP/IKS02A1/iks02a1_motion_sensors.c ****       }
 1003              		.loc 1 282 16 view .LVU322
 1004 0142 00E0     		b	.L48
 1005              	.LVL80:
 1006              	.L79:
 282:Drivers/BSP/IKS02A1/iks02a1_motion_sensors.c ****       }
 1007              		.loc 1 282 16 view .LVU323
 1008 0144 0020     		movs	r0, #0
 1009              	.LVL81:
 1010              	.L48:
 289:Drivers/BSP/IKS02A1/iks02a1_motion_sensors.c **** 
 1011              		.loc 1 289 1 view .LVU324
 1012 0146 08B0     		add	sp, sp, #32
 1013              		.cfi_remember_state
 1014              		.cfi_def_cfa_offset 24
 1015              		@ sp needed
 1016 0148 BDE8F081 		pop	{r4, r5, r6, r7, r8, pc}
 1017              	.LVL82:
 1018              	.L63:
 1019              		.cfi_restore_state
 120:Drivers/BSP/IKS02A1/iks02a1_motion_sensors.c ****       }
 1020              		.loc 1 120 16 view .LVU325
 1021 014c 4FF0FF30 		mov	r0, #-1
 1022 0150 F9E7     		b	.L48
 1023              	.L64:
 124:Drivers/BSP/IKS02A1/iks02a1_motion_sensors.c ****       }
 1024              		.loc 1 124 16 view .LVU326
 1025 0152 6FF00600 		mvn	r0, #6
 1026 0156 F6E7     		b	.L48
 1027              	.L66:
 145:Drivers/BSP/IKS02A1/iks02a1_motion_sensors.c ****       }
 1028              		.loc 1 145 16 view .LVU327
 1029 0158 4FF0FF30 		mov	r0, #-1
 1030 015c F3E7     		b	.L48
 1031              	.L67:
 149:Drivers/BSP/IKS02A1/iks02a1_motion_sensors.c ****       }
 1032              		.loc 1 149 16 view .LVU328
 1033 015e 6FF00600 		mvn	r0, #6
 1034 0162 F0E7     		b	.L48
 1035              	.L69:
 170:Drivers/BSP/IKS02A1/iks02a1_motion_sensors.c ****       }
 1036              		.loc 1 170 16 view .LVU329
 1037 0164 4FF0FF30 		mov	r0, #-1
 1038 0168 EDE7     		b	.L48
 1039              	.L70:
 174:Drivers/BSP/IKS02A1/iks02a1_motion_sensors.c ****       }
 1040              		.loc 1 174 16 view .LVU330
 1041 016a 6FF00600 		mvn	r0, #6
 1042 016e EAE7     		b	.L48
 1043              	.L81:
 1044              		.align	2
 1045              	.L80:
 1046 0170 00000000 		.word	MotionDrv
 1047 0174 00000000 		.word	MotionCompObj
ARM GAS  C:\Temp\ccYwOtvn.s 			page 39


 1048 0178 00000000 		.word	FunctionIndex
 1049 017c 00000000 		.word	MotionFuncDrv
 1050              		.cfi_endproc
 1051              	.LFE134:
 1053              		.section	.text.IKS02A1_MOTION_SENSOR_DeInit,"ax",%progbits
 1054              		.align	1
 1055              		.global	IKS02A1_MOTION_SENSOR_DeInit
 1056              		.syntax unified
 1057              		.thumb
 1058              		.thumb_func
 1060              	IKS02A1_MOTION_SENSOR_DeInit:
 1061              	.LVL83:
 1062              	.LFB135:
 297:Drivers/BSP/IKS02A1/iks02a1_motion_sensors.c ****   int32_t ret;
 1063              		.loc 1 297 1 is_stmt 1 view -0
 1064              		.cfi_startproc
 1065              		@ args = 0, pretend = 0, frame = 0
 1066              		@ frame_needed = 0, uses_anonymous_args = 0
 298:Drivers/BSP/IKS02A1/iks02a1_motion_sensors.c **** 
 1067              		.loc 1 298 3 view .LVU332
 300:Drivers/BSP/IKS02A1/iks02a1_motion_sensors.c ****   {
 1068              		.loc 1 300 3 view .LVU333
 300:Drivers/BSP/IKS02A1/iks02a1_motion_sensors.c ****   {
 1069              		.loc 1 300 6 is_stmt 0 view .LVU334
 1070 0000 0228     		cmp	r0, #2
 1071 0002 0DD8     		bhi	.L84
 297:Drivers/BSP/IKS02A1/iks02a1_motion_sensors.c ****   int32_t ret;
 1072              		.loc 1 297 1 view .LVU335
 1073 0004 08B5     		push	{r3, lr}
 1074              		.cfi_def_cfa_offset 8
 1075              		.cfi_offset 3, -8
 1076              		.cfi_offset 14, -4
 304:Drivers/BSP/IKS02A1/iks02a1_motion_sensors.c ****   {
 1077              		.loc 1 304 8 is_stmt 1 view .LVU336
 304:Drivers/BSP/IKS02A1/iks02a1_motion_sensors.c ****   {
 1078              		.loc 1 304 21 is_stmt 0 view .LVU337
 1079 0006 084B     		ldr	r3, .L90
 1080 0008 53F82030 		ldr	r3, [r3, r0, lsl #2]
 304:Drivers/BSP/IKS02A1/iks02a1_motion_sensors.c ****   {
 1081              		.loc 1 304 31 view .LVU338
 1082 000c 5B68     		ldr	r3, [r3, #4]
 304:Drivers/BSP/IKS02A1/iks02a1_motion_sensors.c ****   {
 1083              		.loc 1 304 12 view .LVU339
 1084 000e 074A     		ldr	r2, .L90+4
 1085 0010 52F82000 		ldr	r0, [r2, r0, lsl #2]
 1086              	.LVL84:
 304:Drivers/BSP/IKS02A1/iks02a1_motion_sensors.c ****   {
 1087              		.loc 1 304 12 view .LVU340
 1088 0014 9847     		blx	r3
 1089              	.LVL85:
 304:Drivers/BSP/IKS02A1/iks02a1_motion_sensors.c ****   {
 1090              		.loc 1 304 11 view .LVU341
 1091 0016 00B9     		cbnz	r0, .L89
 1092              	.L82:
 314:Drivers/BSP/IKS02A1/iks02a1_motion_sensors.c **** 
 1093              		.loc 1 314 1 view .LVU342
 1094 0018 08BD     		pop	{r3, pc}
ARM GAS  C:\Temp\ccYwOtvn.s 			page 40


 1095              	.L89:
 306:Drivers/BSP/IKS02A1/iks02a1_motion_sensors.c ****   }
 1096              		.loc 1 306 9 view .LVU343
 1097 001a 6FF00400 		mvn	r0, #4
 1098 001e FBE7     		b	.L82
 1099              	.LVL86:
 1100              	.L84:
 1101              		.cfi_def_cfa_offset 0
 1102              		.cfi_restore 3
 1103              		.cfi_restore 14
 302:Drivers/BSP/IKS02A1/iks02a1_motion_sensors.c ****   }
 1104              		.loc 1 302 9 view .LVU344
 1105 0020 6FF00100 		mvn	r0, #1
 1106              	.LVL87:
 313:Drivers/BSP/IKS02A1/iks02a1_motion_sensors.c **** }
 1107              		.loc 1 313 3 is_stmt 1 view .LVU345
 314:Drivers/BSP/IKS02A1/iks02a1_motion_sensors.c **** 
 1108              		.loc 1 314 1 is_stmt 0 view .LVU346
 1109 0024 7047     		bx	lr
 1110              	.L91:
 1111 0026 00BF     		.align	2
 1112              	.L90:
 1113 0028 00000000 		.word	MotionDrv
 1114 002c 00000000 		.word	MotionCompObj
 1115              		.cfi_endproc
 1116              	.LFE135:
 1118              		.section	.text.IKS02A1_MOTION_SENSOR_GetCapabilities,"ax",%progbits
 1119              		.align	1
 1120              		.global	IKS02A1_MOTION_SENSOR_GetCapabilities
 1121              		.syntax unified
 1122              		.thumb
 1123              		.thumb_func
 1125              	IKS02A1_MOTION_SENSOR_GetCapabilities:
 1126              	.LVL88:
 1127              	.LFB136:
 323:Drivers/BSP/IKS02A1/iks02a1_motion_sensors.c ****   int32_t ret;
 1128              		.loc 1 323 1 is_stmt 1 view -0
 1129              		.cfi_startproc
 1130              		@ args = 0, pretend = 0, frame = 0
 1131              		@ frame_needed = 0, uses_anonymous_args = 0
 324:Drivers/BSP/IKS02A1/iks02a1_motion_sensors.c **** 
 1132              		.loc 1 324 3 view .LVU348
 326:Drivers/BSP/IKS02A1/iks02a1_motion_sensors.c ****   {
 1133              		.loc 1 326 3 view .LVU349
 326:Drivers/BSP/IKS02A1/iks02a1_motion_sensors.c ****   {
 1134              		.loc 1 326 6 is_stmt 0 view .LVU350
 1135 0000 0228     		cmp	r0, #2
 1136 0002 0DD8     		bhi	.L94
 323:Drivers/BSP/IKS02A1/iks02a1_motion_sensors.c ****   int32_t ret;
 1137              		.loc 1 323 1 view .LVU351
 1138 0004 08B5     		push	{r3, lr}
 1139              		.cfi_def_cfa_offset 8
 1140              		.cfi_offset 3, -8
 1141              		.cfi_offset 14, -4
 330:Drivers/BSP/IKS02A1/iks02a1_motion_sensors.c ****   {
 1142              		.loc 1 330 8 is_stmt 1 view .LVU352
 330:Drivers/BSP/IKS02A1/iks02a1_motion_sensors.c ****   {
ARM GAS  C:\Temp\ccYwOtvn.s 			page 41


 1143              		.loc 1 330 21 is_stmt 0 view .LVU353
 1144 0006 084B     		ldr	r3, .L100
 1145 0008 53F82030 		ldr	r3, [r3, r0, lsl #2]
 330:Drivers/BSP/IKS02A1/iks02a1_motion_sensors.c ****   {
 1146              		.loc 1 330 31 view .LVU354
 1147 000c DB68     		ldr	r3, [r3, #12]
 330:Drivers/BSP/IKS02A1/iks02a1_motion_sensors.c ****   {
 1148              		.loc 1 330 12 view .LVU355
 1149 000e 074A     		ldr	r2, .L100+4
 1150 0010 52F82000 		ldr	r0, [r2, r0, lsl #2]
 1151              	.LVL89:
 330:Drivers/BSP/IKS02A1/iks02a1_motion_sensors.c ****   {
 1152              		.loc 1 330 12 view .LVU356
 1153 0014 9847     		blx	r3
 1154              	.LVL90:
 330:Drivers/BSP/IKS02A1/iks02a1_motion_sensors.c ****   {
 1155              		.loc 1 330 11 view .LVU357
 1156 0016 00B9     		cbnz	r0, .L99
 1157              	.L92:
 340:Drivers/BSP/IKS02A1/iks02a1_motion_sensors.c **** 
 1158              		.loc 1 340 1 view .LVU358
 1159 0018 08BD     		pop	{r3, pc}
 1160              	.L99:
 332:Drivers/BSP/IKS02A1/iks02a1_motion_sensors.c ****   }
 1161              		.loc 1 332 9 view .LVU359
 1162 001a 6FF00600 		mvn	r0, #6
 1163 001e FBE7     		b	.L92
 1164              	.LVL91:
 1165              	.L94:
 1166              		.cfi_def_cfa_offset 0
 1167              		.cfi_restore 3
 1168              		.cfi_restore 14
 328:Drivers/BSP/IKS02A1/iks02a1_motion_sensors.c ****   }
 1169              		.loc 1 328 9 view .LVU360
 1170 0020 6FF00100 		mvn	r0, #1
 1171              	.LVL92:
 339:Drivers/BSP/IKS02A1/iks02a1_motion_sensors.c **** }
 1172              		.loc 1 339 3 is_stmt 1 view .LVU361
 340:Drivers/BSP/IKS02A1/iks02a1_motion_sensors.c **** 
 1173              		.loc 1 340 1 is_stmt 0 view .LVU362
 1174 0024 7047     		bx	lr
 1175              	.L101:
 1176 0026 00BF     		.align	2
 1177              	.L100:
 1178 0028 00000000 		.word	MotionDrv
 1179 002c 00000000 		.word	MotionCompObj
 1180              		.cfi_endproc
 1181              	.LFE136:
 1183              		.section	.text.IKS02A1_MOTION_SENSOR_ReadID,"ax",%progbits
 1184              		.align	1
 1185              		.global	IKS02A1_MOTION_SENSOR_ReadID
 1186              		.syntax unified
 1187              		.thumb
 1188              		.thumb_func
 1190              	IKS02A1_MOTION_SENSOR_ReadID:
 1191              	.LVL93:
 1192              	.LFB137:
ARM GAS  C:\Temp\ccYwOtvn.s 			page 42


 349:Drivers/BSP/IKS02A1/iks02a1_motion_sensors.c ****   int32_t ret;
 1193              		.loc 1 349 1 is_stmt 1 view -0
 1194              		.cfi_startproc
 1195              		@ args = 0, pretend = 0, frame = 0
 1196              		@ frame_needed = 0, uses_anonymous_args = 0
 350:Drivers/BSP/IKS02A1/iks02a1_motion_sensors.c **** 
 1197              		.loc 1 350 3 view .LVU364
 352:Drivers/BSP/IKS02A1/iks02a1_motion_sensors.c ****   {
 1198              		.loc 1 352 3 view .LVU365
 352:Drivers/BSP/IKS02A1/iks02a1_motion_sensors.c ****   {
 1199              		.loc 1 352 6 is_stmt 0 view .LVU366
 1200 0000 0228     		cmp	r0, #2
 1201 0002 0DD8     		bhi	.L104
 349:Drivers/BSP/IKS02A1/iks02a1_motion_sensors.c ****   int32_t ret;
 1202              		.loc 1 349 1 view .LVU367
 1203 0004 08B5     		push	{r3, lr}
 1204              		.cfi_def_cfa_offset 8
 1205              		.cfi_offset 3, -8
 1206              		.cfi_offset 14, -4
 356:Drivers/BSP/IKS02A1/iks02a1_motion_sensors.c ****   {
 1207              		.loc 1 356 8 is_stmt 1 view .LVU368
 356:Drivers/BSP/IKS02A1/iks02a1_motion_sensors.c ****   {
 1208              		.loc 1 356 21 is_stmt 0 view .LVU369
 1209 0006 084B     		ldr	r3, .L110
 1210 0008 53F82030 		ldr	r3, [r3, r0, lsl #2]
 356:Drivers/BSP/IKS02A1/iks02a1_motion_sensors.c ****   {
 1211              		.loc 1 356 31 view .LVU370
 1212 000c 9B68     		ldr	r3, [r3, #8]
 356:Drivers/BSP/IKS02A1/iks02a1_motion_sensors.c ****   {
 1213              		.loc 1 356 12 view .LVU371
 1214 000e 074A     		ldr	r2, .L110+4
 1215 0010 52F82000 		ldr	r0, [r2, r0, lsl #2]
 1216              	.LVL94:
 356:Drivers/BSP/IKS02A1/iks02a1_motion_sensors.c ****   {
 1217              		.loc 1 356 12 view .LVU372
 1218 0014 9847     		blx	r3
 1219              	.LVL95:
 356:Drivers/BSP/IKS02A1/iks02a1_motion_sensors.c ****   {
 1220              		.loc 1 356 11 view .LVU373
 1221 0016 00B9     		cbnz	r0, .L109
 1222              	.L102:
 366:Drivers/BSP/IKS02A1/iks02a1_motion_sensors.c **** 
 1223              		.loc 1 366 1 view .LVU374
 1224 0018 08BD     		pop	{r3, pc}
 1225              	.L109:
 358:Drivers/BSP/IKS02A1/iks02a1_motion_sensors.c ****   }
 1226              		.loc 1 358 9 view .LVU375
 1227 001a 6FF00600 		mvn	r0, #6
 1228 001e FBE7     		b	.L102
 1229              	.LVL96:
 1230              	.L104:
 1231              		.cfi_def_cfa_offset 0
 1232              		.cfi_restore 3
 1233              		.cfi_restore 14
 354:Drivers/BSP/IKS02A1/iks02a1_motion_sensors.c ****   }
 1234              		.loc 1 354 9 view .LVU376
 1235 0020 6FF00100 		mvn	r0, #1
ARM GAS  C:\Temp\ccYwOtvn.s 			page 43


 1236              	.LVL97:
 365:Drivers/BSP/IKS02A1/iks02a1_motion_sensors.c **** }
 1237              		.loc 1 365 3 is_stmt 1 view .LVU377
 366:Drivers/BSP/IKS02A1/iks02a1_motion_sensors.c **** 
 1238              		.loc 1 366 1 is_stmt 0 view .LVU378
 1239 0024 7047     		bx	lr
 1240              	.L111:
 1241 0026 00BF     		.align	2
 1242              	.L110:
 1243 0028 00000000 		.word	MotionDrv
 1244 002c 00000000 		.word	MotionCompObj
 1245              		.cfi_endproc
 1246              	.LFE137:
 1248              		.section	.text.IKS02A1_MOTION_SENSOR_Enable,"ax",%progbits
 1249              		.align	1
 1250              		.global	IKS02A1_MOTION_SENSOR_Enable
 1251              		.syntax unified
 1252              		.thumb
 1253              		.thumb_func
 1255              	IKS02A1_MOTION_SENSOR_Enable:
 1256              	.LVL98:
 1257              	.LFB138:
 378:Drivers/BSP/IKS02A1/iks02a1_motion_sensors.c ****   int32_t ret;
 1258              		.loc 1 378 1 is_stmt 1 view -0
 1259              		.cfi_startproc
 1260              		@ args = 0, pretend = 0, frame = 0
 1261              		@ frame_needed = 0, uses_anonymous_args = 0
 379:Drivers/BSP/IKS02A1/iks02a1_motion_sensors.c **** 
 1262              		.loc 1 379 3 view .LVU380
 381:Drivers/BSP/IKS02A1/iks02a1_motion_sensors.c ****   {
 1263              		.loc 1 381 3 view .LVU381
 381:Drivers/BSP/IKS02A1/iks02a1_motion_sensors.c ****   {
 1264              		.loc 1 381 6 is_stmt 0 view .LVU382
 1265 0000 0228     		cmp	r0, #2
 1266 0002 19D8     		bhi	.L114
 378:Drivers/BSP/IKS02A1/iks02a1_motion_sensors.c ****   int32_t ret;
 1267              		.loc 1 378 1 view .LVU383
 1268 0004 08B5     		push	{r3, lr}
 1269              		.cfi_def_cfa_offset 8
 1270              		.cfi_offset 3, -8
 1271              		.cfi_offset 14, -4
 387:Drivers/BSP/IKS02A1/iks02a1_motion_sensors.c ****     {
 1272              		.loc 1 387 5 is_stmt 1 view .LVU384
 387:Drivers/BSP/IKS02A1/iks02a1_motion_sensors.c ****     {
 1273              		.loc 1 387 29 is_stmt 0 view .LVU385
 1274 0006 0F4B     		ldr	r3, .L121
 1275 0008 53F82030 		ldr	r3, [r3, r0, lsl #2]
 387:Drivers/BSP/IKS02A1/iks02a1_motion_sensors.c ****     {
 1276              		.loc 1 387 8 view .LVU386
 1277 000c 31EA0303 		bics	r3, r1, r3
 1278 0010 15D1     		bne	.L115
 389:Drivers/BSP/IKS02A1/iks02a1_motion_sensors.c ****       {
 1279              		.loc 1 389 7 is_stmt 1 view .LVU387
 389:Drivers/BSP/IKS02A1/iks02a1_motion_sensors.c ****       {
 1280              		.loc 1 389 48 is_stmt 0 view .LVU388
 1281 0012 0D4B     		ldr	r3, .L121+4
 1282 0014 53F82120 		ldr	r2, [r3, r1, lsl #2]
ARM GAS  C:\Temp\ccYwOtvn.s 			page 44


 389:Drivers/BSP/IKS02A1/iks02a1_motion_sensors.c ****       {
 1283              		.loc 1 389 34 view .LVU389
 1284 0018 00EB4003 		add	r3, r0, r0, lsl #1
 1285 001c 1344     		add	r3, r3, r2
 1286 001e 0B4A     		ldr	r2, .L121+8
 1287 0020 52F82330 		ldr	r3, [r2, r3, lsl #2]
 389:Drivers/BSP/IKS02A1/iks02a1_motion_sensors.c ****       {
 1288              		.loc 1 389 59 view .LVU390
 1289 0024 1B68     		ldr	r3, [r3]
 389:Drivers/BSP/IKS02A1/iks02a1_motion_sensors.c ****       {
 1290              		.loc 1 389 11 view .LVU391
 1291 0026 0A4A     		ldr	r2, .L121+12
 1292 0028 52F82000 		ldr	r0, [r2, r0, lsl #2]
 1293              	.LVL99:
 389:Drivers/BSP/IKS02A1/iks02a1_motion_sensors.c ****       {
 1294              		.loc 1 389 11 view .LVU392
 1295 002c 9847     		blx	r3
 1296              	.LVL100:
 389:Drivers/BSP/IKS02A1/iks02a1_motion_sensors.c ****       {
 1297              		.loc 1 389 10 view .LVU393
 1298 002e 00B9     		cbnz	r0, .L120
 1299              	.L112:
 405:Drivers/BSP/IKS02A1/iks02a1_motion_sensors.c **** 
 1300              		.loc 1 405 1 view .LVU394
 1301 0030 08BD     		pop	{r3, pc}
 1302              	.L120:
 391:Drivers/BSP/IKS02A1/iks02a1_motion_sensors.c ****       }
 1303              		.loc 1 391 13 view .LVU395
 1304 0032 6FF00400 		mvn	r0, #4
 1305 0036 FBE7     		b	.L112
 1306              	.LVL101:
 1307              	.L114:
 1308              		.cfi_def_cfa_offset 0
 1309              		.cfi_restore 3
 1310              		.cfi_restore 14
 383:Drivers/BSP/IKS02A1/iks02a1_motion_sensors.c ****   }
 1311              		.loc 1 383 9 view .LVU396
 1312 0038 6FF00100 		mvn	r0, #1
 1313              	.LVL102:
 405:Drivers/BSP/IKS02A1/iks02a1_motion_sensors.c **** 
 1314              		.loc 1 405 1 view .LVU397
 1315 003c 7047     		bx	lr
 1316              	.LVL103:
 1317              	.L115:
 1318              		.cfi_def_cfa_offset 8
 1319              		.cfi_offset 3, -8
 1320              		.cfi_offset 14, -4
 400:Drivers/BSP/IKS02A1/iks02a1_motion_sensors.c ****     }
 1321              		.loc 1 400 11 view .LVU398
 1322 003e 6FF00100 		mvn	r0, #1
 1323              	.LVL104:
 404:Drivers/BSP/IKS02A1/iks02a1_motion_sensors.c **** }
 1324              		.loc 1 404 3 is_stmt 1 view .LVU399
 404:Drivers/BSP/IKS02A1/iks02a1_motion_sensors.c **** }
 1325              		.loc 1 404 10 is_stmt 0 view .LVU400
 1326 0042 F5E7     		b	.L112
 1327              	.L122:
ARM GAS  C:\Temp\ccYwOtvn.s 			page 45


 1328              		.align	2
 1329              	.L121:
 1330 0044 00000000 		.word	MotionCtx
 1331 0048 00000000 		.word	FunctionIndex
 1332 004c 00000000 		.word	MotionFuncDrv
 1333 0050 00000000 		.word	MotionCompObj
 1334              		.cfi_endproc
 1335              	.LFE138:
 1337              		.section	.text.IKS02A1_MOTION_SENSOR_Disable,"ax",%progbits
 1338              		.align	1
 1339              		.global	IKS02A1_MOTION_SENSOR_Disable
 1340              		.syntax unified
 1341              		.thumb
 1342              		.thumb_func
 1344              	IKS02A1_MOTION_SENSOR_Disable:
 1345              	.LVL105:
 1346              	.LFB139:
 417:Drivers/BSP/IKS02A1/iks02a1_motion_sensors.c ****   int32_t ret;
 1347              		.loc 1 417 1 is_stmt 1 view -0
 1348              		.cfi_startproc
 1349              		@ args = 0, pretend = 0, frame = 0
 1350              		@ frame_needed = 0, uses_anonymous_args = 0
 418:Drivers/BSP/IKS02A1/iks02a1_motion_sensors.c **** 
 1351              		.loc 1 418 3 view .LVU402
 420:Drivers/BSP/IKS02A1/iks02a1_motion_sensors.c ****   {
 1352              		.loc 1 420 3 view .LVU403
 420:Drivers/BSP/IKS02A1/iks02a1_motion_sensors.c ****   {
 1353              		.loc 1 420 6 is_stmt 0 view .LVU404
 1354 0000 0228     		cmp	r0, #2
 1355 0002 19D8     		bhi	.L125
 417:Drivers/BSP/IKS02A1/iks02a1_motion_sensors.c ****   int32_t ret;
 1356              		.loc 1 417 1 view .LVU405
 1357 0004 08B5     		push	{r3, lr}
 1358              		.cfi_def_cfa_offset 8
 1359              		.cfi_offset 3, -8
 1360              		.cfi_offset 14, -4
 426:Drivers/BSP/IKS02A1/iks02a1_motion_sensors.c ****     {
 1361              		.loc 1 426 5 is_stmt 1 view .LVU406
 426:Drivers/BSP/IKS02A1/iks02a1_motion_sensors.c ****     {
 1362              		.loc 1 426 29 is_stmt 0 view .LVU407
 1363 0006 0F4B     		ldr	r3, .L132
 1364 0008 53F82030 		ldr	r3, [r3, r0, lsl #2]
 426:Drivers/BSP/IKS02A1/iks02a1_motion_sensors.c ****     {
 1365              		.loc 1 426 8 view .LVU408
 1366 000c 31EA0303 		bics	r3, r1, r3
 1367 0010 15D1     		bne	.L126
 428:Drivers/BSP/IKS02A1/iks02a1_motion_sensors.c ****       {
 1368              		.loc 1 428 7 is_stmt 1 view .LVU409
 428:Drivers/BSP/IKS02A1/iks02a1_motion_sensors.c ****       {
 1369              		.loc 1 428 48 is_stmt 0 view .LVU410
 1370 0012 0D4B     		ldr	r3, .L132+4
 1371 0014 53F82120 		ldr	r2, [r3, r1, lsl #2]
 428:Drivers/BSP/IKS02A1/iks02a1_motion_sensors.c ****       {
 1372              		.loc 1 428 34 view .LVU411
 1373 0018 00EB4003 		add	r3, r0, r0, lsl #1
 1374 001c 1344     		add	r3, r3, r2
 1375 001e 0B4A     		ldr	r2, .L132+8
ARM GAS  C:\Temp\ccYwOtvn.s 			page 46


 1376 0020 52F82330 		ldr	r3, [r2, r3, lsl #2]
 428:Drivers/BSP/IKS02A1/iks02a1_motion_sensors.c ****       {
 1377              		.loc 1 428 59 view .LVU412
 1378 0024 5B68     		ldr	r3, [r3, #4]
 428:Drivers/BSP/IKS02A1/iks02a1_motion_sensors.c ****       {
 1379              		.loc 1 428 11 view .LVU413
 1380 0026 0A4A     		ldr	r2, .L132+12
 1381 0028 52F82000 		ldr	r0, [r2, r0, lsl #2]
 1382              	.LVL106:
 428:Drivers/BSP/IKS02A1/iks02a1_motion_sensors.c ****       {
 1383              		.loc 1 428 11 view .LVU414
 1384 002c 9847     		blx	r3
 1385              	.LVL107:
 428:Drivers/BSP/IKS02A1/iks02a1_motion_sensors.c ****       {
 1386              		.loc 1 428 10 view .LVU415
 1387 002e 00B9     		cbnz	r0, .L131
 1388              	.L123:
 444:Drivers/BSP/IKS02A1/iks02a1_motion_sensors.c **** 
 1389              		.loc 1 444 1 view .LVU416
 1390 0030 08BD     		pop	{r3, pc}
 1391              	.L131:
 430:Drivers/BSP/IKS02A1/iks02a1_motion_sensors.c ****       }
 1392              		.loc 1 430 13 view .LVU417
 1393 0032 6FF00400 		mvn	r0, #4
 1394 0036 FBE7     		b	.L123
 1395              	.LVL108:
 1396              	.L125:
 1397              		.cfi_def_cfa_offset 0
 1398              		.cfi_restore 3
 1399              		.cfi_restore 14
 422:Drivers/BSP/IKS02A1/iks02a1_motion_sensors.c ****   }
 1400              		.loc 1 422 9 view .LVU418
 1401 0038 6FF00100 		mvn	r0, #1
 1402              	.LVL109:
 444:Drivers/BSP/IKS02A1/iks02a1_motion_sensors.c **** 
 1403              		.loc 1 444 1 view .LVU419
 1404 003c 7047     		bx	lr
 1405              	.LVL110:
 1406              	.L126:
 1407              		.cfi_def_cfa_offset 8
 1408              		.cfi_offset 3, -8
 1409              		.cfi_offset 14, -4
 439:Drivers/BSP/IKS02A1/iks02a1_motion_sensors.c ****     }
 1410              		.loc 1 439 11 view .LVU420
 1411 003e 6FF00100 		mvn	r0, #1
 1412              	.LVL111:
 443:Drivers/BSP/IKS02A1/iks02a1_motion_sensors.c **** }
 1413              		.loc 1 443 3 is_stmt 1 view .LVU421
 443:Drivers/BSP/IKS02A1/iks02a1_motion_sensors.c **** }
 1414              		.loc 1 443 10 is_stmt 0 view .LVU422
 1415 0042 F5E7     		b	.L123
 1416              	.L133:
 1417              		.align	2
 1418              	.L132:
 1419 0044 00000000 		.word	MotionCtx
 1420 0048 00000000 		.word	FunctionIndex
 1421 004c 00000000 		.word	MotionFuncDrv
ARM GAS  C:\Temp\ccYwOtvn.s 			page 47


 1422 0050 00000000 		.word	MotionCompObj
 1423              		.cfi_endproc
 1424              	.LFE139:
 1426              		.section	.text.IKS02A1_MOTION_SENSOR_GetAxes,"ax",%progbits
 1427              		.align	1
 1428              		.global	IKS02A1_MOTION_SENSOR_GetAxes
 1429              		.syntax unified
 1430              		.thumb
 1431              		.thumb_func
 1433              	IKS02A1_MOTION_SENSOR_GetAxes:
 1434              	.LVL112:
 1435              	.LFB140:
 457:Drivers/BSP/IKS02A1/iks02a1_motion_sensors.c ****   int32_t ret;
 1436              		.loc 1 457 1 is_stmt 1 view -0
 1437              		.cfi_startproc
 1438              		@ args = 0, pretend = 0, frame = 0
 1439              		@ frame_needed = 0, uses_anonymous_args = 0
 458:Drivers/BSP/IKS02A1/iks02a1_motion_sensors.c **** 
 1440              		.loc 1 458 3 view .LVU424
 460:Drivers/BSP/IKS02A1/iks02a1_motion_sensors.c ****   {
 1441              		.loc 1 460 3 view .LVU425
 460:Drivers/BSP/IKS02A1/iks02a1_motion_sensors.c ****   {
 1442              		.loc 1 460 6 is_stmt 0 view .LVU426
 1443 0000 0228     		cmp	r0, #2
 1444 0002 1BD8     		bhi	.L136
 457:Drivers/BSP/IKS02A1/iks02a1_motion_sensors.c ****   int32_t ret;
 1445              		.loc 1 457 1 view .LVU427
 1446 0004 08B5     		push	{r3, lr}
 1447              		.cfi_def_cfa_offset 8
 1448              		.cfi_offset 3, -8
 1449              		.cfi_offset 14, -4
 1450 0006 0B46     		mov	r3, r1
 1451 0008 1146     		mov	r1, r2
 1452              	.LVL113:
 466:Drivers/BSP/IKS02A1/iks02a1_motion_sensors.c ****     {
 1453              		.loc 1 466 5 is_stmt 1 view .LVU428
 466:Drivers/BSP/IKS02A1/iks02a1_motion_sensors.c ****     {
 1454              		.loc 1 466 29 is_stmt 0 view .LVU429
 1455 000a 0F4A     		ldr	r2, .L143
 1456              	.LVL114:
 466:Drivers/BSP/IKS02A1/iks02a1_motion_sensors.c ****     {
 1457              		.loc 1 466 29 view .LVU430
 1458 000c 52F82020 		ldr	r2, [r2, r0, lsl #2]
 466:Drivers/BSP/IKS02A1/iks02a1_motion_sensors.c ****     {
 1459              		.loc 1 466 8 view .LVU431
 1460 0010 33EA0202 		bics	r2, r3, r2
 1461 0014 15D1     		bne	.L137
 468:Drivers/BSP/IKS02A1/iks02a1_motion_sensors.c ****       {
 1462              		.loc 1 468 7 is_stmt 1 view .LVU432
 468:Drivers/BSP/IKS02A1/iks02a1_motion_sensors.c ****       {
 1463              		.loc 1 468 48 is_stmt 0 view .LVU433
 1464 0016 0D4A     		ldr	r2, .L143+4
 1465 0018 52F82320 		ldr	r2, [r2, r3, lsl #2]
 468:Drivers/BSP/IKS02A1/iks02a1_motion_sensors.c ****       {
 1466              		.loc 1 468 34 view .LVU434
 1467 001c 00EB4003 		add	r3, r0, r0, lsl #1
 1468              	.LVL115:
ARM GAS  C:\Temp\ccYwOtvn.s 			page 48


 468:Drivers/BSP/IKS02A1/iks02a1_motion_sensors.c ****       {
 1469              		.loc 1 468 34 view .LVU435
 1470 0020 1344     		add	r3, r3, r2
 1471 0022 0B4A     		ldr	r2, .L143+8
 1472 0024 52F82330 		ldr	r3, [r2, r3, lsl #2]
 468:Drivers/BSP/IKS02A1/iks02a1_motion_sensors.c ****       {
 1473              		.loc 1 468 59 view .LVU436
 1474 0028 DB69     		ldr	r3, [r3, #28]
 468:Drivers/BSP/IKS02A1/iks02a1_motion_sensors.c ****       {
 1475              		.loc 1 468 11 view .LVU437
 1476 002a 0A4A     		ldr	r2, .L143+12
 1477 002c 52F82000 		ldr	r0, [r2, r0, lsl #2]
 1478              	.LVL116:
 468:Drivers/BSP/IKS02A1/iks02a1_motion_sensors.c ****       {
 1479              		.loc 1 468 11 view .LVU438
 1480 0030 9847     		blx	r3
 1481              	.LVL117:
 468:Drivers/BSP/IKS02A1/iks02a1_motion_sensors.c ****       {
 1482              		.loc 1 468 10 view .LVU439
 1483 0032 00B9     		cbnz	r0, .L142
 1484              	.L134:
 484:Drivers/BSP/IKS02A1/iks02a1_motion_sensors.c **** 
 1485              		.loc 1 484 1 view .LVU440
 1486 0034 08BD     		pop	{r3, pc}
 1487              	.L142:
 470:Drivers/BSP/IKS02A1/iks02a1_motion_sensors.c ****       }
 1488              		.loc 1 470 13 view .LVU441
 1489 0036 6FF00400 		mvn	r0, #4
 1490 003a FBE7     		b	.L134
 1491              	.LVL118:
 1492              	.L136:
 1493              		.cfi_def_cfa_offset 0
 1494              		.cfi_restore 3
 1495              		.cfi_restore 14
 462:Drivers/BSP/IKS02A1/iks02a1_motion_sensors.c ****   }
 1496              		.loc 1 462 9 view .LVU442
 1497 003c 6FF00100 		mvn	r0, #1
 1498              	.LVL119:
 484:Drivers/BSP/IKS02A1/iks02a1_motion_sensors.c **** 
 1499              		.loc 1 484 1 view .LVU443
 1500 0040 7047     		bx	lr
 1501              	.LVL120:
 1502              	.L137:
 1503              		.cfi_def_cfa_offset 8
 1504              		.cfi_offset 3, -8
 1505              		.cfi_offset 14, -4
 479:Drivers/BSP/IKS02A1/iks02a1_motion_sensors.c ****     }
 1506              		.loc 1 479 11 view .LVU444
 1507 0042 6FF00100 		mvn	r0, #1
 1508              	.LVL121:
 483:Drivers/BSP/IKS02A1/iks02a1_motion_sensors.c **** }
 1509              		.loc 1 483 3 is_stmt 1 view .LVU445
 483:Drivers/BSP/IKS02A1/iks02a1_motion_sensors.c **** }
 1510              		.loc 1 483 10 is_stmt 0 view .LVU446
 1511 0046 F5E7     		b	.L134
 1512              	.L144:
 1513              		.align	2
ARM GAS  C:\Temp\ccYwOtvn.s 			page 49


 1514              	.L143:
 1515 0048 00000000 		.word	MotionCtx
 1516 004c 00000000 		.word	FunctionIndex
 1517 0050 00000000 		.word	MotionFuncDrv
 1518 0054 00000000 		.word	MotionCompObj
 1519              		.cfi_endproc
 1520              	.LFE140:
 1522              		.section	.text.IKS02A1_MOTION_SENSOR_GetAxesRaw,"ax",%progbits
 1523              		.align	1
 1524              		.global	IKS02A1_MOTION_SENSOR_GetAxesRaw
 1525              		.syntax unified
 1526              		.thumb
 1527              		.thumb_func
 1529              	IKS02A1_MOTION_SENSOR_GetAxesRaw:
 1530              	.LVL122:
 1531              	.LFB141:
 497:Drivers/BSP/IKS02A1/iks02a1_motion_sensors.c ****   int32_t ret;
 1532              		.loc 1 497 1 is_stmt 1 view -0
 1533              		.cfi_startproc
 1534              		@ args = 0, pretend = 0, frame = 0
 1535              		@ frame_needed = 0, uses_anonymous_args = 0
 498:Drivers/BSP/IKS02A1/iks02a1_motion_sensors.c **** 
 1536              		.loc 1 498 3 view .LVU448
 500:Drivers/BSP/IKS02A1/iks02a1_motion_sensors.c ****   {
 1537              		.loc 1 500 3 view .LVU449
 500:Drivers/BSP/IKS02A1/iks02a1_motion_sensors.c ****   {
 1538              		.loc 1 500 6 is_stmt 0 view .LVU450
 1539 0000 0228     		cmp	r0, #2
 1540 0002 1BD8     		bhi	.L147
 497:Drivers/BSP/IKS02A1/iks02a1_motion_sensors.c ****   int32_t ret;
 1541              		.loc 1 497 1 view .LVU451
 1542 0004 08B5     		push	{r3, lr}
 1543              		.cfi_def_cfa_offset 8
 1544              		.cfi_offset 3, -8
 1545              		.cfi_offset 14, -4
 1546 0006 0B46     		mov	r3, r1
 1547 0008 1146     		mov	r1, r2
 1548              	.LVL123:
 506:Drivers/BSP/IKS02A1/iks02a1_motion_sensors.c ****     {
 1549              		.loc 1 506 5 is_stmt 1 view .LVU452
 506:Drivers/BSP/IKS02A1/iks02a1_motion_sensors.c ****     {
 1550              		.loc 1 506 29 is_stmt 0 view .LVU453
 1551 000a 0F4A     		ldr	r2, .L154
 1552              	.LVL124:
 506:Drivers/BSP/IKS02A1/iks02a1_motion_sensors.c ****     {
 1553              		.loc 1 506 29 view .LVU454
 1554 000c 52F82020 		ldr	r2, [r2, r0, lsl #2]
 506:Drivers/BSP/IKS02A1/iks02a1_motion_sensors.c ****     {
 1555              		.loc 1 506 8 view .LVU455
 1556 0010 33EA0202 		bics	r2, r3, r2
 1557 0014 15D1     		bne	.L148
 508:Drivers/BSP/IKS02A1/iks02a1_motion_sensors.c ****       {
 1558              		.loc 1 508 7 is_stmt 1 view .LVU456
 508:Drivers/BSP/IKS02A1/iks02a1_motion_sensors.c ****       {
 1559              		.loc 1 508 48 is_stmt 0 view .LVU457
 1560 0016 0D4A     		ldr	r2, .L154+4
 1561 0018 52F82320 		ldr	r2, [r2, r3, lsl #2]
ARM GAS  C:\Temp\ccYwOtvn.s 			page 50


 508:Drivers/BSP/IKS02A1/iks02a1_motion_sensors.c ****       {
 1562              		.loc 1 508 34 view .LVU458
 1563 001c 00EB4003 		add	r3, r0, r0, lsl #1
 1564              	.LVL125:
 508:Drivers/BSP/IKS02A1/iks02a1_motion_sensors.c ****       {
 1565              		.loc 1 508 34 view .LVU459
 1566 0020 1344     		add	r3, r3, r2
 1567 0022 0B4A     		ldr	r2, .L154+8
 1568 0024 52F82330 		ldr	r3, [r2, r3, lsl #2]
 508:Drivers/BSP/IKS02A1/iks02a1_motion_sensors.c ****       {
 1569              		.loc 1 508 59 view .LVU460
 1570 0028 1B6A     		ldr	r3, [r3, #32]
 508:Drivers/BSP/IKS02A1/iks02a1_motion_sensors.c ****       {
 1571              		.loc 1 508 11 view .LVU461
 1572 002a 0A4A     		ldr	r2, .L154+12
 1573 002c 52F82000 		ldr	r0, [r2, r0, lsl #2]
 1574              	.LVL126:
 508:Drivers/BSP/IKS02A1/iks02a1_motion_sensors.c ****       {
 1575              		.loc 1 508 11 view .LVU462
 1576 0030 9847     		blx	r3
 1577              	.LVL127:
 508:Drivers/BSP/IKS02A1/iks02a1_motion_sensors.c ****       {
 1578              		.loc 1 508 10 view .LVU463
 1579 0032 00B9     		cbnz	r0, .L153
 1580              	.L145:
 524:Drivers/BSP/IKS02A1/iks02a1_motion_sensors.c **** 
 1581              		.loc 1 524 1 view .LVU464
 1582 0034 08BD     		pop	{r3, pc}
 1583              	.L153:
 510:Drivers/BSP/IKS02A1/iks02a1_motion_sensors.c ****       }
 1584              		.loc 1 510 13 view .LVU465
 1585 0036 6FF00400 		mvn	r0, #4
 1586 003a FBE7     		b	.L145
 1587              	.LVL128:
 1588              	.L147:
 1589              		.cfi_def_cfa_offset 0
 1590              		.cfi_restore 3
 1591              		.cfi_restore 14
 502:Drivers/BSP/IKS02A1/iks02a1_motion_sensors.c ****   }
 1592              		.loc 1 502 9 view .LVU466
 1593 003c 6FF00100 		mvn	r0, #1
 1594              	.LVL129:
 524:Drivers/BSP/IKS02A1/iks02a1_motion_sensors.c **** 
 1595              		.loc 1 524 1 view .LVU467
 1596 0040 7047     		bx	lr
 1597              	.LVL130:
 1598              	.L148:
 1599              		.cfi_def_cfa_offset 8
 1600              		.cfi_offset 3, -8
 1601              		.cfi_offset 14, -4
 519:Drivers/BSP/IKS02A1/iks02a1_motion_sensors.c ****     }
 1602              		.loc 1 519 11 view .LVU468
 1603 0042 6FF00100 		mvn	r0, #1
 1604              	.LVL131:
 523:Drivers/BSP/IKS02A1/iks02a1_motion_sensors.c **** }
 1605              		.loc 1 523 3 is_stmt 1 view .LVU469
 523:Drivers/BSP/IKS02A1/iks02a1_motion_sensors.c **** }
ARM GAS  C:\Temp\ccYwOtvn.s 			page 51


 1606              		.loc 1 523 10 is_stmt 0 view .LVU470
 1607 0046 F5E7     		b	.L145
 1608              	.L155:
 1609              		.align	2
 1610              	.L154:
 1611 0048 00000000 		.word	MotionCtx
 1612 004c 00000000 		.word	FunctionIndex
 1613 0050 00000000 		.word	MotionFuncDrv
 1614 0054 00000000 		.word	MotionCompObj
 1615              		.cfi_endproc
 1616              	.LFE141:
 1618              		.section	.text.IKS02A1_MOTION_SENSOR_GetSensitivity,"ax",%progbits
 1619              		.align	1
 1620              		.global	IKS02A1_MOTION_SENSOR_GetSensitivity
 1621              		.syntax unified
 1622              		.thumb
 1623              		.thumb_func
 1625              	IKS02A1_MOTION_SENSOR_GetSensitivity:
 1626              	.LVL132:
 1627              	.LFB142:
 537:Drivers/BSP/IKS02A1/iks02a1_motion_sensors.c ****   int32_t ret;
 1628              		.loc 1 537 1 is_stmt 1 view -0
 1629              		.cfi_startproc
 1630              		@ args = 0, pretend = 0, frame = 0
 1631              		@ frame_needed = 0, uses_anonymous_args = 0
 538:Drivers/BSP/IKS02A1/iks02a1_motion_sensors.c **** 
 1632              		.loc 1 538 3 view .LVU472
 540:Drivers/BSP/IKS02A1/iks02a1_motion_sensors.c ****   {
 1633              		.loc 1 540 3 view .LVU473
 540:Drivers/BSP/IKS02A1/iks02a1_motion_sensors.c ****   {
 1634              		.loc 1 540 6 is_stmt 0 view .LVU474
 1635 0000 0228     		cmp	r0, #2
 1636 0002 1BD8     		bhi	.L158
 537:Drivers/BSP/IKS02A1/iks02a1_motion_sensors.c ****   int32_t ret;
 1637              		.loc 1 537 1 view .LVU475
 1638 0004 08B5     		push	{r3, lr}
 1639              		.cfi_def_cfa_offset 8
 1640              		.cfi_offset 3, -8
 1641              		.cfi_offset 14, -4
 1642 0006 0B46     		mov	r3, r1
 1643 0008 1146     		mov	r1, r2
 1644              	.LVL133:
 546:Drivers/BSP/IKS02A1/iks02a1_motion_sensors.c ****     {
 1645              		.loc 1 546 5 is_stmt 1 view .LVU476
 546:Drivers/BSP/IKS02A1/iks02a1_motion_sensors.c ****     {
 1646              		.loc 1 546 29 is_stmt 0 view .LVU477
 1647 000a 0F4A     		ldr	r2, .L165
 1648              	.LVL134:
 546:Drivers/BSP/IKS02A1/iks02a1_motion_sensors.c ****     {
 1649              		.loc 1 546 29 view .LVU478
 1650 000c 52F82020 		ldr	r2, [r2, r0, lsl #2]
 546:Drivers/BSP/IKS02A1/iks02a1_motion_sensors.c ****     {
 1651              		.loc 1 546 8 view .LVU479
 1652 0010 33EA0202 		bics	r2, r3, r2
 1653 0014 15D1     		bne	.L159
 548:Drivers/BSP/IKS02A1/iks02a1_motion_sensors.c ****                                                                            Sensitivity) != BSP_ERRO
 1654              		.loc 1 548 7 is_stmt 1 view .LVU480
ARM GAS  C:\Temp\ccYwOtvn.s 			page 52


 548:Drivers/BSP/IKS02A1/iks02a1_motion_sensors.c ****                                                                            Sensitivity) != BSP_ERRO
 1655              		.loc 1 548 48 is_stmt 0 view .LVU481
 1656 0016 0D4A     		ldr	r2, .L165+4
 1657 0018 52F82320 		ldr	r2, [r2, r3, lsl #2]
 548:Drivers/BSP/IKS02A1/iks02a1_motion_sensors.c ****                                                                            Sensitivity) != BSP_ERRO
 1658              		.loc 1 548 34 view .LVU482
 1659 001c 00EB4003 		add	r3, r0, r0, lsl #1
 1660              	.LVL135:
 548:Drivers/BSP/IKS02A1/iks02a1_motion_sensors.c ****                                                                            Sensitivity) != BSP_ERRO
 1661              		.loc 1 548 34 view .LVU483
 1662 0020 1344     		add	r3, r3, r2
 1663 0022 0B4A     		ldr	r2, .L165+8
 1664 0024 52F82330 		ldr	r3, [r2, r3, lsl #2]
 548:Drivers/BSP/IKS02A1/iks02a1_motion_sensors.c ****                                                                            Sensitivity) != BSP_ERRO
 1665              		.loc 1 548 59 view .LVU484
 1666 0028 9B68     		ldr	r3, [r3, #8]
 548:Drivers/BSP/IKS02A1/iks02a1_motion_sensors.c ****                                                                            Sensitivity) != BSP_ERRO
 1667              		.loc 1 548 11 view .LVU485
 1668 002a 0A4A     		ldr	r2, .L165+12
 1669 002c 52F82000 		ldr	r0, [r2, r0, lsl #2]
 1670              	.LVL136:
 548:Drivers/BSP/IKS02A1/iks02a1_motion_sensors.c ****                                                                            Sensitivity) != BSP_ERRO
 1671              		.loc 1 548 11 view .LVU486
 1672 0030 9847     		blx	r3
 1673              	.LVL137:
 548:Drivers/BSP/IKS02A1/iks02a1_motion_sensors.c ****                                                                            Sensitivity) != BSP_ERRO
 1674              		.loc 1 548 10 view .LVU487
 1675 0032 00B9     		cbnz	r0, .L164
 1676              	.L156:
 565:Drivers/BSP/IKS02A1/iks02a1_motion_sensors.c **** 
 1677              		.loc 1 565 1 view .LVU488
 1678 0034 08BD     		pop	{r3, pc}
 1679              	.L164:
 551:Drivers/BSP/IKS02A1/iks02a1_motion_sensors.c ****       }
 1680              		.loc 1 551 13 view .LVU489
 1681 0036 6FF00400 		mvn	r0, #4
 1682 003a FBE7     		b	.L156
 1683              	.LVL138:
 1684              	.L158:
 1685              		.cfi_def_cfa_offset 0
 1686              		.cfi_restore 3
 1687              		.cfi_restore 14
 542:Drivers/BSP/IKS02A1/iks02a1_motion_sensors.c ****   }
 1688              		.loc 1 542 9 view .LVU490
 1689 003c 6FF00100 		mvn	r0, #1
 1690              	.LVL139:
 565:Drivers/BSP/IKS02A1/iks02a1_motion_sensors.c **** 
 1691              		.loc 1 565 1 view .LVU491
 1692 0040 7047     		bx	lr
 1693              	.LVL140:
 1694              	.L159:
 1695              		.cfi_def_cfa_offset 8
 1696              		.cfi_offset 3, -8
 1697              		.cfi_offset 14, -4
 560:Drivers/BSP/IKS02A1/iks02a1_motion_sensors.c ****     }
 1698              		.loc 1 560 11 view .LVU492
 1699 0042 6FF00100 		mvn	r0, #1
ARM GAS  C:\Temp\ccYwOtvn.s 			page 53


 1700              	.LVL141:
 564:Drivers/BSP/IKS02A1/iks02a1_motion_sensors.c **** }
 1701              		.loc 1 564 3 is_stmt 1 view .LVU493
 564:Drivers/BSP/IKS02A1/iks02a1_motion_sensors.c **** }
 1702              		.loc 1 564 10 is_stmt 0 view .LVU494
 1703 0046 F5E7     		b	.L156
 1704              	.L166:
 1705              		.align	2
 1706              	.L165:
 1707 0048 00000000 		.word	MotionCtx
 1708 004c 00000000 		.word	FunctionIndex
 1709 0050 00000000 		.word	MotionFuncDrv
 1710 0054 00000000 		.word	MotionCompObj
 1711              		.cfi_endproc
 1712              	.LFE142:
 1714              		.section	.text.IKS02A1_MOTION_SENSOR_GetOutputDataRate,"ax",%progbits
 1715              		.align	1
 1716              		.global	IKS02A1_MOTION_SENSOR_GetOutputDataRate
 1717              		.syntax unified
 1718              		.thumb
 1719              		.thumb_func
 1721              	IKS02A1_MOTION_SENSOR_GetOutputDataRate:
 1722              	.LVL142:
 1723              	.LFB143:
 578:Drivers/BSP/IKS02A1/iks02a1_motion_sensors.c ****   int32_t ret;
 1724              		.loc 1 578 1 is_stmt 1 view -0
 1725              		.cfi_startproc
 1726              		@ args = 0, pretend = 0, frame = 0
 1727              		@ frame_needed = 0, uses_anonymous_args = 0
 579:Drivers/BSP/IKS02A1/iks02a1_motion_sensors.c **** 
 1728              		.loc 1 579 3 view .LVU496
 581:Drivers/BSP/IKS02A1/iks02a1_motion_sensors.c ****   {
 1729              		.loc 1 581 3 view .LVU497
 581:Drivers/BSP/IKS02A1/iks02a1_motion_sensors.c ****   {
 1730              		.loc 1 581 6 is_stmt 0 view .LVU498
 1731 0000 0228     		cmp	r0, #2
 1732 0002 1BD8     		bhi	.L169
 578:Drivers/BSP/IKS02A1/iks02a1_motion_sensors.c ****   int32_t ret;
 1733              		.loc 1 578 1 view .LVU499
 1734 0004 08B5     		push	{r3, lr}
 1735              		.cfi_def_cfa_offset 8
 1736              		.cfi_offset 3, -8
 1737              		.cfi_offset 14, -4
 1738 0006 0B46     		mov	r3, r1
 1739 0008 1146     		mov	r1, r2
 1740              	.LVL143:
 587:Drivers/BSP/IKS02A1/iks02a1_motion_sensors.c ****     {
 1741              		.loc 1 587 5 is_stmt 1 view .LVU500
 587:Drivers/BSP/IKS02A1/iks02a1_motion_sensors.c ****     {
 1742              		.loc 1 587 29 is_stmt 0 view .LVU501
 1743 000a 0F4A     		ldr	r2, .L176
 1744              	.LVL144:
 587:Drivers/BSP/IKS02A1/iks02a1_motion_sensors.c ****     {
 1745              		.loc 1 587 29 view .LVU502
 1746 000c 52F82020 		ldr	r2, [r2, r0, lsl #2]
 587:Drivers/BSP/IKS02A1/iks02a1_motion_sensors.c ****     {
 1747              		.loc 1 587 8 view .LVU503
ARM GAS  C:\Temp\ccYwOtvn.s 			page 54


 1748 0010 33EA0202 		bics	r2, r3, r2
 1749 0014 15D1     		bne	.L170
 589:Drivers/BSP/IKS02A1/iks02a1_motion_sensors.c ****       {
 1750              		.loc 1 589 7 is_stmt 1 view .LVU504
 589:Drivers/BSP/IKS02A1/iks02a1_motion_sensors.c ****       {
 1751              		.loc 1 589 48 is_stmt 0 view .LVU505
 1752 0016 0D4A     		ldr	r2, .L176+4
 1753 0018 52F82320 		ldr	r2, [r2, r3, lsl #2]
 589:Drivers/BSP/IKS02A1/iks02a1_motion_sensors.c ****       {
 1754              		.loc 1 589 34 view .LVU506
 1755 001c 00EB4003 		add	r3, r0, r0, lsl #1
 1756              	.LVL145:
 589:Drivers/BSP/IKS02A1/iks02a1_motion_sensors.c ****       {
 1757              		.loc 1 589 34 view .LVU507
 1758 0020 1344     		add	r3, r3, r2
 1759 0022 0B4A     		ldr	r2, .L176+8
 1760 0024 52F82330 		ldr	r3, [r2, r3, lsl #2]
 589:Drivers/BSP/IKS02A1/iks02a1_motion_sensors.c ****       {
 1761              		.loc 1 589 59 view .LVU508
 1762 0028 DB68     		ldr	r3, [r3, #12]
 589:Drivers/BSP/IKS02A1/iks02a1_motion_sensors.c ****       {
 1763              		.loc 1 589 11 view .LVU509
 1764 002a 0A4A     		ldr	r2, .L176+12
 1765 002c 52F82000 		ldr	r0, [r2, r0, lsl #2]
 1766              	.LVL146:
 589:Drivers/BSP/IKS02A1/iks02a1_motion_sensors.c ****       {
 1767              		.loc 1 589 11 view .LVU510
 1768 0030 9847     		blx	r3
 1769              	.LVL147:
 589:Drivers/BSP/IKS02A1/iks02a1_motion_sensors.c ****       {
 1770              		.loc 1 589 10 view .LVU511
 1771 0032 00B9     		cbnz	r0, .L175
 1772              	.L167:
 605:Drivers/BSP/IKS02A1/iks02a1_motion_sensors.c **** 
 1773              		.loc 1 605 1 view .LVU512
 1774 0034 08BD     		pop	{r3, pc}
 1775              	.L175:
 591:Drivers/BSP/IKS02A1/iks02a1_motion_sensors.c ****       }
 1776              		.loc 1 591 13 view .LVU513
 1777 0036 6FF00400 		mvn	r0, #4
 1778 003a FBE7     		b	.L167
 1779              	.LVL148:
 1780              	.L169:
 1781              		.cfi_def_cfa_offset 0
 1782              		.cfi_restore 3
 1783              		.cfi_restore 14
 583:Drivers/BSP/IKS02A1/iks02a1_motion_sensors.c ****   }
 1784              		.loc 1 583 9 view .LVU514
 1785 003c 6FF00100 		mvn	r0, #1
 1786              	.LVL149:
 605:Drivers/BSP/IKS02A1/iks02a1_motion_sensors.c **** 
 1787              		.loc 1 605 1 view .LVU515
 1788 0040 7047     		bx	lr
 1789              	.LVL150:
 1790              	.L170:
 1791              		.cfi_def_cfa_offset 8
 1792              		.cfi_offset 3, -8
ARM GAS  C:\Temp\ccYwOtvn.s 			page 55


 1793              		.cfi_offset 14, -4
 600:Drivers/BSP/IKS02A1/iks02a1_motion_sensors.c ****     }
 1794              		.loc 1 600 11 view .LVU516
 1795 0042 6FF00100 		mvn	r0, #1
 1796              	.LVL151:
 604:Drivers/BSP/IKS02A1/iks02a1_motion_sensors.c **** }
 1797              		.loc 1 604 3 is_stmt 1 view .LVU517
 604:Drivers/BSP/IKS02A1/iks02a1_motion_sensors.c **** }
 1798              		.loc 1 604 10 is_stmt 0 view .LVU518
 1799 0046 F5E7     		b	.L167
 1800              	.L177:
 1801              		.align	2
 1802              	.L176:
 1803 0048 00000000 		.word	MotionCtx
 1804 004c 00000000 		.word	FunctionIndex
 1805 0050 00000000 		.word	MotionFuncDrv
 1806 0054 00000000 		.word	MotionCompObj
 1807              		.cfi_endproc
 1808              	.LFE143:
 1810              		.section	.text.IKS02A1_MOTION_SENSOR_GetFullScale,"ax",%progbits
 1811              		.align	1
 1812              		.global	IKS02A1_MOTION_SENSOR_GetFullScale
 1813              		.syntax unified
 1814              		.thumb
 1815              		.thumb_func
 1817              	IKS02A1_MOTION_SENSOR_GetFullScale:
 1818              	.LVL152:
 1819              	.LFB144:
 618:Drivers/BSP/IKS02A1/iks02a1_motion_sensors.c ****   int32_t ret;
 1820              		.loc 1 618 1 is_stmt 1 view -0
 1821              		.cfi_startproc
 1822              		@ args = 0, pretend = 0, frame = 0
 1823              		@ frame_needed = 0, uses_anonymous_args = 0
 619:Drivers/BSP/IKS02A1/iks02a1_motion_sensors.c **** 
 1824              		.loc 1 619 3 view .LVU520
 621:Drivers/BSP/IKS02A1/iks02a1_motion_sensors.c ****   {
 1825              		.loc 1 621 3 view .LVU521
 621:Drivers/BSP/IKS02A1/iks02a1_motion_sensors.c ****   {
 1826              		.loc 1 621 6 is_stmt 0 view .LVU522
 1827 0000 0228     		cmp	r0, #2
 1828 0002 1BD8     		bhi	.L180
 618:Drivers/BSP/IKS02A1/iks02a1_motion_sensors.c ****   int32_t ret;
 1829              		.loc 1 618 1 view .LVU523
 1830 0004 08B5     		push	{r3, lr}
 1831              		.cfi_def_cfa_offset 8
 1832              		.cfi_offset 3, -8
 1833              		.cfi_offset 14, -4
 1834 0006 0B46     		mov	r3, r1
 1835 0008 1146     		mov	r1, r2
 1836              	.LVL153:
 627:Drivers/BSP/IKS02A1/iks02a1_motion_sensors.c ****     {
 1837              		.loc 1 627 5 is_stmt 1 view .LVU524
 627:Drivers/BSP/IKS02A1/iks02a1_motion_sensors.c ****     {
 1838              		.loc 1 627 29 is_stmt 0 view .LVU525
 1839 000a 0F4A     		ldr	r2, .L187
 1840              	.LVL154:
 627:Drivers/BSP/IKS02A1/iks02a1_motion_sensors.c ****     {
ARM GAS  C:\Temp\ccYwOtvn.s 			page 56


 1841              		.loc 1 627 29 view .LVU526
 1842 000c 52F82020 		ldr	r2, [r2, r0, lsl #2]
 627:Drivers/BSP/IKS02A1/iks02a1_motion_sensors.c ****     {
 1843              		.loc 1 627 8 view .LVU527
 1844 0010 33EA0202 		bics	r2, r3, r2
 1845 0014 15D1     		bne	.L181
 629:Drivers/BSP/IKS02A1/iks02a1_motion_sensors.c ****                                                                          Fullscale) != BSP_ERROR_NO
 1846              		.loc 1 629 7 is_stmt 1 view .LVU528
 629:Drivers/BSP/IKS02A1/iks02a1_motion_sensors.c ****                                                                          Fullscale) != BSP_ERROR_NO
 1847              		.loc 1 629 48 is_stmt 0 view .LVU529
 1848 0016 0D4A     		ldr	r2, .L187+4
 1849 0018 52F82320 		ldr	r2, [r2, r3, lsl #2]
 629:Drivers/BSP/IKS02A1/iks02a1_motion_sensors.c ****                                                                          Fullscale) != BSP_ERROR_NO
 1850              		.loc 1 629 34 view .LVU530
 1851 001c 00EB4003 		add	r3, r0, r0, lsl #1
 1852              	.LVL155:
 629:Drivers/BSP/IKS02A1/iks02a1_motion_sensors.c ****                                                                          Fullscale) != BSP_ERROR_NO
 1853              		.loc 1 629 34 view .LVU531
 1854 0020 1344     		add	r3, r3, r2
 1855 0022 0B4A     		ldr	r2, .L187+8
 1856 0024 52F82330 		ldr	r3, [r2, r3, lsl #2]
 629:Drivers/BSP/IKS02A1/iks02a1_motion_sensors.c ****                                                                          Fullscale) != BSP_ERROR_NO
 1857              		.loc 1 629 59 view .LVU532
 1858 0028 5B69     		ldr	r3, [r3, #20]
 629:Drivers/BSP/IKS02A1/iks02a1_motion_sensors.c ****                                                                          Fullscale) != BSP_ERROR_NO
 1859              		.loc 1 629 11 view .LVU533
 1860 002a 0A4A     		ldr	r2, .L187+12
 1861 002c 52F82000 		ldr	r0, [r2, r0, lsl #2]
 1862              	.LVL156:
 629:Drivers/BSP/IKS02A1/iks02a1_motion_sensors.c ****                                                                          Fullscale) != BSP_ERROR_NO
 1863              		.loc 1 629 11 view .LVU534
 1864 0030 9847     		blx	r3
 1865              	.LVL157:
 629:Drivers/BSP/IKS02A1/iks02a1_motion_sensors.c ****                                                                          Fullscale) != BSP_ERROR_NO
 1866              		.loc 1 629 10 view .LVU535
 1867 0032 00B9     		cbnz	r0, .L186
 1868              	.L178:
 646:Drivers/BSP/IKS02A1/iks02a1_motion_sensors.c **** 
 1869              		.loc 1 646 1 view .LVU536
 1870 0034 08BD     		pop	{r3, pc}
 1871              	.L186:
 632:Drivers/BSP/IKS02A1/iks02a1_motion_sensors.c ****       }
 1872              		.loc 1 632 13 view .LVU537
 1873 0036 6FF00400 		mvn	r0, #4
 1874 003a FBE7     		b	.L178
 1875              	.LVL158:
 1876              	.L180:
 1877              		.cfi_def_cfa_offset 0
 1878              		.cfi_restore 3
 1879              		.cfi_restore 14
 623:Drivers/BSP/IKS02A1/iks02a1_motion_sensors.c ****   }
 1880              		.loc 1 623 9 view .LVU538
 1881 003c 6FF00100 		mvn	r0, #1
 1882              	.LVL159:
 646:Drivers/BSP/IKS02A1/iks02a1_motion_sensors.c **** 
 1883              		.loc 1 646 1 view .LVU539
 1884 0040 7047     		bx	lr
ARM GAS  C:\Temp\ccYwOtvn.s 			page 57


 1885              	.LVL160:
 1886              	.L181:
 1887              		.cfi_def_cfa_offset 8
 1888              		.cfi_offset 3, -8
 1889              		.cfi_offset 14, -4
 641:Drivers/BSP/IKS02A1/iks02a1_motion_sensors.c ****     }
 1890              		.loc 1 641 11 view .LVU540
 1891 0042 6FF00100 		mvn	r0, #1
 1892              	.LVL161:
 645:Drivers/BSP/IKS02A1/iks02a1_motion_sensors.c **** }
 1893              		.loc 1 645 3 is_stmt 1 view .LVU541
 645:Drivers/BSP/IKS02A1/iks02a1_motion_sensors.c **** }
 1894              		.loc 1 645 10 is_stmt 0 view .LVU542
 1895 0046 F5E7     		b	.L178
 1896              	.L188:
 1897              		.align	2
 1898              	.L187:
 1899 0048 00000000 		.word	MotionCtx
 1900 004c 00000000 		.word	FunctionIndex
 1901 0050 00000000 		.word	MotionFuncDrv
 1902 0054 00000000 		.word	MotionCompObj
 1903              		.cfi_endproc
 1904              	.LFE144:
 1906              		.section	.text.IKS02A1_MOTION_SENSOR_SetOutputDataRate,"ax",%progbits
 1907              		.align	1
 1908              		.global	IKS02A1_MOTION_SENSOR_SetOutputDataRate
 1909              		.syntax unified
 1910              		.thumb
 1911              		.thumb_func
 1913              	IKS02A1_MOTION_SENSOR_SetOutputDataRate:
 1914              	.LVL162:
 1915              	.LFB145:
 659:Drivers/BSP/IKS02A1/iks02a1_motion_sensors.c ****   int32_t ret;
 1916              		.loc 1 659 1 is_stmt 1 view -0
 1917              		.cfi_startproc
 1918              		@ args = 0, pretend = 0, frame = 0
 1919              		@ frame_needed = 0, uses_anonymous_args = 0
 660:Drivers/BSP/IKS02A1/iks02a1_motion_sensors.c **** 
 1920              		.loc 1 660 3 view .LVU544
 662:Drivers/BSP/IKS02A1/iks02a1_motion_sensors.c ****   {
 1921              		.loc 1 662 3 view .LVU545
 662:Drivers/BSP/IKS02A1/iks02a1_motion_sensors.c ****   {
 1922              		.loc 1 662 6 is_stmt 0 view .LVU546
 1923 0000 0228     		cmp	r0, #2
 1924 0002 19D8     		bhi	.L191
 659:Drivers/BSP/IKS02A1/iks02a1_motion_sensors.c ****   int32_t ret;
 1925              		.loc 1 659 1 view .LVU547
 1926 0004 08B5     		push	{r3, lr}
 1927              		.cfi_def_cfa_offset 8
 1928              		.cfi_offset 3, -8
 1929              		.cfi_offset 14, -4
 668:Drivers/BSP/IKS02A1/iks02a1_motion_sensors.c ****     {
 1930              		.loc 1 668 5 is_stmt 1 view .LVU548
 668:Drivers/BSP/IKS02A1/iks02a1_motion_sensors.c ****     {
 1931              		.loc 1 668 29 is_stmt 0 view .LVU549
 1932 0006 0F4B     		ldr	r3, .L198
 1933 0008 53F82030 		ldr	r3, [r3, r0, lsl #2]
ARM GAS  C:\Temp\ccYwOtvn.s 			page 58


 668:Drivers/BSP/IKS02A1/iks02a1_motion_sensors.c ****     {
 1934              		.loc 1 668 8 view .LVU550
 1935 000c 31EA0303 		bics	r3, r1, r3
 1936 0010 15D1     		bne	.L192
 670:Drivers/BSP/IKS02A1/iks02a1_motion_sensors.c ****       {
 1937              		.loc 1 670 7 is_stmt 1 view .LVU551
 670:Drivers/BSP/IKS02A1/iks02a1_motion_sensors.c ****       {
 1938              		.loc 1 670 48 is_stmt 0 view .LVU552
 1939 0012 0D4B     		ldr	r3, .L198+4
 1940 0014 53F82120 		ldr	r2, [r3, r1, lsl #2]
 670:Drivers/BSP/IKS02A1/iks02a1_motion_sensors.c ****       {
 1941              		.loc 1 670 34 view .LVU553
 1942 0018 00EB4003 		add	r3, r0, r0, lsl #1
 1943 001c 1344     		add	r3, r3, r2
 1944 001e 0B4A     		ldr	r2, .L198+8
 1945 0020 52F82330 		ldr	r3, [r2, r3, lsl #2]
 670:Drivers/BSP/IKS02A1/iks02a1_motion_sensors.c ****       {
 1946              		.loc 1 670 59 view .LVU554
 1947 0024 1B69     		ldr	r3, [r3, #16]
 670:Drivers/BSP/IKS02A1/iks02a1_motion_sensors.c ****       {
 1948              		.loc 1 670 11 view .LVU555
 1949 0026 0A4A     		ldr	r2, .L198+12
 1950 0028 52F82000 		ldr	r0, [r2, r0, lsl #2]
 1951              	.LVL163:
 670:Drivers/BSP/IKS02A1/iks02a1_motion_sensors.c ****       {
 1952              		.loc 1 670 11 view .LVU556
 1953 002c 9847     		blx	r3
 1954              	.LVL164:
 670:Drivers/BSP/IKS02A1/iks02a1_motion_sensors.c ****       {
 1955              		.loc 1 670 10 view .LVU557
 1956 002e 00B9     		cbnz	r0, .L197
 1957              	.L189:
 686:Drivers/BSP/IKS02A1/iks02a1_motion_sensors.c **** 
 1958              		.loc 1 686 1 view .LVU558
 1959 0030 08BD     		pop	{r3, pc}
 1960              	.L197:
 672:Drivers/BSP/IKS02A1/iks02a1_motion_sensors.c ****       }
 1961              		.loc 1 672 13 view .LVU559
 1962 0032 6FF00400 		mvn	r0, #4
 1963 0036 FBE7     		b	.L189
 1964              	.LVL165:
 1965              	.L191:
 1966              		.cfi_def_cfa_offset 0
 1967              		.cfi_restore 3
 1968              		.cfi_restore 14
 664:Drivers/BSP/IKS02A1/iks02a1_motion_sensors.c ****   }
 1969              		.loc 1 664 9 view .LVU560
 1970 0038 6FF00100 		mvn	r0, #1
 1971              	.LVL166:
 686:Drivers/BSP/IKS02A1/iks02a1_motion_sensors.c **** 
 1972              		.loc 1 686 1 view .LVU561
 1973 003c 7047     		bx	lr
 1974              	.LVL167:
 1975              	.L192:
 1976              		.cfi_def_cfa_offset 8
 1977              		.cfi_offset 3, -8
 1978              		.cfi_offset 14, -4
ARM GAS  C:\Temp\ccYwOtvn.s 			page 59


 681:Drivers/BSP/IKS02A1/iks02a1_motion_sensors.c ****     }
 1979              		.loc 1 681 11 view .LVU562
 1980 003e 6FF00100 		mvn	r0, #1
 1981              	.LVL168:
 685:Drivers/BSP/IKS02A1/iks02a1_motion_sensors.c **** }
 1982              		.loc 1 685 3 is_stmt 1 view .LVU563
 685:Drivers/BSP/IKS02A1/iks02a1_motion_sensors.c **** }
 1983              		.loc 1 685 10 is_stmt 0 view .LVU564
 1984 0042 F5E7     		b	.L189
 1985              	.L199:
 1986              		.align	2
 1987              	.L198:
 1988 0044 00000000 		.word	MotionCtx
 1989 0048 00000000 		.word	FunctionIndex
 1990 004c 00000000 		.word	MotionFuncDrv
 1991 0050 00000000 		.word	MotionCompObj
 1992              		.cfi_endproc
 1993              	.LFE145:
 1995              		.section	.text.IKS02A1_MOTION_SENSOR_SetFullScale,"ax",%progbits
 1996              		.align	1
 1997              		.global	IKS02A1_MOTION_SENSOR_SetFullScale
 1998              		.syntax unified
 1999              		.thumb
 2000              		.thumb_func
 2002              	IKS02A1_MOTION_SENSOR_SetFullScale:
 2003              	.LVL169:
 2004              	.LFB146:
 699:Drivers/BSP/IKS02A1/iks02a1_motion_sensors.c ****   int32_t ret;
 2005              		.loc 1 699 1 is_stmt 1 view -0
 2006              		.cfi_startproc
 2007              		@ args = 0, pretend = 0, frame = 0
 2008              		@ frame_needed = 0, uses_anonymous_args = 0
 700:Drivers/BSP/IKS02A1/iks02a1_motion_sensors.c **** 
 2009              		.loc 1 700 3 view .LVU566
 702:Drivers/BSP/IKS02A1/iks02a1_motion_sensors.c ****   {
 2010              		.loc 1 702 3 view .LVU567
 702:Drivers/BSP/IKS02A1/iks02a1_motion_sensors.c ****   {
 2011              		.loc 1 702 6 is_stmt 0 view .LVU568
 2012 0000 0228     		cmp	r0, #2
 2013 0002 1BD8     		bhi	.L202
 699:Drivers/BSP/IKS02A1/iks02a1_motion_sensors.c ****   int32_t ret;
 2014              		.loc 1 699 1 view .LVU569
 2015 0004 08B5     		push	{r3, lr}
 2016              		.cfi_def_cfa_offset 8
 2017              		.cfi_offset 3, -8
 2018              		.cfi_offset 14, -4
 2019 0006 0B46     		mov	r3, r1
 2020 0008 1146     		mov	r1, r2
 2021              	.LVL170:
 708:Drivers/BSP/IKS02A1/iks02a1_motion_sensors.c ****     {
 2022              		.loc 1 708 5 is_stmt 1 view .LVU570
 708:Drivers/BSP/IKS02A1/iks02a1_motion_sensors.c ****     {
 2023              		.loc 1 708 29 is_stmt 0 view .LVU571
 2024 000a 0F4A     		ldr	r2, .L209
 2025              	.LVL171:
 708:Drivers/BSP/IKS02A1/iks02a1_motion_sensors.c ****     {
 2026              		.loc 1 708 29 view .LVU572
ARM GAS  C:\Temp\ccYwOtvn.s 			page 60


 2027 000c 52F82020 		ldr	r2, [r2, r0, lsl #2]
 708:Drivers/BSP/IKS02A1/iks02a1_motion_sensors.c ****     {
 2028              		.loc 1 708 8 view .LVU573
 2029 0010 33EA0202 		bics	r2, r3, r2
 2030 0014 15D1     		bne	.L203
 710:Drivers/BSP/IKS02A1/iks02a1_motion_sensors.c ****                                                                          Fullscale) != BSP_ERROR_NO
 2031              		.loc 1 710 7 is_stmt 1 view .LVU574
 710:Drivers/BSP/IKS02A1/iks02a1_motion_sensors.c ****                                                                          Fullscale) != BSP_ERROR_NO
 2032              		.loc 1 710 48 is_stmt 0 view .LVU575
 2033 0016 0D4A     		ldr	r2, .L209+4
 2034 0018 52F82320 		ldr	r2, [r2, r3, lsl #2]
 710:Drivers/BSP/IKS02A1/iks02a1_motion_sensors.c ****                                                                          Fullscale) != BSP_ERROR_NO
 2035              		.loc 1 710 34 view .LVU576
 2036 001c 00EB4003 		add	r3, r0, r0, lsl #1
 2037              	.LVL172:
 710:Drivers/BSP/IKS02A1/iks02a1_motion_sensors.c ****                                                                          Fullscale) != BSP_ERROR_NO
 2038              		.loc 1 710 34 view .LVU577
 2039 0020 1344     		add	r3, r3, r2
 2040 0022 0B4A     		ldr	r2, .L209+8
 2041 0024 52F82330 		ldr	r3, [r2, r3, lsl #2]
 710:Drivers/BSP/IKS02A1/iks02a1_motion_sensors.c ****                                                                          Fullscale) != BSP_ERROR_NO
 2042              		.loc 1 710 59 view .LVU578
 2043 0028 9B69     		ldr	r3, [r3, #24]
 710:Drivers/BSP/IKS02A1/iks02a1_motion_sensors.c ****                                                                          Fullscale) != BSP_ERROR_NO
 2044              		.loc 1 710 11 view .LVU579
 2045 002a 0A4A     		ldr	r2, .L209+12
 2046 002c 52F82000 		ldr	r0, [r2, r0, lsl #2]
 2047              	.LVL173:
 710:Drivers/BSP/IKS02A1/iks02a1_motion_sensors.c ****                                                                          Fullscale) != BSP_ERROR_NO
 2048              		.loc 1 710 11 view .LVU580
 2049 0030 9847     		blx	r3
 2050              	.LVL174:
 710:Drivers/BSP/IKS02A1/iks02a1_motion_sensors.c ****                                                                          Fullscale) != BSP_ERROR_NO
 2051              		.loc 1 710 10 view .LVU581
 2052 0032 00B9     		cbnz	r0, .L208
 2053              	.L200:
 727:Drivers/BSP/IKS02A1/iks02a1_motion_sensors.c **** 
 2054              		.loc 1 727 1 view .LVU582
 2055 0034 08BD     		pop	{r3, pc}
 2056              	.L208:
 713:Drivers/BSP/IKS02A1/iks02a1_motion_sensors.c ****       }
 2057              		.loc 1 713 13 view .LVU583
 2058 0036 6FF00400 		mvn	r0, #4
 2059 003a FBE7     		b	.L200
 2060              	.LVL175:
 2061              	.L202:
 2062              		.cfi_def_cfa_offset 0
 2063              		.cfi_restore 3
 2064              		.cfi_restore 14
 704:Drivers/BSP/IKS02A1/iks02a1_motion_sensors.c ****   }
 2065              		.loc 1 704 9 view .LVU584
 2066 003c 6FF00100 		mvn	r0, #1
 2067              	.LVL176:
 727:Drivers/BSP/IKS02A1/iks02a1_motion_sensors.c **** 
 2068              		.loc 1 727 1 view .LVU585
 2069 0040 7047     		bx	lr
 2070              	.LVL177:
ARM GAS  C:\Temp\ccYwOtvn.s 			page 61


 2071              	.L203:
 2072              		.cfi_def_cfa_offset 8
 2073              		.cfi_offset 3, -8
 2074              		.cfi_offset 14, -4
 722:Drivers/BSP/IKS02A1/iks02a1_motion_sensors.c ****     }
 2075              		.loc 1 722 11 view .LVU586
 2076 0042 6FF00100 		mvn	r0, #1
 2077              	.LVL178:
 726:Drivers/BSP/IKS02A1/iks02a1_motion_sensors.c **** }
 2078              		.loc 1 726 3 is_stmt 1 view .LVU587
 726:Drivers/BSP/IKS02A1/iks02a1_motion_sensors.c **** }
 2079              		.loc 1 726 10 is_stmt 0 view .LVU588
 2080 0046 F5E7     		b	.L200
 2081              	.L210:
 2082              		.align	2
 2083              	.L209:
 2084 0048 00000000 		.word	MotionCtx
 2085 004c 00000000 		.word	FunctionIndex
 2086 0050 00000000 		.word	MotionFuncDrv
 2087 0054 00000000 		.word	MotionCompObj
 2088              		.cfi_endproc
 2089              	.LFE146:
 2091              		.section	.bss.iis2mdc_obj_0.0,"aw",%nobits
 2092              		.align	2
 2095              	iis2mdc_obj_0.0:
 2096 0000 00000000 		.space	52
 2096      00000000 
 2096      00000000 
 2096      00000000 
 2096      00000000 
 2097              		.section	.bss.iis2dlpc_obj_0.1,"aw",%nobits
 2098              		.align	2
 2101              	iis2dlpc_obj_0.1:
 2102 0000 00000000 		.space	60
 2102      00000000 
 2102      00000000 
 2102      00000000 
 2102      00000000 
 2103              		.section	.bss.ism330dhcx_obj_0.2,"aw",%nobits
 2104              		.align	2
 2107              	ism330dhcx_obj_0.2:
 2108 0000 00000000 		.space	56
 2108      00000000 
 2108      00000000 
 2108      00000000 
 2108      00000000 
 2109              		.section	.bss.MotionCtx,"aw",%nobits
 2110              		.align	2
 2113              	MotionCtx:
 2114 0000 00000000 		.space	12
 2114      00000000 
 2114      00000000 
 2115              		.section	.bss.MotionDrv,"aw",%nobits
 2116              		.align	2
 2119              	MotionDrv:
 2120 0000 00000000 		.space	12
 2120      00000000 
ARM GAS  C:\Temp\ccYwOtvn.s 			page 62


 2120      00000000 
 2121              		.section	.bss.MotionFuncDrv,"aw",%nobits
 2122              		.align	2
 2125              	MotionFuncDrv:
 2126 0000 00000000 		.space	36
 2126      00000000 
 2126      00000000 
 2126      00000000 
 2126      00000000 
 2127              		.section	.rodata.FunctionIndex,"a"
 2128              		.align	2
 2131              	FunctionIndex:
 2132 0000 00000000 		.word	0
 2133 0004 00000000 		.word	0
 2134 0008 01000000 		.word	1
 2135 000c 01000000 		.word	1
 2136 0010 02000000 		.word	2
 2137 0014 02000000 		.word	2
 2138 0018 02000000 		.word	2
 2139 001c 02000000 		.word	2
 2140 0020 03000000 		.word	3
 2141              		.global	MotionCompObj
 2142              		.section	.bss.MotionCompObj,"aw",%nobits
 2143              		.align	2
 2146              	MotionCompObj:
 2147 0000 00000000 		.space	12
 2147      00000000 
 2147      00000000 
 2148              		.text
 2149              	.Letext0:
 2150              		.file 2 "c:\\users\\jessejabezarendse\\appdata\\roaming\\code\\user\\globalstorage\\bmd.stm32-for-
 2151              		.file 3 "c:\\users\\jessejabezarendse\\appdata\\roaming\\code\\user\\globalstorage\\bmd.stm32-for-
 2152              		.file 4 "Drivers/BSP/Components/Common/motion_sensor.h"
 2153              		.file 5 "c:\\users\\jessejabezarendse\\appdata\\roaming\\code\\user\\globalstorage\\bmd.stm32-for-
 2154              		.file 6 "Drivers/BSP/Components/ism330dhcx/ism330dhcx_reg.h"
 2155              		.file 7 "Drivers/BSP/Components/ism330dhcx/ism330dhcx.h"
 2156              		.file 8 "Drivers/BSP/Components/iis2dlpc/iis2dlpc.h"
 2157              		.file 9 "Drivers/BSP/Components/iis2mdc/iis2mdc.h"
 2158              		.file 10 "Drivers/BSP/IKS02A1/iks02a1_motion_sensors.h"
 2159              		.file 11 "Core/Inc/stm32f4xx_nucleo_bus.h"
 2160              		.file 12 "Drivers/STM32F4xx_HAL_Driver/Inc/stm32f4xx_hal.h"
ARM GAS  C:\Temp\ccYwOtvn.s 			page 63

