ARM GAS  C:\Temp\cclPUGyV.s 			page 1


   1              		.cpu cortex-m4
   2              		.arch armv7e-m
   3              		.fpu fpv4-sp-d16
   4              		.eabi_attribute 27, 1
   5              		.eabi_attribute 28, 1
   6              		.eabi_attribute 20, 1
   7              		.eabi_attribute 21, 1
   8              		.eabi_attribute 23, 3
   9              		.eabi_attribute 24, 1
  10              		.eabi_attribute 25, 1
  11              		.eabi_attribute 26, 1
  12              		.eabi_attribute 30, 1
  13              		.eabi_attribute 34, 1
  14              		.eabi_attribute 18, 4
  15              		.file	"ism330dhcx_reg.c"
  16              		.text
  17              		.section	.text.ism330dhcx_read_reg,"ax",%progbits
  18              		.align	1
  19              		.weak	ism330dhcx_read_reg
  20              		.syntax unified
  21              		.thumb
  22              		.thumb_func
  24              	ism330dhcx_read_reg:
  25              		@ args = 0, pretend = 0, frame = 0
  26              		@ frame_needed = 0, uses_anonymous_args = 0
  27 0000 20B1     		cbz	r0, .L3
  28 0002 10B5     		push	{r4, lr}
  29 0004 4468     		ldr	r4, [r0, #4]
  30 0006 C068     		ldr	r0, [r0, #12]
  31 0008 A047     		blx	r4
  32 000a 10BD     		pop	{r4, pc}
  33              	.L3:
  34 000c 4FF0FF30 		mov	r0, #-1
  35 0010 7047     		bx	lr
  37              		.section	.text.ism330dhcx_write_reg,"ax",%progbits
  38              		.align	1
  39              		.weak	ism330dhcx_write_reg
  40              		.syntax unified
  41              		.thumb
  42              		.thumb_func
  44              	ism330dhcx_write_reg:
  45              		@ args = 0, pretend = 0, frame = 0
  46              		@ frame_needed = 0, uses_anonymous_args = 0
  47 0000 20B1     		cbz	r0, .L10
  48 0002 10B5     		push	{r4, lr}
  49 0004 0468     		ldr	r4, [r0]
  50 0006 C068     		ldr	r0, [r0, #12]
  51 0008 A047     		blx	r4
  52 000a 10BD     		pop	{r4, pc}
  53              	.L10:
  54 000c 4FF0FF30 		mov	r0, #-1
  55 0010 7047     		bx	lr
  57              		.section	.text.ism330dhcx_from_fs2g_to_mg,"ax",%progbits
  58              		.align	1
  59              		.global	ism330dhcx_from_fs2g_to_mg
  60              		.syntax unified
  61              		.thumb
ARM GAS  C:\Temp\cclPUGyV.s 			page 2


  62              		.thumb_func
  64              	ism330dhcx_from_fs2g_to_mg:
  65              		@ args = 0, pretend = 0, frame = 0
  66              		@ frame_needed = 0, uses_anonymous_args = 0
  67              		@ link register save eliminated.
  68 0000 07EE900A 		vmov	s15, r0	@ int
  69 0004 F8EEE77A 		vcvt.f32.s32	s15, s15
  70 0008 9FED020A 		vldr.32	s0, .L16
  71 000c 27EE800A 		vmul.f32	s0, s15, s0
  72 0010 7047     		bx	lr
  73              	.L17:
  74 0012 00BF     		.align	2
  75              	.L16:
  76 0014 23DB793D 		.word	1031396131
  78              		.section	.text.ism330dhcx_from_fs4g_to_mg,"ax",%progbits
  79              		.align	1
  80              		.global	ism330dhcx_from_fs4g_to_mg
  81              		.syntax unified
  82              		.thumb
  83              		.thumb_func
  85              	ism330dhcx_from_fs4g_to_mg:
  86              		@ args = 0, pretend = 0, frame = 0
  87              		@ frame_needed = 0, uses_anonymous_args = 0
  88              		@ link register save eliminated.
  89 0000 07EE900A 		vmov	s15, r0	@ int
  90 0004 F8EEE77A 		vcvt.f32.s32	s15, s15
  91 0008 9FED020A 		vldr.32	s0, .L19
  92 000c 27EE800A 		vmul.f32	s0, s15, s0
  93 0010 7047     		bx	lr
  94              	.L20:
  95 0012 00BF     		.align	2
  96              	.L19:
  97 0014 23DBF93D 		.word	1039784739
  99              		.section	.text.ism330dhcx_from_fs8g_to_mg,"ax",%progbits
 100              		.align	1
 101              		.global	ism330dhcx_from_fs8g_to_mg
 102              		.syntax unified
 103              		.thumb
 104              		.thumb_func
 106              	ism330dhcx_from_fs8g_to_mg:
 107              		@ args = 0, pretend = 0, frame = 0
 108              		@ frame_needed = 0, uses_anonymous_args = 0
 109              		@ link register save eliminated.
 110 0000 07EE900A 		vmov	s15, r0	@ int
 111 0004 F8EEE77A 		vcvt.f32.s32	s15, s15
 112 0008 9FED020A 		vldr.32	s0, .L22
 113 000c 27EE800A 		vmul.f32	s0, s15, s0
 114 0010 7047     		bx	lr
 115              	.L23:
 116 0012 00BF     		.align	2
 117              	.L22:
 118 0014 23DB793E 		.word	1048173347
 120              		.section	.text.ism330dhcx_from_fs16g_to_mg,"ax",%progbits
 121              		.align	1
 122              		.global	ism330dhcx_from_fs16g_to_mg
 123              		.syntax unified
 124              		.thumb
ARM GAS  C:\Temp\cclPUGyV.s 			page 3


 125              		.thumb_func
 127              	ism330dhcx_from_fs16g_to_mg:
 128              		@ args = 0, pretend = 0, frame = 0
 129              		@ frame_needed = 0, uses_anonymous_args = 0
 130              		@ link register save eliminated.
 131 0000 07EE900A 		vmov	s15, r0	@ int
 132 0004 F8EEE77A 		vcvt.f32.s32	s15, s15
 133 0008 9FED020A 		vldr.32	s0, .L25
 134 000c 27EE800A 		vmul.f32	s0, s15, s0
 135 0010 7047     		bx	lr
 136              	.L26:
 137 0012 00BF     		.align	2
 138              	.L25:
 139 0014 23DBF93E 		.word	1056561955
 141              		.section	.text.ism330dhcx_from_fs125dps_to_mdps,"ax",%progbits
 142              		.align	1
 143              		.global	ism330dhcx_from_fs125dps_to_mdps
 144              		.syntax unified
 145              		.thumb
 146              		.thumb_func
 148              	ism330dhcx_from_fs125dps_to_mdps:
 149              		@ args = 0, pretend = 0, frame = 0
 150              		@ frame_needed = 0, uses_anonymous_args = 0
 151              		@ link register save eliminated.
 152 0000 07EE900A 		vmov	s15, r0	@ int
 153 0004 F8EEE77A 		vcvt.f32.s32	s15, s15
 154 0008 9FED020A 		vldr.32	s0, .L28
 155 000c 27EE800A 		vmul.f32	s0, s15, s0
 156 0010 7047     		bx	lr
 157              	.L29:
 158 0012 00BF     		.align	2
 159              	.L28:
 160 0014 00008C40 		.word	1082916864
 162              		.section	.text.ism330dhcx_from_fs250dps_to_mdps,"ax",%progbits
 163              		.align	1
 164              		.global	ism330dhcx_from_fs250dps_to_mdps
 165              		.syntax unified
 166              		.thumb
 167              		.thumb_func
 169              	ism330dhcx_from_fs250dps_to_mdps:
 170              		@ args = 0, pretend = 0, frame = 0
 171              		@ frame_needed = 0, uses_anonymous_args = 0
 172              		@ link register save eliminated.
 173 0000 07EE900A 		vmov	s15, r0	@ int
 174 0004 F8EEE77A 		vcvt.f32.s32	s15, s15
 175 0008 9FED020A 		vldr.32	s0, .L31
 176 000c 27EE800A 		vmul.f32	s0, s15, s0
 177 0010 7047     		bx	lr
 178              	.L32:
 179 0012 00BF     		.align	2
 180              	.L31:
 181 0014 00000C41 		.word	1091305472
 183              		.section	.text.ism330dhcx_from_fs500dps_to_mdps,"ax",%progbits
 184              		.align	1
 185              		.global	ism330dhcx_from_fs500dps_to_mdps
 186              		.syntax unified
 187              		.thumb
ARM GAS  C:\Temp\cclPUGyV.s 			page 4


 188              		.thumb_func
 190              	ism330dhcx_from_fs500dps_to_mdps:
 191              		@ args = 0, pretend = 0, frame = 0
 192              		@ frame_needed = 0, uses_anonymous_args = 0
 193              		@ link register save eliminated.
 194 0000 07EE900A 		vmov	s15, r0	@ int
 195 0004 F8EEE77A 		vcvt.f32.s32	s15, s15
 196 0008 9FED020A 		vldr.32	s0, .L34
 197 000c 27EE800A 		vmul.f32	s0, s15, s0
 198 0010 7047     		bx	lr
 199              	.L35:
 200 0012 00BF     		.align	2
 201              	.L34:
 202 0014 00008C41 		.word	1099694080
 204              		.section	.text.ism330dhcx_from_fs1000dps_to_mdps,"ax",%progbits
 205              		.align	1
 206              		.global	ism330dhcx_from_fs1000dps_to_mdps
 207              		.syntax unified
 208              		.thumb
 209              		.thumb_func
 211              	ism330dhcx_from_fs1000dps_to_mdps:
 212              		@ args = 0, pretend = 0, frame = 0
 213              		@ frame_needed = 0, uses_anonymous_args = 0
 214              		@ link register save eliminated.
 215 0000 07EE900A 		vmov	s15, r0	@ int
 216 0004 F8EEE77A 		vcvt.f32.s32	s15, s15
 217 0008 9FED020A 		vldr.32	s0, .L37
 218 000c 27EE800A 		vmul.f32	s0, s15, s0
 219 0010 7047     		bx	lr
 220              	.L38:
 221 0012 00BF     		.align	2
 222              	.L37:
 223 0014 00000C42 		.word	1108082688
 225              		.section	.text.ism330dhcx_from_fs2000dps_to_mdps,"ax",%progbits
 226              		.align	1
 227              		.global	ism330dhcx_from_fs2000dps_to_mdps
 228              		.syntax unified
 229              		.thumb
 230              		.thumb_func
 232              	ism330dhcx_from_fs2000dps_to_mdps:
 233              		@ args = 0, pretend = 0, frame = 0
 234              		@ frame_needed = 0, uses_anonymous_args = 0
 235              		@ link register save eliminated.
 236 0000 07EE900A 		vmov	s15, r0	@ int
 237 0004 F8EEE77A 		vcvt.f32.s32	s15, s15
 238 0008 9FED020A 		vldr.32	s0, .L40
 239 000c 27EE800A 		vmul.f32	s0, s15, s0
 240 0010 7047     		bx	lr
 241              	.L41:
 242 0012 00BF     		.align	2
 243              	.L40:
 244 0014 00008C42 		.word	1116471296
 246              		.section	.text.ism330dhcx_from_fs4000dps_to_mdps,"ax",%progbits
 247              		.align	1
 248              		.global	ism330dhcx_from_fs4000dps_to_mdps
 249              		.syntax unified
 250              		.thumb
ARM GAS  C:\Temp\cclPUGyV.s 			page 5


 251              		.thumb_func
 253              	ism330dhcx_from_fs4000dps_to_mdps:
 254              		@ args = 0, pretend = 0, frame = 0
 255              		@ frame_needed = 0, uses_anonymous_args = 0
 256              		@ link register save eliminated.
 257 0000 07EE900A 		vmov	s15, r0	@ int
 258 0004 F8EEE77A 		vcvt.f32.s32	s15, s15
 259 0008 9FED020A 		vldr.32	s0, .L43
 260 000c 27EE800A 		vmul.f32	s0, s15, s0
 261 0010 7047     		bx	lr
 262              	.L44:
 263 0012 00BF     		.align	2
 264              	.L43:
 265 0014 00000C43 		.word	1124859904
 267              		.section	.text.ism330dhcx_from_lsb_to_celsius,"ax",%progbits
 268              		.align	1
 269              		.global	ism330dhcx_from_lsb_to_celsius
 270              		.syntax unified
 271              		.thumb
 272              		.thumb_func
 274              	ism330dhcx_from_lsb_to_celsius:
 275              		@ args = 0, pretend = 0, frame = 0
 276              		@ frame_needed = 0, uses_anonymous_args = 0
 277              		@ link register save eliminated.
 278 0000 07EE900A 		vmov	s15, r0	@ int
 279 0004 F8EEE77A 		vcvt.f32.s32	s15, s15
 280 0008 9FED047A 		vldr.32	s14, .L46
 281 000c 67EE877A 		vmul.f32	s15, s15, s14
 282 0010 B3EE090A 		vmov.f32	s0, #2.5e+1
 283 0014 37EE800A 		vadd.f32	s0, s15, s0
 284 0018 7047     		bx	lr
 285              	.L47:
 286 001a 00BF     		.align	2
 287              	.L46:
 288 001c 0000803B 		.word	998244352
 290              		.section	.text.ism330dhcx_from_lsb_to_nsec,"ax",%progbits
 291              		.align	1
 292              		.global	ism330dhcx_from_lsb_to_nsec
 293              		.syntax unified
 294              		.thumb
 295              		.thumb_func
 297              	ism330dhcx_from_lsb_to_nsec:
 298              		@ args = 0, pretend = 0, frame = 0
 299              		@ frame_needed = 0, uses_anonymous_args = 0
 300              		@ link register save eliminated.
 301 0000 46F2A811 		movw	r1, #25000
 302 0004 A0FB0101 		umull	r0, r1, r0, r1
 303 0008 7047     		bx	lr
 305              		.section	.text.ism330dhcx_xl_full_scale_set,"ax",%progbits
 306              		.align	1
 307              		.global	ism330dhcx_xl_full_scale_set
 308              		.syntax unified
 309              		.thumb
 310              		.thumb_func
 312              	ism330dhcx_xl_full_scale_set:
 313              		@ args = 0, pretend = 0, frame = 8
 314              		@ frame_needed = 0, uses_anonymous_args = 0
ARM GAS  C:\Temp\cclPUGyV.s 			page 6


 315 0000 30B5     		push	{r4, r5, lr}
 316 0002 83B0     		sub	sp, sp, #12
 317 0004 0446     		mov	r4, r0
 318 0006 0D46     		mov	r5, r1
 319 0008 0123     		movs	r3, #1
 320 000a 01AA     		add	r2, sp, #4
 321 000c 1021     		movs	r1, #16
 322 000e FFF7FEFF 		bl	ism330dhcx_read_reg
 323 0012 08B1     		cbz	r0, .L52
 324              	.L49:
 325 0014 03B0     		add	sp, sp, #12
 326              		@ sp needed
 327 0016 30BD     		pop	{r4, r5, pc}
 328              	.L52:
 329 0018 9DF80430 		ldrb	r3, [sp, #4]	@ zero_extendqisi2
 330 001c 65F38303 		bfi	r3, r5, #2, #2
 331 0020 8DF80430 		strb	r3, [sp, #4]
 332 0024 0123     		movs	r3, #1
 333 0026 01AA     		add	r2, sp, #4
 334 0028 1021     		movs	r1, #16
 335 002a 2046     		mov	r0, r4
 336 002c FFF7FEFF 		bl	ism330dhcx_write_reg
 337 0030 F0E7     		b	.L49
 339              		.section	.text.ism330dhcx_xl_full_scale_get,"ax",%progbits
 340              		.align	1
 341              		.global	ism330dhcx_xl_full_scale_get
 342              		.syntax unified
 343              		.thumb
 344              		.thumb_func
 346              	ism330dhcx_xl_full_scale_get:
 347              		@ args = 0, pretend = 0, frame = 8
 348              		@ frame_needed = 0, uses_anonymous_args = 0
 349 0000 10B5     		push	{r4, lr}
 350 0002 82B0     		sub	sp, sp, #8
 351 0004 0C46     		mov	r4, r1
 352 0006 0123     		movs	r3, #1
 353 0008 01AA     		add	r2, sp, #4
 354 000a 1021     		movs	r1, #16
 355 000c FFF7FEFF 		bl	ism330dhcx_read_reg
 356 0010 9DF80430 		ldrb	r3, [sp, #4]	@ zero_extendqisi2
 357 0014 C3F38103 		ubfx	r3, r3, #2, #2
 358 0018 032B     		cmp	r3, #3
 359 001a 10D8     		bhi	.L54
 360 001c DFE803F0 		tbb	[pc, r3]
 361              	.L56:
 362 0020 02       		.byte	(.L59-.L56)/2
 363 0021 06       		.byte	(.L58-.L56)/2
 364 0022 09       		.byte	(.L57-.L56)/2
 365 0023 0C       		.byte	(.L55-.L56)/2
 366              		.p2align 1
 367              	.L59:
 368 0024 0023     		movs	r3, #0
 369 0026 2370     		strb	r3, [r4]
 370              	.L53:
 371 0028 02B0     		add	sp, sp, #8
 372              		@ sp needed
 373 002a 10BD     		pop	{r4, pc}
ARM GAS  C:\Temp\cclPUGyV.s 			page 7


 374              	.L58:
 375 002c 0123     		movs	r3, #1
 376 002e 2370     		strb	r3, [r4]
 377 0030 FAE7     		b	.L53
 378              	.L57:
 379 0032 0223     		movs	r3, #2
 380 0034 2370     		strb	r3, [r4]
 381 0036 F7E7     		b	.L53
 382              	.L55:
 383 0038 0323     		movs	r3, #3
 384 003a 2370     		strb	r3, [r4]
 385 003c F4E7     		b	.L53
 386              	.L54:
 387 003e 0023     		movs	r3, #0
 388 0040 2370     		strb	r3, [r4]
 389 0042 F1E7     		b	.L53
 391              		.section	.text.ism330dhcx_xl_data_rate_get,"ax",%progbits
 392              		.align	1
 393              		.global	ism330dhcx_xl_data_rate_get
 394              		.syntax unified
 395              		.thumb
 396              		.thumb_func
 398              	ism330dhcx_xl_data_rate_get:
 399              		@ args = 0, pretend = 0, frame = 8
 400              		@ frame_needed = 0, uses_anonymous_args = 0
 401 0000 10B5     		push	{r4, lr}
 402 0002 82B0     		sub	sp, sp, #8
 403 0004 0C46     		mov	r4, r1
 404 0006 0123     		movs	r3, #1
 405 0008 01AA     		add	r2, sp, #4
 406 000a 1021     		movs	r1, #16
 407 000c FFF7FEFF 		bl	ism330dhcx_read_reg
 408 0010 9DF80430 		ldrb	r3, [sp, #4]	@ zero_extendqisi2
 409 0014 1B09     		lsrs	r3, r3, #4
 410 0016 0B2B     		cmp	r3, #11
 411 0018 2CD8     		bhi	.L63
 412 001a DFE803F0 		tbb	[pc, r3]
 413              	.L65:
 414 001e 06       		.byte	(.L76-.L65)/2
 415 001f 0A       		.byte	(.L75-.L65)/2
 416 0020 0D       		.byte	(.L74-.L65)/2
 417 0021 10       		.byte	(.L73-.L65)/2
 418 0022 13       		.byte	(.L72-.L65)/2
 419 0023 16       		.byte	(.L71-.L65)/2
 420 0024 19       		.byte	(.L70-.L65)/2
 421 0025 1C       		.byte	(.L69-.L65)/2
 422 0026 1F       		.byte	(.L68-.L65)/2
 423 0027 22       		.byte	(.L67-.L65)/2
 424 0028 25       		.byte	(.L66-.L65)/2
 425 0029 28       		.byte	(.L64-.L65)/2
 426              		.p2align 1
 427              	.L76:
 428 002a 0023     		movs	r3, #0
 429 002c 2370     		strb	r3, [r4]
 430              	.L62:
 431 002e 02B0     		add	sp, sp, #8
 432              		@ sp needed
ARM GAS  C:\Temp\cclPUGyV.s 			page 8


 433 0030 10BD     		pop	{r4, pc}
 434              	.L75:
 435 0032 0123     		movs	r3, #1
 436 0034 2370     		strb	r3, [r4]
 437 0036 FAE7     		b	.L62
 438              	.L74:
 439 0038 0223     		movs	r3, #2
 440 003a 2370     		strb	r3, [r4]
 441 003c F7E7     		b	.L62
 442              	.L73:
 443 003e 0323     		movs	r3, #3
 444 0040 2370     		strb	r3, [r4]
 445 0042 F4E7     		b	.L62
 446              	.L72:
 447 0044 0423     		movs	r3, #4
 448 0046 2370     		strb	r3, [r4]
 449 0048 F1E7     		b	.L62
 450              	.L71:
 451 004a 0523     		movs	r3, #5
 452 004c 2370     		strb	r3, [r4]
 453 004e EEE7     		b	.L62
 454              	.L70:
 455 0050 0623     		movs	r3, #6
 456 0052 2370     		strb	r3, [r4]
 457 0054 EBE7     		b	.L62
 458              	.L69:
 459 0056 0723     		movs	r3, #7
 460 0058 2370     		strb	r3, [r4]
 461 005a E8E7     		b	.L62
 462              	.L68:
 463 005c 0823     		movs	r3, #8
 464 005e 2370     		strb	r3, [r4]
 465 0060 E5E7     		b	.L62
 466              	.L67:
 467 0062 0923     		movs	r3, #9
 468 0064 2370     		strb	r3, [r4]
 469 0066 E2E7     		b	.L62
 470              	.L66:
 471 0068 0A23     		movs	r3, #10
 472 006a 2370     		strb	r3, [r4]
 473 006c DFE7     		b	.L62
 474              	.L64:
 475 006e 0B23     		movs	r3, #11
 476 0070 2370     		strb	r3, [r4]
 477 0072 DCE7     		b	.L62
 478              	.L63:
 479 0074 0023     		movs	r3, #0
 480 0076 2370     		strb	r3, [r4]
 481 0078 D9E7     		b	.L62
 483              		.section	.text.ism330dhcx_gy_full_scale_set,"ax",%progbits
 484              		.align	1
 485              		.global	ism330dhcx_gy_full_scale_set
 486              		.syntax unified
 487              		.thumb
 488              		.thumb_func
 490              	ism330dhcx_gy_full_scale_set:
 491              		@ args = 0, pretend = 0, frame = 8
ARM GAS  C:\Temp\cclPUGyV.s 			page 9


 492              		@ frame_needed = 0, uses_anonymous_args = 0
 493 0000 30B5     		push	{r4, r5, lr}
 494 0002 83B0     		sub	sp, sp, #12
 495 0004 0446     		mov	r4, r0
 496 0006 0D46     		mov	r5, r1
 497 0008 0123     		movs	r3, #1
 498 000a 01AA     		add	r2, sp, #4
 499 000c 1121     		movs	r1, #17
 500 000e FFF7FEFF 		bl	ism330dhcx_read_reg
 501 0012 08B1     		cbz	r0, .L82
 502              	.L79:
 503 0014 03B0     		add	sp, sp, #12
 504              		@ sp needed
 505 0016 30BD     		pop	{r4, r5, pc}
 506              	.L82:
 507 0018 9DF80430 		ldrb	r3, [sp, #4]	@ zero_extendqisi2
 508 001c 65F30303 		bfi	r3, r5, #0, #4
 509 0020 8DF80430 		strb	r3, [sp, #4]
 510 0024 0123     		movs	r3, #1
 511 0026 01AA     		add	r2, sp, #4
 512 0028 1121     		movs	r1, #17
 513 002a 2046     		mov	r0, r4
 514 002c FFF7FEFF 		bl	ism330dhcx_write_reg
 515 0030 F0E7     		b	.L79
 517              		.section	.text.ism330dhcx_gy_full_scale_get,"ax",%progbits
 518              		.align	1
 519              		.global	ism330dhcx_gy_full_scale_get
 520              		.syntax unified
 521              		.thumb
 522              		.thumb_func
 524              	ism330dhcx_gy_full_scale_get:
 525              		@ args = 0, pretend = 0, frame = 8
 526              		@ frame_needed = 0, uses_anonymous_args = 0
 527 0000 10B5     		push	{r4, lr}
 528 0002 82B0     		sub	sp, sp, #8
 529 0004 0C46     		mov	r4, r1
 530 0006 0123     		movs	r3, #1
 531 0008 01AA     		add	r2, sp, #4
 532 000a 1121     		movs	r1, #17
 533 000c FFF7FEFF 		bl	ism330dhcx_read_reg
 534 0010 9DF80430 		ldrb	r3, [sp, #4]	@ zero_extendqisi2
 535 0014 03F00F03 		and	r3, r3, #15
 536 0018 0C2B     		cmp	r3, #12
 537 001a 1BD8     		bhi	.L84
 538 001c DFE803F0 		tbb	[pc, r3]
 539              	.L86:
 540 0020 0B       		.byte	(.L91-.L86)/2
 541 0021 17       		.byte	(.L90-.L86)/2
 542 0022 07       		.byte	(.L89-.L86)/2
 543 0023 1A       		.byte	(.L84-.L86)/2
 544 0024 0E       		.byte	(.L88-.L86)/2
 545 0025 1A       		.byte	(.L84-.L86)/2
 546 0026 1A       		.byte	(.L84-.L86)/2
 547 0027 1A       		.byte	(.L84-.L86)/2
 548 0028 11       		.byte	(.L87-.L86)/2
 549 0029 1A       		.byte	(.L84-.L86)/2
 550 002a 1A       		.byte	(.L84-.L86)/2
ARM GAS  C:\Temp\cclPUGyV.s 			page 10


 551 002b 1A       		.byte	(.L84-.L86)/2
 552 002c 14       		.byte	(.L85-.L86)/2
 553 002d 00       		.p2align 1
 554              	.L89:
 555 002e 0223     		movs	r3, #2
 556 0030 2370     		strb	r3, [r4]
 557              	.L83:
 558 0032 02B0     		add	sp, sp, #8
 559              		@ sp needed
 560 0034 10BD     		pop	{r4, pc}
 561              	.L91:
 562 0036 0023     		movs	r3, #0
 563 0038 2370     		strb	r3, [r4]
 564 003a FAE7     		b	.L83
 565              	.L88:
 566 003c 0423     		movs	r3, #4
 567 003e 2370     		strb	r3, [r4]
 568 0040 F7E7     		b	.L83
 569              	.L87:
 570 0042 0823     		movs	r3, #8
 571 0044 2370     		strb	r3, [r4]
 572 0046 F4E7     		b	.L83
 573              	.L85:
 574 0048 0C23     		movs	r3, #12
 575 004a 2370     		strb	r3, [r4]
 576 004c F1E7     		b	.L83
 577              	.L90:
 578 004e 0123     		movs	r3, #1
 579 0050 2370     		strb	r3, [r4]
 580 0052 EEE7     		b	.L83
 581              	.L84:
 582 0054 0223     		movs	r3, #2
 583 0056 2370     		strb	r3, [r4]
 584 0058 EBE7     		b	.L83
 586              		.section	.text.ism330dhcx_gy_data_rate_get,"ax",%progbits
 587              		.align	1
 588              		.global	ism330dhcx_gy_data_rate_get
 589              		.syntax unified
 590              		.thumb
 591              		.thumb_func
 593              	ism330dhcx_gy_data_rate_get:
 594              		@ args = 0, pretend = 0, frame = 8
 595              		@ frame_needed = 0, uses_anonymous_args = 0
 596 0000 10B5     		push	{r4, lr}
 597 0002 82B0     		sub	sp, sp, #8
 598 0004 0C46     		mov	r4, r1
 599 0006 0123     		movs	r3, #1
 600 0008 01AA     		add	r2, sp, #4
 601 000a 1121     		movs	r1, #17
 602 000c FFF7FEFF 		bl	ism330dhcx_read_reg
 603 0010 9DF80430 		ldrb	r3, [sp, #4]	@ zero_extendqisi2
 604 0014 1B09     		lsrs	r3, r3, #4
 605 0016 0A2B     		cmp	r3, #10
 606 0018 29D8     		bhi	.L95
 607 001a DFE803F0 		tbb	[pc, r3]
 608              	.L97:
 609 001e 06       		.byte	(.L107-.L97)/2
ARM GAS  C:\Temp\cclPUGyV.s 			page 11


 610 001f 0A       		.byte	(.L106-.L97)/2
 611 0020 0D       		.byte	(.L105-.L97)/2
 612 0021 10       		.byte	(.L104-.L97)/2
 613 0022 13       		.byte	(.L103-.L97)/2
 614 0023 16       		.byte	(.L102-.L97)/2
 615 0024 19       		.byte	(.L101-.L97)/2
 616 0025 1C       		.byte	(.L100-.L97)/2
 617 0026 1F       		.byte	(.L99-.L97)/2
 618 0027 22       		.byte	(.L98-.L97)/2
 619 0028 25       		.byte	(.L96-.L97)/2
 620 0029 00       		.p2align 1
 621              	.L107:
 622 002a 0023     		movs	r3, #0
 623 002c 2370     		strb	r3, [r4]
 624              	.L94:
 625 002e 02B0     		add	sp, sp, #8
 626              		@ sp needed
 627 0030 10BD     		pop	{r4, pc}
 628              	.L106:
 629 0032 0123     		movs	r3, #1
 630 0034 2370     		strb	r3, [r4]
 631 0036 FAE7     		b	.L94
 632              	.L105:
 633 0038 0223     		movs	r3, #2
 634 003a 2370     		strb	r3, [r4]
 635 003c F7E7     		b	.L94
 636              	.L104:
 637 003e 0323     		movs	r3, #3
 638 0040 2370     		strb	r3, [r4]
 639 0042 F4E7     		b	.L94
 640              	.L103:
 641 0044 0423     		movs	r3, #4
 642 0046 2370     		strb	r3, [r4]
 643 0048 F1E7     		b	.L94
 644              	.L102:
 645 004a 0523     		movs	r3, #5
 646 004c 2370     		strb	r3, [r4]
 647 004e EEE7     		b	.L94
 648              	.L101:
 649 0050 0623     		movs	r3, #6
 650 0052 2370     		strb	r3, [r4]
 651 0054 EBE7     		b	.L94
 652              	.L100:
 653 0056 0723     		movs	r3, #7
 654 0058 2370     		strb	r3, [r4]
 655 005a E8E7     		b	.L94
 656              	.L99:
 657 005c 0823     		movs	r3, #8
 658 005e 2370     		strb	r3, [r4]
 659 0060 E5E7     		b	.L94
 660              	.L98:
 661 0062 0923     		movs	r3, #9
 662 0064 2370     		strb	r3, [r4]
 663 0066 E2E7     		b	.L94
 664              	.L96:
 665 0068 0A23     		movs	r3, #10
 666 006a 2370     		strb	r3, [r4]
ARM GAS  C:\Temp\cclPUGyV.s 			page 12


 667 006c DFE7     		b	.L94
 668              	.L95:
 669 006e 0023     		movs	r3, #0
 670 0070 2370     		strb	r3, [r4]
 671 0072 DCE7     		b	.L94
 673              		.section	.text.ism330dhcx_block_data_update_set,"ax",%progbits
 674              		.align	1
 675              		.global	ism330dhcx_block_data_update_set
 676              		.syntax unified
 677              		.thumb
 678              		.thumb_func
 680              	ism330dhcx_block_data_update_set:
 681              		@ args = 0, pretend = 0, frame = 8
 682              		@ frame_needed = 0, uses_anonymous_args = 0
 683 0000 30B5     		push	{r4, r5, lr}
 684 0002 83B0     		sub	sp, sp, #12
 685 0004 0446     		mov	r4, r0
 686 0006 0D46     		mov	r5, r1
 687 0008 0123     		movs	r3, #1
 688 000a 01AA     		add	r2, sp, #4
 689 000c 1221     		movs	r1, #18
 690 000e FFF7FEFF 		bl	ism330dhcx_read_reg
 691 0012 08B1     		cbz	r0, .L113
 692              	.L110:
 693 0014 03B0     		add	sp, sp, #12
 694              		@ sp needed
 695 0016 30BD     		pop	{r4, r5, pc}
 696              	.L113:
 697 0018 9DF80430 		ldrb	r3, [sp, #4]	@ zero_extendqisi2
 698 001c 65F38613 		bfi	r3, r5, #6, #1
 699 0020 8DF80430 		strb	r3, [sp, #4]
 700 0024 0123     		movs	r3, #1
 701 0026 01AA     		add	r2, sp, #4
 702 0028 1221     		movs	r1, #18
 703 002a 2046     		mov	r0, r4
 704 002c FFF7FEFF 		bl	ism330dhcx_write_reg
 705 0030 F0E7     		b	.L110
 707              		.section	.text.ism330dhcx_block_data_update_get,"ax",%progbits
 708              		.align	1
 709              		.global	ism330dhcx_block_data_update_get
 710              		.syntax unified
 711              		.thumb
 712              		.thumb_func
 714              	ism330dhcx_block_data_update_get:
 715              		@ args = 0, pretend = 0, frame = 8
 716              		@ frame_needed = 0, uses_anonymous_args = 0
 717 0000 10B5     		push	{r4, lr}
 718 0002 82B0     		sub	sp, sp, #8
 719 0004 0C46     		mov	r4, r1
 720 0006 0123     		movs	r3, #1
 721 0008 01AA     		add	r2, sp, #4
 722 000a 1221     		movs	r1, #18
 723 000c FFF7FEFF 		bl	ism330dhcx_read_reg
 724 0010 9DF80430 		ldrb	r3, [sp, #4]	@ zero_extendqisi2
 725 0014 C3F38013 		ubfx	r3, r3, #6, #1
 726 0018 2370     		strb	r3, [r4]
 727 001a 02B0     		add	sp, sp, #8
ARM GAS  C:\Temp\cclPUGyV.s 			page 13


 728              		@ sp needed
 729 001c 10BD     		pop	{r4, pc}
 731              		.section	.text.ism330dhcx_xl_offset_weight_set,"ax",%progbits
 732              		.align	1
 733              		.global	ism330dhcx_xl_offset_weight_set
 734              		.syntax unified
 735              		.thumb
 736              		.thumb_func
 738              	ism330dhcx_xl_offset_weight_set:
 739              		@ args = 0, pretend = 0, frame = 8
 740              		@ frame_needed = 0, uses_anonymous_args = 0
 741 0000 30B5     		push	{r4, r5, lr}
 742 0002 83B0     		sub	sp, sp, #12
 743 0004 0446     		mov	r4, r0
 744 0006 0D46     		mov	r5, r1
 745 0008 0123     		movs	r3, #1
 746 000a 01AA     		add	r2, sp, #4
 747 000c 1521     		movs	r1, #21
 748 000e FFF7FEFF 		bl	ism330dhcx_read_reg
 749 0012 08B1     		cbz	r0, .L119
 750              	.L116:
 751 0014 03B0     		add	sp, sp, #12
 752              		@ sp needed
 753 0016 30BD     		pop	{r4, r5, pc}
 754              	.L119:
 755 0018 9DF80430 		ldrb	r3, [sp, #4]	@ zero_extendqisi2
 756 001c 65F3C303 		bfi	r3, r5, #3, #1
 757 0020 8DF80430 		strb	r3, [sp, #4]
 758 0024 0123     		movs	r3, #1
 759 0026 01AA     		add	r2, sp, #4
 760 0028 1521     		movs	r1, #21
 761 002a 2046     		mov	r0, r4
 762 002c FFF7FEFF 		bl	ism330dhcx_write_reg
 763 0030 F0E7     		b	.L116
 765              		.section	.text.ism330dhcx_xl_offset_weight_get,"ax",%progbits
 766              		.align	1
 767              		.global	ism330dhcx_xl_offset_weight_get
 768              		.syntax unified
 769              		.thumb
 770              		.thumb_func
 772              	ism330dhcx_xl_offset_weight_get:
 773              		@ args = 0, pretend = 0, frame = 8
 774              		@ frame_needed = 0, uses_anonymous_args = 0
 775 0000 10B5     		push	{r4, lr}
 776 0002 82B0     		sub	sp, sp, #8
 777 0004 0C46     		mov	r4, r1
 778 0006 0123     		movs	r3, #1
 779 0008 01AA     		add	r2, sp, #4
 780 000a 1521     		movs	r1, #21
 781 000c FFF7FEFF 		bl	ism330dhcx_read_reg
 782 0010 9DF80430 		ldrb	r3, [sp, #4]	@ zero_extendqisi2
 783 0014 C3F3C002 		ubfx	r2, r3, #3, #1
 784 0018 13F0080F 		tst	r3, #8
 785 001c 03D0     		beq	.L121
 786 001e 32B9     		cbnz	r2, .L122
 787 0020 0023     		movs	r3, #0
 788 0022 2370     		strb	r3, [r4]
ARM GAS  C:\Temp\cclPUGyV.s 			page 14


 789 0024 01E0     		b	.L120
 790              	.L121:
 791 0026 0023     		movs	r3, #0
 792 0028 2370     		strb	r3, [r4]
 793              	.L120:
 794 002a 02B0     		add	sp, sp, #8
 795              		@ sp needed
 796 002c 10BD     		pop	{r4, pc}
 797              	.L122:
 798 002e 0123     		movs	r3, #1
 799 0030 2370     		strb	r3, [r4]
 800 0032 FAE7     		b	.L120
 802              		.section	.text.ism330dhcx_xl_power_mode_set,"ax",%progbits
 803              		.align	1
 804              		.global	ism330dhcx_xl_power_mode_set
 805              		.syntax unified
 806              		.thumb
 807              		.thumb_func
 809              	ism330dhcx_xl_power_mode_set:
 810              		@ args = 0, pretend = 0, frame = 8
 811              		@ frame_needed = 0, uses_anonymous_args = 0
 812 0000 30B5     		push	{r4, r5, lr}
 813 0002 83B0     		sub	sp, sp, #12
 814 0004 0446     		mov	r4, r0
 815 0006 0D46     		mov	r5, r1
 816 0008 0123     		movs	r3, #1
 817 000a 01AA     		add	r2, sp, #4
 818 000c 1521     		movs	r1, #21
 819 000e FFF7FEFF 		bl	ism330dhcx_read_reg
 820 0012 08B1     		cbz	r0, .L130
 821              	.L127:
 822 0014 03B0     		add	sp, sp, #12
 823              		@ sp needed
 824 0016 30BD     		pop	{r4, r5, pc}
 825              	.L130:
 826 0018 9DF80430 		ldrb	r3, [sp, #4]	@ zero_extendqisi2
 827 001c 65F30413 		bfi	r3, r5, #4, #1
 828 0020 8DF80430 		strb	r3, [sp, #4]
 829 0024 0123     		movs	r3, #1
 830 0026 01AA     		add	r2, sp, #4
 831 0028 1521     		movs	r1, #21
 832 002a 2046     		mov	r0, r4
 833 002c FFF7FEFF 		bl	ism330dhcx_write_reg
 834 0030 F0E7     		b	.L127
 836              		.section	.text.ism330dhcx_xl_power_mode_get,"ax",%progbits
 837              		.align	1
 838              		.global	ism330dhcx_xl_power_mode_get
 839              		.syntax unified
 840              		.thumb
 841              		.thumb_func
 843              	ism330dhcx_xl_power_mode_get:
 844              		@ args = 0, pretend = 0, frame = 8
 845              		@ frame_needed = 0, uses_anonymous_args = 0
 846 0000 10B5     		push	{r4, lr}
 847 0002 82B0     		sub	sp, sp, #8
 848 0004 0C46     		mov	r4, r1
 849 0006 0123     		movs	r3, #1
ARM GAS  C:\Temp\cclPUGyV.s 			page 15


 850 0008 01AA     		add	r2, sp, #4
 851 000a 1521     		movs	r1, #21
 852 000c FFF7FEFF 		bl	ism330dhcx_read_reg
 853 0010 9DF80430 		ldrb	r3, [sp, #4]	@ zero_extendqisi2
 854 0014 C3F30012 		ubfx	r2, r3, #4, #1
 855 0018 13F0100F 		tst	r3, #16
 856 001c 03D0     		beq	.L132
 857 001e 32B9     		cbnz	r2, .L133
 858 0020 0023     		movs	r3, #0
 859 0022 2370     		strb	r3, [r4]
 860 0024 01E0     		b	.L131
 861              	.L132:
 862 0026 0023     		movs	r3, #0
 863 0028 2370     		strb	r3, [r4]
 864              	.L131:
 865 002a 02B0     		add	sp, sp, #8
 866              		@ sp needed
 867 002c 10BD     		pop	{r4, pc}
 868              	.L133:
 869 002e 0123     		movs	r3, #1
 870 0030 2370     		strb	r3, [r4]
 871 0032 FAE7     		b	.L131
 873              		.section	.text.ism330dhcx_gy_power_mode_set,"ax",%progbits
 874              		.align	1
 875              		.global	ism330dhcx_gy_power_mode_set
 876              		.syntax unified
 877              		.thumb
 878              		.thumb_func
 880              	ism330dhcx_gy_power_mode_set:
 881              		@ args = 0, pretend = 0, frame = 8
 882              		@ frame_needed = 0, uses_anonymous_args = 0
 883 0000 30B5     		push	{r4, r5, lr}
 884 0002 83B0     		sub	sp, sp, #12
 885 0004 0446     		mov	r4, r0
 886 0006 0D46     		mov	r5, r1
 887 0008 0123     		movs	r3, #1
 888 000a 01AA     		add	r2, sp, #4
 889 000c 1621     		movs	r1, #22
 890 000e FFF7FEFF 		bl	ism330dhcx_read_reg
 891 0012 08B1     		cbz	r0, .L141
 892              	.L138:
 893 0014 03B0     		add	sp, sp, #12
 894              		@ sp needed
 895 0016 30BD     		pop	{r4, r5, pc}
 896              	.L141:
 897 0018 9DF80430 		ldrb	r3, [sp, #4]	@ zero_extendqisi2
 898 001c 65F3C713 		bfi	r3, r5, #7, #1
 899 0020 8DF80430 		strb	r3, [sp, #4]
 900 0024 0123     		movs	r3, #1
 901 0026 01AA     		add	r2, sp, #4
 902 0028 1621     		movs	r1, #22
 903 002a 2046     		mov	r0, r4
 904 002c FFF7FEFF 		bl	ism330dhcx_write_reg
 905 0030 F0E7     		b	.L138
 907              		.section	.text.ism330dhcx_gy_power_mode_get,"ax",%progbits
 908              		.align	1
 909              		.global	ism330dhcx_gy_power_mode_get
ARM GAS  C:\Temp\cclPUGyV.s 			page 16


 910              		.syntax unified
 911              		.thumb
 912              		.thumb_func
 914              	ism330dhcx_gy_power_mode_get:
 915              		@ args = 0, pretend = 0, frame = 8
 916              		@ frame_needed = 0, uses_anonymous_args = 0
 917 0000 10B5     		push	{r4, lr}
 918 0002 82B0     		sub	sp, sp, #8
 919 0004 0C46     		mov	r4, r1
 920 0006 0123     		movs	r3, #1
 921 0008 01AA     		add	r2, sp, #4
 922 000a 1621     		movs	r1, #22
 923 000c FFF7FEFF 		bl	ism330dhcx_read_reg
 924 0010 9DF80430 		ldrb	r3, [sp, #4]	@ zero_extendqisi2
 925 0014 DB09     		lsrs	r3, r3, #7
 926 0016 03D0     		beq	.L143
 927 0018 33B9     		cbnz	r3, .L144
 928 001a 0023     		movs	r3, #0
 929 001c 2370     		strb	r3, [r4]
 930 001e 01E0     		b	.L142
 931              	.L143:
 932 0020 0023     		movs	r3, #0
 933 0022 2370     		strb	r3, [r4]
 934              	.L142:
 935 0024 02B0     		add	sp, sp, #8
 936              		@ sp needed
 937 0026 10BD     		pop	{r4, pc}
 938              	.L144:
 939 0028 0123     		movs	r3, #1
 940 002a 2370     		strb	r3, [r4]
 941 002c FAE7     		b	.L142
 943              		.section	.text.ism330dhcx_status_reg_get,"ax",%progbits
 944              		.align	1
 945              		.global	ism330dhcx_status_reg_get
 946              		.syntax unified
 947              		.thumb
 948              		.thumb_func
 950              	ism330dhcx_status_reg_get:
 951              		@ args = 0, pretend = 0, frame = 0
 952              		@ frame_needed = 0, uses_anonymous_args = 0
 953 0000 08B5     		push	{r3, lr}
 954 0002 0A46     		mov	r2, r1
 955 0004 0123     		movs	r3, #1
 956 0006 1E21     		movs	r1, #30
 957 0008 FFF7FEFF 		bl	ism330dhcx_read_reg
 958 000c 08BD     		pop	{r3, pc}
 960              		.section	.text.ism330dhcx_xl_flag_data_ready_get,"ax",%progbits
 961              		.align	1
 962              		.global	ism330dhcx_xl_flag_data_ready_get
 963              		.syntax unified
 964              		.thumb
 965              		.thumb_func
 967              	ism330dhcx_xl_flag_data_ready_get:
 968              		@ args = 0, pretend = 0, frame = 8
 969              		@ frame_needed = 0, uses_anonymous_args = 0
 970 0000 10B5     		push	{r4, lr}
 971 0002 82B0     		sub	sp, sp, #8
ARM GAS  C:\Temp\cclPUGyV.s 			page 17


 972 0004 0C46     		mov	r4, r1
 973 0006 0123     		movs	r3, #1
 974 0008 01AA     		add	r2, sp, #4
 975 000a 1E21     		movs	r1, #30
 976 000c FFF7FEFF 		bl	ism330dhcx_read_reg
 977 0010 9DF80430 		ldrb	r3, [sp, #4]	@ zero_extendqisi2
 978 0014 C3F30003 		ubfx	r3, r3, #0, #1
 979 0018 2370     		strb	r3, [r4]
 980 001a 02B0     		add	sp, sp, #8
 981              		@ sp needed
 982 001c 10BD     		pop	{r4, pc}
 984              		.section	.text.ism330dhcx_gy_flag_data_ready_get,"ax",%progbits
 985              		.align	1
 986              		.global	ism330dhcx_gy_flag_data_ready_get
 987              		.syntax unified
 988              		.thumb
 989              		.thumb_func
 991              	ism330dhcx_gy_flag_data_ready_get:
 992              		@ args = 0, pretend = 0, frame = 8
 993              		@ frame_needed = 0, uses_anonymous_args = 0
 994 0000 10B5     		push	{r4, lr}
 995 0002 82B0     		sub	sp, sp, #8
 996 0004 0C46     		mov	r4, r1
 997 0006 0123     		movs	r3, #1
 998 0008 01AA     		add	r2, sp, #4
 999 000a 1E21     		movs	r1, #30
 1000 000c FFF7FEFF 		bl	ism330dhcx_read_reg
 1001 0010 9DF80430 		ldrb	r3, [sp, #4]	@ zero_extendqisi2
 1002 0014 C3F34003 		ubfx	r3, r3, #1, #1
 1003 0018 2370     		strb	r3, [r4]
 1004 001a 02B0     		add	sp, sp, #8
 1005              		@ sp needed
 1006 001c 10BD     		pop	{r4, pc}
 1008              		.section	.text.ism330dhcx_temp_flag_data_ready_get,"ax",%progbits
 1009              		.align	1
 1010              		.global	ism330dhcx_temp_flag_data_ready_get
 1011              		.syntax unified
 1012              		.thumb
 1013              		.thumb_func
 1015              	ism330dhcx_temp_flag_data_ready_get:
 1016              		@ args = 0, pretend = 0, frame = 8
 1017              		@ frame_needed = 0, uses_anonymous_args = 0
 1018 0000 10B5     		push	{r4, lr}
 1019 0002 82B0     		sub	sp, sp, #8
 1020 0004 0C46     		mov	r4, r1
 1021 0006 0123     		movs	r3, #1
 1022 0008 01AA     		add	r2, sp, #4
 1023 000a 1E21     		movs	r1, #30
 1024 000c FFF7FEFF 		bl	ism330dhcx_read_reg
 1025 0010 9DF80430 		ldrb	r3, [sp, #4]	@ zero_extendqisi2
 1026 0014 C3F38003 		ubfx	r3, r3, #2, #1
 1027 0018 2370     		strb	r3, [r4]
 1028 001a 02B0     		add	sp, sp, #8
 1029              		@ sp needed
 1030 001c 10BD     		pop	{r4, pc}
 1032              		.section	.text.ism330dhcx_xl_usr_offset_x_set,"ax",%progbits
 1033              		.align	1
ARM GAS  C:\Temp\cclPUGyV.s 			page 18


 1034              		.global	ism330dhcx_xl_usr_offset_x_set
 1035              		.syntax unified
 1036              		.thumb
 1037              		.thumb_func
 1039              	ism330dhcx_xl_usr_offset_x_set:
 1040              		@ args = 0, pretend = 0, frame = 0
 1041              		@ frame_needed = 0, uses_anonymous_args = 0
 1042 0000 08B5     		push	{r3, lr}
 1043 0002 0A46     		mov	r2, r1
 1044 0004 0123     		movs	r3, #1
 1045 0006 7321     		movs	r1, #115
 1046 0008 FFF7FEFF 		bl	ism330dhcx_write_reg
 1047 000c 08BD     		pop	{r3, pc}
 1049              		.section	.text.ism330dhcx_xl_usr_offset_x_get,"ax",%progbits
 1050              		.align	1
 1051              		.global	ism330dhcx_xl_usr_offset_x_get
 1052              		.syntax unified
 1053              		.thumb
 1054              		.thumb_func
 1056              	ism330dhcx_xl_usr_offset_x_get:
 1057              		@ args = 0, pretend = 0, frame = 0
 1058              		@ frame_needed = 0, uses_anonymous_args = 0
 1059 0000 08B5     		push	{r3, lr}
 1060 0002 0A46     		mov	r2, r1
 1061 0004 0123     		movs	r3, #1
 1062 0006 7321     		movs	r1, #115
 1063 0008 FFF7FEFF 		bl	ism330dhcx_read_reg
 1064 000c 08BD     		pop	{r3, pc}
 1066              		.section	.text.ism330dhcx_xl_usr_offset_y_set,"ax",%progbits
 1067              		.align	1
 1068              		.global	ism330dhcx_xl_usr_offset_y_set
 1069              		.syntax unified
 1070              		.thumb
 1071              		.thumb_func
 1073              	ism330dhcx_xl_usr_offset_y_set:
 1074              		@ args = 0, pretend = 0, frame = 0
 1075              		@ frame_needed = 0, uses_anonymous_args = 0
 1076 0000 08B5     		push	{r3, lr}
 1077 0002 0A46     		mov	r2, r1
 1078 0004 0123     		movs	r3, #1
 1079 0006 7421     		movs	r1, #116
 1080 0008 FFF7FEFF 		bl	ism330dhcx_write_reg
 1081 000c 08BD     		pop	{r3, pc}
 1083              		.section	.text.ism330dhcx_xl_usr_offset_y_get,"ax",%progbits
 1084              		.align	1
 1085              		.global	ism330dhcx_xl_usr_offset_y_get
 1086              		.syntax unified
 1087              		.thumb
 1088              		.thumb_func
 1090              	ism330dhcx_xl_usr_offset_y_get:
 1091              		@ args = 0, pretend = 0, frame = 0
 1092              		@ frame_needed = 0, uses_anonymous_args = 0
 1093 0000 08B5     		push	{r3, lr}
 1094 0002 0A46     		mov	r2, r1
 1095 0004 0123     		movs	r3, #1
 1096 0006 7421     		movs	r1, #116
 1097 0008 FFF7FEFF 		bl	ism330dhcx_read_reg
ARM GAS  C:\Temp\cclPUGyV.s 			page 19


 1098 000c 08BD     		pop	{r3, pc}
 1100              		.section	.text.ism330dhcx_xl_usr_offset_z_set,"ax",%progbits
 1101              		.align	1
 1102              		.global	ism330dhcx_xl_usr_offset_z_set
 1103              		.syntax unified
 1104              		.thumb
 1105              		.thumb_func
 1107              	ism330dhcx_xl_usr_offset_z_set:
 1108              		@ args = 0, pretend = 0, frame = 0
 1109              		@ frame_needed = 0, uses_anonymous_args = 0
 1110 0000 08B5     		push	{r3, lr}
 1111 0002 0A46     		mov	r2, r1
 1112 0004 0123     		movs	r3, #1
 1113 0006 7521     		movs	r1, #117
 1114 0008 FFF7FEFF 		bl	ism330dhcx_write_reg
 1115 000c 08BD     		pop	{r3, pc}
 1117              		.section	.text.ism330dhcx_xl_usr_offset_z_get,"ax",%progbits
 1118              		.align	1
 1119              		.global	ism330dhcx_xl_usr_offset_z_get
 1120              		.syntax unified
 1121              		.thumb
 1122              		.thumb_func
 1124              	ism330dhcx_xl_usr_offset_z_get:
 1125              		@ args = 0, pretend = 0, frame = 0
 1126              		@ frame_needed = 0, uses_anonymous_args = 0
 1127 0000 08B5     		push	{r3, lr}
 1128 0002 0A46     		mov	r2, r1
 1129 0004 0123     		movs	r3, #1
 1130 0006 7521     		movs	r1, #117
 1131 0008 FFF7FEFF 		bl	ism330dhcx_read_reg
 1132 000c 08BD     		pop	{r3, pc}
 1134              		.section	.text.ism330dhcx_xl_usr_offset_set,"ax",%progbits
 1135              		.align	1
 1136              		.global	ism330dhcx_xl_usr_offset_set
 1137              		.syntax unified
 1138              		.thumb
 1139              		.thumb_func
 1141              	ism330dhcx_xl_usr_offset_set:
 1142              		@ args = 0, pretend = 0, frame = 8
 1143              		@ frame_needed = 0, uses_anonymous_args = 0
 1144 0000 30B5     		push	{r4, r5, lr}
 1145 0002 83B0     		sub	sp, sp, #12
 1146 0004 0446     		mov	r4, r0
 1147 0006 0D46     		mov	r5, r1
 1148 0008 0123     		movs	r3, #1
 1149 000a 01AA     		add	r2, sp, #4
 1150 000c 1621     		movs	r1, #22
 1151 000e FFF7FEFF 		bl	ism330dhcx_read_reg
 1152 0012 08B1     		cbz	r0, .L172
 1153              	.L169:
 1154 0014 03B0     		add	sp, sp, #12
 1155              		@ sp needed
 1156 0016 30BD     		pop	{r4, r5, pc}
 1157              	.L172:
 1158 0018 9DF80430 		ldrb	r3, [sp, #4]	@ zero_extendqisi2
 1159 001c 65F34103 		bfi	r3, r5, #1, #1
 1160 0020 8DF80430 		strb	r3, [sp, #4]
ARM GAS  C:\Temp\cclPUGyV.s 			page 20


 1161 0024 0123     		movs	r3, #1
 1162 0026 01AA     		add	r2, sp, #4
 1163 0028 1621     		movs	r1, #22
 1164 002a 2046     		mov	r0, r4
 1165 002c FFF7FEFF 		bl	ism330dhcx_write_reg
 1166 0030 F0E7     		b	.L169
 1168              		.section	.text.ism330dhcx_xl_usr_offset_get,"ax",%progbits
 1169              		.align	1
 1170              		.global	ism330dhcx_xl_usr_offset_get
 1171              		.syntax unified
 1172              		.thumb
 1173              		.thumb_func
 1175              	ism330dhcx_xl_usr_offset_get:
 1176              		@ args = 0, pretend = 0, frame = 8
 1177              		@ frame_needed = 0, uses_anonymous_args = 0
 1178 0000 10B5     		push	{r4, lr}
 1179 0002 82B0     		sub	sp, sp, #8
 1180 0004 0C46     		mov	r4, r1
 1181 0006 0123     		movs	r3, #1
 1182 0008 01AA     		add	r2, sp, #4
 1183 000a 1621     		movs	r1, #22
 1184 000c FFF7FEFF 		bl	ism330dhcx_read_reg
 1185 0010 9DF80430 		ldrb	r3, [sp, #4]	@ zero_extendqisi2
 1186 0014 C3F34003 		ubfx	r3, r3, #1, #1
 1187 0018 2370     		strb	r3, [r4]
 1188 001a 02B0     		add	sp, sp, #8
 1189              		@ sp needed
 1190 001c 10BD     		pop	{r4, pc}
 1192              		.section	.text.ism330dhcx_timestamp_rst,"ax",%progbits
 1193              		.align	1
 1194              		.global	ism330dhcx_timestamp_rst
 1195              		.syntax unified
 1196              		.thumb
 1197              		.thumb_func
 1199              	ism330dhcx_timestamp_rst:
 1200              		@ args = 0, pretend = 0, frame = 8
 1201              		@ frame_needed = 0, uses_anonymous_args = 0
 1202 0000 00B5     		push	{lr}
 1203 0002 83B0     		sub	sp, sp, #12
 1204 0004 AA23     		movs	r3, #170
 1205 0006 8DF80730 		strb	r3, [sp, #7]
 1206 000a 0123     		movs	r3, #1
 1207 000c 0DF10702 		add	r2, sp, #7
 1208 0010 4221     		movs	r1, #66
 1209 0012 FFF7FEFF 		bl	ism330dhcx_write_reg
 1210 0016 03B0     		add	sp, sp, #12
 1211              		@ sp needed
 1212 0018 5DF804FB 		ldr	pc, [sp], #4
 1214              		.section	.text.ism330dhcx_timestamp_set,"ax",%progbits
 1215              		.align	1
 1216              		.global	ism330dhcx_timestamp_set
 1217              		.syntax unified
 1218              		.thumb
 1219              		.thumb_func
 1221              	ism330dhcx_timestamp_set:
 1222              		@ args = 0, pretend = 0, frame = 8
 1223              		@ frame_needed = 0, uses_anonymous_args = 0
ARM GAS  C:\Temp\cclPUGyV.s 			page 21


 1224 0000 30B5     		push	{r4, r5, lr}
 1225 0002 83B0     		sub	sp, sp, #12
 1226 0004 0446     		mov	r4, r0
 1227 0006 0D46     		mov	r5, r1
 1228 0008 0123     		movs	r3, #1
 1229 000a 01AA     		add	r2, sp, #4
 1230 000c 1921     		movs	r1, #25
 1231 000e FFF7FEFF 		bl	ism330dhcx_read_reg
 1232 0012 08B1     		cbz	r0, .L180
 1233              	.L177:
 1234 0014 03B0     		add	sp, sp, #12
 1235              		@ sp needed
 1236 0016 30BD     		pop	{r4, r5, pc}
 1237              	.L180:
 1238 0018 9DF80430 		ldrb	r3, [sp, #4]	@ zero_extendqisi2
 1239 001c 65F34513 		bfi	r3, r5, #5, #1
 1240 0020 8DF80430 		strb	r3, [sp, #4]
 1241 0024 0123     		movs	r3, #1
 1242 0026 01AA     		add	r2, sp, #4
 1243 0028 1921     		movs	r1, #25
 1244 002a 2046     		mov	r0, r4
 1245 002c FFF7FEFF 		bl	ism330dhcx_write_reg
 1246 0030 F0E7     		b	.L177
 1248              		.section	.text.ism330dhcx_timestamp_get,"ax",%progbits
 1249              		.align	1
 1250              		.global	ism330dhcx_timestamp_get
 1251              		.syntax unified
 1252              		.thumb
 1253              		.thumb_func
 1255              	ism330dhcx_timestamp_get:
 1256              		@ args = 0, pretend = 0, frame = 8
 1257              		@ frame_needed = 0, uses_anonymous_args = 0
 1258 0000 10B5     		push	{r4, lr}
 1259 0002 82B0     		sub	sp, sp, #8
 1260 0004 0C46     		mov	r4, r1
 1261 0006 0123     		movs	r3, #1
 1262 0008 01AA     		add	r2, sp, #4
 1263 000a 1921     		movs	r1, #25
 1264 000c FFF7FEFF 		bl	ism330dhcx_read_reg
 1265 0010 9DF80430 		ldrb	r3, [sp, #4]	@ zero_extendqisi2
 1266 0014 C3F34013 		ubfx	r3, r3, #5, #1
 1267 0018 2370     		strb	r3, [r4]
 1268 001a 02B0     		add	sp, sp, #8
 1269              		@ sp needed
 1270 001c 10BD     		pop	{r4, pc}
 1272              		.section	.text.ism330dhcx_timestamp_raw_get,"ax",%progbits
 1273              		.align	1
 1274              		.global	ism330dhcx_timestamp_raw_get
 1275              		.syntax unified
 1276              		.thumb
 1277              		.thumb_func
 1279              	ism330dhcx_timestamp_raw_get:
 1280              		@ args = 0, pretend = 0, frame = 8
 1281              		@ frame_needed = 0, uses_anonymous_args = 0
 1282 0000 10B5     		push	{r4, lr}
 1283 0002 82B0     		sub	sp, sp, #8
 1284 0004 0C46     		mov	r4, r1
ARM GAS  C:\Temp\cclPUGyV.s 			page 22


 1285 0006 0423     		movs	r3, #4
 1286 0008 0DEB0302 		add	r2, sp, r3
 1287 000c 4021     		movs	r1, #64
 1288 000e FFF7FEFF 		bl	ism330dhcx_read_reg
 1289 0012 9DF80730 		ldrb	r3, [sp, #7]	@ zero_extendqisi2
 1290 0016 2360     		str	r3, [r4]
 1291 0018 9DF80620 		ldrb	r2, [sp, #6]	@ zero_extendqisi2
 1292 001c 02EB0322 		add	r2, r2, r3, lsl #8
 1293 0020 2260     		str	r2, [r4]
 1294 0022 9DF80530 		ldrb	r3, [sp, #5]	@ zero_extendqisi2
 1295 0026 03EB0223 		add	r3, r3, r2, lsl #8
 1296 002a 2360     		str	r3, [r4]
 1297 002c 9DF80420 		ldrb	r2, [sp, #4]	@ zero_extendqisi2
 1298 0030 02EB0323 		add	r3, r2, r3, lsl #8
 1299 0034 2360     		str	r3, [r4]
 1300 0036 02B0     		add	sp, sp, #8
 1301              		@ sp needed
 1302 0038 10BD     		pop	{r4, pc}
 1304              		.section	.text.ism330dhcx_rounding_mode_set,"ax",%progbits
 1305              		.align	1
 1306              		.global	ism330dhcx_rounding_mode_set
 1307              		.syntax unified
 1308              		.thumb
 1309              		.thumb_func
 1311              	ism330dhcx_rounding_mode_set:
 1312              		@ args = 0, pretend = 0, frame = 8
 1313              		@ frame_needed = 0, uses_anonymous_args = 0
 1314 0000 30B5     		push	{r4, r5, lr}
 1315 0002 83B0     		sub	sp, sp, #12
 1316 0004 0446     		mov	r4, r0
 1317 0006 0D46     		mov	r5, r1
 1318 0008 0123     		movs	r3, #1
 1319 000a 01AA     		add	r2, sp, #4
 1320 000c 1421     		movs	r1, #20
 1321 000e FFF7FEFF 		bl	ism330dhcx_read_reg
 1322 0012 08B1     		cbz	r0, .L188
 1323              	.L185:
 1324 0014 03B0     		add	sp, sp, #12
 1325              		@ sp needed
 1326 0016 30BD     		pop	{r4, r5, pc}
 1327              	.L188:
 1328 0018 9DF80430 		ldrb	r3, [sp, #4]	@ zero_extendqisi2
 1329 001c 65F34613 		bfi	r3, r5, #5, #2
 1330 0020 8DF80430 		strb	r3, [sp, #4]
 1331 0024 0123     		movs	r3, #1
 1332 0026 01AA     		add	r2, sp, #4
 1333 0028 1421     		movs	r1, #20
 1334 002a 2046     		mov	r0, r4
 1335 002c FFF7FEFF 		bl	ism330dhcx_write_reg
 1336 0030 F0E7     		b	.L185
 1338              		.section	.text.ism330dhcx_rounding_mode_get,"ax",%progbits
 1339              		.align	1
 1340              		.global	ism330dhcx_rounding_mode_get
 1341              		.syntax unified
 1342              		.thumb
 1343              		.thumb_func
 1345              	ism330dhcx_rounding_mode_get:
ARM GAS  C:\Temp\cclPUGyV.s 			page 23


 1346              		@ args = 0, pretend = 0, frame = 8
 1347              		@ frame_needed = 0, uses_anonymous_args = 0
 1348 0000 10B5     		push	{r4, lr}
 1349 0002 82B0     		sub	sp, sp, #8
 1350 0004 0C46     		mov	r4, r1
 1351 0006 0123     		movs	r3, #1
 1352 0008 01AA     		add	r2, sp, #4
 1353 000a 1421     		movs	r1, #20
 1354 000c FFF7FEFF 		bl	ism330dhcx_read_reg
 1355 0010 9DF80430 		ldrb	r3, [sp, #4]	@ zero_extendqisi2
 1356 0014 C3F34113 		ubfx	r3, r3, #5, #2
 1357 0018 032B     		cmp	r3, #3
 1358 001a 10D8     		bhi	.L190
 1359 001c DFE803F0 		tbb	[pc, r3]
 1360              	.L192:
 1361 0020 02       		.byte	(.L195-.L192)/2
 1362 0021 06       		.byte	(.L194-.L192)/2
 1363 0022 09       		.byte	(.L193-.L192)/2
 1364 0023 0C       		.byte	(.L191-.L192)/2
 1365              		.p2align 1
 1366              	.L195:
 1367 0024 0023     		movs	r3, #0
 1368 0026 2370     		strb	r3, [r4]
 1369              	.L189:
 1370 0028 02B0     		add	sp, sp, #8
 1371              		@ sp needed
 1372 002a 10BD     		pop	{r4, pc}
 1373              	.L194:
 1374 002c 0123     		movs	r3, #1
 1375 002e 2370     		strb	r3, [r4]
 1376 0030 FAE7     		b	.L189
 1377              	.L193:
 1378 0032 0223     		movs	r3, #2
 1379 0034 2370     		strb	r3, [r4]
 1380 0036 F7E7     		b	.L189
 1381              	.L191:
 1382 0038 0323     		movs	r3, #3
 1383 003a 2370     		strb	r3, [r4]
 1384 003c F4E7     		b	.L189
 1385              	.L190:
 1386 003e 0023     		movs	r3, #0
 1387 0040 2370     		strb	r3, [r4]
 1388 0042 F1E7     		b	.L189
 1390              		.section	.text.ism330dhcx_temperature_raw_get,"ax",%progbits
 1391              		.align	1
 1392              		.global	ism330dhcx_temperature_raw_get
 1393              		.syntax unified
 1394              		.thumb
 1395              		.thumb_func
 1397              	ism330dhcx_temperature_raw_get:
 1398              		@ args = 0, pretend = 0, frame = 8
 1399              		@ frame_needed = 0, uses_anonymous_args = 0
 1400 0000 10B5     		push	{r4, lr}
 1401 0002 82B0     		sub	sp, sp, #8
 1402 0004 0C46     		mov	r4, r1
 1403 0006 0223     		movs	r3, #2
 1404 0008 01AA     		add	r2, sp, #4
ARM GAS  C:\Temp\cclPUGyV.s 			page 24


 1405 000a 2021     		movs	r1, #32
 1406 000c FFF7FEFF 		bl	ism330dhcx_read_reg
 1407 0010 9DF80520 		ldrb	r2, [sp, #5]	@ zero_extendqisi2
 1408 0014 2280     		strh	r2, [r4]	@ movhi
 1409 0016 9DF80430 		ldrb	r3, [sp, #4]	@ zero_extendqisi2
 1410 001a 03EB0223 		add	r3, r3, r2, lsl #8
 1411 001e 2380     		strh	r3, [r4]	@ movhi
 1412 0020 02B0     		add	sp, sp, #8
 1413              		@ sp needed
 1414 0022 10BD     		pop	{r4, pc}
 1416              		.section	.text.ism330dhcx_angular_rate_raw_get,"ax",%progbits
 1417              		.align	1
 1418              		.global	ism330dhcx_angular_rate_raw_get
 1419              		.syntax unified
 1420              		.thumb
 1421              		.thumb_func
 1423              	ism330dhcx_angular_rate_raw_get:
 1424              		@ args = 0, pretend = 0, frame = 8
 1425              		@ frame_needed = 0, uses_anonymous_args = 0
 1426 0000 10B5     		push	{r4, lr}
 1427 0002 82B0     		sub	sp, sp, #8
 1428 0004 0C46     		mov	r4, r1
 1429 0006 0623     		movs	r3, #6
 1430 0008 6A46     		mov	r2, sp
 1431 000a 2221     		movs	r1, #34
 1432 000c FFF7FEFF 		bl	ism330dhcx_read_reg
 1433 0010 9DF80120 		ldrb	r2, [sp, #1]	@ zero_extendqisi2
 1434 0014 2280     		strh	r2, [r4]	@ movhi
 1435 0016 9DF80030 		ldrb	r3, [sp]	@ zero_extendqisi2
 1436 001a 03EB0223 		add	r3, r3, r2, lsl #8
 1437 001e 2380     		strh	r3, [r4]	@ movhi
 1438 0020 9DF80320 		ldrb	r2, [sp, #3]	@ zero_extendqisi2
 1439 0024 6280     		strh	r2, [r4, #2]	@ movhi
 1440 0026 9DF80230 		ldrb	r3, [sp, #2]	@ zero_extendqisi2
 1441 002a 03EB0223 		add	r3, r3, r2, lsl #8
 1442 002e 6380     		strh	r3, [r4, #2]	@ movhi
 1443 0030 9DF80520 		ldrb	r2, [sp, #5]	@ zero_extendqisi2
 1444 0034 A280     		strh	r2, [r4, #4]	@ movhi
 1445 0036 9DF80430 		ldrb	r3, [sp, #4]	@ zero_extendqisi2
 1446 003a 03EB0223 		add	r3, r3, r2, lsl #8
 1447 003e A380     		strh	r3, [r4, #4]	@ movhi
 1448 0040 02B0     		add	sp, sp, #8
 1449              		@ sp needed
 1450 0042 10BD     		pop	{r4, pc}
 1452              		.section	.text.ism330dhcx_acceleration_raw_get,"ax",%progbits
 1453              		.align	1
 1454              		.global	ism330dhcx_acceleration_raw_get
 1455              		.syntax unified
 1456              		.thumb
 1457              		.thumb_func
 1459              	ism330dhcx_acceleration_raw_get:
 1460              		@ args = 0, pretend = 0, frame = 8
 1461              		@ frame_needed = 0, uses_anonymous_args = 0
 1462 0000 10B5     		push	{r4, lr}
 1463 0002 82B0     		sub	sp, sp, #8
 1464 0004 0C46     		mov	r4, r1
 1465 0006 0623     		movs	r3, #6
ARM GAS  C:\Temp\cclPUGyV.s 			page 25


 1466 0008 6A46     		mov	r2, sp
 1467 000a 2821     		movs	r1, #40
 1468 000c FFF7FEFF 		bl	ism330dhcx_read_reg
 1469 0010 9DF80120 		ldrb	r2, [sp, #1]	@ zero_extendqisi2
 1470 0014 2280     		strh	r2, [r4]	@ movhi
 1471 0016 9DF80030 		ldrb	r3, [sp]	@ zero_extendqisi2
 1472 001a 03EB0223 		add	r3, r3, r2, lsl #8
 1473 001e 2380     		strh	r3, [r4]	@ movhi
 1474 0020 9DF80320 		ldrb	r2, [sp, #3]	@ zero_extendqisi2
 1475 0024 6280     		strh	r2, [r4, #2]	@ movhi
 1476 0026 9DF80230 		ldrb	r3, [sp, #2]	@ zero_extendqisi2
 1477 002a 03EB0223 		add	r3, r3, r2, lsl #8
 1478 002e 6380     		strh	r3, [r4, #2]	@ movhi
 1479 0030 9DF80520 		ldrb	r2, [sp, #5]	@ zero_extendqisi2
 1480 0034 A280     		strh	r2, [r4, #4]	@ movhi
 1481 0036 9DF80430 		ldrb	r3, [sp, #4]	@ zero_extendqisi2
 1482 003a 03EB0223 		add	r3, r3, r2, lsl #8
 1483 003e A380     		strh	r3, [r4, #4]	@ movhi
 1484 0040 02B0     		add	sp, sp, #8
 1485              		@ sp needed
 1486 0042 10BD     		pop	{r4, pc}
 1488              		.section	.text.ism330dhcx_fifo_out_raw_get,"ax",%progbits
 1489              		.align	1
 1490              		.global	ism330dhcx_fifo_out_raw_get
 1491              		.syntax unified
 1492              		.thumb
 1493              		.thumb_func
 1495              	ism330dhcx_fifo_out_raw_get:
 1496              		@ args = 0, pretend = 0, frame = 0
 1497              		@ frame_needed = 0, uses_anonymous_args = 0
 1498 0000 08B5     		push	{r3, lr}
 1499 0002 0A46     		mov	r2, r1
 1500 0004 0623     		movs	r3, #6
 1501 0006 7921     		movs	r1, #121
 1502 0008 FFF7FEFF 		bl	ism330dhcx_read_reg
 1503 000c 08BD     		pop	{r3, pc}
 1505              		.section	.text.ism330dhcx_device_conf_set,"ax",%progbits
 1506              		.align	1
 1507              		.global	ism330dhcx_device_conf_set
 1508              		.syntax unified
 1509              		.thumb
 1510              		.thumb_func
 1512              	ism330dhcx_device_conf_set:
 1513              		@ args = 0, pretend = 0, frame = 8
 1514              		@ frame_needed = 0, uses_anonymous_args = 0
 1515 0000 30B5     		push	{r4, r5, lr}
 1516 0002 83B0     		sub	sp, sp, #12
 1517 0004 0446     		mov	r4, r0
 1518 0006 0D46     		mov	r5, r1
 1519 0008 0123     		movs	r3, #1
 1520 000a 01AA     		add	r2, sp, #4
 1521 000c 1821     		movs	r1, #24
 1522 000e FFF7FEFF 		bl	ism330dhcx_read_reg
 1523 0012 08B1     		cbz	r0, .L209
 1524              	.L206:
 1525 0014 03B0     		add	sp, sp, #12
 1526              		@ sp needed
ARM GAS  C:\Temp\cclPUGyV.s 			page 26


 1527 0016 30BD     		pop	{r4, r5, pc}
 1528              	.L209:
 1529 0018 9DF80430 		ldrb	r3, [sp, #4]	@ zero_extendqisi2
 1530 001c 65F34103 		bfi	r3, r5, #1, #1
 1531 0020 8DF80430 		strb	r3, [sp, #4]
 1532 0024 0123     		movs	r3, #1
 1533 0026 01AA     		add	r2, sp, #4
 1534 0028 1821     		movs	r1, #24
 1535 002a 2046     		mov	r0, r4
 1536 002c FFF7FEFF 		bl	ism330dhcx_write_reg
 1537 0030 F0E7     		b	.L206
 1539              		.section	.text.ism330dhcx_device_conf_get,"ax",%progbits
 1540              		.align	1
 1541              		.global	ism330dhcx_device_conf_get
 1542              		.syntax unified
 1543              		.thumb
 1544              		.thumb_func
 1546              	ism330dhcx_device_conf_get:
 1547              		@ args = 0, pretend = 0, frame = 8
 1548              		@ frame_needed = 0, uses_anonymous_args = 0
 1549 0000 10B5     		push	{r4, lr}
 1550 0002 82B0     		sub	sp, sp, #8
 1551 0004 0C46     		mov	r4, r1
 1552 0006 0123     		movs	r3, #1
 1553 0008 01AA     		add	r2, sp, #4
 1554 000a 1821     		movs	r1, #24
 1555 000c FFF7FEFF 		bl	ism330dhcx_read_reg
 1556 0010 9DF80430 		ldrb	r3, [sp, #4]	@ zero_extendqisi2
 1557 0014 C3F34003 		ubfx	r3, r3, #1, #1
 1558 0018 2370     		strb	r3, [r4]
 1559 001a 02B0     		add	sp, sp, #8
 1560              		@ sp needed
 1561 001c 10BD     		pop	{r4, pc}
 1563              		.section	.text.ism330dhcx_odr_cal_reg_set,"ax",%progbits
 1564              		.align	1
 1565              		.global	ism330dhcx_odr_cal_reg_set
 1566              		.syntax unified
 1567              		.thumb
 1568              		.thumb_func
 1570              	ism330dhcx_odr_cal_reg_set:
 1571              		@ args = 0, pretend = 0, frame = 8
 1572              		@ frame_needed = 0, uses_anonymous_args = 0
 1573 0000 30B5     		push	{r4, r5, lr}
 1574 0002 83B0     		sub	sp, sp, #12
 1575 0004 0446     		mov	r4, r0
 1576 0006 0D46     		mov	r5, r1
 1577 0008 0123     		movs	r3, #1
 1578 000a 01AA     		add	r2, sp, #4
 1579 000c 6321     		movs	r1, #99
 1580 000e FFF7FEFF 		bl	ism330dhcx_read_reg
 1581 0012 08B1     		cbz	r0, .L215
 1582              	.L212:
 1583 0014 03B0     		add	sp, sp, #12
 1584              		@ sp needed
 1585 0016 30BD     		pop	{r4, r5, pc}
 1586              	.L215:
 1587 0018 8DF80450 		strb	r5, [sp, #4]
ARM GAS  C:\Temp\cclPUGyV.s 			page 27


 1588 001c 0123     		movs	r3, #1
 1589 001e 01AA     		add	r2, sp, #4
 1590 0020 6321     		movs	r1, #99
 1591 0022 2046     		mov	r0, r4
 1592 0024 FFF7FEFF 		bl	ism330dhcx_write_reg
 1593 0028 F4E7     		b	.L212
 1595              		.section	.text.ism330dhcx_odr_cal_reg_get,"ax",%progbits
 1596              		.align	1
 1597              		.global	ism330dhcx_odr_cal_reg_get
 1598              		.syntax unified
 1599              		.thumb
 1600              		.thumb_func
 1602              	ism330dhcx_odr_cal_reg_get:
 1603              		@ args = 0, pretend = 0, frame = 8
 1604              		@ frame_needed = 0, uses_anonymous_args = 0
 1605 0000 10B5     		push	{r4, lr}
 1606 0002 82B0     		sub	sp, sp, #8
 1607 0004 0C46     		mov	r4, r1
 1608 0006 0123     		movs	r3, #1
 1609 0008 01AA     		add	r2, sp, #4
 1610 000a 6321     		movs	r1, #99
 1611 000c FFF7FEFF 		bl	ism330dhcx_read_reg
 1612 0010 9DF80430 		ldrb	r3, [sp, #4]	@ zero_extendqisi2
 1613 0014 2370     		strb	r3, [r4]
 1614 0016 02B0     		add	sp, sp, #8
 1615              		@ sp needed
 1616 0018 10BD     		pop	{r4, pc}
 1618              		.section	.text.ism330dhcx_mem_bank_set,"ax",%progbits
 1619              		.align	1
 1620              		.global	ism330dhcx_mem_bank_set
 1621              		.syntax unified
 1622              		.thumb
 1623              		.thumb_func
 1625              	ism330dhcx_mem_bank_set:
 1626              		@ args = 0, pretend = 0, frame = 8
 1627              		@ frame_needed = 0, uses_anonymous_args = 0
 1628 0000 30B5     		push	{r4, r5, lr}
 1629 0002 83B0     		sub	sp, sp, #12
 1630 0004 0446     		mov	r4, r0
 1631 0006 0D46     		mov	r5, r1
 1632 0008 0123     		movs	r3, #1
 1633 000a 01AA     		add	r2, sp, #4
 1634 000c 1946     		mov	r1, r3
 1635 000e FFF7FEFF 		bl	ism330dhcx_read_reg
 1636 0012 08B1     		cbz	r0, .L221
 1637              	.L218:
 1638 0014 03B0     		add	sp, sp, #12
 1639              		@ sp needed
 1640 0016 30BD     		pop	{r4, r5, pc}
 1641              	.L221:
 1642 0018 9DF80430 		ldrb	r3, [sp, #4]	@ zero_extendqisi2
 1643 001c 65F38713 		bfi	r3, r5, #6, #2
 1644 0020 8DF80430 		strb	r3, [sp, #4]
 1645 0024 0123     		movs	r3, #1
 1646 0026 01AA     		add	r2, sp, #4
 1647 0028 1946     		mov	r1, r3
 1648 002a 2046     		mov	r0, r4
ARM GAS  C:\Temp\cclPUGyV.s 			page 28


 1649 002c FFF7FEFF 		bl	ism330dhcx_write_reg
 1650 0030 F0E7     		b	.L218
 1652              		.section	.text.ism330dhcx_all_sources_get,"ax",%progbits
 1653              		.align	1
 1654              		.global	ism330dhcx_all_sources_get
 1655              		.syntax unified
 1656              		.thumb
 1657              		.thumb_func
 1659              	ism330dhcx_all_sources_get:
 1660              		@ args = 0, pretend = 0, frame = 0
 1661              		@ frame_needed = 0, uses_anonymous_args = 0
 1662 0000 38B5     		push	{r3, r4, r5, lr}
 1663 0002 0546     		mov	r5, r0
 1664 0004 0C46     		mov	r4, r1
 1665 0006 0123     		movs	r3, #1
 1666 0008 0A46     		mov	r2, r1
 1667 000a 1A21     		movs	r1, #26
 1668 000c FFF7FEFF 		bl	ism330dhcx_read_reg
 1669 0010 0346     		mov	r3, r0
 1670 0012 10B1     		cbz	r0, .L226
 1671              	.L223:
 1672 0014 93B1     		cbz	r3, .L227
 1673              	.L222:
 1674 0016 1846     		mov	r0, r3
 1675 0018 38BD     		pop	{r3, r4, r5, pc}
 1676              	.L226:
 1677 001a 0123     		movs	r3, #1
 1678 001c E218     		adds	r2, r4, r3
 1679 001e 1B21     		movs	r1, #27
 1680 0020 2846     		mov	r0, r5
 1681 0022 FFF7FEFF 		bl	ism330dhcx_read_reg
 1682 0026 0346     		mov	r3, r0
 1683 0028 0028     		cmp	r0, #0
 1684 002a F4D1     		bne	.L222
 1685 002c 0123     		movs	r3, #1
 1686 002e A21C     		adds	r2, r4, #2
 1687 0030 1C21     		movs	r1, #28
 1688 0032 2846     		mov	r0, r5
 1689 0034 FFF7FEFF 		bl	ism330dhcx_read_reg
 1690 0038 0346     		mov	r3, r0
 1691 003a EBE7     		b	.L223
 1692              	.L227:
 1693 003c 0123     		movs	r3, #1
 1694 003e E21C     		adds	r2, r4, #3
 1695 0040 1D21     		movs	r1, #29
 1696 0042 2846     		mov	r0, r5
 1697 0044 FFF7FEFF 		bl	ism330dhcx_read_reg
 1698 0048 0346     		mov	r3, r0
 1699 004a 0028     		cmp	r0, #0
 1700 004c E3D1     		bne	.L222
 1701 004e 0123     		movs	r3, #1
 1702 0050 221D     		adds	r2, r4, #4
 1703 0052 1E21     		movs	r1, #30
 1704 0054 2846     		mov	r0, r5
 1705 0056 FFF7FEFF 		bl	ism330dhcx_read_reg
 1706 005a 0346     		mov	r3, r0
 1707 005c 0028     		cmp	r0, #0
ARM GAS  C:\Temp\cclPUGyV.s 			page 29


 1708 005e DAD1     		bne	.L222
 1709 0060 0221     		movs	r1, #2
 1710 0062 2846     		mov	r0, r5
 1711 0064 FFF7FEFF 		bl	ism330dhcx_mem_bank_set
 1712 0068 0346     		mov	r3, r0
 1713 006a 0028     		cmp	r0, #0
 1714 006c D3D1     		bne	.L222
 1715 006e 0123     		movs	r3, #1
 1716 0070 621D     		adds	r2, r4, #5
 1717 0072 1221     		movs	r1, #18
 1718 0074 2846     		mov	r0, r5
 1719 0076 FFF7FEFF 		bl	ism330dhcx_read_reg
 1720 007a 0346     		mov	r3, r0
 1721 007c 0028     		cmp	r0, #0
 1722 007e CAD1     		bne	.L222
 1723 0080 0123     		movs	r3, #1
 1724 0082 A21D     		adds	r2, r4, #6
 1725 0084 1321     		movs	r1, #19
 1726 0086 2846     		mov	r0, r5
 1727 0088 FFF7FEFF 		bl	ism330dhcx_read_reg
 1728 008c 0346     		mov	r3, r0
 1729 008e 0028     		cmp	r0, #0
 1730 0090 C1D1     		bne	.L222
 1731 0092 0123     		movs	r3, #1
 1732 0094 E21D     		adds	r2, r4, #7
 1733 0096 1421     		movs	r1, #20
 1734 0098 2846     		mov	r0, r5
 1735 009a FFF7FEFF 		bl	ism330dhcx_read_reg
 1736 009e 0346     		mov	r3, r0
 1737 00a0 0028     		cmp	r0, #0
 1738 00a2 B8D1     		bne	.L222
 1739 00a4 0021     		movs	r1, #0
 1740 00a6 2846     		mov	r0, r5
 1741 00a8 FFF7FEFF 		bl	ism330dhcx_mem_bank_set
 1742 00ac 0346     		mov	r3, r0
 1743 00ae B2E7     		b	.L222
 1745              		.section	.text.ism330dhcx_number_of_steps_get,"ax",%progbits
 1746              		.align	1
 1747              		.global	ism330dhcx_number_of_steps_get
 1748              		.syntax unified
 1749              		.thumb
 1750              		.thumb_func
 1752              	ism330dhcx_number_of_steps_get:
 1753              		@ args = 0, pretend = 0, frame = 8
 1754              		@ frame_needed = 0, uses_anonymous_args = 0
 1755 0000 30B5     		push	{r4, r5, lr}
 1756 0002 83B0     		sub	sp, sp, #12
 1757 0004 0546     		mov	r5, r0
 1758 0006 0C46     		mov	r4, r1
 1759 0008 0221     		movs	r1, #2
 1760 000a FFF7FEFF 		bl	ism330dhcx_mem_bank_set
 1761 000e 08B1     		cbz	r0, .L231
 1762              	.L228:
 1763 0010 03B0     		add	sp, sp, #12
 1764              		@ sp needed
 1765 0012 30BD     		pop	{r4, r5, pc}
 1766              	.L231:
ARM GAS  C:\Temp\cclPUGyV.s 			page 30


 1767 0014 0223     		movs	r3, #2
 1768 0016 01AA     		add	r2, sp, #4
 1769 0018 6221     		movs	r1, #98
 1770 001a 2846     		mov	r0, r5
 1771 001c FFF7FEFF 		bl	ism330dhcx_read_reg
 1772 0020 9DF80510 		ldrb	r1, [sp, #5]	@ zero_extendqisi2
 1773 0024 2180     		strh	r1, [r4]	@ movhi
 1774 0026 9DF80430 		ldrb	r3, [sp, #4]	@ zero_extendqisi2
 1775 002a 03EB0123 		add	r3, r3, r1, lsl #8
 1776 002e 2380     		strh	r3, [r4]	@ movhi
 1777 0030 0028     		cmp	r0, #0
 1778 0032 EDD1     		bne	.L228
 1779 0034 0021     		movs	r1, #0
 1780 0036 2846     		mov	r0, r5
 1781 0038 FFF7FEFF 		bl	ism330dhcx_mem_bank_set
 1782 003c E8E7     		b	.L228
 1784              		.section	.text.ism330dhcx_steps_reset,"ax",%progbits
 1785              		.align	1
 1786              		.global	ism330dhcx_steps_reset
 1787              		.syntax unified
 1788              		.thumb
 1789              		.thumb_func
 1791              	ism330dhcx_steps_reset:
 1792              		@ args = 0, pretend = 0, frame = 8
 1793              		@ frame_needed = 0, uses_anonymous_args = 0
 1794 0000 10B5     		push	{r4, lr}
 1795 0002 82B0     		sub	sp, sp, #8
 1796 0004 0446     		mov	r4, r0
 1797 0006 0221     		movs	r1, #2
 1798 0008 FFF7FEFF 		bl	ism330dhcx_mem_bank_set
 1799 000c 0346     		mov	r3, r0
 1800 000e 18B1     		cbz	r0, .L236
 1801              	.L233:
 1802 0010 CBB1     		cbz	r3, .L237
 1803              	.L232:
 1804 0012 1846     		mov	r0, r3
 1805 0014 02B0     		add	sp, sp, #8
 1806              		@ sp needed
 1807 0016 10BD     		pop	{r4, pc}
 1808              	.L236:
 1809 0018 0123     		movs	r3, #1
 1810 001a 01AA     		add	r2, sp, #4
 1811 001c 6421     		movs	r1, #100
 1812 001e 2046     		mov	r0, r4
 1813 0020 FFF7FEFF 		bl	ism330dhcx_read_reg
 1814 0024 0346     		mov	r3, r0
 1815 0026 0028     		cmp	r0, #0
 1816 0028 F3D1     		bne	.L232
 1817 002a 9DF80430 		ldrb	r3, [sp, #4]	@ zero_extendqisi2
 1818 002e 43F08003 		orr	r3, r3, #128
 1819 0032 8DF80430 		strb	r3, [sp, #4]
 1820 0036 0123     		movs	r3, #1
 1821 0038 01AA     		add	r2, sp, #4
 1822 003a 6421     		movs	r1, #100
 1823 003c 2046     		mov	r0, r4
 1824 003e FFF7FEFF 		bl	ism330dhcx_write_reg
 1825 0042 0346     		mov	r3, r0
ARM GAS  C:\Temp\cclPUGyV.s 			page 31


 1826 0044 E4E7     		b	.L233
 1827              	.L237:
 1828 0046 0021     		movs	r1, #0
 1829 0048 2046     		mov	r0, r4
 1830 004a FFF7FEFF 		bl	ism330dhcx_mem_bank_set
 1831 004e 0346     		mov	r3, r0
 1832 0050 DFE7     		b	.L232
 1834              		.section	.text.ism330dhcx_mlc_out_get,"ax",%progbits
 1835              		.align	1
 1836              		.global	ism330dhcx_mlc_out_get
 1837              		.syntax unified
 1838              		.thumb
 1839              		.thumb_func
 1841              	ism330dhcx_mlc_out_get:
 1842              		@ args = 0, pretend = 0, frame = 0
 1843              		@ frame_needed = 0, uses_anonymous_args = 0
 1844 0000 38B5     		push	{r3, r4, r5, lr}
 1845 0002 0446     		mov	r4, r0
 1846 0004 0D46     		mov	r5, r1
 1847 0006 0221     		movs	r1, #2
 1848 0008 FFF7FEFF 		bl	ism330dhcx_mem_bank_set
 1849 000c 00B1     		cbz	r0, .L241
 1850              	.L238:
 1851 000e 38BD     		pop	{r3, r4, r5, pc}
 1852              	.L241:
 1853 0010 0823     		movs	r3, #8
 1854 0012 2A46     		mov	r2, r5
 1855 0014 7021     		movs	r1, #112
 1856 0016 2046     		mov	r0, r4
 1857 0018 FFF7FEFF 		bl	ism330dhcx_read_reg
 1858 001c 0028     		cmp	r0, #0
 1859 001e F6D1     		bne	.L238
 1860 0020 0021     		movs	r1, #0
 1861 0022 2046     		mov	r0, r4
 1862 0024 FFF7FEFF 		bl	ism330dhcx_mem_bank_set
 1863 0028 F1E7     		b	.L238
 1865              		.section	.text.ism330dhcx_mem_bank_get,"ax",%progbits
 1866              		.align	1
 1867              		.global	ism330dhcx_mem_bank_get
 1868              		.syntax unified
 1869              		.thumb
 1870              		.thumb_func
 1872              	ism330dhcx_mem_bank_get:
 1873              		@ args = 0, pretend = 0, frame = 8
 1874              		@ frame_needed = 0, uses_anonymous_args = 0
 1875 0000 10B5     		push	{r4, lr}
 1876 0002 82B0     		sub	sp, sp, #8
 1877 0004 0C46     		mov	r4, r1
 1878 0006 0123     		movs	r3, #1
 1879 0008 01AA     		add	r2, sp, #4
 1880 000a 1946     		mov	r1, r3
 1881 000c FFF7FEFF 		bl	ism330dhcx_read_reg
 1882 0010 9DF80430 		ldrb	r3, [sp, #4]	@ zero_extendqisi2
 1883 0014 9B09     		lsrs	r3, r3, #6
 1884 0016 012B     		cmp	r3, #1
 1885 0018 08D0     		beq	.L243
 1886 001a 022B     		cmp	r3, #2
ARM GAS  C:\Temp\cclPUGyV.s 			page 32


 1887 001c 09D0     		beq	.L244
 1888 001e 13B1     		cbz	r3, .L248
 1889 0020 0023     		movs	r3, #0
 1890 0022 2370     		strb	r3, [r4]
 1891 0024 00E0     		b	.L242
 1892              	.L248:
 1893 0026 2370     		strb	r3, [r4]
 1894              	.L242:
 1895 0028 02B0     		add	sp, sp, #8
 1896              		@ sp needed
 1897 002a 10BD     		pop	{r4, pc}
 1898              	.L243:
 1899 002c 0123     		movs	r3, #1
 1900 002e 2370     		strb	r3, [r4]
 1901 0030 FAE7     		b	.L242
 1902              	.L244:
 1903 0032 0223     		movs	r3, #2
 1904 0034 2370     		strb	r3, [r4]
 1905 0036 F7E7     		b	.L242
 1907              		.section	.text.ism330dhcx_ln_pg_write_byte,"ax",%progbits
 1908              		.align	1
 1909              		.global	ism330dhcx_ln_pg_write_byte
 1910              		.syntax unified
 1911              		.thumb
 1912              		.thumb_func
 1914              	ism330dhcx_ln_pg_write_byte:
 1915              		@ args = 0, pretend = 0, frame = 16
 1916              		@ frame_needed = 0, uses_anonymous_args = 0
 1917 0000 70B5     		push	{r4, r5, r6, lr}
 1918 0002 84B0     		sub	sp, sp, #16
 1919 0004 0646     		mov	r6, r0
 1920 0006 0D46     		mov	r5, r1
 1921 0008 1446     		mov	r4, r2
 1922 000a 0221     		movs	r1, #2
 1923 000c FFF7FEFF 		bl	ism330dhcx_mem_bank_set
 1924 0010 0346     		mov	r3, r0
 1925 0012 18B1     		cbz	r0, .L253
 1926              	.L250:
 1927 0014 D3B1     		cbz	r3, .L254
 1928              	.L249:
 1929 0016 1846     		mov	r0, r3
 1930 0018 04B0     		add	sp, sp, #16
 1931              		@ sp needed
 1932 001a 70BD     		pop	{r4, r5, r6, pc}
 1933              	.L253:
 1934 001c 0123     		movs	r3, #1
 1935 001e 03AA     		add	r2, sp, #12
 1936 0020 1721     		movs	r1, #23
 1937 0022 3046     		mov	r0, r6
 1938 0024 FFF7FEFF 		bl	ism330dhcx_read_reg
 1939 0028 0346     		mov	r3, r0
 1940 002a 0028     		cmp	r0, #0
 1941 002c F3D1     		bne	.L249
 1942 002e 9DF80C30 		ldrb	r3, [sp, #12]	@ zero_extendqisi2
 1943 0032 0222     		movs	r2, #2
 1944 0034 62F34613 		bfi	r3, r2, #5, #2
 1945 0038 8DF80C30 		strb	r3, [sp, #12]
ARM GAS  C:\Temp\cclPUGyV.s 			page 33


 1946 003c 0123     		movs	r3, #1
 1947 003e 03AA     		add	r2, sp, #12
 1948 0040 1721     		movs	r1, #23
 1949 0042 3046     		mov	r0, r6
 1950 0044 FFF7FEFF 		bl	ism330dhcx_write_reg
 1951 0048 0346     		mov	r3, r0
 1952 004a E3E7     		b	.L250
 1953              	.L254:
 1954 004c 0123     		movs	r3, #1
 1955 004e 02AA     		add	r2, sp, #8
 1956 0050 0221     		movs	r1, #2
 1957 0052 3046     		mov	r0, r6
 1958 0054 FFF7FEFF 		bl	ism330dhcx_read_reg
 1959 0058 0346     		mov	r3, r0
 1960 005a 0028     		cmp	r0, #0
 1961 005c DBD1     		bne	.L249
 1962 005e C5F30323 		ubfx	r3, r5, #8, #4
 1963 0062 9DF80820 		ldrb	r2, [sp, #8]	@ zero_extendqisi2
 1964 0066 63F30712 		bfi	r2, r3, #4, #4
 1965 006a 8DF80820 		strb	r2, [sp, #8]
 1966 006e D2B2     		uxtb	r2, r2
 1967 0070 0123     		movs	r3, #1
 1968 0072 63F30302 		bfi	r2, r3, #0, #4
 1969 0076 8DF80820 		strb	r2, [sp, #8]
 1970 007a 02AA     		add	r2, sp, #8
 1971 007c 0221     		movs	r1, #2
 1972 007e 3046     		mov	r0, r6
 1973 0080 FFF7FEFF 		bl	ism330dhcx_write_reg
 1974 0084 0346     		mov	r3, r0
 1975 0086 0028     		cmp	r0, #0
 1976 0088 C5D1     		bne	.L249
 1977 008a 8DF80450 		strb	r5, [sp, #4]
 1978 008e 0123     		movs	r3, #1
 1979 0090 01AA     		add	r2, sp, #4
 1980 0092 0821     		movs	r1, #8
 1981 0094 3046     		mov	r0, r6
 1982 0096 FFF7FEFF 		bl	ism330dhcx_write_reg
 1983 009a 0346     		mov	r3, r0
 1984 009c 0028     		cmp	r0, #0
 1985 009e BAD1     		bne	.L249
 1986 00a0 0123     		movs	r3, #1
 1987 00a2 2246     		mov	r2, r4
 1988 00a4 0921     		movs	r1, #9
 1989 00a6 3046     		mov	r0, r6
 1990 00a8 FFF7FEFF 		bl	ism330dhcx_write_reg
 1991 00ac 0346     		mov	r3, r0
 1992 00ae 0028     		cmp	r0, #0
 1993 00b0 B1D1     		bne	.L249
 1994 00b2 0123     		movs	r3, #1
 1995 00b4 03AA     		add	r2, sp, #12
 1996 00b6 1721     		movs	r1, #23
 1997 00b8 3046     		mov	r0, r6
 1998 00ba FFF7FEFF 		bl	ism330dhcx_read_reg
 1999 00be 0346     		mov	r3, r0
 2000 00c0 0028     		cmp	r0, #0
 2001 00c2 A8D1     		bne	.L249
 2002 00c4 9DF80C30 		ldrb	r3, [sp, #12]	@ zero_extendqisi2
ARM GAS  C:\Temp\cclPUGyV.s 			page 34


 2003 00c8 6FF34613 		bfc	r3, #5, #2
 2004 00cc 8DF80C30 		strb	r3, [sp, #12]
 2005 00d0 0123     		movs	r3, #1
 2006 00d2 03AA     		add	r2, sp, #12
 2007 00d4 1721     		movs	r1, #23
 2008 00d6 3046     		mov	r0, r6
 2009 00d8 FFF7FEFF 		bl	ism330dhcx_write_reg
 2010 00dc 0346     		mov	r3, r0
 2011 00de 0028     		cmp	r0, #0
 2012 00e0 99D1     		bne	.L249
 2013 00e2 0021     		movs	r1, #0
 2014 00e4 3046     		mov	r0, r6
 2015 00e6 FFF7FEFF 		bl	ism330dhcx_mem_bank_set
 2016 00ea 0346     		mov	r3, r0
 2017 00ec 93E7     		b	.L249
 2019              		.section	.text.ism330dhcx_ln_pg_write,"ax",%progbits
 2020              		.align	1
 2021              		.global	ism330dhcx_ln_pg_write
 2022              		.syntax unified
 2023              		.thumb
 2024              		.thumb_func
 2026              	ism330dhcx_ln_pg_write:
 2027              		@ args = 0, pretend = 0, frame = 16
 2028              		@ frame_needed = 0, uses_anonymous_args = 0
 2029 0000 2DE9F043 		push	{r4, r5, r6, r7, r8, r9, lr}
 2030 0004 85B0     		sub	sp, sp, #20
 2031 0006 0746     		mov	r7, r0
 2032 0008 9046     		mov	r8, r2
 2033 000a 1E46     		mov	r6, r3
 2034 000c 0C0A     		lsrs	r4, r1, #8
 2035 000e C1F30329 		ubfx	r9, r1, #8, #4
 2036 0012 CDB2     		uxtb	r5, r1
 2037 0014 0221     		movs	r1, #2
 2038 0016 FFF7FEFF 		bl	ism330dhcx_mem_bank_set
 2039 001a 0146     		mov	r1, r0
 2040 001c 10B1     		cbz	r0, .L265
 2041              	.L256:
 2042 001e C9B1     		cbz	r1, .L266
 2043              	.L257:
 2044 0020 0024     		movs	r4, #0
 2045 0022 43E0     		b	.L258
 2046              	.L265:
 2047 0024 0123     		movs	r3, #1
 2048 0026 03AA     		add	r2, sp, #12
 2049 0028 1721     		movs	r1, #23
 2050 002a 3846     		mov	r0, r7
 2051 002c FFF7FEFF 		bl	ism330dhcx_read_reg
 2052 0030 0146     		mov	r1, r0
 2053 0032 0028     		cmp	r0, #0
 2054 0034 F4D1     		bne	.L257
 2055 0036 9DF80C30 		ldrb	r3, [sp, #12]	@ zero_extendqisi2
 2056 003a 0222     		movs	r2, #2
 2057 003c 62F34613 		bfi	r3, r2, #5, #2
 2058 0040 8DF80C30 		strb	r3, [sp, #12]
 2059 0044 0123     		movs	r3, #1
 2060 0046 03AA     		add	r2, sp, #12
 2061 0048 1721     		movs	r1, #23
ARM GAS  C:\Temp\cclPUGyV.s 			page 35


 2062 004a 3846     		mov	r0, r7
 2063 004c FFF7FEFF 		bl	ism330dhcx_write_reg
 2064 0050 0146     		mov	r1, r0
 2065 0052 E4E7     		b	.L256
 2066              	.L266:
 2067 0054 0123     		movs	r3, #1
 2068 0056 02AA     		add	r2, sp, #8
 2069 0058 0221     		movs	r1, #2
 2070 005a 3846     		mov	r0, r7
 2071 005c FFF7FEFF 		bl	ism330dhcx_read_reg
 2072 0060 0146     		mov	r1, r0
 2073 0062 0028     		cmp	r0, #0
 2074 0064 DCD1     		bne	.L257
 2075 0066 9DF80830 		ldrb	r3, [sp, #8]	@ zero_extendqisi2
 2076 006a 64F30713 		bfi	r3, r4, #4, #4
 2077 006e 8DF80830 		strb	r3, [sp, #8]
 2078 0072 DAB2     		uxtb	r2, r3
 2079 0074 0123     		movs	r3, #1
 2080 0076 63F30302 		bfi	r2, r3, #0, #4
 2081 007a 8DF80820 		strb	r2, [sp, #8]
 2082 007e 02AA     		add	r2, sp, #8
 2083 0080 0221     		movs	r1, #2
 2084 0082 3846     		mov	r0, r7
 2085 0084 FFF7FEFF 		bl	ism330dhcx_write_reg
 2086 0088 0146     		mov	r1, r0
 2087 008a 0028     		cmp	r0, #0
 2088 008c C8D1     		bne	.L257
 2089 008e 8DF80450 		strb	r5, [sp, #4]
 2090 0092 0123     		movs	r3, #1
 2091 0094 01AA     		add	r2, sp, #4
 2092 0096 0821     		movs	r1, #8
 2093 0098 3846     		mov	r0, r7
 2094 009a FFF7FEFF 		bl	ism330dhcx_write_reg
 2095 009e 0146     		mov	r1, r0
 2096 00a0 BEE7     		b	.L257
 2097              	.L261:
 2098 00a2 0135     		adds	r5, r5, #1
 2099 00a4 EDB2     		uxtb	r5, r5
 2100              	.L260:
 2101 00a6 E9B1     		cbz	r1, .L267
 2102              	.L259:
 2103 00a8 0134     		adds	r4, r4, #1
 2104 00aa E4B2     		uxtb	r4, r4
 2105              	.L258:
 2106 00ac B442     		cmp	r4, r6
 2107 00ae 2CD2     		bcs	.L268
 2108 00b0 0029     		cmp	r1, #0
 2109 00b2 F9D1     		bne	.L259
 2110 00b4 0123     		movs	r3, #1
 2111 00b6 08EB0402 		add	r2, r8, r4
 2112 00ba 0921     		movs	r1, #9
 2113 00bc 3846     		mov	r0, r7
 2114 00be FFF7FEFF 		bl	ism330dhcx_write_reg
 2115 00c2 0146     		mov	r1, r0
 2116 00c4 0028     		cmp	r0, #0
 2117 00c6 EED1     		bne	.L260
 2118 00c8 002D     		cmp	r5, #0
ARM GAS  C:\Temp\cclPUGyV.s 			page 36


 2119 00ca EAD1     		bne	.L261
 2120 00cc 09F10109 		add	r9, r9, #1
 2121 00d0 5FFA89F9 		uxtb	r9, r9
 2122 00d4 0123     		movs	r3, #1
 2123 00d6 02AA     		add	r2, sp, #8
 2124 00d8 0221     		movs	r1, #2
 2125 00da 3846     		mov	r0, r7
 2126 00dc FFF7FEFF 		bl	ism330dhcx_read_reg
 2127 00e0 0146     		mov	r1, r0
 2128 00e2 DEE7     		b	.L261
 2129              	.L267:
 2130 00e4 9DF80830 		ldrb	r3, [sp, #8]	@ zero_extendqisi2
 2131 00e8 69F30713 		bfi	r3, r9, #4, #4
 2132 00ec 8DF80830 		strb	r3, [sp, #8]
 2133 00f0 DAB2     		uxtb	r2, r3
 2134 00f2 0123     		movs	r3, #1
 2135 00f4 63F30302 		bfi	r2, r3, #0, #4
 2136 00f8 8DF80820 		strb	r2, [sp, #8]
 2137 00fc 02AA     		add	r2, sp, #8
 2138 00fe 0221     		movs	r1, #2
 2139 0100 3846     		mov	r0, r7
 2140 0102 FFF7FEFF 		bl	ism330dhcx_write_reg
 2141 0106 0146     		mov	r1, r0
 2142 0108 CEE7     		b	.L259
 2143              	.L268:
 2144 010a 19B1     		cbz	r1, .L269
 2145              	.L255:
 2146 010c 0846     		mov	r0, r1
 2147 010e 05B0     		add	sp, sp, #20
 2148              		@ sp needed
 2149 0110 BDE8F083 		pop	{r4, r5, r6, r7, r8, r9, pc}
 2150              	.L269:
 2151 0114 9DF80830 		ldrb	r3, [sp, #8]	@ zero_extendqisi2
 2152 0118 6FF30713 		bfc	r3, #4, #4
 2153 011c 8DF80830 		strb	r3, [sp, #8]
 2154 0120 DAB2     		uxtb	r2, r3
 2155 0122 0123     		movs	r3, #1
 2156 0124 63F30302 		bfi	r2, r3, #0, #4
 2157 0128 8DF80820 		strb	r2, [sp, #8]
 2158 012c 02AA     		add	r2, sp, #8
 2159 012e 0221     		movs	r1, #2
 2160 0130 3846     		mov	r0, r7
 2161 0132 FFF7FEFF 		bl	ism330dhcx_write_reg
 2162 0136 0146     		mov	r1, r0
 2163 0138 0028     		cmp	r0, #0
 2164 013a E7D1     		bne	.L255
 2165 013c 0123     		movs	r3, #1
 2166 013e 03AA     		add	r2, sp, #12
 2167 0140 1721     		movs	r1, #23
 2168 0142 3846     		mov	r0, r7
 2169 0144 FFF7FEFF 		bl	ism330dhcx_read_reg
 2170 0148 0146     		mov	r1, r0
 2171 014a 0028     		cmp	r0, #0
 2172 014c DED1     		bne	.L255
 2173 014e 9DF80C30 		ldrb	r3, [sp, #12]	@ zero_extendqisi2
 2174 0152 6FF34613 		bfc	r3, #5, #2
 2175 0156 8DF80C30 		strb	r3, [sp, #12]
ARM GAS  C:\Temp\cclPUGyV.s 			page 37


 2176 015a 0123     		movs	r3, #1
 2177 015c 03AA     		add	r2, sp, #12
 2178 015e 1721     		movs	r1, #23
 2179 0160 3846     		mov	r0, r7
 2180 0162 FFF7FEFF 		bl	ism330dhcx_write_reg
 2181 0166 0146     		mov	r1, r0
 2182 0168 0028     		cmp	r0, #0
 2183 016a CFD1     		bne	.L255
 2184 016c 0021     		movs	r1, #0
 2185 016e 3846     		mov	r0, r7
 2186 0170 FFF7FEFF 		bl	ism330dhcx_mem_bank_set
 2187 0174 0146     		mov	r1, r0
 2188 0176 C9E7     		b	.L255
 2190              		.section	.text.ism330dhcx_ln_pg_read_byte,"ax",%progbits
 2191              		.align	1
 2192              		.global	ism330dhcx_ln_pg_read_byte
 2193              		.syntax unified
 2194              		.thumb
 2195              		.thumb_func
 2197              	ism330dhcx_ln_pg_read_byte:
 2198              		@ args = 0, pretend = 0, frame = 16
 2199              		@ frame_needed = 0, uses_anonymous_args = 0
 2200 0000 70B5     		push	{r4, r5, r6, lr}
 2201 0002 84B0     		sub	sp, sp, #16
 2202 0004 0646     		mov	r6, r0
 2203 0006 0D46     		mov	r5, r1
 2204 0008 1446     		mov	r4, r2
 2205 000a 0221     		movs	r1, #2
 2206 000c FFF7FEFF 		bl	ism330dhcx_mem_bank_set
 2207 0010 0346     		mov	r3, r0
 2208 0012 18B1     		cbz	r0, .L274
 2209              	.L271:
 2210 0014 CBB1     		cbz	r3, .L275
 2211              	.L270:
 2212 0016 1846     		mov	r0, r3
 2213 0018 04B0     		add	sp, sp, #16
 2214              		@ sp needed
 2215 001a 70BD     		pop	{r4, r5, r6, pc}
 2216              	.L274:
 2217 001c 0123     		movs	r3, #1
 2218 001e 03AA     		add	r2, sp, #12
 2219 0020 1721     		movs	r1, #23
 2220 0022 3046     		mov	r0, r6
 2221 0024 FFF7FEFF 		bl	ism330dhcx_read_reg
 2222 0028 0346     		mov	r3, r0
 2223 002a 0028     		cmp	r0, #0
 2224 002c F3D1     		bne	.L270
 2225 002e 9DF80C20 		ldrb	r2, [sp, #12]	@ zero_extendqisi2
 2226 0032 0123     		movs	r3, #1
 2227 0034 63F34612 		bfi	r2, r3, #5, #2
 2228 0038 8DF80C20 		strb	r2, [sp, #12]
 2229 003c 03AA     		add	r2, sp, #12
 2230 003e 1721     		movs	r1, #23
 2231 0040 3046     		mov	r0, r6
 2232 0042 FFF7FEFF 		bl	ism330dhcx_write_reg
 2233 0046 0346     		mov	r3, r0
 2234 0048 E4E7     		b	.L271
ARM GAS  C:\Temp\cclPUGyV.s 			page 38


 2235              	.L275:
 2236 004a 0123     		movs	r3, #1
 2237 004c 02AA     		add	r2, sp, #8
 2238 004e 0221     		movs	r1, #2
 2239 0050 3046     		mov	r0, r6
 2240 0052 FFF7FEFF 		bl	ism330dhcx_read_reg
 2241 0056 0346     		mov	r3, r0
 2242 0058 0028     		cmp	r0, #0
 2243 005a DCD1     		bne	.L270
 2244 005c C5F30323 		ubfx	r3, r5, #8, #4
 2245 0060 9DF80820 		ldrb	r2, [sp, #8]	@ zero_extendqisi2
 2246 0064 63F30712 		bfi	r2, r3, #4, #4
 2247 0068 8DF80820 		strb	r2, [sp, #8]
 2248 006c D2B2     		uxtb	r2, r2
 2249 006e 0123     		movs	r3, #1
 2250 0070 63F30302 		bfi	r2, r3, #0, #4
 2251 0074 8DF80820 		strb	r2, [sp, #8]
 2252 0078 02AA     		add	r2, sp, #8
 2253 007a 0221     		movs	r1, #2
 2254 007c 3046     		mov	r0, r6
 2255 007e FFF7FEFF 		bl	ism330dhcx_write_reg
 2256 0082 0346     		mov	r3, r0
 2257 0084 0028     		cmp	r0, #0
 2258 0086 C6D1     		bne	.L270
 2259 0088 8DF80450 		strb	r5, [sp, #4]
 2260 008c 0123     		movs	r3, #1
 2261 008e 01AA     		add	r2, sp, #4
 2262 0090 0821     		movs	r1, #8
 2263 0092 3046     		mov	r0, r6
 2264 0094 FFF7FEFF 		bl	ism330dhcx_write_reg
 2265 0098 0346     		mov	r3, r0
 2266 009a 0028     		cmp	r0, #0
 2267 009c BBD1     		bne	.L270
 2268 009e 0223     		movs	r3, #2
 2269 00a0 2246     		mov	r2, r4
 2270 00a2 0921     		movs	r1, #9
 2271 00a4 3046     		mov	r0, r6
 2272 00a6 FFF7FEFF 		bl	ism330dhcx_read_reg
 2273 00aa 0346     		mov	r3, r0
 2274 00ac 0028     		cmp	r0, #0
 2275 00ae B2D1     		bne	.L270
 2276 00b0 0123     		movs	r3, #1
 2277 00b2 03AA     		add	r2, sp, #12
 2278 00b4 1721     		movs	r1, #23
 2279 00b6 3046     		mov	r0, r6
 2280 00b8 FFF7FEFF 		bl	ism330dhcx_read_reg
 2281 00bc 0346     		mov	r3, r0
 2282 00be 0028     		cmp	r0, #0
 2283 00c0 A9D1     		bne	.L270
 2284 00c2 9DF80C30 		ldrb	r3, [sp, #12]	@ zero_extendqisi2
 2285 00c6 6FF34613 		bfc	r3, #5, #2
 2286 00ca 8DF80C30 		strb	r3, [sp, #12]
 2287 00ce 0123     		movs	r3, #1
 2288 00d0 03AA     		add	r2, sp, #12
 2289 00d2 1721     		movs	r1, #23
 2290 00d4 3046     		mov	r0, r6
 2291 00d6 FFF7FEFF 		bl	ism330dhcx_write_reg
ARM GAS  C:\Temp\cclPUGyV.s 			page 39


 2292 00da 0346     		mov	r3, r0
 2293 00dc 0028     		cmp	r0, #0
 2294 00de 9AD1     		bne	.L270
 2295 00e0 0021     		movs	r1, #0
 2296 00e2 3046     		mov	r0, r6
 2297 00e4 FFF7FEFF 		bl	ism330dhcx_mem_bank_set
 2298 00e8 0346     		mov	r3, r0
 2299 00ea 94E7     		b	.L270
 2301              		.section	.text.ism330dhcx_data_ready_mode_set,"ax",%progbits
 2302              		.align	1
 2303              		.global	ism330dhcx_data_ready_mode_set
 2304              		.syntax unified
 2305              		.thumb
 2306              		.thumb_func
 2308              	ism330dhcx_data_ready_mode_set:
 2309              		@ args = 0, pretend = 0, frame = 8
 2310              		@ frame_needed = 0, uses_anonymous_args = 0
 2311 0000 30B5     		push	{r4, r5, lr}
 2312 0002 83B0     		sub	sp, sp, #12
 2313 0004 0446     		mov	r4, r0
 2314 0006 0D46     		mov	r5, r1
 2315 0008 0123     		movs	r3, #1
 2316 000a 01AA     		add	r2, sp, #4
 2317 000c 0B21     		movs	r1, #11
 2318 000e FFF7FEFF 		bl	ism330dhcx_read_reg
 2319 0012 08B1     		cbz	r0, .L279
 2320              	.L276:
 2321 0014 03B0     		add	sp, sp, #12
 2322              		@ sp needed
 2323 0016 30BD     		pop	{r4, r5, pc}
 2324              	.L279:
 2325 0018 9DF80430 		ldrb	r3, [sp, #4]	@ zero_extendqisi2
 2326 001c 65F3C713 		bfi	r3, r5, #7, #1
 2327 0020 8DF80430 		strb	r3, [sp, #4]
 2328 0024 0123     		movs	r3, #1
 2329 0026 01AA     		add	r2, sp, #4
 2330 0028 0B21     		movs	r1, #11
 2331 002a 2046     		mov	r0, r4
 2332 002c FFF7FEFF 		bl	ism330dhcx_write_reg
 2333 0030 F0E7     		b	.L276
 2335              		.section	.text.ism330dhcx_data_ready_mode_get,"ax",%progbits
 2336              		.align	1
 2337              		.global	ism330dhcx_data_ready_mode_get
 2338              		.syntax unified
 2339              		.thumb
 2340              		.thumb_func
 2342              	ism330dhcx_data_ready_mode_get:
 2343              		@ args = 0, pretend = 0, frame = 8
 2344              		@ frame_needed = 0, uses_anonymous_args = 0
 2345 0000 10B5     		push	{r4, lr}
 2346 0002 82B0     		sub	sp, sp, #8
 2347 0004 0C46     		mov	r4, r1
 2348 0006 0123     		movs	r3, #1
 2349 0008 01AA     		add	r2, sp, #4
 2350 000a 0B21     		movs	r1, #11
 2351 000c FFF7FEFF 		bl	ism330dhcx_read_reg
 2352 0010 9DF80430 		ldrb	r3, [sp, #4]	@ zero_extendqisi2
ARM GAS  C:\Temp\cclPUGyV.s 			page 40


 2353 0014 DB09     		lsrs	r3, r3, #7
 2354 0016 03D0     		beq	.L281
 2355 0018 33B9     		cbnz	r3, .L282
 2356 001a 0023     		movs	r3, #0
 2357 001c 2370     		strb	r3, [r4]
 2358 001e 01E0     		b	.L280
 2359              	.L281:
 2360 0020 0023     		movs	r3, #0
 2361 0022 2370     		strb	r3, [r4]
 2362              	.L280:
 2363 0024 02B0     		add	sp, sp, #8
 2364              		@ sp needed
 2365 0026 10BD     		pop	{r4, pc}
 2366              	.L282:
 2367 0028 0123     		movs	r3, #1
 2368 002a 2370     		strb	r3, [r4]
 2369 002c FAE7     		b	.L280
 2371              		.section	.text.ism330dhcx_device_id_get,"ax",%progbits
 2372              		.align	1
 2373              		.global	ism330dhcx_device_id_get
 2374              		.syntax unified
 2375              		.thumb
 2376              		.thumb_func
 2378              	ism330dhcx_device_id_get:
 2379              		@ args = 0, pretend = 0, frame = 0
 2380              		@ frame_needed = 0, uses_anonymous_args = 0
 2381 0000 08B5     		push	{r3, lr}
 2382 0002 0A46     		mov	r2, r1
 2383 0004 0123     		movs	r3, #1
 2384 0006 0F21     		movs	r1, #15
 2385 0008 FFF7FEFF 		bl	ism330dhcx_read_reg
 2386 000c 08BD     		pop	{r3, pc}
 2388              		.section	.text.ism330dhcx_reset_set,"ax",%progbits
 2389              		.align	1
 2390              		.global	ism330dhcx_reset_set
 2391              		.syntax unified
 2392              		.thumb
 2393              		.thumb_func
 2395              	ism330dhcx_reset_set:
 2396              		@ args = 0, pretend = 0, frame = 8
 2397              		@ frame_needed = 0, uses_anonymous_args = 0
 2398 0000 30B5     		push	{r4, r5, lr}
 2399 0002 83B0     		sub	sp, sp, #12
 2400 0004 0446     		mov	r4, r0
 2401 0006 0D46     		mov	r5, r1
 2402 0008 0123     		movs	r3, #1
 2403 000a 01AA     		add	r2, sp, #4
 2404 000c 1221     		movs	r1, #18
 2405 000e FFF7FEFF 		bl	ism330dhcx_read_reg
 2406 0012 08B1     		cbz	r0, .L292
 2407              	.L289:
 2408 0014 03B0     		add	sp, sp, #12
 2409              		@ sp needed
 2410 0016 30BD     		pop	{r4, r5, pc}
 2411              	.L292:
 2412 0018 9DF80430 		ldrb	r3, [sp, #4]	@ zero_extendqisi2
 2413 001c 65F30003 		bfi	r3, r5, #0, #1
ARM GAS  C:\Temp\cclPUGyV.s 			page 41


 2414 0020 8DF80430 		strb	r3, [sp, #4]
 2415 0024 0123     		movs	r3, #1
 2416 0026 01AA     		add	r2, sp, #4
 2417 0028 1221     		movs	r1, #18
 2418 002a 2046     		mov	r0, r4
 2419 002c FFF7FEFF 		bl	ism330dhcx_write_reg
 2420 0030 F0E7     		b	.L289
 2422              		.section	.text.ism330dhcx_reset_get,"ax",%progbits
 2423              		.align	1
 2424              		.global	ism330dhcx_reset_get
 2425              		.syntax unified
 2426              		.thumb
 2427              		.thumb_func
 2429              	ism330dhcx_reset_get:
 2430              		@ args = 0, pretend = 0, frame = 8
 2431              		@ frame_needed = 0, uses_anonymous_args = 0
 2432 0000 10B5     		push	{r4, lr}
 2433 0002 82B0     		sub	sp, sp, #8
 2434 0004 0C46     		mov	r4, r1
 2435 0006 0123     		movs	r3, #1
 2436 0008 01AA     		add	r2, sp, #4
 2437 000a 1221     		movs	r1, #18
 2438 000c FFF7FEFF 		bl	ism330dhcx_read_reg
 2439 0010 9DF80430 		ldrb	r3, [sp, #4]	@ zero_extendqisi2
 2440 0014 C3F30003 		ubfx	r3, r3, #0, #1
 2441 0018 2370     		strb	r3, [r4]
 2442 001a 02B0     		add	sp, sp, #8
 2443              		@ sp needed
 2444 001c 10BD     		pop	{r4, pc}
 2446              		.section	.text.ism330dhcx_auto_increment_set,"ax",%progbits
 2447              		.align	1
 2448              		.global	ism330dhcx_auto_increment_set
 2449              		.syntax unified
 2450              		.thumb
 2451              		.thumb_func
 2453              	ism330dhcx_auto_increment_set:
 2454              		@ args = 0, pretend = 0, frame = 8
 2455              		@ frame_needed = 0, uses_anonymous_args = 0
 2456 0000 30B5     		push	{r4, r5, lr}
 2457 0002 83B0     		sub	sp, sp, #12
 2458 0004 0446     		mov	r4, r0
 2459 0006 0D46     		mov	r5, r1
 2460 0008 0123     		movs	r3, #1
 2461 000a 01AA     		add	r2, sp, #4
 2462 000c 1221     		movs	r1, #18
 2463 000e FFF7FEFF 		bl	ism330dhcx_read_reg
 2464 0012 08B1     		cbz	r0, .L298
 2465              	.L295:
 2466 0014 03B0     		add	sp, sp, #12
 2467              		@ sp needed
 2468 0016 30BD     		pop	{r4, r5, pc}
 2469              	.L298:
 2470 0018 9DF80430 		ldrb	r3, [sp, #4]	@ zero_extendqisi2
 2471 001c 65F38203 		bfi	r3, r5, #2, #1
 2472 0020 8DF80430 		strb	r3, [sp, #4]
 2473 0024 0123     		movs	r3, #1
 2474 0026 01AA     		add	r2, sp, #4
ARM GAS  C:\Temp\cclPUGyV.s 			page 42


 2475 0028 1221     		movs	r1, #18
 2476 002a 2046     		mov	r0, r4
 2477 002c FFF7FEFF 		bl	ism330dhcx_write_reg
 2478 0030 F0E7     		b	.L295
 2480              		.section	.text.ism330dhcx_auto_increment_get,"ax",%progbits
 2481              		.align	1
 2482              		.global	ism330dhcx_auto_increment_get
 2483              		.syntax unified
 2484              		.thumb
 2485              		.thumb_func
 2487              	ism330dhcx_auto_increment_get:
 2488              		@ args = 0, pretend = 0, frame = 8
 2489              		@ frame_needed = 0, uses_anonymous_args = 0
 2490 0000 10B5     		push	{r4, lr}
 2491 0002 82B0     		sub	sp, sp, #8
 2492 0004 0C46     		mov	r4, r1
 2493 0006 0123     		movs	r3, #1
 2494 0008 01AA     		add	r2, sp, #4
 2495 000a 1221     		movs	r1, #18
 2496 000c FFF7FEFF 		bl	ism330dhcx_read_reg
 2497 0010 9DF80430 		ldrb	r3, [sp, #4]	@ zero_extendqisi2
 2498 0014 C3F38003 		ubfx	r3, r3, #2, #1
 2499 0018 2370     		strb	r3, [r4]
 2500 001a 02B0     		add	sp, sp, #8
 2501              		@ sp needed
 2502 001c 10BD     		pop	{r4, pc}
 2504              		.section	.text.ism330dhcx_boot_set,"ax",%progbits
 2505              		.align	1
 2506              		.global	ism330dhcx_boot_set
 2507              		.syntax unified
 2508              		.thumb
 2509              		.thumb_func
 2511              	ism330dhcx_boot_set:
 2512              		@ args = 0, pretend = 0, frame = 8
 2513              		@ frame_needed = 0, uses_anonymous_args = 0
 2514 0000 30B5     		push	{r4, r5, lr}
 2515 0002 83B0     		sub	sp, sp, #12
 2516 0004 0446     		mov	r4, r0
 2517 0006 0D46     		mov	r5, r1
 2518 0008 0123     		movs	r3, #1
 2519 000a 01AA     		add	r2, sp, #4
 2520 000c 1221     		movs	r1, #18
 2521 000e FFF7FEFF 		bl	ism330dhcx_read_reg
 2522 0012 08B1     		cbz	r0, .L304
 2523              	.L301:
 2524 0014 03B0     		add	sp, sp, #12
 2525              		@ sp needed
 2526 0016 30BD     		pop	{r4, r5, pc}
 2527              	.L304:
 2528 0018 9DF80430 		ldrb	r3, [sp, #4]	@ zero_extendqisi2
 2529 001c 65F3C713 		bfi	r3, r5, #7, #1
 2530 0020 8DF80430 		strb	r3, [sp, #4]
 2531 0024 0123     		movs	r3, #1
 2532 0026 01AA     		add	r2, sp, #4
 2533 0028 1221     		movs	r1, #18
 2534 002a 2046     		mov	r0, r4
 2535 002c FFF7FEFF 		bl	ism330dhcx_write_reg
ARM GAS  C:\Temp\cclPUGyV.s 			page 43


 2536 0030 F0E7     		b	.L301
 2538              		.section	.text.ism330dhcx_boot_get,"ax",%progbits
 2539              		.align	1
 2540              		.global	ism330dhcx_boot_get
 2541              		.syntax unified
 2542              		.thumb
 2543              		.thumb_func
 2545              	ism330dhcx_boot_get:
 2546              		@ args = 0, pretend = 0, frame = 8
 2547              		@ frame_needed = 0, uses_anonymous_args = 0
 2548 0000 10B5     		push	{r4, lr}
 2549 0002 82B0     		sub	sp, sp, #8
 2550 0004 0C46     		mov	r4, r1
 2551 0006 0123     		movs	r3, #1
 2552 0008 01AA     		add	r2, sp, #4
 2553 000a 1221     		movs	r1, #18
 2554 000c FFF7FEFF 		bl	ism330dhcx_read_reg
 2555 0010 9DF80430 		ldrb	r3, [sp, #4]	@ zero_extendqisi2
 2556 0014 C3F3C013 		ubfx	r3, r3, #7, #1
 2557 0018 2370     		strb	r3, [r4]
 2558 001a 02B0     		add	sp, sp, #8
 2559              		@ sp needed
 2560 001c 10BD     		pop	{r4, pc}
 2562              		.section	.text.ism330dhcx_xl_self_test_set,"ax",%progbits
 2563              		.align	1
 2564              		.global	ism330dhcx_xl_self_test_set
 2565              		.syntax unified
 2566              		.thumb
 2567              		.thumb_func
 2569              	ism330dhcx_xl_self_test_set:
 2570              		@ args = 0, pretend = 0, frame = 8
 2571              		@ frame_needed = 0, uses_anonymous_args = 0
 2572 0000 30B5     		push	{r4, r5, lr}
 2573 0002 83B0     		sub	sp, sp, #12
 2574 0004 0446     		mov	r4, r0
 2575 0006 0D46     		mov	r5, r1
 2576 0008 0123     		movs	r3, #1
 2577 000a 01AA     		add	r2, sp, #4
 2578 000c 1421     		movs	r1, #20
 2579 000e FFF7FEFF 		bl	ism330dhcx_read_reg
 2580 0012 08B1     		cbz	r0, .L310
 2581              	.L307:
 2582 0014 03B0     		add	sp, sp, #12
 2583              		@ sp needed
 2584 0016 30BD     		pop	{r4, r5, pc}
 2585              	.L310:
 2586 0018 9DF80430 		ldrb	r3, [sp, #4]	@ zero_extendqisi2
 2587 001c 65F30103 		bfi	r3, r5, #0, #2
 2588 0020 8DF80430 		strb	r3, [sp, #4]
 2589 0024 0123     		movs	r3, #1
 2590 0026 01AA     		add	r2, sp, #4
 2591 0028 1421     		movs	r1, #20
 2592 002a 2046     		mov	r0, r4
 2593 002c FFF7FEFF 		bl	ism330dhcx_write_reg
 2594 0030 F0E7     		b	.L307
 2596              		.section	.text.ism330dhcx_xl_self_test_get,"ax",%progbits
 2597              		.align	1
ARM GAS  C:\Temp\cclPUGyV.s 			page 44


 2598              		.global	ism330dhcx_xl_self_test_get
 2599              		.syntax unified
 2600              		.thumb
 2601              		.thumb_func
 2603              	ism330dhcx_xl_self_test_get:
 2604              		@ args = 0, pretend = 0, frame = 8
 2605              		@ frame_needed = 0, uses_anonymous_args = 0
 2606 0000 10B5     		push	{r4, lr}
 2607 0002 82B0     		sub	sp, sp, #8
 2608 0004 0C46     		mov	r4, r1
 2609 0006 0123     		movs	r3, #1
 2610 0008 01AA     		add	r2, sp, #4
 2611 000a 1421     		movs	r1, #20
 2612 000c FFF7FEFF 		bl	ism330dhcx_read_reg
 2613 0010 9DF80430 		ldrb	r3, [sp, #4]	@ zero_extendqisi2
 2614 0014 03F00303 		and	r3, r3, #3
 2615 0018 012B     		cmp	r3, #1
 2616 001a 08D0     		beq	.L312
 2617 001c 022B     		cmp	r3, #2
 2618 001e 09D0     		beq	.L313
 2619 0020 13B1     		cbz	r3, .L317
 2620 0022 0023     		movs	r3, #0
 2621 0024 2370     		strb	r3, [r4]
 2622 0026 00E0     		b	.L311
 2623              	.L317:
 2624 0028 2370     		strb	r3, [r4]
 2625              	.L311:
 2626 002a 02B0     		add	sp, sp, #8
 2627              		@ sp needed
 2628 002c 10BD     		pop	{r4, pc}
 2629              	.L312:
 2630 002e 0123     		movs	r3, #1
 2631 0030 2370     		strb	r3, [r4]
 2632 0032 FAE7     		b	.L311
 2633              	.L313:
 2634 0034 0223     		movs	r3, #2
 2635 0036 2370     		strb	r3, [r4]
 2636 0038 F7E7     		b	.L311
 2638              		.section	.text.ism330dhcx_gy_self_test_set,"ax",%progbits
 2639              		.align	1
 2640              		.global	ism330dhcx_gy_self_test_set
 2641              		.syntax unified
 2642              		.thumb
 2643              		.thumb_func
 2645              	ism330dhcx_gy_self_test_set:
 2646              		@ args = 0, pretend = 0, frame = 8
 2647              		@ frame_needed = 0, uses_anonymous_args = 0
 2648 0000 30B5     		push	{r4, r5, lr}
 2649 0002 83B0     		sub	sp, sp, #12
 2650 0004 0446     		mov	r4, r0
 2651 0006 0D46     		mov	r5, r1
 2652 0008 0123     		movs	r3, #1
 2653 000a 01AA     		add	r2, sp, #4
 2654 000c 1421     		movs	r1, #20
 2655 000e FFF7FEFF 		bl	ism330dhcx_read_reg
 2656 0012 08B1     		cbz	r0, .L321
 2657              	.L318:
ARM GAS  C:\Temp\cclPUGyV.s 			page 45


 2658 0014 03B0     		add	sp, sp, #12
 2659              		@ sp needed
 2660 0016 30BD     		pop	{r4, r5, pc}
 2661              	.L321:
 2662 0018 9DF80430 		ldrb	r3, [sp, #4]	@ zero_extendqisi2
 2663 001c 65F38303 		bfi	r3, r5, #2, #2
 2664 0020 8DF80430 		strb	r3, [sp, #4]
 2665 0024 0123     		movs	r3, #1
 2666 0026 01AA     		add	r2, sp, #4
 2667 0028 1421     		movs	r1, #20
 2668 002a 2046     		mov	r0, r4
 2669 002c FFF7FEFF 		bl	ism330dhcx_write_reg
 2670 0030 F0E7     		b	.L318
 2672              		.section	.text.ism330dhcx_gy_self_test_get,"ax",%progbits
 2673              		.align	1
 2674              		.global	ism330dhcx_gy_self_test_get
 2675              		.syntax unified
 2676              		.thumb
 2677              		.thumb_func
 2679              	ism330dhcx_gy_self_test_get:
 2680              		@ args = 0, pretend = 0, frame = 8
 2681              		@ frame_needed = 0, uses_anonymous_args = 0
 2682 0000 10B5     		push	{r4, lr}
 2683 0002 82B0     		sub	sp, sp, #8
 2684 0004 0C46     		mov	r4, r1
 2685 0006 0123     		movs	r3, #1
 2686 0008 01AA     		add	r2, sp, #4
 2687 000a 1421     		movs	r1, #20
 2688 000c FFF7FEFF 		bl	ism330dhcx_read_reg
 2689 0010 9DF80430 		ldrb	r3, [sp, #4]	@ zero_extendqisi2
 2690 0014 C3F38103 		ubfx	r3, r3, #2, #2
 2691 0018 012B     		cmp	r3, #1
 2692 001a 08D0     		beq	.L323
 2693 001c 032B     		cmp	r3, #3
 2694 001e 09D0     		beq	.L324
 2695 0020 13B1     		cbz	r3, .L328
 2696 0022 0023     		movs	r3, #0
 2697 0024 2370     		strb	r3, [r4]
 2698 0026 00E0     		b	.L322
 2699              	.L328:
 2700 0028 2370     		strb	r3, [r4]
 2701              	.L322:
 2702 002a 02B0     		add	sp, sp, #8
 2703              		@ sp needed
 2704 002c 10BD     		pop	{r4, pc}
 2705              	.L323:
 2706 002e 0123     		movs	r3, #1
 2707 0030 2370     		strb	r3, [r4]
 2708 0032 FAE7     		b	.L322
 2709              	.L324:
 2710 0034 0323     		movs	r3, #3
 2711 0036 2370     		strb	r3, [r4]
 2712 0038 F7E7     		b	.L322
 2714              		.section	.text.ism330dhcx_xl_filter_lp2_set,"ax",%progbits
 2715              		.align	1
 2716              		.global	ism330dhcx_xl_filter_lp2_set
 2717              		.syntax unified
ARM GAS  C:\Temp\cclPUGyV.s 			page 46


 2718              		.thumb
 2719              		.thumb_func
 2721              	ism330dhcx_xl_filter_lp2_set:
 2722              		@ args = 0, pretend = 0, frame = 8
 2723              		@ frame_needed = 0, uses_anonymous_args = 0
 2724 0000 30B5     		push	{r4, r5, lr}
 2725 0002 83B0     		sub	sp, sp, #12
 2726 0004 0446     		mov	r4, r0
 2727 0006 0D46     		mov	r5, r1
 2728 0008 0123     		movs	r3, #1
 2729 000a 01AA     		add	r2, sp, #4
 2730 000c 1021     		movs	r1, #16
 2731 000e FFF7FEFF 		bl	ism330dhcx_read_reg
 2732 0012 08B1     		cbz	r0, .L332
 2733              	.L329:
 2734 0014 03B0     		add	sp, sp, #12
 2735              		@ sp needed
 2736 0016 30BD     		pop	{r4, r5, pc}
 2737              	.L332:
 2738 0018 9DF80430 		ldrb	r3, [sp, #4]	@ zero_extendqisi2
 2739 001c 65F34103 		bfi	r3, r5, #1, #1
 2740 0020 8DF80430 		strb	r3, [sp, #4]
 2741 0024 0123     		movs	r3, #1
 2742 0026 01AA     		add	r2, sp, #4
 2743 0028 1021     		movs	r1, #16
 2744 002a 2046     		mov	r0, r4
 2745 002c FFF7FEFF 		bl	ism330dhcx_write_reg
 2746 0030 F0E7     		b	.L329
 2748              		.section	.text.ism330dhcx_xl_filter_lp2_get,"ax",%progbits
 2749              		.align	1
 2750              		.global	ism330dhcx_xl_filter_lp2_get
 2751              		.syntax unified
 2752              		.thumb
 2753              		.thumb_func
 2755              	ism330dhcx_xl_filter_lp2_get:
 2756              		@ args = 0, pretend = 0, frame = 8
 2757              		@ frame_needed = 0, uses_anonymous_args = 0
 2758 0000 10B5     		push	{r4, lr}
 2759 0002 82B0     		sub	sp, sp, #8
 2760 0004 0C46     		mov	r4, r1
 2761 0006 0123     		movs	r3, #1
 2762 0008 01AA     		add	r2, sp, #4
 2763 000a 1021     		movs	r1, #16
 2764 000c FFF7FEFF 		bl	ism330dhcx_read_reg
 2765 0010 9DF80430 		ldrb	r3, [sp, #4]	@ zero_extendqisi2
 2766 0014 C3F34003 		ubfx	r3, r3, #1, #1
 2767 0018 2370     		strb	r3, [r4]
 2768 001a 02B0     		add	sp, sp, #8
 2769              		@ sp needed
 2770 001c 10BD     		pop	{r4, pc}
 2772              		.section	.text.ism330dhcx_gy_filter_lp1_set,"ax",%progbits
 2773              		.align	1
 2774              		.global	ism330dhcx_gy_filter_lp1_set
 2775              		.syntax unified
 2776              		.thumb
 2777              		.thumb_func
 2779              	ism330dhcx_gy_filter_lp1_set:
ARM GAS  C:\Temp\cclPUGyV.s 			page 47


 2780              		@ args = 0, pretend = 0, frame = 8
 2781              		@ frame_needed = 0, uses_anonymous_args = 0
 2782 0000 30B5     		push	{r4, r5, lr}
 2783 0002 83B0     		sub	sp, sp, #12
 2784 0004 0446     		mov	r4, r0
 2785 0006 0D46     		mov	r5, r1
 2786 0008 0123     		movs	r3, #1
 2787 000a 01AA     		add	r2, sp, #4
 2788 000c 1321     		movs	r1, #19
 2789 000e FFF7FEFF 		bl	ism330dhcx_read_reg
 2790 0012 08B1     		cbz	r0, .L338
 2791              	.L335:
 2792 0014 03B0     		add	sp, sp, #12
 2793              		@ sp needed
 2794 0016 30BD     		pop	{r4, r5, pc}
 2795              	.L338:
 2796 0018 9DF80430 		ldrb	r3, [sp, #4]	@ zero_extendqisi2
 2797 001c 65F34103 		bfi	r3, r5, #1, #1
 2798 0020 8DF80430 		strb	r3, [sp, #4]
 2799 0024 0123     		movs	r3, #1
 2800 0026 01AA     		add	r2, sp, #4
 2801 0028 1321     		movs	r1, #19
 2802 002a 2046     		mov	r0, r4
 2803 002c FFF7FEFF 		bl	ism330dhcx_write_reg
 2804 0030 F0E7     		b	.L335
 2806              		.section	.text.ism330dhcx_gy_filter_lp1_get,"ax",%progbits
 2807              		.align	1
 2808              		.global	ism330dhcx_gy_filter_lp1_get
 2809              		.syntax unified
 2810              		.thumb
 2811              		.thumb_func
 2813              	ism330dhcx_gy_filter_lp1_get:
 2814              		@ args = 0, pretend = 0, frame = 8
 2815              		@ frame_needed = 0, uses_anonymous_args = 0
 2816 0000 10B5     		push	{r4, lr}
 2817 0002 82B0     		sub	sp, sp, #8
 2818 0004 0C46     		mov	r4, r1
 2819 0006 0123     		movs	r3, #1
 2820 0008 01AA     		add	r2, sp, #4
 2821 000a 1321     		movs	r1, #19
 2822 000c FFF7FEFF 		bl	ism330dhcx_read_reg
 2823 0010 9DF80430 		ldrb	r3, [sp, #4]	@ zero_extendqisi2
 2824 0014 C3F34003 		ubfx	r3, r3, #1, #1
 2825 0018 2370     		strb	r3, [r4]
 2826 001a 02B0     		add	sp, sp, #8
 2827              		@ sp needed
 2828 001c 10BD     		pop	{r4, pc}
 2830              		.section	.text.ism330dhcx_filter_settling_mask_set,"ax",%progbits
 2831              		.align	1
 2832              		.global	ism330dhcx_filter_settling_mask_set
 2833              		.syntax unified
 2834              		.thumb
 2835              		.thumb_func
 2837              	ism330dhcx_filter_settling_mask_set:
 2838              		@ args = 0, pretend = 0, frame = 8
 2839              		@ frame_needed = 0, uses_anonymous_args = 0
 2840 0000 30B5     		push	{r4, r5, lr}
ARM GAS  C:\Temp\cclPUGyV.s 			page 48


 2841 0002 83B0     		sub	sp, sp, #12
 2842 0004 0446     		mov	r4, r0
 2843 0006 0D46     		mov	r5, r1
 2844 0008 0123     		movs	r3, #1
 2845 000a 01AA     		add	r2, sp, #4
 2846 000c 1321     		movs	r1, #19
 2847 000e FFF7FEFF 		bl	ism330dhcx_read_reg
 2848 0012 08B1     		cbz	r0, .L344
 2849              	.L341:
 2850 0014 03B0     		add	sp, sp, #12
 2851              		@ sp needed
 2852 0016 30BD     		pop	{r4, r5, pc}
 2853              	.L344:
 2854 0018 9DF80430 		ldrb	r3, [sp, #4]	@ zero_extendqisi2
 2855 001c 65F3C303 		bfi	r3, r5, #3, #1
 2856 0020 8DF80430 		strb	r3, [sp, #4]
 2857 0024 0123     		movs	r3, #1
 2858 0026 01AA     		add	r2, sp, #4
 2859 0028 1321     		movs	r1, #19
 2860 002a 2046     		mov	r0, r4
 2861 002c FFF7FEFF 		bl	ism330dhcx_write_reg
 2862 0030 F0E7     		b	.L341
 2864              		.section	.text.ism330dhcx_filter_settling_mask_get,"ax",%progbits
 2865              		.align	1
 2866              		.global	ism330dhcx_filter_settling_mask_get
 2867              		.syntax unified
 2868              		.thumb
 2869              		.thumb_func
 2871              	ism330dhcx_filter_settling_mask_get:
 2872              		@ args = 0, pretend = 0, frame = 8
 2873              		@ frame_needed = 0, uses_anonymous_args = 0
 2874 0000 10B5     		push	{r4, lr}
 2875 0002 82B0     		sub	sp, sp, #8
 2876 0004 0C46     		mov	r4, r1
 2877 0006 0123     		movs	r3, #1
 2878 0008 01AA     		add	r2, sp, #4
 2879 000a 1321     		movs	r1, #19
 2880 000c FFF7FEFF 		bl	ism330dhcx_read_reg
 2881 0010 9DF80430 		ldrb	r3, [sp, #4]	@ zero_extendqisi2
 2882 0014 C3F3C003 		ubfx	r3, r3, #3, #1
 2883 0018 2370     		strb	r3, [r4]
 2884 001a 02B0     		add	sp, sp, #8
 2885              		@ sp needed
 2886 001c 10BD     		pop	{r4, pc}
 2888              		.section	.text.ism330dhcx_gy_lp1_bandwidth_set,"ax",%progbits
 2889              		.align	1
 2890              		.global	ism330dhcx_gy_lp1_bandwidth_set
 2891              		.syntax unified
 2892              		.thumb
 2893              		.thumb_func
 2895              	ism330dhcx_gy_lp1_bandwidth_set:
 2896              		@ args = 0, pretend = 0, frame = 8
 2897              		@ frame_needed = 0, uses_anonymous_args = 0
 2898 0000 30B5     		push	{r4, r5, lr}
 2899 0002 83B0     		sub	sp, sp, #12
 2900 0004 0446     		mov	r4, r0
 2901 0006 0D46     		mov	r5, r1
ARM GAS  C:\Temp\cclPUGyV.s 			page 49


 2902 0008 0123     		movs	r3, #1
 2903 000a 01AA     		add	r2, sp, #4
 2904 000c 1521     		movs	r1, #21
 2905 000e FFF7FEFF 		bl	ism330dhcx_read_reg
 2906 0012 08B1     		cbz	r0, .L350
 2907              	.L347:
 2908 0014 03B0     		add	sp, sp, #12
 2909              		@ sp needed
 2910 0016 30BD     		pop	{r4, r5, pc}
 2911              	.L350:
 2912 0018 9DF80430 		ldrb	r3, [sp, #4]	@ zero_extendqisi2
 2913 001c 65F30203 		bfi	r3, r5, #0, #3
 2914 0020 8DF80430 		strb	r3, [sp, #4]
 2915 0024 0123     		movs	r3, #1
 2916 0026 01AA     		add	r2, sp, #4
 2917 0028 1521     		movs	r1, #21
 2918 002a 2046     		mov	r0, r4
 2919 002c FFF7FEFF 		bl	ism330dhcx_write_reg
 2920 0030 F0E7     		b	.L347
 2922              		.section	.text.ism330dhcx_gy_lp1_bandwidth_get,"ax",%progbits
 2923              		.align	1
 2924              		.global	ism330dhcx_gy_lp1_bandwidth_get
 2925              		.syntax unified
 2926              		.thumb
 2927              		.thumb_func
 2929              	ism330dhcx_gy_lp1_bandwidth_get:
 2930              		@ args = 0, pretend = 0, frame = 8
 2931              		@ frame_needed = 0, uses_anonymous_args = 0
 2932 0000 10B5     		push	{r4, lr}
 2933 0002 82B0     		sub	sp, sp, #8
 2934 0004 0C46     		mov	r4, r1
 2935 0006 0123     		movs	r3, #1
 2936 0008 01AA     		add	r2, sp, #4
 2937 000a 1521     		movs	r1, #21
 2938 000c FFF7FEFF 		bl	ism330dhcx_read_reg
 2939 0010 9DF80430 		ldrb	r3, [sp, #4]	@ zero_extendqisi2
 2940 0014 03F00703 		and	r3, r3, #7
 2941 0018 072B     		cmp	r3, #7
 2942 001a 1ED8     		bhi	.L352
 2943 001c DFE803F0 		tbb	[pc, r3]
 2944              	.L354:
 2945 0020 04       		.byte	(.L361-.L354)/2
 2946 0021 08       		.byte	(.L360-.L354)/2
 2947 0022 0B       		.byte	(.L359-.L354)/2
 2948 0023 0E       		.byte	(.L358-.L354)/2
 2949 0024 11       		.byte	(.L357-.L354)/2
 2950 0025 14       		.byte	(.L356-.L354)/2
 2951 0026 17       		.byte	(.L355-.L354)/2
 2952 0027 1A       		.byte	(.L353-.L354)/2
 2953              		.p2align 1
 2954              	.L361:
 2955 0028 0023     		movs	r3, #0
 2956 002a 2370     		strb	r3, [r4]
 2957              	.L351:
 2958 002c 02B0     		add	sp, sp, #8
 2959              		@ sp needed
 2960 002e 10BD     		pop	{r4, pc}
ARM GAS  C:\Temp\cclPUGyV.s 			page 50


 2961              	.L360:
 2962 0030 0123     		movs	r3, #1
 2963 0032 2370     		strb	r3, [r4]
 2964 0034 FAE7     		b	.L351
 2965              	.L359:
 2966 0036 0223     		movs	r3, #2
 2967 0038 2370     		strb	r3, [r4]
 2968 003a F7E7     		b	.L351
 2969              	.L358:
 2970 003c 0323     		movs	r3, #3
 2971 003e 2370     		strb	r3, [r4]
 2972 0040 F4E7     		b	.L351
 2973              	.L357:
 2974 0042 0423     		movs	r3, #4
 2975 0044 2370     		strb	r3, [r4]
 2976 0046 F1E7     		b	.L351
 2977              	.L356:
 2978 0048 0523     		movs	r3, #5
 2979 004a 2370     		strb	r3, [r4]
 2980 004c EEE7     		b	.L351
 2981              	.L355:
 2982 004e 0623     		movs	r3, #6
 2983 0050 2370     		strb	r3, [r4]
 2984 0052 EBE7     		b	.L351
 2985              	.L353:
 2986 0054 0723     		movs	r3, #7
 2987 0056 2370     		strb	r3, [r4]
 2988 0058 E8E7     		b	.L351
 2989              	.L352:
 2990 005a 0023     		movs	r3, #0
 2991 005c 2370     		strb	r3, [r4]
 2992 005e E5E7     		b	.L351
 2994              		.section	.text.ism330dhcx_xl_lp2_on_6d_set,"ax",%progbits
 2995              		.align	1
 2996              		.global	ism330dhcx_xl_lp2_on_6d_set
 2997              		.syntax unified
 2998              		.thumb
 2999              		.thumb_func
 3001              	ism330dhcx_xl_lp2_on_6d_set:
 3002              		@ args = 0, pretend = 0, frame = 8
 3003              		@ frame_needed = 0, uses_anonymous_args = 0
 3004 0000 30B5     		push	{r4, r5, lr}
 3005 0002 83B0     		sub	sp, sp, #12
 3006 0004 0446     		mov	r4, r0
 3007 0006 0D46     		mov	r5, r1
 3008 0008 0123     		movs	r3, #1
 3009 000a 01AA     		add	r2, sp, #4
 3010 000c 1721     		movs	r1, #23
 3011 000e FFF7FEFF 		bl	ism330dhcx_read_reg
 3012 0012 08B1     		cbz	r0, .L367
 3013              	.L364:
 3014 0014 03B0     		add	sp, sp, #12
 3015              		@ sp needed
 3016 0016 30BD     		pop	{r4, r5, pc}
 3017              	.L367:
 3018 0018 9DF80430 		ldrb	r3, [sp, #4]	@ zero_extendqisi2
 3019 001c 65F30003 		bfi	r3, r5, #0, #1
ARM GAS  C:\Temp\cclPUGyV.s 			page 51


 3020 0020 8DF80430 		strb	r3, [sp, #4]
 3021 0024 0123     		movs	r3, #1
 3022 0026 01AA     		add	r2, sp, #4
 3023 0028 1721     		movs	r1, #23
 3024 002a 2046     		mov	r0, r4
 3025 002c FFF7FEFF 		bl	ism330dhcx_write_reg
 3026 0030 F0E7     		b	.L364
 3028              		.section	.text.ism330dhcx_xl_lp2_on_6d_get,"ax",%progbits
 3029              		.align	1
 3030              		.global	ism330dhcx_xl_lp2_on_6d_get
 3031              		.syntax unified
 3032              		.thumb
 3033              		.thumb_func
 3035              	ism330dhcx_xl_lp2_on_6d_get:
 3036              		@ args = 0, pretend = 0, frame = 8
 3037              		@ frame_needed = 0, uses_anonymous_args = 0
 3038 0000 10B5     		push	{r4, lr}
 3039 0002 82B0     		sub	sp, sp, #8
 3040 0004 0C46     		mov	r4, r1
 3041 0006 0123     		movs	r3, #1
 3042 0008 01AA     		add	r2, sp, #4
 3043 000a 1721     		movs	r1, #23
 3044 000c FFF7FEFF 		bl	ism330dhcx_read_reg
 3045 0010 9DF80430 		ldrb	r3, [sp, #4]	@ zero_extendqisi2
 3046 0014 C3F30003 		ubfx	r3, r3, #0, #1
 3047 0018 2370     		strb	r3, [r4]
 3048 001a 02B0     		add	sp, sp, #8
 3049              		@ sp needed
 3050 001c 10BD     		pop	{r4, pc}
 3052              		.section	.text.ism330dhcx_xl_hp_path_on_out_set,"ax",%progbits
 3053              		.align	1
 3054              		.global	ism330dhcx_xl_hp_path_on_out_set
 3055              		.syntax unified
 3056              		.thumb
 3057              		.thumb_func
 3059              	ism330dhcx_xl_hp_path_on_out_set:
 3060              		@ args = 0, pretend = 0, frame = 8
 3061              		@ frame_needed = 0, uses_anonymous_args = 0
 3062 0000 30B5     		push	{r4, r5, lr}
 3063 0002 83B0     		sub	sp, sp, #12
 3064 0004 0546     		mov	r5, r0
 3065 0006 0C46     		mov	r4, r1
 3066 0008 0123     		movs	r3, #1
 3067 000a 01AA     		add	r2, sp, #4
 3068 000c 1721     		movs	r1, #23
 3069 000e FFF7FEFF 		bl	ism330dhcx_read_reg
 3070 0012 08B1     		cbz	r0, .L373
 3071              	.L370:
 3072 0014 03B0     		add	sp, sp, #12
 3073              		@ sp needed
 3074 0016 30BD     		pop	{r4, r5, pc}
 3075              	.L373:
 3076 0018 C4F30012 		ubfx	r2, r4, #4, #1
 3077 001c 9DF80430 		ldrb	r3, [sp, #4]	@ zero_extendqisi2
 3078 0020 62F38203 		bfi	r3, r2, #2, #1
 3079 0024 8DF80430 		strb	r3, [sp, #4]
 3080 0028 C4F34012 		ubfx	r2, r4, #5, #1
ARM GAS  C:\Temp\cclPUGyV.s 			page 52


 3081 002c DBB2     		uxtb	r3, r3
 3082 002e 62F30413 		bfi	r3, r2, #4, #1
 3083 0032 8DF80430 		strb	r3, [sp, #4]
 3084 0036 DBB2     		uxtb	r3, r3
 3085 0038 64F34713 		bfi	r3, r4, #5, #3
 3086 003c 8DF80430 		strb	r3, [sp, #4]
 3087 0040 0123     		movs	r3, #1
 3088 0042 01AA     		add	r2, sp, #4
 3089 0044 1721     		movs	r1, #23
 3090 0046 2846     		mov	r0, r5
 3091 0048 FFF7FEFF 		bl	ism330dhcx_write_reg
 3092 004c E2E7     		b	.L370
 3094              		.section	.text.ism330dhcx_xl_hp_path_on_out_get,"ax",%progbits
 3095              		.align	1
 3096              		.global	ism330dhcx_xl_hp_path_on_out_get
 3097              		.syntax unified
 3098              		.thumb
 3099              		.thumb_func
 3101              	ism330dhcx_xl_hp_path_on_out_get:
 3102              		@ args = 0, pretend = 0, frame = 8
 3103              		@ frame_needed = 0, uses_anonymous_args = 0
 3104 0000 10B5     		push	{r4, lr}
 3105 0002 82B0     		sub	sp, sp, #8
 3106 0004 0C46     		mov	r4, r1
 3107 0006 0123     		movs	r3, #1
 3108 0008 01AA     		add	r2, sp, #4
 3109 000a 1721     		movs	r1, #23
 3110 000c FFF7FEFF 		bl	ism330dhcx_read_reg
 3111 0010 9DF80420 		ldrb	r2, [sp, #4]	@ zero_extendqisi2
 3112 0014 C2F30011 		ubfx	r1, r2, #4, #1
 3113 0018 C2F38003 		ubfx	r3, r2, #2, #1
 3114 001c 1B01     		lsls	r3, r3, #4
 3115 001e 03EB4113 		add	r3, r3, r1, lsl #5
 3116 0022 03EB5213 		add	r3, r3, r2, lsr #5
 3117 0026 372B     		cmp	r3, #55
 3118 0028 63D8     		bhi	.L375
 3119 002a DFE803F0 		tbb	[pc, r3]
 3120              	.L377:
 3121 002e 1C       		.byte	(.L399-.L377)/2
 3122 002f 4D       		.byte	(.L398-.L377)/2
 3123 0030 50       		.byte	(.L397-.L377)/2
 3124 0031 53       		.byte	(.L396-.L377)/2
 3125 0032 56       		.byte	(.L395-.L377)/2
 3126 0033 59       		.byte	(.L394-.L377)/2
 3127 0034 5C       		.byte	(.L393-.L377)/2
 3128 0035 5F       		.byte	(.L392-.L377)/2
 3129 0036 62       		.byte	(.L375-.L377)/2
 3130 0037 62       		.byte	(.L375-.L377)/2
 3131 0038 62       		.byte	(.L375-.L377)/2
 3132 0039 62       		.byte	(.L375-.L377)/2
 3133 003a 62       		.byte	(.L375-.L377)/2
 3134 003b 62       		.byte	(.L375-.L377)/2
 3135 003c 62       		.byte	(.L375-.L377)/2
 3136 003d 62       		.byte	(.L375-.L377)/2
 3137 003e 20       		.byte	(.L391-.L377)/2
 3138 003f 23       		.byte	(.L390-.L377)/2
 3139 0040 26       		.byte	(.L389-.L377)/2
ARM GAS  C:\Temp\cclPUGyV.s 			page 53


 3140 0041 29       		.byte	(.L388-.L377)/2
 3141 0042 2C       		.byte	(.L387-.L377)/2
 3142 0043 2F       		.byte	(.L386-.L377)/2
 3143 0044 32       		.byte	(.L385-.L377)/2
 3144 0045 35       		.byte	(.L384-.L377)/2
 3145 0046 62       		.byte	(.L375-.L377)/2
 3146 0047 62       		.byte	(.L375-.L377)/2
 3147 0048 62       		.byte	(.L375-.L377)/2
 3148 0049 62       		.byte	(.L375-.L377)/2
 3149 004a 62       		.byte	(.L375-.L377)/2
 3150 004b 62       		.byte	(.L375-.L377)/2
 3151 004c 62       		.byte	(.L375-.L377)/2
 3152 004d 62       		.byte	(.L375-.L377)/2
 3153 004e 62       		.byte	(.L375-.L377)/2
 3154 004f 62       		.byte	(.L375-.L377)/2
 3155 0050 62       		.byte	(.L375-.L377)/2
 3156 0051 62       		.byte	(.L375-.L377)/2
 3157 0052 62       		.byte	(.L375-.L377)/2
 3158 0053 62       		.byte	(.L375-.L377)/2
 3159 0054 62       		.byte	(.L375-.L377)/2
 3160 0055 62       		.byte	(.L375-.L377)/2
 3161 0056 62       		.byte	(.L375-.L377)/2
 3162 0057 62       		.byte	(.L375-.L377)/2
 3163 0058 62       		.byte	(.L375-.L377)/2
 3164 0059 62       		.byte	(.L375-.L377)/2
 3165 005a 62       		.byte	(.L375-.L377)/2
 3166 005b 62       		.byte	(.L375-.L377)/2
 3167 005c 62       		.byte	(.L375-.L377)/2
 3168 005d 62       		.byte	(.L375-.L377)/2
 3169 005e 62       		.byte	(.L375-.L377)/2
 3170 005f 38       		.byte	(.L383-.L377)/2
 3171 0060 3B       		.byte	(.L382-.L377)/2
 3172 0061 3E       		.byte	(.L381-.L377)/2
 3173 0062 41       		.byte	(.L380-.L377)/2
 3174 0063 44       		.byte	(.L379-.L377)/2
 3175 0064 47       		.byte	(.L378-.L377)/2
 3176 0065 4A       		.byte	(.L376-.L377)/2
 3177              		.p2align 1
 3178              	.L399:
 3179 0066 0023     		movs	r3, #0
 3180 0068 2370     		strb	r3, [r4]
 3181              	.L374:
 3182 006a 02B0     		add	sp, sp, #8
 3183              		@ sp needed
 3184 006c 10BD     		pop	{r4, pc}
 3185              	.L391:
 3186 006e 1023     		movs	r3, #16
 3187 0070 2370     		strb	r3, [r4]
 3188 0072 FAE7     		b	.L374
 3189              	.L390:
 3190 0074 1123     		movs	r3, #17
 3191 0076 2370     		strb	r3, [r4]
 3192 0078 F7E7     		b	.L374
 3193              	.L389:
 3194 007a 1223     		movs	r3, #18
 3195 007c 2370     		strb	r3, [r4]
 3196 007e F4E7     		b	.L374
ARM GAS  C:\Temp\cclPUGyV.s 			page 54


 3197              	.L388:
 3198 0080 1323     		movs	r3, #19
 3199 0082 2370     		strb	r3, [r4]
 3200 0084 F1E7     		b	.L374
 3201              	.L387:
 3202 0086 1423     		movs	r3, #20
 3203 0088 2370     		strb	r3, [r4]
 3204 008a EEE7     		b	.L374
 3205              	.L386:
 3206 008c 1523     		movs	r3, #21
 3207 008e 2370     		strb	r3, [r4]
 3208 0090 EBE7     		b	.L374
 3209              	.L385:
 3210 0092 1623     		movs	r3, #22
 3211 0094 2370     		strb	r3, [r4]
 3212 0096 E8E7     		b	.L374
 3213              	.L384:
 3214 0098 1723     		movs	r3, #23
 3215 009a 2370     		strb	r3, [r4]
 3216 009c E5E7     		b	.L374
 3217              	.L383:
 3218 009e 3123     		movs	r3, #49
 3219 00a0 2370     		strb	r3, [r4]
 3220 00a2 E2E7     		b	.L374
 3221              	.L382:
 3222 00a4 3223     		movs	r3, #50
 3223 00a6 2370     		strb	r3, [r4]
 3224 00a8 DFE7     		b	.L374
 3225              	.L381:
 3226 00aa 3323     		movs	r3, #51
 3227 00ac 2370     		strb	r3, [r4]
 3228 00ae DCE7     		b	.L374
 3229              	.L380:
 3230 00b0 3423     		movs	r3, #52
 3231 00b2 2370     		strb	r3, [r4]
 3232 00b4 D9E7     		b	.L374
 3233              	.L379:
 3234 00b6 3523     		movs	r3, #53
 3235 00b8 2370     		strb	r3, [r4]
 3236 00ba D6E7     		b	.L374
 3237              	.L378:
 3238 00bc 3623     		movs	r3, #54
 3239 00be 2370     		strb	r3, [r4]
 3240 00c0 D3E7     		b	.L374
 3241              	.L376:
 3242 00c2 3723     		movs	r3, #55
 3243 00c4 2370     		strb	r3, [r4]
 3244 00c6 D0E7     		b	.L374
 3245              	.L398:
 3246 00c8 0123     		movs	r3, #1
 3247 00ca 2370     		strb	r3, [r4]
 3248 00cc CDE7     		b	.L374
 3249              	.L397:
 3250 00ce 0223     		movs	r3, #2
 3251 00d0 2370     		strb	r3, [r4]
 3252 00d2 CAE7     		b	.L374
 3253              	.L396:
ARM GAS  C:\Temp\cclPUGyV.s 			page 55


 3254 00d4 0323     		movs	r3, #3
 3255 00d6 2370     		strb	r3, [r4]
 3256 00d8 C7E7     		b	.L374
 3257              	.L395:
 3258 00da 0423     		movs	r3, #4
 3259 00dc 2370     		strb	r3, [r4]
 3260 00de C4E7     		b	.L374
 3261              	.L394:
 3262 00e0 0523     		movs	r3, #5
 3263 00e2 2370     		strb	r3, [r4]
 3264 00e4 C1E7     		b	.L374
 3265              	.L393:
 3266 00e6 0623     		movs	r3, #6
 3267 00e8 2370     		strb	r3, [r4]
 3268 00ea BEE7     		b	.L374
 3269              	.L392:
 3270 00ec 0723     		movs	r3, #7
 3271 00ee 2370     		strb	r3, [r4]
 3272 00f0 BBE7     		b	.L374
 3273              	.L375:
 3274 00f2 0023     		movs	r3, #0
 3275 00f4 2370     		strb	r3, [r4]
 3276 00f6 B8E7     		b	.L374
 3278              		.section	.text.ism330dhcx_xl_fast_settling_set,"ax",%progbits
 3279              		.align	1
 3280              		.global	ism330dhcx_xl_fast_settling_set
 3281              		.syntax unified
 3282              		.thumb
 3283              		.thumb_func
 3285              	ism330dhcx_xl_fast_settling_set:
 3286              		@ args = 0, pretend = 0, frame = 8
 3287              		@ frame_needed = 0, uses_anonymous_args = 0
 3288 0000 30B5     		push	{r4, r5, lr}
 3289 0002 83B0     		sub	sp, sp, #12
 3290 0004 0446     		mov	r4, r0
 3291 0006 0D46     		mov	r5, r1
 3292 0008 0123     		movs	r3, #1
 3293 000a 01AA     		add	r2, sp, #4
 3294 000c 1721     		movs	r1, #23
 3295 000e FFF7FEFF 		bl	ism330dhcx_read_reg
 3296 0012 08B1     		cbz	r0, .L405
 3297              	.L402:
 3298 0014 03B0     		add	sp, sp, #12
 3299              		@ sp needed
 3300 0016 30BD     		pop	{r4, r5, pc}
 3301              	.L405:
 3302 0018 9DF80430 		ldrb	r3, [sp, #4]	@ zero_extendqisi2
 3303 001c 65F3C303 		bfi	r3, r5, #3, #1
 3304 0020 8DF80430 		strb	r3, [sp, #4]
 3305 0024 0123     		movs	r3, #1
 3306 0026 01AA     		add	r2, sp, #4
 3307 0028 1721     		movs	r1, #23
 3308 002a 2046     		mov	r0, r4
 3309 002c FFF7FEFF 		bl	ism330dhcx_write_reg
 3310 0030 F0E7     		b	.L402
 3312              		.section	.text.ism330dhcx_xl_fast_settling_get,"ax",%progbits
 3313              		.align	1
ARM GAS  C:\Temp\cclPUGyV.s 			page 56


 3314              		.global	ism330dhcx_xl_fast_settling_get
 3315              		.syntax unified
 3316              		.thumb
 3317              		.thumb_func
 3319              	ism330dhcx_xl_fast_settling_get:
 3320              		@ args = 0, pretend = 0, frame = 8
 3321              		@ frame_needed = 0, uses_anonymous_args = 0
 3322 0000 10B5     		push	{r4, lr}
 3323 0002 82B0     		sub	sp, sp, #8
 3324 0004 0C46     		mov	r4, r1
 3325 0006 0123     		movs	r3, #1
 3326 0008 01AA     		add	r2, sp, #4
 3327 000a 1721     		movs	r1, #23
 3328 000c FFF7FEFF 		bl	ism330dhcx_read_reg
 3329 0010 9DF80430 		ldrb	r3, [sp, #4]	@ zero_extendqisi2
 3330 0014 C3F3C003 		ubfx	r3, r3, #3, #1
 3331 0018 2370     		strb	r3, [r4]
 3332 001a 02B0     		add	sp, sp, #8
 3333              		@ sp needed
 3334 001c 10BD     		pop	{r4, pc}
 3336              		.section	.text.ism330dhcx_xl_hp_path_internal_set,"ax",%progbits
 3337              		.align	1
 3338              		.global	ism330dhcx_xl_hp_path_internal_set
 3339              		.syntax unified
 3340              		.thumb
 3341              		.thumb_func
 3343              	ism330dhcx_xl_hp_path_internal_set:
 3344              		@ args = 0, pretend = 0, frame = 8
 3345              		@ frame_needed = 0, uses_anonymous_args = 0
 3346 0000 30B5     		push	{r4, r5, lr}
 3347 0002 83B0     		sub	sp, sp, #12
 3348 0004 0446     		mov	r4, r0
 3349 0006 0D46     		mov	r5, r1
 3350 0008 0123     		movs	r3, #1
 3351 000a 01AA     		add	r2, sp, #4
 3352 000c 5621     		movs	r1, #86
 3353 000e FFF7FEFF 		bl	ism330dhcx_read_reg
 3354 0012 08B1     		cbz	r0, .L411
 3355              	.L408:
 3356 0014 03B0     		add	sp, sp, #12
 3357              		@ sp needed
 3358 0016 30BD     		pop	{r4, r5, pc}
 3359              	.L411:
 3360 0018 9DF80430 		ldrb	r3, [sp, #4]	@ zero_extendqisi2
 3361 001c 65F30413 		bfi	r3, r5, #4, #1
 3362 0020 8DF80430 		strb	r3, [sp, #4]
 3363 0024 0123     		movs	r3, #1
 3364 0026 01AA     		add	r2, sp, #4
 3365 0028 5621     		movs	r1, #86
 3366 002a 2046     		mov	r0, r4
 3367 002c FFF7FEFF 		bl	ism330dhcx_write_reg
 3368 0030 F0E7     		b	.L408
 3370              		.section	.text.ism330dhcx_xl_hp_path_internal_get,"ax",%progbits
 3371              		.align	1
 3372              		.global	ism330dhcx_xl_hp_path_internal_get
 3373              		.syntax unified
 3374              		.thumb
ARM GAS  C:\Temp\cclPUGyV.s 			page 57


 3375              		.thumb_func
 3377              	ism330dhcx_xl_hp_path_internal_get:
 3378              		@ args = 0, pretend = 0, frame = 8
 3379              		@ frame_needed = 0, uses_anonymous_args = 0
 3380 0000 10B5     		push	{r4, lr}
 3381 0002 82B0     		sub	sp, sp, #8
 3382 0004 0C46     		mov	r4, r1
 3383 0006 0123     		movs	r3, #1
 3384 0008 01AA     		add	r2, sp, #4
 3385 000a 5621     		movs	r1, #86
 3386 000c FFF7FEFF 		bl	ism330dhcx_read_reg
 3387 0010 9DF80430 		ldrb	r3, [sp, #4]	@ zero_extendqisi2
 3388 0014 C3F30012 		ubfx	r2, r3, #4, #1
 3389 0018 13F0100F 		tst	r3, #16
 3390 001c 03D0     		beq	.L413
 3391 001e 32B9     		cbnz	r2, .L414
 3392 0020 0023     		movs	r3, #0
 3393 0022 2370     		strb	r3, [r4]
 3394 0024 01E0     		b	.L412
 3395              	.L413:
 3396 0026 0023     		movs	r3, #0
 3397 0028 2370     		strb	r3, [r4]
 3398              	.L412:
 3399 002a 02B0     		add	sp, sp, #8
 3400              		@ sp needed
 3401 002c 10BD     		pop	{r4, pc}
 3402              	.L414:
 3403 002e 0123     		movs	r3, #1
 3404 0030 2370     		strb	r3, [r4]
 3405 0032 FAE7     		b	.L412
 3407              		.section	.text.ism330dhcx_gy_hp_path_internal_set,"ax",%progbits
 3408              		.align	1
 3409              		.global	ism330dhcx_gy_hp_path_internal_set
 3410              		.syntax unified
 3411              		.thumb
 3412              		.thumb_func
 3414              	ism330dhcx_gy_hp_path_internal_set:
 3415              		@ args = 0, pretend = 0, frame = 8
 3416              		@ frame_needed = 0, uses_anonymous_args = 0
 3417 0000 30B5     		push	{r4, r5, lr}
 3418 0002 83B0     		sub	sp, sp, #12
 3419 0004 0546     		mov	r5, r0
 3420 0006 0C46     		mov	r4, r1
 3421 0008 0123     		movs	r3, #1
 3422 000a 01AA     		add	r2, sp, #4
 3423 000c 1621     		movs	r1, #22
 3424 000e FFF7FEFF 		bl	ism330dhcx_read_reg
 3425 0012 08B1     		cbz	r0, .L422
 3426              	.L419:
 3427 0014 03B0     		add	sp, sp, #12
 3428              		@ sp needed
 3429 0016 30BD     		pop	{r4, r5, pc}
 3430              	.L422:
 3431 0018 E209     		lsrs	r2, r4, #7
 3432 001a 9DF80430 		ldrb	r3, [sp, #4]	@ zero_extendqisi2
 3433 001e 62F38613 		bfi	r3, r2, #6, #1
 3434 0022 8DF80430 		strb	r3, [sp, #4]
ARM GAS  C:\Temp\cclPUGyV.s 			page 58


 3435 0026 DBB2     		uxtb	r3, r3
 3436 0028 64F30513 		bfi	r3, r4, #4, #2
 3437 002c 8DF80430 		strb	r3, [sp, #4]
 3438 0030 0123     		movs	r3, #1
 3439 0032 01AA     		add	r2, sp, #4
 3440 0034 1621     		movs	r1, #22
 3441 0036 2846     		mov	r0, r5
 3442 0038 FFF7FEFF 		bl	ism330dhcx_write_reg
 3443 003c EAE7     		b	.L419
 3445              		.section	.text.ism330dhcx_gy_hp_path_internal_get,"ax",%progbits
 3446              		.align	1
 3447              		.global	ism330dhcx_gy_hp_path_internal_get
 3448              		.syntax unified
 3449              		.thumb
 3450              		.thumb_func
 3452              	ism330dhcx_gy_hp_path_internal_get:
 3453              		@ args = 0, pretend = 0, frame = 8
 3454              		@ frame_needed = 0, uses_anonymous_args = 0
 3455 0000 10B5     		push	{r4, lr}
 3456 0002 82B0     		sub	sp, sp, #8
 3457 0004 0C46     		mov	r4, r1
 3458 0006 0123     		movs	r3, #1
 3459 0008 01AA     		add	r2, sp, #4
 3460 000a 1621     		movs	r1, #22
 3461 000c FFF7FEFF 		bl	ism330dhcx_read_reg
 3462 0010 9DF80430 		ldrb	r3, [sp, #4]	@ zero_extendqisi2
 3463 0014 C3F38012 		ubfx	r2, r3, #6, #1
 3464 0018 C3F30113 		ubfx	r3, r3, #4, #2
 3465 001c 13EBC213 		adds	r3, r3, r2, lsl #7
 3466 0020 0CD0     		beq	.L424
 3467 0022 002B     		cmp	r3, #0
 3468 0024 1ADB     		blt	.L425
 3469 0026 832B     		cmp	r3, #131
 3470 0028 18DC     		bgt	.L425
 3471 002a 802B     		cmp	r3, #128
 3472 002c 16DB     		blt	.L425
 3473 002e 803B     		subs	r3, r3, #128
 3474 0030 032B     		cmp	r3, #3
 3475 0032 13D8     		bhi	.L425
 3476 0034 DFE803F0 		tbb	[pc, r3]
 3477              	.L427:
 3478 0038 06       		.byte	(.L430-.L427)/2
 3479 0039 09       		.byte	(.L429-.L427)/2
 3480 003a 0C       		.byte	(.L428-.L427)/2
 3481 003b 0F       		.byte	(.L426-.L427)/2
 3482              		.p2align 1
 3483              	.L424:
 3484 003c 0023     		movs	r3, #0
 3485 003e 2370     		strb	r3, [r4]
 3486              	.L423:
 3487 0040 02B0     		add	sp, sp, #8
 3488              		@ sp needed
 3489 0042 10BD     		pop	{r4, pc}
 3490              	.L430:
 3491 0044 8023     		movs	r3, #128
 3492 0046 2370     		strb	r3, [r4]
 3493 0048 FAE7     		b	.L423
ARM GAS  C:\Temp\cclPUGyV.s 			page 59


 3494              	.L429:
 3495 004a 8123     		movs	r3, #129
 3496 004c 2370     		strb	r3, [r4]
 3497 004e F7E7     		b	.L423
 3498              	.L428:
 3499 0050 8223     		movs	r3, #130
 3500 0052 2370     		strb	r3, [r4]
 3501 0054 F4E7     		b	.L423
 3502              	.L426:
 3503 0056 8323     		movs	r3, #131
 3504 0058 2370     		strb	r3, [r4]
 3505 005a F1E7     		b	.L423
 3506              	.L425:
 3507 005c 0023     		movs	r3, #0
 3508 005e 2370     		strb	r3, [r4]
 3509 0060 EEE7     		b	.L423
 3511              		.section	.text.ism330dhcx_aux_sdo_ocs_mode_set,"ax",%progbits
 3512              		.align	1
 3513              		.global	ism330dhcx_aux_sdo_ocs_mode_set
 3514              		.syntax unified
 3515              		.thumb
 3516              		.thumb_func
 3518              	ism330dhcx_aux_sdo_ocs_mode_set:
 3519              		@ args = 0, pretend = 0, frame = 8
 3520              		@ frame_needed = 0, uses_anonymous_args = 0
 3521 0000 30B5     		push	{r4, r5, lr}
 3522 0002 83B0     		sub	sp, sp, #12
 3523 0004 0446     		mov	r4, r0
 3524 0006 0D46     		mov	r5, r1
 3525 0008 0123     		movs	r3, #1
 3526 000a 01AA     		add	r2, sp, #4
 3527 000c 0221     		movs	r1, #2
 3528 000e FFF7FEFF 		bl	ism330dhcx_read_reg
 3529 0012 08B1     		cbz	r0, .L437
 3530              	.L434:
 3531 0014 03B0     		add	sp, sp, #12
 3532              		@ sp needed
 3533 0016 30BD     		pop	{r4, r5, pc}
 3534              	.L437:
 3535 0018 9DF80430 		ldrb	r3, [sp, #4]	@ zero_extendqisi2
 3536 001c 65F3C713 		bfi	r3, r5, #7, #1
 3537 0020 8DF80430 		strb	r3, [sp, #4]
 3538 0024 0123     		movs	r3, #1
 3539 0026 01AA     		add	r2, sp, #4
 3540 0028 0221     		movs	r1, #2
 3541 002a 2046     		mov	r0, r4
 3542 002c FFF7FEFF 		bl	ism330dhcx_write_reg
 3543 0030 F0E7     		b	.L434
 3545              		.section	.text.ism330dhcx_aux_sdo_ocs_mode_get,"ax",%progbits
 3546              		.align	1
 3547              		.global	ism330dhcx_aux_sdo_ocs_mode_get
 3548              		.syntax unified
 3549              		.thumb
 3550              		.thumb_func
 3552              	ism330dhcx_aux_sdo_ocs_mode_get:
 3553              		@ args = 0, pretend = 0, frame = 8
 3554              		@ frame_needed = 0, uses_anonymous_args = 0
ARM GAS  C:\Temp\cclPUGyV.s 			page 60


 3555 0000 10B5     		push	{r4, lr}
 3556 0002 82B0     		sub	sp, sp, #8
 3557 0004 0C46     		mov	r4, r1
 3558 0006 0123     		movs	r3, #1
 3559 0008 01AA     		add	r2, sp, #4
 3560 000a 0221     		movs	r1, #2
 3561 000c FFF7FEFF 		bl	ism330dhcx_read_reg
 3562 0010 9DF80430 		ldrb	r3, [sp, #4]	@ zero_extendqisi2
 3563 0014 DB09     		lsrs	r3, r3, #7
 3564 0016 03D0     		beq	.L439
 3565 0018 33B9     		cbnz	r3, .L440
 3566 001a 0023     		movs	r3, #0
 3567 001c 2370     		strb	r3, [r4]
 3568 001e 01E0     		b	.L438
 3569              	.L439:
 3570 0020 0023     		movs	r3, #0
 3571 0022 2370     		strb	r3, [r4]
 3572              	.L438:
 3573 0024 02B0     		add	sp, sp, #8
 3574              		@ sp needed
 3575 0026 10BD     		pop	{r4, pc}
 3576              	.L440:
 3577 0028 0123     		movs	r3, #1
 3578 002a 2370     		strb	r3, [r4]
 3579 002c FAE7     		b	.L438
 3581              		.section	.text.ism330dhcx_aux_pw_on_ctrl_set,"ax",%progbits
 3582              		.align	1
 3583              		.global	ism330dhcx_aux_pw_on_ctrl_set
 3584              		.syntax unified
 3585              		.thumb
 3586              		.thumb_func
 3588              	ism330dhcx_aux_pw_on_ctrl_set:
 3589              		@ args = 0, pretend = 0, frame = 8
 3590              		@ frame_needed = 0, uses_anonymous_args = 0
 3591 0000 30B5     		push	{r4, r5, lr}
 3592 0002 83B0     		sub	sp, sp, #12
 3593 0004 0546     		mov	r5, r0
 3594 0006 0C46     		mov	r4, r1
 3595 0008 0123     		movs	r3, #1
 3596 000a 01AA     		add	r2, sp, #4
 3597 000c 1621     		movs	r1, #22
 3598 000e FFF7FEFF 		bl	ism330dhcx_read_reg
 3599 0012 08B1     		cbz	r0, .L448
 3600              	.L445:
 3601 0014 03B0     		add	sp, sp, #12
 3602              		@ sp needed
 3603 0016 30BD     		pop	{r4, r5, pc}
 3604              	.L448:
 3605 0018 04F00101 		and	r1, r4, #1
 3606 001c 9DF80430 		ldrb	r3, [sp, #4]	@ zero_extendqisi2
 3607 0020 61F38203 		bfi	r3, r1, #2, #1
 3608 0024 8DF80430 		strb	r3, [sp, #4]
 3609 0028 DBB2     		uxtb	r3, r3
 3610 002a 61F30003 		bfi	r3, r1, #0, #1
 3611 002e 8DF80430 		strb	r3, [sp, #4]
 3612 0032 0123     		movs	r3, #1
 3613 0034 01AA     		add	r2, sp, #4
ARM GAS  C:\Temp\cclPUGyV.s 			page 61


 3614 0036 1621     		movs	r1, #22
 3615 0038 2846     		mov	r0, r5
 3616 003a FFF7FEFF 		bl	ism330dhcx_write_reg
 3617 003e E9E7     		b	.L445
 3619              		.section	.text.ism330dhcx_aux_pw_on_ctrl_get,"ax",%progbits
 3620              		.align	1
 3621              		.global	ism330dhcx_aux_pw_on_ctrl_get
 3622              		.syntax unified
 3623              		.thumb
 3624              		.thumb_func
 3626              	ism330dhcx_aux_pw_on_ctrl_get:
 3627              		@ args = 0, pretend = 0, frame = 8
 3628              		@ frame_needed = 0, uses_anonymous_args = 0
 3629 0000 10B5     		push	{r4, lr}
 3630 0002 82B0     		sub	sp, sp, #8
 3631 0004 0C46     		mov	r4, r1
 3632 0006 0123     		movs	r3, #1
 3633 0008 01AA     		add	r2, sp, #4
 3634 000a 1621     		movs	r1, #22
 3635 000c FFF7FEFF 		bl	ism330dhcx_read_reg
 3636 0010 9DF80430 		ldrb	r3, [sp, #4]	@ zero_extendqisi2
 3637 0014 13F00103 		ands	r3, r3, #1
 3638 0018 04D0     		beq	.L450
 3639 001a 33B1     		cbz	r3, .L451
 3640 001c 0123     		movs	r3, #1
 3641 001e 2370     		strb	r3, [r4]
 3642              	.L449:
 3643 0020 02B0     		add	sp, sp, #8
 3644              		@ sp needed
 3645 0022 10BD     		pop	{r4, pc}
 3646              	.L450:
 3647 0024 0023     		movs	r3, #0
 3648 0026 2370     		strb	r3, [r4]
 3649 0028 FAE7     		b	.L449
 3650              	.L451:
 3651 002a 0123     		movs	r3, #1
 3652 002c 2370     		strb	r3, [r4]
 3653 002e F7E7     		b	.L449
 3655              		.section	.text.ism330dhcx_aux_status_reg_get,"ax",%progbits
 3656              		.align	1
 3657              		.global	ism330dhcx_aux_status_reg_get
 3658              		.syntax unified
 3659              		.thumb
 3660              		.thumb_func
 3662              	ism330dhcx_aux_status_reg_get:
 3663              		@ args = 0, pretend = 0, frame = 0
 3664              		@ frame_needed = 0, uses_anonymous_args = 0
 3665 0000 08B5     		push	{r3, lr}
 3666 0002 0A46     		mov	r2, r1
 3667 0004 0123     		movs	r3, #1
 3668 0006 1E21     		movs	r1, #30
 3669 0008 FFF7FEFF 		bl	ism330dhcx_read_reg
 3670 000c 08BD     		pop	{r3, pc}
 3672              		.section	.text.ism330dhcx_aux_xl_flag_data_ready_get,"ax",%progbits
 3673              		.align	1
 3674              		.global	ism330dhcx_aux_xl_flag_data_ready_get
 3675              		.syntax unified
ARM GAS  C:\Temp\cclPUGyV.s 			page 62


 3676              		.thumb
 3677              		.thumb_func
 3679              	ism330dhcx_aux_xl_flag_data_ready_get:
 3680              		@ args = 0, pretend = 0, frame = 8
 3681              		@ frame_needed = 0, uses_anonymous_args = 0
 3682 0000 10B5     		push	{r4, lr}
 3683 0002 82B0     		sub	sp, sp, #8
 3684 0004 0C46     		mov	r4, r1
 3685 0006 0123     		movs	r3, #1
 3686 0008 01AA     		add	r2, sp, #4
 3687 000a 1E21     		movs	r1, #30
 3688 000c FFF7FEFF 		bl	ism330dhcx_read_reg
 3689 0010 9DF80430 		ldrb	r3, [sp, #4]	@ zero_extendqisi2
 3690 0014 C3F30003 		ubfx	r3, r3, #0, #1
 3691 0018 2370     		strb	r3, [r4]
 3692 001a 02B0     		add	sp, sp, #8
 3693              		@ sp needed
 3694 001c 10BD     		pop	{r4, pc}
 3696              		.section	.text.ism330dhcx_aux_gy_flag_data_ready_get,"ax",%progbits
 3697              		.align	1
 3698              		.global	ism330dhcx_aux_gy_flag_data_ready_get
 3699              		.syntax unified
 3700              		.thumb
 3701              		.thumb_func
 3703              	ism330dhcx_aux_gy_flag_data_ready_get:
 3704              		@ args = 0, pretend = 0, frame = 8
 3705              		@ frame_needed = 0, uses_anonymous_args = 0
 3706 0000 10B5     		push	{r4, lr}
 3707 0002 82B0     		sub	sp, sp, #8
 3708 0004 0C46     		mov	r4, r1
 3709 0006 0123     		movs	r3, #1
 3710 0008 01AA     		add	r2, sp, #4
 3711 000a 1E21     		movs	r1, #30
 3712 000c FFF7FEFF 		bl	ism330dhcx_read_reg
 3713 0010 9DF80430 		ldrb	r3, [sp, #4]	@ zero_extendqisi2
 3714 0014 C3F34003 		ubfx	r3, r3, #1, #1
 3715 0018 2370     		strb	r3, [r4]
 3716 001a 02B0     		add	sp, sp, #8
 3717              		@ sp needed
 3718 001c 10BD     		pop	{r4, pc}
 3720              		.section	.text.ism330dhcx_aux_gy_flag_settling_get,"ax",%progbits
 3721              		.align	1
 3722              		.global	ism330dhcx_aux_gy_flag_settling_get
 3723              		.syntax unified
 3724              		.thumb
 3725              		.thumb_func
 3727              	ism330dhcx_aux_gy_flag_settling_get:
 3728              		@ args = 0, pretend = 0, frame = 8
 3729              		@ frame_needed = 0, uses_anonymous_args = 0
 3730 0000 10B5     		push	{r4, lr}
 3731 0002 82B0     		sub	sp, sp, #8
 3732 0004 0C46     		mov	r4, r1
 3733 0006 0123     		movs	r3, #1
 3734 0008 01AA     		add	r2, sp, #4
 3735 000a 1E21     		movs	r1, #30
 3736 000c FFF7FEFF 		bl	ism330dhcx_read_reg
 3737 0010 9DF80430 		ldrb	r3, [sp, #4]	@ zero_extendqisi2
ARM GAS  C:\Temp\cclPUGyV.s 			page 63


 3738 0014 C3F38003 		ubfx	r3, r3, #2, #1
 3739 0018 2370     		strb	r3, [r4]
 3740 001a 02B0     		add	sp, sp, #8
 3741              		@ sp needed
 3742 001c 10BD     		pop	{r4, pc}
 3744              		.section	.text.ism330dhcx_aux_xl_self_test_set,"ax",%progbits
 3745              		.align	1
 3746              		.global	ism330dhcx_aux_xl_self_test_set
 3747              		.syntax unified
 3748              		.thumb
 3749              		.thumb_func
 3751              	ism330dhcx_aux_xl_self_test_set:
 3752              		@ args = 0, pretend = 0, frame = 8
 3753              		@ frame_needed = 0, uses_anonymous_args = 0
 3754 0000 30B5     		push	{r4, r5, lr}
 3755 0002 83B0     		sub	sp, sp, #12
 3756 0004 0446     		mov	r4, r0
 3757 0006 0D46     		mov	r5, r1
 3758 0008 0123     		movs	r3, #1
 3759 000a 01AA     		add	r2, sp, #4
 3760 000c 6F21     		movs	r1, #111
 3761 000e FFF7FEFF 		bl	ism330dhcx_read_reg
 3762 0012 08B1     		cbz	r0, .L465
 3763              	.L462:
 3764 0014 03B0     		add	sp, sp, #12
 3765              		@ sp needed
 3766 0016 30BD     		pop	{r4, r5, pc}
 3767              	.L465:
 3768 0018 9DF80430 		ldrb	r3, [sp, #4]	@ zero_extendqisi2
 3769 001c 65F30103 		bfi	r3, r5, #0, #2
 3770 0020 8DF80430 		strb	r3, [sp, #4]
 3771 0024 0123     		movs	r3, #1
 3772 0026 01AA     		add	r2, sp, #4
 3773 0028 6F21     		movs	r1, #111
 3774 002a 2046     		mov	r0, r4
 3775 002c FFF7FEFF 		bl	ism330dhcx_write_reg
 3776 0030 F0E7     		b	.L462
 3778              		.section	.text.ism330dhcx_aux_xl_self_test_get,"ax",%progbits
 3779              		.align	1
 3780              		.global	ism330dhcx_aux_xl_self_test_get
 3781              		.syntax unified
 3782              		.thumb
 3783              		.thumb_func
 3785              	ism330dhcx_aux_xl_self_test_get:
 3786              		@ args = 0, pretend = 0, frame = 8
 3787              		@ frame_needed = 0, uses_anonymous_args = 0
 3788 0000 10B5     		push	{r4, lr}
 3789 0002 82B0     		sub	sp, sp, #8
 3790 0004 0C46     		mov	r4, r1
 3791 0006 0123     		movs	r3, #1
 3792 0008 01AA     		add	r2, sp, #4
 3793 000a 6F21     		movs	r1, #111
 3794 000c FFF7FEFF 		bl	ism330dhcx_read_reg
 3795 0010 9DF80430 		ldrb	r3, [sp, #4]	@ zero_extendqisi2
 3796 0014 03F00303 		and	r3, r3, #3
 3797 0018 012B     		cmp	r3, #1
 3798 001a 08D0     		beq	.L467
ARM GAS  C:\Temp\cclPUGyV.s 			page 64


 3799 001c 022B     		cmp	r3, #2
 3800 001e 09D0     		beq	.L468
 3801 0020 13B1     		cbz	r3, .L472
 3802 0022 0023     		movs	r3, #0
 3803 0024 2370     		strb	r3, [r4]
 3804 0026 00E0     		b	.L466
 3805              	.L472:
 3806 0028 2370     		strb	r3, [r4]
 3807              	.L466:
 3808 002a 02B0     		add	sp, sp, #8
 3809              		@ sp needed
 3810 002c 10BD     		pop	{r4, pc}
 3811              	.L467:
 3812 002e 0123     		movs	r3, #1
 3813 0030 2370     		strb	r3, [r4]
 3814 0032 FAE7     		b	.L466
 3815              	.L468:
 3816 0034 0223     		movs	r3, #2
 3817 0036 2370     		strb	r3, [r4]
 3818 0038 F7E7     		b	.L466
 3820              		.section	.text.ism330dhcx_aux_den_polarity_set,"ax",%progbits
 3821              		.align	1
 3822              		.global	ism330dhcx_aux_den_polarity_set
 3823              		.syntax unified
 3824              		.thumb
 3825              		.thumb_func
 3827              	ism330dhcx_aux_den_polarity_set:
 3828              		@ args = 0, pretend = 0, frame = 8
 3829              		@ frame_needed = 0, uses_anonymous_args = 0
 3830 0000 30B5     		push	{r4, r5, lr}
 3831 0002 83B0     		sub	sp, sp, #12
 3832 0004 0446     		mov	r4, r0
 3833 0006 0D46     		mov	r5, r1
 3834 0008 0123     		movs	r3, #1
 3835 000a 01AA     		add	r2, sp, #4
 3836 000c 6F21     		movs	r1, #111
 3837 000e FFF7FEFF 		bl	ism330dhcx_read_reg
 3838 0012 08B1     		cbz	r0, .L476
 3839              	.L473:
 3840 0014 03B0     		add	sp, sp, #12
 3841              		@ sp needed
 3842 0016 30BD     		pop	{r4, r5, pc}
 3843              	.L476:
 3844 0018 9DF80430 		ldrb	r3, [sp, #4]	@ zero_extendqisi2
 3845 001c 65F34513 		bfi	r3, r5, #5, #1
 3846 0020 8DF80430 		strb	r3, [sp, #4]
 3847 0024 0123     		movs	r3, #1
 3848 0026 01AA     		add	r2, sp, #4
 3849 0028 6F21     		movs	r1, #111
 3850 002a 2046     		mov	r0, r4
 3851 002c FFF7FEFF 		bl	ism330dhcx_write_reg
 3852 0030 F0E7     		b	.L473
 3854              		.section	.text.ism330dhcx_aux_den_polarity_get,"ax",%progbits
 3855              		.align	1
 3856              		.global	ism330dhcx_aux_den_polarity_get
 3857              		.syntax unified
 3858              		.thumb
ARM GAS  C:\Temp\cclPUGyV.s 			page 65


 3859              		.thumb_func
 3861              	ism330dhcx_aux_den_polarity_get:
 3862              		@ args = 0, pretend = 0, frame = 8
 3863              		@ frame_needed = 0, uses_anonymous_args = 0
 3864 0000 10B5     		push	{r4, lr}
 3865 0002 82B0     		sub	sp, sp, #8
 3866 0004 0C46     		mov	r4, r1
 3867 0006 0123     		movs	r3, #1
 3868 0008 01AA     		add	r2, sp, #4
 3869 000a 6F21     		movs	r1, #111
 3870 000c FFF7FEFF 		bl	ism330dhcx_read_reg
 3871 0010 9DF80430 		ldrb	r3, [sp, #4]	@ zero_extendqisi2
 3872 0014 C3F34012 		ubfx	r2, r3, #5, #1
 3873 0018 13F0200F 		tst	r3, #32
 3874 001c 03D0     		beq	.L478
 3875 001e 32B9     		cbnz	r2, .L479
 3876 0020 0023     		movs	r3, #0
 3877 0022 2370     		strb	r3, [r4]
 3878 0024 01E0     		b	.L477
 3879              	.L478:
 3880 0026 0023     		movs	r3, #0
 3881 0028 2370     		strb	r3, [r4]
 3882              	.L477:
 3883 002a 02B0     		add	sp, sp, #8
 3884              		@ sp needed
 3885 002c 10BD     		pop	{r4, pc}
 3886              	.L479:
 3887 002e 0123     		movs	r3, #1
 3888 0030 2370     		strb	r3, [r4]
 3889 0032 FAE7     		b	.L477
 3891              		.section	.text.ism330dhcx_aux_den_mode_set,"ax",%progbits
 3892              		.align	1
 3893              		.global	ism330dhcx_aux_den_mode_set
 3894              		.syntax unified
 3895              		.thumb
 3896              		.thumb_func
 3898              	ism330dhcx_aux_den_mode_set:
 3899              		@ args = 0, pretend = 0, frame = 8
 3900              		@ frame_needed = 0, uses_anonymous_args = 0
 3901 0000 30B5     		push	{r4, r5, lr}
 3902 0002 83B0     		sub	sp, sp, #12
 3903 0004 0546     		mov	r5, r0
 3904 0006 0C46     		mov	r4, r1
 3905 0008 0123     		movs	r3, #1
 3906 000a 01AA     		add	r2, sp, #4
 3907 000c 6F21     		movs	r1, #111
 3908 000e FFF7FEFF 		bl	ism330dhcx_read_reg
 3909 0012 0346     		mov	r3, r0
 3910 0014 18B1     		cbz	r0, .L488
 3911              	.L485:
 3912 0016 CBB1     		cbz	r3, .L489
 3913              	.L484:
 3914 0018 1846     		mov	r0, r3
 3915 001a 03B0     		add	sp, sp, #12
 3916              		@ sp needed
 3917 001c 30BD     		pop	{r4, r5, pc}
 3918              	.L488:
ARM GAS  C:\Temp\cclPUGyV.s 			page 66


 3919 001e 9DF80430 		ldrb	r3, [sp, #4]	@ zero_extendqisi2
 3920 0022 64F38613 		bfi	r3, r4, #6, #1
 3921 0026 8DF80430 		strb	r3, [sp, #4]
 3922 002a 0123     		movs	r3, #1
 3923 002c 01AA     		add	r2, sp, #4
 3924 002e 6F21     		movs	r1, #111
 3925 0030 2846     		mov	r0, r5
 3926 0032 FFF7FEFF 		bl	ism330dhcx_write_reg
 3927 0036 0346     		mov	r3, r0
 3928 0038 0028     		cmp	r0, #0
 3929 003a EDD1     		bne	.L484
 3930 003c 0123     		movs	r3, #1
 3931 003e 6A46     		mov	r2, sp
 3932 0040 7021     		movs	r1, #112
 3933 0042 2846     		mov	r0, r5
 3934 0044 FFF7FEFF 		bl	ism330dhcx_read_reg
 3935 0048 0346     		mov	r3, r0
 3936 004a E4E7     		b	.L485
 3937              	.L489:
 3938 004c C4F34001 		ubfx	r1, r4, #1, #1
 3939 0050 9DF80030 		ldrb	r3, [sp]	@ zero_extendqisi2
 3940 0054 61F38613 		bfi	r3, r1, #6, #1
 3941 0058 8DF80030 		strb	r3, [sp]
 3942 005c 0123     		movs	r3, #1
 3943 005e 6A46     		mov	r2, sp
 3944 0060 7021     		movs	r1, #112
 3945 0062 2846     		mov	r0, r5
 3946 0064 FFF7FEFF 		bl	ism330dhcx_write_reg
 3947 0068 0346     		mov	r3, r0
 3948 006a D5E7     		b	.L484
 3950              		.section	.text.ism330dhcx_aux_den_mode_get,"ax",%progbits
 3951              		.align	1
 3952              		.global	ism330dhcx_aux_den_mode_get
 3953              		.syntax unified
 3954              		.thumb
 3955              		.thumb_func
 3957              	ism330dhcx_aux_den_mode_get:
 3958              		@ args = 0, pretend = 0, frame = 8
 3959              		@ frame_needed = 0, uses_anonymous_args = 0
 3960 0000 30B5     		push	{r4, r5, lr}
 3961 0002 83B0     		sub	sp, sp, #12
 3962 0004 0546     		mov	r5, r0
 3963 0006 0C46     		mov	r4, r1
 3964 0008 0123     		movs	r3, #1
 3965 000a 01AA     		add	r2, sp, #4
 3966 000c 6F21     		movs	r1, #111
 3967 000e FFF7FEFF 		bl	ism330dhcx_read_reg
 3968 0012 88B1     		cbz	r0, .L497
 3969              	.L491:
 3970 0014 9DF80020 		ldrb	r2, [sp]	@ zero_extendqisi2
 3971 0018 C2F38012 		ubfx	r2, r2, #6, #1
 3972 001c 9DF80430 		ldrb	r3, [sp, #4]	@ zero_extendqisi2
 3973 0020 C3F38013 		ubfx	r3, r3, #6, #1
 3974 0024 03EB4203 		add	r3, r3, r2, lsl #1
 3975 0028 022B     		cmp	r3, #2
 3976 002a 12D0     		beq	.L492
 3977 002c 032B     		cmp	r3, #3
ARM GAS  C:\Temp\cclPUGyV.s 			page 67


 3978 002e 0DD0     		beq	.L493
 3979 0030 4BB1     		cbz	r3, .L498
 3980 0032 0023     		movs	r3, #0
 3981 0034 2370     		strb	r3, [r4]
 3982 0036 07E0     		b	.L490
 3983              	.L497:
 3984 0038 0123     		movs	r3, #1
 3985 003a 6A46     		mov	r2, sp
 3986 003c 7021     		movs	r1, #112
 3987 003e 2846     		mov	r0, r5
 3988 0040 FFF7FEFF 		bl	ism330dhcx_read_reg
 3989 0044 E6E7     		b	.L491
 3990              	.L498:
 3991 0046 2370     		strb	r3, [r4]
 3992              	.L490:
 3993 0048 03B0     		add	sp, sp, #12
 3994              		@ sp needed
 3995 004a 30BD     		pop	{r4, r5, pc}
 3996              	.L493:
 3997 004c 0323     		movs	r3, #3
 3998 004e 2370     		strb	r3, [r4]
 3999 0050 FAE7     		b	.L490
 4000              	.L492:
 4001 0052 0223     		movs	r3, #2
 4002 0054 2370     		strb	r3, [r4]
 4003 0056 F7E7     		b	.L490
 4005              		.section	.text.ism330dhcx_aux_drdy_on_int2_set,"ax",%progbits
 4006              		.align	1
 4007              		.global	ism330dhcx_aux_drdy_on_int2_set
 4008              		.syntax unified
 4009              		.thumb
 4010              		.thumb_func
 4012              	ism330dhcx_aux_drdy_on_int2_set:
 4013              		@ args = 0, pretend = 0, frame = 8
 4014              		@ frame_needed = 0, uses_anonymous_args = 0
 4015 0000 30B5     		push	{r4, r5, lr}
 4016 0002 83B0     		sub	sp, sp, #12
 4017 0004 0446     		mov	r4, r0
 4018 0006 0D46     		mov	r5, r1
 4019 0008 0123     		movs	r3, #1
 4020 000a 01AA     		add	r2, sp, #4
 4021 000c 6F21     		movs	r1, #111
 4022 000e FFF7FEFF 		bl	ism330dhcx_read_reg
 4023 0012 08B1     		cbz	r0, .L502
 4024              	.L499:
 4025 0014 03B0     		add	sp, sp, #12
 4026              		@ sp needed
 4027 0016 30BD     		pop	{r4, r5, pc}
 4028              	.L502:
 4029 0018 9DF80430 		ldrb	r3, [sp, #4]	@ zero_extendqisi2
 4030 001c 65F3C713 		bfi	r3, r5, #7, #1
 4031 0020 8DF80430 		strb	r3, [sp, #4]
 4032 0024 0123     		movs	r3, #1
 4033 0026 01AA     		add	r2, sp, #4
 4034 0028 6F21     		movs	r1, #111
 4035 002a 2046     		mov	r0, r4
 4036 002c FFF7FEFF 		bl	ism330dhcx_write_reg
ARM GAS  C:\Temp\cclPUGyV.s 			page 68


 4037 0030 F0E7     		b	.L499
 4039              		.section	.text.ism330dhcx_aux_drdy_on_int2_get,"ax",%progbits
 4040              		.align	1
 4041              		.global	ism330dhcx_aux_drdy_on_int2_get
 4042              		.syntax unified
 4043              		.thumb
 4044              		.thumb_func
 4046              	ism330dhcx_aux_drdy_on_int2_get:
 4047              		@ args = 0, pretend = 0, frame = 8
 4048              		@ frame_needed = 0, uses_anonymous_args = 0
 4049 0000 10B5     		push	{r4, lr}
 4050 0002 82B0     		sub	sp, sp, #8
 4051 0004 0C46     		mov	r4, r1
 4052 0006 0123     		movs	r3, #1
 4053 0008 01AA     		add	r2, sp, #4
 4054 000a 6F21     		movs	r1, #111
 4055 000c FFF7FEFF 		bl	ism330dhcx_read_reg
 4056 0010 9DF80430 		ldrb	r3, [sp, #4]	@ zero_extendqisi2
 4057 0014 C3F3C013 		ubfx	r3, r3, #7, #1
 4058 0018 2370     		strb	r3, [r4]
 4059 001a 02B0     		add	sp, sp, #8
 4060              		@ sp needed
 4061 001c 10BD     		pop	{r4, pc}
 4063              		.section	.text.ism330dhcx_aux_mode_set,"ax",%progbits
 4064              		.align	1
 4065              		.global	ism330dhcx_aux_mode_set
 4066              		.syntax unified
 4067              		.thumb
 4068              		.thumb_func
 4070              	ism330dhcx_aux_mode_set:
 4071              		@ args = 0, pretend = 0, frame = 8
 4072              		@ frame_needed = 0, uses_anonymous_args = 0
 4073 0000 30B5     		push	{r4, r5, lr}
 4074 0002 83B0     		sub	sp, sp, #12
 4075 0004 0546     		mov	r5, r0
 4076 0006 0C46     		mov	r4, r1
 4077 0008 0123     		movs	r3, #1
 4078 000a 01AA     		add	r2, sp, #4
 4079 000c 7021     		movs	r1, #112
 4080 000e FFF7FEFF 		bl	ism330dhcx_read_reg
 4081 0012 08B1     		cbz	r0, .L508
 4082              	.L505:
 4083 0014 03B0     		add	sp, sp, #12
 4084              		@ sp needed
 4085 0016 30BD     		pop	{r4, r5, pc}
 4086              	.L508:
 4087 0018 9DF80430 		ldrb	r3, [sp, #4]	@ zero_extendqisi2
 4088 001c 64F30003 		bfi	r3, r4, #0, #1
 4089 0020 8DF80430 		strb	r3, [sp, #4]
 4090 0024 C4F34001 		ubfx	r1, r4, #1, #1
 4091 0028 DBB2     		uxtb	r3, r3
 4092 002a 61F30413 		bfi	r3, r1, #4, #1
 4093 002e 8DF80430 		strb	r3, [sp, #4]
 4094 0032 0123     		movs	r3, #1
 4095 0034 01AA     		add	r2, sp, #4
 4096 0036 7021     		movs	r1, #112
 4097 0038 2846     		mov	r0, r5
ARM GAS  C:\Temp\cclPUGyV.s 			page 69


 4098 003a FFF7FEFF 		bl	ism330dhcx_write_reg
 4099 003e E9E7     		b	.L505
 4101              		.section	.text.ism330dhcx_aux_mode_get,"ax",%progbits
 4102              		.align	1
 4103              		.global	ism330dhcx_aux_mode_get
 4104              		.syntax unified
 4105              		.thumb
 4106              		.thumb_func
 4108              	ism330dhcx_aux_mode_get:
 4109              		@ args = 0, pretend = 0, frame = 8
 4110              		@ frame_needed = 0, uses_anonymous_args = 0
 4111 0000 10B5     		push	{r4, lr}
 4112 0002 82B0     		sub	sp, sp, #8
 4113 0004 0C46     		mov	r4, r1
 4114 0006 0123     		movs	r3, #1
 4115 0008 01AA     		add	r2, sp, #4
 4116 000a 7021     		movs	r1, #112
 4117 000c FFF7FEFF 		bl	ism330dhcx_read_reg
 4118 0010 9DF80430 		ldrb	r3, [sp, #4]	@ zero_extendqisi2
 4119 0014 C3F30012 		ubfx	r2, r3, #4, #1
 4120 0018 03F00103 		and	r3, r3, #1
 4121 001c 03EB4203 		add	r3, r3, r2, lsl #1
 4122 0020 012B     		cmp	r3, #1
 4123 0022 08D0     		beq	.L510
 4124 0024 032B     		cmp	r3, #3
 4125 0026 09D0     		beq	.L511
 4126 0028 13B1     		cbz	r3, .L515
 4127 002a 0023     		movs	r3, #0
 4128 002c 2370     		strb	r3, [r4]
 4129 002e 00E0     		b	.L509
 4130              	.L515:
 4131 0030 2370     		strb	r3, [r4]
 4132              	.L509:
 4133 0032 02B0     		add	sp, sp, #8
 4134              		@ sp needed
 4135 0034 10BD     		pop	{r4, pc}
 4136              	.L510:
 4137 0036 0123     		movs	r3, #1
 4138 0038 2370     		strb	r3, [r4]
 4139 003a FAE7     		b	.L509
 4140              	.L511:
 4141 003c 0323     		movs	r3, #3
 4142 003e 2370     		strb	r3, [r4]
 4143 0040 F7E7     		b	.L509
 4145              		.section	.text.ism330dhcx_aux_gy_full_scale_set,"ax",%progbits
 4146              		.align	1
 4147              		.global	ism330dhcx_aux_gy_full_scale_set
 4148              		.syntax unified
 4149              		.thumb
 4150              		.thumb_func
 4152              	ism330dhcx_aux_gy_full_scale_set:
 4153              		@ args = 0, pretend = 0, frame = 8
 4154              		@ frame_needed = 0, uses_anonymous_args = 0
 4155 0000 30B5     		push	{r4, r5, lr}
 4156 0002 83B0     		sub	sp, sp, #12
 4157 0004 0546     		mov	r5, r0
 4158 0006 0C46     		mov	r4, r1
ARM GAS  C:\Temp\cclPUGyV.s 			page 70


 4159 0008 0123     		movs	r3, #1
 4160 000a 01AA     		add	r2, sp, #4
 4161 000c 7021     		movs	r1, #112
 4162 000e FFF7FEFF 		bl	ism330dhcx_read_reg
 4163 0012 08B1     		cbz	r0, .L519
 4164              	.L516:
 4165 0014 03B0     		add	sp, sp, #12
 4166              		@ sp needed
 4167 0016 30BD     		pop	{r4, r5, pc}
 4168              	.L519:
 4169 0018 9DF80430 		ldrb	r3, [sp, #4]	@ zero_extendqisi2
 4170 001c 64F38303 		bfi	r3, r4, #2, #2
 4171 0020 8DF80430 		strb	r3, [sp, #4]
 4172 0024 C4F38001 		ubfx	r1, r4, #2, #1
 4173 0028 DBB2     		uxtb	r3, r3
 4174 002a 61F34103 		bfi	r3, r1, #1, #1
 4175 002e 8DF80430 		strb	r3, [sp, #4]
 4176 0032 0123     		movs	r3, #1
 4177 0034 01AA     		add	r2, sp, #4
 4178 0036 7021     		movs	r1, #112
 4179 0038 2846     		mov	r0, r5
 4180 003a FFF7FEFF 		bl	ism330dhcx_write_reg
 4181 003e E9E7     		b	.L516
 4183              		.section	.text.ism330dhcx_aux_gy_full_scale_get,"ax",%progbits
 4184              		.align	1
 4185              		.global	ism330dhcx_aux_gy_full_scale_get
 4186              		.syntax unified
 4187              		.thumb
 4188              		.thumb_func
 4190              	ism330dhcx_aux_gy_full_scale_get:
 4191              		@ args = 0, pretend = 0, frame = 8
 4192              		@ frame_needed = 0, uses_anonymous_args = 0
 4193 0000 10B5     		push	{r4, lr}
 4194 0002 82B0     		sub	sp, sp, #8
 4195 0004 0C46     		mov	r4, r1
 4196 0006 0123     		movs	r3, #1
 4197 0008 01AA     		add	r2, sp, #4
 4198 000a 7021     		movs	r1, #112
 4199 000c FFF7FEFF 		bl	ism330dhcx_read_reg
 4200 0010 9DF80430 		ldrb	r3, [sp, #4]	@ zero_extendqisi2
 4201 0014 C3F34002 		ubfx	r2, r3, #1, #1
 4202 0018 C3F38103 		ubfx	r3, r3, #2, #2
 4203 001c 03EB8203 		add	r3, r3, r2, lsl #2
 4204 0020 042B     		cmp	r3, #4
 4205 0022 14D8     		bhi	.L521
 4206 0024 DFE803F0 		tbb	[pc, r3]
 4207              	.L523:
 4208 0028 03       		.byte	(.L527-.L523)/2
 4209 0029 0A       		.byte	(.L526-.L523)/2
 4210 002a 0D       		.byte	(.L525-.L523)/2
 4211 002b 10       		.byte	(.L524-.L523)/2
 4212 002c 07       		.byte	(.L522-.L523)/2
 4213 002d 00       		.p2align 1
 4214              	.L527:
 4215 002e 0023     		movs	r3, #0
 4216 0030 2370     		strb	r3, [r4]
 4217              	.L520:
ARM GAS  C:\Temp\cclPUGyV.s 			page 71


 4218 0032 02B0     		add	sp, sp, #8
 4219              		@ sp needed
 4220 0034 10BD     		pop	{r4, pc}
 4221              	.L522:
 4222 0036 0423     		movs	r3, #4
 4223 0038 2370     		strb	r3, [r4]
 4224 003a FAE7     		b	.L520
 4225              	.L526:
 4226 003c 0123     		movs	r3, #1
 4227 003e 2370     		strb	r3, [r4]
 4228 0040 F7E7     		b	.L520
 4229              	.L525:
 4230 0042 0223     		movs	r3, #2
 4231 0044 2370     		strb	r3, [r4]
 4232 0046 F4E7     		b	.L520
 4233              	.L524:
 4234 0048 0323     		movs	r3, #3
 4235 004a 2370     		strb	r3, [r4]
 4236 004c F1E7     		b	.L520
 4237              	.L521:
 4238 004e 0023     		movs	r3, #0
 4239 0050 2370     		strb	r3, [r4]
 4240 0052 EEE7     		b	.L520
 4242              		.section	.text.ism330dhcx_aux_spi_mode_set,"ax",%progbits
 4243              		.align	1
 4244              		.global	ism330dhcx_aux_spi_mode_set
 4245              		.syntax unified
 4246              		.thumb
 4247              		.thumb_func
 4249              	ism330dhcx_aux_spi_mode_set:
 4250              		@ args = 0, pretend = 0, frame = 8
 4251              		@ frame_needed = 0, uses_anonymous_args = 0
 4252 0000 30B5     		push	{r4, r5, lr}
 4253 0002 83B0     		sub	sp, sp, #12
 4254 0004 0446     		mov	r4, r0
 4255 0006 0D46     		mov	r5, r1
 4256 0008 0123     		movs	r3, #1
 4257 000a 01AA     		add	r2, sp, #4
 4258 000c 7021     		movs	r1, #112
 4259 000e FFF7FEFF 		bl	ism330dhcx_read_reg
 4260 0012 08B1     		cbz	r0, .L533
 4261              	.L530:
 4262 0014 03B0     		add	sp, sp, #12
 4263              		@ sp needed
 4264 0016 30BD     		pop	{r4, r5, pc}
 4265              	.L533:
 4266 0018 9DF80430 		ldrb	r3, [sp, #4]	@ zero_extendqisi2
 4267 001c 65F34513 		bfi	r3, r5, #5, #1
 4268 0020 8DF80430 		strb	r3, [sp, #4]
 4269 0024 0123     		movs	r3, #1
 4270 0026 01AA     		add	r2, sp, #4
 4271 0028 7021     		movs	r1, #112
 4272 002a 2046     		mov	r0, r4
 4273 002c FFF7FEFF 		bl	ism330dhcx_write_reg
 4274 0030 F0E7     		b	.L530
 4276              		.section	.text.ism330dhcx_aux_spi_mode_get,"ax",%progbits
 4277              		.align	1
ARM GAS  C:\Temp\cclPUGyV.s 			page 72


 4278              		.global	ism330dhcx_aux_spi_mode_get
 4279              		.syntax unified
 4280              		.thumb
 4281              		.thumb_func
 4283              	ism330dhcx_aux_spi_mode_get:
 4284              		@ args = 0, pretend = 0, frame = 8
 4285              		@ frame_needed = 0, uses_anonymous_args = 0
 4286 0000 10B5     		push	{r4, lr}
 4287 0002 82B0     		sub	sp, sp, #8
 4288 0004 0C46     		mov	r4, r1
 4289 0006 0123     		movs	r3, #1
 4290 0008 01AA     		add	r2, sp, #4
 4291 000a 7021     		movs	r1, #112
 4292 000c FFF7FEFF 		bl	ism330dhcx_read_reg
 4293 0010 9DF80430 		ldrb	r3, [sp, #4]	@ zero_extendqisi2
 4294 0014 C3F34012 		ubfx	r2, r3, #5, #1
 4295 0018 13F0200F 		tst	r3, #32
 4296 001c 03D0     		beq	.L535
 4297 001e 32B9     		cbnz	r2, .L536
 4298 0020 0023     		movs	r3, #0
 4299 0022 2370     		strb	r3, [r4]
 4300 0024 01E0     		b	.L534
 4301              	.L535:
 4302 0026 0023     		movs	r3, #0
 4303 0028 2370     		strb	r3, [r4]
 4304              	.L534:
 4305 002a 02B0     		add	sp, sp, #8
 4306              		@ sp needed
 4307 002c 10BD     		pop	{r4, pc}
 4308              	.L536:
 4309 002e 0123     		movs	r3, #1
 4310 0030 2370     		strb	r3, [r4]
 4311 0032 FAE7     		b	.L534
 4313              		.section	.text.ism330dhcx_aux_gy_lp1_bandwidth_set,"ax",%progbits
 4314              		.align	1
 4315              		.global	ism330dhcx_aux_gy_lp1_bandwidth_set
 4316              		.syntax unified
 4317              		.thumb
 4318              		.thumb_func
 4320              	ism330dhcx_aux_gy_lp1_bandwidth_set:
 4321              		@ args = 0, pretend = 0, frame = 8
 4322              		@ frame_needed = 0, uses_anonymous_args = 0
 4323 0000 30B5     		push	{r4, r5, lr}
 4324 0002 83B0     		sub	sp, sp, #12
 4325 0004 0446     		mov	r4, r0
 4326 0006 0D46     		mov	r5, r1
 4327 0008 0123     		movs	r3, #1
 4328 000a 01AA     		add	r2, sp, #4
 4329 000c 7121     		movs	r1, #113
 4330 000e FFF7FEFF 		bl	ism330dhcx_read_reg
 4331 0012 08B1     		cbz	r0, .L544
 4332              	.L541:
 4333 0014 03B0     		add	sp, sp, #12
 4334              		@ sp needed
 4335 0016 30BD     		pop	{r4, r5, pc}
 4336              	.L544:
 4337 0018 9DF80430 		ldrb	r3, [sp, #4]	@ zero_extendqisi2
ARM GAS  C:\Temp\cclPUGyV.s 			page 73


 4338 001c 65F34203 		bfi	r3, r5, #1, #2
 4339 0020 8DF80430 		strb	r3, [sp, #4]
 4340 0024 0123     		movs	r3, #1
 4341 0026 01AA     		add	r2, sp, #4
 4342 0028 7121     		movs	r1, #113
 4343 002a 2046     		mov	r0, r4
 4344 002c FFF7FEFF 		bl	ism330dhcx_write_reg
 4345 0030 F0E7     		b	.L541
 4347              		.section	.text.ism330dhcx_aux_gy_lp1_bandwidth_get,"ax",%progbits
 4348              		.align	1
 4349              		.global	ism330dhcx_aux_gy_lp1_bandwidth_get
 4350              		.syntax unified
 4351              		.thumb
 4352              		.thumb_func
 4354              	ism330dhcx_aux_gy_lp1_bandwidth_get:
 4355              		@ args = 0, pretend = 0, frame = 8
 4356              		@ frame_needed = 0, uses_anonymous_args = 0
 4357 0000 10B5     		push	{r4, lr}
 4358 0002 82B0     		sub	sp, sp, #8
 4359 0004 0C46     		mov	r4, r1
 4360 0006 0123     		movs	r3, #1
 4361 0008 01AA     		add	r2, sp, #4
 4362 000a 7121     		movs	r1, #113
 4363 000c FFF7FEFF 		bl	ism330dhcx_read_reg
 4364 0010 9DF80430 		ldrb	r3, [sp, #4]	@ zero_extendqisi2
 4365 0014 C3F34103 		ubfx	r3, r3, #1, #2
 4366 0018 032B     		cmp	r3, #3
 4367 001a 10D8     		bhi	.L546
 4368 001c DFE803F0 		tbb	[pc, r3]
 4369              	.L548:
 4370 0020 02       		.byte	(.L551-.L548)/2
 4371 0021 06       		.byte	(.L550-.L548)/2
 4372 0022 09       		.byte	(.L549-.L548)/2
 4373 0023 0C       		.byte	(.L547-.L548)/2
 4374              		.p2align 1
 4375              	.L551:
 4376 0024 0023     		movs	r3, #0
 4377 0026 2370     		strb	r3, [r4]
 4378              	.L545:
 4379 0028 02B0     		add	sp, sp, #8
 4380              		@ sp needed
 4381 002a 10BD     		pop	{r4, pc}
 4382              	.L550:
 4383 002c 0123     		movs	r3, #1
 4384 002e 2370     		strb	r3, [r4]
 4385 0030 FAE7     		b	.L545
 4386              	.L549:
 4387 0032 0223     		movs	r3, #2
 4388 0034 2370     		strb	r3, [r4]
 4389 0036 F7E7     		b	.L545
 4390              	.L547:
 4391 0038 0323     		movs	r3, #3
 4392 003a 2370     		strb	r3, [r4]
 4393 003c F4E7     		b	.L545
 4394              	.L546:
 4395 003e 0023     		movs	r3, #0
 4396 0040 2370     		strb	r3, [r4]
ARM GAS  C:\Temp\cclPUGyV.s 			page 74


 4397 0042 F1E7     		b	.L545
 4399              		.section	.text.ism330dhcx_aux_gy_hp_bandwidth_set,"ax",%progbits
 4400              		.align	1
 4401              		.global	ism330dhcx_aux_gy_hp_bandwidth_set
 4402              		.syntax unified
 4403              		.thumb
 4404              		.thumb_func
 4406              	ism330dhcx_aux_gy_hp_bandwidth_set:
 4407              		@ args = 0, pretend = 0, frame = 8
 4408              		@ frame_needed = 0, uses_anonymous_args = 0
 4409 0000 30B5     		push	{r4, r5, lr}
 4410 0002 83B0     		sub	sp, sp, #12
 4411 0004 0546     		mov	r5, r0
 4412 0006 0C46     		mov	r4, r1
 4413 0008 0123     		movs	r3, #1
 4414 000a 01AA     		add	r2, sp, #4
 4415 000c 7121     		movs	r1, #113
 4416 000e FFF7FEFF 		bl	ism330dhcx_read_reg
 4417 0012 08B1     		cbz	r0, .L557
 4418              	.L554:
 4419 0014 03B0     		add	sp, sp, #12
 4420              		@ sp needed
 4421 0016 30BD     		pop	{r4, r5, pc}
 4422              	.L557:
 4423 0018 9DF80430 		ldrb	r3, [sp, #4]	@ zero_extendqisi2
 4424 001c 64F30513 		bfi	r3, r4, #4, #2
 4425 0020 8DF80430 		strb	r3, [sp, #4]
 4426 0024 C4F30011 		ubfx	r1, r4, #4, #1
 4427 0028 DBB2     		uxtb	r3, r3
 4428 002a 61F30003 		bfi	r3, r1, #0, #1
 4429 002e 8DF80430 		strb	r3, [sp, #4]
 4430 0032 0123     		movs	r3, #1
 4431 0034 01AA     		add	r2, sp, #4
 4432 0036 7121     		movs	r1, #113
 4433 0038 2846     		mov	r0, r5
 4434 003a FFF7FEFF 		bl	ism330dhcx_write_reg
 4435 003e E9E7     		b	.L554
 4437              		.section	.text.ism330dhcx_aux_gy_hp_bandwidth_get,"ax",%progbits
 4438              		.align	1
 4439              		.global	ism330dhcx_aux_gy_hp_bandwidth_get
 4440              		.syntax unified
 4441              		.thumb
 4442              		.thumb_func
 4444              	ism330dhcx_aux_gy_hp_bandwidth_get:
 4445              		@ args = 0, pretend = 0, frame = 8
 4446              		@ frame_needed = 0, uses_anonymous_args = 0
 4447 0000 10B5     		push	{r4, lr}
 4448 0002 82B0     		sub	sp, sp, #8
 4449 0004 0C46     		mov	r4, r1
 4450 0006 0123     		movs	r3, #1
 4451 0008 01AA     		add	r2, sp, #4
 4452 000a 7121     		movs	r1, #113
 4453 000c FFF7FEFF 		bl	ism330dhcx_read_reg
 4454 0010 9DF80430 		ldrb	r3, [sp, #4]	@ zero_extendqisi2
 4455 0014 03F00102 		and	r2, r3, #1
 4456 0018 C3F30113 		ubfx	r3, r3, #4, #2
 4457 001c 03EB0213 		add	r3, r3, r2, lsl #4
ARM GAS  C:\Temp\cclPUGyV.s 			page 75


 4458 0020 132B     		cmp	r3, #19
 4459 0022 1BD8     		bhi	.L559
 4460 0024 DFE803F0 		tbb	[pc, r3]
 4461              	.L561:
 4462 0028 0A       		.byte	(.L565-.L561)/2
 4463 0029 1A       		.byte	(.L559-.L561)/2
 4464 002a 1A       		.byte	(.L559-.L561)/2
 4465 002b 1A       		.byte	(.L559-.L561)/2
 4466 002c 1A       		.byte	(.L559-.L561)/2
 4467 002d 1A       		.byte	(.L559-.L561)/2
 4468 002e 1A       		.byte	(.L559-.L561)/2
 4469 002f 1A       		.byte	(.L559-.L561)/2
 4470 0030 1A       		.byte	(.L559-.L561)/2
 4471 0031 1A       		.byte	(.L559-.L561)/2
 4472 0032 1A       		.byte	(.L559-.L561)/2
 4473 0033 1A       		.byte	(.L559-.L561)/2
 4474 0034 1A       		.byte	(.L559-.L561)/2
 4475 0035 1A       		.byte	(.L559-.L561)/2
 4476 0036 1A       		.byte	(.L559-.L561)/2
 4477 0037 1A       		.byte	(.L559-.L561)/2
 4478 0038 0E       		.byte	(.L564-.L561)/2
 4479 0039 11       		.byte	(.L563-.L561)/2
 4480 003a 14       		.byte	(.L562-.L561)/2
 4481 003b 17       		.byte	(.L560-.L561)/2
 4482              		.p2align 1
 4483              	.L565:
 4484 003c 0023     		movs	r3, #0
 4485 003e 2370     		strb	r3, [r4]
 4486              	.L558:
 4487 0040 02B0     		add	sp, sp, #8
 4488              		@ sp needed
 4489 0042 10BD     		pop	{r4, pc}
 4490              	.L564:
 4491 0044 1023     		movs	r3, #16
 4492 0046 2370     		strb	r3, [r4]
 4493 0048 FAE7     		b	.L558
 4494              	.L563:
 4495 004a 1123     		movs	r3, #17
 4496 004c 2370     		strb	r3, [r4]
 4497 004e F7E7     		b	.L558
 4498              	.L562:
 4499 0050 1223     		movs	r3, #18
 4500 0052 2370     		strb	r3, [r4]
 4501 0054 F4E7     		b	.L558
 4502              	.L560:
 4503 0056 1323     		movs	r3, #19
 4504 0058 2370     		strb	r3, [r4]
 4505 005a F1E7     		b	.L558
 4506              	.L559:
 4507 005c 0023     		movs	r3, #0
 4508 005e 2370     		strb	r3, [r4]
 4509 0060 EEE7     		b	.L558
 4511              		.section	.text.ism330dhcx_aux_gy_clamp_set,"ax",%progbits
 4512              		.align	1
 4513              		.global	ism330dhcx_aux_gy_clamp_set
 4514              		.syntax unified
 4515              		.thumb
ARM GAS  C:\Temp\cclPUGyV.s 			page 76


 4516              		.thumb_func
 4518              	ism330dhcx_aux_gy_clamp_set:
 4519              		@ args = 0, pretend = 0, frame = 8
 4520              		@ frame_needed = 0, uses_anonymous_args = 0
 4521 0000 30B5     		push	{r4, r5, lr}
 4522 0002 83B0     		sub	sp, sp, #12
 4523 0004 0446     		mov	r4, r0
 4524 0006 0D46     		mov	r5, r1
 4525 0008 0123     		movs	r3, #1
 4526 000a 01AA     		add	r2, sp, #4
 4527 000c 7221     		movs	r1, #114
 4528 000e FFF7FEFF 		bl	ism330dhcx_read_reg
 4529 0012 08B1     		cbz	r0, .L571
 4530              	.L568:
 4531 0014 03B0     		add	sp, sp, #12
 4532              		@ sp needed
 4533 0016 30BD     		pop	{r4, r5, pc}
 4534              	.L571:
 4535 0018 9DF80430 		ldrb	r3, [sp, #4]	@ zero_extendqisi2
 4536 001c 65F30003 		bfi	r3, r5, #0, #1
 4537 0020 8DF80430 		strb	r3, [sp, #4]
 4538 0024 0123     		movs	r3, #1
 4539 0026 01AA     		add	r2, sp, #4
 4540 0028 7221     		movs	r1, #114
 4541 002a 2046     		mov	r0, r4
 4542 002c FFF7FEFF 		bl	ism330dhcx_write_reg
 4543 0030 F0E7     		b	.L568
 4545              		.section	.text.ism330dhcx_aux_gy_clamp_get,"ax",%progbits
 4546              		.align	1
 4547              		.global	ism330dhcx_aux_gy_clamp_get
 4548              		.syntax unified
 4549              		.thumb
 4550              		.thumb_func
 4552              	ism330dhcx_aux_gy_clamp_get:
 4553              		@ args = 0, pretend = 0, frame = 8
 4554              		@ frame_needed = 0, uses_anonymous_args = 0
 4555 0000 10B5     		push	{r4, lr}
 4556 0002 82B0     		sub	sp, sp, #8
 4557 0004 0C46     		mov	r4, r1
 4558 0006 0123     		movs	r3, #1
 4559 0008 01AA     		add	r2, sp, #4
 4560 000a 7221     		movs	r1, #114
 4561 000c FFF7FEFF 		bl	ism330dhcx_read_reg
 4562 0010 9DF80430 		ldrb	r3, [sp, #4]	@ zero_extendqisi2
 4563 0014 13F00103 		ands	r3, r3, #1
 4564 0018 03D0     		beq	.L573
 4565 001a 33B9     		cbnz	r3, .L574
 4566 001c 0023     		movs	r3, #0
 4567 001e 2370     		strb	r3, [r4]
 4568 0020 01E0     		b	.L572
 4569              	.L573:
 4570 0022 0023     		movs	r3, #0
 4571 0024 2370     		strb	r3, [r4]
 4572              	.L572:
 4573 0026 02B0     		add	sp, sp, #8
 4574              		@ sp needed
 4575 0028 10BD     		pop	{r4, pc}
ARM GAS  C:\Temp\cclPUGyV.s 			page 77


 4576              	.L574:
 4577 002a 0123     		movs	r3, #1
 4578 002c 2370     		strb	r3, [r4]
 4579 002e FAE7     		b	.L572
 4581              		.section	.text.ism330dhcx_aux_gy_self_test_set,"ax",%progbits
 4582              		.align	1
 4583              		.global	ism330dhcx_aux_gy_self_test_set
 4584              		.syntax unified
 4585              		.thumb
 4586              		.thumb_func
 4588              	ism330dhcx_aux_gy_self_test_set:
 4589              		@ args = 0, pretend = 0, frame = 8
 4590              		@ frame_needed = 0, uses_anonymous_args = 0
 4591 0000 30B5     		push	{r4, r5, lr}
 4592 0002 83B0     		sub	sp, sp, #12
 4593 0004 0446     		mov	r4, r0
 4594 0006 0D46     		mov	r5, r1
 4595 0008 0123     		movs	r3, #1
 4596 000a 01AA     		add	r2, sp, #4
 4597 000c 7221     		movs	r1, #114
 4598 000e FFF7FEFF 		bl	ism330dhcx_read_reg
 4599 0012 08B1     		cbz	r0, .L582
 4600              	.L579:
 4601 0014 03B0     		add	sp, sp, #12
 4602              		@ sp needed
 4603 0016 30BD     		pop	{r4, r5, pc}
 4604              	.L582:
 4605 0018 9DF80430 		ldrb	r3, [sp, #4]	@ zero_extendqisi2
 4606 001c 65F34203 		bfi	r3, r5, #1, #2
 4607 0020 8DF80430 		strb	r3, [sp, #4]
 4608 0024 0123     		movs	r3, #1
 4609 0026 01AA     		add	r2, sp, #4
 4610 0028 7221     		movs	r1, #114
 4611 002a 2046     		mov	r0, r4
 4612 002c FFF7FEFF 		bl	ism330dhcx_write_reg
 4613 0030 F0E7     		b	.L579
 4615              		.section	.text.ism330dhcx_aux_gy_self_test_get,"ax",%progbits
 4616              		.align	1
 4617              		.global	ism330dhcx_aux_gy_self_test_get
 4618              		.syntax unified
 4619              		.thumb
 4620              		.thumb_func
 4622              	ism330dhcx_aux_gy_self_test_get:
 4623              		@ args = 0, pretend = 0, frame = 8
 4624              		@ frame_needed = 0, uses_anonymous_args = 0
 4625 0000 10B5     		push	{r4, lr}
 4626 0002 82B0     		sub	sp, sp, #8
 4627 0004 0C46     		mov	r4, r1
 4628 0006 0123     		movs	r3, #1
 4629 0008 01AA     		add	r2, sp, #4
 4630 000a 7221     		movs	r1, #114
 4631 000c FFF7FEFF 		bl	ism330dhcx_read_reg
 4632 0010 9DF80430 		ldrb	r3, [sp, #4]	@ zero_extendqisi2
 4633 0014 C3F34103 		ubfx	r3, r3, #1, #2
 4634 0018 012B     		cmp	r3, #1
 4635 001a 08D0     		beq	.L584
 4636 001c 032B     		cmp	r3, #3
ARM GAS  C:\Temp\cclPUGyV.s 			page 78


 4637 001e 09D0     		beq	.L585
 4638 0020 13B1     		cbz	r3, .L589
 4639 0022 0023     		movs	r3, #0
 4640 0024 2370     		strb	r3, [r4]
 4641 0026 00E0     		b	.L583
 4642              	.L589:
 4643 0028 2370     		strb	r3, [r4]
 4644              	.L583:
 4645 002a 02B0     		add	sp, sp, #8
 4646              		@ sp needed
 4647 002c 10BD     		pop	{r4, pc}
 4648              	.L584:
 4649 002e 0123     		movs	r3, #1
 4650 0030 2370     		strb	r3, [r4]
 4651 0032 FAE7     		b	.L583
 4652              	.L585:
 4653 0034 0323     		movs	r3, #3
 4654 0036 2370     		strb	r3, [r4]
 4655 0038 F7E7     		b	.L583
 4657              		.section	.text.ism330dhcx_aux_xl_bandwidth_set,"ax",%progbits
 4658              		.align	1
 4659              		.global	ism330dhcx_aux_xl_bandwidth_set
 4660              		.syntax unified
 4661              		.thumb
 4662              		.thumb_func
 4664              	ism330dhcx_aux_xl_bandwidth_set:
 4665              		@ args = 0, pretend = 0, frame = 8
 4666              		@ frame_needed = 0, uses_anonymous_args = 0
 4667 0000 30B5     		push	{r4, r5, lr}
 4668 0002 83B0     		sub	sp, sp, #12
 4669 0004 0446     		mov	r4, r0
 4670 0006 0D46     		mov	r5, r1
 4671 0008 0123     		movs	r3, #1
 4672 000a 01AA     		add	r2, sp, #4
 4673 000c 7221     		movs	r1, #114
 4674 000e FFF7FEFF 		bl	ism330dhcx_read_reg
 4675 0012 08B1     		cbz	r0, .L593
 4676              	.L590:
 4677 0014 03B0     		add	sp, sp, #12
 4678              		@ sp needed
 4679 0016 30BD     		pop	{r4, r5, pc}
 4680              	.L593:
 4681 0018 9DF80430 		ldrb	r3, [sp, #4]	@ zero_extendqisi2
 4682 001c 65F3C503 		bfi	r3, r5, #3, #3
 4683 0020 8DF80430 		strb	r3, [sp, #4]
 4684 0024 0123     		movs	r3, #1
 4685 0026 01AA     		add	r2, sp, #4
 4686 0028 7221     		movs	r1, #114
 4687 002a 2046     		mov	r0, r4
 4688 002c FFF7FEFF 		bl	ism330dhcx_write_reg
 4689 0030 F0E7     		b	.L590
 4691              		.section	.text.ism330dhcx_aux_xl_bandwidth_get,"ax",%progbits
 4692              		.align	1
 4693              		.global	ism330dhcx_aux_xl_bandwidth_get
 4694              		.syntax unified
 4695              		.thumb
 4696              		.thumb_func
ARM GAS  C:\Temp\cclPUGyV.s 			page 79


 4698              	ism330dhcx_aux_xl_bandwidth_get:
 4699              		@ args = 0, pretend = 0, frame = 8
 4700              		@ frame_needed = 0, uses_anonymous_args = 0
 4701 0000 10B5     		push	{r4, lr}
 4702 0002 82B0     		sub	sp, sp, #8
 4703 0004 0C46     		mov	r4, r1
 4704 0006 0123     		movs	r3, #1
 4705 0008 01AA     		add	r2, sp, #4
 4706 000a 7221     		movs	r1, #114
 4707 000c FFF7FEFF 		bl	ism330dhcx_read_reg
 4708 0010 9DF80430 		ldrb	r3, [sp, #4]	@ zero_extendqisi2
 4709 0014 C3F3C203 		ubfx	r3, r3, #3, #3
 4710 0018 072B     		cmp	r3, #7
 4711 001a 1ED8     		bhi	.L595
 4712 001c DFE803F0 		tbb	[pc, r3]
 4713              	.L597:
 4714 0020 04       		.byte	(.L604-.L597)/2
 4715 0021 08       		.byte	(.L603-.L597)/2
 4716 0022 0B       		.byte	(.L602-.L597)/2
 4717 0023 0E       		.byte	(.L601-.L597)/2
 4718 0024 11       		.byte	(.L600-.L597)/2
 4719 0025 14       		.byte	(.L599-.L597)/2
 4720 0026 17       		.byte	(.L598-.L597)/2
 4721 0027 1A       		.byte	(.L596-.L597)/2
 4722              		.p2align 1
 4723              	.L604:
 4724 0028 0023     		movs	r3, #0
 4725 002a 2370     		strb	r3, [r4]
 4726              	.L594:
 4727 002c 02B0     		add	sp, sp, #8
 4728              		@ sp needed
 4729 002e 10BD     		pop	{r4, pc}
 4730              	.L603:
 4731 0030 0123     		movs	r3, #1
 4732 0032 2370     		strb	r3, [r4]
 4733 0034 FAE7     		b	.L594
 4734              	.L602:
 4735 0036 0223     		movs	r3, #2
 4736 0038 2370     		strb	r3, [r4]
 4737 003a F7E7     		b	.L594
 4738              	.L601:
 4739 003c 0323     		movs	r3, #3
 4740 003e 2370     		strb	r3, [r4]
 4741 0040 F4E7     		b	.L594
 4742              	.L600:
 4743 0042 0423     		movs	r3, #4
 4744 0044 2370     		strb	r3, [r4]
 4745 0046 F1E7     		b	.L594
 4746              	.L599:
 4747 0048 0523     		movs	r3, #5
 4748 004a 2370     		strb	r3, [r4]
 4749 004c EEE7     		b	.L594
 4750              	.L598:
 4751 004e 0623     		movs	r3, #6
 4752 0050 2370     		strb	r3, [r4]
 4753 0052 EBE7     		b	.L594
 4754              	.L596:
ARM GAS  C:\Temp\cclPUGyV.s 			page 80


 4755 0054 0723     		movs	r3, #7
 4756 0056 2370     		strb	r3, [r4]
 4757 0058 E8E7     		b	.L594
 4758              	.L595:
 4759 005a 0023     		movs	r3, #0
 4760 005c 2370     		strb	r3, [r4]
 4761 005e E5E7     		b	.L594
 4763              		.section	.text.ism330dhcx_aux_xl_full_scale_set,"ax",%progbits
 4764              		.align	1
 4765              		.global	ism330dhcx_aux_xl_full_scale_set
 4766              		.syntax unified
 4767              		.thumb
 4768              		.thumb_func
 4770              	ism330dhcx_aux_xl_full_scale_set:
 4771              		@ args = 0, pretend = 0, frame = 8
 4772              		@ frame_needed = 0, uses_anonymous_args = 0
 4773 0000 30B5     		push	{r4, r5, lr}
 4774 0002 83B0     		sub	sp, sp, #12
 4775 0004 0446     		mov	r4, r0
 4776 0006 0D46     		mov	r5, r1
 4777 0008 0123     		movs	r3, #1
 4778 000a 01AA     		add	r2, sp, #4
 4779 000c 7221     		movs	r1, #114
 4780 000e FFF7FEFF 		bl	ism330dhcx_read_reg
 4781 0012 08B1     		cbz	r0, .L610
 4782              	.L607:
 4783 0014 03B0     		add	sp, sp, #12
 4784              		@ sp needed
 4785 0016 30BD     		pop	{r4, r5, pc}
 4786              	.L610:
 4787 0018 9DF80430 		ldrb	r3, [sp, #4]	@ zero_extendqisi2
 4788 001c 65F38713 		bfi	r3, r5, #6, #2
 4789 0020 8DF80430 		strb	r3, [sp, #4]
 4790 0024 0123     		movs	r3, #1
 4791 0026 01AA     		add	r2, sp, #4
 4792 0028 7221     		movs	r1, #114
 4793 002a 2046     		mov	r0, r4
 4794 002c FFF7FEFF 		bl	ism330dhcx_write_reg
 4795 0030 F0E7     		b	.L607
 4797              		.section	.text.ism330dhcx_aux_xl_full_scale_get,"ax",%progbits
 4798              		.align	1
 4799              		.global	ism330dhcx_aux_xl_full_scale_get
 4800              		.syntax unified
 4801              		.thumb
 4802              		.thumb_func
 4804              	ism330dhcx_aux_xl_full_scale_get:
 4805              		@ args = 0, pretend = 0, frame = 8
 4806              		@ frame_needed = 0, uses_anonymous_args = 0
 4807 0000 10B5     		push	{r4, lr}
 4808 0002 82B0     		sub	sp, sp, #8
 4809 0004 0C46     		mov	r4, r1
 4810 0006 0123     		movs	r3, #1
 4811 0008 01AA     		add	r2, sp, #4
 4812 000a 7221     		movs	r1, #114
 4813 000c FFF7FEFF 		bl	ism330dhcx_read_reg
 4814 0010 9DF80430 		ldrb	r3, [sp, #4]	@ zero_extendqisi2
 4815 0014 9B09     		lsrs	r3, r3, #6
ARM GAS  C:\Temp\cclPUGyV.s 			page 81


 4816 0016 032B     		cmp	r3, #3
 4817 0018 10D8     		bhi	.L612
 4818 001a DFE803F0 		tbb	[pc, r3]
 4819              	.L614:
 4820 001e 02       		.byte	(.L617-.L614)/2
 4821 001f 06       		.byte	(.L616-.L614)/2
 4822 0020 09       		.byte	(.L615-.L614)/2
 4823 0021 0C       		.byte	(.L613-.L614)/2
 4824              		.p2align 1
 4825              	.L617:
 4826 0022 0023     		movs	r3, #0
 4827 0024 2370     		strb	r3, [r4]
 4828              	.L611:
 4829 0026 02B0     		add	sp, sp, #8
 4830              		@ sp needed
 4831 0028 10BD     		pop	{r4, pc}
 4832              	.L616:
 4833 002a 0123     		movs	r3, #1
 4834 002c 2370     		strb	r3, [r4]
 4835 002e FAE7     		b	.L611
 4836              	.L615:
 4837 0030 0223     		movs	r3, #2
 4838 0032 2370     		strb	r3, [r4]
 4839 0034 F7E7     		b	.L611
 4840              	.L613:
 4841 0036 0323     		movs	r3, #3
 4842 0038 2370     		strb	r3, [r4]
 4843 003a F4E7     		b	.L611
 4844              	.L612:
 4845 003c 0023     		movs	r3, #0
 4846 003e 2370     		strb	r3, [r4]
 4847 0040 F1E7     		b	.L611
 4849              		.section	.text.ism330dhcx_sdo_sa0_mode_set,"ax",%progbits
 4850              		.align	1
 4851              		.global	ism330dhcx_sdo_sa0_mode_set
 4852              		.syntax unified
 4853              		.thumb
 4854              		.thumb_func
 4856              	ism330dhcx_sdo_sa0_mode_set:
 4857              		@ args = 0, pretend = 0, frame = 8
 4858              		@ frame_needed = 0, uses_anonymous_args = 0
 4859 0000 30B5     		push	{r4, r5, lr}
 4860 0002 83B0     		sub	sp, sp, #12
 4861 0004 0446     		mov	r4, r0
 4862 0006 0D46     		mov	r5, r1
 4863 0008 0123     		movs	r3, #1
 4864 000a 01AA     		add	r2, sp, #4
 4865 000c 0221     		movs	r1, #2
 4866 000e FFF7FEFF 		bl	ism330dhcx_read_reg
 4867 0012 08B1     		cbz	r0, .L623
 4868              	.L620:
 4869 0014 03B0     		add	sp, sp, #12
 4870              		@ sp needed
 4871 0016 30BD     		pop	{r4, r5, pc}
 4872              	.L623:
 4873 0018 9DF80430 		ldrb	r3, [sp, #4]	@ zero_extendqisi2
 4874 001c 65F38613 		bfi	r3, r5, #6, #1
ARM GAS  C:\Temp\cclPUGyV.s 			page 82


 4875 0020 8DF80430 		strb	r3, [sp, #4]
 4876 0024 0123     		movs	r3, #1
 4877 0026 01AA     		add	r2, sp, #4
 4878 0028 0221     		movs	r1, #2
 4879 002a 2046     		mov	r0, r4
 4880 002c FFF7FEFF 		bl	ism330dhcx_write_reg
 4881 0030 F0E7     		b	.L620
 4883              		.section	.text.ism330dhcx_sdo_sa0_mode_get,"ax",%progbits
 4884              		.align	1
 4885              		.global	ism330dhcx_sdo_sa0_mode_get
 4886              		.syntax unified
 4887              		.thumb
 4888              		.thumb_func
 4890              	ism330dhcx_sdo_sa0_mode_get:
 4891              		@ args = 0, pretend = 0, frame = 8
 4892              		@ frame_needed = 0, uses_anonymous_args = 0
 4893 0000 10B5     		push	{r4, lr}
 4894 0002 82B0     		sub	sp, sp, #8
 4895 0004 0C46     		mov	r4, r1
 4896 0006 0123     		movs	r3, #1
 4897 0008 01AA     		add	r2, sp, #4
 4898 000a 0221     		movs	r1, #2
 4899 000c FFF7FEFF 		bl	ism330dhcx_read_reg
 4900 0010 9DF80430 		ldrb	r3, [sp, #4]	@ zero_extendqisi2
 4901 0014 C3F38012 		ubfx	r2, r3, #6, #1
 4902 0018 13F0400F 		tst	r3, #64
 4903 001c 03D0     		beq	.L625
 4904 001e 32B9     		cbnz	r2, .L626
 4905 0020 0023     		movs	r3, #0
 4906 0022 2370     		strb	r3, [r4]
 4907 0024 01E0     		b	.L624
 4908              	.L625:
 4909 0026 0023     		movs	r3, #0
 4910 0028 2370     		strb	r3, [r4]
 4911              	.L624:
 4912 002a 02B0     		add	sp, sp, #8
 4913              		@ sp needed
 4914 002c 10BD     		pop	{r4, pc}
 4915              	.L626:
 4916 002e 0123     		movs	r3, #1
 4917 0030 2370     		strb	r3, [r4]
 4918 0032 FAE7     		b	.L624
 4920              		.section	.text.ism330dhcx_spi_mode_set,"ax",%progbits
 4921              		.align	1
 4922              		.global	ism330dhcx_spi_mode_set
 4923              		.syntax unified
 4924              		.thumb
 4925              		.thumb_func
 4927              	ism330dhcx_spi_mode_set:
 4928              		@ args = 0, pretend = 0, frame = 8
 4929              		@ frame_needed = 0, uses_anonymous_args = 0
 4930 0000 30B5     		push	{r4, r5, lr}
 4931 0002 83B0     		sub	sp, sp, #12
 4932 0004 0446     		mov	r4, r0
 4933 0006 0D46     		mov	r5, r1
 4934 0008 0123     		movs	r3, #1
 4935 000a 01AA     		add	r2, sp, #4
ARM GAS  C:\Temp\cclPUGyV.s 			page 83


 4936 000c 1221     		movs	r1, #18
 4937 000e FFF7FEFF 		bl	ism330dhcx_read_reg
 4938 0012 08B1     		cbz	r0, .L634
 4939              	.L631:
 4940 0014 03B0     		add	sp, sp, #12
 4941              		@ sp needed
 4942 0016 30BD     		pop	{r4, r5, pc}
 4943              	.L634:
 4944 0018 9DF80430 		ldrb	r3, [sp, #4]	@ zero_extendqisi2
 4945 001c 65F3C303 		bfi	r3, r5, #3, #1
 4946 0020 8DF80430 		strb	r3, [sp, #4]
 4947 0024 0123     		movs	r3, #1
 4948 0026 01AA     		add	r2, sp, #4
 4949 0028 1221     		movs	r1, #18
 4950 002a 2046     		mov	r0, r4
 4951 002c FFF7FEFF 		bl	ism330dhcx_write_reg
 4952 0030 F0E7     		b	.L631
 4954              		.section	.text.ism330dhcx_spi_mode_get,"ax",%progbits
 4955              		.align	1
 4956              		.global	ism330dhcx_spi_mode_get
 4957              		.syntax unified
 4958              		.thumb
 4959              		.thumb_func
 4961              	ism330dhcx_spi_mode_get:
 4962              		@ args = 0, pretend = 0, frame = 8
 4963              		@ frame_needed = 0, uses_anonymous_args = 0
 4964 0000 10B5     		push	{r4, lr}
 4965 0002 82B0     		sub	sp, sp, #8
 4966 0004 0C46     		mov	r4, r1
 4967 0006 0123     		movs	r3, #1
 4968 0008 01AA     		add	r2, sp, #4
 4969 000a 1221     		movs	r1, #18
 4970 000c FFF7FEFF 		bl	ism330dhcx_read_reg
 4971 0010 9DF80430 		ldrb	r3, [sp, #4]	@ zero_extendqisi2
 4972 0014 C3F3C002 		ubfx	r2, r3, #3, #1
 4973 0018 13F0080F 		tst	r3, #8
 4974 001c 03D0     		beq	.L636
 4975 001e 32B9     		cbnz	r2, .L637
 4976 0020 0023     		movs	r3, #0
 4977 0022 2370     		strb	r3, [r4]
 4978 0024 01E0     		b	.L635
 4979              	.L636:
 4980 0026 0023     		movs	r3, #0
 4981 0028 2370     		strb	r3, [r4]
 4982              	.L635:
 4983 002a 02B0     		add	sp, sp, #8
 4984              		@ sp needed
 4985 002c 10BD     		pop	{r4, pc}
 4986              	.L637:
 4987 002e 0123     		movs	r3, #1
 4988 0030 2370     		strb	r3, [r4]
 4989 0032 FAE7     		b	.L635
 4991              		.section	.text.ism330dhcx_i2c_interface_set,"ax",%progbits
 4992              		.align	1
 4993              		.global	ism330dhcx_i2c_interface_set
 4994              		.syntax unified
 4995              		.thumb
ARM GAS  C:\Temp\cclPUGyV.s 			page 84


 4996              		.thumb_func
 4998              	ism330dhcx_i2c_interface_set:
 4999              		@ args = 0, pretend = 0, frame = 8
 5000              		@ frame_needed = 0, uses_anonymous_args = 0
 5001 0000 30B5     		push	{r4, r5, lr}
 5002 0002 83B0     		sub	sp, sp, #12
 5003 0004 0446     		mov	r4, r0
 5004 0006 0D46     		mov	r5, r1
 5005 0008 0123     		movs	r3, #1
 5006 000a 01AA     		add	r2, sp, #4
 5007 000c 1321     		movs	r1, #19
 5008 000e FFF7FEFF 		bl	ism330dhcx_read_reg
 5009 0012 08B1     		cbz	r0, .L645
 5010              	.L642:
 5011 0014 03B0     		add	sp, sp, #12
 5012              		@ sp needed
 5013 0016 30BD     		pop	{r4, r5, pc}
 5014              	.L645:
 5015 0018 9DF80430 		ldrb	r3, [sp, #4]	@ zero_extendqisi2
 5016 001c 65F38203 		bfi	r3, r5, #2, #1
 5017 0020 8DF80430 		strb	r3, [sp, #4]
 5018 0024 0123     		movs	r3, #1
 5019 0026 01AA     		add	r2, sp, #4
 5020 0028 1321     		movs	r1, #19
 5021 002a 2046     		mov	r0, r4
 5022 002c FFF7FEFF 		bl	ism330dhcx_write_reg
 5023 0030 F0E7     		b	.L642
 5025              		.section	.text.ism330dhcx_i2c_interface_get,"ax",%progbits
 5026              		.align	1
 5027              		.global	ism330dhcx_i2c_interface_get
 5028              		.syntax unified
 5029              		.thumb
 5030              		.thumb_func
 5032              	ism330dhcx_i2c_interface_get:
 5033              		@ args = 0, pretend = 0, frame = 8
 5034              		@ frame_needed = 0, uses_anonymous_args = 0
 5035 0000 10B5     		push	{r4, lr}
 5036 0002 82B0     		sub	sp, sp, #8
 5037 0004 0C46     		mov	r4, r1
 5038 0006 0123     		movs	r3, #1
 5039 0008 01AA     		add	r2, sp, #4
 5040 000a 1321     		movs	r1, #19
 5041 000c FFF7FEFF 		bl	ism330dhcx_read_reg
 5042 0010 9DF80430 		ldrb	r3, [sp, #4]	@ zero_extendqisi2
 5043 0014 C3F38002 		ubfx	r2, r3, #2, #1
 5044 0018 13F0040F 		tst	r3, #4
 5045 001c 03D0     		beq	.L647
 5046 001e 32B9     		cbnz	r2, .L648
 5047 0020 0023     		movs	r3, #0
 5048 0022 2370     		strb	r3, [r4]
 5049 0024 01E0     		b	.L646
 5050              	.L647:
 5051 0026 0023     		movs	r3, #0
 5052 0028 2370     		strb	r3, [r4]
 5053              	.L646:
 5054 002a 02B0     		add	sp, sp, #8
 5055              		@ sp needed
ARM GAS  C:\Temp\cclPUGyV.s 			page 85


 5056 002c 10BD     		pop	{r4, pc}
 5057              	.L648:
 5058 002e 0123     		movs	r3, #1
 5059 0030 2370     		strb	r3, [r4]
 5060 0032 FAE7     		b	.L646
 5062              		.section	.text.ism330dhcx_pin_int1_route_set,"ax",%progbits
 5063              		.align	1
 5064              		.global	ism330dhcx_pin_int1_route_set
 5065              		.syntax unified
 5066              		.thumb
 5067              		.thumb_func
 5069              	ism330dhcx_pin_int1_route_set:
 5070              		@ args = 0, pretend = 0, frame = 8
 5071              		@ frame_needed = 0, uses_anonymous_args = 0
 5072 0000 30B5     		push	{r4, r5, lr}
 5073 0002 83B0     		sub	sp, sp, #12
 5074 0004 0546     		mov	r5, r0
 5075 0006 0C46     		mov	r4, r1
 5076 0008 0221     		movs	r1, #2
 5077 000a FFF7FEFF 		bl	ism330dhcx_mem_bank_set
 5078 000e 0346     		mov	r3, r0
 5079 0010 18B1     		cbz	r0, .L661
 5080              	.L654:
 5081 0012 9BB1     		cbz	r3, .L662
 5082              	.L653:
 5083 0014 1846     		mov	r0, r3
 5084 0016 03B0     		add	sp, sp, #12
 5085              		@ sp needed
 5086 0018 30BD     		pop	{r4, r5, pc}
 5087              	.L661:
 5088 001a 0123     		movs	r3, #1
 5089 001c 621D     		adds	r2, r4, #5
 5090 001e 0D21     		movs	r1, #13
 5091 0020 2846     		mov	r0, r5
 5092 0022 FFF7FEFF 		bl	ism330dhcx_write_reg
 5093 0026 0346     		mov	r3, r0
 5094 0028 0028     		cmp	r0, #0
 5095 002a F3D1     		bne	.L653
 5096 002c 0123     		movs	r3, #1
 5097 002e A21C     		adds	r2, r4, #2
 5098 0030 0A21     		movs	r1, #10
 5099 0032 2846     		mov	r0, r5
 5100 0034 FFF7FEFF 		bl	ism330dhcx_write_reg
 5101 0038 0346     		mov	r3, r0
 5102 003a EAE7     		b	.L654
 5103              	.L662:
 5104 003c 0123     		movs	r3, #1
 5105 003e E21C     		adds	r2, r4, #3
 5106 0040 0B21     		movs	r1, #11
 5107 0042 2846     		mov	r0, r5
 5108 0044 FFF7FEFF 		bl	ism330dhcx_write_reg
 5109 0048 0346     		mov	r3, r0
 5110 004a 0028     		cmp	r0, #0
 5111 004c E2D1     		bne	.L653
 5112 004e 0123     		movs	r3, #1
 5113 0050 221D     		adds	r2, r4, #4
 5114 0052 0C21     		movs	r1, #12
ARM GAS  C:\Temp\cclPUGyV.s 			page 86


 5115 0054 2846     		mov	r0, r5
 5116 0056 FFF7FEFF 		bl	ism330dhcx_write_reg
 5117 005a 0346     		mov	r3, r0
 5118 005c 0028     		cmp	r0, #0
 5119 005e D9D1     		bne	.L653
 5120 0060 0021     		movs	r1, #0
 5121 0062 2846     		mov	r0, r5
 5122 0064 FFF7FEFF 		bl	ism330dhcx_mem_bank_set
 5123 0068 0346     		mov	r3, r0
 5124 006a 0028     		cmp	r0, #0
 5125 006c D2D1     		bne	.L653
 5126 006e A278     		ldrb	r2, [r4, #2]	@ zero_extendqisi2
 5127 0070 C2F34013 		ubfx	r3, r2, #5, #1
 5128 0074 43EAD213 		orr	r3, r3, r2, lsr #7
 5129 0078 C2F3C001 		ubfx	r1, r2, #3, #1
 5130 007c 0B43     		orrs	r3, r3, r1
 5131 007e C2F30012 		ubfx	r2, r2, #4, #1
 5132 0082 1343     		orrs	r3, r3, r2
 5133 0084 E278     		ldrb	r2, [r4, #3]	@ zero_extendqisi2
 5134 0086 02F00101 		and	r1, r2, #1
 5135 008a 0B43     		orrs	r3, r3, r1
 5136 008c C2F34001 		ubfx	r1, r2, #1, #1
 5137 0090 0B43     		orrs	r3, r3, r1
 5138 0092 C2F38001 		ubfx	r1, r2, #2, #1
 5139 0096 0B43     		orrs	r3, r3, r1
 5140 0098 C2F3C001 		ubfx	r1, r2, #3, #1
 5141 009c 0B43     		orrs	r3, r3, r1
 5142 009e C2F30011 		ubfx	r1, r2, #4, #1
 5143 00a2 0B43     		orrs	r3, r3, r1
 5144 00a4 C2F34011 		ubfx	r1, r2, #5, #1
 5145 00a8 0B43     		orrs	r3, r3, r1
 5146 00aa C2F38011 		ubfx	r1, r2, #6, #1
 5147 00ae 0B43     		orrs	r3, r3, r1
 5148 00b0 43EAD213 		orr	r3, r3, r2, lsr #7
 5149 00b4 2279     		ldrb	r2, [r4, #4]	@ zero_extendqisi2
 5150 00b6 02F00101 		and	r1, r2, #1
 5151 00ba 0B43     		orrs	r3, r3, r1
 5152 00bc C2F34001 		ubfx	r1, r2, #1, #1
 5153 00c0 0B43     		orrs	r3, r3, r1
 5154 00c2 C2F38001 		ubfx	r1, r2, #2, #1
 5155 00c6 0B43     		orrs	r3, r3, r1
 5156 00c8 C2F3C001 		ubfx	r1, r2, #3, #1
 5157 00cc 0B43     		orrs	r3, r3, r1
 5158 00ce C2F30011 		ubfx	r1, r2, #4, #1
 5159 00d2 0B43     		orrs	r3, r3, r1
 5160 00d4 C2F34011 		ubfx	r1, r2, #5, #1
 5161 00d8 0B43     		orrs	r3, r3, r1
 5162 00da C2F38011 		ubfx	r1, r2, #6, #1
 5163 00de 0B43     		orrs	r3, r3, r1
 5164 00e0 43EAD213 		orr	r3, r3, r2, lsr #7
 5165 00e4 6279     		ldrb	r2, [r4, #5]	@ zero_extendqisi2
 5166 00e6 02F00101 		and	r1, r2, #1
 5167 00ea 0B43     		orrs	r3, r3, r1
 5168 00ec C2F34001 		ubfx	r1, r2, #1, #1
 5169 00f0 0B43     		orrs	r3, r3, r1
 5170 00f2 C2F38001 		ubfx	r1, r2, #2, #1
 5171 00f6 0B43     		orrs	r3, r3, r1
ARM GAS  C:\Temp\cclPUGyV.s 			page 87


 5172 00f8 C2F3C001 		ubfx	r1, r2, #3, #1
 5173 00fc 0B43     		orrs	r3, r3, r1
 5174 00fe C2F30011 		ubfx	r1, r2, #4, #1
 5175 0102 0B43     		orrs	r3, r3, r1
 5176 0104 C2F34011 		ubfx	r1, r2, #5, #1
 5177 0108 0B43     		orrs	r3, r3, r1
 5178 010a C2F38011 		ubfx	r1, r2, #6, #1
 5179 010e 0B43     		orrs	r3, r3, r1
 5180 0110 53EAD213 		orrs	r3, r3, r2, lsr #7
 5181 0114 5CD0     		beq	.L656
 5182 0116 6378     		ldrb	r3, [r4, #1]	@ zero_extendqisi2
 5183 0118 43F00203 		orr	r3, r3, #2
 5184 011c 6370     		strb	r3, [r4, #1]
 5185              	.L657:
 5186 011e 0123     		movs	r3, #1
 5187 0120 2246     		mov	r2, r4
 5188 0122 0D21     		movs	r1, #13
 5189 0124 2846     		mov	r0, r5
 5190 0126 FFF7FEFF 		bl	ism330dhcx_write_reg
 5191 012a 0346     		mov	r3, r0
 5192 012c 0028     		cmp	r0, #0
 5193 012e 7FF471AF 		bne	.L653
 5194 0132 0123     		movs	r3, #1
 5195 0134 E218     		adds	r2, r4, r3
 5196 0136 5E21     		movs	r1, #94
 5197 0138 2846     		mov	r0, r5
 5198 013a FFF7FEFF 		bl	ism330dhcx_write_reg
 5199 013e 0346     		mov	r3, r0
 5200 0140 0028     		cmp	r0, #0
 5201 0142 7FF467AF 		bne	.L653
 5202 0146 0123     		movs	r3, #1
 5203 0148 01AA     		add	r2, sp, #4
 5204 014a 5821     		movs	r1, #88
 5205 014c 2846     		mov	r0, r5
 5206 014e FFF7FEFF 		bl	ism330dhcx_read_reg
 5207 0152 0346     		mov	r3, r0
 5208 0154 2178     		ldrb	r1, [r4]	@ zero_extendqisi2
 5209 0156 C1F38002 		ubfx	r2, r1, #2, #1
 5210 015a 42EAD112 		orr	r2, r2, r1, lsr #7
 5211 015e C1F38010 		ubfx	r0, r1, #6, #1
 5212 0162 0243     		orrs	r2, r2, r0
 5213 0164 C1F34000 		ubfx	r0, r1, #1, #1
 5214 0168 0243     		orrs	r2, r2, r0
 5215 016a 01F00100 		and	r0, r1, #1
 5216 016e 0243     		orrs	r2, r2, r0
 5217 0170 C1F34010 		ubfx	r0, r1, #5, #1
 5218 0174 0243     		orrs	r2, r2, r0
 5219 0176 C1F30010 		ubfx	r0, r1, #4, #1
 5220 017a 0243     		orrs	r2, r2, r0
 5221 017c C1F3C001 		ubfx	r1, r1, #3, #1
 5222 0180 0A43     		orrs	r2, r2, r1
 5223 0182 6178     		ldrb	r1, [r4, #1]	@ zero_extendqisi2
 5224 0184 01F00100 		and	r0, r1, #1
 5225 0188 0243     		orrs	r2, r2, r0
 5226 018a C1F38000 		ubfx	r0, r1, #2, #1
 5227 018e 0243     		orrs	r2, r2, r0
 5228 0190 C1F3C000 		ubfx	r0, r1, #3, #1
ARM GAS  C:\Temp\cclPUGyV.s 			page 88


 5229 0194 0243     		orrs	r2, r2, r0
 5230 0196 C1F30010 		ubfx	r0, r1, #4, #1
 5231 019a 0243     		orrs	r2, r2, r0
 5232 019c C1F34010 		ubfx	r0, r1, #5, #1
 5233 01a0 0243     		orrs	r2, r2, r0
 5234 01a2 C1F38010 		ubfx	r0, r1, #6, #1
 5235 01a6 0243     		orrs	r2, r2, r0
 5236 01a8 52EAD112 		orrs	r2, r2, r1, lsr #7
 5237 01ac 15D0     		beq	.L658
 5238 01ae 9DF80420 		ldrb	r2, [sp, #4]	@ zero_extendqisi2
 5239 01b2 42F08002 		orr	r2, r2, #128
 5240 01b6 8DF80420 		strb	r2, [sp, #4]
 5241              	.L659:
 5242 01ba 002B     		cmp	r3, #0
 5243 01bc 7FF42AAF 		bne	.L653
 5244 01c0 0123     		movs	r3, #1
 5245 01c2 01AA     		add	r2, sp, #4
 5246 01c4 5821     		movs	r1, #88
 5247 01c6 2846     		mov	r0, r5
 5248 01c8 FFF7FEFF 		bl	ism330dhcx_write_reg
 5249 01cc 0346     		mov	r3, r0
 5250 01ce 21E7     		b	.L653
 5251              	.L656:
 5252 01d0 6378     		ldrb	r3, [r4, #1]	@ zero_extendqisi2
 5253 01d2 6FF34103 		bfc	r3, #1, #1
 5254 01d6 6370     		strb	r3, [r4, #1]
 5255 01d8 A1E7     		b	.L657
 5256              	.L658:
 5257 01da 9DF80420 		ldrb	r2, [sp, #4]	@ zero_extendqisi2
 5258 01de 6FF3C712 		bfc	r2, #7, #1
 5259 01e2 8DF80420 		strb	r2, [sp, #4]
 5260 01e6 E8E7     		b	.L659
 5262              		.section	.text.ism330dhcx_pin_int1_route_get,"ax",%progbits
 5263              		.align	1
 5264              		.global	ism330dhcx_pin_int1_route_get
 5265              		.syntax unified
 5266              		.thumb
 5267              		.thumb_func
 5269              	ism330dhcx_pin_int1_route_get:
 5270              		@ args = 0, pretend = 0, frame = 0
 5271              		@ frame_needed = 0, uses_anonymous_args = 0
 5272 0000 38B5     		push	{r3, r4, r5, lr}
 5273 0002 0546     		mov	r5, r0
 5274 0004 0C46     		mov	r4, r1
 5275 0006 0221     		movs	r1, #2
 5276 0008 FFF7FEFF 		bl	ism330dhcx_mem_bank_set
 5277 000c 0346     		mov	r3, r0
 5278 000e 10B1     		cbz	r0, .L667
 5279              	.L664:
 5280 0010 93B1     		cbz	r3, .L668
 5281              	.L663:
 5282 0012 1846     		mov	r0, r3
 5283 0014 38BD     		pop	{r3, r4, r5, pc}
 5284              	.L667:
 5285 0016 0123     		movs	r3, #1
 5286 0018 621D     		adds	r2, r4, #5
 5287 001a 0D21     		movs	r1, #13
ARM GAS  C:\Temp\cclPUGyV.s 			page 89


 5288 001c 2846     		mov	r0, r5
 5289 001e FFF7FEFF 		bl	ism330dhcx_read_reg
 5290 0022 0346     		mov	r3, r0
 5291 0024 0028     		cmp	r0, #0
 5292 0026 F4D1     		bne	.L663
 5293 0028 0123     		movs	r3, #1
 5294 002a A21C     		adds	r2, r4, #2
 5295 002c 0A21     		movs	r1, #10
 5296 002e 2846     		mov	r0, r5
 5297 0030 FFF7FEFF 		bl	ism330dhcx_read_reg
 5298 0034 0346     		mov	r3, r0
 5299 0036 EBE7     		b	.L664
 5300              	.L668:
 5301 0038 0123     		movs	r3, #1
 5302 003a E21C     		adds	r2, r4, #3
 5303 003c 0B21     		movs	r1, #11
 5304 003e 2846     		mov	r0, r5
 5305 0040 FFF7FEFF 		bl	ism330dhcx_read_reg
 5306 0044 0346     		mov	r3, r0
 5307 0046 0028     		cmp	r0, #0
 5308 0048 E3D1     		bne	.L663
 5309 004a 0123     		movs	r3, #1
 5310 004c 221D     		adds	r2, r4, #4
 5311 004e 0C21     		movs	r1, #12
 5312 0050 2846     		mov	r0, r5
 5313 0052 FFF7FEFF 		bl	ism330dhcx_read_reg
 5314 0056 0346     		mov	r3, r0
 5315 0058 0028     		cmp	r0, #0
 5316 005a DAD1     		bne	.L663
 5317 005c 0021     		movs	r1, #0
 5318 005e 2846     		mov	r0, r5
 5319 0060 FFF7FEFF 		bl	ism330dhcx_mem_bank_set
 5320 0064 0346     		mov	r3, r0
 5321 0066 0028     		cmp	r0, #0
 5322 0068 D3D1     		bne	.L663
 5323 006a 0123     		movs	r3, #1
 5324 006c 2246     		mov	r2, r4
 5325 006e 0D21     		movs	r1, #13
 5326 0070 2846     		mov	r0, r5
 5327 0072 FFF7FEFF 		bl	ism330dhcx_read_reg
 5328 0076 0346     		mov	r3, r0
 5329 0078 0028     		cmp	r0, #0
 5330 007a CAD1     		bne	.L663
 5331 007c 0123     		movs	r3, #1
 5332 007e E218     		adds	r2, r4, r3
 5333 0080 5E21     		movs	r1, #94
 5334 0082 2846     		mov	r0, r5
 5335 0084 FFF7FEFF 		bl	ism330dhcx_read_reg
 5336 0088 0346     		mov	r3, r0
 5337 008a C2E7     		b	.L663
 5339              		.section	.text.ism330dhcx_pin_int2_route_set,"ax",%progbits
 5340              		.align	1
 5341              		.global	ism330dhcx_pin_int2_route_set
 5342              		.syntax unified
 5343              		.thumb
 5344              		.thumb_func
 5346              	ism330dhcx_pin_int2_route_set:
ARM GAS  C:\Temp\cclPUGyV.s 			page 90


 5347              		@ args = 0, pretend = 0, frame = 8
 5348              		@ frame_needed = 0, uses_anonymous_args = 0
 5349 0000 30B5     		push	{r4, r5, lr}
 5350 0002 83B0     		sub	sp, sp, #12
 5351 0004 0546     		mov	r5, r0
 5352 0006 0C46     		mov	r4, r1
 5353 0008 0221     		movs	r1, #2
 5354 000a FFF7FEFF 		bl	ism330dhcx_mem_bank_set
 5355 000e 0346     		mov	r3, r0
 5356 0010 18B1     		cbz	r0, .L677
 5357              	.L670:
 5358 0012 9BB1     		cbz	r3, .L678
 5359              	.L669:
 5360 0014 1846     		mov	r0, r3
 5361 0016 03B0     		add	sp, sp, #12
 5362              		@ sp needed
 5363 0018 30BD     		pop	{r4, r5, pc}
 5364              	.L677:
 5365 001a 0123     		movs	r3, #1
 5366 001c 621D     		adds	r2, r4, #5
 5367 001e 1121     		movs	r1, #17
 5368 0020 2846     		mov	r0, r5
 5369 0022 FFF7FEFF 		bl	ism330dhcx_write_reg
 5370 0026 0346     		mov	r3, r0
 5371 0028 0028     		cmp	r0, #0
 5372 002a F3D1     		bne	.L669
 5373 002c 0123     		movs	r3, #1
 5374 002e A21C     		adds	r2, r4, #2
 5375 0030 0E21     		movs	r1, #14
 5376 0032 2846     		mov	r0, r5
 5377 0034 FFF7FEFF 		bl	ism330dhcx_write_reg
 5378 0038 0346     		mov	r3, r0
 5379 003a EAE7     		b	.L670
 5380              	.L678:
 5381 003c 0123     		movs	r3, #1
 5382 003e E21C     		adds	r2, r4, #3
 5383 0040 0F21     		movs	r1, #15
 5384 0042 2846     		mov	r0, r5
 5385 0044 FFF7FEFF 		bl	ism330dhcx_write_reg
 5386 0048 0346     		mov	r3, r0
 5387 004a 0028     		cmp	r0, #0
 5388 004c E2D1     		bne	.L669
 5389 004e 0123     		movs	r3, #1
 5390 0050 221D     		adds	r2, r4, #4
 5391 0052 1021     		movs	r1, #16
 5392 0054 2846     		mov	r0, r5
 5393 0056 FFF7FEFF 		bl	ism330dhcx_write_reg
 5394 005a 0346     		mov	r3, r0
 5395 005c 0028     		cmp	r0, #0
 5396 005e D9D1     		bne	.L669
 5397 0060 0021     		movs	r1, #0
 5398 0062 2846     		mov	r0, r5
 5399 0064 FFF7FEFF 		bl	ism330dhcx_mem_bank_set
 5400 0068 0346     		mov	r3, r0
 5401 006a 0028     		cmp	r0, #0
 5402 006c D2D1     		bne	.L669
 5403 006e A278     		ldrb	r2, [r4, #2]	@ zero_extendqisi2
ARM GAS  C:\Temp\cclPUGyV.s 			page 91


 5404 0070 C2F3C003 		ubfx	r3, r2, #3, #1
 5405 0074 C2F30011 		ubfx	r1, r2, #4, #1
 5406 0078 0B43     		orrs	r3, r3, r1
 5407 007a C2F34011 		ubfx	r1, r2, #5, #1
 5408 007e 0B43     		orrs	r3, r3, r1
 5409 0080 43EAD213 		orr	r3, r3, r2, lsr #7
 5410 0084 E278     		ldrb	r2, [r4, #3]	@ zero_extendqisi2
 5411 0086 02F00101 		and	r1, r2, #1
 5412 008a 0B43     		orrs	r3, r3, r1
 5413 008c C2F34001 		ubfx	r1, r2, #1, #1
 5414 0090 0B43     		orrs	r3, r3, r1
 5415 0092 C2F38001 		ubfx	r1, r2, #2, #1
 5416 0096 0B43     		orrs	r3, r3, r1
 5417 0098 C2F3C001 		ubfx	r1, r2, #3, #1
 5418 009c 0B43     		orrs	r3, r3, r1
 5419 009e C2F30011 		ubfx	r1, r2, #4, #1
 5420 00a2 0B43     		orrs	r3, r3, r1
 5421 00a4 C2F34011 		ubfx	r1, r2, #5, #1
 5422 00a8 0B43     		orrs	r3, r3, r1
 5423 00aa C2F38011 		ubfx	r1, r2, #6, #1
 5424 00ae 0B43     		orrs	r3, r3, r1
 5425 00b0 43EAD213 		orr	r3, r3, r2, lsr #7
 5426 00b4 2279     		ldrb	r2, [r4, #4]	@ zero_extendqisi2
 5427 00b6 02F00101 		and	r1, r2, #1
 5428 00ba 0B43     		orrs	r3, r3, r1
 5429 00bc C2F34001 		ubfx	r1, r2, #1, #1
 5430 00c0 0B43     		orrs	r3, r3, r1
 5431 00c2 C2F38001 		ubfx	r1, r2, #2, #1
 5432 00c6 0B43     		orrs	r3, r3, r1
 5433 00c8 C2F3C001 		ubfx	r1, r2, #3, #1
 5434 00cc 0B43     		orrs	r3, r3, r1
 5435 00ce C2F30011 		ubfx	r1, r2, #4, #1
 5436 00d2 0B43     		orrs	r3, r3, r1
 5437 00d4 C2F34011 		ubfx	r1, r2, #5, #1
 5438 00d8 0B43     		orrs	r3, r3, r1
 5439 00da C2F38011 		ubfx	r1, r2, #6, #1
 5440 00de 0B43     		orrs	r3, r3, r1
 5441 00e0 43EAD213 		orr	r3, r3, r2, lsr #7
 5442 00e4 6279     		ldrb	r2, [r4, #5]	@ zero_extendqisi2
 5443 00e6 02F00101 		and	r1, r2, #1
 5444 00ea 0B43     		orrs	r3, r3, r1
 5445 00ec C2F34001 		ubfx	r1, r2, #1, #1
 5446 00f0 0B43     		orrs	r3, r3, r1
 5447 00f2 C2F38001 		ubfx	r1, r2, #2, #1
 5448 00f6 0B43     		orrs	r3, r3, r1
 5449 00f8 C2F3C001 		ubfx	r1, r2, #3, #1
 5450 00fc 0B43     		orrs	r3, r3, r1
 5451 00fe C2F30011 		ubfx	r1, r2, #4, #1
 5452 0102 0B43     		orrs	r3, r3, r1
 5453 0104 C2F34011 		ubfx	r1, r2, #5, #1
 5454 0108 0B43     		orrs	r3, r3, r1
 5455 010a C2F38011 		ubfx	r1, r2, #6, #1
 5456 010e 0B43     		orrs	r3, r3, r1
 5457 0110 53EAD213 		orrs	r3, r3, r2, lsr #7
 5458 0114 57D0     		beq	.L672
 5459 0116 6378     		ldrb	r3, [r4, #1]	@ zero_extendqisi2
 5460 0118 43F00203 		orr	r3, r3, #2
ARM GAS  C:\Temp\cclPUGyV.s 			page 92


 5461 011c 6370     		strb	r3, [r4, #1]
 5462              	.L673:
 5463 011e 0123     		movs	r3, #1
 5464 0120 2246     		mov	r2, r4
 5465 0122 0E21     		movs	r1, #14
 5466 0124 2846     		mov	r0, r5
 5467 0126 FFF7FEFF 		bl	ism330dhcx_write_reg
 5468 012a 0346     		mov	r3, r0
 5469 012c 0028     		cmp	r0, #0
 5470 012e 7FF471AF 		bne	.L669
 5471 0132 0123     		movs	r3, #1
 5472 0134 E218     		adds	r2, r4, r3
 5473 0136 5F21     		movs	r1, #95
 5474 0138 2846     		mov	r0, r5
 5475 013a FFF7FEFF 		bl	ism330dhcx_write_reg
 5476 013e 0346     		mov	r3, r0
 5477 0140 0028     		cmp	r0, #0
 5478 0142 7FF467AF 		bne	.L669
 5479 0146 0123     		movs	r3, #1
 5480 0148 01AA     		add	r2, sp, #4
 5481 014a 5821     		movs	r1, #88
 5482 014c 2846     		mov	r0, r5
 5483 014e FFF7FEFF 		bl	ism330dhcx_read_reg
 5484 0152 0346     		mov	r3, r0
 5485 0154 0028     		cmp	r0, #0
 5486 0156 7FF45DAF 		bne	.L669
 5487 015a 2278     		ldrb	r2, [r4]	@ zero_extendqisi2
 5488 015c 02F00103 		and	r3, r2, #1
 5489 0160 C2F34001 		ubfx	r1, r2, #1, #1
 5490 0164 0B43     		orrs	r3, r3, r1
 5491 0166 C2F38001 		ubfx	r1, r2, #2, #1
 5492 016a 0B43     		orrs	r3, r3, r1
 5493 016c C2F3C001 		ubfx	r1, r2, #3, #1
 5494 0170 0B43     		orrs	r3, r3, r1
 5495 0172 C2F30011 		ubfx	r1, r2, #4, #1
 5496 0176 0B43     		orrs	r3, r3, r1
 5497 0178 C2F34011 		ubfx	r1, r2, #5, #1
 5498 017c 0B43     		orrs	r3, r3, r1
 5499 017e C2F38012 		ubfx	r2, r2, #6, #1
 5500 0182 1343     		orrs	r3, r3, r2
 5501 0184 6278     		ldrb	r2, [r4, #1]	@ zero_extendqisi2
 5502 0186 C2F38001 		ubfx	r1, r2, #2, #1
 5503 018a 0B43     		orrs	r3, r3, r1
 5504 018c C2F3C001 		ubfx	r1, r2, #3, #1
 5505 0190 0B43     		orrs	r3, r3, r1
 5506 0192 C2F30011 		ubfx	r1, r2, #4, #1
 5507 0196 0B43     		orrs	r3, r3, r1
 5508 0198 C2F34011 		ubfx	r1, r2, #5, #1
 5509 019c 0B43     		orrs	r3, r3, r1
 5510 019e C2F38011 		ubfx	r1, r2, #6, #1
 5511 01a2 0B43     		orrs	r3, r3, r1
 5512 01a4 53EAD213 		orrs	r3, r3, r2, lsr #7
 5513 01a8 12D0     		beq	.L674
 5514 01aa 9DF80430 		ldrb	r3, [sp, #4]	@ zero_extendqisi2
 5515 01ae 43F08003 		orr	r3, r3, #128
 5516 01b2 8DF80430 		strb	r3, [sp, #4]
 5517              	.L675:
ARM GAS  C:\Temp\cclPUGyV.s 			page 93


 5518 01b6 0123     		movs	r3, #1
 5519 01b8 01AA     		add	r2, sp, #4
 5520 01ba 5821     		movs	r1, #88
 5521 01bc 2846     		mov	r0, r5
 5522 01be FFF7FEFF 		bl	ism330dhcx_write_reg
 5523 01c2 0346     		mov	r3, r0
 5524 01c4 26E7     		b	.L669
 5525              	.L672:
 5526 01c6 6378     		ldrb	r3, [r4, #1]	@ zero_extendqisi2
 5527 01c8 6FF34103 		bfc	r3, #1, #1
 5528 01cc 6370     		strb	r3, [r4, #1]
 5529 01ce A6E7     		b	.L673
 5530              	.L674:
 5531 01d0 9DF80430 		ldrb	r3, [sp, #4]	@ zero_extendqisi2
 5532 01d4 6FF3C713 		bfc	r3, #7, #1
 5533 01d8 8DF80430 		strb	r3, [sp, #4]
 5534 01dc EBE7     		b	.L675
 5536              		.section	.text.ism330dhcx_pin_int2_route_get,"ax",%progbits
 5537              		.align	1
 5538              		.global	ism330dhcx_pin_int2_route_get
 5539              		.syntax unified
 5540              		.thumb
 5541              		.thumb_func
 5543              	ism330dhcx_pin_int2_route_get:
 5544              		@ args = 0, pretend = 0, frame = 0
 5545              		@ frame_needed = 0, uses_anonymous_args = 0
 5546 0000 38B5     		push	{r3, r4, r5, lr}
 5547 0002 0546     		mov	r5, r0
 5548 0004 0C46     		mov	r4, r1
 5549 0006 0221     		movs	r1, #2
 5550 0008 FFF7FEFF 		bl	ism330dhcx_mem_bank_set
 5551 000c 0346     		mov	r3, r0
 5552 000e 10B1     		cbz	r0, .L683
 5553              	.L680:
 5554 0010 93B1     		cbz	r3, .L684
 5555              	.L679:
 5556 0012 1846     		mov	r0, r3
 5557 0014 38BD     		pop	{r3, r4, r5, pc}
 5558              	.L683:
 5559 0016 0123     		movs	r3, #1
 5560 0018 621D     		adds	r2, r4, #5
 5561 001a 1121     		movs	r1, #17
 5562 001c 2846     		mov	r0, r5
 5563 001e FFF7FEFF 		bl	ism330dhcx_read_reg
 5564 0022 0346     		mov	r3, r0
 5565 0024 0028     		cmp	r0, #0
 5566 0026 F4D1     		bne	.L679
 5567 0028 0123     		movs	r3, #1
 5568 002a A21C     		adds	r2, r4, #2
 5569 002c 0E21     		movs	r1, #14
 5570 002e 2846     		mov	r0, r5
 5571 0030 FFF7FEFF 		bl	ism330dhcx_read_reg
 5572 0034 0346     		mov	r3, r0
 5573 0036 EBE7     		b	.L680
 5574              	.L684:
 5575 0038 0123     		movs	r3, #1
 5576 003a E21C     		adds	r2, r4, #3
ARM GAS  C:\Temp\cclPUGyV.s 			page 94


 5577 003c 0F21     		movs	r1, #15
 5578 003e 2846     		mov	r0, r5
 5579 0040 FFF7FEFF 		bl	ism330dhcx_read_reg
 5580 0044 0346     		mov	r3, r0
 5581 0046 0028     		cmp	r0, #0
 5582 0048 E3D1     		bne	.L679
 5583 004a 0123     		movs	r3, #1
 5584 004c 221D     		adds	r2, r4, #4
 5585 004e 1021     		movs	r1, #16
 5586 0050 2846     		mov	r0, r5
 5587 0052 FFF7FEFF 		bl	ism330dhcx_read_reg
 5588 0056 0346     		mov	r3, r0
 5589 0058 0028     		cmp	r0, #0
 5590 005a DAD1     		bne	.L679
 5591 005c 0021     		movs	r1, #0
 5592 005e 2846     		mov	r0, r5
 5593 0060 FFF7FEFF 		bl	ism330dhcx_mem_bank_set
 5594 0064 0346     		mov	r3, r0
 5595 0066 0028     		cmp	r0, #0
 5596 0068 D3D1     		bne	.L679
 5597 006a 0123     		movs	r3, #1
 5598 006c 2246     		mov	r2, r4
 5599 006e 0E21     		movs	r1, #14
 5600 0070 2846     		mov	r0, r5
 5601 0072 FFF7FEFF 		bl	ism330dhcx_read_reg
 5602 0076 0346     		mov	r3, r0
 5603 0078 0028     		cmp	r0, #0
 5604 007a CAD1     		bne	.L679
 5605 007c 0123     		movs	r3, #1
 5606 007e E218     		adds	r2, r4, r3
 5607 0080 5F21     		movs	r1, #95
 5608 0082 2846     		mov	r0, r5
 5609 0084 FFF7FEFF 		bl	ism330dhcx_read_reg
 5610 0088 0346     		mov	r3, r0
 5611 008a C2E7     		b	.L679
 5613              		.section	.text.ism330dhcx_pin_mode_set,"ax",%progbits
 5614              		.align	1
 5615              		.global	ism330dhcx_pin_mode_set
 5616              		.syntax unified
 5617              		.thumb
 5618              		.thumb_func
 5620              	ism330dhcx_pin_mode_set:
 5621              		@ args = 0, pretend = 0, frame = 8
 5622              		@ frame_needed = 0, uses_anonymous_args = 0
 5623 0000 30B5     		push	{r4, r5, lr}
 5624 0002 83B0     		sub	sp, sp, #12
 5625 0004 0446     		mov	r4, r0
 5626 0006 0D46     		mov	r5, r1
 5627 0008 0123     		movs	r3, #1
 5628 000a 01AA     		add	r2, sp, #4
 5629 000c 1221     		movs	r1, #18
 5630 000e FFF7FEFF 		bl	ism330dhcx_read_reg
 5631 0012 08B1     		cbz	r0, .L688
 5632              	.L685:
 5633 0014 03B0     		add	sp, sp, #12
 5634              		@ sp needed
 5635 0016 30BD     		pop	{r4, r5, pc}
ARM GAS  C:\Temp\cclPUGyV.s 			page 95


 5636              	.L688:
 5637 0018 9DF80430 		ldrb	r3, [sp, #4]	@ zero_extendqisi2
 5638 001c 65F30413 		bfi	r3, r5, #4, #1
 5639 0020 8DF80430 		strb	r3, [sp, #4]
 5640 0024 0123     		movs	r3, #1
 5641 0026 01AA     		add	r2, sp, #4
 5642 0028 1221     		movs	r1, #18
 5643 002a 2046     		mov	r0, r4
 5644 002c FFF7FEFF 		bl	ism330dhcx_write_reg
 5645 0030 F0E7     		b	.L685
 5647              		.section	.text.ism330dhcx_pin_mode_get,"ax",%progbits
 5648              		.align	1
 5649              		.global	ism330dhcx_pin_mode_get
 5650              		.syntax unified
 5651              		.thumb
 5652              		.thumb_func
 5654              	ism330dhcx_pin_mode_get:
 5655              		@ args = 0, pretend = 0, frame = 8
 5656              		@ frame_needed = 0, uses_anonymous_args = 0
 5657 0000 10B5     		push	{r4, lr}
 5658 0002 82B0     		sub	sp, sp, #8
 5659 0004 0C46     		mov	r4, r1
 5660 0006 0123     		movs	r3, #1
 5661 0008 01AA     		add	r2, sp, #4
 5662 000a 1221     		movs	r1, #18
 5663 000c FFF7FEFF 		bl	ism330dhcx_read_reg
 5664 0010 9DF80430 		ldrb	r3, [sp, #4]	@ zero_extendqisi2
 5665 0014 C3F30012 		ubfx	r2, r3, #4, #1
 5666 0018 13F0100F 		tst	r3, #16
 5667 001c 03D0     		beq	.L690
 5668 001e 32B9     		cbnz	r2, .L691
 5669 0020 0023     		movs	r3, #0
 5670 0022 2370     		strb	r3, [r4]
 5671 0024 01E0     		b	.L689
 5672              	.L690:
 5673 0026 0023     		movs	r3, #0
 5674 0028 2370     		strb	r3, [r4]
 5675              	.L689:
 5676 002a 02B0     		add	sp, sp, #8
 5677              		@ sp needed
 5678 002c 10BD     		pop	{r4, pc}
 5679              	.L691:
 5680 002e 0123     		movs	r3, #1
 5681 0030 2370     		strb	r3, [r4]
 5682 0032 FAE7     		b	.L689
 5684              		.section	.text.ism330dhcx_pin_polarity_set,"ax",%progbits
 5685              		.align	1
 5686              		.global	ism330dhcx_pin_polarity_set
 5687              		.syntax unified
 5688              		.thumb
 5689              		.thumb_func
 5691              	ism330dhcx_pin_polarity_set:
 5692              		@ args = 0, pretend = 0, frame = 8
 5693              		@ frame_needed = 0, uses_anonymous_args = 0
 5694 0000 30B5     		push	{r4, r5, lr}
 5695 0002 83B0     		sub	sp, sp, #12
 5696 0004 0446     		mov	r4, r0
ARM GAS  C:\Temp\cclPUGyV.s 			page 96


 5697 0006 0D46     		mov	r5, r1
 5698 0008 0123     		movs	r3, #1
 5699 000a 01AA     		add	r2, sp, #4
 5700 000c 1221     		movs	r1, #18
 5701 000e FFF7FEFF 		bl	ism330dhcx_read_reg
 5702 0012 08B1     		cbz	r0, .L699
 5703              	.L696:
 5704 0014 03B0     		add	sp, sp, #12
 5705              		@ sp needed
 5706 0016 30BD     		pop	{r4, r5, pc}
 5707              	.L699:
 5708 0018 9DF80430 		ldrb	r3, [sp, #4]	@ zero_extendqisi2
 5709 001c 65F34513 		bfi	r3, r5, #5, #1
 5710 0020 8DF80430 		strb	r3, [sp, #4]
 5711 0024 0123     		movs	r3, #1
 5712 0026 01AA     		add	r2, sp, #4
 5713 0028 1221     		movs	r1, #18
 5714 002a 2046     		mov	r0, r4
 5715 002c FFF7FEFF 		bl	ism330dhcx_write_reg
 5716 0030 F0E7     		b	.L696
 5718              		.section	.text.ism330dhcx_pin_polarity_get,"ax",%progbits
 5719              		.align	1
 5720              		.global	ism330dhcx_pin_polarity_get
 5721              		.syntax unified
 5722              		.thumb
 5723              		.thumb_func
 5725              	ism330dhcx_pin_polarity_get:
 5726              		@ args = 0, pretend = 0, frame = 8
 5727              		@ frame_needed = 0, uses_anonymous_args = 0
 5728 0000 10B5     		push	{r4, lr}
 5729 0002 82B0     		sub	sp, sp, #8
 5730 0004 0C46     		mov	r4, r1
 5731 0006 0123     		movs	r3, #1
 5732 0008 01AA     		add	r2, sp, #4
 5733 000a 1221     		movs	r1, #18
 5734 000c FFF7FEFF 		bl	ism330dhcx_read_reg
 5735 0010 9DF80430 		ldrb	r3, [sp, #4]	@ zero_extendqisi2
 5736 0014 C3F34012 		ubfx	r2, r3, #5, #1
 5737 0018 13F0200F 		tst	r3, #32
 5738 001c 03D0     		beq	.L701
 5739 001e 32B9     		cbnz	r2, .L702
 5740 0020 0023     		movs	r3, #0
 5741 0022 2370     		strb	r3, [r4]
 5742 0024 01E0     		b	.L700
 5743              	.L701:
 5744 0026 0023     		movs	r3, #0
 5745 0028 2370     		strb	r3, [r4]
 5746              	.L700:
 5747 002a 02B0     		add	sp, sp, #8
 5748              		@ sp needed
 5749 002c 10BD     		pop	{r4, pc}
 5750              	.L702:
 5751 002e 0123     		movs	r3, #1
 5752 0030 2370     		strb	r3, [r4]
 5753 0032 FAE7     		b	.L700
 5755              		.section	.text.ism330dhcx_all_on_int1_set,"ax",%progbits
 5756              		.align	1
ARM GAS  C:\Temp\cclPUGyV.s 			page 97


 5757              		.global	ism330dhcx_all_on_int1_set
 5758              		.syntax unified
 5759              		.thumb
 5760              		.thumb_func
 5762              	ism330dhcx_all_on_int1_set:
 5763              		@ args = 0, pretend = 0, frame = 8
 5764              		@ frame_needed = 0, uses_anonymous_args = 0
 5765 0000 30B5     		push	{r4, r5, lr}
 5766 0002 83B0     		sub	sp, sp, #12
 5767 0004 0446     		mov	r4, r0
 5768 0006 0D46     		mov	r5, r1
 5769 0008 0123     		movs	r3, #1
 5770 000a 01AA     		add	r2, sp, #4
 5771 000c 1321     		movs	r1, #19
 5772 000e FFF7FEFF 		bl	ism330dhcx_read_reg
 5773 0012 08B1     		cbz	r0, .L710
 5774              	.L707:
 5775 0014 03B0     		add	sp, sp, #12
 5776              		@ sp needed
 5777 0016 30BD     		pop	{r4, r5, pc}
 5778              	.L710:
 5779 0018 9DF80430 		ldrb	r3, [sp, #4]	@ zero_extendqisi2
 5780 001c 65F34513 		bfi	r3, r5, #5, #1
 5781 0020 8DF80430 		strb	r3, [sp, #4]
 5782 0024 0123     		movs	r3, #1
 5783 0026 01AA     		add	r2, sp, #4
 5784 0028 1321     		movs	r1, #19
 5785 002a 2046     		mov	r0, r4
 5786 002c FFF7FEFF 		bl	ism330dhcx_write_reg
 5787 0030 F0E7     		b	.L707
 5789              		.section	.text.ism330dhcx_all_on_int1_get,"ax",%progbits
 5790              		.align	1
 5791              		.global	ism330dhcx_all_on_int1_get
 5792              		.syntax unified
 5793              		.thumb
 5794              		.thumb_func
 5796              	ism330dhcx_all_on_int1_get:
 5797              		@ args = 0, pretend = 0, frame = 8
 5798              		@ frame_needed = 0, uses_anonymous_args = 0
 5799 0000 10B5     		push	{r4, lr}
 5800 0002 82B0     		sub	sp, sp, #8
 5801 0004 0C46     		mov	r4, r1
 5802 0006 0123     		movs	r3, #1
 5803 0008 01AA     		add	r2, sp, #4
 5804 000a 1321     		movs	r1, #19
 5805 000c FFF7FEFF 		bl	ism330dhcx_read_reg
 5806 0010 9DF80430 		ldrb	r3, [sp, #4]	@ zero_extendqisi2
 5807 0014 C3F34013 		ubfx	r3, r3, #5, #1
 5808 0018 2370     		strb	r3, [r4]
 5809 001a 02B0     		add	sp, sp, #8
 5810              		@ sp needed
 5811 001c 10BD     		pop	{r4, pc}
 5813              		.section	.text.ism330dhcx_int_notification_set,"ax",%progbits
 5814              		.align	1
 5815              		.global	ism330dhcx_int_notification_set
 5816              		.syntax unified
 5817              		.thumb
ARM GAS  C:\Temp\cclPUGyV.s 			page 98


 5818              		.thumb_func
 5820              	ism330dhcx_int_notification_set:
 5821              		@ args = 0, pretend = 0, frame = 8
 5822              		@ frame_needed = 0, uses_anonymous_args = 0
 5823 0000 30B5     		push	{r4, r5, lr}
 5824 0002 83B0     		sub	sp, sp, #12
 5825 0004 0546     		mov	r5, r0
 5826 0006 0C46     		mov	r4, r1
 5827 0008 0123     		movs	r3, #1
 5828 000a 01AA     		add	r2, sp, #4
 5829 000c 5621     		movs	r1, #86
 5830 000e FFF7FEFF 		bl	ism330dhcx_read_reg
 5831 0012 0346     		mov	r3, r0
 5832 0014 18B1     		cbz	r0, .L717
 5833              	.L714:
 5834 0016 F3B1     		cbz	r3, .L718
 5835              	.L713:
 5836 0018 1846     		mov	r0, r3
 5837 001a 03B0     		add	sp, sp, #12
 5838              		@ sp needed
 5839 001c 30BD     		pop	{r4, r5, pc}
 5840              	.L717:
 5841 001e 04F00103 		and	r3, r4, #1
 5842 0022 9DF80420 		ldrb	r2, [sp, #4]	@ zero_extendqisi2
 5843 0026 63F30002 		bfi	r2, r3, #0, #1
 5844 002a 8DF80420 		strb	r2, [sp, #4]
 5845 002e D2B2     		uxtb	r2, r2
 5846 0030 63F38612 		bfi	r2, r3, #6, #1
 5847 0034 8DF80420 		strb	r2, [sp, #4]
 5848 0038 0123     		movs	r3, #1
 5849 003a 01AA     		add	r2, sp, #4
 5850 003c 5621     		movs	r1, #86
 5851 003e 2846     		mov	r0, r5
 5852 0040 FFF7FEFF 		bl	ism330dhcx_write_reg
 5853 0044 0346     		mov	r3, r0
 5854 0046 0028     		cmp	r0, #0
 5855 0048 E6D1     		bne	.L713
 5856 004a 0221     		movs	r1, #2
 5857 004c 2846     		mov	r0, r5
 5858 004e FFF7FEFF 		bl	ism330dhcx_mem_bank_set
 5859 0052 0346     		mov	r3, r0
 5860 0054 DFE7     		b	.L714
 5861              	.L718:
 5862 0056 0123     		movs	r3, #1
 5863 0058 6A46     		mov	r2, sp
 5864 005a 1721     		movs	r1, #23
 5865 005c 2846     		mov	r0, r5
 5866 005e FFF7FEFF 		bl	ism330dhcx_read_reg
 5867 0062 0346     		mov	r3, r0
 5868 0064 0028     		cmp	r0, #0
 5869 0066 D7D1     		bne	.L713
 5870 0068 C4F34001 		ubfx	r1, r4, #1, #1
 5871 006c 9DF80030 		ldrb	r3, [sp]	@ zero_extendqisi2
 5872 0070 61F3C713 		bfi	r3, r1, #7, #1
 5873 0074 8DF80030 		strb	r3, [sp]
 5874 0078 0123     		movs	r3, #1
 5875 007a 6A46     		mov	r2, sp
ARM GAS  C:\Temp\cclPUGyV.s 			page 99


 5876 007c 1721     		movs	r1, #23
 5877 007e 2846     		mov	r0, r5
 5878 0080 FFF7FEFF 		bl	ism330dhcx_write_reg
 5879 0084 0346     		mov	r3, r0
 5880 0086 0028     		cmp	r0, #0
 5881 0088 C6D1     		bne	.L713
 5882 008a 0021     		movs	r1, #0
 5883 008c 2846     		mov	r0, r5
 5884 008e FFF7FEFF 		bl	ism330dhcx_mem_bank_set
 5885 0092 0346     		mov	r3, r0
 5886 0094 C0E7     		b	.L713
 5888              		.section	.text.ism330dhcx_int_notification_get,"ax",%progbits
 5889              		.align	1
 5890              		.global	ism330dhcx_int_notification_get
 5891              		.syntax unified
 5892              		.thumb
 5893              		.thumb_func
 5895              	ism330dhcx_int_notification_get:
 5896              		@ args = 0, pretend = 0, frame = 8
 5897              		@ frame_needed = 0, uses_anonymous_args = 0
 5898 0000 30B5     		push	{r4, r5, lr}
 5899 0002 83B0     		sub	sp, sp, #12
 5900 0004 0546     		mov	r5, r0
 5901 0006 0C46     		mov	r4, r1
 5902 0008 0023     		movs	r3, #0
 5903 000a 0B70     		strb	r3, [r1]
 5904 000c 0123     		movs	r3, #1
 5905 000e 01AA     		add	r2, sp, #4
 5906 0010 5621     		movs	r1, #86
 5907 0012 FFF7FEFF 		bl	ism330dhcx_read_reg
 5908 0016 0246     		mov	r2, r0
 5909 0018 78B1     		cbz	r0, .L730
 5910              	.L720:
 5911 001a EAB1     		cbz	r2, .L731
 5912              	.L721:
 5913 001c 9DF80010 		ldrb	r1, [sp]	@ zero_extendqisi2
 5914 0020 C909     		lsrs	r1, r1, #7
 5915 0022 9DF80430 		ldrb	r3, [sp, #4]	@ zero_extendqisi2
 5916 0026 03F00103 		and	r3, r3, #1
 5917 002a 03EB4103 		add	r3, r3, r1, lsl #1
 5918 002e 032B     		cmp	r3, #3
 5919 0030 26D8     		bhi	.L722
 5920 0032 DFE803F0 		tbb	[pc, r3]
 5921              	.L724:
 5922 0036 17       		.byte	(.L727-.L724)/2
 5923 0037 1C       		.byte	(.L726-.L724)/2
 5924 0038 1F       		.byte	(.L725-.L724)/2
 5925 0039 22       		.byte	(.L723-.L724)/2
 5926              		.p2align 1
 5927              	.L730:
 5928 003a 0221     		movs	r1, #2
 5929 003c 2846     		mov	r0, r5
 5930 003e FFF7FEFF 		bl	ism330dhcx_mem_bank_set
 5931 0042 0246     		mov	r2, r0
 5932 0044 0028     		cmp	r0, #0
 5933 0046 E9D1     		bne	.L721
 5934 0048 0123     		movs	r3, #1
ARM GAS  C:\Temp\cclPUGyV.s 			page 100


 5935 004a 6A46     		mov	r2, sp
 5936 004c 1721     		movs	r1, #23
 5937 004e 2846     		mov	r0, r5
 5938 0050 FFF7FEFF 		bl	ism330dhcx_read_reg
 5939 0054 0246     		mov	r2, r0
 5940 0056 E0E7     		b	.L720
 5941              	.L731:
 5942 0058 0021     		movs	r1, #0
 5943 005a 2846     		mov	r0, r5
 5944 005c FFF7FEFF 		bl	ism330dhcx_mem_bank_set
 5945 0060 0246     		mov	r2, r0
 5946 0062 DBE7     		b	.L721
 5947              	.L727:
 5948 0064 0023     		movs	r3, #0
 5949 0066 2370     		strb	r3, [r4]
 5950              	.L719:
 5951 0068 1046     		mov	r0, r2
 5952 006a 03B0     		add	sp, sp, #12
 5953              		@ sp needed
 5954 006c 30BD     		pop	{r4, r5, pc}
 5955              	.L726:
 5956 006e 0123     		movs	r3, #1
 5957 0070 2370     		strb	r3, [r4]
 5958 0072 F9E7     		b	.L719
 5959              	.L725:
 5960 0074 0223     		movs	r3, #2
 5961 0076 2370     		strb	r3, [r4]
 5962 0078 F6E7     		b	.L719
 5963              	.L723:
 5964 007a 0323     		movs	r3, #3
 5965 007c 2370     		strb	r3, [r4]
 5966 007e F3E7     		b	.L719
 5967              	.L722:
 5968 0080 0023     		movs	r3, #0
 5969 0082 2370     		strb	r3, [r4]
 5970 0084 F0E7     		b	.L719
 5972              		.section	.text.ism330dhcx_wkup_ths_weight_set,"ax",%progbits
 5973              		.align	1
 5974              		.global	ism330dhcx_wkup_ths_weight_set
 5975              		.syntax unified
 5976              		.thumb
 5977              		.thumb_func
 5979              	ism330dhcx_wkup_ths_weight_set:
 5980              		@ args = 0, pretend = 0, frame = 8
 5981              		@ frame_needed = 0, uses_anonymous_args = 0
 5982 0000 30B5     		push	{r4, r5, lr}
 5983 0002 83B0     		sub	sp, sp, #12
 5984 0004 0446     		mov	r4, r0
 5985 0006 0D46     		mov	r5, r1
 5986 0008 0123     		movs	r3, #1
 5987 000a 01AA     		add	r2, sp, #4
 5988 000c 5C21     		movs	r1, #92
 5989 000e FFF7FEFF 		bl	ism330dhcx_read_reg
 5990 0012 08B1     		cbz	r0, .L735
 5991              	.L732:
 5992 0014 03B0     		add	sp, sp, #12
 5993              		@ sp needed
ARM GAS  C:\Temp\cclPUGyV.s 			page 101


 5994 0016 30BD     		pop	{r4, r5, pc}
 5995              	.L735:
 5996 0018 9DF80430 		ldrb	r3, [sp, #4]	@ zero_extendqisi2
 5997 001c 65F30413 		bfi	r3, r5, #4, #1
 5998 0020 8DF80430 		strb	r3, [sp, #4]
 5999 0024 0123     		movs	r3, #1
 6000 0026 01AA     		add	r2, sp, #4
 6001 0028 5C21     		movs	r1, #92
 6002 002a 2046     		mov	r0, r4
 6003 002c FFF7FEFF 		bl	ism330dhcx_write_reg
 6004 0030 F0E7     		b	.L732
 6006              		.section	.text.ism330dhcx_wkup_ths_weight_get,"ax",%progbits
 6007              		.align	1
 6008              		.global	ism330dhcx_wkup_ths_weight_get
 6009              		.syntax unified
 6010              		.thumb
 6011              		.thumb_func
 6013              	ism330dhcx_wkup_ths_weight_get:
 6014              		@ args = 0, pretend = 0, frame = 8
 6015              		@ frame_needed = 0, uses_anonymous_args = 0
 6016 0000 10B5     		push	{r4, lr}
 6017 0002 82B0     		sub	sp, sp, #8
 6018 0004 0C46     		mov	r4, r1
 6019 0006 0123     		movs	r3, #1
 6020 0008 01AA     		add	r2, sp, #4
 6021 000a 5C21     		movs	r1, #92
 6022 000c FFF7FEFF 		bl	ism330dhcx_read_reg
 6023 0010 9DF80430 		ldrb	r3, [sp, #4]	@ zero_extendqisi2
 6024 0014 C3F30012 		ubfx	r2, r3, #4, #1
 6025 0018 13F0100F 		tst	r3, #16
 6026 001c 03D0     		beq	.L737
 6027 001e 32B9     		cbnz	r2, .L738
 6028 0020 0023     		movs	r3, #0
 6029 0022 2370     		strb	r3, [r4]
 6030 0024 01E0     		b	.L736
 6031              	.L737:
 6032 0026 0023     		movs	r3, #0
 6033 0028 2370     		strb	r3, [r4]
 6034              	.L736:
 6035 002a 02B0     		add	sp, sp, #8
 6036              		@ sp needed
 6037 002c 10BD     		pop	{r4, pc}
 6038              	.L738:
 6039 002e 0123     		movs	r3, #1
 6040 0030 2370     		strb	r3, [r4]
 6041 0032 FAE7     		b	.L736
 6043              		.section	.text.ism330dhcx_wkup_threshold_set,"ax",%progbits
 6044              		.align	1
 6045              		.global	ism330dhcx_wkup_threshold_set
 6046              		.syntax unified
 6047              		.thumb
 6048              		.thumb_func
 6050              	ism330dhcx_wkup_threshold_set:
 6051              		@ args = 0, pretend = 0, frame = 8
 6052              		@ frame_needed = 0, uses_anonymous_args = 0
 6053 0000 30B5     		push	{r4, r5, lr}
 6054 0002 83B0     		sub	sp, sp, #12
ARM GAS  C:\Temp\cclPUGyV.s 			page 102


 6055 0004 0446     		mov	r4, r0
 6056 0006 0D46     		mov	r5, r1
 6057 0008 0123     		movs	r3, #1
 6058 000a 01AA     		add	r2, sp, #4
 6059 000c 5B21     		movs	r1, #91
 6060 000e FFF7FEFF 		bl	ism330dhcx_read_reg
 6061 0012 08B1     		cbz	r0, .L746
 6062              	.L743:
 6063 0014 03B0     		add	sp, sp, #12
 6064              		@ sp needed
 6065 0016 30BD     		pop	{r4, r5, pc}
 6066              	.L746:
 6067 0018 9DF80430 		ldrb	r3, [sp, #4]	@ zero_extendqisi2
 6068 001c 65F30503 		bfi	r3, r5, #0, #6
 6069 0020 8DF80430 		strb	r3, [sp, #4]
 6070 0024 0123     		movs	r3, #1
 6071 0026 01AA     		add	r2, sp, #4
 6072 0028 5B21     		movs	r1, #91
 6073 002a 2046     		mov	r0, r4
 6074 002c FFF7FEFF 		bl	ism330dhcx_write_reg
 6075 0030 F0E7     		b	.L743
 6077              		.section	.text.ism330dhcx_wkup_threshold_get,"ax",%progbits
 6078              		.align	1
 6079              		.global	ism330dhcx_wkup_threshold_get
 6080              		.syntax unified
 6081              		.thumb
 6082              		.thumb_func
 6084              	ism330dhcx_wkup_threshold_get:
 6085              		@ args = 0, pretend = 0, frame = 8
 6086              		@ frame_needed = 0, uses_anonymous_args = 0
 6087 0000 10B5     		push	{r4, lr}
 6088 0002 82B0     		sub	sp, sp, #8
 6089 0004 0C46     		mov	r4, r1
 6090 0006 0123     		movs	r3, #1
 6091 0008 01AA     		add	r2, sp, #4
 6092 000a 5B21     		movs	r1, #91
 6093 000c FFF7FEFF 		bl	ism330dhcx_read_reg
 6094 0010 9DF80430 		ldrb	r3, [sp, #4]	@ zero_extendqisi2
 6095 0014 C3F30503 		ubfx	r3, r3, #0, #6
 6096 0018 2370     		strb	r3, [r4]
 6097 001a 02B0     		add	sp, sp, #8
 6098              		@ sp needed
 6099 001c 10BD     		pop	{r4, pc}
 6101              		.section	.text.ism330dhcx_xl_usr_offset_on_wkup_set,"ax",%progbits
 6102              		.align	1
 6103              		.global	ism330dhcx_xl_usr_offset_on_wkup_set
 6104              		.syntax unified
 6105              		.thumb
 6106              		.thumb_func
 6108              	ism330dhcx_xl_usr_offset_on_wkup_set:
 6109              		@ args = 0, pretend = 0, frame = 8
 6110              		@ frame_needed = 0, uses_anonymous_args = 0
 6111 0000 30B5     		push	{r4, r5, lr}
 6112 0002 83B0     		sub	sp, sp, #12
 6113 0004 0446     		mov	r4, r0
 6114 0006 0D46     		mov	r5, r1
 6115 0008 0123     		movs	r3, #1
ARM GAS  C:\Temp\cclPUGyV.s 			page 103


 6116 000a 01AA     		add	r2, sp, #4
 6117 000c 5B21     		movs	r1, #91
 6118 000e FFF7FEFF 		bl	ism330dhcx_read_reg
 6119 0012 08B1     		cbz	r0, .L752
 6120              	.L749:
 6121 0014 03B0     		add	sp, sp, #12
 6122              		@ sp needed
 6123 0016 30BD     		pop	{r4, r5, pc}
 6124              	.L752:
 6125 0018 9DF80430 		ldrb	r3, [sp, #4]	@ zero_extendqisi2
 6126 001c 65F38613 		bfi	r3, r5, #6, #1
 6127 0020 8DF80430 		strb	r3, [sp, #4]
 6128 0024 0123     		movs	r3, #1
 6129 0026 01AA     		add	r2, sp, #4
 6130 0028 5B21     		movs	r1, #91
 6131 002a 2046     		mov	r0, r4
 6132 002c FFF7FEFF 		bl	ism330dhcx_write_reg
 6133 0030 F0E7     		b	.L749
 6135              		.section	.text.ism330dhcx_xl_usr_offset_on_wkup_get,"ax",%progbits
 6136              		.align	1
 6137              		.global	ism330dhcx_xl_usr_offset_on_wkup_get
 6138              		.syntax unified
 6139              		.thumb
 6140              		.thumb_func
 6142              	ism330dhcx_xl_usr_offset_on_wkup_get:
 6143              		@ args = 0, pretend = 0, frame = 8
 6144              		@ frame_needed = 0, uses_anonymous_args = 0
 6145 0000 10B5     		push	{r4, lr}
 6146 0002 82B0     		sub	sp, sp, #8
 6147 0004 0C46     		mov	r4, r1
 6148 0006 0123     		movs	r3, #1
 6149 0008 01AA     		add	r2, sp, #4
 6150 000a 5B21     		movs	r1, #91
 6151 000c FFF7FEFF 		bl	ism330dhcx_read_reg
 6152 0010 9DF80430 		ldrb	r3, [sp, #4]	@ zero_extendqisi2
 6153 0014 C3F38013 		ubfx	r3, r3, #6, #1
 6154 0018 2370     		strb	r3, [r4]
 6155 001a 02B0     		add	sp, sp, #8
 6156              		@ sp needed
 6157 001c 10BD     		pop	{r4, pc}
 6159              		.section	.text.ism330dhcx_wkup_dur_set,"ax",%progbits
 6160              		.align	1
 6161              		.global	ism330dhcx_wkup_dur_set
 6162              		.syntax unified
 6163              		.thumb
 6164              		.thumb_func
 6166              	ism330dhcx_wkup_dur_set:
 6167              		@ args = 0, pretend = 0, frame = 8
 6168              		@ frame_needed = 0, uses_anonymous_args = 0
 6169 0000 30B5     		push	{r4, r5, lr}
 6170 0002 83B0     		sub	sp, sp, #12
 6171 0004 0446     		mov	r4, r0
 6172 0006 0D46     		mov	r5, r1
 6173 0008 0123     		movs	r3, #1
 6174 000a 01AA     		add	r2, sp, #4
 6175 000c 5C21     		movs	r1, #92
 6176 000e FFF7FEFF 		bl	ism330dhcx_read_reg
ARM GAS  C:\Temp\cclPUGyV.s 			page 104


 6177 0012 08B1     		cbz	r0, .L758
 6178              	.L755:
 6179 0014 03B0     		add	sp, sp, #12
 6180              		@ sp needed
 6181 0016 30BD     		pop	{r4, r5, pc}
 6182              	.L758:
 6183 0018 9DF80430 		ldrb	r3, [sp, #4]	@ zero_extendqisi2
 6184 001c 65F34613 		bfi	r3, r5, #5, #2
 6185 0020 8DF80430 		strb	r3, [sp, #4]
 6186 0024 0123     		movs	r3, #1
 6187 0026 01AA     		add	r2, sp, #4
 6188 0028 5C21     		movs	r1, #92
 6189 002a 2046     		mov	r0, r4
 6190 002c FFF7FEFF 		bl	ism330dhcx_write_reg
 6191 0030 F0E7     		b	.L755
 6193              		.section	.text.ism330dhcx_wkup_dur_get,"ax",%progbits
 6194              		.align	1
 6195              		.global	ism330dhcx_wkup_dur_get
 6196              		.syntax unified
 6197              		.thumb
 6198              		.thumb_func
 6200              	ism330dhcx_wkup_dur_get:
 6201              		@ args = 0, pretend = 0, frame = 8
 6202              		@ frame_needed = 0, uses_anonymous_args = 0
 6203 0000 10B5     		push	{r4, lr}
 6204 0002 82B0     		sub	sp, sp, #8
 6205 0004 0C46     		mov	r4, r1
 6206 0006 0123     		movs	r3, #1
 6207 0008 01AA     		add	r2, sp, #4
 6208 000a 5C21     		movs	r1, #92
 6209 000c FFF7FEFF 		bl	ism330dhcx_read_reg
 6210 0010 9DF80430 		ldrb	r3, [sp, #4]	@ zero_extendqisi2
 6211 0014 C3F34113 		ubfx	r3, r3, #5, #2
 6212 0018 2370     		strb	r3, [r4]
 6213 001a 02B0     		add	sp, sp, #8
 6214              		@ sp needed
 6215 001c 10BD     		pop	{r4, pc}
 6217              		.section	.text.ism330dhcx_gy_sleep_mode_set,"ax",%progbits
 6218              		.align	1
 6219              		.global	ism330dhcx_gy_sleep_mode_set
 6220              		.syntax unified
 6221              		.thumb
 6222              		.thumb_func
 6224              	ism330dhcx_gy_sleep_mode_set:
 6225              		@ args = 0, pretend = 0, frame = 8
 6226              		@ frame_needed = 0, uses_anonymous_args = 0
 6227 0000 30B5     		push	{r4, r5, lr}
 6228 0002 83B0     		sub	sp, sp, #12
 6229 0004 0446     		mov	r4, r0
 6230 0006 0D46     		mov	r5, r1
 6231 0008 0123     		movs	r3, #1
 6232 000a 01AA     		add	r2, sp, #4
 6233 000c 1321     		movs	r1, #19
 6234 000e FFF7FEFF 		bl	ism330dhcx_read_reg
 6235 0012 08B1     		cbz	r0, .L764
 6236              	.L761:
 6237 0014 03B0     		add	sp, sp, #12
ARM GAS  C:\Temp\cclPUGyV.s 			page 105


 6238              		@ sp needed
 6239 0016 30BD     		pop	{r4, r5, pc}
 6240              	.L764:
 6241 0018 9DF80430 		ldrb	r3, [sp, #4]	@ zero_extendqisi2
 6242 001c 65F38613 		bfi	r3, r5, #6, #1
 6243 0020 8DF80430 		strb	r3, [sp, #4]
 6244 0024 0123     		movs	r3, #1
 6245 0026 01AA     		add	r2, sp, #4
 6246 0028 1321     		movs	r1, #19
 6247 002a 2046     		mov	r0, r4
 6248 002c FFF7FEFF 		bl	ism330dhcx_write_reg
 6249 0030 F0E7     		b	.L761
 6251              		.section	.text.ism330dhcx_gy_sleep_mode_get,"ax",%progbits
 6252              		.align	1
 6253              		.global	ism330dhcx_gy_sleep_mode_get
 6254              		.syntax unified
 6255              		.thumb
 6256              		.thumb_func
 6258              	ism330dhcx_gy_sleep_mode_get:
 6259              		@ args = 0, pretend = 0, frame = 8
 6260              		@ frame_needed = 0, uses_anonymous_args = 0
 6261 0000 10B5     		push	{r4, lr}
 6262 0002 82B0     		sub	sp, sp, #8
 6263 0004 0C46     		mov	r4, r1
 6264 0006 0123     		movs	r3, #1
 6265 0008 01AA     		add	r2, sp, #4
 6266 000a 1321     		movs	r1, #19
 6267 000c FFF7FEFF 		bl	ism330dhcx_read_reg
 6268 0010 9DF80430 		ldrb	r3, [sp, #4]	@ zero_extendqisi2
 6269 0014 C3F38013 		ubfx	r3, r3, #6, #1
 6270 0018 2370     		strb	r3, [r4]
 6271 001a 02B0     		add	sp, sp, #8
 6272              		@ sp needed
 6273 001c 10BD     		pop	{r4, pc}
 6275              		.section	.text.ism330dhcx_act_pin_notification_set,"ax",%progbits
 6276              		.align	1
 6277              		.global	ism330dhcx_act_pin_notification_set
 6278              		.syntax unified
 6279              		.thumb
 6280              		.thumb_func
 6282              	ism330dhcx_act_pin_notification_set:
 6283              		@ args = 0, pretend = 0, frame = 8
 6284              		@ frame_needed = 0, uses_anonymous_args = 0
 6285 0000 30B5     		push	{r4, r5, lr}
 6286 0002 83B0     		sub	sp, sp, #12
 6287 0004 0446     		mov	r4, r0
 6288 0006 0D46     		mov	r5, r1
 6289 0008 0123     		movs	r3, #1
 6290 000a 01AA     		add	r2, sp, #4
 6291 000c 5621     		movs	r1, #86
 6292 000e FFF7FEFF 		bl	ism330dhcx_read_reg
 6293 0012 08B1     		cbz	r0, .L770
 6294              	.L767:
 6295 0014 03B0     		add	sp, sp, #12
 6296              		@ sp needed
 6297 0016 30BD     		pop	{r4, r5, pc}
 6298              	.L770:
ARM GAS  C:\Temp\cclPUGyV.s 			page 106


 6299 0018 9DF80430 		ldrb	r3, [sp, #4]	@ zero_extendqisi2
 6300 001c 65F34513 		bfi	r3, r5, #5, #1
 6301 0020 8DF80430 		strb	r3, [sp, #4]
 6302 0024 0123     		movs	r3, #1
 6303 0026 01AA     		add	r2, sp, #4
 6304 0028 5621     		movs	r1, #86
 6305 002a 2046     		mov	r0, r4
 6306 002c FFF7FEFF 		bl	ism330dhcx_write_reg
 6307 0030 F0E7     		b	.L767
 6309              		.section	.text.ism330dhcx_act_pin_notification_get,"ax",%progbits
 6310              		.align	1
 6311              		.global	ism330dhcx_act_pin_notification_get
 6312              		.syntax unified
 6313              		.thumb
 6314              		.thumb_func
 6316              	ism330dhcx_act_pin_notification_get:
 6317              		@ args = 0, pretend = 0, frame = 8
 6318              		@ frame_needed = 0, uses_anonymous_args = 0
 6319 0000 10B5     		push	{r4, lr}
 6320 0002 82B0     		sub	sp, sp, #8
 6321 0004 0C46     		mov	r4, r1
 6322 0006 0123     		movs	r3, #1
 6323 0008 01AA     		add	r2, sp, #4
 6324 000a 5621     		movs	r1, #86
 6325 000c FFF7FEFF 		bl	ism330dhcx_read_reg
 6326 0010 9DF80430 		ldrb	r3, [sp, #4]	@ zero_extendqisi2
 6327 0014 C3F34012 		ubfx	r2, r3, #5, #1
 6328 0018 13F0200F 		tst	r3, #32
 6329 001c 03D0     		beq	.L772
 6330 001e 32B9     		cbnz	r2, .L773
 6331 0020 0023     		movs	r3, #0
 6332 0022 2370     		strb	r3, [r4]
 6333 0024 01E0     		b	.L771
 6334              	.L772:
 6335 0026 0023     		movs	r3, #0
 6336 0028 2370     		strb	r3, [r4]
 6337              	.L771:
 6338 002a 02B0     		add	sp, sp, #8
 6339              		@ sp needed
 6340 002c 10BD     		pop	{r4, pc}
 6341              	.L773:
 6342 002e 0123     		movs	r3, #1
 6343 0030 2370     		strb	r3, [r4]
 6344 0032 FAE7     		b	.L771
 6346              		.section	.text.ism330dhcx_act_mode_set,"ax",%progbits
 6347              		.align	1
 6348              		.global	ism330dhcx_act_mode_set
 6349              		.syntax unified
 6350              		.thumb
 6351              		.thumb_func
 6353              	ism330dhcx_act_mode_set:
 6354              		@ args = 0, pretend = 0, frame = 8
 6355              		@ frame_needed = 0, uses_anonymous_args = 0
 6356 0000 30B5     		push	{r4, r5, lr}
 6357 0002 83B0     		sub	sp, sp, #12
 6358 0004 0446     		mov	r4, r0
 6359 0006 0D46     		mov	r5, r1
ARM GAS  C:\Temp\cclPUGyV.s 			page 107


 6360 0008 0123     		movs	r3, #1
 6361 000a 01AA     		add	r2, sp, #4
 6362 000c 5821     		movs	r1, #88
 6363 000e FFF7FEFF 		bl	ism330dhcx_read_reg
 6364 0012 08B1     		cbz	r0, .L781
 6365              	.L778:
 6366 0014 03B0     		add	sp, sp, #12
 6367              		@ sp needed
 6368 0016 30BD     		pop	{r4, r5, pc}
 6369              	.L781:
 6370 0018 9DF80430 		ldrb	r3, [sp, #4]	@ zero_extendqisi2
 6371 001c 65F34613 		bfi	r3, r5, #5, #2
 6372 0020 8DF80430 		strb	r3, [sp, #4]
 6373 0024 0123     		movs	r3, #1
 6374 0026 01AA     		add	r2, sp, #4
 6375 0028 5821     		movs	r1, #88
 6376 002a 2046     		mov	r0, r4
 6377 002c FFF7FEFF 		bl	ism330dhcx_write_reg
 6378 0030 F0E7     		b	.L778
 6380              		.section	.text.ism330dhcx_act_mode_get,"ax",%progbits
 6381              		.align	1
 6382              		.global	ism330dhcx_act_mode_get
 6383              		.syntax unified
 6384              		.thumb
 6385              		.thumb_func
 6387              	ism330dhcx_act_mode_get:
 6388              		@ args = 0, pretend = 0, frame = 8
 6389              		@ frame_needed = 0, uses_anonymous_args = 0
 6390 0000 10B5     		push	{r4, lr}
 6391 0002 82B0     		sub	sp, sp, #8
 6392 0004 0C46     		mov	r4, r1
 6393 0006 0123     		movs	r3, #1
 6394 0008 01AA     		add	r2, sp, #4
 6395 000a 5821     		movs	r1, #88
 6396 000c FFF7FEFF 		bl	ism330dhcx_read_reg
 6397 0010 9DF80430 		ldrb	r3, [sp, #4]	@ zero_extendqisi2
 6398 0014 C3F34113 		ubfx	r3, r3, #5, #2
 6399 0018 032B     		cmp	r3, #3
 6400 001a 10D8     		bhi	.L783
 6401 001c DFE803F0 		tbb	[pc, r3]
 6402              	.L785:
 6403 0020 02       		.byte	(.L788-.L785)/2
 6404 0021 06       		.byte	(.L787-.L785)/2
 6405 0022 09       		.byte	(.L786-.L785)/2
 6406 0023 0C       		.byte	(.L784-.L785)/2
 6407              		.p2align 1
 6408              	.L788:
 6409 0024 0023     		movs	r3, #0
 6410 0026 2370     		strb	r3, [r4]
 6411              	.L782:
 6412 0028 02B0     		add	sp, sp, #8
 6413              		@ sp needed
 6414 002a 10BD     		pop	{r4, pc}
 6415              	.L787:
 6416 002c 0123     		movs	r3, #1
 6417 002e 2370     		strb	r3, [r4]
 6418 0030 FAE7     		b	.L782
ARM GAS  C:\Temp\cclPUGyV.s 			page 108


 6419              	.L786:
 6420 0032 0223     		movs	r3, #2
 6421 0034 2370     		strb	r3, [r4]
 6422 0036 F7E7     		b	.L782
 6423              	.L784:
 6424 0038 0323     		movs	r3, #3
 6425 003a 2370     		strb	r3, [r4]
 6426 003c F4E7     		b	.L782
 6427              	.L783:
 6428 003e 0023     		movs	r3, #0
 6429 0040 2370     		strb	r3, [r4]
 6430 0042 F1E7     		b	.L782
 6432              		.section	.text.ism330dhcx_act_sleep_dur_set,"ax",%progbits
 6433              		.align	1
 6434              		.global	ism330dhcx_act_sleep_dur_set
 6435              		.syntax unified
 6436              		.thumb
 6437              		.thumb_func
 6439              	ism330dhcx_act_sleep_dur_set:
 6440              		@ args = 0, pretend = 0, frame = 8
 6441              		@ frame_needed = 0, uses_anonymous_args = 0
 6442 0000 30B5     		push	{r4, r5, lr}
 6443 0002 83B0     		sub	sp, sp, #12
 6444 0004 0446     		mov	r4, r0
 6445 0006 0D46     		mov	r5, r1
 6446 0008 0123     		movs	r3, #1
 6447 000a 01AA     		add	r2, sp, #4
 6448 000c 5C21     		movs	r1, #92
 6449 000e FFF7FEFF 		bl	ism330dhcx_read_reg
 6450 0012 08B1     		cbz	r0, .L794
 6451              	.L791:
 6452 0014 03B0     		add	sp, sp, #12
 6453              		@ sp needed
 6454 0016 30BD     		pop	{r4, r5, pc}
 6455              	.L794:
 6456 0018 9DF80430 		ldrb	r3, [sp, #4]	@ zero_extendqisi2
 6457 001c 65F30303 		bfi	r3, r5, #0, #4
 6458 0020 8DF80430 		strb	r3, [sp, #4]
 6459 0024 0123     		movs	r3, #1
 6460 0026 01AA     		add	r2, sp, #4
 6461 0028 5C21     		movs	r1, #92
 6462 002a 2046     		mov	r0, r4
 6463 002c FFF7FEFF 		bl	ism330dhcx_write_reg
 6464 0030 F0E7     		b	.L791
 6466              		.section	.text.ism330dhcx_act_sleep_dur_get,"ax",%progbits
 6467              		.align	1
 6468              		.global	ism330dhcx_act_sleep_dur_get
 6469              		.syntax unified
 6470              		.thumb
 6471              		.thumb_func
 6473              	ism330dhcx_act_sleep_dur_get:
 6474              		@ args = 0, pretend = 0, frame = 8
 6475              		@ frame_needed = 0, uses_anonymous_args = 0
 6476 0000 10B5     		push	{r4, lr}
 6477 0002 82B0     		sub	sp, sp, #8
 6478 0004 0C46     		mov	r4, r1
 6479 0006 0123     		movs	r3, #1
ARM GAS  C:\Temp\cclPUGyV.s 			page 109


 6480 0008 01AA     		add	r2, sp, #4
 6481 000a 5C21     		movs	r1, #92
 6482 000c FFF7FEFF 		bl	ism330dhcx_read_reg
 6483 0010 9DF80430 		ldrb	r3, [sp, #4]	@ zero_extendqisi2
 6484 0014 C3F30303 		ubfx	r3, r3, #0, #4
 6485 0018 2370     		strb	r3, [r4]
 6486 001a 02B0     		add	sp, sp, #8
 6487              		@ sp needed
 6488 001c 10BD     		pop	{r4, pc}
 6490              		.section	.text.ism330dhcx_tap_detection_on_z_set,"ax",%progbits
 6491              		.align	1
 6492              		.global	ism330dhcx_tap_detection_on_z_set
 6493              		.syntax unified
 6494              		.thumb
 6495              		.thumb_func
 6497              	ism330dhcx_tap_detection_on_z_set:
 6498              		@ args = 0, pretend = 0, frame = 8
 6499              		@ frame_needed = 0, uses_anonymous_args = 0
 6500 0000 30B5     		push	{r4, r5, lr}
 6501 0002 83B0     		sub	sp, sp, #12
 6502 0004 0446     		mov	r4, r0
 6503 0006 0D46     		mov	r5, r1
 6504 0008 0123     		movs	r3, #1
 6505 000a 01AA     		add	r2, sp, #4
 6506 000c 5621     		movs	r1, #86
 6507 000e FFF7FEFF 		bl	ism330dhcx_read_reg
 6508 0012 08B1     		cbz	r0, .L800
 6509              	.L797:
 6510 0014 03B0     		add	sp, sp, #12
 6511              		@ sp needed
 6512 0016 30BD     		pop	{r4, r5, pc}
 6513              	.L800:
 6514 0018 9DF80430 		ldrb	r3, [sp, #4]	@ zero_extendqisi2
 6515 001c 65F34103 		bfi	r3, r5, #1, #1
 6516 0020 8DF80430 		strb	r3, [sp, #4]
 6517 0024 0123     		movs	r3, #1
 6518 0026 01AA     		add	r2, sp, #4
 6519 0028 5621     		movs	r1, #86
 6520 002a 2046     		mov	r0, r4
 6521 002c FFF7FEFF 		bl	ism330dhcx_write_reg
 6522 0030 F0E7     		b	.L797
 6524              		.section	.text.ism330dhcx_tap_detection_on_z_get,"ax",%progbits
 6525              		.align	1
 6526              		.global	ism330dhcx_tap_detection_on_z_get
 6527              		.syntax unified
 6528              		.thumb
 6529              		.thumb_func
 6531              	ism330dhcx_tap_detection_on_z_get:
 6532              		@ args = 0, pretend = 0, frame = 8
 6533              		@ frame_needed = 0, uses_anonymous_args = 0
 6534 0000 10B5     		push	{r4, lr}
 6535 0002 82B0     		sub	sp, sp, #8
 6536 0004 0C46     		mov	r4, r1
 6537 0006 0123     		movs	r3, #1
 6538 0008 01AA     		add	r2, sp, #4
 6539 000a 5621     		movs	r1, #86
 6540 000c FFF7FEFF 		bl	ism330dhcx_read_reg
ARM GAS  C:\Temp\cclPUGyV.s 			page 110


 6541 0010 9DF80430 		ldrb	r3, [sp, #4]	@ zero_extendqisi2
 6542 0014 C3F34003 		ubfx	r3, r3, #1, #1
 6543 0018 2370     		strb	r3, [r4]
 6544 001a 02B0     		add	sp, sp, #8
 6545              		@ sp needed
 6546 001c 10BD     		pop	{r4, pc}
 6548              		.section	.text.ism330dhcx_tap_detection_on_y_set,"ax",%progbits
 6549              		.align	1
 6550              		.global	ism330dhcx_tap_detection_on_y_set
 6551              		.syntax unified
 6552              		.thumb
 6553              		.thumb_func
 6555              	ism330dhcx_tap_detection_on_y_set:
 6556              		@ args = 0, pretend = 0, frame = 8
 6557              		@ frame_needed = 0, uses_anonymous_args = 0
 6558 0000 30B5     		push	{r4, r5, lr}
 6559 0002 83B0     		sub	sp, sp, #12
 6560 0004 0446     		mov	r4, r0
 6561 0006 0D46     		mov	r5, r1
 6562 0008 0123     		movs	r3, #1
 6563 000a 01AA     		add	r2, sp, #4
 6564 000c 5621     		movs	r1, #86
 6565 000e FFF7FEFF 		bl	ism330dhcx_read_reg
 6566 0012 08B1     		cbz	r0, .L806
 6567              	.L803:
 6568 0014 03B0     		add	sp, sp, #12
 6569              		@ sp needed
 6570 0016 30BD     		pop	{r4, r5, pc}
 6571              	.L806:
 6572 0018 9DF80430 		ldrb	r3, [sp, #4]	@ zero_extendqisi2
 6573 001c 65F38203 		bfi	r3, r5, #2, #1
 6574 0020 8DF80430 		strb	r3, [sp, #4]
