ARM GAS  C:\Temp\cclPUGyV.s 			page 1


   1              		.cpu cortex-m4
   2              		.arch armv7e-m
   3              		.fpu fpv4-sp-d16
   4              		.eabi_attribute 27, 1
   5              		.eabi_attribute 28, 1
   6              		.eabi_attribute 20, 1
   7              		.eabi_attribute 21, 1
   8              		.eabi_attribute 23, 3
   9              		.eabi_attribute 24, 1
  10              		.eabi_attribute 25, 1
  11              		.eabi_attribute 26, 1
  12              		.eabi_attribute 30, 1
  13              		.eabi_attribute 34, 1
  14              		.eabi_attribute 18, 4
  15              		.file	"ism330dhcx_reg.c"
  16              		.text
  17              		.section	.text.ism330dhcx_read_reg,"ax",%progbits
  18              		.align	1
  19              		.weak	ism330dhcx_read_reg
  20              		.syntax unified
  21              		.thumb
  22              		.thumb_func
  24              	ism330dhcx_read_reg:
  25              		@ args = 0, pretend = 0, frame = 0
  26              		@ frame_needed = 0, uses_anonymous_args = 0
  27 0000 20B1     		cbz	r0, .L3
  28 0002 10B5     		push	{r4, lr}
  29 0004 4468     		ldr	r4, [r0, #4]
  30 0006 C068     		ldr	r0, [r0, #12]
  31 0008 A047     		blx	r4
  32 000a 10BD     		pop	{r4, pc}
  33              	.L3:
  34 000c 4FF0FF30 		mov	r0, #-1
  35 0010 7047     		bx	lr
  37              		.section	.text.ism330dhcx_write_reg,"ax",%progbits
  38              		.align	1
  39              		.weak	ism330dhcx_write_reg
  40              		.syntax unified
  41              		.thumb
  42              		.thumb_func
  44              	ism330dhcx_write_reg:
  45              		@ args = 0, pretend = 0, frame = 0
  46              		@ frame_needed = 0, uses_anonymous_args = 0
  47 0000 20B1     		cbz	r0, .L10
  48 0002 10B5     		push	{r4, lr}
  49 0004 0468     		ldr	r4, [r0]
  50 0006 C068     		ldr	r0, [r0, #12]
  51 0008 A047     		blx	r4
  52 000a 10BD     		pop	{r4, pc}
  53              	.L10:
  54 000c 4FF0FF30 		mov	r0, #-1
  55 0010 7047     		bx	lr
  57              		.section	.text.ism330dhcx_from_fs2g_to_mg,"ax",%progbits
  58              		.align	1
  59              		.global	ism330dhcx_from_fs2g_to_mg
  60              		.syntax unified
  61              		.thumb
ARM GAS  C:\Temp\cclPUGyV.s 			page 2


  62              		.thumb_func
  64              	ism330dhcx_from_fs2g_to_mg:
  65              		@ args = 0, pretend = 0, frame = 0
  66              		@ frame_needed = 0, uses_anonymous_args = 0
  67              		@ link register save eliminated.
  68 0000 07EE900A 		vmov	s15, r0	@ int
  69 0004 F8EEE77A 		vcvt.f32.s32	s15, s15
  70 0008 9FED020A 		vldr.32	s0, .L16
  71 000c 27EE800A 		vmul.f32	s0, s15, s0
  72 0010 7047     		bx	lr
  73              	.L17:
  74 0012 00BF     		.align	2
  75              	.L16:
  76 0014 23DB793D 		.word	1031396131
  78              		.section	.text.ism330dhcx_from_fs4g_to_mg,"ax",%progbits
  79              		.align	1
  80              		.global	ism330dhcx_from_fs4g_to_mg
  81              		.syntax unified
  82              		.thumb
  83              		.thumb_func
  85              	ism330dhcx_from_fs4g_to_mg:
  86              		@ args = 0, pretend = 0, frame = 0
  87              		@ frame_needed = 0, uses_anonymous_args = 0
  88              		@ link register save eliminated.
  89 0000 07EE900A 		vmov	s15, r0	@ int
  90 0004 F8EEE77A 		vcvt.f32.s32	s15, s15
  91 0008 9FED020A 		vldr.32	s0, .L19
  92 000c 27EE800A 		vmul.f32	s0, s15, s0
  93 0010 7047     		bx	lr
  94              	.L20:
  95 0012 00BF     		.align	2
  96              	.L19:
  97 0014 23DBF93D 		.word	1039784739
  99              		.section	.text.ism330dhcx_from_fs8g_to_mg,"ax",%progbits
 100              		.align	1
 101              		.global	ism330dhcx_from_fs8g_to_mg
 102              		.syntax unified
 103              		.thumb
 104              		.thumb_func
 106              	ism330dhcx_from_fs8g_to_mg:
 107              		@ args = 0, pretend = 0, frame = 0
 108              		@ frame_needed = 0, uses_anonymous_args = 0
 109              		@ link register save eliminated.
 110 0000 07EE900A 		vmov	s15, r0	@ int
 111 0004 F8EEE77A 		vcvt.f32.s32	s15, s15
 112 0008 9FED020A 		vldr.32	s0, .L22
 113 000c 27EE800A 		vmul.f32	s0, s15, s0
 114 0010 7047     		bx	lr
 115              	.L23:
 116 0012 00BF     		.align	2
 117              	.L22:
 118 0014 23DB793E 		.word	1048173347
 120              		.section	.text.ism330dhcx_from_fs16g_to_mg,"ax",%progbits
 121              		.align	1
 122              		.global	ism330dhcx_from_fs16g_to_mg
 123              		.syntax unified
 124              		.thumb
ARM GAS  C:\Temp\cclPUGyV.s 			page 3


 125              		.thumb_func
 127              	ism330dhcx_from_fs16g_to_mg:
 128              		@ args = 0, pretend = 0, frame = 0
 129              		@ frame_needed = 0, uses_anonymous_args = 0
 130              		@ link register save eliminated.
 131 0000 07EE900A 		vmov	s15, r0	@ int
 132 0004 F8EEE77A 		vcvt.f32.s32	s15, s15
 133 0008 9FED020A 		vldr.32	s0, .L25
 134 000c 27EE800A 		vmul.f32	s0, s15, s0
 135 0010 7047     		bx	lr
 136              	.L26:
 137 0012 00BF     		.align	2
 138              	.L25:
 139 0014 23DBF93E 		.word	1056561955
 141              		.section	.text.ism330dhcx_from_fs125dps_to_mdps,"ax",%progbits
 142              		.align	1
 143              		.global	ism330dhcx_from_fs125dps_to_mdps
 144              		.syntax unified
 145              		.thumb
 146              		.thumb_func
 148              	ism330dhcx_from_fs125dps_to_mdps:
 149              		@ args = 0, pretend = 0, frame = 0
 150              		@ frame_needed = 0, uses_anonymous_args = 0
 151              		@ link register save eliminated.
 152 0000 07EE900A 		vmov	s15, r0	@ int
 153 0004 F8EEE77A 		vcvt.f32.s32	s15, s15
 154 0008 9FED020A 		vldr.32	s0, .L28
 155 000c 27EE800A 		vmul.f32	s0, s15, s0
 156 0010 7047     		bx	lr
 157              	.L29:
 158 0012 00BF     		.align	2
 159              	.L28:
 160 0014 00008C40 		.word	1082916864
 162              		.section	.text.ism330dhcx_from_fs250dps_to_mdps,"ax",%progbits
 163              		.align	1
 164              		.global	ism330dhcx_from_fs250dps_to_mdps
 165              		.syntax unified
 166              		.thumb
 167              		.thumb_func
 169              	ism330dhcx_from_fs250dps_to_mdps:
 170              		@ args = 0, pretend = 0, frame = 0
 171              		@ frame_needed = 0, uses_anonymous_args = 0
 172              		@ link register save eliminated.
 173 0000 07EE900A 		vmov	s15, r0	@ int
 174 0004 F8EEE77A 		vcvt.f32.s32	s15, s15
 175 0008 9FED020A 		vldr.32	s0, .L31
 176 000c 27EE800A 		vmul.f32	s0, s15, s0
 177 0010 7047     		bx	lr
 178              	.L32:
 179 0012 00BF     		.align	2
 180              	.L31:
 181 0014 00000C41 		.word	1091305472
 183              		.section	.text.ism330dhcx_from_fs500dps_to_mdps,"ax",%progbits
 184              		.align	1
 185              		.global	ism330dhcx_from_fs500dps_to_mdps
 186              		.syntax unified
 187              		.thumb
ARM GAS  C:\Temp\cclPUGyV.s 			page 4


 188              		.thumb_func
 190              	ism330dhcx_from_fs500dps_to_mdps:
 191              		@ args = 0, pretend = 0, frame = 0
 192              		@ frame_needed = 0, uses_anonymous_args = 0
 193              		@ link register save eliminated.
 194 0000 07EE900A 		vmov	s15, r0	@ int
 195 0004 F8EEE77A 		vcvt.f32.s32	s15, s15
 196 0008 9FED020A 		vldr.32	s0, .L34
 197 000c 27EE800A 		vmul.f32	s0, s15, s0
 198 0010 7047     		bx	lr
 199              	.L35:
 200 0012 00BF     		.align	2
 201              	.L34:
 202 0014 00008C41 		.word	1099694080
 204              		.section	.text.ism330dhcx_from_fs1000dps_to_mdps,"ax",%progbits
 205              		.align	1
 206              		.global	ism330dhcx_from_fs1000dps_to_mdps
 207              		.syntax unified
 208              		.thumb
 209              		.thumb_func
 211              	ism330dhcx_from_fs1000dps_to_mdps:
 212              		@ args = 0, pretend = 0, frame = 0
 213              		@ frame_needed = 0, uses_anonymous_args = 0
 214              		@ link register save eliminated.
 215 0000 07EE900A 		vmov	s15, r0	@ int
 216 0004 F8EEE77A 		vcvt.f32.s32	s15, s15
 217 0008 9FED020A 		vldr.32	s0, .L37
 218 000c 27EE800A 		vmul.f32	s0, s15, s0
 219 0010 7047     		bx	lr
 220              	.L38:
 221 0012 00BF     		.align	2
 222              	.L37:
 223 0014 00000C42 		.word	1108082688
 225              		.section	.text.ism330dhcx_from_fs2000dps_to_mdps,"ax",%progbits
 226              		.align	1
 227              		.global	ism330dhcx_from_fs2000dps_to_mdps
 228              		.syntax unified
 229              		.thumb
 230              		.thumb_func
 232              	ism330dhcx_from_fs2000dps_to_mdps:
 233              		@ args = 0, pretend = 0, frame = 0
 234              		@ frame_needed = 0, uses_anonymous_args = 0
 235              		@ link register save eliminated.
 236 0000 07EE900A 		vmov	s15, r0	@ int
 237 0004 F8EEE77A 		vcvt.f32.s32	s15, s15
 238 0008 9FED020A 		vldr.32	s0, .L40
 239 000c 27EE800A 		vmul.f32	s0, s15, s0
 240 0010 7047     		bx	lr
 241              	.L41:
 242 0012 00BF     		.align	2
 243              	.L40:
 244 0014 00008C42 		.word	1116471296
 246              		.section	.text.ism330dhcx_from_fs4000dps_to_mdps,"ax",%progbits
 247              		.align	1
 248              		.global	ism330dhcx_from_fs4000dps_to_mdps
 249              		.syntax unified
 250              		.thumb
ARM GAS  C:\Temp\cclPUGyV.s 			page 5


 251              		.thumb_func
 253              	ism330dhcx_from_fs4000dps_to_mdps:
 254              		@ args = 0, pretend = 0, frame = 0
 255              		@ frame_needed = 0, uses_anonymous_args = 0
 256              		@ link register save eliminated.
 257 0000 07EE900A 		vmov	s15, r0	@ int
 258 0004 F8EEE77A 		vcvt.f32.s32	s15, s15
 259 0008 9FED020A 		vldr.32	s0, .L43
 260 000c 27EE800A 		vmul.f32	s0, s15, s0
 261 0010 7047     		bx	lr
 262              	.L44:
 263 0012 00BF     		.align	2
 264              	.L43:
 265 0014 00000C43 		.word	1124859904
 267              		.section	.text.ism330dhcx_from_lsb_to_celsius,"ax",%progbits
 268              		.align	1
 269              		.global	ism330dhcx_from_lsb_to_celsius
 270              		.syntax unified
 271              		.thumb
 272              		.thumb_func
 274              	ism330dhcx_from_lsb_to_celsius:
 275              		@ args = 0, pretend = 0, frame = 0
 276              		@ frame_needed = 0, uses_anonymous_args = 0
 277              		@ link register save eliminated.
 278 0000 07EE900A 		vmov	s15, r0	@ int
 279 0004 F8EEE77A 		vcvt.f32.s32	s15, s15
 280 0008 9FED047A 		vldr.32	s14, .L46
 281 000c 67EE877A 		vmul.f32	s15, s15, s14
 282 0010 B3EE090A 		vmov.f32	s0, #2.5e+1
 283 0014 37EE800A 		vadd.f32	s0, s15, s0
 284 0018 7047     		bx	lr
 285              	.L47:
 286 001a 00BF     		.align	2
 287              	.L46:
 288 001c 0000803B 		.word	998244352
 290              		.section	.text.ism330dhcx_from_lsb_to_nsec,"ax",%progbits
 291              		.align	1
 292              		.global	ism330dhcx_from_lsb_to_nsec
 293              		.syntax unified
 294              		.thumb
 295              		.thumb_func
 297              	ism330dhcx_from_lsb_to_nsec:
 298              		@ args = 0, pretend = 0, frame = 0
 299              		@ frame_needed = 0, uses_anonymous_args = 0
 300              		@ link register save eliminated.
 301 0000 46F2A811 		movw	r1, #25000
 302 0004 A0FB0101 		umull	r0, r1, r0, r1
 303 0008 7047     		bx	lr
 305              		.section	.text.ism330dhcx_xl_full_scale_set,"ax",%progbits
 306              		.align	1
 307              		.global	ism330dhcx_xl_full_scale_set
 308              		.syntax unified
 309              		.thumb
 310              		.thumb_func
 312              	ism330dhcx_xl_full_scale_set:
 313              		@ args = 0, pretend = 0, frame = 8
 314              		@ frame_needed = 0, uses_anonymous_args = 0
ARM GAS  C:\Temp\cclPUGyV.s 			page 6


 315 0000 30B5     		push	{r4, r5, lr}
 316 0002 83B0     		sub	sp, sp, #12
 317 0004 0446     		mov	r4, r0
 318 0006 0D46     		mov	r5, r1
 319 0008 0123     		movs	r3, #1
 320 000a 01AA     		add	r2, sp, #4
 321 000c 1021     		movs	r1, #16
 322 000e FFF7FEFF 		bl	ism330dhcx_read_reg
 323 0012 08B1     		cbz	r0, .L52
 324              	.L49:
 325 0014 03B0     		add	sp, sp, #12
 326              		@ sp needed
 327 0016 30BD     		pop	{r4, r5, pc}
 328              	.L52:
 329 0018 9DF80430 		ldrb	r3, [sp, #4]	@ zero_extendqisi2
 330 001c 65F38303 		bfi	r3, r5, #2, #2
 331 0020 8DF80430 		strb	r3, [sp, #4]
 332 0024 0123     		movs	r3, #1
 333 0026 01AA     		add	r2, sp, #4
 334 0028 1021     		movs	r1, #16
 335 002a 2046     		mov	r0, r4
 336 002c FFF7FEFF 		bl	ism330dhcx_write_reg
 337 0030 F0E7     		b	.L49
 339              		.section	.text.ism330dhcx_xl_full_scale_get,"ax",%progbits
 340              		.align	1
 341              		.global	ism330dhcx_xl_full_scale_get
 342              		.syntax unified
 343              		.thumb
 344              		.thumb_func
 346              	ism330dhcx_xl_full_scale_get:
 347              		@ args = 0, pretend = 0, frame = 8
 348              		@ frame_needed = 0, uses_anonymous_args = 0
 349 0000 10B5     		push	{r4, lr}
 350 0002 82B0     		sub	sp, sp, #8
 351 0004 0C46     		mov	r4, r1
 352 0006 0123     		movs	r3, #1
 353 0008 01AA     		add	r2, sp, #4
 354 000a 1021     		movs	r1, #16
 355 000c FFF7FEFF 		bl	ism330dhcx_read_reg
 356 0010 9DF80430 		ldrb	r3, [sp, #4]	@ zero_extendqisi2
 357 0014 C3F38103 		ubfx	r3, r3, #2, #2
 358 0018 032B     		cmp	r3, #3
 359 001a 10D8     		bhi	.L54
 360 001c DFE803F0 		tbb	[pc, r3]
 361              	.L56:
 362 0020 02       		.byte	(.L59-.L56)/2
 363 0021 06       		.byte	(.L58-.L56)/2
 364 0022 09       		.byte	(.L57-.L56)/2
 365 0023 0C       		.byte	(.L55-.L56)/2
 366              		.p2align 1
 367              	.L59:
 368 0024 0023     		movs	r3, #0
 369 0026 2370     		strb	r3, [r4]
 370              	.L53:
 371 0028 02B0     		add	sp, sp, #8
 372              		@ sp needed
 373 002a 10BD     		pop	{r4, pc}
ARM GAS  C:\Temp\cclPUGyV.s 			page 7


 374              	.L58:
 375 002c 0123     		movs	r3, #1
 376 002e 2370     		strb	r3, [r4]
 377 0030 FAE7     		b	.L53
 378              	.L57:
 379 0032 0223     		movs	r3, #2
 380 0034 2370     		strb	r3, [r4]
 381 0036 F7E7     		b	.L53
 382              	.L55:
 383 0038 0323     		movs	r3, #3
 384 003a 2370     		strb	r3, [r4]
 385 003c F4E7     		b	.L53
 386              	.L54:
 387 003e 0023     		movs	r3, #0
 388 0040 2370     		strb	r3, [r4]
 389 0042 F1E7     		b	.L53
 391              		.section	.text.ism330dhcx_xl_data_rate_get,"ax",%progbits
 392              		.align	1
 393              		.global	ism330dhcx_xl_data_rate_get
 394              		.syntax unified
 395              		.thumb
 396              		.thumb_func
 398              	ism330dhcx_xl_data_rate_get:
 399              		@ args = 0, pretend = 0, frame = 8
 400              		@ frame_needed = 0, uses_anonymous_args = 0
 401 0000 10B5     		push	{r4, lr}
 402 0002 82B0     		sub	sp, sp, #8
 403 0004 0C46     		mov	r4, r1
 404 0006 0123     		movs	r3, #1
 405 0008 01AA     		add	r2, sp, #4
 406 000a 1021     		movs	r1, #16
 407 000c FFF7FEFF 		bl	ism330dhcx_read_reg
 408 0010 9DF80430 		ldrb	r3, [sp, #4]	@ zero_extendqisi2
 409 0014 1B09     		lsrs	r3, r3, #4
 410 0016 0B2B     		cmp	r3, #11
 411 0018 2CD8     		bhi	.L63
 412 001a DFE803F0 		tbb	[pc, r3]
 413              	.L65:
 414 001e 06       		.byte	(.L76-.L65)/2
 415 001f 0A       		.byte	(.L75-.L65)/2
 416 0020 0D       		.byte	(.L74-.L65)/2
 417 0021 10       		.byte	(.L73-.L65)/2
 418 0022 13       		.byte	(.L72-.L65)/2
 419 0023 16       		.byte	(.L71-.L65)/2
 420 0024 19       		.byte	(.L70-.L65)/2
 421 0025 1C       		.byte	(.L69-.L65)/2
 422 0026 1F       		.byte	(.L68-.L65)/2
 423 0027 22       		.byte	(.L67-.L65)/2
 424 0028 25       		.byte	(.L66-.L65)/2
 425 0029 28       		.byte	(.L64-.L65)/2
 426              		.p2align 1
 427              	.L76:
 428 002a 0023     		movs	r3, #0
 429 002c 2370     		strb	r3, [r4]
 430              	.L62:
 431 002e 02B0     		add	sp, sp, #8
 432              		@ sp needed
ARM GAS  C:\Temp\cclPUGyV.s 			page 8


 433 0030 10BD     		pop	{r4, pc}
 434              	.L75:
 435 0032 0123     		movs	r3, #1
 436 0034 2370     		strb	r3, [r4]
 437 0036 FAE7     		b	.L62
 438              	.L74:
 439 0038 0223     		movs	r3, #2
 440 003a 2370     		strb	r3, [r4]
 441 003c F7E7     		b	.L62
 442              	.L73:
 443 003e 0323     		movs	r3, #3
 444 0040 2370     		strb	r3, [r4]
 445 0042 F4E7     		b	.L62
 446              	.L72:
 447 0044 0423     		movs	r3, #4
 448 0046 2370     		strb	r3, [r4]
 449 0048 F1E7     		b	.L62
 450              	.L71:
 451 004a 0523     		movs	r3, #5
 452 004c 2370     		strb	r3, [r4]
 453 004e EEE7     		b	.L62
 454              	.L70:
 455 0050 0623     		movs	r3, #6
 456 0052 2370     		strb	r3, [r4]
 457 0054 EBE7     		b	.L62
 458              	.L69:
 459 0056 0723     		movs	r3, #7
 460 0058 2370     		strb	r3, [r4]
 461 005a E8E7     		b	.L62
 462              	.L68:
 463 005c 0823     		movs	r3, #8
 464 005e 2370     		strb	r3, [r4]
 465 0060 E5E7     		b	.L62
 466              	.L67:
 467 0062 0923     		movs	r3, #9
 468 0064 2370     		strb	r3, [r4]
 469 0066 E2E7     		b	.L62
 470              	.L66:
 471 0068 0A23     		movs	r3, #10
 472 006a 2370     		strb	r3, [r4]
 473 006c DFE7     		b	.L62
 474              	.L64:
 475 006e 0B23     		movs	r3, #11
 476 0070 2370     		strb	r3, [r4]
 477 0072 DCE7     		b	.L62
 478              	.L63:
 479 0074 0023     		movs	r3, #0
 480 0076 2370     		strb	r3, [r4]
 481 0078 D9E7     		b	.L62
 483              		.section	.text.ism330dhcx_gy_full_scale_set,"ax",%progbits
 484              		.align	1
 485              		.global	ism330dhcx_gy_full_scale_set
 486              		.syntax unified
 487              		.thumb
 488              		.thumb_func
 490              	ism330dhcx_gy_full_scale_set:
 491              		@ args = 0, pretend = 0, frame = 8
ARM GAS  C:\Temp\cclPUGyV.s 			page 9


 492              		@ frame_needed = 0, uses_anonymous_args = 0
 493 0000 30B5     		push	{r4, r5, lr}
 494 0002 83B0     		sub	sp, sp, #12
 495 0004 0446     		mov	r4, r0
 496 0006 0D46     		mov	r5, r1
 497 0008 0123     		movs	r3, #1
 498 000a 01AA     		add	r2, sp, #4
 499 000c 1121     		movs	r1, #17
 500 000e FFF7FEFF 		bl	ism330dhcx_read_reg
 501 0012 08B1     		cbz	r0, .L82
 502              	.L79:
 503 0014 03B0     		add	sp, sp, #12
 504              		@ sp needed
 505 0016 30BD     		pop	{r4, r5, pc}
 506              	.L82:
 507 0018 9DF80430 		ldrb	r3, [sp, #4]	@ zero_extendqisi2
 508 001c 65F30303 		bfi	r3, r5, #0, #4
 509 0020 8DF80430 		strb	r3, [sp, #4]
 510 0024 0123     		movs	r3, #1
 511 0026 01AA     		add	r2, sp, #4
 512 0028 1121     		movs	r1, #17
 513 002a 2046     		mov	r0, r4
 514 002c FFF7FEFF 		bl	ism330dhcx_write_reg
 515 0030 F0E7     		b	.L79
 517              		.section	.text.ism330dhcx_gy_full_scale_get,"ax",%progbits
 518              		.align	1
 519              		.global	ism330dhcx_gy_full_scale_get
 520              		.syntax unified
 521              		.thumb
 522              		.thumb_func
 524              	ism330dhcx_gy_full_scale_get:
 525              		@ args = 0, pretend = 0, frame = 8
 526              		@ frame_needed = 0, uses_anonymous_args = 0
 527 0000 10B5     		push	{r4, lr}
 528 0002 82B0     		sub	sp, sp, #8
 529 0004 0C46     		mov	r4, r1
 530 0006 0123     		movs	r3, #1
 531 0008 01AA     		add	r2, sp, #4
 532 000a 1121     		movs	r1, #17
 533 000c FFF7FEFF 		bl	ism330dhcx_read_reg
 534 0010 9DF80430 		ldrb	r3, [sp, #4]	@ zero_extendqisi2
 535 0014 03F00F03 		and	r3, r3, #15
 536 0018 0C2B     		cmp	r3, #12
 537 001a 1BD8     		bhi	.L84
 538 001c DFE803F0 		tbb	[pc, r3]
 539              	.L86:
 540 0020 0B       		.byte	(.L91-.L86)/2
 541 0021 17       		.byte	(.L90-.L86)/2
 542 0022 07       		.byte	(.L89-.L86)/2
 543 0023 1A       		.byte	(.L84-.L86)/2
 544 0024 0E       		.byte	(.L88-.L86)/2
 545 0025 1A       		.byte	(.L84-.L86)/2
 546 0026 1A       		.byte	(.L84-.L86)/2
 547 0027 1A       		.byte	(.L84-.L86)/2
 548 0028 11       		.byte	(.L87-.L86)/2
 549 0029 1A       		.byte	(.L84-.L86)/2
 550 002a 1A       		.byte	(.L84-.L86)/2
ARM GAS  C:\Temp\cclPUGyV.s 			page 10


 551 002b 1A       		.byte	(.L84-.L86)/2
 552 002c 14       		.byte	(.L85-.L86)/2
 553 002d 00       		.p2align 1
 554              	.L89:
 555 002e 0223     		movs	r3, #2
 556 0030 2370     		strb	r3, [r4]
 557              	.L83:
 558 0032 02B0     		add	sp, sp, #8
 559              		@ sp needed
 560 0034 10BD     		pop	{r4, pc}
 561              	.L91:
 562 0036 0023     		movs	r3, #0
 563 0038 2370     		strb	r3, [r4]
 564 003a FAE7     		b	.L83
 565              	.L88:
 566 003c 0423     		movs	r3, #4
 567 003e 2370     		strb	r3, [r4]
 568 0040 F7E7     		b	.L83
 569              	.L87:
 570 0042 0823     		movs	r3, #8
 571 0044 2370     		strb	r3, [r4]
 572 0046 F4E7     		b	.L83
 573              	.L85:
 574 0048 0C23     		movs	r3, #12
 575 004a 2370     		strb	r3, [r4]
 576 004c F1E7     		b	.L83
 577              	.L90:
 578 004e 0123     		movs	r3, #1
 579 0050 2370     		strb	r3, [r4]
 580 0052 EEE7     		b	.L83
 581              	.L84:
 582 0054 0223     		movs	r3, #2
 583 0056 2370     		strb	r3, [r4]
 584 0058 EBE7     		b	.L83
 586              		.section	.text.ism330dhcx_gy_data_rate_get,"ax",%progbits
 587              		.align	1
 588              		.global	ism330dhcx_gy_data_rate_get
 589              		.syntax unified
 590              		.thumb
 591              		.thumb_func
 593              	ism330dhcx_gy_data_rate_get:
 594              		@ args = 0, pretend = 0, frame = 8
 595              		@ frame_needed = 0, uses_anonymous_args = 0
 596 0000 10B5     		push	{r4, lr}
 597 0002 82B0     		sub	sp, sp, #8
 598 0004 0C46     		mov	r4, r1
 599 0006 0123     		movs	r3, #1
 600 0008 01AA     		add	r2, sp, #4
 601 000a 1121     		movs	r1, #17
 602 000c FFF7FEFF 		bl	ism330dhcx_read_reg
 603 0010 9DF80430 		ldrb	r3, [sp, #4]	@ zero_extendqisi2
 604 0014 1B09     		lsrs	r3, r3, #4
 605 0016 0A2B     		cmp	r3, #10
 606 0018 29D8     		bhi	.L95
 607 001a DFE803F0 		tbb	[pc, r3]
 608              	.L97:
 609 001e 06       		.byte	(.L107-.L97)/2
ARM GAS  C:\Temp\cclPUGyV.s 			page 11


 610 001f 0A       		.byte	(.L106-.L97)/2
 611 0020 0D       		.byte	(.L105-.L97)/2
 612 0021 10       		.byte	(.L104-.L97)/2
 613 0022 13       		.byte	(.L103-.L97)/2
 614 0023 16       		.byte	(.L102-.L97)/2
 615 0024 19       		.byte	(.L101-.L97)/2
 616 0025 1C       		.byte	(.L100-.L97)/2
 617 0026 1F       		.byte	(.L99-.L97)/2
 618 0027 22       		.byte	(.L98-.L97)/2
 619 0028 25       		.byte	(.L96-.L97)/2
 620 0029 00       		.p2align 1
 621              	.L107:
 622 002a 0023     		movs	r3, #0
 623 002c 2370     		strb	r3, [r4]
 624              	.L94:
 625 002e 02B0     		add	sp, sp, #8
 626              		@ sp needed
 627 0030 10BD     		pop	{r4, pc}
 628              	.L106:
 629 0032 0123     		movs	r3, #1
 630 0034 2370     		strb	r3, [r4]
 631 0036 FAE7     		b	.L94
 632              	.L105:
 633 0038 0223     		movs	r3, #2
 634 003a 2370     		strb	r3, [r4]
 635 003c F7E7     		b	.L94
 636              	.L104:
 637 003e 0323     		movs	r3, #3
 638 0040 2370     		strb	r3, [r4]
 639 0042 F4E7     		b	.L94
 640              	.L103:
 641 0044 0423     		movs	r3, #4
 642 0046 2370     		strb	r3, [r4]
 643 0048 F1E7     		b	.L94
 644              	.L102:
 645 004a 0523     		movs	r3, #5
 646 004c 2370     		strb	r3, [r4]
 647 004e EEE7     		b	.L94
 648              	.L101:
 649 0050 0623     		movs	r3, #6
 650 0052 2370     		strb	r3, [r4]
 651 0054 EBE7     		b	.L94
 652              	.L100:
 653 0056 0723     		movs	r3, #7
 654 0058 2370     		strb	r3, [r4]
 655 005a E8E7     		b	.L94
 656              	.L99:
 657 005c 0823     		movs	r3, #8
 658 005e 2370     		strb	r3, [r4]
 659 0060 E5E7     		b	.L94
 660              	.L98:
 661 0062 0923     		movs	r3, #9
 662 0064 2370     		strb	r3, [r4]
 663 0066 E2E7     		b	.L94
 664              	.L96:
 665 0068 0A23     		movs	r3, #10
 666 006a 2370     		strb	r3, [r4]
ARM GAS  C:\Temp\cclPUGyV.s 			page 12


 667 006c DFE7     		b	.L94
 668              	.L95:
 669 006e 0023     		movs	r3, #0
 670 0070 2370     		strb	r3, [r4]
 671 0072 DCE7     		b	.L94
 673              		.section	.text.ism330dhcx_block_data_update_set,"ax",%progbits
 674              		.align	1
 675              		.global	ism330dhcx_block_data_update_set
 676              		.syntax unified
 677              		.thumb
 678              		.thumb_func
 680              	ism330dhcx_block_data_update_set:
 681              		@ args = 0, pretend = 0, frame = 8
 682              		@ frame_needed = 0, uses_anonymous_args = 0
 683 0000 30B5     		push	{r4, r5, lr}
 684 0002 83B0     		sub	sp, sp, #12
 685 0004 0446     		mov	r4, r0
 686 0006 0D46     		mov	r5, r1
 687 0008 0123     		movs	r3, #1
 688 000a 01AA     		add	r2, sp, #4
 689 000c 1221     		movs	r1, #18
 690 000e FFF7FEFF 		bl	ism330dhcx_read_reg
 691 0012 08B1     		cbz	r0, .L113
 692              	.L110:
 693 0014 03B0     		add	sp, sp, #12
 694              		@ sp needed
 695 0016 30BD     		pop	{r4, r5, pc}
 696              	.L113:
 697 0018 9DF80430 		ldrb	r3, [sp, #4]	@ zero_extendqisi2
 698 001c 65F38613 		bfi	r3, r5, #6, #1
 699 0020 8DF80430 		strb	r3, [sp, #4]
 700 0024 0123     		movs	r3, #1
 701 0026 01AA     		add	r2, sp, #4
 702 0028 1221     		movs	r1, #18
 703 002a 2046     		mov	r0, r4
 704 002c FFF7FEFF 		bl	ism330dhcx_write_reg
 705 0030 F0E7     		b	.L110
 707              		.section	.text.ism330dhcx_block_data_update_get,"ax",%progbits
 708              		.align	1
 709              		.global	ism330dhcx_block_data_update_get
 710              		.syntax unified
 711              		.thumb
 712              		.thumb_func
 714              	ism330dhcx_block_data_update_get:
 715              		@ args = 0, pretend = 0, frame = 8
 716              		@ frame_needed = 0, uses_anonymous_args = 0
 717 0000 10B5     		push	{r4, lr}
 718 0002 82B0     		sub	sp, sp, #8
 719 0004 0C46     		mov	r4, r1
 720 0006 0123     		movs	r3, #1
 721 0008 01AA     		add	r2, sp, #4
 722 000a 1221     		movs	r1, #18
 723 000c FFF7FEFF 		bl	ism330dhcx_read_reg
 724 0010 9DF80430 		ldrb	r3, [sp, #4]	@ zero_extendqisi2
 725 0014 C3F38013 		ubfx	r3, r3, #6, #1
 726 0018 2370     		strb	r3, [r4]
 727 001a 02B0     		add	sp, sp, #8
ARM GAS  C:\Temp\cclPUGyV.s 			page 13


 728              		@ sp needed
 729 001c 10BD     		pop	{r4, pc}
 731              		.section	.text.ism330dhcx_xl_offset_weight_set,"ax",%progbits
 732              		.align	1
 733              		.global	ism330dhcx_xl_offset_weight_set
 734              		.syntax unified
 735              		.thumb
 736              		.thumb_func
 738              	ism330dhcx_xl_offset_weight_set:
 739              		@ args = 0, pretend = 0, frame = 8
 740              		@ frame_needed = 0, uses_anonymous_args = 0
 741 0000 30B5     		push	{r4, r5, lr}
 742 0002 83B0     		sub	sp, sp, #12
 743 0004 0446     		mov	r4, r0
 744 0006 0D46     		mov	r5, r1
 745 0008 0123     		movs	r3, #1
 746 000a 01AA     		add	r2, sp, #4
 747 000c 1521     		movs	r1, #21
 748 000e FFF7FEFF 		bl	ism330dhcx_read_reg
 749 0012 08B1     		cbz	r0, .L119
 750              	.L116:
 751 0014 03B0     		add	sp, sp, #12
 752              		@ sp needed
 753 0016 30BD     		pop	{r4, r5, pc}
 754              	.L119:
 755 0018 9DF80430 		ldrb	r3, [sp, #4]	@ zero_extendqisi2
 756 001c 65F3C303 		bfi	r3, r5, #3, #1
 757 0020 8DF80430 		strb	r3, [sp, #4]
 758 0024 0123     		movs	r3, #1
 759 0026 01AA     		add	r2, sp, #4
 760 0028 1521     		movs	r1, #21
 761 002a 2046     		mov	r0, r4
 762 002c FFF7FEFF 		bl	ism330dhcx_write_reg
 763 0030 F0E7     		b	.L116
 765              		.section	.text.ism330dhcx_xl_offset_weight_get,"ax",%progbits
 766              		.align	1
 767              		.global	ism330dhcx_xl_offset_weight_get
 768              		.syntax unified
 769              		.thumb
 770              		.thumb_func
 772              	ism330dhcx_xl_offset_weight_get:
 773              		@ args = 0, pretend = 0, frame = 8
 774              		@ frame_needed = 0, uses_anonymous_args = 0
 775 0000 10B5     		push	{r4, lr}
 776 0002 82B0     		sub	sp, sp, #8
 777 0004 0C46     		mov	r4, r1
 778 0006 0123     		movs	r3, #1
 779 0008 01AA     		add	r2, sp, #4
 780 000a 1521     		movs	r1, #21
 781 000c FFF7FEFF 		bl	ism330dhcx_read_reg
 782 0010 9DF80430 		ldrb	r3, [sp, #4]	@ zero_extendqisi2
 783 0014 C3F3C002 		ubfx	r2, r3, #3, #1
 784 0018 13F0080F 		tst	r3, #8
 785 001c 03D0     		beq	.L121
 786 001e 32B9     		cbnz	r2, .L122
 787 0020 0023     		movs	r3, #0
 788 0022 2370     		strb	r3, [r4]
ARM GAS  C:\Temp\cclPUGyV.s 			page 14


 789 0024 01E0     		b	.L120
 790              	.L121:
 791 0026 0023     		movs	r3, #0
 792 0028 2370     		strb	r3, [r4]
 793              	.L120:
 794 002a 02B0     		add	sp, sp, #8
 795              		@ sp needed
 796 002c 10BD     		pop	{r4, pc}
 797              	.L122:
 798 002e 0123     		movs	r3, #1
 799 0030 2370     		strb	r3, [r4]
 800 0032 FAE7     		b	.L120
 802              		.section	.text.ism330dhcx_xl_power_mode_set,"ax",%progbits
 803              		.align	1
 804              		.global	ism330dhcx_xl_power_mode_set
 805              		.syntax unified
 806              		.thumb
 807              		.thumb_func
 809              	ism330dhcx_xl_power_mode_set:
 810              		@ args = 0, pretend = 0, frame = 8
 811              		@ frame_needed = 0, uses_anonymous_args = 0
 812 0000 30B5     		push	{r4, r5, lr}
 813 0002 83B0     		sub	sp, sp, #12
 814 0004 0446     		mov	r4, r0
 815 0006 0D46     		mov	r5, r1
 816 0008 0123     		movs	r3, #1
 817 000a 01AA     		add	r2, sp, #4
 818 000c 1521     		movs	r1, #21
 819 000e FFF7FEFF 		bl	ism330dhcx_read_reg
 820 0012 08B1     		cbz	r0, .L130
 821              	.L127:
 822 0014 03B0     		add	sp, sp, #12
 823              		@ sp needed
 824 0016 30BD     		pop	{r4, r5, pc}
 825              	.L130:
 826 0018 9DF80430 		ldrb	r3, [sp, #4]	@ zero_extendqisi2
 827 001c 65F30413 		bfi	r3, r5, #4, #1
 828 0020 8DF80430 		strb	r3, [sp, #4]
 829 0024 0123     		movs	r3, #1
 830 0026 01AA     		add	r2, sp, #4
 831 0028 1521     		movs	r1, #21
 832 002a 2046     		mov	r0, r4
 833 002c FFF7FEFF 		bl	ism330dhcx_write_reg
 834 0030 F0E7     		b	.L127
 836              		.section	.text.ism330dhcx_xl_power_mode_get,"ax",%progbits
 837              		.align	1
 838              		.global	ism330dhcx_xl_power_mode_get
 839              		.syntax unified
 840              		.thumb
 841              		.thumb_func
 843              	ism330dhcx_xl_power_mode_get:
 844              		@ args = 0, pretend = 0, frame = 8
 845              		@ frame_needed = 0, uses_anonymous_args = 0
 846 0000 10B5     		push	{r4, lr}
 847 0002 82B0     		sub	sp, sp, #8
 848 0004 0C46     		mov	r4, r1
 849 0006 0123     		movs	r3, #1
ARM GAS  C:\Temp\cclPUGyV.s 			page 15


 850 0008 01AA     		add	r2, sp, #4
 851 000a 1521     		movs	r1, #21
 852 000c FFF7FEFF 		bl	ism330dhcx_read_reg
 853 0010 9DF80430 		ldrb	r3, [sp, #4]	@ zero_extendqisi2
 854 0014 C3F30012 		ubfx	r2, r3, #4, #1
 855 0018 13F0100F 		tst	r3, #16
 856 001c 03D0     		beq	.L132
 857 001e 32B9     		cbnz	r2, .L133
 858 0020 0023     		movs	r3, #0
 859 0022 2370     		strb	r3, [r4]
 860 0024 01E0     		b	.L131
 861              	.L132:
 862 0026 0023     		movs	r3, #0
 863 0028 2370     		strb	r3, [r4]
 864              	.L131:
 865 002a 02B0     		add	sp, sp, #8
 866              		@ sp needed
 867 002c 10BD     		pop	{r4, pc}
 868              	.L133:
 869 002e 0123     		movs	r3, #1
 870 0030 2370     		strb	r3, [r4]
 871 0032 FAE7     		b	.L131
 873              		.section	.text.ism330dhcx_gy_power_mode_set,"ax",%progbits
 874              		.align	1
 875              		.global	ism330dhcx_gy_power_mode_set
 876              		.syntax unified
 877              		.thumb
 878              		.thumb_func
 880              	ism330dhcx_gy_power_mode_set:
 881              		@ args = 0, pretend = 0, frame = 8
 882              		@ frame_needed = 0, uses_anonymous_args = 0
 883 0000 30B5     		push	{r4, r5, lr}
 884 0002 83B0     		sub	sp, sp, #12
 885 0004 0446     		mov	r4, r0
 886 0006 0D46     		mov	r5, r1
 887 0008 0123     		movs	r3, #1
 888 000a 01AA     		add	r2, sp, #4
 889 000c 1621     		movs	r1, #22
 890 000e FFF7FEFF 		bl	ism330dhcx_read_reg
 891 0012 08B1     		cbz	r0, .L141
 892              	.L138:
 893 0014 03B0     		add	sp, sp, #12
 894              		@ sp needed
 895 0016 30BD     		pop	{r4, r5, pc}
 896              	.L141:
 897 0018 9DF80430 		ldrb	r3, [sp, #4]	@ zero_extendqisi2
 898 001c 65F3C713 		bfi	r3, r5, #7, #1
 899 0020 8DF80430 		strb	r3, [sp, #4]
 900 0024 0123     		movs	r3, #1
 901 0026 01AA     		add	r2, sp, #4
 902 0028 1621     		movs	r1, #22
 903 002a 2046     		mov	r0, r4
 904 002c FFF7FEFF 		bl	ism330dhcx_write_reg
 905 0030 F0E7     		b	.L138
 907              		.section	.text.ism330dhcx_gy_power_mode_get,"ax",%progbits
 908              		.align	1
 909              		.global	ism330dhcx_gy_power_mode_get
ARM GAS  C:\Temp\cclPUGyV.s 			page 16


 910              		.syntax unified
 911              		.thumb
 912              		.thumb_func
 914              	ism330dhcx_gy_power_mode_get:
 915              		@ args = 0, pretend = 0, frame = 8
 916              		@ frame_needed = 0, uses_anonymous_args = 0
 917 0000 10B5     		push	{r4, lr}
 918 0002 82B0     		sub	sp, sp, #8
 919 0004 0C46     		mov	r4, r1
 920 0006 0123     		movs	r3, #1
 921 0008 01AA     		add	r2, sp, #4
 922 000a 1621     		movs	r1, #22
 923 000c FFF7FEFF 		bl	ism330dhcx_read_reg
 924 0010 9DF80430 		ldrb	r3, [sp, #4]	@ zero_extendqisi2
 925 0014 DB09     		lsrs	r3, r3, #7
 926 0016 03D0     		beq	.L143
 927 0018 33B9     		cbnz	r3, .L144
 928 001a 0023     		movs	r3, #0
 929 001c 2370     		strb	r3, [r4]
 930 001e 01E0     		b	.L142
 931              	.L143:
 932 0020 0023     		movs	r3, #0
 933 0022 2370     		strb	r3, [r4]
 934              	.L142:
 935 0024 02B0     		add	sp, sp, #8
 936              		@ sp needed
 937 0026 10BD     		pop	{r4, pc}
 938              	.L144:
 939 0028 0123     		movs	r3, #1
 940 002a 2370     		strb	r3, [r4]
 941 002c FAE7     		b	.L142
 943              		.section	.text.ism330dhcx_status_reg_get,"ax",%progbits
 944              		.align	1
 945              		.global	ism330dhcx_status_reg_get
 946              		.syntax unified
 947              		.thumb
 948              		.thumb_func
 950              	ism330dhcx_status_reg_get:
 951              		@ args = 0, pretend = 0, frame = 0
 952              		@ frame_needed = 0, uses_anonymous_args = 0
 953 0000 08B5     		push	{r3, lr}
 954 0002 0A46     		mov	r2, r1
 955 0004 0123     		movs	r3, #1
 956 0006 1E21     		movs	r1, #30
 957 0008 FFF7FEFF 		bl	ism330dhcx_read_reg
 958 000c 08BD     		pop	{r3, pc}
 960              		.section	.text.ism330dhcx_xl_flag_data_ready_get,"ax",%progbits
 961              		.align	1
 962              		.global	ism330dhcx_xl_flag_data_ready_get
 963              		.syntax unified
 964              		.thumb
 965              		.thumb_func
 967              	ism330dhcx_xl_flag_data_ready_get:
 968              		@ args = 0, pretend = 0, frame = 8
 969              		@ frame_needed = 0, uses_anonymous_args = 0
 970 0000 10B5     		push	{r4, lr}
 971 0002 82B0     		sub	sp, sp, #8
ARM GAS  C:\Temp\cclPUGyV.s 			page 17


 972 0004 0C46     		mov	r4, r1
 973 0006 0123     		movs	r3, #1
 974 0008 01AA     		add	r2, sp, #4
 975 000a 1E21     		movs	r1, #30
 976 000c FFF7FEFF 		bl	ism330dhcx_read_reg
 977 0010 9DF80430 		ldrb	r3, [sp, #4]	@ zero_extendqisi2
 978 0014 C3F30003 		ubfx	r3, r3, #0, #1
 979 0018 2370     		strb	r3, [r4]
 980 001a 02B0     		add	sp, sp, #8
 981              		@ sp needed
 982 001c 10BD     		pop	{r4, pc}
 984              		.section	.text.ism330dhcx_gy_flag_data_ready_get,"ax",%progbits
 985              		.align	1
 986              		.global	ism330dhcx_gy_flag_data_ready_get
 987              		.syntax unified
 988              		.thumb
 989              		.thumb_func
 991              	ism330dhcx_gy_flag_data_ready_get:
 992              		@ args = 0, pretend = 0, frame = 8
 993              		@ frame_needed = 0, uses_anonymous_args = 0
 994 0000 10B5     		push	{r4, lr}
 995 0002 82B0     		sub	sp, sp, #8
 996 0004 0C46     		mov	r4, r1
 997 0006 0123     		movs	r3, #1
 998 0008 01AA     		add	r2, sp, #4
 999 000a 1E21     		movs	r1, #30
 1000 000c FFF7FEFF 		bl	ism330dhcx_read_reg
 1001 0010 9DF80430 		ldrb	r3, [sp, #4]	@ zero_extendqisi2
 1002 0014 C3F34003 		ubfx	r3, r3, #1, #1
 1003 0018 2370     		strb	r3, [r4]
 1004 001a 02B0     		add	sp, sp, #8
 1005              		@ sp needed
 1006 001c 10BD     		pop	{r4, pc}
 1008              		.section	.text.ism330dhcx_temp_flag_data_ready_get,"ax",%progbits
 1009              		.align	1
 1010              		.global	ism330dhcx_temp_flag_data_ready_get
 1011              		.syntax unified
 1012              		.thumb
 1013              		.thumb_func
 1015              	ism330dhcx_temp_flag_data_ready_get:
 1016              		@ args = 0, pretend = 0, frame = 8
 1017              		@ frame_needed = 0, uses_anonymous_args = 0
 1018 0000 10B5     		push	{r4, lr}
 1019 0002 82B0     		sub	sp, sp, #8
 1020 0004 0C46     		mov	r4, r1
 1021 0006 0123     		movs	r3, #1
 1022 0008 01AA     		add	r2, sp, #4
 1023 000a 1E21     		movs	r1, #30
 1024 000c FFF7FEFF 		bl	ism330dhcx_read_reg
 1025 0010 9DF80430 		ldrb	r3, [sp, #4]	@ zero_extendqisi2
 1026 0014 C3F38003 		ubfx	r3, r3, #2, #1
 1027 0018 2370     		strb	r3, [r4]
 1028 001a 02B0     		add	sp, sp, #8
 1029              		@ sp needed
 1030 001c 10BD     		pop	{r4, pc}
 1032              		.section	.text.ism330dhcx_xl_usr_offset_x_set,"ax",%progbits
 1033              		.align	1
ARM GAS  C:\Temp\cclPUGyV.s 			page 18


 1034              		.global	ism330dhcx_xl_usr_offset_x_set
 1035              		.syntax unified
 1036              		.thumb
 1037              		.thumb_func
 1039              	ism330dhcx_xl_usr_offset_x_set:
 1040              		@ args = 0, pretend = 0, frame = 0
 1041              		@ frame_needed = 0, uses_anonymous_args = 0
 1042 0000 08B5     		push	{r3, lr}
 1043 0002 0A46     		mov	r2, r1
 1044 0004 0123     		movs	r3, #1
 1045 0006 7321     		movs	r1, #115
 1046 0008 FFF7FEFF 		bl	ism330dhcx_write_reg
 1047 000c 08BD     		pop	{r3, pc}
 1049              		.section	.text.ism330dhcx_xl_usr_offset_x_get,"ax",%progbits
 1050              		.align	1
 1051              		.global	ism330dhcx_xl_usr_offset_x_get
 1052              		.syntax unified
 1053              		.thumb
 1054              		.thumb_func
 1056              	ism330dhcx_xl_usr_offset_x_get:
 1057              		@ args = 0, pretend = 0, frame = 0
 1058              		@ frame_needed = 0, uses_anonymous_args = 0
 1059 0000 08B5     		push	{r3, lr}
 1060 0002 0A46     		mov	r2, r1
 1061 0004 0123     		movs	r3, #1
 1062 0006 7321     		movs	r1, #115
 1063 0008 FFF7FEFF 		bl	ism330dhcx_read_reg
 1064 000c 08BD     		pop	{r3, pc}
 1066              		.section	.text.ism330dhcx_xl_usr_offset_y_set,"ax",%progbits
 1067              		.align	1
 1068              		.global	ism330dhcx_xl_usr_offset_y_set
 1069              		.syntax unified
 1070              		.thumb
 1071              		.thumb_func
 1073              	ism330dhcx_xl_usr_offset_y_set:
 1074              		@ args = 0, pretend = 0, frame = 0
 1075              		@ frame_needed = 0, uses_anonymous_args = 0
 1076 0000 08B5     		push	{r3, lr}
 1077 0002 0A46     		mov	r2, r1
 1078 0004 0123     		movs	r3, #1
 1079 0006 7421     		movs	r1, #116
 1080 0008 FFF7FEFF 		bl	ism330dhcx_write_reg
 1081 000c 08BD     		pop	{r3, pc}
 1083              		.section	.text.ism330dhcx_xl_usr_offset_y_get,"ax",%progbits
 1084              		.align	1
 1085              		.global	ism330dhcx_xl_usr_offset_y_get
 1086              		.syntax unified
 1087              		.thumb
 1088              		.thumb_func
 1090              	ism330dhcx_xl_usr_offset_y_get:
 1091              		@ args = 0, pretend = 0, frame = 0
 1092              		@ frame_needed = 0, uses_anonymous_args = 0
 1093 0000 08B5     		push	{r3, lr}
 1094 0002 0A46     		mov	r2, r1
 1095 0004 0123     		movs	r3, #1
 1096 0006 7421     		movs	r1, #116
 1097 0008 FFF7FEFF 		bl	ism330dhcx_read_reg
ARM GAS  C:\Temp\cclPUGyV.s 			page 19


 1098 000c 08BD     		pop	{r3, pc}
 1100              		.section	.text.ism330dhcx_xl_usr_offset_z_set,"ax",%progbits
 1101              		.align	1
 1102              		.global	ism330dhcx_xl_usr_offset_z_set
 1103              		.syntax unified
 1104              		.thumb
 1105              		.thumb_func
 1107              	ism330dhcx_xl_usr_offset_z_set:
 1108              		@ args = 0, pretend = 0, frame = 0
 1109              		@ frame_needed = 0, uses_anonymous_args = 0
 1110 0000 08B5     		push	{r3, lr}
 1111 0002 0A46     		mov	r2, r1
 1112 0004 0123     		movs	r3, #1
 1113 0006 7521     		movs	r1, #117
 1114 0008 FFF7FEFF 		bl	ism330dhcx_write_reg
 1115 000c 08BD     		pop	{r3, pc}
 1117              		.section	.text.ism330dhcx_xl_usr_offset_z_get,"ax",%progbits
 1118              		.align	1
 1119              		.global	ism330dhcx_xl_usr_offset_z_get
 1120              		.syntax unified
 1121              		.thumb
 1122              		.thumb_func
 1124              	ism330dhcx_xl_usr_offset_z_get:
 1125              		@ args = 0, pretend = 0, frame = 0
 1126              		@ frame_needed = 0, uses_anonymous_args = 0
 1127 0000 08B5     		push	{r3, lr}
 1128 0002 0A46     		mov	r2, r1
 1129 0004 0123     		movs	r3, #1
 1130 0006 7521     		movs	r1, #117
 1131 0008 FFF7FEFF 		bl	ism330dhcx_read_reg
 1132 000c 08BD     		pop	{r3, pc}
 1134              		.section	.text.ism330dhcx_xl_usr_offset_set,"ax",%progbits
 1135              		.align	1
 1136              		.global	ism330dhcx_xl_usr_offset_set
 1137              		.syntax unified
 1138              		.thumb
 1139              		.thumb_func
 1141              	ism330dhcx_xl_usr_offset_set:
 1142              		@ args = 0, pretend = 0, frame = 8
 1143              		@ frame_needed = 0, uses_anonymous_args = 0
 1144 0000 30B5     		push	{r4, r5, lr}
 1145 0002 83B0     		sub	sp, sp, #12
 1146 0004 0446     		mov	r4, r0
 1147 0006 0D46     		mov	r5, r1
 1148 0008 0123     		movs	r3, #1
 1149 000a 01AA     		add	r2, sp, #4
 1150 000c 1621     		movs	r1, #22
 1151 000e FFF7FEFF 		bl	ism330dhcx_read_reg
 1152 0012 08B1     		cbz	r0, .L172
 1153              	.L169:
 1154 0014 03B0     		add	sp, sp, #12
 1155              		@ sp needed
 1156 0016 30BD     		pop	{r4, r5, pc}
 1157              	.L172:
 1158 0018 9DF80430 		ldrb	r3, [sp, #4]	@ zero_extendqisi2
 1159 001c 65F34103 		bfi	r3, r5, #1, #1
 1160 0020 8DF80430 		strb	r3, [sp, #4]
ARM GAS  C:\Temp\cclPUGyV.s 			page 20


 1161 0024 0123     		movs	r3, #1
 1162 0026 01AA     		add	r2, sp, #4
 1163 0028 1621     		movs	r1, #22
 1164 002a 2046     		mov	r0, r4
 1165 002c FFF7FEFF 		bl	ism330dhcx_write_reg
 1166 0030 F0E7     		b	.L169
 1168              		.section	.text.ism330dhcx_xl_usr_offset_get,"ax",%progbits
 1169              		.align	1
 1170              		.global	ism330dhcx_xl_usr_offset_get
 1171              		.syntax unified
 1172              		.thumb
 1173              		.thumb_func
 1175              	ism330dhcx_xl_usr_offset_get:
 1176              		@ args = 0, pretend = 0, frame = 8
 1177              		@ frame_needed = 0, uses_anonymous_args = 0
 1178 0000 10B5     		push	{r4, lr}
 1179 0002 82B0     		sub	sp, sp, #8
 1180 0004 0C46     		mov	r4, r1
 1181 0006 0123     		movs	r3, #1
 1182 0008 01AA     		add	r2, sp, #4
 1183 000a 1621     		movs	r1, #22
 1184 000c FFF7FEFF 		bl	ism330dhcx_read_reg
 1185 0010 9DF80430 		ldrb	r3, [sp, #4]	@ zero_extendqisi2
 1186 0014 C3F34003 		ubfx	r3, r3, #1, #1
 1187 0018 2370     		strb	r3, [r4]
 1188 001a 02B0     		add	sp, sp, #8
 1189              		@ sp needed
 1190 001c 10BD     		pop	{r4, pc}
 1192              		.section	.text.ism330dhcx_timestamp_rst,"ax",%progbits
 1193              		.align	1
 1194              		.global	ism330dhcx_timestamp_rst
 1195              		.syntax unified
 1196              		.thumb
 1197              		.thumb_func
 1199              	ism330dhcx_timestamp_rst:
 1200              		@ args = 0, pretend = 0, frame = 8
 1201              		@ frame_needed = 0, uses_anonymous_args = 0
 1202 0000 00B5     		push	{lr}
 1203 0002 83B0     		sub	sp, sp, #12
 1204 0004 AA23     		movs	r3, #170
 1205 0006 8DF80730 		strb	r3, [sp, #7]
 1206 000a 0123     		movs	r3, #1
 1207 000c 0DF10702 		add	r2, sp, #7
 1208 0010 4221     		movs	r1, #66
 1209 0012 FFF7FEFF 		bl	ism330dhcx_write_reg
 1210 0016 03B0     		add	sp, sp, #12
 1211              		@ sp needed
 1212 0018 5DF804FB 		ldr	pc, [sp], #4
 1214              		.section	.text.ism330dhcx_timestamp_set,"ax",%progbits
 1215              		.align	1
 1216              		.global	ism330dhcx_timestamp_set
 1217              		.syntax unified
 1218              		.thumb
 1219              		.thumb_func
 1221              	ism330dhcx_timestamp_set:
 1222              		@ args = 0, pretend = 0, frame = 8
 1223              		@ frame_needed = 0, uses_anonymous_args = 0
ARM GAS  C:\Temp\cclPUGyV.s 			page 21


 1224 0000 30B5     		push	{r4, r5, lr}
 1225 0002 83B0     		sub	sp, sp, #12
 1226 0004 0446     		mov	r4, r0
 1227 0006 0D46     		mov	r5, r1
 1228 0008 0123     		movs	r3, #1
 1229 000a 01AA     		add	r2, sp, #4
 1230 000c 1921     		movs	r1, #25
 1231 000e FFF7FEFF 		bl	ism330dhcx_read_reg
 1232 0012 08B1     		cbz	r0, .L180
 1233              	.L177:
 1234 0014 03B0     		add	sp, sp, #12
 1235              		@ sp needed
 1236 0016 30BD     		pop	{r4, r5, pc}
 1237              	.L180:
 1238 0018 9DF80430 		ldrb	r3, [sp, #4]	@ zero_extendqisi2
 1239 001c 65F34513 		bfi	r3, r5, #5, #1
 1240 0020 8DF80430 		strb	r3, [sp, #4]
 1241 0024 0123     		movs	r3, #1
 1242 0026 01AA     		add	r2, sp, #4
 1243 0028 1921     		movs	r1, #25
 1244 002a 2046     		mov	r0, r4
 1245 002c FFF7FEFF 		bl	ism330dhcx_write_reg
 1246 0030 F0E7     		b	.L177
 1248              		.section	.text.ism330dhcx_timestamp_get,"ax",%progbits
 1249              		.align	1
 1250              		.global	ism330dhcx_timestamp_get
 1251              		.syntax unified
 1252              		.thumb
 1253              		.thumb_func
 1255              	ism330dhcx_timestamp_get:
 1256              		@ args = 0, pretend = 0, frame = 8
 1257              		@ frame_needed = 0, uses_anonymous_args = 0
 1258 0000 10B5     		push	{r4, lr}
 1259 0002 82B0     		sub	sp, sp, #8
 1260 0004 0C46     		mov	r4, r1
 1261 0006 0123     		movs	r3, #1
 1262 0008 01AA     		add	r2, sp, #4
 1263 000a 1921     		movs	r1, #25
 1264 000c FFF7FEFF 		bl	ism330dhcx_read_reg
 1265 0010 9DF80430 		ldrb	r3, [sp, #4]	@ zero_extendqisi2
 1266 0014 C3F34013 		ubfx	r3, r3, #5, #1
 1267 0018 2370     		strb	r3, [r4]
 1268 001a 02B0     		add	sp, sp, #8
 1269              		@ sp needed
 1270 001c 10BD     		pop	{r4, pc}
 1272              		.section	.text.ism330dhcx_timestamp_raw_get,"ax",%progbits
 1273              		.align	1
 1274              		.global	ism330dhcx_timestamp_raw_get
 1275              		.syntax unified
 1276              		.thumb
 1277              		.thumb_func
 1279              	ism330dhcx_timestamp_raw_get:
 1280              		@ args = 0, pretend = 0, frame = 8
 1281              		@ frame_needed = 0, uses_anonymous_args = 0
 1282 0000 10B5     		push	{r4, lr}
 1283 0002 82B0     		sub	sp, sp, #8
 1284 0004 0C46     		mov	r4, r1
ARM GAS  C:\Temp\cclPUGyV.s 			page 22


 1285 0006 0423     		movs	r3, #4
 1286 0008 0DEB0302 		add	r2, sp, r3
 1287 000c 4021     		movs	r1, #64
 1288 000e FFF7FEFF 		bl	ism330dhcx_read_reg
 1289 0012 9DF80730 		ldrb	r3, [sp, #7]	@ zero_extendqisi2
 1290 0016 2360     		str	r3, [r4]
 1291 0018 9DF80620 		ldrb	r2, [sp, #6]	@ zero_extendqisi2
 1292 001c 02EB0322 		add	r2, r2, r3, lsl #8
 1293 0020 2260     		str	r2, [r4]
 1294 0022 9DF80530 		ldrb	r3, [sp, #5]	@ zero_extendqisi2
 1295 0026 03EB0223 		add	r3, r3, r2, lsl #8
 1296 002a 2360     		str	r3, [r4]
 1297 002c 9DF80420 		ldrb	r2, [sp, #4]	@ zero_extendqisi2
 1298 0030 02EB0323 		add	r3, r2, r3, lsl #8
 1299 0034 2360     		str	r3, [r4]
 1300 0036 02B0     		add	sp, sp, #8
 1301              		@ sp needed
 1302 0038 10BD     		pop	{r4, pc}
 1304              		.section	.text.ism330dhcx_rounding_mode_set,"ax",%progbits
 1305              		.align	1
 1306              		.global	ism330dhcx_rounding_mode_set
 1307              		.syntax unified
 1308              		.thumb
 1309              		.thumb_func
 1311              	ism330dhcx_rounding_mode_set:
 1312              		@ args = 0, pretend = 0, frame = 8
 1313              		@ frame_needed = 0, uses_anonymous_args = 0
 1314 0000 30B5     		push	{r4, r5, lr}
 1315 0002 83B0     		sub	sp, sp, #12
 1316 0004 0446     		mov	r4, r0
 1317 0006 0D46     		mov	r5, r1
 1318 0008 0123     		movs	r3, #1
 1319 000a 01AA     		add	r2, sp, #4
 1320 000c 1421     		movs	r1, #20
 1321 000e FFF7FEFF 		bl	ism330dhcx_read_reg
 1322 0012 08B1     		cbz	r0, .L188
 1323              	.L185:
 1324 0014 03B0     		add	sp, sp, #12
 1325              		@ sp needed
 1326 0016 30BD     		pop	{r4, r5, pc}
 1327              	.L188:
 1328 0018 9DF80430 		ldrb	r3, [sp, #4]	@ zero_extendqisi2
 1329 001c 65F34613 		bfi	r3, r5, #5, #2
 1330 0020 8DF80430 		strb	r3, [sp, #4]
 1331 0024 0123     		movs	r3, #1
 1332 0026 01AA     		add	r2, sp, #4
 1333 0028 1421     		movs	r1, #20
 1334 002a 2046     		mov	r0, r4
 1335 002c FFF7FEFF 		bl	ism330dhcx_write_reg
 1336 0030 F0E7     		b	.L185
 1338              		.section	.text.ism330dhcx_rounding_mode_get,"ax",%progbits
 1339              		.align	1
 1340              		.global	ism330dhcx_rounding_mode_get
 1341              		.syntax unified
 1342              		.thumb
 1343              		.thumb_func
 1345              	ism330dhcx_rounding_mode_get:
ARM GAS  C:\Temp\cclPUGyV.s 			page 23


 1346              		@ args = 0, pretend = 0, frame = 8
 1347              		@ frame_needed = 0, uses_anonymous_args = 0
 1348 0000 10B5     		push	{r4, lr}
 1349 0002 82B0     		sub	sp, sp, #8
 1350 0004 0C46     		mov	r4, r1
 1351 0006 0123     		movs	r3, #1
 1352 0008 01AA     		add	r2, sp, #4
 1353 000a 1421     		movs	r1, #20
 1354 000c FFF7FEFF 		bl	ism330dhcx_read_reg
 1355 0010 9DF80430 		ldrb	r3, [sp, #4]	@ zero_extendqisi2
 1356 0014 C3F34113 		ubfx	r3, r3, #5, #2
 1357 0018 032B     		cmp	r3, #3
 1358 001a 10D8     		bhi	.L190
 1359 001c DFE803F0 		tbb	[pc, r3]
 1360              	.L192:
 1361 0020 02       		.byte	(.L195-.L192)/2
 1362 0021 06       		.byte	(.L194-.L192)/2
 1363 0022 09       		.byte	(.L193-.L192)/2
 1364 0023 0C       		.byte	(.L191-.L192)/2
 1365              		.p2align 1
 1366              	.L195:
 1367 0024 0023     		movs	r3, #0
 1368 0026 2370     		strb	r3, [r4]
 1369              	.L189:
 1370 0028 02B0     		add	sp, sp, #8
 1371              		@ sp needed
 1372 002a 10BD     		pop	{r4, pc}
 1373              	.L194:
 1374 002c 0123     		movs	r3, #1
 1375 002e 2370     		strb	r3, [r4]
 1376 0030 FAE7     		b	.L189
 1377              	.L193:
 1378 0032 0223     		movs	r3, #2
 1379 0034 2370     		strb	r3, [r4]
 1380 0036 F7E7     		b	.L189
 1381              	.L191:
 1382 0038 0323     		movs	r3, #3
 1383 003a 2370     		strb	r3, [r4]
 1384 003c F4E7     		b	.L189
 1385              	.L190:
 1386 003e 0023     		movs	r3, #0
 1387 0040 2370     		strb	r3, [r4]
 1388 0042 F1E7     		b	.L189
 1390              		.section	.text.ism330dhcx_temperature_raw_get,"ax",%progbits
 1391              		.align	1
 1392              		.global	ism330dhcx_temperature_raw_get
 1393              		.syntax unified
 1394              		.thumb
 1395              		.thumb_func
 1397              	ism330dhcx_temperature_raw_get:
 1398              		@ args = 0, pretend = 0, frame = 8
 1399              		@ frame_needed = 0, uses_anonymous_args = 0
 1400 0000 10B5     		push	{r4, lr}
 1401 0002 82B0     		sub	sp, sp, #8
 1402 0004 0C46     		mov	r4, r1
 1403 0006 0223     		movs	r3, #2
 1404 0008 01AA     		add	r2, sp, #4
ARM GAS  C:\Temp\cclPUGyV.s 			page 24


 1405 000a 2021     		movs	r1, #32
 1406 000c FFF7FEFF 		bl	ism330dhcx_read_reg
 1407 0010 9DF80520 		ldrb	r2, [sp, #5]	@ zero_extendqisi2
 1408 0014 2280     		strh	r2, [r4]	@ movhi
 1409 0016 9DF80430 		ldrb	r3, [sp, #4]	@ zero_extendqisi2
 1410 001a 03EB0223 		add	r3, r3, r2, lsl #8
 1411 001e 2380     		strh	r3, [r4]	@ movhi
 1412 0020 02B0     		add	sp, sp, #8
 1413              		@ sp needed
 1414 0022 10BD     		pop	{r4, pc}
 1416              		.section	.text.ism330dhcx_angular_rate_raw_get,"ax",%progbits
 1417              		.align	1
 1418              		.global	ism330dhcx_angular_rate_raw_get
 1419              		.syntax unified
 1420              		.thumb
 1421              		.thumb_func
 1423              	ism330dhcx_angular_rate_raw_get:
 1424              		@ args = 0, pretend = 0, frame = 8
 1425              		@ frame_needed = 0, uses_anonymous_args = 0
 1426 0000 10B5     		push	{r4, lr}
 1427 0002 82B0     		sub	sp, sp, #8
 1428 0004 0C46     		mov	r4, r1
 1429 0006 0623     		movs	r3, #6
 1430 0008 6A46     		mov	r2, sp
 1431 000a 2221     		movs	r1, #34
 1432 000c FFF7FEFF 		bl	ism330dhcx_read_reg
 1433 0010 9DF80120 		ldrb	r2, [sp, #1]	@ zero_extendqisi2
 1434 0014 2280     		strh	r2, [r4]	@ movhi
 1435 0016 9DF80030 		ldrb	r3, [sp]	@ zero_extendqisi2
 1436 001a 03EB0223 		add	r3, r3, r2, lsl #8
 1437 001e 2380     		strh	r3, [r4]	@ movhi
 1438 0020 9DF80320 		ldrb	r2, [sp, #3]	@ zero_extendqisi2
 1439 0024 6280     		strh	r2, [r4, #2]	@ movhi
 1440 0026 9DF80230 		ldrb	r3, [sp, #2]	@ zero_extendqisi2
 1441 002a 03EB0223 		add	r3, r3, r2, lsl #8
 1442 002e 6380     		strh	r3, [r4, #2]	@ movhi
 1443 0030 9DF80520 		ldrb	r2, [sp, #5]	@ zero_extendqisi2
 1444 0034 A280     		strh	r2, [r4, #4]	@ movhi
 1445 0036 9DF80430 		ldrb	r3, [sp, #4]	@ zero_extendqisi2
 1446 003a 03EB0223 		add	r3, r3, r2, lsl #8
 1447 003e A380     		strh	r3, [r4, #4]	@ movhi
 1448 0040 02B0     		add	sp, sp, #8
 1449              		@ sp needed
 1450 0042 10BD     		pop	{r4, pc}
 1452              		.section	.text.ism330dhcx_acceleration_raw_get,"ax",%progbits
 1453              		.align	1
 1454              		.global	ism330dhcx_acceleration_raw_get
 1455              		.syntax unified
 1456              		.thumb
 1457              		.thumb_func
 1459              	ism330dhcx_acceleration_raw_get:
 1460              		@ args = 0, pretend = 0, frame = 8
 1461              		@ frame_needed = 0, uses_anonymous_args = 0
 1462 0000 10B5     		push	{r4, lr}
 1463 0002 82B0     		sub	sp, sp, #8
 1464 0004 0C46     		mov	r4, r1
 1465 0006 0623     		movs	r3, #6
ARM GAS  C:\Temp\cclPUGyV.s 			page 25


 1466 0008 6A46     		mov	r2, sp
 1467 000a 2821     		movs	r1, #40
 1468 000c FFF7FEFF 		bl	ism330dhcx_read_reg
 1469 0010 9DF80120 		ldrb	r2, [sp, #1]	@ zero_extendqisi2
 1470 0014 2280     		strh	r2, [r4]	@ movhi
 1471 0016 9DF80030 		ldrb	r3, [sp]	@ zero_extendqisi2
 1472 001a 03EB0223 		add	r3, r3, r2, lsl #8
 1473 001e 2380     		strh	r3, [r4]	@ movhi
 1474 0020 9DF80320 		ldrb	r2, [sp, #3]	@ zero_extendqisi2
 1475 0024 6280     		strh	r2, [r4, #2]	@ movhi
 1476 0026 9DF80230 		ldrb	r3, [sp, #2]	@ zero_extendqisi2
 1477 002a 03EB0223 		add	r3, r3, r2, lsl #8
 1478 002e 6380     		strh	r3, [r4, #2]	@ movhi
 1479 0030 9DF80520 		ldrb	r2, [sp, #5]	@ zero_extendqisi2
 1480 0034 A280     		strh	r2, [r4, #4]	@ movhi
 1481 0036 9DF80430 		ldrb	r3, [sp, #4]	@ zero_extendqisi2
 1482 003a 03EB0223 		add	r3, r3, r2, lsl #8
 1483 003e A380     		strh	r3, [r4, #4]	@ movhi
 1484 0040 02B0     		add	sp, sp, #8
 1485              		@ sp needed
 1486 0042 10BD     		pop	{r4, pc}
 1488              		.section	.text.ism330dhcx_fifo_out_raw_get,"ax",%progbits
 1489              		.align	1
 1490              		.global	ism330dhcx_fifo_out_raw_get
 1491              		.syntax unified
 1492              		.thumb
 1493              		.thumb_func
 1495              	ism330dhcx_fifo_out_raw_get:
 1496              		@ args = 0, pretend = 0, frame = 0
 1497              		@ frame_needed = 0, uses_anonymous_args = 0
 1498 0000 08B5     		push	{r3, lr}
 1499 0002 0A46     		mov	r2, r1
 1500 0004 0623     		movs	r3, #6
 1501 0006 7921     		movs	r1, #121
 1502 0008 FFF7FEFF 		bl	ism330dhcx_read_reg
 1503 000c 08BD     		pop	{r3, pc}
 1505              		.section	.text.ism330dhcx_device_conf_set,"ax",%progbits
 1506              		.align	1
 1507              		.global	ism330dhcx_device_conf_set
 1508              		.syntax unified
 1509              		.thumb
 1510              		.thumb_func
 1512              	ism330dhcx_device_conf_set:
 1513              		@ args = 0, pretend = 0, frame = 8
 1514              		@ frame_needed = 0, uses_anonymous_args = 0
 1515 0000 30B5     		push	{r4, r5, lr}
 1516 0002 83B0     		sub	sp, sp, #12
 1517 0004 0446     		mov	r4, r0
 1518 0006 0D46     		mov	r5, r1
 1519 0008 0123     		movs	r3, #1
 1520 000a 01AA     		add	r2, sp, #4
 1521 000c 1821     		movs	r1, #24
 1522 000e FFF7FEFF 		bl	ism330dhcx_read_reg
 1523 0012 08B1     		cbz	r0, .L209
 1524              	.L206:
 1525 0014 03B0     		add	sp, sp, #12
 1526              		@ sp needed
ARM GAS  C:\Temp\cclPUGyV.s 			page 26


 1527 0016 30BD     		pop	{r4, r5, pc}
 1528              	.L209:
 1529 0018 9DF80430 		ldrb	r3, [sp, #4]	@ zero_extendqisi2
 1530 001c 65F34103 		bfi	r3, r5, #1, #1
 1531 0020 8DF80430 		strb	r3, [sp, #4]
 1532 0024 0123     		movs	r3, #1
 1533 0026 01AA     		add	r2, sp, #4
 1534 0028 1821     		movs	r1, #24
 1535 002a 2046     		mov	r0, r4
 1536 002c FFF7FEFF 		bl	ism330dhcx_write_reg
 1537 0030 F0E7     		b	.L206
 1539              		.section	.text.ism330dhcx_device_conf_get,"ax",%progbits
 1540              		.align	1
 1541              		.global	ism330dhcx_device_conf_get
 1542              		.syntax unified
 1543              		.thumb
 1544              		.thumb_func
 1546              	ism330dhcx_device_conf_get:
 1547              		@ args = 0, pretend = 0, frame = 8
 1548              		@ frame_needed = 0, uses_anonymous_args = 0
 1549 0000 10B5     		push	{r4, lr}
 1550 0002 82B0     		sub	sp, sp, #8
 1551 0004 0C46     		mov	r4, r1
 1552 0006 0123     		movs	r3, #1
 1553 0008 01AA     		add	r2, sp, #4
 1554 000a 1821     		movs	r1, #24
 1555 000c FFF7FEFF 		bl	ism330dhcx_read_reg
 1556 0010 9DF80430 		ldrb	r3, [sp, #4]	@ zero_extendqisi2
 1557 0014 C3F34003 		ubfx	r3, r3, #1, #1
 1558 0018 2370     		strb	r3, [r4]
 1559 001a 02B0     		add	sp, sp, #8
 1560              		@ sp needed
 1561 001c 10BD     		pop	{r4, pc}
 1563              		.section	.text.ism330dhcx_odr_cal_reg_set,"ax",%progbits
 1564              		.align	1
 1565              		.global	ism330dhcx_odr_cal_reg_set
 1566              		.syntax unified
 1567              		.thumb
 1568              		.thumb_func
 1570              	ism330dhcx_odr_cal_reg_set:
 1571              		@ args = 0, pretend = 0, frame = 8
 1572              		@ frame_needed = 0, uses_anonymous_args = 0
 1573 0000 30B5     		push	{r4, r5, lr}
 1574 0002 83B0     		sub	sp, sp, #12
 1575 0004 0446     		mov	r4, r0
 1576 0006 0D46     		mov	r5, r1
 1577 0008 0123     		movs	r3, #1
 1578 000a 01AA     		add	r2, sp, #4
 1579 000c 6321     		movs	r1, #99
 1580 000e FFF7FEFF 		bl	ism330dhcx_read_reg
 1581 0012 08B1     		cbz	r0, .L215
 1582              	.L212:
 1583 0014 03B0     		add	sp, sp, #12
 1584              		@ sp needed
 1585 0016 30BD     		pop	{r4, r5, pc}
 1586              	.L215:
 1587 0018 8DF80450 		strb	r5, [sp, #4]
ARM GAS  C:\Temp\cclPUGyV.s 			page 27


 1588 001c 0123     		movs	r3, #1
 1589 001e 01AA     		add	r2, sp, #4
 1590 0020 6321     		movs	r1, #99
 1591 0022 2046     		mov	r0, r4
 1592 0024 FFF7FEFF 		bl	ism330dhcx_write_reg
 1593 0028 F4E7     		b	.L212
 1595              		.section	.text.ism330dhcx_odr_cal_reg_get,"ax",%progbits
 1596              		.align	1
 1597              		.global	ism330dhcx_odr_cal_reg_get
 1598              		.syntax unified
 1599              		.thumb
 1600              		.thumb_func
 1602              	ism330dhcx_odr_cal_reg_get:
 1603              		@ args = 0, pretend = 0, frame = 8
 1604              		@ frame_needed = 0, uses_anonymous_args = 0
 1605 0000 10B5     		push	{r4, lr}
 1606 0002 82B0     		sub	sp, sp, #8
 1607 0004 0C46     		mov	r4, r1
 1608 0006 0123     		movs	r3, #1
 1609 0008 01AA     		add	r2, sp, #4
 1610 000a 6321     		movs	r1, #99
 1611 000c FFF7FEFF 		bl	ism330dhcx_read_reg
 1612 0010 9DF80430 		ldrb	r3, [sp, #4]	@ zero_extendqisi2
 1613 0014 2370     		strb	r3, [r4]
 1614 0016 02B0     		add	sp, sp, #8
 1615              		@ sp needed
 1616 0018 10BD     		pop	{r4, pc}
 1618              		.section	.text.ism330dhcx_mem_bank_set,"ax",%progbits
 1619              		.align	1
 1620              		.global	ism330dhcx_mem_bank_set
 1621              		.syntax unified
 1622              		.thumb
 1623              		.thumb_func
 1625              	ism330dhcx_mem_bank_set:
 1626              		@ args = 0, pretend = 0, frame = 8
 1627              		@ frame_needed = 0, uses_anonymous_args = 0
 1628 0000 30B5     		push	{r4, r5, lr}
 1629 0002 83B0     		sub	sp, sp, #12
 1630 0004 0446     		mov	r4, r0
 1631 0006 0D46     		mov	r5, r1
 1632 0008 0123     		movs	r3, #1
 1633 000a 01AA     		add	r2, sp, #4
 1634 000c 1946     		mov	r1, r3
 1635 000e FFF7FEFF 		bl	ism330dhcx_read_reg
 1636 0012 08B1     		cbz	r0, .L221
 1637              	.L218:
 1638 0014 03B0     		add	sp, sp, #12
 1639              		@ sp needed
 1640 0016 30BD     		pop	{r4, r5, pc}
 1641              	.L221:
 1642 0018 9DF80430 		ldrb	r3, [sp, #4]	@ zero_extendqisi2
 1643 001c 65F38713 		bfi	r3, r5, #6, #2
 1644 0020 8DF80430 		strb	r3, [sp, #4]
 1645 0024 0123     		movs	r3, #1
 1646 0026 01AA     		add	r2, sp, #4
 1647 0028 1946     		mov	r1, r3
 1648 002a 2046     		mov	r0, r4
ARM GAS  C:\Temp\cclPUGyV.s 			page 28


 1649 002c FFF7FEFF 		bl	ism330dhcx_write_reg
 1650 0030 F0E7     		b	.L218
 1652              		.section	.text.ism330dhcx_all_sources_get,"ax",%progbits
 1653              		.align	1
 1654              		.global	ism330dhcx_all_sources_get
 1655              		.syntax unified
 1656              		.thumb
 1657              		.thumb_func
 1659              	ism330dhcx_all_sources_get:
 1660              		@ args = 0, pretend = 0, frame = 0
 1661              		@ frame_needed = 0, uses_anonymous_args = 0
 1662 0000 38B5     		push	{r3, r4, r5, lr}
 1663 0002 0546     		mov	r5, r0
 1664 0004 0C46     		mov	r4, r1
 1665 0006 0123     		movs	r3, #1
 1666 0008 0A46     		mov	r2, r1
 1667 000a 1A21     		movs	r1, #26
 1668 000c FFF7FEFF 		bl	ism330dhcx_read_reg
 1669 0010 0346     		mov	r3, r0
 1670 0012 10B1     		cbz	r0, .L226
 1671              	.L223:
 1672 0014 93B1     		cbz	r3, .L227
 1673              	.L222:
 1674 0016 1846     		mov	r0, r3
 1675 0018 38BD     		pop	{r3, r4, r5, pc}
 1676              	.L226:
 1677 001a 0123     		movs	r3, #1
 1678 001c E218     		adds	r2, r4, r3
 1679 001e 1B21     		movs	r1, #27
 1680 0020 2846     		mov	r0, r5
 1681 0022 FFF7FEFF 		bl	ism330dhcx_read_reg
 1682 0026 0346     		mov	r3, r0
 1683 0028 0028     		cmp	r0, #0
 1684 002a F4D1     		bne	.L222
 1685 002c 0123     		movs	r3, #1
 1686 002e A21C     		adds	r2, r4, #2
 1687 0030 1C21     		movs	r1, #28
 1688 0032 2846     		mov	r0, r5
 1689 0034 FFF7FEFF 		bl	ism330dhcx_read_reg
 1690 0038 0346     		mov	r3, r0
 1691 003a EBE7     		b	.L223
 1692              	.L227:
 1693 003c 0123     		movs	r3, #1
 1694 003e E21C     		adds	r2, r4, #3
 1695 0040 1D21     		movs	r1, #29
 1696 0042 2846     		mov	r0, r5
 1697 0044 FFF7FEFF 		bl	ism330dhcx_read_reg
 1698 0048 0346     		mov	r3, r0
 1699 004a 0028     		cmp	r0, #0
 1700 004c E3D1     		bne	.L222
 1701 004e 0123     		movs	r3, #1
 1702 0050 221D     		adds	r2, r4, #4
 1703 0052 1E21     		movs	r1, #30
 1704 0054 2846     		mov	r0, r5
 1705 0056 FFF7FEFF 		bl	ism330dhcx_read_reg
 1706 005a 0346     		mov	r3, r0
 1707 005c 0028     		cmp	r0, #0
ARM GAS  C:\Temp\cclPUGyV.s 			page 29


 1708 005e DAD1     		bne	.L222
 1709 0060 0221     		movs	r1, #2
 1710 0062 2846     		mov	r0, r5
 1711 0064 FFF7FEFF 		bl	ism330dhcx_mem_bank_set
 1712 0068 0346     		mov	r3, r0
 1713 006a 0028     		cmp	r0, #0
 1714 006c D3D1     		bne	.L222
 1715 006e 0123     		movs	r3, #1
 1716 0070 621D     		adds	r2, r4, #5
 1717 0072 1221     		movs	r1, #18
 1718 0074 2846     		mov	r0, r5
 1719 0076 FFF7FEFF 		bl	ism330dhcx_read_reg
 1720 007a 0346     		mov	r3, r0
 1721 007c 0028     		cmp	r0, #0
 1722 007e CAD1     		bne	.L222
 1723 0080 0123     		movs	r3, #1
 1724 0082 A21D     		adds	r2, r4, #6
 1725 0084 1321     		movs	r1, #19
 1726 0086 2846     		mov	r0, r5
 1727 0088 FFF7FEFF 		bl	ism330dhcx_read_reg
 1728 008c 0346     		mov	r3, r0
 1729 008e 0028     		cmp	r0, #0
 1730 0090 C1D1     		bne	.L222
 1731 0092 0123     		movs	r3, #1
 1732 0094 E21D     		adds	r2, r4, #7
 1733 0096 1421     		movs	r1, #20
 1734 0098 2846     		mov	r0, r5
 1735 009a FFF7FEFF 		bl	ism330dhcx_read_reg
 1736 009e 0346     		mov	r3, r0
 1737 00a0 0028     		cmp	r0, #0
 1738 00a2 B8D1     		bne	.L222
 1739 00a4 0021     		movs	r1, #0
 1740 00a6 2846     		mov	r0, r5
 1741 00a8 FFF7FEFF 		bl	ism330dhcx_mem_bank_set
 1742 00ac 0346     		mov	r3, r0
 1743 00ae B2E7     		b	.L222
 1745              		.section	.text.ism330dhcx_number_of_steps_get,"ax",%progbits
 1746              		.align	1
 1747              		.global	ism330dhcx_number_of_steps_get
 1748              		.syntax unified
 1749              		.thumb
 1750              		.thumb_func
 1752              	ism330dhcx_number_of_steps_get:
 1753              		@ args = 0, pretend = 0, frame = 8
 1754              		@ frame_needed = 0, uses_anonymous_args = 0
 1755 0000 30B5     		push	{r4, r5, lr}
 1756 0002 83B0     		sub	sp, sp, #12
 1757 0004 0546     		mov	r5, r0
 1758 0006 0C46     		mov	r4, r1
 1759 0008 0221     		movs	r1, #2
 1760 000a FFF7FEFF 		bl	ism330dhcx_mem_bank_set
 1761 000e 08B1     		cbz	r0, .L231
 1762              	.L228:
 1763 0010 03B0     		add	sp, sp, #12
 1764              		@ sp needed
 1765 0012 30BD     		pop	{r4, r5, pc}
 1766              	.L231:
ARM GAS  C:\Temp\cclPUGyV.s 			page 30


 1767 0014 0223     		movs	r3, #2
 1768 0016 01AA     		add	r2, sp, #4
 1769 0018 6221     		movs	r1, #98
 1770 001a 2846     		mov	r0, r5
 1771 001c FFF7FEFF 		bl	ism330dhcx_read_reg
 1772 0020 9DF80510 		ldrb	r1, [sp, #5]	@ zero_extendqisi2
 1773 0024 2180     		strh	r1, [r4]	@ movhi
 1774 0026 9DF80430 		ldrb	r3, [sp, #4]	@ zero_extendqisi2
 1775 002a 03EB0123 		add	r3, r3, r1, lsl #8
 1776 002e 2380     		strh	r3, [r4]	@ movhi
 1777 0030 0028     		cmp	r0, #0
 1778 0032 EDD1     		bne	.L228
 1779 0034 0021     		movs	r1, #0
 1780 0036 2846     		mov	r0, r5
 1781 0038 FFF7FEFF 		bl	ism330dhcx_mem_bank_set
 1782 003c E8E7     		b	.L228
 1784              		.section	.text.ism330dhcx_steps_reset,"ax",%progbits
 1785              		.align	1
 1786              		.global	ism330dhcx_steps_reset
 1787              		.syntax unified
 1788              		.thumb
 1789              		.thumb_func
 1791              	ism330dhcx_steps_reset:
 1792              		@ args = 0, pretend = 0, frame = 8
 1793              		@ frame_needed = 0, uses_anonymous_args = 0
 1794 0000 10B5     		push	{r4, lr}
 1795 0002 82B0     		sub	sp, sp, #8
 1796 0004 0446     		mov	r4, r0
 1797 0006 0221     		movs	r1, #2
 1798 0008 FFF7FEFF 		bl	ism330dhcx_mem_bank_set
 1799 000c 0346     		mov	r3, r0
 1800 000e 18B1     		cbz	r0, .L236
 1801              	.L233:
 1802 0010 CBB1     		cbz	r3, .L237
 1803              	.L232:
 1804 0012 1846     		mov	r0, r3
 1805 0014 02B0     		add	sp, sp, #8
 1806              		@ sp needed
 1807 0016 10BD     		pop	{r4, pc}
 1808              	.L236:
 1809 0018 0123     		movs	r3, #1
 1810 001a 01AA     		add	r2, sp, #4
 1811 001c 6421     		movs	r1, #100
 1812 001e 2046     		mov	r0, r4
 1813 0020 FFF7FEFF 		bl	ism330dhcx_read_reg
 1814 0024 0346     		mov	r3, r0
 1815 0026 0028     		cmp	r0, #0
 1816 0028 F3D1     		bne	.L232
 1817 002a 9DF80430 		ldrb	r3, [sp, #4]	@ zero_extendqisi2
 1818 002e 43F08003 		orr	r3, r3, #128
 1819 0032 8DF80430 		strb	r3, [sp, #4]
 1820 0036 0123     		movs	r3, #1
 1821 0038 01AA     		add	r2, sp, #4
 1822 003a 6421     		movs	r1, #100
 1823 003c 2046     		mov	r0, r4
 1824 003e FFF7FEFF 		bl	ism330dhcx_write_reg
 1825 0042 0346     		mov	r3, r0
ARM GAS  C:\Temp\cclPUGyV.s 			page 31


 1826 0044 E4E7     		b	.L233
 1827              	.L237:
 1828 0046 0021     		movs	r1, #0
 1829 0048 2046     		mov	r0, r4
 1830 004a FFF7FEFF 		bl	ism330dhcx_mem_bank_set
 1831 004e 0346     		mov	r3, r0
 1832 0050 DFE7     		b	.L232
 1834              		.section	.text.ism330dhcx_mlc_out_get,"ax",%progbits
 1835              		.align	1
 1836              		.global	ism330dhcx_mlc_out_get
 1837              		.syntax unified
 1838              		.thumb
 1839              		.thumb_func
 1841              	ism330dhcx_mlc_out_get:
 1842              		@ args = 0, pretend = 0, frame = 0
 1843              		@ frame_needed = 0, uses_anonymous_args = 0
 1844 0000 38B5     		push	{r3, r4, r5, lr}
 1845 0002 0446     		mov	r4, r0
 1846 0004 0D46     		mov	r5, r1
 1847 0006 0221     		movs	r1, #2
 1848 0008 FFF7FEFF 		bl	ism330dhcx_mem_bank_set
 1849 000c 00B1     		cbz	r0, .L241
 1850              	.L238:
 1851 000e 38BD     		pop	{r3, r4, r5, pc}
 1852              	.L241:
 1853 0010 0823     		movs	r3, #8
 1854 0012 2A46     		mov	r2, r5
 1855 0014 7021     		movs	r1, #112
 1856 0016 2046     		mov	r0, r4
 1857 0018 FFF7FEFF 		bl	ism330dhcx_read_reg
 1858 001c 0028     		cmp	r0, #0
 1859 001e F6D1     		bne	.L238
 1860 0020 0021     		movs	r1, #0
 1861 0022 2046     		mov	r0, r4
 1862 0024 FFF7FEFF 		bl	ism330dhcx_mem_bank_set
 1863 0028 F1E7     		b	.L238
 1865              		.section	.text.ism330dhcx_mem_bank_get,"ax",%progbits
 1866              		.align	1
 1867              		.global	ism330dhcx_mem_bank_get
 1868              		.syntax unified
 1869              		.thumb
 1870              		.thumb_func
 1872              	ism330dhcx_mem_bank_get:
 1873              		@ args = 0, pretend = 0, frame = 8
 1874              		@ frame_needed = 0, uses_anonymous_args = 0
 1875 0000 10B5     		push	{r4, lr}
 1876 0002 82B0     		sub	sp, sp, #8
 1877 0004 0C46     		mov	r4, r1
 1878 0006 0123     		movs	r3, #1
 1879 0008 01AA     		add	r2, sp, #4
 1880 000a 1946     		mov	r1, r3
 1881 000c FFF7FEFF 		bl	ism330dhcx_read_reg
 1882 0010 9DF80430 		ldrb	r3, [sp, #4]	@ zero_extendqisi2
 1883 0014 9B09     		lsrs	r3, r3, #6
 1884 0016 012B     		cmp	r3, #1
 1885 0018 08D0     		beq	.L243
 1886 001a 022B     		cmp	r3, #2
ARM GAS  C:\Temp\cclPUGyV.s 			page 32


 1887 001c 09D0     		beq	.L244
 1888 001e 13B1     		cbz	r3, .L248
 1889 0020 0023     		movs	r3, #0
 1890 0022 2370     		strb	r3, [r4]
 1891 0024 00E0     		b	.L242
 1892              	.L248:
 1893 0026 2370     		strb	r3, [r4]
 1894              	.L242:
 1895 0028 02B0     		add	sp, sp, #8
 1896              		@ sp needed
 1897 002a 10BD     		pop	{r4, pc}
 1898              	.L243:
 1899 002c 0123     		movs	r3, #1
 1900 002e 2370     		strb	r3, [r4]
 1901 0030 FAE7     		b	.L242
 1902              	.L244:
 1903 0032 0223     		movs	r3, #2
 1904 0034 2370     		strb	r3, [r4]
 1905 0036 F7E7     		b	.L242
 1907              		.section	.text.ism330dhcx_ln_pg_write_byte,"ax",%progbits
 1908              		.align	1
 1909              		.global	ism330dhcx_ln_pg_write_byte
 1910              		.syntax unified
 1911              		.thumb
 1912              		.thumb_func
 1914              	ism330dhcx_ln_pg_write_byte:
 1915              		@ args = 0, pretend = 0, frame = 16
 1916              		@ frame_needed = 0, uses_anonymous_args = 0
 1917 0000 70B5     		push	{r4, r5, r6, lr}
 1918 0002 84B0     		sub	sp, sp, #16
 1919 0004 0646     		mov	r6, r0
 1920 0006 0D46     		mov	r5, r1
 1921 0008 1446     		mov	r4, r2
 1922 000a 0221     		movs	r1, #2
 1923 000c FFF7FEFF 		bl	ism330dhcx_mem_bank_set
 1924 0010 0346     		mov	r3, r0
 1925 0012 18B1     		cbz	r0, .L253
 1926              	.L250:
 1927 0014 D3B1     		cbz	r3, .L254
 1928              	.L249:
 1929 0016 1846     		mov	r0, r3
 1930 0018 04B0     		add	sp, sp, #16
 1931              		@ sp needed
 1932 001a 70BD     		pop	{r4, r5, r6, pc}
 1933              	.L253:
 1934 001c 0123     		movs	r3, #1
 1935 001e 03AA     		add	r2, sp, #12
 1936 0020 1721     		movs	r1, #23
 1937 0022 3046     		mov	r0, r6
 1938 0024 FFF7FEFF 		bl	ism330dhcx_read_reg
 1939 0028 0346     		mov	r3, r0
 1940 002a 0028     		cmp	r0, #0
 1941 002c F3D1     		bne	.L249
 1942 002e 9DF80C30 		ldrb	r3, [sp, #12]	@ zero_extendqisi2
 1943 0032 0222     		movs	r2, #2
 1944 0034 62F34613 		bfi	r3, r2, #5, #2
 1945 0038 8DF80C30 		strb	r3, [sp, #12]
ARM GAS  C:\Temp\cclPUGyV.s 			page 33


 1946 003c 0123     		movs	r3, #1
 1947 003e 03AA     		add	r2, sp, #12
 1948 0040 1721     		movs	r1, #23
 1949 0042 3046     		mov	r0, r6
 1950 0044 FFF7FEFF 		bl	ism330dhcx_write_reg
 1951 0048 0346     		mov	r3, r0
 1952 004a E3E7     		b	.L250
 1953              	.L254:
 1954 004c 0123     		movs	r3, #1
 1955 004e 02AA     		add	r2, sp, #8
 1956 0050 0221     		movs	r1, #2
 1957 0052 3046     		mov	r0, r6
 1958 0054 FFF7FEFF 		bl	ism330dhcx_read_reg
 1959 0058 0346     		mov	r3, r0
 1960 005a 0028     		cmp	r0, #0
 1961 005c DBD1     		bne	.L249
 1962 005e C5F30323 		ubfx	r3, r5, #8, #4
 1963 0062 9DF80820 		ldrb	r2, [sp, #8]	@ zero_extendqisi2
 1964 0066 63F30712 		bfi	r2, r3, #4, #4
 1965 006a 8DF80820 		strb	r2, [sp, #8]
 1966 006e D2B2     		uxtb	r2, r2
 1967 0070 0123     		movs	r3, #1
 1968 0072 63F30302 		bfi	r2, r3, #0, #4
 1969 0076 8DF80820 		strb	r2, [sp, #8]
 1970 007a 02AA     		add	r2, sp, #8
 1971 007c 0221     		movs	r1, #2
 1972 007e 3046     		mov	r0, r6
 1973 0080 FFF7FEFF 		bl	ism330dhcx_write_reg
 1974 0084 0346     		mov	r3, r0
 1975 0086 0028     		cmp	r0, #0
 1976 0088 C5D1     		bne	.L249
 1977 008a 8DF80450 		strb	r5, [sp, #4]
 1978 008e 0123     		movs	r3, #1
 1979 0090 01AA     		add	r2, sp, #4
 1980 0092 0821     		movs	r1, #8
 1981 0094 3046     		mov	r0, r6
 1982 0096 FFF7FEFF 		bl	ism330dhcx_write_reg
 1983 009a 0346     		mov	r3, r0
 1984 009c 0028     		cmp	r0, #0
 1985 009e BAD1     		bne	.L249
 1986 00a0 0123     		movs	r3, #1
 1987 00a2 2246     		mov	r2, r4
 1988 00a4 0921     		movs	r1, #9
 1989 00a6 3046     		mov	r0, r6
 1990 00a8 FFF7FEFF 		bl	ism330dhcx_write_reg
 1991 00ac 0346     		mov	r3, r0
 1992 00ae 0028     		cmp	r0, #0
 1993 00b0 B1D1     		bne	.L249
 1994 00b2 0123     		movs	r3, #1
 1995 00b4 03AA     		add	r2, sp, #12
 1996 00b6 1721     		movs	r1, #23
 1997 00b8 3046     		mov	r0, r6
 1998 00ba FFF7FEFF 		bl	ism330dhcx_read_reg
 1999 00be 0346     		mov	r3, r0
 2000 00c0 0028     		cmp	r0, #0
 2001 00c2 A8D1     		bne	.L249
 2002 00c4 9DF80C30 		ldrb	r3, [sp, #12]	@ zero_extendqisi2
ARM GAS  C:\Temp\cclPUGyV.s 			page 34


 2003 00c8 6FF34613 		bfc	r3, #5, #2
 2004 00cc 8DF80C30 		strb	r3, [sp, #12]
 2005 00d0 0123     		movs	r3, #1
 2006 00d2 03AA     		add	r2, sp, #12
 2007 00d4 1721     		movs	r1, #23
 2008 00d6 3046     		mov	r0, r6
 2009 00d8 FFF7FEFF 		bl	ism330dhcx_write_reg
 2010 00dc 0346     		mov	r3, r0
 2011 00de 0028     		cmp	r0, #0
 2012 00e0 99D1     		bne	.L249
 2013 00e2 0021     		movs	r1, #0
 2014 00e4 3046     		mov	r0, r6
 2015 00e6 FFF7FEFF 		bl	ism330dhcx_mem_bank_set
 2016 00ea 0346     		mov	r3, r0
 2017 00ec 93E7     		b	.L249
 2019              		.section	.text.ism330dhcx_ln_pg_write,"ax",%progbits
 2020              		.align	1
 2021              		.global	ism330dhcx_ln_pg_write
 2022              		.syntax unified
 2023              		.thumb
 2024              		.thumb_func
 2026              	ism330dhcx_ln_pg_write:
 2027              		@ args = 0, pretend = 0, frame = 16
 2028              		@ frame_needed = 0, uses_anonymous_args = 0
 2029 0000 2DE9F043 		push	{r4, r5, r6, r7, r8, r9, lr}
 2030 0004 85B0     		sub	sp, sp, #20
 2031 0006 0746     		mov	r7, r0
 2032 0008 9046     		mov	r8, r2
 2033 000a 1E46     		mov	r6, r3
 2034 000c 0C0A     		lsrs	r4, r1, #8
 2035 000e C1F30329 		ubfx	r9, r1, #8, #4
 2036 0012 CDB2     		uxtb	r5, r1
 2037 0014 0221     		movs	r1, #2
 2038 0016 FFF7FEFF 		bl	ism330dhcx_mem_bank_set
 2039 001a 0146     		mov	r1, r0
 2040 001c 10B1     		cbz	r0, .L265
 2041              	.L256:
 2042 001e C9B1     		cbz	r1, .L266
 2043              	.L257:
 2044 0020 0024     		movs	r4, #0
 2045 0022 43E0     		b	.L258
 2046              	.L265:
 2047 0024 0123     		movs	r3, #1
 2048 0026 03AA     		add	r2, sp, #12
 2049 0028 1721     		movs	r1, #23
 2050 002a 3846     		mov	r0, r7
 2051 002c FFF7FEFF 		bl	ism330dhcx_read_reg
 2052 0030 0146     		mov	r1, r0
 2053 0032 0028     		cmp	r0, #0
 2054 0034 F4D1     		bne	.L257
 2055 0036 9DF80C30 		ldrb	r3, [sp, #12]	@ zero_extendqisi2
 2056 003a 0222     		movs	r2, #2
 2057 003c 62F34613 		bfi	r3, r2, #5, #2
 2058 0040 8DF80C30 		strb	r3, [sp, #12]
 2059 0044 0123     		movs	r3, #1
 2060 0046 03AA     		add	r2, sp, #12
 2061 0048 1721     		movs	r1, #23
ARM GAS  C:\Temp\cclPUGyV.s 			page 35


 2062 004a 3846     		mov	r0, r7
 2063 004c FFF7FEFF 		bl	ism330dhcx_write_reg
 2064 0050 0146     		mov	r1, r0
 2065 0052 E4E7     		b	.L256
 2066              	.L266:
 2067 0054 0123     		movs	r3, #1
 2068 0056 02AA     		add	r2, sp, #8
 2069 0058 0221     		movs	r1, #2
 2070 005a 3846     		mov	r0, r7
 2071 005c FFF7FEFF 		bl	ism330dhcx_read_reg
 2072 0060 0146     		mov	r1, r0
 2073 0062 0028     		cmp	r0, #0
 2074 0064 DCD1     		bne	.L257
 2075 0066 9DF80830 		ldrb	r3, [sp, #8]	@ zero_extendqisi2
 2076 006a 64F30713 		bfi	r3, r4, #4, #4
 2077 006e 8DF80830 		strb	r3, [sp, #8]
 2078 0072 DAB2     		uxtb	r2, r3
 2079 0074 0123     		movs	r3, #1
 2080 0076 63F30302 		bfi	r2, r3, #0, #4
 2081 007a 8DF80820 		strb	r2, [sp, #8]
 2082 007e 02AA     		add	r2, sp, #8
 2083 0080 0221     		movs	r1, #2
 2084 0082 3846     		mov	r0, r7
 2085 0084 FFF7FEFF 		bl	ism330dhcx_write_reg
 2086 0088 0146     		mov	r1, r0
 2087 008a 0028     		cmp	r0, #0
 2088 008c C8D1     		bne	.L257
 2089 008e 8DF80450 		strb	r5, [sp, #4]
 2090 0092 0123     		movs	r3, #1
 2091 0094 01AA     		add	r2, sp, #4
 2092 0096 0821     		movs	r1, #8
 2093 0098 3846     		mov	r0, r7
 2094 009a FFF7FEFF 		bl	ism330dhcx_write_reg
 2095 009e 0146     		mov	r1, r0
 2096 00a0 BEE7     		b	.L257
 2097              	.L261:
 2098 00a2 0135     		adds	r5, r5, #1
 2099 00a4 EDB2     		uxtb	r5, r5
 2100              	.L260:
 2101 00a6 E9B1     		cbz	r1, .L267
 2102              	.L259:
 2103 00a8 0134     		adds	r4, r4, #1
 2104 00aa E4B2     		uxtb	r4, r4
 2105              	.L258:
 2106 00ac B442     		cmp	r4, r6
 2107 00ae 2CD2     		bcs	.L268
 2108 00b0 0029     		cmp	r1, #0
 2109 00b2 F9D1     		bne	.L259
 2110 00b4 0123     		movs	r3, #1
 2111 00b6 08EB0402 		add	r2, r8, r4
 2112 00ba 0921     		movs	r1, #9
 2113 00bc 3846     		mov	r0, r7
 2114 00be FFF7FEFF 		bl	ism330dhcx_write_reg
 2115 00c2 0146     		mov	r1, r0
 2116 00c4 0028     		cmp	r0, #0
 2117 00c6 EED1     		bne	.L260
 2118 00c8 002D     		cmp	r5, #0
ARM GAS  C:\Temp\cclPUGyV.s 			page 36


 2119 00ca EAD1     		bne	.L261
 2120 00cc 09F10109 		add	r9, r9, #1
 2121 00d0 5FFA89F9 		uxtb	r9, r9
 2122 00d4 0123     		movs	r3, #1
 2123 00d6 02AA     		add	r2, sp, #8
 2124 00d8 0221     		movs	r1, #2
 2125 00da 3846     		mov	r0, r7
 2126 00dc FFF7FEFF 		bl	ism330dhcx_read_reg
 2127 00e0 0146     		mov	r1, r0
 2128 00e2 DEE7     		b	.L261
 2129              	.L267:
 2130 00e4 9DF80830 		ldrb	r3, [sp, #8]	@ zero_extendqisi2
 2131 00e8 69F30713 		bfi	r3, r9, #4, #4
 2132 00ec 8DF80830 		strb	r3, [sp, #8]
 2133 00f0 DAB2     		uxtb	r2, r3
 2134 00f2 0123     		movs	r3, #1
 2135 00f4 63F30302 		bfi	r2, r3, #0, #4
 2136 00f8 8DF80820 		strb	r2, [sp, #8]
 2137 00fc 02AA     		add	r2, sp, #8
 2138 00fe 0221     		movs	r1, #2
 2139 0100 3846     		mov	r0, r7
 2140 0102 FFF7FEFF 		bl	ism330dhcx_write_reg
 2141 0106 0146     		mov	r1, r0
 2142 0108 CEE7     		b	.L259
 2143              	.L268:
 2144 010a 19B1     		cbz	r1, .L269
 2145              	.L255:
 2146 010c 0846     		mov	r0, r1
 2147 010e 05B0     		add	sp, sp, #20
 2148              		@ sp needed
 2149 0110 BDE8F083 		pop	{r4, r5, r6, r7, r8, r9, pc}
 2150              	.L269:
 2151 0114 9DF80830 		ldrb	r3, [sp, #8]	@ zero_extendqisi2
 2152 0118 6FF30713 		bfc	r3, #4, #4
 2153 011c 8DF80830 		strb	r3, [sp, #8]
 2154 0120 DAB2     		uxtb	r2, r3
 2155 0122 0123     		movs	r3, #1
 2156 0124 63F30302 		bfi	r2, r3, #0, #4
 2157 0128 8DF80820 		strb	r2, [sp, #8]
 2158 012c 02AA     		add	r2, sp, #8
 2159 012e 0221     		movs	r1, #2
 2160 0130 3846     		mov	r0, r7
 2161 0132 FFF7FEFF 		bl	ism330dhcx_write_reg
 2162 0136 0146     		mov	r1, r0
 2163 0138 0028     		cmp	r0, #0
 2164 013a E7D1     		bne	.L255
 2165 013c 0123     		movs	r3, #1
 2166 013e 03AA     		add	r2, sp, #12
 2167 0140 1721     		movs	r1, #23
 2168 0142 3846     		mov	r0, r7
 2169 0144 FFF7FEFF 		bl	ism330dhcx_read_reg
 2170 0148 0146     		mov	r1, r0
 2171 014a 0028     		cmp	r0, #0
 2172 014c DED1     		bne	.L255
 2173 014e 9DF80C30 		ldrb	r3, [sp, #12]	@ zero_extendqisi2
 2174 0152 6FF34613 		bfc	r3, #5, #2
 2175 0156 8DF80C30 		strb	r3, [sp, #12]
ARM GAS  C:\Temp\cclPUGyV.s 			page 37


 2176 015a 0123     		movs	r3, #1
 2177 015c 03AA     		add	r2, sp, #12
 2178 015e 1721     		movs	r1, #23
 2179 0160 3846     		mov	r0, r7
 2180 0162 FFF7FEFF 		bl	ism330dhcx_write_reg
 2181 0166 0146     		mov	r1, r0
 2182 0168 0028     		cmp	r0, #0
 2183 016a CFD1     		bne	.L255
 2184 016c 0021     		movs	r1, #0
 2185 016e 3846     		mov	r0, r7
 2186 0170 FFF7FEFF 		bl	ism330dhcx_mem_bank_set
 2187 0174 0146     		mov	r1, r0
 2188 0176 C9E7     		b	.L255
 2190              		.section	.text.ism330dhcx_ln_pg_read_byte,"ax",%progbits
 2191              		.align	1
 2192              		.global	ism330dhcx_ln_pg_read_byte
 2193              		.syntax unified
 2194              		.thumb
 2195              		.thumb_func
 2197              	ism330dhcx_ln_pg_read_byte:
 2198              		@ args = 0, pretend = 0, frame = 16
 2199              		@ frame_needed = 0, uses_anonymous_args = 0
 2200 0000 70B5     		push	{r4, r5, r6, lr}
 2201 0002 84B0     		sub	sp, sp, #16
 2202 0004 0646     		mov	r6, r0
 2203 0006 0D46     		mov	r5, r1
 2204 0008 1446     		mov	r4, r2
 2205 000a 0221     		movs	r1, #2
 2206 000c FFF7FEFF 		bl	ism330dhcx_mem_bank_set
 2207 0010 0346     		mov	r3, r0
 2208 0012 18B1     		cbz	r0, .L274
 2209              	.L271:
 2210 0014 CBB1     		cbz	r3, .L275
 2211              	.L270:
 2212 0016 1846     		mov	r0, r3
 2213 0018 04B0     		add	sp, sp, #16
 2214              		@ sp needed
 2215 001a 70BD     		pop	{r4, r5, r6, pc}
 2216              	.L274:
 2217 001c 0123     		movs	r3, #1
 2218 001e 03AA     		add	r2, sp, #12
 2219 0020 1721     		movs	r1, #23
 2220 0022 3046     		mov	r0, r6
 2221 0024 FFF7FEFF 		bl	ism330dhcx_read_reg
 2222 0028 0346     		mov	r3, r0
 2223 002a 0028     		cmp	r0, #0
 2224 002c F3D1     		bne	.L270
 2225 002e 9DF80C20 		ldrb	r2, [sp, #12]	@ zero_extendqisi2
 2226 0032 0123     		movs	r3, #1
 2227 0034 63F34612 		bfi	r2, r3, #5, #2
 2228 0038 8DF80C20 		strb	r2, [sp, #12]
 2229 003c 03AA     		add	r2, sp, #12
 2230 003e 1721     		movs	r1, #23
 2231 0040 3046     		mov	r0, r6
 2232 0042 FFF7FEFF 		bl	ism330dhcx_write_reg
 2233 0046 0346     		mov	r3, r0
 2234 0048 E4E7     		b	.L271
ARM GAS  C:\Temp\cclPUGyV.s 			page 38


 2235              	.L275:
 2236 004a 0123     		movs	r3, #1
 2237 004c 02AA     		add	r2, sp, #8
 2238 004e 0221     		movs	r1, #2
 2239 0050 3046     		mov	r0, r6
 2240 0052 FFF7FEFF 		bl	ism330dhcx_read_reg
 2241 0056 0346     		mov	r3, r0
 2242 0058 0028     		cmp	r0, #0
 2243 005a DCD1     		bne	.L270
 2244 005c C5F30323 		ubfx	r3, r5, #8, #4
 2245 0060 9DF80820 		ldrb	r2, [sp, #8]	@ zero_extendqisi2
 2246 0064 63F30712 		bfi	r2, r3, #4, #4
 2247 0068 8DF80820 		strb	r2, [sp, #8]
 2248 006c D2B2     		uxtb	r2, r2
 2249 006e 0123     		movs	r3, #1
 2250 0070 63F30302 		bfi	r2, r3, #0, #4
 2251 0074 8DF80820 		strb	r2, [sp, #8]
 2252 0078 02AA     		add	r2, sp, #8
 2253 007a 0221     		movs	r1, #2
 2254 007c 3046     		mov	r0, r6
 2255 007e FFF7FEFF 		bl	ism330dhcx_write_reg
 2256 0082 0346     		mov	r3, r0
 2257 0084 0028     		cmp	r0, #0
 2258 0086 C6D1     		bne	.L270
 2259 0088 8DF80450 		strb	r5, [sp, #4]
 2260 008c 0123     		movs	r3, #1
 2261 008e 01AA     		add	r2, sp, #4
 2262 0090 0821     		movs	r1, #8
 2263 0092 3046     		mov	r0, r6
 2264 0094 FFF7FEFF 		bl	ism330dhcx_write_reg
 2265 0098 0346     		mov	r3, r0
 2266 009a 0028     		cmp	r0, #0
 2267 009c BBD1     		bne	.L270
 2268 009e 0223     		movs	r3, #2
 2269 00a0 2246     		mov	r2, r4
 2270 00a2 0921     		movs	r1, #9
 2271 00a4 3046     		mov	r0, r6
 2272 00a6 FFF7FEFF 		bl	ism330dhcx_read_reg
 2273 00aa 0346     		mov	r3, r0
 2274 00ac 0028     		cmp	r0, #0
 2275 00ae B2D1     		bne	.L270
 2276 00b0 0123     		movs	r3, #1
 2277 00b2 03AA     		add	r2, sp, #12
 2278 00b4 1721     		movs	r1, #23
 2279 00b6 3046     		mov	r0, r6
 2280 00b8 FFF7FEFF 		bl	ism330dhcx_read_reg
 2281 00bc 0346     		mov	r3, r0
 2282 00be 0028     		cmp	r0, #0
 2283 00c0 A9D1     		bne	.L270
 2284 00c2 9DF80C30 		ldrb	r3, [sp, #12]	@ zero_extendqisi2
 2285 00c6 6FF34613 		bfc	r3, #5, #2
 2286 00ca 8DF80C30 		strb	r3, [sp, #12]
 2287 00ce 0123     		movs	r3, #1
 2288 00d0 03AA     		add	r2, sp, #12
 2289 00d2 1721     		movs	r1, #23
 2290 00d4 3046     		mov	r0, r6
 2291 00d6 FFF7FEFF 		bl	ism330dhcx_write_reg
ARM GAS  C:\Temp\cclPUGyV.s 			page 39


 2292 00da 0346     		mov	r3, r0
 2293 00dc 0028     		cmp	r0, #0
 2294 00de 9AD1     		bne	.L270
 2295 00e0 0021     		movs	r1, #0
 2296 00e2 3046     		mov	r0, r6
 2297 00e4 FFF7FEFF 		bl	ism330dhcx_mem_bank_set
 2298 00e8 0346     		mov	r3, r0
 2299 00ea 94E7     		b	.L270
 2301              		.section	.text.ism330dhcx_data_ready_mode_set,"ax",%progbits
 2302              		.align	1
 2303              		.global	ism330dhcx_data_ready_mode_set
 2304              		.syntax unified
 2305              		.thumb
 2306              		.thumb_func
 2308              	ism330dhcx_data_ready_mode_set:
 2309              		@ args = 0, pretend = 0, frame = 8
 2310              		@ frame_needed = 0, uses_anonymous_args = 0
 2311 0000 30B5     		push	{r4, r5, lr}
 2312 0002 83B0     		sub	sp, sp, #12
 2313 0004 0446     		mov	r4, r0
 2314 0006 0D46     		mov	r5, r1
 2315 0008 0123     		movs	r3, #1
 2316 000a 01AA     		add	r2, sp, #4
 2317 000c 0B21     		movs	r1, #11
 2318 000e FFF7FEFF 		bl	ism330dhcx_read_reg
 2319 0012 08B1     		cbz	r0, .L279
 2320              	.L276:
 2321 0014 03B0     		add	sp, sp, #12
 2322              		@ sp needed
 2323 0016 30BD     		pop	{r4, r5, pc}
 2324              	.L279:
 2325 0018 9DF80430 		ldrb	r3, [sp, #4]	@ zero_extendqisi2
 2326 001c 65F3C713 		bfi	r3, r5, #7, #1
 2327 0020 8DF80430 		strb	r3, [sp, #4]
 2328 0024 0123     		movs	r3, #1
 2329 0026 01AA     		add	r2, sp, #4
 2330 0028 0B21     		movs	r1, #11
 2331 002a 2046     		mov	r0, r4
 2332 002c FFF7FEFF 		bl	ism330dhcx_write_reg
 2333 0030 F0E7     		b	.L276
 2335              		.section	.text.ism330dhcx_data_ready_mode_get,"ax",%progbits
 2336              		.align	1
 2337              		.global	ism330dhcx_data_ready_mode_get
 2338              		.syntax unified
 2339              		.thumb
 2340              		.thumb_func
 2342              	ism330dhcx_data_ready_mode_get:
 2343              		@ args = 0, pretend = 0, frame = 8
 2344              		@ frame_needed = 0, uses_anonymous_args = 0
 2345 0000 10B5     		push	{r4, lr}
 2346 0002 82B0     		sub	sp, sp, #8
 2347 0004 0C46     		mov	r4, r1
 2348 0006 0123     		movs	r3, #1
 2349 0008 01AA     		add	r2, sp, #4
 2350 000a 0B21     		movs	r1, #11
 2351 000c FFF7FEFF 		bl	ism330dhcx_read_reg
 2352 0010 9DF80430 		ldrb	r3, [sp, #4]	@ zero_extendqisi2
ARM GAS  C:\Temp\cclPUGyV.s 			page 40


 2353 0014 DB09     		lsrs	r3, r3, #7
 2354 0016 03D0     		beq	.L281
 2355 0018 33B9     		cbnz	r3, .L282
 2356 001a 0023     		movs	r3, #0
 2357 001c 2370     		strb	r3, [r4]
 2358 001e 01E0     		b	.L280
 2359              	.L281:
 2360 0020 0023     		movs	r3, #0
 2361 0022 2370     		strb	r3, [r4]
 2362              	.L280:
 2363 0024 02B0     		add	sp, sp, #8
 2364              		@ sp needed
 2365 0026 10BD     		pop	{r4, pc}
 2366              	.L282:
 2367 0028 0123     		movs	r3, #1
 2368 002a 2370     		strb	r3, [r4]
 2369 002c FAE7     		b	.L280
 2371              		.section	.text.ism330dhcx_device_id_get,"ax",%progbits
 2372              		.align	1
 2373              		.global	ism330dhcx_device_id_get
 2374              		.syntax unified
 2375              		.thumb
 2376              		.thumb_func
 2378              	ism330dhcx_device_id_get:
 2379              		@ args = 0, pretend = 0, frame = 0
 2380              		@ frame_needed = 0, uses_anonymous_args = 0
 2381 0000 08B5     		push	{r3, lr}
 2382 0002 0A46     		mov	r2, r1
 2383 0004 0123     		movs	r3, #1
 2384 0006 0F21     		movs	r1, #15
 2385 0008 FFF7FEFF 		bl	ism330dhcx_read_reg
 2386 000c 08BD     		pop	{r3, pc}
 2388              		.section	.text.ism330dhcx_reset_set,"ax",%progbits
 2389              		.align	1
 2390              		.global	ism330dhcx_reset_set
 2391              		.syntax unified
 2392              		.thumb
 2393              		.thumb_func
 2395              	ism330dhcx_reset_set:
 2396              		@ args = 0, pretend = 0, frame = 8
 2397              		@ frame_needed = 0, uses_anonymous_args = 0
 2398 0000 30B5     		push	{r4, r5, lr}
 2399 0002 83B0     		sub	sp, sp, #12
 2400 0004 0446     		mov	r4, r0
 2401 0006 0D46     		mov	r5, r1
 2402 0008 0123     		movs	r3, #1
 2403 000a 01AA     		add	r2, sp, #4
 2404 000c 1221     		movs	r1, #18
 2405 000e FFF7FEFF 		bl	ism330dhcx_read_reg
 2406 0012 08B1     		cbz	r0, .L292
 2407              	.L289:
 2408 0014 03B0     		add	sp, sp, #12
 2409              		@ sp needed
 2410 0016 30BD     		pop	{r4, r5, pc}
 2411              	.L292:
 2412 0018 9DF80430 		ldrb	r3, [sp, #4]	@ zero_extendqisi2
 2413 001c 65F30003 		bfi	r3, r5, #0, #1
ARM GAS  C:\Temp\cclPUGyV.s 			page 41


 2414 0020 8DF80430 		strb	r3, [sp, #4]
 2415 0024 0123     		movs	r3, #1
 2416 0026 01AA     		add	r2, sp, #4
 2417 0028 1221     		movs	r1, #18
 2418 002a 2046     		mov	r0, r4
 2419 002c FFF7FEFF 		bl	ism330dhcx_write_reg
 2420 0030 F0E7     		b	.L289
 2422              		.section	.text.ism330dhcx_reset_get,"ax",%progbits
 2423              		.align	1
 2424              		.global	ism330dhcx_reset_get
 2425              		.syntax unified
 2426              		.thumb
 2427              		.thumb_func
 2429              	ism330dhcx_reset_get:
 2430              		@ args = 0, pretend = 0, frame = 8
 2431              		@ frame_needed = 0, uses_anonymous_args = 0
 2432 0000 10B5     		push	{r4, lr}
 2433 0002 82B0     		sub	sp, sp, #8
 2434 0004 0C46     		mov	r4, r1
 2435 0006 0123     		movs	r3, #1
 2436 0008 01AA     		add	r2, sp, #4
 2437 000a 1221     		movs	r1, #18
 2438 000c FFF7FEFF 		bl	ism330dhcx_read_reg
 2439 0010 9DF80430 		ldrb	r3, [sp, #4]	@ zero_extendqisi2
 2440 0014 C3F30003 		ubfx	r3, r3, #0, #1
 2441 0018 2370     		strb	r3, [r4]
 2442 001a 02B0     		add	sp, sp, #8
 2443              		@ sp needed
 2444 001c 10BD     		pop	{r4, pc}
 2446              		.section	.text.ism330dhcx_auto_increment_set,"ax",%progbits
 2447              		.align	1
 2448              		.global	ism330dhcx_auto_increment_set
 2449              		.syntax unified
 2450              		.thumb
 2451              		.thumb_func
 2453              	ism330dhcx_auto_increment_set:
 2454              		@ args = 0, pretend = 0, frame = 8
 2455              		@ frame_needed = 0, uses_anonymous_args = 0
 2456 0000 30B5     		push	{r4, r5, lr}
 2457 0002 83B0     		sub	sp, sp, #12
 2458 0004 0446     		mov	r4, r0
 2459 0006 0D46     		mov	r5, r1
 2460 0008 0123     		movs	r3, #1
 2461 000a 01AA     		add	r2, sp, #4
 2462 000c 1221     		movs	r1, #18
 2463 000e FFF7FEFF 		bl	ism330dhcx_read_reg
 2464 0012 08B1     		cbz	r0, .L298
 2465              	.L295:
 2466 0014 03B0     		add	sp, sp, #12
 2467              		@ sp needed
 2468 0016 30BD     		pop	{r4, r5, pc}
 2469              	.L298:
 2470 0018 9DF80430 		ldrb	r3, [sp, #4]	@ zero_extendqisi2
 2471 001c 65F38203 		bfi	r3, r5, #2, #1
 2472 0020 8DF80430 		strb	r3, [sp, #4]
 2473 0024 0123     		movs	r3, #1
 2474 0026 01AA     		add	r2, sp, #4
ARM GAS  C:\Temp\cclPUGyV.s 			page 42


 2475 0028 1221     		movs	r1, #18
 2476 002a 2046     		mov	r0, r4
 2477 002c FFF7FEFF 		bl	ism330dhcx_write_reg
 2478 0030 F0E7     		b	.L295
 2480              		.section	.text.ism330dhcx_auto_increment_get,"ax",%progbits
 2481              		.align	1
 2482              		.global	ism330dhcx_auto_increment_get
 2483              		.syntax unified
 2484              		.thumb
 2485              		.thumb_func
 2487              	ism330dhcx_auto_increment_get:
 2488              		@ args = 0, pretend = 0, frame = 8
 2489              		@ frame_needed = 0, uses_anonymous_args = 0
 2490 0000 10B5     		push	{r4, lr}
 2491 0002 82B0     		sub	sp, sp, #8
 2492 0004 0C46     		mov	r4, r1
 2493 0006 0123     		movs	r3, #1
 2494 0008 01AA     		add	r2, sp, #4
 2495 000a 1221     		movs	r1, #18
 2496 000c FFF7FEFF 		bl	ism330dhcx_read_reg
 2497 0010 9DF80430 		ldrb	r3, [sp, #4]	@ zero_extendqisi2
 2498 0014 C3F38003 		ubfx	r3, r3, #2, #1
 2499 0018 2370     		strb	r3, [r4]
 2500 001a 02B0     		add	sp, sp, #8
 2501              		@ sp needed
 2502 001c 10BD     		pop	{r4, pc}
 2504              		.section	.text.ism330dhcx_boot_set,"ax",%progbits
 2505              		.align	1
 2506              		.global	ism330dhcx_boot_set
 2507              		.syntax unified
 2508              		.thumb
 2509              		.thumb_func
 2511              	ism330dhcx_boot_set:
 2512              		@ args = 0, pretend = 0, frame = 8
 2513              		@ frame_needed = 0, uses_anonymous_args = 0
 2514 0000 30B5     		push	{r4, r5, lr}
 2515 0002 83B0     		sub	sp, sp, #12
 2516 0004 0446     		mov	r4, r0
 2517 0006 0D46     		mov	r5, r1
 2518 0008 0123     		movs	r3, #1
 2519 000a 01AA     		add	r2, sp, #4
 2520 000c 1221     		movs	r1, #18
 2521 000e FFF7FEFF 		bl	ism330dhcx_read_reg
 2522 0012 08B1     		cbz	r0, .L304
 2523              	.L301:
 2524 0014 03B0     		add	sp, sp, #12
 2525              		@ sp needed
 2526 0016 30BD     		pop	{r4, r5, pc}
 2527              	.L304:
 2528 0018 9DF80430 		ldrb	r3, [sp, #4]	@ zero_extendqisi2
 2529 001c 65F3C713 		bfi	r3, r5, #7, #1
 2530 0020 8DF80430 		strb	r3, [sp, #4]
 2531 0024 0123     		movs	r3, #1
 2532 0026 01AA     		add	r2, sp, #4
 2533 0028 1221     		movs	r1, #18
 2534 002a 2046     		mov	r0, r4
 2535 002c FFF7FEFF 		bl	ism330dhcx_write_reg
ARM GAS  C:\Temp\cclPUGyV.s 			page 43


 2536 0030 F0E7     		b	.L301
 2538              		.section	.text.ism330dhcx_boot_get,"ax",%progbits
 2539              		.align	1
 2540              		.global	ism330dhcx_boot_get
 2541              		.syntax unified
 2542              		.thumb
 2543              		.thumb_func
 2545              	ism330dhcx_boot_get:
 2546              		@ args = 0, pretend = 0, frame = 8
 2547              		@ frame_needed = 0, uses_anonymous_args = 0
 2548 0000 10B5     		push	{r4, lr}
 2549 0002 82B0     		sub	sp, sp, #8
 2550 0004 0C46     		mov	r4, r1
 2551 0006 0123     		movs	r3, #1
 2552 0008 01AA     		add	r2, sp, #4
 2553 000a 1221     		movs	r1, #18
 2554 000c FFF7FEFF 		bl	ism330dhcx_read_reg
 2555 0010 9DF80430 		ldrb	r3, [sp, #4]	@ zero_extendqisi2
 2556 0014 C3F3C013 		ubfx	r3, r3, #7, #1
 2557 0018 2370     		strb	r3, [r4]
 2558 001a 02B0     		add	sp, sp, #8
 2559              		@ sp needed
 2560 001c 10BD     		pop	{r4, pc}
 2562              		.section	.text.ism330dhcx_xl_self_test_set,"ax",%progbits
 2563              		.align	1
 2564              		.global	ism330dhcx_xl_self_test_set
 2565              		.syntax unified
 2566              		.thumb
 2567              		.thumb_func
 2569              	ism330dhcx_xl_self_test_set:
 2570              		@ args = 0, pretend = 0, frame = 8
 2571              		@ frame_needed = 0, uses_anonymous_args = 0
 2572 0000 30B5     		push	{r4, r5, lr}
 2573 0002 83B0     		sub	sp, sp, #12
 2574 0004 0446     		mov	r4, r0
 2575 0006 0D46     		mov	r5, r1
 2576 0008 0123     		movs	r3, #1
 2577 000a 01AA     		add	r2, sp, #4
 2578 000c 1421     		movs	r1, #20
 2579 000e FFF7FEFF 		bl	ism330dhcx_read_reg
 2580 0012 08B1     		cbz	r0, .L310
 2581              	.L307:
 2582 0014 03B0     		add	sp, sp, #12
 2583              		@ sp needed
 2584 0016 30BD     		pop	{r4, r5, pc}
 2585              	.L310:
 2586 0018 9DF80430 		ldrb	r3, [sp, #4]	@ zero_extendqisi2
 2587 001c 65F30103 		bfi	r3, r5, #0, #2
 2588 0020 8DF80430 		strb	r3, [sp, #4]
 2589 0024 0123     		movs	r3, #1
 2590 0026 01AA     		add	r2, sp, #4
 2591 0028 1421     		movs	r1, #20
 2592 002a 2046     		mov	r0, r4
 2593 002c FFF7FEFF 		bl	ism330dhcx_write_reg
 2594 0030 F0E7     		b	.L307
 2596              		.section	.text.ism330dhcx_xl_self_test_get,"ax",%progbits
 2597              		.align	1
ARM GAS  C:\Temp\cclPUGyV.s 			page 44


 2598              		.global	ism330dhcx_xl_self_test_get
 2599              		.syntax unified
 2600              		.thumb
 2601              		.thumb_func
 2603              	ism330dhcx_xl_self_test_get:
 2604              		@ args = 0, pretend = 0, frame = 8
 2605              		@ frame_needed = 0, uses_anonymous_args = 0
 2606 0000 10B5     		push	{r4, lr}
 2607 0002 82B0     		sub	sp, sp, #8
 2608 0004 0C46     		mov	r4, r1
 2609 0006 0123     		movs	r3, #1
 2610 0008 01AA     		add	r2, sp, #4
 2611 000a 1421     		movs	r1, #20
 2612 000c FFF7FEFF 		bl	ism330dhcx_read_reg
 2613 0010 9DF80430 		ldrb	r3, [sp, #4]	@ zero_extendqisi2
 2614 0014 03F00303 		and	r3, r3, #3
 2615 0018 012B     		cmp	r3, #1
 2616 001a 08D0     		beq	.L312
 2617 001c 022B     		cmp	r3, #2
 2618 001e 09D0     		beq	.L313
 2619 0020 13B1     		cbz	r3, .L317
 2620 0022 0023     		movs	r3, #0
 2621 0024 2370     		strb	r3, [r4]
 2622 0026 00E0     		b	.L311
 2623              	.L317:
 2624 0028 2370     		strb	r3, [r4]
 2625              	.L311:
 2626 002a 02B0     		add	sp, sp, #8
 2627              		@ sp needed
 2628 002c 10BD     		pop	{r4, pc}
 2629              	.L312:
 2630 002e 0123     		movs	r3, #1
 2631 0030 2370     		strb	r3, [r4]
 2632 0032 FAE7     		b	.L311
 2633              	.L313:
 2634 0034 0223     		movs	r3, #2
 2635 0036 2370     		strb	r3, [r4]
 2636 0038 F7E7     		b	.L311
 2638              		.section	.text.ism330dhcx_gy_self_test_set,"ax",%progbits
 2639              		.align	1
 2640              		.global	ism330dhcx_gy_self_test_set
 2641              		.syntax unified
 2642              		.thumb
 2643              		.thumb_func
 2645              	ism330dhcx_gy_self_test_set:
 2646              		@ args = 0, pretend = 0, frame = 8
 2647              		@ frame_needed = 0, uses_anonymous_args = 0
 2648 0000 30B5     		push	{r4, r5, lr}
 2649 0002 83B0     		sub	sp, sp, #12
 2650 0004 0446     		mov	r4, r0
 2651 0006 0D46     		mov	r5, r1
 2652 0008 0123     		movs	r3, #1
 2653 000a 01AA     		add	r2, sp, #4
 2654 000c 1421     		movs	r1, #20
 2655 000e FFF7FEFF 		bl	ism330dhcx_read_reg
 2656 0012 08B1     		cbz	r0, .L321
 2657              	.L318:
ARM GAS  C:\Temp\cclPUGyV.s 			page 45


 2658 0014 03B0     		add	sp, sp, #12
 2659              		@ sp needed
 2660 0016 30BD     		pop	{r4, r5, pc}
 2661              	.L321:
 2662 0018 9DF80430 		ldrb	r3, [sp, #4]	@ zero_extendqisi2
 2663 001c 65F38303 		bfi	r3, r5, #2, #2
 2664 0020 8DF80430 		strb	r3, [sp, #4]
 2665 0024 0123     		movs	r3, #1
 2666 0026 01AA     		add	r2, sp, #4
 2667 0028 1421     		movs	r1, #20
 2668 002a 2046     		mov	r0, r4
 2669 002c FFF7FEFF 		bl	ism330dhcx_write_reg
 2670 0030 F0E7     		b	.L318
 2672              		.section	.text.ism330dhcx_gy_self_test_get,"ax",%progbits
 2673              		.align	1
 2674              		.global	ism330dhcx_gy_self_test_get
 2675              		.syntax unified
 2676              		.thumb
 2677              		.thumb_func
 2679              	ism330dhcx_gy_self_test_get:
 2680              		@ args = 0, pretend = 0, frame = 8
 2681              		@ frame_needed = 0, uses_anonymous_args = 0
 2682 0000 10B5     		push	{r4, lr}
 2683 0002 82B0     		sub	sp, sp, #8
 2684 0004 0C46     		mov	r4, r1
 2685 0006 0123     		movs	r3, #1
 2686 0008 01AA     		add	r2, sp, #4
 2687 000a 1421     		movs	r1, #20
 2688 000c FFF7FEFF 		bl	ism330dhcx_read_reg
 2689 0010 9DF80430 		ldrb	r3, [sp, #4]	@ zero_extendqisi2
 2690 0014 C3F38103 		ubfx	r3, r3, #2, #2
 2691 0018 012B     		cmp	r3, #1
 2692 001a 08D0     		beq	.L323
 2693 001c 032B     		cmp	r3, #3
 2694 001e 09D0     		beq	.L324
 2695 0020 13B1     		cbz	r3, .L328
 2696 0022 0023     		movs	r3, #0
 2697 0024 2370     		strb	r3, [r4]
 2698 0026 00E0     		b	.L322
 2699              	.L328:
 2700 0028 2370     		strb	r3, [r4]
 2701              	.L322:
 2702 002a 02B0     		add	sp, sp, #8
 2703              		@ sp needed
 2704 002c 10BD     		pop	{r4, pc}
 2705              	.L323:
 2706 002e 0123     		movs	r3, #1
 2707 0030 2370     		strb	r3, [r4]
 2708 0032 FAE7     		b	.L322
 2709              	.L324:
 2710 0034 0323     		movs	r3, #3
 2711 0036 2370     		strb	r3, [r4]
 2712 0038 F7E7     		b	.L322
 2714              		.section	.text.ism330dhcx_xl_filter_lp2_set,"ax",%progbits
 2715              		.align	1
 2716              		.global	ism330dhcx_xl_filter_lp2_set
 2717              		.syntax unified
ARM GAS  C:\Temp\cclPUGyV.s 			page 46


 2718              		.thumb
 2719              		.thumb_func
 2721              	ism330dhcx_xl_filter_lp2_set:
 2722              		@ args = 0, pretend = 0, frame = 8
 2723              		@ frame_needed = 0, uses_anonymous_args = 0
 2724 0000 30B5     		push	{r4, r5, lr}
 2725 0002 83B0     		sub	sp, sp, #12
 2726 0004 0446     		mov	r4, r0
 2727 0006 0D46     		mov	r5, r1
 2728 0008 0123     		movs	r3, #1
 2729 000a 01AA     		add	r2, sp, #4
 2730 000c 1021     		movs	r1, #16
 2731 000e FFF7FEFF 		bl	ism330dhcx_read_reg
 2732 0012 08B1     		cbz	r0, .L332
 2733              	.L329:
 2734 0014 03B0     		add	sp, sp, #12
 2735              		@ sp needed
 2736 0016 30BD     		pop	{r4, r5, pc}
 2737              	.L332:
 2738 0018 9DF80430 		ldrb	r3, [sp, #4]	@ zero_extendqisi2
 2739 001c 65F34103 		bfi	r3, r5, #1, #1
 2740 0020 8DF80430 		strb	r3, [sp, #4]
 2741 0024 0123     		movs	r3, #1
 2742 0026 01AA     		add	r2, sp, #4
 2743 0028 1021     		movs	r1, #16
 2744 002a 2046     		mov	r0, r4
 2745 002c FFF7FEFF 		bl	ism330dhcx_write_reg
 2746 0030 F0E7     		b	.L329
 2748              		.section	.text.ism330dhcx_xl_filter_lp2_get,"ax",%progbits
 2749              		.align	1
 2750              		.global	ism330dhcx_xl_filter_lp2_get
 2751              		.syntax unified
 2752              		.thumb
 2753              		.thumb_func
 2755              	ism330dhcx_xl_filter_lp2_get:
 2756              		@ args = 0, pretend = 0, frame = 8
 2757              		@ frame_needed = 0, uses_anonymous_args = 0
 2758 0000 10B5     		push	{r4, lr}
 2759 0002 82B0     		sub	sp, sp, #8
 2760 0004 0C46     		mov	r4, r1
 2761 0006 0123     		movs	r3, #1
 2762 0008 01AA     		add	r2, sp, #4
 2763 000a 1021     		movs	r1, #16
 2764 000c FFF7FEFF 		bl	ism330dhcx_read_reg
 2765 0010 9DF80430 		ldrb	r3, [sp, #4]	@ zero_extendqisi2
 2766 0014 C3F34003 		ubfx	r3, r3, #1, #1
 2767 0018 2370     		strb	r3, [r4]
 2768 001a 02B0     		add	sp, sp, #8
 2769              		@ sp needed
 2770 001c 10BD     		pop	{r4, pc}
 2772              		.section	.text.ism330dhcx_gy_filter_lp1_set,"ax",%progbits
 2773              		.align	1
 2774              		.global	ism330dhcx_gy_filter_lp1_set
 2775              		.syntax unified
 2776              		.thumb
 2777              		.thumb_func
 2779              	ism330dhcx_gy_filter_lp1_set:
ARM GAS  C:\Temp\cclPUGyV.s 			page 47


 2780              		@ args = 0, pretend = 0, frame = 8
 2781              		@ frame_needed = 0, uses_anonymous_args = 0
 2782 0000 30B5     		push	{r4, r5, lr}
 2783 0002 83B0     		sub	sp, sp, #12
 2784 0004 0446     		mov	r4, r0
 2785 0006 0D46     		mov	r5, r1
 2786 0008 0123     		movs	r3, #1
 2787 000a 01AA     		add	r2, sp, #4
 2788 000c 1321     		movs	r1, #19
 2789 000e FFF7FEFF 		bl	ism330dhcx_read_reg
 2790 0012 08B1     		cbz	r0, .L338
 2791              	.L335:
 2792 0014 03B0     		add	sp, sp, #12
 2793              		@ sp needed
 2794 0016 30BD     		pop	{r4, r5, pc}
 2795              	.L338:
 2796 0018 9DF80430 		ldrb	r3, [sp, #4]	@ zero_extendqisi2
 2797 001c 65F34103 		bfi	r3, r5, #1, #1
 2798 0020 8DF80430 		strb	r3, [sp, #4]
 2799 0024 0123     		movs	r3, #1
 2800 0026 01AA     		add	r2, sp, #4
 2801 0028 1321     		movs	r1, #19
 2802 002a 2046     		mov	r0, r4
 2803 002c FFF7FEFF 		bl	ism330dhcx_write_reg
 2804 0030 F0E7     		b	.L335
 2806              		.section	.text.ism330dhcx_gy_filter_lp1_get,"ax",%progbits
 2807              		.align	1
 2808              		.global	ism330dhcx_gy_filter_lp1_get
 2809              		.syntax unified
 2810              		.thumb
 2811              		.thumb_func
 2813              	ism330dhcx_gy_filter_lp1_get:
 2814              		@ args = 0, pretend = 0, frame = 8
 2815              		@ frame_needed = 0, uses_anonymous_args = 0
 2816 0000 10B5     		push	{r4, lr}
 2817 0002 82B0     		sub	sp, sp, #8
 2818 0004 0C46     		mov	r4, r1
 2819 0006 0123     		movs	r3, #1
 2820 0008 01AA     		add	r2, sp, #4
 2821 000a 1321     		movs	r1, #19
 2822 000c FFF7FEFF 		bl	ism330dhcx_read_reg
 2823 0010 9DF80430 		ldrb	r3, [sp, #4]	@ zero_extendqisi2
 2824 0014 C3F34003 		ubfx	r3, r3, #1, #1
 2825 0018 2370     		strb	r3, [r4]
 2826 001a 02B0     		add	sp, sp, #8
 2827              		@ sp needed
 2828 001c 10BD     		pop	{r4, pc}
 2830              		.section	.text.ism330dhcx_filter_settling_mask_set,"ax",%progbits
 2831              		.align	1
 2832              		.global	ism330dhcx_filter_settling_mask_set
 2833              		.syntax unified
 2834              		.thumb
 2835              		.thumb_func
 2837              	ism330dhcx_filter_settling_mask_set:
 2838              		@ args = 0, pretend = 0, frame = 8
 2839              		@ frame_needed = 0, uses_anonymous_args = 0
 2840 0000 30B5     		push	{r4, r5, lr}
ARM GAS  C:\Temp\cclPUGyV.s 			page 48


 2841 0002 83B0     		sub	sp, sp, #12
 2842 0004 0446     		mov	r4, r0
 2843 0006 0D46     		mov	r5, r1
 2844 0008 0123     		movs	r3, #1
 2845 000a 01AA     		add	r2, sp, #4
 2846 000c 1321     		movs	r1, #19
 2847 000e FFF7FEFF 		bl	ism330dhcx_read_reg
 2848 0012 08B1     		cbz	r0, .L344
 2849              	.L341:
 2850 0014 03B0     		add	sp, sp, #12
 2851              		@ sp needed
 2852 0016 30BD     		pop	{r4, r5, pc}
 2853              	.L344:
 2854 0018 9DF80430 		ldrb	r3, [sp, #4]	@ zero_extendqisi2
 2855 001c 65F3C303 		bfi	r3, r5, #3, #1
 2856 0020 8DF80430 		strb	r3, [sp, #4]
 2857 0024 0123     		movs	r3, #1
 2858 0026 01AA     		add	r2, sp, #4
 2859 0028 1321     		movs	r1, #19
 2860 002a 2046     		mov	r0, r4
 2861 002c FFF7FEFF 		bl	ism330dhcx_write_reg
 2862 0030 F0E7     		b	.L341
 2864              		.section	.text.ism330dhcx_filter_settling_mask_get,"ax",%progbits
 2865              		.align	1
 2866              		.global	ism330dhcx_filter_settling_mask_get
 2867              		.syntax unified
 2868              		.thumb
 2869              		.thumb_func
 2871              	ism330dhcx_filter_settling_mask_get:
 2872              		@ args = 0, pretend = 0, frame = 8
 2873              		@ frame_needed = 0, uses_anonymous_args = 0
 2874 0000 10B5     		push	{r4, lr}
 2875 0002 82B0     		sub	sp, sp, #8
 2876 0004 0C46     		mov	r4, r1
 2877 0006 0123     		movs	r3, #1
 2878 0008 01AA     		add	r2, sp, #4
 2879 000a 1321     		movs	r1, #19
 2880 000c FFF7FEFF 		bl	ism330dhcx_read_reg
 2881 0010 9DF80430 		ldrb	r3, [sp, #4]	@ zero_extendqisi2
 2882 0014 C3F3C003 		ubfx	r3, r3, #3, #1
 2883 0018 2370     		strb	r3, [r4]
 2884 001a 02B0     		add	sp, sp, #8
 2885              		@ sp needed
 2886 001c 10BD     		pop	{r4, pc}
 2888              		.section	.text.ism330dhcx_gy_lp1_bandwidth_set,"ax",%progbits
 2889              		.align	1
 2890              		.global	ism330dhcx_gy_lp1_bandwidth_set
 2891              		.syntax unified
 2892              		.thumb
 2893              		.thumb_func
 2895              	ism330dhcx_gy_lp1_bandwidth_set:
 2896              		@ args = 0, pretend = 0, frame = 8
 2897              		@ frame_needed = 0, uses_anonymous_args = 0
 2898 0000 30B5     		push	{r4, r5, lr}
 2899 0002 83B0     		sub	sp, sp, #12
 2900 0004 0446     		mov	r4, r0
 2901 0006 0D46     		mov	r5, r1
ARM GAS  C:\Temp\cclPUGyV.s 			page 49


 2902 0008 0123     		movs	r3, #1
 2903 000a 01AA     		add	r2, sp, #4
 2904 000c 1521     		movs	r1, #21
 2905 000e FFF7FEFF 		bl	ism330dhcx_read_reg
 2906 0012 08B1     		cbz	r0, .L350
 2907              	.L347:
 2908 0014 03B0     		add	sp, sp, #12
 2909              		@ sp needed
 2910 0016 30BD     		pop	{r4, r5, pc}
 2911              	.L350:
 2912 0018 9DF80430 		ldrb	r3, [sp, #4]	@ zero_extendqisi2
 2913 001c 65F30203 		bfi	r3, r5, #0, #3
 2914 0020 8DF80430 		strb	r3, [sp, #4]
 2915 0024 0123     		movs	r3, #1
 2916 0026 01AA     		add	r2, sp, #4
 2917 0028 1521     		movs	r1, #21
 2918 002a 2046     		mov	r0, r4
 2919 002c FFF7FEFF 		bl	ism330dhcx_write_reg
 2920 0030 F0E7     		b	.L347
 2922              		.section	.text.ism330dhcx_gy_lp1_bandwidth_get,"ax",%progbits
 2923              		.align	1
 2924              		.global	ism330dhcx_gy_lp1_bandwidth_get
 2925              		.syntax unified
 2926              		.thumb
 2927              		.thumb_func
 2929              	ism330dhcx_gy_lp1_bandwidth_get:
 2930              		@ args = 0, pretend = 0, frame = 8
 2931              		@ frame_needed = 0, uses_anonymous_args = 0
 2932 0000 10B5     		push	{r4, lr}
 2933 0002 82B0     		sub	sp, sp, #8
 2934 0004 0C46     		mov	r4, r1
 2935 0006 0123     		movs	r3, #1
 2936 0008 01AA     		add	r2, sp, #4
 2937 000a 1521     		movs	r1, #21
 2938 000c FFF7FEFF 		bl	ism330dhcx_read_reg
 2939 0010 9DF80430 		ldrb	r3, [sp, #4]	@ zero_extendqisi2
 2940 0014 03F00703 		and	r3, r3, #7
 2941 0018 072B     		cmp	r3, #7
 2942 001a 1ED8     		bhi	.L352
 2943 001c DFE803F0 		tbb	[pc, r3]
 2944              	.L354:
 2945 0020 04       		.byte	(.L361-.L354)/2
 2946 0021 08       		.byte	(.L360-.L354)/2
 2947 0022 0B       		.byte	(.L359-.L354)/2
 2948 0023 0E       		.byte	(.L358-.L354)/2
 2949 0024 11       		.byte	(.L357-.L354)/2
 2950 0025 14       		.byte	(.L356-.L354)/2
 2951 0026 17       		.byte	(.L355-.L354)/2
 2952 0027 1A       		.byte	(.L353-.L354)/2
 2953              		.p2align 1
 2954              	.L361:
 2955 0028 0023     		movs	r3, #0
 2956 002a 2370     		strb	r3, [r4]
 2957              	.L351:
 2958 002c 02B0     		add	sp, sp, #8
 2959              		@ sp needed
 2960 002e 10BD     		pop	{r4, pc}
ARM GAS  C:\Temp\cclPUGyV.s 			page 50


 2961              	.L360:
 2962 0030 0123     		movs	r3, #1
 2963 0032 2370     		strb	r3, [r4]
 2964 0034 FAE7     		b	.L351
 2965              	.L359:
 2966 0036 0223     		movs	r3, #2
 2967 0038 2370     		strb	r3, [r4]
 2968 003a F7E7     		b	.L351
 2969              	.L358:
 2970 003c 0323     		movs	r3, #3
 2971 003e 2370     		strb	r3, [r4]
 2972 0040 F4E7     		b	.L351
 2973              	.L357:
 2974 0042 0423     		movs	r3, #4
 2975 0044 2370     		strb	r3, [r4]
 2976 0046 F1E7     		b	.L351
 2977              	.L356:
 2978 0048 0523     		movs	r3, #5
 2979 004a 2370     		strb	r3, [r4]
 2980 004c EEE7     		b	.L351
 2981              	.L355:
 2982 004e 0623     		movs	r3, #6
 2983 0050 2370     		strb	r3, [r4]
 2984 0052 EBE7     		b	.L351
 2985              	.L353:
 2986 0054 0723     		movs	r3, #7
 2987 0056 2370     		strb	r3, [r4]
 2988 0058 E8E7     		b	.L351
 2989              	.L352:
 2990 005a 0023     		movs	r3, #0
 2991 005c 2370     		strb	r3, [r4]
 2992 005e E5E7     		b	.L351
 2994              		.section	.text.ism330dhcx_xl_lp2_on_6d_set,"ax",%progbits
 2995              		.align	1
 2996              		.global	ism330dhcx_xl_lp2_on_6d_set
 2997              		.syntax unified
 2998              		.thumb
 2999              		.thumb_func
 3001              	ism330dhcx_xl_lp2_on_6d_set:
 3002              		@ args = 0, pretend = 0, frame = 8
 3003              		@ frame_needed = 0, uses_anonymous_args = 0
 3004 0000 30B5     		push	{r4, r5, lr}
 3005 0002 83B0     		sub	sp, sp, #12
 3006 0004 0446     		mov	r4, r0
 3007 0006 0D46     		mov	r5, r1
 3008 0008 0123     		movs	r3, #1
 3009 000a 01AA     		add	r2, sp, #4
 3010 000c 1721     		movs	r1, #23
 3011 000e FFF7FEFF 		bl	ism330dhcx_read_reg
 3012 0012 08B1     		cbz	r0, .L367
 3013              	.L364:
 3014 0014 03B0     		add	sp, sp, #12
 3015              		@ sp needed
 3016 0016 30BD     		pop	{r4, r5, pc}
 3017              	.L367:
 3018 0018 9DF80430 		ldrb	r3, [sp, #4]	@ zero_extendqisi2
 3019 001c 65F30003 		bfi	r3, r5, #0, #1
ARM GAS  C:\Temp\cclPUGyV.s 			page 51


 3020 0020 8DF80430 		strb	r3, [sp, #4]
 3021 0024 0123     		movs	r3, #1
 3022 0026 01AA     		add	r2, sp, #4
 3023 0028 1721     		movs	r1, #23
 3024 002a 2046     		mov	r0, r4
 3025 002c FFF7FEFF 		bl	ism330dhcx_write_reg
 3026 0030 F0E7     		b	.L364
 3028              		.section	.text.ism330dhcx_xl_lp2_on_6d_get,"ax",%progbits
 3029              		.align	1
 3030              		.global	ism330dhcx_xl_lp2_on_6d_get
 3031              		.syntax unified
 3032              		.thumb
 3033              		.thumb_func
 3035              	ism330dhcx_xl_lp2_on_6d_get:
 3036              		@ args = 0, pretend = 0, frame = 8
 3037              		@ frame_needed = 0, uses_anonymous_args = 0
 3038 0000 10B5     		push	{r4, lr}
 3039 0002 82B0     		sub	sp, sp, #8
 3040 0004 0C46     		mov	r4, r1
 3041 0006 0123     		movs	r3, #1
 3042 0008 01AA     		add	r2, sp, #4
 3043 000a 1721     		movs	r1, #23
 3044 000c FFF7FEFF 		bl	ism330dhcx_read_reg
 3045 0010 9DF80430 		ldrb	r3, [sp, #4]	@ zero_extendqisi2
 3046 0014 C3F30003 		ubfx	r3, r3, #0, #1
 3047 0018 2370     		strb	r3, [r4]
 3048 001a 02B0     		add	sp, sp, #8
 3049              		@ sp needed
 3050 001c 10BD     		pop	{r4, pc}
 3052              		.section	.text.ism330dhcx_xl_hp_path_on_out_set,"ax",%progbits
 3053              		.align	1
 3054              		.global	ism330dhcx_xl_hp_path_on_out_set
 3055              		.syntax unified
 3056              		.thumb
 3057              		.thumb_func
 3059              	ism330dhcx_xl_hp_path_on_out_set:
 3060              		@ args = 0, pretend = 0, frame = 8
 3061              		@ frame_needed = 0, uses_anonymous_args = 0
 3062 0000 30B5     		push	{r4, r5, lr}
 3063 0002 83B0     		sub	sp, sp, #12
 3064 0004 0546     		mov	r5, r0
 3065 0006 0C46     		mov	r4, r1
 3066 0008 0123     		movs	r3, #1
 3067 000a 01AA     		add	r2, sp, #4
 3068 000c 1721     		movs	r1, #23
 3069 000e FFF7FEFF 		bl	ism330dhcx_read_reg
 3070 0012 08B1     		cbz	r0, .L373
 3071              	.L370:
 3072 0014 03B0     		add	sp, sp, #12
 3073              		@ sp needed
 3074 0016 30BD     		pop	{r4, r5, pc}
 3075              	.L373:
 3076 0018 C4F30012 		ubfx	r2, r4, #4, #1
 3077 001c 9DF80430 		ldrb	r3, [sp, #4]	@ zero_extendqisi2
 3078 0020 62F38203 		bfi	r3, r2, #2, #1
 3079 0024 8DF80430 		strb	r3, [sp, #4]
 3080 0028 C4F34012 		ubfx	r2, r4, #5, #1
ARM GAS  C:\Temp\cclPUGyV.s 			page 52


 3081 002c DBB2     		uxtb	r3, r3
 3082 002e 62F30413 		bfi	r3, r2, #4, #1
 3083 0032 8DF80430 		strb	r3, [sp, #4]
 3084 0036 DBB2     		uxtb	r3, r3
 3085 0038 64F34713 		bfi	r3, r4, #5, #3
 3086 003c 8DF80430 		strb	r3, [sp, #4]
 3087 0040 0123     		movs	r3, #1
 3088 0042 01AA     		add	r2, sp, #4
 3089 0044 1721     		movs	r1, #23
 3090 0046 2846     		mov	r0, r5
 3091 0048 FFF7FEFF 		bl	ism330dhcx_write_reg
 3092 004c E2E7     		b	.L370
 3094              		.section	.text.ism330dhcx_xl_hp_path_on_out_get,"ax",%progbits
 3095              		.align	1
 3096              		.global	ism330dhcx_xl_hp_path_on_out_get
 3097              		.syntax unified
 3098              		.thumb
 3099              		.thumb_func
 3101              	ism330dhcx_xl_hp_path_on_out_get:
 3102              		@ args = 0, pretend = 0, frame = 8
 3103              		@ frame_needed = 0, uses_anonymous_args = 0
 3104 0000 10B5     		push	{r4, lr}
 3105 0002 82B0     		sub	sp, sp, #8
 3106 0004 0C46     		mov	r4, r1
 3107 0006 0123     		movs	r3, #1
 3108 0008 01AA     		add	r2, sp, #4
 3109 000a 1721     		movs	r1, #23
 3110 000c FFF7FEFF 		bl	ism330dhcx_read_reg
 3111 0010 9DF80420 		ldrb	r2, [sp, #4]	@ zero_extendqisi2
 3112 0014 C2F30011 		ubfx	r1, r2, #4, #1
 3113 0018 C2F38003 		ubfx	r3, r2, #2, #1
 3114 001c 1B01     		lsls	r3, r3, #4
 3115 001e 03EB4113 		add	r3, r3, r1, lsl #5
 3116 0022 03EB5213 		add	r3, r3, r2, lsr #5
 3117 0026 372B     		cmp	r3, #55
 3118 0028 63D8     		bhi	.L375
 3119 002a DFE803F0 		tbb	[pc, r3]
 3120              	.L377:
 3121 002e 1C       		.byte	(.L399-.L377)/2
 3122 002f 4D       		.byte	(.L398-.L377)/2
 3123 0030 50       		.byte	(.L397-.L377)/2
 3124 0031 53       		.byte	(.L396-.L377)/2
 3125 0032 56       		.byte	(.L395-.L377)/2
 3126 0033 59       		.byte	(.L394-.L377)/2
 3127 0034 5C       		.byte	(.L393-.L377)/2
 3128 0035 5F       		.byte	(.L392-.L377)/2
 3129 0036 62       		.byte	(.L375-.L377)/2
 3130 0037 62       		.byte	(.L375-.L377)/2
 3131 0038 62       		.byte	(.L375-.L377)/2
 3132 0039 62       		.byte	(.L375-.L377)/2
 3133 003a 62       		.byte	(.L375-.L377)/2
 3134 003b 62       		.byte	(.L375-.L377)/2
 3135 003c 62       		.byte	(.L375-.L377)/2
 3136 003d 62       		.byte	(.L375-.L377)/2
 3137 003e 20       		.byte	(.L391-.L377)/2
 3138 003f 23       		.byte	(.L390-.L377)/2
 3139 0040 26       		.byte	(.L389-.L377)/2
ARM GAS  C:\Temp\cclPUGyV.s 			page 53


 3140 0041 29       		.byte	(.L388-.L377)/2
 3141 0042 2C       		.byte	(.L387-.L377)/2
 3142 0043 2F       		.byte	(.L386-.L377)/2
 3143 0044 32       		.byte	(.L385-.L377)/2
 3144 0045 35       		.byte	(.L384-.L377)/2
 3145 0046 62       		.byte	(.L375-.L377)/2
 3146 0047 62       		.byte	(.L375-.L377)/2
 3147 0048 62       		.byte	(.L375-.L377)/2
 3148 0049 62       		.byte	(.L375-.L377)/2
 3149 004a 62       		.byte	(.L375-.L377)/2
 3150 004b 62       		.byte	(.L375-.L377)/2
 3151 004c 62       		.byte	(.L375-.L377)/2
 3152 004d 62       		.byte	(.L375-.L377)/2
 3153 004e 62       		.byte	(.L375-.L377)/2
 3154 004f 62       		.byte	(.L375-.L377)/2
 3155 0050 62       		.byte	(.L375-.L377)/2
 3156 0051 62       		.byte	(.L375-.L377)/2
 3157 0052 62       		.byte	(.L375-.L377)/2
 3158 0053 62       		.byte	(.L375-.L377)/2
 3159 0054 62       		.byte	(.L375-.L377)/2
 3160 0055 62       		.byte	(.L375-.L377)/2
 3161 0056 62       		.byte	(.L375-.L377)/2
 3162 0057 62       		.byte	(.L375-.L377)/2
 3163 0058 62       		.byte	(.L375-.L377)/2
 3164 0059 62       		.byte	(.L375-.L377)/2
 3165 005a 62       		.byte	(.L375-.L377)/2
 3166 005b 62       		.byte	(.L375-.L377)/2
 3167 005c 62       		.byte	(.L375-.L377)/2
 3168 005d 62       		.byte	(.L375-.L377)/2
 3169 005e 62       		.byte	(.L375-.L377)/2
 3170 005f 38       		.byte	(.L383-.L377)/2
 3171 0060 3B       		.byte	(.L382-.L377)/2
 3172 0061 3E       		.byte	(.L381-.L377)/2
 3173 0062 41       		.byte	(.L380-.L377)/2
 3174 0063 44       		.byte	(.L379-.L377)/2
 3175 0064 47       		.byte	(.L378-.L377)/2
 3176 0065 4A       		.byte	(.L376-.L377)/2
 3177              		.p2align 1
 3178              	.L399:
 3179 0066 0023     		movs	r3, #0
 3180 0068 2370     		strb	r3, [r4]
 3181              	.L374:
 3182 006a 02B0     		add	sp, sp, #8
 3183              		@ sp needed
 3184 006c 10BD     		pop	{r4, pc}
 3185              	.L391:
 3186 006e 1023     		movs	r3, #16
 3187 0070 2370     		strb	r3, [r4]
 3188 0072 FAE7     		b	.L374
 3189              	.L390:
 3190 0074 1123     		movs	r3, #17
 3191 0076 2370     		strb	r3, [r4]
 3192 0078 F7E7     		b	.L374
 3193              	.L389:
 3194 007a 1223     		movs	r3, #18
 3195 007c 2370     		strb	r3, [r4]
 3196 007e F4E7     		b	.L374
ARM GAS  C:\Temp\cclPUGyV.s 			page 54


 3197              	.L388:
 3198 0080 1323     		movs	r3, #19
 3199 0082 2370     		strb	r3, [r4]
 3200 0084 F1E7     		b	.L374
 3201              	.L387:
 3202 0086 1423     		movs	r3, #20
 3203 0088 2370     		strb	r3, [r4]
 3204 008a EEE7     		b	.L374
 3205              	.L386:
 3206 008c 1523     		movs	r3, #21
 3207 008e 2370     		strb	r3, [r4]
 3208 0090 EBE7     		b	.L374
 3209              	.L385:
 3210 0092 1623     		movs	r3, #22
 3211 0094 2370     		strb	r3, [r4]
 3212 0096 E8E7     		b	.L374
 3213              	.L384:
 3214 0098 1723     		movs	r3, #23
 3215 009a 2370     		strb	r3, [r4]
 3216 009c E5E7     		b	.L374
 3217              	.L383:
 3218 009e 3123     		movs	r3, #49
 3219 00a0 2370     		strb	r3, [r4]
 3220 00a2 E2E7     		b	.L374
 3221              	.L382:
 3222 00a4 3223     		movs	r3, #50
 3223 00a6 2370     		strb	r3, [r4]
 3224 00a8 DFE7     		b	.L374
 3225              	.L381:
 3226 00aa 3323     		movs	r3, #51
 3227 00ac 2370     		strb	r3, [r4]
 3228 00ae DCE7     		b	.L374
 3229              	.L380:
 3230 00b0 3423     		movs	r3, #52
 3231 00b2 2370     		strb	r3, [r4]
 3232 00b4 D9E7     		b	.L374
 3233              	.L379:
 3234 00b6 3523     		movs	r3, #53
 3235 00b8 2370     		strb	r3, [r4]
 3236 00ba D6E7     		b	.L374
 3237              	.L378:
 3238 00bc 3623     		movs	r3, #54
 3239 00be 2370     		strb	r3, [r4]
 3240 00c0 D3E7     		b	.L374
 3241              	.L376:
 3242 00c2 3723     		movs	r3, #55
 3243 00c4 2370     		strb	r3, [r4]
 3244 00c6 D0E7     		b	.L374
 3245              	.L398:
 3246 00c8 0123     		movs	r3, #1
 3247 00ca 2370     		strb	r3, [r4]
 3248 00cc CDE7     		b	.L374
 3249              	.L397:
 3250 00ce 0223     		movs	r3, #2
 3251 00d0 2370     		strb	r3, [r4]
 3252 00d2 CAE7     		b	.L374
 3253              	.L396:
ARM GAS  C:\Temp\cclPUGyV.s 			page 55


 3254 00d4 0323     		movs	r3, #3
 3255 00d6 2370     		strb	r3, [r4]
 3256 00d8 C7E7     		b	.L374
 3257              	.L395:
 3258 00da 0423     		movs	r3, #4
 3259 00dc 2370     		strb	r3, [r4]
 3260 00de C4E7     		b	.L374
 3261              	.L394:
 3262 00e0 0523     		movs	r3, #5
 3263 00e2 2370     		strb	r3, [r4]
 3264 00e4 C1E7     		b	.L374
 3265              	.L393:
 3266 00e6 0623     		movs	r3, #6
 3267 00e8 2370     		strb	r3, [r4]
 3268 00ea BEE7     		b	.L374
 3269              	.L392:
 3270 00ec 0723     		movs	r3, #7
 3271 00ee 2370     		strb	r3, [r4]
 3272 00f0 BBE7     		b	.L374
 3273              	.L375:
 3274 00f2 0023     		movs	r3, #0
 3275 00f4 2370     		strb	r3, [r4]
 3276 00f6 B8E7     		b	.L374
 3278              		.section	.text.ism330dhcx_xl_fast_settling_set,"ax",%progbits
 3279              		.align	1
 3280              		.global	ism330dhcx_xl_fast_settling_set
 3281              		.syntax unified
 3282              		.thumb
 3283              		.thumb_func
 3285              	ism330dhcx_xl_fast_settling_set:
 3286              		@ args = 0, pretend = 0, frame = 8
 3287              		@ frame_needed = 0, uses_anonymous_args = 0
 3288 0000 30B5     		push	{r4, r5, lr}
 3289 0002 83B0     		sub	sp, sp, #12
 3290 0004 0446     		mov	r4, r0
 3291 0006 0D46     		mov	r5, r1
 3292 0008 0123     		movs	r3, #1
 3293 000a 01AA     		add	r2, sp, #4
 3294 000c 1721     		movs	r1, #23
 3295 000e FFF7FEFF 		bl	ism330dhcx_read_reg
 3296 0012 08B1     		cbz	r0, .L405
 3297              	.L402:
 3298 0014 03B0     		add	sp, sp, #12
 3299              		@ sp needed
 3300 0016 30BD     		pop	{r4, r5, pc}
 3301              	.L405:
 3302 0018 9DF80430 		ldrb	r3, [sp, #4]	@ zero_extendqisi2
 3303 001c 65F3C303 		bfi	r3, r5, #3, #1
 3304 0020 8DF80430 		strb	r3, [sp, #4]
 3305 0024 0123     		movs	r3, #1
 3306 0026 01AA     		add	r2, sp, #4
 3307 0028 1721     		movs	r1, #23
 3308 002a 2046     		mov	r0, r4
 3309 002c FFF7FEFF 		bl	ism330dhcx_write_reg
 3310 0030 F0E7     		b	.L402
 3312              		.section	.text.ism330dhcx_xl_fast_settling_get,"ax",%progbits
 3313              		.align	1
ARM GAS  C:\Temp\cclPUGyV.s 			page 56


 3314              		.global	ism330dhcx_xl_fast_settling_get
 3315              		.syntax unified
 3316              		.thumb
 3317              		.thumb_func
 3319              	ism330dhcx_xl_fast_settling_get:
 3320              		@ args = 0, pretend = 0, frame = 8
 3321              		@ frame_needed = 0, uses_anonymous_args = 0
 3322 0000 10B5     		push	{r4, lr}
 3323 0002 82B0     		sub	sp, sp, #8
 3324 0004 0C46     		mov	r4, r1
 3325 0006 0123     		movs	r3, #1
 3326 0008 01AA     		add	r2, sp, #4
 3327 000a 1721     		movs	r1, #23
 3328 000c FFF7FEFF 		bl	ism330dhcx_read_reg
 3329 0010 9DF80430 		ldrb	r3, [sp, #4]	@ zero_extendqisi2
 3330 0014 C3F3C003 		ubfx	r3, r3, #3, #1
 3331 0018 2370     		strb	r3, [r4]
 3332 001a 02B0     		add	sp, sp, #8
 3333              		@ sp needed
 3334 001c 10BD     		pop	{r4, pc}
 3336              		.section	.text.ism330dhcx_xl_hp_path_internal_set,"ax",%progbits
 3337              		.align	1
 3338              		.global	ism330dhcx_xl_hp_path_internal_set
 3339              		.syntax unified
 3340              		.thumb
 3341              		.thumb_func
 3343              	ism330dhcx_xl_hp_path_internal_set:
 3344              		@ args = 0, pretend = 0, frame = 8
 3345              		@ frame_needed = 0, uses_anonymous_args = 0
 3346 0000 30B5     		push	{r4, r5, lr}
 3347 0002 83B0     		sub	sp, sp, #12
 3348 0004 0446     		mov	r4, r0
 3349 0006 0D46     		mov	r5, r1
 3350 0008 0123     		movs	r3, #1
 3351 000a 01AA     		add	r2, sp, #4
 3352 000c 5621     		movs	r1, #86
 3353 000e FFF7FEFF 		bl	ism330dhcx_read_reg
 3354 0012 08B1     		cbz	r0, .L411
 3355              	.L408:
 3356 0014 03B0     		add	sp, sp, #12
 3357              		@ sp needed
 3358 0016 30BD     		pop	{r4, r5, pc}
 3359              	.L411:
 3360 0018 9DF80430 		ldrb	r3, [sp, #4]	@ zero_extendqisi2
 3361 001c 65F30413 		bfi	r3, r5, #4, #1
 3362 0020 8DF80430 		strb	r3, [sp, #4]
 3363 0024 0123     		movs	r3, #1
 3364 0026 01AA     		add	r2, sp, #4
 3365 0028 5621     		movs	r1, #86
 3366 002a 2046     		mov	r0, r4
 3367 002c FFF7FEFF 		bl	ism330dhcx_write_reg
 3368 0030 F0E7     		b	.L408
 3370              		.section	.text.ism330dhcx_xl_hp_path_internal_get,"ax",%progbits
 3371              		.align	1
 3372              		.global	ism330dhcx_xl_hp_path_internal_get
 3373              		.syntax unified
 3374              		.thumb
ARM GAS  C:\Temp\cclPUGyV.s 			page 57


 3375              		.thumb_func
 3377              	ism330dhcx_xl_hp_path_internal_get:
 3378              		@ args = 0, pretend = 0, frame = 8
 3379              		@ frame_needed = 0, uses_anonymous_args = 0
 3380 0000 10B5     		push	{r4, lr}
 3381 0002 82B0     		sub	sp, sp, #8
 3382 0004 0C46     		mov	r4, r1
 3383 0006 0123     		movs	r3, #1
 3384 0008 01AA     		add	r2, sp, #4
 3385 000a 5621     		movs	r1, #86
 3386 000c FFF7FEFF 		bl	ism330dhcx_read_reg
 3387 0010 9DF80430 		ldrb	r3, [sp, #4]	@ zero_extendqisi2
 3388 0014 C3F30012 		ubfx	r2, r3, #4, #1
 3389 0018 13F0100F 		tst	r3, #16
 3390 001c 03D0     		beq	.L413
 3391 001e 32B9     		cbnz	r2, .L414
 3392 0020 0023     		movs	r3, #0
 3393 0022 2370     		strb	r3, [r4]
 3394 0024 01E0     		b	.L412
 3395              	.L413:
 3396 0026 0023     		movs	r3, #0
 3397 0028 2370     		strb	r3, [r4]
 3398              	.L412:
 3399 002a 02B0     		add	sp, sp, #8
 3400              		@ sp needed
 3401 002c 10BD     		pop	{r4, pc}
 3402              	.L414:
 3403 002e 0123     		movs	r3, #1
 3404 0030 2370     		strb	r3, [r4]
 3405 0032 FAE7     		b	.L412
 3407              		.section	.text.ism330dhcx_gy_hp_path_internal_set,"ax",%progbits
 3408              		.align	1
 3409              		.global	ism330dhcx_gy_hp_path_internal_set
 3410              		.syntax unified
 3411              		.thumb
 3412              		.thumb_func
 3414              	ism330dhcx_gy_hp_path_internal_set:
 3415              		@ args = 0, pretend = 0, frame = 8
 3416              		@ frame_needed = 0, uses_anonymous_args = 0
 3417 0000 30B5     		push	{r4, r5, lr}
 3418 0002 83B0     		sub	sp, sp, #12
 3419 0004 0546     		mov	r5, r0
 3420 0006 0C46     		mov	r4, r1
 3421 0008 0123     		movs	r3, #1
 3422 000a 01AA     		add	r2, sp, #4
 3423 000c 1621     		movs	r1, #22
 3424 000e FFF7FEFF 		bl	ism330dhcx_read_reg
 3425 0012 08B1     		cbz	r0, .L422
 3426              	.L419:
 3427 0014 03B0     		add	sp, sp, #12
 3428              		@ sp needed
 3429 0016 30BD     		pop	{r4, r5, pc}
 3430              	.L422:
 3431 0018 E209     		lsrs	r2, r4, #7
 3432 001a 9DF80430 		ldrb	r3, [sp, #4]	@ zero_extendqisi2
 3433 001e 62F38613 		bfi	r3, r2, #6, #1
 3434 0022 8DF80430 		strb	r3, [sp, #4]
ARM GAS  C:\Temp\cclPUGyV.s 			page 58


 3435 0026 DBB2     		uxtb	r3, r3
 3436 0028 64F30513 		bfi	r3, r4, #4, #2
 3437 002c 8DF80430 		strb	r3, [sp, #4]
 3438 0030 0123     		movs	r3, #1
 3439 0032 01AA     		add	r2, sp, #4
 3440 0034 1621     		movs	r1, #22
 3441 0036 2846     		mov	r0, r5
 3442 0038 FFF7FEFF 		bl	ism330dhcx_write_reg
 3443 003c EAE7     		b	.L419
 3445              		.section	.text.ism330dhcx_gy_hp_path_internal_get,"ax",%progbits
 3446              		.align	1
 3447              		.global	ism330dhcx_gy_hp_path_internal_get
 3448              		.syntax unified
 3449              		.thumb
 3450              		.thumb_func
 3452              	ism330dhcx_gy_hp_path_internal_get:
 3453              		@ args = 0, pretend = 0, frame = 8
 3454              		@ frame_needed = 0, uses_anonymous_args = 0
 3455 0000 10B5     		push	{r4, lr}
 3456 0002 82B0     		sub	sp, sp, #8
 3457 0004 0C46     		mov	r4, r1
 3458 0006 0123     		movs	r3, #1
 3459 0008 01AA     		add	r2, sp, #4
 3460 000a 1621     		movs	r1, #22
 3461 000c FFF7FEFF 		bl	ism330dhcx_read_reg
 3462 0010 9DF80430 		ldrb	r3, [sp, #4]	@ zero_extendqisi2
 3463 0014 C3F38012 		ubfx	r2, r3, #6, #1
 3464 0018 C3F30113 		ubfx	r3, r3, #4, #2
 3465 001c 13EBC213 		adds	r3, r3, r2, lsl #7
 3466 0020 0CD0     		beq	.L424
 3467 0022 002B     		cmp	r3, #0
 3468 0024 1ADB     		blt	.L425
 3469 0026 832B     		cmp	r3, #131
 3470 0028 18DC     		bgt	.L425
 3471 002a 802B     		cmp	r3, #128
 3472 002c 16DB     		blt	.L425
 3473 002e 803B     		subs	r3, r3, #128
 3474 0030 032B     		cmp	r3, #3
 3475 0032 13D8     		bhi	.L425
 3476 0034 DFE803F0 		tbb	[pc, r3]
 3477              	.L427:
 3478 0038 06       		.byte	(.L430-.L427)/2
 3479 0039 09       		.byte	(.L429-.L427)/2
 3480 003a 0C       		.byte	(.L428-.L427)/2
 3481 003b 0F       		.byte	(.L426-.L427)/2
 3482              		.p2align 1
 3483              	.L424:
 3484 003c 0023     		movs	r3, #0
 3485 003e 2370     		strb	r3, [r4]
 3486              	.L423:
 3487 0040 02B0     		add	sp, sp, #8
 3488              		@ sp needed
 3489 0042 10BD     		pop	{r4, pc}
 3490              	.L430:
 3491 0044 8023     		movs	r3, #128
 3492 0046 2370     		strb	r3, [r4]
 3493 0048 FAE7     		b	.L423
ARM GAS  C:\Temp\cclPUGyV.s 			page 59


 3494              	.L429:
 3495 004a 8123     		movs	r3, #129
 3496 004c 2370     		strb	r3, [r4]
 3497 004e F7E7     		b	.L423
 3498              	.L428:
 3499 0050 8223     		movs	r3, #130
 3500 0052 2370     		strb	r3, [r4]
 3501 0054 F4E7     		b	.L423
 3502              	.L426:
 3503 0056 8323     		movs	r3, #131
 3504 0058 2370     		strb	r3, [r4]
 3505 005a F1E7     		b	.L423
 3506              	.L425:
 3507 005c 0023     		movs	r3, #0
 3508 005e 2370     		strb	r3, [r4]
 3509 0060 EEE7     		b	.L423
 3511              		.section	.text.ism330dhcx_aux_sdo_ocs_mode_set,"ax",%progbits
 3512              		.align	1
 3513              		.global	ism330dhcx_aux_sdo_ocs_mode_set
 3514              		.syntax unified
 3515              		.thumb
 3516              		.thumb_func
 3518              	ism330dhcx_aux_sdo_ocs_mode_set:
 3519              		@ args = 0, pretend = 0, frame = 8
 3520              		@ frame_needed = 0, uses_anonymous_args = 0
 3521 0000 30B5     		push	{r4, r5, lr}
 3522 0002 83B0     		sub	sp, sp, #12
 3523 0004 0446     		mov	r4, r0
 3524 0006 0D46     		mov	r5, r1
 3525 0008 0123     		movs	r3, #1
 3526 000a 01AA     		add	r2, sp, #4
 3527 000c 0221     		movs	r1, #2
 3528 000e FFF7FEFF 		bl	ism330dhcx_read_reg
 3529 0012 08B1     		cbz	r0, .L437
 3530              	.L434:
 3531 0014 03B0     		add	sp, sp, #12
 3532              		@ sp needed
 3533 0016 30BD     		pop	{r4, r5, pc}
 3534              	.L437:
 3535 0018 9DF80430 		ldrb	r3, [sp, #4]	@ zero_extendqisi2
 3536 001c 65F3C713 		bfi	r3, r5, #7, #1
 3537 0020 8DF80430 		strb	r3, [sp, #4]
 3538 0024 0123     		movs	r3, #1
 3539 0026 01AA     		add	r2, sp, #4
 3540 0028 0221     		movs	r1, #2
 3541 002a 2046     		mov	r0, r4
 3542 002c FFF7FEFF 		bl	ism330dhcx_write_reg
 3543 0030 F0E7     		b	.L434
 3545              		.section	.text.ism330dhcx_aux_sdo_ocs_mode_get,"ax",%progbits
 3546              		.align	1
 3547              		.global	ism330dhcx_aux_sdo_ocs_mode_get
 3548              		.syntax unified
 3549              		.thumb
 3550              		.thumb_func
 3552              	ism330dhcx_aux_sdo_ocs_mode_get:
 3553              		@ args = 0, pretend = 0, frame = 8
 3554              		@ frame_needed = 0, uses_anonymous_args = 0
ARM GAS  C:\Temp\cclPUGyV.s 			page 60


 3555 0000 10B5     		push	{r4, lr}
 3556 0002 82B0     		sub	sp, sp, #8
 3557 0004 0C46     		mov	r4, r1
 3558 0006 0123     		movs	r3, #1
 3559 0008 01AA     		add	r2, sp, #4
 3560 000a 0221     		movs	r1, #2
 3561 000c FFF7FEFF 		bl	ism330dhcx_read_reg
 3562 0010 9DF80430 		ldrb	r3, [sp, #4]	@ zero_extendqisi2
 3563 0014 DB09     		lsrs	r3, r3, #7
 3564 0016 03D0     		beq	.L439
 3565 0018 33B9     		cbnz	r3, .L440
 3566 001a 0023     		movs	r3, #0
 3567 001c 2370     		strb	r3, [r4]
 3568 001e 01E0     		b	.L438
 3569              	.L439:
 3570 0020 0023     		movs	r3, #0
 3571 0022 2370     		strb	r3, [r4]
 3572              	.L438:
 3573 0024 02B0     		add	sp, sp, #8
 3574              		@ sp needed
 3575 0026 10BD     		pop	{r4, pc}
 3576              	.L440:
 3577 0028 0123     		movs	r3, #1
 3578 002a 2370     		strb	r3, [r4]
 3579 002c FAE7     		b	.L438
 3581              		.section	.text.ism330dhcx_aux_pw_on_ctrl_set,"ax",%progbits
 3582              		.align	1
 3583              		.global	ism330dhcx_aux_pw_on_ctrl_set
 3584              		.syntax unified
 3585              		.thumb
 3586              		.thumb_func
 3588              	ism330dhcx_aux_pw_on_ctrl_set:
 3589              		@ args = 0, pretend = 0, frame = 8
 3590              		@ frame_needed = 0, uses_anonymous_args = 0
 3591 0000 30B5     		push	{r4, r5, lr}
 3592 0002 83B0     		sub	sp, sp, #12
 3593 0004 0546     		mov	r5, r0
 3594 0006 0C46     		mov	r4, r1
 3595 0008 0123     		movs	r3, #1
 3596 000a 01AA     		add	r2, sp, #4
 3597 000c 1621     		movs	r1, #22
 3598 000e FFF7FEFF 		bl	ism330dhcx_read_reg
 3599 0012 08B1     		cbz	r0, .L448
 3600              	.L445:
 3601 0014 03B0     		add	sp, sp, #12
 3602              		@ sp needed
 3603 0016 30BD     		pop	{r4, r5, pc}
 3604              	.L448:
 3605 0018 04F00101 		and	r1, r4, #1
 3606 001c 9DF80430 		ldrb	r3, [sp, #4]	@ zero_extendqisi2
 3607 0020 61F38203 		bfi	r3, r1, #2, #1
 3608 0024 8DF80430 		strb	r3, [sp, #4]
 3609 0028 DBB2     		uxtb	r3, r3
 3610 002a 61F30003 		bfi	r3, r1, #0, #1
 3611 002e 8DF80430 		strb	r3, [sp, #4]
 3612 0032 0123     		movs	r3, #1
 3613 0034 01AA     		add	r2, sp, #4
ARM GAS  C:\Temp\cclPUGyV.s 			page 61


 3614 0036 1621     		movs	r1, #22
 3615 0038 2846     		mov	r0, r5
 3616 003a FFF7FEFF 		bl	ism330dhcx_write_reg
 3617 003e E9E7     		b	.L445
 3619              		.section	.text.ism330dhcx_aux_pw_on_ctrl_get,"ax",%progbits
 3620              		.align	1
 3621              		.global	ism330dhcx_aux_pw_on_ctrl_get
 3622              		.syntax unified
 3623              		.thumb
 3624              		.thumb_func
 3626              	ism330dhcx_aux_pw_on_ctrl_get:
 3627              		@ args = 0, pretend = 0, frame = 8
 3628              		@ frame_needed = 0, uses_anonymous_args = 0
 3629 0000 10B5     		push	{r4, lr}
 3630 0002 82B0     		sub	sp, sp, #8
 3631 0004 0C46     		mov	r4, r1
 3632 0006 0123     		movs	r3, #1
 3633 0008 01AA     		add	r2, sp, #4
 3634 000a 1621     		movs	r1, #22
 3635 000c FFF7FEFF 		bl	ism330dhcx_read_reg
 3636 0010 9DF80430 		ldrb	r3, [sp, #4]	@ zero_extendqisi2
 3637 0014 13F00103 		ands	r3, r3, #1
 3638 0018 04D0     		beq	.L450
 3639 001a 33B1     		cbz	r3, .L451
 3640 001c 0123     		movs	r3, #1
 3641 001e 2370     		strb	r3, [r4]
 3642              	.L449:
 3643 0020 02B0     		add	sp, sp, #8
 3644              		@ sp needed
 3645 0022 10BD     		pop	{r4, pc}
 3646              	.L450:
 3647 0024 0023     		movs	r3, #0
 3648 0026 2370     		strb	r3, [r4]
 3649 0028 FAE7     		b	.L449
 3650              	.L451:
 3651 002a 0123     		movs	r3, #1
 3652 002c 2370     		strb	r3, [r4]
 3653 002e F7E7     		b	.L449
 3655              		.section	.text.ism330dhcx_aux_status_reg_get,"ax",%progbits
 3656              		.align	1
 3657              		.global	ism330dhcx_aux_status_reg_get
 3658              		.syntax unified
 3659              		.thumb
 3660              		.thumb_func
 3662              	ism330dhcx_aux_status_reg_get:
 3663              		@ args = 0, pretend = 0, frame = 0
 3664              		@ frame_needed = 0, uses_anonymous_args = 0
 3665 0000 08B5     		push	{r3, lr}
 3666 0002 0A46     		mov	r2, r1
 3667 0004 0123     		movs	r3, #1
 3668 0006 1E21     		movs	r1, #30
 3669 0008 FFF7FEFF 		bl	ism330dhcx_read_reg
 3670 000c 08BD     		pop	{r3, pc}
 3672              		.section	.text.ism330dhcx_aux_xl_flag_data_ready_get,"ax",%progbits
 3673              		.align	1
 3674              		.global	ism330dhcx_aux_xl_flag_data_ready_get
 3675              		.syntax unified
ARM GAS  C:\Temp\cclPUGyV.s 			page 62


 3676              		.thumb
 3677              		.thumb_func
 3679              	ism330dhcx_aux_xl_flag_data_ready_get:
 3680              		@ args = 0, pretend = 0, frame = 8
 3681              		@ frame_needed = 0, uses_anonymous_args = 0
 3682 0000 10B5     		push	{r4, lr}
 3683 0002 82B0     		sub	sp, sp, #8
 3684 0004 0C46     		mov	r4, r1
 3685 0006 0123     		movs	r3, #1
 3686 0008 01AA     		add	r2, sp, #4
 3687 000a 1E21     		movs	r1, #30
 3688 000c FFF7FEFF 		bl	ism330dhcx_read_reg
 3689 0010 9DF80430 		ldrb	r3, [sp, #4]	@ zero_extendqisi2
 3690 0014 C3F30003 		ubfx	r3, r3, #0, #1
 3691 0018 2370     		strb	r3, [r4]
 3692 001a 02B0     		add	sp, sp, #8
 3693              		@ sp needed
 3694 001c 10BD     		pop	{r4, pc}
 3696              		.section	.text.ism330dhcx_aux_gy_flag_data_ready_get,"ax",%progbits
 3697              		.align	1
 3698              		.global	ism330dhcx_aux_gy_flag_data_ready_get
 3699              		.syntax unified
 3700              		.thumb
 3701              		.thumb_func
 3703              	ism330dhcx_aux_gy_flag_data_ready_get:
 3704              		@ args = 0, pretend = 0, frame = 8
 3705              		@ frame_needed = 0, uses_anonymous_args = 0
 3706 0000 10B5     		push	{r4, lr}
 3707 0002 82B0     		sub	sp, sp, #8
 3708 0004 0C46     		mov	r4, r1
 3709 0006 0123     		movs	r3, #1
 3710 0008 01AA     		add	r2, sp, #4
 3711 000a 1E21     		movs	r1, #30
 3712 000c FFF7FEFF 		bl	ism330dhcx_read_reg
 3713 0010 9DF80430 		ldrb	r3, [sp, #4]	@ zero_extendqisi2
 3714 0014 C3F34003 		ubfx	r3, r3, #1, #1
 3715 0018 2370     		strb	r3, [r4]
 3716 001a 02B0     		add	sp, sp, #8
 3717              		@ sp needed
 3718 001c 10BD     		pop	{r4, pc}
 3720              		.section	.text.ism330dhcx_aux_gy_flag_settling_get,"ax",%progbits
 3721              		.align	1
 3722              		.global	ism330dhcx_aux_gy_flag_settling_get
 3723              		.syntax unified
 3724              		.thumb
 3725              		.thumb_func
 3727              	ism330dhcx_aux_gy_flag_settling_get:
 3728              		@ args = 0, pretend = 0, frame = 8
 3729              		@ frame_needed = 0, uses_anonymous_args = 0
 3730 0000 10B5     		push	{r4, lr}
 3731 0002 82B0     		sub	sp, sp, #8
 3732 0004 0C46     		mov	r4, r1
 3733 0006 0123     		movs	r3, #1
 3734 0008 01AA     		add	r2, sp, #4
 3735 000a 1E21     		movs	r1, #30
 3736 000c FFF7FEFF 		bl	ism330dhcx_read_reg
 3737 0010 9DF80430 		ldrb	r3, [sp, #4]	@ zero_extendqisi2
ARM GAS  C:\Temp\cclPUGyV.s 			page 63


 3738 0014 C3F38003 		ubfx	r3, r3, #2, #1
 3739 0018 2370     		strb	r3, [r4]
 3740 001a 02B0     		add	sp, sp, #8
 3741              		@ sp needed
 3742 001c 10BD     		pop	{r4, pc}
 3744              		.section	.text.ism330dhcx_aux_xl_self_test_set,"ax",%progbits
 3745              		.align	1
 3746              		.global	ism330dhcx_aux_xl_self_test_set
 3747              		.syntax unified
 3748              		.thumb
 3749              		.thumb_func
 3751              	ism330dhcx_aux_xl_self_test_set:
 3752              		@ args = 0, pretend = 0, frame = 8
 3753              		@ frame_needed = 0, uses_anonymous_args = 0
 3754 0000 30B5     		push	{r4, r5, lr}
 3755 0002 83B0     		sub	sp, sp, #12
 3756 0004 0446     		mov	r4, r0
 3757 0006 0D46     		mov	r5, r1
 3758 0008 0123     		movs	r3, #1
 3759 000a 01AA     		add	r2, sp, #4
 3760 000c 6F21     		movs	r1, #111
 3761 000e FFF7FEFF 		bl	ism330dhcx_read_reg
 3762 0012 08B1     		cbz	r0, .L465
 3763              	.L462:
 3764 0014 03B0     		add	sp, sp, #12
 3765              		@ sp needed
 3766 0016 30BD     		pop	{r4, r5, pc}
 3767              	.L465:
 3768 0018 9DF80430 		ldrb	r3, [sp, #4]	@ zero_extendqisi2
 3769 001c 65F30103 		bfi	r3, r5, #0, #2
 3770 0020 8DF80430 		strb	r3, [sp, #4]
 3771 0024 0123     		movs	r3, #1
 3772 0026 01AA     		add	r2, sp, #4
 3773 0028 6F21     		movs	r1, #111
 3774 002a 2046     		mov	r0, r4
 3775 002c FFF7FEFF 		bl	ism330dhcx_write_reg
 3776 0030 F0E7     		b	.L462
 3778              		.section	.text.ism330dhcx_aux_xl_self_test_get,"ax",%progbits
 3779              		.align	1
 3780              		.global	ism330dhcx_aux_xl_self_test_get
 3781              		.syntax unified
 3782              		.thumb
 3783              		.thumb_func
 3785              	ism330dhcx_aux_xl_self_test_get:
 3786              		@ args = 0, pretend = 0, frame = 8
 3787              		@ frame_needed = 0, uses_anonymous_args = 0
 3788 0000 10B5     		push	{r4, lr}
 3789 0002 82B0     		sub	sp, sp, #8
 3790 0004 0C46     		mov	r4, r1
 3791 0006 0123     		movs	r3, #1
 3792 0008 01AA     		add	r2, sp, #4
 3793 000a 6F21     		movs	r1, #111
 3794 000c FFF7FEFF 		bl	ism330dhcx_read_reg
 3795 0010 9DF80430 		ldrb	r3, [sp, #4]	@ zero_extendqisi2
 3796 0014 03F00303 		and	r3, r3, #3
 3797 0018 012B     		cmp	r3, #1
 3798 001a 08D0     		beq	.L467
ARM GAS  C:\Temp\cclPUGyV.s 			page 64


 3799 001c 022B     		cmp	r3, #2
 3800 001e 09D0     		beq	.L468
 3801 0020 13B1     		cbz	r3, .L472
 3802 0022 0023     		movs	r3, #0
 3803 0024 2370     		strb	r3, [r4]
 3804 0026 00E0     		b	.L466
 3805              	.L472:
 3806 0028 2370     		strb	r3, [r4]
 3807              	.L466:
 3808 002a 02B0     		add	sp, sp, #8
 3809              		@ sp needed
 3810 002c 10BD     		pop	{r4, pc}
 3811              	.L467:
 3812 002e 0123     		movs	r3, #1
 3813 0030 2370     		strb	r3, [r4]
 3814 0032 FAE7     		b	.L466
 3815              	.L468:
 3816 0034 0223     		movs	r3, #2
 3817 0036 2370     		strb	r3, [r4]
 3818 0038 F7E7     		b	.L466
 3820              		.section	.text.ism330dhcx_aux_den_polarity_set,"ax",%progbits
 3821              		.align	1
 3822              		.global	ism330dhcx_aux_den_polarity_set
 3823              		.syntax unified
 3824              		.thumb
 3825              		.thumb_func
 3827              	ism330dhcx_aux_den_polarity_set:
 3828              		@ args = 0, pretend = 0, frame = 8
 3829              		@ frame_needed = 0, uses_anonymous_args = 0
 3830 0000 30B5     		push	{r4, r5, lr}
 3831 0002 83B0     		sub	sp, sp, #12
 3832 0004 0446     		mov	r4, r0
 3833 0006 0D46     		mov	r5, r1
 3834 0008 0123     		movs	r3, #1
 3835 000a 01AA     		add	r2, sp, #4
 3836 000c 6F21     		movs	r1, #111
 3837 000e FFF7FEFF 		bl	ism330dhcx_read_reg
 3838 0012 08B1     		cbz	r0, .L476
 3839              	.L473:
 3840 0014 03B0     		add	sp, sp, #12
 3841              		@ sp needed
 3842 0016 30BD     		pop	{r4, r5, pc}
 3843              	.L476:
 3844 0018 9DF80430 		ldrb	r3, [sp, #4]	@ zero_extendqisi2
 3845 001c 65F34513 		bfi	r3, r5, #5, #1
 3846 0020 8DF80430 		strb	r3, [sp, #4]
 3847 0024 0123     		movs	r3, #1
 3848 0026 01AA     		add	r2, sp, #4
 3849 0028 6F21     		movs	r1, #111
 3850 002a 2046     		mov	r0, r4
 3851 002c FFF7FEFF 		bl	ism330dhcx_write_reg
 3852 0030 F0E7     		b	.L473
 3854              		.section	.text.ism330dhcx_aux_den_polarity_get,"ax",%progbits
 3855              		.align	1
 3856              		.global	ism330dhcx_aux_den_polarity_get
 3857              		.syntax unified
 3858              		.thumb
ARM GAS  C:\Temp\cclPUGyV.s 			page 65


 3859              		.thumb_func
 3861              	ism330dhcx_aux_den_polarity_get:
 3862              		@ args = 0, pretend = 0, frame = 8
 3863              		@ frame_needed = 0, uses_anonymous_args = 0
 3864 0000 10B5     		push	{r4, lr}
 3865 0002 82B0     		sub	sp, sp, #8
 3866 0004 0C46     		mov	r4, r1
 3867 0006 0123     		movs	r3, #1
 3868 0008 01AA     		add	r2, sp, #4
 3869 000a 6F21     		movs	r1, #111
 3870 000c FFF7FEFF 		bl	ism330dhcx_read_reg
 3871 0010 9DF80430 		ldrb	r3, [sp, #4]	@ zero_extendqisi2
 3872 0014 C3F34012 		ubfx	r2, r3, #5, #1
 3873 0018 13F0200F 		tst	r3, #32
 3874 001c 03D0     		beq	.L478
 3875 001e 32B9     		cbnz	r2, .L479
 3876 0020 0023     		movs	r3, #0
 3877 0022 2370     		strb	r3, [r4]
 3878 0024 01E0     		b	.L477
 3879              	.L478:
 3880 0026 0023     		movs	r3, #0
 3881 0028 2370     		strb	r3, [r4]
 3882              	.L477:
 3883 002a 02B0     		add	sp, sp, #8
 3884              		@ sp needed
 3885 002c 10BD     		pop	{r4, pc}
 3886              	.L479:
 3887 002e 0123     		movs	r3, #1
 3888 0030 2370     		strb	r3, [r4]
 3889 0032 FAE7     		b	.L477
 3891              		.section	.text.ism330dhcx_aux_den_mode_set,"ax",%progbits
 3892              		.align	1
 3893              		.global	ism330dhcx_aux_den_mode_set
 3894              		.syntax unified
 3895              		.thumb
 3896              		.thumb_func
 3898              	ism330dhcx_aux_den_mode_set:
 3899              		@ args = 0, pretend = 0, frame = 8
 3900              		@ frame_needed = 0, uses_anonymous_args = 0
 3901 0000 30B5     		push	{r4, r5, lr}
 3902 0002 83B0     		sub	sp, sp, #12
 3903 0004 0546     		mov	r5, r0
 3904 0006 0C46     		mov	r4, r1
 3905 0008 0123     		movs	r3, #1
 3906 000a 01AA     		add	r2, sp, #4
 3907 000c 6F21     		movs	r1, #111
 3908 000e FFF7FEFF 		bl	ism330dhcx_read_reg
 3909 0012 0346     		mov	r3, r0
 3910 0014 18B1     		cbz	r0, .L488
 3911              	.L485:
 3912 0016 CBB1     		cbz	r3, .L489
 3913              	.L484:
 3914 0018 1846     		mov	r0, r3
 3915 001a 03B0     		add	sp, sp, #12
 3916              		@ sp needed
 3917 001c 30BD     		pop	{r4, r5, pc}
 3918              	.L488:
ARM GAS  C:\Temp\cclPUGyV.s 			page 66


 3919 001e 9DF80430 		ldrb	r3, [sp, #4]	@ zero_extendqisi2
 3920 0022 64F38613 		bfi	r3, r4, #6, #1
 3921 0026 8DF80430 		strb	r3, [sp, #4]
 3922 002a 0123     		movs	r3, #1
 3923 002c 01AA     		add	r2, sp, #4
 3924 002e 6F21     		movs	r1, #111
 3925 0030 2846     		mov	r0, r5
 3926 0032 FFF7FEFF 		bl	ism330dhcx_write_reg
 3927 0036 0346     		mov	r3, r0
 3928 0038 0028     		cmp	r0, #0
 3929 003a EDD1     		bne	.L484
 3930 003c 0123     		movs	r3, #1
 3931 003e 6A46     		mov	r2, sp
 3932 0040 7021     		movs	r1, #112
 3933 0042 2846     		mov	r0, r5
 3934 0044 FFF7FEFF 		bl	ism330dhcx_read_reg
 3935 0048 0346     		mov	r3, r0
 3936 004a E4E7     		b	.L485
 3937              	.L489:
 3938 004c C4F34001 		ubfx	r1, r4, #1, #1
 3939 0050 9DF80030 		ldrb	r3, [sp]	@ zero_extendqisi2
 3940 0054 61F38613 		bfi	r3, r1, #6, #1
 3941 0058 8DF80030 		strb	r3, [sp]
 3942 005c 0123     		movs	r3, #1
 3943 005e 6A46     		mov	r2, sp
 3944 0060 7021     		movs	r1, #112
 3945 0062 2846     		mov	r0, r5
 3946 0064 FFF7FEFF 		bl	ism330dhcx_write_reg
 3947 0068 0346     		mov	r3, r0
 3948 006a D5E7     		b	.L484
 3950              		.section	.text.ism330dhcx_aux_den_mode_get,"ax",%progbits
 3951              		.align	1
 3952              		.global	ism330dhcx_aux_den_mode_get
 3953              		.syntax unified
 3954              		.thumb
 3955              		.thumb_func
 3957              	ism330dhcx_aux_den_mode_get:
 3958              		@ args = 0, pretend = 0, frame = 8
 3959              		@ frame_needed = 0, uses_anonymous_args = 0
 3960 0000 30B5     		push	{r4, r5, lr}
 3961 0002 83B0     		sub	sp, sp, #12
 3962 0004 0546     		mov	r5, r0
 3963 0006 0C46     		mov	r4, r1
 3964 0008 0123     		movs	r3, #1
 3965 000a 01AA     		add	r2, sp, #4
 3966 000c 6F21     		movs	r1, #111
 3967 000e FFF7FEFF 		bl	ism330dhcx_read_reg
 3968 0012 88B1     		cbz	r0, .L497
 3969              	.L491:
 3970 0014 9DF80020 		ldrb	r2, [sp]	@ zero_extendqisi2
 3971 0018 C2F38012 		ubfx	r2, r2, #6, #1
 3972 001c 9DF80430 		ldrb	r3, [sp, #4]	@ zero_extendqisi2
 3973 0020 C3F38013 		ubfx	r3, r3, #6, #1
 3974 0024 03EB4203 		add	r3, r3, r2, lsl #1
 3975 0028 022B     		cmp	r3, #2
 3976 002a 12D0     		beq	.L492
 3977 002c 032B     		cmp	r3, #3
ARM GAS  C:\Temp\cclPUGyV.s 			page 67


 3978 002e 0DD0     		beq	.L493
 3979 0030 4BB1     		cbz	r3, .L498
 3980 0032 0023     		movs	r3, #0
 3981 0034 2370     		strb	r3, [r4]
 3982 0036 07E0     		b	.L490
 3983              	.L497:
 3984 0038 0123     		movs	r3, #1
 3985 003a 6A46     		mov	r2, sp
 3986 003c 7021     		movs	r1, #112
 3987 003e 2846     		mov	r0, r5
 3988 0040 FFF7FEFF 		bl	ism330dhcx_read_reg
 3989 0044 E6E7     		b	.L491
 3990              	.L498:
 3991 0046 2370     		strb	r3, [r4]
 3992              	.L490:
 3993 0048 03B0     		add	sp, sp, #12
 3994              		@ sp needed
 3995 004a 30BD     		pop	{r4, r5, pc}
 3996              	.L493:
 3997 004c 0323     		movs	r3, #3
 3998 004e 2370     		strb	r3, [r4]
 3999 0050 FAE7     		b	.L490
 4000              	.L492:
 4001 0052 0223     		movs	r3, #2
 4002 0054 2370     		strb	r3, [r4]
 4003 0056 F7E7     		b	.L490
 4005              		.section	.text.ism330dhcx_aux_drdy_on_int2_set,"ax",%progbits
 4006              		.align	1
 4007              		.global	ism330dhcx_aux_drdy_on_int2_set
 4008              		.syntax unified
 4009              		.thumb
 4010              		.thumb_func
 4012              	ism330dhcx_aux_drdy_on_int2_set:
 4013              		@ args = 0, pretend = 0, frame = 8
 4014              		@ frame_needed = 0, uses_anonymous_args = 0
 4015 0000 30B5     		push	{r4, r5, lr}
 4016 0002 83B0     		sub	sp, sp, #12
 4017 0004 0446     		mov	r4, r0
 4018 0006 0D46     		mov	r5, r1
 4019 0008 0123     		movs	r3, #1
 4020 000a 01AA     		add	r2, sp, #4
 4021 000c 6F21     		movs	r1, #111
 4022 000e FFF7FEFF 		bl	ism330dhcx_read_reg
 4023 0012 08B1     		cbz	r0, .L502
 4024              	.L499:
 4025 0014 03B0     		add	sp, sp, #12
 4026              		@ sp needed
 4027 0016 30BD     		pop	{r4, r5, pc}
 4028              	.L502:
 4029 0018 9DF80430 		ldrb	r3, [sp, #4]	@ zero_extendqisi2
 4030 001c 65F3C713 		bfi	r3, r5, #7, #1
 4031 0020 8DF80430 		strb	r3, [sp, #4]
 4032 0024 0123     		movs	r3, #1
 4033 0026 01AA     		add	r2, sp, #4
 4034 0028 6F21     		movs	r1, #111
 4035 002a 2046     		mov	r0, r4
 4036 002c FFF7FEFF 		bl	ism330dhcx_write_reg
ARM GAS  C:\Temp\cclPUGyV.s 			page 68


 4037 0030 F0E7     		b	.L499
 4039              		.section	.text.ism330dhcx_aux_drdy_on_int2_get,"ax",%progbits
 4040              		.align	1
 4041              		.global	ism330dhcx_aux_drdy_on_int2_get
 4042              		.syntax unified
 4043              		.thumb
 4044              		.thumb_func
 4046              	ism330dhcx_aux_drdy_on_int2_get:
 4047              		@ args = 0, pretend = 0, frame = 8
 4048              		@ frame_needed = 0, uses_anonymous_args = 0
 4049 0000 10B5     		push	{r4, lr}
 4050 0002 82B0     		sub	sp, sp, #8
 4051 0004 0C46     		mov	r4, r1
 4052 0006 0123     		movs	r3, #1
 4053 0008 01AA     		add	r2, sp, #4
 4054 000a 6F21     		movs	r1, #111
 4055 000c FFF7FEFF 		bl	ism330dhcx_read_reg
 4056 0010 9DF80430 		ldrb	r3, [sp, #4]	@ zero_extendqisi2
 4057 0014 C3F3C013 		ubfx	r3, r3, #7, #1
 4058 0018 2370     		strb	r3, [r4]
 4059 001a 02B0     		add	sp, sp, #8
 4060              		@ sp needed
 4061 001c 10BD     		pop	{r4, pc}
 4063              		.section	.text.ism330dhcx_aux_mode_set,"ax",%progbits
 4064              		.align	1
 4065              		.global	ism330dhcx_aux_mode_set
 4066              		.syntax unified
 4067              		.thumb
 4068              		.thumb_func
 4070              	ism330dhcx_aux_mode_set:
 4071              		@ args = 0, pretend = 0, frame = 8
 4072              		@ frame_needed = 0, uses_anonymous_args = 0
 4073 0000 30B5     		push	{r4, r5, lr}
 4074 0002 83B0     		sub	sp, sp, #12
 4075 0004 0546     		mov	r5, r0
 4076 0006 0C46     		mov	r4, r1
 4077 0008 0123     		movs	r3, #1
 4078 000a 01AA     		add	r2, sp, #4
 4079 000c 7021     		movs	r1, #112
 4080 000e FFF7FEFF 		bl	ism330dhcx_read_reg
 4081 0012 08B1     		cbz	r0, .L508
 4082              	.L505:
 4083 0014 03B0     		add	sp, sp, #12
 4084              		@ sp needed
 4085 0016 30BD     		pop	{r4, r5, pc}
 4086              	.L508:
 4087 0018 9DF80430 		ldrb	r3, [sp, #4]	@ zero_extendqisi2
 4088 001c 64F30003 		bfi	r3, r4, #0, #1
 4089 0020 8DF80430 		strb	r3, [sp, #4]
 4090 0024 C4F34001 		ubfx	r1, r4, #1, #1
 4091 0028 DBB2     		uxtb	r3, r3
 4092 002a 61F30413 		bfi	r3, r1, #4, #1
 4093 002e 8DF80430 		strb	r3, [sp, #4]
 4094 0032 0123     		movs	r3, #1
 4095 0034 01AA     		add	r2, sp, #4
 4096 0036 7021     		movs	r1, #112
 4097 0038 2846     		mov	r0, r5
ARM GAS  C:\Temp\cclPUGyV.s 			page 69


 4098 003a FFF7FEFF 		bl	ism330dhcx_write_reg
 4099 003e E9E7     		b	.L505
 4101              		.section	.text.ism330dhcx_aux_mode_get,"ax",%progbits
 4102              		.align	1
 4103              		.global	ism330dhcx_aux_mode_get
 4104              		.syntax unified
 4105              		.thumb
 4106              		.thumb_func
 4108              	ism330dhcx_aux_mode_get:
 4109              		@ args = 0, pretend = 0, frame = 8
 4110              		@ frame_needed = 0, uses_anonymous_args = 0
 4111 0000 10B5     		push	{r4, lr}
 4112 0002 82B0     		sub	sp, sp, #8
 4113 0004 0C46     		mov	r4, r1
 4114 0006 0123     		movs	r3, #1
 4115 0008 01AA     		add	r2, sp, #4
 4116 000a 7021     		movs	r1, #112
 4117 000c FFF7FEFF 		bl	ism330dhcx_read_reg
 4118 0010 9DF80430 		ldrb	r3, [sp, #4]	@ zero_extendqisi2
 4119 0014 C3F30012 		ubfx	r2, r3, #4, #1
 4120 0018 03F00103 		and	r3, r3, #1
 4121 001c 03EB4203 		add	r3, r3, r2, lsl #1
 4122 0020 012B     		cmp	r3, #1
 4123 0022 08D0     		beq	.L510
 4124 0024 032B     		cmp	r3, #3
 4125 0026 09D0     		beq	.L511
 4126 0028 13B1     		cbz	r3, .L515
 4127 002a 0023     		movs	r3, #0
 4128 002c 2370     		strb	r3, [r4]
 4129 002e 00E0     		b	.L509
 4130              	.L515:
 4131 0030 2370     		strb	r3, [r4]
 4132              	.L509:
 4133 0032 02B0     		add	sp, sp, #8
 4134              		@ sp needed
 4135 0034 10BD     		pop	{r4, pc}
 4136              	.L510:
 4137 0036 0123     		movs	r3, #1
 4138 0038 2370     		strb	r3, [r4]
 4139 003a FAE7     		b	.L509
 4140              	.L511:
 4141 003c 0323     		movs	r3, #3
 4142 003e 2370     		strb	r3, [r4]
 4143 0040 F7E7     		b	.L509
 4145              		.section	.text.ism330dhcx_aux_gy_full_scale_set,"ax",%progbits
 4146              		.align	1
 4147              		.global	ism330dhcx_aux_gy_full_scale_set
 4148              		.syntax unified
 4149              		.thumb
 4150              		.thumb_func
 4152              	ism330dhcx_aux_gy_full_scale_set:
 4153              		@ args = 0, pretend = 0, frame = 8
 4154              		@ frame_needed = 0, uses_anonymous_args = 0
 4155 0000 30B5     		push	{r4, r5, lr}
 4156 0002 83B0     		sub	sp, sp, #12
 4157 0004 0546     		mov	r5, r0
 4158 0006 0C46     		mov	r4, r1
ARM GAS  C:\Temp\cclPUGyV.s 			page 70


 4159 0008 0123     		movs	r3, #1
 4160 000a 01AA     		add	r2, sp, #4
 4161 000c 7021     		movs	r1, #112
 4162 000e FFF7FEFF 		bl	ism330dhcx_read_reg
 4163 0012 08B1     		cbz	r0, .L519
 4164              	.L516:
 4165 0014 03B0     		add	sp, sp, #12
 4166              		@ sp needed
 4167 0016 30BD     		pop	{r4, r5, pc}
 4168              	.L519:
 4169 0018 9DF80430 		ldrb	r3, [sp, #4]	@ zero_extendqisi2
 4170 001c 64F38303 		bfi	r3, r4, #2, #2
 4171 0020 8DF80430 		strb	r3, [sp, #4]
 4172 0024 C4F38001 		ubfx	r1, r4, #2, #1
 4173 0028 DBB2     		uxtb	r3, r3
 4174 002a 61F34103 		bfi	r3, r1, #1, #1
 4175 002e 8DF80430 		strb	r3, [sp, #4]
 4176 0032 0123     		movs	r3, #1
 4177 0034 01AA     		add	r2, sp, #4
 4178 0036 7021     		movs	r1, #112
 4179 0038 2846     		mov	r0, r5
 4180 003a FFF7FEFF 		bl	ism330dhcx_write_reg
 4181 003e E9E7     		b	.L516
 4183              		.section	.text.ism330dhcx_aux_gy_full_scale_get,"ax",%progbits
 4184              		.align	1
 4185              		.global	ism330dhcx_aux_gy_full_scale_get
 4186              		.syntax unified
 4187              		.thumb
 4188              		.thumb_func
 4190              	ism330dhcx_aux_gy_full_scale_get:
 4191              		@ args = 0, pretend = 0, frame = 8
 4192              		@ frame_needed = 0, uses_anonymous_args = 0
 4193 0000 10B5     		push	{r4, lr}
 4194 0002 82B0     		sub	sp, sp, #8
 4195 0004 0C46     		mov	r4, r1
 4196 0006 0123     		movs	r3, #1
 4197 0008 01AA     		add	r2, sp, #4
 4198 000a 7021     		movs	r1, #112
 4199 000c FFF7FEFF 		bl	ism330dhcx_read_reg
 4200 0010 9DF80430 		ldrb	r3, [sp, #4]	@ zero_extendqisi2
 4201 0014 C3F34002 		ubfx	r2, r3, #1, #1
 4202 0018 C3F38103 		ubfx	r3, r3, #2, #2
 4203 001c 03EB8203 		add	r3, r3, r2, lsl #2
 4204 0020 042B     		cmp	r3, #4
 4205 0022 14D8     		bhi	.L521
 4206 0024 DFE803F0 		tbb	[pc, r3]
 4207              	.L523:
 4208 0028 03       		.byte	(.L527-.L523)/2
 4209 0029 0A       		.byte	(.L526-.L523)/2
 4210 002a 0D       		.byte	(.L525-.L523)/2
 4211 002b 10       		.byte	(.L524-.L523)/2
 4212 002c 07       		.byte	(.L522-.L523)/2
 4213 002d 00       		.p2align 1
 4214              	.L527:
 4215 002e 0023     		movs	r3, #0
 4216 0030 2370     		strb	r3, [r4]
 4217              	.L520:
ARM GAS  C:\Temp\cclPUGyV.s 			page 71


 4218 0032 02B0     		add	sp, sp, #8
 4219              		@ sp needed
 4220 0034 10BD     		pop	{r4, pc}
 4221              	.L522:
 4222 0036 0423     		movs	r3, #4
 4223 0038 2370     		strb	r3, [r4]
 4224 003a FAE7     		b	.L520
 4225              	.L526:
 4226 003c 0123     		movs	r3, #1
 4227 003e 2370     		strb	r3, [r4]
 4228 0040 F7E7     		b	.L520
 4229              	.L525:
 4230 0042 0223     		movs	r3, #2
 4231 0044 2370     		strb	r3, [r4]
 4232 0046 F4E7     		b	.L520
 4233              	.L524:
 4234 0048 0323     		movs	r3, #3
 4235 004a 2370     		strb	r3, [r4]
 4236 004c F1E7     		b	.L520
 4237              	.L521:
 4238 004e 0023     		movs	r3, #0
 4239 0050 2370     		strb	r3, [r4]
 4240 0052 EEE7     		b	.L520
 4242              		.section	.text.ism330dhcx_aux_spi_mode_set,"ax",%progbits
 4243              		.align	1
 4244              		.global	ism330dhcx_aux_spi_mode_set
 4245              		.syntax unified
 4246              		.thumb
 4247              		.thumb_func
 4249              	ism330dhcx_aux_spi_mode_set:
 4250              		@ args = 0, pretend = 0, frame = 8
 4251              		@ frame_needed = 0, uses_anonymous_args = 0
 4252 0000 30B5     		push	{r4, r5, lr}
 4253 0002 83B0     		sub	sp, sp, #12
 4254 0004 0446     		mov	r4, r0
 4255 0006 0D46     		mov	r5, r1
 4256 0008 0123     		movs	r3, #1
 4257 000a 01AA     		add	r2, sp, #4
 4258 000c 7021     		movs	r1, #112
 4259 000e FFF7FEFF 		bl	ism330dhcx_read_reg
 4260 0012 08B1     		cbz	r0, .L533
 4261              	.L530:
 4262 0014 03B0     		add	sp, sp, #12
 4263              		@ sp needed
 4264 0016 30BD     		pop	{r4, r5, pc}
 4265              	.L533:
 4266 0018 9DF80430 		ldrb	r3, [sp, #4]	@ zero_extendqisi2
 4267 001c 65F34513 		bfi	r3, r5, #5, #1
 4268 0020 8DF80430 		strb	r3, [sp, #4]
 4269 0024 0123     		movs	r3, #1
 4270 0026 01AA     		add	r2, sp, #4
 4271 0028 7021     		movs	r1, #112
 4272 002a 2046     		mov	r0, r4
 4273 002c FFF7FEFF 		bl	ism330dhcx_write_reg
 4274 0030 F0E7     		b	.L530
 4276              		.section	.text.ism330dhcx_aux_spi_mode_get,"ax",%progbits
 4277              		.align	1
ARM GAS  C:\Temp\cclPUGyV.s 			page 72


 4278              		.global	ism330dhcx_aux_spi_mode_get
 4279              		.syntax unified
 4280              		.thumb
 4281              		.thumb_func
 4283              	ism330dhcx_aux_spi_mode_get:
 4284              		@ args = 0, pretend = 0, frame = 8
 4285              		@ frame_needed = 0, uses_anonymous_args = 0
 4286 0000 10B5     		push	{r4, lr}
 4287 0002 82B0     		sub	sp, sp, #8
 4288 0004 0C46     		mov	r4, r1
 4289 0006 0123     		movs	r3, #1
 4290 0008 01AA     		add	r2, sp, #4
 4291 000a 7021     		movs	r1, #112
 4292 000c FFF7FEFF 		bl	ism330dhcx_read_reg
 4293 0010 9DF80430 		ldrb	r3, [sp, #4]	@ zero_extendqisi2
 4294 0014 C3F34012 		ubfx	r2, r3, #5, #1
 4295 0018 13F0200F 		tst	r3, #32
 4296 001c 03D0     		beq	.L535
 4297 001e 32B9     		cbnz	r2, .L536
 4298 0020 0023     		movs	r3, #0
 4299 0022 2370     		strb	r3, [r4]
 4300 0024 01E0     		b	.L534
 4301              	.L535:
 4302 0026 0023     		movs	r3, #0
 4303 0028 2370     		strb	r3, [r4]
 4304              	.L534:
 4305 002a 02B0     		add	sp, sp, #8
 4306              		@ sp needed
 4307 002c 10BD     		pop	{r4, pc}
 4308              	.L536:
 4309 002e 0123     		movs	r3, #1
 4310 0030 2370     		strb	r3, [r4]
 4311 0032 FAE7     		b	.L534
 4313              		.section	.text.ism330dhcx_aux_gy_lp1_bandwidth_set,"ax",%progbits
 4314              		.align	1
 4315              		.global	ism330dhcx_aux_gy_lp1_bandwidth_set
 4316              		.syntax unified
 4317              		.thumb
 4318              		.thumb_func
 4320              	ism330dhcx_aux_gy_lp1_bandwidth_set:
 4321              		@ args = 0, pretend = 0, frame = 8
 4322              		@ frame_needed = 0, uses_anonymous_args = 0
 4323 0000 30B5     		push	{r4, r5, lr}
 4324 0002 83B0     		sub	sp, sp, #12
 4325 0004 0446     		mov	r4, r0
 4326 0006 0D46     		mov	r5, r1
 4327 0008 0123     		movs	r3, #1
 4328 000a 01AA     		add	r2, sp, #4
 4329 000c 7121     		movs	r1, #113
 4330 000e FFF7FEFF 		bl	ism330dhcx_read_reg
 4331 0012 08B1     		cbz	r0, .L544
 4332              	.L541:
 4333 0014 03B0     		add	sp, sp, #12
 4334              		@ sp needed
 4335 0016 30BD     		pop	{r4, r5, pc}
 4336              	.L544:
 4337 0018 9DF80430 		ldrb	r3, [sp, #4]	@ zero_extendqisi2
ARM GAS  C:\Temp\cclPUGyV.s 			page 73


 4338 001c 65F34203 		bfi	r3, r5, #1, #2
 4339 0020 8DF80430 		strb	r3, [sp, #4]
 4340 0024 0123     		movs	r3, #1
 4341 0026 01AA     		add	r2, sp, #4
 4342 0028 7121     		movs	r1, #113
 4343 002a 2046     		mov	r0, r4
 4344 002c FFF7FEFF 		bl	ism330dhcx_write_reg
 4345 0030 F0E7     		b	.L541
 4347              		.section	.text.ism330dhcx_aux_gy_lp1_bandwidth_get,"ax",%progbits
 4348              		.align	1
 4349              		.global	ism330dhcx_aux_gy_lp1_bandwidth_get
 4350              		.syntax unified
 4351              		.thumb
 4352              		.thumb_func
 4354              	ism330dhcx_aux_gy_lp1_bandwidth_get:
 4355              		@ args = 0, pretend = 0, frame = 8
 4356              		@ frame_needed = 0, uses_anonymous_args = 0
 4357 0000 10B5     		push	{r4, lr}
 4358 0002 82B0     		sub	sp, sp, #8
 4359 0004 0C46     		mov	r4, r1
 4360 0006 0123     		movs	r3, #1
 4361 0008 01AA     		add	r2, sp, #4
 4362 000a 7121     		movs	r1, #113
 4363 000c FFF7FEFF 		bl	ism330dhcx_read_reg
 4364 0010 9DF80430 		ldrb	r3, [sp, #4]	@ zero_extendqisi2
 4365 0014 C3F34103 		ubfx	r3, r3, #1, #2
 4366 0018 032B     		cmp	r3, #3
 4367 001a 10D8     		bhi	.L546
 4368 001c DFE803F0 		tbb	[pc, r3]
 4369              	.L548:
 4370 0020 02       		.byte	(.L551-.L548)/2
 4371 0021 06       		.byte	(.L550-.L548)/2
 4372 0022 09       		.byte	(.L549-.L548)/2
 4373 0023 0C       		.byte	(.L547-.L548)/2
 4374              		.p2align 1
 4375              	.L551:
 4376 0024 0023     		movs	r3, #0
 4377 0026 2370     		strb	r3, [r4]
 4378              	.L545:
 4379 0028 02B0     		add	sp, sp, #8
 4380              		@ sp needed
 4381 002a 10BD     		pop	{r4, pc}
 4382              	.L550:
 4383 002c 0123     		movs	r3, #1
 4384 002e 2370     		strb	r3, [r4]
 4385 0030 FAE7     		b	.L545
 4386              	.L549:
 4387 0032 0223     		movs	r3, #2
 4388 0034 2370     		strb	r3, [r4]
 4389 0036 F7E7     		b	.L545
 4390              	.L547:
 4391 0038 0323     		movs	r3, #3
 4392 003a 2370     		strb	r3, [r4]
 4393 003c F4E7     		b	.L545
 4394              	.L546:
 4395 003e 0023     		movs	r3, #0
 4396 0040 2370     		strb	r3, [r4]
ARM GAS  C:\Temp\cclPUGyV.s 			page 74


 4397 0042 F1E7     		b	.L545
 4399              		.section	.text.ism330dhcx_aux_gy_hp_bandwidth_set,"ax",%progbits
 4400              		.align	1
 4401              		.global	ism330dhcx_aux_gy_hp_bandwidth_set
 4402              		.syntax unified
 4403              		.thumb
 4404              		.thumb_func
 4406              	ism330dhcx_aux_gy_hp_bandwidth_set:
 4407              		@ args = 0, pretend = 0, frame = 8
 4408              		@ frame_needed = 0, uses_anonymous_args = 0
 4409 0000 30B5     		push	{r4, r5, lr}
 4410 0002 83B0     		sub	sp, sp, #12
 4411 0004 0546     		mov	r5, r0
 4412 0006 0C46     		mov	r4, r1
 4413 0008 0123     		movs	r3, #1
 4414 000a 01AA     		add	r2, sp, #4
 4415 000c 7121     		movs	r1, #113
 4416 000e FFF7FEFF 		bl	ism330dhcx_read_reg
 4417 0012 08B1     		cbz	r0, .L557
 4418              	.L554:
 4419 0014 03B0     		add	sp, sp, #12
 4420              		@ sp needed
 4421 0016 30BD     		pop	{r4, r5, pc}
 4422              	.L557:
 4423 0018 9DF80430 		ldrb	r3, [sp, #4]	@ zero_extendqisi2
 4424 001c 64F30513 		bfi	r3, r4, #4, #2
 4425 0020 8DF80430 		strb	r3, [sp, #4]
 4426 0024 C4F30011 		ubfx	r1, r4, #4, #1
 4427 0028 DBB2     		uxtb	r3, r3
 4428 002a 61F30003 		bfi	r3, r1, #0, #1
 4429 002e 8DF80430 		strb	r3, [sp, #4]
 4430 0032 0123     		movs	r3, #1
 4431 0034 01AA     		add	r2, sp, #4
 4432 0036 7121     		movs	r1, #113
 4433 0038 2846     		mov	r0, r5
 4434 003a FFF7FEFF 		bl	ism330dhcx_write_reg
 4435 003e E9E7     		b	.L554
 4437              		.section	.text.ism330dhcx_aux_gy_hp_bandwidth_get,"ax",%progbits
 4438              		.align	1
 4439              		.global	ism330dhcx_aux_gy_hp_bandwidth_get
 4440              		.syntax unified
 4441              		.thumb
 4442              		.thumb_func
 4444              	ism330dhcx_aux_gy_hp_bandwidth_get:
 4445              		@ args = 0, pretend = 0, frame = 8
 4446              		@ frame_needed = 0, uses_anonymous_args = 0
 4447 0000 10B5     		push	{r4, lr}
 4448 0002 82B0     		sub	sp, sp, #8
 4449 0004 0C46     		mov	r4, r1
 4450 0006 0123     		movs	r3, #1
 4451 0008 01AA     		add	r2, sp, #4
 4452 000a 7121     		movs	r1, #113
 4453 000c FFF7FEFF 		bl	ism330dhcx_read_reg
 4454 0010 9DF80430 		ldrb	r3, [sp, #4]	@ zero_extendqisi2
 4455 0014 03F00102 		and	r2, r3, #1
 4456 0018 C3F30113 		ubfx	r3, r3, #4, #2
 4457 001c 03EB0213 		add	r3, r3, r2, lsl #4
ARM GAS  C:\Temp\cclPUGyV.s 			page 75


 4458 0020 132B     		cmp	r3, #19
 4459 0022 1BD8     		bhi	.L559
 4460 0024 DFE803F0 		tbb	[pc, r3]
 4461              	.L561:
 4462 0028 0A       		.byte	(.L565-.L561)/2
 4463 0029 1A       		.byte	(.L559-.L561)/2
 4464 002a 1A       		.byte	(.L559-.L561)/2
 4465 002b 1A       		.byte	(.L559-.L561)/2
 4466 002c 1A       		.byte	(.L559-.L561)/2
 4467 002d 1A       		.byte	(.L559-.L561)/2
 4468 002e 1A       		.byte	(.L559-.L561)/2
 4469 002f 1A       		.byte	(.L559-.L561)/2
 4470 0030 1A       		.byte	(.L559-.L561)/2
 4471 0031 1A       		.byte	(.L559-.L561)/2
 4472 0032 1A       		.byte	(.L559-.L561)/2
 4473 0033 1A       		.byte	(.L559-.L561)/2
 4474 0034 1A       		.byte	(.L559-.L561)/2
 4475 0035 1A       		.byte	(.L559-.L561)/2
 4476 0036 1A       		.byte	(.L559-.L561)/2
 4477 0037 1A       		.byte	(.L559-.L561)/2
 4478 0038 0E       		.byte	(.L564-.L561)/2
 4479 0039 11       		.byte	(.L563-.L561)/2
 4480 003a 14       		.byte	(.L562-.L561)/2
 4481 003b 17       		.byte	(.L560-.L561)/2
 4482              		.p2align 1
 4483              	.L565:
 4484 003c 0023     		movs	r3, #0
 4485 003e 2370     		strb	r3, [r4]
 4486              	.L558:
 4487 0040 02B0     		add	sp, sp, #8
 4488              		@ sp needed
 4489 0042 10BD     		pop	{r4, pc}
 4490              	.L564:
 4491 0044 1023     		movs	r3, #16
 4492 0046 2370     		strb	r3, [r4]
 4493 0048 FAE7     		b	.L558
 4494              	.L563:
 4495 004a 1123     		movs	r3, #17
 4496 004c 2370     		strb	r3, [r4]
 4497 004e F7E7     		b	.L558
 4498              	.L562:
 4499 0050 1223     		movs	r3, #18
 4500 0052 2370     		strb	r3, [r4]
 4501 0054 F4E7     		b	.L558
 4502              	.L560:
 4503 0056 1323     		movs	r3, #19
 4504 0058 2370     		strb	r3, [r4]
 4505 005a F1E7     		b	.L558
 4506              	.L559:
 4507 005c 0023     		movs	r3, #0
 4508 005e 2370     		strb	r3, [r4]
 4509 0060 EEE7     		b	.L558
 4511              		.section	.text.ism330dhcx_aux_gy_clamp_set,"ax",%progbits
 4512              		.align	1
 4513              		.global	ism330dhcx_aux_gy_clamp_set
 4514              		.syntax unified
 4515              		.thumb
ARM GAS  C:\Temp\cclPUGyV.s 			page 76


 4516              		.thumb_func
 4518              	ism330dhcx_aux_gy_clamp_set:
 4519              		@ args = 0, pretend = 0, frame = 8
 4520              		@ frame_needed = 0, uses_anonymous_args = 0
 4521 0000 30B5     		push	{r4, r5, lr}
 4522 0002 83B0     		sub	sp, sp, #12
 4523 0004 0446     		mov	r4, r0
 4524 0006 0D46     		mov	r5, r1
 4525 0008 0123     		movs	r3, #1
 4526 000a 01AA     		add	r2, sp, #4
 4527 000c 7221     		movs	r1, #114
 4528 000e FFF7FEFF 		bl	ism330dhcx_read_reg
 4529 0012 08B1     		cbz	r0, .L571
 4530              	.L568:
 4531 0014 03B0     		add	sp, sp, #12
 4532              		@ sp needed
 4533 0016 30BD     		pop	{r4, r5, pc}
 4534              	.L571:
 4535 0018 9DF80430 		ldrb	r3, [sp, #4]	@ zero_extendqisi2
 4536 001c 65F30003 		bfi	r3, r5, #0, #1
 4537 0020 8DF80430 		strb	r3, [sp, #4]
 4538 0024 0123     		movs	r3, #1
 4539 0026 01AA     		add	r2, sp, #4
 4540 0028 7221     		movs	r1, #114
 4541 002a 2046     		mov	r0, r4
 4542 002c FFF7FEFF 		bl	ism330dhcx_write_reg
 4543 0030 F0E7     		b	.L568
 4545              		.section	.text.ism330dhcx_aux_gy_clamp_get,"ax",%progbits
 4546              		.align	1
 4547              		.global	ism330dhcx_aux_gy_clamp_get
 4548              		.syntax unified
 4549              		.thumb
 4550              		.thumb_func
 4552              	ism330dhcx_aux_gy_clamp_get:
 4553              		@ args = 0, pretend = 0, frame = 8
 4554              		@ frame_needed = 0, uses_anonymous_args = 0
 4555 0000 10B5     		push	{r4, lr}
 4556 0002 82B0     		sub	sp, sp, #8
 4557 0004 0C46     		mov	r4, r1
 4558 0006 0123     		movs	r3, #1
 4559 0008 01AA     		add	r2, sp, #4
 4560 000a 7221     		movs	r1, #114
 4561 000c FFF7FEFF 		bl	ism330dhcx_read_reg
 4562 0010 9DF80430 		ldrb	r3, [sp, #4]	@ zero_extendqisi2
 4563 0014 13F00103 		ands	r3, r3, #1
 4564 0018 03D0     		beq	.L573
 4565 001a 33B9     		cbnz	r3, .L574
 4566 001c 0023     		movs	r3, #0
 4567 001e 2370     		strb	r3, [r4]
 4568 0020 01E0     		b	.L572
 4569              	.L573:
 4570 0022 0023     		movs	r3, #0
 4571 0024 2370     		strb	r3, [r4]
 4572              	.L572:
 4573 0026 02B0     		add	sp, sp, #8
 4574              		@ sp needed
 4575 0028 10BD     		pop	{r4, pc}
ARM GAS  C:\Temp\cclPUGyV.s 			page 77


 4576              	.L574:
 4577 002a 0123     		movs	r3, #1
 4578 002c 2370     		strb	r3, [r4]
 4579 002e FAE7     		b	.L572
 4581              		.section	.text.ism330dhcx_aux_gy_self_test_set,"ax",%progbits
 4582              		.align	1
 4583              		.global	ism330dhcx_aux_gy_self_test_set
 4584              		.syntax unified
 4585              		.thumb
 4586              		.thumb_func
 4588              	ism330dhcx_aux_gy_self_test_set:
 4589              		@ args = 0, pretend = 0, frame = 8
 4590              		@ frame_needed = 0, uses_anonymous_args = 0
 4591 0000 30B5     		push	{r4, r5, lr}
 4592 0002 83B0     		sub	sp, sp, #12
 4593 0004 0446     		mov	r4, r0
 4594 0006 0D46     		mov	r5, r1
 4595 0008 0123     		movs	r3, #1
 4596 000a 01AA     		add	r2, sp, #4
 4597 000c 7221     		movs	r1, #114
 4598 000e FFF7FEFF 		bl	ism330dhcx_read_reg
 4599 0012 08B1     		cbz	r0, .L582
 4600              	.L579:
 4601 0014 03B0     		add	sp, sp, #12
 4602              		@ sp needed
 4603 0016 30BD     		pop	{r4, r5, pc}
 4604              	.L582:
 4605 0018 9DF80430 		ldrb	r3, [sp, #4]	@ zero_extendqisi2
 4606 001c 65F34203 		bfi	r3, r5, #1, #2
 4607 0020 8DF80430 		strb	r3, [sp, #4]
 4608 0024 0123     		movs	r3, #1
 4609 0026 01AA     		add	r2, sp, #4
 4610 0028 7221     		movs	r1, #114
 4611 002a 2046     		mov	r0, r4
 4612 002c FFF7FEFF 		bl	ism330dhcx_write_reg
 4613 0030 F0E7     		b	.L579
 4615              		.section	.text.ism330dhcx_aux_gy_self_test_get,"ax",%progbits
 4616              		.align	1
 4617              		.global	ism330dhcx_aux_gy_self_test_get
 4618              		.syntax unified
 4619              		.thumb
 4620              		.thumb_func
 4622              	ism330dhcx_aux_gy_self_test_get:
 4623              		@ args = 0, pretend = 0, frame = 8
 4624              		@ frame_needed = 0, uses_anonymous_args = 0
 4625 0000 10B5     		push	{r4, lr}
 4626 0002 82B0     		sub	sp, sp, #8
 4627 0004 0C46     		mov	r4, r1
 4628 0006 0123     		movs	r3, #1
 4629 0008 01AA     		add	r2, sp, #4
 4630 000a 7221     		movs	r1, #114
 4631 000c FFF7FEFF 		bl	ism330dhcx_read_reg
 4632 0010 9DF80430 		ldrb	r3, [sp, #4]	@ zero_extendqisi2
 4633 0014 C3F34103 		ubfx	r3, r3, #1, #2
 4634 0018 012B     		cmp	r3, #1
 4635 001a 08D0     		beq	.L584
 4636 001c 032B     		cmp	r3, #3
ARM GAS  C:\Temp\cclPUGyV.s 			page 78


 4637 001e 09D0     		beq	.L585
 4638 0020 13B1     		cbz	r3, .L589
 4639 0022 0023     		movs	r3, #0
 4640 0024 2370     		strb	r3, [r4]
 4641 0026 00E0     		b	.L583
 4642              	.L589:
 4643 0028 2370     		strb	r3, [r4]
 4644              	.L583:
 4645 002a 02B0     		add	sp, sp, #8
 4646              		@ sp needed
 4647 002c 10BD     		pop	{r4, pc}
 4648              	.L584:
 4649 002e 0123     		movs	r3, #1
 4650 0030 2370     		strb	r3, [r4]
 4651 0032 FAE7     		b	.L583
 4652              	.L585:
 4653 0034 0323     		movs	r3, #3
 4654 0036 2370     		strb	r3, [r4]
 4655 0038 F7E7     		b	.L583
 4657              		.section	.text.ism330dhcx_aux_xl_bandwidth_set,"ax",%progbits
 4658              		.align	1
 4659              		.global	ism330dhcx_aux_xl_bandwidth_set
 4660              		.syntax unified
 4661              		.thumb
 4662              		.thumb_func
 4664              	ism330dhcx_aux_xl_bandwidth_set:
 4665              		@ args = 0, pretend = 0, frame = 8
 4666              		@ frame_needed = 0, uses_anonymous_args = 0
 4667 0000 30B5     		push	{r4, r5, lr}
 4668 0002 83B0     		sub	sp, sp, #12
 4669 0004 0446     		mov	r4, r0
 4670 0006 0D46     		mov	r5, r1
 4671 0008 0123     		movs	r3, #1
 4672 000a 01AA     		add	r2, sp, #4
 4673 000c 7221     		movs	r1, #114
 4674 000e FFF7FEFF 		bl	ism330dhcx_read_reg
 4675 0012 08B1     		cbz	r0, .L593
 4676              	.L590:
 4677 0014 03B0     		add	sp, sp, #12
 4678              		@ sp needed
 4679 0016 30BD     		pop	{r4, r5, pc}
 4680              	.L593:
 4681 0018 9DF80430 		ldrb	r3, [sp, #4]	@ zero_extendqisi2
 4682 001c 65F3C503 		bfi	r3, r5, #3, #3
 4683 0020 8DF80430 		strb	r3, [sp, #4]
 4684 0024 0123     		movs	r3, #1
 4685 0026 01AA     		add	r2, sp, #4
 4686 0028 7221     		movs	r1, #114
 4687 002a 2046     		mov	r0, r4
 4688 002c FFF7FEFF 		bl	ism330dhcx_write_reg
 4689 0030 F0E7     		b	.L590
 4691              		.section	.text.ism330dhcx_aux_xl_bandwidth_get,"ax",%progbits
 4692              		.align	1
 4693              		.global	ism330dhcx_aux_xl_bandwidth_get
 4694              		.syntax unified
 4695              		.thumb
 4696              		.thumb_func
ARM GAS  C:\Temp\cclPUGyV.s 			page 79


 4698              	ism330dhcx_aux_xl_bandwidth_get:
 4699              		@ args = 0, pretend = 0, frame = 8
 4700              		@ frame_needed = 0, uses_anonymous_args = 0
 4701 0000 10B5     		push	{r4, lr}
 4702 0002 82B0     		sub	sp, sp, #8
 4703 0004 0C46     		mov	r4, r1
 4704 0006 0123     		movs	r3, #1
 4705 0008 01AA     		add	r2, sp, #4
 4706 000a 7221     		movs	r1, #114
 4707 000c FFF7FEFF 		bl	ism330dhcx_read_reg
 4708 0010 9DF80430 		ldrb	r3, [sp, #4]	@ zero_extendqisi2
 4709 0014 C3F3C203 		ubfx	r3, r3, #3, #3
 4710 0018 072B     		cmp	r3, #7
 4711 001a 1ED8     		bhi	.L595
 4712 001c DFE803F0 		tbb	[pc, r3]
 4713              	.L597:
 4714 0020 04       		.byte	(.L604-.L597)/2
 4715 0021 08       		.byte	(.L603-.L597)/2
 4716 0022 0B       		.byte	(.L602-.L597)/2
 4717 0023 0E       		.byte	(.L601-.L597)/2
 4718 0024 11       		.byte	(.L600-.L597)/2
 4719 0025 14       		.byte	(.L599-.L597)/2
 4720 0026 17       		.byte	(.L598-.L597)/2
 4721 0027 1A       		.byte	(.L596-.L597)/2
 4722              		.p2align 1
 4723              	.L604:
 4724 0028 0023     		movs	r3, #0
 4725 002a 2370     		strb	r3, [r4]
 4726              	.L594:
 4727 002c 02B0     		add	sp, sp, #8
 4728              		@ sp needed
 4729 002e 10BD     		pop	{r4, pc}
 4730              	.L603:
 4731 0030 0123     		movs	r3, #1
 4732 0032 2370     		strb	r3, [r4]
 4733 0034 FAE7     		b	.L594
 4734              	.L602:
 4735 0036 0223     		movs	r3, #2
 4736 0038 2370     		strb	r3, [r4]
 4737 003a F7E7     		b	.L594
 4738              	.L601:
 4739 003c 0323     		movs	r3, #3
 4740 003e 2370     		strb	r3, [r4]
 4741 0040 F4E7     		b	.L594
 4742              	.L600:
 4743 0042 0423     		movs	r3, #4
 4744 0044 2370     		strb	r3, [r4]
 4745 0046 F1E7     		b	.L594
 4746              	.L599:
 4747 0048 0523     		movs	r3, #5
 4748 004a 2370     		strb	r3, [r4]
 4749 004c EEE7     		b	.L594
 4750              	.L598:
 4751 004e 0623     		movs	r3, #6
 4752 0050 2370     		strb	r3, [r4]
 4753 0052 EBE7     		b	.L594
 4754              	.L596:
ARM GAS  C:\Temp\cclPUGyV.s 			page 80


 4755 0054 0723     		movs	r3, #7
 4756 0056 2370     		strb	r3, [r4]
 4757 0058 E8E7     		b	.L594
 4758              	.L595:
 4759 005a 0023     		movs	r3, #0
 4760 005c 2370     		strb	r3, [r4]
 4761 005e E5E7     		b	.L594
 4763              		.section	.text.ism330dhcx_aux_xl_full_scale_set,"ax",%progbits
 4764              		.align	1
 4765              		.global	ism330dhcx_aux_xl_full_scale_set
 4766              		.syntax unified
 4767              		.thumb
 4768              		.thumb_func
 4770              	ism330dhcx_aux_xl_full_scale_set:
 4771              		@ args = 0, pretend = 0, frame = 8
 4772              		@ frame_needed = 0, uses_anonymous_args = 0
 4773 0000 30B5     		push	{r4, r5, lr}
 4774 0002 83B0     		sub	sp, sp, #12
 4775 0004 0446     		mov	r4, r0
 4776 0006 0D46     		mov	r5, r1
 4777 0008 0123     		movs	r3, #1
 4778 000a 01AA     		add	r2, sp, #4
 4779 000c 7221     		movs	r1, #114
 4780 000e FFF7FEFF 		bl	ism330dhcx_read_reg
 4781 0012 08B1     		cbz	r0, .L610
 4782              	.L607:
 4783 0014 03B0     		add	sp, sp, #12
 4784              		@ sp needed
 4785 0016 30BD     		pop	{r4, r5, pc}
 4786              	.L610:
 4787 0018 9DF80430 		ldrb	r3, [sp, #4]	@ zero_extendqisi2
 4788 001c 65F38713 		bfi	r3, r5, #6, #2
 4789 0020 8DF80430 		strb	r3, [sp, #4]
 4790 0024 0123     		movs	r3, #1
 4791 0026 01AA     		add	r2, sp, #4
 4792 0028 7221     		movs	r1, #114
 4793 002a 2046     		mov	r0, r4
 4794 002c FFF7FEFF 		bl	ism330dhcx_write_reg
 4795 0030 F0E7     		b	.L607
 4797              		.section	.text.ism330dhcx_aux_xl_full_scale_get,"ax",%progbits
 4798              		.align	1
 4799              		.global	ism330dhcx_aux_xl_full_scale_get
 4800              		.syntax unified
 4801              		.thumb
 4802              		.thumb_func
 4804              	ism330dhcx_aux_xl_full_scale_get:
 4805              		@ args = 0, pretend = 0, frame = 8
 4806              		@ frame_needed = 0, uses_anonymous_args = 0
 4807 0000 10B5     		push	{r4, lr}
 4808 0002 82B0     		sub	sp, sp, #8
 4809 0004 0C46     		mov	r4, r1
 4810 0006 0123     		movs	r3, #1
 4811 0008 01AA     		add	r2, sp, #4
 4812 000a 7221     		movs	r1, #114
 4813 000c FFF7FEFF 		bl	ism330dhcx_read_reg
 4814 0010 9DF80430 		ldrb	r3, [sp, #4]	@ zero_extendqisi2
 4815 0014 9B09     		lsrs	r3, r3, #6
ARM GAS  C:\Temp\cclPUGyV.s 			page 81


 4816 0016 032B     		cmp	r3, #3
 4817 0018 10D8     		bhi	.L612
 4818 001a DFE803F0 		tbb	[pc, r3]
 4819              	.L614:
 4820 001e 02       		.byte	(.L617-.L614)/2
 4821 001f 06       		.byte	(.L616-.L614)/2
 4822 0020 09       		.byte	(.L615-.L614)/2
 4823 0021 0C       		.byte	(.L613-.L614)/2
 4824              		.p2align 1
 4825              	.L617:
 4826 0022 0023     		movs	r3, #0
 4827 0024 2370     		strb	r3, [r4]
 4828              	.L611:
 4829 0026 02B0     		add	sp, sp, #8
 4830              		@ sp needed
 4831 0028 10BD     		pop	{r4, pc}
 4832              	.L616:
 4833 002a 0123     		movs	r3, #1
 4834 002c 2370     		strb	r3, [r4]
 4835 002e FAE7     		b	.L611
 4836              	.L615:
 4837 0030 0223     		movs	r3, #2
 4838 0032 2370     		strb	r3, [r4]
 4839 0034 F7E7     		b	.L611
 4840              	.L613:
 4841 0036 0323     		movs	r3, #3
 4842 0038 2370     		strb	r3, [r4]
 4843 003a F4E7     		b	.L611
 4844              	.L612:
 4845 003c 0023     		movs	r3, #0
 4846 003e 2370     		strb	r3, [r4]
 4847 0040 F1E7     		b	.L611
 4849              		.section	.text.ism330dhcx_sdo_sa0_mode_set,"ax",%progbits
 4850              		.align	1
 4851              		.global	ism330dhcx_sdo_sa0_mode_set
 4852              		.syntax unified
 4853              		.thumb
 4854              		.thumb_func
 4856              	ism330dhcx_sdo_sa0_mode_set:
 4857              		@ args = 0, pretend = 0, frame = 8
 4858              		@ frame_needed = 0, uses_anonymous_args = 0
 4859 0000 30B5     		push	{r4, r5, lr}
 4860 0002 83B0     		sub	sp, sp, #12
 4861 0004 0446     		mov	r4, r0
 4862 0006 0D46     		mov	r5, r1
 4863 0008 0123     		movs	r3, #1
 4864 000a 01AA     		add	r2, sp, #4
 4865 000c 0221     		movs	r1, #2
 4866 000e FFF7FEFF 		bl	ism330dhcx_read_reg
 4867 0012 08B1     		cbz	r0, .L623
 4868              	.L620:
 4869 0014 03B0     		add	sp, sp, #12
 4870              		@ sp needed
 4871 0016 30BD     		pop	{r4, r5, pc}
 4872              	.L623:
 4873 0018 9DF80430 		ldrb	r3, [sp, #4]	@ zero_extendqisi2
 4874 001c 65F38613 		bfi	r3, r5, #6, #1
ARM GAS  C:\Temp\cclPUGyV.s 			page 82


 4875 0020 8DF80430 		strb	r3, [sp, #4]
 4876 0024 0123     		movs	r3, #1
 4877 0026 01AA     		add	r2, sp, #4
 4878 0028 0221     		movs	r1, #2
 4879 002a 2046     		mov	r0, r4
 4880 002c FFF7FEFF 		bl	ism330dhcx_write_reg
 4881 0030 F0E7     		b	.L620
 4883              		.section	.text.ism330dhcx_sdo_sa0_mode_get,"ax",%progbits
 4884              		.align	1
 4885              		.global	ism330dhcx_sdo_sa0_mode_get
 4886              		.syntax unified
 4887              		.thumb
 4888              		.thumb_func
 4890              	ism330dhcx_sdo_sa0_mode_get:
 4891              		@ args = 0, pretend = 0, frame = 8
 4892              		@ frame_needed = 0, uses_anonymous_args = 0
 4893 0000 10B5     		push	{r4, lr}
 4894 0002 82B0     		sub	sp, sp, #8
 4895 0004 0C46     		mov	r4, r1
 4896 0006 0123     		movs	r3, #1
 4897 0008 01AA     		add	r2, sp, #4
 4898 000a 0221     		movs	r1, #2
 4899 000c FFF7FEFF 		bl	ism330dhcx_read_reg
 4900 0010 9DF80430 		ldrb	r3, [sp, #4]	@ zero_extendqisi2
 4901 0014 C3F38012 		ubfx	r2, r3, #6, #1
 4902 0018 13F0400F 		tst	r3, #64
 4903 001c 03D0     		beq	.L625
 4904 001e 32B9     		cbnz	r2, .L626
 4905 0020 0023     		movs	r3, #0
 4906 0022 2370     		strb	r3, [r4]
 4907 0024 01E0     		b	.L624
 4908              	.L625:
 4909 0026 0023     		movs	r3, #0
 4910 0028 2370     		strb	r3, [r4]
 4911              	.L624:
 4912 002a 02B0     		add	sp, sp, #8
 4913              		@ sp needed
 4914 002c 10BD     		pop	{r4, pc}
 4915              	.L626:
 4916 002e 0123     		movs	r3, #1
 4917 0030 2370     		strb	r3, [r4]
 4918 0032 FAE7     		b	.L624
 4920              		.section	.text.ism330dhcx_spi_mode_set,"ax",%progbits
 4921              		.align	1
 4922              		.global	ism330dhcx_spi_mode_set
 4923              		.syntax unified
 4924              		.thumb
 4925              		.thumb_func
 4927              	ism330dhcx_spi_mode_set:
 4928              		@ args = 0, pretend = 0, frame = 8
 4929              		@ frame_needed = 0, uses_anonymous_args = 0
 4930 0000 30B5     		push	{r4, r5, lr}
 4931 0002 83B0     		sub	sp, sp, #12
 4932 0004 0446     		mov	r4, r0
 4933 0006 0D46     		mov	r5, r1
 4934 0008 0123     		movs	r3, #1
 4935 000a 01AA     		add	r2, sp, #4
ARM GAS  C:\Temp\cclPUGyV.s 			page 83


 4936 000c 1221     		movs	r1, #18
 4937 000e FFF7FEFF 		bl	ism330dhcx_read_reg
 4938 0012 08B1     		cbz	r0, .L634
 4939              	.L631:
 4940 0014 03B0     		add	sp, sp, #12
 4941              		@ sp needed
 4942 0016 30BD     		pop	{r4, r5, pc}
 4943              	.L634:
 4944 0018 9DF80430 		ldrb	r3, [sp, #4]	@ zero_extendqisi2
 4945 001c 65F3C303 		bfi	r3, r5, #3, #1
 4946 0020 8DF80430 		strb	r3, [sp, #4]
 4947 0024 0123     		movs	r3, #1
 4948 0026 01AA     		add	r2, sp, #4
 4949 0028 1221     		movs	r1, #18
 4950 002a 2046     		mov	r0, r4
 4951 002c FFF7FEFF 		bl	ism330dhcx_write_reg
 4952 0030 F0E7     		b	.L631
 4954              		.section	.text.ism330dhcx_spi_mode_get,"ax",%progbits
 4955              		.align	1
 4956              		.global	ism330dhcx_spi_mode_get
 4957              		.syntax unified
 4958              		.thumb
 4959              		.thumb_func
 4961              	ism330dhcx_spi_mode_get:
 4962              		@ args = 0, pretend = 0, frame = 8
 4963              		@ frame_needed = 0, uses_anonymous_args = 0
 4964 0000 10B5     		push	{r4, lr}
 4965 0002 82B0     		sub	sp, sp, #8
 4966 0004 0C46     		mov	r4, r1
 4967 0006 0123     		movs	r3, #1
 4968 0008 01AA     		add	r2, sp, #4
 4969 000a 1221     		movs	r1, #18
 4970 000c FFF7FEFF 		bl	ism330dhcx_read_reg
 4971 0010 9DF80430 		ldrb	r3, [sp, #4]	@ zero_extendqisi2
 4972 0014 C3F3C002 		ubfx	r2, r3, #3, #1
 4973 0018 13F0080F 		tst	r3, #8
 4974 001c 03D0     		beq	.L636
 4975 001e 32B9     		cbnz	r2, .L637
 4976 0020 0023     		movs	r3, #0
 4977 0022 2370     		strb	r3, [r4]
 4978 0024 01E0     		b	.L635
 4979              	.L636:
 4980 0026 0023     		movs	r3, #0
 4981 0028 2370     		strb	r3, [r4]
 4982              	.L635:
 4983 002a 02B0     		add	sp, sp, #8
 4984              		@ sp needed
 4985 002c 10BD     		pop	{r4, pc}
 4986              	.L637:
 4987 002e 0123     		movs	r3, #1
 4988 0030 2370     		strb	r3, [r4]
 4989 0032 FAE7     		b	.L635
 4991              		.section	.text.ism330dhcx_i2c_interface_set,"ax",%progbits
 4992              		.align	1
 4993              		.global	ism330dhcx_i2c_interface_set
 4994              		.syntax unified
 4995              		.thumb
ARM GAS  C:\Temp\cclPUGyV.s 			page 84


 4996              		.thumb_func
 4998              	ism330dhcx_i2c_interface_set:
 4999              		@ args = 0, pretend = 0, frame = 8
 5000              		@ frame_needed = 0, uses_anonymous_args = 0
 5001 0000 30B5     		push	{r4, r5, lr}
 5002 0002 83B0     		sub	sp, sp, #12
 5003 0004 0446     		mov	r4, r0
 5004 0006 0D46     		mov	r5, r1
 5005 0008 0123     		movs	r3, #1
 5006 000a 01AA     		add	r2, sp, #4
 5007 000c 1321     		movs	r1, #19
 5008 000e FFF7FEFF 		bl	ism330dhcx_read_reg
 5009 0012 08B1     		cbz	r0, .L645
 5010              	.L642:
 5011 0014 03B0     		add	sp, sp, #12
 5012              		@ sp needed
 5013 0016 30BD     		pop	{r4, r5, pc}
 5014              	.L645:
 5015 0018 9DF80430 		ldrb	r3, [sp, #4]	@ zero_extendqisi2
 5016 001c 65F38203 		bfi	r3, r5, #2, #1
 5017 0020 8DF80430 		strb	r3, [sp, #4]
 5018 0024 0123     		movs	r3, #1
 5019 0026 01AA     		add	r2, sp, #4
 5020 0028 1321     		movs	r1, #19
 5021 002a 2046     		mov	r0, r4
 5022 002c FFF7FEFF 		bl	ism330dhcx_write_reg
 5023 0030 F0E7     		b	.L642
 5025              		.section	.text.ism330dhcx_i2c_interface_get,"ax",%progbits
 5026              		.align	1
 5027              		.global	ism330dhcx_i2c_interface_get
 5028              		.syntax unified
 5029              		.thumb
 5030              		.thumb_func
 5032              	ism330dhcx_i2c_interface_get:
 5033              		@ args = 0, pretend = 0, frame = 8
 5034              		@ frame_needed = 0, uses_anonymous_args = 0
 5035 0000 10B5     		push	{r4, lr}
 5036 0002 82B0     		sub	sp, sp, #8
 5037 0004 0C46     		mov	r4, r1
 5038 0006 0123     		movs	r3, #1
 5039 0008 01AA     		add	r2, sp, #4
 5040 000a 1321     		movs	r1, #19
 5041 000c FFF7FEFF 		bl	ism330dhcx_read_reg
 5042 0010 9DF80430 		ldrb	r3, [sp, #4]	@ zero_extendqisi2
 5043 0014 C3F38002 		ubfx	r2, r3, #2, #1
 5044 0018 13F0040F 		tst	r3, #4
 5045 001c 03D0     		beq	.L647
 5046 001e 32B9     		cbnz	r2, .L648
 5047 0020 0023     		movs	r3, #0
 5048 0022 2370     		strb	r3, [r4]
 5049 0024 01E0     		b	.L646
 5050              	.L647:
 5051 0026 0023     		movs	r3, #0
 5052 0028 2370     		strb	r3, [r4]
 5053              	.L646:
 5054 002a 02B0     		add	sp, sp, #8
 5055              		@ sp needed
ARM GAS  C:\Temp\cclPUGyV.s 			page 85


 5056 002c 10BD     		pop	{r4, pc}
 5057              	.L648:
 5058 002e 0123     		movs	r3, #1
 5059 0030 2370     		strb	r3, [r4]
 5060 0032 FAE7     		b	.L646
 5062              		.section	.text.ism330dhcx_pin_int1_route_set,"ax",%progbits
 5063              		.align	1
 5064              		.global	ism330dhcx_pin_int1_route_set
 5065              		.syntax unified
 5066              		.thumb
 5067              		.thumb_func
 5069              	ism330dhcx_pin_int1_route_set:
 5070              		@ args = 0, pretend = 0, frame = 8
 5071              		@ frame_needed = 0, uses_anonymous_args = 0
 5072 0000 30B5     		push	{r4, r5, lr}
 5073 0002 83B0     		sub	sp, sp, #12
 5074 0004 0546     		mov	r5, r0
 5075 0006 0C46     		mov	r4, r1
 5076 0008 0221     		movs	r1, #2
 5077 000a FFF7FEFF 		bl	ism330dhcx_mem_bank_set
 5078 000e 0346     		mov	r3, r0
 5079 0010 18B1     		cbz	r0, .L661
 5080              	.L654:
 5081 0012 9BB1     		cbz	r3, .L662
 5082              	.L653:
 5083 0014 1846     		mov	r0, r3
 5084 0016 03B0     		add	sp, sp, #12
 5085              		@ sp needed
 5086 0018 30BD     		pop	{r4, r5, pc}
 5087              	.L661:
 5088 001a 0123     		movs	r3, #1
 5089 001c 621D     		adds	r2, r4, #5
 5090 001e 0D21     		movs	r1, #13
 5091 0020 2846     		mov	r0, r5
 5092 0022 FFF7FEFF 		bl	ism330dhcx_write_reg
 5093 0026 0346     		mov	r3, r0
 5094 0028 0028     		cmp	r0, #0
 5095 002a F3D1     		bne	.L653
 5096 002c 0123     		movs	r3, #1
 5097 002e A21C     		adds	r2, r4, #2
 5098 0030 0A21     		movs	r1, #10
 5099 0032 2846     		mov	r0, r5
 5100 0034 FFF7FEFF 		bl	ism330dhcx_write_reg
 5101 0038 0346     		mov	r3, r0
 5102 003a EAE7     		b	.L654
 5103              	.L662:
 5104 003c 0123     		movs	r3, #1
 5105 003e E21C     		adds	r2, r4, #3
 5106 0040 0B21     		movs	r1, #11
 5107 0042 2846     		mov	r0, r5
 5108 0044 FFF7FEFF 		bl	ism330dhcx_write_reg
 5109 0048 0346     		mov	r3, r0
 5110 004a 0028     		cmp	r0, #0
 5111 004c E2D1     		bne	.L653
 5112 004e 0123     		movs	r3, #1
 5113 0050 221D     		adds	r2, r4, #4
 5114 0052 0C21     		movs	r1, #12
ARM GAS  C:\Temp\cclPUGyV.s 			page 86


 5115 0054 2846     		mov	r0, r5
 5116 0056 FFF7FEFF 		bl	ism330dhcx_write_reg
 5117 005a 0346     		mov	r3, r0
 5118 005c 0028     		cmp	r0, #0
 5119 005e D9D1     		bne	.L653
 5120 0060 0021     		movs	r1, #0
 5121 0062 2846     		mov	r0, r5
 5122 0064 FFF7FEFF 		bl	ism330dhcx_mem_bank_set
 5123 0068 0346     		mov	r3, r0
 5124 006a 0028     		cmp	r0, #0
 5125 006c D2D1     		bne	.L653
 5126 006e A278     		ldrb	r2, [r4, #2]	@ zero_extendqisi2
 5127 0070 C2F34013 		ubfx	r3, r2, #5, #1
 5128 0074 43EAD213 		orr	r3, r3, r2, lsr #7
 5129 0078 C2F3C001 		ubfx	r1, r2, #3, #1
 5130 007c 0B43     		orrs	r3, r3, r1
 5131 007e C2F30012 		ubfx	r2, r2, #4, #1
 5132 0082 1343     		orrs	r3, r3, r2
 5133 0084 E278     		ldrb	r2, [r4, #3]	@ zero_extendqisi2
 5134 0086 02F00101 		and	r1, r2, #1
 5135 008a 0B43     		orrs	r3, r3, r1
 5136 008c C2F34001 		ubfx	r1, r2, #1, #1
 5137 0090 0B43     		orrs	r3, r3, r1
 5138 0092 C2F38001 		ubfx	r1, r2, #2, #1
 5139 0096 0B43     		orrs	r3, r3, r1
 5140 0098 C2F3C001 		ubfx	r1, r2, #3, #1
 5141 009c 0B43     		orrs	r3, r3, r1
 5142 009e C2F30011 		ubfx	r1, r2, #4, #1
 5143 00a2 0B43     		orrs	r3, r3, r1
 5144 00a4 C2F34011 		ubfx	r1, r2, #5, #1
 5145 00a8 0B43     		orrs	r3, r3, r1
 5146 00aa C2F38011 		ubfx	r1, r2, #6, #1
 5147 00ae 0B43     		orrs	r3, r3, r1
 5148 00b0 43EAD213 		orr	r3, r3, r2, lsr #7
 5149 00b4 2279     		ldrb	r2, [r4, #4]	@ zero_extendqisi2
 5150 00b6 02F00101 		and	r1, r2, #1
 5151 00ba 0B43     		orrs	r3, r3, r1
 5152 00bc C2F34001 		ubfx	r1, r2, #1, #1
 5153 00c0 0B43     		orrs	r3, r3, r1
 5154 00c2 C2F38001 		ubfx	r1, r2, #2, #1
 5155 00c6 0B43     		orrs	r3, r3, r1
 5156 00c8 C2F3C001 		ubfx	r1, r2, #3, #1
 5157 00cc 0B43     		orrs	r3, r3, r1
 5158 00ce C2F30011 		ubfx	r1, r2, #4, #1
 5159 00d2 0B43     		orrs	r3, r3, r1
 5160 00d4 C2F34011 		ubfx	r1, r2, #5, #1
 5161 00d8 0B43     		orrs	r3, r3, r1
 5162 00da C2F38011 		ubfx	r1, r2, #6, #1
 5163 00de 0B43     		orrs	r3, r3, r1
 5164 00e0 43EAD213 		orr	r3, r3, r2, lsr #7
 5165 00e4 6279     		ldrb	r2, [r4, #5]	@ zero_extendqisi2
 5166 00e6 02F00101 		and	r1, r2, #1
 5167 00ea 0B43     		orrs	r3, r3, r1
 5168 00ec C2F34001 		ubfx	r1, r2, #1, #1
 5169 00f0 0B43     		orrs	r3, r3, r1
 5170 00f2 C2F38001 		ubfx	r1, r2, #2, #1
 5171 00f6 0B43     		orrs	r3, r3, r1
ARM GAS  C:\Temp\cclPUGyV.s 			page 87


 5172 00f8 C2F3C001 		ubfx	r1, r2, #3, #1
 5173 00fc 0B43     		orrs	r3, r3, r1
 5174 00fe C2F30011 		ubfx	r1, r2, #4, #1
 5175 0102 0B43     		orrs	r3, r3, r1
 5176 0104 C2F34011 		ubfx	r1, r2, #5, #1
 5177 0108 0B43     		orrs	r3, r3, r1
 5178 010a C2F38011 		ubfx	r1, r2, #6, #1
 5179 010e 0B43     		orrs	r3, r3, r1
 5180 0110 53EAD213 		orrs	r3, r3, r2, lsr #7
 5181 0114 5CD0     		beq	.L656
 5182 0116 6378     		ldrb	r3, [r4, #1]	@ zero_extendqisi2
 5183 0118 43F00203 		orr	r3, r3, #2
 5184 011c 6370     		strb	r3, [r4, #1]
 5185              	.L657:
 5186 011e 0123     		movs	r3, #1
 5187 0120 2246     		mov	r2, r4
 5188 0122 0D21     		movs	r1, #13
 5189 0124 2846     		mov	r0, r5
 5190 0126 FFF7FEFF 		bl	ism330dhcx_write_reg
 5191 012a 0346     		mov	r3, r0
 5192 012c 0028     		cmp	r0, #0
 5193 012e 7FF471AF 		bne	.L653
 5194 0132 0123     		movs	r3, #1
 5195 0134 E218     		adds	r2, r4, r3
 5196 0136 5E21     		movs	r1, #94
 5197 0138 2846     		mov	r0, r5
 5198 013a FFF7FEFF 		bl	ism330dhcx_write_reg
 5199 013e 0346     		mov	r3, r0
 5200 0140 0028     		cmp	r0, #0
 5201 0142 7FF467AF 		bne	.L653
 5202 0146 0123     		movs	r3, #1
 5203 0148 01AA     		add	r2, sp, #4
 5204 014a 5821     		movs	r1, #88
 5205 014c 2846     		mov	r0, r5
 5206 014e FFF7FEFF 		bl	ism330dhcx_read_reg
 5207 0152 0346     		mov	r3, r0
 5208 0154 2178     		ldrb	r1, [r4]	@ zero_extendqisi2
 5209 0156 C1F38002 		ubfx	r2, r1, #2, #1
 5210 015a 42EAD112 		orr	r2, r2, r1, lsr #7
 5211 015e C1F38010 		ubfx	r0, r1, #6, #1
 5212 0162 0243     		orrs	r2, r2, r0
 5213 0164 C1F34000 		ubfx	r0, r1, #1, #1
 5214 0168 0243     		orrs	r2, r2, r0
 5215 016a 01F00100 		and	r0, r1, #1
 5216 016e 0243     		orrs	r2, r2, r0
 5217 0170 C1F34010 		ubfx	r0, r1, #5, #1
 5218 0174 0243     		orrs	r2, r2, r0
 5219 0176 C1F30010 		ubfx	r0, r1, #4, #1
 5220 017a 0243     		orrs	r2, r2, r0
 5221 017c C1F3C001 		ubfx	r1, r1, #3, #1
 5222 0180 0A43     		orrs	r2, r2, r1
 5223 0182 6178     		ldrb	r1, [r4, #1]	@ zero_extendqisi2
 5224 0184 01F00100 		and	r0, r1, #1
 5225 0188 0243     		orrs	r2, r2, r0
 5226 018a C1F38000 		ubfx	r0, r1, #2, #1
 5227 018e 0243     		orrs	r2, r2, r0
 5228 0190 C1F3C000 		ubfx	r0, r1, #3, #1
ARM GAS  C:\Temp\cclPUGyV.s 			page 88


 5229 0194 0243     		orrs	r2, r2, r0
 5230 0196 C1F30010 		ubfx	r0, r1, #4, #1
 5231 019a 0243     		orrs	r2, r2, r0
 5232 019c C1F34010 		ubfx	r0, r1, #5, #1
 5233 01a0 0243     		orrs	r2, r2, r0
 5234 01a2 C1F38010 		ubfx	r0, r1, #6, #1
 5235 01a6 0243     		orrs	r2, r2, r0
 5236 01a8 52EAD112 		orrs	r2, r2, r1, lsr #7
 5237 01ac 15D0     		beq	.L658
 5238 01ae 9DF80420 		ldrb	r2, [sp, #4]	@ zero_extendqisi2
 5239 01b2 42F08002 		orr	r2, r2, #128
 5240 01b6 8DF80420 		strb	r2, [sp, #4]
 5241              	.L659:
 5242 01ba 002B     		cmp	r3, #0
 5243 01bc 7FF42AAF 		bne	.L653
 5244 01c0 0123     		movs	r3, #1
 5245 01c2 01AA     		add	r2, sp, #4
 5246 01c4 5821     		movs	r1, #88
 5247 01c6 2846     		mov	r0, r5
 5248 01c8 FFF7FEFF 		bl	ism330dhcx_write_reg
 5249 01cc 0346     		mov	r3, r0
 5250 01ce 21E7     		b	.L653
 5251              	.L656:
 5252 01d0 6378     		ldrb	r3, [r4, #1]	@ zero_extendqisi2
 5253 01d2 6FF34103 		bfc	r3, #1, #1
 5254 01d6 6370     		strb	r3, [r4, #1]
 5255 01d8 A1E7     		b	.L657
 5256              	.L658:
 5257 01da 9DF80420 		ldrb	r2, [sp, #4]	@ zero_extendqisi2
 5258 01de 6FF3C712 		bfc	r2, #7, #1
 5259 01e2 8DF80420 		strb	r2, [sp, #4]
 5260 01e6 E8E7     		b	.L659
 5262              		.section	.text.ism330dhcx_pin_int1_route_get,"ax",%progbits
 5263              		.align	1
 5264              		.global	ism330dhcx_pin_int1_route_get
 5265              		.syntax unified
 5266              		.thumb
 5267              		.thumb_func
 5269              	ism330dhcx_pin_int1_route_get:
 5270              		@ args = 0, pretend = 0, frame = 0
 5271              		@ frame_needed = 0, uses_anonymous_args = 0
 5272 0000 38B5     		push	{r3, r4, r5, lr}
 5273 0002 0546     		mov	r5, r0
 5274 0004 0C46     		mov	r4, r1
 5275 0006 0221     		movs	r1, #2
 5276 0008 FFF7FEFF 		bl	ism330dhcx_mem_bank_set
 5277 000c 0346     		mov	r3, r0
 5278 000e 10B1     		cbz	r0, .L667
 5279              	.L664:
 5280 0010 93B1     		cbz	r3, .L668
 5281              	.L663:
 5282 0012 1846     		mov	r0, r3
 5283 0014 38BD     		pop	{r3, r4, r5, pc}
 5284              	.L667:
 5285 0016 0123     		movs	r3, #1
 5286 0018 621D     		adds	r2, r4, #5
 5287 001a 0D21     		movs	r1, #13
ARM GAS  C:\Temp\cclPUGyV.s 			page 89


 5288 001c 2846     		mov	r0, r5
 5289 001e FFF7FEFF 		bl	ism330dhcx_read_reg
 5290 0022 0346     		mov	r3, r0
 5291 0024 0028     		cmp	r0, #0
 5292 0026 F4D1     		bne	.L663
 5293 0028 0123     		movs	r3, #1
 5294 002a A21C     		adds	r2, r4, #2
 5295 002c 0A21     		movs	r1, #10
 5296 002e 2846     		mov	r0, r5
 5297 0030 FFF7FEFF 		bl	ism330dhcx_read_reg
 5298 0034 0346     		mov	r3, r0
 5299 0036 EBE7     		b	.L664
 5300              	.L668:
 5301 0038 0123     		movs	r3, #1
 5302 003a E21C     		adds	r2, r4, #3
 5303 003c 0B21     		movs	r1, #11
 5304 003e 2846     		mov	r0, r5
 5305 0040 FFF7FEFF 		bl	ism330dhcx_read_reg
 5306 0044 0346     		mov	r3, r0
 5307 0046 0028     		cmp	r0, #0
 5308 0048 E3D1     		bne	.L663
 5309 004a 0123     		movs	r3, #1
 5310 004c 221D     		adds	r2, r4, #4
 5311 004e 0C21     		movs	r1, #12
 5312 0050 2846     		mov	r0, r5
 5313 0052 FFF7FEFF 		bl	ism330dhcx_read_reg
 5314 0056 0346     		mov	r3, r0
 5315 0058 0028     		cmp	r0, #0
 5316 005a DAD1     		bne	.L663
 5317 005c 0021     		movs	r1, #0
 5318 005e 2846     		mov	r0, r5
 5319 0060 FFF7FEFF 		bl	ism330dhcx_mem_bank_set
 5320 0064 0346     		mov	r3, r0
 5321 0066 0028     		cmp	r0, #0
 5322 0068 D3D1     		bne	.L663
 5323 006a 0123     		movs	r3, #1
 5324 006c 2246     		mov	r2, r4
 5325 006e 0D21     		movs	r1, #13
 5326 0070 2846     		mov	r0, r5
 5327 0072 FFF7FEFF 		bl	ism330dhcx_read_reg
 5328 0076 0346     		mov	r3, r0
 5329 0078 0028     		cmp	r0, #0
 5330 007a CAD1     		bne	.L663
 5331 007c 0123     		movs	r3, #1
 5332 007e E218     		adds	r2, r4, r3
 5333 0080 5E21     		movs	r1, #94
 5334 0082 2846     		mov	r0, r5
 5335 0084 FFF7FEFF 		bl	ism330dhcx_read_reg
 5336 0088 0346     		mov	r3, r0
 5337 008a C2E7     		b	.L663
 5339              		.section	.text.ism330dhcx_pin_int2_route_set,"ax",%progbits
 5340              		.align	1
 5341              		.global	ism330dhcx_pin_int2_route_set
 5342              		.syntax unified
 5343              		.thumb
 5344              		.thumb_func
 5346              	ism330dhcx_pin_int2_route_set:
ARM GAS  C:\Temp\cclPUGyV.s 			page 90


 5347              		@ args = 0, pretend = 0, frame = 8
 5348              		@ frame_needed = 0, uses_anonymous_args = 0
 5349 0000 30B5     		push	{r4, r5, lr}
 5350 0002 83B0     		sub	sp, sp, #12
 5351 0004 0546     		mov	r5, r0
 5352 0006 0C46     		mov	r4, r1
 5353 0008 0221     		movs	r1, #2
 5354 000a FFF7FEFF 		bl	ism330dhcx_mem_bank_set
 5355 000e 0346     		mov	r3, r0
 5356 0010 18B1     		cbz	r0, .L677
 5357              	.L670:
 5358 0012 9BB1     		cbz	r3, .L678
 5359              	.L669:
 5360 0014 1846     		mov	r0, r3
 5361 0016 03B0     		add	sp, sp, #12
 5362              		@ sp needed
 5363 0018 30BD     		pop	{r4, r5, pc}
 5364              	.L677:
 5365 001a 0123     		movs	r3, #1
 5366 001c 621D     		adds	r2, r4, #5
 5367 001e 1121     		movs	r1, #17
 5368 0020 2846     		mov	r0, r5
 5369 0022 FFF7FEFF 		bl	ism330dhcx_write_reg
 5370 0026 0346     		mov	r3, r0
 5371 0028 0028     		cmp	r0, #0
 5372 002a F3D1     		bne	.L669
 5373 002c 0123     		movs	r3, #1
 5374 002e A21C     		adds	r2, r4, #2
 5375 0030 0E21     		movs	r1, #14
 5376 0032 2846     		mov	r0, r5
 5377 0034 FFF7FEFF 		bl	ism330dhcx_write_reg
 5378 0038 0346     		mov	r3, r0
 5379 003a EAE7     		b	.L670
 5380              	.L678:
 5381 003c 0123     		movs	r3, #1
 5382 003e E21C     		adds	r2, r4, #3
 5383 0040 0F21     		movs	r1, #15
 5384 0042 2846     		mov	r0, r5
 5385 0044 FFF7FEFF 		bl	ism330dhcx_write_reg
 5386 0048 0346     		mov	r3, r0
 5387 004a 0028     		cmp	r0, #0
 5388 004c E2D1     		bne	.L669
 5389 004e 0123     		movs	r3, #1
 5390 0050 221D     		adds	r2, r4, #4
 5391 0052 1021     		movs	r1, #16
 5392 0054 2846     		mov	r0, r5
 5393 0056 FFF7FEFF 		bl	ism330dhcx_write_reg
 5394 005a 0346     		mov	r3, r0
 5395 005c 0028     		cmp	r0, #0
 5396 005e D9D1     		bne	.L669
 5397 0060 0021     		movs	r1, #0
 5398 0062 2846     		mov	r0, r5
 5399 0064 FFF7FEFF 		bl	ism330dhcx_mem_bank_set
 5400 0068 0346     		mov	r3, r0
 5401 006a 0028     		cmp	r0, #0
 5402 006c D2D1     		bne	.L669
 5403 006e A278     		ldrb	r2, [r4, #2]	@ zero_extendqisi2
ARM GAS  C:\Temp\cclPUGyV.s 			page 91


 5404 0070 C2F3C003 		ubfx	r3, r2, #3, #1
 5405 0074 C2F30011 		ubfx	r1, r2, #4, #1
 5406 0078 0B43     		orrs	r3, r3, r1
 5407 007a C2F34011 		ubfx	r1, r2, #5, #1
 5408 007e 0B43     		orrs	r3, r3, r1
 5409 0080 43EAD213 		orr	r3, r3, r2, lsr #7
 5410 0084 E278     		ldrb	r2, [r4, #3]	@ zero_extendqisi2
 5411 0086 02F00101 		and	r1, r2, #1
 5412 008a 0B43     		orrs	r3, r3, r1
 5413 008c C2F34001 		ubfx	r1, r2, #1, #1
 5414 0090 0B43     		orrs	r3, r3, r1
 5415 0092 C2F38001 		ubfx	r1, r2, #2, #1
 5416 0096 0B43     		orrs	r3, r3, r1
 5417 0098 C2F3C001 		ubfx	r1, r2, #3, #1
 5418 009c 0B43     		orrs	r3, r3, r1
 5419 009e C2F30011 		ubfx	r1, r2, #4, #1
 5420 00a2 0B43     		orrs	r3, r3, r1
 5421 00a4 C2F34011 		ubfx	r1, r2, #5, #1
 5422 00a8 0B43     		orrs	r3, r3, r1
 5423 00aa C2F38011 		ubfx	r1, r2, #6, #1
 5424 00ae 0B43     		orrs	r3, r3, r1
 5425 00b0 43EAD213 		orr	r3, r3, r2, lsr #7
 5426 00b4 2279     		ldrb	r2, [r4, #4]	@ zero_extendqisi2
 5427 00b6 02F00101 		and	r1, r2, #1
 5428 00ba 0B43     		orrs	r3, r3, r1
 5429 00bc C2F34001 		ubfx	r1, r2, #1, #1
 5430 00c0 0B43     		orrs	r3, r3, r1
 5431 00c2 C2F38001 		ubfx	r1, r2, #2, #1
 5432 00c6 0B43     		orrs	r3, r3, r1
 5433 00c8 C2F3C001 		ubfx	r1, r2, #3, #1
 5434 00cc 0B43     		orrs	r3, r3, r1
 5435 00ce C2F30011 		ubfx	r1, r2, #4, #1
 5436 00d2 0B43     		orrs	r3, r3, r1
 5437 00d4 C2F34011 		ubfx	r1, r2, #5, #1
 5438 00d8 0B43     		orrs	r3, r3, r1
 5439 00da C2F38011 		ubfx	r1, r2, #6, #1
 5440 00de 0B43     		orrs	r3, r3, r1
 5441 00e0 43EAD213 		orr	r3, r3, r2, lsr #7
 5442 00e4 6279     		ldrb	r2, [r4, #5]	@ zero_extendqisi2
 5443 00e6 02F00101 		and	r1, r2, #1
 5444 00ea 0B43     		orrs	r3, r3, r1
 5445 00ec C2F34001 		ubfx	r1, r2, #1, #1
 5446 00f0 0B43     		orrs	r3, r3, r1
 5447 00f2 C2F38001 		ubfx	r1, r2, #2, #1
 5448 00f6 0B43     		orrs	r3, r3, r1
 5449 00f8 C2F3C001 		ubfx	r1, r2, #3, #1
 5450 00fc 0B43     		orrs	r3, r3, r1
 5451 00fe C2F30011 		ubfx	r1, r2, #4, #1
 5452 0102 0B43     		orrs	r3, r3, r1
 5453 0104 C2F34011 		ubfx	r1, r2, #5, #1
 5454 0108 0B43     		orrs	r3, r3, r1
 5455 010a C2F38011 		ubfx	r1, r2, #6, #1
 5456 010e 0B43     		orrs	r3, r3, r1
 5457 0110 53EAD213 		orrs	r3, r3, r2, lsr #7
 5458 0114 57D0     		beq	.L672
 5459 0116 6378     		ldrb	r3, [r4, #1]	@ zero_extendqisi2
 5460 0118 43F00203 		orr	r3, r3, #2
ARM GAS  C:\Temp\cclPUGyV.s 			page 92


 5461 011c 6370     		strb	r3, [r4, #1]
 5462              	.L673:
 5463 011e 0123     		movs	r3, #1
 5464 0120 2246     		mov	r2, r4
 5465 0122 0E21     		movs	r1, #14
 5466 0124 2846     		mov	r0, r5
 5467 0126 FFF7FEFF 		bl	ism330dhcx_write_reg
 5468 012a 0346     		mov	r3, r0
 5469 012c 0028     		cmp	r0, #0
 5470 012e 7FF471AF 		bne	.L669
 5471 0132 0123     		movs	r3, #1
 5472 0134 E218     		adds	r2, r4, r3
 5473 0136 5F21     		movs	r1, #95
 5474 0138 2846     		mov	r0, r5
 5475 013a FFF7FEFF 		bl	ism330dhcx_write_reg
 5476 013e 0346     		mov	r3, r0
 5477 0140 0028     		cmp	r0, #0
 5478 0142 7FF467AF 		bne	.L669
 5479 0146 0123     		movs	r3, #1
 5480 0148 01AA     		add	r2, sp, #4
 5481 014a 5821     		movs	r1, #88
 5482 014c 2846     		mov	r0, r5
 5483 014e FFF7FEFF 		bl	ism330dhcx_read_reg
 5484 0152 0346     		mov	r3, r0
 5485 0154 0028     		cmp	r0, #0
 5486 0156 7FF45DAF 		bne	.L669
 5487 015a 2278     		ldrb	r2, [r4]	@ zero_extendqisi2
 5488 015c 02F00103 		and	r3, r2, #1
 5489 0160 C2F34001 		ubfx	r1, r2, #1, #1
 5490 0164 0B43     		orrs	r3, r3, r1
 5491 0166 C2F38001 		ubfx	r1, r2, #2, #1
 5492 016a 0B43     		orrs	r3, r3, r1
 5493 016c C2F3C001 		ubfx	r1, r2, #3, #1
 5494 0170 0B43     		orrs	r3, r3, r1
 5495 0172 C2F30011 		ubfx	r1, r2, #4, #1
 5496 0176 0B43     		orrs	r3, r3, r1
 5497 0178 C2F34011 		ubfx	r1, r2, #5, #1
 5498 017c 0B43     		orrs	r3, r3, r1
 5499 017e C2F38012 		ubfx	r2, r2, #6, #1
 5500 0182 1343     		orrs	r3, r3, r2
 5501 0184 6278     		ldrb	r2, [r4, #1]	@ zero_extendqisi2
 5502 0186 C2F38001 		ubfx	r1, r2, #2, #1
 5503 018a 0B43     		orrs	r3, r3, r1
 5504 018c C2F3C001 		ubfx	r1, r2, #3, #1
 5505 0190 0B43     		orrs	r3, r3, r1
 5506 0192 C2F30011 		ubfx	r1, r2, #4, #1
 5507 0196 0B43     		orrs	r3, r3, r1
 5508 0198 C2F34011 		ubfx	r1, r2, #5, #1
 5509 019c 0B43     		orrs	r3, r3, r1
 5510 019e C2F38011 		ubfx	r1, r2, #6, #1
 5511 01a2 0B43     		orrs	r3, r3, r1
 5512 01a4 53EAD213 		orrs	r3, r3, r2, lsr #7
 5513 01a8 12D0     		beq	.L674
 5514 01aa 9DF80430 		ldrb	r3, [sp, #4]	@ zero_extendqisi2
 5515 01ae 43F08003 		orr	r3, r3, #128
 5516 01b2 8DF80430 		strb	r3, [sp, #4]
 5517              	.L675:
ARM GAS  C:\Temp\cclPUGyV.s 			page 93


 5518 01b6 0123     		movs	r3, #1
 5519 01b8 01AA     		add	r2, sp, #4
 5520 01ba 5821     		movs	r1, #88
 5521 01bc 2846     		mov	r0, r5
 5522 01be FFF7FEFF 		bl	ism330dhcx_write_reg
 5523 01c2 0346     		mov	r3, r0
 5524 01c4 26E7     		b	.L669
 5525              	.L672:
 5526 01c6 6378     		ldrb	r3, [r4, #1]	@ zero_extendqisi2
 5527 01c8 6FF34103 		bfc	r3, #1, #1
 5528 01cc 6370     		strb	r3, [r4, #1]
 5529 01ce A6E7     		b	.L673
 5530              	.L674:
 5531 01d0 9DF80430 		ldrb	r3, [sp, #4]	@ zero_extendqisi2
 5532 01d4 6FF3C713 		bfc	r3, #7, #1
 5533 01d8 8DF80430 		strb	r3, [sp, #4]
 5534 01dc EBE7     		b	.L675
 5536              		.section	.text.ism330dhcx_pin_int2_route_get,"ax",%progbits
 5537              		.align	1
 5538              		.global	ism330dhcx_pin_int2_route_get
 5539              		.syntax unified
 5540              		.thumb
 5541              		.thumb_func
 5543              	ism330dhcx_pin_int2_route_get:
 5544              		@ args = 0, pretend = 0, frame = 0
 5545              		@ frame_needed = 0, uses_anonymous_args = 0
 5546 0000 38B5     		push	{r3, r4, r5, lr}
 5547 0002 0546     		mov	r5, r0
 5548 0004 0C46     		mov	r4, r1
 5549 0006 0221     		movs	r1, #2
 5550 0008 FFF7FEFF 		bl	ism330dhcx_mem_bank_set
 5551 000c 0346     		mov	r3, r0
 5552 000e 10B1     		cbz	r0, .L683
 5553              	.L680:
 5554 0010 93B1     		cbz	r3, .L684
 5555              	.L679:
 5556 0012 1846     		mov	r0, r3
 5557 0014 38BD     		pop	{r3, r4, r5, pc}
 5558              	.L683:
 5559 0016 0123     		movs	r3, #1
 5560 0018 621D     		adds	r2, r4, #5
 5561 001a 1121     		movs	r1, #17
 5562 001c 2846     		mov	r0, r5
 5563 001e FFF7FEFF 		bl	ism330dhcx_read_reg
 5564 0022 0346     		mov	r3, r0
 5565 0024 0028     		cmp	r0, #0
 5566 0026 F4D1     		bne	.L679
 5567 0028 0123     		movs	r3, #1
 5568 002a A21C     		adds	r2, r4, #2
 5569 002c 0E21     		movs	r1, #14
 5570 002e 2846     		mov	r0, r5
 5571 0030 FFF7FEFF 		bl	ism330dhcx_read_reg
 5572 0034 0346     		mov	r3, r0
 5573 0036 EBE7     		b	.L680
 5574              	.L684:
 5575 0038 0123     		movs	r3, #1
 5576 003a E21C     		adds	r2, r4, #3
ARM GAS  C:\Temp\cclPUGyV.s 			page 94


 5577 003c 0F21     		movs	r1, #15
 5578 003e 2846     		mov	r0, r5
 5579 0040 FFF7FEFF 		bl	ism330dhcx_read_reg
 5580 0044 0346     		mov	r3, r0
 5581 0046 0028     		cmp	r0, #0
 5582 0048 E3D1     		bne	.L679
 5583 004a 0123     		movs	r3, #1
 5584 004c 221D     		adds	r2, r4, #4
 5585 004e 1021     		movs	r1, #16
 5586 0050 2846     		mov	r0, r5
 5587 0052 FFF7FEFF 		bl	ism330dhcx_read_reg
 5588 0056 0346     		mov	r3, r0
 5589 0058 0028     		cmp	r0, #0
 5590 005a DAD1     		bne	.L679
 5591 005c 0021     		movs	r1, #0
 5592 005e 2846     		mov	r0, r5
 5593 0060 FFF7FEFF 		bl	ism330dhcx_mem_bank_set
 5594 0064 0346     		mov	r3, r0
 5595 0066 0028     		cmp	r0, #0
 5596 0068 D3D1     		bne	.L679
 5597 006a 0123     		movs	r3, #1
 5598 006c 2246     		mov	r2, r4
 5599 006e 0E21     		movs	r1, #14
 5600 0070 2846     		mov	r0, r5
 5601 0072 FFF7FEFF 		bl	ism330dhcx_read_reg
 5602 0076 0346     		mov	r3, r0
 5603 0078 0028     		cmp	r0, #0
 5604 007a CAD1     		bne	.L679
 5605 007c 0123     		movs	r3, #1
 5606 007e E218     		adds	r2, r4, r3
 5607 0080 5F21     		movs	r1, #95
 5608 0082 2846     		mov	r0, r5
 5609 0084 FFF7FEFF 		bl	ism330dhcx_read_reg
 5610 0088 0346     		mov	r3, r0
 5611 008a C2E7     		b	.L679
 5613              		.section	.text.ism330dhcx_pin_mode_set,"ax",%progbits
 5614              		.align	1
 5615              		.global	ism330dhcx_pin_mode_set
 5616              		.syntax unified
 5617              		.thumb
 5618              		.thumb_func
 5620              	ism330dhcx_pin_mode_set:
 5621              		@ args = 0, pretend = 0, frame = 8
 5622              		@ frame_needed = 0, uses_anonymous_args = 0
 5623 0000 30B5     		push	{r4, r5, lr}
 5624 0002 83B0     		sub	sp, sp, #12
 5625 0004 0446     		mov	r4, r0
 5626 0006 0D46     		mov	r5, r1
 5627 0008 0123     		movs	r3, #1
 5628 000a 01AA     		add	r2, sp, #4
 5629 000c 1221     		movs	r1, #18
 5630 000e FFF7FEFF 		bl	ism330dhcx_read_reg
 5631 0012 08B1     		cbz	r0, .L688
 5632              	.L685:
 5633 0014 03B0     		add	sp, sp, #12
 5634              		@ sp needed
 5635 0016 30BD     		pop	{r4, r5, pc}
ARM GAS  C:\Temp\cclPUGyV.s 			page 95


 5636              	.L688:
 5637 0018 9DF80430 		ldrb	r3, [sp, #4]	@ zero_extendqisi2
 5638 001c 65F30413 		bfi	r3, r5, #4, #1
 5639 0020 8DF80430 		strb	r3, [sp, #4]
 5640 0024 0123     		movs	r3, #1
 5641 0026 01AA     		add	r2, sp, #4
 5642 0028 1221     		movs	r1, #18
 5643 002a 2046     		mov	r0, r4
 5644 002c FFF7FEFF 		bl	ism330dhcx_write_reg
 5645 0030 F0E7     		b	.L685
 5647              		.section	.text.ism330dhcx_pin_mode_get,"ax",%progbits
 5648              		.align	1
 5649              		.global	ism330dhcx_pin_mode_get
 5650              		.syntax unified
 5651              		.thumb
 5652              		.thumb_func
 5654              	ism330dhcx_pin_mode_get:
 5655              		@ args = 0, pretend = 0, frame = 8
 5656              		@ frame_needed = 0, uses_anonymous_args = 0
 5657 0000 10B5     		push	{r4, lr}
 5658 0002 82B0     		sub	sp, sp, #8
 5659 0004 0C46     		mov	r4, r1
 5660 0006 0123     		movs	r3, #1
 5661 0008 01AA     		add	r2, sp, #4
 5662 000a 1221     		movs	r1, #18
 5663 000c FFF7FEFF 		bl	ism330dhcx_read_reg
 5664 0010 9DF80430 		ldrb	r3, [sp, #4]	@ zero_extendqisi2
 5665 0014 C3F30012 		ubfx	r2, r3, #4, #1
 5666 0018 13F0100F 		tst	r3, #16
 5667 001c 03D0     		beq	.L690
 5668 001e 32B9     		cbnz	r2, .L691
 5669 0020 0023     		movs	r3, #0
 5670 0022 2370     		strb	r3, [r4]
 5671 0024 01E0     		b	.L689
 5672              	.L690:
 5673 0026 0023     		movs	r3, #0
 5674 0028 2370     		strb	r3, [r4]
 5675              	.L689:
 5676 002a 02B0     		add	sp, sp, #8
 5677              		@ sp needed
 5678 002c 10BD     		pop	{r4, pc}
 5679              	.L691:
 5680 002e 0123     		movs	r3, #1
 5681 0030 2370     		strb	r3, [r4]
 5682 0032 FAE7     		b	.L689
 5684              		.section	.text.ism330dhcx_pin_polarity_set,"ax",%progbits
 5685              		.align	1
 5686              		.global	ism330dhcx_pin_polarity_set
 5687              		.syntax unified
 5688              		.thumb
 5689              		.thumb_func
 5691              	ism330dhcx_pin_polarity_set:
 5692              		@ args = 0, pretend = 0, frame = 8
 5693              		@ frame_needed = 0, uses_anonymous_args = 0
 5694 0000 30B5     		push	{r4, r5, lr}
 5695 0002 83B0     		sub	sp, sp, #12
 5696 0004 0446     		mov	r4, r0
ARM GAS  C:\Temp\cclPUGyV.s 			page 96


 5697 0006 0D46     		mov	r5, r1
 5698 0008 0123     		movs	r3, #1
 5699 000a 01AA     		add	r2, sp, #4
 5700 000c 1221     		movs	r1, #18
 5701 000e FFF7FEFF 		bl	ism330dhcx_read_reg
 5702 0012 08B1     		cbz	r0, .L699
 5703              	.L696:
 5704 0014 03B0     		add	sp, sp, #12
 5705              		@ sp needed
 5706 0016 30BD     		pop	{r4, r5, pc}
 5707              	.L699:
 5708 0018 9DF80430 		ldrb	r3, [sp, #4]	@ zero_extendqisi2
 5709 001c 65F34513 		bfi	r3, r5, #5, #1
 5710 0020 8DF80430 		strb	r3, [sp, #4]
 5711 0024 0123     		movs	r3, #1
 5712 0026 01AA     		add	r2, sp, #4
 5713 0028 1221     		movs	r1, #18
 5714 002a 2046     		mov	r0, r4
 5715 002c FFF7FEFF 		bl	ism330dhcx_write_reg
 5716 0030 F0E7     		b	.L696
 5718              		.section	.text.ism330dhcx_pin_polarity_get,"ax",%progbits
 5719              		.align	1
 5720              		.global	ism330dhcx_pin_polarity_get
 5721              		.syntax unified
 5722              		.thumb
 5723              		.thumb_func
 5725              	ism330dhcx_pin_polarity_get:
 5726              		@ args = 0, pretend = 0, frame = 8
 5727              		@ frame_needed = 0, uses_anonymous_args = 0
 5728 0000 10B5     		push	{r4, lr}
 5729 0002 82B0     		sub	sp, sp, #8
 5730 0004 0C46     		mov	r4, r1
 5731 0006 0123     		movs	r3, #1
 5732 0008 01AA     		add	r2, sp, #4
 5733 000a 1221     		movs	r1, #18
 5734 000c FFF7FEFF 		bl	ism330dhcx_read_reg
 5735 0010 9DF80430 		ldrb	r3, [sp, #4]	@ zero_extendqisi2
 5736 0014 C3F34012 		ubfx	r2, r3, #5, #1
 5737 0018 13F0200F 		tst	r3, #32
 5738 001c 03D0     		beq	.L701
 5739 001e 32B9     		cbnz	r2, .L702
 5740 0020 0023     		movs	r3, #0
 5741 0022 2370     		strb	r3, [r4]
 5742 0024 01E0     		b	.L700
 5743              	.L701:
 5744 0026 0023     		movs	r3, #0
 5745 0028 2370     		strb	r3, [r4]
 5746              	.L700:
 5747 002a 02B0     		add	sp, sp, #8
 5748              		@ sp needed
 5749 002c 10BD     		pop	{r4, pc}
 5750              	.L702:
 5751 002e 0123     		movs	r3, #1
 5752 0030 2370     		strb	r3, [r4]
 5753 0032 FAE7     		b	.L700
 5755              		.section	.text.ism330dhcx_all_on_int1_set,"ax",%progbits
 5756              		.align	1
ARM GAS  C:\Temp\cclPUGyV.s 			page 97


 5757              		.global	ism330dhcx_all_on_int1_set
 5758              		.syntax unified
 5759              		.thumb
 5760              		.thumb_func
 5762              	ism330dhcx_all_on_int1_set:
 5763              		@ args = 0, pretend = 0, frame = 8
 5764              		@ frame_needed = 0, uses_anonymous_args = 0
 5765 0000 30B5     		push	{r4, r5, lr}
 5766 0002 83B0     		sub	sp, sp, #12
 5767 0004 0446     		mov	r4, r0
 5768 0006 0D46     		mov	r5, r1
 5769 0008 0123     		movs	r3, #1
 5770 000a 01AA     		add	r2, sp, #4
 5771 000c 1321     		movs	r1, #19
 5772 000e FFF7FEFF 		bl	ism330dhcx_read_reg
 5773 0012 08B1     		cbz	r0, .L710
 5774              	.L707:
 5775 0014 03B0     		add	sp, sp, #12
 5776              		@ sp needed
 5777 0016 30BD     		pop	{r4, r5, pc}
 5778              	.L710:
 5779 0018 9DF80430 		ldrb	r3, [sp, #4]	@ zero_extendqisi2
 5780 001c 65F34513 		bfi	r3, r5, #5, #1
 5781 0020 8DF80430 		strb	r3, [sp, #4]
 5782 0024 0123     		movs	r3, #1
 5783 0026 01AA     		add	r2, sp, #4
 5784 0028 1321     		movs	r1, #19
 5785 002a 2046     		mov	r0, r4
 5786 002c FFF7FEFF 		bl	ism330dhcx_write_reg
 5787 0030 F0E7     		b	.L707
 5789              		.section	.text.ism330dhcx_all_on_int1_get,"ax",%progbits
 5790              		.align	1
 5791              		.global	ism330dhcx_all_on_int1_get
 5792              		.syntax unified
 5793              		.thumb
 5794              		.thumb_func
 5796              	ism330dhcx_all_on_int1_get:
 5797              		@ args = 0, pretend = 0, frame = 8
 5798              		@ frame_needed = 0, uses_anonymous_args = 0
 5799 0000 10B5     		push	{r4, lr}
 5800 0002 82B0     		sub	sp, sp, #8
 5801 0004 0C46     		mov	r4, r1
 5802 0006 0123     		movs	r3, #1
 5803 0008 01AA     		add	r2, sp, #4
 5804 000a 1321     		movs	r1, #19
 5805 000c FFF7FEFF 		bl	ism330dhcx_read_reg
 5806 0010 9DF80430 		ldrb	r3, [sp, #4]	@ zero_extendqisi2
 5807 0014 C3F34013 		ubfx	r3, r3, #5, #1
 5808 0018 2370     		strb	r3, [r4]
 5809 001a 02B0     		add	sp, sp, #8
 5810              		@ sp needed
 5811 001c 10BD     		pop	{r4, pc}
 5813              		.section	.text.ism330dhcx_int_notification_set,"ax",%progbits
 5814              		.align	1
 5815              		.global	ism330dhcx_int_notification_set
 5816              		.syntax unified
 5817              		.thumb
ARM GAS  C:\Temp\cclPUGyV.s 			page 98


 5818              		.thumb_func
 5820              	ism330dhcx_int_notification_set:
 5821              		@ args = 0, pretend = 0, frame = 8
 5822              		@ frame_needed = 0, uses_anonymous_args = 0
 5823 0000 30B5     		push	{r4, r5, lr}
 5824 0002 83B0     		sub	sp, sp, #12
 5825 0004 0546     		mov	r5, r0
 5826 0006 0C46     		mov	r4, r1
 5827 0008 0123     		movs	r3, #1
 5828 000a 01AA     		add	r2, sp, #4
 5829 000c 5621     		movs	r1, #86
 5830 000e FFF7FEFF 		bl	ism330dhcx_read_reg
 5831 0012 0346     		mov	r3, r0
 5832 0014 18B1     		cbz	r0, .L717
 5833              	.L714:
 5834 0016 F3B1     		cbz	r3, .L718
 5835              	.L713:
 5836 0018 1846     		mov	r0, r3
 5837 001a 03B0     		add	sp, sp, #12
 5838              		@ sp needed
 5839 001c 30BD     		pop	{r4, r5, pc}
 5840              	.L717:
 5841 001e 04F00103 		and	r3, r4, #1
 5842 0022 9DF80420 		ldrb	r2, [sp, #4]	@ zero_extendqisi2
 5843 0026 63F30002 		bfi	r2, r3, #0, #1
 5844 002a 8DF80420 		strb	r2, [sp, #4]
 5845 002e D2B2     		uxtb	r2, r2
 5846 0030 63F38612 		bfi	r2, r3, #6, #1
 5847 0034 8DF80420 		strb	r2, [sp, #4]
 5848 0038 0123     		movs	r3, #1
 5849 003a 01AA     		add	r2, sp, #4
 5850 003c 5621     		movs	r1, #86
 5851 003e 2846     		mov	r0, r5
 5852 0040 FFF7FEFF 		bl	ism330dhcx_write_reg
 5853 0044 0346     		mov	r3, r0
 5854 0046 0028     		cmp	r0, #0
 5855 0048 E6D1     		bne	.L713
 5856 004a 0221     		movs	r1, #2
 5857 004c 2846     		mov	r0, r5
 5858 004e FFF7FEFF 		bl	ism330dhcx_mem_bank_set
 5859 0052 0346     		mov	r3, r0
 5860 0054 DFE7     		b	.L714
 5861              	.L718:
 5862 0056 0123     		movs	r3, #1
 5863 0058 6A46     		mov	r2, sp
 5864 005a 1721     		movs	r1, #23
 5865 005c 2846     		mov	r0, r5
 5866 005e FFF7FEFF 		bl	ism330dhcx_read_reg
 5867 0062 0346     		mov	r3, r0
 5868 0064 0028     		cmp	r0, #0
 5869 0066 D7D1     		bne	.L713
 5870 0068 C4F34001 		ubfx	r1, r4, #1, #1
 5871 006c 9DF80030 		ldrb	r3, [sp]	@ zero_extendqisi2
 5872 0070 61F3C713 		bfi	r3, r1, #7, #1
 5873 0074 8DF80030 		strb	r3, [sp]
 5874 0078 0123     		movs	r3, #1
 5875 007a 6A46     		mov	r2, sp
ARM GAS  C:\Temp\cclPUGyV.s 			page 99


 5876 007c 1721     		movs	r1, #23
 5877 007e 2846     		mov	r0, r5
 5878 0080 FFF7FEFF 		bl	ism330dhcx_write_reg
 5879 0084 0346     		mov	r3, r0
 5880 0086 0028     		cmp	r0, #0
 5881 0088 C6D1     		bne	.L713
 5882 008a 0021     		movs	r1, #0
 5883 008c 2846     		mov	r0, r5
 5884 008e FFF7FEFF 		bl	ism330dhcx_mem_bank_set
 5885 0092 0346     		mov	r3, r0
 5886 0094 C0E7     		b	.L713
 5888              		.section	.text.ism330dhcx_int_notification_get,"ax",%progbits
 5889              		.align	1
 5890              		.global	ism330dhcx_int_notification_get
 5891              		.syntax unified
 5892              		.thumb
 5893              		.thumb_func
 5895              	ism330dhcx_int_notification_get:
 5896              		@ args = 0, pretend = 0, frame = 8
 5897              		@ frame_needed = 0, uses_anonymous_args = 0
 5898 0000 30B5     		push	{r4, r5, lr}
 5899 0002 83B0     		sub	sp, sp, #12
 5900 0004 0546     		mov	r5, r0
 5901 0006 0C46     		mov	r4, r1
 5902 0008 0023     		movs	r3, #0
 5903 000a 0B70     		strb	r3, [r1]
 5904 000c 0123     		movs	r3, #1
 5905 000e 01AA     		add	r2, sp, #4
 5906 0010 5621     		movs	r1, #86
 5907 0012 FFF7FEFF 		bl	ism330dhcx_read_reg
 5908 0016 0246     		mov	r2, r0
 5909 0018 78B1     		cbz	r0, .L730
 5910              	.L720:
 5911 001a EAB1     		cbz	r2, .L731
 5912              	.L721:
 5913 001c 9DF80010 		ldrb	r1, [sp]	@ zero_extendqisi2
 5914 0020 C909     		lsrs	r1, r1, #7
 5915 0022 9DF80430 		ldrb	r3, [sp, #4]	@ zero_extendqisi2
 5916 0026 03F00103 		and	r3, r3, #1
 5917 002a 03EB4103 		add	r3, r3, r1, lsl #1
 5918 002e 032B     		cmp	r3, #3
 5919 0030 26D8     		bhi	.L722
 5920 0032 DFE803F0 		tbb	[pc, r3]
 5921              	.L724:
 5922 0036 17       		.byte	(.L727-.L724)/2
 5923 0037 1C       		.byte	(.L726-.L724)/2
 5924 0038 1F       		.byte	(.L725-.L724)/2
 5925 0039 22       		.byte	(.L723-.L724)/2
 5926              		.p2align 1
 5927              	.L730:
 5928 003a 0221     		movs	r1, #2
 5929 003c 2846     		mov	r0, r5
 5930 003e FFF7FEFF 		bl	ism330dhcx_mem_bank_set
 5931 0042 0246     		mov	r2, r0
 5932 0044 0028     		cmp	r0, #0
 5933 0046 E9D1     		bne	.L721
 5934 0048 0123     		movs	r3, #1
ARM GAS  C:\Temp\cclPUGyV.s 			page 100


 5935 004a 6A46     		mov	r2, sp
 5936 004c 1721     		movs	r1, #23
 5937 004e 2846     		mov	r0, r5
 5938 0050 FFF7FEFF 		bl	ism330dhcx_read_reg
 5939 0054 0246     		mov	r2, r0
 5940 0056 E0E7     		b	.L720
 5941              	.L731:
 5942 0058 0021     		movs	r1, #0
 5943 005a 2846     		mov	r0, r5
 5944 005c FFF7FEFF 		bl	ism330dhcx_mem_bank_set
 5945 0060 0246     		mov	r2, r0
 5946 0062 DBE7     		b	.L721
 5947              	.L727:
 5948 0064 0023     		movs	r3, #0
 5949 0066 2370     		strb	r3, [r4]
 5950              	.L719:
 5951 0068 1046     		mov	r0, r2
 5952 006a 03B0     		add	sp, sp, #12
 5953              		@ sp needed
 5954 006c 30BD     		pop	{r4, r5, pc}
 5955              	.L726:
 5956 006e 0123     		movs	r3, #1
 5957 0070 2370     		strb	r3, [r4]
 5958 0072 F9E7     		b	.L719
 5959              	.L725:
 5960 0074 0223     		movs	r3, #2
 5961 0076 2370     		strb	r3, [r4]
 5962 0078 F6E7     		b	.L719
 5963              	.L723:
 5964 007a 0323     		movs	r3, #3
 5965 007c 2370     		strb	r3, [r4]
 5966 007e F3E7     		b	.L719
 5967              	.L722:
 5968 0080 0023     		movs	r3, #0
 5969 0082 2370     		strb	r3, [r4]
 5970 0084 F0E7     		b	.L719
 5972              		.section	.text.ism330dhcx_wkup_ths_weight_set,"ax",%progbits
 5973              		.align	1
 5974              		.global	ism330dhcx_wkup_ths_weight_set
 5975              		.syntax unified
 5976              		.thumb
 5977              		.thumb_func
 5979              	ism330dhcx_wkup_ths_weight_set:
 5980              		@ args = 0, pretend = 0, frame = 8
 5981              		@ frame_needed = 0, uses_anonymous_args = 0
 5982 0000 30B5     		push	{r4, r5, lr}
 5983 0002 83B0     		sub	sp, sp, #12
 5984 0004 0446     		mov	r4, r0
 5985 0006 0D46     		mov	r5, r1
 5986 0008 0123     		movs	r3, #1
 5987 000a 01AA     		add	r2, sp, #4
 5988 000c 5C21     		movs	r1, #92
 5989 000e FFF7FEFF 		bl	ism330dhcx_read_reg
 5990 0012 08B1     		cbz	r0, .L735
 5991              	.L732:
 5992 0014 03B0     		add	sp, sp, #12
 5993              		@ sp needed
ARM GAS  C:\Temp\cclPUGyV.s 			page 101


 5994 0016 30BD     		pop	{r4, r5, pc}
 5995              	.L735:
 5996 0018 9DF80430 		ldrb	r3, [sp, #4]	@ zero_extendqisi2
 5997 001c 65F30413 		bfi	r3, r5, #4, #1
 5998 0020 8DF80430 		strb	r3, [sp, #4]
 5999 0024 0123     		movs	r3, #1
 6000 0026 01AA     		add	r2, sp, #4
 6001 0028 5C21     		movs	r1, #92
 6002 002a 2046     		mov	r0, r4
 6003 002c FFF7FEFF 		bl	ism330dhcx_write_reg
 6004 0030 F0E7     		b	.L732
 6006              		.section	.text.ism330dhcx_wkup_ths_weight_get,"ax",%progbits
 6007              		.align	1
 6008              		.global	ism330dhcx_wkup_ths_weight_get
 6009              		.syntax unified
 6010              		.thumb
 6011              		.thumb_func
 6013              	ism330dhcx_wkup_ths_weight_get:
 6014              		@ args = 0, pretend = 0, frame = 8
 6015              		@ frame_needed = 0, uses_anonymous_args = 0
 6016 0000 10B5     		push	{r4, lr}
 6017 0002 82B0     		sub	sp, sp, #8
 6018 0004 0C46     		mov	r4, r1
 6019 0006 0123     		movs	r3, #1
 6020 0008 01AA     		add	r2, sp, #4
 6021 000a 5C21     		movs	r1, #92
 6022 000c FFF7FEFF 		bl	ism330dhcx_read_reg
 6023 0010 9DF80430 		ldrb	r3, [sp, #4]	@ zero_extendqisi2
 6024 0014 C3F30012 		ubfx	r2, r3, #4, #1
 6025 0018 13F0100F 		tst	r3, #16
 6026 001c 03D0     		beq	.L737
 6027 001e 32B9     		cbnz	r2, .L738
 6028 0020 0023     		movs	r3, #0
 6029 0022 2370     		strb	r3, [r4]
 6030 0024 01E0     		b	.L736
 6031              	.L737:
 6032 0026 0023     		movs	r3, #0
 6033 0028 2370     		strb	r3, [r4]
 6034              	.L736:
 6035 002a 02B0     		add	sp, sp, #8
 6036              		@ sp needed
 6037 002c 10BD     		pop	{r4, pc}
 6038              	.L738:
 6039 002e 0123     		movs	r3, #1
 6040 0030 2370     		strb	r3, [r4]
 6041 0032 FAE7     		b	.L736
 6043              		.section	.text.ism330dhcx_wkup_threshold_set,"ax",%progbits
 6044              		.align	1
 6045              		.global	ism330dhcx_wkup_threshold_set
 6046              		.syntax unified
 6047              		.thumb
 6048              		.thumb_func
 6050              	ism330dhcx_wkup_threshold_set:
 6051              		@ args = 0, pretend = 0, frame = 8
 6052              		@ frame_needed = 0, uses_anonymous_args = 0
 6053 0000 30B5     		push	{r4, r5, lr}
 6054 0002 83B0     		sub	sp, sp, #12
ARM GAS  C:\Temp\cclPUGyV.s 			page 102


 6055 0004 0446     		mov	r4, r0
 6056 0006 0D46     		mov	r5, r1
 6057 0008 0123     		movs	r3, #1
 6058 000a 01AA     		add	r2, sp, #4
 6059 000c 5B21     		movs	r1, #91
 6060 000e FFF7FEFF 		bl	ism330dhcx_read_reg
 6061 0012 08B1     		cbz	r0, .L746
 6062              	.L743:
 6063 0014 03B0     		add	sp, sp, #12
 6064              		@ sp needed
 6065 0016 30BD     		pop	{r4, r5, pc}
 6066              	.L746:
 6067 0018 9DF80430 		ldrb	r3, [sp, #4]	@ zero_extendqisi2
 6068 001c 65F30503 		bfi	r3, r5, #0, #6
 6069 0020 8DF80430 		strb	r3, [sp, #4]
 6070 0024 0123     		movs	r3, #1
 6071 0026 01AA     		add	r2, sp, #4
 6072 0028 5B21     		movs	r1, #91
 6073 002a 2046     		mov	r0, r4
 6074 002c FFF7FEFF 		bl	ism330dhcx_write_reg
 6075 0030 F0E7     		b	.L743
 6077              		.section	.text.ism330dhcx_wkup_threshold_get,"ax",%progbits
 6078              		.align	1
 6079              		.global	ism330dhcx_wkup_threshold_get
 6080              		.syntax unified
 6081              		.thumb
 6082              		.thumb_func
 6084              	ism330dhcx_wkup_threshold_get:
 6085              		@ args = 0, pretend = 0, frame = 8
 6086              		@ frame_needed = 0, uses_anonymous_args = 0
 6087 0000 10B5     		push	{r4, lr}
 6088 0002 82B0     		sub	sp, sp, #8
 6089 0004 0C46     		mov	r4, r1
 6090 0006 0123     		movs	r3, #1
 6091 0008 01AA     		add	r2, sp, #4
 6092 000a 5B21     		movs	r1, #91
 6093 000c FFF7FEFF 		bl	ism330dhcx_read_reg
 6094 0010 9DF80430 		ldrb	r3, [sp, #4]	@ zero_extendqisi2
 6095 0014 C3F30503 		ubfx	r3, r3, #0, #6
 6096 0018 2370     		strb	r3, [r4]
 6097 001a 02B0     		add	sp, sp, #8
 6098              		@ sp needed
 6099 001c 10BD     		pop	{r4, pc}
 6101              		.section	.text.ism330dhcx_xl_usr_offset_on_wkup_set,"ax",%progbits
 6102              		.align	1
 6103              		.global	ism330dhcx_xl_usr_offset_on_wkup_set
 6104              		.syntax unified
 6105              		.thumb
 6106              		.thumb_func
 6108              	ism330dhcx_xl_usr_offset_on_wkup_set:
 6109              		@ args = 0, pretend = 0, frame = 8
 6110              		@ frame_needed = 0, uses_anonymous_args = 0
 6111 0000 30B5     		push	{r4, r5, lr}
 6112 0002 83B0     		sub	sp, sp, #12
 6113 0004 0446     		mov	r4, r0
 6114 0006 0D46     		mov	r5, r1
 6115 0008 0123     		movs	r3, #1
ARM GAS  C:\Temp\cclPUGyV.s 			page 103


 6116 000a 01AA     		add	r2, sp, #4
 6117 000c 5B21     		movs	r1, #91
 6118 000e FFF7FEFF 		bl	ism330dhcx_read_reg
 6119 0012 08B1     		cbz	r0, .L752
 6120              	.L749:
 6121 0014 03B0     		add	sp, sp, #12
 6122              		@ sp needed
 6123 0016 30BD     		pop	{r4, r5, pc}
 6124              	.L752:
 6125 0018 9DF80430 		ldrb	r3, [sp, #4]	@ zero_extendqisi2
 6126 001c 65F38613 		bfi	r3, r5, #6, #1
 6127 0020 8DF80430 		strb	r3, [sp, #4]
 6128 0024 0123     		movs	r3, #1
 6129 0026 01AA     		add	r2, sp, #4
 6130 0028 5B21     		movs	r1, #91
 6131 002a 2046     		mov	r0, r4
 6132 002c FFF7FEFF 		bl	ism330dhcx_write_reg
 6133 0030 F0E7     		b	.L749
 6135              		.section	.text.ism330dhcx_xl_usr_offset_on_wkup_get,"ax",%progbits
 6136              		.align	1
 6137              		.global	ism330dhcx_xl_usr_offset_on_wkup_get
 6138              		.syntax unified
 6139              		.thumb
 6140              		.thumb_func
 6142              	ism330dhcx_xl_usr_offset_on_wkup_get:
 6143              		@ args = 0, pretend = 0, frame = 8
 6144              		@ frame_needed = 0, uses_anonymous_args = 0
 6145 0000 10B5     		push	{r4, lr}
 6146 0002 82B0     		sub	sp, sp, #8
 6147 0004 0C46     		mov	r4, r1
 6148 0006 0123     		movs	r3, #1
 6149 0008 01AA     		add	r2, sp, #4
 6150 000a 5B21     		movs	r1, #91
 6151 000c FFF7FEFF 		bl	ism330dhcx_read_reg
 6152 0010 9DF80430 		ldrb	r3, [sp, #4]	@ zero_extendqisi2
 6153 0014 C3F38013 		ubfx	r3, r3, #6, #1
 6154 0018 2370     		strb	r3, [r4]
 6155 001a 02B0     		add	sp, sp, #8
 6156              		@ sp needed
 6157 001c 10BD     		pop	{r4, pc}
 6159              		.section	.text.ism330dhcx_wkup_dur_set,"ax",%progbits
 6160              		.align	1
 6161              		.global	ism330dhcx_wkup_dur_set
 6162              		.syntax unified
 6163              		.thumb
 6164              		.thumb_func
 6166              	ism330dhcx_wkup_dur_set:
 6167              		@ args = 0, pretend = 0, frame = 8
 6168              		@ frame_needed = 0, uses_anonymous_args = 0
 6169 0000 30B5     		push	{r4, r5, lr}
 6170 0002 83B0     		sub	sp, sp, #12
 6171 0004 0446     		mov	r4, r0
 6172 0006 0D46     		mov	r5, r1
 6173 0008 0123     		movs	r3, #1
 6174 000a 01AA     		add	r2, sp, #4
 6175 000c 5C21     		movs	r1, #92
 6176 000e FFF7FEFF 		bl	ism330dhcx_read_reg
ARM GAS  C:\Temp\cclPUGyV.s 			page 104


 6177 0012 08B1     		cbz	r0, .L758
 6178              	.L755:
 6179 0014 03B0     		add	sp, sp, #12
 6180              		@ sp needed
 6181 0016 30BD     		pop	{r4, r5, pc}
 6182              	.L758:
 6183 0018 9DF80430 		ldrb	r3, [sp, #4]	@ zero_extendqisi2
 6184 001c 65F34613 		bfi	r3, r5, #5, #2
 6185 0020 8DF80430 		strb	r3, [sp, #4]
 6186 0024 0123     		movs	r3, #1
 6187 0026 01AA     		add	r2, sp, #4
 6188 0028 5C21     		movs	r1, #92
 6189 002a 2046     		mov	r0, r4
 6190 002c FFF7FEFF 		bl	ism330dhcx_write_reg
 6191 0030 F0E7     		b	.L755
 6193              		.section	.text.ism330dhcx_wkup_dur_get,"ax",%progbits
 6194              		.align	1
 6195              		.global	ism330dhcx_wkup_dur_get
 6196              		.syntax unified
 6197              		.thumb
 6198              		.thumb_func
 6200              	ism330dhcx_wkup_dur_get:
 6201              		@ args = 0, pretend = 0, frame = 8
 6202              		@ frame_needed = 0, uses_anonymous_args = 0
 6203 0000 10B5     		push	{r4, lr}
 6204 0002 82B0     		sub	sp, sp, #8
 6205 0004 0C46     		mov	r4, r1
 6206 0006 0123     		movs	r3, #1
 6207 0008 01AA     		add	r2, sp, #4
 6208 000a 5C21     		movs	r1, #92
 6209 000c FFF7FEFF 		bl	ism330dhcx_read_reg
 6210 0010 9DF80430 		ldrb	r3, [sp, #4]	@ zero_extendqisi2
 6211 0014 C3F34113 		ubfx	r3, r3, #5, #2
 6212 0018 2370     		strb	r3, [r4]
 6213 001a 02B0     		add	sp, sp, #8
 6214              		@ sp needed
 6215 001c 10BD     		pop	{r4, pc}
 6217              		.section	.text.ism330dhcx_gy_sleep_mode_set,"ax",%progbits
 6218              		.align	1
 6219              		.global	ism330dhcx_gy_sleep_mode_set
 6220              		.syntax unified
 6221              		.thumb
 6222              		.thumb_func
 6224              	ism330dhcx_gy_sleep_mode_set:
 6225              		@ args = 0, pretend = 0, frame = 8
 6226              		@ frame_needed = 0, uses_anonymous_args = 0
 6227 0000 30B5     		push	{r4, r5, lr}
 6228 0002 83B0     		sub	sp, sp, #12
 6229 0004 0446     		mov	r4, r0
 6230 0006 0D46     		mov	r5, r1
 6231 0008 0123     		movs	r3, #1
 6232 000a 01AA     		add	r2, sp, #4
 6233 000c 1321     		movs	r1, #19
 6234 000e FFF7FEFF 		bl	ism330dhcx_read_reg
 6235 0012 08B1     		cbz	r0, .L764
 6236              	.L761:
 6237 0014 03B0     		add	sp, sp, #12
ARM GAS  C:\Temp\cclPUGyV.s 			page 105


 6238              		@ sp needed
 6239 0016 30BD     		pop	{r4, r5, pc}
 6240              	.L764:
 6241 0018 9DF80430 		ldrb	r3, [sp, #4]	@ zero_extendqisi2
 6242 001c 65F38613 		bfi	r3, r5, #6, #1
 6243 0020 8DF80430 		strb	r3, [sp, #4]
 6244 0024 0123     		movs	r3, #1
 6245 0026 01AA     		add	r2, sp, #4
 6246 0028 1321     		movs	r1, #19
 6247 002a 2046     		mov	r0, r4
 6248 002c FFF7FEFF 		bl	ism330dhcx_write_reg
 6249 0030 F0E7     		b	.L761
 6251              		.section	.text.ism330dhcx_gy_sleep_mode_get,"ax",%progbits
 6252              		.align	1
 6253              		.global	ism330dhcx_gy_sleep_mode_get
 6254              		.syntax unified
 6255              		.thumb
 6256              		.thumb_func
 6258              	ism330dhcx_gy_sleep_mode_get:
 6259              		@ args = 0, pretend = 0, frame = 8
 6260              		@ frame_needed = 0, uses_anonymous_args = 0
 6261 0000 10B5     		push	{r4, lr}
 6262 0002 82B0     		sub	sp, sp, #8
 6263 0004 0C46     		mov	r4, r1
 6264 0006 0123     		movs	r3, #1
 6265 0008 01AA     		add	r2, sp, #4
 6266 000a 1321     		movs	r1, #19
 6267 000c FFF7FEFF 		bl	ism330dhcx_read_reg
 6268 0010 9DF80430 		ldrb	r3, [sp, #4]	@ zero_extendqisi2
 6269 0014 C3F38013 		ubfx	r3, r3, #6, #1
 6270 0018 2370     		strb	r3, [r4]
 6271 001a 02B0     		add	sp, sp, #8
 6272              		@ sp needed
 6273 001c 10BD     		pop	{r4, pc}
 6275              		.section	.text.ism330dhcx_act_pin_notification_set,"ax",%progbits
 6276              		.align	1
 6277              		.global	ism330dhcx_act_pin_notification_set
 6278              		.syntax unified
 6279              		.thumb
 6280              		.thumb_func
 6282              	ism330dhcx_act_pin_notification_set:
 6283              		@ args = 0, pretend = 0, frame = 8
 6284              		@ frame_needed = 0, uses_anonymous_args = 0
 6285 0000 30B5     		push	{r4, r5, lr}
 6286 0002 83B0     		sub	sp, sp, #12
 6287 0004 0446     		mov	r4, r0
 6288 0006 0D46     		mov	r5, r1
 6289 0008 0123     		movs	r3, #1
 6290 000a 01AA     		add	r2, sp, #4
 6291 000c 5621     		movs	r1, #86
 6292 000e FFF7FEFF 		bl	ism330dhcx_read_reg
 6293 0012 08B1     		cbz	r0, .L770
 6294              	.L767:
 6295 0014 03B0     		add	sp, sp, #12
 6296              		@ sp needed
 6297 0016 30BD     		pop	{r4, r5, pc}
 6298              	.L770:
ARM GAS  C:\Temp\cclPUGyV.s 			page 106


 6299 0018 9DF80430 		ldrb	r3, [sp, #4]	@ zero_extendqisi2
 6300 001c 65F34513 		bfi	r3, r5, #5, #1
 6301 0020 8DF80430 		strb	r3, [sp, #4]
 6302 0024 0123     		movs	r3, #1
 6303 0026 01AA     		add	r2, sp, #4
 6304 0028 5621     		movs	r1, #86
 6305 002a 2046     		mov	r0, r4
 6306 002c FFF7FEFF 		bl	ism330dhcx_write_reg
 6307 0030 F0E7     		b	.L767
 6309              		.section	.text.ism330dhcx_act_pin_notification_get,"ax",%progbits
 6310              		.align	1
 6311              		.global	ism330dhcx_act_pin_notification_get
 6312              		.syntax unified
 6313              		.thumb
 6314              		.thumb_func
 6316              	ism330dhcx_act_pin_notification_get:
 6317              		@ args = 0, pretend = 0, frame = 8
 6318              		@ frame_needed = 0, uses_anonymous_args = 0
 6319 0000 10B5     		push	{r4, lr}
 6320 0002 82B0     		sub	sp, sp, #8
 6321 0004 0C46     		mov	r4, r1
 6322 0006 0123     		movs	r3, #1
 6323 0008 01AA     		add	r2, sp, #4
 6324 000a 5621     		movs	r1, #86
 6325 000c FFF7FEFF 		bl	ism330dhcx_read_reg
 6326 0010 9DF80430 		ldrb	r3, [sp, #4]	@ zero_extendqisi2
 6327 0014 C3F34012 		ubfx	r2, r3, #5, #1
 6328 0018 13F0200F 		tst	r3, #32
 6329 001c 03D0     		beq	.L772
 6330 001e 32B9     		cbnz	r2, .L773
 6331 0020 0023     		movs	r3, #0
 6332 0022 2370     		strb	r3, [r4]
 6333 0024 01E0     		b	.L771
 6334              	.L772:
 6335 0026 0023     		movs	r3, #0
 6336 0028 2370     		strb	r3, [r4]
 6337              	.L771:
 6338 002a 02B0     		add	sp, sp, #8
 6339              		@ sp needed
 6340 002c 10BD     		pop	{r4, pc}
 6341              	.L773:
 6342 002e 0123     		movs	r3, #1
 6343 0030 2370     		strb	r3, [r4]
 6344 0032 FAE7     		b	.L771
 6346              		.section	.text.ism330dhcx_act_mode_set,"ax",%progbits
 6347              		.align	1
 6348              		.global	ism330dhcx_act_mode_set
 6349              		.syntax unified
 6350              		.thumb
 6351              		.thumb_func
 6353              	ism330dhcx_act_mode_set:
 6354              		@ args = 0, pretend = 0, frame = 8
 6355              		@ frame_needed = 0, uses_anonymous_args = 0
 6356 0000 30B5     		push	{r4, r5, lr}
 6357 0002 83B0     		sub	sp, sp, #12
 6358 0004 0446     		mov	r4, r0
 6359 0006 0D46     		mov	r5, r1
ARM GAS  C:\Temp\cclPUGyV.s 			page 107


 6360 0008 0123     		movs	r3, #1
 6361 000a 01AA     		add	r2, sp, #4
 6362 000c 5821     		movs	r1, #88
 6363 000e FFF7FEFF 		bl	ism330dhcx_read_reg
 6364 0012 08B1     		cbz	r0, .L781
 6365              	.L778:
 6366 0014 03B0     		add	sp, sp, #12
 6367              		@ sp needed
 6368 0016 30BD     		pop	{r4, r5, pc}
 6369              	.L781:
 6370 0018 9DF80430 		ldrb	r3, [sp, #4]	@ zero_extendqisi2
 6371 001c 65F34613 		bfi	r3, r5, #5, #2
 6372 0020 8DF80430 		strb	r3, [sp, #4]
 6373 0024 0123     		movs	r3, #1
 6374 0026 01AA     		add	r2, sp, #4
 6375 0028 5821     		movs	r1, #88
 6376 002a 2046     		mov	r0, r4
 6377 002c FFF7FEFF 		bl	ism330dhcx_write_reg
 6378 0030 F0E7     		b	.L778
 6380              		.section	.text.ism330dhcx_act_mode_get,"ax",%progbits
 6381              		.align	1
 6382              		.global	ism330dhcx_act_mode_get
 6383              		.syntax unified
 6384              		.thumb
 6385              		.thumb_func
 6387              	ism330dhcx_act_mode_get:
 6388              		@ args = 0, pretend = 0, frame = 8
 6389              		@ frame_needed = 0, uses_anonymous_args = 0
 6390 0000 10B5     		push	{r4, lr}
 6391 0002 82B0     		sub	sp, sp, #8
 6392 0004 0C46     		mov	r4, r1
 6393 0006 0123     		movs	r3, #1
 6394 0008 01AA     		add	r2, sp, #4
 6395 000a 5821     		movs	r1, #88
 6396 000c FFF7FEFF 		bl	ism330dhcx_read_reg
 6397 0010 9DF80430 		ldrb	r3, [sp, #4]	@ zero_extendqisi2
 6398 0014 C3F34113 		ubfx	r3, r3, #5, #2
 6399 0018 032B     		cmp	r3, #3
 6400 001a 10D8     		bhi	.L783
 6401 001c DFE803F0 		tbb	[pc, r3]
 6402              	.L785:
 6403 0020 02       		.byte	(.L788-.L785)/2
 6404 0021 06       		.byte	(.L787-.L785)/2
 6405 0022 09       		.byte	(.L786-.L785)/2
 6406 0023 0C       		.byte	(.L784-.L785)/2
 6407              		.p2align 1
 6408              	.L788:
 6409 0024 0023     		movs	r3, #0
 6410 0026 2370     		strb	r3, [r4]
 6411              	.L782:
 6412 0028 02B0     		add	sp, sp, #8
 6413              		@ sp needed
 6414 002a 10BD     		pop	{r4, pc}
 6415              	.L787:
 6416 002c 0123     		movs	r3, #1
 6417 002e 2370     		strb	r3, [r4]
 6418 0030 FAE7     		b	.L782
ARM GAS  C:\Temp\cclPUGyV.s 			page 108


 6419              	.L786:
 6420 0032 0223     		movs	r3, #2
 6421 0034 2370     		strb	r3, [r4]
 6422 0036 F7E7     		b	.L782
 6423              	.L784:
 6424 0038 0323     		movs	r3, #3
 6425 003a 2370     		strb	r3, [r4]
 6426 003c F4E7     		b	.L782
 6427              	.L783:
 6428 003e 0023     		movs	r3, #0
 6429 0040 2370     		strb	r3, [r4]
 6430 0042 F1E7     		b	.L782
 6432              		.section	.text.ism330dhcx_act_sleep_dur_set,"ax",%progbits
 6433              		.align	1
 6434              		.global	ism330dhcx_act_sleep_dur_set
 6435              		.syntax unified
 6436              		.thumb
 6437              		.thumb_func
 6439              	ism330dhcx_act_sleep_dur_set:
 6440              		@ args = 0, pretend = 0, frame = 8
 6441              		@ frame_needed = 0, uses_anonymous_args = 0
 6442 0000 30B5     		push	{r4, r5, lr}
 6443 0002 83B0     		sub	sp, sp, #12
 6444 0004 0446     		mov	r4, r0
 6445 0006 0D46     		mov	r5, r1
 6446 0008 0123     		movs	r3, #1
 6447 000a 01AA     		add	r2, sp, #4
 6448 000c 5C21     		movs	r1, #92
 6449 000e FFF7FEFF 		bl	ism330dhcx_read_reg
 6450 0012 08B1     		cbz	r0, .L794
 6451              	.L791:
 6452 0014 03B0     		add	sp, sp, #12
 6453              		@ sp needed
 6454 0016 30BD     		pop	{r4, r5, pc}
 6455              	.L794:
 6456 0018 9DF80430 		ldrb	r3, [sp, #4]	@ zero_extendqisi2
 6457 001c 65F30303 		bfi	r3, r5, #0, #4
 6458 0020 8DF80430 		strb	r3, [sp, #4]
 6459 0024 0123     		movs	r3, #1
 6460 0026 01AA     		add	r2, sp, #4
 6461 0028 5C21     		movs	r1, #92
 6462 002a 2046     		mov	r0, r4
 6463 002c FFF7FEFF 		bl	ism330dhcx_write_reg
 6464 0030 F0E7     		b	.L791
 6466              		.section	.text.ism330dhcx_act_sleep_dur_get,"ax",%progbits
 6467              		.align	1
 6468              		.global	ism330dhcx_act_sleep_dur_get
 6469              		.syntax unified
 6470              		.thumb
 6471              		.thumb_func
 6473              	ism330dhcx_act_sleep_dur_get:
 6474              		@ args = 0, pretend = 0, frame = 8
 6475              		@ frame_needed = 0, uses_anonymous_args = 0
 6476 0000 10B5     		push	{r4, lr}
 6477 0002 82B0     		sub	sp, sp, #8
 6478 0004 0C46     		mov	r4, r1
 6479 0006 0123     		movs	r3, #1
ARM GAS  C:\Temp\cclPUGyV.s 			page 109


 6480 0008 01AA     		add	r2, sp, #4
 6481 000a 5C21     		movs	r1, #92
 6482 000c FFF7FEFF 		bl	ism330dhcx_read_reg
 6483 0010 9DF80430 		ldrb	r3, [sp, #4]	@ zero_extendqisi2
 6484 0014 C3F30303 		ubfx	r3, r3, #0, #4
 6485 0018 2370     		strb	r3, [r4]
 6486 001a 02B0     		add	sp, sp, #8
 6487              		@ sp needed
 6488 001c 10BD     		pop	{r4, pc}
 6490              		.section	.text.ism330dhcx_tap_detection_on_z_set,"ax",%progbits
 6491              		.align	1
 6492              		.global	ism330dhcx_tap_detection_on_z_set
 6493              		.syntax unified
 6494              		.thumb
 6495              		.thumb_func
 6497              	ism330dhcx_tap_detection_on_z_set:
 6498              		@ args = 0, pretend = 0, frame = 8
 6499              		@ frame_needed = 0, uses_anonymous_args = 0
 6500 0000 30B5     		push	{r4, r5, lr}
 6501 0002 83B0     		sub	sp, sp, #12
 6502 0004 0446     		mov	r4, r0
 6503 0006 0D46     		mov	r5, r1
 6504 0008 0123     		movs	r3, #1
 6505 000a 01AA     		add	r2, sp, #4
 6506 000c 5621     		movs	r1, #86
 6507 000e FFF7FEFF 		bl	ism330dhcx_read_reg
 6508 0012 08B1     		cbz	r0, .L800
 6509              	.L797:
 6510 0014 03B0     		add	sp, sp, #12
 6511              		@ sp needed
 6512 0016 30BD     		pop	{r4, r5, pc}
 6513              	.L800:
 6514 0018 9DF80430 		ldrb	r3, [sp, #4]	@ zero_extendqisi2
 6515 001c 65F34103 		bfi	r3, r5, #1, #1
 6516 0020 8DF80430 		strb	r3, [sp, #4]
 6517 0024 0123     		movs	r3, #1
 6518 0026 01AA     		add	r2, sp, #4
 6519 0028 5621     		movs	r1, #86
 6520 002a 2046     		mov	r0, r4
 6521 002c FFF7FEFF 		bl	ism330dhcx_write_reg
 6522 0030 F0E7     		b	.L797
 6524              		.section	.text.ism330dhcx_tap_detection_on_z_get,"ax",%progbits
 6525              		.align	1
 6526              		.global	ism330dhcx_tap_detection_on_z_get
 6527              		.syntax unified
 6528              		.thumb
 6529              		.thumb_func
 6531              	ism330dhcx_tap_detection_on_z_get:
 6532              		@ args = 0, pretend = 0, frame = 8
 6533              		@ frame_needed = 0, uses_anonymous_args = 0
 6534 0000 10B5     		push	{r4, lr}
 6535 0002 82B0     		sub	sp, sp, #8
 6536 0004 0C46     		mov	r4, r1
 6537 0006 0123     		movs	r3, #1
 6538 0008 01AA     		add	r2, sp, #4
 6539 000a 5621     		movs	r1, #86
 6540 000c FFF7FEFF 		bl	ism330dhcx_read_reg
ARM GAS  C:\Temp\cclPUGyV.s 			page 110


 6541 0010 9DF80430 		ldrb	r3, [sp, #4]	@ zero_extendqisi2
 6542 0014 C3F34003 		ubfx	r3, r3, #1, #1
 6543 0018 2370     		strb	r3, [r4]
 6544 001a 02B0     		add	sp, sp, #8
 6545              		@ sp needed
 6546 001c 10BD     		pop	{r4, pc}
 6548              		.section	.text.ism330dhcx_tap_detection_on_y_set,"ax",%progbits
 6549              		.align	1
 6550              		.global	ism330dhcx_tap_detection_on_y_set
 6551              		.syntax unified
 6552              		.thumb
 6553              		.thumb_func
 6555              	ism330dhcx_tap_detection_on_y_set:
 6556              		@ args = 0, pretend = 0, frame = 8
 6557              		@ frame_needed = 0, uses_anonymous_args = 0
 6558 0000 30B5     		push	{r4, r5, lr}
 6559 0002 83B0     		sub	sp, sp, #12
 6560 0004 0446     		mov	r4, r0
 6561 0006 0D46     		mov	r5, r1
 6562 0008 0123     		movs	r3, #1
 6563 000a 01AA     		add	r2, sp, #4
 6564 000c 5621     		movs	r1, #86
 6565 000e FFF7FEFF 		bl	ism330dhcx_read_reg
 6566 0012 08B1     		cbz	r0, .L806
 6567              	.L803:
 6568 0014 03B0     		add	sp, sp, #12
 6569              		@ sp needed
 6570 0016 30BD     		pop	{r4, r5, pc}
 6571              	.L806:
 6572 0018 9DF80430 		ldrb	r3, [sp, #4]	@ zero_extendqisi2
 6573 001c 65F38203 		bfi	r3, r5, #2, #1
 6574 0020 8DF80430 		strb	r3, [sp, #4]
 6575 0024 0123     		movs	r3, #1
 6576 0026 01AA     		add	r2, sp, #4
 6577 0028 5621     		movs	r1, #86
 6578 002a 2046     		mov	r0, r4
 6579 002c FFF7FEFF 		bl	ism330dhcx_write_reg
 6580 0030 F0E7     		b	.L803
 6582              		.section	.text.ism330dhcx_tap_detection_on_y_get,"ax",%progbits
 6583              		.align	1
 6584              		.global	ism330dhcx_tap_detection_on_y_get
 6585              		.syntax unified
 6586              		.thumb
 6587              		.thumb_func
 6589              	ism330dhcx_tap_detection_on_y_get:
 6590              		@ args = 0, pretend = 0, frame = 8
 6591              		@ frame_needed = 0, uses_anonymous_args = 0
 6592 0000 10B5     		push	{r4, lr}
 6593 0002 82B0     		sub	sp, sp, #8
 6594 0004 0C46     		mov	r4, r1
 6595 0006 0123     		movs	r3, #1
 6596 0008 01AA     		add	r2, sp, #4
 6597 000a 5621     		movs	r1, #86
 6598 000c FFF7FEFF 		bl	ism330dhcx_read_reg
 6599 0010 9DF80430 		ldrb	r3, [sp, #4]	@ zero_extendqisi2
 6600 0014 C3F38003 		ubfx	r3, r3, #2, #1
 6601 0018 2370     		strb	r3, [r4]
ARM GAS  C:\Temp\cclPUGyV.s 			page 111


 6602 001a 02B0     		add	sp, sp, #8
 6603              		@ sp needed
 6604 001c 10BD     		pop	{r4, pc}
 6606              		.section	.text.ism330dhcx_tap_detection_on_x_set,"ax",%progbits
 6607              		.align	1
 6608              		.global	ism330dhcx_tap_detection_on_x_set
 6609              		.syntax unified
 6610              		.thumb
 6611              		.thumb_func
 6613              	ism330dhcx_tap_detection_on_x_set:
 6614              		@ args = 0, pretend = 0, frame = 8
 6615              		@ frame_needed = 0, uses_anonymous_args = 0
 6616 0000 30B5     		push	{r4, r5, lr}
 6617 0002 83B0     		sub	sp, sp, #12
 6618 0004 0446     		mov	r4, r0
 6619 0006 0D46     		mov	r5, r1
 6620 0008 0123     		movs	r3, #1
 6621 000a 01AA     		add	r2, sp, #4
 6622 000c 5621     		movs	r1, #86
 6623 000e FFF7FEFF 		bl	ism330dhcx_read_reg
 6624 0012 08B1     		cbz	r0, .L812
 6625              	.L809:
 6626 0014 03B0     		add	sp, sp, #12
 6627              		@ sp needed
 6628 0016 30BD     		pop	{r4, r5, pc}
 6629              	.L812:
 6630 0018 9DF80430 		ldrb	r3, [sp, #4]	@ zero_extendqisi2
 6631 001c 65F3C303 		bfi	r3, r5, #3, #1
 6632 0020 8DF80430 		strb	r3, [sp, #4]
 6633 0024 0123     		movs	r3, #1
 6634 0026 01AA     		add	r2, sp, #4
 6635 0028 5621     		movs	r1, #86
 6636 002a 2046     		mov	r0, r4
 6637 002c FFF7FEFF 		bl	ism330dhcx_write_reg
 6638 0030 F0E7     		b	.L809
 6640              		.section	.text.ism330dhcx_tap_detection_on_x_get,"ax",%progbits
 6641              		.align	1
 6642              		.global	ism330dhcx_tap_detection_on_x_get
 6643              		.syntax unified
 6644              		.thumb
 6645              		.thumb_func
 6647              	ism330dhcx_tap_detection_on_x_get:
 6648              		@ args = 0, pretend = 0, frame = 8
 6649              		@ frame_needed = 0, uses_anonymous_args = 0
 6650 0000 10B5     		push	{r4, lr}
 6651 0002 82B0     		sub	sp, sp, #8
 6652 0004 0C46     		mov	r4, r1
 6653 0006 0123     		movs	r3, #1
 6654 0008 01AA     		add	r2, sp, #4
 6655 000a 5621     		movs	r1, #86
 6656 000c FFF7FEFF 		bl	ism330dhcx_read_reg
 6657 0010 9DF80430 		ldrb	r3, [sp, #4]	@ zero_extendqisi2
 6658 0014 C3F3C003 		ubfx	r3, r3, #3, #1
 6659 0018 2370     		strb	r3, [r4]
 6660 001a 02B0     		add	sp, sp, #8
 6661              		@ sp needed
 6662 001c 10BD     		pop	{r4, pc}
ARM GAS  C:\Temp\cclPUGyV.s 			page 112


 6664              		.section	.text.ism330dhcx_tap_threshold_x_set,"ax",%progbits
 6665              		.align	1
 6666              		.global	ism330dhcx_tap_threshold_x_set
 6667              		.syntax unified
 6668              		.thumb
 6669              		.thumb_func
 6671              	ism330dhcx_tap_threshold_x_set:
 6672              		@ args = 0, pretend = 0, frame = 8
 6673              		@ frame_needed = 0, uses_anonymous_args = 0
 6674 0000 30B5     		push	{r4, r5, lr}
 6675 0002 83B0     		sub	sp, sp, #12
 6676 0004 0446     		mov	r4, r0
 6677 0006 0D46     		mov	r5, r1
 6678 0008 0123     		movs	r3, #1
 6679 000a 01AA     		add	r2, sp, #4
 6680 000c 5721     		movs	r1, #87
 6681 000e FFF7FEFF 		bl	ism330dhcx_read_reg
 6682 0012 08B1     		cbz	r0, .L818
 6683              	.L815:
 6684 0014 03B0     		add	sp, sp, #12
 6685              		@ sp needed
 6686 0016 30BD     		pop	{r4, r5, pc}
 6687              	.L818:
 6688 0018 9DF80430 		ldrb	r3, [sp, #4]	@ zero_extendqisi2
 6689 001c 65F30403 		bfi	r3, r5, #0, #5
 6690 0020 8DF80430 		strb	r3, [sp, #4]
 6691 0024 0123     		movs	r3, #1
 6692 0026 01AA     		add	r2, sp, #4
 6693 0028 5721     		movs	r1, #87
 6694 002a 2046     		mov	r0, r4
 6695 002c FFF7FEFF 		bl	ism330dhcx_write_reg
 6696 0030 F0E7     		b	.L815
 6698              		.section	.text.ism330dhcx_tap_threshold_x_get,"ax",%progbits
 6699              		.align	1
 6700              		.global	ism330dhcx_tap_threshold_x_get
 6701              		.syntax unified
 6702              		.thumb
 6703              		.thumb_func
 6705              	ism330dhcx_tap_threshold_x_get:
 6706              		@ args = 0, pretend = 0, frame = 8
 6707              		@ frame_needed = 0, uses_anonymous_args = 0
 6708 0000 10B5     		push	{r4, lr}
 6709 0002 82B0     		sub	sp, sp, #8
 6710 0004 0C46     		mov	r4, r1
 6711 0006 0123     		movs	r3, #1
 6712 0008 01AA     		add	r2, sp, #4
 6713 000a 5721     		movs	r1, #87
 6714 000c FFF7FEFF 		bl	ism330dhcx_read_reg
 6715 0010 9DF80430 		ldrb	r3, [sp, #4]	@ zero_extendqisi2
 6716 0014 C3F30403 		ubfx	r3, r3, #0, #5
 6717 0018 2370     		strb	r3, [r4]
 6718 001a 02B0     		add	sp, sp, #8
 6719              		@ sp needed
 6720 001c 10BD     		pop	{r4, pc}
 6722              		.section	.text.ism330dhcx_tap_axis_priority_set,"ax",%progbits
 6723              		.align	1
 6724              		.global	ism330dhcx_tap_axis_priority_set
ARM GAS  C:\Temp\cclPUGyV.s 			page 113


 6725              		.syntax unified
 6726              		.thumb
 6727              		.thumb_func
 6729              	ism330dhcx_tap_axis_priority_set:
 6730              		@ args = 0, pretend = 0, frame = 8
 6731              		@ frame_needed = 0, uses_anonymous_args = 0
 6732 0000 30B5     		push	{r4, r5, lr}
 6733 0002 83B0     		sub	sp, sp, #12
 6734 0004 0446     		mov	r4, r0
 6735 0006 0D46     		mov	r5, r1
 6736 0008 0123     		movs	r3, #1
 6737 000a 01AA     		add	r2, sp, #4
 6738 000c 5721     		movs	r1, #87
 6739 000e FFF7FEFF 		bl	ism330dhcx_read_reg
 6740 0012 08B1     		cbz	r0, .L824
 6741              	.L821:
 6742 0014 03B0     		add	sp, sp, #12
 6743              		@ sp needed
 6744 0016 30BD     		pop	{r4, r5, pc}
 6745              	.L824:
 6746 0018 9DF80430 		ldrb	r3, [sp, #4]	@ zero_extendqisi2
 6747 001c 65F34713 		bfi	r3, r5, #5, #3
 6748 0020 8DF80430 		strb	r3, [sp, #4]
 6749 0024 0123     		movs	r3, #1
 6750 0026 01AA     		add	r2, sp, #4
 6751 0028 5721     		movs	r1, #87
 6752 002a 2046     		mov	r0, r4
 6753 002c FFF7FEFF 		bl	ism330dhcx_write_reg
 6754 0030 F0E7     		b	.L821
 6756              		.section	.text.ism330dhcx_tap_axis_priority_get,"ax",%progbits
 6757              		.align	1
 6758              		.global	ism330dhcx_tap_axis_priority_get
 6759              		.syntax unified
 6760              		.thumb
 6761              		.thumb_func
 6763              	ism330dhcx_tap_axis_priority_get:
 6764              		@ args = 0, pretend = 0, frame = 8
 6765              		@ frame_needed = 0, uses_anonymous_args = 0
 6766 0000 10B5     		push	{r4, lr}
 6767 0002 82B0     		sub	sp, sp, #8
 6768 0004 0C46     		mov	r4, r1
 6769 0006 0123     		movs	r3, #1
 6770 0008 01AA     		add	r2, sp, #4
 6771 000a 5721     		movs	r1, #87
 6772 000c FFF7FEFF 		bl	ism330dhcx_read_reg
 6773 0010 9DF80430 		ldrb	r3, [sp, #4]	@ zero_extendqisi2
 6774 0014 5B09     		lsrs	r3, r3, #5
 6775 0016 062B     		cmp	r3, #6
 6776 0018 18D8     		bhi	.L826
 6777 001a DFE803F0 		tbb	[pc, r3]
 6778              	.L828:
 6779 001e 04       		.byte	(.L833-.L828)/2
 6780 001f 08       		.byte	(.L832-.L828)/2
 6781 0020 0B       		.byte	(.L831-.L828)/2
 6782 0021 0E       		.byte	(.L830-.L828)/2
 6783 0022 17       		.byte	(.L826-.L828)/2
 6784 0023 11       		.byte	(.L829-.L828)/2
ARM GAS  C:\Temp\cclPUGyV.s 			page 114


 6785 0024 14       		.byte	(.L827-.L828)/2
 6786 0025 00       		.p2align 1
 6787              	.L833:
 6788 0026 0023     		movs	r3, #0
 6789 0028 2370     		strb	r3, [r4]
 6790              	.L825:
 6791 002a 02B0     		add	sp, sp, #8
 6792              		@ sp needed
 6793 002c 10BD     		pop	{r4, pc}
 6794              	.L832:
 6795 002e 0123     		movs	r3, #1
 6796 0030 2370     		strb	r3, [r4]
 6797 0032 FAE7     		b	.L825
 6798              	.L831:
 6799 0034 0223     		movs	r3, #2
 6800 0036 2370     		strb	r3, [r4]
 6801 0038 F7E7     		b	.L825
 6802              	.L830:
 6803 003a 0323     		movs	r3, #3
 6804 003c 2370     		strb	r3, [r4]
 6805 003e F4E7     		b	.L825
 6806              	.L829:
 6807 0040 0523     		movs	r3, #5
 6808 0042 2370     		strb	r3, [r4]
 6809 0044 F1E7     		b	.L825
 6810              	.L827:
 6811 0046 0623     		movs	r3, #6
 6812 0048 2370     		strb	r3, [r4]
 6813 004a EEE7     		b	.L825
 6814              	.L826:
 6815 004c 0023     		movs	r3, #0
 6816 004e 2370     		strb	r3, [r4]
 6817 0050 EBE7     		b	.L825
 6819              		.section	.text.ism330dhcx_tap_threshold_y_set,"ax",%progbits
 6820              		.align	1
 6821              		.global	ism330dhcx_tap_threshold_y_set
 6822              		.syntax unified
 6823              		.thumb
 6824              		.thumb_func
 6826              	ism330dhcx_tap_threshold_y_set:
 6827              		@ args = 0, pretend = 0, frame = 8
 6828              		@ frame_needed = 0, uses_anonymous_args = 0
 6829 0000 30B5     		push	{r4, r5, lr}
 6830 0002 83B0     		sub	sp, sp, #12
 6831 0004 0446     		mov	r4, r0
 6832 0006 0D46     		mov	r5, r1
 6833 0008 0123     		movs	r3, #1
 6834 000a 01AA     		add	r2, sp, #4
 6835 000c 5821     		movs	r1, #88
 6836 000e FFF7FEFF 		bl	ism330dhcx_read_reg
 6837 0012 08B1     		cbz	r0, .L839
 6838              	.L836:
 6839 0014 03B0     		add	sp, sp, #12
 6840              		@ sp needed
 6841 0016 30BD     		pop	{r4, r5, pc}
 6842              	.L839:
 6843 0018 9DF80430 		ldrb	r3, [sp, #4]	@ zero_extendqisi2
ARM GAS  C:\Temp\cclPUGyV.s 			page 115


 6844 001c 65F30403 		bfi	r3, r5, #0, #5
 6845 0020 8DF80430 		strb	r3, [sp, #4]
 6846 0024 0123     		movs	r3, #1
 6847 0026 01AA     		add	r2, sp, #4
 6848 0028 5821     		movs	r1, #88
 6849 002a 2046     		mov	r0, r4
 6850 002c FFF7FEFF 		bl	ism330dhcx_write_reg
 6851 0030 F0E7     		b	.L836
 6853              		.section	.text.ism330dhcx_tap_threshold_y_get,"ax",%progbits
 6854              		.align	1
 6855              		.global	ism330dhcx_tap_threshold_y_get
 6856              		.syntax unified
 6857              		.thumb
 6858              		.thumb_func
 6860              	ism330dhcx_tap_threshold_y_get:
 6861              		@ args = 0, pretend = 0, frame = 8
 6862              		@ frame_needed = 0, uses_anonymous_args = 0
 6863 0000 10B5     		push	{r4, lr}
 6864 0002 82B0     		sub	sp, sp, #8
 6865 0004 0C46     		mov	r4, r1
 6866 0006 0123     		movs	r3, #1
 6867 0008 01AA     		add	r2, sp, #4
 6868 000a 5821     		movs	r1, #88
 6869 000c FFF7FEFF 		bl	ism330dhcx_read_reg
 6870 0010 9DF80430 		ldrb	r3, [sp, #4]	@ zero_extendqisi2
 6871 0014 C3F30403 		ubfx	r3, r3, #0, #5
 6872 0018 2370     		strb	r3, [r4]
 6873 001a 02B0     		add	sp, sp, #8
 6874              		@ sp needed
 6875 001c 10BD     		pop	{r4, pc}
 6877              		.section	.text.ism330dhcx_tap_threshold_z_set,"ax",%progbits
 6878              		.align	1
 6879              		.global	ism330dhcx_tap_threshold_z_set
 6880              		.syntax unified
 6881              		.thumb
 6882              		.thumb_func
 6884              	ism330dhcx_tap_threshold_z_set:
 6885              		@ args = 0, pretend = 0, frame = 8
 6886              		@ frame_needed = 0, uses_anonymous_args = 0
 6887 0000 30B5     		push	{r4, r5, lr}
 6888 0002 83B0     		sub	sp, sp, #12
 6889 0004 0446     		mov	r4, r0
 6890 0006 0D46     		mov	r5, r1
 6891 0008 0123     		movs	r3, #1
 6892 000a 01AA     		add	r2, sp, #4
 6893 000c 5921     		movs	r1, #89
 6894 000e FFF7FEFF 		bl	ism330dhcx_read_reg
 6895 0012 08B1     		cbz	r0, .L845
 6896              	.L842:
 6897 0014 03B0     		add	sp, sp, #12
 6898              		@ sp needed
 6899 0016 30BD     		pop	{r4, r5, pc}
 6900              	.L845:
 6901 0018 9DF80430 		ldrb	r3, [sp, #4]	@ zero_extendqisi2
 6902 001c 65F30403 		bfi	r3, r5, #0, #5
 6903 0020 8DF80430 		strb	r3, [sp, #4]
 6904 0024 0123     		movs	r3, #1
ARM GAS  C:\Temp\cclPUGyV.s 			page 116


 6905 0026 01AA     		add	r2, sp, #4
 6906 0028 5921     		movs	r1, #89
 6907 002a 2046     		mov	r0, r4
 6908 002c FFF7FEFF 		bl	ism330dhcx_write_reg
 6909 0030 F0E7     		b	.L842
 6911              		.section	.text.ism330dhcx_tap_threshold_z_get,"ax",%progbits
 6912              		.align	1
 6913              		.global	ism330dhcx_tap_threshold_z_get
 6914              		.syntax unified
 6915              		.thumb
 6916              		.thumb_func
 6918              	ism330dhcx_tap_threshold_z_get:
 6919              		@ args = 0, pretend = 0, frame = 8
 6920              		@ frame_needed = 0, uses_anonymous_args = 0
 6921 0000 10B5     		push	{r4, lr}
 6922 0002 82B0     		sub	sp, sp, #8
 6923 0004 0C46     		mov	r4, r1
 6924 0006 0123     		movs	r3, #1
 6925 0008 01AA     		add	r2, sp, #4
 6926 000a 5921     		movs	r1, #89
 6927 000c FFF7FEFF 		bl	ism330dhcx_read_reg
 6928 0010 9DF80430 		ldrb	r3, [sp, #4]	@ zero_extendqisi2
 6929 0014 C3F30403 		ubfx	r3, r3, #0, #5
 6930 0018 2370     		strb	r3, [r4]
 6931 001a 02B0     		add	sp, sp, #8
 6932              		@ sp needed
 6933 001c 10BD     		pop	{r4, pc}
 6935              		.section	.text.ism330dhcx_tap_shock_set,"ax",%progbits
 6936              		.align	1
 6937              		.global	ism330dhcx_tap_shock_set
 6938              		.syntax unified
 6939              		.thumb
 6940              		.thumb_func
 6942              	ism330dhcx_tap_shock_set:
 6943              		@ args = 0, pretend = 0, frame = 8
 6944              		@ frame_needed = 0, uses_anonymous_args = 0
 6945 0000 30B5     		push	{r4, r5, lr}
 6946 0002 83B0     		sub	sp, sp, #12
 6947 0004 0446     		mov	r4, r0
 6948 0006 0D46     		mov	r5, r1
 6949 0008 0123     		movs	r3, #1
 6950 000a 01AA     		add	r2, sp, #4
 6951 000c 5A21     		movs	r1, #90
 6952 000e FFF7FEFF 		bl	ism330dhcx_read_reg
 6953 0012 08B1     		cbz	r0, .L851
 6954              	.L848:
 6955 0014 03B0     		add	sp, sp, #12
 6956              		@ sp needed
 6957 0016 30BD     		pop	{r4, r5, pc}
 6958              	.L851:
 6959 0018 9DF80430 		ldrb	r3, [sp, #4]	@ zero_extendqisi2
 6960 001c 65F30103 		bfi	r3, r5, #0, #2
 6961 0020 8DF80430 		strb	r3, [sp, #4]
 6962 0024 0123     		movs	r3, #1
 6963 0026 01AA     		add	r2, sp, #4
 6964 0028 5A21     		movs	r1, #90
 6965 002a 2046     		mov	r0, r4
ARM GAS  C:\Temp\cclPUGyV.s 			page 117


 6966 002c FFF7FEFF 		bl	ism330dhcx_write_reg
 6967 0030 F0E7     		b	.L848
 6969              		.section	.text.ism330dhcx_tap_shock_get,"ax",%progbits
 6970              		.align	1
 6971              		.global	ism330dhcx_tap_shock_get
 6972              		.syntax unified
 6973              		.thumb
 6974              		.thumb_func
 6976              	ism330dhcx_tap_shock_get:
 6977              		@ args = 0, pretend = 0, frame = 8
 6978              		@ frame_needed = 0, uses_anonymous_args = 0
 6979 0000 10B5     		push	{r4, lr}
 6980 0002 82B0     		sub	sp, sp, #8
 6981 0004 0C46     		mov	r4, r1
 6982 0006 0123     		movs	r3, #1
 6983 0008 01AA     		add	r2, sp, #4
 6984 000a 5A21     		movs	r1, #90
 6985 000c FFF7FEFF 		bl	ism330dhcx_read_reg
 6986 0010 9DF80430 		ldrb	r3, [sp, #4]	@ zero_extendqisi2
 6987 0014 C3F30103 		ubfx	r3, r3, #0, #2
 6988 0018 2370     		strb	r3, [r4]
 6989 001a 02B0     		add	sp, sp, #8
 6990              		@ sp needed
 6991 001c 10BD     		pop	{r4, pc}
 6993              		.section	.text.ism330dhcx_tap_quiet_set,"ax",%progbits
 6994              		.align	1
 6995              		.global	ism330dhcx_tap_quiet_set
 6996              		.syntax unified
 6997              		.thumb
 6998              		.thumb_func
 7000              	ism330dhcx_tap_quiet_set:
 7001              		@ args = 0, pretend = 0, frame = 8
 7002              		@ frame_needed = 0, uses_anonymous_args = 0
 7003 0000 30B5     		push	{r4, r5, lr}
 7004 0002 83B0     		sub	sp, sp, #12
 7005 0004 0446     		mov	r4, r0
 7006 0006 0D46     		mov	r5, r1
 7007 0008 0123     		movs	r3, #1
 7008 000a 01AA     		add	r2, sp, #4
 7009 000c 5A21     		movs	r1, #90
 7010 000e FFF7FEFF 		bl	ism330dhcx_read_reg
 7011 0012 08B1     		cbz	r0, .L857
 7012              	.L854:
 7013 0014 03B0     		add	sp, sp, #12
 7014              		@ sp needed
 7015 0016 30BD     		pop	{r4, r5, pc}
 7016              	.L857:
 7017 0018 9DF80430 		ldrb	r3, [sp, #4]	@ zero_extendqisi2
 7018 001c 65F38303 		bfi	r3, r5, #2, #2
 7019 0020 8DF80430 		strb	r3, [sp, #4]
 7020 0024 0123     		movs	r3, #1
 7021 0026 01AA     		add	r2, sp, #4
 7022 0028 5A21     		movs	r1, #90
 7023 002a 2046     		mov	r0, r4
 7024 002c FFF7FEFF 		bl	ism330dhcx_write_reg
 7025 0030 F0E7     		b	.L854
 7027              		.section	.text.ism330dhcx_tap_quiet_get,"ax",%progbits
ARM GAS  C:\Temp\cclPUGyV.s 			page 118


 7028              		.align	1
 7029              		.global	ism330dhcx_tap_quiet_get
 7030              		.syntax unified
 7031              		.thumb
 7032              		.thumb_func
 7034              	ism330dhcx_tap_quiet_get:
 7035              		@ args = 0, pretend = 0, frame = 8
 7036              		@ frame_needed = 0, uses_anonymous_args = 0
 7037 0000 10B5     		push	{r4, lr}
 7038 0002 82B0     		sub	sp, sp, #8
 7039 0004 0C46     		mov	r4, r1
 7040 0006 0123     		movs	r3, #1
 7041 0008 01AA     		add	r2, sp, #4
 7042 000a 5A21     		movs	r1, #90
 7043 000c FFF7FEFF 		bl	ism330dhcx_read_reg
 7044 0010 9DF80430 		ldrb	r3, [sp, #4]	@ zero_extendqisi2
 7045 0014 C3F38103 		ubfx	r3, r3, #2, #2
 7046 0018 2370     		strb	r3, [r4]
 7047 001a 02B0     		add	sp, sp, #8
 7048              		@ sp needed
 7049 001c 10BD     		pop	{r4, pc}
 7051              		.section	.text.ism330dhcx_tap_dur_set,"ax",%progbits
 7052              		.align	1
 7053              		.global	ism330dhcx_tap_dur_set
 7054              		.syntax unified
 7055              		.thumb
 7056              		.thumb_func
 7058              	ism330dhcx_tap_dur_set:
 7059              		@ args = 0, pretend = 0, frame = 8
 7060              		@ frame_needed = 0, uses_anonymous_args = 0
 7061 0000 30B5     		push	{r4, r5, lr}
 7062 0002 83B0     		sub	sp, sp, #12
 7063 0004 0446     		mov	r4, r0
 7064 0006 0D46     		mov	r5, r1
 7065 0008 0123     		movs	r3, #1
 7066 000a 01AA     		add	r2, sp, #4
 7067 000c 5A21     		movs	r1, #90
 7068 000e FFF7FEFF 		bl	ism330dhcx_read_reg
 7069 0012 08B1     		cbz	r0, .L863
 7070              	.L860:
 7071 0014 03B0     		add	sp, sp, #12
 7072              		@ sp needed
 7073 0016 30BD     		pop	{r4, r5, pc}
 7074              	.L863:
 7075 0018 9DF80430 		ldrb	r3, [sp, #4]	@ zero_extendqisi2
 7076 001c 65F30713 		bfi	r3, r5, #4, #4
 7077 0020 8DF80430 		strb	r3, [sp, #4]
 7078 0024 0123     		movs	r3, #1
 7079 0026 01AA     		add	r2, sp, #4
 7080 0028 5A21     		movs	r1, #90
 7081 002a 2046     		mov	r0, r4
 7082 002c FFF7FEFF 		bl	ism330dhcx_write_reg
 7083 0030 F0E7     		b	.L860
 7085              		.section	.text.ism330dhcx_tap_dur_get,"ax",%progbits
 7086              		.align	1
 7087              		.global	ism330dhcx_tap_dur_get
 7088              		.syntax unified
ARM GAS  C:\Temp\cclPUGyV.s 			page 119


 7089              		.thumb
 7090              		.thumb_func
 7092              	ism330dhcx_tap_dur_get:
 7093              		@ args = 0, pretend = 0, frame = 8
 7094              		@ frame_needed = 0, uses_anonymous_args = 0
 7095 0000 10B5     		push	{r4, lr}
 7096 0002 82B0     		sub	sp, sp, #8
 7097 0004 0C46     		mov	r4, r1
 7098 0006 0123     		movs	r3, #1
 7099 0008 01AA     		add	r2, sp, #4
 7100 000a 5A21     		movs	r1, #90
 7101 000c FFF7FEFF 		bl	ism330dhcx_read_reg
 7102 0010 9DF80430 		ldrb	r3, [sp, #4]	@ zero_extendqisi2
 7103 0014 C3F30313 		ubfx	r3, r3, #4, #4
 7104 0018 2370     		strb	r3, [r4]
 7105 001a 02B0     		add	sp, sp, #8
 7106              		@ sp needed
 7107 001c 10BD     		pop	{r4, pc}
 7109              		.section	.text.ism330dhcx_tap_mode_set,"ax",%progbits
 7110              		.align	1
 7111              		.global	ism330dhcx_tap_mode_set
 7112              		.syntax unified
 7113              		.thumb
 7114              		.thumb_func
 7116              	ism330dhcx_tap_mode_set:
 7117              		@ args = 0, pretend = 0, frame = 8
 7118              		@ frame_needed = 0, uses_anonymous_args = 0
 7119 0000 30B5     		push	{r4, r5, lr}
 7120 0002 83B0     		sub	sp, sp, #12
 7121 0004 0446     		mov	r4, r0
 7122 0006 0D46     		mov	r5, r1
 7123 0008 0123     		movs	r3, #1
 7124 000a 01AA     		add	r2, sp, #4
 7125 000c 5B21     		movs	r1, #91
 7126 000e FFF7FEFF 		bl	ism330dhcx_read_reg
 7127 0012 08B1     		cbz	r0, .L869
 7128              	.L866:
 7129 0014 03B0     		add	sp, sp, #12
 7130              		@ sp needed
 7131 0016 30BD     		pop	{r4, r5, pc}
 7132              	.L869:
 7133 0018 9DF80430 		ldrb	r3, [sp, #4]	@ zero_extendqisi2
 7134 001c 65F3C713 		bfi	r3, r5, #7, #1
 7135 0020 8DF80430 		strb	r3, [sp, #4]
 7136 0024 0123     		movs	r3, #1
 7137 0026 01AA     		add	r2, sp, #4
 7138 0028 5B21     		movs	r1, #91
 7139 002a 2046     		mov	r0, r4
 7140 002c FFF7FEFF 		bl	ism330dhcx_write_reg
 7141 0030 F0E7     		b	.L866
 7143              		.section	.text.ism330dhcx_tap_mode_get,"ax",%progbits
 7144              		.align	1
 7145              		.global	ism330dhcx_tap_mode_get
 7146              		.syntax unified
 7147              		.thumb
 7148              		.thumb_func
 7150              	ism330dhcx_tap_mode_get:
ARM GAS  C:\Temp\cclPUGyV.s 			page 120


 7151              		@ args = 0, pretend = 0, frame = 8
 7152              		@ frame_needed = 0, uses_anonymous_args = 0
 7153 0000 10B5     		push	{r4, lr}
 7154 0002 82B0     		sub	sp, sp, #8
 7155 0004 0C46     		mov	r4, r1
 7156 0006 0123     		movs	r3, #1
 7157 0008 01AA     		add	r2, sp, #4
 7158 000a 5B21     		movs	r1, #91
 7159 000c FFF7FEFF 		bl	ism330dhcx_read_reg
 7160 0010 9DF80430 		ldrb	r3, [sp, #4]	@ zero_extendqisi2
 7161 0014 DB09     		lsrs	r3, r3, #7
 7162 0016 03D0     		beq	.L871
 7163 0018 33B9     		cbnz	r3, .L872
 7164 001a 0023     		movs	r3, #0
 7165 001c 2370     		strb	r3, [r4]
 7166 001e 01E0     		b	.L870
 7167              	.L871:
 7168 0020 0023     		movs	r3, #0
 7169 0022 2370     		strb	r3, [r4]
 7170              	.L870:
 7171 0024 02B0     		add	sp, sp, #8
 7172              		@ sp needed
 7173 0026 10BD     		pop	{r4, pc}
 7174              	.L872:
 7175 0028 0123     		movs	r3, #1
 7176 002a 2370     		strb	r3, [r4]
 7177 002c FAE7     		b	.L870
 7179              		.section	.text.ism330dhcx_6d_threshold_set,"ax",%progbits
 7180              		.align	1
 7181              		.global	ism330dhcx_6d_threshold_set
 7182              		.syntax unified
 7183              		.thumb
 7184              		.thumb_func
 7186              	ism330dhcx_6d_threshold_set:
 7187              		@ args = 0, pretend = 0, frame = 8
 7188              		@ frame_needed = 0, uses_anonymous_args = 0
 7189 0000 30B5     		push	{r4, r5, lr}
 7190 0002 83B0     		sub	sp, sp, #12
 7191 0004 0446     		mov	r4, r0
 7192 0006 0D46     		mov	r5, r1
 7193 0008 0123     		movs	r3, #1
 7194 000a 01AA     		add	r2, sp, #4
 7195 000c 5921     		movs	r1, #89
 7196 000e FFF7FEFF 		bl	ism330dhcx_read_reg
 7197 0012 08B1     		cbz	r0, .L880
 7198              	.L877:
 7199 0014 03B0     		add	sp, sp, #12
 7200              		@ sp needed
 7201 0016 30BD     		pop	{r4, r5, pc}
 7202              	.L880:
 7203 0018 9DF80430 		ldrb	r3, [sp, #4]	@ zero_extendqisi2
 7204 001c 65F34613 		bfi	r3, r5, #5, #2
 7205 0020 8DF80430 		strb	r3, [sp, #4]
 7206 0024 0123     		movs	r3, #1
 7207 0026 01AA     		add	r2, sp, #4
 7208 0028 5921     		movs	r1, #89
 7209 002a 2046     		mov	r0, r4
ARM GAS  C:\Temp\cclPUGyV.s 			page 121


 7210 002c FFF7FEFF 		bl	ism330dhcx_write_reg
 7211 0030 F0E7     		b	.L877
 7213              		.section	.text.ism330dhcx_6d_threshold_get,"ax",%progbits
 7214              		.align	1
 7215              		.global	ism330dhcx_6d_threshold_get
 7216              		.syntax unified
 7217              		.thumb
 7218              		.thumb_func
 7220              	ism330dhcx_6d_threshold_get:
 7221              		@ args = 0, pretend = 0, frame = 8
 7222              		@ frame_needed = 0, uses_anonymous_args = 0
 7223 0000 10B5     		push	{r4, lr}
 7224 0002 82B0     		sub	sp, sp, #8
 7225 0004 0C46     		mov	r4, r1
 7226 0006 0123     		movs	r3, #1
 7227 0008 01AA     		add	r2, sp, #4
 7228 000a 5921     		movs	r1, #89
 7229 000c FFF7FEFF 		bl	ism330dhcx_read_reg
 7230 0010 9DF80430 		ldrb	r3, [sp, #4]	@ zero_extendqisi2
 7231 0014 C3F34113 		ubfx	r3, r3, #5, #2
 7232 0018 032B     		cmp	r3, #3
 7233 001a 10D8     		bhi	.L882
 7234 001c DFE803F0 		tbb	[pc, r3]
 7235              	.L884:
 7236 0020 02       		.byte	(.L887-.L884)/2
 7237 0021 06       		.byte	(.L886-.L884)/2
 7238 0022 09       		.byte	(.L885-.L884)/2
 7239 0023 0C       		.byte	(.L883-.L884)/2
 7240              		.p2align 1
 7241              	.L887:
 7242 0024 0023     		movs	r3, #0
 7243 0026 2370     		strb	r3, [r4]
 7244              	.L881:
 7245 0028 02B0     		add	sp, sp, #8
 7246              		@ sp needed
 7247 002a 10BD     		pop	{r4, pc}
 7248              	.L886:
 7249 002c 0123     		movs	r3, #1
 7250 002e 2370     		strb	r3, [r4]
 7251 0030 FAE7     		b	.L881
 7252              	.L885:
 7253 0032 0223     		movs	r3, #2
 7254 0034 2370     		strb	r3, [r4]
 7255 0036 F7E7     		b	.L881
 7256              	.L883:
 7257 0038 0323     		movs	r3, #3
 7258 003a 2370     		strb	r3, [r4]
 7259 003c F4E7     		b	.L881
 7260              	.L882:
 7261 003e 0023     		movs	r3, #0
 7262 0040 2370     		strb	r3, [r4]
 7263 0042 F1E7     		b	.L881
 7265              		.section	.text.ism330dhcx_4d_mode_set,"ax",%progbits
 7266              		.align	1
 7267              		.global	ism330dhcx_4d_mode_set
 7268              		.syntax unified
 7269              		.thumb
ARM GAS  C:\Temp\cclPUGyV.s 			page 122


 7270              		.thumb_func
 7272              	ism330dhcx_4d_mode_set:
 7273              		@ args = 0, pretend = 0, frame = 8
 7274              		@ frame_needed = 0, uses_anonymous_args = 0
 7275 0000 30B5     		push	{r4, r5, lr}
 7276 0002 83B0     		sub	sp, sp, #12
 7277 0004 0446     		mov	r4, r0
 7278 0006 0D46     		mov	r5, r1
 7279 0008 0123     		movs	r3, #1
 7280 000a 01AA     		add	r2, sp, #4
 7281 000c 5921     		movs	r1, #89
 7282 000e FFF7FEFF 		bl	ism330dhcx_read_reg
 7283 0012 08B1     		cbz	r0, .L893
 7284              	.L890:
 7285 0014 03B0     		add	sp, sp, #12
 7286              		@ sp needed
 7287 0016 30BD     		pop	{r4, r5, pc}
 7288              	.L893:
 7289 0018 9DF80430 		ldrb	r3, [sp, #4]	@ zero_extendqisi2
 7290 001c 65F3C713 		bfi	r3, r5, #7, #1
 7291 0020 8DF80430 		strb	r3, [sp, #4]
 7292 0024 0123     		movs	r3, #1
 7293 0026 01AA     		add	r2, sp, #4
 7294 0028 5921     		movs	r1, #89
 7295 002a 2046     		mov	r0, r4
 7296 002c FFF7FEFF 		bl	ism330dhcx_write_reg
 7297 0030 F0E7     		b	.L890
 7299              		.section	.text.ism330dhcx_4d_mode_get,"ax",%progbits
 7300              		.align	1
 7301              		.global	ism330dhcx_4d_mode_get
 7302              		.syntax unified
 7303              		.thumb
 7304              		.thumb_func
 7306              	ism330dhcx_4d_mode_get:
 7307              		@ args = 0, pretend = 0, frame = 8
 7308              		@ frame_needed = 0, uses_anonymous_args = 0
 7309 0000 10B5     		push	{r4, lr}
 7310 0002 82B0     		sub	sp, sp, #8
 7311 0004 0C46     		mov	r4, r1
 7312 0006 0123     		movs	r3, #1
 7313 0008 01AA     		add	r2, sp, #4
 7314 000a 5921     		movs	r1, #89
 7315 000c FFF7FEFF 		bl	ism330dhcx_read_reg
 7316 0010 9DF80430 		ldrb	r3, [sp, #4]	@ zero_extendqisi2
 7317 0014 C3F3C013 		ubfx	r3, r3, #7, #1
 7318 0018 2370     		strb	r3, [r4]
 7319 001a 02B0     		add	sp, sp, #8
 7320              		@ sp needed
 7321 001c 10BD     		pop	{r4, pc}
 7323              		.section	.text.ism330dhcx_ff_threshold_set,"ax",%progbits
 7324              		.align	1
 7325              		.global	ism330dhcx_ff_threshold_set
 7326              		.syntax unified
 7327              		.thumb
 7328              		.thumb_func
 7330              	ism330dhcx_ff_threshold_set:
 7331              		@ args = 0, pretend = 0, frame = 8
ARM GAS  C:\Temp\cclPUGyV.s 			page 123


 7332              		@ frame_needed = 0, uses_anonymous_args = 0
 7333 0000 30B5     		push	{r4, r5, lr}
 7334 0002 83B0     		sub	sp, sp, #12
 7335 0004 0446     		mov	r4, r0
 7336 0006 0D46     		mov	r5, r1
 7337 0008 0123     		movs	r3, #1
 7338 000a 01AA     		add	r2, sp, #4
 7339 000c 5D21     		movs	r1, #93
 7340 000e FFF7FEFF 		bl	ism330dhcx_read_reg
 7341 0012 08B1     		cbz	r0, .L899
 7342              	.L896:
 7343 0014 03B0     		add	sp, sp, #12
 7344              		@ sp needed
 7345 0016 30BD     		pop	{r4, r5, pc}
 7346              	.L899:
 7347 0018 9DF80430 		ldrb	r3, [sp, #4]	@ zero_extendqisi2
 7348 001c 65F30203 		bfi	r3, r5, #0, #3
 7349 0020 8DF80430 		strb	r3, [sp, #4]
 7350 0024 0123     		movs	r3, #1
 7351 0026 01AA     		add	r2, sp, #4
 7352 0028 5D21     		movs	r1, #93
 7353 002a 2046     		mov	r0, r4
 7354 002c FFF7FEFF 		bl	ism330dhcx_write_reg
 7355 0030 F0E7     		b	.L896
 7357              		.section	.text.ism330dhcx_ff_threshold_get,"ax",%progbits
 7358              		.align	1
 7359              		.global	ism330dhcx_ff_threshold_get
 7360              		.syntax unified
 7361              		.thumb
 7362              		.thumb_func
 7364              	ism330dhcx_ff_threshold_get:
 7365              		@ args = 0, pretend = 0, frame = 8
 7366              		@ frame_needed = 0, uses_anonymous_args = 0
 7367 0000 10B5     		push	{r4, lr}
 7368 0002 82B0     		sub	sp, sp, #8
 7369 0004 0C46     		mov	r4, r1
 7370 0006 0123     		movs	r3, #1
 7371 0008 01AA     		add	r2, sp, #4
 7372 000a 5D21     		movs	r1, #93
 7373 000c FFF7FEFF 		bl	ism330dhcx_read_reg
 7374 0010 9DF80430 		ldrb	r3, [sp, #4]	@ zero_extendqisi2
 7375 0014 03F00703 		and	r3, r3, #7
 7376 0018 072B     		cmp	r3, #7
 7377 001a 1ED8     		bhi	.L901
 7378 001c DFE803F0 		tbb	[pc, r3]
 7379              	.L903:
 7380 0020 04       		.byte	(.L910-.L903)/2
 7381 0021 08       		.byte	(.L909-.L903)/2
 7382 0022 0B       		.byte	(.L908-.L903)/2
 7383 0023 0E       		.byte	(.L907-.L903)/2
 7384 0024 11       		.byte	(.L906-.L903)/2
 7385 0025 14       		.byte	(.L905-.L903)/2
 7386 0026 17       		.byte	(.L904-.L903)/2
 7387 0027 1A       		.byte	(.L902-.L903)/2
 7388              		.p2align 1
 7389              	.L910:
 7390 0028 0023     		movs	r3, #0
ARM GAS  C:\Temp\cclPUGyV.s 			page 124


 7391 002a 2370     		strb	r3, [r4]
 7392              	.L900:
 7393 002c 02B0     		add	sp, sp, #8
 7394              		@ sp needed
 7395 002e 10BD     		pop	{r4, pc}
 7396              	.L909:
 7397 0030 0123     		movs	r3, #1
 7398 0032 2370     		strb	r3, [r4]
 7399 0034 FAE7     		b	.L900
 7400              	.L908:
 7401 0036 0223     		movs	r3, #2
 7402 0038 2370     		strb	r3, [r4]
 7403 003a F7E7     		b	.L900
 7404              	.L907:
 7405 003c 0323     		movs	r3, #3
 7406 003e 2370     		strb	r3, [r4]
 7407 0040 F4E7     		b	.L900
 7408              	.L906:
 7409 0042 0423     		movs	r3, #4
 7410 0044 2370     		strb	r3, [r4]
 7411 0046 F1E7     		b	.L900
 7412              	.L905:
 7413 0048 0523     		movs	r3, #5
 7414 004a 2370     		strb	r3, [r4]
 7415 004c EEE7     		b	.L900
 7416              	.L904:
 7417 004e 0623     		movs	r3, #6
 7418 0050 2370     		strb	r3, [r4]
 7419 0052 EBE7     		b	.L900
 7420              	.L902:
 7421 0054 0723     		movs	r3, #7
 7422 0056 2370     		strb	r3, [r4]
 7423 0058 E8E7     		b	.L900
 7424              	.L901:
 7425 005a 0023     		movs	r3, #0
 7426 005c 2370     		strb	r3, [r4]
 7427 005e E5E7     		b	.L900
 7429              		.section	.text.ism330dhcx_ff_dur_set,"ax",%progbits
 7430              		.align	1
 7431              		.global	ism330dhcx_ff_dur_set
 7432              		.syntax unified
 7433              		.thumb
 7434              		.thumb_func
 7436              	ism330dhcx_ff_dur_set:
 7437              		@ args = 0, pretend = 0, frame = 8
 7438              		@ frame_needed = 0, uses_anonymous_args = 0
 7439 0000 30B5     		push	{r4, r5, lr}
 7440 0002 83B0     		sub	sp, sp, #12
 7441 0004 0546     		mov	r5, r0
 7442 0006 0C46     		mov	r4, r1
 7443 0008 0123     		movs	r3, #1
 7444 000a 01AA     		add	r2, sp, #4
 7445 000c 5C21     		movs	r1, #92
 7446 000e FFF7FEFF 		bl	ism330dhcx_read_reg
 7447 0012 0346     		mov	r3, r0
 7448 0014 18B1     		cbz	r0, .L917
 7449              	.L914:
ARM GAS  C:\Temp\cclPUGyV.s 			page 125


 7450 0016 DBB1     		cbz	r3, .L918
 7451              	.L913:
 7452 0018 1846     		mov	r0, r3
 7453 001a 03B0     		add	sp, sp, #12
 7454              		@ sp needed
 7455 001c 30BD     		pop	{r4, r5, pc}
 7456              	.L917:
 7457 001e C4F34013 		ubfx	r3, r4, #5, #1
 7458 0022 9DF80420 		ldrb	r2, [sp, #4]	@ zero_extendqisi2
 7459 0026 63F3C712 		bfi	r2, r3, #7, #1
 7460 002a 8DF80420 		strb	r2, [sp, #4]
 7461 002e 0123     		movs	r3, #1
 7462 0030 01AA     		add	r2, sp, #4
 7463 0032 5C21     		movs	r1, #92
 7464 0034 2846     		mov	r0, r5
 7465 0036 FFF7FEFF 		bl	ism330dhcx_write_reg
 7466 003a 0346     		mov	r3, r0
 7467 003c 0028     		cmp	r0, #0
 7468 003e EBD1     		bne	.L913
 7469 0040 0123     		movs	r3, #1
 7470 0042 6A46     		mov	r2, sp
 7471 0044 5D21     		movs	r1, #93
 7472 0046 2846     		mov	r0, r5
 7473 0048 FFF7FEFF 		bl	ism330dhcx_read_reg
 7474 004c 0346     		mov	r3, r0
 7475 004e E2E7     		b	.L914
 7476              	.L918:
 7477 0050 9DF80030 		ldrb	r3, [sp]	@ zero_extendqisi2
 7478 0054 64F3C703 		bfi	r3, r4, #3, #5
 7479 0058 8DF80030 		strb	r3, [sp]
 7480 005c 0123     		movs	r3, #1
 7481 005e 6A46     		mov	r2, sp
 7482 0060 5D21     		movs	r1, #93
 7483 0062 2846     		mov	r0, r5
 7484 0064 FFF7FEFF 		bl	ism330dhcx_write_reg
 7485 0068 0346     		mov	r3, r0
 7486 006a D5E7     		b	.L913
 7488              		.section	.text.ism330dhcx_ff_dur_get,"ax",%progbits
 7489              		.align	1
 7490              		.global	ism330dhcx_ff_dur_get
 7491              		.syntax unified
 7492              		.thumb
 7493              		.thumb_func
 7495              	ism330dhcx_ff_dur_get:
 7496              		@ args = 0, pretend = 0, frame = 8
 7497              		@ frame_needed = 0, uses_anonymous_args = 0
 7498 0000 30B5     		push	{r4, r5, lr}
 7499 0002 83B0     		sub	sp, sp, #12
 7500 0004 0546     		mov	r5, r0
 7501 0006 0C46     		mov	r4, r1
 7502 0008 0123     		movs	r3, #1
 7503 000a 01AA     		add	r2, sp, #4
 7504 000c 5C21     		movs	r1, #92
 7505 000e FFF7FEFF 		bl	ism330dhcx_read_reg
 7506 0012 50B1     		cbz	r0, .L922
 7507              	.L920:
 7508 0014 9DF80420 		ldrb	r2, [sp, #4]	@ zero_extendqisi2
ARM GAS  C:\Temp\cclPUGyV.s 			page 126


 7509 0018 D209     		lsrs	r2, r2, #7
 7510 001a 9DF80030 		ldrb	r3, [sp]	@ zero_extendqisi2
 7511 001e DB08     		lsrs	r3, r3, #3
 7512 0020 03EB4213 		add	r3, r3, r2, lsl #5
 7513 0024 2370     		strb	r3, [r4]
 7514 0026 03B0     		add	sp, sp, #12
 7515              		@ sp needed
 7516 0028 30BD     		pop	{r4, r5, pc}
 7517              	.L922:
 7518 002a 0123     		movs	r3, #1
 7519 002c 6A46     		mov	r2, sp
 7520 002e 5D21     		movs	r1, #93
 7521 0030 2846     		mov	r0, r5
 7522 0032 FFF7FEFF 		bl	ism330dhcx_read_reg
 7523 0036 EDE7     		b	.L920
 7525              		.section	.text.ism330dhcx_fifo_watermark_set,"ax",%progbits
 7526              		.align	1
 7527              		.global	ism330dhcx_fifo_watermark_set
 7528              		.syntax unified
 7529              		.thumb
 7530              		.thumb_func
 7532              	ism330dhcx_fifo_watermark_set:
 7533              		@ args = 0, pretend = 0, frame = 8
 7534              		@ frame_needed = 0, uses_anonymous_args = 0
 7535 0000 30B5     		push	{r4, r5, lr}
 7536 0002 83B0     		sub	sp, sp, #12
 7537 0004 0546     		mov	r5, r0
 7538 0006 0C46     		mov	r4, r1
 7539 0008 0123     		movs	r3, #1
 7540 000a 6A46     		mov	r2, sp
 7541 000c 0821     		movs	r1, #8
 7542 000e FFF7FEFF 		bl	ism330dhcx_read_reg
 7543 0012 08B1     		cbz	r0, .L926
 7544              	.L923:
 7545 0014 03B0     		add	sp, sp, #12
 7546              		@ sp needed
 7547 0016 30BD     		pop	{r4, r5, pc}
 7548              	.L926:
 7549 0018 C4F30023 		ubfx	r3, r4, #8, #1
 7550 001c 9DF80020 		ldrb	r2, [sp]	@ zero_extendqisi2
 7551 0020 63F30002 		bfi	r2, r3, #0, #1
 7552 0024 8DF80020 		strb	r2, [sp]
 7553 0028 0123     		movs	r3, #1
 7554 002a 6A46     		mov	r2, sp
 7555 002c 0821     		movs	r1, #8
 7556 002e 2846     		mov	r0, r5
 7557 0030 FFF7FEFF 		bl	ism330dhcx_write_reg
 7558 0034 0028     		cmp	r0, #0
 7559 0036 EDD1     		bne	.L923
 7560 0038 8DF80440 		strb	r4, [sp, #4]
 7561 003c 0123     		movs	r3, #1
 7562 003e 01AA     		add	r2, sp, #4
 7563 0040 0721     		movs	r1, #7
 7564 0042 2846     		mov	r0, r5
 7565 0044 FFF7FEFF 		bl	ism330dhcx_write_reg
 7566 0048 E4E7     		b	.L923
 7568              		.section	.text.ism330dhcx_fifo_watermark_get,"ax",%progbits
ARM GAS  C:\Temp\cclPUGyV.s 			page 127


 7569              		.align	1
 7570              		.global	ism330dhcx_fifo_watermark_get
 7571              		.syntax unified
 7572              		.thumb
 7573              		.thumb_func
 7575              	ism330dhcx_fifo_watermark_get:
 7576              		@ args = 0, pretend = 0, frame = 8
 7577              		@ frame_needed = 0, uses_anonymous_args = 0
 7578 0000 30B5     		push	{r4, r5, lr}
 7579 0002 83B0     		sub	sp, sp, #12
 7580 0004 0546     		mov	r5, r0
 7581 0006 0C46     		mov	r4, r1
 7582 0008 0123     		movs	r3, #1
 7583 000a 6A46     		mov	r2, sp
 7584 000c 0821     		movs	r1, #8
 7585 000e FFF7FEFF 		bl	ism330dhcx_read_reg
 7586 0012 58B1     		cbz	r0, .L930
 7587              	.L928:
 7588 0014 9DF80030 		ldrb	r3, [sp]	@ zero_extendqisi2
 7589 0018 03F00103 		and	r3, r3, #1
 7590 001c 2380     		strh	r3, [r4]	@ movhi
 7591 001e 9DF80420 		ldrb	r2, [sp, #4]	@ zero_extendqisi2
 7592 0022 02EB0323 		add	r3, r2, r3, lsl #8
 7593 0026 2380     		strh	r3, [r4]	@ movhi
 7594 0028 03B0     		add	sp, sp, #12
 7595              		@ sp needed
 7596 002a 30BD     		pop	{r4, r5, pc}
 7597              	.L930:
 7598 002c 0123     		movs	r3, #1
 7599 002e 01AA     		add	r2, sp, #4
 7600 0030 0721     		movs	r1, #7
 7601 0032 2846     		mov	r0, r5
 7602 0034 FFF7FEFF 		bl	ism330dhcx_read_reg
 7603 0038 ECE7     		b	.L928
 7605              		.section	.text.ism330dhcx_compression_algo_init_set,"ax",%progbits
 7606              		.align	1
 7607              		.global	ism330dhcx_compression_algo_init_set
 7608              		.syntax unified
 7609              		.thumb
 7610              		.thumb_func
 7612              	ism330dhcx_compression_algo_init_set:
 7613              		@ args = 0, pretend = 0, frame = 8
 7614              		@ frame_needed = 0, uses_anonymous_args = 0
 7615 0000 30B5     		push	{r4, r5, lr}
 7616 0002 83B0     		sub	sp, sp, #12
 7617 0004 0446     		mov	r4, r0
 7618 0006 0D46     		mov	r5, r1
 7619 0008 0221     		movs	r1, #2
 7620 000a FFF7FEFF 		bl	ism330dhcx_mem_bank_set
 7621 000e 0346     		mov	r3, r0
 7622 0010 18B1     		cbz	r0, .L935
 7623              	.L932:
 7624 0012 CBB1     		cbz	r3, .L936
 7625              	.L931:
 7626 0014 1846     		mov	r0, r3
 7627 0016 03B0     		add	sp, sp, #12
 7628              		@ sp needed
ARM GAS  C:\Temp\cclPUGyV.s 			page 128


 7629 0018 30BD     		pop	{r4, r5, pc}
 7630              	.L935:
 7631 001a 0123     		movs	r3, #1
 7632 001c 01AA     		add	r2, sp, #4
 7633 001e 6721     		movs	r1, #103
 7634 0020 2046     		mov	r0, r4
 7635 0022 FFF7FEFF 		bl	ism330dhcx_read_reg
 7636 0026 0346     		mov	r3, r0
 7637 0028 0028     		cmp	r0, #0
 7638 002a F3D1     		bne	.L931
 7639 002c 9DF80430 		ldrb	r3, [sp, #4]	@ zero_extendqisi2
 7640 0030 65F3C303 		bfi	r3, r5, #3, #1
 7641 0034 8DF80430 		strb	r3, [sp, #4]
 7642 0038 0123     		movs	r3, #1
 7643 003a 01AA     		add	r2, sp, #4
 7644 003c 6721     		movs	r1, #103
 7645 003e 2046     		mov	r0, r4
 7646 0040 FFF7FEFF 		bl	ism330dhcx_write_reg
 7647 0044 0346     		mov	r3, r0
 7648 0046 E4E7     		b	.L932
 7649              	.L936:
 7650 0048 0021     		movs	r1, #0
 7651 004a 2046     		mov	r0, r4
 7652 004c FFF7FEFF 		bl	ism330dhcx_mem_bank_set
 7653 0050 0346     		mov	r3, r0
 7654 0052 DFE7     		b	.L931
 7656              		.section	.text.ism330dhcx_compression_algo_init_get,"ax",%progbits
 7657              		.align	1
 7658              		.global	ism330dhcx_compression_algo_init_get
 7659              		.syntax unified
 7660              		.thumb
 7661              		.thumb_func
 7663              	ism330dhcx_compression_algo_init_get:
 7664              		@ args = 0, pretend = 0, frame = 8
 7665              		@ frame_needed = 0, uses_anonymous_args = 0
 7666 0000 30B5     		push	{r4, r5, lr}
 7667 0002 83B0     		sub	sp, sp, #12
 7668 0004 0446     		mov	r4, r0
 7669 0006 0D46     		mov	r5, r1
 7670 0008 0221     		movs	r1, #2
 7671 000a FFF7FEFF 		bl	ism330dhcx_mem_bank_set
 7672 000e 08B1     		cbz	r0, .L940
 7673              	.L937:
 7674 0010 03B0     		add	sp, sp, #12
 7675              		@ sp needed
 7676 0012 30BD     		pop	{r4, r5, pc}
 7677              	.L940:
 7678 0014 0123     		movs	r3, #1
 7679 0016 01AA     		add	r2, sp, #4
 7680 0018 6721     		movs	r1, #103
 7681 001a 2046     		mov	r0, r4
 7682 001c FFF7FEFF 		bl	ism330dhcx_read_reg
 7683 0020 0028     		cmp	r0, #0
 7684 0022 F5D1     		bne	.L937
 7685 0024 9DF80430 		ldrb	r3, [sp, #4]	@ zero_extendqisi2
 7686 0028 C3F3C003 		ubfx	r3, r3, #3, #1
 7687 002c 2B70     		strb	r3, [r5]
ARM GAS  C:\Temp\cclPUGyV.s 			page 129


 7688 002e 0021     		movs	r1, #0
 7689 0030 2046     		mov	r0, r4
 7690 0032 FFF7FEFF 		bl	ism330dhcx_mem_bank_set
 7691 0036 EBE7     		b	.L937
 7693              		.section	.text.ism330dhcx_compression_algo_set,"ax",%progbits
 7694              		.align	1
 7695              		.global	ism330dhcx_compression_algo_set
 7696              		.syntax unified
 7697              		.thumb
 7698              		.thumb_func
 7700              	ism330dhcx_compression_algo_set:
 7701              		@ args = 0, pretend = 0, frame = 8
 7702              		@ frame_needed = 0, uses_anonymous_args = 0
 7703 0000 30B5     		push	{r4, r5, lr}
 7704 0002 83B0     		sub	sp, sp, #12
 7705 0004 0546     		mov	r5, r0
 7706 0006 0C46     		mov	r4, r1
 7707 0008 0221     		movs	r1, #2
 7708 000a FFF7FEFF 		bl	ism330dhcx_mem_bank_set
 7709 000e 0346     		mov	r3, r0
 7710 0010 18B1     		cbz	r0, .L945
 7711              	.L942:
 7712 0012 DBB1     		cbz	r3, .L946
 7713              	.L941:
 7714 0014 1846     		mov	r0, r3
 7715 0016 03B0     		add	sp, sp, #12
 7716              		@ sp needed
 7717 0018 30BD     		pop	{r4, r5, pc}
 7718              	.L945:
 7719 001a 0123     		movs	r3, #1
 7720 001c 6A46     		mov	r2, sp
 7721 001e 0521     		movs	r1, #5
 7722 0020 2846     		mov	r0, r5
 7723 0022 FFF7FEFF 		bl	ism330dhcx_read_reg
 7724 0026 0346     		mov	r3, r0
 7725 0028 0028     		cmp	r0, #0
 7726 002a F3D1     		bne	.L941
 7727 002c C4F38003 		ubfx	r3, r4, #2, #1
 7728 0030 9DF80020 		ldrb	r2, [sp]	@ zero_extendqisi2
 7729 0034 63F3C302 		bfi	r2, r3, #3, #1
 7730 0038 8DF80020 		strb	r2, [sp]
 7731 003c 0123     		movs	r3, #1
 7732 003e 6A46     		mov	r2, sp
 7733 0040 0521     		movs	r1, #5
 7734 0042 2846     		mov	r0, r5
 7735 0044 FFF7FEFF 		bl	ism330dhcx_write_reg
 7736 0048 0346     		mov	r3, r0
 7737 004a E2E7     		b	.L942
 7738              	.L946:
 7739 004c 0021     		movs	r1, #0
 7740 004e 2846     		mov	r0, r5
 7741 0050 FFF7FEFF 		bl	ism330dhcx_mem_bank_set
 7742 0054 0346     		mov	r3, r0
 7743 0056 0028     		cmp	r0, #0
 7744 0058 DCD1     		bne	.L941
 7745 005a 0123     		movs	r3, #1
 7746 005c 01AA     		add	r2, sp, #4
ARM GAS  C:\Temp\cclPUGyV.s 			page 130


 7747 005e 0821     		movs	r1, #8
 7748 0060 2846     		mov	r0, r5
 7749 0062 FFF7FEFF 		bl	ism330dhcx_read_reg
 7750 0066 0346     		mov	r3, r0
 7751 0068 0028     		cmp	r0, #0
 7752 006a D3D1     		bne	.L941
 7753 006c C4F38002 		ubfx	r2, r4, #2, #1
 7754 0070 9DF80430 		ldrb	r3, [sp, #4]	@ zero_extendqisi2
 7755 0074 62F38613 		bfi	r3, r2, #6, #1
 7756 0078 8DF80430 		strb	r3, [sp, #4]
 7757 007c DBB2     		uxtb	r3, r3
 7758 007e 64F34203 		bfi	r3, r4, #1, #2
 7759 0082 8DF80430 		strb	r3, [sp, #4]
 7760 0086 0123     		movs	r3, #1
 7761 0088 01AA     		add	r2, sp, #4
 7762 008a 0821     		movs	r1, #8
 7763 008c 2846     		mov	r0, r5
 7764 008e FFF7FEFF 		bl	ism330dhcx_write_reg
 7765 0092 0346     		mov	r3, r0
 7766 0094 BEE7     		b	.L941
 7768              		.section	.text.ism330dhcx_compression_algo_get,"ax",%progbits
 7769              		.align	1
 7770              		.global	ism330dhcx_compression_algo_get
 7771              		.syntax unified
 7772              		.thumb
 7773              		.thumb_func
 7775              	ism330dhcx_compression_algo_get:
 7776              		@ args = 0, pretend = 0, frame = 8
 7777              		@ frame_needed = 0, uses_anonymous_args = 0
 7778 0000 10B5     		push	{r4, lr}
 7779 0002 82B0     		sub	sp, sp, #8
 7780 0004 0C46     		mov	r4, r1
 7781 0006 0123     		movs	r3, #1
 7782 0008 01AA     		add	r2, sp, #4
 7783 000a 0821     		movs	r1, #8
 7784 000c FFF7FEFF 		bl	ism330dhcx_read_reg
 7785 0010 9DF80430 		ldrb	r3, [sp, #4]	@ zero_extendqisi2
 7786 0014 C3F38012 		ubfx	r2, r3, #6, #1
 7787 0018 C3F34103 		ubfx	r3, r3, #1, #2
 7788 001c 03EB8203 		add	r3, r3, r2, lsl #2
 7789 0020 072B     		cmp	r3, #7
 7790 0022 15D8     		bhi	.L948
 7791 0024 DFE803F0 		tbb	[pc, r3]
 7792              	.L950:
 7793 0028 04       		.byte	(.L954-.L950)/2
 7794 0029 14       		.byte	(.L948-.L950)/2
 7795 002a 14       		.byte	(.L948-.L950)/2
 7796 002b 14       		.byte	(.L948-.L950)/2
 7797 002c 08       		.byte	(.L953-.L950)/2
 7798 002d 0B       		.byte	(.L952-.L950)/2
 7799 002e 0E       		.byte	(.L951-.L950)/2
 7800 002f 11       		.byte	(.L949-.L950)/2
 7801              		.p2align 1
 7802              	.L954:
 7803 0030 0023     		movs	r3, #0
 7804 0032 2370     		strb	r3, [r4]
 7805              	.L947:
ARM GAS  C:\Temp\cclPUGyV.s 			page 131


 7806 0034 02B0     		add	sp, sp, #8
 7807              		@ sp needed
 7808 0036 10BD     		pop	{r4, pc}
 7809              	.L953:
 7810 0038 0423     		movs	r3, #4
 7811 003a 2370     		strb	r3, [r4]
 7812 003c FAE7     		b	.L947
 7813              	.L952:
 7814 003e 0523     		movs	r3, #5
 7815 0040 2370     		strb	r3, [r4]
 7816 0042 F7E7     		b	.L947
 7817              	.L951:
 7818 0044 0623     		movs	r3, #6
 7819 0046 2370     		strb	r3, [r4]
 7820 0048 F4E7     		b	.L947
 7821              	.L949:
 7822 004a 0723     		movs	r3, #7
 7823 004c 2370     		strb	r3, [r4]
 7824 004e F1E7     		b	.L947
 7825              	.L948:
 7826 0050 0023     		movs	r3, #0
 7827 0052 2370     		strb	r3, [r4]
 7828 0054 EEE7     		b	.L947
 7830              		.section	.text.ism330dhcx_fifo_virtual_sens_odr_chg_set,"ax",%progbits
 7831              		.align	1
 7832              		.global	ism330dhcx_fifo_virtual_sens_odr_chg_set
 7833              		.syntax unified
 7834              		.thumb
 7835              		.thumb_func
 7837              	ism330dhcx_fifo_virtual_sens_odr_chg_set:
 7838              		@ args = 0, pretend = 0, frame = 8
 7839              		@ frame_needed = 0, uses_anonymous_args = 0
 7840 0000 30B5     		push	{r4, r5, lr}
 7841 0002 83B0     		sub	sp, sp, #12
 7842 0004 0446     		mov	r4, r0
 7843 0006 0D46     		mov	r5, r1
 7844 0008 0123     		movs	r3, #1
 7845 000a 01AA     		add	r2, sp, #4
 7846 000c 0821     		movs	r1, #8
 7847 000e FFF7FEFF 		bl	ism330dhcx_read_reg
 7848 0012 08B1     		cbz	r0, .L960
 7849              	.L957:
 7850 0014 03B0     		add	sp, sp, #12
 7851              		@ sp needed
 7852 0016 30BD     		pop	{r4, r5, pc}
 7853              	.L960:
 7854 0018 9DF80430 		ldrb	r3, [sp, #4]	@ zero_extendqisi2
 7855 001c 65F30413 		bfi	r3, r5, #4, #1
 7856 0020 8DF80430 		strb	r3, [sp, #4]
 7857 0024 0123     		movs	r3, #1
 7858 0026 01AA     		add	r2, sp, #4
 7859 0028 0821     		movs	r1, #8
 7860 002a 2046     		mov	r0, r4
 7861 002c FFF7FEFF 		bl	ism330dhcx_write_reg
 7862 0030 F0E7     		b	.L957
 7864              		.section	.text.ism330dhcx_fifo_virtual_sens_odr_chg_get,"ax",%progbits
 7865              		.align	1
ARM GAS  C:\Temp\cclPUGyV.s 			page 132


 7866              		.global	ism330dhcx_fifo_virtual_sens_odr_chg_get
 7867              		.syntax unified
 7868              		.thumb
 7869              		.thumb_func
 7871              	ism330dhcx_fifo_virtual_sens_odr_chg_get:
 7872              		@ args = 0, pretend = 0, frame = 8
 7873              		@ frame_needed = 0, uses_anonymous_args = 0
 7874 0000 10B5     		push	{r4, lr}
 7875 0002 82B0     		sub	sp, sp, #8
 7876 0004 0C46     		mov	r4, r1
 7877 0006 0123     		movs	r3, #1
 7878 0008 01AA     		add	r2, sp, #4
 7879 000a 0821     		movs	r1, #8
 7880 000c FFF7FEFF 		bl	ism330dhcx_read_reg
 7881 0010 9DF80430 		ldrb	r3, [sp, #4]	@ zero_extendqisi2
 7882 0014 C3F30013 		ubfx	r3, r3, #4, #1
 7883 0018 2370     		strb	r3, [r4]
 7884 001a 02B0     		add	sp, sp, #8
 7885              		@ sp needed
 7886 001c 10BD     		pop	{r4, pc}
 7888              		.section	.text.ism330dhcx_compression_algo_real_time_set,"ax",%progbits
 7889              		.align	1
 7890              		.global	ism330dhcx_compression_algo_real_time_set
 7891              		.syntax unified
 7892              		.thumb
 7893              		.thumb_func
 7895              	ism330dhcx_compression_algo_real_time_set:
 7896              		@ args = 0, pretend = 0, frame = 8
 7897              		@ frame_needed = 0, uses_anonymous_args = 0
 7898 0000 30B5     		push	{r4, r5, lr}
 7899 0002 83B0     		sub	sp, sp, #12
 7900 0004 0446     		mov	r4, r0
 7901 0006 0D46     		mov	r5, r1
 7902 0008 0123     		movs	r3, #1
 7903 000a 01AA     		add	r2, sp, #4
 7904 000c 0821     		movs	r1, #8
 7905 000e FFF7FEFF 		bl	ism330dhcx_read_reg
 7906 0012 08B1     		cbz	r0, .L966
 7907              	.L963:
 7908 0014 03B0     		add	sp, sp, #12
 7909              		@ sp needed
 7910 0016 30BD     		pop	{r4, r5, pc}
 7911              	.L966:
 7912 0018 9DF80430 		ldrb	r3, [sp, #4]	@ zero_extendqisi2
 7913 001c 65F38613 		bfi	r3, r5, #6, #1
 7914 0020 8DF80430 		strb	r3, [sp, #4]
 7915 0024 0123     		movs	r3, #1
 7916 0026 01AA     		add	r2, sp, #4
 7917 0028 0821     		movs	r1, #8
 7918 002a 2046     		mov	r0, r4
 7919 002c FFF7FEFF 		bl	ism330dhcx_write_reg
 7920 0030 F0E7     		b	.L963
 7922              		.section	.text.ism330dhcx_compression_algo_real_time_get,"ax",%progbits
 7923              		.align	1
 7924              		.global	ism330dhcx_compression_algo_real_time_get
 7925              		.syntax unified
 7926              		.thumb
ARM GAS  C:\Temp\cclPUGyV.s 			page 133


 7927              		.thumb_func
 7929              	ism330dhcx_compression_algo_real_time_get:
 7930              		@ args = 0, pretend = 0, frame = 8
 7931              		@ frame_needed = 0, uses_anonymous_args = 0
 7932 0000 10B5     		push	{r4, lr}
 7933 0002 82B0     		sub	sp, sp, #8
 7934 0004 0C46     		mov	r4, r1
 7935 0006 0123     		movs	r3, #1
 7936 0008 01AA     		add	r2, sp, #4
 7937 000a 0821     		movs	r1, #8
 7938 000c FFF7FEFF 		bl	ism330dhcx_read_reg
 7939 0010 9DF80430 		ldrb	r3, [sp, #4]	@ zero_extendqisi2
 7940 0014 C3F38013 		ubfx	r3, r3, #6, #1
 7941 0018 2370     		strb	r3, [r4]
 7942 001a 02B0     		add	sp, sp, #8
 7943              		@ sp needed
 7944 001c 10BD     		pop	{r4, pc}
 7946              		.section	.text.ism330dhcx_fifo_stop_on_wtm_set,"ax",%progbits
 7947              		.align	1
 7948              		.global	ism330dhcx_fifo_stop_on_wtm_set
 7949              		.syntax unified
 7950              		.thumb
 7951              		.thumb_func
 7953              	ism330dhcx_fifo_stop_on_wtm_set:
 7954              		@ args = 0, pretend = 0, frame = 8
 7955              		@ frame_needed = 0, uses_anonymous_args = 0
 7956 0000 30B5     		push	{r4, r5, lr}
 7957 0002 83B0     		sub	sp, sp, #12
 7958 0004 0446     		mov	r4, r0
 7959 0006 0D46     		mov	r5, r1
 7960 0008 0123     		movs	r3, #1
 7961 000a 01AA     		add	r2, sp, #4
 7962 000c 0821     		movs	r1, #8
 7963 000e FFF7FEFF 		bl	ism330dhcx_read_reg
 7964 0012 08B1     		cbz	r0, .L972
 7965              	.L969:
 7966 0014 03B0     		add	sp, sp, #12
 7967              		@ sp needed
 7968 0016 30BD     		pop	{r4, r5, pc}
 7969              	.L972:
 7970 0018 9DF80430 		ldrb	r3, [sp, #4]	@ zero_extendqisi2
 7971 001c 65F3C713 		bfi	r3, r5, #7, #1
 7972 0020 8DF80430 		strb	r3, [sp, #4]
 7973 0024 0123     		movs	r3, #1
 7974 0026 01AA     		add	r2, sp, #4
 7975 0028 0821     		movs	r1, #8
 7976 002a 2046     		mov	r0, r4
 7977 002c FFF7FEFF 		bl	ism330dhcx_write_reg
 7978 0030 F0E7     		b	.L969
 7980              		.section	.text.ism330dhcx_fifo_stop_on_wtm_get,"ax",%progbits
 7981              		.align	1
 7982              		.global	ism330dhcx_fifo_stop_on_wtm_get
 7983              		.syntax unified
 7984              		.thumb
 7985              		.thumb_func
 7987              	ism330dhcx_fifo_stop_on_wtm_get:
 7988              		@ args = 0, pretend = 0, frame = 8
ARM GAS  C:\Temp\cclPUGyV.s 			page 134


 7989              		@ frame_needed = 0, uses_anonymous_args = 0
 7990 0000 10B5     		push	{r4, lr}
 7991 0002 82B0     		sub	sp, sp, #8
 7992 0004 0C46     		mov	r4, r1
 7993 0006 0123     		movs	r3, #1
 7994 0008 01AA     		add	r2, sp, #4
 7995 000a 0821     		movs	r1, #8
 7996 000c FFF7FEFF 		bl	ism330dhcx_read_reg
 7997 0010 9DF80430 		ldrb	r3, [sp, #4]	@ zero_extendqisi2
 7998 0014 C3F3C013 		ubfx	r3, r3, #7, #1
 7999 0018 2370     		strb	r3, [r4]
 8000 001a 02B0     		add	sp, sp, #8
 8001              		@ sp needed
 8002 001c 10BD     		pop	{r4, pc}
 8004              		.section	.text.ism330dhcx_fifo_xl_batch_set,"ax",%progbits
 8005              		.align	1
 8006              		.global	ism330dhcx_fifo_xl_batch_set
 8007              		.syntax unified
 8008              		.thumb
 8009              		.thumb_func
 8011              	ism330dhcx_fifo_xl_batch_set:
 8012              		@ args = 0, pretend = 0, frame = 8
 8013              		@ frame_needed = 0, uses_anonymous_args = 0
 8014 0000 30B5     		push	{r4, r5, lr}
 8015 0002 83B0     		sub	sp, sp, #12
 8016 0004 0446     		mov	r4, r0
 8017 0006 0D46     		mov	r5, r1
 8018 0008 0123     		movs	r3, #1
 8019 000a 01AA     		add	r2, sp, #4
 8020 000c 0921     		movs	r1, #9
 8021 000e FFF7FEFF 		bl	ism330dhcx_read_reg
 8022 0012 08B1     		cbz	r0, .L978
 8023              	.L975:
 8024 0014 03B0     		add	sp, sp, #12
 8025              		@ sp needed
 8026 0016 30BD     		pop	{r4, r5, pc}
 8027              	.L978:
 8028 0018 9DF80430 		ldrb	r3, [sp, #4]	@ zero_extendqisi2
 8029 001c 65F30303 		bfi	r3, r5, #0, #4
 8030 0020 8DF80430 		strb	r3, [sp, #4]
 8031 0024 0123     		movs	r3, #1
 8032 0026 01AA     		add	r2, sp, #4
 8033 0028 0921     		movs	r1, #9
 8034 002a 2046     		mov	r0, r4
 8035 002c FFF7FEFF 		bl	ism330dhcx_write_reg
 8036 0030 F0E7     		b	.L975
 8038              		.section	.text.ism330dhcx_fifo_xl_batch_get,"ax",%progbits
 8039              		.align	1
 8040              		.global	ism330dhcx_fifo_xl_batch_get
 8041              		.syntax unified
 8042              		.thumb
 8043              		.thumb_func
 8045              	ism330dhcx_fifo_xl_batch_get:
 8046              		@ args = 0, pretend = 0, frame = 8
 8047              		@ frame_needed = 0, uses_anonymous_args = 0
 8048 0000 10B5     		push	{r4, lr}
 8049 0002 82B0     		sub	sp, sp, #8
ARM GAS  C:\Temp\cclPUGyV.s 			page 135


 8050 0004 0C46     		mov	r4, r1
 8051 0006 0123     		movs	r3, #1
 8052 0008 01AA     		add	r2, sp, #4
 8053 000a 0921     		movs	r1, #9
 8054 000c FFF7FEFF 		bl	ism330dhcx_read_reg
 8055 0010 9DF80430 		ldrb	r3, [sp, #4]	@ zero_extendqisi2
 8056 0014 03F00F03 		and	r3, r3, #15
 8057 0018 0B2B     		cmp	r3, #11
 8058 001a 2CD8     		bhi	.L980
 8059 001c DFE803F0 		tbb	[pc, r3]
 8060              	.L982:
 8061 0020 06       		.byte	(.L993-.L982)/2
 8062 0021 0A       		.byte	(.L992-.L982)/2
 8063 0022 0D       		.byte	(.L991-.L982)/2
 8064 0023 10       		.byte	(.L990-.L982)/2
 8065 0024 13       		.byte	(.L989-.L982)/2
 8066 0025 16       		.byte	(.L988-.L982)/2
 8067 0026 19       		.byte	(.L987-.L982)/2
 8068 0027 1C       		.byte	(.L986-.L982)/2
 8069 0028 1F       		.byte	(.L985-.L982)/2
 8070 0029 22       		.byte	(.L984-.L982)/2
 8071 002a 25       		.byte	(.L983-.L982)/2
 8072 002b 28       		.byte	(.L981-.L982)/2
 8073              		.p2align 1
 8074              	.L993:
 8075 002c 0023     		movs	r3, #0
 8076 002e 2370     		strb	r3, [r4]
 8077              	.L979:
 8078 0030 02B0     		add	sp, sp, #8
 8079              		@ sp needed
 8080 0032 10BD     		pop	{r4, pc}
 8081              	.L992:
 8082 0034 0123     		movs	r3, #1
 8083 0036 2370     		strb	r3, [r4]
 8084 0038 FAE7     		b	.L979
 8085              	.L991:
 8086 003a 0223     		movs	r3, #2
 8087 003c 2370     		strb	r3, [r4]
 8088 003e F7E7     		b	.L979
 8089              	.L990:
 8090 0040 0323     		movs	r3, #3
 8091 0042 2370     		strb	r3, [r4]
 8092 0044 F4E7     		b	.L979
 8093              	.L989:
 8094 0046 0423     		movs	r3, #4
 8095 0048 2370     		strb	r3, [r4]
 8096 004a F1E7     		b	.L979
 8097              	.L988:
 8098 004c 0523     		movs	r3, #5
 8099 004e 2370     		strb	r3, [r4]
 8100 0050 EEE7     		b	.L979
 8101              	.L987:
 8102 0052 0623     		movs	r3, #6
 8103 0054 2370     		strb	r3, [r4]
 8104 0056 EBE7     		b	.L979
 8105              	.L986:
 8106 0058 0723     		movs	r3, #7
ARM GAS  C:\Temp\cclPUGyV.s 			page 136


 8107 005a 2370     		strb	r3, [r4]
 8108 005c E8E7     		b	.L979
 8109              	.L985:
 8110 005e 0823     		movs	r3, #8
 8111 0060 2370     		strb	r3, [r4]
 8112 0062 E5E7     		b	.L979
 8113              	.L984:
 8114 0064 0923     		movs	r3, #9
 8115 0066 2370     		strb	r3, [r4]
 8116 0068 E2E7     		b	.L979
 8117              	.L983:
 8118 006a 0A23     		movs	r3, #10
 8119 006c 2370     		strb	r3, [r4]
 8120 006e DFE7     		b	.L979
 8121              	.L981:
 8122 0070 0B23     		movs	r3, #11
 8123 0072 2370     		strb	r3, [r4]
 8124 0074 DCE7     		b	.L979
 8125              	.L980:
 8126 0076 0023     		movs	r3, #0
 8127 0078 2370     		strb	r3, [r4]
 8128 007a D9E7     		b	.L979
 8130              		.section	.text.ism330dhcx_fifo_gy_batch_set,"ax",%progbits
 8131              		.align	1
 8132              		.global	ism330dhcx_fifo_gy_batch_set
 8133              		.syntax unified
 8134              		.thumb
 8135              		.thumb_func
 8137              	ism330dhcx_fifo_gy_batch_set:
 8138              		@ args = 0, pretend = 0, frame = 8
 8139              		@ frame_needed = 0, uses_anonymous_args = 0
 8140 0000 30B5     		push	{r4, r5, lr}
 8141 0002 83B0     		sub	sp, sp, #12
 8142 0004 0446     		mov	r4, r0
 8143 0006 0D46     		mov	r5, r1
 8144 0008 0123     		movs	r3, #1
 8145 000a 01AA     		add	r2, sp, #4
 8146 000c 0921     		movs	r1, #9
 8147 000e FFF7FEFF 		bl	ism330dhcx_read_reg
 8148 0012 08B1     		cbz	r0, .L999
 8149              	.L996:
 8150 0014 03B0     		add	sp, sp, #12
 8151              		@ sp needed
 8152 0016 30BD     		pop	{r4, r5, pc}
 8153              	.L999:
 8154 0018 9DF80430 		ldrb	r3, [sp, #4]	@ zero_extendqisi2
 8155 001c 65F30713 		bfi	r3, r5, #4, #4
 8156 0020 8DF80430 		strb	r3, [sp, #4]
 8157 0024 0123     		movs	r3, #1
 8158 0026 01AA     		add	r2, sp, #4
 8159 0028 0921     		movs	r1, #9
 8160 002a 2046     		mov	r0, r4
 8161 002c FFF7FEFF 		bl	ism330dhcx_write_reg
 8162 0030 F0E7     		b	.L996
 8164              		.section	.text.ism330dhcx_fifo_gy_batch_get,"ax",%progbits
 8165              		.align	1
 8166              		.global	ism330dhcx_fifo_gy_batch_get
ARM GAS  C:\Temp\cclPUGyV.s 			page 137


 8167              		.syntax unified
 8168              		.thumb
 8169              		.thumb_func
 8171              	ism330dhcx_fifo_gy_batch_get:
 8172              		@ args = 0, pretend = 0, frame = 8
 8173              		@ frame_needed = 0, uses_anonymous_args = 0
 8174 0000 10B5     		push	{r4, lr}
 8175 0002 82B0     		sub	sp, sp, #8
 8176 0004 0C46     		mov	r4, r1
 8177 0006 0123     		movs	r3, #1
 8178 0008 01AA     		add	r2, sp, #4
 8179 000a 0921     		movs	r1, #9
 8180 000c FFF7FEFF 		bl	ism330dhcx_read_reg
 8181 0010 9DF80430 		ldrb	r3, [sp, #4]	@ zero_extendqisi2
 8182 0014 1B09     		lsrs	r3, r3, #4
 8183 0016 0B2B     		cmp	r3, #11
 8184 0018 2CD8     		bhi	.L1001
 8185 001a DFE803F0 		tbb	[pc, r3]
 8186              	.L1003:
 8187 001e 06       		.byte	(.L1014-.L1003)/2
 8188 001f 0A       		.byte	(.L1013-.L1003)/2
 8189 0020 0D       		.byte	(.L1012-.L1003)/2
 8190 0021 10       		.byte	(.L1011-.L1003)/2
 8191 0022 13       		.byte	(.L1010-.L1003)/2
 8192 0023 16       		.byte	(.L1009-.L1003)/2
 8193 0024 19       		.byte	(.L1008-.L1003)/2
 8194 0025 1C       		.byte	(.L1007-.L1003)/2
 8195 0026 1F       		.byte	(.L1006-.L1003)/2
 8196 0027 22       		.byte	(.L1005-.L1003)/2
 8197 0028 25       		.byte	(.L1004-.L1003)/2
 8198 0029 28       		.byte	(.L1002-.L1003)/2
 8199              		.p2align 1
 8200              	.L1014:
 8201 002a 0023     		movs	r3, #0
 8202 002c 2370     		strb	r3, [r4]
 8203              	.L1000:
 8204 002e 02B0     		add	sp, sp, #8
 8205              		@ sp needed
 8206 0030 10BD     		pop	{r4, pc}
 8207              	.L1013:
 8208 0032 0123     		movs	r3, #1
 8209 0034 2370     		strb	r3, [r4]
 8210 0036 FAE7     		b	.L1000
 8211              	.L1012:
 8212 0038 0223     		movs	r3, #2
 8213 003a 2370     		strb	r3, [r4]
 8214 003c F7E7     		b	.L1000
 8215              	.L1011:
 8216 003e 0323     		movs	r3, #3
 8217 0040 2370     		strb	r3, [r4]
 8218 0042 F4E7     		b	.L1000
 8219              	.L1010:
 8220 0044 0423     		movs	r3, #4
 8221 0046 2370     		strb	r3, [r4]
 8222 0048 F1E7     		b	.L1000
 8223              	.L1009:
 8224 004a 0523     		movs	r3, #5
ARM GAS  C:\Temp\cclPUGyV.s 			page 138


 8225 004c 2370     		strb	r3, [r4]
 8226 004e EEE7     		b	.L1000
 8227              	.L1008:
 8228 0050 0623     		movs	r3, #6
 8229 0052 2370     		strb	r3, [r4]
 8230 0054 EBE7     		b	.L1000
 8231              	.L1007:
 8232 0056 0723     		movs	r3, #7
 8233 0058 2370     		strb	r3, [r4]
 8234 005a E8E7     		b	.L1000
 8235              	.L1006:
 8236 005c 0823     		movs	r3, #8
 8237 005e 2370     		strb	r3, [r4]
 8238 0060 E5E7     		b	.L1000
 8239              	.L1005:
 8240 0062 0923     		movs	r3, #9
 8241 0064 2370     		strb	r3, [r4]
 8242 0066 E2E7     		b	.L1000
 8243              	.L1004:
 8244 0068 0A23     		movs	r3, #10
 8245 006a 2370     		strb	r3, [r4]
 8246 006c DFE7     		b	.L1000
 8247              	.L1002:
 8248 006e 0B23     		movs	r3, #11
 8249 0070 2370     		strb	r3, [r4]
 8250 0072 DCE7     		b	.L1000
 8251              	.L1001:
 8252 0074 0023     		movs	r3, #0
 8253 0076 2370     		strb	r3, [r4]
 8254 0078 D9E7     		b	.L1000
 8256              		.section	.text.ism330dhcx_fifo_mode_set,"ax",%progbits
 8257              		.align	1
 8258              		.global	ism330dhcx_fifo_mode_set
 8259              		.syntax unified
 8260              		.thumb
 8261              		.thumb_func
 8263              	ism330dhcx_fifo_mode_set:
 8264              		@ args = 0, pretend = 0, frame = 8
 8265              		@ frame_needed = 0, uses_anonymous_args = 0
 8266 0000 30B5     		push	{r4, r5, lr}
 8267 0002 83B0     		sub	sp, sp, #12
 8268 0004 0446     		mov	r4, r0
 8269 0006 0D46     		mov	r5, r1
 8270 0008 0123     		movs	r3, #1
 8271 000a 01AA     		add	r2, sp, #4
 8272 000c 0A21     		movs	r1, #10
 8273 000e FFF7FEFF 		bl	ism330dhcx_read_reg
 8274 0012 08B1     		cbz	r0, .L1020
 8275              	.L1017:
 8276 0014 03B0     		add	sp, sp, #12
 8277              		@ sp needed
 8278 0016 30BD     		pop	{r4, r5, pc}
 8279              	.L1020:
 8280 0018 9DF80430 		ldrb	r3, [sp, #4]	@ zero_extendqisi2
 8281 001c 65F30203 		bfi	r3, r5, #0, #3
 8282 0020 8DF80430 		strb	r3, [sp, #4]
 8283 0024 0123     		movs	r3, #1
ARM GAS  C:\Temp\cclPUGyV.s 			page 139


 8284 0026 01AA     		add	r2, sp, #4
 8285 0028 0A21     		movs	r1, #10
 8286 002a 2046     		mov	r0, r4
 8287 002c FFF7FEFF 		bl	ism330dhcx_write_reg
 8288 0030 F0E7     		b	.L1017
 8290              		.section	.text.ism330dhcx_fifo_mode_get,"ax",%progbits
 8291              		.align	1
 8292              		.global	ism330dhcx_fifo_mode_get
 8293              		.syntax unified
 8294              		.thumb
 8295              		.thumb_func
 8297              	ism330dhcx_fifo_mode_get:
 8298              		@ args = 0, pretend = 0, frame = 8
 8299              		@ frame_needed = 0, uses_anonymous_args = 0
 8300 0000 10B5     		push	{r4, lr}
 8301 0002 82B0     		sub	sp, sp, #8
 8302 0004 0C46     		mov	r4, r1
 8303 0006 0123     		movs	r3, #1
 8304 0008 01AA     		add	r2, sp, #4
 8305 000a 0A21     		movs	r1, #10
 8306 000c FFF7FEFF 		bl	ism330dhcx_read_reg
 8307 0010 9DF80430 		ldrb	r3, [sp, #4]	@ zero_extendqisi2
 8308 0014 03F00703 		and	r3, r3, #7
 8309 0018 072B     		cmp	r3, #7
 8310 001a 18D8     		bhi	.L1022
 8311 001c DFE803F0 		tbb	[pc, r3]
 8312              	.L1024:
 8313 0020 04       		.byte	(.L1029-.L1024)/2
 8314 0021 08       		.byte	(.L1028-.L1024)/2
 8315 0022 17       		.byte	(.L1022-.L1024)/2
 8316 0023 0B       		.byte	(.L1027-.L1024)/2
 8317 0024 0E       		.byte	(.L1026-.L1024)/2
 8318 0025 17       		.byte	(.L1022-.L1024)/2
 8319 0026 11       		.byte	(.L1025-.L1024)/2
 8320 0027 14       		.byte	(.L1023-.L1024)/2
 8321              		.p2align 1
 8322              	.L1029:
 8323 0028 0023     		movs	r3, #0
 8324 002a 2370     		strb	r3, [r4]
 8325              	.L1021:
 8326 002c 02B0     		add	sp, sp, #8
 8327              		@ sp needed
 8328 002e 10BD     		pop	{r4, pc}
 8329              	.L1028:
 8330 0030 0123     		movs	r3, #1
 8331 0032 2370     		strb	r3, [r4]
 8332 0034 FAE7     		b	.L1021
 8333              	.L1027:
 8334 0036 0323     		movs	r3, #3
 8335 0038 2370     		strb	r3, [r4]
 8336 003a F7E7     		b	.L1021
 8337              	.L1026:
 8338 003c 0423     		movs	r3, #4
 8339 003e 2370     		strb	r3, [r4]
 8340 0040 F4E7     		b	.L1021
 8341              	.L1025:
 8342 0042 0623     		movs	r3, #6
ARM GAS  C:\Temp\cclPUGyV.s 			page 140


 8343 0044 2370     		strb	r3, [r4]
 8344 0046 F1E7     		b	.L1021
 8345              	.L1023:
 8346 0048 0723     		movs	r3, #7
 8347 004a 2370     		strb	r3, [r4]
 8348 004c EEE7     		b	.L1021
 8349              	.L1022:
 8350 004e 0023     		movs	r3, #0
 8351 0050 2370     		strb	r3, [r4]
 8352 0052 EBE7     		b	.L1021
 8354              		.section	.text.ism330dhcx_fifo_temp_batch_set,"ax",%progbits
 8355              		.align	1
 8356              		.global	ism330dhcx_fifo_temp_batch_set
 8357              		.syntax unified
 8358              		.thumb
 8359              		.thumb_func
 8361              	ism330dhcx_fifo_temp_batch_set:
 8362              		@ args = 0, pretend = 0, frame = 8
 8363              		@ frame_needed = 0, uses_anonymous_args = 0
 8364 0000 30B5     		push	{r4, r5, lr}
 8365 0002 83B0     		sub	sp, sp, #12
 8366 0004 0446     		mov	r4, r0
 8367 0006 0D46     		mov	r5, r1
 8368 0008 0123     		movs	r3, #1
 8369 000a 01AA     		add	r2, sp, #4
 8370 000c 0A21     		movs	r1, #10
 8371 000e FFF7FEFF 		bl	ism330dhcx_read_reg
 8372 0012 08B1     		cbz	r0, .L1035
 8373              	.L1032:
 8374 0014 03B0     		add	sp, sp, #12
 8375              		@ sp needed
 8376 0016 30BD     		pop	{r4, r5, pc}
 8377              	.L1035:
 8378 0018 9DF80430 		ldrb	r3, [sp, #4]	@ zero_extendqisi2
 8379 001c 65F30513 		bfi	r3, r5, #4, #2
 8380 0020 8DF80430 		strb	r3, [sp, #4]
 8381 0024 0123     		movs	r3, #1
 8382 0026 01AA     		add	r2, sp, #4
 8383 0028 0A21     		movs	r1, #10
 8384 002a 2046     		mov	r0, r4
 8385 002c FFF7FEFF 		bl	ism330dhcx_write_reg
 8386 0030 F0E7     		b	.L1032
 8388              		.section	.text.ism330dhcx_fifo_temp_batch_get,"ax",%progbits
 8389              		.align	1
 8390              		.global	ism330dhcx_fifo_temp_batch_get
 8391              		.syntax unified
 8392              		.thumb
 8393              		.thumb_func
 8395              	ism330dhcx_fifo_temp_batch_get:
 8396              		@ args = 0, pretend = 0, frame = 8
 8397              		@ frame_needed = 0, uses_anonymous_args = 0
 8398 0000 10B5     		push	{r4, lr}
 8399 0002 82B0     		sub	sp, sp, #8
 8400 0004 0C46     		mov	r4, r1
 8401 0006 0123     		movs	r3, #1
 8402 0008 01AA     		add	r2, sp, #4
 8403 000a 0A21     		movs	r1, #10
ARM GAS  C:\Temp\cclPUGyV.s 			page 141


 8404 000c FFF7FEFF 		bl	ism330dhcx_read_reg
 8405 0010 9DF80430 		ldrb	r3, [sp, #4]	@ zero_extendqisi2
 8406 0014 C3F30113 		ubfx	r3, r3, #4, #2
 8407 0018 032B     		cmp	r3, #3
 8408 001a 10D8     		bhi	.L1037
 8409 001c DFE803F0 		tbb	[pc, r3]
 8410              	.L1039:
 8411 0020 02       		.byte	(.L1042-.L1039)/2
 8412 0021 06       		.byte	(.L1041-.L1039)/2
 8413 0022 09       		.byte	(.L1040-.L1039)/2
 8414 0023 0C       		.byte	(.L1038-.L1039)/2
 8415              		.p2align 1
 8416              	.L1042:
 8417 0024 0023     		movs	r3, #0
 8418 0026 2370     		strb	r3, [r4]
 8419              	.L1036:
 8420 0028 02B0     		add	sp, sp, #8
 8421              		@ sp needed
 8422 002a 10BD     		pop	{r4, pc}
 8423              	.L1041:
 8424 002c 0123     		movs	r3, #1
 8425 002e 2370     		strb	r3, [r4]
 8426 0030 FAE7     		b	.L1036
 8427              	.L1040:
 8428 0032 0223     		movs	r3, #2
 8429 0034 2370     		strb	r3, [r4]
 8430 0036 F7E7     		b	.L1036
 8431              	.L1038:
 8432 0038 0323     		movs	r3, #3
 8433 003a 2370     		strb	r3, [r4]
 8434 003c F4E7     		b	.L1036
 8435              	.L1037:
 8436 003e 0023     		movs	r3, #0
 8437 0040 2370     		strb	r3, [r4]
 8438 0042 F1E7     		b	.L1036
 8440              		.section	.text.ism330dhcx_fifo_timestamp_decimation_set,"ax",%progbits
 8441              		.align	1
 8442              		.global	ism330dhcx_fifo_timestamp_decimation_set
 8443              		.syntax unified
 8444              		.thumb
 8445              		.thumb_func
 8447              	ism330dhcx_fifo_timestamp_decimation_set:
 8448              		@ args = 0, pretend = 0, frame = 8
 8449              		@ frame_needed = 0, uses_anonymous_args = 0
 8450 0000 30B5     		push	{r4, r5, lr}
 8451 0002 83B0     		sub	sp, sp, #12
 8452 0004 0446     		mov	r4, r0
 8453 0006 0D46     		mov	r5, r1
 8454 0008 0123     		movs	r3, #1
 8455 000a 01AA     		add	r2, sp, #4
 8456 000c 0A21     		movs	r1, #10
 8457 000e FFF7FEFF 		bl	ism330dhcx_read_reg
 8458 0012 08B1     		cbz	r0, .L1048
 8459              	.L1045:
 8460 0014 03B0     		add	sp, sp, #12
 8461              		@ sp needed
 8462 0016 30BD     		pop	{r4, r5, pc}
ARM GAS  C:\Temp\cclPUGyV.s 			page 142


 8463              	.L1048:
 8464 0018 9DF80430 		ldrb	r3, [sp, #4]	@ zero_extendqisi2
 8465 001c 65F38713 		bfi	r3, r5, #6, #2
 8466 0020 8DF80430 		strb	r3, [sp, #4]
 8467 0024 0123     		movs	r3, #1
 8468 0026 01AA     		add	r2, sp, #4
 8469 0028 0A21     		movs	r1, #10
 8470 002a 2046     		mov	r0, r4
 8471 002c FFF7FEFF 		bl	ism330dhcx_write_reg
 8472 0030 F0E7     		b	.L1045
 8474              		.section	.text.ism330dhcx_fifo_timestamp_decimation_get,"ax",%progbits
 8475              		.align	1
 8476              		.global	ism330dhcx_fifo_timestamp_decimation_get
 8477              		.syntax unified
 8478              		.thumb
 8479              		.thumb_func
 8481              	ism330dhcx_fifo_timestamp_decimation_get:
 8482              		@ args = 0, pretend = 0, frame = 8
 8483              		@ frame_needed = 0, uses_anonymous_args = 0
 8484 0000 10B5     		push	{r4, lr}
 8485 0002 82B0     		sub	sp, sp, #8
 8486 0004 0C46     		mov	r4, r1
 8487 0006 0123     		movs	r3, #1
 8488 0008 01AA     		add	r2, sp, #4
 8489 000a 0A21     		movs	r1, #10
 8490 000c FFF7FEFF 		bl	ism330dhcx_read_reg
 8491 0010 9DF80430 		ldrb	r3, [sp, #4]	@ zero_extendqisi2
 8492 0014 9B09     		lsrs	r3, r3, #6
 8493 0016 032B     		cmp	r3, #3
 8494 0018 10D8     		bhi	.L1050
 8495 001a DFE803F0 		tbb	[pc, r3]
 8496              	.L1052:
 8497 001e 02       		.byte	(.L1055-.L1052)/2
 8498 001f 06       		.byte	(.L1054-.L1052)/2
 8499 0020 09       		.byte	(.L1053-.L1052)/2
 8500 0021 0C       		.byte	(.L1051-.L1052)/2
 8501              		.p2align 1
 8502              	.L1055:
 8503 0022 0023     		movs	r3, #0
 8504 0024 2370     		strb	r3, [r4]
 8505              	.L1049:
 8506 0026 02B0     		add	sp, sp, #8
 8507              		@ sp needed
 8508 0028 10BD     		pop	{r4, pc}
 8509              	.L1054:
 8510 002a 0123     		movs	r3, #1
 8511 002c 2370     		strb	r3, [r4]
 8512 002e FAE7     		b	.L1049
 8513              	.L1053:
 8514 0030 0223     		movs	r3, #2
 8515 0032 2370     		strb	r3, [r4]
 8516 0034 F7E7     		b	.L1049
 8517              	.L1051:
 8518 0036 0323     		movs	r3, #3
 8519 0038 2370     		strb	r3, [r4]
 8520 003a F4E7     		b	.L1049
 8521              	.L1050:
ARM GAS  C:\Temp\cclPUGyV.s 			page 143


 8522 003c 0023     		movs	r3, #0
 8523 003e 2370     		strb	r3, [r4]
 8524 0040 F1E7     		b	.L1049
 8526              		.section	.text.ism330dhcx_fifo_cnt_event_batch_set,"ax",%progbits
 8527              		.align	1
 8528              		.global	ism330dhcx_fifo_cnt_event_batch_set
 8529              		.syntax unified
 8530              		.thumb
 8531              		.thumb_func
 8533              	ism330dhcx_fifo_cnt_event_batch_set:
 8534              		@ args = 0, pretend = 0, frame = 8
 8535              		@ frame_needed = 0, uses_anonymous_args = 0
 8536 0000 30B5     		push	{r4, r5, lr}
 8537 0002 83B0     		sub	sp, sp, #12
 8538 0004 0446     		mov	r4, r0
 8539 0006 0D46     		mov	r5, r1
 8540 0008 0123     		movs	r3, #1
 8541 000a 01AA     		add	r2, sp, #4
 8542 000c 0B21     		movs	r1, #11
 8543 000e FFF7FEFF 		bl	ism330dhcx_read_reg
 8544 0012 08B1     		cbz	r0, .L1061
 8545              	.L1058:
 8546 0014 03B0     		add	sp, sp, #12
 8547              		@ sp needed
 8548 0016 30BD     		pop	{r4, r5, pc}
 8549              	.L1061:
 8550 0018 9DF80430 		ldrb	r3, [sp, #4]	@ zero_extendqisi2
 8551 001c 65F34513 		bfi	r3, r5, #5, #1
 8552 0020 8DF80430 		strb	r3, [sp, #4]
 8553 0024 0123     		movs	r3, #1
 8554 0026 01AA     		add	r2, sp, #4
 8555 0028 0B21     		movs	r1, #11
 8556 002a 2046     		mov	r0, r4
 8557 002c FFF7FEFF 		bl	ism330dhcx_write_reg
 8558 0030 F0E7     		b	.L1058
 8560              		.section	.text.ism330dhcx_fifo_cnt_event_batch_get,"ax",%progbits
 8561              		.align	1
 8562              		.global	ism330dhcx_fifo_cnt_event_batch_get
 8563              		.syntax unified
 8564              		.thumb
 8565              		.thumb_func
 8567              	ism330dhcx_fifo_cnt_event_batch_get:
 8568              		@ args = 0, pretend = 0, frame = 8
 8569              		@ frame_needed = 0, uses_anonymous_args = 0
 8570 0000 10B5     		push	{r4, lr}
 8571 0002 82B0     		sub	sp, sp, #8
 8572 0004 0C46     		mov	r4, r1
 8573 0006 0123     		movs	r3, #1
 8574 0008 01AA     		add	r2, sp, #4
 8575 000a 0B21     		movs	r1, #11
 8576 000c FFF7FEFF 		bl	ism330dhcx_read_reg
 8577 0010 9DF80430 		ldrb	r3, [sp, #4]	@ zero_extendqisi2
 8578 0014 C3F34012 		ubfx	r2, r3, #5, #1
 8579 0018 13F0200F 		tst	r3, #32
 8580 001c 03D0     		beq	.L1063
 8581 001e 32B9     		cbnz	r2, .L1064
 8582 0020 0023     		movs	r3, #0
ARM GAS  C:\Temp\cclPUGyV.s 			page 144


 8583 0022 2370     		strb	r3, [r4]
 8584 0024 01E0     		b	.L1062
 8585              	.L1063:
 8586 0026 0023     		movs	r3, #0
 8587 0028 2370     		strb	r3, [r4]
 8588              	.L1062:
 8589 002a 02B0     		add	sp, sp, #8
 8590              		@ sp needed
 8591 002c 10BD     		pop	{r4, pc}
 8592              	.L1064:
 8593 002e 0123     		movs	r3, #1
 8594 0030 2370     		strb	r3, [r4]
 8595 0032 FAE7     		b	.L1062
 8597              		.section	.text.ism330dhcx_rst_batch_counter_set,"ax",%progbits
 8598              		.align	1
 8599              		.global	ism330dhcx_rst_batch_counter_set
 8600              		.syntax unified
 8601              		.thumb
 8602              		.thumb_func
 8604              	ism330dhcx_rst_batch_counter_set:
 8605              		@ args = 0, pretend = 0, frame = 8
 8606              		@ frame_needed = 0, uses_anonymous_args = 0
 8607 0000 30B5     		push	{r4, r5, lr}
 8608 0002 83B0     		sub	sp, sp, #12
 8609 0004 0446     		mov	r4, r0
 8610 0006 0D46     		mov	r5, r1
 8611 0008 0123     		movs	r3, #1
 8612 000a 01AA     		add	r2, sp, #4
 8613 000c 0B21     		movs	r1, #11
 8614 000e FFF7FEFF 		bl	ism330dhcx_read_reg
 8615 0012 08B1     		cbz	r0, .L1072
 8616              	.L1069:
 8617 0014 03B0     		add	sp, sp, #12
 8618              		@ sp needed
 8619 0016 30BD     		pop	{r4, r5, pc}
 8620              	.L1072:
 8621 0018 9DF80430 		ldrb	r3, [sp, #4]	@ zero_extendqisi2
 8622 001c 65F38613 		bfi	r3, r5, #6, #1
 8623 0020 8DF80430 		strb	r3, [sp, #4]
 8624 0024 0123     		movs	r3, #1
 8625 0026 01AA     		add	r2, sp, #4
 8626 0028 0B21     		movs	r1, #11
 8627 002a 2046     		mov	r0, r4
 8628 002c FFF7FEFF 		bl	ism330dhcx_write_reg
 8629 0030 F0E7     		b	.L1069
 8631              		.section	.text.ism330dhcx_rst_batch_counter_get,"ax",%progbits
 8632              		.align	1
 8633              		.global	ism330dhcx_rst_batch_counter_get
 8634              		.syntax unified
 8635              		.thumb
 8636              		.thumb_func
 8638              	ism330dhcx_rst_batch_counter_get:
 8639              		@ args = 0, pretend = 0, frame = 8
 8640              		@ frame_needed = 0, uses_anonymous_args = 0
 8641 0000 10B5     		push	{r4, lr}
 8642 0002 82B0     		sub	sp, sp, #8
 8643 0004 0C46     		mov	r4, r1
ARM GAS  C:\Temp\cclPUGyV.s 			page 145


 8644 0006 0123     		movs	r3, #1
 8645 0008 01AA     		add	r2, sp, #4
 8646 000a 0B21     		movs	r1, #11
 8647 000c FFF7FEFF 		bl	ism330dhcx_read_reg
 8648 0010 9DF80430 		ldrb	r3, [sp, #4]	@ zero_extendqisi2
 8649 0014 C3F38013 		ubfx	r3, r3, #6, #1
 8650 0018 2370     		strb	r3, [r4]
 8651 001a 02B0     		add	sp, sp, #8
 8652              		@ sp needed
 8653 001c 10BD     		pop	{r4, pc}
 8655              		.section	.text.ism330dhcx_batch_counter_threshold_set,"ax",%progbits
 8656              		.align	1
 8657              		.global	ism330dhcx_batch_counter_threshold_set
 8658              		.syntax unified
 8659              		.thumb
 8660              		.thumb_func
 8662              	ism330dhcx_batch_counter_threshold_set:
 8663              		@ args = 0, pretend = 0, frame = 8
 8664              		@ frame_needed = 0, uses_anonymous_args = 0
 8665 0000 30B5     		push	{r4, r5, lr}
 8666 0002 83B0     		sub	sp, sp, #12
 8667 0004 0446     		mov	r4, r0
 8668 0006 0D46     		mov	r5, r1
 8669 0008 0123     		movs	r3, #1
 8670 000a 01AA     		add	r2, sp, #4
 8671 000c 0B21     		movs	r1, #11
 8672 000e FFF7FEFF 		bl	ism330dhcx_read_reg
 8673 0012 08B1     		cbz	r0, .L1078
 8674              	.L1075:
 8675 0014 03B0     		add	sp, sp, #12
 8676              		@ sp needed
 8677 0016 30BD     		pop	{r4, r5, pc}
 8678              	.L1078:
 8679 0018 C5F30223 		ubfx	r3, r5, #8, #3
 8680 001c 8DF80430 		strb	r3, [sp, #4]
 8681 0020 0123     		movs	r3, #1
 8682 0022 01AA     		add	r2, sp, #4
 8683 0024 0B21     		movs	r1, #11
 8684 0026 2046     		mov	r0, r4
 8685 0028 FFF7FEFF 		bl	ism330dhcx_write_reg
 8686 002c 0028     		cmp	r0, #0
 8687 002e F1D1     		bne	.L1075
 8688 0030 8DF80050 		strb	r5, [sp]
 8689 0034 0123     		movs	r3, #1
 8690 0036 6A46     		mov	r2, sp
 8691 0038 0C21     		movs	r1, #12
 8692 003a 2046     		mov	r0, r4
 8693 003c FFF7FEFF 		bl	ism330dhcx_write_reg
 8694 0040 E8E7     		b	.L1075
 8696              		.section	.text.ism330dhcx_batch_counter_threshold_get,"ax",%progbits
 8697              		.align	1
 8698              		.global	ism330dhcx_batch_counter_threshold_get
 8699              		.syntax unified
 8700              		.thumb
 8701              		.thumb_func
 8703              	ism330dhcx_batch_counter_threshold_get:
 8704              		@ args = 0, pretend = 0, frame = 8
ARM GAS  C:\Temp\cclPUGyV.s 			page 146


 8705              		@ frame_needed = 0, uses_anonymous_args = 0
 8706 0000 30B5     		push	{r4, r5, lr}
 8707 0002 83B0     		sub	sp, sp, #12
 8708 0004 0546     		mov	r5, r0
 8709 0006 0C46     		mov	r4, r1
 8710 0008 0123     		movs	r3, #1
 8711 000a 01AA     		add	r2, sp, #4
 8712 000c 0B21     		movs	r1, #11
 8713 000e FFF7FEFF 		bl	ism330dhcx_read_reg
 8714 0012 58B1     		cbz	r0, .L1082
 8715              	.L1080:
 8716 0014 9DF80430 		ldrb	r3, [sp, #4]	@ zero_extendqisi2
 8717 0018 03F00703 		and	r3, r3, #7
 8718 001c 2380     		strh	r3, [r4]	@ movhi
 8719 001e 9DF80020 		ldrb	r2, [sp]	@ zero_extendqisi2
 8720 0022 02EB0323 		add	r3, r2, r3, lsl #8
 8721 0026 2380     		strh	r3, [r4]	@ movhi
 8722 0028 03B0     		add	sp, sp, #12
 8723              		@ sp needed
 8724 002a 30BD     		pop	{r4, r5, pc}
 8725              	.L1082:
 8726 002c 0123     		movs	r3, #1
 8727 002e 6A46     		mov	r2, sp
 8728 0030 0C21     		movs	r1, #12
 8729 0032 2846     		mov	r0, r5
 8730 0034 FFF7FEFF 		bl	ism330dhcx_read_reg
 8731 0038 ECE7     		b	.L1080
 8733              		.section	.text.ism330dhcx_fifo_data_level_get,"ax",%progbits
 8734              		.align	1
 8735              		.global	ism330dhcx_fifo_data_level_get
 8736              		.syntax unified
 8737              		.thumb
 8738              		.thumb_func
 8740              	ism330dhcx_fifo_data_level_get:
 8741              		@ args = 0, pretend = 0, frame = 8
 8742              		@ frame_needed = 0, uses_anonymous_args = 0
 8743 0000 30B5     		push	{r4, r5, lr}
 8744 0002 83B0     		sub	sp, sp, #12
 8745 0004 0446     		mov	r4, r0
 8746 0006 0D46     		mov	r5, r1
 8747 0008 0123     		movs	r3, #1
 8748 000a 01AA     		add	r2, sp, #4
 8749 000c 3A21     		movs	r1, #58
 8750 000e FFF7FEFF 		bl	ism330dhcx_read_reg
 8751 0012 08B1     		cbz	r0, .L1086
 8752              	.L1083:
 8753 0014 03B0     		add	sp, sp, #12
 8754              		@ sp needed
 8755 0016 30BD     		pop	{r4, r5, pc}
 8756              	.L1086:
 8757 0018 0123     		movs	r3, #1
 8758 001a 6A46     		mov	r2, sp
 8759 001c 3B21     		movs	r1, #59
 8760 001e 2046     		mov	r0, r4
 8761 0020 FFF7FEFF 		bl	ism330dhcx_read_reg
 8762 0024 9DF80030 		ldrb	r3, [sp]	@ zero_extendqisi2
 8763 0028 03F00303 		and	r3, r3, #3
ARM GAS  C:\Temp\cclPUGyV.s 			page 147


 8764 002c 2B80     		strh	r3, [r5]	@ movhi
 8765 002e 9DF80420 		ldrb	r2, [sp, #4]	@ zero_extendqisi2
 8766 0032 02EB0323 		add	r3, r2, r3, lsl #8
 8767 0036 2B80     		strh	r3, [r5]	@ movhi
 8768 0038 ECE7     		b	.L1083
 8770              		.section	.text.ism330dhcx_fifo_status_get,"ax",%progbits
 8771              		.align	1
 8772              		.global	ism330dhcx_fifo_status_get
 8773              		.syntax unified
 8774              		.thumb
 8775              		.thumb_func
 8777              	ism330dhcx_fifo_status_get:
 8778              		@ args = 0, pretend = 0, frame = 0
 8779              		@ frame_needed = 0, uses_anonymous_args = 0
 8780 0000 08B5     		push	{r3, lr}
 8781 0002 0A46     		mov	r2, r1
 8782 0004 0123     		movs	r3, #1
 8783 0006 3B21     		movs	r1, #59
 8784 0008 FFF7FEFF 		bl	ism330dhcx_read_reg
 8785 000c 08BD     		pop	{r3, pc}
 8787              		.section	.text.ism330dhcx_fifo_full_flag_get,"ax",%progbits
 8788              		.align	1
 8789              		.global	ism330dhcx_fifo_full_flag_get
 8790              		.syntax unified
 8791              		.thumb
 8792              		.thumb_func
 8794              	ism330dhcx_fifo_full_flag_get:
 8795              		@ args = 0, pretend = 0, frame = 8
 8796              		@ frame_needed = 0, uses_anonymous_args = 0
 8797 0000 10B5     		push	{r4, lr}
 8798 0002 82B0     		sub	sp, sp, #8
 8799 0004 0C46     		mov	r4, r1
 8800 0006 0123     		movs	r3, #1
 8801 0008 01AA     		add	r2, sp, #4
 8802 000a 3B21     		movs	r1, #59
 8803 000c FFF7FEFF 		bl	ism330dhcx_read_reg
 8804 0010 9DF80430 		ldrb	r3, [sp, #4]	@ zero_extendqisi2
 8805 0014 C3F34013 		ubfx	r3, r3, #5, #1
 8806 0018 2370     		strb	r3, [r4]
 8807 001a 02B0     		add	sp, sp, #8
 8808              		@ sp needed
 8809 001c 10BD     		pop	{r4, pc}
 8811              		.section	.text.ism330dhcx_fifo_ovr_flag_get,"ax",%progbits
 8812              		.align	1
 8813              		.global	ism330dhcx_fifo_ovr_flag_get
 8814              		.syntax unified
 8815              		.thumb
 8816              		.thumb_func
 8818              	ism330dhcx_fifo_ovr_flag_get:
 8819              		@ args = 0, pretend = 0, frame = 8
 8820              		@ frame_needed = 0, uses_anonymous_args = 0
 8821 0000 10B5     		push	{r4, lr}
 8822 0002 82B0     		sub	sp, sp, #8
 8823 0004 0C46     		mov	r4, r1
 8824 0006 0123     		movs	r3, #1
 8825 0008 01AA     		add	r2, sp, #4
 8826 000a 3B21     		movs	r1, #59
ARM GAS  C:\Temp\cclPUGyV.s 			page 148


 8827 000c FFF7FEFF 		bl	ism330dhcx_read_reg
 8828 0010 9DF80430 		ldrb	r3, [sp, #4]	@ zero_extendqisi2
 8829 0014 C3F38013 		ubfx	r3, r3, #6, #1
 8830 0018 2370     		strb	r3, [r4]
 8831 001a 02B0     		add	sp, sp, #8
 8832              		@ sp needed
 8833 001c 10BD     		pop	{r4, pc}
 8835              		.section	.text.ism330dhcx_fifo_wtm_flag_get,"ax",%progbits
 8836              		.align	1
 8837              		.global	ism330dhcx_fifo_wtm_flag_get
 8838              		.syntax unified
 8839              		.thumb
 8840              		.thumb_func
 8842              	ism330dhcx_fifo_wtm_flag_get:
 8843              		@ args = 0, pretend = 0, frame = 8
 8844              		@ frame_needed = 0, uses_anonymous_args = 0
 8845 0000 10B5     		push	{r4, lr}
 8846 0002 82B0     		sub	sp, sp, #8
 8847 0004 0C46     		mov	r4, r1
 8848 0006 0123     		movs	r3, #1
 8849 0008 01AA     		add	r2, sp, #4
 8850 000a 3B21     		movs	r1, #59
 8851 000c FFF7FEFF 		bl	ism330dhcx_read_reg
 8852 0010 9DF80430 		ldrb	r3, [sp, #4]	@ zero_extendqisi2
 8853 0014 C3F3C013 		ubfx	r3, r3, #7, #1
 8854 0018 2370     		strb	r3, [r4]
 8855 001a 02B0     		add	sp, sp, #8
 8856              		@ sp needed
 8857 001c 10BD     		pop	{r4, pc}
 8859              		.section	.text.ism330dhcx_fifo_sensor_tag_get,"ax",%progbits
 8860              		.align	1
 8861              		.global	ism330dhcx_fifo_sensor_tag_get
 8862              		.syntax unified
 8863              		.thumb
 8864              		.thumb_func
 8866              	ism330dhcx_fifo_sensor_tag_get:
 8867              		@ args = 0, pretend = 0, frame = 8
 8868              		@ frame_needed = 0, uses_anonymous_args = 0
 8869 0000 10B5     		push	{r4, lr}
 8870 0002 82B0     		sub	sp, sp, #8
 8871 0004 0C46     		mov	r4, r1
 8872 0006 0123     		movs	r3, #1
 8873 0008 01AA     		add	r2, sp, #4
 8874 000a 7821     		movs	r1, #120
 8875 000c FFF7FEFF 		bl	ism330dhcx_read_reg
 8876 0010 9DF80430 		ldrb	r3, [sp, #4]	@ zero_extendqisi2
 8877 0014 DB08     		lsrs	r3, r3, #3
 8878 0016 013B     		subs	r3, r3, #1
 8879 0018 182B     		cmp	r3, #24
 8880 001a 51D8     		bhi	.L1096
 8881 001c DFE803F0 		tbb	[pc, r3]
 8882              	.L1098:
 8883 0020 0D       		.byte	(.L1119-.L1098)/2
 8884 0021 11       		.byte	(.L1118-.L1098)/2
 8885 0022 14       		.byte	(.L1117-.L1098)/2
 8886 0023 17       		.byte	(.L1116-.L1098)/2
 8887 0024 1A       		.byte	(.L1115-.L1098)/2
ARM GAS  C:\Temp\cclPUGyV.s 			page 149


 8888 0025 1D       		.byte	(.L1114-.L1098)/2
 8889 0026 20       		.byte	(.L1113-.L1098)/2
 8890 0027 23       		.byte	(.L1112-.L1098)/2
 8891 0028 26       		.byte	(.L1111-.L1098)/2
 8892 0029 29       		.byte	(.L1110-.L1098)/2
 8893 002a 2C       		.byte	(.L1109-.L1098)/2
 8894 002b 2F       		.byte	(.L1108-.L1098)/2
 8895 002c 32       		.byte	(.L1107-.L1098)/2
 8896 002d 35       		.byte	(.L1106-.L1098)/2
 8897 002e 38       		.byte	(.L1105-.L1098)/2
 8898 002f 3B       		.byte	(.L1104-.L1098)/2
 8899 0030 3E       		.byte	(.L1103-.L1098)/2
 8900 0031 41       		.byte	(.L1102-.L1098)/2
 8901 0032 44       		.byte	(.L1101-.L1098)/2
 8902 0033 47       		.byte	(.L1100-.L1098)/2
 8903 0034 4A       		.byte	(.L1099-.L1098)/2
 8904 0035 50       		.byte	(.L1096-.L1098)/2
 8905 0036 50       		.byte	(.L1096-.L1098)/2
 8906 0037 50       		.byte	(.L1096-.L1098)/2
 8907 0038 4D       		.byte	(.L1097-.L1098)/2
 8908 0039 00       		.p2align 1
 8909              	.L1119:
 8910 003a 0123     		movs	r3, #1
 8911 003c 2370     		strb	r3, [r4]
 8912              	.L1095:
 8913 003e 02B0     		add	sp, sp, #8
 8914              		@ sp needed
 8915 0040 10BD     		pop	{r4, pc}
 8916              	.L1118:
 8917 0042 0223     		movs	r3, #2
 8918 0044 2370     		strb	r3, [r4]
 8919 0046 FAE7     		b	.L1095
 8920              	.L1117:
 8921 0048 0323     		movs	r3, #3
 8922 004a 2370     		strb	r3, [r4]
 8923 004c F7E7     		b	.L1095
 8924              	.L1116:
 8925 004e 0423     		movs	r3, #4
 8926 0050 2370     		strb	r3, [r4]
 8927 0052 F4E7     		b	.L1095
 8928              	.L1115:
 8929 0054 0523     		movs	r3, #5
 8930 0056 2370     		strb	r3, [r4]
 8931 0058 F1E7     		b	.L1095
 8932              	.L1114:
 8933 005a 0623     		movs	r3, #6
 8934 005c 2370     		strb	r3, [r4]
 8935 005e EEE7     		b	.L1095
 8936              	.L1113:
 8937 0060 0723     		movs	r3, #7
 8938 0062 2370     		strb	r3, [r4]
 8939 0064 EBE7     		b	.L1095
 8940              	.L1112:
 8941 0066 0823     		movs	r3, #8
 8942 0068 2370     		strb	r3, [r4]
 8943 006a E8E7     		b	.L1095
 8944              	.L1111:
ARM GAS  C:\Temp\cclPUGyV.s 			page 150


 8945 006c 0923     		movs	r3, #9
 8946 006e 2370     		strb	r3, [r4]
 8947 0070 E5E7     		b	.L1095
 8948              	.L1110:
 8949 0072 0A23     		movs	r3, #10
 8950 0074 2370     		strb	r3, [r4]
 8951 0076 E2E7     		b	.L1095
 8952              	.L1109:
 8953 0078 0B23     		movs	r3, #11
 8954 007a 2370     		strb	r3, [r4]
 8955 007c DFE7     		b	.L1095
 8956              	.L1108:
 8957 007e 0C23     		movs	r3, #12
 8958 0080 2370     		strb	r3, [r4]
 8959 0082 DCE7     		b	.L1095
 8960              	.L1107:
 8961 0084 0D23     		movs	r3, #13
 8962 0086 2370     		strb	r3, [r4]
 8963 0088 D9E7     		b	.L1095
 8964              	.L1106:
 8965 008a 0E23     		movs	r3, #14
 8966 008c 2370     		strb	r3, [r4]
 8967 008e D6E7     		b	.L1095
 8968              	.L1105:
 8969 0090 0F23     		movs	r3, #15
 8970 0092 2370     		strb	r3, [r4]
 8971 0094 D3E7     		b	.L1095
 8972              	.L1104:
 8973 0096 1023     		movs	r3, #16
 8974 0098 2370     		strb	r3, [r4]
 8975 009a D0E7     		b	.L1095
 8976              	.L1103:
 8977 009c 1123     		movs	r3, #17
 8978 009e 2370     		strb	r3, [r4]
 8979 00a0 CDE7     		b	.L1095
 8980              	.L1102:
 8981 00a2 1223     		movs	r3, #18
 8982 00a4 2370     		strb	r3, [r4]
 8983 00a6 CAE7     		b	.L1095
 8984              	.L1101:
 8985 00a8 1323     		movs	r3, #19
 8986 00aa 2370     		strb	r3, [r4]
 8987 00ac C7E7     		b	.L1095
 8988              	.L1100:
 8989 00ae 1423     		movs	r3, #20
 8990 00b0 2370     		strb	r3, [r4]
 8991 00b2 C4E7     		b	.L1095
 8992              	.L1099:
 8993 00b4 1523     		movs	r3, #21
 8994 00b6 2370     		strb	r3, [r4]
 8995 00b8 C1E7     		b	.L1095
 8996              	.L1097:
 8997 00ba 1923     		movs	r3, #25
 8998 00bc 2370     		strb	r3, [r4]
 8999 00be BEE7     		b	.L1095
 9000              	.L1096:
 9001 00c0 1923     		movs	r3, #25
ARM GAS  C:\Temp\cclPUGyV.s 			page 151


 9002 00c2 2370     		strb	r3, [r4]
 9003 00c4 BBE7     		b	.L1095
 9005              		.section	.text.ism330dhcx_fifo_pedo_batch_set,"ax",%progbits
 9006              		.align	1
 9007              		.global	ism330dhcx_fifo_pedo_batch_set
 9008              		.syntax unified
 9009              		.thumb
 9010              		.thumb_func
 9012              	ism330dhcx_fifo_pedo_batch_set:
 9013              		@ args = 0, pretend = 0, frame = 8
 9014              		@ frame_needed = 0, uses_anonymous_args = 0
 9015 0000 30B5     		push	{r4, r5, lr}
 9016 0002 83B0     		sub	sp, sp, #12
 9017 0004 0446     		mov	r4, r0
 9018 0006 0D46     		mov	r5, r1
 9019 0008 0221     		movs	r1, #2
 9020 000a FFF7FEFF 		bl	ism330dhcx_mem_bank_set
 9021 000e 0346     		mov	r3, r0
 9022 0010 18B1     		cbz	r0, .L1126
 9023              	.L1123:
 9024 0012 CBB1     		cbz	r3, .L1127
 9025              	.L1122:
 9026 0014 1846     		mov	r0, r3
 9027 0016 03B0     		add	sp, sp, #12
 9028              		@ sp needed
 9029 0018 30BD     		pop	{r4, r5, pc}
 9030              	.L1126:
 9031 001a 0123     		movs	r3, #1
 9032 001c 01AA     		add	r2, sp, #4
 9033 001e 4421     		movs	r1, #68
 9034 0020 2046     		mov	r0, r4
 9035 0022 FFF7FEFF 		bl	ism330dhcx_read_reg
 9036 0026 0346     		mov	r3, r0
 9037 0028 0028     		cmp	r0, #0
 9038 002a F3D1     		bne	.L1122
 9039 002c 9DF80430 		ldrb	r3, [sp, #4]	@ zero_extendqisi2
 9040 0030 65F38613 		bfi	r3, r5, #6, #1
 9041 0034 8DF80430 		strb	r3, [sp, #4]
 9042 0038 0123     		movs	r3, #1
 9043 003a 01AA     		add	r2, sp, #4
 9044 003c 4421     		movs	r1, #68
 9045 003e 2046     		mov	r0, r4
 9046 0040 FFF7FEFF 		bl	ism330dhcx_write_reg
 9047 0044 0346     		mov	r3, r0
 9048 0046 E4E7     		b	.L1123
 9049              	.L1127:
 9050 0048 0021     		movs	r1, #0
 9051 004a 2046     		mov	r0, r4
 9052 004c FFF7FEFF 		bl	ism330dhcx_mem_bank_set
 9053 0050 0346     		mov	r3, r0
 9054 0052 DFE7     		b	.L1122
 9056              		.section	.text.ism330dhcx_fifo_pedo_batch_get,"ax",%progbits
 9057              		.align	1
 9058              		.global	ism330dhcx_fifo_pedo_batch_get
 9059              		.syntax unified
 9060              		.thumb
 9061              		.thumb_func
ARM GAS  C:\Temp\cclPUGyV.s 			page 152


 9063              	ism330dhcx_fifo_pedo_batch_get:
 9064              		@ args = 0, pretend = 0, frame = 8
 9065              		@ frame_needed = 0, uses_anonymous_args = 0
 9066 0000 30B5     		push	{r4, r5, lr}
 9067 0002 83B0     		sub	sp, sp, #12
 9068 0004 0446     		mov	r4, r0
 9069 0006 0D46     		mov	r5, r1
 9070 0008 0221     		movs	r1, #2
 9071 000a FFF7FEFF 		bl	ism330dhcx_mem_bank_set
 9072 000e 08B1     		cbz	r0, .L1131
 9073              	.L1128:
 9074 0010 03B0     		add	sp, sp, #12
 9075              		@ sp needed
 9076 0012 30BD     		pop	{r4, r5, pc}
 9077              	.L1131:
 9078 0014 0123     		movs	r3, #1
 9079 0016 01AA     		add	r2, sp, #4
 9080 0018 4421     		movs	r1, #68
 9081 001a 2046     		mov	r0, r4
 9082 001c FFF7FEFF 		bl	ism330dhcx_read_reg
 9083 0020 9DF80430 		ldrb	r3, [sp, #4]	@ zero_extendqisi2
 9084 0024 C3F38013 		ubfx	r3, r3, #6, #1
 9085 0028 2B70     		strb	r3, [r5]
 9086 002a 0028     		cmp	r0, #0
 9087 002c F0D1     		bne	.L1128
 9088 002e 0021     		movs	r1, #0
 9089 0030 2046     		mov	r0, r4
 9090 0032 FFF7FEFF 		bl	ism330dhcx_mem_bank_set
 9091 0036 EBE7     		b	.L1128
 9093              		.section	.text.ism330dhcx_sh_batch_slave_0_set,"ax",%progbits
 9094              		.align	1
 9095              		.global	ism330dhcx_sh_batch_slave_0_set
 9096              		.syntax unified
 9097              		.thumb
 9098              		.thumb_func
 9100              	ism330dhcx_sh_batch_slave_0_set:
 9101              		@ args = 0, pretend = 0, frame = 8
 9102              		@ frame_needed = 0, uses_anonymous_args = 0
 9103 0000 30B5     		push	{r4, r5, lr}
 9104 0002 83B0     		sub	sp, sp, #12
 9105 0004 0446     		mov	r4, r0
 9106 0006 0D46     		mov	r5, r1
 9107 0008 0121     		movs	r1, #1
 9108 000a FFF7FEFF 		bl	ism330dhcx_mem_bank_set
 9109 000e 0346     		mov	r3, r0
 9110 0010 18B1     		cbz	r0, .L1136
 9111              	.L1133:
 9112 0012 CBB1     		cbz	r3, .L1137
 9113              	.L1132:
 9114 0014 1846     		mov	r0, r3
 9115 0016 03B0     		add	sp, sp, #12
 9116              		@ sp needed
 9117 0018 30BD     		pop	{r4, r5, pc}
 9118              	.L1136:
 9119 001a 0123     		movs	r3, #1
 9120 001c 01AA     		add	r2, sp, #4
 9121 001e 1721     		movs	r1, #23
ARM GAS  C:\Temp\cclPUGyV.s 			page 153


 9122 0020 2046     		mov	r0, r4
 9123 0022 FFF7FEFF 		bl	ism330dhcx_read_reg
 9124 0026 0346     		mov	r3, r0
 9125 0028 0028     		cmp	r0, #0
 9126 002a F3D1     		bne	.L1132
 9127 002c 9DF80430 		ldrb	r3, [sp, #4]	@ zero_extendqisi2
 9128 0030 65F3C303 		bfi	r3, r5, #3, #1
 9129 0034 8DF80430 		strb	r3, [sp, #4]
 9130 0038 0123     		movs	r3, #1
 9131 003a 01AA     		add	r2, sp, #4
 9132 003c 1721     		movs	r1, #23
 9133 003e 2046     		mov	r0, r4
 9134 0040 FFF7FEFF 		bl	ism330dhcx_write_reg
 9135 0044 0346     		mov	r3, r0
 9136 0046 E4E7     		b	.L1133
 9137              	.L1137:
 9138 0048 0021     		movs	r1, #0
 9139 004a 2046     		mov	r0, r4
 9140 004c FFF7FEFF 		bl	ism330dhcx_mem_bank_set
 9141 0050 0346     		mov	r3, r0
 9142 0052 DFE7     		b	.L1132
 9144              		.section	.text.ism330dhcx_sh_batch_slave_0_get,"ax",%progbits
 9145              		.align	1
 9146              		.global	ism330dhcx_sh_batch_slave_0_get
 9147              		.syntax unified
 9148              		.thumb
 9149              		.thumb_func
 9151              	ism330dhcx_sh_batch_slave_0_get:
 9152              		@ args = 0, pretend = 0, frame = 8
 9153              		@ frame_needed = 0, uses_anonymous_args = 0
 9154 0000 30B5     		push	{r4, r5, lr}
 9155 0002 83B0     		sub	sp, sp, #12
 9156 0004 0446     		mov	r4, r0
 9157 0006 0D46     		mov	r5, r1
 9158 0008 0121     		movs	r1, #1
 9159 000a FFF7FEFF 		bl	ism330dhcx_mem_bank_set
 9160 000e 08B1     		cbz	r0, .L1141
 9161              	.L1138:
 9162 0010 03B0     		add	sp, sp, #12
 9163              		@ sp needed
 9164 0012 30BD     		pop	{r4, r5, pc}
 9165              	.L1141:
 9166 0014 0123     		movs	r3, #1
 9167 0016 01AA     		add	r2, sp, #4
 9168 0018 1721     		movs	r1, #23
 9169 001a 2046     		mov	r0, r4
 9170 001c FFF7FEFF 		bl	ism330dhcx_read_reg
 9171 0020 0028     		cmp	r0, #0
 9172 0022 F5D1     		bne	.L1138
 9173 0024 9DF80430 		ldrb	r3, [sp, #4]	@ zero_extendqisi2
 9174 0028 C3F3C003 		ubfx	r3, r3, #3, #1
 9175 002c 2B70     		strb	r3, [r5]
 9176 002e 0021     		movs	r1, #0
 9177 0030 2046     		mov	r0, r4
 9178 0032 FFF7FEFF 		bl	ism330dhcx_mem_bank_set
 9179 0036 EBE7     		b	.L1138
 9181              		.section	.text.ism330dhcx_sh_batch_slave_1_set,"ax",%progbits
ARM GAS  C:\Temp\cclPUGyV.s 			page 154


 9182              		.align	1
 9183              		.global	ism330dhcx_sh_batch_slave_1_set
 9184              		.syntax unified
 9185              		.thumb
 9186              		.thumb_func
 9188              	ism330dhcx_sh_batch_slave_1_set:
 9189              		@ args = 0, pretend = 0, frame = 8
 9190              		@ frame_needed = 0, uses_anonymous_args = 0
 9191 0000 30B5     		push	{r4, r5, lr}
 9192 0002 83B0     		sub	sp, sp, #12
 9193 0004 0446     		mov	r4, r0
 9194 0006 0D46     		mov	r5, r1
 9195 0008 0121     		movs	r1, #1
 9196 000a FFF7FEFF 		bl	ism330dhcx_mem_bank_set
 9197 000e 0346     		mov	r3, r0
 9198 0010 18B1     		cbz	r0, .L1146
 9199              	.L1143:
 9200 0012 CBB1     		cbz	r3, .L1147
 9201              	.L1142:
 9202 0014 1846     		mov	r0, r3
 9203 0016 03B0     		add	sp, sp, #12
 9204              		@ sp needed
 9205 0018 30BD     		pop	{r4, r5, pc}
 9206              	.L1146:
 9207 001a 0123     		movs	r3, #1
 9208 001c 01AA     		add	r2, sp, #4
 9209 001e 1A21     		movs	r1, #26
 9210 0020 2046     		mov	r0, r4
 9211 0022 FFF7FEFF 		bl	ism330dhcx_read_reg
 9212 0026 0346     		mov	r3, r0
 9213 0028 0028     		cmp	r0, #0
 9214 002a F3D1     		bne	.L1142
 9215 002c 9DF80430 		ldrb	r3, [sp, #4]	@ zero_extendqisi2
 9216 0030 65F3C303 		bfi	r3, r5, #3, #1
 9217 0034 8DF80430 		strb	r3, [sp, #4]
 9218 0038 0123     		movs	r3, #1
 9219 003a 01AA     		add	r2, sp, #4
 9220 003c 1A21     		movs	r1, #26
 9221 003e 2046     		mov	r0, r4
 9222 0040 FFF7FEFF 		bl	ism330dhcx_write_reg
 9223 0044 0346     		mov	r3, r0
 9224 0046 E4E7     		b	.L1143
 9225              	.L1147:
 9226 0048 0021     		movs	r1, #0
 9227 004a 2046     		mov	r0, r4
 9228 004c FFF7FEFF 		bl	ism330dhcx_mem_bank_set
 9229 0050 0346     		mov	r3, r0
 9230 0052 DFE7     		b	.L1142
 9232              		.section	.text.ism330dhcx_sh_batch_slave_1_get,"ax",%progbits
 9233              		.align	1
 9234              		.global	ism330dhcx_sh_batch_slave_1_get
 9235              		.syntax unified
 9236              		.thumb
 9237              		.thumb_func
 9239              	ism330dhcx_sh_batch_slave_1_get:
 9240              		@ args = 0, pretend = 0, frame = 8
 9241              		@ frame_needed = 0, uses_anonymous_args = 0
ARM GAS  C:\Temp\cclPUGyV.s 			page 155


 9242 0000 30B5     		push	{r4, r5, lr}
 9243 0002 83B0     		sub	sp, sp, #12
 9244 0004 0446     		mov	r4, r0
 9245 0006 0D46     		mov	r5, r1
 9246 0008 0121     		movs	r1, #1
 9247 000a FFF7FEFF 		bl	ism330dhcx_mem_bank_set
 9248 000e 08B1     		cbz	r0, .L1151
 9249              	.L1148:
 9250 0010 03B0     		add	sp, sp, #12
 9251              		@ sp needed
 9252 0012 30BD     		pop	{r4, r5, pc}
 9253              	.L1151:
 9254 0014 0123     		movs	r3, #1
 9255 0016 01AA     		add	r2, sp, #4
 9256 0018 1A21     		movs	r1, #26
 9257 001a 2046     		mov	r0, r4
 9258 001c FFF7FEFF 		bl	ism330dhcx_read_reg
 9259 0020 9DF80430 		ldrb	r3, [sp, #4]	@ zero_extendqisi2
 9260 0024 C3F3C003 		ubfx	r3, r3, #3, #1
 9261 0028 2B70     		strb	r3, [r5]
 9262 002a 0028     		cmp	r0, #0
 9263 002c F0D1     		bne	.L1148
 9264 002e 0021     		movs	r1, #0
 9265 0030 2046     		mov	r0, r4
 9266 0032 FFF7FEFF 		bl	ism330dhcx_mem_bank_set
 9267 0036 EBE7     		b	.L1148
 9269              		.section	.text.ism330dhcx_sh_batch_slave_2_set,"ax",%progbits
 9270              		.align	1
 9271              		.global	ism330dhcx_sh_batch_slave_2_set
 9272              		.syntax unified
 9273              		.thumb
 9274              		.thumb_func
 9276              	ism330dhcx_sh_batch_slave_2_set:
 9277              		@ args = 0, pretend = 0, frame = 8
 9278              		@ frame_needed = 0, uses_anonymous_args = 0
 9279 0000 30B5     		push	{r4, r5, lr}
 9280 0002 83B0     		sub	sp, sp, #12
 9281 0004 0446     		mov	r4, r0
 9282 0006 0D46     		mov	r5, r1
 9283 0008 0121     		movs	r1, #1
 9284 000a FFF7FEFF 		bl	ism330dhcx_mem_bank_set
 9285 000e 0346     		mov	r3, r0
 9286 0010 18B1     		cbz	r0, .L1156
 9287              	.L1153:
 9288 0012 CBB1     		cbz	r3, .L1157
 9289              	.L1152:
 9290 0014 1846     		mov	r0, r3
 9291 0016 03B0     		add	sp, sp, #12
 9292              		@ sp needed
 9293 0018 30BD     		pop	{r4, r5, pc}
 9294              	.L1156:
 9295 001a 0123     		movs	r3, #1
 9296 001c 01AA     		add	r2, sp, #4
 9297 001e 1D21     		movs	r1, #29
 9298 0020 2046     		mov	r0, r4
 9299 0022 FFF7FEFF 		bl	ism330dhcx_read_reg
 9300 0026 0346     		mov	r3, r0
ARM GAS  C:\Temp\cclPUGyV.s 			page 156


 9301 0028 0028     		cmp	r0, #0
 9302 002a F3D1     		bne	.L1152
 9303 002c 9DF80430 		ldrb	r3, [sp, #4]	@ zero_extendqisi2
 9304 0030 65F3C303 		bfi	r3, r5, #3, #1
 9305 0034 8DF80430 		strb	r3, [sp, #4]
 9306 0038 0123     		movs	r3, #1
 9307 003a 01AA     		add	r2, sp, #4
 9308 003c 1D21     		movs	r1, #29
 9309 003e 2046     		mov	r0, r4
 9310 0040 FFF7FEFF 		bl	ism330dhcx_write_reg
 9311 0044 0346     		mov	r3, r0
 9312 0046 E4E7     		b	.L1153
 9313              	.L1157:
 9314 0048 0021     		movs	r1, #0
 9315 004a 2046     		mov	r0, r4
 9316 004c FFF7FEFF 		bl	ism330dhcx_mem_bank_set
 9317 0050 0346     		mov	r3, r0
 9318 0052 DFE7     		b	.L1152
 9320              		.section	.text.ism330dhcx_sh_batch_slave_2_get,"ax",%progbits
 9321              		.align	1
 9322              		.global	ism330dhcx_sh_batch_slave_2_get
 9323              		.syntax unified
 9324              		.thumb
 9325              		.thumb_func
 9327              	ism330dhcx_sh_batch_slave_2_get:
 9328              		@ args = 0, pretend = 0, frame = 8
 9329              		@ frame_needed = 0, uses_anonymous_args = 0
 9330 0000 30B5     		push	{r4, r5, lr}
 9331 0002 83B0     		sub	sp, sp, #12
 9332 0004 0446     		mov	r4, r0
 9333 0006 0D46     		mov	r5, r1
 9334 0008 0121     		movs	r1, #1
 9335 000a FFF7FEFF 		bl	ism330dhcx_mem_bank_set
 9336 000e 08B1     		cbz	r0, .L1161
 9337              	.L1158:
 9338 0010 03B0     		add	sp, sp, #12
 9339              		@ sp needed
 9340 0012 30BD     		pop	{r4, r5, pc}
 9341              	.L1161:
 9342 0014 0123     		movs	r3, #1
 9343 0016 01AA     		add	r2, sp, #4
 9344 0018 1D21     		movs	r1, #29
 9345 001a 2046     		mov	r0, r4
 9346 001c FFF7FEFF 		bl	ism330dhcx_read_reg
 9347 0020 0028     		cmp	r0, #0
 9348 0022 F5D1     		bne	.L1158
 9349 0024 9DF80430 		ldrb	r3, [sp, #4]	@ zero_extendqisi2
 9350 0028 C3F3C003 		ubfx	r3, r3, #3, #1
 9351 002c 2B70     		strb	r3, [r5]
 9352 002e 0021     		movs	r1, #0
 9353 0030 2046     		mov	r0, r4
 9354 0032 FFF7FEFF 		bl	ism330dhcx_mem_bank_set
 9355 0036 EBE7     		b	.L1158
 9357              		.section	.text.ism330dhcx_sh_batch_slave_3_set,"ax",%progbits
 9358              		.align	1
 9359              		.global	ism330dhcx_sh_batch_slave_3_set
 9360              		.syntax unified
ARM GAS  C:\Temp\cclPUGyV.s 			page 157


 9361              		.thumb
 9362              		.thumb_func
 9364              	ism330dhcx_sh_batch_slave_3_set:
 9365              		@ args = 0, pretend = 0, frame = 8
 9366              		@ frame_needed = 0, uses_anonymous_args = 0
 9367 0000 30B5     		push	{r4, r5, lr}
 9368 0002 83B0     		sub	sp, sp, #12
 9369 0004 0446     		mov	r4, r0
 9370 0006 0D46     		mov	r5, r1
 9371 0008 0121     		movs	r1, #1
 9372 000a FFF7FEFF 		bl	ism330dhcx_mem_bank_set
 9373 000e 0346     		mov	r3, r0
 9374 0010 18B1     		cbz	r0, .L1166
 9375              	.L1163:
 9376 0012 CBB1     		cbz	r3, .L1167
 9377              	.L1162:
 9378 0014 1846     		mov	r0, r3
 9379 0016 03B0     		add	sp, sp, #12
 9380              		@ sp needed
 9381 0018 30BD     		pop	{r4, r5, pc}
 9382              	.L1166:
 9383 001a 0123     		movs	r3, #1
 9384 001c 01AA     		add	r2, sp, #4
 9385 001e 2021     		movs	r1, #32
 9386 0020 2046     		mov	r0, r4
 9387 0022 FFF7FEFF 		bl	ism330dhcx_read_reg
 9388 0026 0346     		mov	r3, r0
 9389 0028 0028     		cmp	r0, #0
 9390 002a F3D1     		bne	.L1162
 9391 002c 9DF80430 		ldrb	r3, [sp, #4]	@ zero_extendqisi2
 9392 0030 65F3C303 		bfi	r3, r5, #3, #1
 9393 0034 8DF80430 		strb	r3, [sp, #4]
 9394 0038 0123     		movs	r3, #1
 9395 003a 01AA     		add	r2, sp, #4
 9396 003c 2021     		movs	r1, #32
 9397 003e 2046     		mov	r0, r4
 9398 0040 FFF7FEFF 		bl	ism330dhcx_write_reg
 9399 0044 0346     		mov	r3, r0
 9400 0046 E4E7     		b	.L1163
 9401              	.L1167:
 9402 0048 0021     		movs	r1, #0
 9403 004a 2046     		mov	r0, r4
 9404 004c FFF7FEFF 		bl	ism330dhcx_mem_bank_set
 9405 0050 0346     		mov	r3, r0
 9406 0052 DFE7     		b	.L1162
 9408              		.section	.text.ism330dhcx_sh_batch_slave_3_get,"ax",%progbits
 9409              		.align	1
 9410              		.global	ism330dhcx_sh_batch_slave_3_get
 9411              		.syntax unified
 9412              		.thumb
 9413              		.thumb_func
 9415              	ism330dhcx_sh_batch_slave_3_get:
 9416              		@ args = 0, pretend = 0, frame = 8
 9417              		@ frame_needed = 0, uses_anonymous_args = 0
 9418 0000 30B5     		push	{r4, r5, lr}
 9419 0002 83B0     		sub	sp, sp, #12
 9420 0004 0446     		mov	r4, r0
ARM GAS  C:\Temp\cclPUGyV.s 			page 158


 9421 0006 0D46     		mov	r5, r1
 9422 0008 0121     		movs	r1, #1
 9423 000a FFF7FEFF 		bl	ism330dhcx_mem_bank_set
 9424 000e 08B1     		cbz	r0, .L1171
 9425              	.L1168:
 9426 0010 03B0     		add	sp, sp, #12
 9427              		@ sp needed
 9428 0012 30BD     		pop	{r4, r5, pc}
 9429              	.L1171:
 9430 0014 0123     		movs	r3, #1
 9431 0016 01AA     		add	r2, sp, #4
 9432 0018 2021     		movs	r1, #32
 9433 001a 2046     		mov	r0, r4
 9434 001c FFF7FEFF 		bl	ism330dhcx_read_reg
 9435 0020 9DF80430 		ldrb	r3, [sp, #4]	@ zero_extendqisi2
 9436 0024 C3F3C003 		ubfx	r3, r3, #3, #1
 9437 0028 2B70     		strb	r3, [r5]
 9438 002a 0028     		cmp	r0, #0
 9439 002c F0D1     		bne	.L1168
 9440 002e 0021     		movs	r1, #0
 9441 0030 2046     		mov	r0, r4
 9442 0032 FFF7FEFF 		bl	ism330dhcx_mem_bank_set
 9443 0036 EBE7     		b	.L1168
 9445              		.section	.text.ism330dhcx_den_mode_set,"ax",%progbits
 9446              		.align	1
 9447              		.global	ism330dhcx_den_mode_set
 9448              		.syntax unified
 9449              		.thumb
 9450              		.thumb_func
 9452              	ism330dhcx_den_mode_set:
 9453              		@ args = 0, pretend = 0, frame = 8
 9454              		@ frame_needed = 0, uses_anonymous_args = 0
 9455 0000 30B5     		push	{r4, r5, lr}
 9456 0002 83B0     		sub	sp, sp, #12
 9457 0004 0446     		mov	r4, r0
 9458 0006 0D46     		mov	r5, r1
 9459 0008 0123     		movs	r3, #1
 9460 000a 01AA     		add	r2, sp, #4
 9461 000c 1521     		movs	r1, #21
 9462 000e FFF7FEFF 		bl	ism330dhcx_read_reg
 9463 0012 08B1     		cbz	r0, .L1175
 9464              	.L1172:
 9465 0014 03B0     		add	sp, sp, #12
 9466              		@ sp needed
 9467 0016 30BD     		pop	{r4, r5, pc}
 9468              	.L1175:
 9469 0018 9DF80430 		ldrb	r3, [sp, #4]	@ zero_extendqisi2
 9470 001c 65F34713 		bfi	r3, r5, #5, #3
 9471 0020 8DF80430 		strb	r3, [sp, #4]
 9472 0024 0123     		movs	r3, #1
 9473 0026 01AA     		add	r2, sp, #4
 9474 0028 1521     		movs	r1, #21
 9475 002a 2046     		mov	r0, r4
 9476 002c FFF7FEFF 		bl	ism330dhcx_write_reg
 9477 0030 F0E7     		b	.L1172
 9479              		.section	.text.ism330dhcx_den_mode_get,"ax",%progbits
 9480              		.align	1
ARM GAS  C:\Temp\cclPUGyV.s 			page 159


 9481              		.global	ism330dhcx_den_mode_get
 9482              		.syntax unified
 9483              		.thumb
 9484              		.thumb_func
 9486              	ism330dhcx_den_mode_get:
 9487              		@ args = 0, pretend = 0, frame = 8
 9488              		@ frame_needed = 0, uses_anonymous_args = 0
 9489 0000 10B5     		push	{r4, lr}
 9490 0002 82B0     		sub	sp, sp, #8
 9491 0004 0C46     		mov	r4, r1
 9492 0006 0123     		movs	r3, #1
 9493 0008 01AA     		add	r2, sp, #4
 9494 000a 1521     		movs	r1, #21
 9495 000c FFF7FEFF 		bl	ism330dhcx_read_reg
 9496 0010 9DF80430 		ldrb	r3, [sp, #4]	@ zero_extendqisi2
 9497 0014 5B09     		lsrs	r3, r3, #5
 9498 0016 062B     		cmp	r3, #6
 9499 0018 15D8     		bhi	.L1177
 9500 001a DFE803F0 		tbb	[pc, r3]
 9501              	.L1179:
 9502 001e 04       		.byte	(.L1183-.L1179)/2
 9503 001f 14       		.byte	(.L1177-.L1179)/2
 9504 0020 0E       		.byte	(.L1182-.L1179)/2
 9505 0021 0B       		.byte	(.L1181-.L1179)/2
 9506 0022 11       		.byte	(.L1180-.L1179)/2
 9507 0023 14       		.byte	(.L1177-.L1179)/2
 9508 0024 08       		.byte	(.L1178-.L1179)/2
 9509 0025 00       		.p2align 1
 9510              	.L1183:
 9511 0026 0023     		movs	r3, #0
 9512 0028 2370     		strb	r3, [r4]
 9513              	.L1176:
 9514 002a 02B0     		add	sp, sp, #8
 9515              		@ sp needed
 9516 002c 10BD     		pop	{r4, pc}
 9517              	.L1178:
 9518 002e 0623     		movs	r3, #6
 9519 0030 2370     		strb	r3, [r4]
 9520 0032 FAE7     		b	.L1176
 9521              	.L1181:
 9522 0034 0323     		movs	r3, #3
 9523 0036 2370     		strb	r3, [r4]
 9524 0038 F7E7     		b	.L1176
 9525              	.L1182:
 9526 003a 0223     		movs	r3, #2
 9527 003c 2370     		strb	r3, [r4]
 9528 003e F4E7     		b	.L1176
 9529              	.L1180:
 9530 0040 0423     		movs	r3, #4
 9531 0042 2370     		strb	r3, [r4]
 9532 0044 F1E7     		b	.L1176
 9533              	.L1177:
 9534 0046 0023     		movs	r3, #0
 9535 0048 2370     		strb	r3, [r4]
 9536 004a EEE7     		b	.L1176
 9538              		.section	.text.ism330dhcx_den_polarity_set,"ax",%progbits
 9539              		.align	1
ARM GAS  C:\Temp\cclPUGyV.s 			page 160


 9540              		.global	ism330dhcx_den_polarity_set
 9541              		.syntax unified
 9542              		.thumb
 9543              		.thumb_func
 9545              	ism330dhcx_den_polarity_set:
 9546              		@ args = 0, pretend = 0, frame = 8
 9547              		@ frame_needed = 0, uses_anonymous_args = 0
 9548 0000 30B5     		push	{r4, r5, lr}
 9549 0002 83B0     		sub	sp, sp, #12
 9550 0004 0446     		mov	r4, r0
 9551 0006 0D46     		mov	r5, r1
 9552 0008 0123     		movs	r3, #1
 9553 000a 01AA     		add	r2, sp, #4
 9554 000c 1821     		movs	r1, #24
 9555 000e FFF7FEFF 		bl	ism330dhcx_read_reg
 9556 0012 08B1     		cbz	r0, .L1189
 9557              	.L1186:
 9558 0014 03B0     		add	sp, sp, #12
 9559              		@ sp needed
 9560 0016 30BD     		pop	{r4, r5, pc}
 9561              	.L1189:
 9562 0018 9DF80430 		ldrb	r3, [sp, #4]	@ zero_extendqisi2
 9563 001c 65F38203 		bfi	r3, r5, #2, #1
 9564 0020 8DF80430 		strb	r3, [sp, #4]
 9565 0024 0123     		movs	r3, #1
 9566 0026 01AA     		add	r2, sp, #4
 9567 0028 1821     		movs	r1, #24
 9568 002a 2046     		mov	r0, r4
 9569 002c FFF7FEFF 		bl	ism330dhcx_write_reg
 9570 0030 F0E7     		b	.L1186
 9572              		.section	.text.ism330dhcx_den_polarity_get,"ax",%progbits
 9573              		.align	1
 9574              		.global	ism330dhcx_den_polarity_get
 9575              		.syntax unified
 9576              		.thumb
 9577              		.thumb_func
 9579              	ism330dhcx_den_polarity_get:
 9580              		@ args = 0, pretend = 0, frame = 8
 9581              		@ frame_needed = 0, uses_anonymous_args = 0
 9582 0000 10B5     		push	{r4, lr}
 9583 0002 82B0     		sub	sp, sp, #8
 9584 0004 0C46     		mov	r4, r1
 9585 0006 0123     		movs	r3, #1
 9586 0008 01AA     		add	r2, sp, #4
 9587 000a 1821     		movs	r1, #24
 9588 000c FFF7FEFF 		bl	ism330dhcx_read_reg
 9589 0010 9DF80430 		ldrb	r3, [sp, #4]	@ zero_extendqisi2
 9590 0014 C3F38002 		ubfx	r2, r3, #2, #1
 9591 0018 13F0040F 		tst	r3, #4
 9592 001c 03D0     		beq	.L1191
 9593 001e 32B9     		cbnz	r2, .L1192
 9594 0020 0023     		movs	r3, #0
 9595 0022 2370     		strb	r3, [r4]
 9596 0024 01E0     		b	.L1190
 9597              	.L1191:
 9598 0026 0023     		movs	r3, #0
 9599 0028 2370     		strb	r3, [r4]
ARM GAS  C:\Temp\cclPUGyV.s 			page 161


 9600              	.L1190:
 9601 002a 02B0     		add	sp, sp, #8
 9602              		@ sp needed
 9603 002c 10BD     		pop	{r4, pc}
 9604              	.L1192:
 9605 002e 0123     		movs	r3, #1
 9606 0030 2370     		strb	r3, [r4]
 9607 0032 FAE7     		b	.L1190
 9609              		.section	.text.ism330dhcx_den_enable_set,"ax",%progbits
 9610              		.align	1
 9611              		.global	ism330dhcx_den_enable_set
 9612              		.syntax unified
 9613              		.thumb
 9614              		.thumb_func
 9616              	ism330dhcx_den_enable_set:
 9617              		@ args = 0, pretend = 0, frame = 8
 9618              		@ frame_needed = 0, uses_anonymous_args = 0
 9619 0000 30B5     		push	{r4, r5, lr}
 9620 0002 83B0     		sub	sp, sp, #12
 9621 0004 0446     		mov	r4, r0
 9622 0006 0D46     		mov	r5, r1
 9623 0008 0123     		movs	r3, #1
 9624 000a 01AA     		add	r2, sp, #4
 9625 000c 1821     		movs	r1, #24
 9626 000e FFF7FEFF 		bl	ism330dhcx_read_reg
 9627 0012 08B1     		cbz	r0, .L1200
 9628              	.L1197:
 9629 0014 03B0     		add	sp, sp, #12
 9630              		@ sp needed
 9631 0016 30BD     		pop	{r4, r5, pc}
 9632              	.L1200:
 9633 0018 9DF80430 		ldrb	r3, [sp, #4]	@ zero_extendqisi2
 9634 001c 65F3C403 		bfi	r3, r5, #3, #2
 9635 0020 8DF80430 		strb	r3, [sp, #4]
 9636 0024 0123     		movs	r3, #1
 9637 0026 01AA     		add	r2, sp, #4
 9638 0028 1821     		movs	r1, #24
 9639 002a 2046     		mov	r0, r4
 9640 002c FFF7FEFF 		bl	ism330dhcx_write_reg
 9641 0030 F0E7     		b	.L1197
 9643              		.section	.text.ism330dhcx_den_enable_get,"ax",%progbits
 9644              		.align	1
 9645              		.global	ism330dhcx_den_enable_get
 9646              		.syntax unified
 9647              		.thumb
 9648              		.thumb_func
 9650              	ism330dhcx_den_enable_get:
 9651              		@ args = 0, pretend = 0, frame = 8
 9652              		@ frame_needed = 0, uses_anonymous_args = 0
 9653 0000 10B5     		push	{r4, lr}
 9654 0002 82B0     		sub	sp, sp, #8
 9655 0004 0C46     		mov	r4, r1
 9656 0006 0123     		movs	r3, #1
 9657 0008 01AA     		add	r2, sp, #4
 9658 000a 1821     		movs	r1, #24
 9659 000c FFF7FEFF 		bl	ism330dhcx_read_reg
 9660 0010 9DF80430 		ldrb	r3, [sp, #4]	@ zero_extendqisi2
ARM GAS  C:\Temp\cclPUGyV.s 			page 162


 9661 0014 C3F3C103 		ubfx	r3, r3, #3, #2
 9662 0018 012B     		cmp	r3, #1
 9663 001a 08D0     		beq	.L1202
 9664 001c 022B     		cmp	r3, #2
 9665 001e 09D0     		beq	.L1203
 9666 0020 13B1     		cbz	r3, .L1207
 9667 0022 0023     		movs	r3, #0
 9668 0024 2370     		strb	r3, [r4]
 9669 0026 00E0     		b	.L1201
 9670              	.L1207:
 9671 0028 2370     		strb	r3, [r4]
 9672              	.L1201:
 9673 002a 02B0     		add	sp, sp, #8
 9674              		@ sp needed
 9675 002c 10BD     		pop	{r4, pc}
 9676              	.L1202:
 9677 002e 0123     		movs	r3, #1
 9678 0030 2370     		strb	r3, [r4]
 9679 0032 FAE7     		b	.L1201
 9680              	.L1203:
 9681 0034 0223     		movs	r3, #2
 9682 0036 2370     		strb	r3, [r4]
 9683 0038 F7E7     		b	.L1201
 9685              		.section	.text.ism330dhcx_den_mark_axis_x_set,"ax",%progbits
 9686              		.align	1
 9687              		.global	ism330dhcx_den_mark_axis_x_set
 9688              		.syntax unified
 9689              		.thumb
 9690              		.thumb_func
 9692              	ism330dhcx_den_mark_axis_x_set:
 9693              		@ args = 0, pretend = 0, frame = 8
 9694              		@ frame_needed = 0, uses_anonymous_args = 0
 9695 0000 30B5     		push	{r4, r5, lr}
 9696 0002 83B0     		sub	sp, sp, #12
 9697 0004 0446     		mov	r4, r0
 9698 0006 0D46     		mov	r5, r1
 9699 0008 0123     		movs	r3, #1
 9700 000a 01AA     		add	r2, sp, #4
 9701 000c 1821     		movs	r1, #24
 9702 000e FFF7FEFF 		bl	ism330dhcx_read_reg
 9703 0012 08B1     		cbz	r0, .L1211
 9704              	.L1208:
 9705 0014 03B0     		add	sp, sp, #12
 9706              		@ sp needed
 9707 0016 30BD     		pop	{r4, r5, pc}
 9708              	.L1211:
 9709 0018 9DF80430 		ldrb	r3, [sp, #4]	@ zero_extendqisi2
 9710 001c 65F34513 		bfi	r3, r5, #5, #1
 9711 0020 8DF80430 		strb	r3, [sp, #4]
 9712 0024 0123     		movs	r3, #1
 9713 0026 01AA     		add	r2, sp, #4
 9714 0028 1821     		movs	r1, #24
 9715 002a 2046     		mov	r0, r4
 9716 002c FFF7FEFF 		bl	ism330dhcx_write_reg
 9717 0030 F0E7     		b	.L1208
 9719              		.section	.text.ism330dhcx_den_mark_axis_x_get,"ax",%progbits
 9720              		.align	1
ARM GAS  C:\Temp\cclPUGyV.s 			page 163


 9721              		.global	ism330dhcx_den_mark_axis_x_get
 9722              		.syntax unified
 9723              		.thumb
 9724              		.thumb_func
 9726              	ism330dhcx_den_mark_axis_x_get:
 9727              		@ args = 0, pretend = 0, frame = 8
 9728              		@ frame_needed = 0, uses_anonymous_args = 0
 9729 0000 10B5     		push	{r4, lr}
 9730 0002 82B0     		sub	sp, sp, #8
 9731 0004 0C46     		mov	r4, r1
 9732 0006 0123     		movs	r3, #1
 9733 0008 01AA     		add	r2, sp, #4
 9734 000a 1821     		movs	r1, #24
 9735 000c FFF7FEFF 		bl	ism330dhcx_read_reg
 9736 0010 9DF80430 		ldrb	r3, [sp, #4]	@ zero_extendqisi2
 9737 0014 C3F34013 		ubfx	r3, r3, #5, #1
 9738 0018 2370     		strb	r3, [r4]
 9739 001a 02B0     		add	sp, sp, #8
 9740              		@ sp needed
 9741 001c 10BD     		pop	{r4, pc}
 9743              		.section	.text.ism330dhcx_den_mark_axis_y_set,"ax",%progbits
 9744              		.align	1
 9745              		.global	ism330dhcx_den_mark_axis_y_set
 9746              		.syntax unified
 9747              		.thumb
 9748              		.thumb_func
 9750              	ism330dhcx_den_mark_axis_y_set:
 9751              		@ args = 0, pretend = 0, frame = 8
 9752              		@ frame_needed = 0, uses_anonymous_args = 0
 9753 0000 30B5     		push	{r4, r5, lr}
 9754 0002 83B0     		sub	sp, sp, #12
 9755 0004 0446     		mov	r4, r0
 9756 0006 0D46     		mov	r5, r1
 9757 0008 0123     		movs	r3, #1
 9758 000a 01AA     		add	r2, sp, #4
 9759 000c 1821     		movs	r1, #24
 9760 000e FFF7FEFF 		bl	ism330dhcx_read_reg
 9761 0012 08B1     		cbz	r0, .L1217
 9762              	.L1214:
 9763 0014 03B0     		add	sp, sp, #12
 9764              		@ sp needed
 9765 0016 30BD     		pop	{r4, r5, pc}
 9766              	.L1217:
 9767 0018 9DF80430 		ldrb	r3, [sp, #4]	@ zero_extendqisi2
 9768 001c 65F38613 		bfi	r3, r5, #6, #1
 9769 0020 8DF80430 		strb	r3, [sp, #4]
 9770 0024 0123     		movs	r3, #1
 9771 0026 01AA     		add	r2, sp, #4
 9772 0028 1821     		movs	r1, #24
 9773 002a 2046     		mov	r0, r4
 9774 002c FFF7FEFF 		bl	ism330dhcx_write_reg
 9775 0030 F0E7     		b	.L1214
 9777              		.section	.text.ism330dhcx_den_mark_axis_y_get,"ax",%progbits
 9778              		.align	1
 9779              		.global	ism330dhcx_den_mark_axis_y_get
 9780              		.syntax unified
 9781              		.thumb
ARM GAS  C:\Temp\cclPUGyV.s 			page 164


 9782              		.thumb_func
 9784              	ism330dhcx_den_mark_axis_y_get:
 9785              		@ args = 0, pretend = 0, frame = 8
 9786              		@ frame_needed = 0, uses_anonymous_args = 0
 9787 0000 10B5     		push	{r4, lr}
 9788 0002 82B0     		sub	sp, sp, #8
 9789 0004 0C46     		mov	r4, r1
 9790 0006 0123     		movs	r3, #1
 9791 0008 01AA     		add	r2, sp, #4
 9792 000a 1821     		movs	r1, #24
 9793 000c FFF7FEFF 		bl	ism330dhcx_read_reg
 9794 0010 9DF80430 		ldrb	r3, [sp, #4]	@ zero_extendqisi2
 9795 0014 C3F38013 		ubfx	r3, r3, #6, #1
 9796 0018 2370     		strb	r3, [r4]
 9797 001a 02B0     		add	sp, sp, #8
 9798              		@ sp needed
 9799 001c 10BD     		pop	{r4, pc}
 9801              		.section	.text.ism330dhcx_den_mark_axis_z_set,"ax",%progbits
 9802              		.align	1
 9803              		.global	ism330dhcx_den_mark_axis_z_set
 9804              		.syntax unified
 9805              		.thumb
 9806              		.thumb_func
 9808              	ism330dhcx_den_mark_axis_z_set:
 9809              		@ args = 0, pretend = 0, frame = 8
 9810              		@ frame_needed = 0, uses_anonymous_args = 0
 9811 0000 30B5     		push	{r4, r5, lr}
 9812 0002 83B0     		sub	sp, sp, #12
 9813 0004 0446     		mov	r4, r0
 9814 0006 0D46     		mov	r5, r1
 9815 0008 0123     		movs	r3, #1
 9816 000a 01AA     		add	r2, sp, #4
 9817 000c 1821     		movs	r1, #24
 9818 000e FFF7FEFF 		bl	ism330dhcx_read_reg
 9819 0012 08B1     		cbz	r0, .L1223
 9820              	.L1220:
 9821 0014 03B0     		add	sp, sp, #12
 9822              		@ sp needed
 9823 0016 30BD     		pop	{r4, r5, pc}
 9824              	.L1223:
 9825 0018 9DF80430 		ldrb	r3, [sp, #4]	@ zero_extendqisi2
 9826 001c 65F3C713 		bfi	r3, r5, #7, #1
 9827 0020 8DF80430 		strb	r3, [sp, #4]
 9828 0024 0123     		movs	r3, #1
 9829 0026 01AA     		add	r2, sp, #4
 9830 0028 1821     		movs	r1, #24
 9831 002a 2046     		mov	r0, r4
 9832 002c FFF7FEFF 		bl	ism330dhcx_write_reg
 9833 0030 F0E7     		b	.L1220
 9835              		.section	.text.ism330dhcx_den_mark_axis_z_get,"ax",%progbits
 9836              		.align	1
 9837              		.global	ism330dhcx_den_mark_axis_z_get
 9838              		.syntax unified
 9839              		.thumb
 9840              		.thumb_func
 9842              	ism330dhcx_den_mark_axis_z_get:
 9843              		@ args = 0, pretend = 0, frame = 8
ARM GAS  C:\Temp\cclPUGyV.s 			page 165


 9844              		@ frame_needed = 0, uses_anonymous_args = 0
 9845 0000 10B5     		push	{r4, lr}
 9846 0002 82B0     		sub	sp, sp, #8
 9847 0004 0C46     		mov	r4, r1
 9848 0006 0123     		movs	r3, #1
 9849 0008 01AA     		add	r2, sp, #4
 9850 000a 1821     		movs	r1, #24
 9851 000c FFF7FEFF 		bl	ism330dhcx_read_reg
 9852 0010 9DF80430 		ldrb	r3, [sp, #4]	@ zero_extendqisi2
 9853 0014 C3F3C013 		ubfx	r3, r3, #7, #1
 9854 0018 2370     		strb	r3, [r4]
 9855 001a 02B0     		add	sp, sp, #8
 9856              		@ sp needed
 9857 001c 10BD     		pop	{r4, pc}
 9859              		.section	.text.ism330dhcx_pedo_sens_set,"ax",%progbits
 9860              		.align	1
 9861              		.global	ism330dhcx_pedo_sens_set
 9862              		.syntax unified
 9863              		.thumb
 9864              		.thumb_func
 9866              	ism330dhcx_pedo_sens_set:
 9867              		@ args = 0, pretend = 0, frame = 8
 9868              		@ frame_needed = 0, uses_anonymous_args = 0
 9869 0000 30B5     		push	{r4, r5, lr}
 9870 0002 83B0     		sub	sp, sp, #12
 9871 0004 0446     		mov	r4, r0
 9872 0006 0D46     		mov	r5, r1
 9873 0008 0221     		movs	r1, #2
 9874 000a FFF7FEFF 		bl	ism330dhcx_mem_bank_set
 9875 000e 0346     		mov	r3, r0
 9876 0010 18B1     		cbz	r0, .L1230
 9877              	.L1227:
 9878 0012 CBB1     		cbz	r3, .L1231
 9879              	.L1226:
 9880 0014 1846     		mov	r0, r3
 9881 0016 03B0     		add	sp, sp, #12
 9882              		@ sp needed
 9883 0018 30BD     		pop	{r4, r5, pc}
 9884              	.L1230:
 9885 001a 0123     		movs	r3, #1
 9886 001c 01AA     		add	r2, sp, #4
 9887 001e 0421     		movs	r1, #4
 9888 0020 2046     		mov	r0, r4
 9889 0022 FFF7FEFF 		bl	ism330dhcx_read_reg
 9890 0026 0346     		mov	r3, r0
 9891 0028 0028     		cmp	r0, #0
 9892 002a F3D1     		bne	.L1226
 9893 002c 9DF80430 		ldrb	r3, [sp, #4]	@ zero_extendqisi2
 9894 0030 65F3C303 		bfi	r3, r5, #3, #1
 9895 0034 8DF80430 		strb	r3, [sp, #4]
 9896 0038 0123     		movs	r3, #1
 9897 003a 01AA     		add	r2, sp, #4
 9898 003c 0421     		movs	r1, #4
 9899 003e 2046     		mov	r0, r4
 9900 0040 FFF7FEFF 		bl	ism330dhcx_write_reg
 9901 0044 0346     		mov	r3, r0
 9902 0046 E4E7     		b	.L1227
ARM GAS  C:\Temp\cclPUGyV.s 			page 166


 9903              	.L1231:
 9904 0048 0021     		movs	r1, #0
 9905 004a 2046     		mov	r0, r4
 9906 004c FFF7FEFF 		bl	ism330dhcx_mem_bank_set
 9907 0050 0346     		mov	r3, r0
 9908 0052 DFE7     		b	.L1226
 9910              		.section	.text.ism330dhcx_pedo_sens_get,"ax",%progbits
 9911              		.align	1
 9912              		.global	ism330dhcx_pedo_sens_get
 9913              		.syntax unified
 9914              		.thumb
 9915              		.thumb_func
 9917              	ism330dhcx_pedo_sens_get:
 9918              		@ args = 0, pretend = 0, frame = 8
 9919              		@ frame_needed = 0, uses_anonymous_args = 0
 9920 0000 30B5     		push	{r4, r5, lr}
 9921 0002 83B0     		sub	sp, sp, #12
 9922 0004 0446     		mov	r4, r0
 9923 0006 0D46     		mov	r5, r1
 9924 0008 0221     		movs	r1, #2
 9925 000a FFF7FEFF 		bl	ism330dhcx_mem_bank_set
 9926 000e 08B1     		cbz	r0, .L1235
 9927              	.L1232:
 9928 0010 03B0     		add	sp, sp, #12
 9929              		@ sp needed
 9930 0012 30BD     		pop	{r4, r5, pc}
 9931              	.L1235:
 9932 0014 0123     		movs	r3, #1
 9933 0016 01AA     		add	r2, sp, #4
 9934 0018 0421     		movs	r1, #4
 9935 001a 2046     		mov	r0, r4
 9936 001c FFF7FEFF 		bl	ism330dhcx_read_reg
 9937 0020 9DF80430 		ldrb	r3, [sp, #4]	@ zero_extendqisi2
 9938 0024 C3F3C003 		ubfx	r3, r3, #3, #1
 9939 0028 2B70     		strb	r3, [r5]
 9940 002a 0028     		cmp	r0, #0
 9941 002c F0D1     		bne	.L1232
 9942 002e 0021     		movs	r1, #0
 9943 0030 2046     		mov	r0, r4
 9944 0032 FFF7FEFF 		bl	ism330dhcx_mem_bank_set
 9945 0036 EBE7     		b	.L1232
 9947              		.section	.text.ism330dhcx_pedo_step_detect_get,"ax",%progbits
 9948              		.align	1
 9949              		.global	ism330dhcx_pedo_step_detect_get
 9950              		.syntax unified
 9951              		.thumb
 9952              		.thumb_func
 9954              	ism330dhcx_pedo_step_detect_get:
 9955              		@ args = 0, pretend = 0, frame = 8
 9956              		@ frame_needed = 0, uses_anonymous_args = 0
 9957 0000 30B5     		push	{r4, r5, lr}
 9958 0002 83B0     		sub	sp, sp, #12
 9959 0004 0446     		mov	r4, r0
 9960 0006 0D46     		mov	r5, r1
 9961 0008 0221     		movs	r1, #2
 9962 000a FFF7FEFF 		bl	ism330dhcx_mem_bank_set
 9963 000e 08B1     		cbz	r0, .L1239
ARM GAS  C:\Temp\cclPUGyV.s 			page 167


 9964              	.L1236:
 9965 0010 03B0     		add	sp, sp, #12
 9966              		@ sp needed
 9967 0012 30BD     		pop	{r4, r5, pc}
 9968              	.L1239:
 9969 0014 0123     		movs	r3, #1
 9970 0016 01AA     		add	r2, sp, #4
 9971 0018 1221     		movs	r1, #18
 9972 001a 2046     		mov	r0, r4
 9973 001c FFF7FEFF 		bl	ism330dhcx_read_reg
 9974 0020 9DF80430 		ldrb	r3, [sp, #4]	@ zero_extendqisi2
 9975 0024 C3F3C003 		ubfx	r3, r3, #3, #1
 9976 0028 2B70     		strb	r3, [r5]
 9977 002a 0028     		cmp	r0, #0
 9978 002c F0D1     		bne	.L1236
 9979 002e 0021     		movs	r1, #0
 9980 0030 2046     		mov	r0, r4
 9981 0032 FFF7FEFF 		bl	ism330dhcx_mem_bank_set
 9982 0036 EBE7     		b	.L1236
 9984              		.section	.text.ism330dhcx_pedo_debounce_steps_set,"ax",%progbits
 9985              		.align	1
 9986              		.global	ism330dhcx_pedo_debounce_steps_set
 9987              		.syntax unified
 9988              		.thumb
 9989              		.thumb_func
 9991              	ism330dhcx_pedo_debounce_steps_set:
 9992              		@ args = 0, pretend = 0, frame = 0
 9993              		@ frame_needed = 0, uses_anonymous_args = 0
 9994 0000 08B5     		push	{r3, lr}
 9995 0002 0A46     		mov	r2, r1
 9996 0004 4FF4C271 		mov	r1, #388
 9997 0008 FFF7FEFF 		bl	ism330dhcx_ln_pg_write_byte
 9998 000c 08BD     		pop	{r3, pc}
 10000              		.section	.text.ism330dhcx_pedo_debounce_steps_get,"ax",%progbits
 10001              		.align	1
 10002              		.global	ism330dhcx_pedo_debounce_steps_get
 10003              		.syntax unified
 10004              		.thumb
 10005              		.thumb_func
 10007              	ism330dhcx_pedo_debounce_steps_get:
 10008              		@ args = 0, pretend = 0, frame = 0
 10009              		@ frame_needed = 0, uses_anonymous_args = 0
 10010 0000 08B5     		push	{r3, lr}
 10011 0002 0A46     		mov	r2, r1
 10012 0004 4FF4C271 		mov	r1, #388
 10013 0008 FFF7FEFF 		bl	ism330dhcx_ln_pg_read_byte
 10014 000c 08BD     		pop	{r3, pc}
 10016              		.section	.text.ism330dhcx_pedo_steps_period_set,"ax",%progbits
 10017              		.align	1
 10018              		.global	ism330dhcx_pedo_steps_period_set
 10019              		.syntax unified
 10020              		.thumb
 10021              		.thumb_func
 10023              	ism330dhcx_pedo_steps_period_set:
 10024              		@ args = 0, pretend = 0, frame = 8
 10025              		@ frame_needed = 0, uses_anonymous_args = 0
 10026 0000 10B5     		push	{r4, lr}
ARM GAS  C:\Temp\cclPUGyV.s 			page 168


 10027 0002 82B0     		sub	sp, sp, #8
 10028 0004 0446     		mov	r4, r0
 10029 0006 0B0A     		lsrs	r3, r1, #8
 10030 0008 8DF80530 		strb	r3, [sp, #5]
 10031 000c 8DF80410 		strb	r1, [sp, #4]
 10032 0010 01AA     		add	r2, sp, #4
 10033 0012 4FF4E871 		mov	r1, #464
 10034 0016 FFF7FEFF 		bl	ism330dhcx_ln_pg_write_byte
 10035 001a 08B1     		cbz	r0, .L1247
 10036              	.L1244:
 10037 001c 02B0     		add	sp, sp, #8
 10038              		@ sp needed
 10039 001e 10BD     		pop	{r4, pc}
 10040              	.L1247:
 10041 0020 0DF10502 		add	r2, sp, #5
 10042 0024 40F2D111 		movw	r1, #465
 10043 0028 2046     		mov	r0, r4
 10044 002a FFF7FEFF 		bl	ism330dhcx_ln_pg_write_byte
 10045 002e F5E7     		b	.L1244
 10047              		.section	.text.ism330dhcx_pedo_steps_period_get,"ax",%progbits
 10048              		.align	1
 10049              		.global	ism330dhcx_pedo_steps_period_get
 10050              		.syntax unified
 10051              		.thumb
 10052              		.thumb_func
 10054              	ism330dhcx_pedo_steps_period_get:
 10055              		@ args = 0, pretend = 0, frame = 8
 10056              		@ frame_needed = 0, uses_anonymous_args = 0
 10057 0000 30B5     		push	{r4, r5, lr}
 10058 0002 83B0     		sub	sp, sp, #12
 10059 0004 0546     		mov	r5, r0
 10060 0006 0C46     		mov	r4, r1
 10061 0008 01AA     		add	r2, sp, #4
 10062 000a 4FF4E871 		mov	r1, #464
 10063 000e FFF7FEFF 		bl	ism330dhcx_ln_pg_read_byte
 10064 0012 08B1     		cbz	r0, .L1251
 10065              	.L1248:
 10066 0014 03B0     		add	sp, sp, #12
 10067              		@ sp needed
 10068 0016 30BD     		pop	{r4, r5, pc}
 10069              	.L1251:
 10070 0018 0DF10502 		add	r2, sp, #5
 10071 001c 40F2D111 		movw	r1, #465
 10072 0020 2846     		mov	r0, r5
 10073 0022 FFF7FEFF 		bl	ism330dhcx_ln_pg_read_byte
 10074 0026 9DF80520 		ldrb	r2, [sp, #5]	@ zero_extendqisi2
 10075 002a 2280     		strh	r2, [r4]	@ movhi
 10076 002c 9DF80430 		ldrb	r3, [sp, #4]	@ zero_extendqisi2
 10077 0030 03EB0223 		add	r3, r3, r2, lsl #8
 10078 0034 2380     		strh	r3, [r4]	@ movhi
 10079 0036 EDE7     		b	.L1248
 10081              		.section	.text.ism330dhcx_pedo_int_mode_set,"ax",%progbits
 10082              		.align	1
 10083              		.global	ism330dhcx_pedo_int_mode_set
 10084              		.syntax unified
 10085              		.thumb
 10086              		.thumb_func
ARM GAS  C:\Temp\cclPUGyV.s 			page 169


 10088              	ism330dhcx_pedo_int_mode_set:
 10089              		@ args = 0, pretend = 0, frame = 8
 10090              		@ frame_needed = 0, uses_anonymous_args = 0
 10091 0000 30B5     		push	{r4, r5, lr}
 10092 0002 83B0     		sub	sp, sp, #12
 10093 0004 0446     		mov	r4, r0
 10094 0006 0D46     		mov	r5, r1
 10095 0008 01AA     		add	r2, sp, #4
 10096 000a 40F28311 		movw	r1, #387
 10097 000e FFF7FEFF 		bl	ism330dhcx_ln_pg_read_byte
 10098 0012 08B1     		cbz	r0, .L1255
 10099              	.L1252:
 10100 0014 03B0     		add	sp, sp, #12
 10101              		@ sp needed
 10102 0016 30BD     		pop	{r4, r5, pc}
 10103              	.L1255:
 10104 0018 9DF80430 		ldrb	r3, [sp, #4]	@ zero_extendqisi2
 10105 001c 65F3C303 		bfi	r3, r5, #3, #1
 10106 0020 8DF80430 		strb	r3, [sp, #4]
 10107 0024 01AA     		add	r2, sp, #4
 10108 0026 40F28311 		movw	r1, #387
 10109 002a 2046     		mov	r0, r4
 10110 002c FFF7FEFF 		bl	ism330dhcx_ln_pg_write_byte
 10111 0030 F0E7     		b	.L1252
 10113              		.section	.text.ism330dhcx_pedo_int_mode_get,"ax",%progbits
 10114              		.align	1
 10115              		.global	ism330dhcx_pedo_int_mode_get
 10116              		.syntax unified
 10117              		.thumb
 10118              		.thumb_func
 10120              	ism330dhcx_pedo_int_mode_get:
 10121              		@ args = 0, pretend = 0, frame = 8
 10122              		@ frame_needed = 0, uses_anonymous_args = 0
 10123 0000 10B5     		push	{r4, lr}
 10124 0002 82B0     		sub	sp, sp, #8
 10125 0004 0C46     		mov	r4, r1
 10126 0006 01AA     		add	r2, sp, #4
 10127 0008 40F28311 		movw	r1, #387
 10128 000c FFF7FEFF 		bl	ism330dhcx_ln_pg_read_byte
 10129 0010 9DF80430 		ldrb	r3, [sp, #4]	@ zero_extendqisi2
 10130 0014 C3F3C002 		ubfx	r2, r3, #3, #1
 10131 0018 13F0080F 		tst	r3, #8
 10132 001c 03D0     		beq	.L1257
 10133 001e 32B9     		cbnz	r2, .L1258
 10134 0020 0023     		movs	r3, #0
 10135 0022 2370     		strb	r3, [r4]
 10136 0024 01E0     		b	.L1256
 10137              	.L1257:
 10138 0026 0023     		movs	r3, #0
 10139 0028 2370     		strb	r3, [r4]
 10140              	.L1256:
 10141 002a 02B0     		add	sp, sp, #8
 10142              		@ sp needed
 10143 002c 10BD     		pop	{r4, pc}
 10144              	.L1258:
 10145 002e 0123     		movs	r3, #1
 10146 0030 2370     		strb	r3, [r4]
ARM GAS  C:\Temp\cclPUGyV.s 			page 170


 10147 0032 FAE7     		b	.L1256
 10149              		.section	.text.ism330dhcx_motion_sens_set,"ax",%progbits
 10150              		.align	1
 10151              		.global	ism330dhcx_motion_sens_set
 10152              		.syntax unified
 10153              		.thumb
 10154              		.thumb_func
 10156              	ism330dhcx_motion_sens_set:
 10157              		@ args = 0, pretend = 0, frame = 8
 10158              		@ frame_needed = 0, uses_anonymous_args = 0
 10159 0000 30B5     		push	{r4, r5, lr}
 10160 0002 83B0     		sub	sp, sp, #12
 10161 0004 0446     		mov	r4, r0
 10162 0006 0D46     		mov	r5, r1
 10163 0008 0221     		movs	r1, #2
 10164 000a FFF7FEFF 		bl	ism330dhcx_mem_bank_set
 10165 000e 0346     		mov	r3, r0
 10166 0010 18B1     		cbz	r0, .L1267
 10167              	.L1264:
 10168 0012 CBB1     		cbz	r3, .L1268
 10169              	.L1263:
 10170 0014 1846     		mov	r0, r3
 10171 0016 03B0     		add	sp, sp, #12
 10172              		@ sp needed
 10173 0018 30BD     		pop	{r4, r5, pc}
 10174              	.L1267:
 10175 001a 0123     		movs	r3, #1
 10176 001c 01AA     		add	r2, sp, #4
 10177 001e 0421     		movs	r1, #4
 10178 0020 2046     		mov	r0, r4
 10179 0022 FFF7FEFF 		bl	ism330dhcx_read_reg
 10180 0026 0346     		mov	r3, r0
 10181 0028 0028     		cmp	r0, #0
 10182 002a F3D1     		bne	.L1263
 10183 002c 9DF80430 		ldrb	r3, [sp, #4]	@ zero_extendqisi2
 10184 0030 65F34513 		bfi	r3, r5, #5, #1
 10185 0034 8DF80430 		strb	r3, [sp, #4]
 10186 0038 0123     		movs	r3, #1
 10187 003a 01AA     		add	r2, sp, #4
 10188 003c 0421     		movs	r1, #4
 10189 003e 2046     		mov	r0, r4
 10190 0040 FFF7FEFF 		bl	ism330dhcx_write_reg
 10191 0044 0346     		mov	r3, r0
 10192 0046 E4E7     		b	.L1264
 10193              	.L1268:
 10194 0048 0021     		movs	r1, #0
 10195 004a 2046     		mov	r0, r4
 10196 004c FFF7FEFF 		bl	ism330dhcx_mem_bank_set
 10197 0050 0346     		mov	r3, r0
 10198 0052 DFE7     		b	.L1263
 10200              		.section	.text.ism330dhcx_motion_sens_get,"ax",%progbits
 10201              		.align	1
 10202              		.global	ism330dhcx_motion_sens_get
 10203              		.syntax unified
 10204              		.thumb
 10205              		.thumb_func
 10207              	ism330dhcx_motion_sens_get:
ARM GAS  C:\Temp\cclPUGyV.s 			page 171


 10208              		@ args = 0, pretend = 0, frame = 8
 10209              		@ frame_needed = 0, uses_anonymous_args = 0
 10210 0000 30B5     		push	{r4, r5, lr}
 10211 0002 83B0     		sub	sp, sp, #12
 10212 0004 0446     		mov	r4, r0
 10213 0006 0D46     		mov	r5, r1
 10214 0008 0221     		movs	r1, #2
 10215 000a FFF7FEFF 		bl	ism330dhcx_mem_bank_set
 10216 000e 08B1     		cbz	r0, .L1272
 10217              	.L1269:
 10218 0010 03B0     		add	sp, sp, #12
 10219              		@ sp needed
 10220 0012 30BD     		pop	{r4, r5, pc}
 10221              	.L1272:
 10222 0014 0123     		movs	r3, #1
 10223 0016 01AA     		add	r2, sp, #4
 10224 0018 0421     		movs	r1, #4
 10225 001a 2046     		mov	r0, r4
 10226 001c FFF7FEFF 		bl	ism330dhcx_read_reg
 10227 0020 0028     		cmp	r0, #0
 10228 0022 F5D1     		bne	.L1269
 10229 0024 9DF80430 		ldrb	r3, [sp, #4]	@ zero_extendqisi2
 10230 0028 C3F34013 		ubfx	r3, r3, #5, #1
 10231 002c 2B70     		strb	r3, [r5]
 10232 002e 0021     		movs	r1, #0
 10233 0030 2046     		mov	r0, r4
 10234 0032 FFF7FEFF 		bl	ism330dhcx_mem_bank_set
 10235 0036 EBE7     		b	.L1269
 10237              		.section	.text.ism330dhcx_motion_flag_data_ready_get,"ax",%progbits
 10238              		.align	1
 10239              		.global	ism330dhcx_motion_flag_data_ready_get
 10240              		.syntax unified
 10241              		.thumb
 10242              		.thumb_func
 10244              	ism330dhcx_motion_flag_data_ready_get:
 10245              		@ args = 0, pretend = 0, frame = 8
 10246              		@ frame_needed = 0, uses_anonymous_args = 0
 10247 0000 30B5     		push	{r4, r5, lr}
 10248 0002 83B0     		sub	sp, sp, #12
 10249 0004 0446     		mov	r4, r0
 10250 0006 0D46     		mov	r5, r1
 10251 0008 0221     		movs	r1, #2
 10252 000a FFF7FEFF 		bl	ism330dhcx_mem_bank_set
 10253 000e 08B1     		cbz	r0, .L1276
 10254              	.L1273:
 10255 0010 03B0     		add	sp, sp, #12
 10256              		@ sp needed
 10257 0012 30BD     		pop	{r4, r5, pc}
 10258              	.L1276:
 10259 0014 0123     		movs	r3, #1
 10260 0016 01AA     		add	r2, sp, #4
 10261 0018 1221     		movs	r1, #18
 10262 001a 2046     		mov	r0, r4
 10263 001c FFF7FEFF 		bl	ism330dhcx_read_reg
 10264 0020 0028     		cmp	r0, #0
 10265 0022 F5D1     		bne	.L1273
 10266 0024 9DF80430 		ldrb	r3, [sp, #4]	@ zero_extendqisi2
ARM GAS  C:\Temp\cclPUGyV.s 			page 172


 10267 0028 C3F34013 		ubfx	r3, r3, #5, #1
 10268 002c 2B70     		strb	r3, [r5]
 10269 002e 0021     		movs	r1, #0
 10270 0030 2046     		mov	r0, r4
 10271 0032 FFF7FEFF 		bl	ism330dhcx_mem_bank_set
 10272 0036 EBE7     		b	.L1273
 10274              		.section	.text.ism330dhcx_tilt_sens_set,"ax",%progbits
 10275              		.align	1
 10276              		.global	ism330dhcx_tilt_sens_set
 10277              		.syntax unified
 10278              		.thumb
 10279              		.thumb_func
 10281              	ism330dhcx_tilt_sens_set:
 10282              		@ args = 0, pretend = 0, frame = 8
 10283              		@ frame_needed = 0, uses_anonymous_args = 0
 10284 0000 30B5     		push	{r4, r5, lr}
 10285 0002 83B0     		sub	sp, sp, #12
 10286 0004 0446     		mov	r4, r0
 10287 0006 0D46     		mov	r5, r1
 10288 0008 0221     		movs	r1, #2
 10289 000a FFF7FEFF 		bl	ism330dhcx_mem_bank_set
 10290 000e 0346     		mov	r3, r0
 10291 0010 18B1     		cbz	r0, .L1281
 10292              	.L1278:
 10293 0012 CBB1     		cbz	r3, .L1282
 10294              	.L1277:
 10295 0014 1846     		mov	r0, r3
 10296 0016 03B0     		add	sp, sp, #12
 10297              		@ sp needed
 10298 0018 30BD     		pop	{r4, r5, pc}
 10299              	.L1281:
 10300 001a 0123     		movs	r3, #1
 10301 001c 01AA     		add	r2, sp, #4
 10302 001e 0421     		movs	r1, #4
 10303 0020 2046     		mov	r0, r4
 10304 0022 FFF7FEFF 		bl	ism330dhcx_read_reg
 10305 0026 0346     		mov	r3, r0
 10306 0028 0028     		cmp	r0, #0
 10307 002a F3D1     		bne	.L1277
 10308 002c 9DF80430 		ldrb	r3, [sp, #4]	@ zero_extendqisi2
 10309 0030 65F30413 		bfi	r3, r5, #4, #1
 10310 0034 8DF80430 		strb	r3, [sp, #4]
 10311 0038 0123     		movs	r3, #1
 10312 003a 01AA     		add	r2, sp, #4
 10313 003c 0421     		movs	r1, #4
 10314 003e 2046     		mov	r0, r4
 10315 0040 FFF7FEFF 		bl	ism330dhcx_write_reg
 10316 0044 0346     		mov	r3, r0
 10317 0046 E4E7     		b	.L1278
 10318              	.L1282:
 10319 0048 0021     		movs	r1, #0
 10320 004a 2046     		mov	r0, r4
 10321 004c FFF7FEFF 		bl	ism330dhcx_mem_bank_set
 10322 0050 0346     		mov	r3, r0
 10323 0052 DFE7     		b	.L1277
 10325              		.section	.text.ism330dhcx_tilt_sens_get,"ax",%progbits
 10326              		.align	1
ARM GAS  C:\Temp\cclPUGyV.s 			page 173


 10327              		.global	ism330dhcx_tilt_sens_get
 10328              		.syntax unified
 10329              		.thumb
 10330              		.thumb_func
 10332              	ism330dhcx_tilt_sens_get:
 10333              		@ args = 0, pretend = 0, frame = 8
 10334              		@ frame_needed = 0, uses_anonymous_args = 0
 10335 0000 30B5     		push	{r4, r5, lr}
 10336 0002 83B0     		sub	sp, sp, #12
 10337 0004 0446     		mov	r4, r0
 10338 0006 0D46     		mov	r5, r1
 10339 0008 0221     		movs	r1, #2
 10340 000a FFF7FEFF 		bl	ism330dhcx_mem_bank_set
 10341 000e 08B1     		cbz	r0, .L1286
 10342              	.L1283:
 10343 0010 03B0     		add	sp, sp, #12
 10344              		@ sp needed
 10345 0012 30BD     		pop	{r4, r5, pc}
 10346              	.L1286:
 10347 0014 0123     		movs	r3, #1
 10348 0016 01AA     		add	r2, sp, #4
 10349 0018 0421     		movs	r1, #4
 10350 001a 2046     		mov	r0, r4
 10351 001c FFF7FEFF 		bl	ism330dhcx_read_reg
 10352 0020 0028     		cmp	r0, #0
 10353 0022 F5D1     		bne	.L1283
 10354 0024 9DF80430 		ldrb	r3, [sp, #4]	@ zero_extendqisi2
 10355 0028 C3F30013 		ubfx	r3, r3, #4, #1
 10356 002c 2B70     		strb	r3, [r5]
 10357 002e 0021     		movs	r1, #0
 10358 0030 2046     		mov	r0, r4
 10359 0032 FFF7FEFF 		bl	ism330dhcx_mem_bank_set
 10360 0036 EBE7     		b	.L1283
 10362              		.section	.text.ism330dhcx_tilt_flag_data_ready_get,"ax",%progbits
 10363              		.align	1
 10364              		.global	ism330dhcx_tilt_flag_data_ready_get
 10365              		.syntax unified
 10366              		.thumb
 10367              		.thumb_func
 10369              	ism330dhcx_tilt_flag_data_ready_get:
 10370              		@ args = 0, pretend = 0, frame = 8
 10371              		@ frame_needed = 0, uses_anonymous_args = 0
 10372 0000 30B5     		push	{r4, r5, lr}
 10373 0002 83B0     		sub	sp, sp, #12
 10374 0004 0446     		mov	r4, r0
 10375 0006 0D46     		mov	r5, r1
 10376 0008 0221     		movs	r1, #2
 10377 000a FFF7FEFF 		bl	ism330dhcx_mem_bank_set
 10378 000e 08B1     		cbz	r0, .L1290
 10379              	.L1287:
 10380 0010 03B0     		add	sp, sp, #12
 10381              		@ sp needed
 10382 0012 30BD     		pop	{r4, r5, pc}
 10383              	.L1290:
 10384 0014 0123     		movs	r3, #1
 10385 0016 01AA     		add	r2, sp, #4
 10386 0018 1221     		movs	r1, #18
ARM GAS  C:\Temp\cclPUGyV.s 			page 174


 10387 001a 2046     		mov	r0, r4
 10388 001c FFF7FEFF 		bl	ism330dhcx_read_reg
 10389 0020 0028     		cmp	r0, #0
 10390 0022 F5D1     		bne	.L1287
 10391 0024 9DF80430 		ldrb	r3, [sp, #4]	@ zero_extendqisi2
 10392 0028 C3F30013 		ubfx	r3, r3, #4, #1
 10393 002c 2B70     		strb	r3, [r5]
 10394 002e 0021     		movs	r1, #0
 10395 0030 2046     		mov	r0, r4
 10396 0032 FFF7FEFF 		bl	ism330dhcx_mem_bank_set
 10397 0036 EBE7     		b	.L1287
 10399              		.section	.text.ism330dhcx_mag_sensitivity_set,"ax",%progbits
 10400              		.align	1
 10401              		.global	ism330dhcx_mag_sensitivity_set
 10402              		.syntax unified
 10403              		.thumb
 10404              		.thumb_func
 10406              	ism330dhcx_mag_sensitivity_set:
 10407              		@ args = 0, pretend = 0, frame = 8
 10408              		@ frame_needed = 0, uses_anonymous_args = 0
 10409 0000 10B5     		push	{r4, lr}
 10410 0002 82B0     		sub	sp, sp, #8
 10411 0004 0446     		mov	r4, r0
 10412 0006 0B0A     		lsrs	r3, r1, #8
 10413 0008 8DF80530 		strb	r3, [sp, #5]
 10414 000c 8DF80410 		strb	r1, [sp, #4]
 10415 0010 01AA     		add	r2, sp, #4
 10416 0012 BA21     		movs	r1, #186
 10417 0014 FFF7FEFF 		bl	ism330dhcx_ln_pg_write_byte
 10418 0018 08B1     		cbz	r0, .L1294
 10419              	.L1291:
 10420 001a 02B0     		add	sp, sp, #8
 10421              		@ sp needed
 10422 001c 10BD     		pop	{r4, pc}
 10423              	.L1294:
 10424 001e 0DF10502 		add	r2, sp, #5
 10425 0022 BB21     		movs	r1, #187
 10426 0024 2046     		mov	r0, r4
 10427 0026 FFF7FEFF 		bl	ism330dhcx_ln_pg_write_byte
 10428 002a F6E7     		b	.L1291
 10430              		.section	.text.ism330dhcx_mag_sensitivity_get,"ax",%progbits
 10431              		.align	1
 10432              		.global	ism330dhcx_mag_sensitivity_get
 10433              		.syntax unified
 10434              		.thumb
 10435              		.thumb_func
 10437              	ism330dhcx_mag_sensitivity_get:
 10438              		@ args = 0, pretend = 0, frame = 8
 10439              		@ frame_needed = 0, uses_anonymous_args = 0
 10440 0000 30B5     		push	{r4, r5, lr}
 10441 0002 83B0     		sub	sp, sp, #12
 10442 0004 0546     		mov	r5, r0
 10443 0006 0C46     		mov	r4, r1
 10444 0008 01AA     		add	r2, sp, #4
 10445 000a BA21     		movs	r1, #186
 10446 000c FFF7FEFF 		bl	ism330dhcx_ln_pg_read_byte
 10447 0010 08B1     		cbz	r0, .L1298
ARM GAS  C:\Temp\cclPUGyV.s 			page 175


 10448              	.L1295:
 10449 0012 03B0     		add	sp, sp, #12
 10450              		@ sp needed
 10451 0014 30BD     		pop	{r4, r5, pc}
 10452              	.L1298:
 10453 0016 0DF10502 		add	r2, sp, #5
 10454 001a BB21     		movs	r1, #187
 10455 001c 2846     		mov	r0, r5
 10456 001e FFF7FEFF 		bl	ism330dhcx_ln_pg_read_byte
 10457 0022 9DF80520 		ldrb	r2, [sp, #5]	@ zero_extendqisi2
 10458 0026 2280     		strh	r2, [r4]	@ movhi
 10459 0028 9DF80430 		ldrb	r3, [sp, #4]	@ zero_extendqisi2
 10460 002c 03EB0223 		add	r3, r3, r2, lsl #8
 10461 0030 2380     		strh	r3, [r4]	@ movhi
 10462 0032 EEE7     		b	.L1295
 10464              		.section	.text.ism330dhcx_mag_offset_set,"ax",%progbits
 10465              		.align	1
 10466              		.global	ism330dhcx_mag_offset_set
 10467              		.syntax unified
 10468              		.thumb
 10469              		.thumb_func
 10471              	ism330dhcx_mag_offset_set:
 10472              		@ args = 0, pretend = 0, frame = 8
 10473              		@ frame_needed = 0, uses_anonymous_args = 0
 10474 0000 30B5     		push	{r4, r5, lr}
 10475 0002 83B0     		sub	sp, sp, #12
 10476 0004 0446     		mov	r4, r0
 10477 0006 B1F90030 		ldrsh	r3, [r1]
 10478 000a C3F30722 		ubfx	r2, r3, #8, #8
 10479 000e 8DF80120 		strb	r2, [sp, #1]
 10480 0012 8DF80030 		strb	r3, [sp]
 10481 0016 B1F90230 		ldrsh	r3, [r1, #2]
 10482 001a C3F30722 		ubfx	r2, r3, #8, #8
 10483 001e 8DF80320 		strb	r2, [sp, #3]
 10484 0022 8DF80230 		strb	r3, [sp, #2]
 10485 0026 B1F90430 		ldrsh	r3, [r1, #4]
 10486 002a C3F30722 		ubfx	r2, r3, #8, #8
 10487 002e 8DF80520 		strb	r2, [sp, #5]
 10488 0032 8DF80430 		strb	r3, [sp, #4]
 10489 0036 6A46     		mov	r2, sp
 10490 0038 C021     		movs	r1, #192
 10491 003a FFF7FEFF 		bl	ism330dhcx_ln_pg_write_byte
 10492 003e 28B1     		cbz	r0, .L1304
 10493 0040 0346     		mov	r3, r0
 10494 0042 0022     		movs	r2, #0
 10495              	.L1300:
 10496 0044 A3B1     		cbz	r3, .L1305
 10497              	.L1299:
 10498 0046 1846     		mov	r0, r3
 10499 0048 03B0     		add	sp, sp, #12
 10500              		@ sp needed
 10501 004a 30BD     		pop	{r4, r5, pc}
 10502              	.L1304:
 10503 004c 0DF10102 		add	r2, sp, #1
 10504 0050 C121     		movs	r1, #193
 10505 0052 2046     		mov	r0, r4
 10506 0054 FFF7FEFF 		bl	ism330dhcx_ln_pg_write_byte
ARM GAS  C:\Temp\cclPUGyV.s 			page 176


 10507 0058 0346     		mov	r3, r0
 10508 005a 0028     		cmp	r0, #0
 10509 005c F3D1     		bne	.L1299
 10510 005e 0DF10202 		add	r2, sp, #2
 10511 0062 C221     		movs	r1, #194
 10512 0064 2046     		mov	r0, r4
 10513 0066 FFF7FEFF 		bl	ism330dhcx_ln_pg_write_byte
 10514 006a 0346     		mov	r3, r0
 10515 006c 0222     		movs	r2, #2
 10516 006e E9E7     		b	.L1300
 10517              	.L1305:
 10518 0070 551C     		adds	r5, r2, #1
 10519 0072 0DEB0502 		add	r2, sp, r5
 10520 0076 C321     		movs	r1, #195
 10521 0078 2046     		mov	r0, r4
 10522 007a FFF7FEFF 		bl	ism330dhcx_ln_pg_write_byte
 10523 007e 0346     		mov	r3, r0
 10524 0080 0028     		cmp	r0, #0
 10525 0082 E0D1     		bne	.L1299
 10526 0084 0135     		adds	r5, r5, #1
 10527 0086 EDB2     		uxtb	r5, r5
 10528 0088 0DEB0502 		add	r2, sp, r5
 10529 008c C421     		movs	r1, #196
 10530 008e 2046     		mov	r0, r4
 10531 0090 FFF7FEFF 		bl	ism330dhcx_ln_pg_write_byte
 10532 0094 0346     		mov	r3, r0
 10533 0096 0028     		cmp	r0, #0
 10534 0098 D5D1     		bne	.L1299
 10535 009a 6A1C     		adds	r2, r5, #1
 10536 009c 6B46     		mov	r3, sp
 10537 009e 53FA82F2 		uxtab	r2, r3, r2
 10538 00a2 C521     		movs	r1, #197
 10539 00a4 2046     		mov	r0, r4
 10540 00a6 FFF7FEFF 		bl	ism330dhcx_ln_pg_write_byte
 10541 00aa 0346     		mov	r3, r0
 10542 00ac CBE7     		b	.L1299
 10544              		.section	.text.ism330dhcx_mag_offset_get,"ax",%progbits
 10545              		.align	1
 10546              		.global	ism330dhcx_mag_offset_get
 10547              		.syntax unified
 10548              		.thumb
 10549              		.thumb_func
 10551              	ism330dhcx_mag_offset_get:
 10552              		@ args = 0, pretend = 0, frame = 8
 10553              		@ frame_needed = 0, uses_anonymous_args = 0
 10554 0000 70B5     		push	{r4, r5, r6, lr}
 10555 0002 82B0     		sub	sp, sp, #8
 10556 0004 0546     		mov	r5, r0
 10557 0006 0C46     		mov	r4, r1
 10558 0008 6A46     		mov	r2, sp
 10559 000a C021     		movs	r1, #192
 10560 000c FFF7FEFF 		bl	ism330dhcx_ln_pg_read_byte
 10561 0010 E8B1     		cbz	r0, .L1311
 10562 0012 0246     		mov	r2, r0
 10563 0014 0023     		movs	r3, #0
 10564              	.L1307:
 10565 0016 62B3     		cbz	r2, .L1312
ARM GAS  C:\Temp\cclPUGyV.s 			page 177


 10566              	.L1308:
 10567 0018 9DF80110 		ldrb	r1, [sp, #1]	@ zero_extendqisi2
 10568 001c 2180     		strh	r1, [r4]	@ movhi
 10569 001e 9DF80030 		ldrb	r3, [sp]	@ zero_extendqisi2
 10570 0022 03EB0123 		add	r3, r3, r1, lsl #8
 10571 0026 2380     		strh	r3, [r4]	@ movhi
 10572 0028 9DF80310 		ldrb	r1, [sp, #3]	@ zero_extendqisi2
 10573 002c 6180     		strh	r1, [r4, #2]	@ movhi
 10574 002e 9DF80230 		ldrb	r3, [sp, #2]	@ zero_extendqisi2
 10575 0032 03EB0123 		add	r3, r3, r1, lsl #8
 10576 0036 6380     		strh	r3, [r4, #2]	@ movhi
 10577 0038 9DF80510 		ldrb	r1, [sp, #5]	@ zero_extendqisi2
 10578 003c A180     		strh	r1, [r4, #4]	@ movhi
 10579 003e 9DF80430 		ldrb	r3, [sp, #4]	@ zero_extendqisi2
 10580 0042 03EB0123 		add	r3, r3, r1, lsl #8
 10581 0046 A380     		strh	r3, [r4, #4]	@ movhi
 10582 0048 1046     		mov	r0, r2
 10583 004a 02B0     		add	sp, sp, #8
 10584              		@ sp needed
 10585 004c 70BD     		pop	{r4, r5, r6, pc}
 10586              	.L1311:
 10587 004e 0DF10102 		add	r2, sp, #1
 10588 0052 C121     		movs	r1, #193
 10589 0054 2846     		mov	r0, r5
 10590 0056 FFF7FEFF 		bl	ism330dhcx_ln_pg_read_byte
 10591 005a 0246     		mov	r2, r0
 10592 005c 0028     		cmp	r0, #0
 10593 005e DBD1     		bne	.L1308
 10594 0060 0DF10202 		add	r2, sp, #2
 10595 0064 C221     		movs	r1, #194
 10596 0066 2846     		mov	r0, r5
 10597 0068 FFF7FEFF 		bl	ism330dhcx_ln_pg_read_byte
 10598 006c 0246     		mov	r2, r0
 10599 006e 0223     		movs	r3, #2
 10600 0070 D1E7     		b	.L1307
 10601              	.L1312:
 10602 0072 5E1C     		adds	r6, r3, #1
 10603 0074 0DEB0602 		add	r2, sp, r6
 10604 0078 C321     		movs	r1, #195
 10605 007a 2846     		mov	r0, r5
 10606 007c FFF7FEFF 		bl	ism330dhcx_ln_pg_read_byte
 10607 0080 0246     		mov	r2, r0
 10608 0082 0028     		cmp	r0, #0
 10609 0084 C8D1     		bne	.L1308
 10610 0086 0136     		adds	r6, r6, #1
 10611 0088 F6B2     		uxtb	r6, r6
 10612 008a 0DEB0602 		add	r2, sp, r6
 10613 008e C421     		movs	r1, #196
 10614 0090 2846     		mov	r0, r5
 10615 0092 FFF7FEFF 		bl	ism330dhcx_ln_pg_read_byte
 10616 0096 0246     		mov	r2, r0
 10617 0098 0028     		cmp	r0, #0
 10618 009a BDD1     		bne	.L1308
 10619 009c 721C     		adds	r2, r6, #1
 10620 009e 6B46     		mov	r3, sp
 10621 00a0 53FA82F2 		uxtab	r2, r3, r2
 10622 00a4 C521     		movs	r1, #197
ARM GAS  C:\Temp\cclPUGyV.s 			page 178


 10623 00a6 2846     		mov	r0, r5
 10624 00a8 FFF7FEFF 		bl	ism330dhcx_ln_pg_read_byte
 10625 00ac 0246     		mov	r2, r0
 10626 00ae B3E7     		b	.L1308
 10628              		.section	.text.ism330dhcx_mag_soft_iron_set,"ax",%progbits
 10629              		.align	1
 10630              		.global	ism330dhcx_mag_soft_iron_set
 10631              		.syntax unified
 10632              		.thumb
 10633              		.thumb_func
 10635              	ism330dhcx_mag_soft_iron_set:
 10636              		@ args = 0, pretend = 0, frame = 16
 10637              		@ frame_needed = 0, uses_anonymous_args = 0
 10638 0000 30B5     		push	{r4, r5, lr}
 10639 0002 85B0     		sub	sp, sp, #20
 10640 0004 0446     		mov	r4, r0
 10641 0006 0B88     		ldrh	r3, [r1]
 10642 0008 1A0A     		lsrs	r2, r3, #8
 10643 000a 8DF80520 		strb	r2, [sp, #5]
 10644 000e 8DF80430 		strb	r3, [sp, #4]
 10645 0012 4B88     		ldrh	r3, [r1, #2]
 10646 0014 1A0A     		lsrs	r2, r3, #8
 10647 0016 8DF80720 		strb	r2, [sp, #7]
 10648 001a 8DF80630 		strb	r3, [sp, #6]
 10649 001e 8B88     		ldrh	r3, [r1, #4]
 10650 0020 1A0A     		lsrs	r2, r3, #8
 10651 0022 8DF80920 		strb	r2, [sp, #9]
 10652 0026 8DF80830 		strb	r3, [sp, #8]
 10653 002a CB88     		ldrh	r3, [r1, #6]
 10654 002c 1A0A     		lsrs	r2, r3, #8
 10655 002e 8DF80B20 		strb	r2, [sp, #11]
 10656 0032 8DF80A30 		strb	r3, [sp, #10]
 10657 0036 0B89     		ldrh	r3, [r1, #8]
 10658 0038 1A0A     		lsrs	r2, r3, #8
 10659 003a 8DF80D20 		strb	r2, [sp, #13]
 10660 003e 8DF80C30 		strb	r3, [sp, #12]
 10661 0042 4B89     		ldrh	r3, [r1, #10]
 10662 0044 1A0A     		lsrs	r2, r3, #8
 10663 0046 8DF80F20 		strb	r2, [sp, #15]
 10664 004a 8DF80E30 		strb	r3, [sp, #14]
 10665 004e 01AA     		add	r2, sp, #4
 10666 0050 C621     		movs	r1, #198
 10667 0052 FFF7FEFF 		bl	ism330dhcx_ln_pg_write_byte
 10668 0056 28B1     		cbz	r0, .L1318
 10669 0058 0346     		mov	r3, r0
 10670 005a 0022     		movs	r2, #0
 10671              	.L1314:
 10672 005c A3B1     		cbz	r3, .L1319
 10673              	.L1313:
 10674 005e 1846     		mov	r0, r3
 10675 0060 05B0     		add	sp, sp, #20
 10676              		@ sp needed
 10677 0062 30BD     		pop	{r4, r5, pc}
 10678              	.L1318:
 10679 0064 0DF10502 		add	r2, sp, #5
 10680 0068 C721     		movs	r1, #199
 10681 006a 2046     		mov	r0, r4
ARM GAS  C:\Temp\cclPUGyV.s 			page 179


 10682 006c FFF7FEFF 		bl	ism330dhcx_ln_pg_write_byte
 10683 0070 0346     		mov	r3, r0
 10684 0072 0028     		cmp	r0, #0
 10685 0074 F3D1     		bne	.L1313
 10686 0076 0DF10602 		add	r2, sp, #6
 10687 007a C821     		movs	r1, #200
 10688 007c 2046     		mov	r0, r4
 10689 007e FFF7FEFF 		bl	ism330dhcx_ln_pg_write_byte
 10690 0082 0346     		mov	r3, r0
 10691 0084 0222     		movs	r2, #2
 10692 0086 E9E7     		b	.L1314
 10693              	.L1319:
 10694 0088 551C     		adds	r5, r2, #1
 10695 008a 01AB     		add	r3, sp, #4
 10696 008c 5A19     		adds	r2, r3, r5
 10697 008e C921     		movs	r1, #201
 10698 0090 2046     		mov	r0, r4
 10699 0092 FFF7FEFF 		bl	ism330dhcx_ln_pg_write_byte
 10700 0096 0346     		mov	r3, r0
 10701 0098 0028     		cmp	r0, #0
 10702 009a E0D1     		bne	.L1313
 10703 009c 0135     		adds	r5, r5, #1
 10704 009e EDB2     		uxtb	r5, r5
 10705 00a0 01AB     		add	r3, sp, #4
 10706 00a2 5A19     		adds	r2, r3, r5
 10707 00a4 CA21     		movs	r1, #202
 10708 00a6 2046     		mov	r0, r4
 10709 00a8 FFF7FEFF 		bl	ism330dhcx_ln_pg_write_byte
 10710 00ac 0346     		mov	r3, r0
 10711 00ae 0028     		cmp	r0, #0
 10712 00b0 D5D1     		bne	.L1313
 10713 00b2 0135     		adds	r5, r5, #1
 10714 00b4 EDB2     		uxtb	r5, r5
 10715 00b6 01AB     		add	r3, sp, #4
 10716 00b8 5A19     		adds	r2, r3, r5
 10717 00ba CB21     		movs	r1, #203
 10718 00bc 2046     		mov	r0, r4
 10719 00be FFF7FEFF 		bl	ism330dhcx_ln_pg_write_byte
 10720 00c2 0346     		mov	r3, r0
 10721 00c4 0028     		cmp	r0, #0
 10722 00c6 CAD1     		bne	.L1313
 10723 00c8 0135     		adds	r5, r5, #1
 10724 00ca EDB2     		uxtb	r5, r5
 10725 00cc 01AB     		add	r3, sp, #4
 10726 00ce 5A19     		adds	r2, r3, r5
 10727 00d0 CC21     		movs	r1, #204
 10728 00d2 2046     		mov	r0, r4
 10729 00d4 FFF7FEFF 		bl	ism330dhcx_ln_pg_write_byte
 10730 00d8 0346     		mov	r3, r0
 10731 00da 0028     		cmp	r0, #0
 10732 00dc BFD1     		bne	.L1313
 10733 00de 0135     		adds	r5, r5, #1
 10734 00e0 EDB2     		uxtb	r5, r5
 10735 00e2 01AB     		add	r3, sp, #4
 10736 00e4 5A19     		adds	r2, r3, r5
 10737 00e6 CD21     		movs	r1, #205
 10738 00e8 2046     		mov	r0, r4
ARM GAS  C:\Temp\cclPUGyV.s 			page 180


 10739 00ea FFF7FEFF 		bl	ism330dhcx_ln_pg_write_byte
 10740 00ee 0346     		mov	r3, r0
 10741 00f0 0028     		cmp	r0, #0
 10742 00f2 B4D1     		bne	.L1313
 10743 00f4 0135     		adds	r5, r5, #1
 10744 00f6 EDB2     		uxtb	r5, r5
 10745 00f8 01AB     		add	r3, sp, #4
 10746 00fa 5A19     		adds	r2, r3, r5
 10747 00fc CE21     		movs	r1, #206
 10748 00fe 2046     		mov	r0, r4
 10749 0100 FFF7FEFF 		bl	ism330dhcx_ln_pg_write_byte
 10750 0104 0346     		mov	r3, r0
 10751 0106 0028     		cmp	r0, #0
 10752 0108 A9D1     		bne	.L1313
 10753 010a 6A1C     		adds	r2, r5, #1
 10754 010c D5B2     		uxtb	r5, r2
 10755 010e 01AB     		add	r3, sp, #4
 10756 0110 53FA82F2 		uxtab	r2, r3, r2
 10757 0114 CF21     		movs	r1, #207
 10758 0116 2046     		mov	r0, r4
 10759 0118 FFF7FEFF 		bl	ism330dhcx_ln_pg_write_byte
 10760 011c 0346     		mov	r3, r0
 10761 011e 0028     		cmp	r0, #0
 10762 0120 9DD1     		bne	.L1313
 10763 0122 6A1C     		adds	r2, r5, #1
 10764 0124 D5B2     		uxtb	r5, r2
 10765 0126 01AB     		add	r3, sp, #4
 10766 0128 53FA82F2 		uxtab	r2, r3, r2
 10767 012c D021     		movs	r1, #208
 10768 012e 2046     		mov	r0, r4
 10769 0130 FFF7FEFF 		bl	ism330dhcx_ln_pg_write_byte
 10770 0134 0346     		mov	r3, r0
 10771 0136 0028     		cmp	r0, #0
 10772 0138 91D1     		bne	.L1313
 10773 013a 6A1C     		adds	r2, r5, #1
 10774 013c 01AB     		add	r3, sp, #4
 10775 013e 53FA82F2 		uxtab	r2, r3, r2
 10776 0142 D121     		movs	r1, #209
 10777 0144 2046     		mov	r0, r4
 10778 0146 FFF7FEFF 		bl	ism330dhcx_ln_pg_write_byte
 10779 014a 0346     		mov	r3, r0
 10780 014c 87E7     		b	.L1313
 10782              		.section	.text.ism330dhcx_mag_soft_iron_get,"ax",%progbits
 10783              		.align	1
 10784              		.global	ism330dhcx_mag_soft_iron_get
 10785              		.syntax unified
 10786              		.thumb
 10787              		.thumb_func
 10789              	ism330dhcx_mag_soft_iron_get:
 10790              		@ args = 0, pretend = 0, frame = 16
 10791              		@ frame_needed = 0, uses_anonymous_args = 0
 10792 0000 70B5     		push	{r4, r5, r6, lr}
 10793 0002 84B0     		sub	sp, sp, #16
 10794 0004 0546     		mov	r5, r0
 10795 0006 0C46     		mov	r4, r1
 10796 0008 01AA     		add	r2, sp, #4
 10797 000a C621     		movs	r1, #198
ARM GAS  C:\Temp\cclPUGyV.s 			page 181


 10798 000c FFF7FEFF 		bl	ism330dhcx_ln_pg_read_byte
 10799 0010 0028     		cmp	r0, #0
 10800 0012 36D0     		beq	.L1325
 10801 0014 0246     		mov	r2, r0
 10802 0016 0023     		movs	r3, #0
 10803              	.L1321:
 10804 0018 002A     		cmp	r2, #0
 10805 001a 44D0     		beq	.L1326
 10806              	.L1322:
 10807 001c 9DF80510 		ldrb	r1, [sp, #5]	@ zero_extendqisi2
 10808 0020 2180     		strh	r1, [r4]	@ movhi
 10809 0022 9DF80430 		ldrb	r3, [sp, #4]	@ zero_extendqisi2
 10810 0026 03EB0123 		add	r3, r3, r1, lsl #8
 10811 002a 2380     		strh	r3, [r4]	@ movhi
 10812 002c 9DF80710 		ldrb	r1, [sp, #7]	@ zero_extendqisi2
 10813 0030 6180     		strh	r1, [r4, #2]	@ movhi
 10814 0032 9DF80630 		ldrb	r3, [sp, #6]	@ zero_extendqisi2
 10815 0036 03EB0123 		add	r3, r3, r1, lsl #8
 10816 003a 6380     		strh	r3, [r4, #2]	@ movhi
 10817 003c 9DF80910 		ldrb	r1, [sp, #9]	@ zero_extendqisi2
 10818 0040 A180     		strh	r1, [r4, #4]	@ movhi
 10819 0042 9DF80830 		ldrb	r3, [sp, #8]	@ zero_extendqisi2
 10820 0046 03EB0123 		add	r3, r3, r1, lsl #8
 10821 004a A380     		strh	r3, [r4, #4]	@ movhi
 10822 004c 9DF80B10 		ldrb	r1, [sp, #11]	@ zero_extendqisi2
 10823 0050 E180     		strh	r1, [r4, #6]	@ movhi
 10824 0052 9DF80A30 		ldrb	r3, [sp, #10]	@ zero_extendqisi2
 10825 0056 03EB0123 		add	r3, r3, r1, lsl #8
 10826 005a E380     		strh	r3, [r4, #6]	@ movhi
 10827 005c 9DF80D10 		ldrb	r1, [sp, #13]	@ zero_extendqisi2
 10828 0060 2181     		strh	r1, [r4, #8]	@ movhi
 10829 0062 9DF80C30 		ldrb	r3, [sp, #12]	@ zero_extendqisi2
 10830 0066 03EB0123 		add	r3, r3, r1, lsl #8
 10831 006a 2381     		strh	r3, [r4, #8]	@ movhi
 10832 006c 9DF80F10 		ldrb	r1, [sp, #15]	@ zero_extendqisi2
 10833 0070 6181     		strh	r1, [r4, #10]	@ movhi
 10834 0072 9DF80E30 		ldrb	r3, [sp, #14]	@ zero_extendqisi2
 10835 0076 03EB0123 		add	r3, r3, r1, lsl #8
 10836 007a A381     		strh	r3, [r4, #12]	@ movhi
 10837 007c 1046     		mov	r0, r2
 10838 007e 04B0     		add	sp, sp, #16
 10839              		@ sp needed
 10840 0080 70BD     		pop	{r4, r5, r6, pc}
 10841              	.L1325:
 10842 0082 0DF10502 		add	r2, sp, #5
 10843 0086 C721     		movs	r1, #199
 10844 0088 2846     		mov	r0, r5
 10845 008a FFF7FEFF 		bl	ism330dhcx_ln_pg_read_byte
 10846 008e 0246     		mov	r2, r0
 10847 0090 0028     		cmp	r0, #0
 10848 0092 C3D1     		bne	.L1322
 10849 0094 0DF10602 		add	r2, sp, #6
 10850 0098 C821     		movs	r1, #200
 10851 009a 2846     		mov	r0, r5
 10852 009c FFF7FEFF 		bl	ism330dhcx_ln_pg_read_byte
 10853 00a0 0246     		mov	r2, r0
 10854 00a2 0223     		movs	r3, #2
ARM GAS  C:\Temp\cclPUGyV.s 			page 182


 10855 00a4 B8E7     		b	.L1321
 10856              	.L1326:
 10857 00a6 5E1C     		adds	r6, r3, #1
 10858 00a8 01AB     		add	r3, sp, #4
 10859 00aa 9A19     		adds	r2, r3, r6
 10860 00ac C921     		movs	r1, #201
 10861 00ae 2846     		mov	r0, r5
 10862 00b0 FFF7FEFF 		bl	ism330dhcx_ln_pg_read_byte
 10863 00b4 0246     		mov	r2, r0
 10864 00b6 0028     		cmp	r0, #0
 10865 00b8 B0D1     		bne	.L1322
 10866 00ba 0136     		adds	r6, r6, #1
 10867 00bc F6B2     		uxtb	r6, r6
 10868 00be 01AB     		add	r3, sp, #4
 10869 00c0 9A19     		adds	r2, r3, r6
 10870 00c2 CA21     		movs	r1, #202
 10871 00c4 2846     		mov	r0, r5
 10872 00c6 FFF7FEFF 		bl	ism330dhcx_ln_pg_read_byte
 10873 00ca 0246     		mov	r2, r0
 10874 00cc 0028     		cmp	r0, #0
 10875 00ce A5D1     		bne	.L1322
 10876 00d0 0136     		adds	r6, r6, #1
 10877 00d2 F6B2     		uxtb	r6, r6
 10878 00d4 01AB     		add	r3, sp, #4
 10879 00d6 9A19     		adds	r2, r3, r6
 10880 00d8 CB21     		movs	r1, #203
 10881 00da 2846     		mov	r0, r5
 10882 00dc FFF7FEFF 		bl	ism330dhcx_ln_pg_read_byte
 10883 00e0 0246     		mov	r2, r0
 10884 00e2 0028     		cmp	r0, #0
 10885 00e4 9AD1     		bne	.L1322
 10886 00e6 0136     		adds	r6, r6, #1
 10887 00e8 F6B2     		uxtb	r6, r6
 10888 00ea 01AB     		add	r3, sp, #4
 10889 00ec 9A19     		adds	r2, r3, r6
 10890 00ee CC21     		movs	r1, #204
 10891 00f0 2846     		mov	r0, r5
 10892 00f2 FFF7FEFF 		bl	ism330dhcx_ln_pg_read_byte
 10893 00f6 0246     		mov	r2, r0
 10894 00f8 0028     		cmp	r0, #0
 10895 00fa 8FD1     		bne	.L1322
 10896 00fc 0136     		adds	r6, r6, #1
 10897 00fe F6B2     		uxtb	r6, r6
 10898 0100 01AB     		add	r3, sp, #4
 10899 0102 9A19     		adds	r2, r3, r6
 10900 0104 CD21     		movs	r1, #205
 10901 0106 2846     		mov	r0, r5
 10902 0108 FFF7FEFF 		bl	ism330dhcx_ln_pg_read_byte
 10903 010c 0246     		mov	r2, r0
 10904 010e 0028     		cmp	r0, #0
 10905 0110 84D1     		bne	.L1322
 10906 0112 0136     		adds	r6, r6, #1
 10907 0114 F6B2     		uxtb	r6, r6
 10908 0116 01AB     		add	r3, sp, #4
 10909 0118 9A19     		adds	r2, r3, r6
 10910 011a CE21     		movs	r1, #206
 10911 011c 2846     		mov	r0, r5
ARM GAS  C:\Temp\cclPUGyV.s 			page 183


 10912 011e FFF7FEFF 		bl	ism330dhcx_ln_pg_read_byte
 10913 0122 0246     		mov	r2, r0
 10914 0124 0028     		cmp	r0, #0
 10915 0126 7FF479AF 		bne	.L1322
 10916 012a 721C     		adds	r2, r6, #1
 10917 012c D6B2     		uxtb	r6, r2
 10918 012e 01AB     		add	r3, sp, #4
 10919 0130 53FA82F2 		uxtab	r2, r3, r2
 10920 0134 CF21     		movs	r1, #207
 10921 0136 2846     		mov	r0, r5
 10922 0138 FFF7FEFF 		bl	ism330dhcx_ln_pg_read_byte
 10923 013c 0246     		mov	r2, r0
 10924 013e 0028     		cmp	r0, #0
 10925 0140 7FF46CAF 		bne	.L1322
 10926 0144 721C     		adds	r2, r6, #1
 10927 0146 D6B2     		uxtb	r6, r2
 10928 0148 01AB     		add	r3, sp, #4
 10929 014a 53FA82F2 		uxtab	r2, r3, r2
 10930 014e D021     		movs	r1, #208
 10931 0150 2846     		mov	r0, r5
 10932 0152 FFF7FEFF 		bl	ism330dhcx_ln_pg_read_byte
 10933 0156 0246     		mov	r2, r0
 10934 0158 0028     		cmp	r0, #0
 10935 015a 7FF45FAF 		bne	.L1322
 10936 015e 721C     		adds	r2, r6, #1
 10937 0160 01AB     		add	r3, sp, #4
 10938 0162 53FA82F2 		uxtab	r2, r3, r2
 10939 0166 D121     		movs	r1, #209
 10940 0168 2846     		mov	r0, r5
 10941 016a FFF7FEFF 		bl	ism330dhcx_ln_pg_read_byte
 10942 016e 0246     		mov	r2, r0
 10943 0170 54E7     		b	.L1322
 10945              		.section	.text.ism330dhcx_mag_z_orient_set,"ax",%progbits
 10946              		.align	1
 10947              		.global	ism330dhcx_mag_z_orient_set
 10948              		.syntax unified
 10949              		.thumb
 10950              		.thumb_func
 10952              	ism330dhcx_mag_z_orient_set:
 10953              		@ args = 0, pretend = 0, frame = 8
 10954              		@ frame_needed = 0, uses_anonymous_args = 0
 10955 0000 30B5     		push	{r4, r5, lr}
 10956 0002 83B0     		sub	sp, sp, #12
 10957 0004 0446     		mov	r4, r0
 10958 0006 0D46     		mov	r5, r1
 10959 0008 01AA     		add	r2, sp, #4
 10960 000a D421     		movs	r1, #212
 10961 000c FFF7FEFF 		bl	ism330dhcx_ln_pg_read_byte
 10962 0010 08B1     		cbz	r0, .L1330
 10963              	.L1327:
 10964 0012 03B0     		add	sp, sp, #12
 10965              		@ sp needed
 10966 0014 30BD     		pop	{r4, r5, pc}
 10967              	.L1330:
 10968 0016 9DF80430 		ldrb	r3, [sp, #4]	@ zero_extendqisi2
 10969 001a 65F30203 		bfi	r3, r5, #0, #3
 10970 001e 8DF80430 		strb	r3, [sp, #4]
ARM GAS  C:\Temp\cclPUGyV.s 			page 184


 10971 0022 01AA     		add	r2, sp, #4
 10972 0024 D421     		movs	r1, #212
 10973 0026 2046     		mov	r0, r4
 10974 0028 FFF7FEFF 		bl	ism330dhcx_ln_pg_write_byte
 10975 002c F1E7     		b	.L1327
 10977              		.section	.text.ism330dhcx_mag_z_orient_get,"ax",%progbits
 10978              		.align	1
 10979              		.global	ism330dhcx_mag_z_orient_get
 10980              		.syntax unified
 10981              		.thumb
 10982              		.thumb_func
 10984              	ism330dhcx_mag_z_orient_get:
 10985              		@ args = 0, pretend = 0, frame = 8
 10986              		@ frame_needed = 0, uses_anonymous_args = 0
 10987 0000 10B5     		push	{r4, lr}
 10988 0002 82B0     		sub	sp, sp, #8
 10989 0004 0C46     		mov	r4, r1
 10990 0006 01AA     		add	r2, sp, #4
 10991 0008 D421     		movs	r1, #212
 10992 000a FFF7FEFF 		bl	ism330dhcx_ln_pg_read_byte
 10993 000e 9DF80430 		ldrb	r3, [sp, #4]	@ zero_extendqisi2
 10994 0012 03F00703 		and	r3, r3, #7
 10995 0016 052B     		cmp	r3, #5
 10996 0018 17D8     		bhi	.L1332
 10997 001a DFE803F0 		tbb	[pc, r3]
 10998              	.L1334:
 10999 001e 03       		.byte	(.L1339-.L1334)/2
 11000 001f 07       		.byte	(.L1338-.L1334)/2
 11001 0020 0A       		.byte	(.L1337-.L1334)/2
 11002 0021 0D       		.byte	(.L1336-.L1334)/2
 11003 0022 10       		.byte	(.L1335-.L1334)/2
 11004 0023 13       		.byte	(.L1333-.L1334)/2
 11005              		.p2align 1
 11006              	.L1339:
 11007 0024 0023     		movs	r3, #0
 11008 0026 2370     		strb	r3, [r4]
 11009              	.L1331:
 11010 0028 02B0     		add	sp, sp, #8
 11011              		@ sp needed
 11012 002a 10BD     		pop	{r4, pc}
 11013              	.L1338:
 11014 002c 0123     		movs	r3, #1
 11015 002e 2370     		strb	r3, [r4]
 11016 0030 FAE7     		b	.L1331
 11017              	.L1337:
 11018 0032 0223     		movs	r3, #2
 11019 0034 2370     		strb	r3, [r4]
 11020 0036 F7E7     		b	.L1331
 11021              	.L1336:
 11022 0038 0323     		movs	r3, #3
 11023 003a 2370     		strb	r3, [r4]
 11024 003c F4E7     		b	.L1331
 11025              	.L1335:
 11026 003e 0423     		movs	r3, #4
 11027 0040 2370     		strb	r3, [r4]
 11028 0042 F1E7     		b	.L1331
 11029              	.L1333:
ARM GAS  C:\Temp\cclPUGyV.s 			page 185


 11030 0044 0523     		movs	r3, #5
 11031 0046 2370     		strb	r3, [r4]
 11032 0048 EEE7     		b	.L1331
 11033              	.L1332:
 11034 004a 0023     		movs	r3, #0
 11035 004c 2370     		strb	r3, [r4]
 11036 004e EBE7     		b	.L1331
 11038              		.section	.text.ism330dhcx_mag_y_orient_set,"ax",%progbits
 11039              		.align	1
 11040              		.global	ism330dhcx_mag_y_orient_set
 11041              		.syntax unified
 11042              		.thumb
 11043              		.thumb_func
 11045              	ism330dhcx_mag_y_orient_set:
 11046              		@ args = 0, pretend = 0, frame = 8
 11047              		@ frame_needed = 0, uses_anonymous_args = 0
 11048 0000 30B5     		push	{r4, r5, lr}
 11049 0002 83B0     		sub	sp, sp, #12
 11050 0004 0446     		mov	r4, r0
 11051 0006 0D46     		mov	r5, r1
 11052 0008 01AA     		add	r2, sp, #4
 11053 000a D421     		movs	r1, #212
 11054 000c FFF7FEFF 		bl	ism330dhcx_ln_pg_read_byte
 11055 0010 08B1     		cbz	r0, .L1345
 11056              	.L1342:
 11057 0012 03B0     		add	sp, sp, #12
 11058              		@ sp needed
 11059 0014 30BD     		pop	{r4, r5, pc}
 11060              	.L1345:
 11061 0016 9DF80430 		ldrb	r3, [sp, #4]	@ zero_extendqisi2
 11062 001a 65F30613 		bfi	r3, r5, #4, #3
 11063 001e 8DF80430 		strb	r3, [sp, #4]
 11064 0022 01AA     		add	r2, sp, #4
 11065 0024 D421     		movs	r1, #212
 11066 0026 2046     		mov	r0, r4
 11067 0028 FFF7FEFF 		bl	ism330dhcx_ln_pg_write_byte
 11068 002c F1E7     		b	.L1342
 11070              		.section	.text.ism330dhcx_mag_y_orient_get,"ax",%progbits
 11071              		.align	1
 11072              		.global	ism330dhcx_mag_y_orient_get
 11073              		.syntax unified
 11074              		.thumb
 11075              		.thumb_func
 11077              	ism330dhcx_mag_y_orient_get:
 11078              		@ args = 0, pretend = 0, frame = 8
 11079              		@ frame_needed = 0, uses_anonymous_args = 0
 11080 0000 10B5     		push	{r4, lr}
 11081 0002 82B0     		sub	sp, sp, #8
 11082 0004 0C46     		mov	r4, r1
 11083 0006 01AA     		add	r2, sp, #4
 11084 0008 D421     		movs	r1, #212
 11085 000a FFF7FEFF 		bl	ism330dhcx_ln_pg_read_byte
 11086 000e 9DF80430 		ldrb	r3, [sp, #4]	@ zero_extendqisi2
 11087 0012 C3F30213 		ubfx	r3, r3, #4, #3
 11088 0016 052B     		cmp	r3, #5
 11089 0018 17D8     		bhi	.L1347
 11090 001a DFE803F0 		tbb	[pc, r3]
ARM GAS  C:\Temp\cclPUGyV.s 			page 186


 11091              	.L1349:
 11092 001e 03       		.byte	(.L1354-.L1349)/2
 11093 001f 07       		.byte	(.L1353-.L1349)/2
 11094 0020 0A       		.byte	(.L1352-.L1349)/2
 11095 0021 0D       		.byte	(.L1351-.L1349)/2
 11096 0022 10       		.byte	(.L1350-.L1349)/2
 11097 0023 13       		.byte	(.L1348-.L1349)/2
 11098              		.p2align 1
 11099              	.L1354:
 11100 0024 0023     		movs	r3, #0
 11101 0026 2370     		strb	r3, [r4]
 11102              	.L1346:
 11103 0028 02B0     		add	sp, sp, #8
 11104              		@ sp needed
 11105 002a 10BD     		pop	{r4, pc}
 11106              	.L1353:
 11107 002c 0123     		movs	r3, #1
 11108 002e 2370     		strb	r3, [r4]
 11109 0030 FAE7     		b	.L1346
 11110              	.L1352:
 11111 0032 0223     		movs	r3, #2
 11112 0034 2370     		strb	r3, [r4]
 11113 0036 F7E7     		b	.L1346
 11114              	.L1351:
 11115 0038 0323     		movs	r3, #3
 11116 003a 2370     		strb	r3, [r4]
 11117 003c F4E7     		b	.L1346
 11118              	.L1350:
 11119 003e 0423     		movs	r3, #4
 11120 0040 2370     		strb	r3, [r4]
 11121 0042 F1E7     		b	.L1346
 11122              	.L1348:
 11123 0044 0523     		movs	r3, #5
 11124 0046 2370     		strb	r3, [r4]
 11125 0048 EEE7     		b	.L1346
 11126              	.L1347:
 11127 004a 0023     		movs	r3, #0
 11128 004c 2370     		strb	r3, [r4]
 11129 004e EBE7     		b	.L1346
 11131              		.section	.text.ism330dhcx_mag_x_orient_set,"ax",%progbits
 11132              		.align	1
 11133              		.global	ism330dhcx_mag_x_orient_set
 11134              		.syntax unified
 11135              		.thumb
 11136              		.thumb_func
 11138              	ism330dhcx_mag_x_orient_set:
 11139              		@ args = 0, pretend = 0, frame = 8
 11140              		@ frame_needed = 0, uses_anonymous_args = 0
 11141 0000 30B5     		push	{r4, r5, lr}
 11142 0002 83B0     		sub	sp, sp, #12
 11143 0004 0446     		mov	r4, r0
 11144 0006 0D46     		mov	r5, r1
 11145 0008 01AA     		add	r2, sp, #4
 11146 000a D521     		movs	r1, #213
 11147 000c FFF7FEFF 		bl	ism330dhcx_ln_pg_read_byte
 11148 0010 08B1     		cbz	r0, .L1360
 11149              	.L1357:
ARM GAS  C:\Temp\cclPUGyV.s 			page 187


 11150 0012 03B0     		add	sp, sp, #12
 11151              		@ sp needed
 11152 0014 30BD     		pop	{r4, r5, pc}
 11153              	.L1360:
 11154 0016 9DF80430 		ldrb	r3, [sp, #4]	@ zero_extendqisi2
 11155 001a 65F30203 		bfi	r3, r5, #0, #3
 11156 001e 8DF80430 		strb	r3, [sp, #4]
 11157 0022 01AA     		add	r2, sp, #4
 11158 0024 D521     		movs	r1, #213
 11159 0026 2046     		mov	r0, r4
 11160 0028 FFF7FEFF 		bl	ism330dhcx_ln_pg_write_byte
 11161 002c F1E7     		b	.L1357
 11163              		.section	.text.ism330dhcx_mag_x_orient_get,"ax",%progbits
 11164              		.align	1
 11165              		.global	ism330dhcx_mag_x_orient_get
 11166              		.syntax unified
 11167              		.thumb
 11168              		.thumb_func
 11170              	ism330dhcx_mag_x_orient_get:
 11171              		@ args = 0, pretend = 0, frame = 8
 11172              		@ frame_needed = 0, uses_anonymous_args = 0
 11173 0000 10B5     		push	{r4, lr}
 11174 0002 82B0     		sub	sp, sp, #8
 11175 0004 0C46     		mov	r4, r1
 11176 0006 01AA     		add	r2, sp, #4
 11177 0008 D521     		movs	r1, #213
 11178 000a FFF7FEFF 		bl	ism330dhcx_ln_pg_read_byte
 11179 000e 9DF80430 		ldrb	r3, [sp, #4]	@ zero_extendqisi2
 11180 0012 03F00703 		and	r3, r3, #7
 11181 0016 052B     		cmp	r3, #5
 11182 0018 17D8     		bhi	.L1362
 11183 001a DFE803F0 		tbb	[pc, r3]
 11184              	.L1364:
 11185 001e 03       		.byte	(.L1369-.L1364)/2
 11186 001f 07       		.byte	(.L1368-.L1364)/2
 11187 0020 0A       		.byte	(.L1367-.L1364)/2
 11188 0021 0D       		.byte	(.L1366-.L1364)/2
 11189 0022 10       		.byte	(.L1365-.L1364)/2
 11190 0023 13       		.byte	(.L1363-.L1364)/2
 11191              		.p2align 1
 11192              	.L1369:
 11193 0024 0023     		movs	r3, #0
 11194 0026 2370     		strb	r3, [r4]
 11195              	.L1361:
 11196 0028 02B0     		add	sp, sp, #8
 11197              		@ sp needed
 11198 002a 10BD     		pop	{r4, pc}
 11199              	.L1368:
 11200 002c 0123     		movs	r3, #1
 11201 002e 2370     		strb	r3, [r4]
 11202 0030 FAE7     		b	.L1361
 11203              	.L1367:
 11204 0032 0223     		movs	r3, #2
 11205 0034 2370     		strb	r3, [r4]
 11206 0036 F7E7     		b	.L1361
 11207              	.L1366:
 11208 0038 0323     		movs	r3, #3
ARM GAS  C:\Temp\cclPUGyV.s 			page 188


 11209 003a 2370     		strb	r3, [r4]
 11210 003c F4E7     		b	.L1361
 11211              	.L1365:
 11212 003e 0423     		movs	r3, #4
 11213 0040 2370     		strb	r3, [r4]
 11214 0042 F1E7     		b	.L1361
 11215              	.L1363:
 11216 0044 0523     		movs	r3, #5
 11217 0046 2370     		strb	r3, [r4]
 11218 0048 EEE7     		b	.L1361
 11219              	.L1362:
 11220 004a 0023     		movs	r3, #0
 11221 004c 2370     		strb	r3, [r4]
 11222 004e EBE7     		b	.L1361
 11224              		.section	.text.ism330dhcx_long_cnt_flag_data_ready_get,"ax",%progbits
 11225              		.align	1
 11226              		.global	ism330dhcx_long_cnt_flag_data_ready_get
 11227              		.syntax unified
 11228              		.thumb
 11229              		.thumb_func
 11231              	ism330dhcx_long_cnt_flag_data_ready_get:
 11232              		@ args = 0, pretend = 0, frame = 8
 11233              		@ frame_needed = 0, uses_anonymous_args = 0
 11234 0000 30B5     		push	{r4, r5, lr}
 11235 0002 83B0     		sub	sp, sp, #12
 11236 0004 0446     		mov	r4, r0
 11237 0006 0D46     		mov	r5, r1
 11238 0008 0221     		movs	r1, #2
 11239 000a FFF7FEFF 		bl	ism330dhcx_mem_bank_set
 11240 000e 08B1     		cbz	r0, .L1375
 11241              	.L1372:
 11242 0010 03B0     		add	sp, sp, #12
 11243              		@ sp needed
 11244 0012 30BD     		pop	{r4, r5, pc}
 11245              	.L1375:
 11246 0014 0123     		movs	r3, #1
 11247 0016 01AA     		add	r2, sp, #4
 11248 0018 1221     		movs	r1, #18
 11249 001a 2046     		mov	r0, r4
 11250 001c FFF7FEFF 		bl	ism330dhcx_read_reg
 11251 0020 0028     		cmp	r0, #0
 11252 0022 F5D1     		bne	.L1372
 11253 0024 9DF80430 		ldrb	r3, [sp, #4]	@ zero_extendqisi2
 11254 0028 C3F3C013 		ubfx	r3, r3, #7, #1
 11255 002c 2B70     		strb	r3, [r5]
 11256 002e 0021     		movs	r1, #0
 11257 0030 2046     		mov	r0, r4
 11258 0032 FFF7FEFF 		bl	ism330dhcx_mem_bank_set
 11259 0036 EBE7     		b	.L1372
 11261              		.section	.text.ism330dhcx_emb_fsm_en_set,"ax",%progbits
 11262              		.align	1
 11263              		.global	ism330dhcx_emb_fsm_en_set
 11264              		.syntax unified
 11265              		.thumb
 11266              		.thumb_func
 11268              	ism330dhcx_emb_fsm_en_set:
 11269              		@ args = 0, pretend = 0, frame = 8
ARM GAS  C:\Temp\cclPUGyV.s 			page 189


 11270              		@ frame_needed = 0, uses_anonymous_args = 0
 11271 0000 30B5     		push	{r4, r5, lr}
 11272 0002 83B0     		sub	sp, sp, #12
 11273 0004 0446     		mov	r4, r0
 11274 0006 0D46     		mov	r5, r1
 11275 0008 0221     		movs	r1, #2
 11276 000a FFF7FEFF 		bl	ism330dhcx_mem_bank_set
 11277 000e 0346     		mov	r3, r0
 11278 0010 18B1     		cbz	r0, .L1380
 11279              	.L1377:
 11280 0012 CBB1     		cbz	r3, .L1381
 11281              	.L1376:
 11282 0014 1846     		mov	r0, r3
 11283 0016 03B0     		add	sp, sp, #12
 11284              		@ sp needed
 11285 0018 30BD     		pop	{r4, r5, pc}
 11286              	.L1380:
 11287 001a 0123     		movs	r3, #1
 11288 001c 01AA     		add	r2, sp, #4
 11289 001e 0521     		movs	r1, #5
 11290 0020 2046     		mov	r0, r4
 11291 0022 FFF7FEFF 		bl	ism330dhcx_read_reg
 11292 0026 0346     		mov	r3, r0
 11293 0028 0028     		cmp	r0, #0
 11294 002a F3D1     		bne	.L1376
 11295 002c 9DF80430 		ldrb	r3, [sp, #4]	@ zero_extendqisi2
 11296 0030 65F30003 		bfi	r3, r5, #0, #1
 11297 0034 8DF80430 		strb	r3, [sp, #4]
 11298 0038 0123     		movs	r3, #1
 11299 003a 01AA     		add	r2, sp, #4
 11300 003c 0521     		movs	r1, #5
 11301 003e 2046     		mov	r0, r4
 11302 0040 FFF7FEFF 		bl	ism330dhcx_write_reg
 11303 0044 0346     		mov	r3, r0
 11304 0046 E4E7     		b	.L1377
 11305              	.L1381:
 11306 0048 0021     		movs	r1, #0
 11307 004a 2046     		mov	r0, r4
 11308 004c FFF7FEFF 		bl	ism330dhcx_mem_bank_set
 11309 0050 0346     		mov	r3, r0
 11310 0052 DFE7     		b	.L1376
 11312              		.section	.text.ism330dhcx_emb_fsm_en_get,"ax",%progbits
 11313              		.align	1
 11314              		.global	ism330dhcx_emb_fsm_en_get
 11315              		.syntax unified
 11316              		.thumb
 11317              		.thumb_func
 11319              	ism330dhcx_emb_fsm_en_get:
 11320              		@ args = 0, pretend = 0, frame = 8
 11321              		@ frame_needed = 0, uses_anonymous_args = 0
 11322 0000 30B5     		push	{r4, r5, lr}
 11323 0002 83B0     		sub	sp, sp, #12
 11324 0004 0546     		mov	r5, r0
 11325 0006 0C46     		mov	r4, r1
 11326 0008 0221     		movs	r1, #2
 11327 000a FFF7FEFF 		bl	ism330dhcx_mem_bank_set
 11328 000e 0346     		mov	r3, r0
ARM GAS  C:\Temp\cclPUGyV.s 			page 190


 11329 0010 18B1     		cbz	r0, .L1386
 11330              	.L1383:
 11331 0012 C3B1     		cbz	r3, .L1387
 11332              	.L1382:
 11333 0014 1846     		mov	r0, r3
 11334 0016 03B0     		add	sp, sp, #12
 11335              		@ sp needed
 11336 0018 30BD     		pop	{r4, r5, pc}
 11337              	.L1386:
 11338 001a 0123     		movs	r3, #1
 11339 001c 01AA     		add	r2, sp, #4
 11340 001e 0521     		movs	r1, #5
 11341 0020 2846     		mov	r0, r5
 11342 0022 FFF7FEFF 		bl	ism330dhcx_read_reg
 11343 0026 0346     		mov	r3, r0
 11344 0028 0028     		cmp	r0, #0
 11345 002a F3D1     		bne	.L1382
 11346 002c 9DF80430 		ldrb	r3, [sp, #4]	@ zero_extendqisi2
 11347 0030 C3F30003 		ubfx	r3, r3, #0, #1
 11348 0034 2370     		strb	r3, [r4]
 11349 0036 0123     		movs	r3, #1
 11350 0038 01AA     		add	r2, sp, #4
 11351 003a 0521     		movs	r1, #5
 11352 003c 2846     		mov	r0, r5
 11353 003e FFF7FEFF 		bl	ism330dhcx_write_reg
 11354 0042 0346     		mov	r3, r0
 11355 0044 E5E7     		b	.L1383
 11356              	.L1387:
 11357 0046 0021     		movs	r1, #0
 11358 0048 2846     		mov	r0, r5
 11359 004a FFF7FEFF 		bl	ism330dhcx_mem_bank_set
 11360 004e 0346     		mov	r3, r0
 11361 0050 E0E7     		b	.L1382
 11363              		.section	.text.ism330dhcx_fsm_enable_set,"ax",%progbits
 11364              		.align	1
 11365              		.global	ism330dhcx_fsm_enable_set
 11366              		.syntax unified
 11367              		.thumb
 11368              		.thumb_func
 11370              	ism330dhcx_fsm_enable_set:
 11371              		@ args = 0, pretend = 0, frame = 8
 11372              		@ frame_needed = 0, uses_anonymous_args = 0
 11373 0000 30B5     		push	{r4, r5, lr}
 11374 0002 83B0     		sub	sp, sp, #12
 11375 0004 0446     		mov	r4, r0
 11376 0006 0D46     		mov	r5, r1
 11377 0008 0221     		movs	r1, #2
 11378 000a FFF7FEFF 		bl	ism330dhcx_mem_bank_set
 11379 000e 0346     		mov	r3, r0
 11380 0010 18B1     		cbz	r0, .L1394
 11381              	.L1389:
 11382 0012 9BB1     		cbz	r3, .L1395
 11383              	.L1388:
 11384 0014 1846     		mov	r0, r3
 11385 0016 03B0     		add	sp, sp, #12
 11386              		@ sp needed
 11387 0018 30BD     		pop	{r4, r5, pc}
ARM GAS  C:\Temp\cclPUGyV.s 			page 191


 11388              	.L1394:
 11389 001a 0123     		movs	r3, #1
 11390 001c 2A46     		mov	r2, r5
 11391 001e 4621     		movs	r1, #70
 11392 0020 2046     		mov	r0, r4
 11393 0022 FFF7FEFF 		bl	ism330dhcx_write_reg
 11394 0026 0346     		mov	r3, r0
 11395 0028 0028     		cmp	r0, #0
 11396 002a F3D1     		bne	.L1388
 11397 002c 0123     		movs	r3, #1
 11398 002e EA18     		adds	r2, r5, r3
 11399 0030 4721     		movs	r1, #71
 11400 0032 2046     		mov	r0, r4
 11401 0034 FFF7FEFF 		bl	ism330dhcx_write_reg
 11402 0038 0346     		mov	r3, r0
 11403 003a EAE7     		b	.L1389
 11404              	.L1395:
 11405 003c 0123     		movs	r3, #1
 11406 003e 01AA     		add	r2, sp, #4
 11407 0040 0521     		movs	r1, #5
 11408 0042 2046     		mov	r0, r4
 11409 0044 FFF7FEFF 		bl	ism330dhcx_read_reg
 11410 0048 0346     		mov	r3, r0
 11411 004a 0028     		cmp	r0, #0
 11412 004c E2D1     		bne	.L1388
 11413 004e 2A78     		ldrb	r2, [r5]	@ zero_extendqisi2
 11414 0050 02F00103 		and	r3, r2, #1
 11415 0054 C2F34001 		ubfx	r1, r2, #1, #1
 11416 0058 0B43     		orrs	r3, r3, r1
 11417 005a C2F38001 		ubfx	r1, r2, #2, #1
 11418 005e 0B43     		orrs	r3, r3, r1
 11419 0060 C2F3C001 		ubfx	r1, r2, #3, #1
 11420 0064 0B43     		orrs	r3, r3, r1
 11421 0066 C2F30011 		ubfx	r1, r2, #4, #1
 11422 006a 0B43     		orrs	r3, r3, r1
 11423 006c C2F34011 		ubfx	r1, r2, #5, #1
 11424 0070 0B43     		orrs	r3, r3, r1
 11425 0072 C2F38011 		ubfx	r1, r2, #6, #1
 11426 0076 0B43     		orrs	r3, r3, r1
 11427 0078 43EAD213 		orr	r3, r3, r2, lsr #7
 11428 007c 6A78     		ldrb	r2, [r5, #1]	@ zero_extendqisi2
 11429 007e 02F00101 		and	r1, r2, #1
 11430 0082 0B43     		orrs	r3, r3, r1
 11431 0084 C2F34001 		ubfx	r1, r2, #1, #1
 11432 0088 0B43     		orrs	r3, r3, r1
 11433 008a C2F38001 		ubfx	r1, r2, #2, #1
 11434 008e 0B43     		orrs	r3, r3, r1
 11435 0090 C2F3C001 		ubfx	r1, r2, #3, #1
 11436 0094 0B43     		orrs	r3, r3, r1
 11437 0096 C2F30011 		ubfx	r1, r2, #4, #1
 11438 009a 0B43     		orrs	r3, r3, r1
 11439 009c C2F34011 		ubfx	r1, r2, #5, #1
 11440 00a0 0B43     		orrs	r3, r3, r1
 11441 00a2 C2F38011 		ubfx	r1, r2, #6, #1
 11442 00a6 0B43     		orrs	r3, r3, r1
 11443 00a8 53EAD213 		orrs	r3, r3, r2, lsr #7
 11444 00ac 14D0     		beq	.L1391
ARM GAS  C:\Temp\cclPUGyV.s 			page 192


 11445 00ae 9DF80430 		ldrb	r3, [sp, #4]	@ zero_extendqisi2
 11446 00b2 43F00103 		orr	r3, r3, #1
 11447 00b6 8DF80430 		strb	r3, [sp, #4]
 11448              	.L1392:
 11449 00ba 0123     		movs	r3, #1
 11450 00bc 01AA     		add	r2, sp, #4
 11451 00be 0521     		movs	r1, #5
 11452 00c0 2046     		mov	r0, r4
 11453 00c2 FFF7FEFF 		bl	ism330dhcx_write_reg
 11454 00c6 0346     		mov	r3, r0
 11455 00c8 0028     		cmp	r0, #0
 11456 00ca A3D1     		bne	.L1388
 11457 00cc 0021     		movs	r1, #0
 11458 00ce 2046     		mov	r0, r4
 11459 00d0 FFF7FEFF 		bl	ism330dhcx_mem_bank_set
 11460 00d4 0346     		mov	r3, r0
 11461 00d6 9DE7     		b	.L1388
 11462              	.L1391:
 11463 00d8 9DF80430 		ldrb	r3, [sp, #4]	@ zero_extendqisi2
 11464 00dc 6FF30003 		bfc	r3, #0, #1
 11465 00e0 8DF80430 		strb	r3, [sp, #4]
 11466 00e4 E9E7     		b	.L1392
 11468              		.section	.text.ism330dhcx_fsm_enable_get,"ax",%progbits
 11469              		.align	1
 11470              		.global	ism330dhcx_fsm_enable_get
 11471              		.syntax unified
 11472              		.thumb
 11473              		.thumb_func
 11475              	ism330dhcx_fsm_enable_get:
 11476              		@ args = 0, pretend = 0, frame = 0
 11477              		@ frame_needed = 0, uses_anonymous_args = 0
 11478 0000 38B5     		push	{r3, r4, r5, lr}
 11479 0002 0446     		mov	r4, r0
 11480 0004 0D46     		mov	r5, r1
 11481 0006 0221     		movs	r1, #2
 11482 0008 FFF7FEFF 		bl	ism330dhcx_mem_bank_set
 11483 000c 0346     		mov	r3, r0
 11484 000e 10B1     		cbz	r0, .L1400
 11485              	.L1397:
 11486 0010 93B1     		cbz	r3, .L1401
 11487              	.L1396:
 11488 0012 1846     		mov	r0, r3
 11489 0014 38BD     		pop	{r3, r4, r5, pc}
 11490              	.L1400:
 11491 0016 0123     		movs	r3, #1
 11492 0018 2A46     		mov	r2, r5
 11493 001a 4621     		movs	r1, #70
 11494 001c 2046     		mov	r0, r4
 11495 001e FFF7FEFF 		bl	ism330dhcx_read_reg
 11496 0022 0346     		mov	r3, r0
 11497 0024 0028     		cmp	r0, #0
 11498 0026 F4D1     		bne	.L1396
 11499 0028 0123     		movs	r3, #1
 11500 002a EA18     		adds	r2, r5, r3
 11501 002c 4721     		movs	r1, #71
 11502 002e 2046     		mov	r0, r4
 11503 0030 FFF7FEFF 		bl	ism330dhcx_read_reg
ARM GAS  C:\Temp\cclPUGyV.s 			page 193


 11504 0034 0346     		mov	r3, r0
 11505 0036 EBE7     		b	.L1397
 11506              	.L1401:
 11507 0038 0021     		movs	r1, #0
 11508 003a 2046     		mov	r0, r4
 11509 003c FFF7FEFF 		bl	ism330dhcx_mem_bank_set
 11510 0040 0346     		mov	r3, r0
 11511 0042 E6E7     		b	.L1396
 11513              		.section	.text.ism330dhcx_long_cnt_set,"ax",%progbits
 11514              		.align	1
 11515              		.global	ism330dhcx_long_cnt_set
 11516              		.syntax unified
 11517              		.thumb
 11518              		.thumb_func
 11520              	ism330dhcx_long_cnt_set:
 11521              		@ args = 0, pretend = 0, frame = 8
 11522              		@ frame_needed = 0, uses_anonymous_args = 0
 11523 0000 10B5     		push	{r4, lr}
 11524 0002 82B0     		sub	sp, sp, #8
 11525 0004 0446     		mov	r4, r0
 11526 0006 0B0A     		lsrs	r3, r1, #8
 11527 0008 8DF80530 		strb	r3, [sp, #5]
 11528 000c 8DF80410 		strb	r1, [sp, #4]
 11529 0010 0221     		movs	r1, #2
 11530 0012 FFF7FEFF 		bl	ism330dhcx_mem_bank_set
 11531 0016 08B1     		cbz	r0, .L1405
 11532              	.L1402:
 11533 0018 02B0     		add	sp, sp, #8
 11534              		@ sp needed
 11535 001a 10BD     		pop	{r4, pc}
 11536              	.L1405:
 11537 001c 0223     		movs	r3, #2
 11538 001e 01AA     		add	r2, sp, #4
 11539 0020 4821     		movs	r1, #72
 11540 0022 2046     		mov	r0, r4
 11541 0024 FFF7FEFF 		bl	ism330dhcx_write_reg
 11542 0028 0028     		cmp	r0, #0
 11543 002a F5D1     		bne	.L1402
 11544 002c 0021     		movs	r1, #0
 11545 002e 2046     		mov	r0, r4
 11546 0030 FFF7FEFF 		bl	ism330dhcx_mem_bank_set
 11547 0034 F0E7     		b	.L1402
 11549              		.section	.text.ism330dhcx_long_cnt_get,"ax",%progbits
 11550              		.align	1
 11551              		.global	ism330dhcx_long_cnt_get
 11552              		.syntax unified
 11553              		.thumb
 11554              		.thumb_func
 11556              	ism330dhcx_long_cnt_get:
 11557              		@ args = 0, pretend = 0, frame = 8
 11558              		@ frame_needed = 0, uses_anonymous_args = 0
 11559 0000 30B5     		push	{r4, r5, lr}
 11560 0002 83B0     		sub	sp, sp, #12
 11561 0004 0546     		mov	r5, r0
 11562 0006 0C46     		mov	r4, r1
 11563 0008 0221     		movs	r1, #2
 11564 000a FFF7FEFF 		bl	ism330dhcx_mem_bank_set
ARM GAS  C:\Temp\cclPUGyV.s 			page 194


 11565 000e 08B1     		cbz	r0, .L1409
 11566              	.L1406:
 11567 0010 03B0     		add	sp, sp, #12
 11568              		@ sp needed
 11569 0012 30BD     		pop	{r4, r5, pc}
 11570              	.L1409:
 11571 0014 0223     		movs	r3, #2
 11572 0016 01AA     		add	r2, sp, #4
 11573 0018 4821     		movs	r1, #72
 11574 001a 2846     		mov	r0, r5
 11575 001c FFF7FEFF 		bl	ism330dhcx_read_reg
 11576 0020 9DF80510 		ldrb	r1, [sp, #5]	@ zero_extendqisi2
 11577 0024 2180     		strh	r1, [r4]	@ movhi
 11578 0026 9DF80430 		ldrb	r3, [sp, #4]	@ zero_extendqisi2
 11579 002a 03EB0123 		add	r3, r3, r1, lsl #8
 11580 002e 2380     		strh	r3, [r4]	@ movhi
 11581 0030 0028     		cmp	r0, #0
 11582 0032 EDD1     		bne	.L1406
 11583 0034 0021     		movs	r1, #0
 11584 0036 2846     		mov	r0, r5
 11585 0038 FFF7FEFF 		bl	ism330dhcx_mem_bank_set
 11586 003c E8E7     		b	.L1406
 11588              		.section	.text.ism330dhcx_long_clr_set,"ax",%progbits
 11589              		.align	1
 11590              		.global	ism330dhcx_long_clr_set
 11591              		.syntax unified
 11592              		.thumb
 11593              		.thumb_func
 11595              	ism330dhcx_long_clr_set:
 11596              		@ args = 0, pretend = 0, frame = 8
 11597              		@ frame_needed = 0, uses_anonymous_args = 0
 11598 0000 30B5     		push	{r4, r5, lr}
 11599 0002 83B0     		sub	sp, sp, #12
 11600 0004 0446     		mov	r4, r0
 11601 0006 0D46     		mov	r5, r1
 11602 0008 0221     		movs	r1, #2
 11603 000a FFF7FEFF 		bl	ism330dhcx_mem_bank_set
 11604 000e 0346     		mov	r3, r0
 11605 0010 18B1     		cbz	r0, .L1414
 11606              	.L1411:
 11607 0012 CBB1     		cbz	r3, .L1415
 11608              	.L1410:
 11609 0014 1846     		mov	r0, r3
 11610 0016 03B0     		add	sp, sp, #12
 11611              		@ sp needed
 11612 0018 30BD     		pop	{r4, r5, pc}
 11613              	.L1414:
 11614 001a 0123     		movs	r3, #1
 11615 001c 01AA     		add	r2, sp, #4
 11616 001e 4A21     		movs	r1, #74
 11617 0020 2046     		mov	r0, r4
 11618 0022 FFF7FEFF 		bl	ism330dhcx_read_reg
 11619 0026 0346     		mov	r3, r0
 11620 0028 0028     		cmp	r0, #0
 11621 002a F3D1     		bne	.L1410
 11622 002c 9DF80430 		ldrb	r3, [sp, #4]	@ zero_extendqisi2
 11623 0030 65F30103 		bfi	r3, r5, #0, #2
ARM GAS  C:\Temp\cclPUGyV.s 			page 195


 11624 0034 8DF80430 		strb	r3, [sp, #4]
 11625 0038 0123     		movs	r3, #1
 11626 003a 01AA     		add	r2, sp, #4
 11627 003c 4A21     		movs	r1, #74
 11628 003e 2046     		mov	r0, r4
 11629 0040 FFF7FEFF 		bl	ism330dhcx_write_reg
 11630 0044 0346     		mov	r3, r0
 11631 0046 E4E7     		b	.L1411
 11632              	.L1415:
 11633 0048 0021     		movs	r1, #0
 11634 004a 2046     		mov	r0, r4
 11635 004c FFF7FEFF 		bl	ism330dhcx_mem_bank_set
 11636 0050 0346     		mov	r3, r0
 11637 0052 DFE7     		b	.L1410
 11639              		.section	.text.ism330dhcx_long_clr_get,"ax",%progbits
 11640              		.align	1
 11641              		.global	ism330dhcx_long_clr_get
 11642              		.syntax unified
 11643              		.thumb
 11644              		.thumb_func
 11646              	ism330dhcx_long_clr_get:
 11647              		@ args = 0, pretend = 0, frame = 8
 11648              		@ frame_needed = 0, uses_anonymous_args = 0
 11649 0000 30B5     		push	{r4, r5, lr}
 11650 0002 83B0     		sub	sp, sp, #12
 11651 0004 0546     		mov	r5, r0
 11652 0006 0C46     		mov	r4, r1
 11653 0008 0221     		movs	r1, #2
 11654 000a FFF7FEFF 		bl	ism330dhcx_mem_bank_set
 11655 000e 58B1     		cbz	r0, .L1423
 11656              	.L1417:
 11657 0010 9DF80430 		ldrb	r3, [sp, #4]	@ zero_extendqisi2
 11658 0014 03F00303 		and	r3, r3, #3
 11659 0018 012B     		cmp	r3, #1
 11660 001a 15D0     		beq	.L1418
 11661 001c 022B     		cmp	r3, #2
 11662 001e 16D0     		beq	.L1419
 11663 0020 7BB1     		cbz	r3, .L1424
 11664 0022 0023     		movs	r3, #0
 11665 0024 2370     		strb	r3, [r4]
 11666 0026 0DE0     		b	.L1416
 11667              	.L1423:
 11668 0028 0123     		movs	r3, #1
 11669 002a 01AA     		add	r2, sp, #4
 11670 002c 4A21     		movs	r1, #74
 11671 002e 2846     		mov	r0, r5
 11672 0030 FFF7FEFF 		bl	ism330dhcx_read_reg
 11673 0034 0028     		cmp	r0, #0
 11674 0036 EBD1     		bne	.L1417
 11675 0038 0021     		movs	r1, #0
 11676 003a 2846     		mov	r0, r5
 11677 003c FFF7FEFF 		bl	ism330dhcx_mem_bank_set
 11678 0040 E6E7     		b	.L1417
 11679              	.L1424:
 11680 0042 2370     		strb	r3, [r4]
 11681              	.L1416:
 11682 0044 03B0     		add	sp, sp, #12
ARM GAS  C:\Temp\cclPUGyV.s 			page 196


 11683              		@ sp needed
 11684 0046 30BD     		pop	{r4, r5, pc}
 11685              	.L1418:
 11686 0048 0123     		movs	r3, #1
 11687 004a 2370     		strb	r3, [r4]
 11688 004c FAE7     		b	.L1416
 11689              	.L1419:
 11690 004e 0223     		movs	r3, #2
 11691 0050 2370     		strb	r3, [r4]
 11692 0052 F7E7     		b	.L1416
 11694              		.section	.text.ism330dhcx_fsm_out_get,"ax",%progbits
 11695              		.align	1
 11696              		.global	ism330dhcx_fsm_out_get
 11697              		.syntax unified
 11698              		.thumb
 11699              		.thumb_func
 11701              	ism330dhcx_fsm_out_get:
 11702              		@ args = 0, pretend = 0, frame = 0
 11703              		@ frame_needed = 0, uses_anonymous_args = 0
 11704 0000 38B5     		push	{r3, r4, r5, lr}
 11705 0002 0446     		mov	r4, r0
 11706 0004 0D46     		mov	r5, r1
 11707 0006 0221     		movs	r1, #2
 11708 0008 FFF7FEFF 		bl	ism330dhcx_mem_bank_set
 11709 000c 00B1     		cbz	r0, .L1428
 11710              	.L1425:
 11711 000e 38BD     		pop	{r3, r4, r5, pc}
 11712              	.L1428:
 11713 0010 1023     		movs	r3, #16
 11714 0012 2A46     		mov	r2, r5
 11715 0014 4C21     		movs	r1, #76
 11716 0016 2046     		mov	r0, r4
 11717 0018 FFF7FEFF 		bl	ism330dhcx_read_reg
 11718 001c 0028     		cmp	r0, #0
 11719 001e F6D1     		bne	.L1425
 11720 0020 0021     		movs	r1, #0
 11721 0022 2046     		mov	r0, r4
 11722 0024 FFF7FEFF 		bl	ism330dhcx_mem_bank_set
 11723 0028 F1E7     		b	.L1425
 11725              		.section	.text.ism330dhcx_fsm_data_rate_set,"ax",%progbits
 11726              		.align	1
 11727              		.global	ism330dhcx_fsm_data_rate_set
 11728              		.syntax unified
 11729              		.thumb
 11730              		.thumb_func
 11732              	ism330dhcx_fsm_data_rate_set:
 11733              		@ args = 0, pretend = 0, frame = 8
 11734              		@ frame_needed = 0, uses_anonymous_args = 0
 11735 0000 30B5     		push	{r4, r5, lr}
 11736 0002 83B0     		sub	sp, sp, #12
 11737 0004 0546     		mov	r5, r0
 11738 0006 0C46     		mov	r4, r1
 11739 0008 0221     		movs	r1, #2
 11740 000a FFF7FEFF 		bl	ism330dhcx_mem_bank_set
 11741 000e 0346     		mov	r3, r0
 11742 0010 18B1     		cbz	r0, .L1433
 11743              	.L1430:
ARM GAS  C:\Temp\cclPUGyV.s 			page 197


 11744 0012 23B3     		cbz	r3, .L1434
 11745              	.L1429:
 11746 0014 1846     		mov	r0, r3
 11747 0016 03B0     		add	sp, sp, #12
 11748              		@ sp needed
 11749 0018 30BD     		pop	{r4, r5, pc}
 11750              	.L1433:
 11751 001a 0123     		movs	r3, #1
 11752 001c 01AA     		add	r2, sp, #4
 11753 001e 5F21     		movs	r1, #95
 11754 0020 2846     		mov	r0, r5
 11755 0022 FFF7FEFF 		bl	ism330dhcx_read_reg
 11756 0026 0346     		mov	r3, r0
 11757 0028 0028     		cmp	r0, #0
 11758 002a F3D1     		bne	.L1429
 11759 002c 9DF80430 		ldrb	r3, [sp, #4]	@ zero_extendqisi2
 11760 0030 0322     		movs	r2, #3
 11761 0032 62F30203 		bfi	r3, r2, #0, #3
 11762 0036 8DF80430 		strb	r3, [sp, #4]
 11763 003a DAB2     		uxtb	r2, r3
 11764 003c 0123     		movs	r3, #1
 11765 003e 63F34712 		bfi	r2, r3, #5, #3
 11766 0042 8DF80420 		strb	r2, [sp, #4]
 11767 0046 D2B2     		uxtb	r2, r2
 11768 0048 64F3C402 		bfi	r2, r4, #3, #2
 11769 004c 8DF80420 		strb	r2, [sp, #4]
 11770 0050 01AA     		add	r2, sp, #4
 11771 0052 5F21     		movs	r1, #95
 11772 0054 2846     		mov	r0, r5
 11773 0056 FFF7FEFF 		bl	ism330dhcx_write_reg
 11774 005a 0346     		mov	r3, r0
 11775 005c D9E7     		b	.L1430
 11776              	.L1434:
 11777 005e 0021     		movs	r1, #0
 11778 0060 2846     		mov	r0, r5
 11779 0062 FFF7FEFF 		bl	ism330dhcx_mem_bank_set
 11780 0066 0346     		mov	r3, r0
 11781 0068 D4E7     		b	.L1429
 11783              		.section	.text.ism330dhcx_fsm_data_rate_get,"ax",%progbits
 11784              		.align	1
 11785              		.global	ism330dhcx_fsm_data_rate_get
 11786              		.syntax unified
 11787              		.thumb
 11788              		.thumb_func
 11790              	ism330dhcx_fsm_data_rate_get:
 11791              		@ args = 0, pretend = 0, frame = 8
 11792              		@ frame_needed = 0, uses_anonymous_args = 0
 11793 0000 30B5     		push	{r4, r5, lr}
 11794 0002 83B0     		sub	sp, sp, #12
 11795 0004 0446     		mov	r4, r0
 11796 0006 0D46     		mov	r5, r1
 11797 0008 0221     		movs	r1, #2
 11798 000a FFF7FEFF 		bl	ism330dhcx_mem_bank_set
 11799 000e 48B1     		cbz	r0, .L1445
 11800              	.L1436:
 11801 0010 9DF80430 		ldrb	r3, [sp, #4]	@ zero_extendqisi2
 11802 0014 C3F3C103 		ubfx	r3, r3, #3, #2
ARM GAS  C:\Temp\cclPUGyV.s 			page 198


 11803 0018 032B     		cmp	r3, #3
 11804 001a 1DD8     		bhi	.L1437
 11805 001c DFE803F0 		tbb	[pc, r3]
 11806              	.L1439:
 11807 0020 0F       		.byte	(.L1442-.L1439)/2
 11808 0021 13       		.byte	(.L1441-.L1439)/2
 11809 0022 16       		.byte	(.L1440-.L1439)/2
 11810 0023 19       		.byte	(.L1438-.L1439)/2
 11811              		.p2align 1
 11812              	.L1445:
 11813 0024 0123     		movs	r3, #1
 11814 0026 01AA     		add	r2, sp, #4
 11815 0028 5F21     		movs	r1, #95
 11816 002a 2046     		mov	r0, r4
 11817 002c FFF7FEFF 		bl	ism330dhcx_read_reg
 11818 0030 0028     		cmp	r0, #0
 11819 0032 EDD1     		bne	.L1436
 11820 0034 0021     		movs	r1, #0
 11821 0036 2046     		mov	r0, r4
 11822 0038 FFF7FEFF 		bl	ism330dhcx_mem_bank_set
 11823 003c E8E7     		b	.L1436
 11824              	.L1442:
 11825 003e 0023     		movs	r3, #0
 11826 0040 2B70     		strb	r3, [r5]
 11827              	.L1435:
 11828 0042 03B0     		add	sp, sp, #12
 11829              		@ sp needed
 11830 0044 30BD     		pop	{r4, r5, pc}
 11831              	.L1441:
 11832 0046 0123     		movs	r3, #1
 11833 0048 2B70     		strb	r3, [r5]
 11834 004a FAE7     		b	.L1435
 11835              	.L1440:
 11836 004c 0223     		movs	r3, #2
 11837 004e 2B70     		strb	r3, [r5]
 11838 0050 F7E7     		b	.L1435
 11839              	.L1438:
 11840 0052 0323     		movs	r3, #3
 11841 0054 2B70     		strb	r3, [r5]
 11842 0056 F4E7     		b	.L1435
 11843              	.L1437:
 11844 0058 0023     		movs	r3, #0
 11845 005a 2B70     		strb	r3, [r5]
 11846 005c F1E7     		b	.L1435
 11848              		.section	.text.ism330dhcx_fsm_init_set,"ax",%progbits
 11849              		.align	1
 11850              		.global	ism330dhcx_fsm_init_set
 11851              		.syntax unified
 11852              		.thumb
 11853              		.thumb_func
 11855              	ism330dhcx_fsm_init_set:
 11856              		@ args = 0, pretend = 0, frame = 8
 11857              		@ frame_needed = 0, uses_anonymous_args = 0
 11858 0000 30B5     		push	{r4, r5, lr}
 11859 0002 83B0     		sub	sp, sp, #12
 11860 0004 0446     		mov	r4, r0
 11861 0006 0D46     		mov	r5, r1
ARM GAS  C:\Temp\cclPUGyV.s 			page 199


 11862 0008 0221     		movs	r1, #2
 11863 000a FFF7FEFF 		bl	ism330dhcx_mem_bank_set
 11864 000e 0346     		mov	r3, r0
 11865 0010 18B1     		cbz	r0, .L1450
 11866              	.L1447:
 11867 0012 CBB1     		cbz	r3, .L1451
 11868              	.L1446:
 11869 0014 1846     		mov	r0, r3
 11870 0016 03B0     		add	sp, sp, #12
 11871              		@ sp needed
 11872 0018 30BD     		pop	{r4, r5, pc}
 11873              	.L1450:
 11874 001a 0123     		movs	r3, #1
 11875 001c 01AA     		add	r2, sp, #4
 11876 001e 6721     		movs	r1, #103
 11877 0020 2046     		mov	r0, r4
 11878 0022 FFF7FEFF 		bl	ism330dhcx_read_reg
 11879 0026 0346     		mov	r3, r0
 11880 0028 0028     		cmp	r0, #0
 11881 002a F3D1     		bne	.L1446
 11882 002c 9DF80430 		ldrb	r3, [sp, #4]	@ zero_extendqisi2
 11883 0030 65F30003 		bfi	r3, r5, #0, #1
 11884 0034 8DF80430 		strb	r3, [sp, #4]
 11885 0038 0123     		movs	r3, #1
 11886 003a 01AA     		add	r2, sp, #4
 11887 003c 6721     		movs	r1, #103
 11888 003e 2046     		mov	r0, r4
 11889 0040 FFF7FEFF 		bl	ism330dhcx_write_reg
 11890 0044 0346     		mov	r3, r0
 11891 0046 E4E7     		b	.L1447
 11892              	.L1451:
 11893 0048 0021     		movs	r1, #0
 11894 004a 2046     		mov	r0, r4
 11895 004c FFF7FEFF 		bl	ism330dhcx_mem_bank_set
 11896 0050 0346     		mov	r3, r0
 11897 0052 DFE7     		b	.L1446
 11899              		.section	.text.ism330dhcx_fsm_init_get,"ax",%progbits
 11900              		.align	1
 11901              		.global	ism330dhcx_fsm_init_get
 11902              		.syntax unified
 11903              		.thumb
 11904              		.thumb_func
 11906              	ism330dhcx_fsm_init_get:
 11907              		@ args = 0, pretend = 0, frame = 8
 11908              		@ frame_needed = 0, uses_anonymous_args = 0
 11909 0000 30B5     		push	{r4, r5, lr}
 11910 0002 83B0     		sub	sp, sp, #12
 11911 0004 0446     		mov	r4, r0
 11912 0006 0D46     		mov	r5, r1
 11913 0008 0221     		movs	r1, #2
 11914 000a FFF7FEFF 		bl	ism330dhcx_mem_bank_set
 11915 000e 08B1     		cbz	r0, .L1455
 11916              	.L1452:
 11917 0010 03B0     		add	sp, sp, #12
 11918              		@ sp needed
 11919 0012 30BD     		pop	{r4, r5, pc}
 11920              	.L1455:
ARM GAS  C:\Temp\cclPUGyV.s 			page 200


 11921 0014 0123     		movs	r3, #1
 11922 0016 01AA     		add	r2, sp, #4
 11923 0018 6721     		movs	r1, #103
 11924 001a 2046     		mov	r0, r4
 11925 001c FFF7FEFF 		bl	ism330dhcx_read_reg
 11926 0020 0028     		cmp	r0, #0
 11927 0022 F5D1     		bne	.L1452
 11928 0024 9DF80430 		ldrb	r3, [sp, #4]	@ zero_extendqisi2
 11929 0028 C3F30003 		ubfx	r3, r3, #0, #1
 11930 002c 2B70     		strb	r3, [r5]
 11931 002e 0021     		movs	r1, #0
 11932 0030 2046     		mov	r0, r4
 11933 0032 FFF7FEFF 		bl	ism330dhcx_mem_bank_set
 11934 0036 EBE7     		b	.L1452
 11936              		.section	.text.ism330dhcx_long_cnt_int_value_set,"ax",%progbits
 11937              		.align	1
 11938              		.global	ism330dhcx_long_cnt_int_value_set
 11939              		.syntax unified
 11940              		.thumb
 11941              		.thumb_func
 11943              	ism330dhcx_long_cnt_int_value_set:
 11944              		@ args = 0, pretend = 0, frame = 8
 11945              		@ frame_needed = 0, uses_anonymous_args = 0
 11946 0000 10B5     		push	{r4, lr}
 11947 0002 82B0     		sub	sp, sp, #8
 11948 0004 0446     		mov	r4, r0
 11949 0006 0B0A     		lsrs	r3, r1, #8
 11950 0008 8DF80530 		strb	r3, [sp, #5]
 11951 000c 8DF80410 		strb	r1, [sp, #4]
 11952 0010 01AA     		add	r2, sp, #4
 11953 0012 4FF4BD71 		mov	r1, #378
 11954 0016 FFF7FEFF 		bl	ism330dhcx_ln_pg_write_byte
 11955 001a 08B1     		cbz	r0, .L1459
 11956              	.L1456:
 11957 001c 02B0     		add	sp, sp, #8
 11958              		@ sp needed
 11959 001e 10BD     		pop	{r4, pc}
 11960              	.L1459:
 11961 0020 0DF10502 		add	r2, sp, #5
 11962 0024 40F27B11 		movw	r1, #379
 11963 0028 2046     		mov	r0, r4
 11964 002a FFF7FEFF 		bl	ism330dhcx_ln_pg_write_byte
 11965 002e F5E7     		b	.L1456
 11967              		.section	.text.ism330dhcx_long_cnt_int_value_get,"ax",%progbits
 11968              		.align	1
 11969              		.global	ism330dhcx_long_cnt_int_value_get
 11970              		.syntax unified
 11971              		.thumb
 11972              		.thumb_func
 11974              	ism330dhcx_long_cnt_int_value_get:
 11975              		@ args = 0, pretend = 0, frame = 8
 11976              		@ frame_needed = 0, uses_anonymous_args = 0
 11977 0000 30B5     		push	{r4, r5, lr}
 11978 0002 83B0     		sub	sp, sp, #12
 11979 0004 0546     		mov	r5, r0
 11980 0006 0C46     		mov	r4, r1
 11981 0008 01AA     		add	r2, sp, #4
ARM GAS  C:\Temp\cclPUGyV.s 			page 201


 11982 000a 4FF4BD71 		mov	r1, #378
 11983 000e FFF7FEFF 		bl	ism330dhcx_ln_pg_read_byte
 11984 0012 08B1     		cbz	r0, .L1463
 11985              	.L1460:
 11986 0014 03B0     		add	sp, sp, #12
 11987              		@ sp needed
 11988 0016 30BD     		pop	{r4, r5, pc}
 11989              	.L1463:
 11990 0018 0DF10502 		add	r2, sp, #5
 11991 001c 40F27B11 		movw	r1, #379
 11992 0020 2846     		mov	r0, r5
 11993 0022 FFF7FEFF 		bl	ism330dhcx_ln_pg_read_byte
 11994 0026 9DF80520 		ldrb	r2, [sp, #5]	@ zero_extendqisi2
 11995 002a 2280     		strh	r2, [r4]	@ movhi
 11996 002c 9DF80430 		ldrb	r3, [sp, #4]	@ zero_extendqisi2
 11997 0030 03EB0223 		add	r3, r3, r2, lsl #8
 11998 0034 2380     		strh	r3, [r4]	@ movhi
 11999 0036 EDE7     		b	.L1460
 12001              		.section	.text.ism330dhcx_fsm_number_of_programs_set,"ax",%progbits
 12002              		.align	1
 12003              		.global	ism330dhcx_fsm_number_of_programs_set
 12004              		.syntax unified
 12005              		.thumb
 12006              		.thumb_func
 12008              	ism330dhcx_fsm_number_of_programs_set:
 12009              		@ args = 0, pretend = 0, frame = 0
 12010              		@ frame_needed = 0, uses_anonymous_args = 0
 12011 0000 38B5     		push	{r3, r4, r5, lr}
 12012 0002 0546     		mov	r5, r0
 12013 0004 0C46     		mov	r4, r1
 12014 0006 0A46     		mov	r2, r1
 12015 0008 4FF4BE71 		mov	r1, #380
 12016 000c FFF7FEFF 		bl	ism330dhcx_ln_pg_write_byte
 12017 0010 00B1     		cbz	r0, .L1467
 12018              	.L1464:
 12019 0012 38BD     		pop	{r3, r4, r5, pc}
 12020              	.L1467:
 12021 0014 2246     		mov	r2, r4
 12022 0016 40F27D11 		movw	r1, #381
 12023 001a 2846     		mov	r0, r5
 12024 001c FFF7FEFF 		bl	ism330dhcx_ln_pg_write_byte
 12025 0020 F7E7     		b	.L1464
 12027              		.section	.text.ism330dhcx_fsm_number_of_programs_get,"ax",%progbits
 12028              		.align	1
 12029              		.global	ism330dhcx_fsm_number_of_programs_get
 12030              		.syntax unified
 12031              		.thumb
 12032              		.thumb_func
 12034              	ism330dhcx_fsm_number_of_programs_get:
 12035              		@ args = 0, pretend = 0, frame = 0
 12036              		@ frame_needed = 0, uses_anonymous_args = 0
 12037 0000 08B5     		push	{r3, lr}
 12038 0002 0A46     		mov	r2, r1
 12039 0004 4FF4BE71 		mov	r1, #380
 12040 0008 FFF7FEFF 		bl	ism330dhcx_ln_pg_read_byte
 12041 000c 08BD     		pop	{r3, pc}
 12043              		.section	.text.ism330dhcx_fsm_start_address_set,"ax",%progbits
ARM GAS  C:\Temp\cclPUGyV.s 			page 202


 12044              		.align	1
 12045              		.global	ism330dhcx_fsm_start_address_set
 12046              		.syntax unified
 12047              		.thumb
 12048              		.thumb_func
 12050              	ism330dhcx_fsm_start_address_set:
 12051              		@ args = 0, pretend = 0, frame = 8
 12052              		@ frame_needed = 0, uses_anonymous_args = 0
 12053 0000 10B5     		push	{r4, lr}
 12054 0002 82B0     		sub	sp, sp, #8
 12055 0004 0446     		mov	r4, r0
 12056 0006 0B0A     		lsrs	r3, r1, #8
 12057 0008 8DF80530 		strb	r3, [sp, #5]
 12058 000c 8DF80410 		strb	r1, [sp, #4]
 12059 0010 01AA     		add	r2, sp, #4
 12060 0012 4FF4BF71 		mov	r1, #382
 12061 0016 FFF7FEFF 		bl	ism330dhcx_ln_pg_write_byte
 12062 001a 08B1     		cbz	r0, .L1473
 12063              	.L1470:
 12064 001c 02B0     		add	sp, sp, #8
 12065              		@ sp needed
 12066 001e 10BD     		pop	{r4, pc}
 12067              	.L1473:
 12068 0020 0DF10502 		add	r2, sp, #5
 12069 0024 40F27F11 		movw	r1, #383
 12070 0028 2046     		mov	r0, r4
 12071 002a FFF7FEFF 		bl	ism330dhcx_ln_pg_write_byte
 12072 002e F5E7     		b	.L1470
 12074              		.section	.text.ism330dhcx_fsm_start_address_get,"ax",%progbits
 12075              		.align	1
 12076              		.global	ism330dhcx_fsm_start_address_get
 12077              		.syntax unified
 12078              		.thumb
 12079              		.thumb_func
 12081              	ism330dhcx_fsm_start_address_get:
 12082              		@ args = 0, pretend = 0, frame = 8
 12083              		@ frame_needed = 0, uses_anonymous_args = 0
 12084 0000 30B5     		push	{r4, r5, lr}
 12085 0002 83B0     		sub	sp, sp, #12
 12086 0004 0546     		mov	r5, r0
 12087 0006 0C46     		mov	r4, r1
 12088 0008 01AA     		add	r2, sp, #4
 12089 000a 4FF4BF71 		mov	r1, #382
 12090 000e FFF7FEFF 		bl	ism330dhcx_ln_pg_read_byte
 12091 0012 08B1     		cbz	r0, .L1477
 12092              	.L1474:
 12093 0014 03B0     		add	sp, sp, #12
 12094              		@ sp needed
 12095 0016 30BD     		pop	{r4, r5, pc}
 12096              	.L1477:
 12097 0018 0DF10502 		add	r2, sp, #5
 12098 001c 40F27F11 		movw	r1, #383
 12099 0020 2846     		mov	r0, r5
 12100 0022 FFF7FEFF 		bl	ism330dhcx_ln_pg_read_byte
 12101 0026 9DF80520 		ldrb	r2, [sp, #5]	@ zero_extendqisi2
 12102 002a 2280     		strh	r2, [r4]	@ movhi
 12103 002c 9DF80430 		ldrb	r3, [sp, #4]	@ zero_extendqisi2
ARM GAS  C:\Temp\cclPUGyV.s 			page 203


 12104 0030 03EB0223 		add	r3, r3, r2, lsl #8
 12105 0034 2380     		strh	r3, [r4]	@ movhi
 12106 0036 EDE7     		b	.L1474
 12108              		.section	.text.ism330dhcx_mlc_set,"ax",%progbits
 12109              		.align	1
 12110              		.global	ism330dhcx_mlc_set
 12111              		.syntax unified
 12112              		.thumb
 12113              		.thumb_func
 12115              	ism330dhcx_mlc_set:
 12116              		@ args = 0, pretend = 0, frame = 8
 12117              		@ frame_needed = 0, uses_anonymous_args = 0
 12118 0000 30B5     		push	{r4, r5, lr}
 12119 0002 83B0     		sub	sp, sp, #12
 12120 0004 0546     		mov	r5, r0
 12121 0006 0C46     		mov	r4, r1
 12122 0008 0221     		movs	r1, #2
 12123 000a FFF7FEFF 		bl	ism330dhcx_mem_bank_set
 12124 000e 0346     		mov	r3, r0
 12125 0010 D0B1     		cbz	r0, .L1483
 12126              	.L1479:
 12127 0012 ACB1     		cbz	r4, .L1480
 12128 0014 ABB9     		cbnz	r3, .L1478
 12129 0016 0123     		movs	r3, #1
 12130 0018 01AA     		add	r2, sp, #4
 12131 001a 6721     		movs	r1, #103
 12132 001c 2846     		mov	r0, r5
 12133 001e FFF7FEFF 		bl	ism330dhcx_read_reg
 12134 0022 0346     		mov	r3, r0
 12135 0024 68B9     		cbnz	r0, .L1478
 12136 0026 9DF80430 		ldrb	r3, [sp, #4]	@ zero_extendqisi2
 12137 002a 64F30413 		bfi	r3, r4, #4, #1
 12138 002e 8DF80430 		strb	r3, [sp, #4]
 12139 0032 0123     		movs	r3, #1
 12140 0034 01AA     		add	r2, sp, #4
 12141 0036 6721     		movs	r1, #103
 12142 0038 2846     		mov	r0, r5
 12143 003a FFF7FEFF 		bl	ism330dhcx_write_reg
 12144 003e 0346     		mov	r3, r0
 12145              	.L1480:
 12146 0040 CBB1     		cbz	r3, .L1484
 12147              	.L1478:
 12148 0042 1846     		mov	r0, r3
 12149 0044 03B0     		add	sp, sp, #12
 12150              		@ sp needed
 12151 0046 30BD     		pop	{r4, r5, pc}
 12152              	.L1483:
 12153 0048 0123     		movs	r3, #1
 12154 004a 01AA     		add	r2, sp, #4
 12155 004c 0521     		movs	r1, #5
 12156 004e 2846     		mov	r0, r5
 12157 0050 FFF7FEFF 		bl	ism330dhcx_read_reg
 12158 0054 0346     		mov	r3, r0
 12159 0056 0028     		cmp	r0, #0
 12160 0058 DBD1     		bne	.L1479
 12161 005a 9DF80430 		ldrb	r3, [sp, #4]	@ zero_extendqisi2
 12162 005e 64F30413 		bfi	r3, r4, #4, #1
ARM GAS  C:\Temp\cclPUGyV.s 			page 204


 12163 0062 8DF80430 		strb	r3, [sp, #4]
 12164 0066 0123     		movs	r3, #1
 12165 0068 01AA     		add	r2, sp, #4
 12166 006a 0521     		movs	r1, #5
 12167 006c 2846     		mov	r0, r5
 12168 006e FFF7FEFF 		bl	ism330dhcx_write_reg
 12169 0072 0346     		mov	r3, r0
 12170 0074 CDE7     		b	.L1479
 12171              	.L1484:
 12172 0076 0021     		movs	r1, #0
 12173 0078 2846     		mov	r0, r5
 12174 007a FFF7FEFF 		bl	ism330dhcx_mem_bank_set
 12175 007e 0346     		mov	r3, r0
 12176 0080 DFE7     		b	.L1478
 12178              		.section	.text.ism330dhcx_mlc_get,"ax",%progbits
 12179              		.align	1
 12180              		.global	ism330dhcx_mlc_get
 12181              		.syntax unified
 12182              		.thumb
 12183              		.thumb_func
 12185              	ism330dhcx_mlc_get:
 12186              		@ args = 0, pretend = 0, frame = 8
 12187              		@ frame_needed = 0, uses_anonymous_args = 0
 12188 0000 30B5     		push	{r4, r5, lr}
 12189 0002 83B0     		sub	sp, sp, #12
 12190 0004 0446     		mov	r4, r0
 12191 0006 0D46     		mov	r5, r1
 12192 0008 0221     		movs	r1, #2
 12193 000a FFF7FEFF 		bl	ism330dhcx_mem_bank_set
 12194 000e 08B1     		cbz	r0, .L1488
 12195              	.L1485:
 12196 0010 03B0     		add	sp, sp, #12
 12197              		@ sp needed
 12198 0012 30BD     		pop	{r4, r5, pc}
 12199              	.L1488:
 12200 0014 0123     		movs	r3, #1
 12201 0016 01AA     		add	r2, sp, #4
 12202 0018 0521     		movs	r1, #5
 12203 001a 2046     		mov	r0, r4
 12204 001c FFF7FEFF 		bl	ism330dhcx_read_reg
 12205 0020 0028     		cmp	r0, #0
 12206 0022 F5D1     		bne	.L1485
 12207 0024 0021     		movs	r1, #0
 12208 0026 2046     		mov	r0, r4
 12209 0028 FFF7FEFF 		bl	ism330dhcx_mem_bank_set
 12210 002c 9DF80430 		ldrb	r3, [sp, #4]	@ zero_extendqisi2
 12211 0030 C3F30013 		ubfx	r3, r3, #4, #1
 12212 0034 2B70     		strb	r3, [r5]
 12213 0036 EBE7     		b	.L1485
 12215              		.section	.text.ism330dhcx_mlc_status_get,"ax",%progbits
 12216              		.align	1
 12217              		.global	ism330dhcx_mlc_status_get
 12218              		.syntax unified
 12219              		.thumb
 12220              		.thumb_func
 12222              	ism330dhcx_mlc_status_get:
 12223              		@ args = 0, pretend = 0, frame = 0
ARM GAS  C:\Temp\cclPUGyV.s 			page 205


 12224              		@ frame_needed = 0, uses_anonymous_args = 0
 12225 0000 08B5     		push	{r3, lr}
 12226 0002 0A46     		mov	r2, r1
 12227 0004 0123     		movs	r3, #1
 12228 0006 3821     		movs	r1, #56
 12229 0008 FFF7FEFF 		bl	ism330dhcx_read_reg
 12230 000c 08BD     		pop	{r3, pc}
 12232              		.section	.text.ism330dhcx_mlc_data_rate_set,"ax",%progbits
 12233              		.align	1
 12234              		.global	ism330dhcx_mlc_data_rate_set
 12235              		.syntax unified
 12236              		.thumb
 12237              		.thumb_func
 12239              	ism330dhcx_mlc_data_rate_set:
 12240              		@ args = 0, pretend = 0, frame = 8
 12241              		@ frame_needed = 0, uses_anonymous_args = 0
 12242 0000 30B5     		push	{r4, r5, lr}
 12243 0002 83B0     		sub	sp, sp, #12
 12244 0004 0446     		mov	r4, r0
 12245 0006 0D46     		mov	r5, r1
 12246 0008 0221     		movs	r1, #2
 12247 000a FFF7FEFF 		bl	ism330dhcx_mem_bank_set
 12248 000e 0346     		mov	r3, r0
 12249 0010 18B1     		cbz	r0, .L1495
 12250              	.L1492:
 12251 0012 CBB1     		cbz	r3, .L1496
 12252              	.L1491:
 12253 0014 1846     		mov	r0, r3
 12254 0016 03B0     		add	sp, sp, #12
 12255              		@ sp needed
 12256 0018 30BD     		pop	{r4, r5, pc}
 12257              	.L1495:
 12258 001a 0123     		movs	r3, #1
 12259 001c 01AA     		add	r2, sp, #4
 12260 001e 6021     		movs	r1, #96
 12261 0020 2046     		mov	r0, r4
 12262 0022 FFF7FEFF 		bl	ism330dhcx_read_reg
 12263 0026 0346     		mov	r3, r0
 12264 0028 0028     		cmp	r0, #0
 12265 002a F3D1     		bne	.L1491
 12266 002c 9DF80430 		ldrb	r3, [sp, #4]	@ zero_extendqisi2
 12267 0030 65F30513 		bfi	r3, r5, #4, #2
 12268 0034 8DF80430 		strb	r3, [sp, #4]
 12269 0038 0123     		movs	r3, #1
 12270 003a 01AA     		add	r2, sp, #4
 12271 003c 6021     		movs	r1, #96
 12272 003e 2046     		mov	r0, r4
 12273 0040 FFF7FEFF 		bl	ism330dhcx_write_reg
 12274 0044 0346     		mov	r3, r0
 12275 0046 E4E7     		b	.L1492
 12276              	.L1496:
 12277 0048 0021     		movs	r1, #0
 12278 004a 2046     		mov	r0, r4
 12279 004c FFF7FEFF 		bl	ism330dhcx_mem_bank_set
 12280 0050 0346     		mov	r3, r0
 12281 0052 DFE7     		b	.L1491
 12283              		.section	.text.ism330dhcx_mlc_data_rate_get,"ax",%progbits
ARM GAS  C:\Temp\cclPUGyV.s 			page 206


 12284              		.align	1
 12285              		.global	ism330dhcx_mlc_data_rate_get
 12286              		.syntax unified
 12287              		.thumb
 12288              		.thumb_func
 12290              	ism330dhcx_mlc_data_rate_get:
 12291              		@ args = 0, pretend = 0, frame = 8
 12292              		@ frame_needed = 0, uses_anonymous_args = 0
 12293 0000 30B5     		push	{r4, r5, lr}
 12294 0002 83B0     		sub	sp, sp, #12
 12295 0004 0546     		mov	r5, r0
 12296 0006 0C46     		mov	r4, r1
 12297 0008 0221     		movs	r1, #2
 12298 000a FFF7FEFF 		bl	ism330dhcx_mem_bank_set
 12299 000e 08B1     		cbz	r0, .L1507
 12300              	.L1497:
 12301 0010 03B0     		add	sp, sp, #12
 12302              		@ sp needed
 12303 0012 30BD     		pop	{r4, r5, pc}
 12304              	.L1507:
 12305 0014 0123     		movs	r3, #1
 12306 0016 01AA     		add	r2, sp, #4
 12307 0018 6021     		movs	r1, #96
 12308 001a 2846     		mov	r0, r5
 12309 001c FFF7FEFF 		bl	ism330dhcx_read_reg
 12310 0020 0028     		cmp	r0, #0
 12311 0022 F5D1     		bne	.L1497
 12312 0024 9DF80430 		ldrb	r3, [sp, #4]	@ zero_extendqisi2
 12313 0028 C3F30113 		ubfx	r3, r3, #4, #2
 12314 002c 032B     		cmp	r3, #3
 12315 002e 13D8     		bhi	.L1499
 12316 0030 DFE803F0 		tbb	[pc, r3]
 12317              	.L1501:
 12318 0034 02       		.byte	(.L1504-.L1501)/2
 12319 0035 09       		.byte	(.L1503-.L1501)/2
 12320 0036 0C       		.byte	(.L1502-.L1501)/2
 12321 0037 0F       		.byte	(.L1500-.L1501)/2
 12322              		.p2align 1
 12323              	.L1504:
 12324 0038 0023     		movs	r3, #0
 12325 003a 2370     		strb	r3, [r4]
 12326              	.L1505:
 12327 003c 0021     		movs	r1, #0
 12328 003e 2846     		mov	r0, r5
 12329 0040 FFF7FEFF 		bl	ism330dhcx_mem_bank_set
 12330 0044 E4E7     		b	.L1497
 12331              	.L1503:
 12332 0046 0123     		movs	r3, #1
 12333 0048 2370     		strb	r3, [r4]
 12334 004a F7E7     		b	.L1505
 12335              	.L1502:
 12336 004c 0223     		movs	r3, #2
 12337 004e 2370     		strb	r3, [r4]
 12338 0050 F4E7     		b	.L1505
 12339              	.L1500:
 12340 0052 0323     		movs	r3, #3
 12341 0054 2370     		strb	r3, [r4]
ARM GAS  C:\Temp\cclPUGyV.s 			page 207


 12342 0056 F1E7     		b	.L1505
 12343              	.L1499:
 12344 0058 0023     		movs	r3, #0
 12345 005a 2370     		strb	r3, [r4]
 12346 005c EEE7     		b	.L1505
 12348              		.section	.text.ism330dhcx_xl_data_rate_set,"ax",%progbits
 12349              		.align	1
 12350              		.global	ism330dhcx_xl_data_rate_set
 12351              		.syntax unified
 12352              		.thumb
 12353              		.thumb_func
 12355              	ism330dhcx_xl_data_rate_set:
 12356              		@ args = 0, pretend = 0, frame = 8
 12357              		@ frame_needed = 0, uses_anonymous_args = 0
 12358 0000 F0B5     		push	{r4, r5, r6, r7, lr}
 12359 0002 83B0     		sub	sp, sp, #12
 12360 0004 0546     		mov	r5, r0
 12361 0006 0C46     		mov	r4, r1
 12362 0008 01A9     		add	r1, sp, #4
 12363 000a FFF7FEFF 		bl	ism330dhcx_fsm_enable_get
 12364 000e 0246     		mov	r2, r0
 12365 0010 0028     		cmp	r0, #0
 12366 0012 60D1     		bne	.L1523
 12367 0014 9DF80410 		ldrb	r1, [sp, #4]	@ zero_extendqisi2
 12368 0018 01F00103 		and	r3, r1, #1
 12369 001c C1F34000 		ubfx	r0, r1, #1, #1
 12370 0020 0343     		orrs	r3, r3, r0
 12371 0022 C1F38000 		ubfx	r0, r1, #2, #1
 12372 0026 0343     		orrs	r3, r3, r0
 12373 0028 C1F3C000 		ubfx	r0, r1, #3, #1
 12374 002c 0343     		orrs	r3, r3, r0
 12375 002e C1F30010 		ubfx	r0, r1, #4, #1
 12376 0032 0343     		orrs	r3, r3, r0
 12377 0034 C1F34010 		ubfx	r0, r1, #5, #1
 12378 0038 0343     		orrs	r3, r3, r0
 12379 003a C1F38010 		ubfx	r0, r1, #6, #1
 12380 003e 0343     		orrs	r3, r3, r0
 12381 0040 43EAD113 		orr	r3, r3, r1, lsr #7
 12382 0044 9DF80510 		ldrb	r1, [sp, #5]	@ zero_extendqisi2
 12383 0048 01F00100 		and	r0, r1, #1
 12384 004c 0343     		orrs	r3, r3, r0
 12385 004e C1F34000 		ubfx	r0, r1, #1, #1
 12386 0052 0343     		orrs	r3, r3, r0
 12387 0054 C1F38000 		ubfx	r0, r1, #2, #1
 12388 0058 0343     		orrs	r3, r3, r0
 12389 005a C1F3C000 		ubfx	r0, r1, #3, #1
 12390 005e 0343     		orrs	r3, r3, r0
 12391 0060 C1F30010 		ubfx	r0, r1, #4, #1
 12392 0064 0343     		orrs	r3, r3, r0
 12393 0066 C1F34010 		ubfx	r0, r1, #5, #1
 12394 006a 0343     		orrs	r3, r3, r0
 12395 006c C1F38010 		ubfx	r0, r1, #6, #1
 12396 0070 0343     		orrs	r3, r3, r0
 12397 0072 53EAD113 		orrs	r3, r3, r1, lsr #7
 12398 0076 01D1     		bne	.L1549
 12399 0078 2646     		mov	r6, r4
 12400 007a 2DE0     		b	.L1509
ARM GAS  C:\Temp\cclPUGyV.s 			page 208


 12401              	.L1549:
 12402 007c 0DF10301 		add	r1, sp, #3
 12403 0080 2846     		mov	r0, r5
 12404 0082 FFF7FEFF 		bl	ism330dhcx_fsm_data_rate_get
 12405 0086 0246     		mov	r2, r0
 12406 0088 78BB     		cbnz	r0, .L1525
 12407 008a 9DF80330 		ldrb	r3, [sp, #3]	@ zero_extendqisi2
 12408 008e 032B     		cmp	r3, #3
 12409 0090 2DD8     		bhi	.L1526
 12410 0092 DFE803F0 		tbb	[pc, r3]
 12411              	.L1511:
 12412 0096 02       		.byte	(.L1514-.L1511)/2
 12413 0097 05       		.byte	(.L1513-.L1511)/2
 12414 0098 0C       		.byte	(.L1512-.L1511)/2
 12415 0099 15       		.byte	(.L1510-.L1511)/2
 12416              		.p2align 1
 12417              	.L1514:
 12418 009a 54BB     		cbnz	r4, .L1527
 12419 009c 0126     		movs	r6, #1
 12420 009e 1BE0     		b	.L1509
 12421              	.L1513:
 12422 00a0 4CB3     		cbz	r4, .L1528
 12423 00a2 012C     		cmp	r4, #1
 12424 00a4 01D0     		beq	.L1550
 12425 00a6 2646     		mov	r6, r4
 12426 00a8 16E0     		b	.L1509
 12427              	.L1550:
 12428 00aa 0226     		movs	r6, #2
 12429 00ac 14E0     		b	.L1509
 12430              	.L1512:
 12431 00ae 24B3     		cbz	r4, .L1530
 12432 00b0 012C     		cmp	r4, #1
 12433 00b2 24D0     		beq	.L1531
 12434 00b4 022C     		cmp	r4, #2
 12435 00b6 01D0     		beq	.L1551
 12436 00b8 2646     		mov	r6, r4
 12437 00ba 0DE0     		b	.L1509
 12438              	.L1551:
 12439 00bc 0326     		movs	r6, #3
 12440 00be 0BE0     		b	.L1509
 12441              	.L1510:
 12442 00c0 FCB1     		cbz	r4, .L1533
 12443 00c2 022C     		cmp	r4, #2
 12444 00c4 1FD0     		beq	.L1534
 12445 00c6 032C     		cmp	r4, #3
 12446 00c8 1FD0     		beq	.L1535
 12447 00ca 012C     		cmp	r4, #1
 12448 00cc 01D0     		beq	.L1552
 12449 00ce 2646     		mov	r6, r4
 12450 00d0 02E0     		b	.L1509
 12451              	.L1552:
 12452 00d2 0426     		movs	r6, #4
 12453 00d4 00E0     		b	.L1509
 12454              	.L1523:
 12455 00d6 2646     		mov	r6, r4
 12456              	.L1509:
 12457 00d8 0023     		movs	r3, #0
ARM GAS  C:\Temp\cclPUGyV.s 			page 209


 12458 00da 8DF80230 		strb	r3, [sp, #2]
 12459 00de B2B1     		cbz	r2, .L1553
 12460              	.L1515:
 12461 00e0 002A     		cmp	r2, #0
 12462 00e2 66D0     		beq	.L1554
 12463              	.L1508:
 12464 00e4 1046     		mov	r0, r2
 12465 00e6 03B0     		add	sp, sp, #12
 12466              		@ sp needed
 12467 00e8 F0BD     		pop	{r4, r5, r6, r7, pc}
 12468              	.L1525:
 12469 00ea 2646     		mov	r6, r4
 12470 00ec F4E7     		b	.L1509
 12471              	.L1526:
 12472 00ee 2646     		mov	r6, r4
 12473 00f0 F2E7     		b	.L1509
 12474              	.L1527:
 12475 00f2 2646     		mov	r6, r4
 12476 00f4 F0E7     		b	.L1509
 12477              	.L1528:
 12478 00f6 0226     		movs	r6, #2
 12479 00f8 EEE7     		b	.L1509
 12480              	.L1530:
 12481 00fa 0326     		movs	r6, #3
 12482 00fc ECE7     		b	.L1509
 12483              	.L1531:
 12484 00fe 0326     		movs	r6, #3
 12485 0100 EAE7     		b	.L1509
 12486              	.L1533:
 12487 0102 0426     		movs	r6, #4
 12488 0104 E8E7     		b	.L1509
 12489              	.L1534:
 12490 0106 0426     		movs	r6, #4
 12491 0108 E6E7     		b	.L1509
 12492              	.L1535:
 12493 010a 0426     		movs	r6, #4
 12494 010c E4E7     		b	.L1509
 12495              	.L1553:
 12496 010e 0DF10201 		add	r1, sp, #2
 12497 0112 2846     		mov	r0, r5
 12498 0114 FFF7FEFF 		bl	ism330dhcx_mlc_get
 12499 0118 0246     		mov	r2, r0
 12500 011a 9DF80270 		ldrb	r7, [sp, #2]	@ zero_extendqisi2
 12501 011e 012F     		cmp	r7, #1
 12502 0120 09D0     		beq	.L1555
 12503              	.L1516:
 12504 0122 002A     		cmp	r2, #0
 12505 0124 DED1     		bne	.L1508
 12506 0126 0123     		movs	r3, #1
 12507 0128 6A46     		mov	r2, sp
 12508 012a 1021     		movs	r1, #16
 12509 012c 2846     		mov	r0, r5
 12510 012e FFF7FEFF 		bl	ism330dhcx_read_reg
 12511 0132 0246     		mov	r2, r0
 12512 0134 D4E7     		b	.L1515
 12513              	.L1555:
 12514 0136 0DF10101 		add	r1, sp, #1
ARM GAS  C:\Temp\cclPUGyV.s 			page 210


 12515 013a 2846     		mov	r0, r5
 12516 013c FFF7FEFF 		bl	ism330dhcx_mlc_data_rate_get
 12517 0140 0246     		mov	r2, r0
 12518 0142 0028     		cmp	r0, #0
 12519 0144 CED1     		bne	.L1508
 12520 0146 9DF80130 		ldrb	r3, [sp, #1]	@ zero_extendqisi2
 12521 014a 032B     		cmp	r3, #3
 12522 014c 21D8     		bhi	.L1537
 12523 014e DFE803F0 		tbb	[pc, r3]
 12524              	.L1519:
 12525 0152 02       		.byte	(.L1522-.L1519)/2
 12526 0153 05       		.byte	(.L1521-.L1519)/2
 12527 0154 0C       		.byte	(.L1520-.L1519)/2
 12528 0155 15       		.byte	(.L1518-.L1519)/2
 12529              		.p2align 1
 12530              	.L1522:
 12531 0156 F4B9     		cbnz	r4, .L1538
 12532 0158 3E46     		mov	r6, r7
 12533 015a E2E7     		b	.L1516
 12534              	.L1521:
 12535 015c ECB1     		cbz	r4, .L1539
 12536 015e 012C     		cmp	r4, #1
 12537 0160 01D0     		beq	.L1556
 12538 0162 2646     		mov	r6, r4
 12539 0164 DDE7     		b	.L1516
 12540              	.L1556:
 12541 0166 0226     		movs	r6, #2
 12542 0168 DBE7     		b	.L1516
 12543              	.L1520:
 12544 016a C4B1     		cbz	r4, .L1541
 12545 016c 012C     		cmp	r4, #1
 12546 016e 18D0     		beq	.L1542
 12547 0170 022C     		cmp	r4, #2
 12548 0172 01D0     		beq	.L1557
 12549 0174 2646     		mov	r6, r4
 12550 0176 D4E7     		b	.L1516
 12551              	.L1557:
 12552 0178 0326     		movs	r6, #3
 12553 017a D2E7     		b	.L1516
 12554              	.L1518:
 12555 017c 9CB1     		cbz	r4, .L1544
 12556 017e 022C     		cmp	r4, #2
 12557 0180 13D0     		beq	.L1545
 12558 0182 032C     		cmp	r4, #3
 12559 0184 13D0     		beq	.L1546
 12560 0186 012C     		cmp	r4, #1
 12561 0188 01D0     		beq	.L1558
 12562 018a 2646     		mov	r6, r4
 12563 018c C9E7     		b	.L1516
 12564              	.L1558:
 12565 018e 0426     		movs	r6, #4
 12566 0190 C7E7     		b	.L1516
 12567              	.L1537:
 12568 0192 2646     		mov	r6, r4
 12569 0194 C5E7     		b	.L1516
 12570              	.L1538:
 12571 0196 2646     		mov	r6, r4
ARM GAS  C:\Temp\cclPUGyV.s 			page 211


 12572 0198 C3E7     		b	.L1516
 12573              	.L1539:
 12574 019a 0226     		movs	r6, #2
 12575 019c C1E7     		b	.L1516
 12576              	.L1541:
 12577 019e 0326     		movs	r6, #3
 12578 01a0 BFE7     		b	.L1516
 12579              	.L1542:
 12580 01a2 0326     		movs	r6, #3
 12581 01a4 BDE7     		b	.L1516
 12582              	.L1544:
 12583 01a6 0426     		movs	r6, #4
 12584 01a8 BBE7     		b	.L1516
 12585              	.L1545:
 12586 01aa 0426     		movs	r6, #4
 12587 01ac B9E7     		b	.L1516
 12588              	.L1546:
 12589 01ae 0426     		movs	r6, #4
 12590 01b0 B7E7     		b	.L1516
 12591              	.L1554:
 12592 01b2 9DF80030 		ldrb	r3, [sp]	@ zero_extendqisi2
 12593 01b6 66F30713 		bfi	r3, r6, #4, #4
 12594 01ba 8DF80030 		strb	r3, [sp]
 12595 01be 0123     		movs	r3, #1
 12596 01c0 6A46     		mov	r2, sp
 12597 01c2 1021     		movs	r1, #16
 12598 01c4 2846     		mov	r0, r5
 12599 01c6 FFF7FEFF 		bl	ism330dhcx_write_reg
 12600 01ca 0246     		mov	r2, r0
 12601 01cc 8AE7     		b	.L1508
 12603              		.section	.text.ism330dhcx_gy_data_rate_set,"ax",%progbits
 12604              		.align	1
 12605              		.global	ism330dhcx_gy_data_rate_set
 12606              		.syntax unified
 12607              		.thumb
 12608              		.thumb_func
 12610              	ism330dhcx_gy_data_rate_set:
 12611              		@ args = 0, pretend = 0, frame = 8
 12612              		@ frame_needed = 0, uses_anonymous_args = 0
 12613 0000 F0B5     		push	{r4, r5, r6, r7, lr}
 12614 0002 83B0     		sub	sp, sp, #12
 12615 0004 0546     		mov	r5, r0
 12616 0006 0C46     		mov	r4, r1
 12617 0008 01A9     		add	r1, sp, #4
 12618 000a FFF7FEFF 		bl	ism330dhcx_fsm_enable_get
 12619 000e 0246     		mov	r2, r0
 12620 0010 0028     		cmp	r0, #0
 12621 0012 60D1     		bne	.L1574
 12622 0014 9DF80410 		ldrb	r1, [sp, #4]	@ zero_extendqisi2
 12623 0018 01F00103 		and	r3, r1, #1
 12624 001c C1F34000 		ubfx	r0, r1, #1, #1
 12625 0020 0343     		orrs	r3, r3, r0
 12626 0022 C1F38000 		ubfx	r0, r1, #2, #1
 12627 0026 0343     		orrs	r3, r3, r0
 12628 0028 C1F3C000 		ubfx	r0, r1, #3, #1
 12629 002c 0343     		orrs	r3, r3, r0
 12630 002e C1F30010 		ubfx	r0, r1, #4, #1
ARM GAS  C:\Temp\cclPUGyV.s 			page 212


 12631 0032 0343     		orrs	r3, r3, r0
 12632 0034 C1F34010 		ubfx	r0, r1, #5, #1
 12633 0038 0343     		orrs	r3, r3, r0
 12634 003a C1F38010 		ubfx	r0, r1, #6, #1
 12635 003e 0343     		orrs	r3, r3, r0
 12636 0040 43EAD113 		orr	r3, r3, r1, lsr #7
 12637 0044 9DF80510 		ldrb	r1, [sp, #5]	@ zero_extendqisi2
 12638 0048 01F00100 		and	r0, r1, #1
 12639 004c 0343     		orrs	r3, r3, r0
 12640 004e C1F34000 		ubfx	r0, r1, #1, #1
 12641 0052 0343     		orrs	r3, r3, r0
 12642 0054 C1F38000 		ubfx	r0, r1, #2, #1
 12643 0058 0343     		orrs	r3, r3, r0
 12644 005a C1F3C000 		ubfx	r0, r1, #3, #1
 12645 005e 0343     		orrs	r3, r3, r0
 12646 0060 C1F30010 		ubfx	r0, r1, #4, #1
 12647 0064 0343     		orrs	r3, r3, r0
 12648 0066 C1F34010 		ubfx	r0, r1, #5, #1
 12649 006a 0343     		orrs	r3, r3, r0
 12650 006c C1F38010 		ubfx	r0, r1, #6, #1
 12651 0070 0343     		orrs	r3, r3, r0
 12652 0072 53EAD113 		orrs	r3, r3, r1, lsr #7
 12653 0076 01D1     		bne	.L1600
 12654 0078 2646     		mov	r6, r4
 12655 007a 2DE0     		b	.L1560
 12656              	.L1600:
 12657 007c 0DF10301 		add	r1, sp, #3
 12658 0080 2846     		mov	r0, r5
 12659 0082 FFF7FEFF 		bl	ism330dhcx_fsm_data_rate_get
 12660 0086 0246     		mov	r2, r0
 12661 0088 78BB     		cbnz	r0, .L1576
 12662 008a 9DF80330 		ldrb	r3, [sp, #3]	@ zero_extendqisi2
 12663 008e 032B     		cmp	r3, #3
 12664 0090 2DD8     		bhi	.L1577
 12665 0092 DFE803F0 		tbb	[pc, r3]
 12666              	.L1562:
 12667 0096 02       		.byte	(.L1565-.L1562)/2
 12668 0097 05       		.byte	(.L1564-.L1562)/2
 12669 0098 0C       		.byte	(.L1563-.L1562)/2
 12670 0099 15       		.byte	(.L1561-.L1562)/2
 12671              		.p2align 1
 12672              	.L1565:
 12673 009a 54BB     		cbnz	r4, .L1578
 12674 009c 0126     		movs	r6, #1
 12675 009e 1BE0     		b	.L1560
 12676              	.L1564:
 12677 00a0 4CB3     		cbz	r4, .L1579
 12678 00a2 012C     		cmp	r4, #1
 12679 00a4 01D0     		beq	.L1601
 12680 00a6 2646     		mov	r6, r4
 12681 00a8 16E0     		b	.L1560
 12682              	.L1601:
 12683 00aa 0226     		movs	r6, #2
 12684 00ac 14E0     		b	.L1560
 12685              	.L1563:
 12686 00ae 24B3     		cbz	r4, .L1581
 12687 00b0 012C     		cmp	r4, #1
ARM GAS  C:\Temp\cclPUGyV.s 			page 213


 12688 00b2 24D0     		beq	.L1582
 12689 00b4 022C     		cmp	r4, #2
 12690 00b6 01D0     		beq	.L1602
 12691 00b8 2646     		mov	r6, r4
 12692 00ba 0DE0     		b	.L1560
 12693              	.L1602:
 12694 00bc 0326     		movs	r6, #3
 12695 00be 0BE0     		b	.L1560
 12696              	.L1561:
 12697 00c0 FCB1     		cbz	r4, .L1584
 12698 00c2 022C     		cmp	r4, #2
 12699 00c4 1FD0     		beq	.L1585
 12700 00c6 032C     		cmp	r4, #3
 12701 00c8 1FD0     		beq	.L1586
 12702 00ca 012C     		cmp	r4, #1
 12703 00cc 01D0     		beq	.L1603
 12704 00ce 2646     		mov	r6, r4
 12705 00d0 02E0     		b	.L1560
 12706              	.L1603:
 12707 00d2 0426     		movs	r6, #4
 12708 00d4 00E0     		b	.L1560
 12709              	.L1574:
 12710 00d6 2646     		mov	r6, r4
 12711              	.L1560:
 12712 00d8 0023     		movs	r3, #0
 12713 00da 8DF80230 		strb	r3, [sp, #2]
 12714 00de B2B1     		cbz	r2, .L1604
 12715              	.L1566:
 12716 00e0 002A     		cmp	r2, #0
 12717 00e2 66D0     		beq	.L1605
 12718              	.L1559:
 12719 00e4 1046     		mov	r0, r2
 12720 00e6 03B0     		add	sp, sp, #12
 12721              		@ sp needed
 12722 00e8 F0BD     		pop	{r4, r5, r6, r7, pc}
 12723              	.L1576:
 12724 00ea 2646     		mov	r6, r4
 12725 00ec F4E7     		b	.L1560
 12726              	.L1577:
 12727 00ee 2646     		mov	r6, r4
 12728 00f0 F2E7     		b	.L1560
 12729              	.L1578:
 12730 00f2 2646     		mov	r6, r4
 12731 00f4 F0E7     		b	.L1560
 12732              	.L1579:
 12733 00f6 0226     		movs	r6, #2
 12734 00f8 EEE7     		b	.L1560
 12735              	.L1581:
 12736 00fa 0326     		movs	r6, #3
 12737 00fc ECE7     		b	.L1560
 12738              	.L1582:
 12739 00fe 0326     		movs	r6, #3
 12740 0100 EAE7     		b	.L1560
 12741              	.L1584:
 12742 0102 0426     		movs	r6, #4
 12743 0104 E8E7     		b	.L1560
 12744              	.L1585:
ARM GAS  C:\Temp\cclPUGyV.s 			page 214


 12745 0106 0426     		movs	r6, #4
 12746 0108 E6E7     		b	.L1560
 12747              	.L1586:
 12748 010a 0426     		movs	r6, #4
 12749 010c E4E7     		b	.L1560
 12750              	.L1604:
 12751 010e 0DF10201 		add	r1, sp, #2
 12752 0112 2846     		mov	r0, r5
 12753 0114 FFF7FEFF 		bl	ism330dhcx_mlc_get
 12754 0118 0246     		mov	r2, r0
 12755 011a 9DF80270 		ldrb	r7, [sp, #2]	@ zero_extendqisi2
 12756 011e 012F     		cmp	r7, #1
 12757 0120 09D0     		beq	.L1606
 12758              	.L1567:
 12759 0122 002A     		cmp	r2, #0
 12760 0124 DED1     		bne	.L1559
 12761 0126 0123     		movs	r3, #1
 12762 0128 6A46     		mov	r2, sp
 12763 012a 1121     		movs	r1, #17
 12764 012c 2846     		mov	r0, r5
 12765 012e FFF7FEFF 		bl	ism330dhcx_read_reg
 12766 0132 0246     		mov	r2, r0
 12767 0134 D4E7     		b	.L1566
 12768              	.L1606:
 12769 0136 0DF10101 		add	r1, sp, #1
 12770 013a 2846     		mov	r0, r5
 12771 013c FFF7FEFF 		bl	ism330dhcx_mlc_data_rate_get
 12772 0140 0246     		mov	r2, r0
 12773 0142 0028     		cmp	r0, #0
 12774 0144 CED1     		bne	.L1559
 12775 0146 9DF80130 		ldrb	r3, [sp, #1]	@ zero_extendqisi2
 12776 014a 032B     		cmp	r3, #3
 12777 014c 21D8     		bhi	.L1588
 12778 014e DFE803F0 		tbb	[pc, r3]
 12779              	.L1570:
 12780 0152 02       		.byte	(.L1573-.L1570)/2
 12781 0153 05       		.byte	(.L1572-.L1570)/2
 12782 0154 0C       		.byte	(.L1571-.L1570)/2
 12783 0155 15       		.byte	(.L1569-.L1570)/2
 12784              		.p2align 1
 12785              	.L1573:
 12786 0156 F4B9     		cbnz	r4, .L1589
 12787 0158 3E46     		mov	r6, r7
 12788 015a E2E7     		b	.L1567
 12789              	.L1572:
 12790 015c ECB1     		cbz	r4, .L1590
 12791 015e 012C     		cmp	r4, #1
 12792 0160 01D0     		beq	.L1607
 12793 0162 2646     		mov	r6, r4
 12794 0164 DDE7     		b	.L1567
 12795              	.L1607:
 12796 0166 0226     		movs	r6, #2
 12797 0168 DBE7     		b	.L1567
 12798              	.L1571:
 12799 016a C4B1     		cbz	r4, .L1592
 12800 016c 012C     		cmp	r4, #1
 12801 016e 18D0     		beq	.L1593
ARM GAS  C:\Temp\cclPUGyV.s 			page 215


 12802 0170 022C     		cmp	r4, #2
 12803 0172 01D0     		beq	.L1608
 12804 0174 2646     		mov	r6, r4
 12805 0176 D4E7     		b	.L1567
 12806              	.L1608:
 12807 0178 0326     		movs	r6, #3
 12808 017a D2E7     		b	.L1567
 12809              	.L1569:
 12810 017c 9CB1     		cbz	r4, .L1595
 12811 017e 022C     		cmp	r4, #2
 12812 0180 13D0     		beq	.L1596
 12813 0182 032C     		cmp	r4, #3
 12814 0184 13D0     		beq	.L1597
 12815 0186 012C     		cmp	r4, #1
 12816 0188 01D0     		beq	.L1609
 12817 018a 2646     		mov	r6, r4
 12818 018c C9E7     		b	.L1567
 12819              	.L1609:
 12820 018e 0426     		movs	r6, #4
 12821 0190 C7E7     		b	.L1567
 12822              	.L1588:
 12823 0192 2646     		mov	r6, r4
 12824 0194 C5E7     		b	.L1567
 12825              	.L1589:
 12826 0196 2646     		mov	r6, r4
 12827 0198 C3E7     		b	.L1567
 12828              	.L1590:
 12829 019a 0226     		movs	r6, #2
 12830 019c C1E7     		b	.L1567
 12831              	.L1592:
 12832 019e 0326     		movs	r6, #3
 12833 01a0 BFE7     		b	.L1567
 12834              	.L1593:
 12835 01a2 0326     		movs	r6, #3
 12836 01a4 BDE7     		b	.L1567
 12837              	.L1595:
 12838 01a6 0426     		movs	r6, #4
 12839 01a8 BBE7     		b	.L1567
 12840              	.L1596:
 12841 01aa 0426     		movs	r6, #4
 12842 01ac B9E7     		b	.L1567
 12843              	.L1597:
 12844 01ae 0426     		movs	r6, #4
 12845 01b0 B7E7     		b	.L1567
 12846              	.L1605:
 12847 01b2 9DF80030 		ldrb	r3, [sp]	@ zero_extendqisi2
 12848 01b6 66F30713 		bfi	r3, r6, #4, #4
 12849 01ba 8DF80030 		strb	r3, [sp]
 12850 01be 0123     		movs	r3, #1
 12851 01c0 6A46     		mov	r2, sp
 12852 01c2 1121     		movs	r1, #17
 12853 01c4 2846     		mov	r0, r5
 12854 01c6 FFF7FEFF 		bl	ism330dhcx_write_reg
 12855 01ca 0246     		mov	r2, r0
 12856 01cc 8AE7     		b	.L1559
 12858              		.section	.text.ism330dhcx_sh_read_data_raw_get,"ax",%progbits
 12859              		.align	1
ARM GAS  C:\Temp\cclPUGyV.s 			page 216


 12860              		.global	ism330dhcx_sh_read_data_raw_get
 12861              		.syntax unified
 12862              		.thumb
 12863              		.thumb_func
 12865              	ism330dhcx_sh_read_data_raw_get:
 12866              		@ args = 0, pretend = 0, frame = 0
 12867              		@ frame_needed = 0, uses_anonymous_args = 0
 12868 0000 70B5     		push	{r4, r5, r6, lr}
 12869 0002 0446     		mov	r4, r0
 12870 0004 0D46     		mov	r5, r1
 12871 0006 1646     		mov	r6, r2
 12872 0008 0121     		movs	r1, #1
 12873 000a FFF7FEFF 		bl	ism330dhcx_mem_bank_set
 12874 000e 00B1     		cbz	r0, .L1613
 12875              	.L1610:
 12876 0010 70BD     		pop	{r4, r5, r6, pc}
 12877              	.L1613:
 12878 0012 3346     		mov	r3, r6
 12879 0014 2A46     		mov	r2, r5
 12880 0016 0221     		movs	r1, #2
 12881 0018 2046     		mov	r0, r4
 12882 001a FFF7FEFF 		bl	ism330dhcx_read_reg
 12883 001e 0028     		cmp	r0, #0
 12884 0020 F6D1     		bne	.L1610
 12885 0022 0021     		movs	r1, #0
 12886 0024 2046     		mov	r0, r4
 12887 0026 FFF7FEFF 		bl	ism330dhcx_mem_bank_set
 12888 002a F1E7     		b	.L1610
 12890              		.section	.text.ism330dhcx_sh_slave_connected_set,"ax",%progbits
 12891              		.align	1
 12892              		.global	ism330dhcx_sh_slave_connected_set
 12893              		.syntax unified
 12894              		.thumb
 12895              		.thumb_func
 12897              	ism330dhcx_sh_slave_connected_set:
 12898              		@ args = 0, pretend = 0, frame = 8
 12899              		@ frame_needed = 0, uses_anonymous_args = 0
 12900 0000 30B5     		push	{r4, r5, lr}
 12901 0002 83B0     		sub	sp, sp, #12
 12902 0004 0446     		mov	r4, r0
 12903 0006 0D46     		mov	r5, r1
 12904 0008 0121     		movs	r1, #1
 12905 000a FFF7FEFF 		bl	ism330dhcx_mem_bank_set
 12906 000e 0346     		mov	r3, r0
 12907 0010 18B1     		cbz	r0, .L1618
 12908              	.L1615:
 12909 0012 CBB1     		cbz	r3, .L1619
 12910              	.L1614:
 12911 0014 1846     		mov	r0, r3
 12912 0016 03B0     		add	sp, sp, #12
 12913              		@ sp needed
 12914 0018 30BD     		pop	{r4, r5, pc}
 12915              	.L1618:
 12916 001a 0123     		movs	r3, #1
 12917 001c 01AA     		add	r2, sp, #4
 12918 001e 1421     		movs	r1, #20
 12919 0020 2046     		mov	r0, r4
ARM GAS  C:\Temp\cclPUGyV.s 			page 217


 12920 0022 FFF7FEFF 		bl	ism330dhcx_read_reg
 12921 0026 0346     		mov	r3, r0
 12922 0028 0028     		cmp	r0, #0
 12923 002a F3D1     		bne	.L1614
 12924 002c 9DF80430 		ldrb	r3, [sp, #4]	@ zero_extendqisi2
 12925 0030 65F30103 		bfi	r3, r5, #0, #2
 12926 0034 8DF80430 		strb	r3, [sp, #4]
 12927 0038 0123     		movs	r3, #1
 12928 003a 01AA     		add	r2, sp, #4
 12929 003c 1421     		movs	r1, #20
 12930 003e 2046     		mov	r0, r4
 12931 0040 FFF7FEFF 		bl	ism330dhcx_write_reg
 12932 0044 0346     		mov	r3, r0
 12933 0046 E4E7     		b	.L1615
 12934              	.L1619:
 12935 0048 0021     		movs	r1, #0
 12936 004a 2046     		mov	r0, r4
 12937 004c FFF7FEFF 		bl	ism330dhcx_mem_bank_set
 12938 0050 0346     		mov	r3, r0
 12939 0052 DFE7     		b	.L1614
 12941              		.section	.text.ism330dhcx_sh_slave_connected_get,"ax",%progbits
 12942              		.align	1
 12943              		.global	ism330dhcx_sh_slave_connected_get
 12944              		.syntax unified
 12945              		.thumb
 12946              		.thumb_func
 12948              	ism330dhcx_sh_slave_connected_get:
 12949              		@ args = 0, pretend = 0, frame = 8
 12950              		@ frame_needed = 0, uses_anonymous_args = 0
 12951 0000 30B5     		push	{r4, r5, lr}
 12952 0002 83B0     		sub	sp, sp, #12
 12953 0004 0446     		mov	r4, r0
 12954 0006 0D46     		mov	r5, r1
 12955 0008 0121     		movs	r1, #1
 12956 000a FFF7FEFF 		bl	ism330dhcx_mem_bank_set
 12957 000e 48B1     		cbz	r0, .L1630
 12958              	.L1621:
 12959 0010 9DF80430 		ldrb	r3, [sp, #4]	@ zero_extendqisi2
 12960 0014 03F00303 		and	r3, r3, #3
 12961 0018 032B     		cmp	r3, #3
 12962 001a 1DD8     		bhi	.L1622
 12963 001c DFE803F0 		tbb	[pc, r3]
 12964              	.L1624:
 12965 0020 0F       		.byte	(.L1627-.L1624)/2
 12966 0021 13       		.byte	(.L1626-.L1624)/2
 12967 0022 16       		.byte	(.L1625-.L1624)/2
 12968 0023 19       		.byte	(.L1623-.L1624)/2
 12969              		.p2align 1
 12970              	.L1630:
 12971 0024 0123     		movs	r3, #1
 12972 0026 01AA     		add	r2, sp, #4
 12973 0028 1421     		movs	r1, #20
 12974 002a 2046     		mov	r0, r4
 12975 002c FFF7FEFF 		bl	ism330dhcx_read_reg
 12976 0030 0028     		cmp	r0, #0
 12977 0032 EDD1     		bne	.L1621
 12978 0034 0021     		movs	r1, #0
ARM GAS  C:\Temp\cclPUGyV.s 			page 218


 12979 0036 2046     		mov	r0, r4
 12980 0038 FFF7FEFF 		bl	ism330dhcx_mem_bank_set
 12981 003c E8E7     		b	.L1621
 12982              	.L1627:
 12983 003e 0023     		movs	r3, #0
 12984 0040 2B70     		strb	r3, [r5]
 12985              	.L1620:
 12986 0042 03B0     		add	sp, sp, #12
 12987              		@ sp needed
 12988 0044 30BD     		pop	{r4, r5, pc}
 12989              	.L1626:
 12990 0046 0123     		movs	r3, #1
 12991 0048 2B70     		strb	r3, [r5]
 12992 004a FAE7     		b	.L1620
 12993              	.L1625:
 12994 004c 0223     		movs	r3, #2
 12995 004e 2B70     		strb	r3, [r5]
 12996 0050 F7E7     		b	.L1620
 12997              	.L1623:
 12998 0052 0323     		movs	r3, #3
 12999 0054 2B70     		strb	r3, [r5]
 13000 0056 F4E7     		b	.L1620
 13001              	.L1622:
 13002 0058 0023     		movs	r3, #0
 13003 005a 2B70     		strb	r3, [r5]
 13004 005c F1E7     		b	.L1620
 13006              		.section	.text.ism330dhcx_sh_master_set,"ax",%progbits
 13007              		.align	1
 13008              		.global	ism330dhcx_sh_master_set
 13009              		.syntax unified
 13010              		.thumb
 13011              		.thumb_func
 13013              	ism330dhcx_sh_master_set:
 13014              		@ args = 0, pretend = 0, frame = 8
 13015              		@ frame_needed = 0, uses_anonymous_args = 0
 13016 0000 30B5     		push	{r4, r5, lr}
 13017 0002 83B0     		sub	sp, sp, #12
 13018 0004 0446     		mov	r4, r0
 13019 0006 0D46     		mov	r5, r1
 13020 0008 0121     		movs	r1, #1
 13021 000a FFF7FEFF 		bl	ism330dhcx_mem_bank_set
 13022 000e 0346     		mov	r3, r0
 13023 0010 18B1     		cbz	r0, .L1635
 13024              	.L1632:
 13025 0012 CBB1     		cbz	r3, .L1636
 13026              	.L1631:
 13027 0014 1846     		mov	r0, r3
 13028 0016 03B0     		add	sp, sp, #12
 13029              		@ sp needed
 13030 0018 30BD     		pop	{r4, r5, pc}
 13031              	.L1635:
 13032 001a 0123     		movs	r3, #1
 13033 001c 01AA     		add	r2, sp, #4
 13034 001e 1421     		movs	r1, #20
 13035 0020 2046     		mov	r0, r4
 13036 0022 FFF7FEFF 		bl	ism330dhcx_read_reg
 13037 0026 0346     		mov	r3, r0
ARM GAS  C:\Temp\cclPUGyV.s 			page 219


 13038 0028 0028     		cmp	r0, #0
 13039 002a F3D1     		bne	.L1631
 13040 002c 9DF80430 		ldrb	r3, [sp, #4]	@ zero_extendqisi2
 13041 0030 65F38203 		bfi	r3, r5, #2, #1
 13042 0034 8DF80430 		strb	r3, [sp, #4]
 13043 0038 0123     		movs	r3, #1
 13044 003a 01AA     		add	r2, sp, #4
 13045 003c 1421     		movs	r1, #20
 13046 003e 2046     		mov	r0, r4
 13047 0040 FFF7FEFF 		bl	ism330dhcx_write_reg
 13048 0044 0346     		mov	r3, r0
 13049 0046 E4E7     		b	.L1632
 13050              	.L1636:
 13051 0048 0021     		movs	r1, #0
 13052 004a 2046     		mov	r0, r4
 13053 004c FFF7FEFF 		bl	ism330dhcx_mem_bank_set
 13054 0050 0346     		mov	r3, r0
 13055 0052 DFE7     		b	.L1631
 13057              		.section	.text.ism330dhcx_sh_master_get,"ax",%progbits
 13058              		.align	1
 13059              		.global	ism330dhcx_sh_master_get
 13060              		.syntax unified
 13061              		.thumb
 13062              		.thumb_func
 13064              	ism330dhcx_sh_master_get:
 13065              		@ args = 0, pretend = 0, frame = 8
 13066              		@ frame_needed = 0, uses_anonymous_args = 0
 13067 0000 30B5     		push	{r4, r5, lr}
 13068 0002 83B0     		sub	sp, sp, #12
 13069 0004 0446     		mov	r4, r0
 13070 0006 0D46     		mov	r5, r1
 13071 0008 0121     		movs	r1, #1
 13072 000a FFF7FEFF 		bl	ism330dhcx_mem_bank_set
 13073 000e 08B1     		cbz	r0, .L1640
 13074              	.L1637:
 13075 0010 03B0     		add	sp, sp, #12
 13076              		@ sp needed
 13077 0012 30BD     		pop	{r4, r5, pc}
 13078              	.L1640:
 13079 0014 0123     		movs	r3, #1
 13080 0016 01AA     		add	r2, sp, #4
 13081 0018 1421     		movs	r1, #20
 13082 001a 2046     		mov	r0, r4
 13083 001c FFF7FEFF 		bl	ism330dhcx_read_reg
 13084 0020 0028     		cmp	r0, #0
 13085 0022 F5D1     		bne	.L1637
 13086 0024 9DF80430 		ldrb	r3, [sp, #4]	@ zero_extendqisi2
 13087 0028 C3F38003 		ubfx	r3, r3, #2, #1
 13088 002c 2B70     		strb	r3, [r5]
 13089 002e 0021     		movs	r1, #0
 13090 0030 2046     		mov	r0, r4
 13091 0032 FFF7FEFF 		bl	ism330dhcx_mem_bank_set
 13092 0036 EBE7     		b	.L1637
 13094              		.section	.text.ism330dhcx_sh_pin_mode_set,"ax",%progbits
 13095              		.align	1
 13096              		.global	ism330dhcx_sh_pin_mode_set
 13097              		.syntax unified
ARM GAS  C:\Temp\cclPUGyV.s 			page 220


 13098              		.thumb
 13099              		.thumb_func
 13101              	ism330dhcx_sh_pin_mode_set:
 13102              		@ args = 0, pretend = 0, frame = 8
 13103              		@ frame_needed = 0, uses_anonymous_args = 0
 13104 0000 30B5     		push	{r4, r5, lr}
 13105 0002 83B0     		sub	sp, sp, #12
 13106 0004 0446     		mov	r4, r0
 13107 0006 0D46     		mov	r5, r1
 13108 0008 0121     		movs	r1, #1
 13109 000a FFF7FEFF 		bl	ism330dhcx_mem_bank_set
 13110 000e 0346     		mov	r3, r0
 13111 0010 18B1     		cbz	r0, .L1645
 13112              	.L1642:
 13113 0012 CBB1     		cbz	r3, .L1646
 13114              	.L1641:
 13115 0014 1846     		mov	r0, r3
 13116 0016 03B0     		add	sp, sp, #12
 13117              		@ sp needed
 13118 0018 30BD     		pop	{r4, r5, pc}
 13119              	.L1645:
 13120 001a 0123     		movs	r3, #1
 13121 001c 01AA     		add	r2, sp, #4
 13122 001e 1421     		movs	r1, #20
 13123 0020 2046     		mov	r0, r4
 13124 0022 FFF7FEFF 		bl	ism330dhcx_read_reg
 13125 0026 0346     		mov	r3, r0
 13126 0028 0028     		cmp	r0, #0
 13127 002a F3D1     		bne	.L1641
 13128 002c 9DF80430 		ldrb	r3, [sp, #4]	@ zero_extendqisi2
 13129 0030 65F3C303 		bfi	r3, r5, #3, #1
 13130 0034 8DF80430 		strb	r3, [sp, #4]
 13131 0038 0123     		movs	r3, #1
 13132 003a 01AA     		add	r2, sp, #4
 13133 003c 1421     		movs	r1, #20
 13134 003e 2046     		mov	r0, r4
 13135 0040 FFF7FEFF 		bl	ism330dhcx_write_reg
 13136 0044 0346     		mov	r3, r0
 13137 0046 E4E7     		b	.L1642
 13138              	.L1646:
 13139 0048 0021     		movs	r1, #0
 13140 004a 2046     		mov	r0, r4
 13141 004c FFF7FEFF 		bl	ism330dhcx_mem_bank_set
 13142 0050 0346     		mov	r3, r0
 13143 0052 DFE7     		b	.L1641
 13145              		.section	.text.ism330dhcx_sh_pin_mode_get,"ax",%progbits
 13146              		.align	1
 13147              		.global	ism330dhcx_sh_pin_mode_get
 13148              		.syntax unified
 13149              		.thumb
 13150              		.thumb_func
 13152              	ism330dhcx_sh_pin_mode_get:
 13153              		@ args = 0, pretend = 0, frame = 8
 13154              		@ frame_needed = 0, uses_anonymous_args = 0
 13155 0000 30B5     		push	{r4, r5, lr}
 13156 0002 83B0     		sub	sp, sp, #12
 13157 0004 0446     		mov	r4, r0
ARM GAS  C:\Temp\cclPUGyV.s 			page 221


 13158 0006 0D46     		mov	r5, r1
 13159 0008 0121     		movs	r1, #1
 13160 000a FFF7FEFF 		bl	ism330dhcx_mem_bank_set
 13161 000e 50B1     		cbz	r0, .L1655
 13162              	.L1648:
 13163 0010 9DF80430 		ldrb	r3, [sp, #4]	@ zero_extendqisi2
 13164 0014 C3F3C002 		ubfx	r2, r3, #3, #1
 13165 0018 13F0080F 		tst	r3, #8
 13166 001c 10D0     		beq	.L1649
 13167 001e 9AB9     		cbnz	r2, .L1650
 13168 0020 0023     		movs	r3, #0
 13169 0022 2B70     		strb	r3, [r5]
 13170 0024 0EE0     		b	.L1647
 13171              	.L1655:
 13172 0026 0123     		movs	r3, #1
 13173 0028 01AA     		add	r2, sp, #4
 13174 002a 1421     		movs	r1, #20
 13175 002c 2046     		mov	r0, r4
 13176 002e FFF7FEFF 		bl	ism330dhcx_read_reg
 13177 0032 0028     		cmp	r0, #0
 13178 0034 ECD1     		bne	.L1648
 13179 0036 0021     		movs	r1, #0
 13180 0038 2046     		mov	r0, r4
 13181 003a FFF7FEFF 		bl	ism330dhcx_mem_bank_set
 13182 003e E7E7     		b	.L1648
 13183              	.L1649:
 13184 0040 0023     		movs	r3, #0
 13185 0042 2B70     		strb	r3, [r5]
 13186              	.L1647:
 13187 0044 03B0     		add	sp, sp, #12
 13188              		@ sp needed
 13189 0046 30BD     		pop	{r4, r5, pc}
 13190              	.L1650:
 13191 0048 0123     		movs	r3, #1
 13192 004a 2B70     		strb	r3, [r5]
 13193 004c FAE7     		b	.L1647
 13195              		.section	.text.ism330dhcx_sh_pass_through_set,"ax",%progbits
 13196              		.align	1
 13197              		.global	ism330dhcx_sh_pass_through_set
 13198              		.syntax unified
 13199              		.thumb
 13200              		.thumb_func
 13202              	ism330dhcx_sh_pass_through_set:
 13203              		@ args = 0, pretend = 0, frame = 8
 13204              		@ frame_needed = 0, uses_anonymous_args = 0
 13205 0000 30B5     		push	{r4, r5, lr}
 13206 0002 83B0     		sub	sp, sp, #12
 13207 0004 0446     		mov	r4, r0
 13208 0006 0D46     		mov	r5, r1
 13209 0008 0121     		movs	r1, #1
 13210 000a FFF7FEFF 		bl	ism330dhcx_mem_bank_set
 13211 000e 0346     		mov	r3, r0
 13212 0010 18B1     		cbz	r0, .L1660
 13213              	.L1657:
 13214 0012 CBB1     		cbz	r3, .L1661
 13215              	.L1656:
 13216 0014 1846     		mov	r0, r3
ARM GAS  C:\Temp\cclPUGyV.s 			page 222


 13217 0016 03B0     		add	sp, sp, #12
 13218              		@ sp needed
 13219 0018 30BD     		pop	{r4, r5, pc}
 13220              	.L1660:
 13221 001a 0123     		movs	r3, #1
 13222 001c 01AA     		add	r2, sp, #4
 13223 001e 1421     		movs	r1, #20
 13224 0020 2046     		mov	r0, r4
 13225 0022 FFF7FEFF 		bl	ism330dhcx_read_reg
 13226 0026 0346     		mov	r3, r0
 13227 0028 0028     		cmp	r0, #0
 13228 002a F3D1     		bne	.L1656
 13229 002c 9DF80430 		ldrb	r3, [sp, #4]	@ zero_extendqisi2
 13230 0030 65F30413 		bfi	r3, r5, #4, #1
 13231 0034 8DF80430 		strb	r3, [sp, #4]
 13232 0038 0123     		movs	r3, #1
 13233 003a 01AA     		add	r2, sp, #4
 13234 003c 1421     		movs	r1, #20
 13235 003e 2046     		mov	r0, r4
 13236 0040 FFF7FEFF 		bl	ism330dhcx_write_reg
 13237 0044 0346     		mov	r3, r0
 13238 0046 E4E7     		b	.L1657
 13239              	.L1661:
 13240 0048 0021     		movs	r1, #0
 13241 004a 2046     		mov	r0, r4
 13242 004c FFF7FEFF 		bl	ism330dhcx_mem_bank_set
 13243 0050 0346     		mov	r3, r0
 13244 0052 DFE7     		b	.L1656
 13246              		.section	.text.ism330dhcx_sh_pass_through_get,"ax",%progbits
 13247              		.align	1
 13248              		.global	ism330dhcx_sh_pass_through_get
 13249              		.syntax unified
 13250              		.thumb
 13251              		.thumb_func
 13253              	ism330dhcx_sh_pass_through_get:
 13254              		@ args = 0, pretend = 0, frame = 8
 13255              		@ frame_needed = 0, uses_anonymous_args = 0
 13256 0000 30B5     		push	{r4, r5, lr}
 13257 0002 83B0     		sub	sp, sp, #12
 13258 0004 0446     		mov	r4, r0
 13259 0006 0D46     		mov	r5, r1
 13260 0008 0121     		movs	r1, #1
 13261 000a FFF7FEFF 		bl	ism330dhcx_mem_bank_set
 13262 000e 08B1     		cbz	r0, .L1665
 13263              	.L1662:
 13264 0010 03B0     		add	sp, sp, #12
 13265              		@ sp needed
 13266 0012 30BD     		pop	{r4, r5, pc}
 13267              	.L1665:
 13268 0014 0123     		movs	r3, #1
 13269 0016 01AA     		add	r2, sp, #4
 13270 0018 1421     		movs	r1, #20
 13271 001a 2046     		mov	r0, r4
 13272 001c FFF7FEFF 		bl	ism330dhcx_read_reg
 13273 0020 0028     		cmp	r0, #0
 13274 0022 F5D1     		bne	.L1662
 13275 0024 9DF80430 		ldrb	r3, [sp, #4]	@ zero_extendqisi2
ARM GAS  C:\Temp\cclPUGyV.s 			page 223


 13276 0028 C3F30013 		ubfx	r3, r3, #4, #1
 13277 002c 2B70     		strb	r3, [r5]
 13278 002e 0021     		movs	r1, #0
 13279 0030 2046     		mov	r0, r4
 13280 0032 FFF7FEFF 		bl	ism330dhcx_mem_bank_set
 13281 0036 EBE7     		b	.L1662
 13283              		.section	.text.ism330dhcx_sh_syncro_mode_set,"ax",%progbits
 13284              		.align	1
 13285              		.global	ism330dhcx_sh_syncro_mode_set
 13286              		.syntax unified
 13287              		.thumb
 13288              		.thumb_func
 13290              	ism330dhcx_sh_syncro_mode_set:
 13291              		@ args = 0, pretend = 0, frame = 8
 13292              		@ frame_needed = 0, uses_anonymous_args = 0
 13293 0000 30B5     		push	{r4, r5, lr}
 13294 0002 83B0     		sub	sp, sp, #12
 13295 0004 0446     		mov	r4, r0
 13296 0006 0D46     		mov	r5, r1
 13297 0008 0121     		movs	r1, #1
 13298 000a FFF7FEFF 		bl	ism330dhcx_mem_bank_set
 13299 000e 0346     		mov	r3, r0
 13300 0010 18B1     		cbz	r0, .L1670
 13301              	.L1667:
 13302 0012 CBB1     		cbz	r3, .L1671
 13303              	.L1666:
 13304 0014 1846     		mov	r0, r3
 13305 0016 03B0     		add	sp, sp, #12
 13306              		@ sp needed
 13307 0018 30BD     		pop	{r4, r5, pc}
 13308              	.L1670:
 13309 001a 0123     		movs	r3, #1
 13310 001c 01AA     		add	r2, sp, #4
 13311 001e 1421     		movs	r1, #20
 13312 0020 2046     		mov	r0, r4
 13313 0022 FFF7FEFF 		bl	ism330dhcx_read_reg
 13314 0026 0346     		mov	r3, r0
 13315 0028 0028     		cmp	r0, #0
 13316 002a F3D1     		bne	.L1666
 13317 002c 9DF80430 		ldrb	r3, [sp, #4]	@ zero_extendqisi2
 13318 0030 65F34513 		bfi	r3, r5, #5, #1
 13319 0034 8DF80430 		strb	r3, [sp, #4]
 13320 0038 0123     		movs	r3, #1
 13321 003a 01AA     		add	r2, sp, #4
 13322 003c 1421     		movs	r1, #20
 13323 003e 2046     		mov	r0, r4
 13324 0040 FFF7FEFF 		bl	ism330dhcx_write_reg
 13325 0044 0346     		mov	r3, r0
 13326 0046 E4E7     		b	.L1667
 13327              	.L1671:
 13328 0048 0021     		movs	r1, #0
 13329 004a 2046     		mov	r0, r4
 13330 004c FFF7FEFF 		bl	ism330dhcx_mem_bank_set
 13331 0050 0346     		mov	r3, r0
 13332 0052 DFE7     		b	.L1666
 13334              		.section	.text.ism330dhcx_sh_syncro_mode_get,"ax",%progbits
 13335              		.align	1
ARM GAS  C:\Temp\cclPUGyV.s 			page 224


 13336              		.global	ism330dhcx_sh_syncro_mode_get
 13337              		.syntax unified
 13338              		.thumb
 13339              		.thumb_func
 13341              	ism330dhcx_sh_syncro_mode_get:
 13342              		@ args = 0, pretend = 0, frame = 8
 13343              		@ frame_needed = 0, uses_anonymous_args = 0
 13344 0000 30B5     		push	{r4, r5, lr}
 13345 0002 83B0     		sub	sp, sp, #12
 13346 0004 0446     		mov	r4, r0
 13347 0006 0D46     		mov	r5, r1
 13348 0008 0121     		movs	r1, #1
 13349 000a FFF7FEFF 		bl	ism330dhcx_mem_bank_set
 13350 000e 58B1     		cbz	r0, .L1678
 13351              	.L1673:
 13352 0010 9DF80430 		ldrb	r3, [sp, #4]	@ zero_extendqisi2
 13353 0014 C3F34012 		ubfx	r2, r3, #5, #1
 13354 0018 13F0200F 		tst	r3, #32
 13355 001c 11D0     		beq	.L1674
 13356 001e 9AB1     		cbz	r2, .L1675
 13357 0020 0123     		movs	r3, #1
 13358 0022 2B70     		strb	r3, [r5]
 13359              	.L1672:
 13360 0024 03B0     		add	sp, sp, #12
 13361              		@ sp needed
 13362 0026 30BD     		pop	{r4, r5, pc}
 13363              	.L1678:
 13364 0028 0123     		movs	r3, #1
 13365 002a 01AA     		add	r2, sp, #4
 13366 002c 1421     		movs	r1, #20
 13367 002e 2046     		mov	r0, r4
 13368 0030 FFF7FEFF 		bl	ism330dhcx_read_reg
 13369 0034 0028     		cmp	r0, #0
 13370 0036 EBD1     		bne	.L1673
 13371 0038 0021     		movs	r1, #0
 13372 003a 2046     		mov	r0, r4
 13373 003c FFF7FEFF 		bl	ism330dhcx_mem_bank_set
 13374 0040 E6E7     		b	.L1673
 13375              	.L1674:
 13376 0042 0023     		movs	r3, #0
 13377 0044 2B70     		strb	r3, [r5]
 13378 0046 EDE7     		b	.L1672
 13379              	.L1675:
 13380 0048 0123     		movs	r3, #1
 13381 004a 2B70     		strb	r3, [r5]
 13382 004c EAE7     		b	.L1672
 13384              		.section	.text.ism330dhcx_sh_write_mode_set,"ax",%progbits
 13385              		.align	1
 13386              		.global	ism330dhcx_sh_write_mode_set
 13387              		.syntax unified
 13388              		.thumb
 13389              		.thumb_func
 13391              	ism330dhcx_sh_write_mode_set:
 13392              		@ args = 0, pretend = 0, frame = 8
 13393              		@ frame_needed = 0, uses_anonymous_args = 0
 13394 0000 30B5     		push	{r4, r5, lr}
 13395 0002 83B0     		sub	sp, sp, #12
ARM GAS  C:\Temp\cclPUGyV.s 			page 225


 13396 0004 0446     		mov	r4, r0
 13397 0006 0D46     		mov	r5, r1
 13398 0008 0121     		movs	r1, #1
 13399 000a FFF7FEFF 		bl	ism330dhcx_mem_bank_set
 13400 000e 0346     		mov	r3, r0
 13401 0010 18B1     		cbz	r0, .L1683
 13402              	.L1680:
 13403 0012 CBB1     		cbz	r3, .L1684
 13404              	.L1679:
 13405 0014 1846     		mov	r0, r3
 13406 0016 03B0     		add	sp, sp, #12
 13407              		@ sp needed
 13408 0018 30BD     		pop	{r4, r5, pc}
 13409              	.L1683:
 13410 001a 0123     		movs	r3, #1
 13411 001c 01AA     		add	r2, sp, #4
 13412 001e 1421     		movs	r1, #20
 13413 0020 2046     		mov	r0, r4
 13414 0022 FFF7FEFF 		bl	ism330dhcx_read_reg
 13415 0026 0346     		mov	r3, r0
 13416 0028 0028     		cmp	r0, #0
 13417 002a F3D1     		bne	.L1679
 13418 002c 9DF80430 		ldrb	r3, [sp, #4]	@ zero_extendqisi2
 13419 0030 65F38613 		bfi	r3, r5, #6, #1
 13420 0034 8DF80430 		strb	r3, [sp, #4]
 13421 0038 0123     		movs	r3, #1
 13422 003a 01AA     		add	r2, sp, #4
 13423 003c 1421     		movs	r1, #20
 13424 003e 2046     		mov	r0, r4
 13425 0040 FFF7FEFF 		bl	ism330dhcx_write_reg
 13426 0044 0346     		mov	r3, r0
 13427 0046 E4E7     		b	.L1680
 13428              	.L1684:
 13429 0048 0021     		movs	r1, #0
 13430 004a 2046     		mov	r0, r4
 13431 004c FFF7FEFF 		bl	ism330dhcx_mem_bank_set
 13432 0050 0346     		mov	r3, r0
 13433 0052 DFE7     		b	.L1679
 13435              		.section	.text.ism330dhcx_sh_write_mode_get,"ax",%progbits
 13436              		.align	1
 13437              		.global	ism330dhcx_sh_write_mode_get
 13438              		.syntax unified
 13439              		.thumb
 13440              		.thumb_func
 13442              	ism330dhcx_sh_write_mode_get:
 13443              		@ args = 0, pretend = 0, frame = 8
 13444              		@ frame_needed = 0, uses_anonymous_args = 0
 13445 0000 30B5     		push	{r4, r5, lr}
 13446 0002 83B0     		sub	sp, sp, #12
 13447 0004 0446     		mov	r4, r0
 13448 0006 0D46     		mov	r5, r1
 13449 0008 0121     		movs	r1, #1
 13450 000a FFF7FEFF 		bl	ism330dhcx_mem_bank_set
 13451 000e 50B1     		cbz	r0, .L1693
 13452              	.L1686:
 13453 0010 9DF80430 		ldrb	r3, [sp, #4]	@ zero_extendqisi2
 13454 0014 C3F38012 		ubfx	r2, r3, #6, #1
ARM GAS  C:\Temp\cclPUGyV.s 			page 226


 13455 0018 13F0400F 		tst	r3, #64
 13456 001c 10D0     		beq	.L1687
 13457 001e 9AB9     		cbnz	r2, .L1688
 13458 0020 0023     		movs	r3, #0
 13459 0022 2B70     		strb	r3, [r5]
 13460 0024 0EE0     		b	.L1685
 13461              	.L1693:
 13462 0026 0123     		movs	r3, #1
 13463 0028 01AA     		add	r2, sp, #4
 13464 002a 1421     		movs	r1, #20
 13465 002c 2046     		mov	r0, r4
 13466 002e FFF7FEFF 		bl	ism330dhcx_read_reg
 13467 0032 0028     		cmp	r0, #0
 13468 0034 ECD1     		bne	.L1686
 13469 0036 0021     		movs	r1, #0
 13470 0038 2046     		mov	r0, r4
 13471 003a FFF7FEFF 		bl	ism330dhcx_mem_bank_set
 13472 003e E7E7     		b	.L1686
 13473              	.L1687:
 13474 0040 0023     		movs	r3, #0
 13475 0042 2B70     		strb	r3, [r5]
 13476              	.L1685:
 13477 0044 03B0     		add	sp, sp, #12
 13478              		@ sp needed
 13479 0046 30BD     		pop	{r4, r5, pc}
 13480              	.L1688:
 13481 0048 0123     		movs	r3, #1
 13482 004a 2B70     		strb	r3, [r5]
 13483 004c FAE7     		b	.L1685
 13485              		.section	.text.ism330dhcx_sh_reset_set,"ax",%progbits
 13486              		.align	1
 13487              		.global	ism330dhcx_sh_reset_set
 13488              		.syntax unified
 13489              		.thumb
 13490              		.thumb_func
 13492              	ism330dhcx_sh_reset_set:
 13493              		@ args = 0, pretend = 0, frame = 8
 13494              		@ frame_needed = 0, uses_anonymous_args = 0
 13495 0000 10B5     		push	{r4, lr}
 13496 0002 82B0     		sub	sp, sp, #8
 13497 0004 0446     		mov	r4, r0
 13498 0006 0121     		movs	r1, #1
 13499 0008 FFF7FEFF 		bl	ism330dhcx_mem_bank_set
 13500 000c 0346     		mov	r3, r0
 13501 000e 18B1     		cbz	r0, .L1698
 13502              	.L1695:
 13503 0010 CBB1     		cbz	r3, .L1699
 13504              	.L1694:
 13505 0012 1846     		mov	r0, r3
 13506 0014 02B0     		add	sp, sp, #8
 13507              		@ sp needed
 13508 0016 10BD     		pop	{r4, pc}
 13509              	.L1698:
 13510 0018 0123     		movs	r3, #1
 13511 001a 01AA     		add	r2, sp, #4
 13512 001c 1421     		movs	r1, #20
 13513 001e 2046     		mov	r0, r4
ARM GAS  C:\Temp\cclPUGyV.s 			page 227


 13514 0020 FFF7FEFF 		bl	ism330dhcx_read_reg
 13515 0024 0346     		mov	r3, r0
 13516 0026 0028     		cmp	r0, #0
 13517 0028 F3D1     		bne	.L1694
 13518 002a 9DF80430 		ldrb	r3, [sp, #4]	@ zero_extendqisi2
 13519 002e 43F08003 		orr	r3, r3, #128
 13520 0032 8DF80430 		strb	r3, [sp, #4]
 13521 0036 0123     		movs	r3, #1
 13522 0038 01AA     		add	r2, sp, #4
 13523 003a 1421     		movs	r1, #20
 13524 003c 2046     		mov	r0, r4
 13525 003e FFF7FEFF 		bl	ism330dhcx_write_reg
 13526 0042 0346     		mov	r3, r0
 13527 0044 E4E7     		b	.L1695
 13528              	.L1699:
 13529 0046 9DF80430 		ldrb	r3, [sp, #4]	@ zero_extendqisi2
 13530 004a 6FF3C713 		bfc	r3, #7, #1
 13531 004e 8DF80430 		strb	r3, [sp, #4]
 13532 0052 0123     		movs	r3, #1
 13533 0054 01AA     		add	r2, sp, #4
 13534 0056 1421     		movs	r1, #20
 13535 0058 2046     		mov	r0, r4
 13536 005a FFF7FEFF 		bl	ism330dhcx_write_reg
 13537 005e 0346     		mov	r3, r0
 13538 0060 0028     		cmp	r0, #0
 13539 0062 D6D1     		bne	.L1694
 13540 0064 0021     		movs	r1, #0
 13541 0066 2046     		mov	r0, r4
 13542 0068 FFF7FEFF 		bl	ism330dhcx_mem_bank_set
 13543 006c 0346     		mov	r3, r0
 13544 006e D0E7     		b	.L1694
 13546              		.section	.text.ism330dhcx_sh_reset_get,"ax",%progbits
 13547              		.align	1
 13548              		.global	ism330dhcx_sh_reset_get
 13549              		.syntax unified
 13550              		.thumb
 13551              		.thumb_func
 13553              	ism330dhcx_sh_reset_get:
 13554              		@ args = 0, pretend = 0, frame = 8
 13555              		@ frame_needed = 0, uses_anonymous_args = 0
 13556 0000 30B5     		push	{r4, r5, lr}
 13557 0002 83B0     		sub	sp, sp, #12
 13558 0004 0446     		mov	r4, r0
 13559 0006 0D46     		mov	r5, r1
 13560 0008 0121     		movs	r1, #1
 13561 000a FFF7FEFF 		bl	ism330dhcx_mem_bank_set
 13562 000e 08B1     		cbz	r0, .L1703
 13563              	.L1700:
 13564 0010 03B0     		add	sp, sp, #12
 13565              		@ sp needed
 13566 0012 30BD     		pop	{r4, r5, pc}
 13567              	.L1703:
 13568 0014 0123     		movs	r3, #1
 13569 0016 01AA     		add	r2, sp, #4
 13570 0018 1421     		movs	r1, #20
 13571 001a 2046     		mov	r0, r4
 13572 001c FFF7FEFF 		bl	ism330dhcx_read_reg
ARM GAS  C:\Temp\cclPUGyV.s 			page 228


 13573 0020 9DF80430 		ldrb	r3, [sp, #4]	@ zero_extendqisi2
 13574 0024 C3F3C013 		ubfx	r3, r3, #7, #1
 13575 0028 2B70     		strb	r3, [r5]
 13576 002a 0028     		cmp	r0, #0
 13577 002c F0D1     		bne	.L1700
 13578 002e 0021     		movs	r1, #0
 13579 0030 2046     		mov	r0, r4
 13580 0032 FFF7FEFF 		bl	ism330dhcx_mem_bank_set
 13581 0036 EBE7     		b	.L1700
 13583              		.section	.text.ism330dhcx_sh_data_rate_set,"ax",%progbits
 13584              		.align	1
 13585              		.global	ism330dhcx_sh_data_rate_set
 13586              		.syntax unified
 13587              		.thumb
 13588              		.thumb_func
 13590              	ism330dhcx_sh_data_rate_set:
 13591              		@ args = 0, pretend = 0, frame = 8
 13592              		@ frame_needed = 0, uses_anonymous_args = 0
 13593 0000 30B5     		push	{r4, r5, lr}
 13594 0002 83B0     		sub	sp, sp, #12
 13595 0004 0446     		mov	r4, r0
 13596 0006 0D46     		mov	r5, r1
 13597 0008 0121     		movs	r1, #1
 13598 000a FFF7FEFF 		bl	ism330dhcx_mem_bank_set
 13599 000e 0346     		mov	r3, r0
 13600 0010 18B1     		cbz	r0, .L1708
 13601              	.L1705:
 13602 0012 CBB1     		cbz	r3, .L1709
 13603              	.L1704:
 13604 0014 1846     		mov	r0, r3
 13605 0016 03B0     		add	sp, sp, #12
 13606              		@ sp needed
 13607 0018 30BD     		pop	{r4, r5, pc}
 13608              	.L1708:
 13609 001a 0123     		movs	r3, #1
 13610 001c 01AA     		add	r2, sp, #4
 13611 001e 1721     		movs	r1, #23
 13612 0020 2046     		mov	r0, r4
 13613 0022 FFF7FEFF 		bl	ism330dhcx_read_reg
 13614 0026 0346     		mov	r3, r0
 13615 0028 0028     		cmp	r0, #0
 13616 002a F3D1     		bne	.L1704
 13617 002c 9DF80430 		ldrb	r3, [sp, #4]	@ zero_extendqisi2
 13618 0030 65F38713 		bfi	r3, r5, #6, #2
 13619 0034 8DF80430 		strb	r3, [sp, #4]
 13620 0038 0123     		movs	r3, #1
 13621 003a 01AA     		add	r2, sp, #4
 13622 003c 1721     		movs	r1, #23
 13623 003e 2046     		mov	r0, r4
 13624 0040 FFF7FEFF 		bl	ism330dhcx_write_reg
 13625 0044 0346     		mov	r3, r0
 13626 0046 E4E7     		b	.L1705
 13627              	.L1709:
 13628 0048 0021     		movs	r1, #0
 13629 004a 2046     		mov	r0, r4
 13630 004c FFF7FEFF 		bl	ism330dhcx_mem_bank_set
 13631 0050 0346     		mov	r3, r0
ARM GAS  C:\Temp\cclPUGyV.s 			page 229


 13632 0052 DFE7     		b	.L1704
 13634              		.section	.text.ism330dhcx_sh_data_rate_get,"ax",%progbits
 13635              		.align	1
 13636              		.global	ism330dhcx_sh_data_rate_get
 13637              		.syntax unified
 13638              		.thumb
 13639              		.thumb_func
 13641              	ism330dhcx_sh_data_rate_get:
 13642              		@ args = 0, pretend = 0, frame = 8
 13643              		@ frame_needed = 0, uses_anonymous_args = 0
 13644 0000 30B5     		push	{r4, r5, lr}
 13645 0002 83B0     		sub	sp, sp, #12
 13646 0004 0446     		mov	r4, r0
 13647 0006 0D46     		mov	r5, r1
 13648 0008 0121     		movs	r1, #1
 13649 000a FFF7FEFF 		bl	ism330dhcx_mem_bank_set
 13650 000e 40B1     		cbz	r0, .L1720
 13651              	.L1711:
 13652 0010 9DF80430 		ldrb	r3, [sp, #4]	@ zero_extendqisi2
 13653 0014 9B09     		lsrs	r3, r3, #6
 13654 0016 032B     		cmp	r3, #3
 13655 0018 1DD8     		bhi	.L1712
 13656 001a DFE803F0 		tbb	[pc, r3]
 13657              	.L1714:
 13658 001e 0F       		.byte	(.L1717-.L1714)/2
 13659 001f 13       		.byte	(.L1716-.L1714)/2
 13660 0020 16       		.byte	(.L1715-.L1714)/2
 13661 0021 19       		.byte	(.L1713-.L1714)/2
 13662              		.p2align 1
 13663              	.L1720:
 13664 0022 0123     		movs	r3, #1
 13665 0024 01AA     		add	r2, sp, #4
 13666 0026 1721     		movs	r1, #23
 13667 0028 2046     		mov	r0, r4
 13668 002a FFF7FEFF 		bl	ism330dhcx_read_reg
 13669 002e 0028     		cmp	r0, #0
 13670 0030 EED1     		bne	.L1711
 13671 0032 0021     		movs	r1, #0
 13672 0034 2046     		mov	r0, r4
 13673 0036 FFF7FEFF 		bl	ism330dhcx_mem_bank_set
 13674 003a E9E7     		b	.L1711
 13675              	.L1717:
 13676 003c 0023     		movs	r3, #0
 13677 003e 2B70     		strb	r3, [r5]
 13678              	.L1710:
 13679 0040 03B0     		add	sp, sp, #12
 13680              		@ sp needed
 13681 0042 30BD     		pop	{r4, r5, pc}
 13682              	.L1716:
 13683 0044 0123     		movs	r3, #1
 13684 0046 2B70     		strb	r3, [r5]
 13685 0048 FAE7     		b	.L1710
 13686              	.L1715:
 13687 004a 0223     		movs	r3, #2
 13688 004c 2B70     		strb	r3, [r5]
 13689 004e F7E7     		b	.L1710
 13690              	.L1713:
ARM GAS  C:\Temp\cclPUGyV.s 			page 230


 13691 0050 0323     		movs	r3, #3
 13692 0052 2B70     		strb	r3, [r5]
 13693 0054 F4E7     		b	.L1710
 13694              	.L1712:
 13695 0056 0023     		movs	r3, #0
 13696 0058 2B70     		strb	r3, [r5]
 13697 005a F1E7     		b	.L1710
 13699              		.section	.text.ism330dhcx_sh_cfg_write,"ax",%progbits
 13700              		.align	1
 13701              		.global	ism330dhcx_sh_cfg_write
 13702              		.syntax unified
 13703              		.thumb
 13704              		.thumb_func
 13706              	ism330dhcx_sh_cfg_write:
 13707              		@ args = 0, pretend = 0, frame = 8
 13708              		@ frame_needed = 0, uses_anonymous_args = 0
 13709 0000 30B5     		push	{r4, r5, lr}
 13710 0002 83B0     		sub	sp, sp, #12
 13711 0004 0546     		mov	r5, r0
 13712 0006 0C46     		mov	r4, r1
 13713 0008 0121     		movs	r1, #1
 13714 000a FFF7FEFF 		bl	ism330dhcx_mem_bank_set
 13715 000e 0346     		mov	r3, r0
 13716 0010 18B1     		cbz	r0, .L1725
 13717              	.L1722:
 13718 0012 03B3     		cbz	r3, .L1726
 13719              	.L1721:
 13720 0014 1846     		mov	r0, r3
 13721 0016 03B0     		add	sp, sp, #12
 13722              		@ sp needed
 13723 0018 30BD     		pop	{r4, r5, pc}
 13724              	.L1725:
 13725 001a 2378     		ldrb	r3, [r4]	@ zero_extendqisi2
 13726 001c 5B08     		lsrs	r3, r3, #1
 13727 001e 9DF80420 		ldrb	r2, [sp, #4]	@ zero_extendqisi2
 13728 0022 63F34702 		bfi	r2, r3, #1, #7
 13729 0026 8DF80420 		strb	r2, [sp, #4]
 13730 002a D3B2     		uxtb	r3, r2
 13731 002c 6FF30003 		bfc	r3, #0, #1
 13732 0030 8DF80430 		strb	r3, [sp, #4]
 13733 0034 0123     		movs	r3, #1
 13734 0036 01AA     		add	r2, sp, #4
 13735 0038 1521     		movs	r1, #21
 13736 003a 2846     		mov	r0, r5
 13737 003c FFF7FEFF 		bl	ism330dhcx_write_reg
 13738 0040 0346     		mov	r3, r0
 13739 0042 0028     		cmp	r0, #0
 13740 0044 E6D1     		bne	.L1721
 13741 0046 0123     		movs	r3, #1
 13742 0048 E218     		adds	r2, r4, r3
 13743 004a 1621     		movs	r1, #22
 13744 004c 2846     		mov	r0, r5
 13745 004e FFF7FEFF 		bl	ism330dhcx_write_reg
 13746 0052 0346     		mov	r3, r0
 13747 0054 DDE7     		b	.L1722
 13748              	.L1726:
 13749 0056 0123     		movs	r3, #1
ARM GAS  C:\Temp\cclPUGyV.s 			page 231


 13750 0058 A21C     		adds	r2, r4, #2
 13751 005a 2121     		movs	r1, #33
 13752 005c 2846     		mov	r0, r5
 13753 005e FFF7FEFF 		bl	ism330dhcx_write_reg
 13754 0062 0346     		mov	r3, r0
 13755 0064 0028     		cmp	r0, #0
 13756 0066 D5D1     		bne	.L1721
 13757 0068 0021     		movs	r1, #0
 13758 006a 2846     		mov	r0, r5
 13759 006c FFF7FEFF 		bl	ism330dhcx_mem_bank_set
 13760 0070 0346     		mov	r3, r0
 13761 0072 CFE7     		b	.L1721
 13763              		.section	.text.ism330dhcx_sh_slv0_cfg_read,"ax",%progbits
 13764              		.align	1
 13765              		.global	ism330dhcx_sh_slv0_cfg_read
 13766              		.syntax unified
 13767              		.thumb
 13768              		.thumb_func
 13770              	ism330dhcx_sh_slv0_cfg_read:
 13771              		@ args = 0, pretend = 0, frame = 8
 13772              		@ frame_needed = 0, uses_anonymous_args = 0
 13773 0000 30B5     		push	{r4, r5, lr}
 13774 0002 83B0     		sub	sp, sp, #12
 13775 0004 0546     		mov	r5, r0
 13776 0006 0C46     		mov	r4, r1
 13777 0008 0121     		movs	r1, #1
 13778 000a FFF7FEFF 		bl	ism330dhcx_mem_bank_set
 13779 000e 0346     		mov	r3, r0
 13780 0010 18B1     		cbz	r0, .L1731
 13781              	.L1728:
 13782 0012 03B3     		cbz	r3, .L1732
 13783              	.L1727:
 13784 0014 1846     		mov	r0, r3
 13785 0016 03B0     		add	sp, sp, #12
 13786              		@ sp needed
 13787 0018 30BD     		pop	{r4, r5, pc}
 13788              	.L1731:
 13789 001a 2378     		ldrb	r3, [r4]	@ zero_extendqisi2
 13790 001c 5B08     		lsrs	r3, r3, #1
 13791 001e 9DF80020 		ldrb	r2, [sp]	@ zero_extendqisi2
 13792 0022 63F34702 		bfi	r2, r3, #1, #7
 13793 0026 8DF80020 		strb	r2, [sp]
 13794 002a D3B2     		uxtb	r3, r2
 13795 002c 43F00103 		orr	r3, r3, #1
 13796 0030 8DF80030 		strb	r3, [sp]
 13797 0034 0123     		movs	r3, #1
 13798 0036 6A46     		mov	r2, sp
 13799 0038 1521     		movs	r1, #21
 13800 003a 2846     		mov	r0, r5
 13801 003c FFF7FEFF 		bl	ism330dhcx_write_reg
 13802 0040 0346     		mov	r3, r0
 13803 0042 0028     		cmp	r0, #0
 13804 0044 E6D1     		bne	.L1727
 13805 0046 0123     		movs	r3, #1
 13806 0048 E218     		adds	r2, r4, r3
 13807 004a 1621     		movs	r1, #22
 13808 004c 2846     		mov	r0, r5
ARM GAS  C:\Temp\cclPUGyV.s 			page 232


 13809 004e FFF7FEFF 		bl	ism330dhcx_write_reg
 13810 0052 0346     		mov	r3, r0
 13811 0054 DDE7     		b	.L1728
 13812              	.L1732:
 13813 0056 0123     		movs	r3, #1
 13814 0058 01AA     		add	r2, sp, #4
 13815 005a 1721     		movs	r1, #23
 13816 005c 2846     		mov	r0, r5
 13817 005e FFF7FEFF 		bl	ism330dhcx_read_reg
 13818 0062 0346     		mov	r3, r0
 13819 0064 0028     		cmp	r0, #0
 13820 0066 D5D1     		bne	.L1727
 13821 0068 A278     		ldrb	r2, [r4, #2]	@ zero_extendqisi2
 13822 006a 9DF80430 		ldrb	r3, [sp, #4]	@ zero_extendqisi2
 13823 006e 62F30203 		bfi	r3, r2, #0, #3
 13824 0072 8DF80430 		strb	r3, [sp, #4]
 13825 0076 0123     		movs	r3, #1
 13826 0078 01AA     		add	r2, sp, #4
 13827 007a 1721     		movs	r1, #23
 13828 007c 2846     		mov	r0, r5
 13829 007e FFF7FEFF 		bl	ism330dhcx_write_reg
 13830 0082 0346     		mov	r3, r0
 13831 0084 0028     		cmp	r0, #0
 13832 0086 C5D1     		bne	.L1727
 13833 0088 0021     		movs	r1, #0
 13834 008a 2846     		mov	r0, r5
 13835 008c FFF7FEFF 		bl	ism330dhcx_mem_bank_set
 13836 0090 0346     		mov	r3, r0
 13837 0092 BFE7     		b	.L1727
 13839              		.section	.text.ism330dhcx_sh_slv1_cfg_read,"ax",%progbits
 13840              		.align	1
 13841              		.global	ism330dhcx_sh_slv1_cfg_read
 13842              		.syntax unified
 13843              		.thumb
 13844              		.thumb_func
 13846              	ism330dhcx_sh_slv1_cfg_read:
 13847              		@ args = 0, pretend = 0, frame = 8
 13848              		@ frame_needed = 0, uses_anonymous_args = 0
 13849 0000 30B5     		push	{r4, r5, lr}
 13850 0002 83B0     		sub	sp, sp, #12
 13851 0004 0546     		mov	r5, r0
 13852 0006 0C46     		mov	r4, r1
 13853 0008 0121     		movs	r1, #1
 13854 000a FFF7FEFF 		bl	ism330dhcx_mem_bank_set
 13855 000e 0346     		mov	r3, r0
 13856 0010 18B1     		cbz	r0, .L1737
 13857              	.L1734:
 13858 0012 03B3     		cbz	r3, .L1738
 13859              	.L1733:
 13860 0014 1846     		mov	r0, r3
 13861 0016 03B0     		add	sp, sp, #12
 13862              		@ sp needed
 13863 0018 30BD     		pop	{r4, r5, pc}
 13864              	.L1737:
 13865 001a 2378     		ldrb	r3, [r4]	@ zero_extendqisi2
 13866 001c 5B08     		lsrs	r3, r3, #1
 13867 001e 9DF80020 		ldrb	r2, [sp]	@ zero_extendqisi2
ARM GAS  C:\Temp\cclPUGyV.s 			page 233


 13868 0022 63F34702 		bfi	r2, r3, #1, #7
 13869 0026 8DF80020 		strb	r2, [sp]
 13870 002a D3B2     		uxtb	r3, r2
 13871 002c 43F00103 		orr	r3, r3, #1
 13872 0030 8DF80030 		strb	r3, [sp]
 13873 0034 0123     		movs	r3, #1
 13874 0036 6A46     		mov	r2, sp
 13875 0038 1821     		movs	r1, #24
 13876 003a 2846     		mov	r0, r5
 13877 003c FFF7FEFF 		bl	ism330dhcx_write_reg
 13878 0040 0346     		mov	r3, r0
 13879 0042 0028     		cmp	r0, #0
 13880 0044 E6D1     		bne	.L1733
 13881 0046 0123     		movs	r3, #1
 13882 0048 E218     		adds	r2, r4, r3
 13883 004a 1921     		movs	r1, #25
 13884 004c 2846     		mov	r0, r5
 13885 004e FFF7FEFF 		bl	ism330dhcx_write_reg
 13886 0052 0346     		mov	r3, r0
 13887 0054 DDE7     		b	.L1734
 13888              	.L1738:
 13889 0056 0123     		movs	r3, #1
 13890 0058 01AA     		add	r2, sp, #4
 13891 005a 1A21     		movs	r1, #26
 13892 005c 2846     		mov	r0, r5
 13893 005e FFF7FEFF 		bl	ism330dhcx_read_reg
 13894 0062 0346     		mov	r3, r0
 13895 0064 0028     		cmp	r0, #0
 13896 0066 D5D1     		bne	.L1733
 13897 0068 A278     		ldrb	r2, [r4, #2]	@ zero_extendqisi2
 13898 006a 9DF80430 		ldrb	r3, [sp, #4]	@ zero_extendqisi2
 13899 006e 62F30203 		bfi	r3, r2, #0, #3
 13900 0072 8DF80430 		strb	r3, [sp, #4]
 13901 0076 0123     		movs	r3, #1
 13902 0078 01AA     		add	r2, sp, #4
 13903 007a 1A21     		movs	r1, #26
 13904 007c 2846     		mov	r0, r5
 13905 007e FFF7FEFF 		bl	ism330dhcx_write_reg
 13906 0082 0346     		mov	r3, r0
 13907 0084 0028     		cmp	r0, #0
 13908 0086 C5D1     		bne	.L1733
 13909 0088 0021     		movs	r1, #0
 13910 008a 2846     		mov	r0, r5
 13911 008c FFF7FEFF 		bl	ism330dhcx_mem_bank_set
 13912 0090 0346     		mov	r3, r0
 13913 0092 BFE7     		b	.L1733
 13915              		.section	.text.ism330dhcx_sh_slv2_cfg_read,"ax",%progbits
 13916              		.align	1
 13917              		.global	ism330dhcx_sh_slv2_cfg_read
 13918              		.syntax unified
 13919              		.thumb
 13920              		.thumb_func
 13922              	ism330dhcx_sh_slv2_cfg_read:
 13923              		@ args = 0, pretend = 0, frame = 8
 13924              		@ frame_needed = 0, uses_anonymous_args = 0
 13925 0000 30B5     		push	{r4, r5, lr}
 13926 0002 83B0     		sub	sp, sp, #12
ARM GAS  C:\Temp\cclPUGyV.s 			page 234


 13927 0004 0546     		mov	r5, r0
 13928 0006 0C46     		mov	r4, r1
 13929 0008 0121     		movs	r1, #1
 13930 000a FFF7FEFF 		bl	ism330dhcx_mem_bank_set
 13931 000e 0346     		mov	r3, r0
 13932 0010 18B1     		cbz	r0, .L1743
 13933              	.L1740:
 13934 0012 03B3     		cbz	r3, .L1744
 13935              	.L1739:
 13936 0014 1846     		mov	r0, r3
 13937 0016 03B0     		add	sp, sp, #12
 13938              		@ sp needed
 13939 0018 30BD     		pop	{r4, r5, pc}
 13940              	.L1743:
 13941 001a 2378     		ldrb	r3, [r4]	@ zero_extendqisi2
 13942 001c 5B08     		lsrs	r3, r3, #1
 13943 001e 9DF80020 		ldrb	r2, [sp]	@ zero_extendqisi2
 13944 0022 63F34702 		bfi	r2, r3, #1, #7
 13945 0026 8DF80020 		strb	r2, [sp]
 13946 002a D3B2     		uxtb	r3, r2
 13947 002c 43F00103 		orr	r3, r3, #1
 13948 0030 8DF80030 		strb	r3, [sp]
 13949 0034 0123     		movs	r3, #1
 13950 0036 6A46     		mov	r2, sp
 13951 0038 1B21     		movs	r1, #27
 13952 003a 2846     		mov	r0, r5
 13953 003c FFF7FEFF 		bl	ism330dhcx_write_reg
 13954 0040 0346     		mov	r3, r0
 13955 0042 0028     		cmp	r0, #0
 13956 0044 E6D1     		bne	.L1739
 13957 0046 0123     		movs	r3, #1
 13958 0048 E218     		adds	r2, r4, r3
 13959 004a 1C21     		movs	r1, #28
 13960 004c 2846     		mov	r0, r5
 13961 004e FFF7FEFF 		bl	ism330dhcx_write_reg
 13962 0052 0346     		mov	r3, r0
 13963 0054 DDE7     		b	.L1740
 13964              	.L1744:
 13965 0056 0123     		movs	r3, #1
 13966 0058 01AA     		add	r2, sp, #4
 13967 005a 1D21     		movs	r1, #29
 13968 005c 2846     		mov	r0, r5
 13969 005e FFF7FEFF 		bl	ism330dhcx_read_reg
 13970 0062 0346     		mov	r3, r0
 13971 0064 0028     		cmp	r0, #0
 13972 0066 D5D1     		bne	.L1739
 13973 0068 A278     		ldrb	r2, [r4, #2]	@ zero_extendqisi2
 13974 006a 9DF80430 		ldrb	r3, [sp, #4]	@ zero_extendqisi2
 13975 006e 62F30203 		bfi	r3, r2, #0, #3
 13976 0072 8DF80430 		strb	r3, [sp, #4]
 13977 0076 0123     		movs	r3, #1
 13978 0078 01AA     		add	r2, sp, #4
 13979 007a 1D21     		movs	r1, #29
 13980 007c 2846     		mov	r0, r5
 13981 007e FFF7FEFF 		bl	ism330dhcx_write_reg
 13982 0082 0346     		mov	r3, r0
 13983 0084 0028     		cmp	r0, #0
ARM GAS  C:\Temp\cclPUGyV.s 			page 235


 13984 0086 C5D1     		bne	.L1739
 13985 0088 0021     		movs	r1, #0
 13986 008a 2846     		mov	r0, r5
 13987 008c FFF7FEFF 		bl	ism330dhcx_mem_bank_set
 13988 0090 0346     		mov	r3, r0
 13989 0092 BFE7     		b	.L1739
 13991              		.section	.text.ism330dhcx_sh_slv3_cfg_read,"ax",%progbits
 13992              		.align	1
 13993              		.global	ism330dhcx_sh_slv3_cfg_read
 13994              		.syntax unified
 13995              		.thumb
 13996              		.thumb_func
 13998              	ism330dhcx_sh_slv3_cfg_read:
 13999              		@ args = 0, pretend = 0, frame = 8
 14000              		@ frame_needed = 0, uses_anonymous_args = 0
 14001 0000 30B5     		push	{r4, r5, lr}
 14002 0002 83B0     		sub	sp, sp, #12
 14003 0004 0546     		mov	r5, r0
 14004 0006 0C46     		mov	r4, r1
 14005 0008 0121     		movs	r1, #1
 14006 000a FFF7FEFF 		bl	ism330dhcx_mem_bank_set
 14007 000e 0346     		mov	r3, r0
 14008 0010 18B1     		cbz	r0, .L1749
 14009              	.L1746:
 14010 0012 03B3     		cbz	r3, .L1750
 14011              	.L1745:
 14012 0014 1846     		mov	r0, r3
 14013 0016 03B0     		add	sp, sp, #12
 14014              		@ sp needed
 14015 0018 30BD     		pop	{r4, r5, pc}
 14016              	.L1749:
 14017 001a 2378     		ldrb	r3, [r4]	@ zero_extendqisi2
 14018 001c 5B08     		lsrs	r3, r3, #1
 14019 001e 9DF80020 		ldrb	r2, [sp]	@ zero_extendqisi2
 14020 0022 63F34702 		bfi	r2, r3, #1, #7
 14021 0026 8DF80020 		strb	r2, [sp]
 14022 002a D3B2     		uxtb	r3, r2
 14023 002c 43F00103 		orr	r3, r3, #1
 14024 0030 8DF80030 		strb	r3, [sp]
 14025 0034 0123     		movs	r3, #1
 14026 0036 6A46     		mov	r2, sp
 14027 0038 1E21     		movs	r1, #30
 14028 003a 2846     		mov	r0, r5
 14029 003c FFF7FEFF 		bl	ism330dhcx_write_reg
 14030 0040 0346     		mov	r3, r0
 14031 0042 0028     		cmp	r0, #0
 14032 0044 E6D1     		bne	.L1745
 14033 0046 0123     		movs	r3, #1
 14034 0048 E218     		adds	r2, r4, r3
 14035 004a 1F21     		movs	r1, #31
 14036 004c 2846     		mov	r0, r5
 14037 004e FFF7FEFF 		bl	ism330dhcx_write_reg
 14038 0052 0346     		mov	r3, r0
 14039 0054 DDE7     		b	.L1746
 14040              	.L1750:
 14041 0056 0123     		movs	r3, #1
 14042 0058 01AA     		add	r2, sp, #4
ARM GAS  C:\Temp\cclPUGyV.s 			page 236


 14043 005a 2021     		movs	r1, #32
 14044 005c 2846     		mov	r0, r5
 14045 005e FFF7FEFF 		bl	ism330dhcx_read_reg
 14046 0062 0346     		mov	r3, r0
 14047 0064 0028     		cmp	r0, #0
 14048 0066 D5D1     		bne	.L1745
 14049 0068 A278     		ldrb	r2, [r4, #2]	@ zero_extendqisi2
 14050 006a 9DF80430 		ldrb	r3, [sp, #4]	@ zero_extendqisi2
 14051 006e 62F30203 		bfi	r3, r2, #0, #3
 14052 0072 8DF80430 		strb	r3, [sp, #4]
 14053 0076 0123     		movs	r3, #1
 14054 0078 01AA     		add	r2, sp, #4
 14055 007a 2021     		movs	r1, #32
 14056 007c 2846     		mov	r0, r5
 14057 007e FFF7FEFF 		bl	ism330dhcx_write_reg
 14058 0082 0346     		mov	r3, r0
 14059 0084 0028     		cmp	r0, #0
 14060 0086 C5D1     		bne	.L1745
 14061 0088 0021     		movs	r1, #0
 14062 008a 2846     		mov	r0, r5
 14063 008c FFF7FEFF 		bl	ism330dhcx_mem_bank_set
 14064 0090 0346     		mov	r3, r0
 14065 0092 BFE7     		b	.L1745
 14067              		.section	.text.ism330dhcx_sh_status_get,"ax",%progbits
 14068              		.align	1
 14069              		.global	ism330dhcx_sh_status_get
 14070              		.syntax unified
 14071              		.thumb
 14072              		.thumb_func
 14074              	ism330dhcx_sh_status_get:
 14075              		@ args = 0, pretend = 0, frame = 0
 14076              		@ frame_needed = 0, uses_anonymous_args = 0
 14077 0000 38B5     		push	{r3, r4, r5, lr}
 14078 0002 0446     		mov	r4, r0
 14079 0004 0D46     		mov	r5, r1
 14080 0006 0121     		movs	r1, #1
 14081 0008 FFF7FEFF 		bl	ism330dhcx_mem_bank_set
 14082 000c 00B1     		cbz	r0, .L1754
 14083              	.L1751:
 14084 000e 38BD     		pop	{r3, r4, r5, pc}
 14085              	.L1754:
 14086 0010 0123     		movs	r3, #1
 14087 0012 2A46     		mov	r2, r5
 14088 0014 2221     		movs	r1, #34
 14089 0016 2046     		mov	r0, r4
 14090 0018 FFF7FEFF 		bl	ism330dhcx_read_reg
 14091 001c 0028     		cmp	r0, #0
 14092 001e F6D1     		bne	.L1751
 14093 0020 0021     		movs	r1, #0
 14094 0022 2046     		mov	r0, r4
 14095 0024 FFF7FEFF 		bl	ism330dhcx_mem_bank_set
 14096 0028 F1E7     		b	.L1751
 14098              		.ident	"GCC: (xPack GNU Arm Embedded GCC x86_64) 12.3.1 20230626"
ARM GAS  C:\Temp\cclPUGyV.s 			page 237


DEFINED SYMBOLS
                            *ABS*:00000000 ism330dhcx_reg.c
  C:\Temp\cclPUGyV.s:18     .text.ism330dhcx_read_reg:00000000 $t
  C:\Temp\cclPUGyV.s:24     .text.ism330dhcx_read_reg:00000000 ism330dhcx_read_reg
  C:\Temp\cclPUGyV.s:38     .text.ism330dhcx_write_reg:00000000 $t
  C:\Temp\cclPUGyV.s:44     .text.ism330dhcx_write_reg:00000000 ism330dhcx_write_reg
  C:\Temp\cclPUGyV.s:58     .text.ism330dhcx_from_fs2g_to_mg:00000000 $t
  C:\Temp\cclPUGyV.s:64     .text.ism330dhcx_from_fs2g_to_mg:00000000 ism330dhcx_from_fs2g_to_mg
  C:\Temp\cclPUGyV.s:76     .text.ism330dhcx_from_fs2g_to_mg:00000014 $d
  C:\Temp\cclPUGyV.s:79     .text.ism330dhcx_from_fs4g_to_mg:00000000 $t
  C:\Temp\cclPUGyV.s:85     .text.ism330dhcx_from_fs4g_to_mg:00000000 ism330dhcx_from_fs4g_to_mg
  C:\Temp\cclPUGyV.s:97     .text.ism330dhcx_from_fs4g_to_mg:00000014 $d
  C:\Temp\cclPUGyV.s:100    .text.ism330dhcx_from_fs8g_to_mg:00000000 $t
  C:\Temp\cclPUGyV.s:106    .text.ism330dhcx_from_fs8g_to_mg:00000000 ism330dhcx_from_fs8g_to_mg
  C:\Temp\cclPUGyV.s:118    .text.ism330dhcx_from_fs8g_to_mg:00000014 $d
  C:\Temp\cclPUGyV.s:121    .text.ism330dhcx_from_fs16g_to_mg:00000000 $t
  C:\Temp\cclPUGyV.s:127    .text.ism330dhcx_from_fs16g_to_mg:00000000 ism330dhcx_from_fs16g_to_mg
  C:\Temp\cclPUGyV.s:139    .text.ism330dhcx_from_fs16g_to_mg:00000014 $d
  C:\Temp\cclPUGyV.s:142    .text.ism330dhcx_from_fs125dps_to_mdps:00000000 $t
  C:\Temp\cclPUGyV.s:148    .text.ism330dhcx_from_fs125dps_to_mdps:00000000 ism330dhcx_from_fs125dps_to_mdps
  C:\Temp\cclPUGyV.s:160    .text.ism330dhcx_from_fs125dps_to_mdps:00000014 $d
  C:\Temp\cclPUGyV.s:163    .text.ism330dhcx_from_fs250dps_to_mdps:00000000 $t
  C:\Temp\cclPUGyV.s:169    .text.ism330dhcx_from_fs250dps_to_mdps:00000000 ism330dhcx_from_fs250dps_to_mdps
  C:\Temp\cclPUGyV.s:181    .text.ism330dhcx_from_fs250dps_to_mdps:00000014 $d
  C:\Temp\cclPUGyV.s:184    .text.ism330dhcx_from_fs500dps_to_mdps:00000000 $t
  C:\Temp\cclPUGyV.s:190    .text.ism330dhcx_from_fs500dps_to_mdps:00000000 ism330dhcx_from_fs500dps_to_mdps
  C:\Temp\cclPUGyV.s:202    .text.ism330dhcx_from_fs500dps_to_mdps:00000014 $d
  C:\Temp\cclPUGyV.s:205    .text.ism330dhcx_from_fs1000dps_to_mdps:00000000 $t
  C:\Temp\cclPUGyV.s:211    .text.ism330dhcx_from_fs1000dps_to_mdps:00000000 ism330dhcx_from_fs1000dps_to_mdps
  C:\Temp\cclPUGyV.s:223    .text.ism330dhcx_from_fs1000dps_to_mdps:00000014 $d
  C:\Temp\cclPUGyV.s:226    .text.ism330dhcx_from_fs2000dps_to_mdps:00000000 $t
  C:\Temp\cclPUGyV.s:232    .text.ism330dhcx_from_fs2000dps_to_mdps:00000000 ism330dhcx_from_fs2000dps_to_mdps
  C:\Temp\cclPUGyV.s:244    .text.ism330dhcx_from_fs2000dps_to_mdps:00000014 $d
  C:\Temp\cclPUGyV.s:247    .text.ism330dhcx_from_fs4000dps_to_mdps:00000000 $t
  C:\Temp\cclPUGyV.s:253    .text.ism330dhcx_from_fs4000dps_to_mdps:00000000 ism330dhcx_from_fs4000dps_to_mdps
  C:\Temp\cclPUGyV.s:265    .text.ism330dhcx_from_fs4000dps_to_mdps:00000014 $d
  C:\Temp\cclPUGyV.s:268    .text.ism330dhcx_from_lsb_to_celsius:00000000 $t
  C:\Temp\cclPUGyV.s:274    .text.ism330dhcx_from_lsb_to_celsius:00000000 ism330dhcx_from_lsb_to_celsius
  C:\Temp\cclPUGyV.s:288    .text.ism330dhcx_from_lsb_to_celsius:0000001c $d
  C:\Temp\cclPUGyV.s:291    .text.ism330dhcx_from_lsb_to_nsec:00000000 $t
  C:\Temp\cclPUGyV.s:297    .text.ism330dhcx_from_lsb_to_nsec:00000000 ism330dhcx_from_lsb_to_nsec
  C:\Temp\cclPUGyV.s:306    .text.ism330dhcx_xl_full_scale_set:00000000 $t
  C:\Temp\cclPUGyV.s:312    .text.ism330dhcx_xl_full_scale_set:00000000 ism330dhcx_xl_full_scale_set
  C:\Temp\cclPUGyV.s:340    .text.ism330dhcx_xl_full_scale_get:00000000 $t
  C:\Temp\cclPUGyV.s:346    .text.ism330dhcx_xl_full_scale_get:00000000 ism330dhcx_xl_full_scale_get
  C:\Temp\cclPUGyV.s:362    .text.ism330dhcx_xl_full_scale_get:00000020 $d
  C:\Temp\cclPUGyV.s:366    .text.ism330dhcx_xl_full_scale_get:00000024 $t
  C:\Temp\cclPUGyV.s:392    .text.ism330dhcx_xl_data_rate_get:00000000 $t
  C:\Temp\cclPUGyV.s:398    .text.ism330dhcx_xl_data_rate_get:00000000 ism330dhcx_xl_data_rate_get
  C:\Temp\cclPUGyV.s:414    .text.ism330dhcx_xl_data_rate_get:0000001e $d
  C:\Temp\cclPUGyV.s:426    .text.ism330dhcx_xl_data_rate_get:0000002a $t
  C:\Temp\cclPUGyV.s:484    .text.ism330dhcx_gy_full_scale_set:00000000 $t
  C:\Temp\cclPUGyV.s:490    .text.ism330dhcx_gy_full_scale_set:00000000 ism330dhcx_gy_full_scale_set
  C:\Temp\cclPUGyV.s:518    .text.ism330dhcx_gy_full_scale_get:00000000 $t
  C:\Temp\cclPUGyV.s:524    .text.ism330dhcx_gy_full_scale_get:00000000 ism330dhcx_gy_full_scale_get
  C:\Temp\cclPUGyV.s:540    .text.ism330dhcx_gy_full_scale_get:00000020 $d
  C:\Temp\cclPUGyV.s:587    .text.ism330dhcx_gy_data_rate_get:00000000 $t
ARM GAS  C:\Temp\cclPUGyV.s 			page 238


  C:\Temp\cclPUGyV.s:593    .text.ism330dhcx_gy_data_rate_get:00000000 ism330dhcx_gy_data_rate_get
  C:\Temp\cclPUGyV.s:609    .text.ism330dhcx_gy_data_rate_get:0000001e $d
  C:\Temp\cclPUGyV.s:674    .text.ism330dhcx_block_data_update_set:00000000 $t
  C:\Temp\cclPUGyV.s:680    .text.ism330dhcx_block_data_update_set:00000000 ism330dhcx_block_data_update_set
  C:\Temp\cclPUGyV.s:708    .text.ism330dhcx_block_data_update_get:00000000 $t
  C:\Temp\cclPUGyV.s:714    .text.ism330dhcx_block_data_update_get:00000000 ism330dhcx_block_data_update_get
  C:\Temp\cclPUGyV.s:732    .text.ism330dhcx_xl_offset_weight_set:00000000 $t
  C:\Temp\cclPUGyV.s:738    .text.ism330dhcx_xl_offset_weight_set:00000000 ism330dhcx_xl_offset_weight_set
  C:\Temp\cclPUGyV.s:766    .text.ism330dhcx_xl_offset_weight_get:00000000 $t
  C:\Temp\cclPUGyV.s:772    .text.ism330dhcx_xl_offset_weight_get:00000000 ism330dhcx_xl_offset_weight_get
  C:\Temp\cclPUGyV.s:803    .text.ism330dhcx_xl_power_mode_set:00000000 $t
  C:\Temp\cclPUGyV.s:809    .text.ism330dhcx_xl_power_mode_set:00000000 ism330dhcx_xl_power_mode_set
  C:\Temp\cclPUGyV.s:837    .text.ism330dhcx_xl_power_mode_get:00000000 $t
  C:\Temp\cclPUGyV.s:843    .text.ism330dhcx_xl_power_mode_get:00000000 ism330dhcx_xl_power_mode_get
  C:\Temp\cclPUGyV.s:874    .text.ism330dhcx_gy_power_mode_set:00000000 $t
  C:\Temp\cclPUGyV.s:880    .text.ism330dhcx_gy_power_mode_set:00000000 ism330dhcx_gy_power_mode_set
  C:\Temp\cclPUGyV.s:908    .text.ism330dhcx_gy_power_mode_get:00000000 $t
  C:\Temp\cclPUGyV.s:914    .text.ism330dhcx_gy_power_mode_get:00000000 ism330dhcx_gy_power_mode_get
  C:\Temp\cclPUGyV.s:944    .text.ism330dhcx_status_reg_get:00000000 $t
  C:\Temp\cclPUGyV.s:950    .text.ism330dhcx_status_reg_get:00000000 ism330dhcx_status_reg_get
  C:\Temp\cclPUGyV.s:961    .text.ism330dhcx_xl_flag_data_ready_get:00000000 $t
  C:\Temp\cclPUGyV.s:967    .text.ism330dhcx_xl_flag_data_ready_get:00000000 ism330dhcx_xl_flag_data_ready_get
  C:\Temp\cclPUGyV.s:985    .text.ism330dhcx_gy_flag_data_ready_get:00000000 $t
  C:\Temp\cclPUGyV.s:991    .text.ism330dhcx_gy_flag_data_ready_get:00000000 ism330dhcx_gy_flag_data_ready_get
  C:\Temp\cclPUGyV.s:1009   .text.ism330dhcx_temp_flag_data_ready_get:00000000 $t
  C:\Temp\cclPUGyV.s:1015   .text.ism330dhcx_temp_flag_data_ready_get:00000000 ism330dhcx_temp_flag_data_ready_get
  C:\Temp\cclPUGyV.s:1033   .text.ism330dhcx_xl_usr_offset_x_set:00000000 $t
  C:\Temp\cclPUGyV.s:1039   .text.ism330dhcx_xl_usr_offset_x_set:00000000 ism330dhcx_xl_usr_offset_x_set
  C:\Temp\cclPUGyV.s:1050   .text.ism330dhcx_xl_usr_offset_x_get:00000000 $t
  C:\Temp\cclPUGyV.s:1056   .text.ism330dhcx_xl_usr_offset_x_get:00000000 ism330dhcx_xl_usr_offset_x_get
  C:\Temp\cclPUGyV.s:1067   .text.ism330dhcx_xl_usr_offset_y_set:00000000 $t
  C:\Temp\cclPUGyV.s:1073   .text.ism330dhcx_xl_usr_offset_y_set:00000000 ism330dhcx_xl_usr_offset_y_set
  C:\Temp\cclPUGyV.s:1084   .text.ism330dhcx_xl_usr_offset_y_get:00000000 $t
  C:\Temp\cclPUGyV.s:1090   .text.ism330dhcx_xl_usr_offset_y_get:00000000 ism330dhcx_xl_usr_offset_y_get
  C:\Temp\cclPUGyV.s:1101   .text.ism330dhcx_xl_usr_offset_z_set:00000000 $t
  C:\Temp\cclPUGyV.s:1107   .text.ism330dhcx_xl_usr_offset_z_set:00000000 ism330dhcx_xl_usr_offset_z_set
  C:\Temp\cclPUGyV.s:1118   .text.ism330dhcx_xl_usr_offset_z_get:00000000 $t
  C:\Temp\cclPUGyV.s:1124   .text.ism330dhcx_xl_usr_offset_z_get:00000000 ism330dhcx_xl_usr_offset_z_get
  C:\Temp\cclPUGyV.s:1135   .text.ism330dhcx_xl_usr_offset_set:00000000 $t
  C:\Temp\cclPUGyV.s:1141   .text.ism330dhcx_xl_usr_offset_set:00000000 ism330dhcx_xl_usr_offset_set
  C:\Temp\cclPUGyV.s:1169   .text.ism330dhcx_xl_usr_offset_get:00000000 $t
  C:\Temp\cclPUGyV.s:1175   .text.ism330dhcx_xl_usr_offset_get:00000000 ism330dhcx_xl_usr_offset_get
  C:\Temp\cclPUGyV.s:1193   .text.ism330dhcx_timestamp_rst:00000000 $t
  C:\Temp\cclPUGyV.s:1199   .text.ism330dhcx_timestamp_rst:00000000 ism330dhcx_timestamp_rst
  C:\Temp\cclPUGyV.s:1215   .text.ism330dhcx_timestamp_set:00000000 $t
  C:\Temp\cclPUGyV.s:1221   .text.ism330dhcx_timestamp_set:00000000 ism330dhcx_timestamp_set
  C:\Temp\cclPUGyV.s:1249   .text.ism330dhcx_timestamp_get:00000000 $t
  C:\Temp\cclPUGyV.s:1255   .text.ism330dhcx_timestamp_get:00000000 ism330dhcx_timestamp_get
  C:\Temp\cclPUGyV.s:1273   .text.ism330dhcx_timestamp_raw_get:00000000 $t
  C:\Temp\cclPUGyV.s:1279   .text.ism330dhcx_timestamp_raw_get:00000000 ism330dhcx_timestamp_raw_get
  C:\Temp\cclPUGyV.s:1305   .text.ism330dhcx_rounding_mode_set:00000000 $t
  C:\Temp\cclPUGyV.s:1311   .text.ism330dhcx_rounding_mode_set:00000000 ism330dhcx_rounding_mode_set
  C:\Temp\cclPUGyV.s:1339   .text.ism330dhcx_rounding_mode_get:00000000 $t
  C:\Temp\cclPUGyV.s:1345   .text.ism330dhcx_rounding_mode_get:00000000 ism330dhcx_rounding_mode_get
  C:\Temp\cclPUGyV.s:1361   .text.ism330dhcx_rounding_mode_get:00000020 $d
  C:\Temp\cclPUGyV.s:1365   .text.ism330dhcx_rounding_mode_get:00000024 $t
  C:\Temp\cclPUGyV.s:1391   .text.ism330dhcx_temperature_raw_get:00000000 $t
ARM GAS  C:\Temp\cclPUGyV.s 			page 239


  C:\Temp\cclPUGyV.s:1397   .text.ism330dhcx_temperature_raw_get:00000000 ism330dhcx_temperature_raw_get
  C:\Temp\cclPUGyV.s:1417   .text.ism330dhcx_angular_rate_raw_get:00000000 $t
  C:\Temp\cclPUGyV.s:1423   .text.ism330dhcx_angular_rate_raw_get:00000000 ism330dhcx_angular_rate_raw_get
  C:\Temp\cclPUGyV.s:1453   .text.ism330dhcx_acceleration_raw_get:00000000 $t
  C:\Temp\cclPUGyV.s:1459   .text.ism330dhcx_acceleration_raw_get:00000000 ism330dhcx_acceleration_raw_get
  C:\Temp\cclPUGyV.s:1489   .text.ism330dhcx_fifo_out_raw_get:00000000 $t
  C:\Temp\cclPUGyV.s:1495   .text.ism330dhcx_fifo_out_raw_get:00000000 ism330dhcx_fifo_out_raw_get
  C:\Temp\cclPUGyV.s:1506   .text.ism330dhcx_device_conf_set:00000000 $t
  C:\Temp\cclPUGyV.s:1512   .text.ism330dhcx_device_conf_set:00000000 ism330dhcx_device_conf_set
  C:\Temp\cclPUGyV.s:1540   .text.ism330dhcx_device_conf_get:00000000 $t
  C:\Temp\cclPUGyV.s:1546   .text.ism330dhcx_device_conf_get:00000000 ism330dhcx_device_conf_get
  C:\Temp\cclPUGyV.s:1564   .text.ism330dhcx_odr_cal_reg_set:00000000 $t
  C:\Temp\cclPUGyV.s:1570   .text.ism330dhcx_odr_cal_reg_set:00000000 ism330dhcx_odr_cal_reg_set
  C:\Temp\cclPUGyV.s:1596   .text.ism330dhcx_odr_cal_reg_get:00000000 $t
  C:\Temp\cclPUGyV.s:1602   .text.ism330dhcx_odr_cal_reg_get:00000000 ism330dhcx_odr_cal_reg_get
  C:\Temp\cclPUGyV.s:1619   .text.ism330dhcx_mem_bank_set:00000000 $t
  C:\Temp\cclPUGyV.s:1625   .text.ism330dhcx_mem_bank_set:00000000 ism330dhcx_mem_bank_set
  C:\Temp\cclPUGyV.s:1653   .text.ism330dhcx_all_sources_get:00000000 $t
  C:\Temp\cclPUGyV.s:1659   .text.ism330dhcx_all_sources_get:00000000 ism330dhcx_all_sources_get
  C:\Temp\cclPUGyV.s:1746   .text.ism330dhcx_number_of_steps_get:00000000 $t
  C:\Temp\cclPUGyV.s:1752   .text.ism330dhcx_number_of_steps_get:00000000 ism330dhcx_number_of_steps_get
  C:\Temp\cclPUGyV.s:1785   .text.ism330dhcx_steps_reset:00000000 $t
  C:\Temp\cclPUGyV.s:1791   .text.ism330dhcx_steps_reset:00000000 ism330dhcx_steps_reset
  C:\Temp\cclPUGyV.s:1835   .text.ism330dhcx_mlc_out_get:00000000 $t
  C:\Temp\cclPUGyV.s:1841   .text.ism330dhcx_mlc_out_get:00000000 ism330dhcx_mlc_out_get
  C:\Temp\cclPUGyV.s:1866   .text.ism330dhcx_mem_bank_get:00000000 $t
  C:\Temp\cclPUGyV.s:1872   .text.ism330dhcx_mem_bank_get:00000000 ism330dhcx_mem_bank_get
  C:\Temp\cclPUGyV.s:1908   .text.ism330dhcx_ln_pg_write_byte:00000000 $t
  C:\Temp\cclPUGyV.s:1914   .text.ism330dhcx_ln_pg_write_byte:00000000 ism330dhcx_ln_pg_write_byte
  C:\Temp\cclPUGyV.s:2020   .text.ism330dhcx_ln_pg_write:00000000 $t
  C:\Temp\cclPUGyV.s:2026   .text.ism330dhcx_ln_pg_write:00000000 ism330dhcx_ln_pg_write
  C:\Temp\cclPUGyV.s:2191   .text.ism330dhcx_ln_pg_read_byte:00000000 $t
  C:\Temp\cclPUGyV.s:2197   .text.ism330dhcx_ln_pg_read_byte:00000000 ism330dhcx_ln_pg_read_byte
  C:\Temp\cclPUGyV.s:2302   .text.ism330dhcx_data_ready_mode_set:00000000 $t
  C:\Temp\cclPUGyV.s:2308   .text.ism330dhcx_data_ready_mode_set:00000000 ism330dhcx_data_ready_mode_set
  C:\Temp\cclPUGyV.s:2336   .text.ism330dhcx_data_ready_mode_get:00000000 $t
  C:\Temp\cclPUGyV.s:2342   .text.ism330dhcx_data_ready_mode_get:00000000 ism330dhcx_data_ready_mode_get
  C:\Temp\cclPUGyV.s:2372   .text.ism330dhcx_device_id_get:00000000 $t
  C:\Temp\cclPUGyV.s:2378   .text.ism330dhcx_device_id_get:00000000 ism330dhcx_device_id_get
  C:\Temp\cclPUGyV.s:2389   .text.ism330dhcx_reset_set:00000000 $t
  C:\Temp\cclPUGyV.s:2395   .text.ism330dhcx_reset_set:00000000 ism330dhcx_reset_set
  C:\Temp\cclPUGyV.s:2423   .text.ism330dhcx_reset_get:00000000 $t
  C:\Temp\cclPUGyV.s:2429   .text.ism330dhcx_reset_get:00000000 ism330dhcx_reset_get
  C:\Temp\cclPUGyV.s:2447   .text.ism330dhcx_auto_increment_set:00000000 $t
  C:\Temp\cclPUGyV.s:2453   .text.ism330dhcx_auto_increment_set:00000000 ism330dhcx_auto_increment_set
  C:\Temp\cclPUGyV.s:2481   .text.ism330dhcx_auto_increment_get:00000000 $t
  C:\Temp\cclPUGyV.s:2487   .text.ism330dhcx_auto_increment_get:00000000 ism330dhcx_auto_increment_get
  C:\Temp\cclPUGyV.s:2505   .text.ism330dhcx_boot_set:00000000 $t
  C:\Temp\cclPUGyV.s:2511   .text.ism330dhcx_boot_set:00000000 ism330dhcx_boot_set
  C:\Temp\cclPUGyV.s:2539   .text.ism330dhcx_boot_get:00000000 $t
  C:\Temp\cclPUGyV.s:2545   .text.ism330dhcx_boot_get:00000000 ism330dhcx_boot_get
  C:\Temp\cclPUGyV.s:2563   .text.ism330dhcx_xl_self_test_set:00000000 $t
  C:\Temp\cclPUGyV.s:2569   .text.ism330dhcx_xl_self_test_set:00000000 ism330dhcx_xl_self_test_set
  C:\Temp\cclPUGyV.s:2597   .text.ism330dhcx_xl_self_test_get:00000000 $t
  C:\Temp\cclPUGyV.s:2603   .text.ism330dhcx_xl_self_test_get:00000000 ism330dhcx_xl_self_test_get
  C:\Temp\cclPUGyV.s:2639   .text.ism330dhcx_gy_self_test_set:00000000 $t
  C:\Temp\cclPUGyV.s:2645   .text.ism330dhcx_gy_self_test_set:00000000 ism330dhcx_gy_self_test_set
ARM GAS  C:\Temp\cclPUGyV.s 			page 240


  C:\Temp\cclPUGyV.s:2673   .text.ism330dhcx_gy_self_test_get:00000000 $t
  C:\Temp\cclPUGyV.s:2679   .text.ism330dhcx_gy_self_test_get:00000000 ism330dhcx_gy_self_test_get
  C:\Temp\cclPUGyV.s:2715   .text.ism330dhcx_xl_filter_lp2_set:00000000 $t
  C:\Temp\cclPUGyV.s:2721   .text.ism330dhcx_xl_filter_lp2_set:00000000 ism330dhcx_xl_filter_lp2_set
  C:\Temp\cclPUGyV.s:2749   .text.ism330dhcx_xl_filter_lp2_get:00000000 $t
  C:\Temp\cclPUGyV.s:2755   .text.ism330dhcx_xl_filter_lp2_get:00000000 ism330dhcx_xl_filter_lp2_get
  C:\Temp\cclPUGyV.s:2773   .text.ism330dhcx_gy_filter_lp1_set:00000000 $t
  C:\Temp\cclPUGyV.s:2779   .text.ism330dhcx_gy_filter_lp1_set:00000000 ism330dhcx_gy_filter_lp1_set
  C:\Temp\cclPUGyV.s:2807   .text.ism330dhcx_gy_filter_lp1_get:00000000 $t
  C:\Temp\cclPUGyV.s:2813   .text.ism330dhcx_gy_filter_lp1_get:00000000 ism330dhcx_gy_filter_lp1_get
  C:\Temp\cclPUGyV.s:2831   .text.ism330dhcx_filter_settling_mask_set:00000000 $t
  C:\Temp\cclPUGyV.s:2837   .text.ism330dhcx_filter_settling_mask_set:00000000 ism330dhcx_filter_settling_mask_set
  C:\Temp\cclPUGyV.s:2865   .text.ism330dhcx_filter_settling_mask_get:00000000 $t
  C:\Temp\cclPUGyV.s:2871   .text.ism330dhcx_filter_settling_mask_get:00000000 ism330dhcx_filter_settling_mask_get
  C:\Temp\cclPUGyV.s:2889   .text.ism330dhcx_gy_lp1_bandwidth_set:00000000 $t
  C:\Temp\cclPUGyV.s:2895   .text.ism330dhcx_gy_lp1_bandwidth_set:00000000 ism330dhcx_gy_lp1_bandwidth_set
  C:\Temp\cclPUGyV.s:2923   .text.ism330dhcx_gy_lp1_bandwidth_get:00000000 $t
  C:\Temp\cclPUGyV.s:2929   .text.ism330dhcx_gy_lp1_bandwidth_get:00000000 ism330dhcx_gy_lp1_bandwidth_get
  C:\Temp\cclPUGyV.s:2945   .text.ism330dhcx_gy_lp1_bandwidth_get:00000020 $d
  C:\Temp\cclPUGyV.s:2953   .text.ism330dhcx_gy_lp1_bandwidth_get:00000028 $t
  C:\Temp\cclPUGyV.s:2995   .text.ism330dhcx_xl_lp2_on_6d_set:00000000 $t
  C:\Temp\cclPUGyV.s:3001   .text.ism330dhcx_xl_lp2_on_6d_set:00000000 ism330dhcx_xl_lp2_on_6d_set
  C:\Temp\cclPUGyV.s:3029   .text.ism330dhcx_xl_lp2_on_6d_get:00000000 $t
  C:\Temp\cclPUGyV.s:3035   .text.ism330dhcx_xl_lp2_on_6d_get:00000000 ism330dhcx_xl_lp2_on_6d_get
  C:\Temp\cclPUGyV.s:3053   .text.ism330dhcx_xl_hp_path_on_out_set:00000000 $t
  C:\Temp\cclPUGyV.s:3059   .text.ism330dhcx_xl_hp_path_on_out_set:00000000 ism330dhcx_xl_hp_path_on_out_set
  C:\Temp\cclPUGyV.s:3095   .text.ism330dhcx_xl_hp_path_on_out_get:00000000 $t
  C:\Temp\cclPUGyV.s:3101   .text.ism330dhcx_xl_hp_path_on_out_get:00000000 ism330dhcx_xl_hp_path_on_out_get
  C:\Temp\cclPUGyV.s:3121   .text.ism330dhcx_xl_hp_path_on_out_get:0000002e $d
  C:\Temp\cclPUGyV.s:3177   .text.ism330dhcx_xl_hp_path_on_out_get:00000066 $t
  C:\Temp\cclPUGyV.s:3279   .text.ism330dhcx_xl_fast_settling_set:00000000 $t
  C:\Temp\cclPUGyV.s:3285   .text.ism330dhcx_xl_fast_settling_set:00000000 ism330dhcx_xl_fast_settling_set
  C:\Temp\cclPUGyV.s:3313   .text.ism330dhcx_xl_fast_settling_get:00000000 $t
  C:\Temp\cclPUGyV.s:3319   .text.ism330dhcx_xl_fast_settling_get:00000000 ism330dhcx_xl_fast_settling_get
  C:\Temp\cclPUGyV.s:3337   .text.ism330dhcx_xl_hp_path_internal_set:00000000 $t
  C:\Temp\cclPUGyV.s:3343   .text.ism330dhcx_xl_hp_path_internal_set:00000000 ism330dhcx_xl_hp_path_internal_set
  C:\Temp\cclPUGyV.s:3371   .text.ism330dhcx_xl_hp_path_internal_get:00000000 $t
  C:\Temp\cclPUGyV.s:3377   .text.ism330dhcx_xl_hp_path_internal_get:00000000 ism330dhcx_xl_hp_path_internal_get
  C:\Temp\cclPUGyV.s:3408   .text.ism330dhcx_gy_hp_path_internal_set:00000000 $t
  C:\Temp\cclPUGyV.s:3414   .text.ism330dhcx_gy_hp_path_internal_set:00000000 ism330dhcx_gy_hp_path_internal_set
  C:\Temp\cclPUGyV.s:3446   .text.ism330dhcx_gy_hp_path_internal_get:00000000 $t
  C:\Temp\cclPUGyV.s:3452   .text.ism330dhcx_gy_hp_path_internal_get:00000000 ism330dhcx_gy_hp_path_internal_get
  C:\Temp\cclPUGyV.s:3478   .text.ism330dhcx_gy_hp_path_internal_get:00000038 $d
  C:\Temp\cclPUGyV.s:3482   .text.ism330dhcx_gy_hp_path_internal_get:0000003c $t
  C:\Temp\cclPUGyV.s:3512   .text.ism330dhcx_aux_sdo_ocs_mode_set:00000000 $t
  C:\Temp\cclPUGyV.s:3518   .text.ism330dhcx_aux_sdo_ocs_mode_set:00000000 ism330dhcx_aux_sdo_ocs_mode_set
  C:\Temp\cclPUGyV.s:3546   .text.ism330dhcx_aux_sdo_ocs_mode_get:00000000 $t
  C:\Temp\cclPUGyV.s:3552   .text.ism330dhcx_aux_sdo_ocs_mode_get:00000000 ism330dhcx_aux_sdo_ocs_mode_get
  C:\Temp\cclPUGyV.s:3582   .text.ism330dhcx_aux_pw_on_ctrl_set:00000000 $t
  C:\Temp\cclPUGyV.s:3588   .text.ism330dhcx_aux_pw_on_ctrl_set:00000000 ism330dhcx_aux_pw_on_ctrl_set
  C:\Temp\cclPUGyV.s:3620   .text.ism330dhcx_aux_pw_on_ctrl_get:00000000 $t
  C:\Temp\cclPUGyV.s:3626   .text.ism330dhcx_aux_pw_on_ctrl_get:00000000 ism330dhcx_aux_pw_on_ctrl_get
  C:\Temp\cclPUGyV.s:3656   .text.ism330dhcx_aux_status_reg_get:00000000 $t
  C:\Temp\cclPUGyV.s:3662   .text.ism330dhcx_aux_status_reg_get:00000000 ism330dhcx_aux_status_reg_get
  C:\Temp\cclPUGyV.s:3673   .text.ism330dhcx_aux_xl_flag_data_ready_get:00000000 $t
  C:\Temp\cclPUGyV.s:3679   .text.ism330dhcx_aux_xl_flag_data_ready_get:00000000 ism330dhcx_aux_xl_flag_data_ready_get
  C:\Temp\cclPUGyV.s:3697   .text.ism330dhcx_aux_gy_flag_data_ready_get:00000000 $t
ARM GAS  C:\Temp\cclPUGyV.s 			page 241


  C:\Temp\cclPUGyV.s:3703   .text.ism330dhcx_aux_gy_flag_data_ready_get:00000000 ism330dhcx_aux_gy_flag_data_ready_get
  C:\Temp\cclPUGyV.s:3721   .text.ism330dhcx_aux_gy_flag_settling_get:00000000 $t
  C:\Temp\cclPUGyV.s:3727   .text.ism330dhcx_aux_gy_flag_settling_get:00000000 ism330dhcx_aux_gy_flag_settling_get
  C:\Temp\cclPUGyV.s:3745   .text.ism330dhcx_aux_xl_self_test_set:00000000 $t
  C:\Temp\cclPUGyV.s:3751   .text.ism330dhcx_aux_xl_self_test_set:00000000 ism330dhcx_aux_xl_self_test_set
  C:\Temp\cclPUGyV.s:3779   .text.ism330dhcx_aux_xl_self_test_get:00000000 $t
  C:\Temp\cclPUGyV.s:3785   .text.ism330dhcx_aux_xl_self_test_get:00000000 ism330dhcx_aux_xl_self_test_get
  C:\Temp\cclPUGyV.s:3821   .text.ism330dhcx_aux_den_polarity_set:00000000 $t
  C:\Temp\cclPUGyV.s:3827   .text.ism330dhcx_aux_den_polarity_set:00000000 ism330dhcx_aux_den_polarity_set
  C:\Temp\cclPUGyV.s:3855   .text.ism330dhcx_aux_den_polarity_get:00000000 $t
  C:\Temp\cclPUGyV.s:3861   .text.ism330dhcx_aux_den_polarity_get:00000000 ism330dhcx_aux_den_polarity_get
  C:\Temp\cclPUGyV.s:3892   .text.ism330dhcx_aux_den_mode_set:00000000 $t
  C:\Temp\cclPUGyV.s:3898   .text.ism330dhcx_aux_den_mode_set:00000000 ism330dhcx_aux_den_mode_set
  C:\Temp\cclPUGyV.s:3951   .text.ism330dhcx_aux_den_mode_get:00000000 $t
  C:\Temp\cclPUGyV.s:3957   .text.ism330dhcx_aux_den_mode_get:00000000 ism330dhcx_aux_den_mode_get
  C:\Temp\cclPUGyV.s:4006   .text.ism330dhcx_aux_drdy_on_int2_set:00000000 $t
  C:\Temp\cclPUGyV.s:4012   .text.ism330dhcx_aux_drdy_on_int2_set:00000000 ism330dhcx_aux_drdy_on_int2_set
  C:\Temp\cclPUGyV.s:4040   .text.ism330dhcx_aux_drdy_on_int2_get:00000000 $t
  C:\Temp\cclPUGyV.s:4046   .text.ism330dhcx_aux_drdy_on_int2_get:00000000 ism330dhcx_aux_drdy_on_int2_get
  C:\Temp\cclPUGyV.s:4064   .text.ism330dhcx_aux_mode_set:00000000 $t
  C:\Temp\cclPUGyV.s:4070   .text.ism330dhcx_aux_mode_set:00000000 ism330dhcx_aux_mode_set
  C:\Temp\cclPUGyV.s:4102   .text.ism330dhcx_aux_mode_get:00000000 $t
  C:\Temp\cclPUGyV.s:4108   .text.ism330dhcx_aux_mode_get:00000000 ism330dhcx_aux_mode_get
  C:\Temp\cclPUGyV.s:4146   .text.ism330dhcx_aux_gy_full_scale_set:00000000 $t
  C:\Temp\cclPUGyV.s:4152   .text.ism330dhcx_aux_gy_full_scale_set:00000000 ism330dhcx_aux_gy_full_scale_set
  C:\Temp\cclPUGyV.s:4184   .text.ism330dhcx_aux_gy_full_scale_get:00000000 $t
  C:\Temp\cclPUGyV.s:4190   .text.ism330dhcx_aux_gy_full_scale_get:00000000 ism330dhcx_aux_gy_full_scale_get
  C:\Temp\cclPUGyV.s:4208   .text.ism330dhcx_aux_gy_full_scale_get:00000028 $d
  C:\Temp\cclPUGyV.s:4243   .text.ism330dhcx_aux_spi_mode_set:00000000 $t
  C:\Temp\cclPUGyV.s:4249   .text.ism330dhcx_aux_spi_mode_set:00000000 ism330dhcx_aux_spi_mode_set
  C:\Temp\cclPUGyV.s:4277   .text.ism330dhcx_aux_spi_mode_get:00000000 $t
  C:\Temp\cclPUGyV.s:4283   .text.ism330dhcx_aux_spi_mode_get:00000000 ism330dhcx_aux_spi_mode_get
  C:\Temp\cclPUGyV.s:4314   .text.ism330dhcx_aux_gy_lp1_bandwidth_set:00000000 $t
  C:\Temp\cclPUGyV.s:4320   .text.ism330dhcx_aux_gy_lp1_bandwidth_set:00000000 ism330dhcx_aux_gy_lp1_bandwidth_set
  C:\Temp\cclPUGyV.s:4348   .text.ism330dhcx_aux_gy_lp1_bandwidth_get:00000000 $t
  C:\Temp\cclPUGyV.s:4354   .text.ism330dhcx_aux_gy_lp1_bandwidth_get:00000000 ism330dhcx_aux_gy_lp1_bandwidth_get
  C:\Temp\cclPUGyV.s:4370   .text.ism330dhcx_aux_gy_lp1_bandwidth_get:00000020 $d
  C:\Temp\cclPUGyV.s:4374   .text.ism330dhcx_aux_gy_lp1_bandwidth_get:00000024 $t
  C:\Temp\cclPUGyV.s:4400   .text.ism330dhcx_aux_gy_hp_bandwidth_set:00000000 $t
  C:\Temp\cclPUGyV.s:4406   .text.ism330dhcx_aux_gy_hp_bandwidth_set:00000000 ism330dhcx_aux_gy_hp_bandwidth_set
  C:\Temp\cclPUGyV.s:4438   .text.ism330dhcx_aux_gy_hp_bandwidth_get:00000000 $t
  C:\Temp\cclPUGyV.s:4444   .text.ism330dhcx_aux_gy_hp_bandwidth_get:00000000 ism330dhcx_aux_gy_hp_bandwidth_get
  C:\Temp\cclPUGyV.s:4462   .text.ism330dhcx_aux_gy_hp_bandwidth_get:00000028 $d
  C:\Temp\cclPUGyV.s:4482   .text.ism330dhcx_aux_gy_hp_bandwidth_get:0000003c $t
  C:\Temp\cclPUGyV.s:4512   .text.ism330dhcx_aux_gy_clamp_set:00000000 $t
  C:\Temp\cclPUGyV.s:4518   .text.ism330dhcx_aux_gy_clamp_set:00000000 ism330dhcx_aux_gy_clamp_set
  C:\Temp\cclPUGyV.s:4546   .text.ism330dhcx_aux_gy_clamp_get:00000000 $t
  C:\Temp\cclPUGyV.s:4552   .text.ism330dhcx_aux_gy_clamp_get:00000000 ism330dhcx_aux_gy_clamp_get
  C:\Temp\cclPUGyV.s:4582   .text.ism330dhcx_aux_gy_self_test_set:00000000 $t
  C:\Temp\cclPUGyV.s:4588   .text.ism330dhcx_aux_gy_self_test_set:00000000 ism330dhcx_aux_gy_self_test_set
  C:\Temp\cclPUGyV.s:4616   .text.ism330dhcx_aux_gy_self_test_get:00000000 $t
  C:\Temp\cclPUGyV.s:4622   .text.ism330dhcx_aux_gy_self_test_get:00000000 ism330dhcx_aux_gy_self_test_get
  C:\Temp\cclPUGyV.s:4658   .text.ism330dhcx_aux_xl_bandwidth_set:00000000 $t
  C:\Temp\cclPUGyV.s:4664   .text.ism330dhcx_aux_xl_bandwidth_set:00000000 ism330dhcx_aux_xl_bandwidth_set
  C:\Temp\cclPUGyV.s:4692   .text.ism330dhcx_aux_xl_bandwidth_get:00000000 $t
  C:\Temp\cclPUGyV.s:4698   .text.ism330dhcx_aux_xl_bandwidth_get:00000000 ism330dhcx_aux_xl_bandwidth_get
  C:\Temp\cclPUGyV.s:4714   .text.ism330dhcx_aux_xl_bandwidth_get:00000020 $d
ARM GAS  C:\Temp\cclPUGyV.s 			page 242


  C:\Temp\cclPUGyV.s:4722   .text.ism330dhcx_aux_xl_bandwidth_get:00000028 $t
  C:\Temp\cclPUGyV.s:4764   .text.ism330dhcx_aux_xl_full_scale_set:00000000 $t
  C:\Temp\cclPUGyV.s:4770   .text.ism330dhcx_aux_xl_full_scale_set:00000000 ism330dhcx_aux_xl_full_scale_set
  C:\Temp\cclPUGyV.s:4798   .text.ism330dhcx_aux_xl_full_scale_get:00000000 $t
  C:\Temp\cclPUGyV.s:4804   .text.ism330dhcx_aux_xl_full_scale_get:00000000 ism330dhcx_aux_xl_full_scale_get
  C:\Temp\cclPUGyV.s:4820   .text.ism330dhcx_aux_xl_full_scale_get:0000001e $d
  C:\Temp\cclPUGyV.s:4824   .text.ism330dhcx_aux_xl_full_scale_get:00000022 $t
  C:\Temp\cclPUGyV.s:4850   .text.ism330dhcx_sdo_sa0_mode_set:00000000 $t
  C:\Temp\cclPUGyV.s:4856   .text.ism330dhcx_sdo_sa0_mode_set:00000000 ism330dhcx_sdo_sa0_mode_set
  C:\Temp\cclPUGyV.s:4884   .text.ism330dhcx_sdo_sa0_mode_get:00000000 $t
  C:\Temp\cclPUGyV.s:4890   .text.ism330dhcx_sdo_sa0_mode_get:00000000 ism330dhcx_sdo_sa0_mode_get
  C:\Temp\cclPUGyV.s:4921   .text.ism330dhcx_spi_mode_set:00000000 $t
  C:\Temp\cclPUGyV.s:4927   .text.ism330dhcx_spi_mode_set:00000000 ism330dhcx_spi_mode_set
  C:\Temp\cclPUGyV.s:4955   .text.ism330dhcx_spi_mode_get:00000000 $t
  C:\Temp\cclPUGyV.s:4961   .text.ism330dhcx_spi_mode_get:00000000 ism330dhcx_spi_mode_get
  C:\Temp\cclPUGyV.s:4992   .text.ism330dhcx_i2c_interface_set:00000000 $t
  C:\Temp\cclPUGyV.s:4998   .text.ism330dhcx_i2c_interface_set:00000000 ism330dhcx_i2c_interface_set
  C:\Temp\cclPUGyV.s:5026   .text.ism330dhcx_i2c_interface_get:00000000 $t
  C:\Temp\cclPUGyV.s:5032   .text.ism330dhcx_i2c_interface_get:00000000 ism330dhcx_i2c_interface_get
  C:\Temp\cclPUGyV.s:5063   .text.ism330dhcx_pin_int1_route_set:00000000 $t
  C:\Temp\cclPUGyV.s:5069   .text.ism330dhcx_pin_int1_route_set:00000000 ism330dhcx_pin_int1_route_set
  C:\Temp\cclPUGyV.s:5263   .text.ism330dhcx_pin_int1_route_get:00000000 $t
  C:\Temp\cclPUGyV.s:5269   .text.ism330dhcx_pin_int1_route_get:00000000 ism330dhcx_pin_int1_route_get
  C:\Temp\cclPUGyV.s:5340   .text.ism330dhcx_pin_int2_route_set:00000000 $t
  C:\Temp\cclPUGyV.s:5346   .text.ism330dhcx_pin_int2_route_set:00000000 ism330dhcx_pin_int2_route_set
  C:\Temp\cclPUGyV.s:5537   .text.ism330dhcx_pin_int2_route_get:00000000 $t
  C:\Temp\cclPUGyV.s:5543   .text.ism330dhcx_pin_int2_route_get:00000000 ism330dhcx_pin_int2_route_get
  C:\Temp\cclPUGyV.s:5614   .text.ism330dhcx_pin_mode_set:00000000 $t
  C:\Temp\cclPUGyV.s:5620   .text.ism330dhcx_pin_mode_set:00000000 ism330dhcx_pin_mode_set
  C:\Temp\cclPUGyV.s:5648   .text.ism330dhcx_pin_mode_get:00000000 $t
  C:\Temp\cclPUGyV.s:5654   .text.ism330dhcx_pin_mode_get:00000000 ism330dhcx_pin_mode_get
  C:\Temp\cclPUGyV.s:5685   .text.ism330dhcx_pin_polarity_set:00000000 $t
  C:\Temp\cclPUGyV.s:5691   .text.ism330dhcx_pin_polarity_set:00000000 ism330dhcx_pin_polarity_set
  C:\Temp\cclPUGyV.s:5719   .text.ism330dhcx_pin_polarity_get:00000000 $t
  C:\Temp\cclPUGyV.s:5725   .text.ism330dhcx_pin_polarity_get:00000000 ism330dhcx_pin_polarity_get
  C:\Temp\cclPUGyV.s:5756   .text.ism330dhcx_all_on_int1_set:00000000 $t
  C:\Temp\cclPUGyV.s:5762   .text.ism330dhcx_all_on_int1_set:00000000 ism330dhcx_all_on_int1_set
  C:\Temp\cclPUGyV.s:5790   .text.ism330dhcx_all_on_int1_get:00000000 $t
  C:\Temp\cclPUGyV.s:5796   .text.ism330dhcx_all_on_int1_get:00000000 ism330dhcx_all_on_int1_get
  C:\Temp\cclPUGyV.s:5814   .text.ism330dhcx_int_notification_set:00000000 $t
  C:\Temp\cclPUGyV.s:5820   .text.ism330dhcx_int_notification_set:00000000 ism330dhcx_int_notification_set
  C:\Temp\cclPUGyV.s:5889   .text.ism330dhcx_int_notification_get:00000000 $t
  C:\Temp\cclPUGyV.s:5895   .text.ism330dhcx_int_notification_get:00000000 ism330dhcx_int_notification_get
  C:\Temp\cclPUGyV.s:5922   .text.ism330dhcx_int_notification_get:00000036 $d
  C:\Temp\cclPUGyV.s:5926   .text.ism330dhcx_int_notification_get:0000003a $t
  C:\Temp\cclPUGyV.s:5973   .text.ism330dhcx_wkup_ths_weight_set:00000000 $t
  C:\Temp\cclPUGyV.s:5979   .text.ism330dhcx_wkup_ths_weight_set:00000000 ism330dhcx_wkup_ths_weight_set
  C:\Temp\cclPUGyV.s:6007   .text.ism330dhcx_wkup_ths_weight_get:00000000 $t
  C:\Temp\cclPUGyV.s:6013   .text.ism330dhcx_wkup_ths_weight_get:00000000 ism330dhcx_wkup_ths_weight_get
  C:\Temp\cclPUGyV.s:6044   .text.ism330dhcx_wkup_threshold_set:00000000 $t
  C:\Temp\cclPUGyV.s:6050   .text.ism330dhcx_wkup_threshold_set:00000000 ism330dhcx_wkup_threshold_set
  C:\Temp\cclPUGyV.s:6078   .text.ism330dhcx_wkup_threshold_get:00000000 $t
  C:\Temp\cclPUGyV.s:6084   .text.ism330dhcx_wkup_threshold_get:00000000 ism330dhcx_wkup_threshold_get
  C:\Temp\cclPUGyV.s:6102   .text.ism330dhcx_xl_usr_offset_on_wkup_set:00000000 $t
  C:\Temp\cclPUGyV.s:6108   .text.ism330dhcx_xl_usr_offset_on_wkup_set:00000000 ism330dhcx_xl_usr_offset_on_wkup_set
  C:\Temp\cclPUGyV.s:6136   .text.ism330dhcx_xl_usr_offset_on_wkup_get:00000000 $t
  C:\Temp\cclPUGyV.s:6142   .text.ism330dhcx_xl_usr_offset_on_wkup_get:00000000 ism330dhcx_xl_usr_offset_on_wkup_get
ARM GAS  C:\Temp\cclPUGyV.s 			page 243


  C:\Temp\cclPUGyV.s:6160   .text.ism330dhcx_wkup_dur_set:00000000 $t
  C:\Temp\cclPUGyV.s:6166   .text.ism330dhcx_wkup_dur_set:00000000 ism330dhcx_wkup_dur_set
  C:\Temp\cclPUGyV.s:6194   .text.ism330dhcx_wkup_dur_get:00000000 $t
  C:\Temp\cclPUGyV.s:6200   .text.ism330dhcx_wkup_dur_get:00000000 ism330dhcx_wkup_dur_get
  C:\Temp\cclPUGyV.s:6218   .text.ism330dhcx_gy_sleep_mode_set:00000000 $t
  C:\Temp\cclPUGyV.s:6224   .text.ism330dhcx_gy_sleep_mode_set:00000000 ism330dhcx_gy_sleep_mode_set
  C:\Temp\cclPUGyV.s:6252   .text.ism330dhcx_gy_sleep_mode_get:00000000 $t
  C:\Temp\cclPUGyV.s:6258   .text.ism330dhcx_gy_sleep_mode_get:00000000 ism330dhcx_gy_sleep_mode_get
  C:\Temp\cclPUGyV.s:6276   .text.ism330dhcx_act_pin_notification_set:00000000 $t
  C:\Temp\cclPUGyV.s:6282   .text.ism330dhcx_act_pin_notification_set:00000000 ism330dhcx_act_pin_notification_set
  C:\Temp\cclPUGyV.s:6310   .text.ism330dhcx_act_pin_notification_get:00000000 $t
  C:\Temp\cclPUGyV.s:6316   .text.ism330dhcx_act_pin_notification_get:00000000 ism330dhcx_act_pin_notification_get
  C:\Temp\cclPUGyV.s:6347   .text.ism330dhcx_act_mode_set:00000000 $t
  C:\Temp\cclPUGyV.s:6353   .text.ism330dhcx_act_mode_set:00000000 ism330dhcx_act_mode_set
  C:\Temp\cclPUGyV.s:6381   .text.ism330dhcx_act_mode_get:00000000 $t
  C:\Temp\cclPUGyV.s:6387   .text.ism330dhcx_act_mode_get:00000000 ism330dhcx_act_mode_get
  C:\Temp\cclPUGyV.s:6403   .text.ism330dhcx_act_mode_get:00000020 $d
  C:\Temp\cclPUGyV.s:6407   .text.ism330dhcx_act_mode_get:00000024 $t
  C:\Temp\cclPUGyV.s:6433   .text.ism330dhcx_act_sleep_dur_set:00000000 $t
  C:\Temp\cclPUGyV.s:6439   .text.ism330dhcx_act_sleep_dur_set:00000000 ism330dhcx_act_sleep_dur_set
  C:\Temp\cclPUGyV.s:6467   .text.ism330dhcx_act_sleep_dur_get:00000000 $t
  C:\Temp\cclPUGyV.s:6473   .text.ism330dhcx_act_sleep_dur_get:00000000 ism330dhcx_act_sleep_dur_get
  C:\Temp\cclPUGyV.s:6491   .text.ism330dhcx_tap_detection_on_z_set:00000000 $t
  C:\Temp\cclPUGyV.s:6497   .text.ism330dhcx_tap_detection_on_z_set:00000000 ism330dhcx_tap_detection_on_z_set
  C:\Temp\cclPUGyV.s:6525   .text.ism330dhcx_tap_detection_on_z_get:00000000 $t
  C:\Temp\cclPUGyV.s:6531   .text.ism330dhcx_tap_detection_on_z_get:00000000 ism330dhcx_tap_detection_on_z_get
  C:\Temp\cclPUGyV.s:6549   .text.ism330dhcx_tap_detection_on_y_set:00000000 $t
  C:\Temp\cclPUGyV.s:6555   .text.ism330dhcx_tap_detection_on_y_set:00000000 ism330dhcx_tap_detection_on_y_set
  C:\Temp\cclPUGyV.s:6583   .text.ism330dhcx_tap_detection_on_y_get:00000000 $t
  C:\Temp\cclPUGyV.s:6589   .text.ism330dhcx_tap_detection_on_y_get:00000000 ism330dhcx_tap_detection_on_y_get
  C:\Temp\cclPUGyV.s:6607   .text.ism330dhcx_tap_detection_on_x_set:00000000 $t
  C:\Temp\cclPUGyV.s:6613   .text.ism330dhcx_tap_detection_on_x_set:00000000 ism330dhcx_tap_detection_on_x_set
  C:\Temp\cclPUGyV.s:6641   .text.ism330dhcx_tap_detection_on_x_get:00000000 $t
  C:\Temp\cclPUGyV.s:6647   .text.ism330dhcx_tap_detection_on_x_get:00000000 ism330dhcx_tap_detection_on_x_get
  C:\Temp\cclPUGyV.s:6665   .text.ism330dhcx_tap_threshold_x_set:00000000 $t
  C:\Temp\cclPUGyV.s:6671   .text.ism330dhcx_tap_threshold_x_set:00000000 ism330dhcx_tap_threshold_x_set
  C:\Temp\cclPUGyV.s:6699   .text.ism330dhcx_tap_threshold_x_get:00000000 $t
  C:\Temp\cclPUGyV.s:6705   .text.ism330dhcx_tap_threshold_x_get:00000000 ism330dhcx_tap_threshold_x_get
  C:\Temp\cclPUGyV.s:6723   .text.ism330dhcx_tap_axis_priority_set:00000000 $t
  C:\Temp\cclPUGyV.s:6729   .text.ism330dhcx_tap_axis_priority_set:00000000 ism330dhcx_tap_axis_priority_set
  C:\Temp\cclPUGyV.s:6757   .text.ism330dhcx_tap_axis_priority_get:00000000 $t
  C:\Temp\cclPUGyV.s:6763   .text.ism330dhcx_tap_axis_priority_get:00000000 ism330dhcx_tap_axis_priority_get
  C:\Temp\cclPUGyV.s:6779   .text.ism330dhcx_tap_axis_priority_get:0000001e $d
  C:\Temp\cclPUGyV.s:6820   .text.ism330dhcx_tap_threshold_y_set:00000000 $t
  C:\Temp\cclPUGyV.s:6826   .text.ism330dhcx_tap_threshold_y_set:00000000 ism330dhcx_tap_threshold_y_set
  C:\Temp\cclPUGyV.s:6854   .text.ism330dhcx_tap_threshold_y_get:00000000 $t
  C:\Temp\cclPUGyV.s:6860   .text.ism330dhcx_tap_threshold_y_get:00000000 ism330dhcx_tap_threshold_y_get
  C:\Temp\cclPUGyV.s:6878   .text.ism330dhcx_tap_threshold_z_set:00000000 $t
  C:\Temp\cclPUGyV.s:6884   .text.ism330dhcx_tap_threshold_z_set:00000000 ism330dhcx_tap_threshold_z_set
  C:\Temp\cclPUGyV.s:6912   .text.ism330dhcx_tap_threshold_z_get:00000000 $t
  C:\Temp\cclPUGyV.s:6918   .text.ism330dhcx_tap_threshold_z_get:00000000 ism330dhcx_tap_threshold_z_get
  C:\Temp\cclPUGyV.s:6936   .text.ism330dhcx_tap_shock_set:00000000 $t
  C:\Temp\cclPUGyV.s:6942   .text.ism330dhcx_tap_shock_set:00000000 ism330dhcx_tap_shock_set
  C:\Temp\cclPUGyV.s:6970   .text.ism330dhcx_tap_shock_get:00000000 $t
  C:\Temp\cclPUGyV.s:6976   .text.ism330dhcx_tap_shock_get:00000000 ism330dhcx_tap_shock_get
  C:\Temp\cclPUGyV.s:6994   .text.ism330dhcx_tap_quiet_set:00000000 $t
  C:\Temp\cclPUGyV.s:7000   .text.ism330dhcx_tap_quiet_set:00000000 ism330dhcx_tap_quiet_set
ARM GAS  C:\Temp\cclPUGyV.s 			page 244


  C:\Temp\cclPUGyV.s:7028   .text.ism330dhcx_tap_quiet_get:00000000 $t
  C:\Temp\cclPUGyV.s:7034   .text.ism330dhcx_tap_quiet_get:00000000 ism330dhcx_tap_quiet_get
  C:\Temp\cclPUGyV.s:7052   .text.ism330dhcx_tap_dur_set:00000000 $t
  C:\Temp\cclPUGyV.s:7058   .text.ism330dhcx_tap_dur_set:00000000 ism330dhcx_tap_dur_set
  C:\Temp\cclPUGyV.s:7086   .text.ism330dhcx_tap_dur_get:00000000 $t
  C:\Temp\cclPUGyV.s:7092   .text.ism330dhcx_tap_dur_get:00000000 ism330dhcx_tap_dur_get
  C:\Temp\cclPUGyV.s:7110   .text.ism330dhcx_tap_mode_set:00000000 $t
  C:\Temp\cclPUGyV.s:7116   .text.ism330dhcx_tap_mode_set:00000000 ism330dhcx_tap_mode_set
  C:\Temp\cclPUGyV.s:7144   .text.ism330dhcx_tap_mode_get:00000000 $t
  C:\Temp\cclPUGyV.s:7150   .text.ism330dhcx_tap_mode_get:00000000 ism330dhcx_tap_mode_get
  C:\Temp\cclPUGyV.s:7180   .text.ism330dhcx_6d_threshold_set:00000000 $t
  C:\Temp\cclPUGyV.s:7186   .text.ism330dhcx_6d_threshold_set:00000000 ism330dhcx_6d_threshold_set
  C:\Temp\cclPUGyV.s:7214   .text.ism330dhcx_6d_threshold_get:00000000 $t
  C:\Temp\cclPUGyV.s:7220   .text.ism330dhcx_6d_threshold_get:00000000 ism330dhcx_6d_threshold_get
  C:\Temp\cclPUGyV.s:7236   .text.ism330dhcx_6d_threshold_get:00000020 $d
  C:\Temp\cclPUGyV.s:7240   .text.ism330dhcx_6d_threshold_get:00000024 $t
  C:\Temp\cclPUGyV.s:7266   .text.ism330dhcx_4d_mode_set:00000000 $t
  C:\Temp\cclPUGyV.s:7272   .text.ism330dhcx_4d_mode_set:00000000 ism330dhcx_4d_mode_set
  C:\Temp\cclPUGyV.s:7300   .text.ism330dhcx_4d_mode_get:00000000 $t
  C:\Temp\cclPUGyV.s:7306   .text.ism330dhcx_4d_mode_get:00000000 ism330dhcx_4d_mode_get
  C:\Temp\cclPUGyV.s:7324   .text.ism330dhcx_ff_threshold_set:00000000 $t
  C:\Temp\cclPUGyV.s:7330   .text.ism330dhcx_ff_threshold_set:00000000 ism330dhcx_ff_threshold_set
  C:\Temp\cclPUGyV.s:7358   .text.ism330dhcx_ff_threshold_get:00000000 $t
  C:\Temp\cclPUGyV.s:7364   .text.ism330dhcx_ff_threshold_get:00000000 ism330dhcx_ff_threshold_get
  C:\Temp\cclPUGyV.s:7380   .text.ism330dhcx_ff_threshold_get:00000020 $d
  C:\Temp\cclPUGyV.s:7388   .text.ism330dhcx_ff_threshold_get:00000028 $t
  C:\Temp\cclPUGyV.s:7430   .text.ism330dhcx_ff_dur_set:00000000 $t
  C:\Temp\cclPUGyV.s:7436   .text.ism330dhcx_ff_dur_set:00000000 ism330dhcx_ff_dur_set
  C:\Temp\cclPUGyV.s:7489   .text.ism330dhcx_ff_dur_get:00000000 $t
  C:\Temp\cclPUGyV.s:7495   .text.ism330dhcx_ff_dur_get:00000000 ism330dhcx_ff_dur_get
  C:\Temp\cclPUGyV.s:7526   .text.ism330dhcx_fifo_watermark_set:00000000 $t
  C:\Temp\cclPUGyV.s:7532   .text.ism330dhcx_fifo_watermark_set:00000000 ism330dhcx_fifo_watermark_set
  C:\Temp\cclPUGyV.s:7569   .text.ism330dhcx_fifo_watermark_get:00000000 $t
  C:\Temp\cclPUGyV.s:7575   .text.ism330dhcx_fifo_watermark_get:00000000 ism330dhcx_fifo_watermark_get
  C:\Temp\cclPUGyV.s:7606   .text.ism330dhcx_compression_algo_init_set:00000000 $t
  C:\Temp\cclPUGyV.s:7612   .text.ism330dhcx_compression_algo_init_set:00000000 ism330dhcx_compression_algo_init_set
  C:\Temp\cclPUGyV.s:7657   .text.ism330dhcx_compression_algo_init_get:00000000 $t
  C:\Temp\cclPUGyV.s:7663   .text.ism330dhcx_compression_algo_init_get:00000000 ism330dhcx_compression_algo_init_get
  C:\Temp\cclPUGyV.s:7694   .text.ism330dhcx_compression_algo_set:00000000 $t
  C:\Temp\cclPUGyV.s:7700   .text.ism330dhcx_compression_algo_set:00000000 ism330dhcx_compression_algo_set
  C:\Temp\cclPUGyV.s:7769   .text.ism330dhcx_compression_algo_get:00000000 $t
  C:\Temp\cclPUGyV.s:7775   .text.ism330dhcx_compression_algo_get:00000000 ism330dhcx_compression_algo_get
  C:\Temp\cclPUGyV.s:7793   .text.ism330dhcx_compression_algo_get:00000028 $d
  C:\Temp\cclPUGyV.s:7801   .text.ism330dhcx_compression_algo_get:00000030 $t
  C:\Temp\cclPUGyV.s:7831   .text.ism330dhcx_fifo_virtual_sens_odr_chg_set:00000000 $t
  C:\Temp\cclPUGyV.s:7837   .text.ism330dhcx_fifo_virtual_sens_odr_chg_set:00000000 ism330dhcx_fifo_virtual_sens_odr_chg_set
  C:\Temp\cclPUGyV.s:7865   .text.ism330dhcx_fifo_virtual_sens_odr_chg_get:00000000 $t
  C:\Temp\cclPUGyV.s:7871   .text.ism330dhcx_fifo_virtual_sens_odr_chg_get:00000000 ism330dhcx_fifo_virtual_sens_odr_chg_get
  C:\Temp\cclPUGyV.s:7889   .text.ism330dhcx_compression_algo_real_time_set:00000000 $t
  C:\Temp\cclPUGyV.s:7895   .text.ism330dhcx_compression_algo_real_time_set:00000000 ism330dhcx_compression_algo_real_time_set
  C:\Temp\cclPUGyV.s:7923   .text.ism330dhcx_compression_algo_real_time_get:00000000 $t
  C:\Temp\cclPUGyV.s:7929   .text.ism330dhcx_compression_algo_real_time_get:00000000 ism330dhcx_compression_algo_real_time_get
  C:\Temp\cclPUGyV.s:7947   .text.ism330dhcx_fifo_stop_on_wtm_set:00000000 $t
  C:\Temp\cclPUGyV.s:7953   .text.ism330dhcx_fifo_stop_on_wtm_set:00000000 ism330dhcx_fifo_stop_on_wtm_set
  C:\Temp\cclPUGyV.s:7981   .text.ism330dhcx_fifo_stop_on_wtm_get:00000000 $t
  C:\Temp\cclPUGyV.s:7987   .text.ism330dhcx_fifo_stop_on_wtm_get:00000000 ism330dhcx_fifo_stop_on_wtm_get
  C:\Temp\cclPUGyV.s:8005   .text.ism330dhcx_fifo_xl_batch_set:00000000 $t
ARM GAS  C:\Temp\cclPUGyV.s 			page 245


  C:\Temp\cclPUGyV.s:8011   .text.ism330dhcx_fifo_xl_batch_set:00000000 ism330dhcx_fifo_xl_batch_set
  C:\Temp\cclPUGyV.s:8039   .text.ism330dhcx_fifo_xl_batch_get:00000000 $t
  C:\Temp\cclPUGyV.s:8045   .text.ism330dhcx_fifo_xl_batch_get:00000000 ism330dhcx_fifo_xl_batch_get
  C:\Temp\cclPUGyV.s:8061   .text.ism330dhcx_fifo_xl_batch_get:00000020 $d
  C:\Temp\cclPUGyV.s:8073   .text.ism330dhcx_fifo_xl_batch_get:0000002c $t
  C:\Temp\cclPUGyV.s:8131   .text.ism330dhcx_fifo_gy_batch_set:00000000 $t
  C:\Temp\cclPUGyV.s:8137   .text.ism330dhcx_fifo_gy_batch_set:00000000 ism330dhcx_fifo_gy_batch_set
  C:\Temp\cclPUGyV.s:8165   .text.ism330dhcx_fifo_gy_batch_get:00000000 $t
  C:\Temp\cclPUGyV.s:8171   .text.ism330dhcx_fifo_gy_batch_get:00000000 ism330dhcx_fifo_gy_batch_get
  C:\Temp\cclPUGyV.s:8187   .text.ism330dhcx_fifo_gy_batch_get:0000001e $d
  C:\Temp\cclPUGyV.s:8199   .text.ism330dhcx_fifo_gy_batch_get:0000002a $t
  C:\Temp\cclPUGyV.s:8257   .text.ism330dhcx_fifo_mode_set:00000000 $t
  C:\Temp\cclPUGyV.s:8263   .text.ism330dhcx_fifo_mode_set:00000000 ism330dhcx_fifo_mode_set
  C:\Temp\cclPUGyV.s:8291   .text.ism330dhcx_fifo_mode_get:00000000 $t
  C:\Temp\cclPUGyV.s:8297   .text.ism330dhcx_fifo_mode_get:00000000 ism330dhcx_fifo_mode_get
  C:\Temp\cclPUGyV.s:8313   .text.ism330dhcx_fifo_mode_get:00000020 $d
  C:\Temp\cclPUGyV.s:8321   .text.ism330dhcx_fifo_mode_get:00000028 $t
  C:\Temp\cclPUGyV.s:8355   .text.ism330dhcx_fifo_temp_batch_set:00000000 $t
  C:\Temp\cclPUGyV.s:8361   .text.ism330dhcx_fifo_temp_batch_set:00000000 ism330dhcx_fifo_temp_batch_set
  C:\Temp\cclPUGyV.s:8389   .text.ism330dhcx_fifo_temp_batch_get:00000000 $t
  C:\Temp\cclPUGyV.s:8395   .text.ism330dhcx_fifo_temp_batch_get:00000000 ism330dhcx_fifo_temp_batch_get
  C:\Temp\cclPUGyV.s:8411   .text.ism330dhcx_fifo_temp_batch_get:00000020 $d
  C:\Temp\cclPUGyV.s:8415   .text.ism330dhcx_fifo_temp_batch_get:00000024 $t
  C:\Temp\cclPUGyV.s:8441   .text.ism330dhcx_fifo_timestamp_decimation_set:00000000 $t
  C:\Temp\cclPUGyV.s:8447   .text.ism330dhcx_fifo_timestamp_decimation_set:00000000 ism330dhcx_fifo_timestamp_decimation_set
  C:\Temp\cclPUGyV.s:8475   .text.ism330dhcx_fifo_timestamp_decimation_get:00000000 $t
  C:\Temp\cclPUGyV.s:8481   .text.ism330dhcx_fifo_timestamp_decimation_get:00000000 ism330dhcx_fifo_timestamp_decimation_get
  C:\Temp\cclPUGyV.s:8497   .text.ism330dhcx_fifo_timestamp_decimation_get:0000001e $d
  C:\Temp\cclPUGyV.s:8501   .text.ism330dhcx_fifo_timestamp_decimation_get:00000022 $t
  C:\Temp\cclPUGyV.s:8527   .text.ism330dhcx_fifo_cnt_event_batch_set:00000000 $t
  C:\Temp\cclPUGyV.s:8533   .text.ism330dhcx_fifo_cnt_event_batch_set:00000000 ism330dhcx_fifo_cnt_event_batch_set
  C:\Temp\cclPUGyV.s:8561   .text.ism330dhcx_fifo_cnt_event_batch_get:00000000 $t
  C:\Temp\cclPUGyV.s:8567   .text.ism330dhcx_fifo_cnt_event_batch_get:00000000 ism330dhcx_fifo_cnt_event_batch_get
  C:\Temp\cclPUGyV.s:8598   .text.ism330dhcx_rst_batch_counter_set:00000000 $t
  C:\Temp\cclPUGyV.s:8604   .text.ism330dhcx_rst_batch_counter_set:00000000 ism330dhcx_rst_batch_counter_set
  C:\Temp\cclPUGyV.s:8632   .text.ism330dhcx_rst_batch_counter_get:00000000 $t
  C:\Temp\cclPUGyV.s:8638   .text.ism330dhcx_rst_batch_counter_get:00000000 ism330dhcx_rst_batch_counter_get
  C:\Temp\cclPUGyV.s:8656   .text.ism330dhcx_batch_counter_threshold_set:00000000 $t
  C:\Temp\cclPUGyV.s:8662   .text.ism330dhcx_batch_counter_threshold_set:00000000 ism330dhcx_batch_counter_threshold_set
  C:\Temp\cclPUGyV.s:8697   .text.ism330dhcx_batch_counter_threshold_get:00000000 $t
  C:\Temp\cclPUGyV.s:8703   .text.ism330dhcx_batch_counter_threshold_get:00000000 ism330dhcx_batch_counter_threshold_get
  C:\Temp\cclPUGyV.s:8734   .text.ism330dhcx_fifo_data_level_get:00000000 $t
  C:\Temp\cclPUGyV.s:8740   .text.ism330dhcx_fifo_data_level_get:00000000 ism330dhcx_fifo_data_level_get
  C:\Temp\cclPUGyV.s:8771   .text.ism330dhcx_fifo_status_get:00000000 $t
  C:\Temp\cclPUGyV.s:8777   .text.ism330dhcx_fifo_status_get:00000000 ism330dhcx_fifo_status_get
  C:\Temp\cclPUGyV.s:8788   .text.ism330dhcx_fifo_full_flag_get:00000000 $t
  C:\Temp\cclPUGyV.s:8794   .text.ism330dhcx_fifo_full_flag_get:00000000 ism330dhcx_fifo_full_flag_get
  C:\Temp\cclPUGyV.s:8812   .text.ism330dhcx_fifo_ovr_flag_get:00000000 $t
  C:\Temp\cclPUGyV.s:8818   .text.ism330dhcx_fifo_ovr_flag_get:00000000 ism330dhcx_fifo_ovr_flag_get
  C:\Temp\cclPUGyV.s:8836   .text.ism330dhcx_fifo_wtm_flag_get:00000000 $t
  C:\Temp\cclPUGyV.s:8842   .text.ism330dhcx_fifo_wtm_flag_get:00000000 ism330dhcx_fifo_wtm_flag_get
  C:\Temp\cclPUGyV.s:8860   .text.ism330dhcx_fifo_sensor_tag_get:00000000 $t
  C:\Temp\cclPUGyV.s:8866   .text.ism330dhcx_fifo_sensor_tag_get:00000000 ism330dhcx_fifo_sensor_tag_get
  C:\Temp\cclPUGyV.s:8883   .text.ism330dhcx_fifo_sensor_tag_get:00000020 $d
  C:\Temp\cclPUGyV.s:9006   .text.ism330dhcx_fifo_pedo_batch_set:00000000 $t
  C:\Temp\cclPUGyV.s:9012   .text.ism330dhcx_fifo_pedo_batch_set:00000000 ism330dhcx_fifo_pedo_batch_set
  C:\Temp\cclPUGyV.s:9057   .text.ism330dhcx_fifo_pedo_batch_get:00000000 $t
ARM GAS  C:\Temp\cclPUGyV.s 			page 246


  C:\Temp\cclPUGyV.s:9063   .text.ism330dhcx_fifo_pedo_batch_get:00000000 ism330dhcx_fifo_pedo_batch_get
  C:\Temp\cclPUGyV.s:9094   .text.ism330dhcx_sh_batch_slave_0_set:00000000 $t
  C:\Temp\cclPUGyV.s:9100   .text.ism330dhcx_sh_batch_slave_0_set:00000000 ism330dhcx_sh_batch_slave_0_set
  C:\Temp\cclPUGyV.s:9145   .text.ism330dhcx_sh_batch_slave_0_get:00000000 $t
  C:\Temp\cclPUGyV.s:9151   .text.ism330dhcx_sh_batch_slave_0_get:00000000 ism330dhcx_sh_batch_slave_0_get
  C:\Temp\cclPUGyV.s:9182   .text.ism330dhcx_sh_batch_slave_1_set:00000000 $t
  C:\Temp\cclPUGyV.s:9188   .text.ism330dhcx_sh_batch_slave_1_set:00000000 ism330dhcx_sh_batch_slave_1_set
  C:\Temp\cclPUGyV.s:9233   .text.ism330dhcx_sh_batch_slave_1_get:00000000 $t
  C:\Temp\cclPUGyV.s:9239   .text.ism330dhcx_sh_batch_slave_1_get:00000000 ism330dhcx_sh_batch_slave_1_get
  C:\Temp\cclPUGyV.s:9270   .text.ism330dhcx_sh_batch_slave_2_set:00000000 $t
  C:\Temp\cclPUGyV.s:9276   .text.ism330dhcx_sh_batch_slave_2_set:00000000 ism330dhcx_sh_batch_slave_2_set
  C:\Temp\cclPUGyV.s:9321   .text.ism330dhcx_sh_batch_slave_2_get:00000000 $t
  C:\Temp\cclPUGyV.s:9327   .text.ism330dhcx_sh_batch_slave_2_get:00000000 ism330dhcx_sh_batch_slave_2_get
  C:\Temp\cclPUGyV.s:9358   .text.ism330dhcx_sh_batch_slave_3_set:00000000 $t
  C:\Temp\cclPUGyV.s:9364   .text.ism330dhcx_sh_batch_slave_3_set:00000000 ism330dhcx_sh_batch_slave_3_set
  C:\Temp\cclPUGyV.s:9409   .text.ism330dhcx_sh_batch_slave_3_get:00000000 $t
  C:\Temp\cclPUGyV.s:9415   .text.ism330dhcx_sh_batch_slave_3_get:00000000 ism330dhcx_sh_batch_slave_3_get
  C:\Temp\cclPUGyV.s:9446   .text.ism330dhcx_den_mode_set:00000000 $t
  C:\Temp\cclPUGyV.s:9452   .text.ism330dhcx_den_mode_set:00000000 ism330dhcx_den_mode_set
  C:\Temp\cclPUGyV.s:9480   .text.ism330dhcx_den_mode_get:00000000 $t
  C:\Temp\cclPUGyV.s:9486   .text.ism330dhcx_den_mode_get:00000000 ism330dhcx_den_mode_get
  C:\Temp\cclPUGyV.s:9502   .text.ism330dhcx_den_mode_get:0000001e $d
  C:\Temp\cclPUGyV.s:9539   .text.ism330dhcx_den_polarity_set:00000000 $t
  C:\Temp\cclPUGyV.s:9545   .text.ism330dhcx_den_polarity_set:00000000 ism330dhcx_den_polarity_set
  C:\Temp\cclPUGyV.s:9573   .text.ism330dhcx_den_polarity_get:00000000 $t
  C:\Temp\cclPUGyV.s:9579   .text.ism330dhcx_den_polarity_get:00000000 ism330dhcx_den_polarity_get
  C:\Temp\cclPUGyV.s:9610   .text.ism330dhcx_den_enable_set:00000000 $t
  C:\Temp\cclPUGyV.s:9616   .text.ism330dhcx_den_enable_set:00000000 ism330dhcx_den_enable_set
  C:\Temp\cclPUGyV.s:9644   .text.ism330dhcx_den_enable_get:00000000 $t
  C:\Temp\cclPUGyV.s:9650   .text.ism330dhcx_den_enable_get:00000000 ism330dhcx_den_enable_get
  C:\Temp\cclPUGyV.s:9686   .text.ism330dhcx_den_mark_axis_x_set:00000000 $t
  C:\Temp\cclPUGyV.s:9692   .text.ism330dhcx_den_mark_axis_x_set:00000000 ism330dhcx_den_mark_axis_x_set
  C:\Temp\cclPUGyV.s:9720   .text.ism330dhcx_den_mark_axis_x_get:00000000 $t
  C:\Temp\cclPUGyV.s:9726   .text.ism330dhcx_den_mark_axis_x_get:00000000 ism330dhcx_den_mark_axis_x_get
  C:\Temp\cclPUGyV.s:9744   .text.ism330dhcx_den_mark_axis_y_set:00000000 $t
  C:\Temp\cclPUGyV.s:9750   .text.ism330dhcx_den_mark_axis_y_set:00000000 ism330dhcx_den_mark_axis_y_set
  C:\Temp\cclPUGyV.s:9778   .text.ism330dhcx_den_mark_axis_y_get:00000000 $t
  C:\Temp\cclPUGyV.s:9784   .text.ism330dhcx_den_mark_axis_y_get:00000000 ism330dhcx_den_mark_axis_y_get
  C:\Temp\cclPUGyV.s:9802   .text.ism330dhcx_den_mark_axis_z_set:00000000 $t
  C:\Temp\cclPUGyV.s:9808   .text.ism330dhcx_den_mark_axis_z_set:00000000 ism330dhcx_den_mark_axis_z_set
  C:\Temp\cclPUGyV.s:9836   .text.ism330dhcx_den_mark_axis_z_get:00000000 $t
  C:\Temp\cclPUGyV.s:9842   .text.ism330dhcx_den_mark_axis_z_get:00000000 ism330dhcx_den_mark_axis_z_get
  C:\Temp\cclPUGyV.s:9860   .text.ism330dhcx_pedo_sens_set:00000000 $t
  C:\Temp\cclPUGyV.s:9866   .text.ism330dhcx_pedo_sens_set:00000000 ism330dhcx_pedo_sens_set
  C:\Temp\cclPUGyV.s:9911   .text.ism330dhcx_pedo_sens_get:00000000 $t
  C:\Temp\cclPUGyV.s:9917   .text.ism330dhcx_pedo_sens_get:00000000 ism330dhcx_pedo_sens_get
  C:\Temp\cclPUGyV.s:9948   .text.ism330dhcx_pedo_step_detect_get:00000000 $t
  C:\Temp\cclPUGyV.s:9954   .text.ism330dhcx_pedo_step_detect_get:00000000 ism330dhcx_pedo_step_detect_get
  C:\Temp\cclPUGyV.s:9985   .text.ism330dhcx_pedo_debounce_steps_set:00000000 $t
  C:\Temp\cclPUGyV.s:9991   .text.ism330dhcx_pedo_debounce_steps_set:00000000 ism330dhcx_pedo_debounce_steps_set
  C:\Temp\cclPUGyV.s:10001  .text.ism330dhcx_pedo_debounce_steps_get:00000000 $t
  C:\Temp\cclPUGyV.s:10007  .text.ism330dhcx_pedo_debounce_steps_get:00000000 ism330dhcx_pedo_debounce_steps_get
  C:\Temp\cclPUGyV.s:10017  .text.ism330dhcx_pedo_steps_period_set:00000000 $t
  C:\Temp\cclPUGyV.s:10023  .text.ism330dhcx_pedo_steps_period_set:00000000 ism330dhcx_pedo_steps_period_set
  C:\Temp\cclPUGyV.s:10048  .text.ism330dhcx_pedo_steps_period_get:00000000 $t
  C:\Temp\cclPUGyV.s:10054  .text.ism330dhcx_pedo_steps_period_get:00000000 ism330dhcx_pedo_steps_period_get
  C:\Temp\cclPUGyV.s:10082  .text.ism330dhcx_pedo_int_mode_set:00000000 $t
ARM GAS  C:\Temp\cclPUGyV.s 			page 247


  C:\Temp\cclPUGyV.s:10088  .text.ism330dhcx_pedo_int_mode_set:00000000 ism330dhcx_pedo_int_mode_set
  C:\Temp\cclPUGyV.s:10114  .text.ism330dhcx_pedo_int_mode_get:00000000 $t
  C:\Temp\cclPUGyV.s:10120  .text.ism330dhcx_pedo_int_mode_get:00000000 ism330dhcx_pedo_int_mode_get
  C:\Temp\cclPUGyV.s:10150  .text.ism330dhcx_motion_sens_set:00000000 $t
  C:\Temp\cclPUGyV.s:10156  .text.ism330dhcx_motion_sens_set:00000000 ism330dhcx_motion_sens_set
  C:\Temp\cclPUGyV.s:10201  .text.ism330dhcx_motion_sens_get:00000000 $t
  C:\Temp\cclPUGyV.s:10207  .text.ism330dhcx_motion_sens_get:00000000 ism330dhcx_motion_sens_get
  C:\Temp\cclPUGyV.s:10238  .text.ism330dhcx_motion_flag_data_ready_get:00000000 $t
  C:\Temp\cclPUGyV.s:10244  .text.ism330dhcx_motion_flag_data_ready_get:00000000 ism330dhcx_motion_flag_data_ready_get
  C:\Temp\cclPUGyV.s:10275  .text.ism330dhcx_tilt_sens_set:00000000 $t
  C:\Temp\cclPUGyV.s:10281  .text.ism330dhcx_tilt_sens_set:00000000 ism330dhcx_tilt_sens_set
  C:\Temp\cclPUGyV.s:10326  .text.ism330dhcx_tilt_sens_get:00000000 $t
  C:\Temp\cclPUGyV.s:10332  .text.ism330dhcx_tilt_sens_get:00000000 ism330dhcx_tilt_sens_get
  C:\Temp\cclPUGyV.s:10363  .text.ism330dhcx_tilt_flag_data_ready_get:00000000 $t
  C:\Temp\cclPUGyV.s:10369  .text.ism330dhcx_tilt_flag_data_ready_get:00000000 ism330dhcx_tilt_flag_data_ready_get
  C:\Temp\cclPUGyV.s:10400  .text.ism330dhcx_mag_sensitivity_set:00000000 $t
  C:\Temp\cclPUGyV.s:10406  .text.ism330dhcx_mag_sensitivity_set:00000000 ism330dhcx_mag_sensitivity_set
  C:\Temp\cclPUGyV.s:10431  .text.ism330dhcx_mag_sensitivity_get:00000000 $t
  C:\Temp\cclPUGyV.s:10437  .text.ism330dhcx_mag_sensitivity_get:00000000 ism330dhcx_mag_sensitivity_get
  C:\Temp\cclPUGyV.s:10465  .text.ism330dhcx_mag_offset_set:00000000 $t
  C:\Temp\cclPUGyV.s:10471  .text.ism330dhcx_mag_offset_set:00000000 ism330dhcx_mag_offset_set
  C:\Temp\cclPUGyV.s:10545  .text.ism330dhcx_mag_offset_get:00000000 $t
  C:\Temp\cclPUGyV.s:10551  .text.ism330dhcx_mag_offset_get:00000000 ism330dhcx_mag_offset_get
  C:\Temp\cclPUGyV.s:10629  .text.ism330dhcx_mag_soft_iron_set:00000000 $t
  C:\Temp\cclPUGyV.s:10635  .text.ism330dhcx_mag_soft_iron_set:00000000 ism330dhcx_mag_soft_iron_set
  C:\Temp\cclPUGyV.s:10783  .text.ism330dhcx_mag_soft_iron_get:00000000 $t
  C:\Temp\cclPUGyV.s:10789  .text.ism330dhcx_mag_soft_iron_get:00000000 ism330dhcx_mag_soft_iron_get
  C:\Temp\cclPUGyV.s:10946  .text.ism330dhcx_mag_z_orient_set:00000000 $t
  C:\Temp\cclPUGyV.s:10952  .text.ism330dhcx_mag_z_orient_set:00000000 ism330dhcx_mag_z_orient_set
  C:\Temp\cclPUGyV.s:10978  .text.ism330dhcx_mag_z_orient_get:00000000 $t
  C:\Temp\cclPUGyV.s:10984  .text.ism330dhcx_mag_z_orient_get:00000000 ism330dhcx_mag_z_orient_get
  C:\Temp\cclPUGyV.s:10999  .text.ism330dhcx_mag_z_orient_get:0000001e $d
  C:\Temp\cclPUGyV.s:11005  .text.ism330dhcx_mag_z_orient_get:00000024 $t
  C:\Temp\cclPUGyV.s:11039  .text.ism330dhcx_mag_y_orient_set:00000000 $t
  C:\Temp\cclPUGyV.s:11045  .text.ism330dhcx_mag_y_orient_set:00000000 ism330dhcx_mag_y_orient_set
  C:\Temp\cclPUGyV.s:11071  .text.ism330dhcx_mag_y_orient_get:00000000 $t
  C:\Temp\cclPUGyV.s:11077  .text.ism330dhcx_mag_y_orient_get:00000000 ism330dhcx_mag_y_orient_get
  C:\Temp\cclPUGyV.s:11092  .text.ism330dhcx_mag_y_orient_get:0000001e $d
  C:\Temp\cclPUGyV.s:11098  .text.ism330dhcx_mag_y_orient_get:00000024 $t
  C:\Temp\cclPUGyV.s:11132  .text.ism330dhcx_mag_x_orient_set:00000000 $t
  C:\Temp\cclPUGyV.s:11138  .text.ism330dhcx_mag_x_orient_set:00000000 ism330dhcx_mag_x_orient_set
  C:\Temp\cclPUGyV.s:11164  .text.ism330dhcx_mag_x_orient_get:00000000 $t
  C:\Temp\cclPUGyV.s:11170  .text.ism330dhcx_mag_x_orient_get:00000000 ism330dhcx_mag_x_orient_get
  C:\Temp\cclPUGyV.s:11185  .text.ism330dhcx_mag_x_orient_get:0000001e $d
  C:\Temp\cclPUGyV.s:11191  .text.ism330dhcx_mag_x_orient_get:00000024 $t
  C:\Temp\cclPUGyV.s:11225  .text.ism330dhcx_long_cnt_flag_data_ready_get:00000000 $t
  C:\Temp\cclPUGyV.s:11231  .text.ism330dhcx_long_cnt_flag_data_ready_get:00000000 ism330dhcx_long_cnt_flag_data_ready_get
  C:\Temp\cclPUGyV.s:11262  .text.ism330dhcx_emb_fsm_en_set:00000000 $t
  C:\Temp\cclPUGyV.s:11268  .text.ism330dhcx_emb_fsm_en_set:00000000 ism330dhcx_emb_fsm_en_set
  C:\Temp\cclPUGyV.s:11313  .text.ism330dhcx_emb_fsm_en_get:00000000 $t
  C:\Temp\cclPUGyV.s:11319  .text.ism330dhcx_emb_fsm_en_get:00000000 ism330dhcx_emb_fsm_en_get
  C:\Temp\cclPUGyV.s:11364  .text.ism330dhcx_fsm_enable_set:00000000 $t
  C:\Temp\cclPUGyV.s:11370  .text.ism330dhcx_fsm_enable_set:00000000 ism330dhcx_fsm_enable_set
  C:\Temp\cclPUGyV.s:11469  .text.ism330dhcx_fsm_enable_get:00000000 $t
  C:\Temp\cclPUGyV.s:11475  .text.ism330dhcx_fsm_enable_get:00000000 ism330dhcx_fsm_enable_get
  C:\Temp\cclPUGyV.s:11514  .text.ism330dhcx_long_cnt_set:00000000 $t
  C:\Temp\cclPUGyV.s:11520  .text.ism330dhcx_long_cnt_set:00000000 ism330dhcx_long_cnt_set
ARM GAS  C:\Temp\cclPUGyV.s 			page 248


  C:\Temp\cclPUGyV.s:11550  .text.ism330dhcx_long_cnt_get:00000000 $t
  C:\Temp\cclPUGyV.s:11556  .text.ism330dhcx_long_cnt_get:00000000 ism330dhcx_long_cnt_get
  C:\Temp\cclPUGyV.s:11589  .text.ism330dhcx_long_clr_set:00000000 $t
  C:\Temp\cclPUGyV.s:11595  .text.ism330dhcx_long_clr_set:00000000 ism330dhcx_long_clr_set
  C:\Temp\cclPUGyV.s:11640  .text.ism330dhcx_long_clr_get:00000000 $t
  C:\Temp\cclPUGyV.s:11646  .text.ism330dhcx_long_clr_get:00000000 ism330dhcx_long_clr_get
  C:\Temp\cclPUGyV.s:11695  .text.ism330dhcx_fsm_out_get:00000000 $t
  C:\Temp\cclPUGyV.s:11701  .text.ism330dhcx_fsm_out_get:00000000 ism330dhcx_fsm_out_get
  C:\Temp\cclPUGyV.s:11726  .text.ism330dhcx_fsm_data_rate_set:00000000 $t
  C:\Temp\cclPUGyV.s:11732  .text.ism330dhcx_fsm_data_rate_set:00000000 ism330dhcx_fsm_data_rate_set
  C:\Temp\cclPUGyV.s:11784  .text.ism330dhcx_fsm_data_rate_get:00000000 $t
  C:\Temp\cclPUGyV.s:11790  .text.ism330dhcx_fsm_data_rate_get:00000000 ism330dhcx_fsm_data_rate_get
  C:\Temp\cclPUGyV.s:11807  .text.ism330dhcx_fsm_data_rate_get:00000020 $d
  C:\Temp\cclPUGyV.s:11811  .text.ism330dhcx_fsm_data_rate_get:00000024 $t
  C:\Temp\cclPUGyV.s:11849  .text.ism330dhcx_fsm_init_set:00000000 $t
  C:\Temp\cclPUGyV.s:11855  .text.ism330dhcx_fsm_init_set:00000000 ism330dhcx_fsm_init_set
  C:\Temp\cclPUGyV.s:11900  .text.ism330dhcx_fsm_init_get:00000000 $t
  C:\Temp\cclPUGyV.s:11906  .text.ism330dhcx_fsm_init_get:00000000 ism330dhcx_fsm_init_get
  C:\Temp\cclPUGyV.s:11937  .text.ism330dhcx_long_cnt_int_value_set:00000000 $t
  C:\Temp\cclPUGyV.s:11943  .text.ism330dhcx_long_cnt_int_value_set:00000000 ism330dhcx_long_cnt_int_value_set
  C:\Temp\cclPUGyV.s:11968  .text.ism330dhcx_long_cnt_int_value_get:00000000 $t
  C:\Temp\cclPUGyV.s:11974  .text.ism330dhcx_long_cnt_int_value_get:00000000 ism330dhcx_long_cnt_int_value_get
  C:\Temp\cclPUGyV.s:12002  .text.ism330dhcx_fsm_number_of_programs_set:00000000 $t
  C:\Temp\cclPUGyV.s:12008  .text.ism330dhcx_fsm_number_of_programs_set:00000000 ism330dhcx_fsm_number_of_programs_set
  C:\Temp\cclPUGyV.s:12028  .text.ism330dhcx_fsm_number_of_programs_get:00000000 $t
  C:\Temp\cclPUGyV.s:12034  .text.ism330dhcx_fsm_number_of_programs_get:00000000 ism330dhcx_fsm_number_of_programs_get
  C:\Temp\cclPUGyV.s:12044  .text.ism330dhcx_fsm_start_address_set:00000000 $t
  C:\Temp\cclPUGyV.s:12050  .text.ism330dhcx_fsm_start_address_set:00000000 ism330dhcx_fsm_start_address_set
  C:\Temp\cclPUGyV.s:12075  .text.ism330dhcx_fsm_start_address_get:00000000 $t
  C:\Temp\cclPUGyV.s:12081  .text.ism330dhcx_fsm_start_address_get:00000000 ism330dhcx_fsm_start_address_get
  C:\Temp\cclPUGyV.s:12109  .text.ism330dhcx_mlc_set:00000000 $t
  C:\Temp\cclPUGyV.s:12115  .text.ism330dhcx_mlc_set:00000000 ism330dhcx_mlc_set
  C:\Temp\cclPUGyV.s:12179  .text.ism330dhcx_mlc_get:00000000 $t
  C:\Temp\cclPUGyV.s:12185  .text.ism330dhcx_mlc_get:00000000 ism330dhcx_mlc_get
  C:\Temp\cclPUGyV.s:12216  .text.ism330dhcx_mlc_status_get:00000000 $t
  C:\Temp\cclPUGyV.s:12222  .text.ism330dhcx_mlc_status_get:00000000 ism330dhcx_mlc_status_get
  C:\Temp\cclPUGyV.s:12233  .text.ism330dhcx_mlc_data_rate_set:00000000 $t
  C:\Temp\cclPUGyV.s:12239  .text.ism330dhcx_mlc_data_rate_set:00000000 ism330dhcx_mlc_data_rate_set
  C:\Temp\cclPUGyV.s:12284  .text.ism330dhcx_mlc_data_rate_get:00000000 $t
  C:\Temp\cclPUGyV.s:12290  .text.ism330dhcx_mlc_data_rate_get:00000000 ism330dhcx_mlc_data_rate_get
  C:\Temp\cclPUGyV.s:12318  .text.ism330dhcx_mlc_data_rate_get:00000034 $d
  C:\Temp\cclPUGyV.s:12322  .text.ism330dhcx_mlc_data_rate_get:00000038 $t
  C:\Temp\cclPUGyV.s:12349  .text.ism330dhcx_xl_data_rate_set:00000000 $t
  C:\Temp\cclPUGyV.s:12355  .text.ism330dhcx_xl_data_rate_set:00000000 ism330dhcx_xl_data_rate_set
  C:\Temp\cclPUGyV.s:12412  .text.ism330dhcx_xl_data_rate_set:00000096 $d
  C:\Temp\cclPUGyV.s:12416  .text.ism330dhcx_xl_data_rate_set:0000009a $t
  C:\Temp\cclPUGyV.s:12525  .text.ism330dhcx_xl_data_rate_set:00000152 $d
  C:\Temp\cclPUGyV.s:12529  .text.ism330dhcx_xl_data_rate_set:00000156 $t
  C:\Temp\cclPUGyV.s:12604  .text.ism330dhcx_gy_data_rate_set:00000000 $t
  C:\Temp\cclPUGyV.s:12610  .text.ism330dhcx_gy_data_rate_set:00000000 ism330dhcx_gy_data_rate_set
  C:\Temp\cclPUGyV.s:12667  .text.ism330dhcx_gy_data_rate_set:00000096 $d
  C:\Temp\cclPUGyV.s:12671  .text.ism330dhcx_gy_data_rate_set:0000009a $t
  C:\Temp\cclPUGyV.s:12780  .text.ism330dhcx_gy_data_rate_set:00000152 $d
  C:\Temp\cclPUGyV.s:12784  .text.ism330dhcx_gy_data_rate_set:00000156 $t
  C:\Temp\cclPUGyV.s:12859  .text.ism330dhcx_sh_read_data_raw_get:00000000 $t
  C:\Temp\cclPUGyV.s:12865  .text.ism330dhcx_sh_read_data_raw_get:00000000 ism330dhcx_sh_read_data_raw_get
  C:\Temp\cclPUGyV.s:12891  .text.ism330dhcx_sh_slave_connected_set:00000000 $t
ARM GAS  C:\Temp\cclPUGyV.s 			page 249


  C:\Temp\cclPUGyV.s:12897  .text.ism330dhcx_sh_slave_connected_set:00000000 ism330dhcx_sh_slave_connected_set
  C:\Temp\cclPUGyV.s:12942  .text.ism330dhcx_sh_slave_connected_get:00000000 $t
  C:\Temp\cclPUGyV.s:12948  .text.ism330dhcx_sh_slave_connected_get:00000000 ism330dhcx_sh_slave_connected_get
  C:\Temp\cclPUGyV.s:12965  .text.ism330dhcx_sh_slave_connected_get:00000020 $d
  C:\Temp\cclPUGyV.s:12969  .text.ism330dhcx_sh_slave_connected_get:00000024 $t
  C:\Temp\cclPUGyV.s:13007  .text.ism330dhcx_sh_master_set:00000000 $t
  C:\Temp\cclPUGyV.s:13013  .text.ism330dhcx_sh_master_set:00000000 ism330dhcx_sh_master_set
  C:\Temp\cclPUGyV.s:13058  .text.ism330dhcx_sh_master_get:00000000 $t
  C:\Temp\cclPUGyV.s:13064  .text.ism330dhcx_sh_master_get:00000000 ism330dhcx_sh_master_get
  C:\Temp\cclPUGyV.s:13095  .text.ism330dhcx_sh_pin_mode_set:00000000 $t
  C:\Temp\cclPUGyV.s:13101  .text.ism330dhcx_sh_pin_mode_set:00000000 ism330dhcx_sh_pin_mode_set
  C:\Temp\cclPUGyV.s:13146  .text.ism330dhcx_sh_pin_mode_get:00000000 $t
  C:\Temp\cclPUGyV.s:13152  .text.ism330dhcx_sh_pin_mode_get:00000000 ism330dhcx_sh_pin_mode_get
  C:\Temp\cclPUGyV.s:13196  .text.ism330dhcx_sh_pass_through_set:00000000 $t
  C:\Temp\cclPUGyV.s:13202  .text.ism330dhcx_sh_pass_through_set:00000000 ism330dhcx_sh_pass_through_set
  C:\Temp\cclPUGyV.s:13247  .text.ism330dhcx_sh_pass_through_get:00000000 $t
  C:\Temp\cclPUGyV.s:13253  .text.ism330dhcx_sh_pass_through_get:00000000 ism330dhcx_sh_pass_through_get
  C:\Temp\cclPUGyV.s:13284  .text.ism330dhcx_sh_syncro_mode_set:00000000 $t
  C:\Temp\cclPUGyV.s:13290  .text.ism330dhcx_sh_syncro_mode_set:00000000 ism330dhcx_sh_syncro_mode_set
  C:\Temp\cclPUGyV.s:13335  .text.ism330dhcx_sh_syncro_mode_get:00000000 $t
  C:\Temp\cclPUGyV.s:13341  .text.ism330dhcx_sh_syncro_mode_get:00000000 ism330dhcx_sh_syncro_mode_get
  C:\Temp\cclPUGyV.s:13385  .text.ism330dhcx_sh_write_mode_set:00000000 $t
  C:\Temp\cclPUGyV.s:13391  .text.ism330dhcx_sh_write_mode_set:00000000 ism330dhcx_sh_write_mode_set
  C:\Temp\cclPUGyV.s:13436  .text.ism330dhcx_sh_write_mode_get:00000000 $t
  C:\Temp\cclPUGyV.s:13442  .text.ism330dhcx_sh_write_mode_get:00000000 ism330dhcx_sh_write_mode_get
  C:\Temp\cclPUGyV.s:13486  .text.ism330dhcx_sh_reset_set:00000000 $t
  C:\Temp\cclPUGyV.s:13492  .text.ism330dhcx_sh_reset_set:00000000 ism330dhcx_sh_reset_set
  C:\Temp\cclPUGyV.s:13547  .text.ism330dhcx_sh_reset_get:00000000 $t
  C:\Temp\cclPUGyV.s:13553  .text.ism330dhcx_sh_reset_get:00000000 ism330dhcx_sh_reset_get
  C:\Temp\cclPUGyV.s:13584  .text.ism330dhcx_sh_data_rate_set:00000000 $t
  C:\Temp\cclPUGyV.s:13590  .text.ism330dhcx_sh_data_rate_set:00000000 ism330dhcx_sh_data_rate_set
  C:\Temp\cclPUGyV.s:13635  .text.ism330dhcx_sh_data_rate_get:00000000 $t
  C:\Temp\cclPUGyV.s:13641  .text.ism330dhcx_sh_data_rate_get:00000000 ism330dhcx_sh_data_rate_get
  C:\Temp\cclPUGyV.s:13658  .text.ism330dhcx_sh_data_rate_get:0000001e $d
  C:\Temp\cclPUGyV.s:13662  .text.ism330dhcx_sh_data_rate_get:00000022 $t
  C:\Temp\cclPUGyV.s:13700  .text.ism330dhcx_sh_cfg_write:00000000 $t
  C:\Temp\cclPUGyV.s:13706  .text.ism330dhcx_sh_cfg_write:00000000 ism330dhcx_sh_cfg_write
  C:\Temp\cclPUGyV.s:13764  .text.ism330dhcx_sh_slv0_cfg_read:00000000 $t
  C:\Temp\cclPUGyV.s:13770  .text.ism330dhcx_sh_slv0_cfg_read:00000000 ism330dhcx_sh_slv0_cfg_read
  C:\Temp\cclPUGyV.s:13840  .text.ism330dhcx_sh_slv1_cfg_read:00000000 $t
  C:\Temp\cclPUGyV.s:13846  .text.ism330dhcx_sh_slv1_cfg_read:00000000 ism330dhcx_sh_slv1_cfg_read
  C:\Temp\cclPUGyV.s:13916  .text.ism330dhcx_sh_slv2_cfg_read:00000000 $t
  C:\Temp\cclPUGyV.s:13922  .text.ism330dhcx_sh_slv2_cfg_read:00000000 ism330dhcx_sh_slv2_cfg_read
  C:\Temp\cclPUGyV.s:13992  .text.ism330dhcx_sh_slv3_cfg_read:00000000 $t
  C:\Temp\cclPUGyV.s:13998  .text.ism330dhcx_sh_slv3_cfg_read:00000000 ism330dhcx_sh_slv3_cfg_read
  C:\Temp\cclPUGyV.s:14068  .text.ism330dhcx_sh_status_get:00000000 $t
  C:\Temp\cclPUGyV.s:14074  .text.ism330dhcx_sh_status_get:00000000 ism330dhcx_sh_status_get
  C:\Temp\cclPUGyV.s:553    .text.ism330dhcx_gy_full_scale_get:0000002d $d
  C:\Temp\cclPUGyV.s:553    .text.ism330dhcx_gy_full_scale_get:0000002e $t
  C:\Temp\cclPUGyV.s:620    .text.ism330dhcx_gy_data_rate_get:00000029 $d
  C:\Temp\cclPUGyV.s:620    .text.ism330dhcx_gy_data_rate_get:0000002a $t
  C:\Temp\cclPUGyV.s:4213   .text.ism330dhcx_aux_gy_full_scale_get:0000002d $d
  C:\Temp\cclPUGyV.s:4213   .text.ism330dhcx_aux_gy_full_scale_get:0000002e $t
  C:\Temp\cclPUGyV.s:6786   .text.ism330dhcx_tap_axis_priority_get:00000025 $d
  C:\Temp\cclPUGyV.s:6786   .text.ism330dhcx_tap_axis_priority_get:00000026 $t
  C:\Temp\cclPUGyV.s:8908   .text.ism330dhcx_fifo_sensor_tag_get:00000039 $d
  C:\Temp\cclPUGyV.s:8908   .text.ism330dhcx_fifo_sensor_tag_get:0000003a $t
ARM GAS  C:\Temp\cclPUGyV.s 			page 250


  C:\Temp\cclPUGyV.s:9509   .text.ism330dhcx_den_mode_get:00000025 $d
  C:\Temp\cclPUGyV.s:9509   .text.ism330dhcx_den_mode_get:00000026 $t

NO UNDEFINED SYMBOLS
