ARM GAS  C:\Temp\ccqmCX5l.s 			page 1


   1              		.cpu cortex-m4
   2              		.arch armv7e-m
   3              		.fpu fpv4-sp-d16
   4              		.eabi_attribute 27, 1
   5              		.eabi_attribute 28, 1
   6              		.eabi_attribute 20, 1
   7              		.eabi_attribute 21, 1
   8              		.eabi_attribute 23, 3
   9              		.eabi_attribute 24, 1
  10              		.eabi_attribute 25, 1
  11              		.eabi_attribute 26, 1
  12              		.eabi_attribute 30, 1
  13              		.eabi_attribute 34, 1
  14              		.eabi_attribute 18, 4
  15              		.file	"stm32f3xx_hal_tim.c"
  16              		.text
  17              		.section	.text.TIM_OC1_SetConfig,"ax",%progbits
  18              		.align	1
  19              		.syntax unified
  20              		.thumb
  21              		.thumb_func
  23              	TIM_OC1_SetConfig:
  24              		@ args = 0, pretend = 0, frame = 0
  25              		@ frame_needed = 0, uses_anonymous_args = 0
  26              		@ link register save eliminated.
  27 0000 30B4     		push	{r4, r5}
  28 0002 026A     		ldr	r2, [r0, #32]
  29 0004 036A     		ldr	r3, [r0, #32]
  30 0006 23F00103 		bic	r3, r3, #1
  31 000a 0362     		str	r3, [r0, #32]
  32 000c 4468     		ldr	r4, [r0, #4]
  33 000e 8369     		ldr	r3, [r0, #24]
  34 0010 23F48033 		bic	r3, r3, #65536
  35 0014 23F07303 		bic	r3, r3, #115
  36 0018 0D68     		ldr	r5, [r1]
  37 001a 1D43     		orrs	r5, r5, r3
  38 001c 22F00202 		bic	r2, r2, #2
  39 0020 8B68     		ldr	r3, [r1, #8]
  40 0022 1343     		orrs	r3, r3, r2
  41 0024 204A     		ldr	r2, .L7
  42 0026 9042     		cmp	r0, r2
  43 0028 13D0     		beq	.L2
  44 002a 02F50062 		add	r2, r2, #2048
  45 002e 9042     		cmp	r0, r2
  46 0030 0FD0     		beq	.L2
  47 0032 02F54062 		add	r2, r2, #3072
  48 0036 9042     		cmp	r0, r2
  49 0038 0BD0     		beq	.L2
  50 003a 02F58062 		add	r2, r2, #1024
  51 003e 9042     		cmp	r0, r2
  52 0040 07D0     		beq	.L2
  53 0042 02F58062 		add	r2, r2, #1024
  54 0046 9042     		cmp	r0, r2
  55 0048 03D0     		beq	.L2
  56 004a 02F50062 		add	r2, r2, #2048
  57 004e 9042     		cmp	r0, r2
  58 0050 05D1     		bne	.L3
ARM GAS  C:\Temp\ccqmCX5l.s 			page 2


  59              	.L2:
  60 0052 23F00803 		bic	r3, r3, #8
  61 0056 CA68     		ldr	r2, [r1, #12]
  62 0058 1A43     		orrs	r2, r2, r3
  63 005a 22F00403 		bic	r3, r2, #4
  64              	.L3:
  65 005e 124A     		ldr	r2, .L7
  66 0060 9042     		cmp	r0, r2
  67 0062 13D0     		beq	.L4
  68 0064 02F50062 		add	r2, r2, #2048
  69 0068 9042     		cmp	r0, r2
  70 006a 0FD0     		beq	.L4
  71 006c 02F54062 		add	r2, r2, #3072
  72 0070 9042     		cmp	r0, r2
  73 0072 0BD0     		beq	.L4
  74 0074 02F58062 		add	r2, r2, #1024
  75 0078 9042     		cmp	r0, r2
  76 007a 07D0     		beq	.L4
  77 007c 02F58062 		add	r2, r2, #1024
  78 0080 9042     		cmp	r0, r2
  79 0082 03D0     		beq	.L4
  80 0084 02F50062 		add	r2, r2, #2048
  81 0088 9042     		cmp	r0, r2
  82 008a 05D1     		bne	.L5
  83              	.L4:
  84 008c 24F44074 		bic	r4, r4, #768
  85 0090 4A69     		ldr	r2, [r1, #20]
  86 0092 2243     		orrs	r2, r2, r4
  87 0094 8C69     		ldr	r4, [r1, #24]
  88 0096 1443     		orrs	r4, r4, r2
  89              	.L5:
  90 0098 4460     		str	r4, [r0, #4]
  91 009a 8561     		str	r5, [r0, #24]
  92 009c 4A68     		ldr	r2, [r1, #4]
  93 009e 4263     		str	r2, [r0, #52]
  94 00a0 0362     		str	r3, [r0, #32]
  95 00a2 30BC     		pop	{r4, r5}
  96 00a4 7047     		bx	lr
  97              	.L8:
  98 00a6 00BF     		.align	2
  99              	.L7:
 100 00a8 002C0140 		.word	1073818624
 102              		.section	.text.TIM_OC3_SetConfig,"ax",%progbits
 103              		.align	1
 104              		.syntax unified
 105              		.thumb
 106              		.thumb_func
 108              	TIM_OC3_SetConfig:
 109              		@ args = 0, pretend = 0, frame = 0
 110              		@ frame_needed = 0, uses_anonymous_args = 0
 111              		@ link register save eliminated.
 112 0000 30B4     		push	{r4, r5}
 113 0002 036A     		ldr	r3, [r0, #32]
 114 0004 026A     		ldr	r2, [r0, #32]
 115 0006 22F48072 		bic	r2, r2, #256
 116 000a 0262     		str	r2, [r0, #32]
 117 000c 4468     		ldr	r4, [r0, #4]
ARM GAS  C:\Temp\ccqmCX5l.s 			page 3


 118 000e C269     		ldr	r2, [r0, #28]
 119 0010 22F48032 		bic	r2, r2, #65536
 120 0014 22F07302 		bic	r2, r2, #115
 121 0018 0D68     		ldr	r5, [r1]
 122 001a 1543     		orrs	r5, r5, r2
 123 001c 23F40073 		bic	r3, r3, #512
 124 0020 8A68     		ldr	r2, [r1, #8]
 125 0022 43EA0223 		orr	r3, r3, r2, lsl #8
 126 0026 1C4A     		ldr	r2, .L15
 127 0028 9042     		cmp	r0, r2
 128 002a 07D0     		beq	.L10
 129 002c 02F50062 		add	r2, r2, #2048
 130 0030 9042     		cmp	r0, r2
 131 0032 03D0     		beq	.L10
 132 0034 02F5E052 		add	r2, r2, #7168
 133 0038 9042     		cmp	r0, r2
 134 003a 06D1     		bne	.L11
 135              	.L10:
 136 003c 23F40063 		bic	r3, r3, #2048
 137 0040 CA68     		ldr	r2, [r1, #12]
 138 0042 43EA0223 		orr	r3, r3, r2, lsl #8
 139 0046 23F48063 		bic	r3, r3, #1024
 140              	.L11:
 141 004a 134A     		ldr	r2, .L15
 142 004c 9042     		cmp	r0, r2
 143 004e 13D0     		beq	.L12
 144 0050 02F50062 		add	r2, r2, #2048
 145 0054 9042     		cmp	r0, r2
 146 0056 0FD0     		beq	.L12
 147 0058 02F54062 		add	r2, r2, #3072
 148 005c 9042     		cmp	r0, r2
 149 005e 0BD0     		beq	.L12
 150 0060 02F58062 		add	r2, r2, #1024
 151 0064 9042     		cmp	r0, r2
 152 0066 07D0     		beq	.L12
 153 0068 02F58062 		add	r2, r2, #1024
 154 006c 9042     		cmp	r0, r2
 155 006e 03D0     		beq	.L12
 156 0070 02F50062 		add	r2, r2, #2048
 157 0074 9042     		cmp	r0, r2
 158 0076 07D1     		bne	.L13
 159              	.L12:
 160 0078 24F44052 		bic	r2, r4, #12288
 161 007c 4C69     		ldr	r4, [r1, #20]
 162 007e 42EA0412 		orr	r2, r2, r4, lsl #4
 163 0082 8C69     		ldr	r4, [r1, #24]
 164 0084 42EA0414 		orr	r4, r2, r4, lsl #4
 165              	.L13:
 166 0088 4460     		str	r4, [r0, #4]
 167 008a C561     		str	r5, [r0, #28]
 168 008c 4A68     		ldr	r2, [r1, #4]
 169 008e C263     		str	r2, [r0, #60]
 170 0090 0362     		str	r3, [r0, #32]
 171 0092 30BC     		pop	{r4, r5}
 172 0094 7047     		bx	lr
 173              	.L16:
 174 0096 00BF     		.align	2
ARM GAS  C:\Temp\ccqmCX5l.s 			page 4


 175              	.L15:
 176 0098 002C0140 		.word	1073818624
 178              		.section	.text.TIM_OC4_SetConfig,"ax",%progbits
 179              		.align	1
 180              		.syntax unified
 181              		.thumb
 182              		.thumb_func
 184              	TIM_OC4_SetConfig:
 185              		@ args = 0, pretend = 0, frame = 0
 186              		@ frame_needed = 0, uses_anonymous_args = 0
 187              		@ link register save eliminated.
 188 0000 30B4     		push	{r4, r5}
 189 0002 036A     		ldr	r3, [r0, #32]
 190 0004 026A     		ldr	r2, [r0, #32]
 191 0006 22F48052 		bic	r2, r2, #4096
 192 000a 0262     		str	r2, [r0, #32]
 193 000c 4468     		ldr	r4, [r0, #4]
 194 000e C269     		ldr	r2, [r0, #28]
 195 0010 22F08072 		bic	r2, r2, #16777216
 196 0014 22F4E642 		bic	r2, r2, #29440
 197 0018 0D68     		ldr	r5, [r1]
 198 001a 42EA0522 		orr	r2, r2, r5, lsl #8
 199 001e 23F40053 		bic	r3, r3, #8192
 200 0022 8D68     		ldr	r5, [r1, #8]
 201 0024 43EA0533 		orr	r3, r3, r5, lsl #12
 202 0028 114D     		ldr	r5, .L21
 203 002a A842     		cmp	r0, r5
 204 002c 13D0     		beq	.L18
 205 002e 05F50065 		add	r5, r5, #2048
 206 0032 A842     		cmp	r0, r5
 207 0034 0FD0     		beq	.L18
 208 0036 05F54065 		add	r5, r5, #3072
 209 003a A842     		cmp	r0, r5
 210 003c 0BD0     		beq	.L18
 211 003e 05F58065 		add	r5, r5, #1024
 212 0042 A842     		cmp	r0, r5
 213 0044 07D0     		beq	.L18
 214 0046 05F58065 		add	r5, r5, #1024
 215 004a A842     		cmp	r0, r5
 216 004c 03D0     		beq	.L18
 217 004e 05F50065 		add	r5, r5, #2048
 218 0052 A842     		cmp	r0, r5
 219 0054 04D1     		bne	.L19
 220              	.L18:
 221 0056 24F48044 		bic	r4, r4, #16384
 222 005a 4D69     		ldr	r5, [r1, #20]
 223 005c 44EA8514 		orr	r4, r4, r5, lsl #6
 224              	.L19:
 225 0060 4460     		str	r4, [r0, #4]
 226 0062 C261     		str	r2, [r0, #28]
 227 0064 4A68     		ldr	r2, [r1, #4]
 228 0066 0264     		str	r2, [r0, #64]
 229 0068 0362     		str	r3, [r0, #32]
 230 006a 30BC     		pop	{r4, r5}
 231 006c 7047     		bx	lr
 232              	.L22:
 233 006e 00BF     		.align	2
ARM GAS  C:\Temp\ccqmCX5l.s 			page 5


 234              	.L21:
 235 0070 002C0140 		.word	1073818624
 237              		.section	.text.TIM_OC5_SetConfig,"ax",%progbits
 238              		.align	1
 239              		.syntax unified
 240              		.thumb
 241              		.thumb_func
 243              	TIM_OC5_SetConfig:
 244              		@ args = 0, pretend = 0, frame = 0
 245              		@ frame_needed = 0, uses_anonymous_args = 0
 246              		@ link register save eliminated.
 247 0000 30B4     		push	{r4, r5}
 248 0002 036A     		ldr	r3, [r0, #32]
 249 0004 026A     		ldr	r2, [r0, #32]
 250 0006 22F48032 		bic	r2, r2, #65536
 251 000a 0262     		str	r2, [r0, #32]
 252 000c 4468     		ldr	r4, [r0, #4]
 253 000e 426D     		ldr	r2, [r0, #84]
 254 0010 22F48032 		bic	r2, r2, #65536
 255 0014 22F07002 		bic	r2, r2, #112
 256 0018 0D68     		ldr	r5, [r1]
 257 001a 1543     		orrs	r5, r5, r2
 258 001c 23F40033 		bic	r3, r3, #131072
 259 0020 8A68     		ldr	r2, [r1, #8]
 260 0022 43EA0243 		orr	r3, r3, r2, lsl #16
 261 0026 114A     		ldr	r2, .L27
 262 0028 9042     		cmp	r0, r2
 263 002a 13D0     		beq	.L24
 264 002c 02F50062 		add	r2, r2, #2048
 265 0030 9042     		cmp	r0, r2
 266 0032 0FD0     		beq	.L24
 267 0034 02F54062 		add	r2, r2, #3072
 268 0038 9042     		cmp	r0, r2
 269 003a 0BD0     		beq	.L24
 270 003c 02F58062 		add	r2, r2, #1024
 271 0040 9042     		cmp	r0, r2
 272 0042 07D0     		beq	.L24
 273 0044 02F58062 		add	r2, r2, #1024
 274 0048 9042     		cmp	r0, r2
 275 004a 03D0     		beq	.L24
 276 004c 02F50062 		add	r2, r2, #2048
 277 0050 9042     		cmp	r0, r2
 278 0052 04D1     		bne	.L25
 279              	.L24:
 280 0054 24F48034 		bic	r4, r4, #65536
 281 0058 4A69     		ldr	r2, [r1, #20]
 282 005a 44EA0224 		orr	r4, r4, r2, lsl #8
 283              	.L25:
 284 005e 4460     		str	r4, [r0, #4]
 285 0060 4565     		str	r5, [r0, #84]
 286 0062 4A68     		ldr	r2, [r1, #4]
 287 0064 8265     		str	r2, [r0, #88]
 288 0066 0362     		str	r3, [r0, #32]
 289 0068 30BC     		pop	{r4, r5}
 290 006a 7047     		bx	lr
 291              	.L28:
 292              		.align	2
ARM GAS  C:\Temp\ccqmCX5l.s 			page 6


 293              	.L27:
 294 006c 002C0140 		.word	1073818624
 296              		.section	.text.TIM_OC6_SetConfig,"ax",%progbits
 297              		.align	1
 298              		.syntax unified
 299              		.thumb
 300              		.thumb_func
 302              	TIM_OC6_SetConfig:
 303              		@ args = 0, pretend = 0, frame = 0
 304              		@ frame_needed = 0, uses_anonymous_args = 0
 305              		@ link register save eliminated.
 306 0000 30B4     		push	{r4, r5}
 307 0002 036A     		ldr	r3, [r0, #32]
 308 0004 026A     		ldr	r2, [r0, #32]
 309 0006 22F48012 		bic	r2, r2, #1048576
 310 000a 0262     		str	r2, [r0, #32]
 311 000c 4468     		ldr	r4, [r0, #4]
 312 000e 426D     		ldr	r2, [r0, #84]
 313 0010 22F08072 		bic	r2, r2, #16777216
 314 0014 22F4E042 		bic	r2, r2, #28672
 315 0018 0D68     		ldr	r5, [r1]
 316 001a 42EA0522 		orr	r2, r2, r5, lsl #8
 317 001e 23F40013 		bic	r3, r3, #2097152
 318 0022 8D68     		ldr	r5, [r1, #8]
 319 0024 43EA0553 		orr	r3, r3, r5, lsl #20
 320 0028 114D     		ldr	r5, .L33
 321 002a A842     		cmp	r0, r5
 322 002c 13D0     		beq	.L30
 323 002e 05F50065 		add	r5, r5, #2048
 324 0032 A842     		cmp	r0, r5
 325 0034 0FD0     		beq	.L30
 326 0036 05F54065 		add	r5, r5, #3072
 327 003a A842     		cmp	r0, r5
 328 003c 0BD0     		beq	.L30
 329 003e 05F58065 		add	r5, r5, #1024
 330 0042 A842     		cmp	r0, r5
 331 0044 07D0     		beq	.L30
 332 0046 05F58065 		add	r5, r5, #1024
 333 004a A842     		cmp	r0, r5
 334 004c 03D0     		beq	.L30
 335 004e 05F50065 		add	r5, r5, #2048
 336 0052 A842     		cmp	r0, r5
 337 0054 04D1     		bne	.L31
 338              	.L30:
 339 0056 24F48024 		bic	r4, r4, #262144
 340 005a 4D69     		ldr	r5, [r1, #20]
 341 005c 44EA8524 		orr	r4, r4, r5, lsl #10
 342              	.L31:
 343 0060 4460     		str	r4, [r0, #4]
 344 0062 4265     		str	r2, [r0, #84]
 345 0064 4A68     		ldr	r2, [r1, #4]
 346 0066 C265     		str	r2, [r0, #92]
 347 0068 0362     		str	r3, [r0, #32]
 348 006a 30BC     		pop	{r4, r5}
 349 006c 7047     		bx	lr
 350              	.L34:
 351 006e 00BF     		.align	2
ARM GAS  C:\Temp\ccqmCX5l.s 			page 7


 352              	.L33:
 353 0070 002C0140 		.word	1073818624
 355              		.section	.text.TIM_TI1_ConfigInputStage,"ax",%progbits
 356              		.align	1
 357              		.syntax unified
 358              		.thumb
 359              		.thumb_func
 361              	TIM_TI1_ConfigInputStage:
 362              		@ args = 0, pretend = 0, frame = 0
 363              		@ frame_needed = 0, uses_anonymous_args = 0
 364              		@ link register save eliminated.
 365 0000 10B4     		push	{r4}
 366 0002 036A     		ldr	r3, [r0, #32]
 367 0004 046A     		ldr	r4, [r0, #32]
 368 0006 24F00104 		bic	r4, r4, #1
 369 000a 0462     		str	r4, [r0, #32]
 370 000c 8469     		ldr	r4, [r0, #24]
 371 000e 24F0F00C 		bic	ip, r4, #240
 372 0012 4CEA0212 		orr	r2, ip, r2, lsl #4
 373 0016 23F00A03 		bic	r3, r3, #10
 374 001a 0B43     		orrs	r3, r3, r1
 375 001c 8261     		str	r2, [r0, #24]
 376 001e 0362     		str	r3, [r0, #32]
 377 0020 5DF8044B 		ldr	r4, [sp], #4
 378 0024 7047     		bx	lr
 380              		.section	.text.TIM_TI2_SetConfig,"ax",%progbits
 381              		.align	1
 382              		.syntax unified
 383              		.thumb
 384              		.thumb_func
 386              	TIM_TI2_SetConfig:
 387              		@ args = 0, pretend = 0, frame = 0
 388              		@ frame_needed = 0, uses_anonymous_args = 0
 389              		@ link register save eliminated.
 390 0000 30B4     		push	{r4, r5}
 391 0002 056A     		ldr	r5, [r0, #32]
 392 0004 046A     		ldr	r4, [r0, #32]
 393 0006 24F01004 		bic	r4, r4, #16
 394 000a 0462     		str	r4, [r0, #32]
 395 000c 8469     		ldr	r4, [r0, #24]
 396 000e 24F4407C 		bic	ip, r4, #768
 397 0012 4CEA022C 		orr	ip, ip, r2, lsl #8
 398 0016 2CF4704C 		bic	ip, ip, #61440
 399 001a 1B03     		lsls	r3, r3, #12
 400 001c 9BB2     		uxth	r3, r3
 401 001e 43EA0C03 		orr	r3, r3, ip
 402 0022 25F0A005 		bic	r5, r5, #160
 403 0026 0901     		lsls	r1, r1, #4
 404 0028 01F0A001 		and	r1, r1, #160
 405 002c 2943     		orrs	r1, r1, r5
 406 002e 8361     		str	r3, [r0, #24]
 407 0030 0162     		str	r1, [r0, #32]
 408 0032 30BC     		pop	{r4, r5}
 409 0034 7047     		bx	lr
 411              		.section	.text.TIM_TI2_ConfigInputStage,"ax",%progbits
 412              		.align	1
 413              		.syntax unified
ARM GAS  C:\Temp\ccqmCX5l.s 			page 8


 414              		.thumb
 415              		.thumb_func
 417              	TIM_TI2_ConfigInputStage:
 418              		@ args = 0, pretend = 0, frame = 0
 419              		@ frame_needed = 0, uses_anonymous_args = 0
 420              		@ link register save eliminated.
 421 0000 10B4     		push	{r4}
 422 0002 036A     		ldr	r3, [r0, #32]
 423 0004 046A     		ldr	r4, [r0, #32]
 424 0006 24F01004 		bic	r4, r4, #16
 425 000a 0462     		str	r4, [r0, #32]
 426 000c 8469     		ldr	r4, [r0, #24]
 427 000e 24F4704C 		bic	ip, r4, #61440
 428 0012 4CEA0232 		orr	r2, ip, r2, lsl #12
 429 0016 23F0A003 		bic	r3, r3, #160
 430 001a 43EA0113 		orr	r3, r3, r1, lsl #4
 431 001e 8261     		str	r2, [r0, #24]
 432 0020 0362     		str	r3, [r0, #32]
 433 0022 5DF8044B 		ldr	r4, [sp], #4
 434 0026 7047     		bx	lr
 436              		.section	.text.TIM_TI3_SetConfig,"ax",%progbits
 437              		.align	1
 438              		.syntax unified
 439              		.thumb
 440              		.thumb_func
 442              	TIM_TI3_SetConfig:
 443              		@ args = 0, pretend = 0, frame = 0
 444              		@ frame_needed = 0, uses_anonymous_args = 0
 445              		@ link register save eliminated.
 446 0000 30B4     		push	{r4, r5}
 447 0002 056A     		ldr	r5, [r0, #32]
 448 0004 046A     		ldr	r4, [r0, #32]
 449 0006 24F48074 		bic	r4, r4, #256
 450 000a 0462     		str	r4, [r0, #32]
 451 000c C469     		ldr	r4, [r0, #28]
 452 000e 24F0030C 		bic	ip, r4, #3
 453 0012 4CEA020C 		orr	ip, ip, r2
 454 0016 2CF0F00C 		bic	ip, ip, #240
 455 001a 1B01     		lsls	r3, r3, #4
 456 001c DBB2     		uxtb	r3, r3
 457 001e 43EA0C03 		orr	r3, r3, ip
 458 0022 25F42065 		bic	r5, r5, #2560
 459 0026 0902     		lsls	r1, r1, #8
 460 0028 01F42061 		and	r1, r1, #2560
 461 002c 2943     		orrs	r1, r1, r5
 462 002e C361     		str	r3, [r0, #28]
 463 0030 0162     		str	r1, [r0, #32]
 464 0032 30BC     		pop	{r4, r5}
 465 0034 7047     		bx	lr
 467              		.section	.text.TIM_TI4_SetConfig,"ax",%progbits
 468              		.align	1
 469              		.syntax unified
 470              		.thumb
 471              		.thumb_func
 473              	TIM_TI4_SetConfig:
 474              		@ args = 0, pretend = 0, frame = 0
 475              		@ frame_needed = 0, uses_anonymous_args = 0
ARM GAS  C:\Temp\ccqmCX5l.s 			page 9


 476              		@ link register save eliminated.
 477 0000 30B4     		push	{r4, r5}
 478 0002 056A     		ldr	r5, [r0, #32]
 479 0004 046A     		ldr	r4, [r0, #32]
 480 0006 24F48054 		bic	r4, r4, #4096
 481 000a 0462     		str	r4, [r0, #32]
 482 000c C469     		ldr	r4, [r0, #28]
 483 000e 24F4407C 		bic	ip, r4, #768
 484 0012 4CEA022C 		orr	ip, ip, r2, lsl #8
 485 0016 2CF4704C 		bic	ip, ip, #61440
 486 001a 1B03     		lsls	r3, r3, #12
 487 001c 9BB2     		uxth	r3, r3
 488 001e 43EA0C03 		orr	r3, r3, ip
 489 0022 25F42045 		bic	r5, r5, #40960
 490 0026 0903     		lsls	r1, r1, #12
 491 0028 01F42041 		and	r1, r1, #40960
 492 002c 2943     		orrs	r1, r1, r5
 493 002e C361     		str	r3, [r0, #28]
 494 0030 0162     		str	r1, [r0, #32]
 495 0032 30BC     		pop	{r4, r5}
 496 0034 7047     		bx	lr
 498              		.section	.text.TIM_ITRx_SetConfig,"ax",%progbits
 499              		.align	1
 500              		.syntax unified
 501              		.thumb
 502              		.thumb_func
 504              	TIM_ITRx_SetConfig:
 505              		@ args = 0, pretend = 0, frame = 0
 506              		@ frame_needed = 0, uses_anonymous_args = 0
 507              		@ link register save eliminated.
 508 0000 8368     		ldr	r3, [r0, #8]
 509 0002 23F07003 		bic	r3, r3, #112
 510 0006 0B43     		orrs	r3, r3, r1
 511 0008 43F00703 		orr	r3, r3, #7
 512 000c 8360     		str	r3, [r0, #8]
 513 000e 7047     		bx	lr
 515              		.section	.text.HAL_TIM_Base_MspInit,"ax",%progbits
 516              		.align	1
 517              		.weak	HAL_TIM_Base_MspInit
 518              		.syntax unified
 519              		.thumb
 520              		.thumb_func
 522              	HAL_TIM_Base_MspInit:
 523              		@ args = 0, pretend = 0, frame = 0
 524              		@ frame_needed = 0, uses_anonymous_args = 0
 525              		@ link register save eliminated.
 526 0000 7047     		bx	lr
 528              		.section	.text.HAL_TIM_Base_MspDeInit,"ax",%progbits
 529              		.align	1
 530              		.weak	HAL_TIM_Base_MspDeInit
 531              		.syntax unified
 532              		.thumb
 533              		.thumb_func
 535              	HAL_TIM_Base_MspDeInit:
 536              		@ args = 0, pretend = 0, frame = 0
 537              		@ frame_needed = 0, uses_anonymous_args = 0
 538              		@ link register save eliminated.
ARM GAS  C:\Temp\ccqmCX5l.s 			page 10


 539 0000 7047     		bx	lr
 541              		.section	.text.HAL_TIM_Base_DeInit,"ax",%progbits
 542              		.align	1
 543              		.global	HAL_TIM_Base_DeInit
 544              		.syntax unified
 545              		.thumb
 546              		.thumb_func
 548              	HAL_TIM_Base_DeInit:
 549              		@ args = 0, pretend = 0, frame = 0
 550              		@ frame_needed = 0, uses_anonymous_args = 0
 551 0000 10B5     		push	{r4, lr}
 552 0002 0446     		mov	r4, r0
 553 0004 0223     		movs	r3, #2
 554 0006 80F83D30 		strb	r3, [r0, #61]
 555 000a 0368     		ldr	r3, [r0]
 556 000c 196A     		ldr	r1, [r3, #32]
 557 000e 41F21112 		movw	r2, #4369
 558 0012 1142     		tst	r1, r2
 559 0014 08D1     		bne	.L49
 560 0016 196A     		ldr	r1, [r3, #32]
 561 0018 40F24442 		movw	r2, #1092
 562 001c 1142     		tst	r1, r2
 563 001e 03D1     		bne	.L49
 564 0020 1A68     		ldr	r2, [r3]
 565 0022 22F00102 		bic	r2, r2, #1
 566 0026 1A60     		str	r2, [r3]
 567              	.L49:
 568 0028 2046     		mov	r0, r4
 569 002a FFF7FEFF 		bl	HAL_TIM_Base_MspDeInit
 570 002e 0020     		movs	r0, #0
 571 0030 84F84800 		strb	r0, [r4, #72]
 572 0034 84F83E00 		strb	r0, [r4, #62]
 573 0038 84F83F00 		strb	r0, [r4, #63]
 574 003c 84F84000 		strb	r0, [r4, #64]
 575 0040 84F84100 		strb	r0, [r4, #65]
 576 0044 84F84200 		strb	r0, [r4, #66]
 577 0048 84F84300 		strb	r0, [r4, #67]
 578 004c 84F84400 		strb	r0, [r4, #68]
 579 0050 84F84500 		strb	r0, [r4, #69]
 580 0054 84F84600 		strb	r0, [r4, #70]
 581 0058 84F84700 		strb	r0, [r4, #71]
 582 005c 84F83D00 		strb	r0, [r4, #61]
 583 0060 84F83C00 		strb	r0, [r4, #60]
 584 0064 10BD     		pop	{r4, pc}
 586              		.section	.text.HAL_TIM_Base_Start,"ax",%progbits
 587              		.align	1
 588              		.global	HAL_TIM_Base_Start
 589              		.syntax unified
 590              		.thumb
 591              		.thumb_func
 593              	HAL_TIM_Base_Start:
 594              		@ args = 0, pretend = 0, frame = 0
 595              		@ frame_needed = 0, uses_anonymous_args = 0
 596              		@ link register save eliminated.
 597 0000 90F83D30 		ldrb	r3, [r0, #61]	@ zero_extendqisi2
 598 0004 DBB2     		uxtb	r3, r3
 599 0006 012B     		cmp	r3, #1
ARM GAS  C:\Temp\ccqmCX5l.s 			page 11


 600 0008 31D1     		bne	.L55
 601 000a 0223     		movs	r3, #2
 602 000c 80F83D30 		strb	r3, [r0, #61]
 603 0010 0368     		ldr	r3, [r0]
 604 0012 1A4A     		ldr	r2, .L58
 605 0014 9342     		cmp	r3, r2
 606 0016 1CD0     		beq	.L53
 607 0018 B3F1804F 		cmp	r3, #1073741824
 608 001c 19D0     		beq	.L53
 609 001e A2F59432 		sub	r2, r2, #75776
 610 0022 9342     		cmp	r3, r2
 611 0024 15D0     		beq	.L53
 612 0026 02F58062 		add	r2, r2, #1024
 613 002a 9342     		cmp	r3, r2
 614 002c 11D0     		beq	.L53
 615 002e 02F59632 		add	r2, r2, #76800
 616 0032 9342     		cmp	r3, r2
 617 0034 0DD0     		beq	.L53
 618 0036 02F54062 		add	r2, r2, #3072
 619 003a 9342     		cmp	r3, r2
 620 003c 09D0     		beq	.L53
 621 003e 02F58052 		add	r2, r2, #4096
 622 0042 9342     		cmp	r3, r2
 623 0044 05D0     		beq	.L53
 624 0046 1A68     		ldr	r2, [r3]
 625 0048 42F00102 		orr	r2, r2, #1
 626 004c 1A60     		str	r2, [r3]
 627 004e 0020     		movs	r0, #0
 628 0050 7047     		bx	lr
 629              	.L53:
 630 0052 9968     		ldr	r1, [r3, #8]
 631 0054 0A4A     		ldr	r2, .L58+4
 632 0056 0A40     		ands	r2, r2, r1
 633 0058 062A     		cmp	r2, #6
 634 005a 0AD0     		beq	.L56
 635 005c B2F5803F 		cmp	r2, #65536
 636 0060 09D0     		beq	.L57
 637 0062 1A68     		ldr	r2, [r3]
 638 0064 42F00102 		orr	r2, r2, #1
 639 0068 1A60     		str	r2, [r3]
 640 006a 0020     		movs	r0, #0
 641 006c 7047     		bx	lr
 642              	.L55:
 643 006e 0120     		movs	r0, #1
 644 0070 7047     		bx	lr
 645              	.L56:
 646 0072 0020     		movs	r0, #0
 647 0074 7047     		bx	lr
 648              	.L57:
 649 0076 0020     		movs	r0, #0
 650 0078 7047     		bx	lr
 651              	.L59:
 652 007a 00BF     		.align	2
 653              	.L58:
 654 007c 002C0140 		.word	1073818624
 655 0080 07000100 		.word	65543
 657              		.section	.text.HAL_TIM_Base_Stop,"ax",%progbits
ARM GAS  C:\Temp\ccqmCX5l.s 			page 12


 658              		.align	1
 659              		.global	HAL_TIM_Base_Stop
 660              		.syntax unified
 661              		.thumb
 662              		.thumb_func
 664              	HAL_TIM_Base_Stop:
 665              		@ args = 0, pretend = 0, frame = 0
 666              		@ frame_needed = 0, uses_anonymous_args = 0
 667              		@ link register save eliminated.
 668 0000 0368     		ldr	r3, [r0]
 669 0002 196A     		ldr	r1, [r3, #32]
 670 0004 41F21112 		movw	r2, #4369
 671 0008 1142     		tst	r1, r2
 672 000a 08D1     		bne	.L61
 673 000c 196A     		ldr	r1, [r3, #32]
 674 000e 40F24442 		movw	r2, #1092
 675 0012 1142     		tst	r1, r2
 676 0014 03D1     		bne	.L61
 677 0016 1A68     		ldr	r2, [r3]
 678 0018 22F00102 		bic	r2, r2, #1
 679 001c 1A60     		str	r2, [r3]
 680              	.L61:
 681 001e 0123     		movs	r3, #1
 682 0020 80F83D30 		strb	r3, [r0, #61]
 683 0024 0020     		movs	r0, #0
 684 0026 7047     		bx	lr
 686              		.section	.text.HAL_TIM_Base_Start_IT,"ax",%progbits
 687              		.align	1
 688              		.global	HAL_TIM_Base_Start_IT
 689              		.syntax unified
 690              		.thumb
 691              		.thumb_func
 693              	HAL_TIM_Base_Start_IT:
 694              		@ args = 0, pretend = 0, frame = 0
 695              		@ frame_needed = 0, uses_anonymous_args = 0
 696              		@ link register save eliminated.
 697 0000 90F83D30 		ldrb	r3, [r0, #61]	@ zero_extendqisi2
 698 0004 DBB2     		uxtb	r3, r3
 699 0006 012B     		cmp	r3, #1
 700 0008 36D1     		bne	.L66
 701 000a 0223     		movs	r3, #2
 702 000c 80F83D30 		strb	r3, [r0, #61]
 703 0010 0268     		ldr	r2, [r0]
 704 0012 D368     		ldr	r3, [r2, #12]
 705 0014 43F00103 		orr	r3, r3, #1
 706 0018 D360     		str	r3, [r2, #12]
 707 001a 0368     		ldr	r3, [r0]
 708 001c 194A     		ldr	r2, .L69
 709 001e 9342     		cmp	r3, r2
 710 0020 1CD0     		beq	.L64
 711 0022 B3F1804F 		cmp	r3, #1073741824
 712 0026 19D0     		beq	.L64
 713 0028 A2F59432 		sub	r2, r2, #75776
 714 002c 9342     		cmp	r3, r2
 715 002e 15D0     		beq	.L64
 716 0030 02F58062 		add	r2, r2, #1024
 717 0034 9342     		cmp	r3, r2
ARM GAS  C:\Temp\ccqmCX5l.s 			page 13


 718 0036 11D0     		beq	.L64
 719 0038 02F59632 		add	r2, r2, #76800
 720 003c 9342     		cmp	r3, r2
 721 003e 0DD0     		beq	.L64
 722 0040 02F54062 		add	r2, r2, #3072
 723 0044 9342     		cmp	r3, r2
 724 0046 09D0     		beq	.L64
 725 0048 02F58052 		add	r2, r2, #4096
 726 004c 9342     		cmp	r3, r2
 727 004e 05D0     		beq	.L64
 728 0050 1A68     		ldr	r2, [r3]
 729 0052 42F00102 		orr	r2, r2, #1
 730 0056 1A60     		str	r2, [r3]
 731 0058 0020     		movs	r0, #0
 732 005a 7047     		bx	lr
 733              	.L64:
 734 005c 9968     		ldr	r1, [r3, #8]
 735 005e 0A4A     		ldr	r2, .L69+4
 736 0060 0A40     		ands	r2, r2, r1
 737 0062 062A     		cmp	r2, #6
 738 0064 0AD0     		beq	.L67
 739 0066 B2F5803F 		cmp	r2, #65536
 740 006a 09D0     		beq	.L68
 741 006c 1A68     		ldr	r2, [r3]
 742 006e 42F00102 		orr	r2, r2, #1
 743 0072 1A60     		str	r2, [r3]
 744 0074 0020     		movs	r0, #0
 745 0076 7047     		bx	lr
 746              	.L66:
 747 0078 0120     		movs	r0, #1
 748 007a 7047     		bx	lr
 749              	.L67:
 750 007c 0020     		movs	r0, #0
 751 007e 7047     		bx	lr
 752              	.L68:
 753 0080 0020     		movs	r0, #0
 754 0082 7047     		bx	lr
 755              	.L70:
 756              		.align	2
 757              	.L69:
 758 0084 002C0140 		.word	1073818624
 759 0088 07000100 		.word	65543
 761              		.section	.text.HAL_TIM_Base_Stop_IT,"ax",%progbits
 762              		.align	1
 763              		.global	HAL_TIM_Base_Stop_IT
 764              		.syntax unified
 765              		.thumb
 766              		.thumb_func
 768              	HAL_TIM_Base_Stop_IT:
 769              		@ args = 0, pretend = 0, frame = 0
 770              		@ frame_needed = 0, uses_anonymous_args = 0
 771              		@ link register save eliminated.
 772 0000 0268     		ldr	r2, [r0]
 773 0002 D368     		ldr	r3, [r2, #12]
 774 0004 23F00103 		bic	r3, r3, #1
 775 0008 D360     		str	r3, [r2, #12]
 776 000a 0368     		ldr	r3, [r0]
ARM GAS  C:\Temp\ccqmCX5l.s 			page 14


 777 000c 196A     		ldr	r1, [r3, #32]
 778 000e 41F21112 		movw	r2, #4369
 779 0012 1142     		tst	r1, r2
 780 0014 08D1     		bne	.L72
 781 0016 196A     		ldr	r1, [r3, #32]
 782 0018 40F24442 		movw	r2, #1092
 783 001c 1142     		tst	r1, r2
 784 001e 03D1     		bne	.L72
 785 0020 1A68     		ldr	r2, [r3]
 786 0022 22F00102 		bic	r2, r2, #1
 787 0026 1A60     		str	r2, [r3]
 788              	.L72:
 789 0028 0123     		movs	r3, #1
 790 002a 80F83D30 		strb	r3, [r0, #61]
 791 002e 0020     		movs	r0, #0
 792 0030 7047     		bx	lr
 794              		.section	.text.HAL_TIM_Base_Start_DMA,"ax",%progbits
 795              		.align	1
 796              		.global	HAL_TIM_Base_Start_DMA
 797              		.syntax unified
 798              		.thumb
 799              		.thumb_func
 801              	HAL_TIM_Base_Start_DMA:
 802              		@ args = 0, pretend = 0, frame = 0
 803              		@ frame_needed = 0, uses_anonymous_args = 0
 804 0000 38B5     		push	{r3, r4, r5, lr}
 805 0002 90F83D40 		ldrb	r4, [r0, #61]	@ zero_extendqisi2
 806 0006 E4B2     		uxtb	r4, r4
 807 0008 022C     		cmp	r4, #2
 808 000a 53D0     		beq	.L74
 809 000c 0546     		mov	r5, r0
 810 000e 90F83D40 		ldrb	r4, [r0, #61]	@ zero_extendqisi2
 811 0012 E4B2     		uxtb	r4, r4
 812 0014 012C     		cmp	r4, #1
 813 0016 4CD1     		bne	.L77
 814 0018 0029     		cmp	r1, #0
 815 001a 4BD0     		beq	.L74
 816 001c 002A     		cmp	r2, #0
 817 001e 49D0     		beq	.L74
 818 0020 0223     		movs	r3, #2
 819 0022 80F83D30 		strb	r3, [r0, #61]
 820 0026 036A     		ldr	r3, [r0, #32]
 821 0028 2548     		ldr	r0, .L81
 822 002a 9862     		str	r0, [r3, #40]
 823 002c 2B6A     		ldr	r3, [r5, #32]
 824 002e 2548     		ldr	r0, .L81+4
 825 0030 D862     		str	r0, [r3, #44]
 826 0032 2B6A     		ldr	r3, [r5, #32]
 827 0034 2448     		ldr	r0, .L81+8
 828 0036 1863     		str	r0, [r3, #48]
 829 0038 2868     		ldr	r0, [r5]
 830 003a 1346     		mov	r3, r2
 831 003c 00F12C02 		add	r2, r0, #44
 832 0040 286A     		ldr	r0, [r5, #32]
 833 0042 FFF7FEFF 		bl	HAL_DMA_Start_IT
 834 0046 0146     		mov	r1, r0
 835 0048 A0BB     		cbnz	r0, .L74
ARM GAS  C:\Temp\ccqmCX5l.s 			page 15


 836 004a 2A68     		ldr	r2, [r5]
 837 004c D368     		ldr	r3, [r2, #12]
 838 004e 43F48073 		orr	r3, r3, #256
 839 0052 D360     		str	r3, [r2, #12]
 840 0054 2B68     		ldr	r3, [r5]
 841 0056 1D4A     		ldr	r2, .L81+12
 842 0058 9342     		cmp	r3, r2
 843 005a 1CD0     		beq	.L75
 844 005c B3F1804F 		cmp	r3, #1073741824
 845 0060 19D0     		beq	.L75
 846 0062 A2F59432 		sub	r2, r2, #75776
 847 0066 9342     		cmp	r3, r2
 848 0068 15D0     		beq	.L75
 849 006a 02F58062 		add	r2, r2, #1024
 850 006e 9342     		cmp	r3, r2
 851 0070 11D0     		beq	.L75
 852 0072 02F59632 		add	r2, r2, #76800
 853 0076 9342     		cmp	r3, r2
 854 0078 0DD0     		beq	.L75
 855 007a 02F54062 		add	r2, r2, #3072
 856 007e 9342     		cmp	r3, r2
 857 0080 09D0     		beq	.L75
 858 0082 02F58052 		add	r2, r2, #4096
 859 0086 9342     		cmp	r3, r2
 860 0088 05D0     		beq	.L75
 861 008a 1A68     		ldr	r2, [r3]
 862 008c 42F00102 		orr	r2, r2, #1
 863 0090 1A60     		str	r2, [r3]
 864 0092 0446     		mov	r4, r0
 865 0094 0EE0     		b	.L74
 866              	.L75:
 867 0096 9868     		ldr	r0, [r3, #8]
 868 0098 0D4A     		ldr	r2, .L81+16
 869 009a 0240     		ands	r2, r2, r0
 870 009c 062A     		cmp	r2, #6
 871 009e 0BD0     		beq	.L78
 872 00a0 B2F5803F 		cmp	r2, #65536
 873 00a4 0AD0     		beq	.L79
 874 00a6 1A68     		ldr	r2, [r3]
 875 00a8 42F00102 		orr	r2, r2, #1
 876 00ac 1A60     		str	r2, [r3]
 877 00ae 0C46     		mov	r4, r1
 878 00b0 00E0     		b	.L74
 879              	.L77:
 880 00b2 0124     		movs	r4, #1
 881              	.L74:
 882 00b4 2046     		mov	r0, r4
 883 00b6 38BD     		pop	{r3, r4, r5, pc}
 884              	.L78:
 885 00b8 0C46     		mov	r4, r1
 886 00ba FBE7     		b	.L74
 887              	.L79:
 888 00bc 0C46     		mov	r4, r1
 889 00be F9E7     		b	.L74
 890              	.L82:
 891              		.align	2
 892              	.L81:
ARM GAS  C:\Temp\ccqmCX5l.s 			page 16


 893 00c0 00000000 		.word	TIM_DMAPeriodElapsedCplt
 894 00c4 00000000 		.word	TIM_DMAPeriodElapsedHalfCplt
 895 00c8 00000000 		.word	TIM_DMAError
 896 00cc 002C0140 		.word	1073818624
 897 00d0 07000100 		.word	65543
 899              		.section	.text.HAL_TIM_Base_Stop_DMA,"ax",%progbits
 900              		.align	1
 901              		.global	HAL_TIM_Base_Stop_DMA
 902              		.syntax unified
 903              		.thumb
 904              		.thumb_func
 906              	HAL_TIM_Base_Stop_DMA:
 907              		@ args = 0, pretend = 0, frame = 0
 908              		@ frame_needed = 0, uses_anonymous_args = 0
 909 0000 10B5     		push	{r4, lr}
 910 0002 0446     		mov	r4, r0
 911 0004 0268     		ldr	r2, [r0]
 912 0006 D368     		ldr	r3, [r2, #12]
 913 0008 23F48073 		bic	r3, r3, #256
 914 000c D360     		str	r3, [r2, #12]
 915 000e 006A     		ldr	r0, [r0, #32]
 916 0010 FFF7FEFF 		bl	HAL_DMA_Abort_IT
 917 0014 2368     		ldr	r3, [r4]
 918 0016 196A     		ldr	r1, [r3, #32]
 919 0018 41F21112 		movw	r2, #4369
 920 001c 1142     		tst	r1, r2
 921 001e 08D1     		bne	.L84
 922 0020 196A     		ldr	r1, [r3, #32]
 923 0022 40F24442 		movw	r2, #1092
 924 0026 1142     		tst	r1, r2
 925 0028 03D1     		bne	.L84
 926 002a 1A68     		ldr	r2, [r3]
 927 002c 22F00102 		bic	r2, r2, #1
 928 0030 1A60     		str	r2, [r3]
 929              	.L84:
 930 0032 0123     		movs	r3, #1
 931 0034 84F83D30 		strb	r3, [r4, #61]
 932 0038 0020     		movs	r0, #0
 933 003a 10BD     		pop	{r4, pc}
 935              		.section	.text.HAL_TIM_OC_MspInit,"ax",%progbits
 936              		.align	1
 937              		.weak	HAL_TIM_OC_MspInit
 938              		.syntax unified
 939              		.thumb
 940              		.thumb_func
 942              	HAL_TIM_OC_MspInit:
 943              		@ args = 0, pretend = 0, frame = 0
 944              		@ frame_needed = 0, uses_anonymous_args = 0
 945              		@ link register save eliminated.
 946 0000 7047     		bx	lr
 948              		.section	.text.HAL_TIM_OC_MspDeInit,"ax",%progbits
 949              		.align	1
 950              		.weak	HAL_TIM_OC_MspDeInit
 951              		.syntax unified
 952              		.thumb
 953              		.thumb_func
 955              	HAL_TIM_OC_MspDeInit:
ARM GAS  C:\Temp\ccqmCX5l.s 			page 17


 956              		@ args = 0, pretend = 0, frame = 0
 957              		@ frame_needed = 0, uses_anonymous_args = 0
 958              		@ link register save eliminated.
 959 0000 7047     		bx	lr
 961              		.section	.text.HAL_TIM_OC_DeInit,"ax",%progbits
 962              		.align	1
 963              		.global	HAL_TIM_OC_DeInit
 964              		.syntax unified
 965              		.thumb
 966              		.thumb_func
 968              	HAL_TIM_OC_DeInit:
 969              		@ args = 0, pretend = 0, frame = 0
 970              		@ frame_needed = 0, uses_anonymous_args = 0
 971 0000 10B5     		push	{r4, lr}
 972 0002 0446     		mov	r4, r0
 973 0004 0223     		movs	r3, #2
 974 0006 80F83D30 		strb	r3, [r0, #61]
 975 000a 0368     		ldr	r3, [r0]
 976 000c 196A     		ldr	r1, [r3, #32]
 977 000e 41F21112 		movw	r2, #4369
 978 0012 1142     		tst	r1, r2
 979 0014 08D1     		bne	.L89
 980 0016 196A     		ldr	r1, [r3, #32]
 981 0018 40F24442 		movw	r2, #1092
 982 001c 1142     		tst	r1, r2
 983 001e 03D1     		bne	.L89
 984 0020 1A68     		ldr	r2, [r3]
 985 0022 22F00102 		bic	r2, r2, #1
 986 0026 1A60     		str	r2, [r3]
 987              	.L89:
 988 0028 2046     		mov	r0, r4
 989 002a FFF7FEFF 		bl	HAL_TIM_OC_MspDeInit
 990 002e 0020     		movs	r0, #0
 991 0030 84F84800 		strb	r0, [r4, #72]
 992 0034 84F83E00 		strb	r0, [r4, #62]
 993 0038 84F83F00 		strb	r0, [r4, #63]
 994 003c 84F84000 		strb	r0, [r4, #64]
 995 0040 84F84100 		strb	r0, [r4, #65]
 996 0044 84F84200 		strb	r0, [r4, #66]
 997 0048 84F84300 		strb	r0, [r4, #67]
 998 004c 84F84400 		strb	r0, [r4, #68]
 999 0050 84F84500 		strb	r0, [r4, #69]
 1000 0054 84F84600 		strb	r0, [r4, #70]
 1001 0058 84F84700 		strb	r0, [r4, #71]
 1002 005c 84F83D00 		strb	r0, [r4, #61]
 1003 0060 84F83C00 		strb	r0, [r4, #60]
 1004 0064 10BD     		pop	{r4, pc}
 1006              		.section	.text.HAL_TIM_PWM_MspInit,"ax",%progbits
 1007              		.align	1
 1008              		.weak	HAL_TIM_PWM_MspInit
 1009              		.syntax unified
 1010              		.thumb
 1011              		.thumb_func
 1013              	HAL_TIM_PWM_MspInit:
 1014              		@ args = 0, pretend = 0, frame = 0
 1015              		@ frame_needed = 0, uses_anonymous_args = 0
 1016              		@ link register save eliminated.
ARM GAS  C:\Temp\ccqmCX5l.s 			page 18


 1017 0000 7047     		bx	lr
 1019              		.section	.text.HAL_TIM_PWM_MspDeInit,"ax",%progbits
 1020              		.align	1
 1021              		.weak	HAL_TIM_PWM_MspDeInit
 1022              		.syntax unified
 1023              		.thumb
 1024              		.thumb_func
 1026              	HAL_TIM_PWM_MspDeInit:
 1027              		@ args = 0, pretend = 0, frame = 0
 1028              		@ frame_needed = 0, uses_anonymous_args = 0
 1029              		@ link register save eliminated.
 1030 0000 7047     		bx	lr
 1032              		.section	.text.HAL_TIM_PWM_DeInit,"ax",%progbits
 1033              		.align	1
 1034              		.global	HAL_TIM_PWM_DeInit
 1035              		.syntax unified
 1036              		.thumb
 1037              		.thumb_func
 1039              	HAL_TIM_PWM_DeInit:
 1040              		@ args = 0, pretend = 0, frame = 0
 1041              		@ frame_needed = 0, uses_anonymous_args = 0
 1042 0000 10B5     		push	{r4, lr}
 1043 0002 0446     		mov	r4, r0
 1044 0004 0223     		movs	r3, #2
 1045 0006 80F83D30 		strb	r3, [r0, #61]
 1046 000a 0368     		ldr	r3, [r0]
 1047 000c 196A     		ldr	r1, [r3, #32]
 1048 000e 41F21112 		movw	r2, #4369
 1049 0012 1142     		tst	r1, r2
 1050 0014 08D1     		bne	.L94
 1051 0016 196A     		ldr	r1, [r3, #32]
 1052 0018 40F24442 		movw	r2, #1092
 1053 001c 1142     		tst	r1, r2
 1054 001e 03D1     		bne	.L94
 1055 0020 1A68     		ldr	r2, [r3]
 1056 0022 22F00102 		bic	r2, r2, #1
 1057 0026 1A60     		str	r2, [r3]
 1058              	.L94:
 1059 0028 2046     		mov	r0, r4
 1060 002a FFF7FEFF 		bl	HAL_TIM_PWM_MspDeInit
 1061 002e 0020     		movs	r0, #0
 1062 0030 84F84800 		strb	r0, [r4, #72]
 1063 0034 84F83E00 		strb	r0, [r4, #62]
 1064 0038 84F83F00 		strb	r0, [r4, #63]
 1065 003c 84F84000 		strb	r0, [r4, #64]
 1066 0040 84F84100 		strb	r0, [r4, #65]
 1067 0044 84F84200 		strb	r0, [r4, #66]
 1068 0048 84F84300 		strb	r0, [r4, #67]
 1069 004c 84F84400 		strb	r0, [r4, #68]
 1070 0050 84F84500 		strb	r0, [r4, #69]
 1071 0054 84F84600 		strb	r0, [r4, #70]
 1072 0058 84F84700 		strb	r0, [r4, #71]
 1073 005c 84F83D00 		strb	r0, [r4, #61]
 1074 0060 84F83C00 		strb	r0, [r4, #60]
 1075 0064 10BD     		pop	{r4, pc}
 1077              		.section	.text.HAL_TIM_IC_MspInit,"ax",%progbits
 1078              		.align	1
ARM GAS  C:\Temp\ccqmCX5l.s 			page 19


 1079              		.weak	HAL_TIM_IC_MspInit
 1080              		.syntax unified
 1081              		.thumb
 1082              		.thumb_func
 1084              	HAL_TIM_IC_MspInit:
 1085              		@ args = 0, pretend = 0, frame = 0
 1086              		@ frame_needed = 0, uses_anonymous_args = 0
 1087              		@ link register save eliminated.
 1088 0000 7047     		bx	lr
 1090              		.section	.text.HAL_TIM_IC_MspDeInit,"ax",%progbits
 1091              		.align	1
 1092              		.weak	HAL_TIM_IC_MspDeInit
 1093              		.syntax unified
 1094              		.thumb
 1095              		.thumb_func
 1097              	HAL_TIM_IC_MspDeInit:
 1098              		@ args = 0, pretend = 0, frame = 0
 1099              		@ frame_needed = 0, uses_anonymous_args = 0
 1100              		@ link register save eliminated.
 1101 0000 7047     		bx	lr
 1103              		.section	.text.HAL_TIM_IC_DeInit,"ax",%progbits
 1104              		.align	1
 1105              		.global	HAL_TIM_IC_DeInit
 1106              		.syntax unified
 1107              		.thumb
 1108              		.thumb_func
 1110              	HAL_TIM_IC_DeInit:
 1111              		@ args = 0, pretend = 0, frame = 0
 1112              		@ frame_needed = 0, uses_anonymous_args = 0
 1113 0000 10B5     		push	{r4, lr}
 1114 0002 0446     		mov	r4, r0
 1115 0004 0223     		movs	r3, #2
 1116 0006 80F83D30 		strb	r3, [r0, #61]
 1117 000a 0368     		ldr	r3, [r0]
 1118 000c 196A     		ldr	r1, [r3, #32]
 1119 000e 41F21112 		movw	r2, #4369
 1120 0012 1142     		tst	r1, r2
 1121 0014 08D1     		bne	.L99
 1122 0016 196A     		ldr	r1, [r3, #32]
 1123 0018 40F24442 		movw	r2, #1092
 1124 001c 1142     		tst	r1, r2
 1125 001e 03D1     		bne	.L99
 1126 0020 1A68     		ldr	r2, [r3]
 1127 0022 22F00102 		bic	r2, r2, #1
 1128 0026 1A60     		str	r2, [r3]
 1129              	.L99:
 1130 0028 2046     		mov	r0, r4
 1131 002a FFF7FEFF 		bl	HAL_TIM_IC_MspDeInit
 1132 002e 0020     		movs	r0, #0
 1133 0030 84F84800 		strb	r0, [r4, #72]
 1134 0034 84F83E00 		strb	r0, [r4, #62]
 1135 0038 84F83F00 		strb	r0, [r4, #63]
 1136 003c 84F84000 		strb	r0, [r4, #64]
 1137 0040 84F84100 		strb	r0, [r4, #65]
 1138 0044 84F84200 		strb	r0, [r4, #66]
 1139 0048 84F84300 		strb	r0, [r4, #67]
 1140 004c 84F84400 		strb	r0, [r4, #68]
ARM GAS  C:\Temp\ccqmCX5l.s 			page 20


 1141 0050 84F84500 		strb	r0, [r4, #69]
 1142 0054 84F84600 		strb	r0, [r4, #70]
 1143 0058 84F84700 		strb	r0, [r4, #71]
 1144 005c 84F83D00 		strb	r0, [r4, #61]
 1145 0060 84F83C00 		strb	r0, [r4, #60]
 1146 0064 10BD     		pop	{r4, pc}
 1148              		.section	.text.HAL_TIM_OnePulse_MspInit,"ax",%progbits
 1149              		.align	1
 1150              		.weak	HAL_TIM_OnePulse_MspInit
 1151              		.syntax unified
 1152              		.thumb
 1153              		.thumb_func
 1155              	HAL_TIM_OnePulse_MspInit:
 1156              		@ args = 0, pretend = 0, frame = 0
 1157              		@ frame_needed = 0, uses_anonymous_args = 0
 1158              		@ link register save eliminated.
 1159 0000 7047     		bx	lr
 1161              		.section	.text.HAL_TIM_OnePulse_MspDeInit,"ax",%progbits
 1162              		.align	1
 1163              		.weak	HAL_TIM_OnePulse_MspDeInit
 1164              		.syntax unified
 1165              		.thumb
 1166              		.thumb_func
 1168              	HAL_TIM_OnePulse_MspDeInit:
 1169              		@ args = 0, pretend = 0, frame = 0
 1170              		@ frame_needed = 0, uses_anonymous_args = 0
 1171              		@ link register save eliminated.
 1172 0000 7047     		bx	lr
 1174              		.section	.text.HAL_TIM_OnePulse_DeInit,"ax",%progbits
 1175              		.align	1
 1176              		.global	HAL_TIM_OnePulse_DeInit
 1177              		.syntax unified
 1178              		.thumb
 1179              		.thumb_func
 1181              	HAL_TIM_OnePulse_DeInit:
 1182              		@ args = 0, pretend = 0, frame = 0
 1183              		@ frame_needed = 0, uses_anonymous_args = 0
 1184 0000 10B5     		push	{r4, lr}
 1185 0002 0446     		mov	r4, r0
 1186 0004 0223     		movs	r3, #2
 1187 0006 80F83D30 		strb	r3, [r0, #61]
 1188 000a 0368     		ldr	r3, [r0]
 1189 000c 196A     		ldr	r1, [r3, #32]
 1190 000e 41F21112 		movw	r2, #4369
 1191 0012 1142     		tst	r1, r2
 1192 0014 08D1     		bne	.L104
 1193 0016 196A     		ldr	r1, [r3, #32]
 1194 0018 40F24442 		movw	r2, #1092
 1195 001c 1142     		tst	r1, r2
 1196 001e 03D1     		bne	.L104
 1197 0020 1A68     		ldr	r2, [r3]
 1198 0022 22F00102 		bic	r2, r2, #1
 1199 0026 1A60     		str	r2, [r3]
 1200              	.L104:
 1201 0028 2046     		mov	r0, r4
 1202 002a FFF7FEFF 		bl	HAL_TIM_OnePulse_MspDeInit
 1203 002e 0020     		movs	r0, #0
ARM GAS  C:\Temp\ccqmCX5l.s 			page 21


 1204 0030 84F84800 		strb	r0, [r4, #72]
 1205 0034 84F83E00 		strb	r0, [r4, #62]
 1206 0038 84F83F00 		strb	r0, [r4, #63]
 1207 003c 84F84400 		strb	r0, [r4, #68]
 1208 0040 84F84500 		strb	r0, [r4, #69]
 1209 0044 84F83D00 		strb	r0, [r4, #61]
 1210 0048 84F83C00 		strb	r0, [r4, #60]
 1211 004c 10BD     		pop	{r4, pc}
 1213              		.section	.text.HAL_TIM_Encoder_MspInit,"ax",%progbits
 1214              		.align	1
 1215              		.weak	HAL_TIM_Encoder_MspInit
 1216              		.syntax unified
 1217              		.thumb
 1218              		.thumb_func
 1220              	HAL_TIM_Encoder_MspInit:
 1221              		@ args = 0, pretend = 0, frame = 0
 1222              		@ frame_needed = 0, uses_anonymous_args = 0
 1223              		@ link register save eliminated.
 1224 0000 7047     		bx	lr
 1226              		.section	.text.HAL_TIM_Encoder_MspDeInit,"ax",%progbits
 1227              		.align	1
 1228              		.weak	HAL_TIM_Encoder_MspDeInit
 1229              		.syntax unified
 1230              		.thumb
 1231              		.thumb_func
 1233              	HAL_TIM_Encoder_MspDeInit:
 1234              		@ args = 0, pretend = 0, frame = 0
 1235              		@ frame_needed = 0, uses_anonymous_args = 0
 1236              		@ link register save eliminated.
 1237 0000 7047     		bx	lr
 1239              		.section	.text.HAL_TIM_Encoder_DeInit,"ax",%progbits
 1240              		.align	1
 1241              		.global	HAL_TIM_Encoder_DeInit
 1242              		.syntax unified
 1243              		.thumb
 1244              		.thumb_func
 1246              	HAL_TIM_Encoder_DeInit:
 1247              		@ args = 0, pretend = 0, frame = 0
 1248              		@ frame_needed = 0, uses_anonymous_args = 0
 1249 0000 10B5     		push	{r4, lr}
 1250 0002 0446     		mov	r4, r0
 1251 0004 0223     		movs	r3, #2
 1252 0006 80F83D30 		strb	r3, [r0, #61]
 1253 000a 0368     		ldr	r3, [r0]
 1254 000c 196A     		ldr	r1, [r3, #32]
 1255 000e 41F21112 		movw	r2, #4369
 1256 0012 1142     		tst	r1, r2
 1257 0014 08D1     		bne	.L109
 1258 0016 196A     		ldr	r1, [r3, #32]
 1259 0018 40F24442 		movw	r2, #1092
 1260 001c 1142     		tst	r1, r2
 1261 001e 03D1     		bne	.L109
 1262 0020 1A68     		ldr	r2, [r3]
 1263 0022 22F00102 		bic	r2, r2, #1
 1264 0026 1A60     		str	r2, [r3]
 1265              	.L109:
 1266 0028 2046     		mov	r0, r4
ARM GAS  C:\Temp\ccqmCX5l.s 			page 22


 1267 002a FFF7FEFF 		bl	HAL_TIM_Encoder_MspDeInit
 1268 002e 0020     		movs	r0, #0
 1269 0030 84F84800 		strb	r0, [r4, #72]
 1270 0034 84F83E00 		strb	r0, [r4, #62]
 1271 0038 84F83F00 		strb	r0, [r4, #63]
 1272 003c 84F84400 		strb	r0, [r4, #68]
 1273 0040 84F84500 		strb	r0, [r4, #69]
 1274 0044 84F83D00 		strb	r0, [r4, #61]
 1275 0048 84F83C00 		strb	r0, [r4, #60]
 1276 004c 10BD     		pop	{r4, pc}
 1278              		.section	.text.HAL_TIM_DMABurst_MultiWriteStart,"ax",%progbits
 1279              		.align	1
 1280              		.global	HAL_TIM_DMABurst_MultiWriteStart
 1281              		.syntax unified
 1282              		.thumb
 1283              		.thumb_func
 1285              	HAL_TIM_DMABurst_MultiWriteStart:
 1286              		@ args = 8, pretend = 0, frame = 0
 1287              		@ frame_needed = 0, uses_anonymous_args = 0
 1288 0000 70B5     		push	{r4, r5, r6, lr}
 1289 0002 0546     		mov	r5, r0
 1290 0004 90F84800 		ldrb	r0, [r0, #72]	@ zero_extendqisi2
 1291 0008 C0B2     		uxtb	r0, r0
 1292 000a 0228     		cmp	r0, #2
 1293 000c 4AD0     		beq	.L112
 1294 000e 0E46     		mov	r6, r1
 1295 0010 1446     		mov	r4, r2
 1296 0012 1946     		mov	r1, r3
 1297 0014 95F84800 		ldrb	r0, [r5, #72]	@ zero_extendqisi2
 1298 0018 C0B2     		uxtb	r0, r0
 1299 001a 0128     		cmp	r0, #1
 1300 001c 1CD0     		beq	.L132
 1301              	.L113:
 1302 001e B4F5006F 		cmp	r4, #2048
 1303 0022 00F08680 		beq	.L115
 1304 0026 40D8     		bhi	.L116
 1305 0028 B4F5007F 		cmp	r4, #512
 1306 002c 6ED0     		beq	.L117
 1307 002e B4F5806F 		cmp	r4, #1024
 1308 0032 1AD1     		bne	.L133
 1309 0034 AB6A     		ldr	r3, [r5, #40]
 1310 0036 534A     		ldr	r2, .L139
 1311 0038 9A62     		str	r2, [r3, #40]
 1312 003a AB6A     		ldr	r3, [r5, #40]
 1313 003c 524A     		ldr	r2, .L139+4
 1314 003e DA62     		str	r2, [r3, #44]
 1315 0040 AB6A     		ldr	r3, [r5, #40]
 1316 0042 524A     		ldr	r2, .L139+8
 1317 0044 1A63     		str	r2, [r3, #48]
 1318 0046 2A68     		ldr	r2, [r5]
 1319 0048 059B     		ldr	r3, [sp, #20]
 1320 004a 4C32     		adds	r2, r2, #76
 1321 004c A86A     		ldr	r0, [r5, #40]
 1322 004e FFF7FEFF 		bl	HAL_DMA_Start_IT
 1323 0052 F0B1     		cbz	r0, .L123
 1324 0054 0120     		movs	r0, #1
 1325 0056 25E0     		b	.L112
ARM GAS  C:\Temp\ccqmCX5l.s 			page 23


 1326              	.L132:
 1327 0058 1BB1     		cbz	r3, .L134
 1328              	.L114:
 1329 005a 0223     		movs	r3, #2
 1330 005c 85F84830 		strb	r3, [r5, #72]
 1331 0060 DDE7     		b	.L113
 1332              	.L134:
 1333 0062 049B     		ldr	r3, [sp, #16]
 1334 0064 002B     		cmp	r3, #0
 1335 0066 F8D0     		beq	.L114
 1336 0068 1CE0     		b	.L112
 1337              	.L133:
 1338 006a B4F5807F 		cmp	r4, #256
 1339 006e 1AD1     		bne	.L135
 1340 0070 2B6A     		ldr	r3, [r5, #32]
 1341 0072 474A     		ldr	r2, .L139+12
 1342 0074 9A62     		str	r2, [r3, #40]
 1343 0076 2B6A     		ldr	r3, [r5, #32]
 1344 0078 464A     		ldr	r2, .L139+16
 1345 007a DA62     		str	r2, [r3, #44]
 1346 007c 2B6A     		ldr	r3, [r5, #32]
 1347 007e 434A     		ldr	r2, .L139+8
 1348 0080 1A63     		str	r2, [r3, #48]
 1349 0082 2A68     		ldr	r2, [r5]
 1350 0084 059B     		ldr	r3, [sp, #20]
 1351 0086 4C32     		adds	r2, r2, #76
 1352 0088 286A     		ldr	r0, [r5, #32]
 1353 008a FFF7FEFF 		bl	HAL_DMA_Start_IT
 1354 008e 0028     		cmp	r0, #0
 1355 0090 75D1     		bne	.L136
 1356              	.L123:
 1357 0092 2B68     		ldr	r3, [r5]
 1358 0094 049A     		ldr	r2, [sp, #16]
 1359 0096 1643     		orrs	r6, r6, r2
 1360 0098 9E64     		str	r6, [r3, #72]
 1361 009a 2A68     		ldr	r2, [r5]
 1362 009c D368     		ldr	r3, [r2, #12]
 1363 009e 2343     		orrs	r3, r3, r4
 1364 00a0 D360     		str	r3, [r2, #12]
 1365 00a2 0020     		movs	r0, #0
 1366              	.L112:
 1367 00a4 70BD     		pop	{r4, r5, r6, pc}
 1368              	.L135:
 1369 00a6 0120     		movs	r0, #1
 1370 00a8 FCE7     		b	.L112
 1371              	.L116:
 1372 00aa B4F5005F 		cmp	r4, #8192
 1373 00ae 53D0     		beq	.L120
 1374 00b0 B4F5804F 		cmp	r4, #16384
 1375 00b4 12D1     		bne	.L137
 1376 00b6 AB6B     		ldr	r3, [r5, #56]
 1377 00b8 374A     		ldr	r2, .L139+20
 1378 00ba 9A62     		str	r2, [r3, #40]
 1379 00bc AB6B     		ldr	r3, [r5, #56]
 1380 00be 374A     		ldr	r2, .L139+24
 1381 00c0 DA62     		str	r2, [r3, #44]
 1382 00c2 AB6B     		ldr	r3, [r5, #56]
ARM GAS  C:\Temp\ccqmCX5l.s 			page 24


 1383 00c4 314A     		ldr	r2, .L139+8
 1384 00c6 1A63     		str	r2, [r3, #48]
 1385 00c8 2A68     		ldr	r2, [r5]
 1386 00ca 059B     		ldr	r3, [sp, #20]
 1387 00cc 4C32     		adds	r2, r2, #76
 1388 00ce A86B     		ldr	r0, [r5, #56]
 1389 00d0 FFF7FEFF 		bl	HAL_DMA_Start_IT
 1390 00d4 0028     		cmp	r0, #0
 1391 00d6 DCD0     		beq	.L123
 1392 00d8 0120     		movs	r0, #1
 1393 00da E3E7     		b	.L112
 1394              	.L137:
 1395 00dc B4F5805F 		cmp	r4, #4096
 1396 00e0 12D1     		bne	.L138
 1397 00e2 2B6B     		ldr	r3, [r5, #48]
 1398 00e4 274A     		ldr	r2, .L139
 1399 00e6 9A62     		str	r2, [r3, #40]
 1400 00e8 2B6B     		ldr	r3, [r5, #48]
 1401 00ea 274A     		ldr	r2, .L139+4
 1402 00ec DA62     		str	r2, [r3, #44]
 1403 00ee 2B6B     		ldr	r3, [r5, #48]
 1404 00f0 264A     		ldr	r2, .L139+8
 1405 00f2 1A63     		str	r2, [r3, #48]
 1406 00f4 2A68     		ldr	r2, [r5]
 1407 00f6 059B     		ldr	r3, [sp, #20]
 1408 00f8 4C32     		adds	r2, r2, #76
 1409 00fa 286B     		ldr	r0, [r5, #48]
 1410 00fc FFF7FEFF 		bl	HAL_DMA_Start_IT
 1411 0100 0028     		cmp	r0, #0
 1412 0102 C6D0     		beq	.L123
 1413 0104 0120     		movs	r0, #1
 1414 0106 CDE7     		b	.L112
 1415              	.L138:
 1416 0108 0120     		movs	r0, #1
 1417 010a CBE7     		b	.L112
 1418              	.L117:
 1419 010c 6B6A     		ldr	r3, [r5, #36]
 1420 010e 1D4A     		ldr	r2, .L139
 1421 0110 9A62     		str	r2, [r3, #40]
 1422 0112 6B6A     		ldr	r3, [r5, #36]
 1423 0114 1C4A     		ldr	r2, .L139+4
 1424 0116 DA62     		str	r2, [r3, #44]
 1425 0118 6B6A     		ldr	r3, [r5, #36]
 1426 011a 1C4A     		ldr	r2, .L139+8
 1427 011c 1A63     		str	r2, [r3, #48]
 1428 011e 2A68     		ldr	r2, [r5]
 1429 0120 059B     		ldr	r3, [sp, #20]
 1430 0122 4C32     		adds	r2, r2, #76
 1431 0124 686A     		ldr	r0, [r5, #36]
 1432 0126 FFF7FEFF 		bl	HAL_DMA_Start_IT
 1433 012a 0028     		cmp	r0, #0
 1434 012c B1D0     		beq	.L123
 1435 012e 0120     		movs	r0, #1
 1436 0130 B8E7     		b	.L112
 1437              	.L115:
 1438 0132 EB6A     		ldr	r3, [r5, #44]
 1439 0134 134A     		ldr	r2, .L139
ARM GAS  C:\Temp\ccqmCX5l.s 			page 25


 1440 0136 9A62     		str	r2, [r3, #40]
 1441 0138 EB6A     		ldr	r3, [r5, #44]
 1442 013a 134A     		ldr	r2, .L139+4
 1443 013c DA62     		str	r2, [r3, #44]
 1444 013e EB6A     		ldr	r3, [r5, #44]
 1445 0140 124A     		ldr	r2, .L139+8
 1446 0142 1A63     		str	r2, [r3, #48]
 1447 0144 2A68     		ldr	r2, [r5]
 1448 0146 059B     		ldr	r3, [sp, #20]
 1449 0148 4C32     		adds	r2, r2, #76
 1450 014a E86A     		ldr	r0, [r5, #44]
 1451 014c FFF7FEFF 		bl	HAL_DMA_Start_IT
 1452 0150 0028     		cmp	r0, #0
 1453 0152 9ED0     		beq	.L123
 1454 0154 0120     		movs	r0, #1
 1455 0156 A5E7     		b	.L112
 1456              	.L120:
 1457 0158 6B6B     		ldr	r3, [r5, #52]
 1458 015a 114A     		ldr	r2, .L139+28
 1459 015c 9A62     		str	r2, [r3, #40]
 1460 015e 6B6B     		ldr	r3, [r5, #52]
 1461 0160 104A     		ldr	r2, .L139+32
 1462 0162 DA62     		str	r2, [r3, #44]
 1463 0164 6B6B     		ldr	r3, [r5, #52]
 1464 0166 094A     		ldr	r2, .L139+8
 1465 0168 1A63     		str	r2, [r3, #48]
 1466 016a 2A68     		ldr	r2, [r5]
 1467 016c 059B     		ldr	r3, [sp, #20]
 1468 016e 4C32     		adds	r2, r2, #76
 1469 0170 686B     		ldr	r0, [r5, #52]
 1470 0172 FFF7FEFF 		bl	HAL_DMA_Start_IT
 1471 0176 0028     		cmp	r0, #0
 1472 0178 8BD0     		beq	.L123
 1473 017a 0120     		movs	r0, #1
 1474 017c 92E7     		b	.L112
 1475              	.L136:
 1476 017e 0120     		movs	r0, #1
 1477 0180 90E7     		b	.L112
 1478              	.L140:
 1479 0182 00BF     		.align	2
 1480              	.L139:
 1481 0184 00000000 		.word	TIM_DMADelayPulseCplt
 1482 0188 00000000 		.word	TIM_DMADelayPulseHalfCplt
 1483 018c 00000000 		.word	TIM_DMAError
 1484 0190 00000000 		.word	TIM_DMAPeriodElapsedCplt
 1485 0194 00000000 		.word	TIM_DMAPeriodElapsedHalfCplt
 1486 0198 00000000 		.word	TIM_DMATriggerCplt
 1487 019c 00000000 		.word	TIM_DMATriggerHalfCplt
 1488 01a0 00000000 		.word	TIMEx_DMACommutationCplt
 1489 01a4 00000000 		.word	TIMEx_DMACommutationHalfCplt
 1491              		.section	.text.HAL_TIM_DMABurst_WriteStart,"ax",%progbits
 1492              		.align	1
 1493              		.global	HAL_TIM_DMABurst_WriteStart
 1494              		.syntax unified
 1495              		.thumb
 1496              		.thumb_func
 1498              	HAL_TIM_DMABurst_WriteStart:
ARM GAS  C:\Temp\ccqmCX5l.s 			page 26


 1499              		@ args = 4, pretend = 0, frame = 0
 1500              		@ frame_needed = 0, uses_anonymous_args = 0
 1501 0000 30B5     		push	{r4, r5, lr}
 1502 0002 83B0     		sub	sp, sp, #12
 1503 0004 069D     		ldr	r5, [sp, #24]
 1504 0006 2C0A     		lsrs	r4, r5, #8
 1505 0008 0134     		adds	r4, r4, #1
 1506 000a 0194     		str	r4, [sp, #4]
 1507 000c 0095     		str	r5, [sp]
 1508 000e FFF7FEFF 		bl	HAL_TIM_DMABurst_MultiWriteStart
 1509 0012 03B0     		add	sp, sp, #12
 1510              		@ sp needed
 1511 0014 30BD     		pop	{r4, r5, pc}
 1513              		.section	.text.HAL_TIM_DMABurst_WriteStop,"ax",%progbits
 1514              		.align	1
 1515              		.global	HAL_TIM_DMABurst_WriteStop
 1516              		.syntax unified
 1517              		.thumb
 1518              		.thumb_func
 1520              	HAL_TIM_DMABurst_WriteStop:
 1521              		@ args = 0, pretend = 0, frame = 0
 1522              		@ frame_needed = 0, uses_anonymous_args = 0
 1523 0000 38B5     		push	{r3, r4, r5, lr}
 1524 0002 0546     		mov	r5, r0
 1525 0004 0C46     		mov	r4, r1
 1526 0006 B1F5006F 		cmp	r1, #2048
 1527 000a 33D0     		beq	.L144
 1528 000c 1BD8     		bhi	.L145
 1529 000e B1F5007F 		cmp	r1, #512
 1530 0012 2BD0     		beq	.L146
 1531 0014 B1F5806F 		cmp	r1, #1024
 1532 0018 03D1     		bne	.L155
 1533 001a 806A     		ldr	r0, [r0, #40]
 1534 001c FFF7FEFF 		bl	HAL_DMA_Abort_IT
 1535 0020 05E0     		b	.L153
 1536              	.L155:
 1537 0022 B1F5807F 		cmp	r1, #256
 1538 0026 0CD1     		bne	.L156
 1539 0028 006A     		ldr	r0, [r0, #32]
 1540 002a FFF7FEFF 		bl	HAL_DMA_Abort_IT
 1541              	.L153:
 1542 002e 2A68     		ldr	r2, [r5]
 1543 0030 D368     		ldr	r3, [r2, #12]
 1544 0032 23EA0403 		bic	r3, r3, r4
 1545 0036 D360     		str	r3, [r2, #12]
 1546 0038 0123     		movs	r3, #1
 1547 003a 85F84830 		strb	r3, [r5, #72]
 1548 003e 0020     		movs	r0, #0
 1549              	.L149:
 1550 0040 38BD     		pop	{r3, r4, r5, pc}
 1551              	.L156:
 1552 0042 0120     		movs	r0, #1
 1553 0044 FCE7     		b	.L149
 1554              	.L145:
 1555 0046 B1F5005F 		cmp	r1, #8192
 1556 004a 17D0     		beq	.L150
 1557 004c B1F5804F 		cmp	r1, #16384
ARM GAS  C:\Temp\ccqmCX5l.s 			page 27


 1558 0050 03D1     		bne	.L157
 1559 0052 806B     		ldr	r0, [r0, #56]
 1560 0054 FFF7FEFF 		bl	HAL_DMA_Abort_IT
 1561 0058 E9E7     		b	.L153
 1562              	.L157:
 1563 005a B1F5805F 		cmp	r1, #4096
 1564 005e 03D1     		bne	.L158
 1565 0060 006B     		ldr	r0, [r0, #48]
 1566 0062 FFF7FEFF 		bl	HAL_DMA_Abort_IT
 1567 0066 E2E7     		b	.L153
 1568              	.L158:
 1569 0068 0120     		movs	r0, #1
 1570 006a E9E7     		b	.L149
 1571              	.L146:
 1572 006c 406A     		ldr	r0, [r0, #36]
 1573 006e FFF7FEFF 		bl	HAL_DMA_Abort_IT
 1574 0072 DCE7     		b	.L153
 1575              	.L144:
 1576 0074 C06A     		ldr	r0, [r0, #44]
 1577 0076 FFF7FEFF 		bl	HAL_DMA_Abort_IT
 1578 007a D8E7     		b	.L153
 1579              	.L150:
 1580 007c 406B     		ldr	r0, [r0, #52]
 1581 007e FFF7FEFF 		bl	HAL_DMA_Abort_IT
 1582 0082 D4E7     		b	.L153
 1584              		.section	.text.HAL_TIM_DMABurst_MultiReadStart,"ax",%progbits
 1585              		.align	1
 1586              		.global	HAL_TIM_DMABurst_MultiReadStart
 1587              		.syntax unified
 1588              		.thumb
 1589              		.thumb_func
 1591              	HAL_TIM_DMABurst_MultiReadStart:
 1592              		@ args = 8, pretend = 0, frame = 0
 1593              		@ frame_needed = 0, uses_anonymous_args = 0
 1594 0000 70B5     		push	{r4, r5, r6, lr}
 1595 0002 0546     		mov	r5, r0
 1596 0004 90F84800 		ldrb	r0, [r0, #72]	@ zero_extendqisi2
 1597 0008 C0B2     		uxtb	r0, r0
 1598 000a 0228     		cmp	r0, #2
 1599 000c 4AD0     		beq	.L160
 1600 000e 0E46     		mov	r6, r1
 1601 0010 1446     		mov	r4, r2
 1602 0012 1A46     		mov	r2, r3
 1603 0014 95F84800 		ldrb	r0, [r5, #72]	@ zero_extendqisi2
 1604 0018 C0B2     		uxtb	r0, r0
 1605 001a 0128     		cmp	r0, #1
 1606 001c 1CD0     		beq	.L180
 1607              	.L161:
 1608 001e B4F5006F 		cmp	r4, #2048
 1609 0022 00F08680 		beq	.L163
 1610 0026 40D8     		bhi	.L164
 1611 0028 B4F5007F 		cmp	r4, #512
 1612 002c 6ED0     		beq	.L165
 1613 002e B4F5806F 		cmp	r4, #1024
 1614 0032 1AD1     		bne	.L181
 1615 0034 AB6A     		ldr	r3, [r5, #40]
 1616 0036 5349     		ldr	r1, .L187
ARM GAS  C:\Temp\ccqmCX5l.s 			page 28


 1617 0038 9962     		str	r1, [r3, #40]
 1618 003a AB6A     		ldr	r3, [r5, #40]
 1619 003c 5249     		ldr	r1, .L187+4
 1620 003e D962     		str	r1, [r3, #44]
 1621 0040 AB6A     		ldr	r3, [r5, #40]
 1622 0042 5249     		ldr	r1, .L187+8
 1623 0044 1963     		str	r1, [r3, #48]
 1624 0046 2968     		ldr	r1, [r5]
 1625 0048 059B     		ldr	r3, [sp, #20]
 1626 004a 4C31     		adds	r1, r1, #76
 1627 004c A86A     		ldr	r0, [r5, #40]
 1628 004e FFF7FEFF 		bl	HAL_DMA_Start_IT
 1629 0052 F0B1     		cbz	r0, .L171
 1630 0054 0120     		movs	r0, #1
 1631 0056 25E0     		b	.L160
 1632              	.L180:
 1633 0058 1BB1     		cbz	r3, .L182
 1634              	.L162:
 1635 005a 0223     		movs	r3, #2
 1636 005c 85F84830 		strb	r3, [r5, #72]
 1637 0060 DDE7     		b	.L161
 1638              	.L182:
 1639 0062 049B     		ldr	r3, [sp, #16]
 1640 0064 002B     		cmp	r3, #0
 1641 0066 F8D0     		beq	.L162
 1642 0068 1CE0     		b	.L160
 1643              	.L181:
 1644 006a B4F5807F 		cmp	r4, #256
 1645 006e 1AD1     		bne	.L183
 1646 0070 2B6A     		ldr	r3, [r5, #32]
 1647 0072 4749     		ldr	r1, .L187+12
 1648 0074 9962     		str	r1, [r3, #40]
 1649 0076 2B6A     		ldr	r3, [r5, #32]
 1650 0078 4649     		ldr	r1, .L187+16
 1651 007a D962     		str	r1, [r3, #44]
 1652 007c 2B6A     		ldr	r3, [r5, #32]
 1653 007e 4349     		ldr	r1, .L187+8
 1654 0080 1963     		str	r1, [r3, #48]
 1655 0082 2968     		ldr	r1, [r5]
 1656 0084 059B     		ldr	r3, [sp, #20]
 1657 0086 4C31     		adds	r1, r1, #76
 1658 0088 286A     		ldr	r0, [r5, #32]
 1659 008a FFF7FEFF 		bl	HAL_DMA_Start_IT
 1660 008e 0028     		cmp	r0, #0
 1661 0090 75D1     		bne	.L184
 1662              	.L171:
 1663 0092 2B68     		ldr	r3, [r5]
 1664 0094 049A     		ldr	r2, [sp, #16]
 1665 0096 1643     		orrs	r6, r6, r2
 1666 0098 9E64     		str	r6, [r3, #72]
 1667 009a 2A68     		ldr	r2, [r5]
 1668 009c D368     		ldr	r3, [r2, #12]
 1669 009e 2343     		orrs	r3, r3, r4
 1670 00a0 D360     		str	r3, [r2, #12]
 1671 00a2 0020     		movs	r0, #0
 1672              	.L160:
 1673 00a4 70BD     		pop	{r4, r5, r6, pc}
ARM GAS  C:\Temp\ccqmCX5l.s 			page 29


 1674              	.L183:
 1675 00a6 0120     		movs	r0, #1
 1676 00a8 FCE7     		b	.L160
 1677              	.L164:
 1678 00aa B4F5005F 		cmp	r4, #8192
 1679 00ae 53D0     		beq	.L168
 1680 00b0 B4F5804F 		cmp	r4, #16384
 1681 00b4 12D1     		bne	.L185
 1682 00b6 AB6B     		ldr	r3, [r5, #56]
 1683 00b8 3749     		ldr	r1, .L187+20
 1684 00ba 9962     		str	r1, [r3, #40]
 1685 00bc AB6B     		ldr	r3, [r5, #56]
 1686 00be 3749     		ldr	r1, .L187+24
 1687 00c0 D962     		str	r1, [r3, #44]
 1688 00c2 AB6B     		ldr	r3, [r5, #56]
 1689 00c4 3149     		ldr	r1, .L187+8
 1690 00c6 1963     		str	r1, [r3, #48]
 1691 00c8 2968     		ldr	r1, [r5]
 1692 00ca 059B     		ldr	r3, [sp, #20]
 1693 00cc 4C31     		adds	r1, r1, #76
 1694 00ce A86B     		ldr	r0, [r5, #56]
 1695 00d0 FFF7FEFF 		bl	HAL_DMA_Start_IT
 1696 00d4 0028     		cmp	r0, #0
 1697 00d6 DCD0     		beq	.L171
 1698 00d8 0120     		movs	r0, #1
 1699 00da E3E7     		b	.L160
 1700              	.L185:
 1701 00dc B4F5805F 		cmp	r4, #4096
 1702 00e0 12D1     		bne	.L186
 1703 00e2 2B6B     		ldr	r3, [r5, #48]
 1704 00e4 2749     		ldr	r1, .L187
 1705 00e6 9962     		str	r1, [r3, #40]
 1706 00e8 2B6B     		ldr	r3, [r5, #48]
 1707 00ea 2749     		ldr	r1, .L187+4
 1708 00ec D962     		str	r1, [r3, #44]
 1709 00ee 2B6B     		ldr	r3, [r5, #48]
 1710 00f0 2649     		ldr	r1, .L187+8
 1711 00f2 1963     		str	r1, [r3, #48]
 1712 00f4 2968     		ldr	r1, [r5]
 1713 00f6 059B     		ldr	r3, [sp, #20]
 1714 00f8 4C31     		adds	r1, r1, #76
 1715 00fa 286B     		ldr	r0, [r5, #48]
 1716 00fc FFF7FEFF 		bl	HAL_DMA_Start_IT
 1717 0100 0028     		cmp	r0, #0
 1718 0102 C6D0     		beq	.L171
 1719 0104 0120     		movs	r0, #1
 1720 0106 CDE7     		b	.L160
 1721              	.L186:
 1722 0108 0120     		movs	r0, #1
 1723 010a CBE7     		b	.L160
 1724              	.L165:
 1725 010c 6B6A     		ldr	r3, [r5, #36]
 1726 010e 1D49     		ldr	r1, .L187
 1727 0110 9962     		str	r1, [r3, #40]
 1728 0112 6B6A     		ldr	r3, [r5, #36]
 1729 0114 1C49     		ldr	r1, .L187+4
 1730 0116 D962     		str	r1, [r3, #44]
ARM GAS  C:\Temp\ccqmCX5l.s 			page 30


 1731 0118 6B6A     		ldr	r3, [r5, #36]
 1732 011a 1C49     		ldr	r1, .L187+8
 1733 011c 1963     		str	r1, [r3, #48]
 1734 011e 2968     		ldr	r1, [r5]
 1735 0120 059B     		ldr	r3, [sp, #20]
 1736 0122 4C31     		adds	r1, r1, #76
 1737 0124 686A     		ldr	r0, [r5, #36]
 1738 0126 FFF7FEFF 		bl	HAL_DMA_Start_IT
 1739 012a 0028     		cmp	r0, #0
 1740 012c B1D0     		beq	.L171
 1741 012e 0120     		movs	r0, #1
 1742 0130 B8E7     		b	.L160
 1743              	.L163:
 1744 0132 EB6A     		ldr	r3, [r5, #44]
 1745 0134 1349     		ldr	r1, .L187
 1746 0136 9962     		str	r1, [r3, #40]
 1747 0138 EB6A     		ldr	r3, [r5, #44]
 1748 013a 1349     		ldr	r1, .L187+4
 1749 013c D962     		str	r1, [r3, #44]
 1750 013e EB6A     		ldr	r3, [r5, #44]
 1751 0140 1249     		ldr	r1, .L187+8
 1752 0142 1963     		str	r1, [r3, #48]
 1753 0144 2968     		ldr	r1, [r5]
 1754 0146 059B     		ldr	r3, [sp, #20]
 1755 0148 4C31     		adds	r1, r1, #76
 1756 014a E86A     		ldr	r0, [r5, #44]
 1757 014c FFF7FEFF 		bl	HAL_DMA_Start_IT
 1758 0150 0028     		cmp	r0, #0
 1759 0152 9ED0     		beq	.L171
 1760 0154 0120     		movs	r0, #1
 1761 0156 A5E7     		b	.L160
 1762              	.L168:
 1763 0158 6B6B     		ldr	r3, [r5, #52]
 1764 015a 1149     		ldr	r1, .L187+28
 1765 015c 9962     		str	r1, [r3, #40]
 1766 015e 6B6B     		ldr	r3, [r5, #52]
 1767 0160 1049     		ldr	r1, .L187+32
 1768 0162 D962     		str	r1, [r3, #44]
 1769 0164 6B6B     		ldr	r3, [r5, #52]
 1770 0166 0949     		ldr	r1, .L187+8
 1771 0168 1963     		str	r1, [r3, #48]
 1772 016a 2968     		ldr	r1, [r5]
 1773 016c 059B     		ldr	r3, [sp, #20]
 1774 016e 4C31     		adds	r1, r1, #76
 1775 0170 686B     		ldr	r0, [r5, #52]
 1776 0172 FFF7FEFF 		bl	HAL_DMA_Start_IT
 1777 0176 0028     		cmp	r0, #0
 1778 0178 8BD0     		beq	.L171
 1779 017a 0120     		movs	r0, #1
 1780 017c 92E7     		b	.L160
 1781              	.L184:
 1782 017e 0120     		movs	r0, #1
 1783 0180 90E7     		b	.L160
 1784              	.L188:
 1785 0182 00BF     		.align	2
 1786              	.L187:
 1787 0184 00000000 		.word	TIM_DMACaptureCplt
ARM GAS  C:\Temp\ccqmCX5l.s 			page 31


 1788 0188 00000000 		.word	TIM_DMACaptureHalfCplt
 1789 018c 00000000 		.word	TIM_DMAError
 1790 0190 00000000 		.word	TIM_DMAPeriodElapsedCplt
 1791 0194 00000000 		.word	TIM_DMAPeriodElapsedHalfCplt
 1792 0198 00000000 		.word	TIM_DMATriggerCplt
 1793 019c 00000000 		.word	TIM_DMATriggerHalfCplt
 1794 01a0 00000000 		.word	TIMEx_DMACommutationCplt
 1795 01a4 00000000 		.word	TIMEx_DMACommutationHalfCplt
 1797              		.section	.text.HAL_TIM_DMABurst_ReadStart,"ax",%progbits
 1798              		.align	1
 1799              		.global	HAL_TIM_DMABurst_ReadStart
 1800              		.syntax unified
 1801              		.thumb
 1802              		.thumb_func
 1804              	HAL_TIM_DMABurst_ReadStart:
 1805              		@ args = 4, pretend = 0, frame = 0
 1806              		@ frame_needed = 0, uses_anonymous_args = 0
 1807 0000 30B5     		push	{r4, r5, lr}
 1808 0002 83B0     		sub	sp, sp, #12
 1809 0004 069D     		ldr	r5, [sp, #24]
 1810 0006 2C0A     		lsrs	r4, r5, #8
 1811 0008 0134     		adds	r4, r4, #1
 1812 000a 0194     		str	r4, [sp, #4]
 1813 000c 0095     		str	r5, [sp]
 1814 000e FFF7FEFF 		bl	HAL_TIM_DMABurst_MultiReadStart
 1815 0012 03B0     		add	sp, sp, #12
 1816              		@ sp needed
 1817 0014 30BD     		pop	{r4, r5, pc}
 1819              		.section	.text.HAL_TIM_DMABurst_ReadStop,"ax",%progbits
 1820              		.align	1
 1821              		.global	HAL_TIM_DMABurst_ReadStop
 1822              		.syntax unified
 1823              		.thumb
 1824              		.thumb_func
 1826              	HAL_TIM_DMABurst_ReadStop:
 1827              		@ args = 0, pretend = 0, frame = 0
 1828              		@ frame_needed = 0, uses_anonymous_args = 0
 1829 0000 38B5     		push	{r3, r4, r5, lr}
 1830 0002 0546     		mov	r5, r0
 1831 0004 0C46     		mov	r4, r1
 1832 0006 B1F5006F 		cmp	r1, #2048
 1833 000a 33D0     		beq	.L192
 1834 000c 1BD8     		bhi	.L193
 1835 000e B1F5007F 		cmp	r1, #512
 1836 0012 2BD0     		beq	.L194
 1837 0014 B1F5806F 		cmp	r1, #1024
 1838 0018 03D1     		bne	.L203
 1839 001a 806A     		ldr	r0, [r0, #40]
 1840 001c FFF7FEFF 		bl	HAL_DMA_Abort_IT
 1841 0020 05E0     		b	.L201
 1842              	.L203:
 1843 0022 B1F5807F 		cmp	r1, #256
 1844 0026 0CD1     		bne	.L204
 1845 0028 006A     		ldr	r0, [r0, #32]
 1846 002a FFF7FEFF 		bl	HAL_DMA_Abort_IT
 1847              	.L201:
 1848 002e 2A68     		ldr	r2, [r5]
ARM GAS  C:\Temp\ccqmCX5l.s 			page 32


 1849 0030 D368     		ldr	r3, [r2, #12]
 1850 0032 23EA0403 		bic	r3, r3, r4
 1851 0036 D360     		str	r3, [r2, #12]
 1852 0038 0123     		movs	r3, #1
 1853 003a 85F84830 		strb	r3, [r5, #72]
 1854 003e 0020     		movs	r0, #0
 1855              	.L197:
 1856 0040 38BD     		pop	{r3, r4, r5, pc}
 1857              	.L204:
 1858 0042 0120     		movs	r0, #1
 1859 0044 FCE7     		b	.L197
 1860              	.L193:
 1861 0046 B1F5005F 		cmp	r1, #8192
 1862 004a 17D0     		beq	.L198
 1863 004c B1F5804F 		cmp	r1, #16384
 1864 0050 03D1     		bne	.L205
 1865 0052 806B     		ldr	r0, [r0, #56]
 1866 0054 FFF7FEFF 		bl	HAL_DMA_Abort_IT
 1867 0058 E9E7     		b	.L201
 1868              	.L205:
 1869 005a B1F5805F 		cmp	r1, #4096
 1870 005e 03D1     		bne	.L206
 1871 0060 006B     		ldr	r0, [r0, #48]
 1872 0062 FFF7FEFF 		bl	HAL_DMA_Abort_IT
 1873 0066 E2E7     		b	.L201
 1874              	.L206:
 1875 0068 0120     		movs	r0, #1
 1876 006a E9E7     		b	.L197
 1877              	.L194:
 1878 006c 406A     		ldr	r0, [r0, #36]
 1879 006e FFF7FEFF 		bl	HAL_DMA_Abort_IT
 1880 0072 DCE7     		b	.L201
 1881              	.L192:
 1882 0074 C06A     		ldr	r0, [r0, #44]
 1883 0076 FFF7FEFF 		bl	HAL_DMA_Abort_IT
 1884 007a D8E7     		b	.L201
 1885              	.L198:
 1886 007c 406B     		ldr	r0, [r0, #52]
 1887 007e FFF7FEFF 		bl	HAL_DMA_Abort_IT
 1888 0082 D4E7     		b	.L201
 1890              		.section	.text.HAL_TIM_GenerateEvent,"ax",%progbits
 1891              		.align	1
 1892              		.global	HAL_TIM_GenerateEvent
 1893              		.syntax unified
 1894              		.thumb
 1895              		.thumb_func
 1897              	HAL_TIM_GenerateEvent:
 1898              		@ args = 0, pretend = 0, frame = 0
 1899              		@ frame_needed = 0, uses_anonymous_args = 0
 1900              		@ link register save eliminated.
 1901 0000 90F83C30 		ldrb	r3, [r0, #60]	@ zero_extendqisi2
 1902 0004 012B     		cmp	r3, #1
 1903 0006 0ED0     		beq	.L209
 1904 0008 0123     		movs	r3, #1
 1905 000a 80F83C30 		strb	r3, [r0, #60]
 1906 000e 0222     		movs	r2, #2
 1907 0010 80F83D20 		strb	r2, [r0, #61]
ARM GAS  C:\Temp\ccqmCX5l.s 			page 33


 1908 0014 0268     		ldr	r2, [r0]
 1909 0016 5161     		str	r1, [r2, #20]
 1910 0018 80F83D30 		strb	r3, [r0, #61]
 1911 001c 0023     		movs	r3, #0
 1912 001e 80F83C30 		strb	r3, [r0, #60]
 1913 0022 1846     		mov	r0, r3
 1914 0024 7047     		bx	lr
 1915              	.L209:
 1916 0026 0220     		movs	r0, #2
 1917 0028 7047     		bx	lr
 1919              		.section	.text.HAL_TIM_ConfigTI1Input,"ax",%progbits
 1920              		.align	1
 1921              		.global	HAL_TIM_ConfigTI1Input
 1922              		.syntax unified
 1923              		.thumb
 1924              		.thumb_func
 1926              	HAL_TIM_ConfigTI1Input:
 1927              		@ args = 0, pretend = 0, frame = 0
 1928              		@ frame_needed = 0, uses_anonymous_args = 0
 1929              		@ link register save eliminated.
 1930 0000 0268     		ldr	r2, [r0]
 1931 0002 5368     		ldr	r3, [r2, #4]
 1932 0004 23F08003 		bic	r3, r3, #128
 1933 0008 0B43     		orrs	r3, r3, r1
 1934 000a 5360     		str	r3, [r2, #4]
 1935 000c 0020     		movs	r0, #0
 1936 000e 7047     		bx	lr
 1938              		.section	.text.HAL_TIM_ReadCapturedValue,"ax",%progbits
 1939              		.align	1
 1940              		.global	HAL_TIM_ReadCapturedValue
 1941              		.syntax unified
 1942              		.thumb
 1943              		.thumb_func
 1945              	HAL_TIM_ReadCapturedValue:
 1946              		@ args = 0, pretend = 0, frame = 0
 1947              		@ frame_needed = 0, uses_anonymous_args = 0
 1948              		@ link register save eliminated.
 1949 0000 0C29     		cmp	r1, #12
 1950 0002 14D8     		bhi	.L218
 1951 0004 DFE801F0 		tbb	[pc, r1]
 1952              	.L214:
 1953 0008 07       		.byte	(.L217-.L214)/2
 1954 0009 13       		.byte	(.L218-.L214)/2
 1955 000a 13       		.byte	(.L218-.L214)/2
 1956 000b 13       		.byte	(.L218-.L214)/2
 1957 000c 0A       		.byte	(.L216-.L214)/2
 1958 000d 13       		.byte	(.L218-.L214)/2
 1959 000e 13       		.byte	(.L218-.L214)/2
 1960 000f 13       		.byte	(.L218-.L214)/2
 1961 0010 0D       		.byte	(.L215-.L214)/2
 1962 0011 13       		.byte	(.L218-.L214)/2
 1963 0012 13       		.byte	(.L218-.L214)/2
 1964 0013 13       		.byte	(.L218-.L214)/2
 1965 0014 10       		.byte	(.L213-.L214)/2
 1966 0015 00       		.p2align 1
 1967              	.L217:
 1968 0016 0368     		ldr	r3, [r0]
ARM GAS  C:\Temp\ccqmCX5l.s 			page 34


 1969 0018 586B     		ldr	r0, [r3, #52]
 1970 001a 7047     		bx	lr
 1971              	.L216:
 1972 001c 0368     		ldr	r3, [r0]
 1973 001e 986B     		ldr	r0, [r3, #56]
 1974 0020 7047     		bx	lr
 1975              	.L215:
 1976 0022 0368     		ldr	r3, [r0]
 1977 0024 D86B     		ldr	r0, [r3, #60]
 1978 0026 7047     		bx	lr
 1979              	.L213:
 1980 0028 0368     		ldr	r3, [r0]
 1981 002a 186C     		ldr	r0, [r3, #64]
 1982 002c 7047     		bx	lr
 1983              	.L218:
 1984 002e 0020     		movs	r0, #0
 1985 0030 7047     		bx	lr
 1987              		.section	.text.HAL_TIM_PeriodElapsedCallback,"ax",%progbits
 1988              		.align	1
 1989              		.weak	HAL_TIM_PeriodElapsedCallback
 1990              		.syntax unified
 1991              		.thumb
 1992              		.thumb_func
 1994              	HAL_TIM_PeriodElapsedCallback:
 1995              		@ args = 0, pretend = 0, frame = 0
 1996              		@ frame_needed = 0, uses_anonymous_args = 0
 1997              		@ link register save eliminated.
 1998 0000 7047     		bx	lr
 2000              		.section	.text.TIM_DMAPeriodElapsedCplt,"ax",%progbits
 2001              		.align	1
 2002              		.syntax unified
 2003              		.thumb
 2004              		.thumb_func
 2006              	TIM_DMAPeriodElapsedCplt:
 2007              		@ args = 0, pretend = 0, frame = 0
 2008              		@ frame_needed = 0, uses_anonymous_args = 0
 2009 0000 08B5     		push	{r3, lr}
 2010 0002 406A     		ldr	r0, [r0, #36]
 2011 0004 036A     		ldr	r3, [r0, #32]
 2012 0006 9B69     		ldr	r3, [r3, #24]
 2013 0008 13B9     		cbnz	r3, .L221
 2014 000a 0123     		movs	r3, #1
 2015 000c 80F83D30 		strb	r3, [r0, #61]
 2016              	.L221:
 2017 0010 FFF7FEFF 		bl	HAL_TIM_PeriodElapsedCallback
 2018 0014 08BD     		pop	{r3, pc}
 2020              		.section	.text.HAL_TIM_PeriodElapsedHalfCpltCallback,"ax",%progbits
 2021              		.align	1
 2022              		.weak	HAL_TIM_PeriodElapsedHalfCpltCallback
 2023              		.syntax unified
 2024              		.thumb
 2025              		.thumb_func
 2027              	HAL_TIM_PeriodElapsedHalfCpltCallback:
 2028              		@ args = 0, pretend = 0, frame = 0
 2029              		@ frame_needed = 0, uses_anonymous_args = 0
 2030              		@ link register save eliminated.
 2031 0000 7047     		bx	lr
ARM GAS  C:\Temp\ccqmCX5l.s 			page 35


 2033              		.section	.text.TIM_DMAPeriodElapsedHalfCplt,"ax",%progbits
 2034              		.align	1
 2035              		.syntax unified
 2036              		.thumb
 2037              		.thumb_func
 2039              	TIM_DMAPeriodElapsedHalfCplt:
 2040              		@ args = 0, pretend = 0, frame = 0
 2041              		@ frame_needed = 0, uses_anonymous_args = 0
 2042 0000 08B5     		push	{r3, lr}
 2043 0002 406A     		ldr	r0, [r0, #36]
 2044 0004 FFF7FEFF 		bl	HAL_TIM_PeriodElapsedHalfCpltCallback
 2045 0008 08BD     		pop	{r3, pc}
 2047              		.section	.text.HAL_TIM_OC_DelayElapsedCallback,"ax",%progbits
 2048              		.align	1
 2049              		.weak	HAL_TIM_OC_DelayElapsedCallback
 2050              		.syntax unified
 2051              		.thumb
 2052              		.thumb_func
 2054              	HAL_TIM_OC_DelayElapsedCallback:
 2055              		@ args = 0, pretend = 0, frame = 0
 2056              		@ frame_needed = 0, uses_anonymous_args = 0
 2057              		@ link register save eliminated.
 2058 0000 7047     		bx	lr
 2060              		.section	.text.HAL_TIM_IC_CaptureCallback,"ax",%progbits
 2061              		.align	1
 2062              		.weak	HAL_TIM_IC_CaptureCallback
 2063              		.syntax unified
 2064              		.thumb
 2065              		.thumb_func
 2067              	HAL_TIM_IC_CaptureCallback:
 2068              		@ args = 0, pretend = 0, frame = 0
 2069              		@ frame_needed = 0, uses_anonymous_args = 0
 2070              		@ link register save eliminated.
 2071 0000 7047     		bx	lr
 2073              		.section	.text.TIM_DMACaptureCplt,"ax",%progbits
 2074              		.align	1
 2075              		.global	TIM_DMACaptureCplt
 2076              		.syntax unified
 2077              		.thumb
 2078              		.thumb_func
 2080              	TIM_DMACaptureCplt:
 2081              		@ args = 0, pretend = 0, frame = 0
 2082              		@ frame_needed = 0, uses_anonymous_args = 0
 2083 0000 10B5     		push	{r4, lr}
 2084 0002 446A     		ldr	r4, [r0, #36]
 2085 0004 636A     		ldr	r3, [r4, #36]
 2086 0006 8342     		cmp	r3, r0
 2087 0008 0ED0     		beq	.L234
 2088 000a A36A     		ldr	r3, [r4, #40]
 2089 000c 8342     		cmp	r3, r0
 2090 000e 16D0     		beq	.L235
 2091 0010 E36A     		ldr	r3, [r4, #44]
 2092 0012 8342     		cmp	r3, r0
 2093 0014 1ED0     		beq	.L236
 2094 0016 236B     		ldr	r3, [r4, #48]
 2095 0018 8342     		cmp	r3, r0
 2096 001a 26D0     		beq	.L237
ARM GAS  C:\Temp\ccqmCX5l.s 			page 36


 2097              	.L230:
 2098 001c 2046     		mov	r0, r4
 2099 001e FFF7FEFF 		bl	HAL_TIM_IC_CaptureCallback
 2100 0022 0023     		movs	r3, #0
 2101 0024 2377     		strb	r3, [r4, #28]
 2102 0026 10BD     		pop	{r4, pc}
 2103              	.L234:
 2104 0028 0123     		movs	r3, #1
 2105 002a 2377     		strb	r3, [r4, #28]
 2106 002c 8369     		ldr	r3, [r0, #24]
 2107 002e 002B     		cmp	r3, #0
 2108 0030 F4D1     		bne	.L230
 2109 0032 0123     		movs	r3, #1
 2110 0034 84F83E30 		strb	r3, [r4, #62]
 2111 0038 84F84430 		strb	r3, [r4, #68]
 2112 003c EEE7     		b	.L230
 2113              	.L235:
 2114 003e 0223     		movs	r3, #2
 2115 0040 2377     		strb	r3, [r4, #28]
 2116 0042 8369     		ldr	r3, [r0, #24]
 2117 0044 002B     		cmp	r3, #0
 2118 0046 E9D1     		bne	.L230
 2119 0048 0123     		movs	r3, #1
 2120 004a 84F83F30 		strb	r3, [r4, #63]
 2121 004e 84F84530 		strb	r3, [r4, #69]
 2122 0052 E3E7     		b	.L230
 2123              	.L236:
 2124 0054 0423     		movs	r3, #4
 2125 0056 2377     		strb	r3, [r4, #28]
 2126 0058 8369     		ldr	r3, [r0, #24]
 2127 005a 002B     		cmp	r3, #0
 2128 005c DED1     		bne	.L230
 2129 005e 0123     		movs	r3, #1
 2130 0060 84F84030 		strb	r3, [r4, #64]
 2131 0064 84F84630 		strb	r3, [r4, #70]
 2132 0068 D8E7     		b	.L230
 2133              	.L237:
 2134 006a 0823     		movs	r3, #8
 2135 006c 2377     		strb	r3, [r4, #28]
 2136 006e 8369     		ldr	r3, [r0, #24]
 2137 0070 002B     		cmp	r3, #0
 2138 0072 D3D1     		bne	.L230
 2139 0074 0123     		movs	r3, #1
 2140 0076 84F84130 		strb	r3, [r4, #65]
 2141 007a 84F84730 		strb	r3, [r4, #71]
 2142 007e CDE7     		b	.L230
 2144              		.section	.text.HAL_TIM_IC_CaptureHalfCpltCallback,"ax",%progbits
 2145              		.align	1
 2146              		.weak	HAL_TIM_IC_CaptureHalfCpltCallback
 2147              		.syntax unified
 2148              		.thumb
 2149              		.thumb_func
 2151              	HAL_TIM_IC_CaptureHalfCpltCallback:
 2152              		@ args = 0, pretend = 0, frame = 0
 2153              		@ frame_needed = 0, uses_anonymous_args = 0
 2154              		@ link register save eliminated.
 2155 0000 7047     		bx	lr
ARM GAS  C:\Temp\ccqmCX5l.s 			page 37


 2157              		.section	.text.TIM_DMACaptureHalfCplt,"ax",%progbits
 2158              		.align	1
 2159              		.global	TIM_DMACaptureHalfCplt
 2160              		.syntax unified
 2161              		.thumb
 2162              		.thumb_func
 2164              	TIM_DMACaptureHalfCplt:
 2165              		@ args = 0, pretend = 0, frame = 0
 2166              		@ frame_needed = 0, uses_anonymous_args = 0
 2167 0000 10B5     		push	{r4, lr}
 2168 0002 446A     		ldr	r4, [r0, #36]
 2169 0004 636A     		ldr	r3, [r4, #36]
 2170 0006 8342     		cmp	r3, r0
 2171 0008 0BD0     		beq	.L245
 2172 000a A36A     		ldr	r3, [r4, #40]
 2173 000c 8342     		cmp	r3, r0
 2174 000e 10D0     		beq	.L246
 2175 0010 E36A     		ldr	r3, [r4, #44]
 2176 0012 8342     		cmp	r3, r0
 2177 0014 10D0     		beq	.L247
 2178 0016 236B     		ldr	r3, [r4, #48]
 2179 0018 8342     		cmp	r3, r0
 2180 001a 04D1     		bne	.L241
 2181 001c 0823     		movs	r3, #8
 2182 001e 2377     		strb	r3, [r4, #28]
 2183 0020 01E0     		b	.L241
 2184              	.L245:
 2185 0022 0123     		movs	r3, #1
 2186 0024 2377     		strb	r3, [r4, #28]
 2187              	.L241:
 2188 0026 2046     		mov	r0, r4
 2189 0028 FFF7FEFF 		bl	HAL_TIM_IC_CaptureHalfCpltCallback
 2190 002c 0023     		movs	r3, #0
 2191 002e 2377     		strb	r3, [r4, #28]
 2192 0030 10BD     		pop	{r4, pc}
 2193              	.L246:
 2194 0032 0223     		movs	r3, #2
 2195 0034 2377     		strb	r3, [r4, #28]
 2196 0036 F6E7     		b	.L241
 2197              	.L247:
 2198 0038 0423     		movs	r3, #4
 2199 003a 2377     		strb	r3, [r4, #28]
 2200 003c F3E7     		b	.L241
 2202              		.section	.text.HAL_TIM_PWM_PulseFinishedCallback,"ax",%progbits
 2203              		.align	1
 2204              		.weak	HAL_TIM_PWM_PulseFinishedCallback
 2205              		.syntax unified
 2206              		.thumb
 2207              		.thumb_func
 2209              	HAL_TIM_PWM_PulseFinishedCallback:
 2210              		@ args = 0, pretend = 0, frame = 0
 2211              		@ frame_needed = 0, uses_anonymous_args = 0
 2212              		@ link register save eliminated.
 2213 0000 7047     		bx	lr
 2215              		.section	.text.TIM_DMADelayPulseCplt,"ax",%progbits
 2216              		.align	1
 2217              		.syntax unified
ARM GAS  C:\Temp\ccqmCX5l.s 			page 38


 2218              		.thumb
 2219              		.thumb_func
 2221              	TIM_DMADelayPulseCplt:
 2222              		@ args = 0, pretend = 0, frame = 0
 2223              		@ frame_needed = 0, uses_anonymous_args = 0
 2224 0000 10B5     		push	{r4, lr}
 2225 0002 446A     		ldr	r4, [r0, #36]
 2226 0004 636A     		ldr	r3, [r4, #36]
 2227 0006 8342     		cmp	r3, r0
 2228 0008 0ED0     		beq	.L255
 2229 000a A36A     		ldr	r3, [r4, #40]
 2230 000c 8342     		cmp	r3, r0
 2231 000e 14D0     		beq	.L256
 2232 0010 E36A     		ldr	r3, [r4, #44]
 2233 0012 8342     		cmp	r3, r0
 2234 0014 1AD0     		beq	.L257
 2235 0016 236B     		ldr	r3, [r4, #48]
 2236 0018 8342     		cmp	r3, r0
 2237 001a 20D0     		beq	.L258
 2238              	.L251:
 2239 001c 2046     		mov	r0, r4
 2240 001e FFF7FEFF 		bl	HAL_TIM_PWM_PulseFinishedCallback
 2241 0022 0023     		movs	r3, #0
 2242 0024 2377     		strb	r3, [r4, #28]
 2243 0026 10BD     		pop	{r4, pc}
 2244              	.L255:
 2245 0028 0123     		movs	r3, #1
 2246 002a 2377     		strb	r3, [r4, #28]
 2247 002c 8369     		ldr	r3, [r0, #24]
 2248 002e 002B     		cmp	r3, #0
 2249 0030 F4D1     		bne	.L251
 2250 0032 0123     		movs	r3, #1
 2251 0034 84F83E30 		strb	r3, [r4, #62]
 2252 0038 F0E7     		b	.L251
 2253              	.L256:
 2254 003a 0223     		movs	r3, #2
 2255 003c 2377     		strb	r3, [r4, #28]
 2256 003e 8369     		ldr	r3, [r0, #24]
 2257 0040 002B     		cmp	r3, #0
 2258 0042 EBD1     		bne	.L251
 2259 0044 0123     		movs	r3, #1
 2260 0046 84F83F30 		strb	r3, [r4, #63]
 2261 004a E7E7     		b	.L251
 2262              	.L257:
 2263 004c 0423     		movs	r3, #4
 2264 004e 2377     		strb	r3, [r4, #28]
 2265 0050 8369     		ldr	r3, [r0, #24]
 2266 0052 002B     		cmp	r3, #0
 2267 0054 E2D1     		bne	.L251
 2268 0056 0123     		movs	r3, #1
 2269 0058 84F84030 		strb	r3, [r4, #64]
 2270 005c DEE7     		b	.L251
 2271              	.L258:
 2272 005e 0823     		movs	r3, #8
 2273 0060 2377     		strb	r3, [r4, #28]
 2274 0062 8369     		ldr	r3, [r0, #24]
 2275 0064 002B     		cmp	r3, #0
ARM GAS  C:\Temp\ccqmCX5l.s 			page 39


 2276 0066 D9D1     		bne	.L251
 2277 0068 0123     		movs	r3, #1
 2278 006a 84F84130 		strb	r3, [r4, #65]
 2279 006e D5E7     		b	.L251
 2281              		.section	.text.HAL_TIM_PWM_PulseFinishedHalfCpltCallback,"ax",%progbits
 2282              		.align	1
 2283              		.weak	HAL_TIM_PWM_PulseFinishedHalfCpltCallback
 2284              		.syntax unified
 2285              		.thumb
 2286              		.thumb_func
 2288              	HAL_TIM_PWM_PulseFinishedHalfCpltCallback:
 2289              		@ args = 0, pretend = 0, frame = 0
 2290              		@ frame_needed = 0, uses_anonymous_args = 0
 2291              		@ link register save eliminated.
 2292 0000 7047     		bx	lr
 2294              		.section	.text.TIM_DMADelayPulseHalfCplt,"ax",%progbits
 2295              		.align	1
 2296              		.global	TIM_DMADelayPulseHalfCplt
 2297              		.syntax unified
 2298              		.thumb
 2299              		.thumb_func
 2301              	TIM_DMADelayPulseHalfCplt:
 2302              		@ args = 0, pretend = 0, frame = 0
 2303              		@ frame_needed = 0, uses_anonymous_args = 0
 2304 0000 10B5     		push	{r4, lr}
 2305 0002 446A     		ldr	r4, [r0, #36]
 2306 0004 636A     		ldr	r3, [r4, #36]
 2307 0006 8342     		cmp	r3, r0
 2308 0008 0BD0     		beq	.L266
 2309 000a A36A     		ldr	r3, [r4, #40]
 2310 000c 8342     		cmp	r3, r0
 2311 000e 10D0     		beq	.L267
 2312 0010 E36A     		ldr	r3, [r4, #44]
 2313 0012 8342     		cmp	r3, r0
 2314 0014 10D0     		beq	.L268
 2315 0016 236B     		ldr	r3, [r4, #48]
 2316 0018 8342     		cmp	r3, r0
 2317 001a 04D1     		bne	.L262
 2318 001c 0823     		movs	r3, #8
 2319 001e 2377     		strb	r3, [r4, #28]
 2320 0020 01E0     		b	.L262
 2321              	.L266:
 2322 0022 0123     		movs	r3, #1
 2323 0024 2377     		strb	r3, [r4, #28]
 2324              	.L262:
 2325 0026 2046     		mov	r0, r4
 2326 0028 FFF7FEFF 		bl	HAL_TIM_PWM_PulseFinishedHalfCpltCallback
 2327 002c 0023     		movs	r3, #0
 2328 002e 2377     		strb	r3, [r4, #28]
 2329 0030 10BD     		pop	{r4, pc}
 2330              	.L267:
 2331 0032 0223     		movs	r3, #2
 2332 0034 2377     		strb	r3, [r4, #28]
 2333 0036 F6E7     		b	.L262
 2334              	.L268:
 2335 0038 0423     		movs	r3, #4
 2336 003a 2377     		strb	r3, [r4, #28]
ARM GAS  C:\Temp\ccqmCX5l.s 			page 40


 2337 003c F3E7     		b	.L262
 2339              		.section	.text.HAL_TIM_TriggerCallback,"ax",%progbits
 2340              		.align	1
 2341              		.weak	HAL_TIM_TriggerCallback
 2342              		.syntax unified
 2343              		.thumb
 2344              		.thumb_func
 2346              	HAL_TIM_TriggerCallback:
 2347              		@ args = 0, pretend = 0, frame = 0
 2348              		@ frame_needed = 0, uses_anonymous_args = 0
 2349              		@ link register save eliminated.
 2350 0000 7047     		bx	lr
 2352              		.section	.text.HAL_TIM_IRQHandler,"ax",%progbits
 2353              		.align	1
 2354              		.global	HAL_TIM_IRQHandler
 2355              		.syntax unified
 2356              		.thumb
 2357              		.thumb_func
 2359              	HAL_TIM_IRQHandler:
 2360              		@ args = 0, pretend = 0, frame = 0
 2361              		@ frame_needed = 0, uses_anonymous_args = 0
 2362 0000 70B5     		push	{r4, r5, r6, lr}
 2363 0002 0446     		mov	r4, r0
 2364 0004 0368     		ldr	r3, [r0]
 2365 0006 DE68     		ldr	r6, [r3, #12]
 2366 0008 1D69     		ldr	r5, [r3, #16]
 2367 000a 15F0020F 		tst	r5, #2
 2368 000e 10D0     		beq	.L271
 2369 0010 16F0020F 		tst	r6, #2
 2370 0014 0DD0     		beq	.L271
 2371 0016 6FF00202 		mvn	r2, #2
 2372 001a 1A61     		str	r2, [r3, #16]
 2373 001c 0123     		movs	r3, #1
 2374 001e 0377     		strb	r3, [r0, #28]
 2375 0020 0368     		ldr	r3, [r0]
 2376 0022 9B69     		ldr	r3, [r3, #24]
 2377 0024 13F0030F 		tst	r3, #3
 2378 0028 64D0     		beq	.L272
 2379 002a FFF7FEFF 		bl	HAL_TIM_IC_CaptureCallback
 2380              	.L273:
 2381 002e 0023     		movs	r3, #0
 2382 0030 2377     		strb	r3, [r4, #28]
 2383              	.L271:
 2384 0032 15F0040F 		tst	r5, #4
 2385 0036 12D0     		beq	.L274
 2386 0038 16F0040F 		tst	r6, #4
 2387 003c 0FD0     		beq	.L274
 2388 003e 2368     		ldr	r3, [r4]
 2389 0040 6FF00402 		mvn	r2, #4
 2390 0044 1A61     		str	r2, [r3, #16]
 2391 0046 0223     		movs	r3, #2
 2392 0048 2377     		strb	r3, [r4, #28]
 2393 004a 2368     		ldr	r3, [r4]
 2394 004c 9B69     		ldr	r3, [r3, #24]
 2395 004e 13F4407F 		tst	r3, #768
 2396 0052 55D0     		beq	.L275
 2397 0054 2046     		mov	r0, r4
ARM GAS  C:\Temp\ccqmCX5l.s 			page 41


 2398 0056 FFF7FEFF 		bl	HAL_TIM_IC_CaptureCallback
 2399              	.L276:
 2400 005a 0023     		movs	r3, #0
 2401 005c 2377     		strb	r3, [r4, #28]
 2402              	.L274:
 2403 005e 15F0080F 		tst	r5, #8
 2404 0062 12D0     		beq	.L277
 2405 0064 16F0080F 		tst	r6, #8
 2406 0068 0FD0     		beq	.L277
 2407 006a 2368     		ldr	r3, [r4]
 2408 006c 6FF00802 		mvn	r2, #8
 2409 0070 1A61     		str	r2, [r3, #16]
 2410 0072 0423     		movs	r3, #4
 2411 0074 2377     		strb	r3, [r4, #28]
 2412 0076 2368     		ldr	r3, [r4]
 2413 0078 DB69     		ldr	r3, [r3, #28]
 2414 007a 13F0030F 		tst	r3, #3
 2415 007e 46D0     		beq	.L278
 2416 0080 2046     		mov	r0, r4
 2417 0082 FFF7FEFF 		bl	HAL_TIM_IC_CaptureCallback
 2418              	.L279:
 2419 0086 0023     		movs	r3, #0
 2420 0088 2377     		strb	r3, [r4, #28]
 2421              	.L277:
 2422 008a 15F0100F 		tst	r5, #16
 2423 008e 12D0     		beq	.L280
 2424 0090 16F0100F 		tst	r6, #16
 2425 0094 0FD0     		beq	.L280
 2426 0096 2368     		ldr	r3, [r4]
 2427 0098 6FF01002 		mvn	r2, #16
 2428 009c 1A61     		str	r2, [r3, #16]
 2429 009e 0823     		movs	r3, #8
 2430 00a0 2377     		strb	r3, [r4, #28]
 2431 00a2 2368     		ldr	r3, [r4]
 2432 00a4 DB69     		ldr	r3, [r3, #28]
 2433 00a6 13F4407F 		tst	r3, #768
 2434 00aa 37D0     		beq	.L281
 2435 00ac 2046     		mov	r0, r4
 2436 00ae FFF7FEFF 		bl	HAL_TIM_IC_CaptureCallback
 2437              	.L282:
 2438 00b2 0023     		movs	r3, #0
 2439 00b4 2377     		strb	r3, [r4, #28]
 2440              	.L280:
 2441 00b6 15F0010F 		tst	r5, #1
 2442 00ba 02D0     		beq	.L283
 2443 00bc 16F0010F 		tst	r6, #1
 2444 00c0 33D1     		bne	.L289
 2445              	.L283:
 2446 00c2 15F0800F 		tst	r5, #128
 2447 00c6 02D0     		beq	.L284
 2448 00c8 16F0800F 		tst	r6, #128
 2449 00cc 35D1     		bne	.L290
 2450              	.L284:
 2451 00ce 15F4807F 		tst	r5, #256
 2452 00d2 02D0     		beq	.L285
 2453 00d4 16F0800F 		tst	r6, #128
 2454 00d8 37D1     		bne	.L291
ARM GAS  C:\Temp\ccqmCX5l.s 			page 42


 2455              	.L285:
 2456 00da 15F0400F 		tst	r5, #64
 2457 00de 02D0     		beq	.L286
 2458 00e0 16F0400F 		tst	r6, #64
 2459 00e4 39D1     		bne	.L292
 2460              	.L286:
 2461 00e6 15F0200F 		tst	r5, #32
 2462 00ea 02D0     		beq	.L270
 2463 00ec 16F0200F 		tst	r6, #32
 2464 00f0 3BD1     		bne	.L293
 2465              	.L270:
 2466 00f2 70BD     		pop	{r4, r5, r6, pc}
 2467              	.L272:
 2468 00f4 FFF7FEFF 		bl	HAL_TIM_OC_DelayElapsedCallback
 2469 00f8 2046     		mov	r0, r4
 2470 00fa FFF7FEFF 		bl	HAL_TIM_PWM_PulseFinishedCallback
 2471 00fe 96E7     		b	.L273
 2472              	.L275:
 2473 0100 2046     		mov	r0, r4
 2474 0102 FFF7FEFF 		bl	HAL_TIM_OC_DelayElapsedCallback
 2475 0106 2046     		mov	r0, r4
 2476 0108 FFF7FEFF 		bl	HAL_TIM_PWM_PulseFinishedCallback
 2477 010c A5E7     		b	.L276
 2478              	.L278:
 2479 010e 2046     		mov	r0, r4
 2480 0110 FFF7FEFF 		bl	HAL_TIM_OC_DelayElapsedCallback
 2481 0114 2046     		mov	r0, r4
 2482 0116 FFF7FEFF 		bl	HAL_TIM_PWM_PulseFinishedCallback
 2483 011a B4E7     		b	.L279
 2484              	.L281:
 2485 011c 2046     		mov	r0, r4
 2486 011e FFF7FEFF 		bl	HAL_TIM_OC_DelayElapsedCallback
 2487 0122 2046     		mov	r0, r4
 2488 0124 FFF7FEFF 		bl	HAL_TIM_PWM_PulseFinishedCallback
 2489 0128 C3E7     		b	.L282
 2490              	.L289:
 2491 012a 2368     		ldr	r3, [r4]
 2492 012c 6FF00102 		mvn	r2, #1
 2493 0130 1A61     		str	r2, [r3, #16]
 2494 0132 2046     		mov	r0, r4
 2495 0134 FFF7FEFF 		bl	HAL_TIM_PeriodElapsedCallback
 2496 0138 C3E7     		b	.L283
 2497              	.L290:
 2498 013a 2368     		ldr	r3, [r4]
 2499 013c 6FF08002 		mvn	r2, #128
 2500 0140 1A61     		str	r2, [r3, #16]
 2501 0142 2046     		mov	r0, r4
 2502 0144 FFF7FEFF 		bl	HAL_TIMEx_BreakCallback
 2503 0148 C1E7     		b	.L284
 2504              	.L291:
 2505 014a 2368     		ldr	r3, [r4]
 2506 014c 6FF48072 		mvn	r2, #256
 2507 0150 1A61     		str	r2, [r3, #16]
 2508 0152 2046     		mov	r0, r4
 2509 0154 FFF7FEFF 		bl	HAL_TIMEx_Break2Callback
 2510 0158 BFE7     		b	.L285
 2511              	.L292:
ARM GAS  C:\Temp\ccqmCX5l.s 			page 43


 2512 015a 2368     		ldr	r3, [r4]
 2513 015c 6FF04002 		mvn	r2, #64
 2514 0160 1A61     		str	r2, [r3, #16]
 2515 0162 2046     		mov	r0, r4
 2516 0164 FFF7FEFF 		bl	HAL_TIM_TriggerCallback
 2517 0168 BDE7     		b	.L286
 2518              	.L293:
 2519 016a 2368     		ldr	r3, [r4]
 2520 016c 6FF02002 		mvn	r2, #32
 2521 0170 1A61     		str	r2, [r3, #16]
 2522 0172 2046     		mov	r0, r4
 2523 0174 FFF7FEFF 		bl	HAL_TIMEx_CommutCallback
 2524 0178 BBE7     		b	.L270
 2526              		.section	.text.TIM_DMATriggerCplt,"ax",%progbits
 2527              		.align	1
 2528              		.syntax unified
 2529              		.thumb
 2530              		.thumb_func
 2532              	TIM_DMATriggerCplt:
 2533              		@ args = 0, pretend = 0, frame = 0
 2534              		@ frame_needed = 0, uses_anonymous_args = 0
 2535 0000 08B5     		push	{r3, lr}
 2536 0002 406A     		ldr	r0, [r0, #36]
 2537 0004 836B     		ldr	r3, [r0, #56]
 2538 0006 9B69     		ldr	r3, [r3, #24]
 2539 0008 13B9     		cbnz	r3, .L295
 2540 000a 0123     		movs	r3, #1
 2541 000c 80F83D30 		strb	r3, [r0, #61]
 2542              	.L295:
 2543 0010 FFF7FEFF 		bl	HAL_TIM_TriggerCallback
 2544 0014 08BD     		pop	{r3, pc}
 2546              		.section	.text.HAL_TIM_TriggerHalfCpltCallback,"ax",%progbits
 2547              		.align	1
 2548              		.weak	HAL_TIM_TriggerHalfCpltCallback
 2549              		.syntax unified
 2550              		.thumb
 2551              		.thumb_func
 2553              	HAL_TIM_TriggerHalfCpltCallback:
 2554              		@ args = 0, pretend = 0, frame = 0
 2555              		@ frame_needed = 0, uses_anonymous_args = 0
 2556              		@ link register save eliminated.
 2557 0000 7047     		bx	lr
 2559              		.section	.text.TIM_DMATriggerHalfCplt,"ax",%progbits
 2560              		.align	1
 2561              		.syntax unified
 2562              		.thumb
 2563              		.thumb_func
 2565              	TIM_DMATriggerHalfCplt:
 2566              		@ args = 0, pretend = 0, frame = 0
 2567              		@ frame_needed = 0, uses_anonymous_args = 0
 2568 0000 08B5     		push	{r3, lr}
 2569 0002 406A     		ldr	r0, [r0, #36]
 2570 0004 FFF7FEFF 		bl	HAL_TIM_TriggerHalfCpltCallback
 2571 0008 08BD     		pop	{r3, pc}
 2573              		.section	.text.HAL_TIM_ErrorCallback,"ax",%progbits
 2574              		.align	1
 2575              		.weak	HAL_TIM_ErrorCallback
ARM GAS  C:\Temp\ccqmCX5l.s 			page 44


 2576              		.syntax unified
 2577              		.thumb
 2578              		.thumb_func
 2580              	HAL_TIM_ErrorCallback:
 2581              		@ args = 0, pretend = 0, frame = 0
 2582              		@ frame_needed = 0, uses_anonymous_args = 0
 2583              		@ link register save eliminated.
 2584 0000 7047     		bx	lr
 2586              		.section	.text.TIM_DMAError,"ax",%progbits
 2587              		.align	1
 2588              		.global	TIM_DMAError
 2589              		.syntax unified
 2590              		.thumb
 2591              		.thumb_func
 2593              	TIM_DMAError:
 2594              		@ args = 0, pretend = 0, frame = 0
 2595              		@ frame_needed = 0, uses_anonymous_args = 0
 2596 0000 10B5     		push	{r4, lr}
 2597 0002 446A     		ldr	r4, [r0, #36]
 2598 0004 636A     		ldr	r3, [r4, #36]
 2599 0006 8342     		cmp	r3, r0
 2600 0008 0CD0     		beq	.L308
 2601 000a A36A     		ldr	r3, [r4, #40]
 2602 000c 8342     		cmp	r3, r0
 2603 000e 13D0     		beq	.L309
 2604 0010 E36A     		ldr	r3, [r4, #44]
 2605 0012 8342     		cmp	r3, r0
 2606 0014 16D0     		beq	.L310
 2607 0016 236B     		ldr	r3, [r4, #48]
 2608 0018 8342     		cmp	r3, r0
 2609 001a 19D0     		beq	.L311
 2610 001c 0123     		movs	r3, #1
 2611 001e 84F83D30 		strb	r3, [r4, #61]
 2612 0022 03E0     		b	.L303
 2613              	.L308:
 2614 0024 0123     		movs	r3, #1
 2615 0026 2377     		strb	r3, [r4, #28]
 2616 0028 84F83E30 		strb	r3, [r4, #62]
 2617              	.L303:
 2618 002c 2046     		mov	r0, r4
 2619 002e FFF7FEFF 		bl	HAL_TIM_ErrorCallback
 2620 0032 0023     		movs	r3, #0
 2621 0034 2377     		strb	r3, [r4, #28]
 2622 0036 10BD     		pop	{r4, pc}
 2623              	.L309:
 2624 0038 0223     		movs	r3, #2
 2625 003a 2377     		strb	r3, [r4, #28]
 2626 003c 0123     		movs	r3, #1
 2627 003e 84F83F30 		strb	r3, [r4, #63]
 2628 0042 F3E7     		b	.L303
 2629              	.L310:
 2630 0044 0423     		movs	r3, #4
 2631 0046 2377     		strb	r3, [r4, #28]
 2632 0048 0123     		movs	r3, #1
 2633 004a 84F84030 		strb	r3, [r4, #64]
 2634 004e EDE7     		b	.L303
 2635              	.L311:
ARM GAS  C:\Temp\ccqmCX5l.s 			page 45


 2636 0050 0823     		movs	r3, #8
 2637 0052 2377     		strb	r3, [r4, #28]
 2638 0054 0123     		movs	r3, #1
 2639 0056 84F84130 		strb	r3, [r4, #65]
 2640 005a E7E7     		b	.L303
 2642              		.section	.text.HAL_TIM_Base_GetState,"ax",%progbits
 2643              		.align	1
 2644              		.global	HAL_TIM_Base_GetState
 2645              		.syntax unified
 2646              		.thumb
 2647              		.thumb_func
 2649              	HAL_TIM_Base_GetState:
 2650              		@ args = 0, pretend = 0, frame = 0
 2651              		@ frame_needed = 0, uses_anonymous_args = 0
 2652              		@ link register save eliminated.
 2653 0000 90F83D00 		ldrb	r0, [r0, #61]	@ zero_extendqisi2
 2654 0004 7047     		bx	lr
 2656              		.section	.text.HAL_TIM_OC_GetState,"ax",%progbits
 2657              		.align	1
 2658              		.global	HAL_TIM_OC_GetState
 2659              		.syntax unified
 2660              		.thumb
 2661              		.thumb_func
 2663              	HAL_TIM_OC_GetState:
 2664              		@ args = 0, pretend = 0, frame = 0
 2665              		@ frame_needed = 0, uses_anonymous_args = 0
 2666              		@ link register save eliminated.
 2667 0000 90F83D00 		ldrb	r0, [r0, #61]	@ zero_extendqisi2
 2668 0004 7047     		bx	lr
 2670              		.section	.text.HAL_TIM_PWM_GetState,"ax",%progbits
 2671              		.align	1
 2672              		.global	HAL_TIM_PWM_GetState
 2673              		.syntax unified
 2674              		.thumb
 2675              		.thumb_func
 2677              	HAL_TIM_PWM_GetState:
 2678              		@ args = 0, pretend = 0, frame = 0
 2679              		@ frame_needed = 0, uses_anonymous_args = 0
 2680              		@ link register save eliminated.
 2681 0000 90F83D00 		ldrb	r0, [r0, #61]	@ zero_extendqisi2
 2682 0004 7047     		bx	lr
 2684              		.section	.text.HAL_TIM_IC_GetState,"ax",%progbits
 2685              		.align	1
 2686              		.global	HAL_TIM_IC_GetState
 2687              		.syntax unified
 2688              		.thumb
 2689              		.thumb_func
 2691              	HAL_TIM_IC_GetState:
 2692              		@ args = 0, pretend = 0, frame = 0
 2693              		@ frame_needed = 0, uses_anonymous_args = 0
 2694              		@ link register save eliminated.
 2695 0000 90F83D00 		ldrb	r0, [r0, #61]	@ zero_extendqisi2
 2696 0004 7047     		bx	lr
 2698              		.section	.text.HAL_TIM_OnePulse_GetState,"ax",%progbits
 2699              		.align	1
 2700              		.global	HAL_TIM_OnePulse_GetState
 2701              		.syntax unified
ARM GAS  C:\Temp\ccqmCX5l.s 			page 46


 2702              		.thumb
 2703              		.thumb_func
 2705              	HAL_TIM_OnePulse_GetState:
 2706              		@ args = 0, pretend = 0, frame = 0
 2707              		@ frame_needed = 0, uses_anonymous_args = 0
 2708              		@ link register save eliminated.
 2709 0000 90F83D00 		ldrb	r0, [r0, #61]	@ zero_extendqisi2
 2710 0004 7047     		bx	lr
 2712              		.section	.text.HAL_TIM_Encoder_GetState,"ax",%progbits
 2713              		.align	1
 2714              		.global	HAL_TIM_Encoder_GetState
 2715              		.syntax unified
 2716              		.thumb
 2717              		.thumb_func
 2719              	HAL_TIM_Encoder_GetState:
 2720              		@ args = 0, pretend = 0, frame = 0
 2721              		@ frame_needed = 0, uses_anonymous_args = 0
 2722              		@ link register save eliminated.
 2723 0000 90F83D00 		ldrb	r0, [r0, #61]	@ zero_extendqisi2
 2724 0004 7047     		bx	lr
 2726              		.section	.text.HAL_TIM_GetActiveChannel,"ax",%progbits
 2727              		.align	1
 2728              		.global	HAL_TIM_GetActiveChannel
 2729              		.syntax unified
 2730              		.thumb
 2731              		.thumb_func
 2733              	HAL_TIM_GetActiveChannel:
 2734              		@ args = 0, pretend = 0, frame = 0
 2735              		@ frame_needed = 0, uses_anonymous_args = 0
 2736              		@ link register save eliminated.
 2737 0000 007F     		ldrb	r0, [r0, #28]	@ zero_extendqisi2
 2738 0002 7047     		bx	lr
 2740              		.section	.text.HAL_TIM_GetChannelState,"ax",%progbits
 2741              		.align	1
 2742              		.global	HAL_TIM_GetChannelState
 2743              		.syntax unified
 2744              		.thumb
 2745              		.thumb_func
 2747              	HAL_TIM_GetChannelState:
 2748              		@ args = 0, pretend = 0, frame = 0
 2749              		@ frame_needed = 0, uses_anonymous_args = 0
 2750              		@ link register save eliminated.
 2751 0000 1029     		cmp	r1, #16
 2752 0002 1ED8     		bhi	.L320
 2753 0004 DFE801F0 		tbb	[pc, r1]
 2754              	.L322:
 2755 0008 09       		.byte	(.L326-.L322)/2
 2756 0009 1D       		.byte	(.L320-.L322)/2
 2757 000a 1D       		.byte	(.L320-.L322)/2
 2758 000b 1D       		.byte	(.L320-.L322)/2
 2759 000c 0D       		.byte	(.L325-.L322)/2
 2760 000d 1D       		.byte	(.L320-.L322)/2
 2761 000e 1D       		.byte	(.L320-.L322)/2
 2762 000f 1D       		.byte	(.L320-.L322)/2
 2763 0010 11       		.byte	(.L324-.L322)/2
 2764 0011 1D       		.byte	(.L320-.L322)/2
 2765 0012 1D       		.byte	(.L320-.L322)/2
ARM GAS  C:\Temp\ccqmCX5l.s 			page 47


 2766 0013 1D       		.byte	(.L320-.L322)/2
 2767 0014 15       		.byte	(.L323-.L322)/2
 2768 0015 1D       		.byte	(.L320-.L322)/2
 2769 0016 1D       		.byte	(.L320-.L322)/2
 2770 0017 1D       		.byte	(.L320-.L322)/2
 2771 0018 19       		.byte	(.L321-.L322)/2
 2772 0019 00       		.p2align 1
 2773              	.L326:
 2774 001a 90F83E00 		ldrb	r0, [r0, #62]	@ zero_extendqisi2
 2775 001e C0B2     		uxtb	r0, r0
 2776 0020 7047     		bx	lr
 2777              	.L325:
 2778 0022 90F83F00 		ldrb	r0, [r0, #63]	@ zero_extendqisi2
 2779 0026 C0B2     		uxtb	r0, r0
 2780 0028 7047     		bx	lr
 2781              	.L324:
 2782 002a 90F84000 		ldrb	r0, [r0, #64]	@ zero_extendqisi2
 2783 002e C0B2     		uxtb	r0, r0
 2784 0030 7047     		bx	lr
 2785              	.L323:
 2786 0032 90F84100 		ldrb	r0, [r0, #65]	@ zero_extendqisi2
 2787 0036 C0B2     		uxtb	r0, r0
 2788 0038 7047     		bx	lr
 2789              	.L321:
 2790 003a 90F84200 		ldrb	r0, [r0, #66]	@ zero_extendqisi2
 2791 003e C0B2     		uxtb	r0, r0
 2792 0040 7047     		bx	lr
 2793              	.L320:
 2794 0042 90F84300 		ldrb	r0, [r0, #67]	@ zero_extendqisi2
 2795 0046 C0B2     		uxtb	r0, r0
 2796 0048 7047     		bx	lr
 2798              		.section	.text.HAL_TIM_DMABurstState,"ax",%progbits
 2799              		.align	1
 2800              		.global	HAL_TIM_DMABurstState
 2801              		.syntax unified
 2802              		.thumb
 2803              		.thumb_func
 2805              	HAL_TIM_DMABurstState:
 2806              		@ args = 0, pretend = 0, frame = 0
 2807              		@ frame_needed = 0, uses_anonymous_args = 0
 2808              		@ link register save eliminated.
 2809 0000 90F84800 		ldrb	r0, [r0, #72]	@ zero_extendqisi2
 2810 0004 7047     		bx	lr
 2812              		.section	.text.TIM_Base_SetConfig,"ax",%progbits
 2813              		.align	1
 2814              		.global	TIM_Base_SetConfig
 2815              		.syntax unified
 2816              		.thumb
 2817              		.thumb_func
 2819              	TIM_Base_SetConfig:
 2820              		@ args = 0, pretend = 0, frame = 0
 2821              		@ frame_needed = 0, uses_anonymous_args = 0
 2822              		@ link register save eliminated.
 2823 0000 0368     		ldr	r3, [r0]
 2824 0002 364A     		ldr	r2, .L337
 2825 0004 9042     		cmp	r0, r2
 2826 0006 12D0     		beq	.L330
ARM GAS  C:\Temp\ccqmCX5l.s 			page 48


 2827 0008 B0F1804F 		cmp	r0, #1073741824
 2828 000c 0FD0     		beq	.L330
 2829 000e A2F59432 		sub	r2, r2, #75776
 2830 0012 9042     		cmp	r0, r2
 2831 0014 0BD0     		beq	.L330
 2832 0016 02F58062 		add	r2, r2, #1024
 2833 001a 9042     		cmp	r0, r2
 2834 001c 07D0     		beq	.L330
 2835 001e 02F59632 		add	r2, r2, #76800
 2836 0022 9042     		cmp	r0, r2
 2837 0024 03D0     		beq	.L330
 2838 0026 02F5E052 		add	r2, r2, #7168
 2839 002a 9042     		cmp	r0, r2
 2840 002c 03D1     		bne	.L331
 2841              	.L330:
 2842 002e 23F07003 		bic	r3, r3, #112
 2843 0032 4A68     		ldr	r2, [r1, #4]
 2844 0034 1343     		orrs	r3, r3, r2
 2845              	.L331:
 2846 0036 294A     		ldr	r2, .L337
 2847 0038 9042     		cmp	r0, r2
 2848 003a 1ED0     		beq	.L332
 2849 003c B0F1804F 		cmp	r0, #1073741824
 2850 0040 1BD0     		beq	.L332
 2851 0042 A2F59432 		sub	r2, r2, #75776
 2852 0046 9042     		cmp	r0, r2
 2853 0048 17D0     		beq	.L332
 2854 004a 02F58062 		add	r2, r2, #1024
 2855 004e 9042     		cmp	r0, r2
 2856 0050 13D0     		beq	.L332
 2857 0052 02F59632 		add	r2, r2, #76800
 2858 0056 9042     		cmp	r0, r2
 2859 0058 0FD0     		beq	.L332
 2860 005a 02F54062 		add	r2, r2, #3072
 2861 005e 9042     		cmp	r0, r2
 2862 0060 0BD0     		beq	.L332
 2863 0062 02F58062 		add	r2, r2, #1024
 2864 0066 9042     		cmp	r0, r2
 2865 0068 07D0     		beq	.L332
 2866 006a 02F58062 		add	r2, r2, #1024
 2867 006e 9042     		cmp	r0, r2
 2868 0070 03D0     		beq	.L332
 2869 0072 02F50062 		add	r2, r2, #2048
 2870 0076 9042     		cmp	r0, r2
 2871 0078 03D1     		bne	.L333
 2872              	.L332:
 2873 007a 23F44073 		bic	r3, r3, #768
 2874 007e CA68     		ldr	r2, [r1, #12]
 2875 0080 1343     		orrs	r3, r3, r2
 2876              	.L333:
 2877 0082 23F08003 		bic	r3, r3, #128
 2878 0086 4A69     		ldr	r2, [r1, #20]
 2879 0088 1343     		orrs	r3, r3, r2
 2880 008a 0360     		str	r3, [r0]
 2881 008c 8B68     		ldr	r3, [r1, #8]
 2882 008e C362     		str	r3, [r0, #44]
 2883 0090 0B68     		ldr	r3, [r1]
ARM GAS  C:\Temp\ccqmCX5l.s 			page 49


 2884 0092 8362     		str	r3, [r0, #40]
 2885 0094 114B     		ldr	r3, .L337
 2886 0096 9842     		cmp	r0, r3
 2887 0098 13D0     		beq	.L334
 2888 009a 03F50063 		add	r3, r3, #2048
 2889 009e 9842     		cmp	r0, r3
 2890 00a0 0FD0     		beq	.L334
 2891 00a2 03F54063 		add	r3, r3, #3072
 2892 00a6 9842     		cmp	r0, r3
 2893 00a8 0BD0     		beq	.L334
 2894 00aa 03F58063 		add	r3, r3, #1024
 2895 00ae 9842     		cmp	r0, r3
 2896 00b0 07D0     		beq	.L334
 2897 00b2 03F58063 		add	r3, r3, #1024
 2898 00b6 9842     		cmp	r0, r3
 2899 00b8 03D0     		beq	.L334
 2900 00ba 03F50063 		add	r3, r3, #2048
 2901 00be 9842     		cmp	r0, r3
 2902 00c0 01D1     		bne	.L335
 2903              	.L334:
 2904 00c2 0B69     		ldr	r3, [r1, #16]
 2905 00c4 0363     		str	r3, [r0, #48]
 2906              	.L335:
 2907 00c6 0123     		movs	r3, #1
 2908 00c8 4361     		str	r3, [r0, #20]
 2909 00ca 0369     		ldr	r3, [r0, #16]
 2910 00cc 13F0010F 		tst	r3, #1
 2911 00d0 03D0     		beq	.L329
 2912 00d2 0369     		ldr	r3, [r0, #16]
 2913 00d4 23F00103 		bic	r3, r3, #1
 2914 00d8 0361     		str	r3, [r0, #16]
 2915              	.L329:
 2916 00da 7047     		bx	lr
 2917              	.L338:
 2918              		.align	2
 2919              	.L337:
 2920 00dc 002C0140 		.word	1073818624
 2922              		.section	.text.HAL_TIM_Base_Init,"ax",%progbits
 2923              		.align	1
 2924              		.global	HAL_TIM_Base_Init
 2925              		.syntax unified
 2926              		.thumb
 2927              		.thumb_func
 2929              	HAL_TIM_Base_Init:
 2930              		@ args = 0, pretend = 0, frame = 0
 2931              		@ frame_needed = 0, uses_anonymous_args = 0
 2932 0000 60B3     		cbz	r0, .L342
 2933 0002 10B5     		push	{r4, lr}
 2934 0004 0446     		mov	r4, r0
 2935 0006 90F83D30 		ldrb	r3, [r0, #61]	@ zero_extendqisi2
 2936 000a 13B3     		cbz	r3, .L347
 2937              	.L341:
 2938 000c 0223     		movs	r3, #2
 2939 000e 84F83D30 		strb	r3, [r4, #61]
 2940 0012 2146     		mov	r1, r4
 2941 0014 51F8040B 		ldr	r0, [r1], #4
 2942 0018 FFF7FEFF 		bl	TIM_Base_SetConfig
ARM GAS  C:\Temp\ccqmCX5l.s 			page 50


 2943 001c 0123     		movs	r3, #1
 2944 001e 84F84830 		strb	r3, [r4, #72]
 2945 0022 84F83E30 		strb	r3, [r4, #62]
 2946 0026 84F83F30 		strb	r3, [r4, #63]
 2947 002a 84F84030 		strb	r3, [r4, #64]
 2948 002e 84F84130 		strb	r3, [r4, #65]
 2949 0032 84F84230 		strb	r3, [r4, #66]
 2950 0036 84F84330 		strb	r3, [r4, #67]
 2951 003a 84F84430 		strb	r3, [r4, #68]
 2952 003e 84F84530 		strb	r3, [r4, #69]
 2953 0042 84F84630 		strb	r3, [r4, #70]
 2954 0046 84F84730 		strb	r3, [r4, #71]
 2955 004a 84F83D30 		strb	r3, [r4, #61]
 2956 004e 0020     		movs	r0, #0
 2957 0050 10BD     		pop	{r4, pc}
 2958              	.L347:
 2959 0052 80F83C30 		strb	r3, [r0, #60]
 2960 0056 FFF7FEFF 		bl	HAL_TIM_Base_MspInit
 2961 005a D7E7     		b	.L341
 2962              	.L342:
 2963 005c 0120     		movs	r0, #1
 2964 005e 7047     		bx	lr
 2966              		.section	.text.HAL_TIM_OC_Init,"ax",%progbits
 2967              		.align	1
 2968              		.global	HAL_TIM_OC_Init
 2969              		.syntax unified
 2970              		.thumb
 2971              		.thumb_func
 2973              	HAL_TIM_OC_Init:
 2974              		@ args = 0, pretend = 0, frame = 0
 2975              		@ frame_needed = 0, uses_anonymous_args = 0
 2976 0000 60B3     		cbz	r0, .L351
 2977 0002 10B5     		push	{r4, lr}
 2978 0004 0446     		mov	r4, r0
 2979 0006 90F83D30 		ldrb	r3, [r0, #61]	@ zero_extendqisi2
 2980 000a 13B3     		cbz	r3, .L356
 2981              	.L350:
 2982 000c 0223     		movs	r3, #2
 2983 000e 84F83D30 		strb	r3, [r4, #61]
 2984 0012 2146     		mov	r1, r4
 2985 0014 51F8040B 		ldr	r0, [r1], #4
 2986 0018 FFF7FEFF 		bl	TIM_Base_SetConfig
 2987 001c 0123     		movs	r3, #1
 2988 001e 84F84830 		strb	r3, [r4, #72]
 2989 0022 84F83E30 		strb	r3, [r4, #62]
 2990 0026 84F83F30 		strb	r3, [r4, #63]
 2991 002a 84F84030 		strb	r3, [r4, #64]
 2992 002e 84F84130 		strb	r3, [r4, #65]
 2993 0032 84F84230 		strb	r3, [r4, #66]
 2994 0036 84F84330 		strb	r3, [r4, #67]
 2995 003a 84F84430 		strb	r3, [r4, #68]
 2996 003e 84F84530 		strb	r3, [r4, #69]
 2997 0042 84F84630 		strb	r3, [r4, #70]
 2998 0046 84F84730 		strb	r3, [r4, #71]
 2999 004a 84F83D30 		strb	r3, [r4, #61]
 3000 004e 0020     		movs	r0, #0
 3001 0050 10BD     		pop	{r4, pc}
ARM GAS  C:\Temp\ccqmCX5l.s 			page 51


 3002              	.L356:
 3003 0052 80F83C30 		strb	r3, [r0, #60]
 3004 0056 FFF7FEFF 		bl	HAL_TIM_OC_MspInit
 3005 005a D7E7     		b	.L350
 3006              	.L351:
 3007 005c 0120     		movs	r0, #1
 3008 005e 7047     		bx	lr
 3010              		.section	.text.HAL_TIM_PWM_Init,"ax",%progbits
 3011              		.align	1
 3012              		.global	HAL_TIM_PWM_Init
 3013              		.syntax unified
 3014              		.thumb
 3015              		.thumb_func
 3017              	HAL_TIM_PWM_Init:
 3018              		@ args = 0, pretend = 0, frame = 0
 3019              		@ frame_needed = 0, uses_anonymous_args = 0
 3020 0000 60B3     		cbz	r0, .L360
 3021 0002 10B5     		push	{r4, lr}
 3022 0004 0446     		mov	r4, r0
 3023 0006 90F83D30 		ldrb	r3, [r0, #61]	@ zero_extendqisi2
 3024 000a 13B3     		cbz	r3, .L365
 3025              	.L359:
 3026 000c 0223     		movs	r3, #2
 3027 000e 84F83D30 		strb	r3, [r4, #61]
 3028 0012 2146     		mov	r1, r4
 3029 0014 51F8040B 		ldr	r0, [r1], #4
 3030 0018 FFF7FEFF 		bl	TIM_Base_SetConfig
 3031 001c 0123     		movs	r3, #1
 3032 001e 84F84830 		strb	r3, [r4, #72]
 3033 0022 84F83E30 		strb	r3, [r4, #62]
 3034 0026 84F83F30 		strb	r3, [r4, #63]
 3035 002a 84F84030 		strb	r3, [r4, #64]
 3036 002e 84F84130 		strb	r3, [r4, #65]
 3037 0032 84F84230 		strb	r3, [r4, #66]
 3038 0036 84F84330 		strb	r3, [r4, #67]
 3039 003a 84F84430 		strb	r3, [r4, #68]
 3040 003e 84F84530 		strb	r3, [r4, #69]
 3041 0042 84F84630 		strb	r3, [r4, #70]
 3042 0046 84F84730 		strb	r3, [r4, #71]
 3043 004a 84F83D30 		strb	r3, [r4, #61]
 3044 004e 0020     		movs	r0, #0
 3045 0050 10BD     		pop	{r4, pc}
 3046              	.L365:
 3047 0052 80F83C30 		strb	r3, [r0, #60]
 3048 0056 FFF7FEFF 		bl	HAL_TIM_PWM_MspInit
 3049 005a D7E7     		b	.L359
 3050              	.L360:
 3051 005c 0120     		movs	r0, #1
 3052 005e 7047     		bx	lr
 3054              		.section	.text.HAL_TIM_IC_Init,"ax",%progbits
 3055              		.align	1
 3056              		.global	HAL_TIM_IC_Init
 3057              		.syntax unified
 3058              		.thumb
 3059              		.thumb_func
 3061              	HAL_TIM_IC_Init:
 3062              		@ args = 0, pretend = 0, frame = 0
ARM GAS  C:\Temp\ccqmCX5l.s 			page 52


 3063              		@ frame_needed = 0, uses_anonymous_args = 0
 3064 0000 60B3     		cbz	r0, .L369
 3065 0002 10B5     		push	{r4, lr}
 3066 0004 0446     		mov	r4, r0
 3067 0006 90F83D30 		ldrb	r3, [r0, #61]	@ zero_extendqisi2
 3068 000a 13B3     		cbz	r3, .L374
 3069              	.L368:
 3070 000c 0223     		movs	r3, #2
 3071 000e 84F83D30 		strb	r3, [r4, #61]
 3072 0012 2146     		mov	r1, r4
 3073 0014 51F8040B 		ldr	r0, [r1], #4
 3074 0018 FFF7FEFF 		bl	TIM_Base_SetConfig
 3075 001c 0123     		movs	r3, #1
 3076 001e 84F84830 		strb	r3, [r4, #72]
 3077 0022 84F83E30 		strb	r3, [r4, #62]
 3078 0026 84F83F30 		strb	r3, [r4, #63]
 3079 002a 84F84030 		strb	r3, [r4, #64]
 3080 002e 84F84130 		strb	r3, [r4, #65]
 3081 0032 84F84230 		strb	r3, [r4, #66]
 3082 0036 84F84330 		strb	r3, [r4, #67]
 3083 003a 84F84430 		strb	r3, [r4, #68]
 3084 003e 84F84530 		strb	r3, [r4, #69]
 3085 0042 84F84630 		strb	r3, [r4, #70]
 3086 0046 84F84730 		strb	r3, [r4, #71]
 3087 004a 84F83D30 		strb	r3, [r4, #61]
 3088 004e 0020     		movs	r0, #0
 3089 0050 10BD     		pop	{r4, pc}
 3090              	.L374:
 3091 0052 80F83C30 		strb	r3, [r0, #60]
 3092 0056 FFF7FEFF 		bl	HAL_TIM_IC_MspInit
 3093 005a D7E7     		b	.L368
 3094              	.L369:
 3095 005c 0120     		movs	r0, #1
 3096 005e 7047     		bx	lr
 3098              		.section	.text.HAL_TIM_OnePulse_Init,"ax",%progbits
 3099              		.align	1
 3100              		.global	HAL_TIM_OnePulse_Init
 3101              		.syntax unified
 3102              		.thumb
 3103              		.thumb_func
 3105              	HAL_TIM_OnePulse_Init:
 3106              		@ args = 0, pretend = 0, frame = 0
 3107              		@ frame_needed = 0, uses_anonymous_args = 0
 3108 0000 50B3     		cbz	r0, .L378
 3109 0002 38B5     		push	{r3, r4, r5, lr}
 3110 0004 0D46     		mov	r5, r1
 3111 0006 0446     		mov	r4, r0
 3112 0008 90F83D30 		ldrb	r3, [r0, #61]	@ zero_extendqisi2
 3113 000c FBB1     		cbz	r3, .L383
 3114              	.L377:
 3115 000e 0223     		movs	r3, #2
 3116 0010 84F83D30 		strb	r3, [r4, #61]
 3117 0014 2146     		mov	r1, r4
 3118 0016 51F8040B 		ldr	r0, [r1], #4
 3119 001a FFF7FEFF 		bl	TIM_Base_SetConfig
 3120 001e 2268     		ldr	r2, [r4]
 3121 0020 1368     		ldr	r3, [r2]
ARM GAS  C:\Temp\ccqmCX5l.s 			page 53


 3122 0022 23F00803 		bic	r3, r3, #8
 3123 0026 1360     		str	r3, [r2]
 3124 0028 2268     		ldr	r2, [r4]
 3125 002a 1368     		ldr	r3, [r2]
 3126 002c 2B43     		orrs	r3, r3, r5
 3127 002e 1360     		str	r3, [r2]
 3128 0030 0123     		movs	r3, #1
 3129 0032 84F84830 		strb	r3, [r4, #72]
 3130 0036 84F83E30 		strb	r3, [r4, #62]
 3131 003a 84F83F30 		strb	r3, [r4, #63]
 3132 003e 84F84430 		strb	r3, [r4, #68]
 3133 0042 84F84530 		strb	r3, [r4, #69]
 3134 0046 84F83D30 		strb	r3, [r4, #61]
 3135 004a 0020     		movs	r0, #0
 3136 004c 38BD     		pop	{r3, r4, r5, pc}
 3137              	.L383:
 3138 004e 80F83C30 		strb	r3, [r0, #60]
 3139 0052 FFF7FEFF 		bl	HAL_TIM_OnePulse_MspInit
 3140 0056 DAE7     		b	.L377
 3141              	.L378:
 3142 0058 0120     		movs	r0, #1
 3143 005a 7047     		bx	lr
 3145              		.section	.text.HAL_TIM_Encoder_Init,"ax",%progbits
 3146              		.align	1
 3147              		.global	HAL_TIM_Encoder_Init
 3148              		.syntax unified
 3149              		.thumb
 3150              		.thumb_func
 3152              	HAL_TIM_Encoder_Init:
 3153              		@ args = 0, pretend = 0, frame = 0
 3154              		@ frame_needed = 0, uses_anonymous_args = 0
 3155 0000 0028     		cmp	r0, #0
 3156 0002 53D0     		beq	.L387
 3157 0004 F8B5     		push	{r3, r4, r5, r6, r7, lr}
 3158 0006 0D46     		mov	r5, r1
 3159 0008 0446     		mov	r4, r0
 3160 000a 90F83D30 		ldrb	r3, [r0, #61]	@ zero_extendqisi2
 3161 000e 002B     		cmp	r3, #0
 3162 0010 47D0     		beq	.L392
 3163              	.L386:
 3164 0012 0223     		movs	r3, #2
 3165 0014 84F83D30 		strb	r3, [r4, #61]
 3166 0018 2268     		ldr	r2, [r4]
 3167 001a 9368     		ldr	r3, [r2, #8]
 3168 001c 23F4A033 		bic	r3, r3, #81920
 3169 0020 23F00703 		bic	r3, r3, #7
 3170 0024 9360     		str	r3, [r2, #8]
 3171 0026 2146     		mov	r1, r4
 3172 0028 51F8040B 		ldr	r0, [r1], #4
 3173 002c FFF7FEFF 		bl	TIM_Base_SetConfig
 3174 0030 2168     		ldr	r1, [r4]
 3175 0032 8B68     		ldr	r3, [r1, #8]
 3176 0034 8A69     		ldr	r2, [r1, #24]
 3177 0036 0E6A     		ldr	r6, [r1, #32]
 3178 0038 2868     		ldr	r0, [r5]
 3179 003a 1843     		orrs	r0, r0, r3
 3180 003c 22F44072 		bic	r2, r2, #768
ARM GAS  C:\Temp\ccqmCX5l.s 			page 54


 3181 0040 22F00302 		bic	r2, r2, #3
 3182 0044 AB68     		ldr	r3, [r5, #8]
 3183 0046 AF69     		ldr	r7, [r5, #24]
 3184 0048 43EA0723 		orr	r3, r3, r7, lsl #8
 3185 004c 1343     		orrs	r3, r3, r2
 3186 004e 23F47C43 		bic	r3, r3, #64512
 3187 0052 23F0FC03 		bic	r3, r3, #252
 3188 0056 EA68     		ldr	r2, [r5, #12]
 3189 0058 EF69     		ldr	r7, [r5, #28]
 3190 005a 42EA0722 		orr	r2, r2, r7, lsl #8
 3191 005e 1A43     		orrs	r2, r2, r3
 3192 0060 2B6A     		ldr	r3, [r5, #32]
 3193 0062 1B03     		lsls	r3, r3, #12
 3194 0064 2F69     		ldr	r7, [r5, #16]
 3195 0066 43EA0713 		orr	r3, r3, r7, lsl #4
 3196 006a 1343     		orrs	r3, r3, r2
 3197 006c 26F0AA06 		bic	r6, r6, #170
 3198 0070 6A68     		ldr	r2, [r5, #4]
 3199 0072 6D69     		ldr	r5, [r5, #20]
 3200 0074 42EA0512 		orr	r2, r2, r5, lsl #4
 3201 0078 3243     		orrs	r2, r2, r6
 3202 007a 8860     		str	r0, [r1, #8]
 3203 007c 2168     		ldr	r1, [r4]
 3204 007e 8B61     		str	r3, [r1, #24]
 3205 0080 2368     		ldr	r3, [r4]
 3206 0082 1A62     		str	r2, [r3, #32]
 3207 0084 0123     		movs	r3, #1
 3208 0086 84F84830 		strb	r3, [r4, #72]
 3209 008a 84F83E30 		strb	r3, [r4, #62]
 3210 008e 84F83F30 		strb	r3, [r4, #63]
 3211 0092 84F84430 		strb	r3, [r4, #68]
 3212 0096 84F84530 		strb	r3, [r4, #69]
 3213 009a 84F83D30 		strb	r3, [r4, #61]
 3214 009e 0020     		movs	r0, #0
 3215 00a0 F8BD     		pop	{r3, r4, r5, r6, r7, pc}
 3216              	.L392:
 3217 00a2 80F83C30 		strb	r3, [r0, #60]
 3218 00a6 FFF7FEFF 		bl	HAL_TIM_Encoder_MspInit
 3219 00aa B2E7     		b	.L386
 3220              	.L387:
 3221 00ac 0120     		movs	r0, #1
 3222 00ae 7047     		bx	lr
 3224              		.section	.text.TIM_OC2_SetConfig,"ax",%progbits
 3225              		.align	1
 3226              		.global	TIM_OC2_SetConfig
 3227              		.syntax unified
 3228              		.thumb
 3229              		.thumb_func
 3231              	TIM_OC2_SetConfig:
 3232              		@ args = 0, pretend = 0, frame = 0
 3233              		@ frame_needed = 0, uses_anonymous_args = 0
 3234              		@ link register save eliminated.
 3235 0000 30B4     		push	{r4, r5}
 3236 0002 036A     		ldr	r3, [r0, #32]
 3237 0004 026A     		ldr	r2, [r0, #32]
 3238 0006 22F01002 		bic	r2, r2, #16
 3239 000a 0262     		str	r2, [r0, #32]
ARM GAS  C:\Temp\ccqmCX5l.s 			page 55


 3240 000c 4468     		ldr	r4, [r0, #4]
 3241 000e 8269     		ldr	r2, [r0, #24]
 3242 0010 22F08072 		bic	r2, r2, #16777216
 3243 0014 22F4E642 		bic	r2, r2, #29440
 3244 0018 0D68     		ldr	r5, [r1]
 3245 001a 42EA0522 		orr	r2, r2, r5, lsl #8
 3246 001e 23F02003 		bic	r3, r3, #32
 3247 0022 8D68     		ldr	r5, [r1, #8]
 3248 0024 43EA0513 		orr	r3, r3, r5, lsl #4
 3249 0028 1B4D     		ldr	r5, .L399
 3250 002a A842     		cmp	r0, r5
 3251 002c 07D0     		beq	.L394
 3252 002e 05F50065 		add	r5, r5, #2048
 3253 0032 A842     		cmp	r0, r5
 3254 0034 03D0     		beq	.L394
 3255 0036 05F5E055 		add	r5, r5, #7168
 3256 003a A842     		cmp	r0, r5
 3257 003c 06D1     		bne	.L395
 3258              	.L394:
 3259 003e 23F08003 		bic	r3, r3, #128
 3260 0042 CD68     		ldr	r5, [r1, #12]
 3261 0044 43EA0513 		orr	r3, r3, r5, lsl #4
 3262 0048 23F04003 		bic	r3, r3, #64
 3263              	.L395:
 3264 004c 124D     		ldr	r5, .L399
 3265 004e A842     		cmp	r0, r5
 3266 0050 13D0     		beq	.L396
 3267 0052 05F50065 		add	r5, r5, #2048
 3268 0056 A842     		cmp	r0, r5
 3269 0058 0FD0     		beq	.L396
 3270 005a 05F54065 		add	r5, r5, #3072
 3271 005e A842     		cmp	r0, r5
 3272 0060 0BD0     		beq	.L396
 3273 0062 05F58065 		add	r5, r5, #1024
 3274 0066 A842     		cmp	r0, r5
 3275 0068 07D0     		beq	.L396
 3276 006a 05F58065 		add	r5, r5, #1024
 3277 006e A842     		cmp	r0, r5
 3278 0070 03D0     		beq	.L396
 3279 0072 05F50065 		add	r5, r5, #2048
 3280 0076 A842     		cmp	r0, r5
 3281 0078 07D1     		bne	.L397
 3282              	.L396:
 3283 007a 24F4406C 		bic	ip, r4, #3072
 3284 007e 4C69     		ldr	r4, [r1, #20]
 3285 0080 4CEA840C 		orr	ip, ip, r4, lsl #2
 3286 0084 8C69     		ldr	r4, [r1, #24]
 3287 0086 4CEA8404 		orr	r4, ip, r4, lsl #2
 3288              	.L397:
 3289 008a 4460     		str	r4, [r0, #4]
 3290 008c 8261     		str	r2, [r0, #24]
 3291 008e 4A68     		ldr	r2, [r1, #4]
 3292 0090 8263     		str	r2, [r0, #56]
 3293 0092 0362     		str	r3, [r0, #32]
 3294 0094 30BC     		pop	{r4, r5}
 3295 0096 7047     		bx	lr
 3296              	.L400:
ARM GAS  C:\Temp\ccqmCX5l.s 			page 56


 3297              		.align	2
 3298              	.L399:
 3299 0098 002C0140 		.word	1073818624
 3301              		.section	.text.HAL_TIM_OC_ConfigChannel,"ax",%progbits
 3302              		.align	1
 3303              		.global	HAL_TIM_OC_ConfigChannel
 3304              		.syntax unified
 3305              		.thumb
 3306              		.thumb_func
 3308              	HAL_TIM_OC_ConfigChannel:
 3309              		@ args = 0, pretend = 0, frame = 0
 3310              		@ frame_needed = 0, uses_anonymous_args = 0
 3311 0000 90F83C30 		ldrb	r3, [r0, #60]	@ zero_extendqisi2
 3312 0004 012B     		cmp	r3, #1
 3313 0006 36D0     		beq	.L411
 3314 0008 10B5     		push	{r4, lr}
 3315 000a 0446     		mov	r4, r0
 3316 000c 0123     		movs	r3, #1
 3317 000e 80F83C30 		strb	r3, [r0, #60]
 3318 0012 142A     		cmp	r2, #20
 3319 0014 2AD8     		bhi	.L412
 3320 0016 DFE802F0 		tbb	[pc, r2]
 3321              	.L405:
 3322 001a 0B       		.byte	(.L410-.L405)/2
 3323 001b 29       		.byte	(.L412-.L405)/2
 3324 001c 29       		.byte	(.L412-.L405)/2
 3325 001d 29       		.byte	(.L412-.L405)/2
 3326 001e 10       		.byte	(.L409-.L405)/2
 3327 001f 29       		.byte	(.L412-.L405)/2
 3328 0020 29       		.byte	(.L412-.L405)/2
 3329 0021 29       		.byte	(.L412-.L405)/2
 3330 0022 15       		.byte	(.L408-.L405)/2
 3331 0023 29       		.byte	(.L412-.L405)/2
 3332 0024 29       		.byte	(.L412-.L405)/2
 3333 0025 29       		.byte	(.L412-.L405)/2
 3334 0026 1A       		.byte	(.L407-.L405)/2
 3335 0027 29       		.byte	(.L412-.L405)/2
 3336 0028 29       		.byte	(.L412-.L405)/2
 3337 0029 29       		.byte	(.L412-.L405)/2
 3338 002a 1F       		.byte	(.L406-.L405)/2
 3339 002b 29       		.byte	(.L412-.L405)/2
 3340 002c 29       		.byte	(.L412-.L405)/2
 3341 002d 29       		.byte	(.L412-.L405)/2
 3342 002e 24       		.byte	(.L404-.L405)/2
 3343 002f 00       		.p2align 1
 3344              	.L410:
 3345 0030 0068     		ldr	r0, [r0]
 3346 0032 FFF7FEFF 		bl	TIM_OC1_SetConfig
 3347 0036 0020     		movs	r0, #0
 3348 0038 19E0     		b	.L403
 3349              	.L409:
 3350 003a 0068     		ldr	r0, [r0]
 3351 003c FFF7FEFF 		bl	TIM_OC2_SetConfig
 3352 0040 0020     		movs	r0, #0
 3353 0042 14E0     		b	.L403
 3354              	.L408:
 3355 0044 0068     		ldr	r0, [r0]
ARM GAS  C:\Temp\ccqmCX5l.s 			page 57


 3356 0046 FFF7FEFF 		bl	TIM_OC3_SetConfig
 3357 004a 0020     		movs	r0, #0
 3358 004c 0FE0     		b	.L403
 3359              	.L407:
 3360 004e 0068     		ldr	r0, [r0]
 3361 0050 FFF7FEFF 		bl	TIM_OC4_SetConfig
 3362 0054 0020     		movs	r0, #0
 3363 0056 0AE0     		b	.L403
 3364              	.L406:
 3365 0058 0068     		ldr	r0, [r0]
 3366 005a FFF7FEFF 		bl	TIM_OC5_SetConfig
 3367 005e 0020     		movs	r0, #0
 3368 0060 05E0     		b	.L403
 3369              	.L404:
 3370 0062 0068     		ldr	r0, [r0]
 3371 0064 FFF7FEFF 		bl	TIM_OC6_SetConfig
 3372 0068 0020     		movs	r0, #0
 3373 006a 00E0     		b	.L403
 3374              	.L412:
 3375 006c 0120     		movs	r0, #1
 3376              	.L403:
 3377 006e 0023     		movs	r3, #0
 3378 0070 84F83C30 		strb	r3, [r4, #60]
 3379 0074 10BD     		pop	{r4, pc}
 3380              	.L411:
 3381 0076 0220     		movs	r0, #2
 3382 0078 7047     		bx	lr
 3384              		.section	.text.HAL_TIM_PWM_ConfigChannel,"ax",%progbits
 3385              		.align	1
 3386              		.global	HAL_TIM_PWM_ConfigChannel
 3387              		.syntax unified
 3388              		.thumb
 3389              		.thumb_func
 3391              	HAL_TIM_PWM_ConfigChannel:
 3392              		@ args = 0, pretend = 0, frame = 0
 3393              		@ frame_needed = 0, uses_anonymous_args = 0
 3394 0000 38B5     		push	{r3, r4, r5, lr}
 3395 0002 90F83C30 		ldrb	r3, [r0, #60]	@ zero_extendqisi2
 3396 0006 012B     		cmp	r3, #1
 3397 0008 00F09580 		beq	.L427
 3398 000c 0446     		mov	r4, r0
 3399 000e 0D46     		mov	r5, r1
 3400 0010 0123     		movs	r3, #1
 3401 0012 80F83C30 		strb	r3, [r0, #60]
 3402 0016 142A     		cmp	r2, #20
 3403 0018 00F28880 		bhi	.L428
 3404 001c DFE802F0 		tbb	[pc, r2]
 3405              	.L421:
 3406 0020 0B       		.byte	(.L426-.L421)/2
 3407 0021 86       		.byte	(.L428-.L421)/2
 3408 0022 86       		.byte	(.L428-.L421)/2
 3409 0023 86       		.byte	(.L428-.L421)/2
 3410 0024 1F       		.byte	(.L425-.L421)/2
 3411 0025 86       		.byte	(.L428-.L421)/2
 3412 0026 86       		.byte	(.L428-.L421)/2
 3413 0027 86       		.byte	(.L428-.L421)/2
 3414 0028 34       		.byte	(.L424-.L421)/2
ARM GAS  C:\Temp\ccqmCX5l.s 			page 58


 3415 0029 86       		.byte	(.L428-.L421)/2
 3416 002a 86       		.byte	(.L428-.L421)/2
 3417 002b 86       		.byte	(.L428-.L421)/2
 3418 002c 48       		.byte	(.L423-.L421)/2
 3419 002d 86       		.byte	(.L428-.L421)/2
 3420 002e 86       		.byte	(.L428-.L421)/2
 3421 002f 86       		.byte	(.L428-.L421)/2
 3422 0030 5D       		.byte	(.L422-.L421)/2
 3423 0031 86       		.byte	(.L428-.L421)/2
 3424 0032 86       		.byte	(.L428-.L421)/2
 3425 0033 86       		.byte	(.L428-.L421)/2
 3426 0034 71       		.byte	(.L420-.L421)/2
 3427 0035 00       		.p2align 1
 3428              	.L426:
 3429 0036 0068     		ldr	r0, [r0]
 3430 0038 FFF7FEFF 		bl	TIM_OC1_SetConfig
 3431 003c 2268     		ldr	r2, [r4]
 3432 003e 9369     		ldr	r3, [r2, #24]
 3433 0040 43F00803 		orr	r3, r3, #8
 3434 0044 9361     		str	r3, [r2, #24]
 3435 0046 2268     		ldr	r2, [r4]
 3436 0048 9369     		ldr	r3, [r2, #24]
 3437 004a 23F00403 		bic	r3, r3, #4
 3438 004e 9361     		str	r3, [r2, #24]
 3439 0050 2268     		ldr	r2, [r4]
 3440 0052 9369     		ldr	r3, [r2, #24]
 3441 0054 2969     		ldr	r1, [r5, #16]
 3442 0056 0B43     		orrs	r3, r3, r1
 3443 0058 9361     		str	r3, [r2, #24]
 3444 005a 0020     		movs	r0, #0
 3445 005c 67E0     		b	.L419
 3446              	.L425:
 3447 005e 0068     		ldr	r0, [r0]
 3448 0060 FFF7FEFF 		bl	TIM_OC2_SetConfig
 3449 0064 2268     		ldr	r2, [r4]
 3450 0066 9369     		ldr	r3, [r2, #24]
 3451 0068 43F40063 		orr	r3, r3, #2048
 3452 006c 9361     		str	r3, [r2, #24]
 3453 006e 2268     		ldr	r2, [r4]
 3454 0070 9369     		ldr	r3, [r2, #24]
 3455 0072 23F48063 		bic	r3, r3, #1024
 3456 0076 9361     		str	r3, [r2, #24]
 3457 0078 2268     		ldr	r2, [r4]
 3458 007a 9369     		ldr	r3, [r2, #24]
 3459 007c 2969     		ldr	r1, [r5, #16]
 3460 007e 43EA0123 		orr	r3, r3, r1, lsl #8
 3461 0082 9361     		str	r3, [r2, #24]
 3462 0084 0020     		movs	r0, #0
 3463 0086 52E0     		b	.L419
 3464              	.L424:
 3465 0088 0068     		ldr	r0, [r0]
 3466 008a FFF7FEFF 		bl	TIM_OC3_SetConfig
 3467 008e 2268     		ldr	r2, [r4]
 3468 0090 D369     		ldr	r3, [r2, #28]
 3469 0092 43F00803 		orr	r3, r3, #8
 3470 0096 D361     		str	r3, [r2, #28]
 3471 0098 2268     		ldr	r2, [r4]
ARM GAS  C:\Temp\ccqmCX5l.s 			page 59


 3472 009a D369     		ldr	r3, [r2, #28]
 3473 009c 23F00403 		bic	r3, r3, #4
 3474 00a0 D361     		str	r3, [r2, #28]
 3475 00a2 2268     		ldr	r2, [r4]
 3476 00a4 D369     		ldr	r3, [r2, #28]
 3477 00a6 2969     		ldr	r1, [r5, #16]
 3478 00a8 0B43     		orrs	r3, r3, r1
 3479 00aa D361     		str	r3, [r2, #28]
 3480 00ac 0020     		movs	r0, #0
 3481 00ae 3EE0     		b	.L419
 3482              	.L423:
 3483 00b0 0068     		ldr	r0, [r0]
 3484 00b2 FFF7FEFF 		bl	TIM_OC4_SetConfig
 3485 00b6 2268     		ldr	r2, [r4]
 3486 00b8 D369     		ldr	r3, [r2, #28]
 3487 00ba 43F40063 		orr	r3, r3, #2048
 3488 00be D361     		str	r3, [r2, #28]
 3489 00c0 2268     		ldr	r2, [r4]
 3490 00c2 D369     		ldr	r3, [r2, #28]
 3491 00c4 23F48063 		bic	r3, r3, #1024
 3492 00c8 D361     		str	r3, [r2, #28]
 3493 00ca 2268     		ldr	r2, [r4]
 3494 00cc D369     		ldr	r3, [r2, #28]
 3495 00ce 2969     		ldr	r1, [r5, #16]
 3496 00d0 43EA0123 		orr	r3, r3, r1, lsl #8
 3497 00d4 D361     		str	r3, [r2, #28]
 3498 00d6 0020     		movs	r0, #0
 3499 00d8 29E0     		b	.L419
 3500              	.L422:
 3501 00da 0068     		ldr	r0, [r0]
 3502 00dc FFF7FEFF 		bl	TIM_OC5_SetConfig
 3503 00e0 2268     		ldr	r2, [r4]
 3504 00e2 536D     		ldr	r3, [r2, #84]
 3505 00e4 43F00803 		orr	r3, r3, #8
 3506 00e8 5365     		str	r3, [r2, #84]
 3507 00ea 2268     		ldr	r2, [r4]
 3508 00ec 536D     		ldr	r3, [r2, #84]
 3509 00ee 23F00403 		bic	r3, r3, #4
 3510 00f2 5365     		str	r3, [r2, #84]
 3511 00f4 2268     		ldr	r2, [r4]
 3512 00f6 536D     		ldr	r3, [r2, #84]
 3513 00f8 2969     		ldr	r1, [r5, #16]
 3514 00fa 0B43     		orrs	r3, r3, r1
 3515 00fc 5365     		str	r3, [r2, #84]
 3516 00fe 0020     		movs	r0, #0
 3517 0100 15E0     		b	.L419
 3518              	.L420:
 3519 0102 0068     		ldr	r0, [r0]
 3520 0104 FFF7FEFF 		bl	TIM_OC6_SetConfig
 3521 0108 2268     		ldr	r2, [r4]
 3522 010a 536D     		ldr	r3, [r2, #84]
 3523 010c 43F40063 		orr	r3, r3, #2048
 3524 0110 5365     		str	r3, [r2, #84]
 3525 0112 2268     		ldr	r2, [r4]
 3526 0114 536D     		ldr	r3, [r2, #84]
 3527 0116 23F48063 		bic	r3, r3, #1024
 3528 011a 5365     		str	r3, [r2, #84]
ARM GAS  C:\Temp\ccqmCX5l.s 			page 60


 3529 011c 2268     		ldr	r2, [r4]
 3530 011e 536D     		ldr	r3, [r2, #84]
 3531 0120 2969     		ldr	r1, [r5, #16]
 3532 0122 43EA0123 		orr	r3, r3, r1, lsl #8
 3533 0126 5365     		str	r3, [r2, #84]
 3534 0128 0020     		movs	r0, #0
 3535 012a 00E0     		b	.L419
 3536              	.L428:
 3537 012c 0120     		movs	r0, #1
 3538              	.L419:
 3539 012e 0023     		movs	r3, #0
 3540 0130 84F83C30 		strb	r3, [r4, #60]
 3541              	.L418:
 3542 0134 38BD     		pop	{r3, r4, r5, pc}
 3543              	.L427:
 3544 0136 0220     		movs	r0, #2
 3545 0138 FCE7     		b	.L418
 3547              		.section	.text.TIM_TI1_SetConfig,"ax",%progbits
 3548              		.align	1
 3549              		.global	TIM_TI1_SetConfig
 3550              		.syntax unified
 3551              		.thumb
 3552              		.thumb_func
 3554              	TIM_TI1_SetConfig:
 3555              		@ args = 0, pretend = 0, frame = 0
 3556              		@ frame_needed = 0, uses_anonymous_args = 0
 3557              		@ link register save eliminated.
 3558 0000 70B4     		push	{r4, r5, r6}
 3559 0002 9446     		mov	ip, r2
 3560 0004 066A     		ldr	r6, [r0, #32]
 3561 0006 046A     		ldr	r4, [r0, #32]
 3562 0008 24F00104 		bic	r4, r4, #1
 3563 000c 0462     		str	r4, [r0, #32]
 3564 000e 8469     		ldr	r4, [r0, #24]
 3565 0010 164D     		ldr	r5, .L434
 3566 0012 A842     		cmp	r0, r5
 3567 0014 18D0     		beq	.L431
 3568 0016 B0F1804F 		cmp	r0, #1073741824
 3569 001a 15D0     		beq	.L431
 3570 001c 144A     		ldr	r2, .L434+4
 3571 001e 9042     		cmp	r0, r2
 3572 0020 12D0     		beq	.L431
 3573 0022 02F58062 		add	r2, r2, #1024
 3574 0026 9042     		cmp	r0, r2
 3575 0028 0ED0     		beq	.L431
 3576 002a 02F59632 		add	r2, r2, #76800
 3577 002e 9042     		cmp	r0, r2
 3578 0030 0AD0     		beq	.L431
 3579 0032 02F54062 		add	r2, r2, #3072
 3580 0036 9042     		cmp	r0, r2
 3581 0038 06D0     		beq	.L431
 3582 003a 02F58052 		add	r2, r2, #4096
 3583 003e 9042     		cmp	r0, r2
 3584 0040 02D0     		beq	.L431
 3585 0042 44F00102 		orr	r2, r4, #1
 3586 0046 03E0     		b	.L432
 3587              	.L431:
ARM GAS  C:\Temp\ccqmCX5l.s 			page 61


 3588 0048 24F00302 		bic	r2, r4, #3
 3589 004c 42EA0C02 		orr	r2, r2, ip
 3590              	.L432:
 3591 0050 22F0F002 		bic	r2, r2, #240
 3592 0054 1B01     		lsls	r3, r3, #4
 3593 0056 DBB2     		uxtb	r3, r3
 3594 0058 1343     		orrs	r3, r3, r2
 3595 005a 26F00A02 		bic	r2, r6, #10
 3596 005e 01F00A01 		and	r1, r1, #10
 3597 0062 1143     		orrs	r1, r1, r2
 3598 0064 8361     		str	r3, [r0, #24]
 3599 0066 0162     		str	r1, [r0, #32]
 3600 0068 70BC     		pop	{r4, r5, r6}
 3601 006a 7047     		bx	lr
 3602              	.L435:
 3603              		.align	2
 3604              	.L434:
 3605 006c 002C0140 		.word	1073818624
 3606 0070 00040040 		.word	1073742848
 3608              		.section	.text.HAL_TIM_IC_ConfigChannel,"ax",%progbits
 3609              		.align	1
 3610              		.global	HAL_TIM_IC_ConfigChannel
 3611              		.syntax unified
 3612              		.thumb
 3613              		.thumb_func
 3615              	HAL_TIM_IC_ConfigChannel:
 3616              		@ args = 0, pretend = 0, frame = 0
 3617              		@ frame_needed = 0, uses_anonymous_args = 0
 3618 0000 38B5     		push	{r3, r4, r5, lr}
 3619 0002 90F83C30 		ldrb	r3, [r0, #60]	@ zero_extendqisi2
 3620 0006 012B     		cmp	r3, #1
 3621 0008 5AD0     		beq	.L442
 3622 000a 0446     		mov	r4, r0
 3623 000c 0D46     		mov	r5, r1
 3624 000e 0123     		movs	r3, #1
 3625 0010 80F83C30 		strb	r3, [r0, #60]
 3626 0014 52B1     		cbz	r2, .L445
 3627 0016 042A     		cmp	r2, #4
 3628 0018 1AD0     		beq	.L446
 3629 001a 082A     		cmp	r2, #8
 3630 001c 2BD0     		beq	.L447
 3631 001e 0C2A     		cmp	r2, #12
 3632 0020 3BD0     		beq	.L448
 3633 0022 0120     		movs	r0, #1
 3634              	.L439:
 3635 0024 0023     		movs	r3, #0
 3636 0026 84F83C30 		strb	r3, [r4, #60]
 3637              	.L437:
 3638 002a 38BD     		pop	{r3, r4, r5, pc}
 3639              	.L445:
 3640 002c CB68     		ldr	r3, [r1, #12]
 3641 002e 4A68     		ldr	r2, [r1, #4]
 3642 0030 0968     		ldr	r1, [r1]
 3643 0032 0068     		ldr	r0, [r0]
 3644 0034 FFF7FEFF 		bl	TIM_TI1_SetConfig
 3645 0038 2268     		ldr	r2, [r4]
 3646 003a 9369     		ldr	r3, [r2, #24]
ARM GAS  C:\Temp\ccqmCX5l.s 			page 62


 3647 003c 23F00C03 		bic	r3, r3, #12
 3648 0040 9361     		str	r3, [r2, #24]
 3649 0042 2268     		ldr	r2, [r4]
 3650 0044 9369     		ldr	r3, [r2, #24]
 3651 0046 A968     		ldr	r1, [r5, #8]
 3652 0048 0B43     		orrs	r3, r3, r1
 3653 004a 9361     		str	r3, [r2, #24]
 3654 004c 0020     		movs	r0, #0
 3655 004e E9E7     		b	.L439
 3656              	.L446:
 3657 0050 CB68     		ldr	r3, [r1, #12]
 3658 0052 4A68     		ldr	r2, [r1, #4]
 3659 0054 0968     		ldr	r1, [r1]
 3660 0056 0068     		ldr	r0, [r0]
 3661 0058 FFF7FEFF 		bl	TIM_TI2_SetConfig
 3662 005c 2268     		ldr	r2, [r4]
 3663 005e 9369     		ldr	r3, [r2, #24]
 3664 0060 23F44063 		bic	r3, r3, #3072
 3665 0064 9361     		str	r3, [r2, #24]
 3666 0066 2268     		ldr	r2, [r4]
 3667 0068 9369     		ldr	r3, [r2, #24]
 3668 006a A968     		ldr	r1, [r5, #8]
 3669 006c 43EA0123 		orr	r3, r3, r1, lsl #8
 3670 0070 9361     		str	r3, [r2, #24]
 3671 0072 0020     		movs	r0, #0
 3672 0074 D6E7     		b	.L439
 3673              	.L447:
 3674 0076 CB68     		ldr	r3, [r1, #12]
 3675 0078 4A68     		ldr	r2, [r1, #4]
 3676 007a 0968     		ldr	r1, [r1]
 3677 007c 0068     		ldr	r0, [r0]
 3678 007e FFF7FEFF 		bl	TIM_TI3_SetConfig
 3679 0082 2268     		ldr	r2, [r4]
 3680 0084 D369     		ldr	r3, [r2, #28]
 3681 0086 23F00C03 		bic	r3, r3, #12
 3682 008a D361     		str	r3, [r2, #28]
 3683 008c 2268     		ldr	r2, [r4]
 3684 008e D369     		ldr	r3, [r2, #28]
 3685 0090 A968     		ldr	r1, [r5, #8]
 3686 0092 0B43     		orrs	r3, r3, r1
 3687 0094 D361     		str	r3, [r2, #28]
 3688 0096 0020     		movs	r0, #0
 3689 0098 C4E7     		b	.L439
 3690              	.L448:
 3691 009a CB68     		ldr	r3, [r1, #12]
 3692 009c 4A68     		ldr	r2, [r1, #4]
 3693 009e 0968     		ldr	r1, [r1]
 3694 00a0 0068     		ldr	r0, [r0]
 3695 00a2 FFF7FEFF 		bl	TIM_TI4_SetConfig
 3696 00a6 2268     		ldr	r2, [r4]
 3697 00a8 D369     		ldr	r3, [r2, #28]
 3698 00aa 23F44063 		bic	r3, r3, #3072
 3699 00ae D361     		str	r3, [r2, #28]
 3700 00b0 2268     		ldr	r2, [r4]
 3701 00b2 D369     		ldr	r3, [r2, #28]
 3702 00b4 A968     		ldr	r1, [r5, #8]
 3703 00b6 43EA0123 		orr	r3, r3, r1, lsl #8
ARM GAS  C:\Temp\ccqmCX5l.s 			page 63


 3704 00ba D361     		str	r3, [r2, #28]
 3705 00bc 0020     		movs	r0, #0
 3706 00be B1E7     		b	.L439
 3707              	.L442:
 3708 00c0 0220     		movs	r0, #2
 3709 00c2 B2E7     		b	.L437
 3711              		.section	.text.HAL_TIM_OnePulse_ConfigChannel,"ax",%progbits
 3712              		.align	1
 3713              		.global	HAL_TIM_OnePulse_ConfigChannel
 3714              		.syntax unified
 3715              		.thumb
 3716              		.thumb_func
 3718              	HAL_TIM_OnePulse_ConfigChannel:
 3719              		@ args = 0, pretend = 0, frame = 32
 3720              		@ frame_needed = 0, uses_anonymous_args = 0
 3721 0000 9A42     		cmp	r2, r3
 3722 0002 7AD0     		beq	.L457
 3723 0004 70B5     		push	{r4, r5, r6, lr}
 3724 0006 88B0     		sub	sp, sp, #32
 3725 0008 0446     		mov	r4, r0
 3726 000a 0D46     		mov	r5, r1
 3727 000c 1E46     		mov	r6, r3
 3728 000e 90F83C30 		ldrb	r3, [r0, #60]	@ zero_extendqisi2
 3729 0012 012B     		cmp	r3, #1
 3730 0014 73D0     		beq	.L458
 3731 0016 0123     		movs	r3, #1
 3732 0018 80F83C30 		strb	r3, [r0, #60]
 3733 001c 0223     		movs	r3, #2
 3734 001e 80F83D30 		strb	r3, [r0, #61]
 3735 0022 0B68     		ldr	r3, [r1]
 3736 0024 0193     		str	r3, [sp, #4]
 3737 0026 4B68     		ldr	r3, [r1, #4]
 3738 0028 0293     		str	r3, [sp, #8]
 3739 002a 8B68     		ldr	r3, [r1, #8]
 3740 002c 0393     		str	r3, [sp, #12]
 3741 002e CB68     		ldr	r3, [r1, #12]
 3742 0030 0493     		str	r3, [sp, #16]
 3743 0032 0B69     		ldr	r3, [r1, #16]
 3744 0034 0693     		str	r3, [sp, #24]
 3745 0036 4B69     		ldr	r3, [r1, #20]
 3746 0038 0793     		str	r3, [sp, #28]
 3747 003a 52B1     		cbz	r2, .L451
 3748 003c 042A     		cmp	r2, #4
 3749 003e 11D0     		beq	.L452
 3750 0040 0120     		movs	r0, #1
 3751              	.L453:
 3752 0042 0123     		movs	r3, #1
 3753 0044 84F83D30 		strb	r3, [r4, #61]
 3754 0048 0023     		movs	r3, #0
 3755 004a 84F83C30 		strb	r3, [r4, #60]
 3756              	.L450:
 3757 004e 08B0     		add	sp, sp, #32
 3758              		@ sp needed
 3759 0050 70BD     		pop	{r4, r5, r6, pc}
 3760              	.L451:
 3761 0052 01A9     		add	r1, sp, #4
 3762 0054 0068     		ldr	r0, [r0]
ARM GAS  C:\Temp\ccqmCX5l.s 			page 64


 3763 0056 FFF7FEFF 		bl	TIM_OC1_SetConfig
 3764              	.L454:
 3765 005a 46B1     		cbz	r6, .L455
 3766 005c 042E     		cmp	r6, #4
 3767 005e 29D0     		beq	.L456
 3768 0060 0120     		movs	r0, #1
 3769 0062 EEE7     		b	.L453
 3770              	.L452:
 3771 0064 01A9     		add	r1, sp, #4
 3772 0066 0068     		ldr	r0, [r0]
 3773 0068 FFF7FEFF 		bl	TIM_OC2_SetConfig
 3774 006c F5E7     		b	.L454
 3775              	.L455:
 3776 006e 2B6A     		ldr	r3, [r5, #32]
 3777 0070 EA69     		ldr	r2, [r5, #28]
 3778 0072 A969     		ldr	r1, [r5, #24]
 3779 0074 2068     		ldr	r0, [r4]
 3780 0076 FFF7FEFF 		bl	TIM_TI1_SetConfig
 3781 007a 2268     		ldr	r2, [r4]
 3782 007c 9369     		ldr	r3, [r2, #24]
 3783 007e 23F00C03 		bic	r3, r3, #12
 3784 0082 9361     		str	r3, [r2, #24]
 3785 0084 2268     		ldr	r2, [r4]
 3786 0086 9368     		ldr	r3, [r2, #8]
 3787 0088 23F07003 		bic	r3, r3, #112
 3788 008c 9360     		str	r3, [r2, #8]
 3789 008e 2268     		ldr	r2, [r4]
 3790 0090 9368     		ldr	r3, [r2, #8]
 3791 0092 43F05003 		orr	r3, r3, #80
 3792 0096 9360     		str	r3, [r2, #8]
 3793 0098 2268     		ldr	r2, [r4]
 3794 009a 9368     		ldr	r3, [r2, #8]
 3795 009c 23F48033 		bic	r3, r3, #65536
 3796 00a0 23F00703 		bic	r3, r3, #7
 3797 00a4 9360     		str	r3, [r2, #8]
 3798 00a6 2268     		ldr	r2, [r4]
 3799 00a8 9368     		ldr	r3, [r2, #8]
 3800 00aa 43F00603 		orr	r3, r3, #6
 3801 00ae 9360     		str	r3, [r2, #8]
 3802 00b0 0020     		movs	r0, #0
 3803 00b2 C6E7     		b	.L453
 3804              	.L456:
 3805 00b4 2B6A     		ldr	r3, [r5, #32]
 3806 00b6 EA69     		ldr	r2, [r5, #28]
 3807 00b8 A969     		ldr	r1, [r5, #24]
 3808 00ba 2068     		ldr	r0, [r4]
 3809 00bc FFF7FEFF 		bl	TIM_TI2_SetConfig
 3810 00c0 2268     		ldr	r2, [r4]
 3811 00c2 9369     		ldr	r3, [r2, #24]
 3812 00c4 23F44063 		bic	r3, r3, #3072
 3813 00c8 9361     		str	r3, [r2, #24]
 3814 00ca 2268     		ldr	r2, [r4]
 3815 00cc 9368     		ldr	r3, [r2, #8]
 3816 00ce 23F07003 		bic	r3, r3, #112
 3817 00d2 9360     		str	r3, [r2, #8]
 3818 00d4 2268     		ldr	r2, [r4]
 3819 00d6 9368     		ldr	r3, [r2, #8]
ARM GAS  C:\Temp\ccqmCX5l.s 			page 65


 3820 00d8 43F06003 		orr	r3, r3, #96
 3821 00dc 9360     		str	r3, [r2, #8]
 3822 00de 2268     		ldr	r2, [r4]
 3823 00e0 9368     		ldr	r3, [r2, #8]
 3824 00e2 23F48033 		bic	r3, r3, #65536
 3825 00e6 23F00703 		bic	r3, r3, #7
 3826 00ea 9360     		str	r3, [r2, #8]
 3827 00ec 2268     		ldr	r2, [r4]
 3828 00ee 9368     		ldr	r3, [r2, #8]
 3829 00f0 43F00603 		orr	r3, r3, #6
 3830 00f4 9360     		str	r3, [r2, #8]
 3831 00f6 0020     		movs	r0, #0
 3832 00f8 A3E7     		b	.L453
 3833              	.L457:
 3834 00fa 0120     		movs	r0, #1
 3835 00fc 7047     		bx	lr
 3836              	.L458:
 3837 00fe 0220     		movs	r0, #2
 3838 0100 A5E7     		b	.L450
 3840              		.section	.text.TIM_ETR_SetConfig,"ax",%progbits
 3841              		.align	1
 3842              		.global	TIM_ETR_SetConfig
 3843              		.syntax unified
 3844              		.thumb
 3845              		.thumb_func
 3847              	TIM_ETR_SetConfig:
 3848              		@ args = 0, pretend = 0, frame = 0
 3849              		@ frame_needed = 0, uses_anonymous_args = 0
 3850              		@ link register save eliminated.
 3851 0000 10B4     		push	{r4}
 3852 0002 8468     		ldr	r4, [r0, #8]
 3853 0004 24F47F4C 		bic	ip, r4, #65280
 3854 0008 42EA0322 		orr	r2, r2, r3, lsl #8
 3855 000c 0A43     		orrs	r2, r2, r1
 3856 000e 42EA0C02 		orr	r2, r2, ip
 3857 0012 8260     		str	r2, [r0, #8]
 3858 0014 5DF8044B 		ldr	r4, [sp], #4
 3859 0018 7047     		bx	lr
 3861              		.section	.text.HAL_TIM_ConfigOCrefClear,"ax",%progbits
 3862              		.align	1
 3863              		.global	HAL_TIM_ConfigOCrefClear
 3864              		.syntax unified
 3865              		.thumb
 3866              		.thumb_func
 3868              	HAL_TIM_ConfigOCrefClear:
 3869              		@ args = 0, pretend = 0, frame = 0
 3870              		@ frame_needed = 0, uses_anonymous_args = 0
 3871 0000 90F83C30 		ldrb	r3, [r0, #60]	@ zero_extendqisi2
 3872 0004 012B     		cmp	r3, #1
 3873 0006 00F0AB80 		beq	.L485
 3874 000a 70B5     		push	{r4, r5, r6, lr}
 3875 000c 0446     		mov	r4, r0
 3876 000e 0D46     		mov	r5, r1
 3877 0010 1646     		mov	r6, r2
 3878 0012 0123     		movs	r3, #1
 3879 0014 80F83C30 		strb	r3, [r0, #60]
 3880 0018 0223     		movs	r3, #2
ARM GAS  C:\Temp\ccqmCX5l.s 			page 66


 3881 001a 80F83D30 		strb	r3, [r0, #61]
 3882 001e 4B68     		ldr	r3, [r1, #4]
 3883 0020 012B     		cmp	r3, #1
 3884 0022 27D0     		beq	.L467
 3885 0024 022B     		cmp	r3, #2
 3886 0026 1FD0     		beq	.L468
 3887 0028 3BB1     		cbz	r3, .L492
 3888 002a 0120     		movs	r0, #1
 3889              	.L469:
 3890 002c 0123     		movs	r3, #1
 3891 002e 84F83D30 		strb	r3, [r4, #61]
 3892 0032 0023     		movs	r3, #0
 3893 0034 84F83C30 		strb	r3, [r4, #60]
 3894              	.L466:
 3895 0038 70BD     		pop	{r4, r5, r6, pc}
 3896              	.L492:
 3897 003a 0268     		ldr	r2, [r0]
 3898 003c 9368     		ldr	r3, [r2, #8]
 3899 003e 23F47F43 		bic	r3, r3, #65280
 3900 0042 23F00803 		bic	r3, r3, #8
 3901 0046 9360     		str	r3, [r2, #8]
 3902              	.L470:
 3903 0048 142E     		cmp	r6, #20
 3904 004a 00F28780 		bhi	.L487
 3905 004e DFE806F0 		tbb	[pc, r6]
 3906              	.L473:
 3907 0052 25       		.byte	(.L478-.L473)/2
 3908 0053 85       		.byte	(.L487-.L473)/2
 3909 0054 85       		.byte	(.L487-.L473)/2
 3910 0055 85       		.byte	(.L487-.L473)/2
 3911 0056 35       		.byte	(.L477-.L473)/2
 3912 0057 85       		.byte	(.L487-.L473)/2
 3913 0058 85       		.byte	(.L487-.L473)/2
 3914 0059 85       		.byte	(.L487-.L473)/2
 3915 005a 45       		.byte	(.L476-.L473)/2
 3916 005b 85       		.byte	(.L487-.L473)/2
 3917 005c 85       		.byte	(.L487-.L473)/2
 3918 005d 85       		.byte	(.L487-.L473)/2
 3919 005e 55       		.byte	(.L475-.L473)/2
 3920 005f 85       		.byte	(.L487-.L473)/2
 3921 0060 85       		.byte	(.L487-.L473)/2
 3922 0061 85       		.byte	(.L487-.L473)/2
 3923 0062 65       		.byte	(.L474-.L473)/2
 3924 0063 85       		.byte	(.L487-.L473)/2
 3925 0064 85       		.byte	(.L487-.L473)/2
 3926 0065 85       		.byte	(.L487-.L473)/2
 3927 0066 75       		.byte	(.L472-.L473)/2
 3928 0067 00       		.p2align 1
 3929              	.L468:
 3930 0068 0268     		ldr	r2, [r0]
 3931 006a 9368     		ldr	r3, [r2, #8]
 3932 006c 23F00803 		bic	r3, r3, #8
 3933 0070 9360     		str	r3, [r2, #8]
 3934 0072 E9E7     		b	.L470
 3935              	.L467:
 3936 0074 C968     		ldr	r1, [r1, #12]
 3937 0076 31B1     		cbz	r1, .L471
ARM GAS  C:\Temp\ccqmCX5l.s 			page 67


 3938 0078 0120     		movs	r0, #1
 3939 007a 84F83D00 		strb	r0, [r4, #61]
 3940 007e 0023     		movs	r3, #0
 3941 0080 84F83C30 		strb	r3, [r4, #60]
 3942 0084 D8E7     		b	.L466
 3943              	.L471:
 3944 0086 2B69     		ldr	r3, [r5, #16]
 3945 0088 AA68     		ldr	r2, [r5, #8]
 3946 008a 0068     		ldr	r0, [r0]
 3947 008c FFF7FEFF 		bl	TIM_ETR_SetConfig
 3948 0090 2268     		ldr	r2, [r4]
 3949 0092 9368     		ldr	r3, [r2, #8]
 3950 0094 43F00803 		orr	r3, r3, #8
 3951 0098 9360     		str	r3, [r2, #8]
 3952 009a D5E7     		b	.L470
 3953              	.L478:
 3954 009c 2B68     		ldr	r3, [r5]
 3955 009e 33B1     		cbz	r3, .L479
 3956 00a0 2268     		ldr	r2, [r4]
 3957 00a2 9369     		ldr	r3, [r2, #24]
 3958 00a4 43F08003 		orr	r3, r3, #128
 3959 00a8 9361     		str	r3, [r2, #24]
 3960 00aa 0020     		movs	r0, #0
 3961 00ac BEE7     		b	.L469
 3962              	.L479:
 3963 00ae 2268     		ldr	r2, [r4]
 3964 00b0 9369     		ldr	r3, [r2, #24]
 3965 00b2 23F08003 		bic	r3, r3, #128
 3966 00b6 9361     		str	r3, [r2, #24]
 3967 00b8 0020     		movs	r0, #0
 3968 00ba B7E7     		b	.L469
 3969              	.L477:
 3970 00bc 2B68     		ldr	r3, [r5]
 3971 00be 33B1     		cbz	r3, .L480
 3972 00c0 2268     		ldr	r2, [r4]
 3973 00c2 9369     		ldr	r3, [r2, #24]
 3974 00c4 43F40043 		orr	r3, r3, #32768
 3975 00c8 9361     		str	r3, [r2, #24]
 3976 00ca 0020     		movs	r0, #0
 3977 00cc AEE7     		b	.L469
 3978              	.L480:
 3979 00ce 2268     		ldr	r2, [r4]
 3980 00d0 9369     		ldr	r3, [r2, #24]
 3981 00d2 23F40043 		bic	r3, r3, #32768
 3982 00d6 9361     		str	r3, [r2, #24]
 3983 00d8 0020     		movs	r0, #0
 3984 00da A7E7     		b	.L469
 3985              	.L476:
 3986 00dc 2B68     		ldr	r3, [r5]
 3987 00de 33B1     		cbz	r3, .L481
 3988 00e0 2268     		ldr	r2, [r4]
 3989 00e2 D369     		ldr	r3, [r2, #28]
 3990 00e4 43F08003 		orr	r3, r3, #128
 3991 00e8 D361     		str	r3, [r2, #28]
 3992 00ea 0020     		movs	r0, #0
 3993 00ec 9EE7     		b	.L469
 3994              	.L481:
ARM GAS  C:\Temp\ccqmCX5l.s 			page 68


 3995 00ee 2268     		ldr	r2, [r4]
 3996 00f0 D369     		ldr	r3, [r2, #28]
 3997 00f2 23F08003 		bic	r3, r3, #128
 3998 00f6 D361     		str	r3, [r2, #28]
 3999 00f8 0020     		movs	r0, #0
 4000 00fa 97E7     		b	.L469
 4001              	.L475:
 4002 00fc 2B68     		ldr	r3, [r5]
 4003 00fe 33B1     		cbz	r3, .L482
 4004 0100 2268     		ldr	r2, [r4]
 4005 0102 D369     		ldr	r3, [r2, #28]
 4006 0104 43F40043 		orr	r3, r3, #32768
 4007 0108 D361     		str	r3, [r2, #28]
 4008 010a 0020     		movs	r0, #0
 4009 010c 8EE7     		b	.L469
 4010              	.L482:
 4011 010e 2268     		ldr	r2, [r4]
 4012 0110 D369     		ldr	r3, [r2, #28]
 4013 0112 23F40043 		bic	r3, r3, #32768
 4014 0116 D361     		str	r3, [r2, #28]
 4015 0118 0020     		movs	r0, #0
 4016 011a 87E7     		b	.L469
 4017              	.L474:
 4018 011c 2B68     		ldr	r3, [r5]
 4019 011e 33B1     		cbz	r3, .L483
 4020 0120 2268     		ldr	r2, [r4]
 4021 0122 536D     		ldr	r3, [r2, #84]
 4022 0124 43F08003 		orr	r3, r3, #128
 4023 0128 5365     		str	r3, [r2, #84]
 4024 012a 0020     		movs	r0, #0
 4025 012c 7EE7     		b	.L469
 4026              	.L483:
 4027 012e 2268     		ldr	r2, [r4]
 4028 0130 536D     		ldr	r3, [r2, #84]
 4029 0132 23F08003 		bic	r3, r3, #128
 4030 0136 5365     		str	r3, [r2, #84]
 4031 0138 0020     		movs	r0, #0
 4032 013a 77E7     		b	.L469
 4033              	.L472:
 4034 013c 2B68     		ldr	r3, [r5]
 4035 013e 33B1     		cbz	r3, .L484
 4036 0140 2268     		ldr	r2, [r4]
 4037 0142 536D     		ldr	r3, [r2, #84]
 4038 0144 43F40043 		orr	r3, r3, #32768
 4039 0148 5365     		str	r3, [r2, #84]
 4040 014a 0020     		movs	r0, #0
 4041 014c 6EE7     		b	.L469
 4042              	.L484:
 4043 014e 2268     		ldr	r2, [r4]
 4044 0150 536D     		ldr	r3, [r2, #84]
 4045 0152 23F40043 		bic	r3, r3, #32768
 4046 0156 5365     		str	r3, [r2, #84]
 4047 0158 0020     		movs	r0, #0
 4048 015a 67E7     		b	.L469
 4049              	.L487:
 4050 015c 0020     		movs	r0, #0
 4051 015e 65E7     		b	.L469
ARM GAS  C:\Temp\ccqmCX5l.s 			page 69


 4052              	.L485:
 4053 0160 0220     		movs	r0, #2
 4054 0162 7047     		bx	lr
 4056              		.section	.text.HAL_TIM_ConfigClockSource,"ax",%progbits
 4057              		.align	1
 4058              		.global	HAL_TIM_ConfigClockSource
 4059              		.syntax unified
 4060              		.thumb
 4061              		.thumb_func
 4063              	HAL_TIM_ConfigClockSource:
 4064              		@ args = 0, pretend = 0, frame = 0
 4065              		@ frame_needed = 0, uses_anonymous_args = 0
 4066 0000 90F83C30 		ldrb	r3, [r0, #60]	@ zero_extendqisi2
 4067 0004 012B     		cmp	r3, #1
 4068 0006 76D0     		beq	.L504
 4069 0008 10B5     		push	{r4, lr}
 4070 000a 0446     		mov	r4, r0
 4071 000c 0123     		movs	r3, #1
 4072 000e 80F83C30 		strb	r3, [r0, #60]
 4073 0012 0223     		movs	r3, #2
 4074 0014 80F83D30 		strb	r3, [r0, #61]
 4075 0018 0268     		ldr	r2, [r0]
 4076 001a 9068     		ldr	r0, [r2, #8]
 4077 001c 374B     		ldr	r3, .L516
 4078 001e 0340     		ands	r3, r3, r0
 4079 0020 9360     		str	r3, [r2, #8]
 4080 0022 0B68     		ldr	r3, [r1]
 4081 0024 602B     		cmp	r3, #96
 4082 0026 4CD0     		beq	.L495
 4083 0028 29D8     		bhi	.L496
 4084 002a 402B     		cmp	r3, #64
 4085 002c 54D0     		beq	.L497
 4086 002e 0CD9     		bls	.L511
 4087 0030 502B     		cmp	r3, #80
 4088 0032 22D1     		bne	.L512
 4089 0034 CA68     		ldr	r2, [r1, #12]
 4090 0036 4968     		ldr	r1, [r1, #4]
 4091 0038 2068     		ldr	r0, [r4]
 4092 003a FFF7FEFF 		bl	TIM_TI1_ConfigInputStage
 4093 003e 5021     		movs	r1, #80
 4094 0040 2068     		ldr	r0, [r4]
 4095 0042 FFF7FEFF 		bl	TIM_ITRx_SetConfig
 4096 0046 0020     		movs	r0, #0
 4097 0048 05E0     		b	.L501
 4098              	.L511:
 4099 004a 202B     		cmp	r3, #32
 4100 004c 0DD0     		beq	.L499
 4101 004e 09D9     		bls	.L513
 4102 0050 302B     		cmp	r3, #48
 4103 0052 0AD0     		beq	.L499
 4104 0054 0120     		movs	r0, #1
 4105              	.L501:
 4106 0056 0123     		movs	r3, #1
 4107 0058 84F83D30 		strb	r3, [r4, #61]
 4108 005c 0023     		movs	r3, #0
 4109 005e 84F83C30 		strb	r3, [r4, #60]
 4110 0062 10BD     		pop	{r4, pc}
ARM GAS  C:\Temp\ccqmCX5l.s 			page 70


 4111              	.L513:
 4112 0064 0BB1     		cbz	r3, .L499
 4113 0066 102B     		cmp	r3, #16
 4114 0068 05D1     		bne	.L514
 4115              	.L499:
 4116 006a 1946     		mov	r1, r3
 4117 006c 2068     		ldr	r0, [r4]
 4118 006e FFF7FEFF 		bl	TIM_ITRx_SetConfig
 4119 0072 0020     		movs	r0, #0
 4120 0074 EFE7     		b	.L501
 4121              	.L514:
 4122 0076 0120     		movs	r0, #1
 4123 0078 EDE7     		b	.L501
 4124              	.L512:
 4125 007a 0120     		movs	r0, #1
 4126 007c EBE7     		b	.L501
 4127              	.L496:
 4128 007e B3F5805F 		cmp	r3, #4096
 4129 0082 34D0     		beq	.L505
 4130 0084 B3F5005F 		cmp	r3, #8192
 4131 0088 0CD1     		bne	.L515
 4132 008a CB68     		ldr	r3, [r1, #12]
 4133 008c 4A68     		ldr	r2, [r1, #4]
 4134 008e 8968     		ldr	r1, [r1, #8]
 4135 0090 2068     		ldr	r0, [r4]
 4136 0092 FFF7FEFF 		bl	TIM_ETR_SetConfig
 4137 0096 2268     		ldr	r2, [r4]
 4138 0098 9368     		ldr	r3, [r2, #8]
 4139 009a 43F48043 		orr	r3, r3, #16384
 4140 009e 9360     		str	r3, [r2, #8]
 4141 00a0 0020     		movs	r0, #0
 4142 00a2 D8E7     		b	.L501
 4143              	.L515:
 4144 00a4 702B     		cmp	r3, #112
 4145 00a6 24D1     		bne	.L506
 4146 00a8 CB68     		ldr	r3, [r1, #12]
 4147 00aa 4A68     		ldr	r2, [r1, #4]
 4148 00ac 8968     		ldr	r1, [r1, #8]
 4149 00ae 2068     		ldr	r0, [r4]
 4150 00b0 FFF7FEFF 		bl	TIM_ETR_SetConfig
 4151 00b4 2268     		ldr	r2, [r4]
 4152 00b6 9368     		ldr	r3, [r2, #8]
 4153 00b8 43F07703 		orr	r3, r3, #119
 4154 00bc 9360     		str	r3, [r2, #8]
 4155 00be 0020     		movs	r0, #0
 4156 00c0 C9E7     		b	.L501
 4157              	.L495:
 4158 00c2 CA68     		ldr	r2, [r1, #12]
 4159 00c4 4968     		ldr	r1, [r1, #4]
 4160 00c6 2068     		ldr	r0, [r4]
 4161 00c8 FFF7FEFF 		bl	TIM_TI2_ConfigInputStage
 4162 00cc 6021     		movs	r1, #96
 4163 00ce 2068     		ldr	r0, [r4]
 4164 00d0 FFF7FEFF 		bl	TIM_ITRx_SetConfig
 4165 00d4 0020     		movs	r0, #0
 4166 00d6 BEE7     		b	.L501
 4167              	.L497:
ARM GAS  C:\Temp\ccqmCX5l.s 			page 71


 4168 00d8 CA68     		ldr	r2, [r1, #12]
 4169 00da 4968     		ldr	r1, [r1, #4]
 4170 00dc 2068     		ldr	r0, [r4]
 4171 00de FFF7FEFF 		bl	TIM_TI1_ConfigInputStage
 4172 00e2 4021     		movs	r1, #64
 4173 00e4 2068     		ldr	r0, [r4]
 4174 00e6 FFF7FEFF 		bl	TIM_ITRx_SetConfig
 4175 00ea 0020     		movs	r0, #0
 4176 00ec B3E7     		b	.L501
 4177              	.L505:
 4178 00ee 0020     		movs	r0, #0
 4179 00f0 B1E7     		b	.L501
 4180              	.L506:
 4181 00f2 0120     		movs	r0, #1
 4182 00f4 AFE7     		b	.L501
 4183              	.L504:
 4184 00f6 0220     		movs	r0, #2
 4185 00f8 7047     		bx	lr
 4186              	.L517:
 4187 00fa 00BF     		.align	2
 4188              	.L516:
 4189 00fc 8800FEFF 		.word	-130936
 4191              		.section	.text.TIM_SlaveTimer_SetConfig,"ax",%progbits
 4192              		.align	1
 4193              		.syntax unified
 4194              		.thumb
 4195              		.thumb_func
 4197              	TIM_SlaveTimer_SetConfig:
 4198              		@ args = 0, pretend = 0, frame = 0
 4199              		@ frame_needed = 0, uses_anonymous_args = 0
 4200 0000 10B5     		push	{r4, lr}
 4201 0002 0468     		ldr	r4, [r0]
 4202 0004 A268     		ldr	r2, [r4, #8]
 4203 0006 22F07002 		bic	r2, r2, #112
 4204 000a 4B68     		ldr	r3, [r1, #4]
 4205 000c 1343     		orrs	r3, r3, r2
 4206 000e 23F48033 		bic	r3, r3, #65536
 4207 0012 23F00703 		bic	r3, r3, #7
 4208 0016 0A68     		ldr	r2, [r1]
 4209 0018 1A43     		orrs	r2, r2, r3
 4210 001a A260     		str	r2, [r4, #8]
 4211 001c 4B68     		ldr	r3, [r1, #4]
 4212 001e 502B     		cmp	r3, #80
 4213 0020 32D0     		beq	.L519
 4214 0022 0BD9     		bls	.L533
 4215 0024 602B     		cmp	r3, #96
 4216 0026 36D0     		beq	.L524
 4217 0028 702B     		cmp	r3, #112
 4218 002a 43D1     		bne	.L530
 4219 002c 0B69     		ldr	r3, [r1, #16]
 4220 002e 8A68     		ldr	r2, [r1, #8]
 4221 0030 C968     		ldr	r1, [r1, #12]
 4222 0032 0068     		ldr	r0, [r0]
 4223 0034 FFF7FEFF 		bl	TIM_ETR_SetConfig
 4224 0038 0020     		movs	r0, #0
 4225 003a 0FE0     		b	.L522
 4226              	.L533:
ARM GAS  C:\Temp\ccqmCX5l.s 			page 72


 4227 003c 402B     		cmp	r3, #64
 4228 003e 0ED0     		beq	.L521
 4229 0040 01D9     		bls	.L534
 4230 0042 0120     		movs	r0, #1
 4231 0044 0AE0     		b	.L522
 4232              	.L534:
 4233 0046 202B     		cmp	r3, #32
 4234 0048 2CD0     		beq	.L526
 4235 004a 03D9     		bls	.L535
 4236 004c 302B     		cmp	r3, #48
 4237 004e 2FD1     		bne	.L529
 4238 0050 0020     		movs	r0, #0
 4239 0052 03E0     		b	.L522
 4240              	.L535:
 4241 0054 43B3     		cbz	r3, .L527
 4242 0056 102B     		cmp	r3, #16
 4243 0058 28D1     		bne	.L528
 4244 005a 0020     		movs	r0, #0
 4245              	.L522:
 4246 005c 10BD     		pop	{r4, pc}
 4247              	.L521:
 4248 005e 0B68     		ldr	r3, [r1]
 4249 0060 052B     		cmp	r3, #5
 4250 0062 29D0     		beq	.L531
 4251 0064 0368     		ldr	r3, [r0]
 4252 0066 1C6A     		ldr	r4, [r3, #32]
 4253 0068 1A6A     		ldr	r2, [r3, #32]
 4254 006a 22F00102 		bic	r2, r2, #1
 4255 006e 1A62     		str	r2, [r3, #32]
 4256 0070 0268     		ldr	r2, [r0]
 4257 0072 9369     		ldr	r3, [r2, #24]
 4258 0074 23F0F003 		bic	r3, r3, #240
 4259 0078 0969     		ldr	r1, [r1, #16]
 4260 007a 43EA0113 		orr	r3, r3, r1, lsl #4
 4261 007e 9361     		str	r3, [r2, #24]
 4262 0080 0368     		ldr	r3, [r0]
 4263 0082 1C62     		str	r4, [r3, #32]
 4264 0084 0020     		movs	r0, #0
 4265 0086 E9E7     		b	.L522
 4266              	.L519:
 4267 0088 0A69     		ldr	r2, [r1, #16]
 4268 008a 8968     		ldr	r1, [r1, #8]
 4269 008c 0068     		ldr	r0, [r0]
 4270 008e FFF7FEFF 		bl	TIM_TI1_ConfigInputStage
 4271 0092 0020     		movs	r0, #0
 4272 0094 E2E7     		b	.L522
 4273              	.L524:
 4274 0096 0A69     		ldr	r2, [r1, #16]
 4275 0098 8968     		ldr	r1, [r1, #8]
 4276 009a 0068     		ldr	r0, [r0]
 4277 009c FFF7FEFF 		bl	TIM_TI2_ConfigInputStage
 4278 00a0 0020     		movs	r0, #0
 4279 00a2 DBE7     		b	.L522
 4280              	.L526:
 4281 00a4 0020     		movs	r0, #0
 4282 00a6 D9E7     		b	.L522
 4283              	.L527:
ARM GAS  C:\Temp\ccqmCX5l.s 			page 73


 4284 00a8 0020     		movs	r0, #0
 4285 00aa D7E7     		b	.L522
 4286              	.L528:
 4287 00ac 0120     		movs	r0, #1
 4288 00ae D5E7     		b	.L522
 4289              	.L529:
 4290 00b0 0120     		movs	r0, #1
 4291 00b2 D3E7     		b	.L522
 4292              	.L530:
 4293 00b4 0120     		movs	r0, #1
 4294 00b6 D1E7     		b	.L522
 4295              	.L531:
 4296 00b8 0120     		movs	r0, #1
 4297 00ba CFE7     		b	.L522
 4299              		.section	.text.HAL_TIM_SlaveConfigSynchro,"ax",%progbits
 4300              		.align	1
 4301              		.global	HAL_TIM_SlaveConfigSynchro
 4302              		.syntax unified
 4303              		.thumb
 4304              		.thumb_func
 4306              	HAL_TIM_SlaveConfigSynchro:
 4307              		@ args = 0, pretend = 0, frame = 0
 4308              		@ frame_needed = 0, uses_anonymous_args = 0
 4309 0000 90F83C30 		ldrb	r3, [r0, #60]	@ zero_extendqisi2
 4310 0004 012B     		cmp	r3, #1
 4311 0006 22D0     		beq	.L539
 4312 0008 10B5     		push	{r4, lr}
 4313 000a 0446     		mov	r4, r0
 4314 000c 0123     		movs	r3, #1
 4315 000e 80F83C30 		strb	r3, [r0, #60]
 4316 0012 0223     		movs	r3, #2
 4317 0014 80F83D30 		strb	r3, [r0, #61]
 4318 0018 FFF7FEFF 		bl	TIM_SlaveTimer_SetConfig
 4319 001c 80B9     		cbnz	r0, .L544
 4320 001e 2268     		ldr	r2, [r4]
 4321 0020 D368     		ldr	r3, [r2, #12]
 4322 0022 23F04003 		bic	r3, r3, #64
 4323 0026 D360     		str	r3, [r2, #12]
 4324 0028 2268     		ldr	r2, [r4]
 4325 002a D368     		ldr	r3, [r2, #12]
 4326 002c 23F48043 		bic	r3, r3, #16384
 4327 0030 D360     		str	r3, [r2, #12]
 4328 0032 0123     		movs	r3, #1
 4329 0034 84F83D30 		strb	r3, [r4, #61]
 4330 0038 0023     		movs	r3, #0
 4331 003a 84F83C30 		strb	r3, [r4, #60]
 4332              	.L537:
 4333 003e 10BD     		pop	{r4, pc}
 4334              	.L544:
 4335 0040 0120     		movs	r0, #1
 4336 0042 84F83D00 		strb	r0, [r4, #61]
 4337 0046 0023     		movs	r3, #0
 4338 0048 84F83C30 		strb	r3, [r4, #60]
 4339 004c F7E7     		b	.L537
 4340              	.L539:
 4341 004e 0220     		movs	r0, #2
 4342 0050 7047     		bx	lr
ARM GAS  C:\Temp\ccqmCX5l.s 			page 74


 4344              		.section	.text.HAL_TIM_SlaveConfigSynchro_IT,"ax",%progbits
 4345              		.align	1
 4346              		.global	HAL_TIM_SlaveConfigSynchro_IT
 4347              		.syntax unified
 4348              		.thumb
 4349              		.thumb_func
 4351              	HAL_TIM_SlaveConfigSynchro_IT:
 4352              		@ args = 0, pretend = 0, frame = 0
 4353              		@ frame_needed = 0, uses_anonymous_args = 0
 4354 0000 90F83C30 		ldrb	r3, [r0, #60]	@ zero_extendqisi2
 4355 0004 012B     		cmp	r3, #1
 4356 0006 22D0     		beq	.L548
 4357 0008 10B5     		push	{r4, lr}
 4358 000a 0446     		mov	r4, r0
 4359 000c 0123     		movs	r3, #1
 4360 000e 80F83C30 		strb	r3, [r0, #60]
 4361 0012 0223     		movs	r3, #2
 4362 0014 80F83D30 		strb	r3, [r0, #61]
 4363 0018 FFF7FEFF 		bl	TIM_SlaveTimer_SetConfig
 4364 001c 80B9     		cbnz	r0, .L553
 4365 001e 2268     		ldr	r2, [r4]
 4366 0020 D368     		ldr	r3, [r2, #12]
 4367 0022 43F04003 		orr	r3, r3, #64
 4368 0026 D360     		str	r3, [r2, #12]
 4369 0028 2268     		ldr	r2, [r4]
 4370 002a D368     		ldr	r3, [r2, #12]
 4371 002c 23F48043 		bic	r3, r3, #16384
 4372 0030 D360     		str	r3, [r2, #12]
 4373 0032 0123     		movs	r3, #1
 4374 0034 84F83D30 		strb	r3, [r4, #61]
 4375 0038 0023     		movs	r3, #0
 4376 003a 84F83C30 		strb	r3, [r4, #60]
 4377              	.L546:
 4378 003e 10BD     		pop	{r4, pc}
 4379              	.L553:
 4380 0040 0120     		movs	r0, #1
 4381 0042 84F83D00 		strb	r0, [r4, #61]
 4382 0046 0023     		movs	r3, #0
 4383 0048 84F83C30 		strb	r3, [r4, #60]
 4384 004c F7E7     		b	.L546
 4385              	.L548:
 4386 004e 0220     		movs	r0, #2
 4387 0050 7047     		bx	lr
 4389              		.section	.text.TIM_CCxChannelCmd,"ax",%progbits
 4390              		.align	1
 4391              		.global	TIM_CCxChannelCmd
 4392              		.syntax unified
 4393              		.thumb
 4394              		.thumb_func
 4396              	TIM_CCxChannelCmd:
 4397              		@ args = 0, pretend = 0, frame = 0
 4398              		@ frame_needed = 0, uses_anonymous_args = 0
 4399              		@ link register save eliminated.
 4400 0000 01F01F01 		and	r1, r1, #31
 4401 0004 4FF0010C 		mov	ip, #1
 4402 0008 0CFA01FC 		lsl	ip, ip, r1
 4403 000c 036A     		ldr	r3, [r0, #32]
ARM GAS  C:\Temp\ccqmCX5l.s 			page 75


 4404 000e 23EA0C03 		bic	r3, r3, ip
 4405 0012 0362     		str	r3, [r0, #32]
 4406 0014 036A     		ldr	r3, [r0, #32]
 4407 0016 8A40     		lsls	r2, r2, r1
 4408 0018 1343     		orrs	r3, r3, r2
 4409 001a 0362     		str	r3, [r0, #32]
 4410 001c 7047     		bx	lr
 4412              		.section	.text.HAL_TIM_OC_Start,"ax",%progbits
 4413              		.align	1
 4414              		.global	HAL_TIM_OC_Start
 4415              		.syntax unified
 4416              		.thumb
 4417              		.thumb_func
 4419              	HAL_TIM_OC_Start:
 4420              		@ args = 0, pretend = 0, frame = 0
 4421              		@ frame_needed = 0, uses_anonymous_args = 0
 4422 0000 10B5     		push	{r4, lr}
 4423 0002 0446     		mov	r4, r0
 4424 0004 1029     		cmp	r1, #16
 4425 0006 3DD8     		bhi	.L556
 4426 0008 DFE801F0 		tbb	[pc, r1]
 4427              	.L558:
 4428 000c 09       		.byte	(.L562-.L558)/2
 4429 000d 3C       		.byte	(.L556-.L558)/2
 4430 000e 3C       		.byte	(.L556-.L558)/2
 4431 000f 3C       		.byte	(.L556-.L558)/2
 4432 0010 20       		.byte	(.L561-.L558)/2
 4433 0011 3C       		.byte	(.L556-.L558)/2
 4434 0012 3C       		.byte	(.L556-.L558)/2
 4435 0013 3C       		.byte	(.L556-.L558)/2
 4436 0014 27       		.byte	(.L560-.L558)/2
 4437 0015 3C       		.byte	(.L556-.L558)/2
 4438 0016 3C       		.byte	(.L556-.L558)/2
 4439 0017 3C       		.byte	(.L556-.L558)/2
 4440 0018 2E       		.byte	(.L559-.L558)/2
 4441 0019 3C       		.byte	(.L556-.L558)/2
 4442 001a 3C       		.byte	(.L556-.L558)/2
 4443 001b 3C       		.byte	(.L556-.L558)/2
 4444 001c 35       		.byte	(.L557-.L558)/2
 4445 001d 00       		.p2align 1
 4446              	.L562:
 4447 001e 90F83E30 		ldrb	r3, [r0, #62]	@ zero_extendqisi2
 4448 0022 DBB2     		uxtb	r3, r3
 4449 0024 013B     		subs	r3, r3, #1
 4450 0026 18BF     		it	ne
 4451 0028 0123     		movne	r3, #1
 4452              	.L563:
 4453 002a 002B     		cmp	r3, #0
 4454 002c 40F09780 		bne	.L577
 4455 0030 1029     		cmp	r1, #16
 4456 0032 00F28280 		bhi	.L565
 4457 0036 DFE801F0 		tbb	[pc, r1]
 4458              	.L567:
 4459 003a 2C       		.byte	(.L571-.L567)/2
 4460 003b 80       		.byte	(.L565-.L567)/2
 4461 003c 80       		.byte	(.L565-.L567)/2
 4462 003d 80       		.byte	(.L565-.L567)/2
ARM GAS  C:\Temp\ccqmCX5l.s 			page 76


 4463 003e 70       		.byte	(.L570-.L567)/2
 4464 003f 80       		.byte	(.L565-.L567)/2
 4465 0040 80       		.byte	(.L565-.L567)/2
 4466 0041 80       		.byte	(.L565-.L567)/2
 4467 0042 74       		.byte	(.L569-.L567)/2
 4468 0043 80       		.byte	(.L565-.L567)/2
 4469 0044 80       		.byte	(.L565-.L567)/2
 4470 0045 80       		.byte	(.L565-.L567)/2
 4471 0046 78       		.byte	(.L568-.L567)/2
 4472 0047 80       		.byte	(.L565-.L567)/2
 4473 0048 80       		.byte	(.L565-.L567)/2
 4474 0049 80       		.byte	(.L565-.L567)/2
 4475 004a 7C       		.byte	(.L566-.L567)/2
 4476 004b 00       		.p2align 1
 4477              	.L561:
 4478 004c 90F83F30 		ldrb	r3, [r0, #63]	@ zero_extendqisi2
 4479 0050 DBB2     		uxtb	r3, r3
 4480 0052 013B     		subs	r3, r3, #1
 4481 0054 18BF     		it	ne
 4482 0056 0123     		movne	r3, #1
 4483 0058 E7E7     		b	.L563
 4484              	.L560:
 4485 005a 90F84030 		ldrb	r3, [r0, #64]	@ zero_extendqisi2
 4486 005e DBB2     		uxtb	r3, r3
 4487 0060 013B     		subs	r3, r3, #1
 4488 0062 18BF     		it	ne
 4489 0064 0123     		movne	r3, #1
 4490 0066 E0E7     		b	.L563
 4491              	.L559:
 4492 0068 90F84130 		ldrb	r3, [r0, #65]	@ zero_extendqisi2
 4493 006c DBB2     		uxtb	r3, r3
 4494 006e 013B     		subs	r3, r3, #1
 4495 0070 18BF     		it	ne
 4496 0072 0123     		movne	r3, #1
 4497 0074 D9E7     		b	.L563
 4498              	.L557:
 4499 0076 90F84230 		ldrb	r3, [r0, #66]	@ zero_extendqisi2
 4500 007a DBB2     		uxtb	r3, r3
 4501 007c 013B     		subs	r3, r3, #1
 4502 007e 18BF     		it	ne
 4503 0080 0123     		movne	r3, #1
 4504 0082 D2E7     		b	.L563
 4505              	.L556:
 4506 0084 90F84330 		ldrb	r3, [r0, #67]	@ zero_extendqisi2
 4507 0088 DBB2     		uxtb	r3, r3
 4508 008a 013B     		subs	r3, r3, #1
 4509 008c 18BF     		it	ne
 4510 008e 0123     		movne	r3, #1
 4511 0090 CBE7     		b	.L563
 4512              	.L571:
 4513 0092 0223     		movs	r3, #2
 4514 0094 84F83E30 		strb	r3, [r4, #62]
 4515              	.L572:
 4516 0098 0122     		movs	r2, #1
 4517 009a 2068     		ldr	r0, [r4]
 4518 009c FFF7FEFF 		bl	TIM_CCxChannelCmd
 4519 00a0 2368     		ldr	r3, [r4]
ARM GAS  C:\Temp\ccqmCX5l.s 			page 77


 4520 00a2 324A     		ldr	r2, .L581
 4521 00a4 9342     		cmp	r3, r2
 4522 00a6 13D0     		beq	.L573
 4523 00a8 02F50062 		add	r2, r2, #2048
 4524 00ac 9342     		cmp	r3, r2
 4525 00ae 0FD0     		beq	.L573
 4526 00b0 02F54062 		add	r2, r2, #3072
 4527 00b4 9342     		cmp	r3, r2
 4528 00b6 0BD0     		beq	.L573
 4529 00b8 02F58062 		add	r2, r2, #1024
 4530 00bc 9342     		cmp	r3, r2
 4531 00be 07D0     		beq	.L573
 4532 00c0 02F58062 		add	r2, r2, #1024
 4533 00c4 9342     		cmp	r3, r2
 4534 00c6 03D0     		beq	.L573
 4535 00c8 02F50062 		add	r2, r2, #2048
 4536 00cc 9342     		cmp	r3, r2
 4537 00ce 03D1     		bne	.L574
 4538              	.L573:
 4539 00d0 5A6C     		ldr	r2, [r3, #68]
 4540 00d2 42F40042 		orr	r2, r2, #32768
 4541 00d6 5A64     		str	r2, [r3, #68]
 4542              	.L574:
 4543 00d8 2368     		ldr	r3, [r4]
 4544 00da 244A     		ldr	r2, .L581
 4545 00dc 9342     		cmp	r3, r2
 4546 00de 30D0     		beq	.L575
 4547 00e0 B3F1804F 		cmp	r3, #1073741824
 4548 00e4 2DD0     		beq	.L575
 4549 00e6 A2F59432 		sub	r2, r2, #75776
 4550 00ea 9342     		cmp	r3, r2
 4551 00ec 29D0     		beq	.L575
 4552 00ee 02F58062 		add	r2, r2, #1024
 4553 00f2 9342     		cmp	r3, r2
 4554 00f4 25D0     		beq	.L575
 4555 00f6 02F59632 		add	r2, r2, #76800
 4556 00fa 9342     		cmp	r3, r2
 4557 00fc 21D0     		beq	.L575
 4558 00fe 02F54062 		add	r2, r2, #3072
 4559 0102 9342     		cmp	r3, r2
 4560 0104 1DD0     		beq	.L575
 4561 0106 02F58052 		add	r2, r2, #4096
 4562 010a 9342     		cmp	r3, r2
 4563 010c 19D0     		beq	.L575
 4564 010e 1A68     		ldr	r2, [r3]
 4565 0110 42F00102 		orr	r2, r2, #1
 4566 0114 1A60     		str	r2, [r3]
 4567 0116 0020     		movs	r0, #0
 4568 0118 22E0     		b	.L564
 4569              	.L570:
 4570 011a 0223     		movs	r3, #2
 4571 011c 84F83F30 		strb	r3, [r4, #63]
 4572 0120 BAE7     		b	.L572
 4573              	.L569:
 4574 0122 0223     		movs	r3, #2
 4575 0124 84F84030 		strb	r3, [r4, #64]
 4576 0128 B6E7     		b	.L572
ARM GAS  C:\Temp\ccqmCX5l.s 			page 78


 4577              	.L568:
 4578 012a 0223     		movs	r3, #2
 4579 012c 84F84130 		strb	r3, [r4, #65]
 4580 0130 B2E7     		b	.L572
 4581              	.L566:
 4582 0132 0223     		movs	r3, #2
 4583 0134 84F84230 		strb	r3, [r4, #66]
 4584 0138 AEE7     		b	.L572
 4585              	.L565:
 4586 013a 0223     		movs	r3, #2
 4587 013c 84F84330 		strb	r3, [r4, #67]
 4588 0140 AAE7     		b	.L572
 4589              	.L575:
 4590 0142 9968     		ldr	r1, [r3, #8]
 4591 0144 0A4A     		ldr	r2, .L581+4
 4592 0146 0A40     		ands	r2, r2, r1
 4593 0148 062A     		cmp	r2, #6
 4594 014a 0AD0     		beq	.L578
 4595 014c B2F5803F 		cmp	r2, #65536
 4596 0150 09D0     		beq	.L579
 4597 0152 1A68     		ldr	r2, [r3]
 4598 0154 42F00102 		orr	r2, r2, #1
 4599 0158 1A60     		str	r2, [r3]
 4600 015a 0020     		movs	r0, #0
 4601 015c 00E0     		b	.L564
 4602              	.L577:
 4603 015e 0120     		movs	r0, #1
 4604              	.L564:
 4605 0160 10BD     		pop	{r4, pc}
 4606              	.L578:
 4607 0162 0020     		movs	r0, #0
 4608 0164 FCE7     		b	.L564
 4609              	.L579:
 4610 0166 0020     		movs	r0, #0
 4611 0168 FAE7     		b	.L564
 4612              	.L582:
 4613 016a 00BF     		.align	2
 4614              	.L581:
 4615 016c 002C0140 		.word	1073818624
 4616 0170 07000100 		.word	65543
 4618              		.section	.text.HAL_TIM_OC_Stop,"ax",%progbits
 4619              		.align	1
 4620              		.global	HAL_TIM_OC_Stop
 4621              		.syntax unified
 4622              		.thumb
 4623              		.thumb_func
 4625              	HAL_TIM_OC_Stop:
 4626              		@ args = 0, pretend = 0, frame = 0
 4627              		@ frame_needed = 0, uses_anonymous_args = 0
 4628 0000 38B5     		push	{r3, r4, r5, lr}
 4629 0002 0446     		mov	r4, r0
 4630 0004 0D46     		mov	r5, r1
 4631 0006 0022     		movs	r2, #0
 4632 0008 0068     		ldr	r0, [r0]
 4633 000a FFF7FEFF 		bl	TIM_CCxChannelCmd
 4634 000e 2368     		ldr	r3, [r4]
 4635 0010 2C4A     		ldr	r2, .L596
ARM GAS  C:\Temp\ccqmCX5l.s 			page 79


 4636 0012 9342     		cmp	r3, r2
 4637 0014 13D0     		beq	.L584
 4638 0016 02F50062 		add	r2, r2, #2048
 4639 001a 9342     		cmp	r3, r2
 4640 001c 0FD0     		beq	.L584
 4641 001e 02F54062 		add	r2, r2, #3072
 4642 0022 9342     		cmp	r3, r2
 4643 0024 0BD0     		beq	.L584
 4644 0026 02F58062 		add	r2, r2, #1024
 4645 002a 9342     		cmp	r3, r2
 4646 002c 07D0     		beq	.L584
 4647 002e 02F58062 		add	r2, r2, #1024
 4648 0032 9342     		cmp	r3, r2
 4649 0034 03D0     		beq	.L584
 4650 0036 02F50062 		add	r2, r2, #2048
 4651 003a 9342     		cmp	r3, r2
 4652 003c 0DD1     		bne	.L585
 4653              	.L584:
 4654 003e 196A     		ldr	r1, [r3, #32]
 4655 0040 41F21112 		movw	r2, #4369
 4656 0044 1142     		tst	r1, r2
 4657 0046 08D1     		bne	.L585
 4658 0048 196A     		ldr	r1, [r3, #32]
 4659 004a 40F24442 		movw	r2, #1092
 4660 004e 1142     		tst	r1, r2
 4661 0050 03D1     		bne	.L585
 4662 0052 5A6C     		ldr	r2, [r3, #68]
 4663 0054 22F40042 		bic	r2, r2, #32768
 4664 0058 5A64     		str	r2, [r3, #68]
 4665              	.L585:
 4666 005a 2368     		ldr	r3, [r4]
 4667 005c 196A     		ldr	r1, [r3, #32]
 4668 005e 41F21112 		movw	r2, #4369
 4669 0062 1142     		tst	r1, r2
 4670 0064 08D1     		bne	.L586
 4671 0066 196A     		ldr	r1, [r3, #32]
 4672 0068 40F24442 		movw	r2, #1092
 4673 006c 1142     		tst	r1, r2
 4674 006e 03D1     		bne	.L586
 4675 0070 1A68     		ldr	r2, [r3]
 4676 0072 22F00102 		bic	r2, r2, #1
 4677 0076 1A60     		str	r2, [r3]
 4678              	.L586:
 4679 0078 25B9     		cbnz	r5, .L587
 4680 007a 0123     		movs	r3, #1
 4681 007c 84F83E30 		strb	r3, [r4, #62]
 4682              	.L588:
 4683 0080 0020     		movs	r0, #0
 4684 0082 38BD     		pop	{r3, r4, r5, pc}
 4685              	.L587:
 4686 0084 043D     		subs	r5, r5, #4
 4687 0086 0C2D     		cmp	r5, #12
 4688 0088 18D8     		bhi	.L589
 4689 008a DFE805F0 		tbb	[pc, r5]
 4690              	.L591:
 4691 008e 07       		.byte	(.L594-.L591)/2
 4692 008f 17       		.byte	(.L589-.L591)/2
ARM GAS  C:\Temp\ccqmCX5l.s 			page 80


 4693 0090 17       		.byte	(.L589-.L591)/2
 4694 0091 17       		.byte	(.L589-.L591)/2
 4695 0092 0B       		.byte	(.L593-.L591)/2
 4696 0093 17       		.byte	(.L589-.L591)/2
 4697 0094 17       		.byte	(.L589-.L591)/2
 4698 0095 17       		.byte	(.L589-.L591)/2
 4699 0096 0F       		.byte	(.L592-.L591)/2
 4700 0097 17       		.byte	(.L589-.L591)/2
 4701 0098 17       		.byte	(.L589-.L591)/2
 4702 0099 17       		.byte	(.L589-.L591)/2
 4703 009a 13       		.byte	(.L590-.L591)/2
 4704 009b 00       		.p2align 1
 4705              	.L594:
 4706 009c 0123     		movs	r3, #1
 4707 009e 84F83F30 		strb	r3, [r4, #63]
 4708 00a2 EDE7     		b	.L588
 4709              	.L593:
 4710 00a4 0123     		movs	r3, #1
 4711 00a6 84F84030 		strb	r3, [r4, #64]
 4712 00aa E9E7     		b	.L588
 4713              	.L592:
 4714 00ac 0123     		movs	r3, #1
 4715 00ae 84F84130 		strb	r3, [r4, #65]
 4716 00b2 E5E7     		b	.L588
 4717              	.L590:
 4718 00b4 0123     		movs	r3, #1
 4719 00b6 84F84230 		strb	r3, [r4, #66]
 4720 00ba E1E7     		b	.L588
 4721              	.L589:
 4722 00bc 0123     		movs	r3, #1
 4723 00be 84F84330 		strb	r3, [r4, #67]
 4724 00c2 DDE7     		b	.L588
 4725              	.L597:
 4726              		.align	2
 4727              	.L596:
 4728 00c4 002C0140 		.word	1073818624
 4730              		.section	.text.HAL_TIM_OC_Start_IT,"ax",%progbits
 4731              		.align	1
 4732              		.global	HAL_TIM_OC_Start_IT
 4733              		.syntax unified
 4734              		.thumb
 4735              		.thumb_func
 4737              	HAL_TIM_OC_Start_IT:
 4738              		@ args = 0, pretend = 0, frame = 0
 4739              		@ frame_needed = 0, uses_anonymous_args = 0
 4740 0000 10B5     		push	{r4, lr}
 4741 0002 0446     		mov	r4, r0
 4742 0004 1029     		cmp	r1, #16
 4743 0006 3DD8     		bhi	.L599
 4744 0008 DFE801F0 		tbb	[pc, r1]
 4745              	.L601:
 4746 000c 09       		.byte	(.L605-.L601)/2
 4747 000d 3C       		.byte	(.L599-.L601)/2
 4748 000e 3C       		.byte	(.L599-.L601)/2
 4749 000f 3C       		.byte	(.L599-.L601)/2
 4750 0010 20       		.byte	(.L604-.L601)/2
 4751 0011 3C       		.byte	(.L599-.L601)/2
ARM GAS  C:\Temp\ccqmCX5l.s 			page 81


 4752 0012 3C       		.byte	(.L599-.L601)/2
 4753 0013 3C       		.byte	(.L599-.L601)/2
 4754 0014 27       		.byte	(.L603-.L601)/2
 4755 0015 3C       		.byte	(.L599-.L601)/2
 4756 0016 3C       		.byte	(.L599-.L601)/2
 4757 0017 3C       		.byte	(.L599-.L601)/2
 4758 0018 2E       		.byte	(.L602-.L601)/2
 4759 0019 3C       		.byte	(.L599-.L601)/2
 4760 001a 3C       		.byte	(.L599-.L601)/2
 4761 001b 3C       		.byte	(.L599-.L601)/2
 4762 001c 35       		.byte	(.L600-.L601)/2
 4763 001d 00       		.p2align 1
 4764              	.L605:
 4765 001e 90F83E30 		ldrb	r3, [r0, #62]	@ zero_extendqisi2
 4766 0022 DBB2     		uxtb	r3, r3
 4767 0024 013B     		subs	r3, r3, #1
 4768 0026 18BF     		it	ne
 4769 0028 0123     		movne	r3, #1
 4770              	.L606:
 4771 002a 002B     		cmp	r3, #0
 4772 002c 40F0CA80 		bne	.L625
 4773 0030 1029     		cmp	r1, #16
 4774 0032 00F29780 		bhi	.L608
 4775 0036 DFE801F0 		tbb	[pc, r1]
 4776              	.L610:
 4777 003a 2C       		.byte	(.L614-.L610)/2
 4778 003b 95       		.byte	(.L608-.L610)/2
 4779 003c 95       		.byte	(.L608-.L610)/2
 4780 003d 95       		.byte	(.L608-.L610)/2
 4781 003e 75       		.byte	(.L613-.L610)/2
 4782 003f 95       		.byte	(.L608-.L610)/2
 4783 0040 95       		.byte	(.L608-.L610)/2
 4784 0041 95       		.byte	(.L608-.L610)/2
 4785 0042 7E       		.byte	(.L612-.L610)/2
 4786 0043 95       		.byte	(.L608-.L610)/2
 4787 0044 95       		.byte	(.L608-.L610)/2
 4788 0045 95       		.byte	(.L608-.L610)/2
 4789 0046 87       		.byte	(.L611-.L610)/2
 4790 0047 95       		.byte	(.L608-.L610)/2
 4791 0048 95       		.byte	(.L608-.L610)/2
 4792 0049 95       		.byte	(.L608-.L610)/2
 4793 004a 90       		.byte	(.L609-.L610)/2
 4794 004b 00       		.p2align 1
 4795              	.L604:
 4796 004c 90F83F30 		ldrb	r3, [r0, #63]	@ zero_extendqisi2
 4797 0050 DBB2     		uxtb	r3, r3
 4798 0052 013B     		subs	r3, r3, #1
 4799 0054 18BF     		it	ne
 4800 0056 0123     		movne	r3, #1
 4801 0058 E7E7     		b	.L606
 4802              	.L603:
 4803 005a 90F84030 		ldrb	r3, [r0, #64]	@ zero_extendqisi2
 4804 005e DBB2     		uxtb	r3, r3
 4805 0060 013B     		subs	r3, r3, #1
 4806 0062 18BF     		it	ne
 4807 0064 0123     		movne	r3, #1
 4808 0066 E0E7     		b	.L606
ARM GAS  C:\Temp\ccqmCX5l.s 			page 82


 4809              	.L602:
 4810 0068 90F84130 		ldrb	r3, [r0, #65]	@ zero_extendqisi2
 4811 006c DBB2     		uxtb	r3, r3
 4812 006e 013B     		subs	r3, r3, #1
 4813 0070 18BF     		it	ne
 4814 0072 0123     		movne	r3, #1
 4815 0074 D9E7     		b	.L606
 4816              	.L600:
 4817 0076 90F84230 		ldrb	r3, [r0, #66]	@ zero_extendqisi2
 4818 007a DBB2     		uxtb	r3, r3
 4819 007c 013B     		subs	r3, r3, #1
 4820 007e 18BF     		it	ne
 4821 0080 0123     		movne	r3, #1
 4822 0082 D2E7     		b	.L606
 4823              	.L599:
 4824 0084 90F84330 		ldrb	r3, [r0, #67]	@ zero_extendqisi2
 4825 0088 DBB2     		uxtb	r3, r3
 4826 008a 013B     		subs	r3, r3, #1
 4827 008c 18BF     		it	ne
 4828 008e 0123     		movne	r3, #1
 4829 0090 CBE7     		b	.L606
 4830              	.L614:
 4831 0092 0223     		movs	r3, #2
 4832 0094 84F83E30 		strb	r3, [r4, #62]
 4833              	.L615:
 4834 0098 2268     		ldr	r2, [r4]
 4835 009a D368     		ldr	r3, [r2, #12]
 4836 009c 43F00203 		orr	r3, r3, #2
 4837 00a0 D360     		str	r3, [r2, #12]
 4838              	.L620:
 4839 00a2 0122     		movs	r2, #1
 4840 00a4 2068     		ldr	r0, [r4]
 4841 00a6 FFF7FEFF 		bl	TIM_CCxChannelCmd
 4842 00aa 2368     		ldr	r3, [r4]
 4843 00ac 494A     		ldr	r2, .L634
 4844 00ae 9342     		cmp	r3, r2
 4845 00b0 13D0     		beq	.L621
 4846 00b2 02F50062 		add	r2, r2, #2048
 4847 00b6 9342     		cmp	r3, r2
 4848 00b8 0FD0     		beq	.L621
 4849 00ba 02F54062 		add	r2, r2, #3072
 4850 00be 9342     		cmp	r3, r2
 4851 00c0 0BD0     		beq	.L621
 4852 00c2 02F58062 		add	r2, r2, #1024
 4853 00c6 9342     		cmp	r3, r2
 4854 00c8 07D0     		beq	.L621
 4855 00ca 02F58062 		add	r2, r2, #1024
 4856 00ce 9342     		cmp	r3, r2
 4857 00d0 03D0     		beq	.L621
 4858 00d2 02F50062 		add	r2, r2, #2048
 4859 00d6 9342     		cmp	r3, r2
 4860 00d8 03D1     		bne	.L622
 4861              	.L621:
 4862 00da 5A6C     		ldr	r2, [r3, #68]
 4863 00dc 42F40042 		orr	r2, r2, #32768
 4864 00e0 5A64     		str	r2, [r3, #68]
 4865              	.L622:
ARM GAS  C:\Temp\ccqmCX5l.s 			page 83


 4866 00e2 2368     		ldr	r3, [r4]
 4867 00e4 3B4A     		ldr	r2, .L634
 4868 00e6 9342     		cmp	r3, r2
 4869 00e8 5ED0     		beq	.L623
 4870 00ea B3F1804F 		cmp	r3, #1073741824
 4871 00ee 5BD0     		beq	.L623
 4872 00f0 A2F59432 		sub	r2, r2, #75776
 4873 00f4 9342     		cmp	r3, r2
 4874 00f6 57D0     		beq	.L623
 4875 00f8 02F58062 		add	r2, r2, #1024
 4876 00fc 9342     		cmp	r3, r2
 4877 00fe 53D0     		beq	.L623
 4878 0100 02F59632 		add	r2, r2, #76800
 4879 0104 9342     		cmp	r3, r2
 4880 0106 4FD0     		beq	.L623
 4881 0108 02F54062 		add	r2, r2, #3072
 4882 010c 9342     		cmp	r3, r2
 4883 010e 4BD0     		beq	.L623
 4884 0110 02F58052 		add	r2, r2, #4096
 4885 0114 9342     		cmp	r3, r2
 4886 0116 47D0     		beq	.L623
 4887 0118 1A68     		ldr	r2, [r3]
 4888 011a 42F00102 		orr	r2, r2, #1
 4889 011e 1A60     		str	r2, [r3]
 4890 0120 0020     		movs	r0, #0
 4891 0122 50E0     		b	.L607
 4892              	.L613:
 4893 0124 0223     		movs	r3, #2
 4894 0126 84F83F30 		strb	r3, [r4, #63]
 4895              	.L616:
 4896 012a 2268     		ldr	r2, [r4]
 4897 012c D368     		ldr	r3, [r2, #12]
 4898 012e 43F00403 		orr	r3, r3, #4
 4899 0132 D360     		str	r3, [r2, #12]
 4900 0134 B5E7     		b	.L620
 4901              	.L612:
 4902 0136 0223     		movs	r3, #2
 4903 0138 84F84030 		strb	r3, [r4, #64]
 4904              	.L617:
 4905 013c 2268     		ldr	r2, [r4]
 4906 013e D368     		ldr	r3, [r2, #12]
 4907 0140 43F00803 		orr	r3, r3, #8
 4908 0144 D360     		str	r3, [r2, #12]
 4909 0146 ACE7     		b	.L620
 4910              	.L611:
 4911 0148 0223     		movs	r3, #2
 4912 014a 84F84130 		strb	r3, [r4, #65]
 4913              	.L618:
 4914 014e 2268     		ldr	r2, [r4]
 4915 0150 D368     		ldr	r3, [r2, #12]
 4916 0152 43F01003 		orr	r3, r3, #16
 4917 0156 D360     		str	r3, [r2, #12]
 4918 0158 A3E7     		b	.L620
 4919              	.L609:
 4920 015a 0223     		movs	r3, #2
 4921 015c 84F84230 		strb	r3, [r4, #66]
 4922 0160 0120     		movs	r0, #1
ARM GAS  C:\Temp\ccqmCX5l.s 			page 84


 4923 0162 30E0     		b	.L607
 4924              	.L608:
 4925 0164 0223     		movs	r3, #2
 4926 0166 84F84330 		strb	r3, [r4, #67]
 4927 016a 0C29     		cmp	r1, #12
 4928 016c 2CD8     		bhi	.L626
 4929 016e 01A3     		adr	r3, .L619
 4930 0170 53F821F0 		ldr	pc, [r3, r1, lsl #2]
 4931              		.p2align 2
 4932              	.L619:
 4933 0174 99000000 		.word	.L615+1
 4934 0178 C9010000 		.word	.L626+1
 4935 017c C9010000 		.word	.L626+1
 4936 0180 C9010000 		.word	.L626+1
 4937 0184 2B010000 		.word	.L616+1
 4938 0188 C9010000 		.word	.L626+1
 4939 018c C9010000 		.word	.L626+1
 4940 0190 C9010000 		.word	.L626+1
 4941 0194 3D010000 		.word	.L617+1
 4942 0198 C9010000 		.word	.L626+1
 4943 019c C9010000 		.word	.L626+1
 4944 01a0 C9010000 		.word	.L626+1
 4945 01a4 4F010000 		.word	.L618+1
 4946              		.p2align 1
 4947              	.L623:
 4948 01a8 9968     		ldr	r1, [r3, #8]
 4949 01aa 0B4A     		ldr	r2, .L634+4
 4950 01ac 0A40     		ands	r2, r2, r1
 4951 01ae 062A     		cmp	r2, #6
 4952 01b0 0CD0     		beq	.L627
 4953 01b2 B2F5803F 		cmp	r2, #65536
 4954 01b6 0BD0     		beq	.L628
 4955 01b8 1A68     		ldr	r2, [r3]
 4956 01ba 42F00102 		orr	r2, r2, #1
 4957 01be 1A60     		str	r2, [r3]
 4958 01c0 0020     		movs	r0, #0
 4959 01c2 00E0     		b	.L607
 4960              	.L625:
 4961 01c4 0120     		movs	r0, #1
 4962              	.L607:
 4963 01c6 10BD     		pop	{r4, pc}
 4964              	.L626:
 4965 01c8 0120     		movs	r0, #1
 4966 01ca FCE7     		b	.L607
 4967              	.L627:
 4968 01cc 0020     		movs	r0, #0
 4969 01ce FAE7     		b	.L607
 4970              	.L628:
 4971 01d0 0020     		movs	r0, #0
 4972 01d2 F8E7     		b	.L607
 4973              	.L635:
 4974              		.align	2
 4975              	.L634:
 4976 01d4 002C0140 		.word	1073818624
 4977 01d8 07000100 		.word	65543
 4979              		.section	.text.HAL_TIM_OC_Stop_IT,"ax",%progbits
 4980              		.align	1
ARM GAS  C:\Temp\ccqmCX5l.s 			page 85


 4981              		.global	HAL_TIM_OC_Stop_IT
 4982              		.syntax unified
 4983              		.thumb
 4984              		.thumb_func
 4986              	HAL_TIM_OC_Stop_IT:
 4987              		@ args = 0, pretend = 0, frame = 0
 4988              		@ frame_needed = 0, uses_anonymous_args = 0
 4989 0000 38B5     		push	{r3, r4, r5, lr}
 4990 0002 0546     		mov	r5, r0
 4991 0004 0C46     		mov	r4, r1
 4992 0006 0C29     		cmp	r1, #12
 4993 0008 00F28580 		bhi	.L654
 4994 000c DFE801F0 		tbb	[pc, r1]
 4995              	.L639:
 4996 0010 07       		.byte	(.L642-.L639)/2
 4997 0011 83       		.byte	(.L654-.L639)/2
 4998 0012 83       		.byte	(.L654-.L639)/2
 4999 0013 83       		.byte	(.L654-.L639)/2
 5000 0014 4C       		.byte	(.L641-.L639)/2
 5001 0015 83       		.byte	(.L654-.L639)/2
 5002 0016 83       		.byte	(.L654-.L639)/2
 5003 0017 83       		.byte	(.L654-.L639)/2
 5004 0018 52       		.byte	(.L640-.L639)/2
 5005 0019 83       		.byte	(.L654-.L639)/2
 5006 001a 83       		.byte	(.L654-.L639)/2
 5007 001b 83       		.byte	(.L654-.L639)/2
 5008 001c 58       		.byte	(.L638-.L639)/2
 5009 001d 00       		.p2align 1
 5010              	.L642:
 5011 001e 0268     		ldr	r2, [r0]
 5012 0020 D368     		ldr	r3, [r2, #12]
 5013 0022 23F00203 		bic	r3, r3, #2
 5014 0026 D360     		str	r3, [r2, #12]
 5015              	.L643:
 5016 0028 0022     		movs	r2, #0
 5017 002a 2146     		mov	r1, r4
 5018 002c 2868     		ldr	r0, [r5]
 5019 002e FFF7FEFF 		bl	TIM_CCxChannelCmd
 5020 0032 2B68     		ldr	r3, [r5]
 5021 0034 394A     		ldr	r2, .L656
 5022 0036 9342     		cmp	r3, r2
 5023 0038 13D0     		beq	.L644
 5024 003a 02F50062 		add	r2, r2, #2048
 5025 003e 9342     		cmp	r3, r2
 5026 0040 0FD0     		beq	.L644
 5027 0042 02F54062 		add	r2, r2, #3072
 5028 0046 9342     		cmp	r3, r2
 5029 0048 0BD0     		beq	.L644
 5030 004a 02F58062 		add	r2, r2, #1024
 5031 004e 9342     		cmp	r3, r2
 5032 0050 07D0     		beq	.L644
 5033 0052 02F58062 		add	r2, r2, #1024
 5034 0056 9342     		cmp	r3, r2
 5035 0058 03D0     		beq	.L644
 5036 005a 02F50062 		add	r2, r2, #2048
 5037 005e 9342     		cmp	r3, r2
 5038 0060 0DD1     		bne	.L645
ARM GAS  C:\Temp\ccqmCX5l.s 			page 86


 5039              	.L644:
 5040 0062 196A     		ldr	r1, [r3, #32]
 5041 0064 41F21112 		movw	r2, #4369
 5042 0068 1142     		tst	r1, r2
 5043 006a 08D1     		bne	.L645
 5044 006c 196A     		ldr	r1, [r3, #32]
 5045 006e 40F24442 		movw	r2, #1092
 5046 0072 1142     		tst	r1, r2
 5047 0074 03D1     		bne	.L645
 5048 0076 5A6C     		ldr	r2, [r3, #68]
 5049 0078 22F40042 		bic	r2, r2, #32768
 5050 007c 5A64     		str	r2, [r3, #68]
 5051              	.L645:
 5052 007e 2B68     		ldr	r3, [r5]
 5053 0080 196A     		ldr	r1, [r3, #32]
 5054 0082 41F21112 		movw	r2, #4369
 5055 0086 1142     		tst	r1, r2
 5056 0088 08D1     		bne	.L646
 5057 008a 196A     		ldr	r1, [r3, #32]
 5058 008c 40F24442 		movw	r2, #1092
 5059 0090 1142     		tst	r1, r2
 5060 0092 03D1     		bne	.L646
 5061 0094 1A68     		ldr	r2, [r3]
 5062 0096 22F00102 		bic	r2, r2, #1
 5063 009a 1A60     		str	r2, [r3]
 5064              	.L646:
 5065 009c B4B9     		cbnz	r4, .L647
 5066 009e 0123     		movs	r3, #1
 5067 00a0 85F83E30 		strb	r3, [r5, #62]
 5068 00a4 0020     		movs	r0, #0
 5069 00a6 37E0     		b	.L637
 5070              	.L641:
 5071 00a8 0268     		ldr	r2, [r0]
 5072 00aa D368     		ldr	r3, [r2, #12]
 5073 00ac 23F00403 		bic	r3, r3, #4
 5074 00b0 D360     		str	r3, [r2, #12]
 5075 00b2 B9E7     		b	.L643
 5076              	.L640:
 5077 00b4 0268     		ldr	r2, [r0]
 5078 00b6 D368     		ldr	r3, [r2, #12]
 5079 00b8 23F00803 		bic	r3, r3, #8
 5080 00bc D360     		str	r3, [r2, #12]
 5081 00be B3E7     		b	.L643
 5082              	.L638:
 5083 00c0 0268     		ldr	r2, [r0]
 5084 00c2 D368     		ldr	r3, [r2, #12]
 5085 00c4 23F01003 		bic	r3, r3, #16
 5086 00c8 D360     		str	r3, [r2, #12]
 5087 00ca ADE7     		b	.L643
 5088              	.L647:
 5089 00cc 043C     		subs	r4, r4, #4
 5090 00ce 0C2C     		cmp	r4, #12
 5091 00d0 1CD8     		bhi	.L648
 5092 00d2 DFE804F0 		tbb	[pc, r4]
 5093              	.L650:
 5094 00d6 07       		.byte	(.L653-.L650)/2
 5095 00d7 1B       		.byte	(.L648-.L650)/2
ARM GAS  C:\Temp\ccqmCX5l.s 			page 87


 5096 00d8 1B       		.byte	(.L648-.L650)/2
 5097 00d9 1B       		.byte	(.L648-.L650)/2
 5098 00da 0C       		.byte	(.L652-.L650)/2
 5099 00db 1B       		.byte	(.L648-.L650)/2
 5100 00dc 1B       		.byte	(.L648-.L650)/2
 5101 00dd 1B       		.byte	(.L648-.L650)/2
 5102 00de 11       		.byte	(.L651-.L650)/2
 5103 00df 1B       		.byte	(.L648-.L650)/2
 5104 00e0 1B       		.byte	(.L648-.L650)/2
 5105 00e1 1B       		.byte	(.L648-.L650)/2
 5106 00e2 16       		.byte	(.L649-.L650)/2
 5107 00e3 00       		.p2align 1
 5108              	.L653:
 5109 00e4 0123     		movs	r3, #1
 5110 00e6 85F83F30 		strb	r3, [r5, #63]
 5111 00ea 0020     		movs	r0, #0
 5112 00ec 14E0     		b	.L637
 5113              	.L652:
 5114 00ee 0123     		movs	r3, #1
 5115 00f0 85F84030 		strb	r3, [r5, #64]
 5116 00f4 0020     		movs	r0, #0
 5117 00f6 0FE0     		b	.L637
 5118              	.L651:
 5119 00f8 0123     		movs	r3, #1
 5120 00fa 85F84130 		strb	r3, [r5, #65]
 5121 00fe 0020     		movs	r0, #0
 5122 0100 0AE0     		b	.L637
 5123              	.L649:
 5124 0102 0123     		movs	r3, #1
 5125 0104 85F84230 		strb	r3, [r5, #66]
 5126 0108 0020     		movs	r0, #0
 5127 010a 05E0     		b	.L637
 5128              	.L648:
 5129 010c 0123     		movs	r3, #1
 5130 010e 85F84330 		strb	r3, [r5, #67]
 5131 0112 0020     		movs	r0, #0
 5132 0114 00E0     		b	.L637
 5133              	.L654:
 5134 0116 0120     		movs	r0, #1
 5135              	.L637:
 5136 0118 38BD     		pop	{r3, r4, r5, pc}
 5137              	.L657:
 5138 011a 00BF     		.align	2
 5139              	.L656:
 5140 011c 002C0140 		.word	1073818624
 5142              		.section	.text.HAL_TIM_OC_Start_DMA,"ax",%progbits
 5143              		.align	1
 5144              		.global	HAL_TIM_OC_Start_DMA
 5145              		.syntax unified
 5146              		.thumb
 5147              		.thumb_func
 5149              	HAL_TIM_OC_Start_DMA:
 5150              		@ args = 0, pretend = 0, frame = 0
 5151              		@ frame_needed = 0, uses_anonymous_args = 0
 5152 0000 38B5     		push	{r3, r4, r5, lr}
 5153 0002 0546     		mov	r5, r0
 5154 0004 0C46     		mov	r4, r1
ARM GAS  C:\Temp\ccqmCX5l.s 			page 88


 5155 0006 1146     		mov	r1, r2
 5156 0008 102C     		cmp	r4, #16
 5157 000a 41D8     		bhi	.L659
 5158 000c DFE804F0 		tbb	[pc, r4]
 5159              	.L661:
 5160 0010 09       		.byte	(.L665-.L661)/2
 5161 0011 40       		.byte	(.L659-.L661)/2
 5162 0012 40       		.byte	(.L659-.L661)/2
 5163 0013 40       		.byte	(.L659-.L661)/2
 5164 0014 20       		.byte	(.L664-.L661)/2
 5165 0015 40       		.byte	(.L659-.L661)/2
 5166 0016 40       		.byte	(.L659-.L661)/2
 5167 0017 40       		.byte	(.L659-.L661)/2
 5168 0018 28       		.byte	(.L663-.L661)/2
 5169 0019 40       		.byte	(.L659-.L661)/2
 5170 001a 40       		.byte	(.L659-.L661)/2
 5171 001b 40       		.byte	(.L659-.L661)/2
 5172 001c 30       		.byte	(.L662-.L661)/2
 5173 001d 40       		.byte	(.L659-.L661)/2
 5174 001e 40       		.byte	(.L659-.L661)/2
 5175 001f 40       		.byte	(.L659-.L661)/2
 5176 0020 38       		.byte	(.L660-.L661)/2
 5177 0021 00       		.p2align 1
 5178              	.L665:
 5179 0022 90F83E00 		ldrb	r0, [r0, #62]	@ zero_extendqisi2
 5180 0026 C0B2     		uxtb	r0, r0
 5181 0028 0228     		cmp	r0, #2
 5182 002a 14BF     		ite	ne
 5183 002c 0020     		movne	r0, #0
 5184 002e 0120     		moveq	r0, #1
 5185              	.L666:
 5186 0030 0028     		cmp	r0, #0
 5187 0032 40F06381 		bne	.L693
 5188 0036 102C     		cmp	r4, #16
 5189 0038 78D8     		bhi	.L668
 5190 003a DFE804F0 		tbb	[pc, r4]
 5191              	.L670:
 5192 003e 31       		.byte	(.L674-.L670)/2
 5193 003f 77       		.byte	(.L668-.L670)/2
 5194 0040 77       		.byte	(.L668-.L670)/2
 5195 0041 77       		.byte	(.L668-.L670)/2
 5196 0042 57       		.byte	(.L673-.L670)/2
 5197 0043 77       		.byte	(.L668-.L670)/2
 5198 0044 77       		.byte	(.L668-.L670)/2
 5199 0045 77       		.byte	(.L668-.L670)/2
 5200 0046 5F       		.byte	(.L672-.L670)/2
 5201 0047 77       		.byte	(.L668-.L670)/2
 5202 0048 77       		.byte	(.L668-.L670)/2
 5203 0049 77       		.byte	(.L668-.L670)/2
 5204 004a 67       		.byte	(.L671-.L670)/2
 5205 004b 77       		.byte	(.L668-.L670)/2
 5206 004c 77       		.byte	(.L668-.L670)/2
 5207 004d 77       		.byte	(.L668-.L670)/2
 5208 004e 6F       		.byte	(.L669-.L670)/2
 5209 004f 00       		.p2align 1
 5210              	.L664:
 5211 0050 90F83F00 		ldrb	r0, [r0, #63]	@ zero_extendqisi2
ARM GAS  C:\Temp\ccqmCX5l.s 			page 89


 5212 0054 C0B2     		uxtb	r0, r0
 5213 0056 0228     		cmp	r0, #2
 5214 0058 14BF     		ite	ne
 5215 005a 0020     		movne	r0, #0
 5216 005c 0120     		moveq	r0, #1
 5217 005e E7E7     		b	.L666
 5218              	.L663:
 5219 0060 90F84000 		ldrb	r0, [r0, #64]	@ zero_extendqisi2
 5220 0064 C0B2     		uxtb	r0, r0
 5221 0066 0228     		cmp	r0, #2
 5222 0068 14BF     		ite	ne
 5223 006a 0020     		movne	r0, #0
 5224 006c 0120     		moveq	r0, #1
 5225 006e DFE7     		b	.L666
 5226              	.L662:
 5227 0070 90F84100 		ldrb	r0, [r0, #65]	@ zero_extendqisi2
 5228 0074 C0B2     		uxtb	r0, r0
 5229 0076 0228     		cmp	r0, #2
 5230 0078 14BF     		ite	ne
 5231 007a 0020     		movne	r0, #0
 5232 007c 0120     		moveq	r0, #1
 5233 007e D7E7     		b	.L666
 5234              	.L660:
 5235 0080 90F84200 		ldrb	r0, [r0, #66]	@ zero_extendqisi2
 5236 0084 C0B2     		uxtb	r0, r0
 5237 0086 0228     		cmp	r0, #2
 5238 0088 14BF     		ite	ne
 5239 008a 0020     		movne	r0, #0
 5240 008c 0120     		moveq	r0, #1
 5241 008e CFE7     		b	.L666
 5242              	.L659:
 5243 0090 90F84300 		ldrb	r0, [r0, #67]	@ zero_extendqisi2
 5244 0094 C0B2     		uxtb	r0, r0
 5245 0096 0228     		cmp	r0, #2
 5246 0098 14BF     		ite	ne
 5247 009a 0020     		movne	r0, #0
 5248 009c 0120     		moveq	r0, #1
 5249 009e C7E7     		b	.L666
 5250              	.L674:
 5251 00a0 95F83E20 		ldrb	r2, [r5, #62]	@ zero_extendqisi2
 5252 00a4 D2B2     		uxtb	r2, r2
 5253 00a6 012A     		cmp	r2, #1
 5254 00a8 14BF     		ite	ne
 5255 00aa 0022     		movne	r2, #0
 5256 00ac 0122     		moveq	r2, #1
 5257              	.L675:
 5258 00ae 002A     		cmp	r2, #0
 5259 00b0 00F02681 		beq	.L694
 5260 00b4 0029     		cmp	r1, #0
 5261 00b6 00F02581 		beq	.L695
 5262 00ba 002B     		cmp	r3, #0
 5263 00bc 00F02481 		beq	.L696
 5264 00c0 102C     		cmp	r4, #16
 5265 00c2 00F2EB80 		bhi	.L676
 5266 00c6 DFE814F0 		tbh	[pc, r4, lsl #1]
 5267              	.L678:
 5268 00ca 3900     		.2byte	(.L682-.L678)/2
ARM GAS  C:\Temp\ccqmCX5l.s 			page 90


 5269 00cc E900     		.2byte	(.L676-.L678)/2
 5270 00ce E900     		.2byte	(.L676-.L678)/2
 5271 00d0 E900     		.2byte	(.L676-.L678)/2
 5272 00d2 9900     		.2byte	(.L681-.L678)/2
 5273 00d4 E900     		.2byte	(.L676-.L678)/2
 5274 00d6 E900     		.2byte	(.L676-.L678)/2
 5275 00d8 E900     		.2byte	(.L676-.L678)/2
 5276 00da B200     		.2byte	(.L680-.L678)/2
 5277 00dc E900     		.2byte	(.L676-.L678)/2
 5278 00de E900     		.2byte	(.L676-.L678)/2
 5279 00e0 E900     		.2byte	(.L676-.L678)/2
 5280 00e2 CB00     		.2byte	(.L679-.L678)/2
 5281 00e4 E900     		.2byte	(.L676-.L678)/2
 5282 00e6 E900     		.2byte	(.L676-.L678)/2
 5283 00e8 E900     		.2byte	(.L676-.L678)/2
 5284 00ea E400     		.2byte	(.L677-.L678)/2
 5285              		.p2align 1
 5286              	.L673:
 5287 00ec 95F83F20 		ldrb	r2, [r5, #63]	@ zero_extendqisi2
 5288 00f0 D2B2     		uxtb	r2, r2
 5289 00f2 012A     		cmp	r2, #1
 5290 00f4 14BF     		ite	ne
 5291 00f6 0022     		movne	r2, #0
 5292 00f8 0122     		moveq	r2, #1
 5293 00fa D8E7     		b	.L675
 5294              	.L672:
 5295 00fc 95F84020 		ldrb	r2, [r5, #64]	@ zero_extendqisi2
 5296 0100 D2B2     		uxtb	r2, r2
 5297 0102 012A     		cmp	r2, #1
 5298 0104 14BF     		ite	ne
 5299 0106 0022     		movne	r2, #0
 5300 0108 0122     		moveq	r2, #1
 5301 010a D0E7     		b	.L675
 5302              	.L671:
 5303 010c 95F84120 		ldrb	r2, [r5, #65]	@ zero_extendqisi2
 5304 0110 D2B2     		uxtb	r2, r2
 5305 0112 012A     		cmp	r2, #1
 5306 0114 14BF     		ite	ne
 5307 0116 0022     		movne	r2, #0
 5308 0118 0122     		moveq	r2, #1
 5309 011a C8E7     		b	.L675
 5310              	.L669:
 5311 011c 95F84220 		ldrb	r2, [r5, #66]	@ zero_extendqisi2
 5312 0120 D2B2     		uxtb	r2, r2
 5313 0122 012A     		cmp	r2, #1
 5314 0124 14BF     		ite	ne
 5315 0126 0022     		movne	r2, #0
 5316 0128 0122     		moveq	r2, #1
 5317 012a C0E7     		b	.L675
 5318              	.L668:
 5319 012c 95F84320 		ldrb	r2, [r5, #67]	@ zero_extendqisi2
 5320 0130 D2B2     		uxtb	r2, r2
 5321 0132 012A     		cmp	r2, #1
 5322 0134 14BF     		ite	ne
 5323 0136 0022     		movne	r2, #0
 5324 0138 0122     		moveq	r2, #1
 5325 013a B8E7     		b	.L675
ARM GAS  C:\Temp\ccqmCX5l.s 			page 91


 5326              	.L682:
 5327 013c 0222     		movs	r2, #2
 5328 013e 85F83E20 		strb	r2, [r5, #62]
 5329              	.L683:
 5330 0142 6A6A     		ldr	r2, [r5, #36]
 5331 0144 7848     		ldr	r0, .L709
 5332 0146 9062     		str	r0, [r2, #40]
 5333 0148 6A6A     		ldr	r2, [r5, #36]
 5334 014a 7848     		ldr	r0, .L709+4
 5335 014c D062     		str	r0, [r2, #44]
 5336 014e 6A6A     		ldr	r2, [r5, #36]
 5337 0150 7748     		ldr	r0, .L709+8
 5338 0152 1063     		str	r0, [r2, #48]
 5339 0154 2A68     		ldr	r2, [r5]
 5340 0156 3432     		adds	r2, r2, #52
 5341 0158 686A     		ldr	r0, [r5, #36]
 5342 015a FFF7FEFF 		bl	HAL_DMA_Start_IT
 5343 015e 0028     		cmp	r0, #0
 5344 0160 40F0D680 		bne	.L698
 5345 0164 2A68     		ldr	r2, [r5]
 5346 0166 D368     		ldr	r3, [r2, #12]
 5347 0168 43F40073 		orr	r3, r3, #512
 5348 016c D360     		str	r3, [r2, #12]
 5349              	.L688:
 5350 016e 0122     		movs	r2, #1
 5351 0170 2146     		mov	r1, r4
 5352 0172 2868     		ldr	r0, [r5]
 5353 0174 FFF7FEFF 		bl	TIM_CCxChannelCmd
 5354 0178 2B68     		ldr	r3, [r5]
 5355 017a 6E4A     		ldr	r2, .L709+12
 5356 017c 9342     		cmp	r3, r2
 5357 017e 13D0     		beq	.L689
 5358 0180 02F50062 		add	r2, r2, #2048
 5359 0184 9342     		cmp	r3, r2
 5360 0186 0FD0     		beq	.L689
 5361 0188 02F54062 		add	r2, r2, #3072
 5362 018c 9342     		cmp	r3, r2
 5363 018e 0BD0     		beq	.L689
 5364 0190 02F58062 		add	r2, r2, #1024
 5365 0194 9342     		cmp	r3, r2
 5366 0196 07D0     		beq	.L689
 5367 0198 02F58062 		add	r2, r2, #1024
 5368 019c 9342     		cmp	r3, r2
 5369 019e 03D0     		beq	.L689
 5370 01a0 02F50062 		add	r2, r2, #2048
 5371 01a4 9342     		cmp	r3, r2
 5372 01a6 03D1     		bne	.L690
 5373              	.L689:
 5374 01a8 5A6C     		ldr	r2, [r3, #68]
 5375 01aa 42F40042 		orr	r2, r2, #32768
 5376 01ae 5A64     		str	r2, [r3, #68]
 5377              	.L690:
 5378 01b0 2B68     		ldr	r3, [r5]
 5379 01b2 604A     		ldr	r2, .L709+12
 5380 01b4 9342     		cmp	r3, r2
 5381 01b6 00F09380 		beq	.L691
 5382 01ba B3F1804F 		cmp	r3, #1073741824
ARM GAS  C:\Temp\ccqmCX5l.s 			page 92


 5383 01be 00F08F80 		beq	.L691
 5384 01c2 A2F59432 		sub	r2, r2, #75776
 5385 01c6 9342     		cmp	r3, r2
 5386 01c8 00F08A80 		beq	.L691
 5387 01cc 02F58062 		add	r2, r2, #1024
 5388 01d0 9342     		cmp	r3, r2
 5389 01d2 00F08580 		beq	.L691
 5390 01d6 02F59632 		add	r2, r2, #76800
 5391 01da 9342     		cmp	r3, r2
 5392 01dc 00F08080 		beq	.L691
 5393 01e0 02F54062 		add	r2, r2, #3072
 5394 01e4 9342     		cmp	r3, r2
 5395 01e6 7BD0     		beq	.L691
 5396 01e8 02F58052 		add	r2, r2, #4096
 5397 01ec 9342     		cmp	r3, r2
 5398 01ee 77D0     		beq	.L691
 5399 01f0 1A68     		ldr	r2, [r3]
 5400 01f2 42F00102 		orr	r2, r2, #1
 5401 01f6 1A60     		str	r2, [r3]
 5402 01f8 0020     		movs	r0, #0
 5403 01fa 82E0     		b	.L667
 5404              	.L681:
 5405 01fc 0222     		movs	r2, #2
 5406 01fe 85F83F20 		strb	r2, [r5, #63]
 5407              	.L684:
 5408 0202 AA6A     		ldr	r2, [r5, #40]
 5409 0204 4848     		ldr	r0, .L709
 5410 0206 9062     		str	r0, [r2, #40]
 5411 0208 AA6A     		ldr	r2, [r5, #40]
 5412 020a 4848     		ldr	r0, .L709+4
 5413 020c D062     		str	r0, [r2, #44]
 5414 020e AA6A     		ldr	r2, [r5, #40]
 5415 0210 4748     		ldr	r0, .L709+8
 5416 0212 1063     		str	r0, [r2, #48]
 5417 0214 2A68     		ldr	r2, [r5]
 5418 0216 3832     		adds	r2, r2, #56
 5419 0218 A86A     		ldr	r0, [r5, #40]
 5420 021a FFF7FEFF 		bl	HAL_DMA_Start_IT
 5421 021e 0028     		cmp	r0, #0
 5422 0220 78D1     		bne	.L699
 5423 0222 2A68     		ldr	r2, [r5]
 5424 0224 D368     		ldr	r3, [r2, #12]
 5425 0226 43F48063 		orr	r3, r3, #1024
 5426 022a D360     		str	r3, [r2, #12]
 5427 022c 9FE7     		b	.L688
 5428              	.L680:
 5429 022e 0222     		movs	r2, #2
 5430 0230 85F84020 		strb	r2, [r5, #64]
 5431              	.L685:
 5432 0234 EA6A     		ldr	r2, [r5, #44]
 5433 0236 3C48     		ldr	r0, .L709
 5434 0238 9062     		str	r0, [r2, #40]
 5435 023a EA6A     		ldr	r2, [r5, #44]
 5436 023c 3B48     		ldr	r0, .L709+4
 5437 023e D062     		str	r0, [r2, #44]
 5438 0240 EA6A     		ldr	r2, [r5, #44]
 5439 0242 3B48     		ldr	r0, .L709+8
ARM GAS  C:\Temp\ccqmCX5l.s 			page 93


 5440 0244 1063     		str	r0, [r2, #48]
 5441 0246 2A68     		ldr	r2, [r5]
 5442 0248 3C32     		adds	r2, r2, #60
 5443 024a E86A     		ldr	r0, [r5, #44]
 5444 024c FFF7FEFF 		bl	HAL_DMA_Start_IT
 5445 0250 0028     		cmp	r0, #0
 5446 0252 61D1     		bne	.L700
 5447 0254 2A68     		ldr	r2, [r5]
 5448 0256 D368     		ldr	r3, [r2, #12]
 5449 0258 43F40063 		orr	r3, r3, #2048
 5450 025c D360     		str	r3, [r2, #12]
 5451 025e 86E7     		b	.L688
 5452              	.L679:
 5453 0260 0222     		movs	r2, #2
 5454 0262 85F84120 		strb	r2, [r5, #65]
 5455              	.L686:
 5456 0266 2A6B     		ldr	r2, [r5, #48]
 5457 0268 2F48     		ldr	r0, .L709
 5458 026a 9062     		str	r0, [r2, #40]
 5459 026c 2A6B     		ldr	r2, [r5, #48]
 5460 026e 2F48     		ldr	r0, .L709+4
 5461 0270 D062     		str	r0, [r2, #44]
 5462 0272 2A6B     		ldr	r2, [r5, #48]
 5463 0274 2E48     		ldr	r0, .L709+8
 5464 0276 1063     		str	r0, [r2, #48]
 5465 0278 2A68     		ldr	r2, [r5]
 5466 027a 4032     		adds	r2, r2, #64
 5467 027c 286B     		ldr	r0, [r5, #48]
 5468 027e FFF7FEFF 		bl	HAL_DMA_Start_IT
 5469 0282 0028     		cmp	r0, #0
 5470 0284 4AD1     		bne	.L701
 5471 0286 2A68     		ldr	r2, [r5]
 5472 0288 D368     		ldr	r3, [r2, #12]
 5473 028a 43F48053 		orr	r3, r3, #4096
 5474 028e D360     		str	r3, [r2, #12]
 5475 0290 6DE7     		b	.L688
 5476              	.L677:
 5477 0292 0223     		movs	r3, #2
 5478 0294 85F84230 		strb	r3, [r5, #66]
 5479 0298 0120     		movs	r0, #1
 5480 029a 32E0     		b	.L667
 5481              	.L676:
 5482 029c 0222     		movs	r2, #2
 5483 029e 85F84320 		strb	r2, [r5, #67]
 5484 02a2 0C2C     		cmp	r4, #12
 5485 02a4 32D8     		bhi	.L697
 5486 02a6 01A2     		adr	r2, .L687
 5487 02a8 52F824F0 		ldr	pc, [r2, r4, lsl #2]
 5488              		.p2align 2
 5489              	.L687:
 5490 02ac 43010000 		.word	.L683+1
 5491 02b0 0D030000 		.word	.L697+1
 5492 02b4 0D030000 		.word	.L697+1
 5493 02b8 0D030000 		.word	.L697+1
 5494 02bc 03020000 		.word	.L684+1
 5495 02c0 0D030000 		.word	.L697+1
 5496 02c4 0D030000 		.word	.L697+1
ARM GAS  C:\Temp\ccqmCX5l.s 			page 94


 5497 02c8 0D030000 		.word	.L697+1
 5498 02cc 35020000 		.word	.L685+1
 5499 02d0 0D030000 		.word	.L697+1
 5500 02d4 0D030000 		.word	.L697+1
 5501 02d8 0D030000 		.word	.L697+1
 5502 02dc 67020000 		.word	.L686+1
 5503              		.p2align 1
 5504              	.L691:
 5505 02e0 9968     		ldr	r1, [r3, #8]
 5506 02e2 154A     		ldr	r2, .L709+16
 5507 02e4 0A40     		ands	r2, r2, r1
 5508 02e6 062A     		cmp	r2, #6
 5509 02e8 1AD0     		beq	.L702
 5510 02ea B2F5803F 		cmp	r2, #65536
 5511 02ee 19D0     		beq	.L703
 5512 02f0 1A68     		ldr	r2, [r3]
 5513 02f2 42F00102 		orr	r2, r2, #1
 5514 02f6 1A60     		str	r2, [r3]
 5515 02f8 0020     		movs	r0, #0
 5516 02fa 02E0     		b	.L667
 5517              	.L693:
 5518 02fc 0220     		movs	r0, #2
 5519 02fe 00E0     		b	.L667
 5520              	.L694:
 5521 0300 0120     		movs	r0, #1
 5522              	.L667:
 5523 0302 38BD     		pop	{r3, r4, r5, pc}
 5524              	.L695:
 5525 0304 0120     		movs	r0, #1
 5526 0306 FCE7     		b	.L667
 5527              	.L696:
 5528 0308 0120     		movs	r0, #1
 5529 030a FAE7     		b	.L667
 5530              	.L697:
 5531 030c 0120     		movs	r0, #1
 5532 030e F8E7     		b	.L667
 5533              	.L698:
 5534 0310 0120     		movs	r0, #1
 5535 0312 F6E7     		b	.L667
 5536              	.L699:
 5537 0314 0120     		movs	r0, #1
 5538 0316 F4E7     		b	.L667
 5539              	.L700:
 5540 0318 0120     		movs	r0, #1
 5541 031a F2E7     		b	.L667
 5542              	.L701:
 5543 031c 0120     		movs	r0, #1
 5544 031e F0E7     		b	.L667
 5545              	.L702:
 5546 0320 0020     		movs	r0, #0
 5547 0322 EEE7     		b	.L667
 5548              	.L703:
 5549 0324 0020     		movs	r0, #0
 5550 0326 ECE7     		b	.L667
 5551              	.L710:
 5552              		.align	2
 5553              	.L709:
ARM GAS  C:\Temp\ccqmCX5l.s 			page 95


 5554 0328 00000000 		.word	TIM_DMADelayPulseCplt
 5555 032c 00000000 		.word	TIM_DMADelayPulseHalfCplt
 5556 0330 00000000 		.word	TIM_DMAError
 5557 0334 002C0140 		.word	1073818624
 5558 0338 07000100 		.word	65543
 5560              		.section	.text.HAL_TIM_OC_Stop_DMA,"ax",%progbits
 5561              		.align	1
 5562              		.global	HAL_TIM_OC_Stop_DMA
 5563              		.syntax unified
 5564              		.thumb
 5565              		.thumb_func
 5567              	HAL_TIM_OC_Stop_DMA:
 5568              		@ args = 0, pretend = 0, frame = 0
 5569              		@ frame_needed = 0, uses_anonymous_args = 0
 5570 0000 38B5     		push	{r3, r4, r5, lr}
 5571 0002 0546     		mov	r5, r0
 5572 0004 0C46     		mov	r4, r1
 5573 0006 0C29     		cmp	r1, #12
 5574 0008 00F29180 		bhi	.L729
 5575 000c DFE801F0 		tbb	[pc, r1]
 5576              	.L714:
 5577 0010 07       		.byte	(.L717-.L714)/2
 5578 0011 8F       		.byte	(.L729-.L714)/2
 5579 0012 8F       		.byte	(.L729-.L714)/2
 5580 0013 8F       		.byte	(.L729-.L714)/2
 5581 0014 4F       		.byte	(.L716-.L714)/2
 5582 0015 8F       		.byte	(.L729-.L714)/2
 5583 0016 8F       		.byte	(.L729-.L714)/2
 5584 0017 8F       		.byte	(.L729-.L714)/2
 5585 0018 58       		.byte	(.L715-.L714)/2
 5586 0019 8F       		.byte	(.L729-.L714)/2
 5587 001a 8F       		.byte	(.L729-.L714)/2
 5588 001b 8F       		.byte	(.L729-.L714)/2
 5589 001c 61       		.byte	(.L713-.L714)/2
 5590 001d 00       		.p2align 1
 5591              	.L717:
 5592 001e 0268     		ldr	r2, [r0]
 5593 0020 D368     		ldr	r3, [r2, #12]
 5594 0022 23F40073 		bic	r3, r3, #512
 5595 0026 D360     		str	r3, [r2, #12]
 5596 0028 406A     		ldr	r0, [r0, #36]
 5597 002a FFF7FEFF 		bl	HAL_DMA_Abort_IT
 5598              	.L718:
 5599 002e 0022     		movs	r2, #0
 5600 0030 2146     		mov	r1, r4
 5601 0032 2868     		ldr	r0, [r5]
 5602 0034 FFF7FEFF 		bl	TIM_CCxChannelCmd
 5603 0038 2B68     		ldr	r3, [r5]
 5604 003a 3E4A     		ldr	r2, .L731
 5605 003c 9342     		cmp	r3, r2
 5606 003e 13D0     		beq	.L719
 5607 0040 02F50062 		add	r2, r2, #2048
 5608 0044 9342     		cmp	r3, r2
 5609 0046 0FD0     		beq	.L719
 5610 0048 02F54062 		add	r2, r2, #3072
 5611 004c 9342     		cmp	r3, r2
 5612 004e 0BD0     		beq	.L719
ARM GAS  C:\Temp\ccqmCX5l.s 			page 96


 5613 0050 02F58062 		add	r2, r2, #1024
 5614 0054 9342     		cmp	r3, r2
 5615 0056 07D0     		beq	.L719
 5616 0058 02F58062 		add	r2, r2, #1024
 5617 005c 9342     		cmp	r3, r2
 5618 005e 03D0     		beq	.L719
 5619 0060 02F50062 		add	r2, r2, #2048
 5620 0064 9342     		cmp	r3, r2
 5621 0066 0DD1     		bne	.L720
 5622              	.L719:
 5623 0068 196A     		ldr	r1, [r3, #32]
 5624 006a 41F21112 		movw	r2, #4369
 5625 006e 1142     		tst	r1, r2
 5626 0070 08D1     		bne	.L720
 5627 0072 196A     		ldr	r1, [r3, #32]
 5628 0074 40F24442 		movw	r2, #1092
 5629 0078 1142     		tst	r1, r2
 5630 007a 03D1     		bne	.L720
 5631 007c 5A6C     		ldr	r2, [r3, #68]
 5632 007e 22F40042 		bic	r2, r2, #32768
 5633 0082 5A64     		str	r2, [r3, #68]
 5634              	.L720:
 5635 0084 2B68     		ldr	r3, [r5]
 5636 0086 196A     		ldr	r1, [r3, #32]
 5637 0088 41F21112 		movw	r2, #4369
 5638 008c 1142     		tst	r1, r2
 5639 008e 08D1     		bne	.L721
 5640 0090 196A     		ldr	r1, [r3, #32]
 5641 0092 40F24442 		movw	r2, #1092
 5642 0096 1142     		tst	r1, r2
 5643 0098 03D1     		bne	.L721
 5644 009a 1A68     		ldr	r2, [r3]
 5645 009c 22F00102 		bic	r2, r2, #1
 5646 00a0 1A60     		str	r2, [r3]
 5647              	.L721:
 5648 00a2 FCB9     		cbnz	r4, .L722
 5649 00a4 0123     		movs	r3, #1
 5650 00a6 85F83E30 		strb	r3, [r5, #62]
 5651 00aa 0020     		movs	r0, #0
 5652 00ac 40E0     		b	.L712
 5653              	.L716:
 5654 00ae 0268     		ldr	r2, [r0]
 5655 00b0 D368     		ldr	r3, [r2, #12]
 5656 00b2 23F48063 		bic	r3, r3, #1024
 5657 00b6 D360     		str	r3, [r2, #12]
 5658 00b8 806A     		ldr	r0, [r0, #40]
 5659 00ba FFF7FEFF 		bl	HAL_DMA_Abort_IT
 5660 00be B6E7     		b	.L718
 5661              	.L715:
 5662 00c0 0268     		ldr	r2, [r0]
 5663 00c2 D368     		ldr	r3, [r2, #12]
 5664 00c4 23F40063 		bic	r3, r3, #2048
 5665 00c8 D360     		str	r3, [r2, #12]
 5666 00ca C06A     		ldr	r0, [r0, #44]
 5667 00cc FFF7FEFF 		bl	HAL_DMA_Abort_IT
 5668 00d0 ADE7     		b	.L718
 5669              	.L713:
ARM GAS  C:\Temp\ccqmCX5l.s 			page 97


 5670 00d2 0268     		ldr	r2, [r0]
 5671 00d4 D368     		ldr	r3, [r2, #12]
 5672 00d6 23F48053 		bic	r3, r3, #4096
 5673 00da D360     		str	r3, [r2, #12]
 5674 00dc 006B     		ldr	r0, [r0, #48]
 5675 00de FFF7FEFF 		bl	HAL_DMA_Abort_IT
 5676 00e2 A4E7     		b	.L718
 5677              	.L722:
 5678 00e4 043C     		subs	r4, r4, #4
 5679 00e6 0C2C     		cmp	r4, #12
 5680 00e8 1CD8     		bhi	.L723
 5681 00ea DFE804F0 		tbb	[pc, r4]
 5682              	.L725:
 5683 00ee 07       		.byte	(.L728-.L725)/2
 5684 00ef 1B       		.byte	(.L723-.L725)/2
 5685 00f0 1B       		.byte	(.L723-.L725)/2
 5686 00f1 1B       		.byte	(.L723-.L725)/2
 5687 00f2 0C       		.byte	(.L727-.L725)/2
 5688 00f3 1B       		.byte	(.L723-.L725)/2
 5689 00f4 1B       		.byte	(.L723-.L725)/2
 5690 00f5 1B       		.byte	(.L723-.L725)/2
 5691 00f6 11       		.byte	(.L726-.L725)/2
 5692 00f7 1B       		.byte	(.L723-.L725)/2
 5693 00f8 1B       		.byte	(.L723-.L725)/2
 5694 00f9 1B       		.byte	(.L723-.L725)/2
 5695 00fa 16       		.byte	(.L724-.L725)/2
 5696 00fb 00       		.p2align 1
 5697              	.L728:
 5698 00fc 0123     		movs	r3, #1
 5699 00fe 85F83F30 		strb	r3, [r5, #63]
 5700 0102 0020     		movs	r0, #0
 5701 0104 14E0     		b	.L712
 5702              	.L727:
 5703 0106 0123     		movs	r3, #1
 5704 0108 85F84030 		strb	r3, [r5, #64]
 5705 010c 0020     		movs	r0, #0
 5706 010e 0FE0     		b	.L712
 5707              	.L726:
 5708 0110 0123     		movs	r3, #1
 5709 0112 85F84130 		strb	r3, [r5, #65]
 5710 0116 0020     		movs	r0, #0
 5711 0118 0AE0     		b	.L712
 5712              	.L724:
 5713 011a 0123     		movs	r3, #1
 5714 011c 85F84230 		strb	r3, [r5, #66]
 5715 0120 0020     		movs	r0, #0
 5716 0122 05E0     		b	.L712
 5717              	.L723:
 5718 0124 0123     		movs	r3, #1
 5719 0126 85F84330 		strb	r3, [r5, #67]
 5720 012a 0020     		movs	r0, #0
 5721 012c 00E0     		b	.L712
 5722              	.L729:
 5723 012e 0120     		movs	r0, #1
 5724              	.L712:
 5725 0130 38BD     		pop	{r3, r4, r5, pc}
 5726              	.L732:
ARM GAS  C:\Temp\ccqmCX5l.s 			page 98


 5727 0132 00BF     		.align	2
 5728              	.L731:
 5729 0134 002C0140 		.word	1073818624
 5731              		.section	.text.HAL_TIM_PWM_Start,"ax",%progbits
 5732              		.align	1
 5733              		.global	HAL_TIM_PWM_Start
 5734              		.syntax unified
 5735              		.thumb
 5736              		.thumb_func
 5738              	HAL_TIM_PWM_Start:
 5739              		@ args = 0, pretend = 0, frame = 0
 5740              		@ frame_needed = 0, uses_anonymous_args = 0
 5741 0000 10B5     		push	{r4, lr}
 5742 0002 0446     		mov	r4, r0
 5743 0004 1029     		cmp	r1, #16
 5744 0006 3DD8     		bhi	.L734
 5745 0008 DFE801F0 		tbb	[pc, r1]
 5746              	.L736:
 5747 000c 09       		.byte	(.L740-.L736)/2
 5748 000d 3C       		.byte	(.L734-.L736)/2
 5749 000e 3C       		.byte	(.L734-.L736)/2
 5750 000f 3C       		.byte	(.L734-.L736)/2
 5751 0010 20       		.byte	(.L739-.L736)/2
 5752 0011 3C       		.byte	(.L734-.L736)/2
 5753 0012 3C       		.byte	(.L734-.L736)/2
 5754 0013 3C       		.byte	(.L734-.L736)/2
 5755 0014 27       		.byte	(.L738-.L736)/2
 5756 0015 3C       		.byte	(.L734-.L736)/2
 5757 0016 3C       		.byte	(.L734-.L736)/2
 5758 0017 3C       		.byte	(.L734-.L736)/2
 5759 0018 2E       		.byte	(.L737-.L736)/2
 5760 0019 3C       		.byte	(.L734-.L736)/2
 5761 001a 3C       		.byte	(.L734-.L736)/2
 5762 001b 3C       		.byte	(.L734-.L736)/2
 5763 001c 35       		.byte	(.L735-.L736)/2
 5764 001d 00       		.p2align 1
 5765              	.L740:
 5766 001e 90F83E30 		ldrb	r3, [r0, #62]	@ zero_extendqisi2
 5767 0022 DBB2     		uxtb	r3, r3
 5768 0024 013B     		subs	r3, r3, #1
 5769 0026 18BF     		it	ne
 5770 0028 0123     		movne	r3, #1
 5771              	.L741:
 5772 002a 002B     		cmp	r3, #0
 5773 002c 40F09780 		bne	.L755
 5774 0030 1029     		cmp	r1, #16
 5775 0032 00F28280 		bhi	.L743
 5776 0036 DFE801F0 		tbb	[pc, r1]
 5777              	.L745:
 5778 003a 2C       		.byte	(.L749-.L745)/2
 5779 003b 80       		.byte	(.L743-.L745)/2
 5780 003c 80       		.byte	(.L743-.L745)/2
 5781 003d 80       		.byte	(.L743-.L745)/2
 5782 003e 70       		.byte	(.L748-.L745)/2
 5783 003f 80       		.byte	(.L743-.L745)/2
 5784 0040 80       		.byte	(.L743-.L745)/2
 5785 0041 80       		.byte	(.L743-.L745)/2
ARM GAS  C:\Temp\ccqmCX5l.s 			page 99


 5786 0042 74       		.byte	(.L747-.L745)/2
 5787 0043 80       		.byte	(.L743-.L745)/2
 5788 0044 80       		.byte	(.L743-.L745)/2
 5789 0045 80       		.byte	(.L743-.L745)/2
 5790 0046 78       		.byte	(.L746-.L745)/2
 5791 0047 80       		.byte	(.L743-.L745)/2
 5792 0048 80       		.byte	(.L743-.L745)/2
 5793 0049 80       		.byte	(.L743-.L745)/2
 5794 004a 7C       		.byte	(.L744-.L745)/2
 5795 004b 00       		.p2align 1
 5796              	.L739:
 5797 004c 90F83F30 		ldrb	r3, [r0, #63]	@ zero_extendqisi2
 5798 0050 DBB2     		uxtb	r3, r3
 5799 0052 013B     		subs	r3, r3, #1
 5800 0054 18BF     		it	ne
 5801 0056 0123     		movne	r3, #1
 5802 0058 E7E7     		b	.L741
 5803              	.L738:
 5804 005a 90F84030 		ldrb	r3, [r0, #64]	@ zero_extendqisi2
 5805 005e DBB2     		uxtb	r3, r3
 5806 0060 013B     		subs	r3, r3, #1
 5807 0062 18BF     		it	ne
 5808 0064 0123     		movne	r3, #1
 5809 0066 E0E7     		b	.L741
 5810              	.L737:
 5811 0068 90F84130 		ldrb	r3, [r0, #65]	@ zero_extendqisi2
 5812 006c DBB2     		uxtb	r3, r3
 5813 006e 013B     		subs	r3, r3, #1
 5814 0070 18BF     		it	ne
 5815 0072 0123     		movne	r3, #1
 5816 0074 D9E7     		b	.L741
 5817              	.L735:
 5818 0076 90F84230 		ldrb	r3, [r0, #66]	@ zero_extendqisi2
 5819 007a DBB2     		uxtb	r3, r3
 5820 007c 013B     		subs	r3, r3, #1
 5821 007e 18BF     		it	ne
 5822 0080 0123     		movne	r3, #1
 5823 0082 D2E7     		b	.L741
 5824              	.L734:
 5825 0084 90F84330 		ldrb	r3, [r0, #67]	@ zero_extendqisi2
 5826 0088 DBB2     		uxtb	r3, r3
 5827 008a 013B     		subs	r3, r3, #1
 5828 008c 18BF     		it	ne
 5829 008e 0123     		movne	r3, #1
 5830 0090 CBE7     		b	.L741
 5831              	.L749:
 5832 0092 0223     		movs	r3, #2
 5833 0094 84F83E30 		strb	r3, [r4, #62]
 5834              	.L750:
 5835 0098 0122     		movs	r2, #1
 5836 009a 2068     		ldr	r0, [r4]
 5837 009c FFF7FEFF 		bl	TIM_CCxChannelCmd
 5838 00a0 2368     		ldr	r3, [r4]
 5839 00a2 324A     		ldr	r2, .L759
 5840 00a4 9342     		cmp	r3, r2
 5841 00a6 13D0     		beq	.L751
 5842 00a8 02F50062 		add	r2, r2, #2048
ARM GAS  C:\Temp\ccqmCX5l.s 			page 100


 5843 00ac 9342     		cmp	r3, r2
 5844 00ae 0FD0     		beq	.L751
 5845 00b0 02F54062 		add	r2, r2, #3072
 5846 00b4 9342     		cmp	r3, r2
 5847 00b6 0BD0     		beq	.L751
 5848 00b8 02F58062 		add	r2, r2, #1024
 5849 00bc 9342     		cmp	r3, r2
 5850 00be 07D0     		beq	.L751
 5851 00c0 02F58062 		add	r2, r2, #1024
 5852 00c4 9342     		cmp	r3, r2
 5853 00c6 03D0     		beq	.L751
 5854 00c8 02F50062 		add	r2, r2, #2048
 5855 00cc 9342     		cmp	r3, r2
 5856 00ce 03D1     		bne	.L752
 5857              	.L751:
 5858 00d0 5A6C     		ldr	r2, [r3, #68]
 5859 00d2 42F40042 		orr	r2, r2, #32768
 5860 00d6 5A64     		str	r2, [r3, #68]
 5861              	.L752:
 5862 00d8 2368     		ldr	r3, [r4]
 5863 00da 244A     		ldr	r2, .L759
 5864 00dc 9342     		cmp	r3, r2
 5865 00de 30D0     		beq	.L753
 5866 00e0 B3F1804F 		cmp	r3, #1073741824
 5867 00e4 2DD0     		beq	.L753
 5868 00e6 A2F59432 		sub	r2, r2, #75776
 5869 00ea 9342     		cmp	r3, r2
 5870 00ec 29D0     		beq	.L753
 5871 00ee 02F58062 		add	r2, r2, #1024
 5872 00f2 9342     		cmp	r3, r2
 5873 00f4 25D0     		beq	.L753
 5874 00f6 02F59632 		add	r2, r2, #76800
 5875 00fa 9342     		cmp	r3, r2
 5876 00fc 21D0     		beq	.L753
 5877 00fe 02F54062 		add	r2, r2, #3072
 5878 0102 9342     		cmp	r3, r2
 5879 0104 1DD0     		beq	.L753
 5880 0106 02F58052 		add	r2, r2, #4096
 5881 010a 9342     		cmp	r3, r2
 5882 010c 19D0     		beq	.L753
 5883 010e 1A68     		ldr	r2, [r3]
 5884 0110 42F00102 		orr	r2, r2, #1
 5885 0114 1A60     		str	r2, [r3]
 5886 0116 0020     		movs	r0, #0
 5887 0118 22E0     		b	.L742
 5888              	.L748:
 5889 011a 0223     		movs	r3, #2
 5890 011c 84F83F30 		strb	r3, [r4, #63]
 5891 0120 BAE7     		b	.L750
 5892              	.L747:
 5893 0122 0223     		movs	r3, #2
 5894 0124 84F84030 		strb	r3, [r4, #64]
 5895 0128 B6E7     		b	.L750
 5896              	.L746:
 5897 012a 0223     		movs	r3, #2
 5898 012c 84F84130 		strb	r3, [r4, #65]
 5899 0130 B2E7     		b	.L750
ARM GAS  C:\Temp\ccqmCX5l.s 			page 101


 5900              	.L744:
 5901 0132 0223     		movs	r3, #2
 5902 0134 84F84230 		strb	r3, [r4, #66]
 5903 0138 AEE7     		b	.L750
 5904              	.L743:
 5905 013a 0223     		movs	r3, #2
 5906 013c 84F84330 		strb	r3, [r4, #67]
 5907 0140 AAE7     		b	.L750
 5908              	.L753:
 5909 0142 9968     		ldr	r1, [r3, #8]
 5910 0144 0A4A     		ldr	r2, .L759+4
 5911 0146 0A40     		ands	r2, r2, r1
 5912 0148 062A     		cmp	r2, #6
 5913 014a 0AD0     		beq	.L756
 5914 014c B2F5803F 		cmp	r2, #65536
 5915 0150 09D0     		beq	.L757
 5916 0152 1A68     		ldr	r2, [r3]
 5917 0154 42F00102 		orr	r2, r2, #1
 5918 0158 1A60     		str	r2, [r3]
 5919 015a 0020     		movs	r0, #0
 5920 015c 00E0     		b	.L742
 5921              	.L755:
 5922 015e 0120     		movs	r0, #1
 5923              	.L742:
 5924 0160 10BD     		pop	{r4, pc}
 5925              	.L756:
 5926 0162 0020     		movs	r0, #0
 5927 0164 FCE7     		b	.L742
 5928              	.L757:
 5929 0166 0020     		movs	r0, #0
 5930 0168 FAE7     		b	.L742
 5931              	.L760:
 5932 016a 00BF     		.align	2
 5933              	.L759:
 5934 016c 002C0140 		.word	1073818624
 5935 0170 07000100 		.word	65543
 5937              		.section	.text.HAL_TIM_PWM_Stop,"ax",%progbits
 5938              		.align	1
 5939              		.global	HAL_TIM_PWM_Stop
 5940              		.syntax unified
 5941              		.thumb
 5942              		.thumb_func
 5944              	HAL_TIM_PWM_Stop:
 5945              		@ args = 0, pretend = 0, frame = 0
 5946              		@ frame_needed = 0, uses_anonymous_args = 0
 5947 0000 38B5     		push	{r3, r4, r5, lr}
 5948 0002 0446     		mov	r4, r0
 5949 0004 0D46     		mov	r5, r1
 5950 0006 0022     		movs	r2, #0
 5951 0008 0068     		ldr	r0, [r0]
 5952 000a FFF7FEFF 		bl	TIM_CCxChannelCmd
 5953 000e 2368     		ldr	r3, [r4]
 5954 0010 2C4A     		ldr	r2, .L774
 5955 0012 9342     		cmp	r3, r2
 5956 0014 13D0     		beq	.L762
 5957 0016 02F50062 		add	r2, r2, #2048
 5958 001a 9342     		cmp	r3, r2
ARM GAS  C:\Temp\ccqmCX5l.s 			page 102


 5959 001c 0FD0     		beq	.L762
 5960 001e 02F54062 		add	r2, r2, #3072
 5961 0022 9342     		cmp	r3, r2
 5962 0024 0BD0     		beq	.L762
 5963 0026 02F58062 		add	r2, r2, #1024
 5964 002a 9342     		cmp	r3, r2
 5965 002c 07D0     		beq	.L762
 5966 002e 02F58062 		add	r2, r2, #1024
 5967 0032 9342     		cmp	r3, r2
 5968 0034 03D0     		beq	.L762
 5969 0036 02F50062 		add	r2, r2, #2048
 5970 003a 9342     		cmp	r3, r2
 5971 003c 0DD1     		bne	.L763
 5972              	.L762:
 5973 003e 196A     		ldr	r1, [r3, #32]
 5974 0040 41F21112 		movw	r2, #4369
 5975 0044 1142     		tst	r1, r2
 5976 0046 08D1     		bne	.L763
 5977 0048 196A     		ldr	r1, [r3, #32]
 5978 004a 40F24442 		movw	r2, #1092
 5979 004e 1142     		tst	r1, r2
 5980 0050 03D1     		bne	.L763
 5981 0052 5A6C     		ldr	r2, [r3, #68]
 5982 0054 22F40042 		bic	r2, r2, #32768
 5983 0058 5A64     		str	r2, [r3, #68]
 5984              	.L763:
 5985 005a 2368     		ldr	r3, [r4]
 5986 005c 196A     		ldr	r1, [r3, #32]
 5987 005e 41F21112 		movw	r2, #4369
 5988 0062 1142     		tst	r1, r2
 5989 0064 08D1     		bne	.L764
 5990 0066 196A     		ldr	r1, [r3, #32]
 5991 0068 40F24442 		movw	r2, #1092
 5992 006c 1142     		tst	r1, r2
 5993 006e 03D1     		bne	.L764
 5994 0070 1A68     		ldr	r2, [r3]
 5995 0072 22F00102 		bic	r2, r2, #1
 5996 0076 1A60     		str	r2, [r3]
 5997              	.L764:
 5998 0078 25B9     		cbnz	r5, .L765
 5999 007a 0123     		movs	r3, #1
 6000 007c 84F83E30 		strb	r3, [r4, #62]
 6001              	.L766:
 6002 0080 0020     		movs	r0, #0
 6003 0082 38BD     		pop	{r3, r4, r5, pc}
 6004              	.L765:
 6005 0084 043D     		subs	r5, r5, #4
 6006 0086 0C2D     		cmp	r5, #12
 6007 0088 18D8     		bhi	.L767
 6008 008a DFE805F0 		tbb	[pc, r5]
 6009              	.L769:
 6010 008e 07       		.byte	(.L772-.L769)/2
 6011 008f 17       		.byte	(.L767-.L769)/2
 6012 0090 17       		.byte	(.L767-.L769)/2
 6013 0091 17       		.byte	(.L767-.L769)/2
 6014 0092 0B       		.byte	(.L771-.L769)/2
 6015 0093 17       		.byte	(.L767-.L769)/2
ARM GAS  C:\Temp\ccqmCX5l.s 			page 103


 6016 0094 17       		.byte	(.L767-.L769)/2
 6017 0095 17       		.byte	(.L767-.L769)/2
 6018 0096 0F       		.byte	(.L770-.L769)/2
 6019 0097 17       		.byte	(.L767-.L769)/2
 6020 0098 17       		.byte	(.L767-.L769)/2
 6021 0099 17       		.byte	(.L767-.L769)/2
 6022 009a 13       		.byte	(.L768-.L769)/2
 6023 009b 00       		.p2align 1
 6024              	.L772:
 6025 009c 0123     		movs	r3, #1
 6026 009e 84F83F30 		strb	r3, [r4, #63]
 6027 00a2 EDE7     		b	.L766
 6028              	.L771:
 6029 00a4 0123     		movs	r3, #1
 6030 00a6 84F84030 		strb	r3, [r4, #64]
 6031 00aa E9E7     		b	.L766
 6032              	.L770:
 6033 00ac 0123     		movs	r3, #1
 6034 00ae 84F84130 		strb	r3, [r4, #65]
 6035 00b2 E5E7     		b	.L766
 6036              	.L768:
 6037 00b4 0123     		movs	r3, #1
 6038 00b6 84F84230 		strb	r3, [r4, #66]
 6039 00ba E1E7     		b	.L766
 6040              	.L767:
 6041 00bc 0123     		movs	r3, #1
 6042 00be 84F84330 		strb	r3, [r4, #67]
 6043 00c2 DDE7     		b	.L766
 6044              	.L775:
 6045              		.align	2
 6046              	.L774:
 6047 00c4 002C0140 		.word	1073818624
 6049              		.section	.text.HAL_TIM_PWM_Start_IT,"ax",%progbits
 6050              		.align	1
 6051              		.global	HAL_TIM_PWM_Start_IT
 6052              		.syntax unified
 6053              		.thumb
 6054              		.thumb_func
 6056              	HAL_TIM_PWM_Start_IT:
 6057              		@ args = 0, pretend = 0, frame = 0
 6058              		@ frame_needed = 0, uses_anonymous_args = 0
 6059 0000 10B5     		push	{r4, lr}
 6060 0002 0446     		mov	r4, r0
 6061 0004 1029     		cmp	r1, #16
 6062 0006 3DD8     		bhi	.L777
 6063 0008 DFE801F0 		tbb	[pc, r1]
 6064              	.L779:
 6065 000c 09       		.byte	(.L783-.L779)/2
 6066 000d 3C       		.byte	(.L777-.L779)/2
 6067 000e 3C       		.byte	(.L777-.L779)/2
 6068 000f 3C       		.byte	(.L777-.L779)/2
 6069 0010 20       		.byte	(.L782-.L779)/2
 6070 0011 3C       		.byte	(.L777-.L779)/2
 6071 0012 3C       		.byte	(.L777-.L779)/2
 6072 0013 3C       		.byte	(.L777-.L779)/2
 6073 0014 27       		.byte	(.L781-.L779)/2
 6074 0015 3C       		.byte	(.L777-.L779)/2
ARM GAS  C:\Temp\ccqmCX5l.s 			page 104


 6075 0016 3C       		.byte	(.L777-.L779)/2
 6076 0017 3C       		.byte	(.L777-.L779)/2
 6077 0018 2E       		.byte	(.L780-.L779)/2
 6078 0019 3C       		.byte	(.L777-.L779)/2
 6079 001a 3C       		.byte	(.L777-.L779)/2
 6080 001b 3C       		.byte	(.L777-.L779)/2
 6081 001c 35       		.byte	(.L778-.L779)/2
 6082 001d 00       		.p2align 1
 6083              	.L783:
 6084 001e 90F83E30 		ldrb	r3, [r0, #62]	@ zero_extendqisi2
 6085 0022 DBB2     		uxtb	r3, r3
 6086 0024 013B     		subs	r3, r3, #1
 6087 0026 18BF     		it	ne
 6088 0028 0123     		movne	r3, #1
 6089              	.L784:
 6090 002a 002B     		cmp	r3, #0
 6091 002c 40F0CA80 		bne	.L803
 6092 0030 1029     		cmp	r1, #16
 6093 0032 00F29780 		bhi	.L786
 6094 0036 DFE801F0 		tbb	[pc, r1]
 6095              	.L788:
 6096 003a 2C       		.byte	(.L792-.L788)/2
 6097 003b 95       		.byte	(.L786-.L788)/2
 6098 003c 95       		.byte	(.L786-.L788)/2
 6099 003d 95       		.byte	(.L786-.L788)/2
 6100 003e 75       		.byte	(.L791-.L788)/2
 6101 003f 95       		.byte	(.L786-.L788)/2
 6102 0040 95       		.byte	(.L786-.L788)/2
 6103 0041 95       		.byte	(.L786-.L788)/2
 6104 0042 7E       		.byte	(.L790-.L788)/2
 6105 0043 95       		.byte	(.L786-.L788)/2
 6106 0044 95       		.byte	(.L786-.L788)/2
 6107 0045 95       		.byte	(.L786-.L788)/2
 6108 0046 87       		.byte	(.L789-.L788)/2
 6109 0047 95       		.byte	(.L786-.L788)/2
 6110 0048 95       		.byte	(.L786-.L788)/2
 6111 0049 95       		.byte	(.L786-.L788)/2
 6112 004a 90       		.byte	(.L787-.L788)/2
 6113 004b 00       		.p2align 1
 6114              	.L782:
 6115 004c 90F83F30 		ldrb	r3, [r0, #63]	@ zero_extendqisi2
 6116 0050 DBB2     		uxtb	r3, r3
 6117 0052 013B     		subs	r3, r3, #1
 6118 0054 18BF     		it	ne
 6119 0056 0123     		movne	r3, #1
 6120 0058 E7E7     		b	.L784
 6121              	.L781:
 6122 005a 90F84030 		ldrb	r3, [r0, #64]	@ zero_extendqisi2
 6123 005e DBB2     		uxtb	r3, r3
 6124 0060 013B     		subs	r3, r3, #1
 6125 0062 18BF     		it	ne
 6126 0064 0123     		movne	r3, #1
 6127 0066 E0E7     		b	.L784
 6128              	.L780:
 6129 0068 90F84130 		ldrb	r3, [r0, #65]	@ zero_extendqisi2
 6130 006c DBB2     		uxtb	r3, r3
 6131 006e 013B     		subs	r3, r3, #1
ARM GAS  C:\Temp\ccqmCX5l.s 			page 105


 6132 0070 18BF     		it	ne
 6133 0072 0123     		movne	r3, #1
 6134 0074 D9E7     		b	.L784
 6135              	.L778:
 6136 0076 90F84230 		ldrb	r3, [r0, #66]	@ zero_extendqisi2
 6137 007a DBB2     		uxtb	r3, r3
 6138 007c 013B     		subs	r3, r3, #1
 6139 007e 18BF     		it	ne
 6140 0080 0123     		movne	r3, #1
 6141 0082 D2E7     		b	.L784
 6142              	.L777:
 6143 0084 90F84330 		ldrb	r3, [r0, #67]	@ zero_extendqisi2
 6144 0088 DBB2     		uxtb	r3, r3
 6145 008a 013B     		subs	r3, r3, #1
 6146 008c 18BF     		it	ne
 6147 008e 0123     		movne	r3, #1
 6148 0090 CBE7     		b	.L784
 6149              	.L792:
 6150 0092 0223     		movs	r3, #2
 6151 0094 84F83E30 		strb	r3, [r4, #62]
 6152              	.L793:
 6153 0098 2268     		ldr	r2, [r4]
 6154 009a D368     		ldr	r3, [r2, #12]
 6155 009c 43F00203 		orr	r3, r3, #2
 6156 00a0 D360     		str	r3, [r2, #12]
 6157              	.L798:
 6158 00a2 0122     		movs	r2, #1
 6159 00a4 2068     		ldr	r0, [r4]
 6160 00a6 FFF7FEFF 		bl	TIM_CCxChannelCmd
 6161 00aa 2368     		ldr	r3, [r4]
 6162 00ac 494A     		ldr	r2, .L812
 6163 00ae 9342     		cmp	r3, r2
 6164 00b0 13D0     		beq	.L799
 6165 00b2 02F50062 		add	r2, r2, #2048
 6166 00b6 9342     		cmp	r3, r2
 6167 00b8 0FD0     		beq	.L799
 6168 00ba 02F54062 		add	r2, r2, #3072
 6169 00be 9342     		cmp	r3, r2
 6170 00c0 0BD0     		beq	.L799
 6171 00c2 02F58062 		add	r2, r2, #1024
 6172 00c6 9342     		cmp	r3, r2
 6173 00c8 07D0     		beq	.L799
 6174 00ca 02F58062 		add	r2, r2, #1024
 6175 00ce 9342     		cmp	r3, r2
 6176 00d0 03D0     		beq	.L799
 6177 00d2 02F50062 		add	r2, r2, #2048
 6178 00d6 9342     		cmp	r3, r2
 6179 00d8 03D1     		bne	.L800
 6180              	.L799:
 6181 00da 5A6C     		ldr	r2, [r3, #68]
 6182 00dc 42F40042 		orr	r2, r2, #32768
 6183 00e0 5A64     		str	r2, [r3, #68]
 6184              	.L800:
 6185 00e2 2368     		ldr	r3, [r4]
 6186 00e4 3B4A     		ldr	r2, .L812
 6187 00e6 9342     		cmp	r3, r2
 6188 00e8 5ED0     		beq	.L801
ARM GAS  C:\Temp\ccqmCX5l.s 			page 106


 6189 00ea B3F1804F 		cmp	r3, #1073741824
 6190 00ee 5BD0     		beq	.L801
 6191 00f0 A2F59432 		sub	r2, r2, #75776
 6192 00f4 9342     		cmp	r3, r2
 6193 00f6 57D0     		beq	.L801
 6194 00f8 02F58062 		add	r2, r2, #1024
 6195 00fc 9342     		cmp	r3, r2
 6196 00fe 53D0     		beq	.L801
 6197 0100 02F59632 		add	r2, r2, #76800
 6198 0104 9342     		cmp	r3, r2
 6199 0106 4FD0     		beq	.L801
 6200 0108 02F54062 		add	r2, r2, #3072
 6201 010c 9342     		cmp	r3, r2
 6202 010e 4BD0     		beq	.L801
 6203 0110 02F58052 		add	r2, r2, #4096
 6204 0114 9342     		cmp	r3, r2
 6205 0116 47D0     		beq	.L801
 6206 0118 1A68     		ldr	r2, [r3]
 6207 011a 42F00102 		orr	r2, r2, #1
 6208 011e 1A60     		str	r2, [r3]
 6209 0120 0020     		movs	r0, #0
 6210 0122 50E0     		b	.L785
 6211              	.L791:
 6212 0124 0223     		movs	r3, #2
 6213 0126 84F83F30 		strb	r3, [r4, #63]
 6214              	.L794:
 6215 012a 2268     		ldr	r2, [r4]
 6216 012c D368     		ldr	r3, [r2, #12]
 6217 012e 43F00403 		orr	r3, r3, #4
 6218 0132 D360     		str	r3, [r2, #12]
 6219 0134 B5E7     		b	.L798
 6220              	.L790:
 6221 0136 0223     		movs	r3, #2
 6222 0138 84F84030 		strb	r3, [r4, #64]
 6223              	.L795:
 6224 013c 2268     		ldr	r2, [r4]
 6225 013e D368     		ldr	r3, [r2, #12]
 6226 0140 43F00803 		orr	r3, r3, #8
 6227 0144 D360     		str	r3, [r2, #12]
 6228 0146 ACE7     		b	.L798
 6229              	.L789:
 6230 0148 0223     		movs	r3, #2
 6231 014a 84F84130 		strb	r3, [r4, #65]
 6232              	.L796:
 6233 014e 2268     		ldr	r2, [r4]
 6234 0150 D368     		ldr	r3, [r2, #12]
 6235 0152 43F01003 		orr	r3, r3, #16
 6236 0156 D360     		str	r3, [r2, #12]
 6237 0158 A3E7     		b	.L798
 6238              	.L787:
 6239 015a 0223     		movs	r3, #2
 6240 015c 84F84230 		strb	r3, [r4, #66]
 6241 0160 0120     		movs	r0, #1
 6242 0162 30E0     		b	.L785
 6243              	.L786:
 6244 0164 0223     		movs	r3, #2
 6245 0166 84F84330 		strb	r3, [r4, #67]
ARM GAS  C:\Temp\ccqmCX5l.s 			page 107


 6246 016a 0C29     		cmp	r1, #12
 6247 016c 2CD8     		bhi	.L804
 6248 016e 01A3     		adr	r3, .L797
 6249 0170 53F821F0 		ldr	pc, [r3, r1, lsl #2]
 6250              		.p2align 2
 6251              	.L797:
 6252 0174 99000000 		.word	.L793+1
 6253 0178 C9010000 		.word	.L804+1
 6254 017c C9010000 		.word	.L804+1
 6255 0180 C9010000 		.word	.L804+1
 6256 0184 2B010000 		.word	.L794+1
 6257 0188 C9010000 		.word	.L804+1
 6258 018c C9010000 		.word	.L804+1
 6259 0190 C9010000 		.word	.L804+1
 6260 0194 3D010000 		.word	.L795+1
 6261 0198 C9010000 		.word	.L804+1
 6262 019c C9010000 		.word	.L804+1
 6263 01a0 C9010000 		.word	.L804+1
 6264 01a4 4F010000 		.word	.L796+1
 6265              		.p2align 1
 6266              	.L801:
 6267 01a8 9968     		ldr	r1, [r3, #8]
 6268 01aa 0B4A     		ldr	r2, .L812+4
 6269 01ac 0A40     		ands	r2, r2, r1
 6270 01ae 062A     		cmp	r2, #6
 6271 01b0 0CD0     		beq	.L805
 6272 01b2 B2F5803F 		cmp	r2, #65536
 6273 01b6 0BD0     		beq	.L806
 6274 01b8 1A68     		ldr	r2, [r3]
 6275 01ba 42F00102 		orr	r2, r2, #1
 6276 01be 1A60     		str	r2, [r3]
 6277 01c0 0020     		movs	r0, #0
 6278 01c2 00E0     		b	.L785
 6279              	.L803:
 6280 01c4 0120     		movs	r0, #1
 6281              	.L785:
 6282 01c6 10BD     		pop	{r4, pc}
 6283              	.L804:
 6284 01c8 0120     		movs	r0, #1
 6285 01ca FCE7     		b	.L785
 6286              	.L805:
 6287 01cc 0020     		movs	r0, #0
 6288 01ce FAE7     		b	.L785
 6289              	.L806:
 6290 01d0 0020     		movs	r0, #0
 6291 01d2 F8E7     		b	.L785
 6292              	.L813:
 6293              		.align	2
 6294              	.L812:
 6295 01d4 002C0140 		.word	1073818624
 6296 01d8 07000100 		.word	65543
 6298              		.section	.text.HAL_TIM_PWM_Stop_IT,"ax",%progbits
 6299              		.align	1
 6300              		.global	HAL_TIM_PWM_Stop_IT
 6301              		.syntax unified
 6302              		.thumb
 6303              		.thumb_func
ARM GAS  C:\Temp\ccqmCX5l.s 			page 108


 6305              	HAL_TIM_PWM_Stop_IT:
 6306              		@ args = 0, pretend = 0, frame = 0
 6307              		@ frame_needed = 0, uses_anonymous_args = 0
 6308 0000 38B5     		push	{r3, r4, r5, lr}
 6309 0002 0546     		mov	r5, r0
 6310 0004 0C46     		mov	r4, r1
 6311 0006 0C29     		cmp	r1, #12
 6312 0008 00F28580 		bhi	.L832
 6313 000c DFE801F0 		tbb	[pc, r1]
 6314              	.L817:
 6315 0010 07       		.byte	(.L820-.L817)/2
 6316 0011 83       		.byte	(.L832-.L817)/2
 6317 0012 83       		.byte	(.L832-.L817)/2
 6318 0013 83       		.byte	(.L832-.L817)/2
 6319 0014 4C       		.byte	(.L819-.L817)/2
 6320 0015 83       		.byte	(.L832-.L817)/2
 6321 0016 83       		.byte	(.L832-.L817)/2
 6322 0017 83       		.byte	(.L832-.L817)/2
 6323 0018 52       		.byte	(.L818-.L817)/2
 6324 0019 83       		.byte	(.L832-.L817)/2
 6325 001a 83       		.byte	(.L832-.L817)/2
 6326 001b 83       		.byte	(.L832-.L817)/2
 6327 001c 58       		.byte	(.L816-.L817)/2
 6328 001d 00       		.p2align 1
 6329              	.L820:
 6330 001e 0268     		ldr	r2, [r0]
 6331 0020 D368     		ldr	r3, [r2, #12]
 6332 0022 23F00203 		bic	r3, r3, #2
 6333 0026 D360     		str	r3, [r2, #12]
 6334              	.L821:
 6335 0028 0022     		movs	r2, #0
 6336 002a 2146     		mov	r1, r4
 6337 002c 2868     		ldr	r0, [r5]
 6338 002e FFF7FEFF 		bl	TIM_CCxChannelCmd
 6339 0032 2B68     		ldr	r3, [r5]
 6340 0034 394A     		ldr	r2, .L834
 6341 0036 9342     		cmp	r3, r2
 6342 0038 13D0     		beq	.L822
 6343 003a 02F50062 		add	r2, r2, #2048
 6344 003e 9342     		cmp	r3, r2
 6345 0040 0FD0     		beq	.L822
 6346 0042 02F54062 		add	r2, r2, #3072
 6347 0046 9342     		cmp	r3, r2
 6348 0048 0BD0     		beq	.L822
 6349 004a 02F58062 		add	r2, r2, #1024
 6350 004e 9342     		cmp	r3, r2
 6351 0050 07D0     		beq	.L822
 6352 0052 02F58062 		add	r2, r2, #1024
 6353 0056 9342     		cmp	r3, r2
 6354 0058 03D0     		beq	.L822
 6355 005a 02F50062 		add	r2, r2, #2048
 6356 005e 9342     		cmp	r3, r2
 6357 0060 0DD1     		bne	.L823
 6358              	.L822:
 6359 0062 196A     		ldr	r1, [r3, #32]
 6360 0064 41F21112 		movw	r2, #4369
 6361 0068 1142     		tst	r1, r2
ARM GAS  C:\Temp\ccqmCX5l.s 			page 109


 6362 006a 08D1     		bne	.L823
 6363 006c 196A     		ldr	r1, [r3, #32]
 6364 006e 40F24442 		movw	r2, #1092
 6365 0072 1142     		tst	r1, r2
 6366 0074 03D1     		bne	.L823
 6367 0076 5A6C     		ldr	r2, [r3, #68]
 6368 0078 22F40042 		bic	r2, r2, #32768
 6369 007c 5A64     		str	r2, [r3, #68]
 6370              	.L823:
 6371 007e 2B68     		ldr	r3, [r5]
 6372 0080 196A     		ldr	r1, [r3, #32]
 6373 0082 41F21112 		movw	r2, #4369
 6374 0086 1142     		tst	r1, r2
 6375 0088 08D1     		bne	.L824
 6376 008a 196A     		ldr	r1, [r3, #32]
 6377 008c 40F24442 		movw	r2, #1092
 6378 0090 1142     		tst	r1, r2
 6379 0092 03D1     		bne	.L824
 6380 0094 1A68     		ldr	r2, [r3]
 6381 0096 22F00102 		bic	r2, r2, #1
 6382 009a 1A60     		str	r2, [r3]
 6383              	.L824:
 6384 009c B4B9     		cbnz	r4, .L825
 6385 009e 0123     		movs	r3, #1
 6386 00a0 85F83E30 		strb	r3, [r5, #62]
 6387 00a4 0020     		movs	r0, #0
 6388 00a6 37E0     		b	.L815
 6389              	.L819:
 6390 00a8 0268     		ldr	r2, [r0]
 6391 00aa D368     		ldr	r3, [r2, #12]
 6392 00ac 23F00403 		bic	r3, r3, #4
 6393 00b0 D360     		str	r3, [r2, #12]
 6394 00b2 B9E7     		b	.L821
 6395              	.L818:
 6396 00b4 0268     		ldr	r2, [r0]
 6397 00b6 D368     		ldr	r3, [r2, #12]
 6398 00b8 23F00803 		bic	r3, r3, #8
 6399 00bc D360     		str	r3, [r2, #12]
 6400 00be B3E7     		b	.L821
 6401              	.L816:
 6402 00c0 0268     		ldr	r2, [r0]
 6403 00c2 D368     		ldr	r3, [r2, #12]
 6404 00c4 23F01003 		bic	r3, r3, #16
 6405 00c8 D360     		str	r3, [r2, #12]
 6406 00ca ADE7     		b	.L821
 6407              	.L825:
 6408 00cc 043C     		subs	r4, r4, #4
 6409 00ce 0C2C     		cmp	r4, #12
 6410 00d0 1CD8     		bhi	.L826
 6411 00d2 DFE804F0 		tbb	[pc, r4]
 6412              	.L828:
 6413 00d6 07       		.byte	(.L831-.L828)/2
 6414 00d7 1B       		.byte	(.L826-.L828)/2
 6415 00d8 1B       		.byte	(.L826-.L828)/2
 6416 00d9 1B       		.byte	(.L826-.L828)/2
 6417 00da 0C       		.byte	(.L830-.L828)/2
 6418 00db 1B       		.byte	(.L826-.L828)/2
ARM GAS  C:\Temp\ccqmCX5l.s 			page 110


 6419 00dc 1B       		.byte	(.L826-.L828)/2
 6420 00dd 1B       		.byte	(.L826-.L828)/2
 6421 00de 11       		.byte	(.L829-.L828)/2
 6422 00df 1B       		.byte	(.L826-.L828)/2
 6423 00e0 1B       		.byte	(.L826-.L828)/2
 6424 00e1 1B       		.byte	(.L826-.L828)/2
 6425 00e2 16       		.byte	(.L827-.L828)/2
 6426 00e3 00       		.p2align 1
 6427              	.L831:
 6428 00e4 0123     		movs	r3, #1
 6429 00e6 85F83F30 		strb	r3, [r5, #63]
 6430 00ea 0020     		movs	r0, #0
 6431 00ec 14E0     		b	.L815
 6432              	.L830:
 6433 00ee 0123     		movs	r3, #1
 6434 00f0 85F84030 		strb	r3, [r5, #64]
 6435 00f4 0020     		movs	r0, #0
 6436 00f6 0FE0     		b	.L815
 6437              	.L829:
 6438 00f8 0123     		movs	r3, #1
 6439 00fa 85F84130 		strb	r3, [r5, #65]
 6440 00fe 0020     		movs	r0, #0
 6441 0100 0AE0     		b	.L815
 6442              	.L827:
 6443 0102 0123     		movs	r3, #1
 6444 0104 85F84230 		strb	r3, [r5, #66]
 6445 0108 0020     		movs	r0, #0
 6446 010a 05E0     		b	.L815
 6447              	.L826:
 6448 010c 0123     		movs	r3, #1
 6449 010e 85F84330 		strb	r3, [r5, #67]
 6450 0112 0020     		movs	r0, #0
 6451 0114 00E0     		b	.L815
 6452              	.L832:
 6453 0116 0120     		movs	r0, #1
 6454              	.L815:
 6455 0118 38BD     		pop	{r3, r4, r5, pc}
 6456              	.L835:
 6457 011a 00BF     		.align	2
 6458              	.L834:
 6459 011c 002C0140 		.word	1073818624
 6461              		.section	.text.HAL_TIM_PWM_Start_DMA,"ax",%progbits
 6462              		.align	1
 6463              		.global	HAL_TIM_PWM_Start_DMA
 6464              		.syntax unified
 6465              		.thumb
 6466              		.thumb_func
 6468              	HAL_TIM_PWM_Start_DMA:
 6469              		@ args = 0, pretend = 0, frame = 0
 6470              		@ frame_needed = 0, uses_anonymous_args = 0
 6471 0000 38B5     		push	{r3, r4, r5, lr}
 6472 0002 0546     		mov	r5, r0
 6473 0004 0C46     		mov	r4, r1
 6474 0006 1146     		mov	r1, r2
 6475 0008 102C     		cmp	r4, #16
 6476 000a 41D8     		bhi	.L837
 6477 000c DFE804F0 		tbb	[pc, r4]
ARM GAS  C:\Temp\ccqmCX5l.s 			page 111


 6478              	.L839:
 6479 0010 09       		.byte	(.L843-.L839)/2
 6480 0011 40       		.byte	(.L837-.L839)/2
 6481 0012 40       		.byte	(.L837-.L839)/2
 6482 0013 40       		.byte	(.L837-.L839)/2
 6483 0014 20       		.byte	(.L842-.L839)/2
 6484 0015 40       		.byte	(.L837-.L839)/2
 6485 0016 40       		.byte	(.L837-.L839)/2
 6486 0017 40       		.byte	(.L837-.L839)/2
 6487 0018 28       		.byte	(.L841-.L839)/2
 6488 0019 40       		.byte	(.L837-.L839)/2
 6489 001a 40       		.byte	(.L837-.L839)/2
 6490 001b 40       		.byte	(.L837-.L839)/2
 6491 001c 30       		.byte	(.L840-.L839)/2
 6492 001d 40       		.byte	(.L837-.L839)/2
 6493 001e 40       		.byte	(.L837-.L839)/2
 6494 001f 40       		.byte	(.L837-.L839)/2
 6495 0020 38       		.byte	(.L838-.L839)/2
 6496 0021 00       		.p2align 1
 6497              	.L843:
 6498 0022 90F83E00 		ldrb	r0, [r0, #62]	@ zero_extendqisi2
 6499 0026 C0B2     		uxtb	r0, r0
 6500 0028 0228     		cmp	r0, #2
 6501 002a 14BF     		ite	ne
 6502 002c 0020     		movne	r0, #0
 6503 002e 0120     		moveq	r0, #1
 6504              	.L844:
 6505 0030 0028     		cmp	r0, #0
 6506 0032 40F06381 		bne	.L871
 6507 0036 102C     		cmp	r4, #16
 6508 0038 78D8     		bhi	.L846
 6509 003a DFE804F0 		tbb	[pc, r4]
 6510              	.L848:
 6511 003e 31       		.byte	(.L852-.L848)/2
 6512 003f 77       		.byte	(.L846-.L848)/2
 6513 0040 77       		.byte	(.L846-.L848)/2
 6514 0041 77       		.byte	(.L846-.L848)/2
 6515 0042 57       		.byte	(.L851-.L848)/2
 6516 0043 77       		.byte	(.L846-.L848)/2
 6517 0044 77       		.byte	(.L846-.L848)/2
 6518 0045 77       		.byte	(.L846-.L848)/2
 6519 0046 5F       		.byte	(.L850-.L848)/2
 6520 0047 77       		.byte	(.L846-.L848)/2
 6521 0048 77       		.byte	(.L846-.L848)/2
 6522 0049 77       		.byte	(.L846-.L848)/2
 6523 004a 67       		.byte	(.L849-.L848)/2
 6524 004b 77       		.byte	(.L846-.L848)/2
 6525 004c 77       		.byte	(.L846-.L848)/2
 6526 004d 77       		.byte	(.L846-.L848)/2
 6527 004e 6F       		.byte	(.L847-.L848)/2
 6528 004f 00       		.p2align 1
 6529              	.L842:
 6530 0050 90F83F00 		ldrb	r0, [r0, #63]	@ zero_extendqisi2
 6531 0054 C0B2     		uxtb	r0, r0
 6532 0056 0228     		cmp	r0, #2
 6533 0058 14BF     		ite	ne
 6534 005a 0020     		movne	r0, #0
ARM GAS  C:\Temp\ccqmCX5l.s 			page 112


 6535 005c 0120     		moveq	r0, #1
 6536 005e E7E7     		b	.L844
 6537              	.L841:
 6538 0060 90F84000 		ldrb	r0, [r0, #64]	@ zero_extendqisi2
 6539 0064 C0B2     		uxtb	r0, r0
 6540 0066 0228     		cmp	r0, #2
 6541 0068 14BF     		ite	ne
 6542 006a 0020     		movne	r0, #0
 6543 006c 0120     		moveq	r0, #1
 6544 006e DFE7     		b	.L844
 6545              	.L840:
 6546 0070 90F84100 		ldrb	r0, [r0, #65]	@ zero_extendqisi2
 6547 0074 C0B2     		uxtb	r0, r0
 6548 0076 0228     		cmp	r0, #2
 6549 0078 14BF     		ite	ne
 6550 007a 0020     		movne	r0, #0
 6551 007c 0120     		moveq	r0, #1
 6552 007e D7E7     		b	.L844
 6553              	.L838:
 6554 0080 90F84200 		ldrb	r0, [r0, #66]	@ zero_extendqisi2
 6555 0084 C0B2     		uxtb	r0, r0
 6556 0086 0228     		cmp	r0, #2
 6557 0088 14BF     		ite	ne
 6558 008a 0020     		movne	r0, #0
 6559 008c 0120     		moveq	r0, #1
 6560 008e CFE7     		b	.L844
 6561              	.L837:
 6562 0090 90F84300 		ldrb	r0, [r0, #67]	@ zero_extendqisi2
 6563 0094 C0B2     		uxtb	r0, r0
 6564 0096 0228     		cmp	r0, #2
 6565 0098 14BF     		ite	ne
 6566 009a 0020     		movne	r0, #0
 6567 009c 0120     		moveq	r0, #1
 6568 009e C7E7     		b	.L844
 6569              	.L852:
 6570 00a0 95F83E20 		ldrb	r2, [r5, #62]	@ zero_extendqisi2
 6571 00a4 D2B2     		uxtb	r2, r2
 6572 00a6 012A     		cmp	r2, #1
 6573 00a8 14BF     		ite	ne
 6574 00aa 0022     		movne	r2, #0
 6575 00ac 0122     		moveq	r2, #1
 6576              	.L853:
 6577 00ae 002A     		cmp	r2, #0
 6578 00b0 00F02681 		beq	.L872
 6579 00b4 0029     		cmp	r1, #0
 6580 00b6 00F02581 		beq	.L873
 6581 00ba 002B     		cmp	r3, #0
 6582 00bc 00F02481 		beq	.L874
 6583 00c0 102C     		cmp	r4, #16
 6584 00c2 00F2EB80 		bhi	.L854
 6585 00c6 DFE814F0 		tbh	[pc, r4, lsl #1]
 6586              	.L856:
 6587 00ca 3900     		.2byte	(.L860-.L856)/2
 6588 00cc E900     		.2byte	(.L854-.L856)/2
 6589 00ce E900     		.2byte	(.L854-.L856)/2
 6590 00d0 E900     		.2byte	(.L854-.L856)/2
 6591 00d2 9900     		.2byte	(.L859-.L856)/2
ARM GAS  C:\Temp\ccqmCX5l.s 			page 113


 6592 00d4 E900     		.2byte	(.L854-.L856)/2
 6593 00d6 E900     		.2byte	(.L854-.L856)/2
 6594 00d8 E900     		.2byte	(.L854-.L856)/2
 6595 00da B200     		.2byte	(.L858-.L856)/2
 6596 00dc E900     		.2byte	(.L854-.L856)/2
 6597 00de E900     		.2byte	(.L854-.L856)/2
 6598 00e0 E900     		.2byte	(.L854-.L856)/2
 6599 00e2 CB00     		.2byte	(.L857-.L856)/2
 6600 00e4 E900     		.2byte	(.L854-.L856)/2
 6601 00e6 E900     		.2byte	(.L854-.L856)/2
 6602 00e8 E900     		.2byte	(.L854-.L856)/2
 6603 00ea E400     		.2byte	(.L855-.L856)/2
 6604              		.p2align 1
 6605              	.L851:
 6606 00ec 95F83F20 		ldrb	r2, [r5, #63]	@ zero_extendqisi2
 6607 00f0 D2B2     		uxtb	r2, r2
 6608 00f2 012A     		cmp	r2, #1
 6609 00f4 14BF     		ite	ne
 6610 00f6 0022     		movne	r2, #0
 6611 00f8 0122     		moveq	r2, #1
 6612 00fa D8E7     		b	.L853
 6613              	.L850:
 6614 00fc 95F84020 		ldrb	r2, [r5, #64]	@ zero_extendqisi2
 6615 0100 D2B2     		uxtb	r2, r2
 6616 0102 012A     		cmp	r2, #1
 6617 0104 14BF     		ite	ne
 6618 0106 0022     		movne	r2, #0
 6619 0108 0122     		moveq	r2, #1
 6620 010a D0E7     		b	.L853
 6621              	.L849:
 6622 010c 95F84120 		ldrb	r2, [r5, #65]	@ zero_extendqisi2
 6623 0110 D2B2     		uxtb	r2, r2
 6624 0112 012A     		cmp	r2, #1
 6625 0114 14BF     		ite	ne
 6626 0116 0022     		movne	r2, #0
 6627 0118 0122     		moveq	r2, #1
 6628 011a C8E7     		b	.L853
 6629              	.L847:
 6630 011c 95F84220 		ldrb	r2, [r5, #66]	@ zero_extendqisi2
 6631 0120 D2B2     		uxtb	r2, r2
 6632 0122 012A     		cmp	r2, #1
 6633 0124 14BF     		ite	ne
 6634 0126 0022     		movne	r2, #0
 6635 0128 0122     		moveq	r2, #1
 6636 012a C0E7     		b	.L853
 6637              	.L846:
 6638 012c 95F84320 		ldrb	r2, [r5, #67]	@ zero_extendqisi2
 6639 0130 D2B2     		uxtb	r2, r2
 6640 0132 012A     		cmp	r2, #1
 6641 0134 14BF     		ite	ne
 6642 0136 0022     		movne	r2, #0
 6643 0138 0122     		moveq	r2, #1
 6644 013a B8E7     		b	.L853
 6645              	.L860:
 6646 013c 0222     		movs	r2, #2
 6647 013e 85F83E20 		strb	r2, [r5, #62]
 6648              	.L861:
ARM GAS  C:\Temp\ccqmCX5l.s 			page 114


 6649 0142 6A6A     		ldr	r2, [r5, #36]
 6650 0144 7848     		ldr	r0, .L887
 6651 0146 9062     		str	r0, [r2, #40]
 6652 0148 6A6A     		ldr	r2, [r5, #36]
 6653 014a 7848     		ldr	r0, .L887+4
 6654 014c D062     		str	r0, [r2, #44]
 6655 014e 6A6A     		ldr	r2, [r5, #36]
 6656 0150 7748     		ldr	r0, .L887+8
 6657 0152 1063     		str	r0, [r2, #48]
 6658 0154 2A68     		ldr	r2, [r5]
 6659 0156 3432     		adds	r2, r2, #52
 6660 0158 686A     		ldr	r0, [r5, #36]
 6661 015a FFF7FEFF 		bl	HAL_DMA_Start_IT
 6662 015e 0028     		cmp	r0, #0
 6663 0160 40F0D680 		bne	.L876
 6664 0164 2A68     		ldr	r2, [r5]
 6665 0166 D368     		ldr	r3, [r2, #12]
 6666 0168 43F40073 		orr	r3, r3, #512
 6667 016c D360     		str	r3, [r2, #12]
 6668              	.L866:
 6669 016e 0122     		movs	r2, #1
 6670 0170 2146     		mov	r1, r4
 6671 0172 2868     		ldr	r0, [r5]
 6672 0174 FFF7FEFF 		bl	TIM_CCxChannelCmd
 6673 0178 2B68     		ldr	r3, [r5]
 6674 017a 6E4A     		ldr	r2, .L887+12
 6675 017c 9342     		cmp	r3, r2
 6676 017e 13D0     		beq	.L867
 6677 0180 02F50062 		add	r2, r2, #2048
 6678 0184 9342     		cmp	r3, r2
 6679 0186 0FD0     		beq	.L867
 6680 0188 02F54062 		add	r2, r2, #3072
 6681 018c 9342     		cmp	r3, r2
 6682 018e 0BD0     		beq	.L867
 6683 0190 02F58062 		add	r2, r2, #1024
 6684 0194 9342     		cmp	r3, r2
 6685 0196 07D0     		beq	.L867
 6686 0198 02F58062 		add	r2, r2, #1024
 6687 019c 9342     		cmp	r3, r2
 6688 019e 03D0     		beq	.L867
 6689 01a0 02F50062 		add	r2, r2, #2048
 6690 01a4 9342     		cmp	r3, r2
 6691 01a6 03D1     		bne	.L868
 6692              	.L867:
 6693 01a8 5A6C     		ldr	r2, [r3, #68]
 6694 01aa 42F40042 		orr	r2, r2, #32768
 6695 01ae 5A64     		str	r2, [r3, #68]
 6696              	.L868:
 6697 01b0 2B68     		ldr	r3, [r5]
 6698 01b2 604A     		ldr	r2, .L887+12
 6699 01b4 9342     		cmp	r3, r2
 6700 01b6 00F09380 		beq	.L869
 6701 01ba B3F1804F 		cmp	r3, #1073741824
 6702 01be 00F08F80 		beq	.L869
 6703 01c2 A2F59432 		sub	r2, r2, #75776
 6704 01c6 9342     		cmp	r3, r2
 6705 01c8 00F08A80 		beq	.L869
ARM GAS  C:\Temp\ccqmCX5l.s 			page 115


 6706 01cc 02F58062 		add	r2, r2, #1024
 6707 01d0 9342     		cmp	r3, r2
 6708 01d2 00F08580 		beq	.L869
 6709 01d6 02F59632 		add	r2, r2, #76800
 6710 01da 9342     		cmp	r3, r2
 6711 01dc 00F08080 		beq	.L869
 6712 01e0 02F54062 		add	r2, r2, #3072
 6713 01e4 9342     		cmp	r3, r2
 6714 01e6 7BD0     		beq	.L869
 6715 01e8 02F58052 		add	r2, r2, #4096
 6716 01ec 9342     		cmp	r3, r2
 6717 01ee 77D0     		beq	.L869
