ARM GAS  C:\Temp\ccCuLR5h.s 			page 1


   1              		.cpu cortex-m4
   2              		.arch armv7e-m
   3              		.fpu fpv4-sp-d16
   4              		.eabi_attribute 27, 1
   5              		.eabi_attribute 28, 1
   6              		.eabi_attribute 20, 1
   7              		.eabi_attribute 21, 1
   8              		.eabi_attribute 23, 3
   9              		.eabi_attribute 24, 1
  10              		.eabi_attribute 25, 1
  11              		.eabi_attribute 26, 1
  12              		.eabi_attribute 30, 1
  13              		.eabi_attribute 34, 1
  14              		.eabi_attribute 18, 4
  15              		.file	"stm32f4xx_hal_exti.c"
  16              		.text
  17              	.Ltext0:
  18              		.cfi_sections	.debug_frame
  19              		.file 1 "Drivers/STM32F4xx_HAL_Driver/Src/stm32f4xx_hal_exti.c"
  20              		.section	.rodata.HAL_EXTI_SetConfigLine.str1.4,"aMS",%progbits,1
  21              		.align	2
  22              	.LC0:
  23 0000 44726976 		.ascii	"Drivers/STM32F4xx_HAL_Driver/Src/stm32f4xx_hal_exti"
  23      6572732F 
  23      53544D33 
  23      32463478 
  23      785F4841 
  24 0033 2E6300   		.ascii	".c\000"
  25              		.section	.text.HAL_EXTI_SetConfigLine,"ax",%progbits
  26              		.align	1
  27              		.global	HAL_EXTI_SetConfigLine
  28              		.syntax unified
  29              		.thumb
  30              		.thumb_func
  32              	HAL_EXTI_SetConfigLine:
  33              	.LVL0:
  34              	.LFB134:
   1:Drivers/STM32F4xx_HAL_Driver/Src/stm32f4xx_hal_exti.c **** /**
   2:Drivers/STM32F4xx_HAL_Driver/Src/stm32f4xx_hal_exti.c ****   ******************************************************************************
   3:Drivers/STM32F4xx_HAL_Driver/Src/stm32f4xx_hal_exti.c ****   * @file    stm32f4xx_hal_exti.c
   4:Drivers/STM32F4xx_HAL_Driver/Src/stm32f4xx_hal_exti.c ****   * @author  MCD Application Team
   5:Drivers/STM32F4xx_HAL_Driver/Src/stm32f4xx_hal_exti.c ****   * @brief   EXTI HAL module driver.
   6:Drivers/STM32F4xx_HAL_Driver/Src/stm32f4xx_hal_exti.c ****   *          This file provides firmware functions to manage the following
   7:Drivers/STM32F4xx_HAL_Driver/Src/stm32f4xx_hal_exti.c ****   *          functionalities of the Extended Interrupts and events controller (EXTI) peripheral:
   8:Drivers/STM32F4xx_HAL_Driver/Src/stm32f4xx_hal_exti.c ****   *           + Initialization and de-initialization functions
   9:Drivers/STM32F4xx_HAL_Driver/Src/stm32f4xx_hal_exti.c ****   *           + IO operation functions
  10:Drivers/STM32F4xx_HAL_Driver/Src/stm32f4xx_hal_exti.c ****   *
  11:Drivers/STM32F4xx_HAL_Driver/Src/stm32f4xx_hal_exti.c ****   ******************************************************************************
  12:Drivers/STM32F4xx_HAL_Driver/Src/stm32f4xx_hal_exti.c ****   * @attention
  13:Drivers/STM32F4xx_HAL_Driver/Src/stm32f4xx_hal_exti.c ****   *
  14:Drivers/STM32F4xx_HAL_Driver/Src/stm32f4xx_hal_exti.c ****   * Copyright (c) 2018 STMicroelectronics.
  15:Drivers/STM32F4xx_HAL_Driver/Src/stm32f4xx_hal_exti.c ****   * All rights reserved.
  16:Drivers/STM32F4xx_HAL_Driver/Src/stm32f4xx_hal_exti.c ****   *
  17:Drivers/STM32F4xx_HAL_Driver/Src/stm32f4xx_hal_exti.c ****   * This software is licensed under terms that can be found in the LICENSE file
  18:Drivers/STM32F4xx_HAL_Driver/Src/stm32f4xx_hal_exti.c ****   * in the root directory of this software component.
  19:Drivers/STM32F4xx_HAL_Driver/Src/stm32f4xx_hal_exti.c ****   * If no LICENSE file comes with this software, it is provided AS-IS.
  20:Drivers/STM32F4xx_HAL_Driver/Src/stm32f4xx_hal_exti.c ****   *
ARM GAS  C:\Temp\ccCuLR5h.s 			page 2


  21:Drivers/STM32F4xx_HAL_Driver/Src/stm32f4xx_hal_exti.c ****   ******************************************************************************
  22:Drivers/STM32F4xx_HAL_Driver/Src/stm32f4xx_hal_exti.c ****   @verbatim
  23:Drivers/STM32F4xx_HAL_Driver/Src/stm32f4xx_hal_exti.c ****   ==============================================================================
  24:Drivers/STM32F4xx_HAL_Driver/Src/stm32f4xx_hal_exti.c ****                     ##### EXTI Peripheral features #####
  25:Drivers/STM32F4xx_HAL_Driver/Src/stm32f4xx_hal_exti.c ****   ==============================================================================
  26:Drivers/STM32F4xx_HAL_Driver/Src/stm32f4xx_hal_exti.c ****   [..]
  27:Drivers/STM32F4xx_HAL_Driver/Src/stm32f4xx_hal_exti.c ****     (+) Each Exti line can be configured within this driver.
  28:Drivers/STM32F4xx_HAL_Driver/Src/stm32f4xx_hal_exti.c **** 
  29:Drivers/STM32F4xx_HAL_Driver/Src/stm32f4xx_hal_exti.c ****     (+) Exti line can be configured in 3 different modes
  30:Drivers/STM32F4xx_HAL_Driver/Src/stm32f4xx_hal_exti.c ****         (++) Interrupt
  31:Drivers/STM32F4xx_HAL_Driver/Src/stm32f4xx_hal_exti.c ****         (++) Event
  32:Drivers/STM32F4xx_HAL_Driver/Src/stm32f4xx_hal_exti.c ****         (++) Both of them
  33:Drivers/STM32F4xx_HAL_Driver/Src/stm32f4xx_hal_exti.c **** 
  34:Drivers/STM32F4xx_HAL_Driver/Src/stm32f4xx_hal_exti.c ****     (+) Configurable Exti lines can be configured with 3 different triggers
  35:Drivers/STM32F4xx_HAL_Driver/Src/stm32f4xx_hal_exti.c ****         (++) Rising
  36:Drivers/STM32F4xx_HAL_Driver/Src/stm32f4xx_hal_exti.c ****         (++) Falling
  37:Drivers/STM32F4xx_HAL_Driver/Src/stm32f4xx_hal_exti.c ****         (++) Both of them
  38:Drivers/STM32F4xx_HAL_Driver/Src/stm32f4xx_hal_exti.c **** 
  39:Drivers/STM32F4xx_HAL_Driver/Src/stm32f4xx_hal_exti.c ****     (+) When set in interrupt mode, configurable Exti lines have two different
  40:Drivers/STM32F4xx_HAL_Driver/Src/stm32f4xx_hal_exti.c ****         interrupts pending registers which allow to distinguish which transition
  41:Drivers/STM32F4xx_HAL_Driver/Src/stm32f4xx_hal_exti.c ****         occurs:
  42:Drivers/STM32F4xx_HAL_Driver/Src/stm32f4xx_hal_exti.c ****         (++) Rising edge pending interrupt
  43:Drivers/STM32F4xx_HAL_Driver/Src/stm32f4xx_hal_exti.c ****         (++) Falling
  44:Drivers/STM32F4xx_HAL_Driver/Src/stm32f4xx_hal_exti.c **** 
  45:Drivers/STM32F4xx_HAL_Driver/Src/stm32f4xx_hal_exti.c ****     (+) Exti lines 0 to 15 are linked to gpio pin number 0 to 15. Gpio port can
  46:Drivers/STM32F4xx_HAL_Driver/Src/stm32f4xx_hal_exti.c ****         be selected through multiplexer.
  47:Drivers/STM32F4xx_HAL_Driver/Src/stm32f4xx_hal_exti.c **** 
  48:Drivers/STM32F4xx_HAL_Driver/Src/stm32f4xx_hal_exti.c ****                      ##### How to use this driver #####
  49:Drivers/STM32F4xx_HAL_Driver/Src/stm32f4xx_hal_exti.c ****   ==============================================================================
  50:Drivers/STM32F4xx_HAL_Driver/Src/stm32f4xx_hal_exti.c ****   [..]
  51:Drivers/STM32F4xx_HAL_Driver/Src/stm32f4xx_hal_exti.c **** 
  52:Drivers/STM32F4xx_HAL_Driver/Src/stm32f4xx_hal_exti.c ****     (#) Configure the EXTI line using HAL_EXTI_SetConfigLine().
  53:Drivers/STM32F4xx_HAL_Driver/Src/stm32f4xx_hal_exti.c ****         (++) Choose the interrupt line number by setting "Line" member from
  54:Drivers/STM32F4xx_HAL_Driver/Src/stm32f4xx_hal_exti.c ****              EXTI_ConfigTypeDef structure.
  55:Drivers/STM32F4xx_HAL_Driver/Src/stm32f4xx_hal_exti.c ****         (++) Configure the interrupt and/or event mode using "Mode" member from
  56:Drivers/STM32F4xx_HAL_Driver/Src/stm32f4xx_hal_exti.c ****              EXTI_ConfigTypeDef structure.
  57:Drivers/STM32F4xx_HAL_Driver/Src/stm32f4xx_hal_exti.c ****         (++) For configurable lines, configure rising and/or falling trigger
  58:Drivers/STM32F4xx_HAL_Driver/Src/stm32f4xx_hal_exti.c ****              "Trigger" member from EXTI_ConfigTypeDef structure.
  59:Drivers/STM32F4xx_HAL_Driver/Src/stm32f4xx_hal_exti.c ****         (++) For Exti lines linked to gpio, choose gpio port using "GPIOSel"
  60:Drivers/STM32F4xx_HAL_Driver/Src/stm32f4xx_hal_exti.c ****              member from GPIO_InitTypeDef structure.
  61:Drivers/STM32F4xx_HAL_Driver/Src/stm32f4xx_hal_exti.c **** 
  62:Drivers/STM32F4xx_HAL_Driver/Src/stm32f4xx_hal_exti.c ****     (#) Get current Exti configuration of a dedicated line using
  63:Drivers/STM32F4xx_HAL_Driver/Src/stm32f4xx_hal_exti.c ****         HAL_EXTI_GetConfigLine().
  64:Drivers/STM32F4xx_HAL_Driver/Src/stm32f4xx_hal_exti.c ****         (++) Provide exiting handle as parameter.
  65:Drivers/STM32F4xx_HAL_Driver/Src/stm32f4xx_hal_exti.c ****         (++) Provide pointer on EXTI_ConfigTypeDef structure as second parameter.
  66:Drivers/STM32F4xx_HAL_Driver/Src/stm32f4xx_hal_exti.c **** 
  67:Drivers/STM32F4xx_HAL_Driver/Src/stm32f4xx_hal_exti.c ****     (#) Clear Exti configuration of a dedicated line using HAL_EXTI_ClearConfigLine().
  68:Drivers/STM32F4xx_HAL_Driver/Src/stm32f4xx_hal_exti.c ****         (++) Provide exiting handle as parameter.
  69:Drivers/STM32F4xx_HAL_Driver/Src/stm32f4xx_hal_exti.c **** 
  70:Drivers/STM32F4xx_HAL_Driver/Src/stm32f4xx_hal_exti.c ****     (#) Register callback to treat Exti interrupts using HAL_EXTI_RegisterCallback().
  71:Drivers/STM32F4xx_HAL_Driver/Src/stm32f4xx_hal_exti.c ****         (++) Provide exiting handle as first parameter.
  72:Drivers/STM32F4xx_HAL_Driver/Src/stm32f4xx_hal_exti.c ****         (++) Provide which callback will be registered using one value from
  73:Drivers/STM32F4xx_HAL_Driver/Src/stm32f4xx_hal_exti.c ****              EXTI_CallbackIDTypeDef.
  74:Drivers/STM32F4xx_HAL_Driver/Src/stm32f4xx_hal_exti.c ****         (++) Provide callback function pointer.
  75:Drivers/STM32F4xx_HAL_Driver/Src/stm32f4xx_hal_exti.c **** 
  76:Drivers/STM32F4xx_HAL_Driver/Src/stm32f4xx_hal_exti.c ****     (#) Get interrupt pending bit using HAL_EXTI_GetPending().
  77:Drivers/STM32F4xx_HAL_Driver/Src/stm32f4xx_hal_exti.c **** 
ARM GAS  C:\Temp\ccCuLR5h.s 			page 3


  78:Drivers/STM32F4xx_HAL_Driver/Src/stm32f4xx_hal_exti.c ****     (#) Clear interrupt pending bit using HAL_EXTI_ClearPending().
  79:Drivers/STM32F4xx_HAL_Driver/Src/stm32f4xx_hal_exti.c **** 
  80:Drivers/STM32F4xx_HAL_Driver/Src/stm32f4xx_hal_exti.c ****     (#) Generate software interrupt using HAL_EXTI_GenerateSWI().
  81:Drivers/STM32F4xx_HAL_Driver/Src/stm32f4xx_hal_exti.c **** 
  82:Drivers/STM32F4xx_HAL_Driver/Src/stm32f4xx_hal_exti.c ****   @endverbatim
  83:Drivers/STM32F4xx_HAL_Driver/Src/stm32f4xx_hal_exti.c ****   */
  84:Drivers/STM32F4xx_HAL_Driver/Src/stm32f4xx_hal_exti.c **** 
  85:Drivers/STM32F4xx_HAL_Driver/Src/stm32f4xx_hal_exti.c **** /* Includes ------------------------------------------------------------------*/
  86:Drivers/STM32F4xx_HAL_Driver/Src/stm32f4xx_hal_exti.c **** #include "stm32f4xx_hal.h"
  87:Drivers/STM32F4xx_HAL_Driver/Src/stm32f4xx_hal_exti.c **** 
  88:Drivers/STM32F4xx_HAL_Driver/Src/stm32f4xx_hal_exti.c **** /** @addtogroup STM32F4xx_HAL_Driver
  89:Drivers/STM32F4xx_HAL_Driver/Src/stm32f4xx_hal_exti.c ****   * @{
  90:Drivers/STM32F4xx_HAL_Driver/Src/stm32f4xx_hal_exti.c ****   */
  91:Drivers/STM32F4xx_HAL_Driver/Src/stm32f4xx_hal_exti.c **** 
  92:Drivers/STM32F4xx_HAL_Driver/Src/stm32f4xx_hal_exti.c **** /** @addtogroup EXTI
  93:Drivers/STM32F4xx_HAL_Driver/Src/stm32f4xx_hal_exti.c ****   * @{
  94:Drivers/STM32F4xx_HAL_Driver/Src/stm32f4xx_hal_exti.c ****   */
  95:Drivers/STM32F4xx_HAL_Driver/Src/stm32f4xx_hal_exti.c **** /** MISRA C:2012 deviation rule has been granted for following rule:
  96:Drivers/STM32F4xx_HAL_Driver/Src/stm32f4xx_hal_exti.c ****   * Rule-18.1_b - Medium: Array `EXTICR' 1st subscript interval [0,7] may be out
  97:Drivers/STM32F4xx_HAL_Driver/Src/stm32f4xx_hal_exti.c ****   * of bounds [0,3] in following API :
  98:Drivers/STM32F4xx_HAL_Driver/Src/stm32f4xx_hal_exti.c ****   * HAL_EXTI_SetConfigLine
  99:Drivers/STM32F4xx_HAL_Driver/Src/stm32f4xx_hal_exti.c ****   * HAL_EXTI_GetConfigLine
 100:Drivers/STM32F4xx_HAL_Driver/Src/stm32f4xx_hal_exti.c ****   * HAL_EXTI_ClearConfigLine
 101:Drivers/STM32F4xx_HAL_Driver/Src/stm32f4xx_hal_exti.c ****   */
 102:Drivers/STM32F4xx_HAL_Driver/Src/stm32f4xx_hal_exti.c **** 
 103:Drivers/STM32F4xx_HAL_Driver/Src/stm32f4xx_hal_exti.c **** #ifdef HAL_EXTI_MODULE_ENABLED
 104:Drivers/STM32F4xx_HAL_Driver/Src/stm32f4xx_hal_exti.c **** 
 105:Drivers/STM32F4xx_HAL_Driver/Src/stm32f4xx_hal_exti.c **** /* Private typedef -----------------------------------------------------------*/
 106:Drivers/STM32F4xx_HAL_Driver/Src/stm32f4xx_hal_exti.c **** /* Private defines -----------------------------------------------------------*/
 107:Drivers/STM32F4xx_HAL_Driver/Src/stm32f4xx_hal_exti.c **** /** @defgroup EXTI_Private_Constants EXTI Private Constants
 108:Drivers/STM32F4xx_HAL_Driver/Src/stm32f4xx_hal_exti.c ****   * @{
 109:Drivers/STM32F4xx_HAL_Driver/Src/stm32f4xx_hal_exti.c ****   */
 110:Drivers/STM32F4xx_HAL_Driver/Src/stm32f4xx_hal_exti.c **** 
 111:Drivers/STM32F4xx_HAL_Driver/Src/stm32f4xx_hal_exti.c **** /**
 112:Drivers/STM32F4xx_HAL_Driver/Src/stm32f4xx_hal_exti.c ****   * @}
 113:Drivers/STM32F4xx_HAL_Driver/Src/stm32f4xx_hal_exti.c ****   */
 114:Drivers/STM32F4xx_HAL_Driver/Src/stm32f4xx_hal_exti.c **** 
 115:Drivers/STM32F4xx_HAL_Driver/Src/stm32f4xx_hal_exti.c **** /* Private macros ------------------------------------------------------------*/
 116:Drivers/STM32F4xx_HAL_Driver/Src/stm32f4xx_hal_exti.c **** /* Private variables ---------------------------------------------------------*/
 117:Drivers/STM32F4xx_HAL_Driver/Src/stm32f4xx_hal_exti.c **** /* Private function prototypes -----------------------------------------------*/
 118:Drivers/STM32F4xx_HAL_Driver/Src/stm32f4xx_hal_exti.c **** /* Exported functions --------------------------------------------------------*/
 119:Drivers/STM32F4xx_HAL_Driver/Src/stm32f4xx_hal_exti.c **** 
 120:Drivers/STM32F4xx_HAL_Driver/Src/stm32f4xx_hal_exti.c **** /** @addtogroup EXTI_Exported_Functions
 121:Drivers/STM32F4xx_HAL_Driver/Src/stm32f4xx_hal_exti.c ****   * @{
 122:Drivers/STM32F4xx_HAL_Driver/Src/stm32f4xx_hal_exti.c ****   */
 123:Drivers/STM32F4xx_HAL_Driver/Src/stm32f4xx_hal_exti.c **** 
 124:Drivers/STM32F4xx_HAL_Driver/Src/stm32f4xx_hal_exti.c **** /** @addtogroup EXTI_Exported_Functions_Group1
 125:Drivers/STM32F4xx_HAL_Driver/Src/stm32f4xx_hal_exti.c ****   *  @brief    Configuration functions
 126:Drivers/STM32F4xx_HAL_Driver/Src/stm32f4xx_hal_exti.c ****   *
 127:Drivers/STM32F4xx_HAL_Driver/Src/stm32f4xx_hal_exti.c **** @verbatim
 128:Drivers/STM32F4xx_HAL_Driver/Src/stm32f4xx_hal_exti.c ****  ===============================================================================
 129:Drivers/STM32F4xx_HAL_Driver/Src/stm32f4xx_hal_exti.c ****               ##### Configuration functions #####
 130:Drivers/STM32F4xx_HAL_Driver/Src/stm32f4xx_hal_exti.c ****  ===============================================================================
 131:Drivers/STM32F4xx_HAL_Driver/Src/stm32f4xx_hal_exti.c **** 
 132:Drivers/STM32F4xx_HAL_Driver/Src/stm32f4xx_hal_exti.c **** @endverbatim
 133:Drivers/STM32F4xx_HAL_Driver/Src/stm32f4xx_hal_exti.c ****   * @{
 134:Drivers/STM32F4xx_HAL_Driver/Src/stm32f4xx_hal_exti.c ****   */
ARM GAS  C:\Temp\ccCuLR5h.s 			page 4


 135:Drivers/STM32F4xx_HAL_Driver/Src/stm32f4xx_hal_exti.c **** 
 136:Drivers/STM32F4xx_HAL_Driver/Src/stm32f4xx_hal_exti.c **** /**
 137:Drivers/STM32F4xx_HAL_Driver/Src/stm32f4xx_hal_exti.c ****   * @brief  Set configuration of a dedicated Exti line.
 138:Drivers/STM32F4xx_HAL_Driver/Src/stm32f4xx_hal_exti.c ****   * @param  hexti Exti handle.
 139:Drivers/STM32F4xx_HAL_Driver/Src/stm32f4xx_hal_exti.c ****   * @param  pExtiConfig Pointer on EXTI configuration to be set.
 140:Drivers/STM32F4xx_HAL_Driver/Src/stm32f4xx_hal_exti.c ****   * @retval HAL Status.
 141:Drivers/STM32F4xx_HAL_Driver/Src/stm32f4xx_hal_exti.c ****   */
 142:Drivers/STM32F4xx_HAL_Driver/Src/stm32f4xx_hal_exti.c **** HAL_StatusTypeDef HAL_EXTI_SetConfigLine(EXTI_HandleTypeDef *hexti, EXTI_ConfigTypeDef *pExtiConfig
 143:Drivers/STM32F4xx_HAL_Driver/Src/stm32f4xx_hal_exti.c **** {
  35              		.loc 1 143 1 view -0
  36              		.cfi_startproc
  37              		@ args = 0, pretend = 0, frame = 0
  38              		@ frame_needed = 0, uses_anonymous_args = 0
 144:Drivers/STM32F4xx_HAL_Driver/Src/stm32f4xx_hal_exti.c ****   uint32_t regval;
  39              		.loc 1 144 3 view .LVU1
 145:Drivers/STM32F4xx_HAL_Driver/Src/stm32f4xx_hal_exti.c ****   uint32_t linepos;
  40              		.loc 1 145 3 view .LVU2
 146:Drivers/STM32F4xx_HAL_Driver/Src/stm32f4xx_hal_exti.c ****   uint32_t maskline;
  41              		.loc 1 146 3 view .LVU3
 147:Drivers/STM32F4xx_HAL_Driver/Src/stm32f4xx_hal_exti.c **** 
 148:Drivers/STM32F4xx_HAL_Driver/Src/stm32f4xx_hal_exti.c ****   /* Check null pointer */
 149:Drivers/STM32F4xx_HAL_Driver/Src/stm32f4xx_hal_exti.c ****   if ((hexti == NULL) || (pExtiConfig == NULL))
  42              		.loc 1 149 3 view .LVU4
  43              		.loc 1 149 6 is_stmt 0 view .LVU5
  44 0000 0028     		cmp	r0, #0
  45 0002 00F09D80 		beq	.L19
 143:Drivers/STM32F4xx_HAL_Driver/Src/stm32f4xx_hal_exti.c ****   uint32_t regval;
  46              		.loc 1 143 1 discriminator 1 view .LVU6
  47 0006 F8B5     		push	{r3, r4, r5, r6, r7, lr}
  48              		.cfi_def_cfa_offset 24
  49              		.cfi_offset 3, -24
  50              		.cfi_offset 4, -20
  51              		.cfi_offset 5, -16
  52              		.cfi_offset 6, -12
  53              		.cfi_offset 7, -8
  54              		.cfi_offset 14, -4
  55 0008 0C46     		mov	r4, r1
  56 000a 0546     		mov	r5, r0
  57              		.loc 1 149 23 discriminator 1 view .LVU7
  58 000c 0029     		cmp	r1, #0
  59 000e 00F09980 		beq	.L20
 150:Drivers/STM32F4xx_HAL_Driver/Src/stm32f4xx_hal_exti.c ****   {
 151:Drivers/STM32F4xx_HAL_Driver/Src/stm32f4xx_hal_exti.c ****     return HAL_ERROR;
 152:Drivers/STM32F4xx_HAL_Driver/Src/stm32f4xx_hal_exti.c ****   }
 153:Drivers/STM32F4xx_HAL_Driver/Src/stm32f4xx_hal_exti.c **** 
 154:Drivers/STM32F4xx_HAL_Driver/Src/stm32f4xx_hal_exti.c ****   /* Check parameters */
 155:Drivers/STM32F4xx_HAL_Driver/Src/stm32f4xx_hal_exti.c ****   assert_param(IS_EXTI_LINE(pExtiConfig->Line));
  60              		.loc 1 155 3 is_stmt 1 view .LVU8
  61 0012 0A68     		ldr	r2, [r1]
  62 0014 22F0C063 		bic	r3, r2, #100663296
  63 0018 23F01F03 		bic	r3, r3, #31
  64 001c 3BB9     		cbnz	r3, .L3
  65              		.loc 1 155 3 is_stmt 0 discriminator 2 view .LVU9
  66 001e 02F0C063 		and	r3, r2, #100663296
  67 0022 B3F1007F 		cmp	r3, #33554432
  68 0026 44D0     		beq	.L4
  69              		.loc 1 155 3 discriminator 3 view .LVU10
ARM GAS  C:\Temp\ccCuLR5h.s 			page 5


  70 0028 B3F1C06F 		cmp	r3, #100663296
  71 002c 41D0     		beq	.L4
  72              	.L3:
  73              		.loc 1 155 3 discriminator 7 view .LVU11
  74 002e 9B21     		movs	r1, #155
  75              	.LVL1:
  76              		.loc 1 155 3 discriminator 7 view .LVU12
  77 0030 4548     		ldr	r0, .L29
  78              	.LVL2:
  79              		.loc 1 155 3 discriminator 7 view .LVU13
  80 0032 FFF7FEFF 		bl	assert_failed
  81              	.LVL3:
  82              	.L5:
 156:Drivers/STM32F4xx_HAL_Driver/Src/stm32f4xx_hal_exti.c ****   assert_param(IS_EXTI_MODE(pExtiConfig->Mode));
  83              		.loc 1 156 3 is_stmt 1 view .LVU14
  84 0036 6368     		ldr	r3, [r4, #4]
  85 0038 13F0030F 		tst	r3, #3
  86 003c 01D0     		beq	.L6
  87              		.loc 1 156 3 is_stmt 0 discriminator 2 view .LVU15
  88 003e 032B     		cmp	r3, #3
  89 0040 03D9     		bls	.L7
  90              	.L6:
  91              		.loc 1 156 3 discriminator 3 view .LVU16
  92 0042 9C21     		movs	r1, #156
  93 0044 4048     		ldr	r0, .L29
  94 0046 FFF7FEFF 		bl	assert_failed
  95              	.LVL4:
  96              	.L7:
 157:Drivers/STM32F4xx_HAL_Driver/Src/stm32f4xx_hal_exti.c **** 
 158:Drivers/STM32F4xx_HAL_Driver/Src/stm32f4xx_hal_exti.c ****   /* Assign line number to handle */
 159:Drivers/STM32F4xx_HAL_Driver/Src/stm32f4xx_hal_exti.c ****   hexti->Line = pExtiConfig->Line;
  97              		.loc 1 159 3 is_stmt 1 view .LVU17
  98              		.loc 1 159 28 is_stmt 0 view .LVU18
  99 004a 2668     		ldr	r6, [r4]
 100              		.loc 1 159 15 view .LVU19
 101 004c 2E60     		str	r6, [r5]
 160:Drivers/STM32F4xx_HAL_Driver/Src/stm32f4xx_hal_exti.c **** 
 161:Drivers/STM32F4xx_HAL_Driver/Src/stm32f4xx_hal_exti.c ****   /* Compute line mask */
 162:Drivers/STM32F4xx_HAL_Driver/Src/stm32f4xx_hal_exti.c ****   linepos = (pExtiConfig->Line & EXTI_PIN_MASK);
 102              		.loc 1 162 3 is_stmt 1 view .LVU20
 103              		.loc 1 162 11 is_stmt 0 view .LVU21
 104 004e 06F01F07 		and	r7, r6, #31
 105              	.LVL5:
 163:Drivers/STM32F4xx_HAL_Driver/Src/stm32f4xx_hal_exti.c ****   maskline = (1uL << linepos);
 106              		.loc 1 163 3 is_stmt 1 view .LVU22
 107              		.loc 1 163 12 is_stmt 0 view .LVU23
 108 0052 0125     		movs	r5, #1
 109              	.LVL6:
 110              		.loc 1 163 12 view .LVU24
 111 0054 BD40     		lsls	r5, r5, r7
 112              	.LVL7:
 164:Drivers/STM32F4xx_HAL_Driver/Src/stm32f4xx_hal_exti.c **** 
 165:Drivers/STM32F4xx_HAL_Driver/Src/stm32f4xx_hal_exti.c ****   /* Configure triggers for configurable lines */
 166:Drivers/STM32F4xx_HAL_Driver/Src/stm32f4xx_hal_exti.c ****   if ((pExtiConfig->Line & EXTI_CONFIG) != 0x00u)
 113              		.loc 1 166 3 is_stmt 1 view .LVU25
 114              		.loc 1 166 6 is_stmt 0 view .LVU26
 115 0056 16F0007F 		tst	r6, #33554432
ARM GAS  C:\Temp\ccCuLR5h.s 			page 6


 116 005a 18D0     		beq	.L8
 167:Drivers/STM32F4xx_HAL_Driver/Src/stm32f4xx_hal_exti.c ****   {
 168:Drivers/STM32F4xx_HAL_Driver/Src/stm32f4xx_hal_exti.c ****     assert_param(IS_EXTI_TRIGGER(pExtiConfig->Trigger));
 117              		.loc 1 168 5 is_stmt 1 view .LVU27
 118 005c A368     		ldr	r3, [r4, #8]
 119 005e 032B     		cmp	r3, #3
 120 0060 2CD8     		bhi	.L25
 121              	.L9:
 169:Drivers/STM32F4xx_HAL_Driver/Src/stm32f4xx_hal_exti.c **** 
 170:Drivers/STM32F4xx_HAL_Driver/Src/stm32f4xx_hal_exti.c ****     /* Configure rising trigger */
 171:Drivers/STM32F4xx_HAL_Driver/Src/stm32f4xx_hal_exti.c ****     /* Mask or set line */
 172:Drivers/STM32F4xx_HAL_Driver/Src/stm32f4xx_hal_exti.c ****     if ((pExtiConfig->Trigger & EXTI_TRIGGER_RISING) != 0x00u)
 122              		.loc 1 172 5 view .LVU28
 123              		.loc 1 172 21 is_stmt 0 view .LVU29
 124 0062 A368     		ldr	r3, [r4, #8]
 125              		.loc 1 172 8 view .LVU30
 126 0064 13F0010F 		tst	r3, #1
 127 0068 2DD0     		beq	.L10
 173:Drivers/STM32F4xx_HAL_Driver/Src/stm32f4xx_hal_exti.c ****     {
 174:Drivers/STM32F4xx_HAL_Driver/Src/stm32f4xx_hal_exti.c ****       EXTI->RTSR |= maskline;
 128              		.loc 1 174 7 is_stmt 1 view .LVU31
 129              		.loc 1 174 11 is_stmt 0 view .LVU32
 130 006a 384A     		ldr	r2, .L29+4
 131 006c 9368     		ldr	r3, [r2, #8]
 132              		.loc 1 174 18 view .LVU33
 133 006e 2B43     		orrs	r3, r3, r5
 134 0070 9360     		str	r3, [r2, #8]
 135              	.L11:
 175:Drivers/STM32F4xx_HAL_Driver/Src/stm32f4xx_hal_exti.c ****     }
 176:Drivers/STM32F4xx_HAL_Driver/Src/stm32f4xx_hal_exti.c ****     else
 177:Drivers/STM32F4xx_HAL_Driver/Src/stm32f4xx_hal_exti.c ****     {
 178:Drivers/STM32F4xx_HAL_Driver/Src/stm32f4xx_hal_exti.c ****       EXTI->RTSR &= ~maskline;
 179:Drivers/STM32F4xx_HAL_Driver/Src/stm32f4xx_hal_exti.c ****     }
 180:Drivers/STM32F4xx_HAL_Driver/Src/stm32f4xx_hal_exti.c **** 
 181:Drivers/STM32F4xx_HAL_Driver/Src/stm32f4xx_hal_exti.c ****     /* Configure falling trigger */
 182:Drivers/STM32F4xx_HAL_Driver/Src/stm32f4xx_hal_exti.c ****     /* Mask or set line */
 183:Drivers/STM32F4xx_HAL_Driver/Src/stm32f4xx_hal_exti.c ****     if ((pExtiConfig->Trigger & EXTI_TRIGGER_FALLING) != 0x00u)
 136              		.loc 1 183 5 is_stmt 1 view .LVU34
 137              		.loc 1 183 21 is_stmt 0 view .LVU35
 138 0072 A368     		ldr	r3, [r4, #8]
 139              		.loc 1 183 8 view .LVU36
 140 0074 13F0020F 		tst	r3, #2
 141 0078 2BD0     		beq	.L12
 184:Drivers/STM32F4xx_HAL_Driver/Src/stm32f4xx_hal_exti.c ****     {
 185:Drivers/STM32F4xx_HAL_Driver/Src/stm32f4xx_hal_exti.c ****       EXTI->FTSR |= maskline;
 142              		.loc 1 185 7 is_stmt 1 view .LVU37
 143              		.loc 1 185 11 is_stmt 0 view .LVU38
 144 007a 344A     		ldr	r2, .L29+4
 145 007c D368     		ldr	r3, [r2, #12]
 146              		.loc 1 185 18 view .LVU39
 147 007e 2B43     		orrs	r3, r3, r5
 148 0080 D360     		str	r3, [r2, #12]
 149              	.L13:
 186:Drivers/STM32F4xx_HAL_Driver/Src/stm32f4xx_hal_exti.c ****     }
 187:Drivers/STM32F4xx_HAL_Driver/Src/stm32f4xx_hal_exti.c ****     else
 188:Drivers/STM32F4xx_HAL_Driver/Src/stm32f4xx_hal_exti.c ****     {
 189:Drivers/STM32F4xx_HAL_Driver/Src/stm32f4xx_hal_exti.c ****       EXTI->FTSR &= ~maskline;
ARM GAS  C:\Temp\ccCuLR5h.s 			page 7


 190:Drivers/STM32F4xx_HAL_Driver/Src/stm32f4xx_hal_exti.c ****     }
 191:Drivers/STM32F4xx_HAL_Driver/Src/stm32f4xx_hal_exti.c **** 
 192:Drivers/STM32F4xx_HAL_Driver/Src/stm32f4xx_hal_exti.c **** 
 193:Drivers/STM32F4xx_HAL_Driver/Src/stm32f4xx_hal_exti.c ****     /* Configure gpio port selection in case of gpio exti line */
 194:Drivers/STM32F4xx_HAL_Driver/Src/stm32f4xx_hal_exti.c ****     if ((pExtiConfig->Line & EXTI_GPIO) == EXTI_GPIO)
 150              		.loc 1 194 5 is_stmt 1 view .LVU40
 151              		.loc 1 194 21 is_stmt 0 view .LVU41
 152 0082 2368     		ldr	r3, [r4]
 153              		.loc 1 194 28 view .LVU42
 154 0084 03F0C063 		and	r3, r3, #100663296
 155              		.loc 1 194 8 view .LVU43
 156 0088 B3F1C06F 		cmp	r3, #100663296
 157 008c 27D0     		beq	.L26
 158              	.LVL8:
 159              	.L8:
 195:Drivers/STM32F4xx_HAL_Driver/Src/stm32f4xx_hal_exti.c ****     {
 196:Drivers/STM32F4xx_HAL_Driver/Src/stm32f4xx_hal_exti.c ****       assert_param(IS_EXTI_GPIO_PORT(pExtiConfig->GPIOSel));
 197:Drivers/STM32F4xx_HAL_Driver/Src/stm32f4xx_hal_exti.c ****       assert_param(IS_EXTI_GPIO_PIN(linepos));
 198:Drivers/STM32F4xx_HAL_Driver/Src/stm32f4xx_hal_exti.c **** 
 199:Drivers/STM32F4xx_HAL_Driver/Src/stm32f4xx_hal_exti.c ****       regval = SYSCFG->EXTICR[linepos >> 2u];
 200:Drivers/STM32F4xx_HAL_Driver/Src/stm32f4xx_hal_exti.c ****       regval &= ~(SYSCFG_EXTICR1_EXTI0 << (SYSCFG_EXTICR1_EXTI1_Pos * (linepos & 0x03u)));
 201:Drivers/STM32F4xx_HAL_Driver/Src/stm32f4xx_hal_exti.c ****       regval |= (pExtiConfig->GPIOSel << (SYSCFG_EXTICR1_EXTI1_Pos * (linepos & 0x03u)));
 202:Drivers/STM32F4xx_HAL_Driver/Src/stm32f4xx_hal_exti.c ****       SYSCFG->EXTICR[linepos >> 2u] = regval;
 203:Drivers/STM32F4xx_HAL_Driver/Src/stm32f4xx_hal_exti.c ****     }
 204:Drivers/STM32F4xx_HAL_Driver/Src/stm32f4xx_hal_exti.c ****   }
 205:Drivers/STM32F4xx_HAL_Driver/Src/stm32f4xx_hal_exti.c **** 
 206:Drivers/STM32F4xx_HAL_Driver/Src/stm32f4xx_hal_exti.c ****   /* Configure interrupt mode : read current mode */
 207:Drivers/STM32F4xx_HAL_Driver/Src/stm32f4xx_hal_exti.c ****   /* Mask or set line */
 208:Drivers/STM32F4xx_HAL_Driver/Src/stm32f4xx_hal_exti.c ****   if ((pExtiConfig->Mode & EXTI_MODE_INTERRUPT) != 0x00u)
 160              		.loc 1 208 3 is_stmt 1 view .LVU44
 161              		.loc 1 208 19 is_stmt 0 view .LVU45
 162 008e 6368     		ldr	r3, [r4, #4]
 163              		.loc 1 208 6 view .LVU46
 164 0090 13F0010F 		tst	r3, #1
 165 0094 47D0     		beq	.L16
 209:Drivers/STM32F4xx_HAL_Driver/Src/stm32f4xx_hal_exti.c ****   {
 210:Drivers/STM32F4xx_HAL_Driver/Src/stm32f4xx_hal_exti.c ****     EXTI->IMR |= maskline;
 166              		.loc 1 210 5 is_stmt 1 view .LVU47
 167              		.loc 1 210 9 is_stmt 0 view .LVU48
 168 0096 2D4A     		ldr	r2, .L29+4
 169 0098 1368     		ldr	r3, [r2]
 170              		.loc 1 210 15 view .LVU49
 171 009a 2B43     		orrs	r3, r3, r5
 172 009c 1360     		str	r3, [r2]
 173              	.L17:
 211:Drivers/STM32F4xx_HAL_Driver/Src/stm32f4xx_hal_exti.c ****   }
 212:Drivers/STM32F4xx_HAL_Driver/Src/stm32f4xx_hal_exti.c ****   else
 213:Drivers/STM32F4xx_HAL_Driver/Src/stm32f4xx_hal_exti.c ****   {
 214:Drivers/STM32F4xx_HAL_Driver/Src/stm32f4xx_hal_exti.c ****     EXTI->IMR &= ~maskline;
 215:Drivers/STM32F4xx_HAL_Driver/Src/stm32f4xx_hal_exti.c ****   }
 216:Drivers/STM32F4xx_HAL_Driver/Src/stm32f4xx_hal_exti.c **** 
 217:Drivers/STM32F4xx_HAL_Driver/Src/stm32f4xx_hal_exti.c ****   /* Configure event mode : read current mode */
 218:Drivers/STM32F4xx_HAL_Driver/Src/stm32f4xx_hal_exti.c ****   /* Mask or set line */
 219:Drivers/STM32F4xx_HAL_Driver/Src/stm32f4xx_hal_exti.c ****   if ((pExtiConfig->Mode & EXTI_MODE_EVENT) != 0x00u)
 174              		.loc 1 219 3 is_stmt 1 view .LVU50
 175              		.loc 1 219 19 is_stmt 0 view .LVU51
 176 009e 6368     		ldr	r3, [r4, #4]
ARM GAS  C:\Temp\ccCuLR5h.s 			page 8


 177              		.loc 1 219 6 view .LVU52
 178 00a0 13F0020F 		tst	r3, #2
 179 00a4 45D0     		beq	.L18
 220:Drivers/STM32F4xx_HAL_Driver/Src/stm32f4xx_hal_exti.c ****   {
 221:Drivers/STM32F4xx_HAL_Driver/Src/stm32f4xx_hal_exti.c ****     EXTI->EMR |= maskline;
 180              		.loc 1 221 5 is_stmt 1 view .LVU53
 181              		.loc 1 221 9 is_stmt 0 view .LVU54
 182 00a6 294A     		ldr	r2, .L29+4
 183 00a8 5368     		ldr	r3, [r2, #4]
 184              		.loc 1 221 15 view .LVU55
 185 00aa 2B43     		orrs	r3, r3, r5
 186 00ac 5360     		str	r3, [r2, #4]
 222:Drivers/STM32F4xx_HAL_Driver/Src/stm32f4xx_hal_exti.c ****   }
 223:Drivers/STM32F4xx_HAL_Driver/Src/stm32f4xx_hal_exti.c ****   else
 224:Drivers/STM32F4xx_HAL_Driver/Src/stm32f4xx_hal_exti.c ****   {
 225:Drivers/STM32F4xx_HAL_Driver/Src/stm32f4xx_hal_exti.c ****     EXTI->EMR &= ~maskline;
 226:Drivers/STM32F4xx_HAL_Driver/Src/stm32f4xx_hal_exti.c ****   }
 227:Drivers/STM32F4xx_HAL_Driver/Src/stm32f4xx_hal_exti.c **** 
 228:Drivers/STM32F4xx_HAL_Driver/Src/stm32f4xx_hal_exti.c ****   return HAL_OK;
 187              		.loc 1 228 10 view .LVU56
 188 00ae 0020     		movs	r0, #0
 189              	.LVL9:
 190              	.L2:
 229:Drivers/STM32F4xx_HAL_Driver/Src/stm32f4xx_hal_exti.c **** }
 191              		.loc 1 229 1 view .LVU57
 192 00b0 F8BD     		pop	{r3, r4, r5, r6, r7, pc}
 193              	.LVL10:
 194              	.L4:
 155:Drivers/STM32F4xx_HAL_Driver/Src/stm32f4xx_hal_exti.c ****   assert_param(IS_EXTI_MODE(pExtiConfig->Mode));
 195              		.loc 1 155 3 discriminator 6 view .LVU58
 196 00b2 02F01F02 		and	r2, r2, #31
 197 00b6 162A     		cmp	r2, #22
 198 00b8 BDD9     		bls	.L5
 199 00ba B8E7     		b	.L3
 200              	.LVL11:
 201              	.L25:
 168:Drivers/STM32F4xx_HAL_Driver/Src/stm32f4xx_hal_exti.c **** 
 202              		.loc 1 168 5 discriminator 1 view .LVU59
 203 00bc A821     		movs	r1, #168
 204 00be 2248     		ldr	r0, .L29
 205 00c0 FFF7FEFF 		bl	assert_failed
 206              	.LVL12:
 207 00c4 CDE7     		b	.L9
 208              	.L10:
 178:Drivers/STM32F4xx_HAL_Driver/Src/stm32f4xx_hal_exti.c ****     }
 209              		.loc 1 178 7 is_stmt 1 view .LVU60
 178:Drivers/STM32F4xx_HAL_Driver/Src/stm32f4xx_hal_exti.c ****     }
 210              		.loc 1 178 11 is_stmt 0 view .LVU61
 211 00c6 214A     		ldr	r2, .L29+4
 212 00c8 9368     		ldr	r3, [r2, #8]
 178:Drivers/STM32F4xx_HAL_Driver/Src/stm32f4xx_hal_exti.c ****     }
 213              		.loc 1 178 18 view .LVU62
 214 00ca 23EA0503 		bic	r3, r3, r5
 215 00ce 9360     		str	r3, [r2, #8]
 216 00d0 CFE7     		b	.L11
 217              	.L12:
 189:Drivers/STM32F4xx_HAL_Driver/Src/stm32f4xx_hal_exti.c ****     }
ARM GAS  C:\Temp\ccCuLR5h.s 			page 9


 218              		.loc 1 189 7 is_stmt 1 view .LVU63
 189:Drivers/STM32F4xx_HAL_Driver/Src/stm32f4xx_hal_exti.c ****     }
 219              		.loc 1 189 11 is_stmt 0 view .LVU64
 220 00d2 1E4A     		ldr	r2, .L29+4
 221 00d4 D368     		ldr	r3, [r2, #12]
 189:Drivers/STM32F4xx_HAL_Driver/Src/stm32f4xx_hal_exti.c ****     }
 222              		.loc 1 189 18 view .LVU65
 223 00d6 23EA0503 		bic	r3, r3, r5
 224 00da D360     		str	r3, [r2, #12]
 225 00dc D1E7     		b	.L13
 226              	.L26:
 196:Drivers/STM32F4xx_HAL_Driver/Src/stm32f4xx_hal_exti.c ****       assert_param(IS_EXTI_GPIO_PIN(linepos));
 227              		.loc 1 196 7 is_stmt 1 view .LVU66
 228 00de E368     		ldr	r3, [r4, #12]
 229 00e0 042B     		cmp	r3, #4
 230 00e2 01D9     		bls	.L14
 196:Drivers/STM32F4xx_HAL_Driver/Src/stm32f4xx_hal_exti.c ****       assert_param(IS_EXTI_GPIO_PIN(linepos));
 231              		.loc 1 196 7 is_stmt 0 discriminator 1 view .LVU67
 232 00e4 072B     		cmp	r3, #7
 233 00e6 14D1     		bne	.L27
 234              	.L14:
 197:Drivers/STM32F4xx_HAL_Driver/Src/stm32f4xx_hal_exti.c **** 
 235              		.loc 1 197 7 is_stmt 1 view .LVU68
 236 00e8 16F0100F 		tst	r6, #16
 237 00ec 16D1     		bne	.L28
 238              	.L15:
 199:Drivers/STM32F4xx_HAL_Driver/Src/stm32f4xx_hal_exti.c ****       regval &= ~(SYSCFG_EXTICR1_EXTI0 << (SYSCFG_EXTICR1_EXTI1_Pos * (linepos & 0x03u)));
 239              		.loc 1 199 7 view .LVU69
 199:Drivers/STM32F4xx_HAL_Driver/Src/stm32f4xx_hal_exti.c ****       regval &= ~(SYSCFG_EXTICR1_EXTI0 << (SYSCFG_EXTICR1_EXTI1_Pos * (linepos & 0x03u)));
 240              		.loc 1 199 39 is_stmt 0 view .LVU70
 241 00ee BF08     		lsrs	r7, r7, #2
 242              	.LVL13:
 199:Drivers/STM32F4xx_HAL_Driver/Src/stm32f4xx_hal_exti.c ****       regval &= ~(SYSCFG_EXTICR1_EXTI0 << (SYSCFG_EXTICR1_EXTI1_Pos * (linepos & 0x03u)));
 243              		.loc 1 199 14 view .LVU71
 244 00f0 1749     		ldr	r1, .L29+8
 245 00f2 0237     		adds	r7, r7, #2
 246 00f4 51F82720 		ldr	r2, [r1, r7, lsl #2]
 247              	.LVL14:
 200:Drivers/STM32F4xx_HAL_Driver/Src/stm32f4xx_hal_exti.c ****       regval |= (pExtiConfig->GPIOSel << (SYSCFG_EXTICR1_EXTI1_Pos * (linepos & 0x03u)));
 248              		.loc 1 200 7 is_stmt 1 view .LVU72
 200:Drivers/STM32F4xx_HAL_Driver/Src/stm32f4xx_hal_exti.c ****       regval |= (pExtiConfig->GPIOSel << (SYSCFG_EXTICR1_EXTI1_Pos * (linepos & 0x03u)));
 249              		.loc 1 200 80 is_stmt 0 view .LVU73
 250 00f8 06F00306 		and	r6, r6, #3
 251              	.LVL15:
 200:Drivers/STM32F4xx_HAL_Driver/Src/stm32f4xx_hal_exti.c ****       regval |= (pExtiConfig->GPIOSel << (SYSCFG_EXTICR1_EXTI1_Pos * (linepos & 0x03u)));
 252              		.loc 1 200 69 view .LVU74
 253 00fc B600     		lsls	r6, r6, #2
 200:Drivers/STM32F4xx_HAL_Driver/Src/stm32f4xx_hal_exti.c ****       regval |= (pExtiConfig->GPIOSel << (SYSCFG_EXTICR1_EXTI1_Pos * (linepos & 0x03u)));
 254              		.loc 1 200 40 view .LVU75
 255 00fe 0F23     		movs	r3, #15
 256 0100 B340     		lsls	r3, r3, r6
 200:Drivers/STM32F4xx_HAL_Driver/Src/stm32f4xx_hal_exti.c ****       regval |= (pExtiConfig->GPIOSel << (SYSCFG_EXTICR1_EXTI1_Pos * (linepos & 0x03u)));
 257              		.loc 1 200 14 view .LVU76
 258 0102 22EA0302 		bic	r2, r2, r3
 259              	.LVL16:
 201:Drivers/STM32F4xx_HAL_Driver/Src/stm32f4xx_hal_exti.c ****       SYSCFG->EXTICR[linepos >> 2u] = regval;
 260              		.loc 1 201 7 is_stmt 1 view .LVU77
ARM GAS  C:\Temp\ccCuLR5h.s 			page 10


 201:Drivers/STM32F4xx_HAL_Driver/Src/stm32f4xx_hal_exti.c ****       SYSCFG->EXTICR[linepos >> 2u] = regval;
 261              		.loc 1 201 29 is_stmt 0 view .LVU78
 262 0106 E368     		ldr	r3, [r4, #12]
 201:Drivers/STM32F4xx_HAL_Driver/Src/stm32f4xx_hal_exti.c ****       SYSCFG->EXTICR[linepos >> 2u] = regval;
 263              		.loc 1 201 39 view .LVU79
 264 0108 B340     		lsls	r3, r3, r6
 201:Drivers/STM32F4xx_HAL_Driver/Src/stm32f4xx_hal_exti.c ****       SYSCFG->EXTICR[linepos >> 2u] = regval;
 265              		.loc 1 201 14 view .LVU80
 266 010a 1343     		orrs	r3, r3, r2
 267              	.LVL17:
 202:Drivers/STM32F4xx_HAL_Driver/Src/stm32f4xx_hal_exti.c ****     }
 268              		.loc 1 202 7 is_stmt 1 view .LVU81
 202:Drivers/STM32F4xx_HAL_Driver/Src/stm32f4xx_hal_exti.c ****     }
 269              		.loc 1 202 37 is_stmt 0 view .LVU82
 270 010c 41F82730 		str	r3, [r1, r7, lsl #2]
 271 0110 BDE7     		b	.L8
 272              	.LVL18:
 273              	.L27:
 196:Drivers/STM32F4xx_HAL_Driver/Src/stm32f4xx_hal_exti.c ****       assert_param(IS_EXTI_GPIO_PIN(linepos));
 274              		.loc 1 196 7 discriminator 2 view .LVU83
 275 0112 C421     		movs	r1, #196
 276 0114 0C48     		ldr	r0, .L29
 277 0116 FFF7FEFF 		bl	assert_failed
 278              	.LVL19:
 279 011a E5E7     		b	.L14
 280              	.L28:
 197:Drivers/STM32F4xx_HAL_Driver/Src/stm32f4xx_hal_exti.c **** 
 281              		.loc 1 197 7 discriminator 1 view .LVU84
 282 011c C521     		movs	r1, #197
 283 011e 0A48     		ldr	r0, .L29
 284 0120 FFF7FEFF 		bl	assert_failed
 285              	.LVL20:
 286 0124 E3E7     		b	.L15
 287              	.LVL21:
 288              	.L16:
 214:Drivers/STM32F4xx_HAL_Driver/Src/stm32f4xx_hal_exti.c ****   }
 289              		.loc 1 214 5 is_stmt 1 view .LVU85
 214:Drivers/STM32F4xx_HAL_Driver/Src/stm32f4xx_hal_exti.c ****   }
 290              		.loc 1 214 9 is_stmt 0 view .LVU86
 291 0126 094A     		ldr	r2, .L29+4
 292 0128 1368     		ldr	r3, [r2]
 214:Drivers/STM32F4xx_HAL_Driver/Src/stm32f4xx_hal_exti.c ****   }
 293              		.loc 1 214 15 view .LVU87
 294 012a 23EA0503 		bic	r3, r3, r5
 295 012e 1360     		str	r3, [r2]
 296 0130 B5E7     		b	.L17
 297              	.L18:
 225:Drivers/STM32F4xx_HAL_Driver/Src/stm32f4xx_hal_exti.c ****   }
 298              		.loc 1 225 5 is_stmt 1 view .LVU88
 225:Drivers/STM32F4xx_HAL_Driver/Src/stm32f4xx_hal_exti.c ****   }
 299              		.loc 1 225 9 is_stmt 0 view .LVU89
 300 0132 064A     		ldr	r2, .L29+4
 301 0134 5368     		ldr	r3, [r2, #4]
 225:Drivers/STM32F4xx_HAL_Driver/Src/stm32f4xx_hal_exti.c ****   }
 302              		.loc 1 225 15 view .LVU90
 303 0136 23EA0503 		bic	r3, r3, r5
 304 013a 5360     		str	r3, [r2, #4]
ARM GAS  C:\Temp\ccCuLR5h.s 			page 11


 228:Drivers/STM32F4xx_HAL_Driver/Src/stm32f4xx_hal_exti.c **** }
 305              		.loc 1 228 10 view .LVU91
 306 013c 0020     		movs	r0, #0
 307 013e B7E7     		b	.L2
 308              	.LVL22:
 309              	.L19:
 310              		.cfi_def_cfa_offset 0
 311              		.cfi_restore 3
 312              		.cfi_restore 4
 313              		.cfi_restore 5
 314              		.cfi_restore 6
 315              		.cfi_restore 7
 316              		.cfi_restore 14
 151:Drivers/STM32F4xx_HAL_Driver/Src/stm32f4xx_hal_exti.c ****   }
 317              		.loc 1 151 12 view .LVU92
 318 0140 0120     		movs	r0, #1
 319              	.LVL23:
 320              		.loc 1 229 1 view .LVU93
 321 0142 7047     		bx	lr
 322              	.LVL24:
 323              	.L20:
 324              		.cfi_def_cfa_offset 24
 325              		.cfi_offset 3, -24
 326              		.cfi_offset 4, -20
 327              		.cfi_offset 5, -16
 328              		.cfi_offset 6, -12
 329              		.cfi_offset 7, -8
 330              		.cfi_offset 14, -4
 151:Drivers/STM32F4xx_HAL_Driver/Src/stm32f4xx_hal_exti.c ****   }
 331              		.loc 1 151 12 view .LVU94
 332 0144 0120     		movs	r0, #1
 333              	.LVL25:
 151:Drivers/STM32F4xx_HAL_Driver/Src/stm32f4xx_hal_exti.c ****   }
 334              		.loc 1 151 12 view .LVU95
 335 0146 B3E7     		b	.L2
 336              	.L30:
 337              		.align	2
 338              	.L29:
 339 0148 00000000 		.word	.LC0
 340 014c 003C0140 		.word	1073822720
 341 0150 00380140 		.word	1073821696
 342              		.cfi_endproc
 343              	.LFE134:
 345              		.section	.text.HAL_EXTI_GetConfigLine,"ax",%progbits
 346              		.align	1
 347              		.global	HAL_EXTI_GetConfigLine
 348              		.syntax unified
 349              		.thumb
 350              		.thumb_func
 352              	HAL_EXTI_GetConfigLine:
 353              	.LVL26:
 354              	.LFB135:
 230:Drivers/STM32F4xx_HAL_Driver/Src/stm32f4xx_hal_exti.c **** 
 231:Drivers/STM32F4xx_HAL_Driver/Src/stm32f4xx_hal_exti.c **** /**
 232:Drivers/STM32F4xx_HAL_Driver/Src/stm32f4xx_hal_exti.c ****   * @brief  Get configuration of a dedicated Exti line.
 233:Drivers/STM32F4xx_HAL_Driver/Src/stm32f4xx_hal_exti.c ****   * @param  hexti Exti handle.
 234:Drivers/STM32F4xx_HAL_Driver/Src/stm32f4xx_hal_exti.c ****   * @param  pExtiConfig Pointer on structure to store Exti configuration.
ARM GAS  C:\Temp\ccCuLR5h.s 			page 12


 235:Drivers/STM32F4xx_HAL_Driver/Src/stm32f4xx_hal_exti.c ****   * @retval HAL Status.
 236:Drivers/STM32F4xx_HAL_Driver/Src/stm32f4xx_hal_exti.c ****   */
 237:Drivers/STM32F4xx_HAL_Driver/Src/stm32f4xx_hal_exti.c **** HAL_StatusTypeDef HAL_EXTI_GetConfigLine(EXTI_HandleTypeDef *hexti, EXTI_ConfigTypeDef *pExtiConfig
 238:Drivers/STM32F4xx_HAL_Driver/Src/stm32f4xx_hal_exti.c **** {
 355              		.loc 1 238 1 is_stmt 1 view -0
 356              		.cfi_startproc
 357              		@ args = 0, pretend = 0, frame = 0
 358              		@ frame_needed = 0, uses_anonymous_args = 0
 239:Drivers/STM32F4xx_HAL_Driver/Src/stm32f4xx_hal_exti.c ****   uint32_t regval;
 359              		.loc 1 239 3 view .LVU97
 240:Drivers/STM32F4xx_HAL_Driver/Src/stm32f4xx_hal_exti.c ****   uint32_t linepos;
 360              		.loc 1 240 3 view .LVU98
 241:Drivers/STM32F4xx_HAL_Driver/Src/stm32f4xx_hal_exti.c ****   uint32_t maskline;
 361              		.loc 1 241 3 view .LVU99
 242:Drivers/STM32F4xx_HAL_Driver/Src/stm32f4xx_hal_exti.c **** 
 243:Drivers/STM32F4xx_HAL_Driver/Src/stm32f4xx_hal_exti.c ****   /* Check null pointer */
 244:Drivers/STM32F4xx_HAL_Driver/Src/stm32f4xx_hal_exti.c ****   if ((hexti == NULL) || (pExtiConfig == NULL))
 362              		.loc 1 244 3 view .LVU100
 363              		.loc 1 244 6 is_stmt 0 view .LVU101
 364 0000 0028     		cmp	r0, #0
 365 0002 64D0     		beq	.L42
 238:Drivers/STM32F4xx_HAL_Driver/Src/stm32f4xx_hal_exti.c ****   uint32_t regval;
 366              		.loc 1 238 1 discriminator 1 view .LVU102
 367 0004 70B5     		push	{r4, r5, r6, lr}
 368              		.cfi_def_cfa_offset 16
 369              		.cfi_offset 4, -16
 370              		.cfi_offset 5, -12
 371              		.cfi_offset 6, -8
 372              		.cfi_offset 14, -4
 373 0006 0C46     		mov	r4, r1
 374 0008 0546     		mov	r5, r0
 375              		.loc 1 244 23 discriminator 1 view .LVU103
 376 000a 0029     		cmp	r1, #0
 377 000c 61D0     		beq	.L43
 245:Drivers/STM32F4xx_HAL_Driver/Src/stm32f4xx_hal_exti.c ****   {
 246:Drivers/STM32F4xx_HAL_Driver/Src/stm32f4xx_hal_exti.c ****     return HAL_ERROR;
 247:Drivers/STM32F4xx_HAL_Driver/Src/stm32f4xx_hal_exti.c ****   }
 248:Drivers/STM32F4xx_HAL_Driver/Src/stm32f4xx_hal_exti.c **** 
 249:Drivers/STM32F4xx_HAL_Driver/Src/stm32f4xx_hal_exti.c ****   /* Check the parameter */
 250:Drivers/STM32F4xx_HAL_Driver/Src/stm32f4xx_hal_exti.c ****   assert_param(IS_EXTI_LINE(hexti->Line));
 378              		.loc 1 250 3 is_stmt 1 view .LVU104
 379 000e 0268     		ldr	r2, [r0]
 380 0010 22F0C063 		bic	r3, r2, #100663296
 381 0014 23F01F03 		bic	r3, r3, #31
 382 0018 3BB9     		cbnz	r3, .L33
 383              		.loc 1 250 3 is_stmt 0 discriminator 2 view .LVU105
 384 001a 02F0C063 		and	r3, r2, #100663296
 385 001e B3F1007F 		cmp	r3, #33554432
 386 0022 35D0     		beq	.L34
 387              		.loc 1 250 3 discriminator 3 view .LVU106
 388 0024 B3F1C06F 		cmp	r3, #100663296
 389 0028 32D0     		beq	.L34
 390              	.L33:
 391              		.loc 1 250 3 discriminator 7 view .LVU107
 392 002a FA21     		movs	r1, #250
 393              	.LVL27:
 394              		.loc 1 250 3 discriminator 7 view .LVU108
ARM GAS  C:\Temp\ccCuLR5h.s 			page 13


 395 002c 2B48     		ldr	r0, .L52
 396              	.LVL28:
 397              		.loc 1 250 3 discriminator 7 view .LVU109
 398 002e FFF7FEFF 		bl	assert_failed
 399              	.LVL29:
 400              	.L35:
 251:Drivers/STM32F4xx_HAL_Driver/Src/stm32f4xx_hal_exti.c **** 
 252:Drivers/STM32F4xx_HAL_Driver/Src/stm32f4xx_hal_exti.c ****   /* Store handle line number to configuration structure */
 253:Drivers/STM32F4xx_HAL_Driver/Src/stm32f4xx_hal_exti.c ****   pExtiConfig->Line = hexti->Line;
 401              		.loc 1 253 3 is_stmt 1 view .LVU110
 402              		.loc 1 253 28 is_stmt 0 view .LVU111
 403 0032 2D68     		ldr	r5, [r5]
 404              	.LVL30:
 405              		.loc 1 253 21 view .LVU112
 406 0034 2560     		str	r5, [r4]
 254:Drivers/STM32F4xx_HAL_Driver/Src/stm32f4xx_hal_exti.c **** 
 255:Drivers/STM32F4xx_HAL_Driver/Src/stm32f4xx_hal_exti.c ****   /* Compute line mask */
 256:Drivers/STM32F4xx_HAL_Driver/Src/stm32f4xx_hal_exti.c ****   linepos = (pExtiConfig->Line & EXTI_PIN_MASK);
 407              		.loc 1 256 3 is_stmt 1 view .LVU113
 408              		.loc 1 256 11 is_stmt 0 view .LVU114
 409 0036 05F01F06 		and	r6, r5, #31
 410              	.LVL31:
 257:Drivers/STM32F4xx_HAL_Driver/Src/stm32f4xx_hal_exti.c ****   maskline = (1uL << linepos);
 411              		.loc 1 257 3 is_stmt 1 view .LVU115
 412              		.loc 1 257 12 is_stmt 0 view .LVU116
 413 003a 0123     		movs	r3, #1
 414 003c B340     		lsls	r3, r3, r6
 415              	.LVL32:
 258:Drivers/STM32F4xx_HAL_Driver/Src/stm32f4xx_hal_exti.c **** 
 259:Drivers/STM32F4xx_HAL_Driver/Src/stm32f4xx_hal_exti.c ****   /* 1] Get core mode : interrupt */
 260:Drivers/STM32F4xx_HAL_Driver/Src/stm32f4xx_hal_exti.c **** 
 261:Drivers/STM32F4xx_HAL_Driver/Src/stm32f4xx_hal_exti.c ****   /* Check if selected line is enable */
 262:Drivers/STM32F4xx_HAL_Driver/Src/stm32f4xx_hal_exti.c ****   if ((EXTI->IMR & maskline) != 0x00u)
 416              		.loc 1 262 3 is_stmt 1 view .LVU117
 417              		.loc 1 262 12 is_stmt 0 view .LVU118
 418 003e 284A     		ldr	r2, .L52+4
 419 0040 1268     		ldr	r2, [r2]
 420              		.loc 1 262 6 view .LVU119
 421 0042 1A42     		tst	r2, r3
 422 0044 29D0     		beq	.L36
 263:Drivers/STM32F4xx_HAL_Driver/Src/stm32f4xx_hal_exti.c ****   {
 264:Drivers/STM32F4xx_HAL_Driver/Src/stm32f4xx_hal_exti.c ****     pExtiConfig->Mode = EXTI_MODE_INTERRUPT;
 423              		.loc 1 264 5 is_stmt 1 view .LVU120
 424              		.loc 1 264 23 is_stmt 0 view .LVU121
 425 0046 0122     		movs	r2, #1
 426 0048 6260     		str	r2, [r4, #4]
 427              	.L37:
 265:Drivers/STM32F4xx_HAL_Driver/Src/stm32f4xx_hal_exti.c ****   }
 266:Drivers/STM32F4xx_HAL_Driver/Src/stm32f4xx_hal_exti.c ****   else
 267:Drivers/STM32F4xx_HAL_Driver/Src/stm32f4xx_hal_exti.c ****   {
 268:Drivers/STM32F4xx_HAL_Driver/Src/stm32f4xx_hal_exti.c ****     pExtiConfig->Mode = EXTI_MODE_NONE;
 269:Drivers/STM32F4xx_HAL_Driver/Src/stm32f4xx_hal_exti.c ****   }
 270:Drivers/STM32F4xx_HAL_Driver/Src/stm32f4xx_hal_exti.c **** 
 271:Drivers/STM32F4xx_HAL_Driver/Src/stm32f4xx_hal_exti.c ****   /* Get event mode */
 272:Drivers/STM32F4xx_HAL_Driver/Src/stm32f4xx_hal_exti.c ****   /* Check if selected line is enable */
 273:Drivers/STM32F4xx_HAL_Driver/Src/stm32f4xx_hal_exti.c ****   if ((EXTI->EMR & maskline) != 0x00u)
 428              		.loc 1 273 3 is_stmt 1 view .LVU122
ARM GAS  C:\Temp\ccCuLR5h.s 			page 14


 429              		.loc 1 273 12 is_stmt 0 view .LVU123
 430 004a 254A     		ldr	r2, .L52+4
 431 004c 5268     		ldr	r2, [r2, #4]
 432              		.loc 1 273 6 view .LVU124
 433 004e 1A42     		tst	r2, r3
 434 0050 03D0     		beq	.L38
 274:Drivers/STM32F4xx_HAL_Driver/Src/stm32f4xx_hal_exti.c ****   {
 275:Drivers/STM32F4xx_HAL_Driver/Src/stm32f4xx_hal_exti.c ****     pExtiConfig->Mode |= EXTI_MODE_EVENT;
 435              		.loc 1 275 5 is_stmt 1 view .LVU125
 436              		.loc 1 275 16 is_stmt 0 view .LVU126
 437 0052 6268     		ldr	r2, [r4, #4]
 438              		.loc 1 275 23 view .LVU127
 439 0054 42F00202 		orr	r2, r2, #2
 440 0058 6260     		str	r2, [r4, #4]
 441              	.L38:
 276:Drivers/STM32F4xx_HAL_Driver/Src/stm32f4xx_hal_exti.c ****   }
 277:Drivers/STM32F4xx_HAL_Driver/Src/stm32f4xx_hal_exti.c **** 
 278:Drivers/STM32F4xx_HAL_Driver/Src/stm32f4xx_hal_exti.c ****   /* Get default Trigger and GPIOSel configuration */
 279:Drivers/STM32F4xx_HAL_Driver/Src/stm32f4xx_hal_exti.c ****   pExtiConfig->Trigger = EXTI_TRIGGER_NONE;
 442              		.loc 1 279 3 is_stmt 1 view .LVU128
 443              		.loc 1 279 24 is_stmt 0 view .LVU129
 444 005a 0022     		movs	r2, #0
 445 005c A260     		str	r2, [r4, #8]
 280:Drivers/STM32F4xx_HAL_Driver/Src/stm32f4xx_hal_exti.c ****   pExtiConfig->GPIOSel = 0x00u;
 446              		.loc 1 280 3 is_stmt 1 view .LVU130
 447              		.loc 1 280 24 is_stmt 0 view .LVU131
 448 005e E260     		str	r2, [r4, #12]
 281:Drivers/STM32F4xx_HAL_Driver/Src/stm32f4xx_hal_exti.c **** 
 282:Drivers/STM32F4xx_HAL_Driver/Src/stm32f4xx_hal_exti.c ****   /* 2] Get trigger for configurable lines : rising */
 283:Drivers/STM32F4xx_HAL_Driver/Src/stm32f4xx_hal_exti.c ****   if ((pExtiConfig->Line & EXTI_CONFIG) != 0x00u)
 449              		.loc 1 283 3 is_stmt 1 view .LVU132
 450              		.loc 1 283 6 is_stmt 0 view .LVU133
 451 0060 15F0007F 		tst	r5, #33554432
 452 0064 37D0     		beq	.L44
 284:Drivers/STM32F4xx_HAL_Driver/Src/stm32f4xx_hal_exti.c ****   {
 285:Drivers/STM32F4xx_HAL_Driver/Src/stm32f4xx_hal_exti.c ****     /* Check if configuration of selected line is enable */
 286:Drivers/STM32F4xx_HAL_Driver/Src/stm32f4xx_hal_exti.c ****     if ((EXTI->RTSR & maskline) != 0x00u)
 453              		.loc 1 286 5 is_stmt 1 view .LVU134
 454              		.loc 1 286 14 is_stmt 0 view .LVU135
 455 0066 1E4A     		ldr	r2, .L52+4
 456 0068 9268     		ldr	r2, [r2, #8]
 457              		.loc 1 286 8 view .LVU136
 458 006a 1A42     		tst	r2, r3
 459 006c 01D0     		beq	.L39
 287:Drivers/STM32F4xx_HAL_Driver/Src/stm32f4xx_hal_exti.c ****     {
 288:Drivers/STM32F4xx_HAL_Driver/Src/stm32f4xx_hal_exti.c ****       pExtiConfig->Trigger = EXTI_TRIGGER_RISING;
 460              		.loc 1 288 7 is_stmt 1 view .LVU137
 461              		.loc 1 288 28 is_stmt 0 view .LVU138
 462 006e 0122     		movs	r2, #1
 463 0070 A260     		str	r2, [r4, #8]
 464              	.L39:
 289:Drivers/STM32F4xx_HAL_Driver/Src/stm32f4xx_hal_exti.c ****     }
 290:Drivers/STM32F4xx_HAL_Driver/Src/stm32f4xx_hal_exti.c **** 
 291:Drivers/STM32F4xx_HAL_Driver/Src/stm32f4xx_hal_exti.c ****     /* Get falling configuration */
 292:Drivers/STM32F4xx_HAL_Driver/Src/stm32f4xx_hal_exti.c ****     /* Check if configuration of selected line is enable */
 293:Drivers/STM32F4xx_HAL_Driver/Src/stm32f4xx_hal_exti.c ****     if ((EXTI->FTSR & maskline) != 0x00u)
 465              		.loc 1 293 5 is_stmt 1 view .LVU139
ARM GAS  C:\Temp\ccCuLR5h.s 			page 15


 466              		.loc 1 293 14 is_stmt 0 view .LVU140
 467 0072 1B4A     		ldr	r2, .L52+4
 468 0074 D268     		ldr	r2, [r2, #12]
 469              		.loc 1 293 8 view .LVU141
 470 0076 1A42     		tst	r2, r3
 471 0078 03D0     		beq	.L40
 294:Drivers/STM32F4xx_HAL_Driver/Src/stm32f4xx_hal_exti.c ****     {
 295:Drivers/STM32F4xx_HAL_Driver/Src/stm32f4xx_hal_exti.c ****       pExtiConfig->Trigger |= EXTI_TRIGGER_FALLING;
 472              		.loc 1 295 7 is_stmt 1 view .LVU142
 473              		.loc 1 295 18 is_stmt 0 view .LVU143
 474 007a A368     		ldr	r3, [r4, #8]
 475              	.LVL33:
 476              		.loc 1 295 28 view .LVU144
 477 007c 43F00203 		orr	r3, r3, #2
 478 0080 A360     		str	r3, [r4, #8]
 479              	.L40:
 296:Drivers/STM32F4xx_HAL_Driver/Src/stm32f4xx_hal_exti.c ****     }
 297:Drivers/STM32F4xx_HAL_Driver/Src/stm32f4xx_hal_exti.c **** 
 298:Drivers/STM32F4xx_HAL_Driver/Src/stm32f4xx_hal_exti.c ****     /* Get Gpio port selection for gpio lines */
 299:Drivers/STM32F4xx_HAL_Driver/Src/stm32f4xx_hal_exti.c ****     if ((pExtiConfig->Line & EXTI_GPIO) == EXTI_GPIO)
 480              		.loc 1 299 5 is_stmt 1 view .LVU145
 481              		.loc 1 299 28 is_stmt 0 view .LVU146
 482 0082 05F0C063 		and	r3, r5, #100663296
 483              		.loc 1 299 8 view .LVU147
 484 0086 B3F1C06F 		cmp	r3, #100663296
 485 008a 09D0     		beq	.L50
 300:Drivers/STM32F4xx_HAL_Driver/Src/stm32f4xx_hal_exti.c ****     {
 301:Drivers/STM32F4xx_HAL_Driver/Src/stm32f4xx_hal_exti.c ****       assert_param(IS_EXTI_GPIO_PIN(linepos));
 302:Drivers/STM32F4xx_HAL_Driver/Src/stm32f4xx_hal_exti.c **** 
 303:Drivers/STM32F4xx_HAL_Driver/Src/stm32f4xx_hal_exti.c ****       regval = SYSCFG->EXTICR[linepos >> 2u];
 304:Drivers/STM32F4xx_HAL_Driver/Src/stm32f4xx_hal_exti.c ****       pExtiConfig->GPIOSel = (regval >> (SYSCFG_EXTICR1_EXTI1_Pos * (linepos & 0x03u))) & SYSCFG_EX
 305:Drivers/STM32F4xx_HAL_Driver/Src/stm32f4xx_hal_exti.c ****     }
 306:Drivers/STM32F4xx_HAL_Driver/Src/stm32f4xx_hal_exti.c ****   }
 307:Drivers/STM32F4xx_HAL_Driver/Src/stm32f4xx_hal_exti.c **** 
 308:Drivers/STM32F4xx_HAL_Driver/Src/stm32f4xx_hal_exti.c ****   return HAL_OK;
 486              		.loc 1 308 10 view .LVU148
 487 008c 0020     		movs	r0, #0
 488 008e 23E0     		b	.L32
 489              	.LVL34:
 490              	.L34:
 250:Drivers/STM32F4xx_HAL_Driver/Src/stm32f4xx_hal_exti.c **** 
 491              		.loc 1 250 3 discriminator 6 view .LVU149
 492 0090 02F01F02 		and	r2, r2, #31
 493 0094 162A     		cmp	r2, #22
 494 0096 CCD9     		bls	.L35
 495 0098 C7E7     		b	.L33
 496              	.LVL35:
 497              	.L36:
 268:Drivers/STM32F4xx_HAL_Driver/Src/stm32f4xx_hal_exti.c ****   }
 498              		.loc 1 268 5 is_stmt 1 view .LVU150
 268:Drivers/STM32F4xx_HAL_Driver/Src/stm32f4xx_hal_exti.c ****   }
 499              		.loc 1 268 23 is_stmt 0 view .LVU151
 500 009a 0022     		movs	r2, #0
 501 009c 6260     		str	r2, [r4, #4]
 502 009e D4E7     		b	.L37
 503              	.LVL36:
 504              	.L50:
ARM GAS  C:\Temp\ccCuLR5h.s 			page 16


 301:Drivers/STM32F4xx_HAL_Driver/Src/stm32f4xx_hal_exti.c **** 
 505              		.loc 1 301 7 is_stmt 1 view .LVU152
 506 00a0 15F0100F 		tst	r5, #16
 507 00a4 0DD1     		bne	.L51
 508              	.L41:
 303:Drivers/STM32F4xx_HAL_Driver/Src/stm32f4xx_hal_exti.c ****       pExtiConfig->GPIOSel = (regval >> (SYSCFG_EXTICR1_EXTI1_Pos * (linepos & 0x03u))) & SYSCFG_EX
 509              		.loc 1 303 7 view .LVU153
 303:Drivers/STM32F4xx_HAL_Driver/Src/stm32f4xx_hal_exti.c ****       pExtiConfig->GPIOSel = (regval >> (SYSCFG_EXTICR1_EXTI1_Pos * (linepos & 0x03u))) & SYSCFG_EX
 510              		.loc 1 303 39 is_stmt 0 view .LVU154
 511 00a6 B608     		lsrs	r6, r6, #2
 512              	.LVL37:
 303:Drivers/STM32F4xx_HAL_Driver/Src/stm32f4xx_hal_exti.c ****       pExtiConfig->GPIOSel = (regval >> (SYSCFG_EXTICR1_EXTI1_Pos * (linepos & 0x03u))) & SYSCFG_EX
 513              		.loc 1 303 14 view .LVU155
 514 00a8 0236     		adds	r6, r6, #2
 515 00aa 0E4B     		ldr	r3, .L52+8
 516 00ac 53F82630 		ldr	r3, [r3, r6, lsl #2]
 517              	.LVL38:
 304:Drivers/STM32F4xx_HAL_Driver/Src/stm32f4xx_hal_exti.c ****     }
 518              		.loc 1 304 7 is_stmt 1 view .LVU156
 304:Drivers/STM32F4xx_HAL_Driver/Src/stm32f4xx_hal_exti.c ****     }
 519              		.loc 1 304 78 is_stmt 0 view .LVU157
 520 00b0 05F00305 		and	r5, r5, #3
 521              	.LVL39:
 304:Drivers/STM32F4xx_HAL_Driver/Src/stm32f4xx_hal_exti.c ****     }
 522              		.loc 1 304 67 view .LVU158
 523 00b4 AD00     		lsls	r5, r5, #2
 304:Drivers/STM32F4xx_HAL_Driver/Src/stm32f4xx_hal_exti.c ****     }
 524              		.loc 1 304 38 view .LVU159
 525 00b6 EB40     		lsrs	r3, r3, r5
 526              	.LVL40:
 304:Drivers/STM32F4xx_HAL_Driver/Src/stm32f4xx_hal_exti.c ****     }
 527              		.loc 1 304 89 view .LVU160
 528 00b8 03F00F03 		and	r3, r3, #15
 304:Drivers/STM32F4xx_HAL_Driver/Src/stm32f4xx_hal_exti.c ****     }
 529              		.loc 1 304 28 view .LVU161
 530 00bc E360     		str	r3, [r4, #12]
 531              		.loc 1 308 10 view .LVU162
 532 00be 0020     		movs	r0, #0
 533 00c0 0AE0     		b	.L32
 534              	.LVL41:
 535              	.L51:
 301:Drivers/STM32F4xx_HAL_Driver/Src/stm32f4xx_hal_exti.c **** 
 536              		.loc 1 301 7 discriminator 1 view .LVU163
 537 00c2 40F22D11 		movw	r1, #301
 538 00c6 0548     		ldr	r0, .L52
 539 00c8 FFF7FEFF 		bl	assert_failed
 540              	.LVL42:
 541 00cc EBE7     		b	.L41
 542              	.LVL43:
 543              	.L42:
 544              		.cfi_def_cfa_offset 0
 545              		.cfi_restore 4
 546              		.cfi_restore 5
 547              		.cfi_restore 6
 548              		.cfi_restore 14
 246:Drivers/STM32F4xx_HAL_Driver/Src/stm32f4xx_hal_exti.c ****   }
 549              		.loc 1 246 12 view .LVU164
ARM GAS  C:\Temp\ccCuLR5h.s 			page 17


 550 00ce 0120     		movs	r0, #1
 551              	.LVL44:
 309:Drivers/STM32F4xx_HAL_Driver/Src/stm32f4xx_hal_exti.c **** }
 552              		.loc 1 309 1 view .LVU165
 553 00d0 7047     		bx	lr
 554              	.LVL45:
 555              	.L43:
 556              		.cfi_def_cfa_offset 16
 557              		.cfi_offset 4, -16
 558              		.cfi_offset 5, -12
 559              		.cfi_offset 6, -8
 560              		.cfi_offset 14, -4
 246:Drivers/STM32F4xx_HAL_Driver/Src/stm32f4xx_hal_exti.c ****   }
 561              		.loc 1 246 12 view .LVU166
 562 00d2 0120     		movs	r0, #1
 563              	.LVL46:
 246:Drivers/STM32F4xx_HAL_Driver/Src/stm32f4xx_hal_exti.c ****   }
 564              		.loc 1 246 12 view .LVU167
 565 00d4 00E0     		b	.L32
 566              	.LVL47:
 567              	.L44:
 308:Drivers/STM32F4xx_HAL_Driver/Src/stm32f4xx_hal_exti.c **** }
 568              		.loc 1 308 10 view .LVU168
 569 00d6 0020     		movs	r0, #0
 570              	.LVL48:
 571              	.L32:
 572              		.loc 1 309 1 view .LVU169
 573 00d8 70BD     		pop	{r4, r5, r6, pc}
 574              	.LVL49:
 575              	.L53:
 576              		.loc 1 309 1 view .LVU170
 577 00da 00BF     		.align	2
 578              	.L52:
 579 00dc 00000000 		.word	.LC0
 580 00e0 003C0140 		.word	1073822720
 581 00e4 00380140 		.word	1073821696
 582              		.cfi_endproc
 583              	.LFE135:
 585              		.section	.text.HAL_EXTI_ClearConfigLine,"ax",%progbits
 586              		.align	1
 587              		.global	HAL_EXTI_ClearConfigLine
 588              		.syntax unified
 589              		.thumb
 590              		.thumb_func
 592              	HAL_EXTI_ClearConfigLine:
 593              	.LVL50:
 594              	.LFB136:
 310:Drivers/STM32F4xx_HAL_Driver/Src/stm32f4xx_hal_exti.c **** 
 311:Drivers/STM32F4xx_HAL_Driver/Src/stm32f4xx_hal_exti.c **** /**
 312:Drivers/STM32F4xx_HAL_Driver/Src/stm32f4xx_hal_exti.c ****   * @brief  Clear whole configuration of a dedicated Exti line.
 313:Drivers/STM32F4xx_HAL_Driver/Src/stm32f4xx_hal_exti.c ****   * @param  hexti Exti handle.
 314:Drivers/STM32F4xx_HAL_Driver/Src/stm32f4xx_hal_exti.c ****   * @retval HAL Status.
 315:Drivers/STM32F4xx_HAL_Driver/Src/stm32f4xx_hal_exti.c ****   */
 316:Drivers/STM32F4xx_HAL_Driver/Src/stm32f4xx_hal_exti.c **** HAL_StatusTypeDef HAL_EXTI_ClearConfigLine(EXTI_HandleTypeDef *hexti)
 317:Drivers/STM32F4xx_HAL_Driver/Src/stm32f4xx_hal_exti.c **** {
 595              		.loc 1 317 1 is_stmt 1 view -0
 596              		.cfi_startproc
ARM GAS  C:\Temp\ccCuLR5h.s 			page 18


 597              		@ args = 0, pretend = 0, frame = 0
 598              		@ frame_needed = 0, uses_anonymous_args = 0
 318:Drivers/STM32F4xx_HAL_Driver/Src/stm32f4xx_hal_exti.c ****   uint32_t regval;
 599              		.loc 1 318 3 view .LVU172
 319:Drivers/STM32F4xx_HAL_Driver/Src/stm32f4xx_hal_exti.c ****   uint32_t linepos;
 600              		.loc 1 319 3 view .LVU173
 320:Drivers/STM32F4xx_HAL_Driver/Src/stm32f4xx_hal_exti.c ****   uint32_t maskline;
 601              		.loc 1 320 3 view .LVU174
 321:Drivers/STM32F4xx_HAL_Driver/Src/stm32f4xx_hal_exti.c **** 
 322:Drivers/STM32F4xx_HAL_Driver/Src/stm32f4xx_hal_exti.c ****   /* Check null pointer */
 323:Drivers/STM32F4xx_HAL_Driver/Src/stm32f4xx_hal_exti.c ****   if (hexti == NULL)
 602              		.loc 1 323 3 view .LVU175
 603              		.loc 1 323 6 is_stmt 0 view .LVU176
 604 0000 0028     		cmp	r0, #0
 605 0002 54D0     		beq	.L60
 317:Drivers/STM32F4xx_HAL_Driver/Src/stm32f4xx_hal_exti.c ****   uint32_t regval;
 606              		.loc 1 317 1 view .LVU177
 607 0004 70B5     		push	{r4, r5, r6, lr}
 608              		.cfi_def_cfa_offset 16
 609              		.cfi_offset 4, -16
 610              		.cfi_offset 5, -12
 611              		.cfi_offset 6, -8
 612              		.cfi_offset 14, -4
 613 0006 0446     		mov	r4, r0
 324:Drivers/STM32F4xx_HAL_Driver/Src/stm32f4xx_hal_exti.c ****   {
 325:Drivers/STM32F4xx_HAL_Driver/Src/stm32f4xx_hal_exti.c ****     return HAL_ERROR;
 326:Drivers/STM32F4xx_HAL_Driver/Src/stm32f4xx_hal_exti.c ****   }
 327:Drivers/STM32F4xx_HAL_Driver/Src/stm32f4xx_hal_exti.c **** 
 328:Drivers/STM32F4xx_HAL_Driver/Src/stm32f4xx_hal_exti.c ****   /* Check the parameter */
 329:Drivers/STM32F4xx_HAL_Driver/Src/stm32f4xx_hal_exti.c ****   assert_param(IS_EXTI_LINE(hexti->Line));
 614              		.loc 1 329 3 is_stmt 1 view .LVU178
 615 0008 0268     		ldr	r2, [r0]
 616 000a 22F0C063 		bic	r3, r2, #100663296
 617 000e 23F01F03 		bic	r3, r3, #31
 618 0012 3BB9     		cbnz	r3, .L56
 619              		.loc 1 329 3 is_stmt 0 discriminator 2 view .LVU179
 620 0014 02F0C063 		and	r3, r2, #100663296
 621 0018 B3F1007F 		cmp	r3, #33554432
 622 001c 29D0     		beq	.L57
 623              		.loc 1 329 3 discriminator 3 view .LVU180
 624 001e B3F1C06F 		cmp	r3, #100663296
 625 0022 26D0     		beq	.L57
 626              	.L56:
 627              		.loc 1 329 3 discriminator 7 view .LVU181
 628 0024 40F24911 		movw	r1, #329
 629 0028 2348     		ldr	r0, .L69
 630              	.LVL51:
 631              		.loc 1 329 3 discriminator 7 view .LVU182
 632 002a FFF7FEFF 		bl	assert_failed
 633              	.LVL52:
 634              	.L58:
 330:Drivers/STM32F4xx_HAL_Driver/Src/stm32f4xx_hal_exti.c **** 
 331:Drivers/STM32F4xx_HAL_Driver/Src/stm32f4xx_hal_exti.c ****   /* compute line mask */
 332:Drivers/STM32F4xx_HAL_Driver/Src/stm32f4xx_hal_exti.c ****   linepos = (hexti->Line & EXTI_PIN_MASK);
 635              		.loc 1 332 3 is_stmt 1 view .LVU183
 636              		.loc 1 332 19 is_stmt 0 view .LVU184
 637 002e 2668     		ldr	r6, [r4]
ARM GAS  C:\Temp\ccCuLR5h.s 			page 19


 638              		.loc 1 332 11 view .LVU185
 639 0030 06F01F05 		and	r5, r6, #31
 640              	.LVL53:
 333:Drivers/STM32F4xx_HAL_Driver/Src/stm32f4xx_hal_exti.c ****   maskline = (1uL << linepos);
 641              		.loc 1 333 3 is_stmt 1 view .LVU186
 642              		.loc 1 333 12 is_stmt 0 view .LVU187
 643 0034 0123     		movs	r3, #1
 644 0036 AB40     		lsls	r3, r3, r5
 645              	.LVL54:
 334:Drivers/STM32F4xx_HAL_Driver/Src/stm32f4xx_hal_exti.c **** 
 335:Drivers/STM32F4xx_HAL_Driver/Src/stm32f4xx_hal_exti.c ****   /* 1] Clear interrupt mode */
 336:Drivers/STM32F4xx_HAL_Driver/Src/stm32f4xx_hal_exti.c ****   EXTI->IMR = (EXTI->IMR & ~maskline);
 646              		.loc 1 336 3 is_stmt 1 view .LVU188
 647              		.loc 1 336 20 is_stmt 0 view .LVU189
 648 0038 204A     		ldr	r2, .L69+4
 649 003a 1168     		ldr	r1, [r2]
 650              		.loc 1 336 28 view .LVU190
 651 003c D843     		mvns	r0, r3
 652              		.loc 1 336 26 view .LVU191
 653 003e 21EA0301 		bic	r1, r1, r3
 654              		.loc 1 336 13 view .LVU192
 655 0042 1160     		str	r1, [r2]
 337:Drivers/STM32F4xx_HAL_Driver/Src/stm32f4xx_hal_exti.c **** 
 338:Drivers/STM32F4xx_HAL_Driver/Src/stm32f4xx_hal_exti.c ****   /* 2] Clear event mode */
 339:Drivers/STM32F4xx_HAL_Driver/Src/stm32f4xx_hal_exti.c ****   EXTI->EMR = (EXTI->EMR & ~maskline);
 656              		.loc 1 339 3 is_stmt 1 view .LVU193
 657              		.loc 1 339 20 is_stmt 0 view .LVU194
 658 0044 5168     		ldr	r1, [r2, #4]
 659              		.loc 1 339 26 view .LVU195
 660 0046 21EA0303 		bic	r3, r1, r3
 661              	.LVL55:
 662              		.loc 1 339 13 view .LVU196
 663 004a 5360     		str	r3, [r2, #4]
 340:Drivers/STM32F4xx_HAL_Driver/Src/stm32f4xx_hal_exti.c **** 
 341:Drivers/STM32F4xx_HAL_Driver/Src/stm32f4xx_hal_exti.c ****   /* 3] Clear triggers in case of configurable lines */
 342:Drivers/STM32F4xx_HAL_Driver/Src/stm32f4xx_hal_exti.c ****   if ((hexti->Line & EXTI_CONFIG) != 0x00u)
 664              		.loc 1 342 3 is_stmt 1 view .LVU197
 665              		.loc 1 342 13 is_stmt 0 view .LVU198
 666 004c 2368     		ldr	r3, [r4]
 667              		.loc 1 342 6 view .LVU199
 668 004e 13F0007F 		tst	r3, #33554432
 669 0052 2ED0     		beq	.L61
 343:Drivers/STM32F4xx_HAL_Driver/Src/stm32f4xx_hal_exti.c ****   {
 344:Drivers/STM32F4xx_HAL_Driver/Src/stm32f4xx_hal_exti.c ****     EXTI->RTSR = (EXTI->RTSR & ~maskline);
 670              		.loc 1 344 5 is_stmt 1 view .LVU200
 671              		.loc 1 344 23 is_stmt 0 view .LVU201
 672 0054 1346     		mov	r3, r2
 673 0056 9268     		ldr	r2, [r2, #8]
 674              		.loc 1 344 30 view .LVU202
 675 0058 0240     		ands	r2, r2, r0
 676              		.loc 1 344 16 view .LVU203
 677 005a 9A60     		str	r2, [r3, #8]
 345:Drivers/STM32F4xx_HAL_Driver/Src/stm32f4xx_hal_exti.c ****     EXTI->FTSR = (EXTI->FTSR & ~maskline);
 678              		.loc 1 345 5 is_stmt 1 view .LVU204
 679              		.loc 1 345 23 is_stmt 0 view .LVU205
 680 005c DA68     		ldr	r2, [r3, #12]
 681              		.loc 1 345 30 view .LVU206
ARM GAS  C:\Temp\ccCuLR5h.s 			page 20


 682 005e 1040     		ands	r0, r0, r2
 683              	.LVL56:
 684              		.loc 1 345 16 view .LVU207
 685 0060 D860     		str	r0, [r3, #12]
 346:Drivers/STM32F4xx_HAL_Driver/Src/stm32f4xx_hal_exti.c **** 
 347:Drivers/STM32F4xx_HAL_Driver/Src/stm32f4xx_hal_exti.c ****     /* Get Gpio port selection for gpio lines */
 348:Drivers/STM32F4xx_HAL_Driver/Src/stm32f4xx_hal_exti.c ****     if ((hexti->Line & EXTI_GPIO) == EXTI_GPIO)
 686              		.loc 1 348 5 is_stmt 1 view .LVU208
 687              		.loc 1 348 15 is_stmt 0 view .LVU209
 688 0062 2368     		ldr	r3, [r4]
 689              		.loc 1 348 22 view .LVU210
 690 0064 03F0C063 		and	r3, r3, #100663296
 691              		.loc 1 348 8 view .LVU211
 692 0068 B3F1C06F 		cmp	r3, #100663296
 693 006c 06D0     		beq	.L67
 349:Drivers/STM32F4xx_HAL_Driver/Src/stm32f4xx_hal_exti.c ****     {
 350:Drivers/STM32F4xx_HAL_Driver/Src/stm32f4xx_hal_exti.c ****       assert_param(IS_EXTI_GPIO_PIN(linepos));
 351:Drivers/STM32F4xx_HAL_Driver/Src/stm32f4xx_hal_exti.c **** 
 352:Drivers/STM32F4xx_HAL_Driver/Src/stm32f4xx_hal_exti.c ****       regval = SYSCFG->EXTICR[linepos >> 2u];
 353:Drivers/STM32F4xx_HAL_Driver/Src/stm32f4xx_hal_exti.c ****       regval &= ~(SYSCFG_EXTICR1_EXTI0 << (SYSCFG_EXTICR1_EXTI1_Pos * (linepos & 0x03u)));
 354:Drivers/STM32F4xx_HAL_Driver/Src/stm32f4xx_hal_exti.c ****       SYSCFG->EXTICR[linepos >> 2u] = regval;
 355:Drivers/STM32F4xx_HAL_Driver/Src/stm32f4xx_hal_exti.c ****     }
 356:Drivers/STM32F4xx_HAL_Driver/Src/stm32f4xx_hal_exti.c ****   }
 357:Drivers/STM32F4xx_HAL_Driver/Src/stm32f4xx_hal_exti.c **** 
 358:Drivers/STM32F4xx_HAL_Driver/Src/stm32f4xx_hal_exti.c ****   return HAL_OK;
 694              		.loc 1 358 10 view .LVU212
 695 006e 0020     		movs	r0, #0
 696 0070 20E0     		b	.L55
 697              	.LVL57:
 698              	.L57:
 329:Drivers/STM32F4xx_HAL_Driver/Src/stm32f4xx_hal_exti.c **** 
 699              		.loc 1 329 3 discriminator 6 view .LVU213
 700 0072 02F01F02 		and	r2, r2, #31
 701 0076 162A     		cmp	r2, #22
 702 0078 D9D9     		bls	.L58
 703 007a D3E7     		b	.L56
 704              	.LVL58:
 705              	.L67:
 350:Drivers/STM32F4xx_HAL_Driver/Src/stm32f4xx_hal_exti.c **** 
 706              		.loc 1 350 7 is_stmt 1 view .LVU214
 707 007c 16F0100F 		tst	r6, #16
 708 0080 0FD1     		bne	.L68
 709              	.L59:
 352:Drivers/STM32F4xx_HAL_Driver/Src/stm32f4xx_hal_exti.c ****       regval &= ~(SYSCFG_EXTICR1_EXTI0 << (SYSCFG_EXTICR1_EXTI1_Pos * (linepos & 0x03u)));
 710              		.loc 1 352 7 view .LVU215
 352:Drivers/STM32F4xx_HAL_Driver/Src/stm32f4xx_hal_exti.c ****       regval &= ~(SYSCFG_EXTICR1_EXTI0 << (SYSCFG_EXTICR1_EXTI1_Pos * (linepos & 0x03u)));
 711              		.loc 1 352 39 is_stmt 0 view .LVU216
 712 0082 AD08     		lsrs	r5, r5, #2
 713              	.LVL59:
 352:Drivers/STM32F4xx_HAL_Driver/Src/stm32f4xx_hal_exti.c ****       regval &= ~(SYSCFG_EXTICR1_EXTI0 << (SYSCFG_EXTICR1_EXTI1_Pos * (linepos & 0x03u)));
 714              		.loc 1 352 14 view .LVU217
 715 0084 0E49     		ldr	r1, .L69+8
 716 0086 0235     		adds	r5, r5, #2
 717 0088 51F82530 		ldr	r3, [r1, r5, lsl #2]
 718              	.LVL60:
 353:Drivers/STM32F4xx_HAL_Driver/Src/stm32f4xx_hal_exti.c ****       SYSCFG->EXTICR[linepos >> 2u] = regval;
 719              		.loc 1 353 7 is_stmt 1 view .LVU218
ARM GAS  C:\Temp\ccCuLR5h.s 			page 21


 353:Drivers/STM32F4xx_HAL_Driver/Src/stm32f4xx_hal_exti.c ****       SYSCFG->EXTICR[linepos >> 2u] = regval;
 720              		.loc 1 353 80 is_stmt 0 view .LVU219
 721 008c 06F00306 		and	r6, r6, #3
 722              	.LVL61:
 353:Drivers/STM32F4xx_HAL_Driver/Src/stm32f4xx_hal_exti.c ****       SYSCFG->EXTICR[linepos >> 2u] = regval;
 723              		.loc 1 353 69 view .LVU220
 724 0090 B600     		lsls	r6, r6, #2
 353:Drivers/STM32F4xx_HAL_Driver/Src/stm32f4xx_hal_exti.c ****       SYSCFG->EXTICR[linepos >> 2u] = regval;
 725              		.loc 1 353 40 view .LVU221
 726 0092 0F22     		movs	r2, #15
 727 0094 B240     		lsls	r2, r2, r6
 353:Drivers/STM32F4xx_HAL_Driver/Src/stm32f4xx_hal_exti.c ****       SYSCFG->EXTICR[linepos >> 2u] = regval;
 728              		.loc 1 353 14 view .LVU222
 729 0096 23EA0203 		bic	r3, r3, r2
 730              	.LVL62:
 354:Drivers/STM32F4xx_HAL_Driver/Src/stm32f4xx_hal_exti.c ****     }
 731              		.loc 1 354 7 is_stmt 1 view .LVU223
 354:Drivers/STM32F4xx_HAL_Driver/Src/stm32f4xx_hal_exti.c ****     }
 732              		.loc 1 354 37 is_stmt 0 view .LVU224
 733 009a 41F82530 		str	r3, [r1, r5, lsl #2]
 734              		.loc 1 358 10 view .LVU225
 735 009e 0020     		movs	r0, #0
 736 00a0 08E0     		b	.L55
 737              	.LVL63:
 738              	.L68:
 350:Drivers/STM32F4xx_HAL_Driver/Src/stm32f4xx_hal_exti.c **** 
 739              		.loc 1 350 7 discriminator 1 view .LVU226
 740 00a2 4FF4AF71 		mov	r1, #350
 741 00a6 0448     		ldr	r0, .L69
 742 00a8 FFF7FEFF 		bl	assert_failed
 743              	.LVL64:
 744 00ac E9E7     		b	.L59
 745              	.LVL65:
 746              	.L60:
 747              		.cfi_def_cfa_offset 0
 748              		.cfi_restore 4
 749              		.cfi_restore 5
 750              		.cfi_restore 6
 751              		.cfi_restore 14
 325:Drivers/STM32F4xx_HAL_Driver/Src/stm32f4xx_hal_exti.c ****   }
 752              		.loc 1 325 12 view .LVU227
 753 00ae 0120     		movs	r0, #1
 754              	.LVL66:
 359:Drivers/STM32F4xx_HAL_Driver/Src/stm32f4xx_hal_exti.c **** }
 755              		.loc 1 359 1 view .LVU228
 756 00b0 7047     		bx	lr
 757              	.LVL67:
 758              	.L61:
 759              		.cfi_def_cfa_offset 16
 760              		.cfi_offset 4, -16
 761              		.cfi_offset 5, -12
 762              		.cfi_offset 6, -8
 763              		.cfi_offset 14, -4
 358:Drivers/STM32F4xx_HAL_Driver/Src/stm32f4xx_hal_exti.c **** }
 764              		.loc 1 358 10 view .LVU229
 765 00b2 0020     		movs	r0, #0
 766              	.LVL68:
ARM GAS  C:\Temp\ccCuLR5h.s 			page 22


 767              	.L55:
 768              		.loc 1 359 1 view .LVU230
 769 00b4 70BD     		pop	{r4, r5, r6, pc}
 770              	.LVL69:
 771              	.L70:
 772              		.loc 1 359 1 view .LVU231
 773 00b6 00BF     		.align	2
 774              	.L69:
 775 00b8 00000000 		.word	.LC0
 776 00bc 003C0140 		.word	1073822720
 777 00c0 00380140 		.word	1073821696
 778              		.cfi_endproc
 779              	.LFE136:
 781              		.section	.text.HAL_EXTI_RegisterCallback,"ax",%progbits
 782              		.align	1
 783              		.global	HAL_EXTI_RegisterCallback
 784              		.syntax unified
 785              		.thumb
 786              		.thumb_func
 788              	HAL_EXTI_RegisterCallback:
 789              	.LVL70:
 790              	.LFB137:
 360:Drivers/STM32F4xx_HAL_Driver/Src/stm32f4xx_hal_exti.c **** 
 361:Drivers/STM32F4xx_HAL_Driver/Src/stm32f4xx_hal_exti.c **** /**
 362:Drivers/STM32F4xx_HAL_Driver/Src/stm32f4xx_hal_exti.c ****   * @brief  Register callback for a dedicated Exti line.
 363:Drivers/STM32F4xx_HAL_Driver/Src/stm32f4xx_hal_exti.c ****   * @param  hexti Exti handle.
 364:Drivers/STM32F4xx_HAL_Driver/Src/stm32f4xx_hal_exti.c ****   * @param  CallbackID User callback identifier.
 365:Drivers/STM32F4xx_HAL_Driver/Src/stm32f4xx_hal_exti.c ****   *         This parameter can be one of @arg @ref EXTI_CallbackIDTypeDef values.
 366:Drivers/STM32F4xx_HAL_Driver/Src/stm32f4xx_hal_exti.c ****   * @param  pPendingCbfn function pointer to be stored as callback.
 367:Drivers/STM32F4xx_HAL_Driver/Src/stm32f4xx_hal_exti.c ****   * @retval HAL Status.
 368:Drivers/STM32F4xx_HAL_Driver/Src/stm32f4xx_hal_exti.c ****   */
 369:Drivers/STM32F4xx_HAL_Driver/Src/stm32f4xx_hal_exti.c **** HAL_StatusTypeDef HAL_EXTI_RegisterCallback(EXTI_HandleTypeDef *hexti, EXTI_CallbackIDTypeDef Callb
 370:Drivers/STM32F4xx_HAL_Driver/Src/stm32f4xx_hal_exti.c **** {
 791              		.loc 1 370 1 is_stmt 1 view -0
 792              		.cfi_startproc
 793              		@ args = 0, pretend = 0, frame = 0
 794              		@ frame_needed = 0, uses_anonymous_args = 0
 795              		@ link register save eliminated.
 796              		.loc 1 370 1 is_stmt 0 view .LVU233
 797 0000 0346     		mov	r3, r0
 371:Drivers/STM32F4xx_HAL_Driver/Src/stm32f4xx_hal_exti.c ****   HAL_StatusTypeDef status = HAL_OK;
 798              		.loc 1 371 3 is_stmt 1 view .LVU234
 799              	.LVL71:
 372:Drivers/STM32F4xx_HAL_Driver/Src/stm32f4xx_hal_exti.c **** 
 373:Drivers/STM32F4xx_HAL_Driver/Src/stm32f4xx_hal_exti.c ****   switch (CallbackID)
 800              		.loc 1 373 3 view .LVU235
 801 0002 0846     		mov	r0, r1
 802              	.LVL72:
 803              		.loc 1 373 3 is_stmt 0 view .LVU236
 804 0004 09B9     		cbnz	r1, .L73
 374:Drivers/STM32F4xx_HAL_Driver/Src/stm32f4xx_hal_exti.c ****   {
 375:Drivers/STM32F4xx_HAL_Driver/Src/stm32f4xx_hal_exti.c ****     case  HAL_EXTI_COMMON_CB_ID:
 376:Drivers/STM32F4xx_HAL_Driver/Src/stm32f4xx_hal_exti.c ****       hexti->PendingCallback = pPendingCbfn;
 805              		.loc 1 376 7 is_stmt 1 view .LVU237
 806              		.loc 1 376 30 is_stmt 0 view .LVU238
 807 0006 5A60     		str	r2, [r3, #4]
 377:Drivers/STM32F4xx_HAL_Driver/Src/stm32f4xx_hal_exti.c ****       break;
ARM GAS  C:\Temp\ccCuLR5h.s 			page 23


 808              		.loc 1 377 7 is_stmt 1 view .LVU239
 809 0008 7047     		bx	lr
 810              	.L73:
 378:Drivers/STM32F4xx_HAL_Driver/Src/stm32f4xx_hal_exti.c **** 
 379:Drivers/STM32F4xx_HAL_Driver/Src/stm32f4xx_hal_exti.c ****     default:
 380:Drivers/STM32F4xx_HAL_Driver/Src/stm32f4xx_hal_exti.c ****       status = HAL_ERROR;
 811              		.loc 1 380 14 is_stmt 0 view .LVU240
 812 000a 0120     		movs	r0, #1
 813              	.LVL73:
 381:Drivers/STM32F4xx_HAL_Driver/Src/stm32f4xx_hal_exti.c ****       break;
 382:Drivers/STM32F4xx_HAL_Driver/Src/stm32f4xx_hal_exti.c ****   }
 383:Drivers/STM32F4xx_HAL_Driver/Src/stm32f4xx_hal_exti.c **** 
 384:Drivers/STM32F4xx_HAL_Driver/Src/stm32f4xx_hal_exti.c ****   return status;
 814              		.loc 1 384 3 is_stmt 1 view .LVU241
 385:Drivers/STM32F4xx_HAL_Driver/Src/stm32f4xx_hal_exti.c **** }
 815              		.loc 1 385 1 is_stmt 0 view .LVU242
 816 000c 7047     		bx	lr
 817              		.cfi_endproc
 818              	.LFE137:
 820              		.section	.text.HAL_EXTI_GetHandle,"ax",%progbits
 821              		.align	1
 822              		.global	HAL_EXTI_GetHandle
 823              		.syntax unified
 824              		.thumb
 825              		.thumb_func
 827              	HAL_EXTI_GetHandle:
 828              	.LVL74:
 829              	.LFB138:
 386:Drivers/STM32F4xx_HAL_Driver/Src/stm32f4xx_hal_exti.c **** 
 387:Drivers/STM32F4xx_HAL_Driver/Src/stm32f4xx_hal_exti.c **** /**
 388:Drivers/STM32F4xx_HAL_Driver/Src/stm32f4xx_hal_exti.c ****   * @brief  Store line number as handle private field.
 389:Drivers/STM32F4xx_HAL_Driver/Src/stm32f4xx_hal_exti.c ****   * @param  hexti Exti handle.
 390:Drivers/STM32F4xx_HAL_Driver/Src/stm32f4xx_hal_exti.c ****   * @param  ExtiLine Exti line number.
 391:Drivers/STM32F4xx_HAL_Driver/Src/stm32f4xx_hal_exti.c ****   *         This parameter can be from 0 to @ref EXTI_LINE_NB.
 392:Drivers/STM32F4xx_HAL_Driver/Src/stm32f4xx_hal_exti.c ****   * @retval HAL Status.
 393:Drivers/STM32F4xx_HAL_Driver/Src/stm32f4xx_hal_exti.c ****   */
 394:Drivers/STM32F4xx_HAL_Driver/Src/stm32f4xx_hal_exti.c **** HAL_StatusTypeDef HAL_EXTI_GetHandle(EXTI_HandleTypeDef *hexti, uint32_t ExtiLine)
 395:Drivers/STM32F4xx_HAL_Driver/Src/stm32f4xx_hal_exti.c **** {
 830              		.loc 1 395 1 is_stmt 1 view -0
 831              		.cfi_startproc
 832              		@ args = 0, pretend = 0, frame = 0
 833              		@ frame_needed = 0, uses_anonymous_args = 0
 834              		.loc 1 395 1 is_stmt 0 view .LVU244
 835 0000 38B5     		push	{r3, r4, r5, lr}
 836              		.cfi_def_cfa_offset 16
 837              		.cfi_offset 3, -16
 838              		.cfi_offset 4, -12
 839              		.cfi_offset 5, -8
 840              		.cfi_offset 14, -4
 841 0002 0546     		mov	r5, r0
 842 0004 0C46     		mov	r4, r1
 396:Drivers/STM32F4xx_HAL_Driver/Src/stm32f4xx_hal_exti.c ****   /* Check the parameters */
 397:Drivers/STM32F4xx_HAL_Driver/Src/stm32f4xx_hal_exti.c ****   assert_param(IS_EXTI_LINE(ExtiLine));
 843              		.loc 1 397 3 is_stmt 1 view .LVU245
 844 0006 21F0C063 		bic	r3, r1, #100663296
 845 000a 23F01F03 		bic	r3, r3, #31
 846 000e 3BB9     		cbnz	r3, .L75
ARM GAS  C:\Temp\ccCuLR5h.s 			page 24


 847              		.loc 1 397 3 is_stmt 0 discriminator 2 view .LVU246
 848 0010 01F0C063 		and	r3, r1, #100663296
 849 0014 B3F1007F 		cmp	r3, #33554432
 850 0018 0BD0     		beq	.L76
 851              		.loc 1 397 3 discriminator 3 view .LVU247
 852 001a B3F1C06F 		cmp	r3, #100663296
 853 001e 08D0     		beq	.L76
 854              	.L75:
 855              		.loc 1 397 3 discriminator 7 view .LVU248
 856 0020 40F28D11 		movw	r1, #397
 857              	.LVL75:
 858              		.loc 1 397 3 discriminator 7 view .LVU249
 859 0024 0648     		ldr	r0, .L81
 860              	.LVL76:
 861              		.loc 1 397 3 discriminator 7 view .LVU250
 862 0026 FFF7FEFF 		bl	assert_failed
 863              	.LVL77:
 864              	.L77:
 398:Drivers/STM32F4xx_HAL_Driver/Src/stm32f4xx_hal_exti.c **** 
 399:Drivers/STM32F4xx_HAL_Driver/Src/stm32f4xx_hal_exti.c ****   /* Check null pointer */
 400:Drivers/STM32F4xx_HAL_Driver/Src/stm32f4xx_hal_exti.c ****   if (hexti == NULL)
 865              		.loc 1 400 3 is_stmt 1 view .LVU251
 866              		.loc 1 400 6 is_stmt 0 view .LVU252
 867 002a 3DB1     		cbz	r5, .L79
 401:Drivers/STM32F4xx_HAL_Driver/Src/stm32f4xx_hal_exti.c ****   {
 402:Drivers/STM32F4xx_HAL_Driver/Src/stm32f4xx_hal_exti.c ****     return HAL_ERROR;
 403:Drivers/STM32F4xx_HAL_Driver/Src/stm32f4xx_hal_exti.c ****   }
 404:Drivers/STM32F4xx_HAL_Driver/Src/stm32f4xx_hal_exti.c ****   else
 405:Drivers/STM32F4xx_HAL_Driver/Src/stm32f4xx_hal_exti.c ****   {
 406:Drivers/STM32F4xx_HAL_Driver/Src/stm32f4xx_hal_exti.c ****     /* Store line number as handle private field */
 407:Drivers/STM32F4xx_HAL_Driver/Src/stm32f4xx_hal_exti.c ****     hexti->Line = ExtiLine;
 868              		.loc 1 407 5 is_stmt 1 view .LVU253
 869              		.loc 1 407 17 is_stmt 0 view .LVU254
 870 002c 2C60     		str	r4, [r5]
 408:Drivers/STM32F4xx_HAL_Driver/Src/stm32f4xx_hal_exti.c **** 
 409:Drivers/STM32F4xx_HAL_Driver/Src/stm32f4xx_hal_exti.c ****     return HAL_OK;
 871              		.loc 1 409 5 is_stmt 1 view .LVU255
 872              		.loc 1 409 12 is_stmt 0 view .LVU256
 873 002e 0020     		movs	r0, #0
 874              	.L78:
 410:Drivers/STM32F4xx_HAL_Driver/Src/stm32f4xx_hal_exti.c ****   }
 411:Drivers/STM32F4xx_HAL_Driver/Src/stm32f4xx_hal_exti.c **** }
 875              		.loc 1 411 1 view .LVU257
 876 0030 38BD     		pop	{r3, r4, r5, pc}
 877              	.LVL78:
 878              	.L76:
 397:Drivers/STM32F4xx_HAL_Driver/Src/stm32f4xx_hal_exti.c **** 
 879              		.loc 1 397 3 discriminator 6 view .LVU258
 880 0032 04F01F03 		and	r3, r4, #31
 881 0036 162B     		cmp	r3, #22
 882 0038 F7D9     		bls	.L77
 883 003a F1E7     		b	.L75
 884              	.LVL79:
 885              	.L79:
 402:Drivers/STM32F4xx_HAL_Driver/Src/stm32f4xx_hal_exti.c ****   }
 886              		.loc 1 402 12 view .LVU259
 887 003c 0120     		movs	r0, #1
ARM GAS  C:\Temp\ccCuLR5h.s 			page 25


 888 003e F7E7     		b	.L78
 889              	.L82:
 890              		.align	2
 891              	.L81:
 892 0040 00000000 		.word	.LC0
 893              		.cfi_endproc
 894              	.LFE138:
 896              		.section	.text.HAL_EXTI_IRQHandler,"ax",%progbits
 897              		.align	1
 898              		.global	HAL_EXTI_IRQHandler
 899              		.syntax unified
 900              		.thumb
 901              		.thumb_func
 903              	HAL_EXTI_IRQHandler:
 904              	.LVL80:
 905              	.LFB139:
 412:Drivers/STM32F4xx_HAL_Driver/Src/stm32f4xx_hal_exti.c **** 
 413:Drivers/STM32F4xx_HAL_Driver/Src/stm32f4xx_hal_exti.c **** /**
 414:Drivers/STM32F4xx_HAL_Driver/Src/stm32f4xx_hal_exti.c ****   * @}
 415:Drivers/STM32F4xx_HAL_Driver/Src/stm32f4xx_hal_exti.c ****   */
 416:Drivers/STM32F4xx_HAL_Driver/Src/stm32f4xx_hal_exti.c **** 
 417:Drivers/STM32F4xx_HAL_Driver/Src/stm32f4xx_hal_exti.c **** /** @addtogroup EXTI_Exported_Functions_Group2
 418:Drivers/STM32F4xx_HAL_Driver/Src/stm32f4xx_hal_exti.c ****   *  @brief EXTI IO functions.
 419:Drivers/STM32F4xx_HAL_Driver/Src/stm32f4xx_hal_exti.c ****   *
 420:Drivers/STM32F4xx_HAL_Driver/Src/stm32f4xx_hal_exti.c **** @verbatim
 421:Drivers/STM32F4xx_HAL_Driver/Src/stm32f4xx_hal_exti.c ****  ===============================================================================
 422:Drivers/STM32F4xx_HAL_Driver/Src/stm32f4xx_hal_exti.c ****                        ##### IO operation functions #####
 423:Drivers/STM32F4xx_HAL_Driver/Src/stm32f4xx_hal_exti.c ****  ===============================================================================
 424:Drivers/STM32F4xx_HAL_Driver/Src/stm32f4xx_hal_exti.c **** 
 425:Drivers/STM32F4xx_HAL_Driver/Src/stm32f4xx_hal_exti.c **** @endverbatim
 426:Drivers/STM32F4xx_HAL_Driver/Src/stm32f4xx_hal_exti.c ****   * @{
 427:Drivers/STM32F4xx_HAL_Driver/Src/stm32f4xx_hal_exti.c ****   */
 428:Drivers/STM32F4xx_HAL_Driver/Src/stm32f4xx_hal_exti.c **** 
 429:Drivers/STM32F4xx_HAL_Driver/Src/stm32f4xx_hal_exti.c **** /**
 430:Drivers/STM32F4xx_HAL_Driver/Src/stm32f4xx_hal_exti.c ****   * @brief  Handle EXTI interrupt request.
 431:Drivers/STM32F4xx_HAL_Driver/Src/stm32f4xx_hal_exti.c ****   * @param  hexti Exti handle.
 432:Drivers/STM32F4xx_HAL_Driver/Src/stm32f4xx_hal_exti.c ****   * @retval none.
 433:Drivers/STM32F4xx_HAL_Driver/Src/stm32f4xx_hal_exti.c ****   */
 434:Drivers/STM32F4xx_HAL_Driver/Src/stm32f4xx_hal_exti.c **** void HAL_EXTI_IRQHandler(EXTI_HandleTypeDef *hexti)
 435:Drivers/STM32F4xx_HAL_Driver/Src/stm32f4xx_hal_exti.c **** {
 906              		.loc 1 435 1 is_stmt 1 view -0
 907              		.cfi_startproc
 908              		@ args = 0, pretend = 0, frame = 0
 909              		@ frame_needed = 0, uses_anonymous_args = 0
 910              		.loc 1 435 1 is_stmt 0 view .LVU261
 911 0000 08B5     		push	{r3, lr}
 912              		.cfi_def_cfa_offset 8
 913              		.cfi_offset 3, -8
 914              		.cfi_offset 14, -4
 436:Drivers/STM32F4xx_HAL_Driver/Src/stm32f4xx_hal_exti.c ****   uint32_t regval;
 915              		.loc 1 436 3 is_stmt 1 view .LVU262
 437:Drivers/STM32F4xx_HAL_Driver/Src/stm32f4xx_hal_exti.c ****   uint32_t maskline;
 916              		.loc 1 437 3 view .LVU263
 438:Drivers/STM32F4xx_HAL_Driver/Src/stm32f4xx_hal_exti.c **** 
 439:Drivers/STM32F4xx_HAL_Driver/Src/stm32f4xx_hal_exti.c ****   /* Compute line mask */
 440:Drivers/STM32F4xx_HAL_Driver/Src/stm32f4xx_hal_exti.c ****   maskline = (1uL << (hexti->Line & EXTI_PIN_MASK));
 917              		.loc 1 440 3 view .LVU264
ARM GAS  C:\Temp\ccCuLR5h.s 			page 26


 918              		.loc 1 440 28 is_stmt 0 view .LVU265
 919 0002 0368     		ldr	r3, [r0]
 920              		.loc 1 440 35 view .LVU266
 921 0004 03F01F02 		and	r2, r3, #31
 922              		.loc 1 440 12 view .LVU267
 923 0008 0123     		movs	r3, #1
 924 000a 9340     		lsls	r3, r3, r2
 925              	.LVL81:
 441:Drivers/STM32F4xx_HAL_Driver/Src/stm32f4xx_hal_exti.c **** 
 442:Drivers/STM32F4xx_HAL_Driver/Src/stm32f4xx_hal_exti.c ****   /* Get pending bit  */
 443:Drivers/STM32F4xx_HAL_Driver/Src/stm32f4xx_hal_exti.c ****   regval = (EXTI->PR & maskline);
 926              		.loc 1 443 3 is_stmt 1 view .LVU268
 927              		.loc 1 443 17 is_stmt 0 view .LVU269
 928 000c 044A     		ldr	r2, .L86
 929 000e 5269     		ldr	r2, [r2, #20]
 930              	.LVL82:
 444:Drivers/STM32F4xx_HAL_Driver/Src/stm32f4xx_hal_exti.c ****   if (regval != 0x00u)
 931              		.loc 1 444 3 is_stmt 1 view .LVU270
 932              		.loc 1 444 6 is_stmt 0 view .LVU271
 933 0010 1A42     		tst	r2, r3
 934 0012 04D0     		beq	.L83
 445:Drivers/STM32F4xx_HAL_Driver/Src/stm32f4xx_hal_exti.c ****   {
 446:Drivers/STM32F4xx_HAL_Driver/Src/stm32f4xx_hal_exti.c ****     /* Clear pending bit */
 447:Drivers/STM32F4xx_HAL_Driver/Src/stm32f4xx_hal_exti.c ****     EXTI->PR = maskline;
 935              		.loc 1 447 5 is_stmt 1 view .LVU272
 936              		.loc 1 447 14 is_stmt 0 view .LVU273
 937 0014 024A     		ldr	r2, .L86
 938              	.LVL83:
 939              		.loc 1 447 14 view .LVU274
 940 0016 5361     		str	r3, [r2, #20]
 448:Drivers/STM32F4xx_HAL_Driver/Src/stm32f4xx_hal_exti.c **** 
 449:Drivers/STM32F4xx_HAL_Driver/Src/stm32f4xx_hal_exti.c ****     /* Call callback */
 450:Drivers/STM32F4xx_HAL_Driver/Src/stm32f4xx_hal_exti.c ****     if (hexti->PendingCallback != NULL)
 941              		.loc 1 450 5 is_stmt 1 view .LVU275
 942              		.loc 1 450 14 is_stmt 0 view .LVU276
 943 0018 4368     		ldr	r3, [r0, #4]
 944              	.LVL84:
 945              		.loc 1 450 8 view .LVU277
 946 001a 03B1     		cbz	r3, .L83
 451:Drivers/STM32F4xx_HAL_Driver/Src/stm32f4xx_hal_exti.c ****     {
 452:Drivers/STM32F4xx_HAL_Driver/Src/stm32f4xx_hal_exti.c ****       hexti->PendingCallback();
 947              		.loc 1 452 7 is_stmt 1 view .LVU278
 948 001c 9847     		blx	r3
 949              	.LVL85:
 950              	.L83:
 453:Drivers/STM32F4xx_HAL_Driver/Src/stm32f4xx_hal_exti.c ****     }
 454:Drivers/STM32F4xx_HAL_Driver/Src/stm32f4xx_hal_exti.c ****   }
 455:Drivers/STM32F4xx_HAL_Driver/Src/stm32f4xx_hal_exti.c **** }
 951              		.loc 1 455 1 is_stmt 0 view .LVU279
 952 001e 08BD     		pop	{r3, pc}
 953              	.L87:
 954              		.align	2
 955              	.L86:
 956 0020 003C0140 		.word	1073822720
 957              		.cfi_endproc
 958              	.LFE139:
 960              		.section	.text.HAL_EXTI_GetPending,"ax",%progbits
ARM GAS  C:\Temp\ccCuLR5h.s 			page 27


 961              		.align	1
 962              		.global	HAL_EXTI_GetPending
 963              		.syntax unified
 964              		.thumb
 965              		.thumb_func
 967              	HAL_EXTI_GetPending:
 968              	.LVL86:
 969              	.LFB140:
 456:Drivers/STM32F4xx_HAL_Driver/Src/stm32f4xx_hal_exti.c **** 
 457:Drivers/STM32F4xx_HAL_Driver/Src/stm32f4xx_hal_exti.c **** /**
 458:Drivers/STM32F4xx_HAL_Driver/Src/stm32f4xx_hal_exti.c ****   * @brief  Get interrupt pending bit of a dedicated line.
 459:Drivers/STM32F4xx_HAL_Driver/Src/stm32f4xx_hal_exti.c ****   * @param  hexti Exti handle.
 460:Drivers/STM32F4xx_HAL_Driver/Src/stm32f4xx_hal_exti.c ****   * @param  Edge Specify which pending edge as to be checked.
 461:Drivers/STM32F4xx_HAL_Driver/Src/stm32f4xx_hal_exti.c ****   *         This parameter can be one of the following values:
 462:Drivers/STM32F4xx_HAL_Driver/Src/stm32f4xx_hal_exti.c ****   *           @arg @ref EXTI_TRIGGER_RISING_FALLING
 463:Drivers/STM32F4xx_HAL_Driver/Src/stm32f4xx_hal_exti.c ****   *         This parameter is kept for compatibility with other series.
 464:Drivers/STM32F4xx_HAL_Driver/Src/stm32f4xx_hal_exti.c ****   * @retval 1 if interrupt is pending else 0.
 465:Drivers/STM32F4xx_HAL_Driver/Src/stm32f4xx_hal_exti.c ****   */
 466:Drivers/STM32F4xx_HAL_Driver/Src/stm32f4xx_hal_exti.c **** uint32_t HAL_EXTI_GetPending(EXTI_HandleTypeDef *hexti, uint32_t Edge)
 467:Drivers/STM32F4xx_HAL_Driver/Src/stm32f4xx_hal_exti.c **** {
 970              		.loc 1 467 1 is_stmt 1 view -0
 971              		.cfi_startproc
 972              		@ args = 0, pretend = 0, frame = 0
 973              		@ frame_needed = 0, uses_anonymous_args = 0
 974              		.loc 1 467 1 is_stmt 0 view .LVU281
 975 0000 38B5     		push	{r3, r4, r5, lr}
 976              		.cfi_def_cfa_offset 16
 977              		.cfi_offset 3, -16
 978              		.cfi_offset 4, -12
 979              		.cfi_offset 5, -8
 980              		.cfi_offset 14, -4
 981 0002 0446     		mov	r4, r0
 982 0004 0D46     		mov	r5, r1
 468:Drivers/STM32F4xx_HAL_Driver/Src/stm32f4xx_hal_exti.c ****   uint32_t regval;
 983              		.loc 1 468 3 is_stmt 1 view .LVU282
 469:Drivers/STM32F4xx_HAL_Driver/Src/stm32f4xx_hal_exti.c ****   uint32_t linepos;
 984              		.loc 1 469 3 view .LVU283
 470:Drivers/STM32F4xx_HAL_Driver/Src/stm32f4xx_hal_exti.c ****   uint32_t maskline;
 985              		.loc 1 470 3 view .LVU284
 471:Drivers/STM32F4xx_HAL_Driver/Src/stm32f4xx_hal_exti.c **** 
 472:Drivers/STM32F4xx_HAL_Driver/Src/stm32f4xx_hal_exti.c ****   /* Prevent unused argument(s) compilation warning */
 473:Drivers/STM32F4xx_HAL_Driver/Src/stm32f4xx_hal_exti.c ****   UNUSED(Edge);
 986              		.loc 1 473 3 view .LVU285
 474:Drivers/STM32F4xx_HAL_Driver/Src/stm32f4xx_hal_exti.c **** 
 475:Drivers/STM32F4xx_HAL_Driver/Src/stm32f4xx_hal_exti.c ****   /* Check parameters */
 476:Drivers/STM32F4xx_HAL_Driver/Src/stm32f4xx_hal_exti.c ****   assert_param(IS_EXTI_LINE(hexti->Line));
 987              		.loc 1 476 3 view .LVU286
 988 0006 0268     		ldr	r2, [r0]
 989 0008 22F0C063 		bic	r3, r2, #100663296
 990 000c 23F01F03 		bic	r3, r3, #31
 991 0010 3BB9     		cbnz	r3, .L89
 992              		.loc 1 476 3 is_stmt 0 discriminator 2 view .LVU287
 993 0012 02F0C063 		and	r3, r2, #100663296
 994 0016 B3F1007F 		cmp	r3, #33554432
 995 001a 17D0     		beq	.L90
 996              		.loc 1 476 3 discriminator 3 view .LVU288
 997 001c B3F1C06F 		cmp	r3, #100663296
ARM GAS  C:\Temp\ccCuLR5h.s 			page 28


 998 0020 14D0     		beq	.L90
 999              	.L89:
 1000              		.loc 1 476 3 discriminator 7 view .LVU289
 1001 0022 4FF4EE71 		mov	r1, #476
 1002              	.LVL87:
 1003              		.loc 1 476 3 discriminator 7 view .LVU290
 1004 0026 1248     		ldr	r0, .L97
 1005              	.LVL88:
 1006              		.loc 1 476 3 discriminator 7 view .LVU291
 1007 0028 FFF7FEFF 		bl	assert_failed
 1008              	.LVL89:
 1009              	.L91:
 477:Drivers/STM32F4xx_HAL_Driver/Src/stm32f4xx_hal_exti.c ****   assert_param(IS_EXTI_CONFIG_LINE(hexti->Line));
 1010              		.loc 1 477 3 is_stmt 1 view .LVU292
 1011 002c 2368     		ldr	r3, [r4]
 1012 002e 13F0007F 		tst	r3, #33554432
 1013 0032 10D0     		beq	.L95
 1014              	.L92:
 478:Drivers/STM32F4xx_HAL_Driver/Src/stm32f4xx_hal_exti.c ****   assert_param(IS_EXTI_PENDING_EDGE(Edge));
 1015              		.loc 1 478 3 view .LVU293
 1016 0034 032D     		cmp	r5, #3
 1017 0036 14D1     		bne	.L96
 1018              	.L93:
 479:Drivers/STM32F4xx_HAL_Driver/Src/stm32f4xx_hal_exti.c **** 
 480:Drivers/STM32F4xx_HAL_Driver/Src/stm32f4xx_hal_exti.c ****   /* Compute line mask */
 481:Drivers/STM32F4xx_HAL_Driver/Src/stm32f4xx_hal_exti.c ****   linepos = (hexti->Line & EXTI_PIN_MASK);
 1019              		.loc 1 481 3 view .LVU294
 1020              		.loc 1 481 19 is_stmt 0 view .LVU295
 1021 0038 2368     		ldr	r3, [r4]
 1022              		.loc 1 481 11 view .LVU296
 1023 003a 03F01F03 		and	r3, r3, #31
 1024              	.LVL90:
 482:Drivers/STM32F4xx_HAL_Driver/Src/stm32f4xx_hal_exti.c ****   maskline = (1uL << linepos);
 1025              		.loc 1 482 3 is_stmt 1 view .LVU297
 1026              		.loc 1 482 12 is_stmt 0 view .LVU298
 1027 003e 0122     		movs	r2, #1
 1028 0040 9A40     		lsls	r2, r2, r3
 1029              	.LVL91:
 483:Drivers/STM32F4xx_HAL_Driver/Src/stm32f4xx_hal_exti.c **** 
 484:Drivers/STM32F4xx_HAL_Driver/Src/stm32f4xx_hal_exti.c ****   /* return 1 if bit is set else 0 */
 485:Drivers/STM32F4xx_HAL_Driver/Src/stm32f4xx_hal_exti.c ****   regval = ((EXTI->PR & maskline) >> linepos);
 1030              		.loc 1 485 3 is_stmt 1 view .LVU299
 1031              		.loc 1 485 18 is_stmt 0 view .LVU300
 1032 0042 0C49     		ldr	r1, .L97+4
 1033 0044 4869     		ldr	r0, [r1, #20]
 1034              		.loc 1 485 23 view .LVU301
 1035 0046 1040     		ands	r0, r0, r2
 1036              	.LVL92:
 486:Drivers/STM32F4xx_HAL_Driver/Src/stm32f4xx_hal_exti.c ****   return regval;
 1037              		.loc 1 486 3 is_stmt 1 view .LVU302
 487:Drivers/STM32F4xx_HAL_Driver/Src/stm32f4xx_hal_exti.c **** }
 1038              		.loc 1 487 1 is_stmt 0 view .LVU303
 1039 0048 D840     		lsrs	r0, r0, r3
 1040              	.LVL93:
 1041              		.loc 1 487 1 view .LVU304
 1042 004a 38BD     		pop	{r3, r4, r5, pc}
 1043              	.LVL94:
ARM GAS  C:\Temp\ccCuLR5h.s 			page 29


 1044              	.L90:
 476:Drivers/STM32F4xx_HAL_Driver/Src/stm32f4xx_hal_exti.c ****   assert_param(IS_EXTI_CONFIG_LINE(hexti->Line));
 1045              		.loc 1 476 3 discriminator 6 view .LVU305
 1046 004c 02F01F02 		and	r2, r2, #31
 1047 0050 162A     		cmp	r2, #22
 1048 0052 EBD9     		bls	.L91
 1049 0054 E5E7     		b	.L89
 1050              	.LVL95:
 1051              	.L95:
 477:Drivers/STM32F4xx_HAL_Driver/Src/stm32f4xx_hal_exti.c ****   assert_param(IS_EXTI_PENDING_EDGE(Edge));
 1052              		.loc 1 477 3 discriminator 1 view .LVU306
 1053 0056 40F2DD11 		movw	r1, #477
 1054 005a 0548     		ldr	r0, .L97
 1055 005c FFF7FEFF 		bl	assert_failed
 1056              	.LVL96:
 1057 0060 E8E7     		b	.L92
 1058              	.L96:
 478:Drivers/STM32F4xx_HAL_Driver/Src/stm32f4xx_hal_exti.c **** 
 1059              		.loc 1 478 3 discriminator 1 view .LVU307
 1060 0062 4FF4EF71 		mov	r1, #478
 1061 0066 0248     		ldr	r0, .L97
 1062 0068 FFF7FEFF 		bl	assert_failed
 1063              	.LVL97:
 1064 006c E4E7     		b	.L93
 1065              	.L98:
 1066 006e 00BF     		.align	2
 1067              	.L97:
 1068 0070 00000000 		.word	.LC0
 1069 0074 003C0140 		.word	1073822720
 1070              		.cfi_endproc
 1071              	.LFE140:
 1073              		.section	.text.HAL_EXTI_ClearPending,"ax",%progbits
 1074              		.align	1
 1075              		.global	HAL_EXTI_ClearPending
 1076              		.syntax unified
 1077              		.thumb
 1078              		.thumb_func
 1080              	HAL_EXTI_ClearPending:
 1081              	.LVL98:
 1082              	.LFB141:
 488:Drivers/STM32F4xx_HAL_Driver/Src/stm32f4xx_hal_exti.c **** 
 489:Drivers/STM32F4xx_HAL_Driver/Src/stm32f4xx_hal_exti.c **** /**
 490:Drivers/STM32F4xx_HAL_Driver/Src/stm32f4xx_hal_exti.c ****   * @brief  Clear interrupt pending bit of a dedicated line.
 491:Drivers/STM32F4xx_HAL_Driver/Src/stm32f4xx_hal_exti.c ****   * @param  hexti Exti handle.
 492:Drivers/STM32F4xx_HAL_Driver/Src/stm32f4xx_hal_exti.c ****   * @param  Edge Specify which pending edge as to be clear.
 493:Drivers/STM32F4xx_HAL_Driver/Src/stm32f4xx_hal_exti.c ****   *         This parameter can be one of the following values:
 494:Drivers/STM32F4xx_HAL_Driver/Src/stm32f4xx_hal_exti.c ****   *           @arg @ref EXTI_TRIGGER_RISING_FALLING
 495:Drivers/STM32F4xx_HAL_Driver/Src/stm32f4xx_hal_exti.c ****   *         This parameter is kept for compatibility with other series.
 496:Drivers/STM32F4xx_HAL_Driver/Src/stm32f4xx_hal_exti.c ****   * @retval None.
 497:Drivers/STM32F4xx_HAL_Driver/Src/stm32f4xx_hal_exti.c ****   */
 498:Drivers/STM32F4xx_HAL_Driver/Src/stm32f4xx_hal_exti.c **** void HAL_EXTI_ClearPending(EXTI_HandleTypeDef *hexti, uint32_t Edge)
 499:Drivers/STM32F4xx_HAL_Driver/Src/stm32f4xx_hal_exti.c **** {
 1083              		.loc 1 499 1 is_stmt 1 view -0
 1084              		.cfi_startproc
 1085              		@ args = 0, pretend = 0, frame = 0
 1086              		@ frame_needed = 0, uses_anonymous_args = 0
 1087              		.loc 1 499 1 is_stmt 0 view .LVU309
ARM GAS  C:\Temp\ccCuLR5h.s 			page 30


 1088 0000 38B5     		push	{r3, r4, r5, lr}
 1089              		.cfi_def_cfa_offset 16
 1090              		.cfi_offset 3, -16
 1091              		.cfi_offset 4, -12
 1092              		.cfi_offset 5, -8
 1093              		.cfi_offset 14, -4
 1094 0002 0446     		mov	r4, r0
 1095 0004 0D46     		mov	r5, r1
 500:Drivers/STM32F4xx_HAL_Driver/Src/stm32f4xx_hal_exti.c ****   uint32_t maskline;
 1096              		.loc 1 500 3 is_stmt 1 view .LVU310
 501:Drivers/STM32F4xx_HAL_Driver/Src/stm32f4xx_hal_exti.c **** 
 502:Drivers/STM32F4xx_HAL_Driver/Src/stm32f4xx_hal_exti.c ****   /* Prevent unused argument(s) compilation warning */
 503:Drivers/STM32F4xx_HAL_Driver/Src/stm32f4xx_hal_exti.c ****   UNUSED(Edge);
 1097              		.loc 1 503 3 view .LVU311
 504:Drivers/STM32F4xx_HAL_Driver/Src/stm32f4xx_hal_exti.c **** 
 505:Drivers/STM32F4xx_HAL_Driver/Src/stm32f4xx_hal_exti.c ****   /* Check parameters */
 506:Drivers/STM32F4xx_HAL_Driver/Src/stm32f4xx_hal_exti.c ****   assert_param(IS_EXTI_LINE(hexti->Line));
 1098              		.loc 1 506 3 view .LVU312
 1099 0006 0268     		ldr	r2, [r0]
 1100 0008 22F0C063 		bic	r3, r2, #100663296
 1101 000c 23F01F03 		bic	r3, r3, #31
 1102 0010 3BB9     		cbnz	r3, .L100
 1103              		.loc 1 506 3 is_stmt 0 discriminator 2 view .LVU313
 1104 0012 02F0C063 		and	r3, r2, #100663296
 1105 0016 B3F1007F 		cmp	r3, #33554432
 1106 001a 15D0     		beq	.L101
 1107              		.loc 1 506 3 discriminator 3 view .LVU314
 1108 001c B3F1C06F 		cmp	r3, #100663296
 1109 0020 12D0     		beq	.L101
 1110              	.L100:
 1111              		.loc 1 506 3 discriminator 7 view .LVU315
 1112 0022 4FF4FD71 		mov	r1, #506
 1113              	.LVL99:
 1114              		.loc 1 506 3 discriminator 7 view .LVU316
 1115 0026 1148     		ldr	r0, .L108
 1116              	.LVL100:
 1117              		.loc 1 506 3 discriminator 7 view .LVU317
 1118 0028 FFF7FEFF 		bl	assert_failed
 1119              	.LVL101:
 1120              	.L102:
 507:Drivers/STM32F4xx_HAL_Driver/Src/stm32f4xx_hal_exti.c ****   assert_param(IS_EXTI_CONFIG_LINE(hexti->Line));
 1121              		.loc 1 507 3 is_stmt 1 view .LVU318
 1122 002c 2368     		ldr	r3, [r4]
 1123 002e 13F0007F 		tst	r3, #33554432
 1124 0032 0ED0     		beq	.L106
 1125              	.L103:
 508:Drivers/STM32F4xx_HAL_Driver/Src/stm32f4xx_hal_exti.c ****   assert_param(IS_EXTI_PENDING_EDGE(Edge));
 1126              		.loc 1 508 3 view .LVU319
 1127 0034 032D     		cmp	r5, #3
 1128 0036 12D1     		bne	.L107
 1129              	.L104:
 509:Drivers/STM32F4xx_HAL_Driver/Src/stm32f4xx_hal_exti.c **** 
 510:Drivers/STM32F4xx_HAL_Driver/Src/stm32f4xx_hal_exti.c ****   /* Compute line mask */
 511:Drivers/STM32F4xx_HAL_Driver/Src/stm32f4xx_hal_exti.c ****   maskline = (1uL << (hexti->Line & EXTI_PIN_MASK));
 1130              		.loc 1 511 3 view .LVU320
 1131              		.loc 1 511 28 is_stmt 0 view .LVU321
 1132 0038 2268     		ldr	r2, [r4]
ARM GAS  C:\Temp\ccCuLR5h.s 			page 31


 1133              		.loc 1 511 35 view .LVU322
 1134 003a 02F01F02 		and	r2, r2, #31
 1135              		.loc 1 511 12 view .LVU323
 1136 003e 0123     		movs	r3, #1
 1137 0040 9340     		lsls	r3, r3, r2
 1138              	.LVL102:
 512:Drivers/STM32F4xx_HAL_Driver/Src/stm32f4xx_hal_exti.c **** 
 513:Drivers/STM32F4xx_HAL_Driver/Src/stm32f4xx_hal_exti.c ****   /* Clear Pending bit */
 514:Drivers/STM32F4xx_HAL_Driver/Src/stm32f4xx_hal_exti.c ****   EXTI->PR =  maskline;
 1139              		.loc 1 514 3 is_stmt 1 view .LVU324
 1140              		.loc 1 514 12 is_stmt 0 view .LVU325
 1141 0042 0B4A     		ldr	r2, .L108+4
 1142 0044 5361     		str	r3, [r2, #20]
 515:Drivers/STM32F4xx_HAL_Driver/Src/stm32f4xx_hal_exti.c **** }
 1143              		.loc 1 515 1 view .LVU326
 1144 0046 38BD     		pop	{r3, r4, r5, pc}
 1145              	.LVL103:
 1146              	.L101:
 506:Drivers/STM32F4xx_HAL_Driver/Src/stm32f4xx_hal_exti.c ****   assert_param(IS_EXTI_CONFIG_LINE(hexti->Line));
 1147              		.loc 1 506 3 discriminator 6 view .LVU327
 1148 0048 02F01F02 		and	r2, r2, #31
 1149 004c 162A     		cmp	r2, #22
 1150 004e EDD9     		bls	.L102
 1151 0050 E7E7     		b	.L100
 1152              	.LVL104:
 1153              	.L106:
 507:Drivers/STM32F4xx_HAL_Driver/Src/stm32f4xx_hal_exti.c ****   assert_param(IS_EXTI_PENDING_EDGE(Edge));
 1154              		.loc 1 507 3 discriminator 1 view .LVU328
 1155 0052 40F2FB11 		movw	r1, #507
 1156 0056 0548     		ldr	r0, .L108
 1157 0058 FFF7FEFF 		bl	assert_failed
 1158              	.LVL105:
 1159 005c EAE7     		b	.L103
 1160              	.L107:
 508:Drivers/STM32F4xx_HAL_Driver/Src/stm32f4xx_hal_exti.c **** 
 1161              		.loc 1 508 3 discriminator 1 view .LVU329
 1162 005e 4FF4FE71 		mov	r1, #508
 1163 0062 0248     		ldr	r0, .L108
 1164 0064 FFF7FEFF 		bl	assert_failed
 1165              	.LVL106:
 1166 0068 E6E7     		b	.L104
 1167              	.L109:
 1168 006a 00BF     		.align	2
 1169              	.L108:
 1170 006c 00000000 		.word	.LC0
 1171 0070 003C0140 		.word	1073822720
 1172              		.cfi_endproc
 1173              	.LFE141:
 1175              		.section	.text.HAL_EXTI_GenerateSWI,"ax",%progbits
 1176              		.align	1
 1177              		.global	HAL_EXTI_GenerateSWI
 1178              		.syntax unified
 1179              		.thumb
 1180              		.thumb_func
 1182              	HAL_EXTI_GenerateSWI:
 1183              	.LVL107:
 1184              	.LFB142:
ARM GAS  C:\Temp\ccCuLR5h.s 			page 32


 516:Drivers/STM32F4xx_HAL_Driver/Src/stm32f4xx_hal_exti.c **** 
 517:Drivers/STM32F4xx_HAL_Driver/Src/stm32f4xx_hal_exti.c **** /**
 518:Drivers/STM32F4xx_HAL_Driver/Src/stm32f4xx_hal_exti.c ****   * @brief  Generate a software interrupt for a dedicated line.
 519:Drivers/STM32F4xx_HAL_Driver/Src/stm32f4xx_hal_exti.c ****   * @param  hexti Exti handle.
 520:Drivers/STM32F4xx_HAL_Driver/Src/stm32f4xx_hal_exti.c ****   * @retval None.
 521:Drivers/STM32F4xx_HAL_Driver/Src/stm32f4xx_hal_exti.c ****   */
 522:Drivers/STM32F4xx_HAL_Driver/Src/stm32f4xx_hal_exti.c **** void HAL_EXTI_GenerateSWI(EXTI_HandleTypeDef *hexti)
 523:Drivers/STM32F4xx_HAL_Driver/Src/stm32f4xx_hal_exti.c **** {
 1185              		.loc 1 523 1 is_stmt 1 view -0
 1186              		.cfi_startproc
 1187              		@ args = 0, pretend = 0, frame = 0
 1188              		@ frame_needed = 0, uses_anonymous_args = 0
 1189              		.loc 1 523 1 is_stmt 0 view .LVU331
 1190 0000 10B5     		push	{r4, lr}
 1191              		.cfi_def_cfa_offset 8
 1192              		.cfi_offset 4, -8
 1193              		.cfi_offset 14, -4
 1194 0002 0446     		mov	r4, r0
 524:Drivers/STM32F4xx_HAL_Driver/Src/stm32f4xx_hal_exti.c ****   uint32_t maskline;
 1195              		.loc 1 524 3 is_stmt 1 view .LVU332
 525:Drivers/STM32F4xx_HAL_Driver/Src/stm32f4xx_hal_exti.c **** 
 526:Drivers/STM32F4xx_HAL_Driver/Src/stm32f4xx_hal_exti.c ****   /* Check parameters */
 527:Drivers/STM32F4xx_HAL_Driver/Src/stm32f4xx_hal_exti.c ****   assert_param(IS_EXTI_LINE(hexti->Line));
 1196              		.loc 1 527 3 view .LVU333
 1197 0004 0268     		ldr	r2, [r0]
 1198 0006 22F0C063 		bic	r3, r2, #100663296
 1199 000a 23F01F03 		bic	r3, r3, #31
 1200 000e 3BB9     		cbnz	r3, .L111
 1201              		.loc 1 527 3 is_stmt 0 discriminator 2 view .LVU334
 1202 0010 02F0C063 		and	r3, r2, #100663296
 1203 0014 B3F1007F 		cmp	r3, #33554432
 1204 0018 13D0     		beq	.L112
 1205              		.loc 1 527 3 discriminator 3 view .LVU335
 1206 001a B3F1C06F 		cmp	r3, #100663296
 1207 001e 10D0     		beq	.L112
 1208              	.L111:
 1209              		.loc 1 527 3 discriminator 7 view .LVU336
 1210 0020 40F20F21 		movw	r1, #527
 1211 0024 0C48     		ldr	r0, .L117
 1212              	.LVL108:
 1213              		.loc 1 527 3 discriminator 7 view .LVU337
 1214 0026 FFF7FEFF 		bl	assert_failed
 1215              	.LVL109:
 1216              	.L113:
 528:Drivers/STM32F4xx_HAL_Driver/Src/stm32f4xx_hal_exti.c ****   assert_param(IS_EXTI_CONFIG_LINE(hexti->Line));
 1217              		.loc 1 528 3 is_stmt 1 view .LVU338
 1218 002a 2368     		ldr	r3, [r4]
 1219 002c 13F0007F 		tst	r3, #33554432
 1220 0030 0CD0     		beq	.L116
 1221              	.L114:
 529:Drivers/STM32F4xx_HAL_Driver/Src/stm32f4xx_hal_exti.c **** 
 530:Drivers/STM32F4xx_HAL_Driver/Src/stm32f4xx_hal_exti.c ****   /* Compute line mask */
 531:Drivers/STM32F4xx_HAL_Driver/Src/stm32f4xx_hal_exti.c ****   maskline = (1uL << (hexti->Line & EXTI_PIN_MASK));
 1222              		.loc 1 531 3 view .LVU339
 1223              		.loc 1 531 28 is_stmt 0 view .LVU340
 1224 0032 2268     		ldr	r2, [r4]
 1225              		.loc 1 531 35 view .LVU341
ARM GAS  C:\Temp\ccCuLR5h.s 			page 33


 1226 0034 02F01F02 		and	r2, r2, #31
 1227              		.loc 1 531 12 view .LVU342
 1228 0038 0123     		movs	r3, #1
 1229 003a 9340     		lsls	r3, r3, r2
 1230              	.LVL110:
 532:Drivers/STM32F4xx_HAL_Driver/Src/stm32f4xx_hal_exti.c **** 
 533:Drivers/STM32F4xx_HAL_Driver/Src/stm32f4xx_hal_exti.c ****   /* Generate Software interrupt */
 534:Drivers/STM32F4xx_HAL_Driver/Src/stm32f4xx_hal_exti.c ****   EXTI->SWIER = maskline;
 1231              		.loc 1 534 3 is_stmt 1 view .LVU343
 1232              		.loc 1 534 15 is_stmt 0 view .LVU344
 1233 003c 074A     		ldr	r2, .L117+4
 1234 003e 1361     		str	r3, [r2, #16]
 535:Drivers/STM32F4xx_HAL_Driver/Src/stm32f4xx_hal_exti.c **** }
 1235              		.loc 1 535 1 view .LVU345
 1236 0040 10BD     		pop	{r4, pc}
 1237              	.LVL111:
 1238              	.L112:
 527:Drivers/STM32F4xx_HAL_Driver/Src/stm32f4xx_hal_exti.c ****   assert_param(IS_EXTI_CONFIG_LINE(hexti->Line));
 1239              		.loc 1 527 3 discriminator 6 view .LVU346
 1240 0042 02F01F02 		and	r2, r2, #31
 1241 0046 162A     		cmp	r2, #22
 1242 0048 EFD9     		bls	.L113
 1243 004a E9E7     		b	.L111
 1244              	.LVL112:
 1245              	.L116:
 528:Drivers/STM32F4xx_HAL_Driver/Src/stm32f4xx_hal_exti.c **** 
 1246              		.loc 1 528 3 discriminator 1 view .LVU347
 1247 004c 4FF40471 		mov	r1, #528
 1248 0050 0148     		ldr	r0, .L117
 1249 0052 FFF7FEFF 		bl	assert_failed
 1250              	.LVL113:
 1251 0056 ECE7     		b	.L114
 1252              	.L118:
 1253              		.align	2
 1254              	.L117:
 1255 0058 00000000 		.word	.LC0
 1256 005c 003C0140 		.word	1073822720
 1257              		.cfi_endproc
 1258              	.LFE142:
 1260              		.text
 1261              	.Letext0:
 1262              		.file 2 "c:\\users\\jessejabezarendse\\appdata\\roaming\\code\\user\\globalstorage\\bmd.stm32-for-
 1263              		.file 3 "c:\\users\\jessejabezarendse\\appdata\\roaming\\code\\user\\globalstorage\\bmd.stm32-for-
 1264              		.file 4 "Drivers/CMSIS/Device/ST/STM32F4xx/Include/stm32f411xe.h"
 1265              		.file 5 "Drivers/STM32F4xx_HAL_Driver/Inc/stm32f4xx_hal_def.h"
 1266              		.file 6 "Drivers/STM32F4xx_HAL_Driver/Inc/stm32f4xx_hal_exti.h"
 1267              		.file 7 "Core/Inc/stm32f4xx_hal_conf.h"
ARM GAS  C:\Temp\ccCuLR5h.s 			page 34

