ARM GAS  C:\Temp\ccCTCA0E.s 			page 1


   1              		.cpu cortex-m4
   2              		.arch armv7e-m
   3              		.fpu fpv4-sp-d16
   4              		.eabi_attribute 27, 1
   5              		.eabi_attribute 28, 1
   6              		.eabi_attribute 20, 1
   7              		.eabi_attribute 21, 1
   8              		.eabi_attribute 23, 3
   9              		.eabi_attribute 24, 1
  10              		.eabi_attribute 25, 1
  11              		.eabi_attribute 26, 1
  12              		.eabi_attribute 30, 1
  13              		.eabi_attribute 34, 1
  14              		.eabi_attribute 18, 4
  15              		.file	"VL53L1A1_Simulink.c"
  16              		.text
  17              	.Ltext0:
  18              		.cfi_sections	.debug_frame
  19              		.file 1 "Core/Src/VL53L1A1_Simulink.c"
  20              		.section	.text.initVL53L1A1,"ax",%progbits
  21              		.align	1
  22              		.global	initVL53L1A1
  23              		.syntax unified
  24              		.thumb
  25              		.thumb_func
  27              	initVL53L1A1:
  28              	.LFB137:
   1:Core/Src/VL53L1A1_Simulink.c **** ///////////////////////////////////////////////////////////
   2:Core/Src/VL53L1A1_Simulink.c **** // Project : STM32 Nucleo + VL53L1A1
   3:Core/Src/VL53L1A1_Simulink.c **** // Abbreviation : AP_01
   4:Core/Src/VL53L1A1_Simulink.c **** // Microcontroller: STM32 Nucleo F411RE
   5:Core/Src/VL53L1A1_Simulink.c **** // Made For : Dr. Amir Patel
   6:Core/Src/VL53L1A1_Simulink.c **** // @author: Jesse Jabez Arendse
   7:Core/Src/VL53L1A1_Simulink.c **** // @modified: 24/08/2024
   8:Core/Src/VL53L1A1_Simulink.c **** ///////////////////////////////////////////////////////////
   9:Core/Src/VL53L1A1_Simulink.c **** 
  10:Core/Src/VL53L1A1_Simulink.c **** 
  11:Core/Src/VL53L1A1_Simulink.c **** // Includes ///////////////////////////////////////////////
  12:Core/Src/VL53L1A1_Simulink.c **** #include "53l1a2_ranging_sensor.h"
  13:Core/Src/VL53L1A1_Simulink.c **** #include "53l1a2_conf.h"
  14:Core/Src/VL53L1A1_Simulink.c **** // #include "stm32f4xx_nucleo.h"
  15:Core/Src/VL53L1A1_Simulink.c **** #include "main.h"
  16:Core/Src/VL53L1A1_Simulink.c **** 
  17:Core/Src/VL53L1A1_Simulink.c **** #include "stdio.h"
  18:Core/Src/VL53L1A1_Simulink.c **** #include <stdint.h>
  19:Core/Src/VL53L1A1_Simulink.c **** #include <string.h>  // For memcpy
  20:Core/Src/VL53L1A1_Simulink.c **** #include <stdio.h>
  21:Core/Src/VL53L1A1_Simulink.c **** 
  22:Core/Src/VL53L1A1_Simulink.c **** 
  23:Core/Src/VL53L1A1_Simulink.c **** // Project Parent Variables ///////////////////////////////
  24:Core/Src/VL53L1A1_Simulink.c **** const uint8_t* header = 'A_J';
  25:Core/Src/VL53L1A1_Simulink.c **** const uint8_t* terminator = 'J_A';
  26:Core/Src/VL53L1A1_Simulink.c **** 
  27:Core/Src/VL53L1A1_Simulink.c **** 
  28:Core/Src/VL53L1A1_Simulink.c **** // Project Specific Variables /////////////////////////////
  29:Core/Src/VL53L1A1_Simulink.c **** #define INSTANCE_TOF_LEFT    0 
  30:Core/Src/VL53L1A1_Simulink.c **** #define INSTANCE_TOF_CENTRE  1 
ARM GAS  C:\Temp\ccCTCA0E.s 			page 2


  31:Core/Src/VL53L1A1_Simulink.c **** #define INSTANCE_TOF_RIGHT   2 
  32:Core/Src/VL53L1A1_Simulink.c **** 
  33:Core/Src/VL53L1A1_Simulink.c **** #define TIMING_BUDGET (30U) /* 16 ms < TimingBudget < 500 ms */
  34:Core/Src/VL53L1A1_Simulink.c **** #define POLLING_PERIOD (250U) /* refresh rate for polling mode (ms, shall be consistent with Timing
  35:Core/Src/VL53L1A1_Simulink.c **** 
  36:Core/Src/VL53L1A1_Simulink.c **** int32_t tof_fsr;
  37:Core/Src/VL53L1A1_Simulink.c **** float tof_odr;
  38:Core/Src/VL53L1A1_Simulink.c **** 
  39:Core/Src/VL53L1A1_Simulink.c **** extern RANGING_SENSOR_Result_t TOF_left;
  40:Core/Src/VL53L1A1_Simulink.c **** extern RANGING_SENSOR_Result_t TOF_centre;
  41:Core/Src/VL53L1A1_Simulink.c **** extern RANGING_SENSOR_Result_t TOF_right;
  42:Core/Src/VL53L1A1_Simulink.c **** extern RANGING_SENSOR_ProfileConfig_t Profile;
  43:Core/Src/VL53L1A1_Simulink.c **** RANGING_SENSOR_ROIConfig_t ROI;
  44:Core/Src/VL53L1A1_Simulink.c **** 
  45:Core/Src/VL53L1A1_Simulink.c **** extern uint32_t counter;
  46:Core/Src/VL53L1A1_Simulink.c **** extern UART_HandleTypeDef huart2;
  47:Core/Src/VL53L1A1_Simulink.c **** 
  48:Core/Src/VL53L1A1_Simulink.c **** static int32_t status = 0;
  49:Core/Src/VL53L1A1_Simulink.c **** static uint8_t ToF_Present[RANGING_SENSOR_INSTANCES_NBR] = {0};
  50:Core/Src/VL53L1A1_Simulink.c **** volatile uint8_t ToF_EventDetected = 0;
  51:Core/Src/VL53L1A1_Simulink.c **** 
  52:Core/Src/VL53L1A1_Simulink.c **** const uint8_t L1_BUFFER_SIZE = 60;
  53:Core/Src/VL53L1A1_Simulink.c **** RANGING_SENSOR_Result_t TOF_left_array[60];
  54:Core/Src/VL53L1A1_Simulink.c **** RANGING_SENSOR_Result_t TOF_centre_array[60];
  55:Core/Src/VL53L1A1_Simulink.c **** RANGING_SENSOR_Result_t TOF_right_array[60];
  56:Core/Src/VL53L1A1_Simulink.c **** // mask options from BSP/Components/<IC_reg.h>
  57:Core/Src/VL53L1A1_Simulink.c **** 
  58:Core/Src/VL53L1A1_Simulink.c **** // Functions /////////////////////////////////////////////
  59:Core/Src/VL53L1A1_Simulink.c **** 
  60:Core/Src/VL53L1A1_Simulink.c **** void initVL53L1A1(){
  29              		.loc 1 60 20 view -0
  30              		.cfi_startproc
  31              		@ args = 0, pretend = 0, frame = 8
  32              		@ frame_needed = 0, uses_anonymous_args = 0
  33 0000 F0B5     		push	{r4, r5, r6, r7, lr}
  34              		.cfi_def_cfa_offset 20
  35              		.cfi_offset 4, -20
  36              		.cfi_offset 5, -16
  37              		.cfi_offset 6, -12
  38              		.cfi_offset 7, -8
  39              		.cfi_offset 14, -4
  40 0002 83B0     		sub	sp, sp, #12
  41              		.cfi_def_cfa_offset 32
  61:Core/Src/VL53L1A1_Simulink.c ****     uint8_t device;
  42              		.loc 1 61 5 view .LVU1
  62:Core/Src/VL53L1A1_Simulink.c ****     uint16_t i2c_addr;
  43              		.loc 1 62 5 view .LVU2
  63:Core/Src/VL53L1A1_Simulink.c ****     uint32_t id;
  44              		.loc 1 63 5 view .LVU3
  64:Core/Src/VL53L1A1_Simulink.c **** 
  65:Core/Src/VL53L1A1_Simulink.c ****     /* put all the devices in shutdown mode */
  66:Core/Src/VL53L1A1_Simulink.c ****     for (device = 0; device < RANGING_SENSOR_INSTANCES_NBR; device++)
  45              		.loc 1 66 5 view .LVU4
  46              	.LVL0:
  47              		.loc 1 66 17 is_stmt 0 view .LVU5
  48 0004 0024     		movs	r4, #0
  49              		.loc 1 66 5 view .LVU6
ARM GAS  C:\Temp\ccCTCA0E.s 			page 3


  50 0006 05E0     		b	.L2
  51              	.LVL1:
  52              	.L3:
  67:Core/Src/VL53L1A1_Simulink.c ****     {
  68:Core/Src/VL53L1A1_Simulink.c ****         VL53L1A2_RANGING_SENSOR_SetPowerMode(device, RANGING_SENSOR_POWERMODE_OFF);
  53              		.loc 1 68 9 is_stmt 1 discriminator 3 view .LVU7
  54 0008 0121     		movs	r1, #1
  55 000a 2046     		mov	r0, r4
  56 000c FFF7FEFF 		bl	VL53L1A2_RANGING_SENSOR_SetPowerMode
  57              	.LVL2:
  66:Core/Src/VL53L1A1_Simulink.c ****     {
  58              		.loc 1 66 67 discriminator 3 view .LVU8
  59 0010 0134     		adds	r4, r4, #1
  60              	.LVL3:
  66:Core/Src/VL53L1A1_Simulink.c ****     {
  61              		.loc 1 66 67 is_stmt 0 discriminator 3 view .LVU9
  62 0012 E4B2     		uxtb	r4, r4
  63              	.LVL4:
  64              	.L2:
  66:Core/Src/VL53L1A1_Simulink.c ****     {
  65              		.loc 1 66 29 is_stmt 1 discriminator 1 view .LVU10
  66 0014 022C     		cmp	r4, #2
  67 0016 F7D9     		bls	.L3
  69:Core/Src/VL53L1A1_Simulink.c ****     }
  70:Core/Src/VL53L1A1_Simulink.c **** 
  71:Core/Src/VL53L1A1_Simulink.c ****     /* power on the devices one at a time, initialize them and change their address.
  72:Core/Src/VL53L1A1_Simulink.c ****    * once the address is updated, the communication with the devices is checked
  73:Core/Src/VL53L1A1_Simulink.c ****    * reading its ID.
  74:Core/Src/VL53L1A1_Simulink.c ****    */
  75:Core/Src/VL53L1A1_Simulink.c ****     for (device = 0; device < RANGING_SENSOR_INSTANCES_NBR; device++)
  68              		.loc 1 75 17 is_stmt 0 view .LVU11
  69 0018 0024     		movs	r4, #0
  70              	.LVL5:
  71              		.loc 1 75 17 view .LVU12
  72 001a 01E0     		b	.L4
  73              	.LVL6:
  74              	.L5:
  75              		.loc 1 75 67 is_stmt 1 discriminator 2 view .LVU13
  76 001c 0134     		adds	r4, r4, #1
  77              	.LVL7:
  78              		.loc 1 75 67 is_stmt 0 discriminator 2 view .LVU14
  79 001e E4B2     		uxtb	r4, r4
  80              	.LVL8:
  81              	.L4:
  82              		.loc 1 75 29 is_stmt 1 discriminator 1 view .LVU15
  83 0020 022C     		cmp	r4, #2
  84 0022 1BD8     		bhi	.L8
  76:Core/Src/VL53L1A1_Simulink.c ****     {
  77:Core/Src/VL53L1A1_Simulink.c ****         VL53L1A2_RANGING_SENSOR_SetPowerMode(device, RANGING_SENSOR_POWERMODE_ON);
  85              		.loc 1 77 9 view .LVU16
  86 0024 0021     		movs	r1, #0
  87 0026 2046     		mov	r0, r4
  88 0028 FFF7FEFF 		bl	VL53L1A2_RANGING_SENSOR_SetPowerMode
  89              	.LVL9:
  78:Core/Src/VL53L1A1_Simulink.c ****         status = VL53L1A2_RANGING_SENSOR_Init(device);
  90              		.loc 1 78 9 view .LVU17
  91              		.loc 1 78 18 is_stmt 0 view .LVU18
ARM GAS  C:\Temp\ccCTCA0E.s 			page 4


  92 002c 2046     		mov	r0, r4
  93 002e FFF7FEFF 		bl	VL53L1A2_RANGING_SENSOR_Init
  94              	.LVL10:
  95              		.loc 1 78 16 view .LVU19
  96 0032 294B     		ldr	r3, .L9
  97 0034 1860     		str	r0, [r3]
  79:Core/Src/VL53L1A1_Simulink.c **** 
  80:Core/Src/VL53L1A1_Simulink.c ****         /* 0: not detected, 1: detected */
  81:Core/Src/VL53L1A1_Simulink.c ****         ToF_Present[device] = (status != BSP_ERROR_NONE) ? 0 : 1;
  98              		.loc 1 81 9 is_stmt 1 view .LVU20
  99              		.loc 1 81 62 is_stmt 0 view .LVU21
 100 0036 B0FA80F0 		clz	r0, r0
 101 003a 4009     		lsrs	r0, r0, #5
 102              		.loc 1 81 29 view .LVU22
 103 003c 274B     		ldr	r3, .L9+4
 104 003e 1855     		strb	r0, [r3, r4]
  82:Core/Src/VL53L1A1_Simulink.c **** 
  83:Core/Src/VL53L1A1_Simulink.c ****         /* skip this device if init not successful */
  84:Core/Src/VL53L1A1_Simulink.c ****         if (ToF_Present[device] == 0) { continue; }
 105              		.loc 1 84 9 is_stmt 1 view .LVU23
 106              		.loc 1 84 12 is_stmt 0 view .LVU24
 107 0040 0028     		cmp	r0, #0
 108 0042 EBD0     		beq	.L5
  85:Core/Src/VL53L1A1_Simulink.c **** 
  86:Core/Src/VL53L1A1_Simulink.c ****         /* left: 0x54, center: 0x56, right: 0x58 */
  87:Core/Src/VL53L1A1_Simulink.c ****         i2c_addr = (RANGING_SENSOR_VL53L1CB_ADDRESS + (device + 1) * 2);
 109              		.loc 1 87 9 is_stmt 1 view .LVU25
 110              		.loc 1 87 53 is_stmt 0 view .LVU26
 111 0044 04F12A01 		add	r1, r4, #42
 112              		.loc 1 87 18 view .LVU27
 113 0048 4900     		lsls	r1, r1, #1
 114 004a 89B2     		uxth	r1, r1
 115              	.LVL11:
  88:Core/Src/VL53L1A1_Simulink.c ****         VL53L1A2_RANGING_SENSOR_SetAddress(device, i2c_addr);
 116              		.loc 1 88 9 is_stmt 1 view .LVU28
 117 004c 2046     		mov	r0, r4
 118 004e FFF7FEFF 		bl	VL53L1A2_RANGING_SENSOR_SetAddress
 119              	.LVL12:
  89:Core/Src/VL53L1A1_Simulink.c **** 
  90:Core/Src/VL53L1A1_Simulink.c ****         /* check the communication with the device reading the ID */
  91:Core/Src/VL53L1A1_Simulink.c ****         VL53L1A2_RANGING_SENSOR_ReadID(device, &id);
 120              		.loc 1 91 9 view .LVU29
 121 0052 01A9     		add	r1, sp, #4
 122 0054 2046     		mov	r0, r4
 123 0056 FFF7FEFF 		bl	VL53L1A2_RANGING_SENSOR_ReadID
 124              	.LVL13:
 125 005a DFE7     		b	.L5
 126              	.LVL14:
 127              	.L8:
  92:Core/Src/VL53L1A1_Simulink.c ****     }
  93:Core/Src/VL53L1A1_Simulink.c **** 
  94:Core/Src/VL53L1A1_Simulink.c ****     
  95:Core/Src/VL53L1A1_Simulink.c ****     Profile.TimingBudget = 1000/tof_odr;
 128              		.loc 1 95 5 view .LVU30
 129              		.loc 1 95 32 is_stmt 0 view .LVU31
 130 005c 204B     		ldr	r3, .L9+8
 131 005e 93ED007A 		vldr.32	s14, [r3]
ARM GAS  C:\Temp\ccCTCA0E.s 			page 5


 132 0062 DFED206A 		vldr.32	s13, .L9+12
 133 0066 C6EE877A 		vdiv.f32	s15, s13, s14
 134              		.loc 1 95 26 view .LVU32
 135 006a 1F4D     		ldr	r5, .L9+16
 136 006c FCEEE77A 		vcvt.u32.f32	s15, s15
 137 0070 C5ED017A 		vstr.32	s15, [r5, #4]	@ int
  96:Core/Src/VL53L1A1_Simulink.c ****     Profile.Frequency = 0;
 138              		.loc 1 96 5 is_stmt 1 view .LVU33
 139              		.loc 1 96 23 is_stmt 0 view .LVU34
 140 0074 0027     		movs	r7, #0
 141 0076 AF60     		str	r7, [r5, #8]
  97:Core/Src/VL53L1A1_Simulink.c ****     Profile.EnableAmbient = 1; /* Enable: 1, Disable: 0 */
 142              		.loc 1 97 5 is_stmt 1 view .LVU35
 143              		.loc 1 97 27 is_stmt 0 view .LVU36
 144 0078 0126     		movs	r6, #1
 145 007a EE60     		str	r6, [r5, #12]
  98:Core/Src/VL53L1A1_Simulink.c ****     Profile.EnableSignal = 1; /* Enable: 1, Disable: 0 */
 146              		.loc 1 98 5 is_stmt 1 view .LVU37
 147              		.loc 1 98 26 is_stmt 0 view .LVU38
 148 007c 2E61     		str	r6, [r5, #16]
  99:Core/Src/VL53L1A1_Simulink.c **** 
 100:Core/Src/VL53L1A1_Simulink.c ****     ROI.TopLeftX  = 8; 
 149              		.loc 1 100 5 is_stmt 1 view .LVU39
 150              		.loc 1 100 19 is_stmt 0 view .LVU40
 151 007e 1B4C     		ldr	r4, .L9+20
 152              	.LVL15:
 153              		.loc 1 100 19 view .LVU41
 154 0080 0823     		movs	r3, #8
 155 0082 2370     		strb	r3, [r4]
 101:Core/Src/VL53L1A1_Simulink.c ****     ROI.TopLeftY  = 12; 
 156              		.loc 1 101 5 is_stmt 1 view .LVU42
 157              		.loc 1 101 19 is_stmt 0 view .LVU43
 158 0084 0C22     		movs	r2, #12
 159 0086 6270     		strb	r2, [r4, #1]
 102:Core/Src/VL53L1A1_Simulink.c ****     ROI.BotRightX = 12;
 160              		.loc 1 102 5 is_stmt 1 view .LVU44
 161              		.loc 1 102 19 is_stmt 0 view .LVU45
 162 0088 A270     		strb	r2, [r4, #2]
 103:Core/Src/VL53L1A1_Simulink.c ****     ROI.BotRightY = 8;
 163              		.loc 1 103 5 is_stmt 1 view .LVU46
 164              		.loc 1 103 19 is_stmt 0 view .LVU47
 165 008a E370     		strb	r3, [r4, #3]
 104:Core/Src/VL53L1A1_Simulink.c **** 
 105:Core/Src/VL53L1A1_Simulink.c ****     VL53L1A2_RANGING_SENSOR_ConfigProfile(INSTANCE_TOF_LEFT   , &Profile);
 166              		.loc 1 105 5 is_stmt 1 view .LVU48
 167 008c 2946     		mov	r1, r5
 168 008e 3846     		mov	r0, r7
 169 0090 FFF7FEFF 		bl	VL53L1A2_RANGING_SENSOR_ConfigProfile
 170              	.LVL16:
 106:Core/Src/VL53L1A1_Simulink.c ****     VL53L1A2_RANGING_SENSOR_ConfigProfile(INSTANCE_TOF_CENTRE , &Profile);
 171              		.loc 1 106 5 view .LVU49
 172 0094 2946     		mov	r1, r5
 173 0096 3046     		mov	r0, r6
 174 0098 FFF7FEFF 		bl	VL53L1A2_RANGING_SENSOR_ConfigProfile
 175              	.LVL17:
 107:Core/Src/VL53L1A1_Simulink.c ****     VL53L1A2_RANGING_SENSOR_ConfigProfile(INSTANCE_TOF_RIGHT  , &Profile);
 176              		.loc 1 107 5 view .LVU50
ARM GAS  C:\Temp\ccCTCA0E.s 			page 6


 177 009c 2946     		mov	r1, r5
 178 009e 0220     		movs	r0, #2
 179 00a0 FFF7FEFF 		bl	VL53L1A2_RANGING_SENSOR_ConfigProfile
 180              	.LVL18:
 108:Core/Src/VL53L1A1_Simulink.c **** 
 109:Core/Src/VL53L1A1_Simulink.c ****     VL53L1A2_RANGING_SENSOR_ConfigROI(INSTANCE_TOF_LEFT   , &ROI);
 181              		.loc 1 109 5 view .LVU51
 182 00a4 2146     		mov	r1, r4
 183 00a6 3846     		mov	r0, r7
 184 00a8 FFF7FEFF 		bl	VL53L1A2_RANGING_SENSOR_ConfigROI
 185              	.LVL19:
 110:Core/Src/VL53L1A1_Simulink.c ****     VL53L1A2_RANGING_SENSOR_ConfigROI(INSTANCE_TOF_CENTRE , &ROI);
 186              		.loc 1 110 5 view .LVU52
 187 00ac 2146     		mov	r1, r4
 188 00ae 3046     		mov	r0, r6
 189 00b0 FFF7FEFF 		bl	VL53L1A2_RANGING_SENSOR_ConfigROI
 190              	.LVL20:
 111:Core/Src/VL53L1A1_Simulink.c ****     VL53L1A2_RANGING_SENSOR_ConfigROI(INSTANCE_TOF_RIGHT  , &ROI);
 191              		.loc 1 111 5 view .LVU53
 192 00b4 2146     		mov	r1, r4
 193 00b6 0220     		movs	r0, #2
 194 00b8 FFF7FEFF 		bl	VL53L1A2_RANGING_SENSOR_ConfigROI
 195              	.LVL21:
 112:Core/Src/VL53L1A1_Simulink.c **** 
 113:Core/Src/VL53L1A1_Simulink.c ****     VL53L1A2_RANGING_SENSOR_Start(INSTANCE_TOF_LEFT   , RS_MODE_ASYNC_CONTINUOUS);
 196              		.loc 1 113 5 view .LVU54
 197 00bc 0321     		movs	r1, #3
 198 00be 3846     		mov	r0, r7
 199 00c0 FFF7FEFF 		bl	VL53L1A2_RANGING_SENSOR_Start
 200              	.LVL22:
 114:Core/Src/VL53L1A1_Simulink.c ****     VL53L1A2_RANGING_SENSOR_Start(INSTANCE_TOF_CENTRE , RS_MODE_ASYNC_CONTINUOUS);
 201              		.loc 1 114 5 view .LVU55
 202 00c4 0321     		movs	r1, #3
 203 00c6 3046     		mov	r0, r6
 204 00c8 FFF7FEFF 		bl	VL53L1A2_RANGING_SENSOR_Start
 205              	.LVL23:
 115:Core/Src/VL53L1A1_Simulink.c ****     VL53L1A2_RANGING_SENSOR_Start(INSTANCE_TOF_RIGHT  , RS_MODE_ASYNC_CONTINUOUS);
 206              		.loc 1 115 5 view .LVU56
 207 00cc 0321     		movs	r1, #3
 208 00ce 0220     		movs	r0, #2
 209 00d0 FFF7FEFF 		bl	VL53L1A2_RANGING_SENSOR_Start
 210              	.LVL24:
 116:Core/Src/VL53L1A1_Simulink.c **** }
 211              		.loc 1 116 1 is_stmt 0 view .LVU57
 212 00d4 03B0     		add	sp, sp, #12
 213              		.cfi_def_cfa_offset 20
 214              		@ sp needed
 215 00d6 F0BD     		pop	{r4, r5, r6, r7, pc}
 216              	.L10:
 217              		.align	2
 218              	.L9:
 219 00d8 00000000 		.word	status
 220 00dc 00000000 		.word	ToF_Present
 221 00e0 00000000 		.word	tof_odr
 222 00e4 00007A44 		.word	1148846080
 223 00e8 00000000 		.word	Profile
 224 00ec 00000000 		.word	ROI
ARM GAS  C:\Temp\ccCTCA0E.s 			page 7


 225              		.cfi_endproc
 226              	.LFE137:
 228              		.section	.text.bytesToFloat,"ax",%progbits
 229              		.align	1
 230              		.global	bytesToFloat
 231              		.syntax unified
 232              		.thumb
 233              		.thumb_func
 235              	bytesToFloat:
 236              	.LVL25:
 237              	.LFB138:
 117:Core/Src/VL53L1A1_Simulink.c **** 
 118:Core/Src/VL53L1A1_Simulink.c **** float bytesToFloat(uint8_t byte1 , uint8_t byte2 , uint8_t byte3 , uint8_t byte4) {
 238              		.loc 1 118 83 is_stmt 1 view -0
 239              		.cfi_startproc
 240              		@ args = 0, pretend = 0, frame = 8
 241              		@ frame_needed = 0, uses_anonymous_args = 0
 242              		@ link register save eliminated.
 243              		.loc 1 118 83 is_stmt 0 view .LVU59
 244 0000 82B0     		sub	sp, sp, #8
 245              		.cfi_def_cfa_offset 8
 119:Core/Src/VL53L1A1_Simulink.c ****     float result;
 246              		.loc 1 119 5 is_stmt 1 view .LVU60
 120:Core/Src/VL53L1A1_Simulink.c ****     uint8_t bytes[4] = {byte1,byte2,byte3,byte4};
 247              		.loc 1 120 5 view .LVU61
 248              		.loc 1 120 13 is_stmt 0 view .LVU62
 249 0002 8DF80400 		strb	r0, [sp, #4]
 250 0006 8DF80510 		strb	r1, [sp, #5]
 251 000a 8DF80620 		strb	r2, [sp, #6]
 252 000e 8DF80730 		strb	r3, [sp, #7]
 121:Core/Src/VL53L1A1_Simulink.c **** 
 122:Core/Src/VL53L1A1_Simulink.c ****     // Use memcpy to copy the 4 bytes into a float (this preserves the binary representation)
 123:Core/Src/VL53L1A1_Simulink.c ****     memcpy(&result, bytes, sizeof(float));
 253              		.loc 1 123 5 is_stmt 1 view .LVU63
 124:Core/Src/VL53L1A1_Simulink.c **** 
 125:Core/Src/VL53L1A1_Simulink.c ****     return result;
 254              		.loc 1 125 5 view .LVU64
 126:Core/Src/VL53L1A1_Simulink.c **** }
 255              		.loc 1 126 1 is_stmt 0 view .LVU65
 256 0012 9DED010A 		vldr.32	s0, [sp, #4]
 257 0016 02B0     		add	sp, sp, #8
 258              		.cfi_def_cfa_offset 0
 259              		@ sp needed
 260 0018 7047     		bx	lr
 261              		.cfi_endproc
 262              	.LFE138:
 264              		.section	.text.bytesToInt32,"ax",%progbits
 265              		.align	1
 266              		.global	bytesToInt32
 267              		.syntax unified
 268              		.thumb
 269              		.thumb_func
 271              	bytesToInt32:
 272              	.LVL26:
 273              	.LFB139:
 127:Core/Src/VL53L1A1_Simulink.c **** 
 128:Core/Src/VL53L1A1_Simulink.c **** int32_t bytesToInt32(uint8_t byte1 , uint8_t byte2 , uint8_t byte3 , uint8_t byte4)  {
ARM GAS  C:\Temp\ccCTCA0E.s 			page 8


 274              		.loc 1 128 86 is_stmt 1 view -0
 275              		.cfi_startproc
 276              		@ args = 0, pretend = 0, frame = 8
 277              		@ frame_needed = 0, uses_anonymous_args = 0
 278              		@ link register save eliminated.
 279              		.loc 1 128 86 is_stmt 0 view .LVU67
 280 0000 82B0     		sub	sp, sp, #8
 281              		.cfi_def_cfa_offset 8
 129:Core/Src/VL53L1A1_Simulink.c ****     int32_t result;
 282              		.loc 1 129 5 is_stmt 1 view .LVU68
 130:Core/Src/VL53L1A1_Simulink.c ****     uint8_t bytes[4] = {byte1,byte2,byte3,byte4};
 283              		.loc 1 130 5 view .LVU69
 284              		.loc 1 130 13 is_stmt 0 view .LVU70
 285 0002 8DF80400 		strb	r0, [sp, #4]
 286 0006 8DF80510 		strb	r1, [sp, #5]
 287 000a 8DF80620 		strb	r2, [sp, #6]
 288 000e 8DF80730 		strb	r3, [sp, #7]
 131:Core/Src/VL53L1A1_Simulink.c **** 
 132:Core/Src/VL53L1A1_Simulink.c ****     // Use memcpy to copy the 4 bytes into a int32_t (this preserves the binary representation)
 133:Core/Src/VL53L1A1_Simulink.c ****     memcpy(&result, bytes, sizeof(int32_t));
 289              		.loc 1 133 5 is_stmt 1 view .LVU71
 290              	.LVL27:
 134:Core/Src/VL53L1A1_Simulink.c **** 
 135:Core/Src/VL53L1A1_Simulink.c ****     return result;
 291              		.loc 1 135 5 view .LVU72
 136:Core/Src/VL53L1A1_Simulink.c **** }
 292              		.loc 1 136 1 is_stmt 0 view .LVU73
 293 0012 0198     		ldr	r0, [sp, #4]
 294              	.LVL28:
 295              		.loc 1 136 1 view .LVU74
 296 0014 02B0     		add	sp, sp, #8
 297              		.cfi_def_cfa_offset 0
 298              	.LVL29:
 299              		.loc 1 136 1 view .LVU75
 300              		@ sp needed
 301 0016 7047     		bx	lr
 302              		.cfi_endproc
 303              	.LFE139:
 305              		.section	.text.selectBestTOF,"ax",%progbits
 306              		.align	1
 307              		.global	selectBestTOF
 308              		.syntax unified
 309              		.thumb
 310              		.thumb_func
 312              	selectBestTOF:
 313              	.LVL30:
 314              	.LFB140:
 137:Core/Src/VL53L1A1_Simulink.c **** 
 138:Core/Src/VL53L1A1_Simulink.c **** void selectBestTOF(RANGING_SENSOR_Result_t *array) {
 315              		.loc 1 138 52 is_stmt 1 view -0
 316              		.cfi_startproc
 317              		@ args = 0, pretend = 0, frame = 0
 318              		@ frame_needed = 0, uses_anonymous_args = 0
 319              		.loc 1 138 52 is_stmt 0 view .LVU77
 320 0000 10B5     		push	{r4, lr}
 321              		.cfi_def_cfa_offset 8
 322              		.cfi_offset 4, -8
ARM GAS  C:\Temp\ccCTCA0E.s 			page 9


 323              		.cfi_offset 14, -4
 139:Core/Src/VL53L1A1_Simulink.c ****     uint8_t bestIndex = 0;
 324              		.loc 1 139 5 is_stmt 1 view .LVU78
 325              	.LVL31:
 140:Core/Src/VL53L1A1_Simulink.c ****     uint8_t bestSubIndex = 0;
 326              		.loc 1 140 5 view .LVU79
 141:Core/Src/VL53L1A1_Simulink.c ****     float_t bestRatio = 0.0f;
 327              		.loc 1 141 5 view .LVU80
 142:Core/Src/VL53L1A1_Simulink.c **** 
 143:Core/Src/VL53L1A1_Simulink.c ****     for (uint8_t i = 0; i < 60; i++) {
 328              		.loc 1 143 5 view .LVU81
 329              	.LBB2:
 330              		.loc 1 143 10 view .LVU82
 331              		.loc 1 143 18 is_stmt 0 view .LVU83
 332 0002 4FF0000C 		mov	ip, #0
 333              	.LBE2:
 141:Core/Src/VL53L1A1_Simulink.c ****     float_t bestRatio = 0.0f;
 334              		.loc 1 141 13 view .LVU84
 335 0006 DFED246A 		vldr.32	s13, .L27
 140:Core/Src/VL53L1A1_Simulink.c ****     float_t bestRatio = 0.0f;
 336              		.loc 1 140 13 view .LVU85
 337 000a 6446     		mov	r4, ip
 139:Core/Src/VL53L1A1_Simulink.c ****     uint8_t bestSubIndex = 0;
 338              		.loc 1 139 13 view .LVU86
 339 000c E646     		mov	lr, ip
 340              	.LBB7:
 341              		.loc 1 143 5 view .LVU87
 342 000e 2BE0     		b	.L16
 343              	.LVL32:
 344              	.L21:
 345              	.LBB3:
 346              	.LBB4:
 144:Core/Src/VL53L1A1_Simulink.c ****         for (uint8_t j = 0; j < 4; j++) { 
 145:Core/Src/VL53L1A1_Simulink.c ****             float_t ratio = 0; 
 347              		.loc 1 145 21 view .LVU88
 348 0010 DFED217A 		vldr.32	s15, .L27
 349 0014 1AE0     		b	.L17
 350              	.LVL33:
 351              	.L18:
 352              		.loc 1 145 21 view .LVU89
 353              	.LBE4:
 144:Core/Src/VL53L1A1_Simulink.c ****         for (uint8_t j = 0; j < 4; j++) { 
 354              		.loc 1 144 37 is_stmt 1 discriminator 2 view .LVU90
 355 0016 0133     		adds	r3, r3, #1
 356              	.LVL34:
 144:Core/Src/VL53L1A1_Simulink.c ****         for (uint8_t j = 0; j < 4; j++) { 
 357              		.loc 1 144 37 is_stmt 0 discriminator 2 view .LVU91
 358 0018 DBB2     		uxtb	r3, r3
 359              	.LVL35:
 360              	.L20:
 144:Core/Src/VL53L1A1_Simulink.c ****         for (uint8_t j = 0; j < 4; j++) { 
 361              		.loc 1 144 31 is_stmt 1 discriminator 1 view .LVU92
 362 001a 032B     		cmp	r3, #3
 363 001c 20D8     		bhi	.L25
 364              	.LBB5:
 365              		.loc 1 145 13 view .LVU93
 366              	.LVL36:
ARM GAS  C:\Temp\ccCTCA0E.s 			page 10


 146:Core/Src/VL53L1A1_Simulink.c ****             if (array[i].ZoneResult[j].Signal[j] != 0 ) {ratio =  array[i].ZoneResult[j].Signal[j] 
 367              		.loc 1 146 13 view .LVU94
 368              		.loc 1 146 22 is_stmt 0 view .LVU95
 369 001e 0CEBCC02 		add	r2, ip, ip, lsl #3
 370 0022 00EBC202 		add	r2, r0, r2, lsl #3
 371              		.loc 1 146 46 view .LVU96
 372 0026 03EBC301 		add	r1, r3, r3, lsl #3
 373 002a 02EBC101 		add	r1, r2, r1, lsl #3
 374 002e 91ED0E7A 		vldr.32	s14, [r1, #56]
 375              		.loc 1 146 16 view .LVU97
 376 0032 B5EE407A 		vcmp.f32	s14, #0
 377 0036 F1EE10FA 		vmrs	APSR_nzcv, FPSCR
 378 003a E9D0     		beq	.L21
 379              		.loc 1 146 58 is_stmt 1 discriminator 1 view .LVU98
 380              		.loc 1 146 132 is_stmt 0 discriminator 1 view .LVU99
 381 003c 03EBC301 		add	r1, r3, r3, lsl #3
 382 0040 02EBC102 		add	r2, r2, r1, lsl #3
 383 0044 92ED0A6A 		vldr.32	s12, [r2, #40]
 384              		.loc 1 146 64 discriminator 1 view .LVU100
 385 0048 C7EE067A 		vdiv.f32	s15, s14, s12
 386              	.LVL37:
 387              	.L17:
 147:Core/Src/VL53L1A1_Simulink.c ****             if (ratio > bestRatio) {
 388              		.loc 1 147 13 is_stmt 1 view .LVU101
 389              		.loc 1 147 16 is_stmt 0 view .LVU102
 390 004c F4EEE76A 		vcmpe.f32	s13, s15
 391 0050 F1EE10FA 		vmrs	APSR_nzcv, FPSCR
 392 0054 DFD5     		bpl	.L18
 148:Core/Src/VL53L1A1_Simulink.c ****                 bestRatio = ratio;
 393              		.loc 1 148 27 view .LVU103
 394 0056 F0EE676A 		vmov.f32	s13, s15
 395              	.LVL38:
 149:Core/Src/VL53L1A1_Simulink.c ****                 bestIndex = i;
 150:Core/Src/VL53L1A1_Simulink.c ****                 bestSubIndex = j;
 396              		.loc 1 150 30 view .LVU104
 397 005a 1C46     		mov	r4, r3
 398              	.LVL39:
 149:Core/Src/VL53L1A1_Simulink.c ****                 bestIndex = i;
 399              		.loc 1 149 27 view .LVU105
 400 005c E646     		mov	lr, ip
 401              	.LVL40:
 149:Core/Src/VL53L1A1_Simulink.c ****                 bestIndex = i;
 402              		.loc 1 149 27 view .LVU106
 403 005e DAE7     		b	.L18
 404              	.LVL41:
 405              	.L25:
 149:Core/Src/VL53L1A1_Simulink.c ****                 bestIndex = i;
 406              		.loc 1 149 27 view .LVU107
 407              	.LBE5:
 408              	.LBE3:
 143:Core/Src/VL53L1A1_Simulink.c ****         for (uint8_t j = 0; j < 4; j++) { 
 409              		.loc 1 143 34 is_stmt 1 discriminator 2 view .LVU108
 410 0060 0CF1010C 		add	ip, ip, #1
 411              	.LVL42:
 143:Core/Src/VL53L1A1_Simulink.c ****         for (uint8_t j = 0; j < 4; j++) { 
 412              		.loc 1 143 34 is_stmt 0 discriminator 2 view .LVU109
 413 0064 5FFA8CFC 		uxtb	ip, ip
ARM GAS  C:\Temp\ccCTCA0E.s 			page 11


 414              	.LVL43:
 415              	.L16:
 143:Core/Src/VL53L1A1_Simulink.c ****         for (uint8_t j = 0; j < 4; j++) { 
 416              		.loc 1 143 27 is_stmt 1 discriminator 1 view .LVU110
 417 0068 BCF13B0F 		cmp	ip, #59
 418 006c 01D8     		bhi	.L26
 419              	.LBB6:
 144:Core/Src/VL53L1A1_Simulink.c ****             float_t ratio = 0; 
 420              		.loc 1 144 22 is_stmt 0 view .LVU111
 421 006e 0023     		movs	r3, #0
 422 0070 D3E7     		b	.L20
 423              	.L26:
 424              	.LBE6:
 425              	.LBE7:
 151:Core/Src/VL53L1A1_Simulink.c ****             }
 152:Core/Src/VL53L1A1_Simulink.c ****         }
 153:Core/Src/VL53L1A1_Simulink.c ****     }
 154:Core/Src/VL53L1A1_Simulink.c ****     array[0].ZoneResult[0].Ambient[0]  = array[bestIndex].ZoneResult[bestSubIndex].Ambient[bestSubI
 426              		.loc 1 154 5 is_stmt 1 view .LVU112
 427              		.loc 1 154 47 is_stmt 0 view .LVU113
 428 0072 0EEBCE0E 		add	lr, lr, lr, lsl #3
 429              	.LVL44:
 430              		.loc 1 154 47 view .LVU114
 431 0076 00EBCE03 		add	r3, r0, lr, lsl #3
 432              		.loc 1 154 91 view .LVU115
 433 007a 04EBC402 		add	r2, r4, r4, lsl #3
 434 007e 03EBC202 		add	r2, r3, r2, lsl #3
 435 0082 916A     		ldr	r1, [r2, #40]	@ float
 436              		.loc 1 154 40 view .LVU116
 437 0084 8162     		str	r1, [r0, #40]	@ float
 155:Core/Src/VL53L1A1_Simulink.c ****     array[0].ZoneResult[0].Distance[0] = array[bestIndex].ZoneResult[bestSubIndex].Distance[bestSub
 438              		.loc 1 155 5 is_stmt 1 view .LVU117
 439              		.loc 1 155 92 is_stmt 0 view .LVU118
 440 0086 9268     		ldr	r2, [r2, #8]
 441              		.loc 1 155 40 view .LVU119
 442 0088 8260     		str	r2, [r0, #8]
 156:Core/Src/VL53L1A1_Simulink.c ****     array[0].ZoneResult[0].Signal[0]   = array[bestIndex].ZoneResult[bestSubIndex].Signal[bestSubIn
 443              		.loc 1 156 5 is_stmt 1 view .LVU120
 444              		.loc 1 156 90 is_stmt 0 view .LVU121
 445 008a 04EBC404 		add	r4, r4, r4, lsl #3
 446              	.LVL45:
 447              		.loc 1 156 90 view .LVU122
 448 008e 03EBC403 		add	r3, r3, r4, lsl #3
 449 0092 9B6B     		ldr	r3, [r3, #56]	@ float
 450              		.loc 1 156 40 view .LVU123
 451 0094 8363     		str	r3, [r0, #56]	@ float
 157:Core/Src/VL53L1A1_Simulink.c ****     
 158:Core/Src/VL53L1A1_Simulink.c **** }
 452              		.loc 1 158 1 view .LVU124
 453 0096 10BD     		pop	{r4, pc}
 454              	.L28:
 455              		.align	2
 456              	.L27:
 457 0098 00000000 		.word	0
 458              		.cfi_endproc
 459              	.LFE140:
 461              		.section	.text.isItWorthy,"ax",%progbits
ARM GAS  C:\Temp\ccCTCA0E.s 			page 12


 462              		.align	1
 463              		.global	isItWorthy
 464              		.syntax unified
 465              		.thumb
 466              		.thumb_func
 468              	isItWorthy:
 469              	.LVL46:
 470              	.LFB141:
 159:Core/Src/VL53L1A1_Simulink.c **** 
 160:Core/Src/VL53L1A1_Simulink.c **** RANGING_SENSOR_Result_t sub_TOF_left;
 161:Core/Src/VL53L1A1_Simulink.c **** RANGING_SENSOR_Result_t sub_TOF_centre;
 162:Core/Src/VL53L1A1_Simulink.c **** RANGING_SENSOR_Result_t sub_TOF_right;
 163:Core/Src/VL53L1A1_Simulink.c **** RANGING_SENSOR_Result_t temp_TOF_left;
 164:Core/Src/VL53L1A1_Simulink.c **** RANGING_SENSOR_Result_t temp_TOF_centre;
 165:Core/Src/VL53L1A1_Simulink.c **** RANGING_SENSOR_Result_t temp_TOF_right;
 166:Core/Src/VL53L1A1_Simulink.c **** 
 167:Core/Src/VL53L1A1_Simulink.c **** 
 168:Core/Src/VL53L1A1_Simulink.c **** uint8_t buff_counter = 0;
 169:Core/Src/VL53L1A1_Simulink.c **** 
 170:Core/Src/VL53L1A1_Simulink.c **** uint8_t isItWorthy(RANGING_SENSOR_Result_t *sub_TOF){
 471              		.loc 1 170 53 is_stmt 1 view -0
 472              		.cfi_startproc
 473              		@ args = 0, pretend = 0, frame = 0
 474              		@ frame_needed = 0, uses_anonymous_args = 0
 475              		@ link register save eliminated.
 171:Core/Src/VL53L1A1_Simulink.c ****     if (sub_TOF->ZoneResult[0].Status[sub_TOF->ZoneResult->NumberOfTargets-1] == 0){
 476              		.loc 1 171 5 view .LVU126
 477              		.loc 1 171 58 is_stmt 0 view .LVU127
 478 0000 4368     		ldr	r3, [r0, #4]
 479              		.loc 1 171 38 view .LVU128
 480 0002 0333     		adds	r3, r3, #3
 481 0004 00EB8300 		add	r0, r0, r3, lsl #2
 482              	.LVL47:
 483              		.loc 1 171 38 view .LVU129
 484 0008 8368     		ldr	r3, [r0, #8]
 485              		.loc 1 171 8 view .LVU130
 486 000a 0BB9     		cbnz	r3, .L31
 172:Core/Src/VL53L1A1_Simulink.c ****         return 1;
 487              		.loc 1 172 16 view .LVU131
 488 000c 0120     		movs	r0, #1
 489 000e 7047     		bx	lr
 490              	.L31:
 173:Core/Src/VL53L1A1_Simulink.c ****     }
 174:Core/Src/VL53L1A1_Simulink.c ****     else{
 175:Core/Src/VL53L1A1_Simulink.c ****         return 0;
 491              		.loc 1 175 16 view .LVU132
 492 0010 0020     		movs	r0, #0
 176:Core/Src/VL53L1A1_Simulink.c ****     }
 177:Core/Src/VL53L1A1_Simulink.c **** }
 493              		.loc 1 177 1 view .LVU133
 494 0012 7047     		bx	lr
 495              		.cfi_endproc
 496              	.LFE141:
 498              		.section	.text.getVL53L1A1,"ax",%progbits
 499              		.align	1
 500              		.global	getVL53L1A1
 501              		.syntax unified
ARM GAS  C:\Temp\ccCTCA0E.s 			page 13


 502              		.thumb
 503              		.thumb_func
 505              	getVL53L1A1:
 506              	.LFB142:
 178:Core/Src/VL53L1A1_Simulink.c **** 
 179:Core/Src/VL53L1A1_Simulink.c **** void getVL53L1A1(){
 507              		.loc 1 179 19 is_stmt 1 view -0
 508              		.cfi_startproc
 509              		@ args = 0, pretend = 0, frame = 0
 510              		@ frame_needed = 0, uses_anonymous_args = 0
 511 0000 10B5     		push	{r4, lr}
 512              		.cfi_def_cfa_offset 8
 513              		.cfi_offset 4, -8
 514              		.cfi_offset 14, -4
 180:Core/Src/VL53L1A1_Simulink.c ****     VL53L1A2_RANGING_SENSOR_GetDistance(INSTANCE_TOF_LEFT   , &sub_TOF_left   );
 515              		.loc 1 180 5 view .LVU135
 516 0002 2B4C     		ldr	r4, .L41
 517 0004 2146     		mov	r1, r4
 518 0006 0020     		movs	r0, #0
 519 0008 FFF7FEFF 		bl	VL53L1A2_RANGING_SENSOR_GetDistance
 520              	.LVL48:
 181:Core/Src/VL53L1A1_Simulink.c ****     VL53L1A2_RANGING_SENSOR_GetDistance(INSTANCE_TOF_CENTRE , &sub_TOF_centre );
 521              		.loc 1 181 5 view .LVU136
 522 000c 2949     		ldr	r1, .L41+4
 523 000e 0120     		movs	r0, #1
 524 0010 FFF7FEFF 		bl	VL53L1A2_RANGING_SENSOR_GetDistance
 525              	.LVL49:
 182:Core/Src/VL53L1A1_Simulink.c ****     VL53L1A2_RANGING_SENSOR_GetDistance(INSTANCE_TOF_RIGHT  , &sub_TOF_right  );
 526              		.loc 1 182 5 view .LVU137
 527 0014 2849     		ldr	r1, .L41+8
 528 0016 0220     		movs	r0, #2
 529 0018 FFF7FEFF 		bl	VL53L1A2_RANGING_SENSOR_GetDistance
 530              	.LVL50:
 183:Core/Src/VL53L1A1_Simulink.c **** 
 184:Core/Src/VL53L1A1_Simulink.c ****     if (isItWorthy(&sub_TOF_left) == 1){
 531              		.loc 1 184 5 view .LVU138
 532              		.loc 1 184 9 is_stmt 0 view .LVU139
 533 001c 2046     		mov	r0, r4
 534 001e FFF7FEFF 		bl	isItWorthy
 535              	.LVL51:
 536              		.loc 1 184 8 view .LVU140
 537 0022 0128     		cmp	r0, #1
 538 0024 32D0     		beq	.L38
 539              	.L33:
 185:Core/Src/VL53L1A1_Simulink.c ****         temp_TOF_left = sub_TOF_left;
 186:Core/Src/VL53L1A1_Simulink.c ****     }
 187:Core/Src/VL53L1A1_Simulink.c ****     if (isItWorthy(&sub_TOF_centre) == 1){
 540              		.loc 1 187 5 is_stmt 1 view .LVU141
 541              		.loc 1 187 9 is_stmt 0 view .LVU142
 542 0026 2348     		ldr	r0, .L41+4
 543 0028 FFF7FEFF 		bl	isItWorthy
 544              	.LVL52:
 545              		.loc 1 187 8 view .LVU143
 546 002c 0128     		cmp	r0, #1
 547 002e 33D0     		beq	.L39
 548              	.L34:
 188:Core/Src/VL53L1A1_Simulink.c ****         temp_TOF_centre = sub_TOF_centre;
ARM GAS  C:\Temp\ccCTCA0E.s 			page 14


 189:Core/Src/VL53L1A1_Simulink.c ****     }
 190:Core/Src/VL53L1A1_Simulink.c ****     if (isItWorthy(&sub_TOF_right) == 1){
 549              		.loc 1 190 5 is_stmt 1 view .LVU144
 550              		.loc 1 190 9 is_stmt 0 view .LVU145
 551 0030 2148     		ldr	r0, .L41+8
 552 0032 FFF7FEFF 		bl	isItWorthy
 553              	.LVL53:
 554              		.loc 1 190 8 view .LVU146
 555 0036 0128     		cmp	r0, #1
 556 0038 34D0     		beq	.L40
 557              	.L35:
 191:Core/Src/VL53L1A1_Simulink.c ****         temp_TOF_right = sub_TOF_right;
 192:Core/Src/VL53L1A1_Simulink.c ****     }
 193:Core/Src/VL53L1A1_Simulink.c ****     buff_counter++;
 558              		.loc 1 193 5 is_stmt 1 view .LVU147
 559              		.loc 1 193 17 is_stmt 0 view .LVU148
 560 003a 204A     		ldr	r2, .L41+12
 561 003c 1378     		ldrb	r3, [r2]	@ zero_extendqisi2
 562 003e 0133     		adds	r3, r3, #1
 563 0040 DBB2     		uxtb	r3, r3
 564 0042 1370     		strb	r3, [r2]
 194:Core/Src/VL53L1A1_Simulink.c **** 
 195:Core/Src/VL53L1A1_Simulink.c ****     if (buff_counter == 60/tof_odr){
 565              		.loc 1 195 5 is_stmt 1 view .LVU149
 566              		.loc 1 195 22 is_stmt 0 view .LVU150
 567 0044 07EE903A 		vmov	s15, r3	@ int
 568 0048 F8EEE77A 		vcvt.f32.s32	s15, s15
 569              		.loc 1 195 27 view .LVU151
 570 004c 1C4B     		ldr	r3, .L41+16
 571 004e D3ED006A 		vldr.32	s13, [r3]
 572 0052 9FED1C6A 		vldr.32	s12, .L41+20
 573 0056 86EE267A 		vdiv.f32	s14, s12, s13
 574              		.loc 1 195 8 view .LVU152
 575 005a F4EE477A 		vcmp.f32	s15, s14
 576 005e F1EE10FA 		vmrs	APSR_nzcv, FPSCR
 577 0062 12D1     		bne	.L32
 196:Core/Src/VL53L1A1_Simulink.c ****         TOF_left = temp_TOF_left;
 578              		.loc 1 196 9 is_stmt 1 view .LVU153
 579              		.loc 1 196 18 is_stmt 0 view .LVU154
 580 0064 4824     		movs	r4, #72
 581 0066 2246     		mov	r2, r4
 582 0068 1749     		ldr	r1, .L41+24
 583 006a 1848     		ldr	r0, .L41+28
 584 006c FFF7FEFF 		bl	memcpy
 585              	.LVL54:
 197:Core/Src/VL53L1A1_Simulink.c ****         TOF_centre = temp_TOF_centre;
 586              		.loc 1 197 9 is_stmt 1 view .LVU155
 587              		.loc 1 197 20 is_stmt 0 view .LVU156
 588 0070 2246     		mov	r2, r4
 589 0072 1749     		ldr	r1, .L41+32
 590 0074 1748     		ldr	r0, .L41+36
 591 0076 FFF7FEFF 		bl	memcpy
 592              	.LVL55:
 198:Core/Src/VL53L1A1_Simulink.c ****         TOF_right = temp_TOF_right;
 593              		.loc 1 198 9 is_stmt 1 view .LVU157
 594              		.loc 1 198 19 is_stmt 0 view .LVU158
 595 007a 2246     		mov	r2, r4
ARM GAS  C:\Temp\ccCTCA0E.s 			page 15


 596 007c 1649     		ldr	r1, .L41+40
 597 007e 1748     		ldr	r0, .L41+44
 598 0080 FFF7FEFF 		bl	memcpy
 599              	.LVL56:
 199:Core/Src/VL53L1A1_Simulink.c ****         buff_counter = 0;
 600              		.loc 1 199 9 is_stmt 1 view .LVU159
 601              		.loc 1 199 22 is_stmt 0 view .LVU160
 602 0084 0D4B     		ldr	r3, .L41+12
 603 0086 0022     		movs	r2, #0
 604 0088 1A70     		strb	r2, [r3]
 605              	.L32:
 200:Core/Src/VL53L1A1_Simulink.c ****     }
 201:Core/Src/VL53L1A1_Simulink.c **** }
 606              		.loc 1 201 1 view .LVU161
 607 008a 10BD     		pop	{r4, pc}
 608              	.L38:
 185:Core/Src/VL53L1A1_Simulink.c ****     }
 609              		.loc 1 185 9 is_stmt 1 view .LVU162
 185:Core/Src/VL53L1A1_Simulink.c ****     }
 610              		.loc 1 185 23 is_stmt 0 view .LVU163
 611 008c 4822     		movs	r2, #72
 612 008e 2146     		mov	r1, r4
 613 0090 0D48     		ldr	r0, .L41+24
 614 0092 FFF7FEFF 		bl	memcpy
 615              	.LVL57:
 616 0096 C6E7     		b	.L33
 617              	.L39:
 188:Core/Src/VL53L1A1_Simulink.c ****     }
 618              		.loc 1 188 9 is_stmt 1 view .LVU164
 188:Core/Src/VL53L1A1_Simulink.c ****     }
 619              		.loc 1 188 25 is_stmt 0 view .LVU165
 620 0098 4822     		movs	r2, #72
 621 009a 0649     		ldr	r1, .L41+4
 622 009c 0C48     		ldr	r0, .L41+32
 623 009e FFF7FEFF 		bl	memcpy
 624              	.LVL58:
 625 00a2 C5E7     		b	.L34
 626              	.L40:
 191:Core/Src/VL53L1A1_Simulink.c ****     }
 627              		.loc 1 191 9 is_stmt 1 view .LVU166
 191:Core/Src/VL53L1A1_Simulink.c ****     }
 628              		.loc 1 191 24 is_stmt 0 view .LVU167
 629 00a4 4822     		movs	r2, #72
 630 00a6 0449     		ldr	r1, .L41+8
 631 00a8 0B48     		ldr	r0, .L41+40
 632 00aa FFF7FEFF 		bl	memcpy
 633              	.LVL59:
 634 00ae C4E7     		b	.L35
 635              	.L42:
 636              		.align	2
 637              	.L41:
 638 00b0 00000000 		.word	sub_TOF_left
 639 00b4 00000000 		.word	sub_TOF_centre
 640 00b8 00000000 		.word	sub_TOF_right
 641 00bc 00000000 		.word	buff_counter
 642 00c0 00000000 		.word	tof_odr
 643 00c4 00007042 		.word	1114636288
ARM GAS  C:\Temp\ccCTCA0E.s 			page 16


 644 00c8 00000000 		.word	temp_TOF_left
 645 00cc 00000000 		.word	TOF_left
 646 00d0 00000000 		.word	temp_TOF_centre
 647 00d4 00000000 		.word	TOF_centre
 648 00d8 00000000 		.word	temp_TOF_right
 649 00dc 00000000 		.word	TOF_right
 650              		.cfi_endproc
 651              	.LFE142:
 653              		.section	.text.sendToSimulink,"ax",%progbits
 654              		.align	1
 655              		.global	sendToSimulink
 656              		.syntax unified
 657              		.thumb
 658              		.thumb_func
 660              	sendToSimulink:
 661              	.LFB144:
 202:Core/Src/VL53L1A1_Simulink.c **** 
 203:Core/Src/VL53L1A1_Simulink.c **** void receivedFromSimulink(uint8_t* bigBuffer){
 204:Core/Src/VL53L1A1_Simulink.c ****     tof_fsr = bytesToInt32(bigBuffer[3  + 0] , bigBuffer[3  + 1] , bigBuffer[3  + 2] ,  bigBuffer[3
 205:Core/Src/VL53L1A1_Simulink.c ****     tof_odr = bytesToFloat(bigBuffer[3  + 4] , bigBuffer[3  + 5] , bigBuffer[3  + 6] ,  bigBuffer[3
 206:Core/Src/VL53L1A1_Simulink.c **** 
 207:Core/Src/VL53L1A1_Simulink.c ****     calibrate_VL53L1A1();
 208:Core/Src/VL53L1A1_Simulink.c **** }
 209:Core/Src/VL53L1A1_Simulink.c **** 
 210:Core/Src/VL53L1A1_Simulink.c **** void sendToSimulink(){
 662              		.loc 1 210 22 is_stmt 1 view -0
 663              		.cfi_startproc
 664              		@ args = 0, pretend = 0, frame = 0
 665              		@ frame_needed = 0, uses_anonymous_args = 0
 666 0000 38B5     		push	{r3, r4, r5, lr}
 667              		.cfi_def_cfa_offset 16
 668              		.cfi_offset 3, -16
 669              		.cfi_offset 4, -12
 670              		.cfi_offset 5, -8
 671              		.cfi_offset 14, -4
 211:Core/Src/VL53L1A1_Simulink.c **** 
 212:Core/Src/VL53L1A1_Simulink.c ****     HAL_UART_Transmit(&huart2, (uint8_t *) &header           ,3 , HAL_MAX_DELAY);
 672              		.loc 1 212 5 view .LVU169
 673 0002 3E4C     		ldr	r4, .L45
 674 0004 4FF0FF33 		mov	r3, #-1
 675 0008 0322     		movs	r2, #3
 676 000a 3D49     		ldr	r1, .L45+4
 677 000c 2046     		mov	r0, r4
 678 000e FFF7FEFF 		bl	HAL_UART_Transmit
 679              	.LVL60:
 213:Core/Src/VL53L1A1_Simulink.c ****     
 214:Core/Src/VL53L1A1_Simulink.c ****     HAL_UART_Transmit(&huart2, (uint32_t *) &((TOF_left   .ZoneResult[0]) .Distance  [TOF_left.Zone
 680              		.loc 1 214 5 view .LVU170
 681              		.loc 1 214 109 is_stmt 0 view .LVU171
 682 0012 3C4D     		ldr	r5, .L45+8
 683 0014 6968     		ldr	r1, [r5, #4]
 684              		.loc 1 214 126 view .LVU172
 685 0016 0139     		subs	r1, r1, #1
 686              		.loc 1 214 32 view .LVU173
 687 0018 05EB8101 		add	r1, r5, r1, lsl #2
 688              		.loc 1 214 5 view .LVU174
 689 001c 4FF0FF33 		mov	r3, #-1
ARM GAS  C:\Temp\ccCTCA0E.s 			page 17


 690 0020 0422     		movs	r2, #4
 691 0022 0831     		adds	r1, r1, #8
 692 0024 2046     		mov	r0, r4
 693 0026 FFF7FEFF 		bl	HAL_UART_Transmit
 694              	.LVL61:
 215:Core/Src/VL53L1A1_Simulink.c ****     HAL_UART_Transmit(&huart2, (float_t *)  &((TOF_left   .ZoneResult[0]) .Ambient   [TOF_left.Zone
 695              		.loc 1 215 5 is_stmt 1 view .LVU175
 696              		.loc 1 215 109 is_stmt 0 view .LVU176
 697 002a 6968     		ldr	r1, [r5, #4]
 698              		.loc 1 215 32 view .LVU177
 699 002c 0731     		adds	r1, r1, #7
 700 002e 05EB8101 		add	r1, r5, r1, lsl #2
 701              		.loc 1 215 5 view .LVU178
 702 0032 4FF0FF33 		mov	r3, #-1
 703 0036 0422     		movs	r2, #4
 704 0038 0831     		adds	r1, r1, #8
 705 003a 2046     		mov	r0, r4
 706 003c FFF7FEFF 		bl	HAL_UART_Transmit
 707              	.LVL62:
 216:Core/Src/VL53L1A1_Simulink.c ****     HAL_UART_Transmit(&huart2, (float_t *)  &((TOF_left   .ZoneResult[0]) .Signal    [TOF_left.Zone
 708              		.loc 1 216 5 is_stmt 1 view .LVU179
 709              		.loc 1 216 109 is_stmt 0 view .LVU180
 710 0040 6B68     		ldr	r3, [r5, #4]
 711              		.loc 1 216 32 view .LVU181
 712 0042 0B33     		adds	r3, r3, #11
 713 0044 05EB8301 		add	r1, r5, r3, lsl #2
 714              		.loc 1 216 5 view .LVU182
 715 0048 4FF0FF33 		mov	r3, #-1
 716 004c 0422     		movs	r2, #4
 717 004e 0831     		adds	r1, r1, #8
 718 0050 2046     		mov	r0, r4
 719 0052 FFF7FEFF 		bl	HAL_UART_Transmit
 720              	.LVL63:
 217:Core/Src/VL53L1A1_Simulink.c ****     HAL_UART_Transmit(&huart2, (uint32_t *) &((TOF_centre .ZoneResult[0]) .Distance  [TOF_centre.Zo
 721              		.loc 1 217 5 is_stmt 1 view .LVU183
 722              		.loc 1 217 111 is_stmt 0 view .LVU184
 723 0056 2C4D     		ldr	r5, .L45+12
 724 0058 6968     		ldr	r1, [r5, #4]
 725              		.loc 1 217 128 view .LVU185
 726 005a 0139     		subs	r1, r1, #1
 727              		.loc 1 217 32 view .LVU186
 728 005c 05EB8101 		add	r1, r5, r1, lsl #2
 729              		.loc 1 217 5 view .LVU187
 730 0060 4FF0FF33 		mov	r3, #-1
 731 0064 0422     		movs	r2, #4
 732 0066 0831     		adds	r1, r1, #8
 733 0068 2046     		mov	r0, r4
 734 006a FFF7FEFF 		bl	HAL_UART_Transmit
 735              	.LVL64:
 218:Core/Src/VL53L1A1_Simulink.c ****     HAL_UART_Transmit(&huart2, (float_t *)  &((TOF_centre .ZoneResult[0]) .Ambient   [TOF_centre.Zo
 736              		.loc 1 218 5 is_stmt 1 view .LVU188
 737              		.loc 1 218 111 is_stmt 0 view .LVU189
 738 006e 6968     		ldr	r1, [r5, #4]
 739              		.loc 1 218 32 view .LVU190
 740 0070 0731     		adds	r1, r1, #7
 741 0072 05EB8101 		add	r1, r5, r1, lsl #2
 742              		.loc 1 218 5 view .LVU191
ARM GAS  C:\Temp\ccCTCA0E.s 			page 18


 743 0076 4FF0FF33 		mov	r3, #-1
 744 007a 0422     		movs	r2, #4
 745 007c 0831     		adds	r1, r1, #8
 746 007e 2046     		mov	r0, r4
 747 0080 FFF7FEFF 		bl	HAL_UART_Transmit
 748              	.LVL65:
 219:Core/Src/VL53L1A1_Simulink.c ****     HAL_UART_Transmit(&huart2, (float_t *)  &((TOF_centre .ZoneResult[0]) .Signal    [TOF_centre.Zo
 749              		.loc 1 219 5 is_stmt 1 view .LVU192
 750              		.loc 1 219 111 is_stmt 0 view .LVU193
 751 0084 6B68     		ldr	r3, [r5, #4]
 752              		.loc 1 219 32 view .LVU194
 753 0086 0B33     		adds	r3, r3, #11
 754 0088 05EB8301 		add	r1, r5, r3, lsl #2
 755              		.loc 1 219 5 view .LVU195
 756 008c 4FF0FF33 		mov	r3, #-1
 757 0090 0422     		movs	r2, #4
 758 0092 0831     		adds	r1, r1, #8
 759 0094 2046     		mov	r0, r4
 760 0096 FFF7FEFF 		bl	HAL_UART_Transmit
 761              	.LVL66:
 220:Core/Src/VL53L1A1_Simulink.c ****     HAL_UART_Transmit(&huart2, (uint32_t *) &((TOF_right  .ZoneResult[0]) .Distance  [TOF_right.Zon
 762              		.loc 1 220 5 is_stmt 1 view .LVU196
 763              		.loc 1 220 110 is_stmt 0 view .LVU197
 764 009a 1C4D     		ldr	r5, .L45+16
 765 009c 6968     		ldr	r1, [r5, #4]
 766              		.loc 1 220 127 view .LVU198
 767 009e 0139     		subs	r1, r1, #1
 768              		.loc 1 220 32 view .LVU199
 769 00a0 05EB8101 		add	r1, r5, r1, lsl #2
 770              		.loc 1 220 5 view .LVU200
 771 00a4 4FF0FF33 		mov	r3, #-1
 772 00a8 0422     		movs	r2, #4
 773 00aa 0831     		adds	r1, r1, #8
 774 00ac 2046     		mov	r0, r4
 775 00ae FFF7FEFF 		bl	HAL_UART_Transmit
 776              	.LVL67:
 221:Core/Src/VL53L1A1_Simulink.c ****     HAL_UART_Transmit(&huart2, (float_t *)  &((TOF_right  .ZoneResult[0]) .Ambient   [TOF_right.Zon
 777              		.loc 1 221 5 is_stmt 1 view .LVU201
 778              		.loc 1 221 110 is_stmt 0 view .LVU202
 779 00b2 6968     		ldr	r1, [r5, #4]
 780              		.loc 1 221 32 view .LVU203
 781 00b4 0731     		adds	r1, r1, #7
 782 00b6 05EB8101 		add	r1, r5, r1, lsl #2
 783              		.loc 1 221 5 view .LVU204
 784 00ba 4FF0FF33 		mov	r3, #-1
 785 00be 0422     		movs	r2, #4
 786 00c0 0831     		adds	r1, r1, #8
 787 00c2 2046     		mov	r0, r4
 788 00c4 FFF7FEFF 		bl	HAL_UART_Transmit
 789              	.LVL68:
 222:Core/Src/VL53L1A1_Simulink.c ****     HAL_UART_Transmit(&huart2, (float_t *)  &((TOF_right  .ZoneResult[0]) .Signal    [TOF_right.Zon
 790              		.loc 1 222 5 is_stmt 1 view .LVU205
 791              		.loc 1 222 110 is_stmt 0 view .LVU206
 792 00c8 6B68     		ldr	r3, [r5, #4]
 793              		.loc 1 222 32 view .LVU207
 794 00ca 0B33     		adds	r3, r3, #11
 795 00cc 05EB8301 		add	r1, r5, r3, lsl #2
ARM GAS  C:\Temp\ccCTCA0E.s 			page 19


 796              		.loc 1 222 5 view .LVU208
 797 00d0 4FF0FF33 		mov	r3, #-1
 798 00d4 0422     		movs	r2, #4
 799 00d6 0831     		adds	r1, r1, #8
 800 00d8 2046     		mov	r0, r4
 801 00da FFF7FEFF 		bl	HAL_UART_Transmit
 802              	.LVL69:
 223:Core/Src/VL53L1A1_Simulink.c **** 
 224:Core/Src/VL53L1A1_Simulink.c ****     HAL_UART_Transmit(&huart2, (uint32_t *) &counter          ,4 , HAL_MAX_DELAY);
 803              		.loc 1 224 5 is_stmt 1 view .LVU209
 804 00de 4FF0FF33 		mov	r3, #-1
 805 00e2 0422     		movs	r2, #4
 806 00e4 0A49     		ldr	r1, .L45+20
 807 00e6 2046     		mov	r0, r4
 808 00e8 FFF7FEFF 		bl	HAL_UART_Transmit
 809              	.LVL70:
 225:Core/Src/VL53L1A1_Simulink.c ****     HAL_UART_Transmit(&huart2, (uint8_t *) &terminator       ,3 , HAL_MAX_DELAY);
 810              		.loc 1 225 5 view .LVU210
 811 00ec 4FF0FF33 		mov	r3, #-1
 812 00f0 0322     		movs	r2, #3
 813 00f2 0849     		ldr	r1, .L45+24
 814 00f4 2046     		mov	r0, r4
 815 00f6 FFF7FEFF 		bl	HAL_UART_Transmit
 816              	.LVL71:
 226:Core/Src/VL53L1A1_Simulink.c **** }
 817              		.loc 1 226 1 is_stmt 0 view .LVU211
 818 00fa 38BD     		pop	{r3, r4, r5, pc}
 819              	.L46:
 820              		.align	2
 821              	.L45:
 822 00fc 00000000 		.word	huart2
 823 0100 00000000 		.word	header
 824 0104 00000000 		.word	TOF_left
 825 0108 00000000 		.word	TOF_centre
 826 010c 00000000 		.word	TOF_right
 827 0110 00000000 		.word	counter
 828 0114 00000000 		.word	terminator
 829              		.cfi_endproc
 830              	.LFE144:
 832              		.section	.text.calibrate_VL53L1A1,"ax",%progbits
 833              		.align	1
 834              		.global	calibrate_VL53L1A1
 835              		.syntax unified
 836              		.thumb
 837              		.thumb_func
 839              	calibrate_VL53L1A1:
 840              	.LFB145:
 227:Core/Src/VL53L1A1_Simulink.c **** 
 228:Core/Src/VL53L1A1_Simulink.c **** 
 229:Core/Src/VL53L1A1_Simulink.c **** // functions from BSP/<boards>
 230:Core/Src/VL53L1A1_Simulink.c **** // parameters from BSP/<boards>
 231:Core/Src/VL53L1A1_Simulink.c **** void calibrate_VL53L1A1(){
 841              		.loc 1 231 26 is_stmt 1 view -0
 842              		.cfi_startproc
 843              		@ args = 0, pretend = 0, frame = 0
 844              		@ frame_needed = 0, uses_anonymous_args = 0
 845              		@ link register save eliminated.
ARM GAS  C:\Temp\ccCTCA0E.s 			page 20


 232:Core/Src/VL53L1A1_Simulink.c **** 
 233:Core/Src/VL53L1A1_Simulink.c ****     if (tof_fsr == 1){
 846              		.loc 1 233 5 view .LVU213
 847              		.loc 1 233 17 is_stmt 0 view .LVU214
 848 0000 0A4B     		ldr	r3, .L54
 849 0002 1B68     		ldr	r3, [r3]
 850              		.loc 1 233 8 view .LVU215
 851 0004 012B     		cmp	r3, #1
 852 0006 04D0     		beq	.L51
 853              	.L48:
 234:Core/Src/VL53L1A1_Simulink.c ****         Profile.RangingProfile = RS_MULTI_TARGET_SHORT_RANGE;
 235:Core/Src/VL53L1A1_Simulink.c ****     }
 236:Core/Src/VL53L1A1_Simulink.c ****     if (tof_fsr == 2){
 854              		.loc 1 236 5 is_stmt 1 view .LVU216
 855              		.loc 1 236 8 is_stmt 0 view .LVU217
 856 0008 022B     		cmp	r3, #2
 857 000a 06D0     		beq	.L52
 858              	.L49:
 237:Core/Src/VL53L1A1_Simulink.c ****         Profile.RangingProfile = RS_MULTI_TARGET_MEDIUM_RANGE;
 238:Core/Src/VL53L1A1_Simulink.c ****     }
 239:Core/Src/VL53L1A1_Simulink.c ****     if (tof_fsr == 3){
 859              		.loc 1 239 5 is_stmt 1 view .LVU218
 860              		.loc 1 239 8 is_stmt 0 view .LVU219
 861 000c 032B     		cmp	r3, #3
 862 000e 08D0     		beq	.L53
 863              	.L47:
 240:Core/Src/VL53L1A1_Simulink.c ****         Profile.RangingProfile = RS_MULTI_TARGET_LONG_RANGE;
 241:Core/Src/VL53L1A1_Simulink.c ****     }
 242:Core/Src/VL53L1A1_Simulink.c **** }...
 864              		.loc 1 242 1 view .LVU220
 865 0010 7047     		bx	lr
 866              	.L51:
 234:Core/Src/VL53L1A1_Simulink.c ****         Profile.RangingProfile = RS_MULTI_TARGET_SHORT_RANGE;
 867              		.loc 1 234 9 is_stmt 1 view .LVU221
 234:Core/Src/VL53L1A1_Simulink.c ****         Profile.RangingProfile = RS_MULTI_TARGET_SHORT_RANGE;
 868              		.loc 1 234 32 is_stmt 0 view .LVU222
 869 0012 074A     		ldr	r2, .L54+4
 870 0014 0121     		movs	r1, #1
 871 0016 1160     		str	r1, [r2]
 872 0018 F6E7     		b	.L48
 873              	.L52:
 237:Core/Src/VL53L1A1_Simulink.c ****         Profile.RangingProfile = RS_MULTI_TARGET_MEDIUM_RANGE;
 874              		.loc 1 237 9 is_stmt 1 view .LVU223
 237:Core/Src/VL53L1A1_Simulink.c ****         Profile.RangingProfile = RS_MULTI_TARGET_MEDIUM_RANGE;
 875              		.loc 1 237 32 is_stmt 0 view .LVU224
 876 001a 054A     		ldr	r2, .L54+4
 877 001c 0221     		movs	r1, #2
 878 001e 1160     		str	r1, [r2]
 879 0020 F4E7     		b	.L49
 880              	.L53:
 240:Core/Src/VL53L1A1_Simulink.c ****         Profile.RangingProfile = RS_MULTI_TARGET_LONG_RANGE;
 881              		.loc 1 240 9 is_stmt 1 view .LVU225
 240:Core/Src/VL53L1A1_Simulink.c ****         Profile.RangingProfile = RS_MULTI_TARGET_LONG_RANGE;
 882              		.loc 1 240 32 is_stmt 0 view .LVU226
 883 0022 034B     		ldr	r3, .L54+4
 884 0024 0322     		movs	r2, #3
 885 0026 1A60     		str	r2, [r3]
ARM GAS  C:\Temp\ccCTCA0E.s 			page 21


 886              		.loc 1 242 1 view .LVU227
 887 0028 F2E7     		b	.L47
 888              	.L55:
 889 002a 00BF     		.align	2
 890              	.L54:
 891 002c 00000000 		.word	tof_fsr
 892 0030 00000000 		.word	Profile
 893              		.cfi_endproc
 894              	.LFE145:
 896              		.section	.text.receivedFromSimulink,"ax",%progbits
 897              		.align	1
 898              		.global	receivedFromSimulink
 899              		.syntax unified
 900              		.thumb
 901              		.thumb_func
 903              	receivedFromSimulink:
 904              	.LVL72:
 905              	.LFB143:
 203:Core/Src/VL53L1A1_Simulink.c **** void receivedFromSimulink(uint8_t* bigBuffer){
 906              		.loc 1 203 46 is_stmt 1 view -0
 907              		.cfi_startproc
 908              		@ args = 0, pretend = 0, frame = 0
 909              		@ frame_needed = 0, uses_anonymous_args = 0
 203:Core/Src/VL53L1A1_Simulink.c **** void receivedFromSimulink(uint8_t* bigBuffer){
 910              		.loc 1 203 46 is_stmt 0 view .LVU229
 911 0000 10B5     		push	{r4, lr}
 912              		.cfi_def_cfa_offset 8
 913              		.cfi_offset 4, -8
 914              		.cfi_offset 14, -4
 915 0002 0446     		mov	r4, r0
 204:Core/Src/VL53L1A1_Simulink.c ****     tof_fsr = bytesToInt32(bigBuffer[3  + 0] , bigBuffer[3  + 1] , bigBuffer[3  + 2] ,  bigBuffer[3
 916              		.loc 1 204 5 is_stmt 1 view .LVU230
 204:Core/Src/VL53L1A1_Simulink.c ****     tof_fsr = bytesToInt32(bigBuffer[3  + 0] , bigBuffer[3  + 1] , bigBuffer[3  + 2] ,  bigBuffer[3
 917              		.loc 1 204 15 is_stmt 0 view .LVU231
 918 0004 8379     		ldrb	r3, [r0, #6]	@ zero_extendqisi2
 919 0006 4279     		ldrb	r2, [r0, #5]	@ zero_extendqisi2
 920 0008 0179     		ldrb	r1, [r0, #4]	@ zero_extendqisi2
 921 000a C078     		ldrb	r0, [r0, #3]	@ zero_extendqisi2
 922              	.LVL73:
 204:Core/Src/VL53L1A1_Simulink.c ****     tof_fsr = bytesToInt32(bigBuffer[3  + 0] , bigBuffer[3  + 1] , bigBuffer[3  + 2] ,  bigBuffer[3
 923              		.loc 1 204 15 view .LVU232
 924 000c FFF7FEFF 		bl	bytesToInt32
 925              	.LVL74:
 204:Core/Src/VL53L1A1_Simulink.c ****     tof_fsr = bytesToInt32(bigBuffer[3  + 0] , bigBuffer[3  + 1] , bigBuffer[3  + 2] ,  bigBuffer[3
 926              		.loc 1 204 13 view .LVU233
 927 0010 064B     		ldr	r3, .L58
 928 0012 1860     		str	r0, [r3]
 205:Core/Src/VL53L1A1_Simulink.c ****     tof_odr = bytesToFloat(bigBuffer[3  + 4] , bigBuffer[3  + 5] , bigBuffer[3  + 6] ,  bigBuffer[3
 929              		.loc 1 205 5 is_stmt 1 view .LVU234
 205:Core/Src/VL53L1A1_Simulink.c ****     tof_odr = bytesToFloat(bigBuffer[3  + 4] , bigBuffer[3  + 5] , bigBuffer[3  + 6] ,  bigBuffer[3
 930              		.loc 1 205 15 is_stmt 0 view .LVU235
 931 0014 A37A     		ldrb	r3, [r4, #10]	@ zero_extendqisi2
 932 0016 627A     		ldrb	r2, [r4, #9]	@ zero_extendqisi2
 933 0018 217A     		ldrb	r1, [r4, #8]	@ zero_extendqisi2
 934 001a E079     		ldrb	r0, [r4, #7]	@ zero_extendqisi2
 935 001c FFF7FEFF 		bl	bytesToFloat
 936              	.LVL75:
ARM GAS  C:\Temp\ccCTCA0E.s 			page 22


 205:Core/Src/VL53L1A1_Simulink.c ****     tof_odr = bytesToFloat(bigBuffer[3  + 4] , bigBuffer[3  + 5] , bigBuffer[3  + 6] ,  bigBuffer[3
 937              		.loc 1 205 13 view .LVU236
 938 0020 034B     		ldr	r3, .L58+4
 939 0022 83ED000A 		vstr.32	s0, [r3]
 207:Core/Src/VL53L1A1_Simulink.c ****     calibrate_VL53L1A1();
 940              		.loc 1 207 5 is_stmt 1 view .LVU237
 941 0026 FFF7FEFF 		bl	calibrate_VL53L1A1
 942              	.LVL76:
 208:Core/Src/VL53L1A1_Simulink.c **** }
 943              		.loc 1 208 1 is_stmt 0 view .LVU238
 944 002a 10BD     		pop	{r4, pc}
 945              	.LVL77:
 946              	.L59:
 208:Core/Src/VL53L1A1_Simulink.c **** }
 947              		.loc 1 208 1 view .LVU239
 948              		.align	2
 949              	.L58:
 950 002c 00000000 		.word	tof_fsr
 951 0030 00000000 		.word	tof_odr
 952              		.cfi_endproc
 953              	.LFE143:
 955              		.global	buff_counter
 956              		.section	.bss.buff_counter,"aw",%nobits
 959              	buff_counter:
 960 0000 00       		.space	1
 961              		.global	temp_TOF_right
 962              		.section	.bss.temp_TOF_right,"aw",%nobits
 963              		.align	2
 966              	temp_TOF_right:
 967 0000 00000000 		.space	72
 967      00000000 
 967      00000000 
 967      00000000 
 967      00000000 
 968              		.global	temp_TOF_centre
 969              		.section	.bss.temp_TOF_centre,"aw",%nobits
 970              		.align	2
 973              	temp_TOF_centre:
 974 0000 00000000 		.space	72
 974      00000000 
 974      00000000 
 974      00000000 
 974      00000000 
 975              		.global	temp_TOF_left
 976              		.section	.bss.temp_TOF_left,"aw",%nobits
 977              		.align	2
 980              	temp_TOF_left:
 981 0000 00000000 		.space	72
 981      00000000 
 981      00000000 
 981      00000000 
 981      00000000 
 982              		.global	sub_TOF_right
 983              		.section	.bss.sub_TOF_right,"aw",%nobits
 984              		.align	2
 987              	sub_TOF_right:
 988 0000 00000000 		.space	72
ARM GAS  C:\Temp\ccCTCA0E.s 			page 23


 988      00000000 
 988      00000000 
 988      00000000 
 988      00000000 
 989              		.global	sub_TOF_centre
 990              		.section	.bss.sub_TOF_centre,"aw",%nobits
 991              		.align	2
 994              	sub_TOF_centre:
 995 0000 00000000 		.space	72
 995      00000000 
 995      00000000 
 995      00000000 
 995      00000000 
 996              		.global	sub_TOF_left
 997              		.section	.bss.sub_TOF_left,"aw",%nobits
 998              		.align	2
 1001              	sub_TOF_left:
 1002 0000 00000000 		.space	72
 1002      00000000 
 1002      00000000 
 1002      00000000 
 1002      00000000 
 1003              		.global	TOF_right_array
 1004              		.section	.bss.TOF_right_array,"aw",%nobits
 1005              		.align	2
 1008              	TOF_right_array:
 1009 0000 00000000 		.space	4320
 1009      00000000 
 1009      00000000 
 1009      00000000 
 1009      00000000 
 1010              		.global	TOF_centre_array
 1011              		.section	.bss.TOF_centre_array,"aw",%nobits
 1012              		.align	2
 1015              	TOF_centre_array:
 1016 0000 00000000 		.space	4320
 1016      00000000 
 1016      00000000 
 1016      00000000 
 1016      00000000 
 1017              		.global	TOF_left_array
 1018              		.section	.bss.TOF_left_array,"aw",%nobits
 1019              		.align	2
 1022              	TOF_left_array:
 1023 0000 00000000 		.space	4320
 1023      00000000 
 1023      00000000 
 1023      00000000 
 1023      00000000 
 1024              		.global	L1_BUFFER_SIZE
 1025              		.section	.rodata.L1_BUFFER_SIZE,"a"
 1028              	L1_BUFFER_SIZE:
 1029 0000 3C       		.byte	60
 1030              		.global	ToF_EventDetected
 1031              		.section	.bss.ToF_EventDetected,"aw",%nobits
 1034              	ToF_EventDetected:
 1035 0000 00       		.space	1
ARM GAS  C:\Temp\ccCTCA0E.s 			page 24


 1036              		.section	.bss.ToF_Present,"aw",%nobits
 1037              		.align	2
 1040              	ToF_Present:
 1041 0000 000000   		.space	3
 1042              		.section	.bss.status,"aw",%nobits
 1043              		.align	2
 1046              	status:
 1047 0000 00000000 		.space	4
 1048              		.global	ROI
 1049              		.section	.bss.ROI,"aw",%nobits
 1050              		.align	2
 1053              	ROI:
 1054 0000 00000000 		.space	4
 1055              		.global	tof_odr
 1056              		.section	.bss.tof_odr,"aw",%nobits
 1057              		.align	2
 1060              	tof_odr:
 1061 0000 00000000 		.space	4
 1062              		.global	tof_fsr
 1063              		.section	.bss.tof_fsr,"aw",%nobits
 1064              		.align	2
 1067              	tof_fsr:
 1068 0000 00000000 		.space	4
 1069              		.global	terminator
 1070              		.section	.data.terminator,"aw"
 1071              		.align	2
 1074              	terminator:
 1075 0000 415F4A00 		.word	4874049
 1076              		.global	header
 1077              		.section	.data.header,"aw"
 1078              		.align	2
 1081              	header:
 1082 0000 4A5F4100 		.word	4284234
 1083              		.text
 1084              	.Letext0:
 1085              		.file 2 "c:\\users\\jessejabezarendse\\appdata\\roaming\\code\\user\\globalstorage\\bmd.stm32-for-
 1086              		.file 3 "c:\\users\\jessejabezarendse\\appdata\\roaming\\code\\user\\globalstorage\\bmd.stm32-for-
 1087              		.file 4 "Drivers/CMSIS/Device/ST/STM32F4xx/Include/stm32f411xe.h"
 1088              		.file 5 "Drivers/STM32F4xx_HAL_Driver/Inc/stm32f4xx_hal_def.h"
 1089              		.file 6 "Drivers/STM32F4xx_HAL_Driver/Inc/stm32f4xx_hal_dma.h"
 1090              		.file 7 "Drivers/STM32F4xx_HAL_Driver/Inc/stm32f4xx_hal_uart.h"
 1091              		.file 8 "c:\\users\\jessejabezarendse\\appdata\\roaming\\code\\user\\globalstorage\\bmd.stm32-for-
 1092              		.file 9 "Drivers/BSP/Components/vl53l1cb/modules/vl53l1_def.h"
 1093              		.file 10 "Drivers/BSP/53L1A2/53l1a2_ranging_sensor.h"
 1094              		.file 11 "<built-in>"
ARM GAS  C:\Temp\ccCTCA0E.s 			page 25

