ARM GAS  C:\Temp\cc6vBPoU.s 			page 1


   1              		.cpu cortex-m4
   2              		.arch armv7e-m
   3              		.fpu fpv4-sp-d16
   4              		.eabi_attribute 27, 1
   5              		.eabi_attribute 28, 1
   6              		.eabi_attribute 20, 1
   7              		.eabi_attribute 21, 1
   8              		.eabi_attribute 23, 3
   9              		.eabi_attribute 24, 1
  10              		.eabi_attribute 25, 1
  11              		.eabi_attribute 26, 1
  12              		.eabi_attribute 30, 1
  13              		.eabi_attribute 34, 1
  14              		.eabi_attribute 18, 4
  15              		.file	"vl53l1cb.c"
  16              		.text
  17              	.Ltext0:
  18              		.cfi_sections	.debug_frame
  19              		.file 1 "Drivers/BSP/Components/vl53l1cb/vl53l1cb.c"
  20              		.section	.text.VL53L1CB_DeInit,"ax",%progbits
  21              		.align	1
  22              		.global	VL53L1CB_DeInit
  23              		.syntax unified
  24              		.thumb
  25              		.thumb_func
  27              	VL53L1CB_DeInit:
  28              	.LVL0:
  29              	.LFB5:
   1:Drivers/BSP/Components/vl53l1cb/vl53l1cb.c **** /**
   2:Drivers/BSP/Components/vl53l1cb/vl53l1cb.c ****   ******************************************************************************
   3:Drivers/BSP/Components/vl53l1cb/vl53l1cb.c ****   * @file    vl53l1cb.c
   4:Drivers/BSP/Components/vl53l1cb/vl53l1cb.c ****   * @author  IMG SW Application Team
   5:Drivers/BSP/Components/vl53l1cb/vl53l1cb.c ****   * @brief   This file provides the VL53L1CB ranging sensor component driver
   6:Drivers/BSP/Components/vl53l1cb/vl53l1cb.c ****   ******************************************************************************
   7:Drivers/BSP/Components/vl53l1cb/vl53l1cb.c ****   * @attention
   8:Drivers/BSP/Components/vl53l1cb/vl53l1cb.c ****   *
   9:Drivers/BSP/Components/vl53l1cb/vl53l1cb.c ****   * Copyright (c) 2022 STMicroelectronics.
  10:Drivers/BSP/Components/vl53l1cb/vl53l1cb.c ****   * All rights reserved.
  11:Drivers/BSP/Components/vl53l1cb/vl53l1cb.c ****   *
  12:Drivers/BSP/Components/vl53l1cb/vl53l1cb.c ****   * This software is licensed under terms that can be found in the LICENSE file
  13:Drivers/BSP/Components/vl53l1cb/vl53l1cb.c ****   * in the root directory of this software component.
  14:Drivers/BSP/Components/vl53l1cb/vl53l1cb.c ****   * If no LICENSE file comes with this software, it is provided AS-IS.
  15:Drivers/BSP/Components/vl53l1cb/vl53l1cb.c ****   *
  16:Drivers/BSP/Components/vl53l1cb/vl53l1cb.c ****   ******************************************************************************
  17:Drivers/BSP/Components/vl53l1cb/vl53l1cb.c ****   */
  18:Drivers/BSP/Components/vl53l1cb/vl53l1cb.c **** 
  19:Drivers/BSP/Components/vl53l1cb/vl53l1cb.c **** /* Includes ------------------------------------------------------------------*/
  20:Drivers/BSP/Components/vl53l1cb/vl53l1cb.c **** #include "vl53l1cb.h"
  21:Drivers/BSP/Components/vl53l1cb/vl53l1cb.c **** #include "vl53l1_platform.h"
  22:Drivers/BSP/Components/vl53l1cb/vl53l1cb.c **** #include "vl53l1_api.h"
  23:Drivers/BSP/Components/vl53l1cb/vl53l1cb.c **** 
  24:Drivers/BSP/Components/vl53l1cb/vl53l1cb.c **** /** @addtogroup BSP
  25:Drivers/BSP/Components/vl53l1cb/vl53l1cb.c ****   * @{
  26:Drivers/BSP/Components/vl53l1cb/vl53l1cb.c ****   */
  27:Drivers/BSP/Components/vl53l1cb/vl53l1cb.c **** 
  28:Drivers/BSP/Components/vl53l1cb/vl53l1cb.c **** /** @addtogroup Components
  29:Drivers/BSP/Components/vl53l1cb/vl53l1cb.c ****   * @{
ARM GAS  C:\Temp\cc6vBPoU.s 			page 2


  30:Drivers/BSP/Components/vl53l1cb/vl53l1cb.c ****   */
  31:Drivers/BSP/Components/vl53l1cb/vl53l1cb.c **** 
  32:Drivers/BSP/Components/vl53l1cb/vl53l1cb.c **** /** @addtogroup VL53L1CB
  33:Drivers/BSP/Components/vl53l1cb/vl53l1cb.c ****   * @brief     This file provides a set of functions needed to drive the
  34:Drivers/BSP/Components/vl53l1cb/vl53l1cb.c ****   *            VL53L1CB ranging sensor.
  35:Drivers/BSP/Components/vl53l1cb/vl53l1cb.c ****   * @{
  36:Drivers/BSP/Components/vl53l1cb/vl53l1cb.c ****   */
  37:Drivers/BSP/Components/vl53l1cb/vl53l1cb.c **** 
  38:Drivers/BSP/Components/vl53l1cb/vl53l1cb.c **** /** @defgroup VL53L1CB_Private_TypesDefinitions Private Types Definitions
  39:Drivers/BSP/Components/vl53l1cb/vl53l1cb.c ****   * @{
  40:Drivers/BSP/Components/vl53l1cb/vl53l1cb.c ****   */
  41:Drivers/BSP/Components/vl53l1cb/vl53l1cb.c **** 
  42:Drivers/BSP/Components/vl53l1cb/vl53l1cb.c **** #define VL53L1CB_POLL_TIMEOUT  (0xFFFFU)
  43:Drivers/BSP/Components/vl53l1cb/vl53l1cb.c **** #define UNUSED(x) (void)(x)
  44:Drivers/BSP/Components/vl53l1cb/vl53l1cb.c **** 
  45:Drivers/BSP/Components/vl53l1cb/vl53l1cb.c **** /**
  46:Drivers/BSP/Components/vl53l1cb/vl53l1cb.c ****   * @}
  47:Drivers/BSP/Components/vl53l1cb/vl53l1cb.c ****   */
  48:Drivers/BSP/Components/vl53l1cb/vl53l1cb.c **** /** @defgroup VL53L1CB_Private_Variables Private Variables
  49:Drivers/BSP/Components/vl53l1cb/vl53l1cb.c ****   * @{
  50:Drivers/BSP/Components/vl53l1cb/vl53l1cb.c ****   */
  51:Drivers/BSP/Components/vl53l1cb/vl53l1cb.c **** 
  52:Drivers/BSP/Components/vl53l1cb/vl53l1cb.c **** VL53L1CB_RANGING_SENSOR_Drv_t VL53L1CB_RANGING_SENSOR_Driver =
  53:Drivers/BSP/Components/vl53l1cb/vl53l1cb.c **** {
  54:Drivers/BSP/Components/vl53l1cb/vl53l1cb.c ****   VL53L1CB_Init,
  55:Drivers/BSP/Components/vl53l1cb/vl53l1cb.c ****   VL53L1CB_DeInit,
  56:Drivers/BSP/Components/vl53l1cb/vl53l1cb.c ****   VL53L1CB_ReadID,
  57:Drivers/BSP/Components/vl53l1cb/vl53l1cb.c ****   VL53L1CB_GetCapabilities,
  58:Drivers/BSP/Components/vl53l1cb/vl53l1cb.c ****   VL53L1CB_ConfigProfile,
  59:Drivers/BSP/Components/vl53l1cb/vl53l1cb.c ****   VL53L1CB_ConfigROI,
  60:Drivers/BSP/Components/vl53l1cb/vl53l1cb.c ****   VL53L1CB_ConfigIT,
  61:Drivers/BSP/Components/vl53l1cb/vl53l1cb.c ****   VL53L1CB_GetDistance,
  62:Drivers/BSP/Components/vl53l1cb/vl53l1cb.c ****   VL53L1CB_Start,
  63:Drivers/BSP/Components/vl53l1cb/vl53l1cb.c ****   VL53L1CB_Stop,
  64:Drivers/BSP/Components/vl53l1cb/vl53l1cb.c ****   VL53L1CB_SetAddress,
  65:Drivers/BSP/Components/vl53l1cb/vl53l1cb.c ****   VL53L1CB_GetAddress,
  66:Drivers/BSP/Components/vl53l1cb/vl53l1cb.c ****   VL53L1CB_SetPowerMode,
  67:Drivers/BSP/Components/vl53l1cb/vl53l1cb.c ****   VL53L1CB_GetPowerMode
  68:Drivers/BSP/Components/vl53l1cb/vl53l1cb.c **** };
  69:Drivers/BSP/Components/vl53l1cb/vl53l1cb.c **** 
  70:Drivers/BSP/Components/vl53l1cb/vl53l1cb.c **** /**
  71:Drivers/BSP/Components/vl53l1cb/vl53l1cb.c ****   * @}
  72:Drivers/BSP/Components/vl53l1cb/vl53l1cb.c ****   */
  73:Drivers/BSP/Components/vl53l1cb/vl53l1cb.c **** 
  74:Drivers/BSP/Components/vl53l1cb/vl53l1cb.c **** 
  75:Drivers/BSP/Components/vl53l1cb/vl53l1cb.c **** /** @defgroup VL53L1CB_Private_Functions_Prototypes Private Functions Prototypes
  76:Drivers/BSP/Components/vl53l1cb/vl53l1cb.c ****   * @{
  77:Drivers/BSP/Components/vl53l1cb/vl53l1cb.c ****   */
  78:Drivers/BSP/Components/vl53l1cb/vl53l1cb.c **** static int32_t vl53l1cb_poll_for_measurement(VL53L1CB_Object_t *pObj, uint32_t Timeout);
  79:Drivers/BSP/Components/vl53l1cb/vl53l1cb.c **** static int32_t vl53l1cb_get_result(VL53L1CB_Object_t *pObj, VL53L1CB_Result_t *pResult);
  80:Drivers/BSP/Components/vl53l1cb/vl53l1cb.c **** 
  81:Drivers/BSP/Components/vl53l1cb/vl53l1cb.c **** /**
  82:Drivers/BSP/Components/vl53l1cb/vl53l1cb.c ****   * @}
  83:Drivers/BSP/Components/vl53l1cb/vl53l1cb.c ****   */
  84:Drivers/BSP/Components/vl53l1cb/vl53l1cb.c **** 
  85:Drivers/BSP/Components/vl53l1cb/vl53l1cb.c **** /**
  86:Drivers/BSP/Components/vl53l1cb/vl53l1cb.c ****   * @brief Initializes the vl53l1cb context object.
ARM GAS  C:\Temp\cc6vBPoU.s 			page 3


  87:Drivers/BSP/Components/vl53l1cb/vl53l1cb.c ****   * @param pObj    vl53l1cb context object.
  88:Drivers/BSP/Components/vl53l1cb/vl53l1cb.c ****   * @param pIO     BSP IO struct.
  89:Drivers/BSP/Components/vl53l1cb/vl53l1cb.c ****   * @retval VL53L1CB status
  90:Drivers/BSP/Components/vl53l1cb/vl53l1cb.c ****   */
  91:Drivers/BSP/Components/vl53l1cb/vl53l1cb.c **** int32_t VL53L1CB_RegisterBusIO(VL53L1CB_Object_t *pObj, VL53L1CB_IO_t *pIO)
  92:Drivers/BSP/Components/vl53l1cb/vl53l1cb.c **** {
  93:Drivers/BSP/Components/vl53l1cb/vl53l1cb.c ****   int32_t ret;
  94:Drivers/BSP/Components/vl53l1cb/vl53l1cb.c **** 
  95:Drivers/BSP/Components/vl53l1cb/vl53l1cb.c ****   if (pObj == NULL)
  96:Drivers/BSP/Components/vl53l1cb/vl53l1cb.c ****   {
  97:Drivers/BSP/Components/vl53l1cb/vl53l1cb.c ****     ret = VL53L1CB_INVALID_PARAM;
  98:Drivers/BSP/Components/vl53l1cb/vl53l1cb.c ****   }
  99:Drivers/BSP/Components/vl53l1cb/vl53l1cb.c ****   else
 100:Drivers/BSP/Components/vl53l1cb/vl53l1cb.c ****   {
 101:Drivers/BSP/Components/vl53l1cb/vl53l1cb.c ****     pObj->IO.Init      = pIO->Init;
 102:Drivers/BSP/Components/vl53l1cb/vl53l1cb.c ****     pObj->IO.DeInit    = pIO->DeInit;
 103:Drivers/BSP/Components/vl53l1cb/vl53l1cb.c ****     pObj->IO.Address   = pIO->Address;
 104:Drivers/BSP/Components/vl53l1cb/vl53l1cb.c ****     pObj->IO.WriteReg  = pIO->WriteReg;
 105:Drivers/BSP/Components/vl53l1cb/vl53l1cb.c ****     pObj->IO.ReadReg   = pIO->ReadReg;
 106:Drivers/BSP/Components/vl53l1cb/vl53l1cb.c ****     pObj->IO.GetTick   = pIO->GetTick;
 107:Drivers/BSP/Components/vl53l1cb/vl53l1cb.c **** 
 108:Drivers/BSP/Components/vl53l1cb/vl53l1cb.c ****     if (pObj->IO.Init != NULL)
 109:Drivers/BSP/Components/vl53l1cb/vl53l1cb.c ****     {
 110:Drivers/BSP/Components/vl53l1cb/vl53l1cb.c ****       ret = pObj->IO.Init();
 111:Drivers/BSP/Components/vl53l1cb/vl53l1cb.c ****     }
 112:Drivers/BSP/Components/vl53l1cb/vl53l1cb.c ****     else
 113:Drivers/BSP/Components/vl53l1cb/vl53l1cb.c ****     {
 114:Drivers/BSP/Components/vl53l1cb/vl53l1cb.c ****       ret = VL53L1CB_ERROR;
 115:Drivers/BSP/Components/vl53l1cb/vl53l1cb.c ****     }
 116:Drivers/BSP/Components/vl53l1cb/vl53l1cb.c ****   }
 117:Drivers/BSP/Components/vl53l1cb/vl53l1cb.c **** 
 118:Drivers/BSP/Components/vl53l1cb/vl53l1cb.c ****   return ret;
 119:Drivers/BSP/Components/vl53l1cb/vl53l1cb.c **** }
 120:Drivers/BSP/Components/vl53l1cb/vl53l1cb.c **** 
 121:Drivers/BSP/Components/vl53l1cb/vl53l1cb.c **** /**
 122:Drivers/BSP/Components/vl53l1cb/vl53l1cb.c ****   * @brief Initializes the vl53l1cb.
 123:Drivers/BSP/Components/vl53l1cb/vl53l1cb.c ****   * @param pObj    vl53l1cb context object.
 124:Drivers/BSP/Components/vl53l1cb/vl53l1cb.c ****   * @retval VL53L1CB status
 125:Drivers/BSP/Components/vl53l1cb/vl53l1cb.c ****   */
 126:Drivers/BSP/Components/vl53l1cb/vl53l1cb.c **** int32_t VL53L1CB_Init(VL53L1CB_Object_t *pObj)
 127:Drivers/BSP/Components/vl53l1cb/vl53l1cb.c **** {
 128:Drivers/BSP/Components/vl53l1cb/vl53l1cb.c ****   int32_t ret;
 129:Drivers/BSP/Components/vl53l1cb/vl53l1cb.c **** 
 130:Drivers/BSP/Components/vl53l1cb/vl53l1cb.c ****   if (pObj->IsInitialized != 0U)
 131:Drivers/BSP/Components/vl53l1cb/vl53l1cb.c ****   {
 132:Drivers/BSP/Components/vl53l1cb/vl53l1cb.c ****     ret =  VL53L1CB_ERROR;
 133:Drivers/BSP/Components/vl53l1cb/vl53l1cb.c ****   }
 134:Drivers/BSP/Components/vl53l1cb/vl53l1cb.c ****   else if (VL53L1_WaitDeviceBooted(pObj) != VL53L1_ERROR_NONE)
 135:Drivers/BSP/Components/vl53l1cb/vl53l1cb.c ****   {
 136:Drivers/BSP/Components/vl53l1cb/vl53l1cb.c ****     ret =  VL53L1CB_ERROR;
 137:Drivers/BSP/Components/vl53l1cb/vl53l1cb.c ****   }
 138:Drivers/BSP/Components/vl53l1cb/vl53l1cb.c ****   else if (VL53L1_DataInit(pObj) != VL53L1_ERROR_NONE)
 139:Drivers/BSP/Components/vl53l1cb/vl53l1cb.c ****   {
 140:Drivers/BSP/Components/vl53l1cb/vl53l1cb.c ****     ret = VL53L1CB_ERROR;
 141:Drivers/BSP/Components/vl53l1cb/vl53l1cb.c ****   }
 142:Drivers/BSP/Components/vl53l1cb/vl53l1cb.c ****   else if (VL53L1_StaticInit(pObj) != VL53L1_ERROR_NONE)
 143:Drivers/BSP/Components/vl53l1cb/vl53l1cb.c ****   {
ARM GAS  C:\Temp\cc6vBPoU.s 			page 4


 144:Drivers/BSP/Components/vl53l1cb/vl53l1cb.c ****     ret = VL53L1CB_ERROR;
 145:Drivers/BSP/Components/vl53l1cb/vl53l1cb.c ****   }
 146:Drivers/BSP/Components/vl53l1cb/vl53l1cb.c ****   else if (VL53L1_PerformRefSpadManagement(pObj) != VL53L1_ERROR_NONE)
 147:Drivers/BSP/Components/vl53l1cb/vl53l1cb.c ****   {
 148:Drivers/BSP/Components/vl53l1cb/vl53l1cb.c ****     ret = VL53L1CB_ERROR;
 149:Drivers/BSP/Components/vl53l1cb/vl53l1cb.c ****   }
 150:Drivers/BSP/Components/vl53l1cb/vl53l1cb.c ****   else
 151:Drivers/BSP/Components/vl53l1cb/vl53l1cb.c ****   {
 152:Drivers/BSP/Components/vl53l1cb/vl53l1cb.c ****     pObj->IsRanging = 0;
 153:Drivers/BSP/Components/vl53l1cb/vl53l1cb.c ****     pObj->IsBlocking = 0;
 154:Drivers/BSP/Components/vl53l1cb/vl53l1cb.c ****     pObj->IsContinuous = 0;
 155:Drivers/BSP/Components/vl53l1cb/vl53l1cb.c ****     pObj->IsAmbientEnabled = 0;
 156:Drivers/BSP/Components/vl53l1cb/vl53l1cb.c ****     pObj->IsSignalEnabled = 0;
 157:Drivers/BSP/Components/vl53l1cb/vl53l1cb.c ****     pObj->IsInitialized = 1;
 158:Drivers/BSP/Components/vl53l1cb/vl53l1cb.c ****     ret = VL53L1CB_OK;
 159:Drivers/BSP/Components/vl53l1cb/vl53l1cb.c ****   }
 160:Drivers/BSP/Components/vl53l1cb/vl53l1cb.c **** 
 161:Drivers/BSP/Components/vl53l1cb/vl53l1cb.c ****   return ret;
 162:Drivers/BSP/Components/vl53l1cb/vl53l1cb.c **** }
 163:Drivers/BSP/Components/vl53l1cb/vl53l1cb.c **** 
 164:Drivers/BSP/Components/vl53l1cb/vl53l1cb.c **** /**
 165:Drivers/BSP/Components/vl53l1cb/vl53l1cb.c ****   * @brief Deinitializes the vl53l1cb.
 166:Drivers/BSP/Components/vl53l1cb/vl53l1cb.c ****   * @param pObj    vl53l1cb context object.
 167:Drivers/BSP/Components/vl53l1cb/vl53l1cb.c ****   * @retval VL53L1CB status
 168:Drivers/BSP/Components/vl53l1cb/vl53l1cb.c ****   */
 169:Drivers/BSP/Components/vl53l1cb/vl53l1cb.c **** int32_t VL53L1CB_DeInit(VL53L1CB_Object_t *pObj)
 170:Drivers/BSP/Components/vl53l1cb/vl53l1cb.c **** {
  30              		.loc 1 170 1 view -0
  31              		.cfi_startproc
  32              		@ args = 0, pretend = 0, frame = 0
  33              		@ frame_needed = 0, uses_anonymous_args = 0
 171:Drivers/BSP/Components/vl53l1cb/vl53l1cb.c ****   int32_t ret = VL53L1CB_ERROR;
  34              		.loc 1 171 3 view .LVU1
 172:Drivers/BSP/Components/vl53l1cb/vl53l1cb.c **** 
 173:Drivers/BSP/Components/vl53l1cb/vl53l1cb.c ****   if (pObj->IsInitialized == 1U)
  35              		.loc 1 173 3 view .LVU2
  36              		.loc 1 173 11 is_stmt 0 view .LVU3
  37 0000 00F5C043 		add	r3, r0, #24576
  38 0004 93F8703F 		ldrb	r3, [r3, #3952]	@ zero_extendqisi2
  39              		.loc 1 173 6 view .LVU4
  40 0008 012B     		cmp	r3, #1
  41 000a 09D1     		bne	.L3
 170:Drivers/BSP/Components/vl53l1cb/vl53l1cb.c ****   int32_t ret = VL53L1CB_ERROR;
  42              		.loc 1 170 1 view .LVU5
  43 000c 10B5     		push	{r4, lr}
  44              		.cfi_def_cfa_offset 8
  45              		.cfi_offset 4, -8
  46              		.cfi_offset 14, -4
  47 000e 0446     		mov	r4, r0
 174:Drivers/BSP/Components/vl53l1cb/vl53l1cb.c ****   {
 175:Drivers/BSP/Components/vl53l1cb/vl53l1cb.c ****     /* De-initialize the vl53l1cb interface */
 176:Drivers/BSP/Components/vl53l1cb/vl53l1cb.c ****     if (pObj->IO.DeInit() != 0)
  48              		.loc 1 176 5 is_stmt 1 view .LVU6
  49              		.loc 1 176 17 is_stmt 0 view .LVU7
  50 0010 4368     		ldr	r3, [r0, #4]
  51              		.loc 1 176 9 view .LVU8
  52 0012 9847     		blx	r3
ARM GAS  C:\Temp\cc6vBPoU.s 			page 5


  53              	.LVL1:
  54              		.loc 1 176 8 view .LVU9
  55 0014 38B9     		cbnz	r0, .L4
 177:Drivers/BSP/Components/vl53l1cb/vl53l1cb.c ****     {
 178:Drivers/BSP/Components/vl53l1cb/vl53l1cb.c ****       ret = VL53L1CB_ERROR;
 179:Drivers/BSP/Components/vl53l1cb/vl53l1cb.c ****     }
 180:Drivers/BSP/Components/vl53l1cb/vl53l1cb.c ****     else
 181:Drivers/BSP/Components/vl53l1cb/vl53l1cb.c ****     {
 182:Drivers/BSP/Components/vl53l1cb/vl53l1cb.c ****       ret = VL53L1CB_OK;
  56              		.loc 1 182 7 is_stmt 1 view .LVU10
  57              	.LVL2:
 183:Drivers/BSP/Components/vl53l1cb/vl53l1cb.c ****       pObj->IsInitialized = 0;
  58              		.loc 1 183 7 view .LVU11
  59              		.loc 1 183 27 is_stmt 0 view .LVU12
  60 0016 04F5C044 		add	r4, r4, #24576
  61              	.LVL3:
  62              		.loc 1 183 27 view .LVU13
  63 001a 84F8700F 		strb	r0, [r4, #3952]
  64              	.LVL4:
  65              	.L1:
 184:Drivers/BSP/Components/vl53l1cb/vl53l1cb.c ****     }
 185:Drivers/BSP/Components/vl53l1cb/vl53l1cb.c ****   }
 186:Drivers/BSP/Components/vl53l1cb/vl53l1cb.c **** 
 187:Drivers/BSP/Components/vl53l1cb/vl53l1cb.c ****   return ret;
 188:Drivers/BSP/Components/vl53l1cb/vl53l1cb.c **** }
  66              		.loc 1 188 1 view .LVU14
  67 001e 10BD     		pop	{r4, pc}
  68              	.LVL5:
  69              	.L3:
  70              		.cfi_def_cfa_offset 0
  71              		.cfi_restore 4
  72              		.cfi_restore 14
 171:Drivers/BSP/Components/vl53l1cb/vl53l1cb.c **** 
  73              		.loc 1 171 11 view .LVU15
  74 0020 4FF0FF30 		mov	r0, #-1
  75              	.LVL6:
  76              		.loc 1 188 1 view .LVU16
  77 0024 7047     		bx	lr
  78              	.LVL7:
  79              	.L4:
  80              		.cfi_def_cfa_offset 8
  81              		.cfi_offset 4, -8
  82              		.cfi_offset 14, -4
 178:Drivers/BSP/Components/vl53l1cb/vl53l1cb.c ****     }
  83              		.loc 1 178 11 view .LVU17
  84 0026 4FF0FF30 		mov	r0, #-1
 187:Drivers/BSP/Components/vl53l1cb/vl53l1cb.c **** }
  85              		.loc 1 187 3 is_stmt 1 view .LVU18
 187:Drivers/BSP/Components/vl53l1cb/vl53l1cb.c **** }
  86              		.loc 1 187 10 is_stmt 0 view .LVU19
  87 002a F8E7     		b	.L1
  88              		.cfi_endproc
  89              	.LFE5:
  91              		.section	.text.VL53L1CB_GetCapabilities,"ax",%progbits
  92              		.align	1
  93              		.global	VL53L1CB_GetCapabilities
  94              		.syntax unified
ARM GAS  C:\Temp\cc6vBPoU.s 			page 6


  95              		.thumb
  96              		.thumb_func
  98              	VL53L1CB_GetCapabilities:
  99              	.LVL8:
 100              	.LFB7:
 189:Drivers/BSP/Components/vl53l1cb/vl53l1cb.c **** 
 190:Drivers/BSP/Components/vl53l1cb/vl53l1cb.c **** /**
 191:Drivers/BSP/Components/vl53l1cb/vl53l1cb.c ****   * @brief Read the vl53l1cb device ID.
 192:Drivers/BSP/Components/vl53l1cb/vl53l1cb.c ****   * @param pObj    vl53l1cb context object.
 193:Drivers/BSP/Components/vl53l1cb/vl53l1cb.c ****   * @param pId    Pointer to the device ID.
 194:Drivers/BSP/Components/vl53l1cb/vl53l1cb.c ****   * @retval VL53L1CB status
 195:Drivers/BSP/Components/vl53l1cb/vl53l1cb.c ****   */
 196:Drivers/BSP/Components/vl53l1cb/vl53l1cb.c **** int32_t VL53L1CB_ReadID(VL53L1CB_Object_t *pObj, uint32_t *pId)
 197:Drivers/BSP/Components/vl53l1cb/vl53l1cb.c **** {
 198:Drivers/BSP/Components/vl53l1cb/vl53l1cb.c ****   int32_t ret;
 199:Drivers/BSP/Components/vl53l1cb/vl53l1cb.c **** 
 200:Drivers/BSP/Components/vl53l1cb/vl53l1cb.c ****   if ((pObj == NULL) || (pId == NULL))
 201:Drivers/BSP/Components/vl53l1cb/vl53l1cb.c ****   {
 202:Drivers/BSP/Components/vl53l1cb/vl53l1cb.c ****     ret = VL53L1CB_INVALID_PARAM;
 203:Drivers/BSP/Components/vl53l1cb/vl53l1cb.c ****   }
 204:Drivers/BSP/Components/vl53l1cb/vl53l1cb.c ****   else
 205:Drivers/BSP/Components/vl53l1cb/vl53l1cb.c ****   {
 206:Drivers/BSP/Components/vl53l1cb/vl53l1cb.c ****     *pId = 0;
 207:Drivers/BSP/Components/vl53l1cb/vl53l1cb.c ****     ret = VL53L1_RdWord(pObj, VL53L1CB_ID_REG, (uint16_t *) pId);
 208:Drivers/BSP/Components/vl53l1cb/vl53l1cb.c ****   }
 209:Drivers/BSP/Components/vl53l1cb/vl53l1cb.c **** 
 210:Drivers/BSP/Components/vl53l1cb/vl53l1cb.c ****   return ret;
 211:Drivers/BSP/Components/vl53l1cb/vl53l1cb.c **** }
 212:Drivers/BSP/Components/vl53l1cb/vl53l1cb.c **** 
 213:Drivers/BSP/Components/vl53l1cb/vl53l1cb.c **** /**
 214:Drivers/BSP/Components/vl53l1cb/vl53l1cb.c ****   * @brief Get the vl53l1cb capabilities.
 215:Drivers/BSP/Components/vl53l1cb/vl53l1cb.c ****   * @param pObj    vl53l1cb context object.
 216:Drivers/BSP/Components/vl53l1cb/vl53l1cb.c ****   * @param pCap    Pointer to the vl53l1cb capabilities.
 217:Drivers/BSP/Components/vl53l1cb/vl53l1cb.c ****   * @retval VL53L1CB status
 218:Drivers/BSP/Components/vl53l1cb/vl53l1cb.c ****   */
 219:Drivers/BSP/Components/vl53l1cb/vl53l1cb.c **** int32_t VL53L1CB_GetCapabilities(VL53L1CB_Object_t *pObj, VL53L1CB_Capabilities_t *pCap)
 220:Drivers/BSP/Components/vl53l1cb/vl53l1cb.c **** {
 101              		.loc 1 220 1 is_stmt 1 view -0
 102              		.cfi_startproc
 103              		@ args = 0, pretend = 0, frame = 0
 104              		@ frame_needed = 0, uses_anonymous_args = 0
 105              		@ link register save eliminated.
 221:Drivers/BSP/Components/vl53l1cb/vl53l1cb.c ****   int32_t ret;
 106              		.loc 1 221 3 view .LVU21
 222:Drivers/BSP/Components/vl53l1cb/vl53l1cb.c **** 
 223:Drivers/BSP/Components/vl53l1cb/vl53l1cb.c ****   if ((pObj == NULL) || (pCap == NULL))
 107              		.loc 1 223 3 view .LVU22
 108              		.loc 1 223 6 is_stmt 0 view .LVU23
 109 0000 40B1     		cbz	r0, .L11
 110              		.loc 1 223 22 discriminator 1 view .LVU24
 111 0002 51B1     		cbz	r1, .L12
 224:Drivers/BSP/Components/vl53l1cb/vl53l1cb.c ****   {
 225:Drivers/BSP/Components/vl53l1cb/vl53l1cb.c ****     ret = VL53L1CB_INVALID_PARAM;
 226:Drivers/BSP/Components/vl53l1cb/vl53l1cb.c ****   }
 227:Drivers/BSP/Components/vl53l1cb/vl53l1cb.c ****   else
 228:Drivers/BSP/Components/vl53l1cb/vl53l1cb.c ****   {
 229:Drivers/BSP/Components/vl53l1cb/vl53l1cb.c ****     pCap->NumberOfZones = 1;
ARM GAS  C:\Temp\cc6vBPoU.s 			page 7


 112              		.loc 1 229 5 is_stmt 1 view .LVU25
 113              		.loc 1 229 25 is_stmt 0 view .LVU26
 114 0004 0123     		movs	r3, #1
 115 0006 0B60     		str	r3, [r1]
 230:Drivers/BSP/Components/vl53l1cb/vl53l1cb.c ****     pCap->MaxNumberOfTargetsPerZone = VL53L1CB_NB_TARGET_PER_ZONE;
 116              		.loc 1 230 5 is_stmt 1 view .LVU27
 117              		.loc 1 230 37 is_stmt 0 view .LVU28
 118 0008 0422     		movs	r2, #4
 119 000a 4A60     		str	r2, [r1, #4]
 231:Drivers/BSP/Components/vl53l1cb/vl53l1cb.c ****     pCap->CustomROI = 1;
 120              		.loc 1 231 5 is_stmt 1 view .LVU29
 121              		.loc 1 231 21 is_stmt 0 view .LVU30
 122 000c 8B60     		str	r3, [r1, #8]
 232:Drivers/BSP/Components/vl53l1cb/vl53l1cb.c ****     pCap->ThresholdDetection = 0;
 123              		.loc 1 232 5 is_stmt 1 view .LVU31
 124              		.loc 1 232 30 is_stmt 0 view .LVU32
 125 000e 0020     		movs	r0, #0
 126              	.LVL9:
 127              		.loc 1 232 30 view .LVU33
 128 0010 C860     		str	r0, [r1, #12]
 233:Drivers/BSP/Components/vl53l1cb/vl53l1cb.c **** 
 234:Drivers/BSP/Components/vl53l1cb/vl53l1cb.c ****     ret = VL53L1CB_OK;
 129              		.loc 1 234 5 is_stmt 1 view .LVU34
 130              	.LVL10:
 131              		.loc 1 234 5 is_stmt 0 view .LVU35
 132 0012 7047     		bx	lr
 133              	.LVL11:
 134              	.L11:
 225:Drivers/BSP/Components/vl53l1cb/vl53l1cb.c ****   }
 135              		.loc 1 225 9 view .LVU36
 136 0014 6FF00100 		mvn	r0, #1
 137              	.LVL12:
 225:Drivers/BSP/Components/vl53l1cb/vl53l1cb.c ****   }
 138              		.loc 1 225 9 view .LVU37
 139 0018 7047     		bx	lr
 140              	.LVL13:
 141              	.L12:
 225:Drivers/BSP/Components/vl53l1cb/vl53l1cb.c ****   }
 142              		.loc 1 225 9 view .LVU38
 143 001a 6FF00100 		mvn	r0, #1
 144              	.LVL14:
 235:Drivers/BSP/Components/vl53l1cb/vl53l1cb.c ****   }
 236:Drivers/BSP/Components/vl53l1cb/vl53l1cb.c **** 
 237:Drivers/BSP/Components/vl53l1cb/vl53l1cb.c ****   return ret;
 145              		.loc 1 237 3 is_stmt 1 view .LVU39
 238:Drivers/BSP/Components/vl53l1cb/vl53l1cb.c **** }
 146              		.loc 1 238 1 is_stmt 0 view .LVU40
 147 001e 7047     		bx	lr
 148              		.cfi_endproc
 149              	.LFE7:
 151              		.section	.text.VL53L1CB_ConfigIT,"ax",%progbits
 152              		.align	1
 153              		.global	VL53L1CB_ConfigIT
 154              		.syntax unified
 155              		.thumb
 156              		.thumb_func
 158              	VL53L1CB_ConfigIT:
ARM GAS  C:\Temp\cc6vBPoU.s 			page 8


 159              	.LVL15:
 160              	.LFB10:
 239:Drivers/BSP/Components/vl53l1cb/vl53l1cb.c **** 
 240:Drivers/BSP/Components/vl53l1cb/vl53l1cb.c **** /**
 241:Drivers/BSP/Components/vl53l1cb/vl53l1cb.c ****   * @brief Set the ranging configuration profile.
 242:Drivers/BSP/Components/vl53l1cb/vl53l1cb.c ****   * @param pObj    vl53l1cb context object.
 243:Drivers/BSP/Components/vl53l1cb/vl53l1cb.c ****   * @param pConfig    Pointer to the new configuration profile to be applied.
 244:Drivers/BSP/Components/vl53l1cb/vl53l1cb.c ****   * @note for VL53L1CB the profile corresponds to the distance modes.
 245:Drivers/BSP/Components/vl53l1cb/vl53l1cb.c ****   * @retval VL53L1CB status
 246:Drivers/BSP/Components/vl53l1cb/vl53l1cb.c ****   */
 247:Drivers/BSP/Components/vl53l1cb/vl53l1cb.c **** int32_t VL53L1CB_ConfigProfile(VL53L1CB_Object_t *pObj, VL53L1CB_ProfileConfig_t *pConfig)
 248:Drivers/BSP/Components/vl53l1cb/vl53l1cb.c **** {
 249:Drivers/BSP/Components/vl53l1cb/vl53l1cb.c ****   int32_t ret;
 250:Drivers/BSP/Components/vl53l1cb/vl53l1cb.c ****   uint8_t ranging_profile;
 251:Drivers/BSP/Components/vl53l1cb/vl53l1cb.c **** 
 252:Drivers/BSP/Components/vl53l1cb/vl53l1cb.c ****   if ((pObj != NULL) && (pConfig != NULL))
 253:Drivers/BSP/Components/vl53l1cb/vl53l1cb.c ****   {
 254:Drivers/BSP/Components/vl53l1cb/vl53l1cb.c ****     ranging_profile = pConfig->RangingProfile;
 255:Drivers/BSP/Components/vl53l1cb/vl53l1cb.c ****   }
 256:Drivers/BSP/Components/vl53l1cb/vl53l1cb.c ****   else
 257:Drivers/BSP/Components/vl53l1cb/vl53l1cb.c ****   {
 258:Drivers/BSP/Components/vl53l1cb/vl53l1cb.c ****     return VL53L1CB_INVALID_PARAM;
 259:Drivers/BSP/Components/vl53l1cb/vl53l1cb.c ****   }
 260:Drivers/BSP/Components/vl53l1cb/vl53l1cb.c **** 
 261:Drivers/BSP/Components/vl53l1cb/vl53l1cb.c ****   if ((ranging_profile != VL53L1CB_PROFILE_SHORT) &&
 262:Drivers/BSP/Components/vl53l1cb/vl53l1cb.c ****       (ranging_profile != VL53L1CB_PROFILE_MEDIUM) &&
 263:Drivers/BSP/Components/vl53l1cb/vl53l1cb.c ****       (ranging_profile != VL53L1CB_PROFILE_LONG))
 264:Drivers/BSP/Components/vl53l1cb/vl53l1cb.c ****   {
 265:Drivers/BSP/Components/vl53l1cb/vl53l1cb.c ****     ret = VL53L1CB_INVALID_PARAM;
 266:Drivers/BSP/Components/vl53l1cb/vl53l1cb.c ****   }
 267:Drivers/BSP/Components/vl53l1cb/vl53l1cb.c ****   else if (VL53L1_SetDistanceMode(pObj, ranging_profile) != VL53L1_ERROR_NONE)
 268:Drivers/BSP/Components/vl53l1cb/vl53l1cb.c ****   {
 269:Drivers/BSP/Components/vl53l1cb/vl53l1cb.c ****     ret = VL53L1CB_ERROR;
 270:Drivers/BSP/Components/vl53l1cb/vl53l1cb.c ****   }
 271:Drivers/BSP/Components/vl53l1cb/vl53l1cb.c ****   else if (VL53L1_SetMeasurementTimingBudgetMicroSeconds(
 272:Drivers/BSP/Components/vl53l1cb/vl53l1cb.c ****              pObj, (1000U * pConfig->TimingBudget)) != VL53L1_ERROR_NONE)
 273:Drivers/BSP/Components/vl53l1cb/vl53l1cb.c ****   {
 274:Drivers/BSP/Components/vl53l1cb/vl53l1cb.c ****     ret = VL53L1CB_ERROR;
 275:Drivers/BSP/Components/vl53l1cb/vl53l1cb.c ****   }
 276:Drivers/BSP/Components/vl53l1cb/vl53l1cb.c ****   else
 277:Drivers/BSP/Components/vl53l1cb/vl53l1cb.c ****   {
 278:Drivers/BSP/Components/vl53l1cb/vl53l1cb.c ****     pObj->IsAmbientEnabled = (pConfig->EnableAmbient == 0U) ? 0U : 1U;
 279:Drivers/BSP/Components/vl53l1cb/vl53l1cb.c ****     pObj->IsSignalEnabled = (pConfig->EnableSignal == 0U) ? 0U : 1U;
 280:Drivers/BSP/Components/vl53l1cb/vl53l1cb.c **** 
 281:Drivers/BSP/Components/vl53l1cb/vl53l1cb.c ****     ret = VL53L1CB_OK;
 282:Drivers/BSP/Components/vl53l1cb/vl53l1cb.c ****   }
 283:Drivers/BSP/Components/vl53l1cb/vl53l1cb.c **** 
 284:Drivers/BSP/Components/vl53l1cb/vl53l1cb.c ****   return ret;
 285:Drivers/BSP/Components/vl53l1cb/vl53l1cb.c **** }
 286:Drivers/BSP/Components/vl53l1cb/vl53l1cb.c **** 
 287:Drivers/BSP/Components/vl53l1cb/vl53l1cb.c **** /**
 288:Drivers/BSP/Components/vl53l1cb/vl53l1cb.c ****   * @brief Configure the Region of Interest of the vl53l1cb.
 289:Drivers/BSP/Components/vl53l1cb/vl53l1cb.c ****   * @param pObj    vl53l1cb context object.
 290:Drivers/BSP/Components/vl53l1cb/vl53l1cb.c ****   * @param pROIConfig    Pointer to the ROI configuration struct.
 291:Drivers/BSP/Components/vl53l1cb/vl53l1cb.c ****   * @note Minimal ROI size is 4x4 spads.
 292:Drivers/BSP/Components/vl53l1cb/vl53l1cb.c ****   * @retval VL53L1CB status
 293:Drivers/BSP/Components/vl53l1cb/vl53l1cb.c ****   */
ARM GAS  C:\Temp\cc6vBPoU.s 			page 9


 294:Drivers/BSP/Components/vl53l1cb/vl53l1cb.c **** int32_t VL53L1CB_ConfigROI(VL53L1CB_Object_t *pObj, VL53L1CB_ROIConfig_t *pROIConfig)
 295:Drivers/BSP/Components/vl53l1cb/vl53l1cb.c **** {
 296:Drivers/BSP/Components/vl53l1cb/vl53l1cb.c ****   int32_t ret;
 297:Drivers/BSP/Components/vl53l1cb/vl53l1cb.c ****   VL53L1_RoiConfig_t roi_settings;
 298:Drivers/BSP/Components/vl53l1cb/vl53l1cb.c **** 
 299:Drivers/BSP/Components/vl53l1cb/vl53l1cb.c ****   if ((pObj == NULL) || (pROIConfig == NULL))
 300:Drivers/BSP/Components/vl53l1cb/vl53l1cb.c ****   {
 301:Drivers/BSP/Components/vl53l1cb/vl53l1cb.c ****     ret = VL53L1CB_INVALID_PARAM;
 302:Drivers/BSP/Components/vl53l1cb/vl53l1cb.c ****   }
 303:Drivers/BSP/Components/vl53l1cb/vl53l1cb.c ****   else
 304:Drivers/BSP/Components/vl53l1cb/vl53l1cb.c ****   {
 305:Drivers/BSP/Components/vl53l1cb/vl53l1cb.c ****     roi_settings.NumberOfRoi = 1;
 306:Drivers/BSP/Components/vl53l1cb/vl53l1cb.c ****     roi_settings.UserRois[0].BotRightX = pROIConfig->BotRightX;
 307:Drivers/BSP/Components/vl53l1cb/vl53l1cb.c ****     roi_settings.UserRois[0].BotRightY = pROIConfig->BotRightY;
 308:Drivers/BSP/Components/vl53l1cb/vl53l1cb.c ****     roi_settings.UserRois[0].TopLeftX = pROIConfig->TopLeftX;
 309:Drivers/BSP/Components/vl53l1cb/vl53l1cb.c ****     roi_settings.UserRois[0].TopLeftY = pROIConfig->TopLeftY;
 310:Drivers/BSP/Components/vl53l1cb/vl53l1cb.c **** 
 311:Drivers/BSP/Components/vl53l1cb/vl53l1cb.c ****     if (VL53L1_SetROI(pObj, &roi_settings) != VL53L1_ERROR_NONE)
 312:Drivers/BSP/Components/vl53l1cb/vl53l1cb.c ****     {
 313:Drivers/BSP/Components/vl53l1cb/vl53l1cb.c ****       ret = VL53L1CB_ERROR;
 314:Drivers/BSP/Components/vl53l1cb/vl53l1cb.c ****     }
 315:Drivers/BSP/Components/vl53l1cb/vl53l1cb.c ****     else
 316:Drivers/BSP/Components/vl53l1cb/vl53l1cb.c ****     {
 317:Drivers/BSP/Components/vl53l1cb/vl53l1cb.c ****       ret = VL53L1CB_OK;
 318:Drivers/BSP/Components/vl53l1cb/vl53l1cb.c ****     }
 319:Drivers/BSP/Components/vl53l1cb/vl53l1cb.c ****   }
 320:Drivers/BSP/Components/vl53l1cb/vl53l1cb.c **** 
 321:Drivers/BSP/Components/vl53l1cb/vl53l1cb.c ****   return ret;
 322:Drivers/BSP/Components/vl53l1cb/vl53l1cb.c **** }
 323:Drivers/BSP/Components/vl53l1cb/vl53l1cb.c **** 
 324:Drivers/BSP/Components/vl53l1cb/vl53l1cb.c **** /**
 325:Drivers/BSP/Components/vl53l1cb/vl53l1cb.c ****   * @brief Configure the IT event generation parameters.
 326:Drivers/BSP/Components/vl53l1cb/vl53l1cb.c ****   * @param pObj    vl53l1cb context object.
 327:Drivers/BSP/Components/vl53l1cb/vl53l1cb.c ****   * @param pITConfig    Pointer to the IT configuration struct.
 328:Drivers/BSP/Components/vl53l1cb/vl53l1cb.c ****   * @warning This device does not support this feature.
 329:Drivers/BSP/Components/vl53l1cb/vl53l1cb.c ****   * @retval VL53L1CB status
 330:Drivers/BSP/Components/vl53l1cb/vl53l1cb.c ****   */
 331:Drivers/BSP/Components/vl53l1cb/vl53l1cb.c **** int32_t VL53L1CB_ConfigIT(VL53L1CB_Object_t *pObj, VL53L1CB_ITConfig_t *pITConfig)
 332:Drivers/BSP/Components/vl53l1cb/vl53l1cb.c **** {
 161              		.loc 1 332 1 is_stmt 1 view -0
 162              		.cfi_startproc
 163              		@ args = 0, pretend = 0, frame = 0
 164              		@ frame_needed = 0, uses_anonymous_args = 0
 165              		@ link register save eliminated.
 333:Drivers/BSP/Components/vl53l1cb/vl53l1cb.c ****   UNUSED(pObj);
 166              		.loc 1 333 3 view .LVU42
 334:Drivers/BSP/Components/vl53l1cb/vl53l1cb.c ****   UNUSED(pITConfig);
 167              		.loc 1 334 3 view .LVU43
 335:Drivers/BSP/Components/vl53l1cb/vl53l1cb.c ****   return VL53L1CB_NOT_IMPLEMENTED;
 168              		.loc 1 335 3 view .LVU44
 336:Drivers/BSP/Components/vl53l1cb/vl53l1cb.c **** }
 169              		.loc 1 336 1 is_stmt 0 view .LVU45
 170 0000 6FF00300 		mvn	r0, #3
 171              	.LVL16:
 172              		.loc 1 336 1 view .LVU46
 173 0004 7047     		bx	lr
 174              		.cfi_endproc
ARM GAS  C:\Temp\cc6vBPoU.s 			page 10


 175              	.LFE10:
 177              		.section	.text.VL53L1CB_GetAddress,"ax",%progbits
 178              		.align	1
 179              		.global	VL53L1CB_GetAddress
 180              		.syntax unified
 181              		.thumb
 182              		.thumb_func
 184              	VL53L1CB_GetAddress:
 185              	.LVL17:
 186              	.LFB15:
 337:Drivers/BSP/Components/vl53l1cb/vl53l1cb.c **** 
 338:Drivers/BSP/Components/vl53l1cb/vl53l1cb.c **** /**
 339:Drivers/BSP/Components/vl53l1cb/vl53l1cb.c ****   * @brief Get the last distance measurement information.
 340:Drivers/BSP/Components/vl53l1cb/vl53l1cb.c ****   * @param pObj    vl53l1cb context object.
 341:Drivers/BSP/Components/vl53l1cb/vl53l1cb.c ****   * @param pResult    Pointer to the result struct.
 342:Drivers/BSP/Components/vl53l1cb/vl53l1cb.c ****   * @retval VL53L1CB status
 343:Drivers/BSP/Components/vl53l1cb/vl53l1cb.c ****   */
 344:Drivers/BSP/Components/vl53l1cb/vl53l1cb.c **** int32_t VL53L1CB_GetDistance(VL53L1CB_Object_t *pObj, VL53L1CB_Result_t *pResult)
 345:Drivers/BSP/Components/vl53l1cb/vl53l1cb.c **** {
 346:Drivers/BSP/Components/vl53l1cb/vl53l1cb.c ****   int32_t ret;
 347:Drivers/BSP/Components/vl53l1cb/vl53l1cb.c **** 
 348:Drivers/BSP/Components/vl53l1cb/vl53l1cb.c ****   ret = VL53L1CB_OK;
 349:Drivers/BSP/Components/vl53l1cb/vl53l1cb.c ****   if ((pObj == NULL) || (pResult == NULL))
 350:Drivers/BSP/Components/vl53l1cb/vl53l1cb.c ****   {
 351:Drivers/BSP/Components/vl53l1cb/vl53l1cb.c ****     ret = VL53L1CB_INVALID_PARAM;
 352:Drivers/BSP/Components/vl53l1cb/vl53l1cb.c ****   }
 353:Drivers/BSP/Components/vl53l1cb/vl53l1cb.c ****   else if (pObj->IsRanging == 0U)
 354:Drivers/BSP/Components/vl53l1cb/vl53l1cb.c ****   {
 355:Drivers/BSP/Components/vl53l1cb/vl53l1cb.c ****     ret = VL53L1CB_ERROR;
 356:Drivers/BSP/Components/vl53l1cb/vl53l1cb.c ****   }
 357:Drivers/BSP/Components/vl53l1cb/vl53l1cb.c ****   if (ret == VL53L1CB_OK)
 358:Drivers/BSP/Components/vl53l1cb/vl53l1cb.c ****   {
 359:Drivers/BSP/Components/vl53l1cb/vl53l1cb.c ****     if (pObj->IsBlocking == 1U)
 360:Drivers/BSP/Components/vl53l1cb/vl53l1cb.c ****     {
 361:Drivers/BSP/Components/vl53l1cb/vl53l1cb.c ****       ret = vl53l1cb_poll_for_measurement(pObj, VL53L1CB_POLL_TIMEOUT);
 362:Drivers/BSP/Components/vl53l1cb/vl53l1cb.c ****     }
 363:Drivers/BSP/Components/vl53l1cb/vl53l1cb.c ****     else
 364:Drivers/BSP/Components/vl53l1cb/vl53l1cb.c ****     {
 365:Drivers/BSP/Components/vl53l1cb/vl53l1cb.c ****       ret = vl53l1cb_poll_for_measurement(pObj, 0U);
 366:Drivers/BSP/Components/vl53l1cb/vl53l1cb.c ****     }
 367:Drivers/BSP/Components/vl53l1cb/vl53l1cb.c ****     /* a new measure is available if no error is returned by poll function */
 368:Drivers/BSP/Components/vl53l1cb/vl53l1cb.c ****     if (ret == VL53L1CB_OK)
 369:Drivers/BSP/Components/vl53l1cb/vl53l1cb.c ****     {
 370:Drivers/BSP/Components/vl53l1cb/vl53l1cb.c ****       /* retrieve measurements and fill result structure */
 371:Drivers/BSP/Components/vl53l1cb/vl53l1cb.c ****       if (vl53l1cb_get_result(pObj, pResult) != VL53L1CB_OK)
 372:Drivers/BSP/Components/vl53l1cb/vl53l1cb.c ****       {
 373:Drivers/BSP/Components/vl53l1cb/vl53l1cb.c ****         ret = VL53L1CB_ERROR;
 374:Drivers/BSP/Components/vl53l1cb/vl53l1cb.c ****       }
 375:Drivers/BSP/Components/vl53l1cb/vl53l1cb.c ****       else if (pObj->IsContinuous == 1U)
 376:Drivers/BSP/Components/vl53l1cb/vl53l1cb.c ****       {
 377:Drivers/BSP/Components/vl53l1cb/vl53l1cb.c ****         /* trigger new measurement if device configured in continuous mode */
 378:Drivers/BSP/Components/vl53l1cb/vl53l1cb.c ****         ret = (int32_t)VL53L1_ClearInterruptAndStartMeasurement(pObj);
 379:Drivers/BSP/Components/vl53l1cb/vl53l1cb.c ****       }
 380:Drivers/BSP/Components/vl53l1cb/vl53l1cb.c ****       else
 381:Drivers/BSP/Components/vl53l1cb/vl53l1cb.c ****       {
 382:Drivers/BSP/Components/vl53l1cb/vl53l1cb.c ****         ret = VL53L1CB_OK;
 383:Drivers/BSP/Components/vl53l1cb/vl53l1cb.c ****       }
ARM GAS  C:\Temp\cc6vBPoU.s 			page 11


 384:Drivers/BSP/Components/vl53l1cb/vl53l1cb.c ****     }
 385:Drivers/BSP/Components/vl53l1cb/vl53l1cb.c ****   }
 386:Drivers/BSP/Components/vl53l1cb/vl53l1cb.c ****   
 387:Drivers/BSP/Components/vl53l1cb/vl53l1cb.c ****   return ret;
 388:Drivers/BSP/Components/vl53l1cb/vl53l1cb.c **** }
 389:Drivers/BSP/Components/vl53l1cb/vl53l1cb.c **** 
 390:Drivers/BSP/Components/vl53l1cb/vl53l1cb.c **** /**
 391:Drivers/BSP/Components/vl53l1cb/vl53l1cb.c ****   * @brief Start ranging.
 392:Drivers/BSP/Components/vl53l1cb/vl53l1cb.c ****   * @param pObj    vl53l1cb context object.
 393:Drivers/BSP/Components/vl53l1cb/vl53l1cb.c ****   * @param Mode        The desired ranging mode.
 394:Drivers/BSP/Components/vl53l1cb/vl53l1cb.c ****   * @retval VL53L1CB status
 395:Drivers/BSP/Components/vl53l1cb/vl53l1cb.c ****   */
 396:Drivers/BSP/Components/vl53l1cb/vl53l1cb.c **** int32_t VL53L1CB_Start(VL53L1CB_Object_t *pObj, uint32_t Mode)
 397:Drivers/BSP/Components/vl53l1cb/vl53l1cb.c **** {
 398:Drivers/BSP/Components/vl53l1cb/vl53l1cb.c ****   int32_t ret;
 399:Drivers/BSP/Components/vl53l1cb/vl53l1cb.c **** 
 400:Drivers/BSP/Components/vl53l1cb/vl53l1cb.c ****   if (pObj == NULL)
 401:Drivers/BSP/Components/vl53l1cb/vl53l1cb.c ****   {
 402:Drivers/BSP/Components/vl53l1cb/vl53l1cb.c ****     ret = VL53L1CB_INVALID_PARAM;
 403:Drivers/BSP/Components/vl53l1cb/vl53l1cb.c ****   }
 404:Drivers/BSP/Components/vl53l1cb/vl53l1cb.c ****   else if (pObj->IsRanging == 1U)
 405:Drivers/BSP/Components/vl53l1cb/vl53l1cb.c ****   {
 406:Drivers/BSP/Components/vl53l1cb/vl53l1cb.c ****     ret = VL53L1CB_ERROR;
 407:Drivers/BSP/Components/vl53l1cb/vl53l1cb.c ****   }
 408:Drivers/BSP/Components/vl53l1cb/vl53l1cb.c ****   else if (VL53L1_StartMeasurement(pObj) == VL53L1_ERROR_NONE)
 409:Drivers/BSP/Components/vl53l1cb/vl53l1cb.c ****   {
 410:Drivers/BSP/Components/vl53l1cb/vl53l1cb.c ****     pObj->IsRanging = 1;
 411:Drivers/BSP/Components/vl53l1cb/vl53l1cb.c ****     ret = VL53L1CB_OK;
 412:Drivers/BSP/Components/vl53l1cb/vl53l1cb.c **** 
 413:Drivers/BSP/Components/vl53l1cb/vl53l1cb.c ****     ret = (int32_t)VL53L1_ClearInterruptAndStartMeasurement(pObj);
 414:Drivers/BSP/Components/vl53l1cb/vl53l1cb.c **** 
 415:Drivers/BSP/Components/vl53l1cb/vl53l1cb.c ****     switch (Mode)
 416:Drivers/BSP/Components/vl53l1cb/vl53l1cb.c ****     {
 417:Drivers/BSP/Components/vl53l1cb/vl53l1cb.c ****     case VL53L1CB_MODE_BLOCKING_CONTINUOUS:
 418:Drivers/BSP/Components/vl53l1cb/vl53l1cb.c ****       pObj->IsContinuous = 1U;
 419:Drivers/BSP/Components/vl53l1cb/vl53l1cb.c ****       pObj->IsBlocking = 1U;
 420:Drivers/BSP/Components/vl53l1cb/vl53l1cb.c ****       break;
 421:Drivers/BSP/Components/vl53l1cb/vl53l1cb.c **** 
 422:Drivers/BSP/Components/vl53l1cb/vl53l1cb.c ****     case VL53L1CB_MODE_BLOCKING_ONESHOT:
 423:Drivers/BSP/Components/vl53l1cb/vl53l1cb.c ****       pObj->IsContinuous = 0U;
 424:Drivers/BSP/Components/vl53l1cb/vl53l1cb.c ****       pObj->IsBlocking = 1U;
 425:Drivers/BSP/Components/vl53l1cb/vl53l1cb.c ****       break;
 426:Drivers/BSP/Components/vl53l1cb/vl53l1cb.c **** 
 427:Drivers/BSP/Components/vl53l1cb/vl53l1cb.c ****     case VL53L1CB_MODE_ASYNC_CONTINUOUS:
 428:Drivers/BSP/Components/vl53l1cb/vl53l1cb.c ****       pObj->IsContinuous = 1U;
 429:Drivers/BSP/Components/vl53l1cb/vl53l1cb.c ****       pObj->IsBlocking = 0U;
 430:Drivers/BSP/Components/vl53l1cb/vl53l1cb.c ****       break;
 431:Drivers/BSP/Components/vl53l1cb/vl53l1cb.c **** 
 432:Drivers/BSP/Components/vl53l1cb/vl53l1cb.c ****     case VL53L1CB_MODE_ASYNC_ONESHOT:
 433:Drivers/BSP/Components/vl53l1cb/vl53l1cb.c ****       pObj->IsContinuous = 0U;
 434:Drivers/BSP/Components/vl53l1cb/vl53l1cb.c ****       pObj->IsBlocking = 0U;
 435:Drivers/BSP/Components/vl53l1cb/vl53l1cb.c ****       break;
 436:Drivers/BSP/Components/vl53l1cb/vl53l1cb.c **** 
 437:Drivers/BSP/Components/vl53l1cb/vl53l1cb.c ****     default:
 438:Drivers/BSP/Components/vl53l1cb/vl53l1cb.c ****       pObj->IsRanging = 0U;
 439:Drivers/BSP/Components/vl53l1cb/vl53l1cb.c ****       ret = VL53L1CB_INVALID_PARAM;
 440:Drivers/BSP/Components/vl53l1cb/vl53l1cb.c ****       break;
ARM GAS  C:\Temp\cc6vBPoU.s 			page 12


 441:Drivers/BSP/Components/vl53l1cb/vl53l1cb.c ****     }
 442:Drivers/BSP/Components/vl53l1cb/vl53l1cb.c ****   }
 443:Drivers/BSP/Components/vl53l1cb/vl53l1cb.c ****   else
 444:Drivers/BSP/Components/vl53l1cb/vl53l1cb.c ****   {
 445:Drivers/BSP/Components/vl53l1cb/vl53l1cb.c ****     ret = VL53L1CB_ERROR;
 446:Drivers/BSP/Components/vl53l1cb/vl53l1cb.c ****   }
 447:Drivers/BSP/Components/vl53l1cb/vl53l1cb.c **** 
 448:Drivers/BSP/Components/vl53l1cb/vl53l1cb.c ****   return ret;
 449:Drivers/BSP/Components/vl53l1cb/vl53l1cb.c **** }
 450:Drivers/BSP/Components/vl53l1cb/vl53l1cb.c **** 
 451:Drivers/BSP/Components/vl53l1cb/vl53l1cb.c **** /**
 452:Drivers/BSP/Components/vl53l1cb/vl53l1cb.c ****   * @brief Stop ranging.
 453:Drivers/BSP/Components/vl53l1cb/vl53l1cb.c ****   * @param pObj    vl53l1cb context object.
 454:Drivers/BSP/Components/vl53l1cb/vl53l1cb.c ****   * @retval VL53L1CB status
 455:Drivers/BSP/Components/vl53l1cb/vl53l1cb.c ****   */
 456:Drivers/BSP/Components/vl53l1cb/vl53l1cb.c **** int32_t VL53L1CB_Stop(VL53L1CB_Object_t *pObj)
 457:Drivers/BSP/Components/vl53l1cb/vl53l1cb.c **** {
 458:Drivers/BSP/Components/vl53l1cb/vl53l1cb.c ****   int32_t ret;
 459:Drivers/BSP/Components/vl53l1cb/vl53l1cb.c **** 
 460:Drivers/BSP/Components/vl53l1cb/vl53l1cb.c ****   if (pObj == NULL)
 461:Drivers/BSP/Components/vl53l1cb/vl53l1cb.c ****   {
 462:Drivers/BSP/Components/vl53l1cb/vl53l1cb.c ****     ret = VL53L1CB_INVALID_PARAM;
 463:Drivers/BSP/Components/vl53l1cb/vl53l1cb.c ****   }
 464:Drivers/BSP/Components/vl53l1cb/vl53l1cb.c ****   else if (pObj->IsRanging == 0U)
 465:Drivers/BSP/Components/vl53l1cb/vl53l1cb.c ****   {
 466:Drivers/BSP/Components/vl53l1cb/vl53l1cb.c **** 	  /* ranging not started */
 467:Drivers/BSP/Components/vl53l1cb/vl53l1cb.c **** 	  ret = VL53L1CB_ERROR;
 468:Drivers/BSP/Components/vl53l1cb/vl53l1cb.c ****   }
 469:Drivers/BSP/Components/vl53l1cb/vl53l1cb.c ****   else if (VL53L1_StopMeasurement(pObj) == VL53L1_ERROR_NONE)
 470:Drivers/BSP/Components/vl53l1cb/vl53l1cb.c ****   {
 471:Drivers/BSP/Components/vl53l1cb/vl53l1cb.c ****     pObj->IsRanging = 0U;
 472:Drivers/BSP/Components/vl53l1cb/vl53l1cb.c ****     ret = VL53L1CB_OK;
 473:Drivers/BSP/Components/vl53l1cb/vl53l1cb.c ****   }
 474:Drivers/BSP/Components/vl53l1cb/vl53l1cb.c ****   else
 475:Drivers/BSP/Components/vl53l1cb/vl53l1cb.c ****   {
 476:Drivers/BSP/Components/vl53l1cb/vl53l1cb.c ****     ret = VL53L1CB_ERROR;
 477:Drivers/BSP/Components/vl53l1cb/vl53l1cb.c ****   }
 478:Drivers/BSP/Components/vl53l1cb/vl53l1cb.c **** 
 479:Drivers/BSP/Components/vl53l1cb/vl53l1cb.c ****   return ret;
 480:Drivers/BSP/Components/vl53l1cb/vl53l1cb.c **** }
 481:Drivers/BSP/Components/vl53l1cb/vl53l1cb.c **** 
 482:Drivers/BSP/Components/vl53l1cb/vl53l1cb.c **** /**
 483:Drivers/BSP/Components/vl53l1cb/vl53l1cb.c ****   * @brief Set the I2C address of the device.
 484:Drivers/BSP/Components/vl53l1cb/vl53l1cb.c ****   * @param pObj    vl53l1cb context object.
 485:Drivers/BSP/Components/vl53l1cb/vl53l1cb.c ****   * @param Address     New I2C address.
 486:Drivers/BSP/Components/vl53l1cb/vl53l1cb.c ****   * @retval VL53L1CB status
 487:Drivers/BSP/Components/vl53l1cb/vl53l1cb.c ****   */
 488:Drivers/BSP/Components/vl53l1cb/vl53l1cb.c **** int32_t VL53L1CB_SetAddress(VL53L1CB_Object_t *pObj, uint32_t Address)
 489:Drivers/BSP/Components/vl53l1cb/vl53l1cb.c **** {
 490:Drivers/BSP/Components/vl53l1cb/vl53l1cb.c ****   int32_t ret;
 491:Drivers/BSP/Components/vl53l1cb/vl53l1cb.c **** 
 492:Drivers/BSP/Components/vl53l1cb/vl53l1cb.c ****   if (pObj == NULL)
 493:Drivers/BSP/Components/vl53l1cb/vl53l1cb.c ****   {
 494:Drivers/BSP/Components/vl53l1cb/vl53l1cb.c ****     ret = VL53L1CB_INVALID_PARAM;
 495:Drivers/BSP/Components/vl53l1cb/vl53l1cb.c ****   }
 496:Drivers/BSP/Components/vl53l1cb/vl53l1cb.c ****   else if (VL53L1_SetDeviceAddress(pObj, (uint8_t)Address) != VL53L1_ERROR_NONE)
 497:Drivers/BSP/Components/vl53l1cb/vl53l1cb.c ****   {
ARM GAS  C:\Temp\cc6vBPoU.s 			page 13


 498:Drivers/BSP/Components/vl53l1cb/vl53l1cb.c ****     ret = VL53L1CB_ERROR;
 499:Drivers/BSP/Components/vl53l1cb/vl53l1cb.c ****   }
 500:Drivers/BSP/Components/vl53l1cb/vl53l1cb.c ****   else
 501:Drivers/BSP/Components/vl53l1cb/vl53l1cb.c ****   {
 502:Drivers/BSP/Components/vl53l1cb/vl53l1cb.c ****     pObj->IO.Address = (uint16_t) Address;
 503:Drivers/BSP/Components/vl53l1cb/vl53l1cb.c ****     ret = VL53L1CB_OK;
 504:Drivers/BSP/Components/vl53l1cb/vl53l1cb.c ****   }
 505:Drivers/BSP/Components/vl53l1cb/vl53l1cb.c **** 
 506:Drivers/BSP/Components/vl53l1cb/vl53l1cb.c ****   return ret;
 507:Drivers/BSP/Components/vl53l1cb/vl53l1cb.c **** }
 508:Drivers/BSP/Components/vl53l1cb/vl53l1cb.c **** 
 509:Drivers/BSP/Components/vl53l1cb/vl53l1cb.c **** /**
 510:Drivers/BSP/Components/vl53l1cb/vl53l1cb.c ****   * @brief Get the current I2C address.
 511:Drivers/BSP/Components/vl53l1cb/vl53l1cb.c ****   * @param pObj    vl53l1cb context object.
 512:Drivers/BSP/Components/vl53l1cb/vl53l1cb.c ****   * @param pAddress     Pointer to the current I2C address.
 513:Drivers/BSP/Components/vl53l1cb/vl53l1cb.c ****   * @retval VL53L1CB status
 514:Drivers/BSP/Components/vl53l1cb/vl53l1cb.c ****   */
 515:Drivers/BSP/Components/vl53l1cb/vl53l1cb.c **** int32_t VL53L1CB_GetAddress(VL53L1CB_Object_t *pObj, uint32_t *pAddress)
 516:Drivers/BSP/Components/vl53l1cb/vl53l1cb.c **** {
 187              		.loc 1 516 1 is_stmt 1 view -0
 188              		.cfi_startproc
 189              		@ args = 0, pretend = 0, frame = 0
 190              		@ frame_needed = 0, uses_anonymous_args = 0
 191              		@ link register save eliminated.
 517:Drivers/BSP/Components/vl53l1cb/vl53l1cb.c ****   int32_t ret;
 192              		.loc 1 517 3 view .LVU48
 518:Drivers/BSP/Components/vl53l1cb/vl53l1cb.c **** 
 519:Drivers/BSP/Components/vl53l1cb/vl53l1cb.c ****   if ((pObj == NULL) || (pAddress == NULL))
 193              		.loc 1 519 3 view .LVU49
 194              		.loc 1 519 6 is_stmt 0 view .LVU50
 195 0000 20B1     		cbz	r0, .L16
 196              		.loc 1 519 22 discriminator 1 view .LVU51
 197 0002 31B1     		cbz	r1, .L17
 520:Drivers/BSP/Components/vl53l1cb/vl53l1cb.c ****   {
 521:Drivers/BSP/Components/vl53l1cb/vl53l1cb.c ****     ret = VL53L1CB_INVALID_PARAM;
 522:Drivers/BSP/Components/vl53l1cb/vl53l1cb.c ****   }
 523:Drivers/BSP/Components/vl53l1cb/vl53l1cb.c ****   else
 524:Drivers/BSP/Components/vl53l1cb/vl53l1cb.c ****   {
 525:Drivers/BSP/Components/vl53l1cb/vl53l1cb.c ****     *pAddress = pObj->IO.Address;
 198              		.loc 1 525 5 is_stmt 1 view .LVU52
 199              		.loc 1 525 25 is_stmt 0 view .LVU53
 200 0004 0389     		ldrh	r3, [r0, #8]
 201              		.loc 1 525 15 view .LVU54
 202 0006 0B60     		str	r3, [r1]
 526:Drivers/BSP/Components/vl53l1cb/vl53l1cb.c ****     ret = VL53L1CB_OK;
 203              		.loc 1 526 5 is_stmt 1 view .LVU55
 204              	.LVL18:
 205              		.loc 1 526 9 is_stmt 0 view .LVU56
 206 0008 0020     		movs	r0, #0
 207              	.LVL19:
 208              		.loc 1 526 9 view .LVU57
 209 000a 7047     		bx	lr
 210              	.LVL20:
 211              	.L16:
 521:Drivers/BSP/Components/vl53l1cb/vl53l1cb.c ****   }
 212              		.loc 1 521 9 view .LVU58
 213 000c 6FF00100 		mvn	r0, #1
ARM GAS  C:\Temp\cc6vBPoU.s 			page 14


 214              	.LVL21:
 521:Drivers/BSP/Components/vl53l1cb/vl53l1cb.c ****   }
 215              		.loc 1 521 9 view .LVU59
 216 0010 7047     		bx	lr
 217              	.LVL22:
 218              	.L17:
 521:Drivers/BSP/Components/vl53l1cb/vl53l1cb.c ****   }
 219              		.loc 1 521 9 view .LVU60
 220 0012 6FF00100 		mvn	r0, #1
 221              	.LVL23:
 527:Drivers/BSP/Components/vl53l1cb/vl53l1cb.c ****   }
 528:Drivers/BSP/Components/vl53l1cb/vl53l1cb.c **** 
 529:Drivers/BSP/Components/vl53l1cb/vl53l1cb.c ****   return ret;
 222              		.loc 1 529 3 is_stmt 1 view .LVU61
 530:Drivers/BSP/Components/vl53l1cb/vl53l1cb.c **** }
 223              		.loc 1 530 1 is_stmt 0 view .LVU62
 224 0016 7047     		bx	lr
 225              		.cfi_endproc
 226              	.LFE15:
 228              		.section	.text.VL53L1CB_SetPowerMode,"ax",%progbits
 229              		.align	1
 230              		.global	VL53L1CB_SetPowerMode
 231              		.syntax unified
 232              		.thumb
 233              		.thumb_func
 235              	VL53L1CB_SetPowerMode:
 236              	.LVL24:
 237              	.LFB16:
 531:Drivers/BSP/Components/vl53l1cb/vl53l1cb.c **** 
 532:Drivers/BSP/Components/vl53l1cb/vl53l1cb.c **** /**
 533:Drivers/BSP/Components/vl53l1cb/vl53l1cb.c ****   * @brief Set the power mode.
 534:Drivers/BSP/Components/vl53l1cb/vl53l1cb.c ****   * @param pObj    vl53l1cb context object.
 535:Drivers/BSP/Components/vl53l1cb/vl53l1cb.c ****   * @param PowerMode    New power mode to be entered.
 536:Drivers/BSP/Components/vl53l1cb/vl53l1cb.c ****   * @note Not implemented for this device
 537:Drivers/BSP/Components/vl53l1cb/vl53l1cb.c ****   * @retval VL53L1CB status
 538:Drivers/BSP/Components/vl53l1cb/vl53l1cb.c ****   */
 539:Drivers/BSP/Components/vl53l1cb/vl53l1cb.c **** int32_t VL53L1CB_SetPowerMode(VL53L1CB_Object_t *pObj, uint32_t PowerMode)
 540:Drivers/BSP/Components/vl53l1cb/vl53l1cb.c **** {
 238              		.loc 1 540 1 is_stmt 1 view -0
 239              		.cfi_startproc
 240              		@ args = 0, pretend = 0, frame = 0
 241              		@ frame_needed = 0, uses_anonymous_args = 0
 242              		@ link register save eliminated.
 541:Drivers/BSP/Components/vl53l1cb/vl53l1cb.c ****   UNUSED(pObj);
 243              		.loc 1 541 3 view .LVU64
 542:Drivers/BSP/Components/vl53l1cb/vl53l1cb.c ****   UNUSED(PowerMode);
 244              		.loc 1 542 3 view .LVU65
 543:Drivers/BSP/Components/vl53l1cb/vl53l1cb.c ****   return VL53L1CB_NOT_IMPLEMENTED;
 245              		.loc 1 543 3 view .LVU66
 544:Drivers/BSP/Components/vl53l1cb/vl53l1cb.c **** }
 246              		.loc 1 544 1 is_stmt 0 view .LVU67
 247 0000 6FF00300 		mvn	r0, #3
 248              	.LVL25:
 249              		.loc 1 544 1 view .LVU68
 250 0004 7047     		bx	lr
 251              		.cfi_endproc
 252              	.LFE16:
ARM GAS  C:\Temp\cc6vBPoU.s 			page 15


 254              		.section	.text.VL53L1CB_GetPowerMode,"ax",%progbits
 255              		.align	1
 256              		.global	VL53L1CB_GetPowerMode
 257              		.syntax unified
 258              		.thumb
 259              		.thumb_func
 261              	VL53L1CB_GetPowerMode:
 262              	.LVL26:
 263              	.LFB17:
 545:Drivers/BSP/Components/vl53l1cb/vl53l1cb.c **** 
 546:Drivers/BSP/Components/vl53l1cb/vl53l1cb.c **** /**
 547:Drivers/BSP/Components/vl53l1cb/vl53l1cb.c ****   * @brief Get the power mode.
 548:Drivers/BSP/Components/vl53l1cb/vl53l1cb.c ****   * @param pObj    vl53l1cb context object.
 549:Drivers/BSP/Components/vl53l1cb/vl53l1cb.c ****   * @param pPowerMode    Pointer to the current power mode.
 550:Drivers/BSP/Components/vl53l1cb/vl53l1cb.c ****   * @note Not implemented for this device
 551:Drivers/BSP/Components/vl53l1cb/vl53l1cb.c ****   * @retval VL53L1CB status
 552:Drivers/BSP/Components/vl53l1cb/vl53l1cb.c ****   */
 553:Drivers/BSP/Components/vl53l1cb/vl53l1cb.c **** int32_t VL53L1CB_GetPowerMode(VL53L1CB_Object_t *pObj, uint32_t *pPowerMode)
 554:Drivers/BSP/Components/vl53l1cb/vl53l1cb.c **** {
 264              		.loc 1 554 1 is_stmt 1 view -0
 265              		.cfi_startproc
 266              		@ args = 0, pretend = 0, frame = 0
 267              		@ frame_needed = 0, uses_anonymous_args = 0
 268              		@ link register save eliminated.
 555:Drivers/BSP/Components/vl53l1cb/vl53l1cb.c ****   UNUSED(pObj);
 269              		.loc 1 555 3 view .LVU70
 556:Drivers/BSP/Components/vl53l1cb/vl53l1cb.c ****   UNUSED(pPowerMode);
 270              		.loc 1 556 3 view .LVU71
 557:Drivers/BSP/Components/vl53l1cb/vl53l1cb.c ****   return VL53L1CB_NOT_IMPLEMENTED;
 271              		.loc 1 557 3 view .LVU72
 558:Drivers/BSP/Components/vl53l1cb/vl53l1cb.c **** }
 272              		.loc 1 558 1 is_stmt 0 view .LVU73
 273 0000 6FF00300 		mvn	r0, #3
 274              	.LVL27:
 275              		.loc 1 558 1 view .LVU74
 276 0004 7047     		bx	lr
 277              		.cfi_endproc
 278              	.LFE17:
 280              		.section	.text.VL53L1CB_Init,"ax",%progbits
 281              		.align	1
 282              		.global	VL53L1CB_Init
 283              		.syntax unified
 284              		.thumb
 285              		.thumb_func
 287              	VL53L1CB_Init:
 288              	.LVL28:
 289              	.LFB4:
 127:Drivers/BSP/Components/vl53l1cb/vl53l1cb.c ****   int32_t ret;
 290              		.loc 1 127 1 is_stmt 1 view -0
 291              		.cfi_startproc
 292              		@ args = 0, pretend = 0, frame = 0
 293              		@ frame_needed = 0, uses_anonymous_args = 0
 128:Drivers/BSP/Components/vl53l1cb/vl53l1cb.c **** 
 294              		.loc 1 128 3 view .LVU76
 130:Drivers/BSP/Components/vl53l1cb/vl53l1cb.c ****   {
 295              		.loc 1 130 3 view .LVU77
 130:Drivers/BSP/Components/vl53l1cb/vl53l1cb.c ****   {
ARM GAS  C:\Temp\cc6vBPoU.s 			page 16


 296              		.loc 1 130 11 is_stmt 0 view .LVU78
 297 0000 00F5C043 		add	r3, r0, #24576
 298 0004 93F8703F 		ldrb	r3, [r3, #3952]	@ zero_extendqisi2
 130:Drivers/BSP/Components/vl53l1cb/vl53l1cb.c ****   {
 299              		.loc 1 130 6 view .LVU79
 300 0008 03BB     		cbnz	r3, .L22
 127:Drivers/BSP/Components/vl53l1cb/vl53l1cb.c ****   int32_t ret;
 301              		.loc 1 127 1 view .LVU80
 302 000a 10B5     		push	{r4, lr}
 303              		.cfi_def_cfa_offset 8
 304              		.cfi_offset 4, -8
 305              		.cfi_offset 14, -4
 306 000c 0446     		mov	r4, r0
 134:Drivers/BSP/Components/vl53l1cb/vl53l1cb.c ****   {
 307              		.loc 1 134 8 is_stmt 1 view .LVU81
 134:Drivers/BSP/Components/vl53l1cb/vl53l1cb.c ****   {
 308              		.loc 1 134 12 is_stmt 0 view .LVU82
 309 000e FFF7FEFF 		bl	VL53L1_WaitDeviceBooted
 310              	.LVL29:
 134:Drivers/BSP/Components/vl53l1cb/vl53l1cb.c ****   {
 311              		.loc 1 134 11 view .LVU83
 312 0012 F0B9     		cbnz	r0, .L23
 138:Drivers/BSP/Components/vl53l1cb/vl53l1cb.c ****   {
 313              		.loc 1 138 8 is_stmt 1 view .LVU84
 138:Drivers/BSP/Components/vl53l1cb/vl53l1cb.c ****   {
 314              		.loc 1 138 12 is_stmt 0 view .LVU85
 315 0014 2046     		mov	r0, r4
 316 0016 FFF7FEFF 		bl	VL53L1_DataInit
 317              	.LVL30:
 138:Drivers/BSP/Components/vl53l1cb/vl53l1cb.c ****   {
 318              		.loc 1 138 11 view .LVU86
 319 001a E8B9     		cbnz	r0, .L24
 142:Drivers/BSP/Components/vl53l1cb/vl53l1cb.c ****   {
 320              		.loc 1 142 8 is_stmt 1 view .LVU87
 142:Drivers/BSP/Components/vl53l1cb/vl53l1cb.c ****   {
 321              		.loc 1 142 12 is_stmt 0 view .LVU88
 322 001c 2046     		mov	r0, r4
 323 001e FFF7FEFF 		bl	VL53L1_StaticInit
 324              	.LVL31:
 142:Drivers/BSP/Components/vl53l1cb/vl53l1cb.c ****   {
 325              		.loc 1 142 11 view .LVU89
 326 0022 E0B9     		cbnz	r0, .L25
 146:Drivers/BSP/Components/vl53l1cb/vl53l1cb.c ****   {
 327              		.loc 1 146 8 is_stmt 1 view .LVU90
 146:Drivers/BSP/Components/vl53l1cb/vl53l1cb.c ****   {
 328              		.loc 1 146 12 is_stmt 0 view .LVU91
 329 0024 2046     		mov	r0, r4
 330 0026 FFF7FEFF 		bl	VL53L1_PerformRefSpadManagement
 331              	.LVL32:
 146:Drivers/BSP/Components/vl53l1cb/vl53l1cb.c ****   {
 332              		.loc 1 146 11 view .LVU92
 333 002a D8B9     		cbnz	r0, .L26
 152:Drivers/BSP/Components/vl53l1cb/vl53l1cb.c ****     pObj->IsBlocking = 0;
 334              		.loc 1 152 5 is_stmt 1 view .LVU93
 152:Drivers/BSP/Components/vl53l1cb/vl53l1cb.c ****     pObj->IsBlocking = 0;
 335              		.loc 1 152 21 is_stmt 0 view .LVU94
 336 002c 04F5C044 		add	r4, r4, #24576
ARM GAS  C:\Temp\cc6vBPoU.s 			page 17


 337              	.LVL33:
 152:Drivers/BSP/Components/vl53l1cb/vl53l1cb.c ****     pObj->IsBlocking = 0;
 338              		.loc 1 152 21 view .LVU95
 339 0030 84F8710F 		strb	r0, [r4, #3953]
 153:Drivers/BSP/Components/vl53l1cb/vl53l1cb.c ****     pObj->IsContinuous = 0;
 340              		.loc 1 153 5 is_stmt 1 view .LVU96
 153:Drivers/BSP/Components/vl53l1cb/vl53l1cb.c ****     pObj->IsContinuous = 0;
 341              		.loc 1 153 22 is_stmt 0 view .LVU97
 342 0034 84F8720F 		strb	r0, [r4, #3954]
 154:Drivers/BSP/Components/vl53l1cb/vl53l1cb.c ****     pObj->IsAmbientEnabled = 0;
 343              		.loc 1 154 5 is_stmt 1 view .LVU98
 154:Drivers/BSP/Components/vl53l1cb/vl53l1cb.c ****     pObj->IsAmbientEnabled = 0;
 344              		.loc 1 154 24 is_stmt 0 view .LVU99
 345 0038 84F8730F 		strb	r0, [r4, #3955]
 155:Drivers/BSP/Components/vl53l1cb/vl53l1cb.c ****     pObj->IsSignalEnabled = 0;
 346              		.loc 1 155 5 is_stmt 1 view .LVU100
 155:Drivers/BSP/Components/vl53l1cb/vl53l1cb.c ****     pObj->IsSignalEnabled = 0;
 347              		.loc 1 155 28 is_stmt 0 view .LVU101
 348 003c 84F8740F 		strb	r0, [r4, #3956]
 156:Drivers/BSP/Components/vl53l1cb/vl53l1cb.c ****     pObj->IsInitialized = 1;
 349              		.loc 1 156 5 is_stmt 1 view .LVU102
 156:Drivers/BSP/Components/vl53l1cb/vl53l1cb.c ****     pObj->IsInitialized = 1;
 350              		.loc 1 156 27 is_stmt 0 view .LVU103
 351 0040 84F8750F 		strb	r0, [r4, #3957]
 157:Drivers/BSP/Components/vl53l1cb/vl53l1cb.c ****     ret = VL53L1CB_OK;
 352              		.loc 1 157 5 is_stmt 1 view .LVU104
 157:Drivers/BSP/Components/vl53l1cb/vl53l1cb.c ****     ret = VL53L1CB_OK;
 353              		.loc 1 157 25 is_stmt 0 view .LVU105
 354 0044 0123     		movs	r3, #1
 355 0046 84F8703F 		strb	r3, [r4, #3952]
 158:Drivers/BSP/Components/vl53l1cb/vl53l1cb.c ****   }
 356              		.loc 1 158 5 is_stmt 1 view .LVU106
 357              	.LVL34:
 358              	.L20:
 162:Drivers/BSP/Components/vl53l1cb/vl53l1cb.c **** 
 359              		.loc 1 162 1 is_stmt 0 view .LVU107
 360 004a 10BD     		pop	{r4, pc}
 361              	.LVL35:
 362              	.L22:
 363              		.cfi_def_cfa_offset 0
 364              		.cfi_restore 4
 365              		.cfi_restore 14
 132:Drivers/BSP/Components/vl53l1cb/vl53l1cb.c ****   }
 366              		.loc 1 132 9 view .LVU108
 367 004c 4FF0FF30 		mov	r0, #-1
 368              	.LVL36:
 162:Drivers/BSP/Components/vl53l1cb/vl53l1cb.c **** 
 369              		.loc 1 162 1 view .LVU109
 370 0050 7047     		bx	lr
 371              	.LVL37:
 372              	.L23:
 373              		.cfi_def_cfa_offset 8
 374              		.cfi_offset 4, -8
 375              		.cfi_offset 14, -4
 136:Drivers/BSP/Components/vl53l1cb/vl53l1cb.c ****   }
 376              		.loc 1 136 9 view .LVU110
 377 0052 4FF0FF30 		mov	r0, #-1
ARM GAS  C:\Temp\cc6vBPoU.s 			page 18


 378 0056 F8E7     		b	.L20
 379              	.L24:
 140:Drivers/BSP/Components/vl53l1cb/vl53l1cb.c ****   }
 380              		.loc 1 140 9 view .LVU111
 381 0058 4FF0FF30 		mov	r0, #-1
 382 005c F5E7     		b	.L20
 383              	.L25:
 144:Drivers/BSP/Components/vl53l1cb/vl53l1cb.c ****   }
 384              		.loc 1 144 9 view .LVU112
 385 005e 4FF0FF30 		mov	r0, #-1
 386 0062 F2E7     		b	.L20
 387              	.L26:
 148:Drivers/BSP/Components/vl53l1cb/vl53l1cb.c ****   }
 388              		.loc 1 148 9 view .LVU113
 389 0064 4FF0FF30 		mov	r0, #-1
 390              	.LVL38:
 161:Drivers/BSP/Components/vl53l1cb/vl53l1cb.c **** }
 391              		.loc 1 161 3 is_stmt 1 view .LVU114
 161:Drivers/BSP/Components/vl53l1cb/vl53l1cb.c **** }
 392              		.loc 1 161 10 is_stmt 0 view .LVU115
 393 0068 EFE7     		b	.L20
 394              		.cfi_endproc
 395              	.LFE4:
 397              		.section	.text.VL53L1CB_ReadID,"ax",%progbits
 398              		.align	1
 399              		.global	VL53L1CB_ReadID
 400              		.syntax unified
 401              		.thumb
 402              		.thumb_func
 404              	VL53L1CB_ReadID:
 405              	.LVL39:
 406              	.LFB6:
 197:Drivers/BSP/Components/vl53l1cb/vl53l1cb.c ****   int32_t ret;
 407              		.loc 1 197 1 is_stmt 1 view -0
 408              		.cfi_startproc
 409              		@ args = 0, pretend = 0, frame = 0
 410              		@ frame_needed = 0, uses_anonymous_args = 0
 198:Drivers/BSP/Components/vl53l1cb/vl53l1cb.c **** 
 411              		.loc 1 198 3 view .LVU117
 200:Drivers/BSP/Components/vl53l1cb/vl53l1cb.c ****   {
 412              		.loc 1 200 3 view .LVU118
 200:Drivers/BSP/Components/vl53l1cb/vl53l1cb.c ****   {
 413              		.loc 1 200 6 is_stmt 0 view .LVU119
 414 0000 48B1     		cbz	r0, .L33
 197:Drivers/BSP/Components/vl53l1cb/vl53l1cb.c ****   int32_t ret;
 415              		.loc 1 197 1 discriminator 1 view .LVU120
 416 0002 08B5     		push	{r3, lr}
 417              		.cfi_def_cfa_offset 8
 418              		.cfi_offset 3, -8
 419              		.cfi_offset 14, -4
 420 0004 0A46     		mov	r2, r1
 200:Drivers/BSP/Components/vl53l1cb/vl53l1cb.c ****   {
 421              		.loc 1 200 22 discriminator 1 view .LVU121
 422 0006 49B1     		cbz	r1, .L34
 206:Drivers/BSP/Components/vl53l1cb/vl53l1cb.c ****     ret = VL53L1_RdWord(pObj, VL53L1CB_ID_REG, (uint16_t *) pId);
 423              		.loc 1 206 5 is_stmt 1 view .LVU122
 206:Drivers/BSP/Components/vl53l1cb/vl53l1cb.c ****     ret = VL53L1_RdWord(pObj, VL53L1CB_ID_REG, (uint16_t *) pId);
ARM GAS  C:\Temp\cc6vBPoU.s 			page 19


 424              		.loc 1 206 10 is_stmt 0 view .LVU123
 425 0008 0021     		movs	r1, #0
 426              	.LVL40:
 206:Drivers/BSP/Components/vl53l1cb/vl53l1cb.c ****     ret = VL53L1_RdWord(pObj, VL53L1CB_ID_REG, (uint16_t *) pId);
 427              		.loc 1 206 10 view .LVU124
 428 000a 1160     		str	r1, [r2]
 207:Drivers/BSP/Components/vl53l1cb/vl53l1cb.c ****   }
 429              		.loc 1 207 5 is_stmt 1 view .LVU125
 207:Drivers/BSP/Components/vl53l1cb/vl53l1cb.c ****   }
 430              		.loc 1 207 11 is_stmt 0 view .LVU126
 431 000c 40F20F11 		movw	r1, #271
 432 0010 FFF7FEFF 		bl	VL53L1_RdWord
 433              	.LVL41:
 434              	.L31:
 211:Drivers/BSP/Components/vl53l1cb/vl53l1cb.c **** 
 435              		.loc 1 211 1 view .LVU127
 436 0014 08BD     		pop	{r3, pc}
 437              	.LVL42:
 438              	.L33:
 439              		.cfi_def_cfa_offset 0
 440              		.cfi_restore 3
 441              		.cfi_restore 14
 202:Drivers/BSP/Components/vl53l1cb/vl53l1cb.c ****   }
 442              		.loc 1 202 9 view .LVU128
 443 0016 6FF00100 		mvn	r0, #1
 444              	.LVL43:
 211:Drivers/BSP/Components/vl53l1cb/vl53l1cb.c **** 
 445              		.loc 1 211 1 view .LVU129
 446 001a 7047     		bx	lr
 447              	.LVL44:
 448              	.L34:
 449              		.cfi_def_cfa_offset 8
 450              		.cfi_offset 3, -8
 451              		.cfi_offset 14, -4
 202:Drivers/BSP/Components/vl53l1cb/vl53l1cb.c ****   }
 452              		.loc 1 202 9 view .LVU130
 453 001c 6FF00100 		mvn	r0, #1
 454              	.LVL45:
 210:Drivers/BSP/Components/vl53l1cb/vl53l1cb.c **** }
 455              		.loc 1 210 3 is_stmt 1 view .LVU131
 210:Drivers/BSP/Components/vl53l1cb/vl53l1cb.c **** }
 456              		.loc 1 210 10 is_stmt 0 view .LVU132
 457 0020 F8E7     		b	.L31
 458              		.cfi_endproc
 459              	.LFE6:
 461              		.section	.text.VL53L1CB_ConfigProfile,"ax",%progbits
 462              		.align	1
 463              		.global	VL53L1CB_ConfigProfile
 464              		.syntax unified
 465              		.thumb
 466              		.thumb_func
 468              	VL53L1CB_ConfigProfile:
 469              	.LVL46:
 470              	.LFB8:
 248:Drivers/BSP/Components/vl53l1cb/vl53l1cb.c ****   int32_t ret;
 471              		.loc 1 248 1 is_stmt 1 view -0
 472              		.cfi_startproc
ARM GAS  C:\Temp\cc6vBPoU.s 			page 20


 473              		@ args = 0, pretend = 0, frame = 0
 474              		@ frame_needed = 0, uses_anonymous_args = 0
 249:Drivers/BSP/Components/vl53l1cb/vl53l1cb.c ****   uint8_t ranging_profile;
 475              		.loc 1 249 3 view .LVU134
 250:Drivers/BSP/Components/vl53l1cb/vl53l1cb.c **** 
 476              		.loc 1 250 3 view .LVU135
 252:Drivers/BSP/Components/vl53l1cb/vl53l1cb.c ****   {
 477              		.loc 1 252 3 view .LVU136
 252:Drivers/BSP/Components/vl53l1cb/vl53l1cb.c ****   {
 478              		.loc 1 252 6 is_stmt 0 view .LVU137
 479 0000 18B3     		cbz	r0, .L41
 248:Drivers/BSP/Components/vl53l1cb/vl53l1cb.c ****   int32_t ret;
 480              		.loc 1 248 1 discriminator 1 view .LVU138
 481 0002 38B5     		push	{r3, r4, r5, lr}
 482              		.cfi_def_cfa_offset 16
 483              		.cfi_offset 3, -16
 484              		.cfi_offset 4, -12
 485              		.cfi_offset 5, -8
 486              		.cfi_offset 14, -4
 487 0004 0C46     		mov	r4, r1
 488 0006 0546     		mov	r5, r0
 252:Drivers/BSP/Components/vl53l1cb/vl53l1cb.c ****   {
 489              		.loc 1 252 22 discriminator 1 view .LVU139
 490 0008 11B3     		cbz	r1, .L42
 254:Drivers/BSP/Components/vl53l1cb/vl53l1cb.c ****   }
 491              		.loc 1 254 5 is_stmt 1 view .LVU140
 254:Drivers/BSP/Components/vl53l1cb/vl53l1cb.c ****   }
 492              		.loc 1 254 21 is_stmt 0 view .LVU141
 493 000a 0978     		ldrb	r1, [r1]	@ zero_extendqisi2
 494              	.LVL47:
 261:Drivers/BSP/Components/vl53l1cb/vl53l1cb.c ****       (ranging_profile != VL53L1CB_PROFILE_MEDIUM) &&
 495              		.loc 1 261 3 is_stmt 1 view .LVU142
 262:Drivers/BSP/Components/vl53l1cb/vl53l1cb.c ****       (ranging_profile != VL53L1CB_PROFILE_LONG))
 496              		.loc 1 262 52 is_stmt 0 view .LVU143
 497 000c 4B1E     		subs	r3, r1, #1
 498 000e DBB2     		uxtb	r3, r3
 261:Drivers/BSP/Components/vl53l1cb/vl53l1cb.c ****       (ranging_profile != VL53L1CB_PROFILE_MEDIUM) &&
 499              		.loc 1 261 6 view .LVU144
 500 0010 022B     		cmp	r3, #2
 501 0012 20D8     		bhi	.L43
 267:Drivers/BSP/Components/vl53l1cb/vl53l1cb.c ****   {
 502              		.loc 1 267 8 is_stmt 1 view .LVU145
 267:Drivers/BSP/Components/vl53l1cb/vl53l1cb.c ****   {
 503              		.loc 1 267 12 is_stmt 0 view .LVU146
 504 0014 FFF7FEFF 		bl	VL53L1_SetDistanceMode
 505              	.LVL48:
 267:Drivers/BSP/Components/vl53l1cb/vl53l1cb.c ****   {
 506              		.loc 1 267 11 view .LVU147
 507 0018 00BB     		cbnz	r0, .L44
 271:Drivers/BSP/Components/vl53l1cb/vl53l1cb.c ****              pObj, (1000U * pConfig->TimingBudget)) != VL53L1_ERROR_NONE)
 508              		.loc 1 271 8 is_stmt 1 view .LVU148
 272:Drivers/BSP/Components/vl53l1cb/vl53l1cb.c ****   {
 509              		.loc 1 272 36 is_stmt 0 view .LVU149
 510 001a 6368     		ldr	r3, [r4, #4]
 271:Drivers/BSP/Components/vl53l1cb/vl53l1cb.c ****              pObj, (1000U * pConfig->TimingBudget)) != VL53L1_ERROR_NONE)
 511              		.loc 1 271 12 view .LVU150
 512 001c 4FF47A71 		mov	r1, #1000
ARM GAS  C:\Temp\cc6vBPoU.s 			page 21


 513 0020 03FB01F1 		mul	r1, r3, r1
 514 0024 2846     		mov	r0, r5
 515 0026 FFF7FEFF 		bl	VL53L1_SetMeasurementTimingBudgetMicroSeconds
 516              	.LVL49:
 271:Drivers/BSP/Components/vl53l1cb/vl53l1cb.c ****              pObj, (1000U * pConfig->TimingBudget)) != VL53L1_ERROR_NONE)
 517              		.loc 1 271 11 view .LVU151
 518 002a D0B9     		cbnz	r0, .L45
 278:Drivers/BSP/Components/vl53l1cb/vl53l1cb.c ****     pObj->IsSignalEnabled = (pConfig->EnableSignal == 0U) ? 0U : 1U;
 519              		.loc 1 278 5 is_stmt 1 view .LVU152
 278:Drivers/BSP/Components/vl53l1cb/vl53l1cb.c ****     pObj->IsSignalEnabled = (pConfig->EnableSignal == 0U) ? 0U : 1U;
 520              		.loc 1 278 38 is_stmt 0 view .LVU153
 521 002c E368     		ldr	r3, [r4, #12]
 278:Drivers/BSP/Components/vl53l1cb/vl53l1cb.c ****     pObj->IsSignalEnabled = (pConfig->EnableSignal == 0U) ? 0U : 1U;
 522              		.loc 1 278 66 view .LVU154
 523 002e 003B     		subs	r3, r3, #0
 524 0030 18BF     		it	ne
 525 0032 0123     		movne	r3, #1
 278:Drivers/BSP/Components/vl53l1cb/vl53l1cb.c ****     pObj->IsSignalEnabled = (pConfig->EnableSignal == 0U) ? 0U : 1U;
 526              		.loc 1 278 28 view .LVU155
 527 0034 05F5C045 		add	r5, r5, #24576
 528              	.LVL50:
 278:Drivers/BSP/Components/vl53l1cb/vl53l1cb.c ****     pObj->IsSignalEnabled = (pConfig->EnableSignal == 0U) ? 0U : 1U;
 529              		.loc 1 278 28 view .LVU156
 530 0038 85F8743F 		strb	r3, [r5, #3956]
 279:Drivers/BSP/Components/vl53l1cb/vl53l1cb.c **** 
 531              		.loc 1 279 5 is_stmt 1 view .LVU157
 279:Drivers/BSP/Components/vl53l1cb/vl53l1cb.c **** 
 532              		.loc 1 279 37 is_stmt 0 view .LVU158
 533 003c 2369     		ldr	r3, [r4, #16]
 279:Drivers/BSP/Components/vl53l1cb/vl53l1cb.c **** 
 534              		.loc 1 279 64 view .LVU159
 535 003e 003B     		subs	r3, r3, #0
 536 0040 18BF     		it	ne
 537 0042 0123     		movne	r3, #1
 279:Drivers/BSP/Components/vl53l1cb/vl53l1cb.c **** 
 538              		.loc 1 279 27 view .LVU160
 539 0044 85F8753F 		strb	r3, [r5, #3957]
 281:Drivers/BSP/Components/vl53l1cb/vl53l1cb.c ****   }
 540              		.loc 1 281 5 is_stmt 1 view .LVU161
 541              	.LVL51:
 542              	.L39:
 285:Drivers/BSP/Components/vl53l1cb/vl53l1cb.c **** 
 543              		.loc 1 285 1 is_stmt 0 view .LVU162
 544 0048 38BD     		pop	{r3, r4, r5, pc}
 545              	.LVL52:
 546              	.L41:
 547              		.cfi_def_cfa_offset 0
 548              		.cfi_restore 3
 549              		.cfi_restore 4
 550              		.cfi_restore 5
 551              		.cfi_restore 14
 258:Drivers/BSP/Components/vl53l1cb/vl53l1cb.c ****   }
 552              		.loc 1 258 12 view .LVU163
 553 004a 6FF00100 		mvn	r0, #1
 554              	.LVL53:
 285:Drivers/BSP/Components/vl53l1cb/vl53l1cb.c **** 
 555              		.loc 1 285 1 view .LVU164
ARM GAS  C:\Temp\cc6vBPoU.s 			page 22


 556 004e 7047     		bx	lr
 557              	.LVL54:
 558              	.L42:
 559              		.cfi_def_cfa_offset 16
 560              		.cfi_offset 3, -16
 561              		.cfi_offset 4, -12
 562              		.cfi_offset 5, -8
 563              		.cfi_offset 14, -4
 258:Drivers/BSP/Components/vl53l1cb/vl53l1cb.c ****   }
 564              		.loc 1 258 12 view .LVU165
 565 0050 6FF00100 		mvn	r0, #1
 566              	.LVL55:
 258:Drivers/BSP/Components/vl53l1cb/vl53l1cb.c ****   }
 567              		.loc 1 258 12 view .LVU166
 568 0054 F8E7     		b	.L39
 569              	.LVL56:
 570              	.L43:
 265:Drivers/BSP/Components/vl53l1cb/vl53l1cb.c ****   }
 571              		.loc 1 265 9 view .LVU167
 572 0056 6FF00100 		mvn	r0, #1
 573              	.LVL57:
 265:Drivers/BSP/Components/vl53l1cb/vl53l1cb.c ****   }
 574              		.loc 1 265 9 view .LVU168
 575 005a F5E7     		b	.L39
 576              	.LVL58:
 577              	.L44:
 269:Drivers/BSP/Components/vl53l1cb/vl53l1cb.c ****   }
 578              		.loc 1 269 9 view .LVU169
 579 005c 4FF0FF30 		mov	r0, #-1
 580 0060 F2E7     		b	.L39
 581              	.L45:
 274:Drivers/BSP/Components/vl53l1cb/vl53l1cb.c ****   }
 582              		.loc 1 274 9 view .LVU170
 583 0062 4FF0FF30 		mov	r0, #-1
 584 0066 EFE7     		b	.L39
 585              		.cfi_endproc
 586              	.LFE8:
 588              		.section	.text.VL53L1CB_ConfigROI,"ax",%progbits
 589              		.align	1
 590              		.global	VL53L1CB_ConfigROI
 591              		.syntax unified
 592              		.thumb
 593              		.thumb_func
 595              	VL53L1CB_ConfigROI:
 596              	.LVL59:
 597              	.LFB9:
 295:Drivers/BSP/Components/vl53l1cb/vl53l1cb.c ****   int32_t ret;
 598              		.loc 1 295 1 is_stmt 1 view -0
 599              		.cfi_startproc
 600              		@ args = 0, pretend = 0, frame = 72
 601              		@ frame_needed = 0, uses_anonymous_args = 0
 296:Drivers/BSP/Components/vl53l1cb/vl53l1cb.c ****   VL53L1_RoiConfig_t roi_settings;
 602              		.loc 1 296 3 view .LVU172
 297:Drivers/BSP/Components/vl53l1cb/vl53l1cb.c **** 
 603              		.loc 1 297 3 view .LVU173
 299:Drivers/BSP/Components/vl53l1cb/vl53l1cb.c ****   {
 604              		.loc 1 299 3 view .LVU174
ARM GAS  C:\Temp\cc6vBPoU.s 			page 23


 299:Drivers/BSP/Components/vl53l1cb/vl53l1cb.c ****   {
 605              		.loc 1 299 6 is_stmt 0 view .LVU175
 606 0000 E0B1     		cbz	r0, .L52
 299:Drivers/BSP/Components/vl53l1cb/vl53l1cb.c ****   {
 607              		.loc 1 299 22 discriminator 1 view .LVU176
 608 0002 F1B1     		cbz	r1, .L53
 295:Drivers/BSP/Components/vl53l1cb/vl53l1cb.c ****   int32_t ret;
 609              		.loc 1 295 1 view .LVU177
 610 0004 00B5     		push	{lr}
 611              		.cfi_def_cfa_offset 4
 612              		.cfi_offset 14, -4
 613 0006 93B0     		sub	sp, sp, #76
 614              		.cfi_def_cfa_offset 80
 305:Drivers/BSP/Components/vl53l1cb/vl53l1cb.c ****     roi_settings.UserRois[0].BotRightX = pROIConfig->BotRightX;
 615              		.loc 1 305 5 is_stmt 1 view .LVU178
 305:Drivers/BSP/Components/vl53l1cb/vl53l1cb.c ****     roi_settings.UserRois[0].BotRightX = pROIConfig->BotRightX;
 616              		.loc 1 305 30 is_stmt 0 view .LVU179
 617 0008 0122     		movs	r2, #1
 618 000a 8DF80420 		strb	r2, [sp, #4]
 306:Drivers/BSP/Components/vl53l1cb/vl53l1cb.c ****     roi_settings.UserRois[0].BotRightY = pROIConfig->BotRightY;
 619              		.loc 1 306 5 is_stmt 1 view .LVU180
 306:Drivers/BSP/Components/vl53l1cb/vl53l1cb.c ****     roi_settings.UserRois[0].BotRightY = pROIConfig->BotRightY;
 620              		.loc 1 306 52 is_stmt 0 view .LVU181
 621 000e 8A78     		ldrb	r2, [r1, #2]	@ zero_extendqisi2
 306:Drivers/BSP/Components/vl53l1cb/vl53l1cb.c ****     roi_settings.UserRois[0].BotRightY = pROIConfig->BotRightY;
 622              		.loc 1 306 40 view .LVU182
 623 0010 8DF80720 		strb	r2, [sp, #7]
 307:Drivers/BSP/Components/vl53l1cb/vl53l1cb.c ****     roi_settings.UserRois[0].TopLeftX = pROIConfig->TopLeftX;
 624              		.loc 1 307 5 is_stmt 1 view .LVU183
 307:Drivers/BSP/Components/vl53l1cb/vl53l1cb.c ****     roi_settings.UserRois[0].TopLeftX = pROIConfig->TopLeftX;
 625              		.loc 1 307 52 is_stmt 0 view .LVU184
 626 0014 CA78     		ldrb	r2, [r1, #3]	@ zero_extendqisi2
 307:Drivers/BSP/Components/vl53l1cb/vl53l1cb.c ****     roi_settings.UserRois[0].TopLeftX = pROIConfig->TopLeftX;
 627              		.loc 1 307 40 view .LVU185
 628 0016 8DF80820 		strb	r2, [sp, #8]
 308:Drivers/BSP/Components/vl53l1cb/vl53l1cb.c ****     roi_settings.UserRois[0].TopLeftY = pROIConfig->TopLeftY;
 629              		.loc 1 308 5 is_stmt 1 view .LVU186
 308:Drivers/BSP/Components/vl53l1cb/vl53l1cb.c ****     roi_settings.UserRois[0].TopLeftY = pROIConfig->TopLeftY;
 630              		.loc 1 308 51 is_stmt 0 view .LVU187
 631 001a 0A78     		ldrb	r2, [r1]	@ zero_extendqisi2
 308:Drivers/BSP/Components/vl53l1cb/vl53l1cb.c ****     roi_settings.UserRois[0].TopLeftY = pROIConfig->TopLeftY;
 632              		.loc 1 308 39 view .LVU188
 633 001c 8DF80520 		strb	r2, [sp, #5]
 309:Drivers/BSP/Components/vl53l1cb/vl53l1cb.c **** 
 634              		.loc 1 309 5 is_stmt 1 view .LVU189
 309:Drivers/BSP/Components/vl53l1cb/vl53l1cb.c **** 
 635              		.loc 1 309 51 is_stmt 0 view .LVU190
 636 0020 4A78     		ldrb	r2, [r1, #1]	@ zero_extendqisi2
 309:Drivers/BSP/Components/vl53l1cb/vl53l1cb.c **** 
 637              		.loc 1 309 39 view .LVU191
 638 0022 8DF80620 		strb	r2, [sp, #6]
 311:Drivers/BSP/Components/vl53l1cb/vl53l1cb.c ****     {
 639              		.loc 1 311 5 is_stmt 1 view .LVU192
 311:Drivers/BSP/Components/vl53l1cb/vl53l1cb.c ****     {
 640              		.loc 1 311 9 is_stmt 0 view .LVU193
 641 0026 01A9     		add	r1, sp, #4
 642              	.LVL60:
ARM GAS  C:\Temp\cc6vBPoU.s 			page 24


 311:Drivers/BSP/Components/vl53l1cb/vl53l1cb.c ****     {
 643              		.loc 1 311 9 view .LVU194
 644 0028 FFF7FEFF 		bl	VL53L1_SetROI
 645              	.LVL61:
 311:Drivers/BSP/Components/vl53l1cb/vl53l1cb.c ****     {
 646              		.loc 1 311 8 view .LVU195
 647 002c 18B9     		cbnz	r0, .L59
 317:Drivers/BSP/Components/vl53l1cb/vl53l1cb.c ****     }
 648              		.loc 1 317 11 view .LVU196
 649 002e 0020     		movs	r0, #0
 650              	.LVL62:
 321:Drivers/BSP/Components/vl53l1cb/vl53l1cb.c **** }
 651              		.loc 1 321 3 is_stmt 1 view .LVU197
 652              	.L50:
 322:Drivers/BSP/Components/vl53l1cb/vl53l1cb.c **** 
 653              		.loc 1 322 1 is_stmt 0 view .LVU198
 654 0030 13B0     		add	sp, sp, #76
 655              		.cfi_remember_state
 656              		.cfi_def_cfa_offset 4
 657              		@ sp needed
 658 0032 5DF804FB 		ldr	pc, [sp], #4
 659              	.L59:
 660              		.cfi_restore_state
 313:Drivers/BSP/Components/vl53l1cb/vl53l1cb.c ****     }
 661              		.loc 1 313 11 view .LVU199
 662 0036 4FF0FF30 		mov	r0, #-1
 663 003a F9E7     		b	.L50
 664              	.LVL63:
 665              	.L52:
 666              		.cfi_def_cfa_offset 0
 667              		.cfi_restore 14
 301:Drivers/BSP/Components/vl53l1cb/vl53l1cb.c ****   }
 668              		.loc 1 301 9 view .LVU200
 669 003c 6FF00100 		mvn	r0, #1
 670              	.LVL64:
 301:Drivers/BSP/Components/vl53l1cb/vl53l1cb.c ****   }
 671              		.loc 1 301 9 view .LVU201
 672 0040 7047     		bx	lr
 673              	.LVL65:
 674              	.L53:
 301:Drivers/BSP/Components/vl53l1cb/vl53l1cb.c ****   }
 675              		.loc 1 301 9 view .LVU202
 676 0042 6FF00100 		mvn	r0, #1
 677              	.LVL66:
 322:Drivers/BSP/Components/vl53l1cb/vl53l1cb.c **** 
 678              		.loc 1 322 1 view .LVU203
 679 0046 7047     		bx	lr
 680              		.cfi_endproc
 681              	.LFE9:
 683              		.section	.text.vl53l1cb_poll_for_measurement,"ax",%progbits
 684              		.align	1
 685              		.syntax unified
 686              		.thumb
 687              		.thumb_func
 689              	vl53l1cb_poll_for_measurement:
 690              	.LVL67:
 691              	.LFB20:
ARM GAS  C:\Temp\cc6vBPoU.s 			page 25


 559:Drivers/BSP/Components/vl53l1cb/vl53l1cb.c **** 
 560:Drivers/BSP/Components/vl53l1cb/vl53l1cb.c **** /**
 561:Drivers/BSP/Components/vl53l1cb/vl53l1cb.c ****   * @brief Perform an offset calibration.
 562:Drivers/BSP/Components/vl53l1cb/vl53l1cb.c ****   * @param pObj    vl53l1cb context object.
 563:Drivers/BSP/Components/vl53l1cb/vl53l1cb.c ****   * @param CalDistance    Calibration distance in mm.
 564:Drivers/BSP/Components/vl53l1cb/vl53l1cb.c ****   * @retval VL53L1CB status
 565:Drivers/BSP/Components/vl53l1cb/vl53l1cb.c ****   */
 566:Drivers/BSP/Components/vl53l1cb/vl53l1cb.c **** int32_t VL53L1CB_OffsetCalibration(VL53L1CB_Object_t *pObj, uint32_t CalDistance)
 567:Drivers/BSP/Components/vl53l1cb/vl53l1cb.c **** {
 568:Drivers/BSP/Components/vl53l1cb/vl53l1cb.c ****   int32_t ret;
 569:Drivers/BSP/Components/vl53l1cb/vl53l1cb.c **** 
 570:Drivers/BSP/Components/vl53l1cb/vl53l1cb.c ****   VL53L1_OffsetCorrectionModes Mode = VL53L1_OFFSETCORRECTIONMODE_STANDARD;
 571:Drivers/BSP/Components/vl53l1cb/vl53l1cb.c **** 
 572:Drivers/BSP/Components/vl53l1cb/vl53l1cb.c ****   if (VL53L1_SetOffsetCorrectionMode(pObj, Mode) != VL53L1_ERROR_NONE)
 573:Drivers/BSP/Components/vl53l1cb/vl53l1cb.c ****   {
 574:Drivers/BSP/Components/vl53l1cb/vl53l1cb.c ****     ret = VL53L1CB_ERROR;
 575:Drivers/BSP/Components/vl53l1cb/vl53l1cb.c ****   }
 576:Drivers/BSP/Components/vl53l1cb/vl53l1cb.c ****   else if (VL53L1_PerformOffsetSimpleCalibration(pObj, (int32_t)CalDistance) != VL53L1_ERROR_NONE)
 577:Drivers/BSP/Components/vl53l1cb/vl53l1cb.c ****   {
 578:Drivers/BSP/Components/vl53l1cb/vl53l1cb.c ****     ret = VL53L1CB_ERROR;
 579:Drivers/BSP/Components/vl53l1cb/vl53l1cb.c ****   }
 580:Drivers/BSP/Components/vl53l1cb/vl53l1cb.c ****   else
 581:Drivers/BSP/Components/vl53l1cb/vl53l1cb.c ****   {
 582:Drivers/BSP/Components/vl53l1cb/vl53l1cb.c ****     ret = VL53L1CB_OK;
 583:Drivers/BSP/Components/vl53l1cb/vl53l1cb.c ****   }
 584:Drivers/BSP/Components/vl53l1cb/vl53l1cb.c **** 
 585:Drivers/BSP/Components/vl53l1cb/vl53l1cb.c ****   return ret;
 586:Drivers/BSP/Components/vl53l1cb/vl53l1cb.c **** }
 587:Drivers/BSP/Components/vl53l1cb/vl53l1cb.c **** 
 588:Drivers/BSP/Components/vl53l1cb/vl53l1cb.c **** /**
 589:Drivers/BSP/Components/vl53l1cb/vl53l1cb.c ****   * @brief Perform a xtalk calibration.
 590:Drivers/BSP/Components/vl53l1cb/vl53l1cb.c ****   * @param pObj    vl53l1cb context object.
 591:Drivers/BSP/Components/vl53l1cb/vl53l1cb.c ****   * @retval VL53L1CB status
 592:Drivers/BSP/Components/vl53l1cb/vl53l1cb.c ****   */
 593:Drivers/BSP/Components/vl53l1cb/vl53l1cb.c **** int32_t VL53L1CB_XTalkCalibration(VL53L1CB_Object_t *pObj)
 594:Drivers/BSP/Components/vl53l1cb/vl53l1cb.c **** {
 595:Drivers/BSP/Components/vl53l1cb/vl53l1cb.c ****   int32_t ret;
 596:Drivers/BSP/Components/vl53l1cb/vl53l1cb.c **** 
 597:Drivers/BSP/Components/vl53l1cb/vl53l1cb.c ****   if (VL53L1_PerformXTalkCalibration(pObj, VL53L1_XTALKCALIBRATIONMODE_FULL_ROI) != VL53L1_ERROR_NO
 598:Drivers/BSP/Components/vl53l1cb/vl53l1cb.c ****   {
 599:Drivers/BSP/Components/vl53l1cb/vl53l1cb.c ****     ret = VL53L1CB_ERROR;
 600:Drivers/BSP/Components/vl53l1cb/vl53l1cb.c ****   }
 601:Drivers/BSP/Components/vl53l1cb/vl53l1cb.c ****   else
 602:Drivers/BSP/Components/vl53l1cb/vl53l1cb.c ****   {
 603:Drivers/BSP/Components/vl53l1cb/vl53l1cb.c ****     ret = VL53L1CB_OK;
 604:Drivers/BSP/Components/vl53l1cb/vl53l1cb.c ****   }
 605:Drivers/BSP/Components/vl53l1cb/vl53l1cb.c **** 
 606:Drivers/BSP/Components/vl53l1cb/vl53l1cb.c ****   return ret;
 607:Drivers/BSP/Components/vl53l1cb/vl53l1cb.c **** }
 608:Drivers/BSP/Components/vl53l1cb/vl53l1cb.c **** 
 609:Drivers/BSP/Components/vl53l1cb/vl53l1cb.c **** /** @defgroup VL53L1CB_Private_Functions Private Functions
 610:Drivers/BSP/Components/vl53l1cb/vl53l1cb.c ****   * @{
 611:Drivers/BSP/Components/vl53l1cb/vl53l1cb.c ****   */
 612:Drivers/BSP/Components/vl53l1cb/vl53l1cb.c **** 
 613:Drivers/BSP/Components/vl53l1cb/vl53l1cb.c **** static int32_t vl53l1cb_poll_for_measurement(VL53L1CB_Object_t *pObj, uint32_t Timeout)
 614:Drivers/BSP/Components/vl53l1cb/vl53l1cb.c **** {
 692              		.loc 1 614 1 is_stmt 1 view -0
ARM GAS  C:\Temp\cc6vBPoU.s 			page 26


 693              		.cfi_startproc
 694              		@ args = 0, pretend = 0, frame = 8
 695              		@ frame_needed = 0, uses_anonymous_args = 0
 696              		.loc 1 614 1 is_stmt 0 view .LVU205
 697 0000 70B5     		push	{r4, r5, r6, lr}
 698              		.cfi_def_cfa_offset 16
 699              		.cfi_offset 4, -16
 700              		.cfi_offset 5, -12
 701              		.cfi_offset 6, -8
 702              		.cfi_offset 14, -4
 703 0002 82B0     		sub	sp, sp, #8
 704              		.cfi_def_cfa_offset 24
 615:Drivers/BSP/Components/vl53l1cb/vl53l1cb.c ****   uint32_t TickStart;
 705              		.loc 1 615 3 is_stmt 1 view .LVU206
 616:Drivers/BSP/Components/vl53l1cb/vl53l1cb.c ****   uint8_t NewDataReady = 0;
 706              		.loc 1 616 3 view .LVU207
 707              		.loc 1 616 11 is_stmt 0 view .LVU208
 708 0004 0023     		movs	r3, #0
 709 0006 8DF80730 		strb	r3, [sp, #7]
 617:Drivers/BSP/Components/vl53l1cb/vl53l1cb.c **** 
 618:Drivers/BSP/Components/vl53l1cb/vl53l1cb.c ****   if (pObj == NULL)
 710              		.loc 1 618 3 is_stmt 1 view .LVU209
 711              		.loc 1 618 6 is_stmt 0 view .LVU210
 712 000a A8B1     		cbz	r0, .L63
 713 000c 0E46     		mov	r6, r1
 714 000e 0446     		mov	r4, r0
 619:Drivers/BSP/Components/vl53l1cb/vl53l1cb.c ****   {
 620:Drivers/BSP/Components/vl53l1cb/vl53l1cb.c ****     return VL53L1CB_INVALID_PARAM;
 621:Drivers/BSP/Components/vl53l1cb/vl53l1cb.c ****   }
 622:Drivers/BSP/Components/vl53l1cb/vl53l1cb.c **** 
 623:Drivers/BSP/Components/vl53l1cb/vl53l1cb.c ****   TickStart = pObj->IO.GetTick();
 715              		.loc 1 623 3 is_stmt 1 view .LVU211
 716              		.loc 1 623 23 is_stmt 0 view .LVU212
 717 0010 4369     		ldr	r3, [r0, #20]
 718              		.loc 1 623 15 view .LVU213
 719 0012 9847     		blx	r3
 720              	.LVL68:
 721              		.loc 1 623 15 view .LVU214
 722 0014 0546     		mov	r5, r0
 723              	.LVL69:
 724              	.L62:
 624:Drivers/BSP/Components/vl53l1cb/vl53l1cb.c **** 
 625:Drivers/BSP/Components/vl53l1cb/vl53l1cb.c ****   do
 725              		.loc 1 625 3 is_stmt 1 view .LVU215
 626:Drivers/BSP/Components/vl53l1cb/vl53l1cb.c ****   {
 627:Drivers/BSP/Components/vl53l1cb/vl53l1cb.c ****     (void)VL53L1_GetMeasurementDataReady(pObj, &NewDataReady);
 726              		.loc 1 627 5 view .LVU216
 727              		.loc 1 627 11 is_stmt 0 view .LVU217
 728 0016 0DF10701 		add	r1, sp, #7
 729 001a 2046     		mov	r0, r4
 730 001c FFF7FEFF 		bl	VL53L1_GetMeasurementDataReady
 731              	.LVL70:
 628:Drivers/BSP/Components/vl53l1cb/vl53l1cb.c **** 
 629:Drivers/BSP/Components/vl53l1cb/vl53l1cb.c ****     if (NewDataReady == 1U)
 732              		.loc 1 629 5 is_stmt 1 view .LVU218
 733              		.loc 1 629 22 is_stmt 0 view .LVU219
 734 0020 9DF80730 		ldrb	r3, [sp, #7]	@ zero_extendqisi2
ARM GAS  C:\Temp\cc6vBPoU.s 			page 27


 735              		.loc 1 629 8 view .LVU220
 736 0024 012B     		cmp	r3, #1
 737 0026 0AD0     		beq	.L64
 630:Drivers/BSP/Components/vl53l1cb/vl53l1cb.c ****     {
 631:Drivers/BSP/Components/vl53l1cb/vl53l1cb.c ****       return VL53L1CB_OK;
 632:Drivers/BSP/Components/vl53l1cb/vl53l1cb.c ****     }
 633:Drivers/BSP/Components/vl53l1cb/vl53l1cb.c ****   } while ((pObj->IO.GetTick() - TickStart) < Timeout);
 738              		.loc 1 633 45 is_stmt 1 view .LVU221
 739              		.loc 1 633 21 is_stmt 0 view .LVU222
 740 0028 6369     		ldr	r3, [r4, #20]
 741              		.loc 1 633 13 view .LVU223
 742 002a 9847     		blx	r3
 743              	.LVL71:
 744              		.loc 1 633 32 view .LVU224
 745 002c 401B     		subs	r0, r0, r5
 746              		.loc 1 633 45 view .LVU225
 747 002e B042     		cmp	r0, r6
 748 0030 F1D3     		bcc	.L62
 634:Drivers/BSP/Components/vl53l1cb/vl53l1cb.c **** 
 635:Drivers/BSP/Components/vl53l1cb/vl53l1cb.c ****   return VL53L1CB_TIMEOUT;
 749              		.loc 1 635 10 view .LVU226
 750 0032 6FF00200 		mvn	r0, #2
 751 0036 03E0     		b	.L60
 752              	.LVL72:
 753              	.L63:
 620:Drivers/BSP/Components/vl53l1cb/vl53l1cb.c ****   }
 754              		.loc 1 620 12 view .LVU227
 755 0038 6FF00100 		mvn	r0, #1
 756              	.LVL73:
 620:Drivers/BSP/Components/vl53l1cb/vl53l1cb.c ****   }
 757              		.loc 1 620 12 view .LVU228
 758 003c 00E0     		b	.L60
 759              	.LVL74:
 760              	.L64:
 631:Drivers/BSP/Components/vl53l1cb/vl53l1cb.c ****     }
 761              		.loc 1 631 14 view .LVU229
 762 003e 0020     		movs	r0, #0
 763              	.LVL75:
 764              	.L60:
 636:Drivers/BSP/Components/vl53l1cb/vl53l1cb.c **** }
 765              		.loc 1 636 1 view .LVU230
 766 0040 02B0     		add	sp, sp, #8
 767              		.cfi_def_cfa_offset 16
 768              		@ sp needed
 769 0042 70BD     		pop	{r4, r5, r6, pc}
 770              		.cfi_endproc
 771              	.LFE20:
 773              		.section	.text.vl53l1cb_get_result,"ax",%progbits
 774              		.align	1
 775              		.syntax unified
 776              		.thumb
 777              		.thumb_func
 779              	vl53l1cb_get_result:
 780              	.LVL76:
 781              	.LFB21:
 637:Drivers/BSP/Components/vl53l1cb/vl53l1cb.c **** 
 638:Drivers/BSP/Components/vl53l1cb/vl53l1cb.c **** static int32_t vl53l1cb_get_result(VL53L1CB_Object_t *pObj, VL53L1CB_Result_t *pResult)
ARM GAS  C:\Temp\cc6vBPoU.s 			page 28


 639:Drivers/BSP/Components/vl53l1cb/vl53l1cb.c **** {
 782              		.loc 1 639 1 is_stmt 1 view -0
 783              		.cfi_startproc
 784              		@ args = 0, pretend = 0, frame = 0
 785              		@ frame_needed = 0, uses_anonymous_args = 0
 640:Drivers/BSP/Components/vl53l1cb/vl53l1cb.c ****   int32_t ret;
 786              		.loc 1 640 3 view .LVU232
 641:Drivers/BSP/Components/vl53l1cb/vl53l1cb.c ****   uint8_t i, j;
 787              		.loc 1 641 3 view .LVU233
 642:Drivers/BSP/Components/vl53l1cb/vl53l1cb.c ****   uint16_t spad_count; /* number of active spads for the current measurement */
 788              		.loc 1 642 3 view .LVU234
 643:Drivers/BSP/Components/vl53l1cb/vl53l1cb.c ****   float_t ambient_temp, signal_temp; /* temporary variables used for computation */
 789              		.loc 1 643 3 view .LVU235
 644:Drivers/BSP/Components/vl53l1cb/vl53l1cb.c ****   static VL53L1_MultiRangingData_t data;
 790              		.loc 1 644 3 view .LVU236
 645:Drivers/BSP/Components/vl53l1cb/vl53l1cb.c **** 
 646:Drivers/BSP/Components/vl53l1cb/vl53l1cb.c ****   if ((pObj == NULL) || (pResult == NULL))
 791              		.loc 1 646 3 view .LVU237
 792              		.loc 1 646 6 is_stmt 0 view .LVU238
 793 0000 0028     		cmp	r0, #0
 794 0002 00F0AC80 		beq	.L78
 639:Drivers/BSP/Components/vl53l1cb/vl53l1cb.c ****   int32_t ret;
 795              		.loc 1 639 1 discriminator 1 view .LVU239
 796 0006 F8B5     		push	{r3, r4, r5, r6, r7, lr}
 797              		.cfi_def_cfa_offset 24
 798              		.cfi_offset 3, -24
 799              		.cfi_offset 4, -20
 800              		.cfi_offset 5, -16
 801              		.cfi_offset 6, -12
 802              		.cfi_offset 7, -8
 803              		.cfi_offset 14, -4
 804 0008 0C46     		mov	r4, r1
 805 000a 0546     		mov	r5, r0
 806              		.loc 1 646 22 discriminator 1 view .LVU240
 807 000c 0029     		cmp	r1, #0
 808 000e 00F0A980 		beq	.L79
 647:Drivers/BSP/Components/vl53l1cb/vl53l1cb.c ****   {
 648:Drivers/BSP/Components/vl53l1cb/vl53l1cb.c ****     ret = VL53L1CB_INVALID_PARAM;
 649:Drivers/BSP/Components/vl53l1cb/vl53l1cb.c ****   }
 650:Drivers/BSP/Components/vl53l1cb/vl53l1cb.c ****   else if (VL53L1_GetMultiRangingData(pObj, &data) != VL53L1_ERROR_NONE)
 809              		.loc 1 650 8 is_stmt 1 view .LVU241
 810              		.loc 1 650 12 is_stmt 0 view .LVU242
 811 0012 5749     		ldr	r1, .L89
 812              	.LVL77:
 813              		.loc 1 650 12 view .LVU243
 814 0014 FFF7FEFF 		bl	VL53L1_GetMultiRangingData
 815              	.LVL78:
 816              		.loc 1 650 11 view .LVU244
 817 0018 0028     		cmp	r0, #0
 818 001a 40F0A680 		bne	.L80
 651:Drivers/BSP/Components/vl53l1cb/vl53l1cb.c ****   {
 652:Drivers/BSP/Components/vl53l1cb/vl53l1cb.c ****     ret = VL53L1CB_ERROR;
 653:Drivers/BSP/Components/vl53l1cb/vl53l1cb.c ****   }
 654:Drivers/BSP/Components/vl53l1cb/vl53l1cb.c ****   else
 655:Drivers/BSP/Components/vl53l1cb/vl53l1cb.c ****   {
 656:Drivers/BSP/Components/vl53l1cb/vl53l1cb.c ****     for (i = 0; i < VL53L1CB_MAX_NB_ZONES; i++)
 819              		.loc 1 656 12 view .LVU245
ARM GAS  C:\Temp\cc6vBPoU.s 			page 29


 820 001e 0026     		movs	r6, #0
 821 0020 98E0     		b	.L68
 822              	.LVL79:
 823              	.L77:
 657:Drivers/BSP/Components/vl53l1cb/vl53l1cb.c ****     {
 658:Drivers/BSP/Components/vl53l1cb/vl53l1cb.c ****       /* number of detected targets by the device */
 659:Drivers/BSP/Components/vl53l1cb/vl53l1cb.c ****       pResult->ZoneResult[i].NumberOfTargets = data.NumberOfObjectsFound;
 824              		.loc 1 659 7 is_stmt 1 view .LVU246
 825              		.loc 1 659 29 is_stmt 0 view .LVU247
 826 0022 3246     		mov	r2, r6
 827              		.loc 1 659 52 view .LVU248
 828 0024 524B     		ldr	r3, .L89
 829 0026 9979     		ldrb	r1, [r3, #6]	@ zero_extendqisi2
 830              		.loc 1 659 46 view .LVU249
 831 0028 06EB0613 		add	r3, r6, r6, lsl #4
 832 002c 04EB8303 		add	r3, r4, r3, lsl #2
 833 0030 5960     		str	r1, [r3, #4]
 660:Drivers/BSP/Components/vl53l1cb/vl53l1cb.c **** 
 661:Drivers/BSP/Components/vl53l1cb/vl53l1cb.c ****       for (j = 0; j < data.NumberOfObjectsFound; j++)
 834              		.loc 1 661 7 is_stmt 1 view .LVU250
 835              	.LVL80:
 836              		.loc 1 661 14 is_stmt 0 view .LVU251
 837 0032 3346     		mov	r3, r6
 838              		.loc 1 661 7 view .LVU252
 839 0034 31E0     		b	.L69
 840              	.LVL81:
 841              	.L88:
 662:Drivers/BSP/Components/vl53l1cb/vl53l1cb.c ****       {
 663:Drivers/BSP/Components/vl53l1cb/vl53l1cb.c ****         /* clip the value if negative */
 664:Drivers/BSP/Components/vl53l1cb/vl53l1cb.c ****         if (data.RangeData[j].RangeMilliMeter < 0)
 665:Drivers/BSP/Components/vl53l1cb/vl53l1cb.c ****         {
 666:Drivers/BSP/Components/vl53l1cb/vl53l1cb.c ****           pResult->ZoneResult[i].Distance[j] = 0U;
 842              		.loc 1 666 11 is_stmt 1 view .LVU253
 843              		.loc 1 666 46 is_stmt 0 view .LVU254
 844 0036 02EB0210 		add	r0, r2, r2, lsl #4
 845 003a 1844     		add	r0, r0, r3
 846 003c 04EB8000 		add	r0, r4, r0, lsl #2
 847 0040 0027     		movs	r7, #0
 848 0042 8760     		str	r7, [r0, #8]
 849              	.L71:
 667:Drivers/BSP/Components/vl53l1cb/vl53l1cb.c ****         }
 668:Drivers/BSP/Components/vl53l1cb/vl53l1cb.c ****         else
 669:Drivers/BSP/Components/vl53l1cb/vl53l1cb.c ****         {
 670:Drivers/BSP/Components/vl53l1cb/vl53l1cb.c ****           pResult->ZoneResult[i].Distance[j] = (uint32_t)data.RangeData[j].RangeMilliMeter;
 671:Drivers/BSP/Components/vl53l1cb/vl53l1cb.c ****         }
 672:Drivers/BSP/Components/vl53l1cb/vl53l1cb.c ****         
 673:Drivers/BSP/Components/vl53l1cb/vl53l1cb.c ****         /* compute and return Ambient value if ambient rate output is enabled :
 674:Drivers/BSP/Components/vl53l1cb/vl53l1cb.c ****          * - convert value from FixPoint1616 to Mcps by dividing by 65536
 675:Drivers/BSP/Components/vl53l1cb/vl53l1cb.c ****          * - convert value from Mcps to Kcps by multiplying it by 1000
 676:Drivers/BSP/Components/vl53l1cb/vl53l1cb.c ****          * - obtain number of active spads by dividing EffectiveSpadRtnCount by 256
 677:Drivers/BSP/Components/vl53l1cb/vl53l1cb.c ****          * - convert ambient value from Kcps to Kcps/spad diving by the number of active spads  
 678:Drivers/BSP/Components/vl53l1cb/vl53l1cb.c ****          */
 679:Drivers/BSP/Components/vl53l1cb/vl53l1cb.c ****         if (pObj->IsAmbientEnabled == 1U)
 850              		.loc 1 679 9 is_stmt 1 view .LVU255
 851              		.loc 1 679 17 is_stmt 0 view .LVU256
 852 0044 05F5C040 		add	r0, r5, #24576
 853 0048 90F8740F 		ldrb	r0, [r0, #3956]	@ zero_extendqisi2
ARM GAS  C:\Temp\cc6vBPoU.s 			page 30


 854              		.loc 1 679 12 view .LVU257
 855 004c 0128     		cmp	r0, #1
 856 004e 39D0     		beq	.L85
 680:Drivers/BSP/Components/vl53l1cb/vl53l1cb.c ****         {
 681:Drivers/BSP/Components/vl53l1cb/vl53l1cb.c ****           ambient_temp = (data.RangeData[j].AmbientRateRtnMegaCps / 65536.0f) * 1000.0f;
 682:Drivers/BSP/Components/vl53l1cb/vl53l1cb.c ****           spad_count = data.EffectiveSpadRtnCount >> 8;
 683:Drivers/BSP/Components/vl53l1cb/vl53l1cb.c ****           pResult->ZoneResult[i].Ambient[j] = ambient_temp / (float_t)spad_count;
 684:Drivers/BSP/Components/vl53l1cb/vl53l1cb.c ****         }
 685:Drivers/BSP/Components/vl53l1cb/vl53l1cb.c ****         else
 686:Drivers/BSP/Components/vl53l1cb/vl53l1cb.c ****         {
 687:Drivers/BSP/Components/vl53l1cb/vl53l1cb.c ****           pResult->ZoneResult[i].Ambient[j] = 0.0f;
 857              		.loc 1 687 11 is_stmt 1 view .LVU258
 858              		.loc 1 687 45 is_stmt 0 view .LVU259
 859 0050 02EB0210 		add	r0, r2, r2, lsl #4
 860 0054 0844     		add	r0, r0, r1
 861 0056 0830     		adds	r0, r0, #8
 862 0058 04EB8000 		add	r0, r4, r0, lsl #2
 863 005c 0027     		movs	r7, #0
 864 005e 8760     		str	r7, [r0, #8]	@ float
 865              	.L73:
 688:Drivers/BSP/Components/vl53l1cb/vl53l1cb.c ****         }
 689:Drivers/BSP/Components/vl53l1cb/vl53l1cb.c **** 
 690:Drivers/BSP/Components/vl53l1cb/vl53l1cb.c ****         /* compute and return Ambient value if signal rate output is enabled :
 691:Drivers/BSP/Components/vl53l1cb/vl53l1cb.c ****          * - convert value from FixPoint1616 to Mcps by dividing by 65536
 692:Drivers/BSP/Components/vl53l1cb/vl53l1cb.c ****          * - convert value from Mcps to Kcps by multiplying it by 1000
 693:Drivers/BSP/Components/vl53l1cb/vl53l1cb.c ****          * - obtain number of active spads by dividing EffectiveSpadRtnCount by 256
 694:Drivers/BSP/Components/vl53l1cb/vl53l1cb.c ****          * - convert ambient value from Kcps to Kcps/spad diving by the number of active spads  
 695:Drivers/BSP/Components/vl53l1cb/vl53l1cb.c ****          */
 696:Drivers/BSP/Components/vl53l1cb/vl53l1cb.c ****         if (pObj->IsSignalEnabled == 1U)
 866              		.loc 1 696 9 is_stmt 1 view .LVU260
 867              		.loc 1 696 17 is_stmt 0 view .LVU261
 868 0060 05F5C040 		add	r0, r5, #24576
 869 0064 90F8750F 		ldrb	r0, [r0, #3957]	@ zero_extendqisi2
 870              		.loc 1 696 12 view .LVU262
 871 0068 0128     		cmp	r0, #1
 872 006a 4ED0     		beq	.L86
 697:Drivers/BSP/Components/vl53l1cb/vl53l1cb.c ****         {
 698:Drivers/BSP/Components/vl53l1cb/vl53l1cb.c ****           signal_temp = (data.RangeData[j].SignalRateRtnMegaCps / 65536.0f) * 1000.0f;
 699:Drivers/BSP/Components/vl53l1cb/vl53l1cb.c ****           spad_count = data.EffectiveSpadRtnCount >> 8;
 700:Drivers/BSP/Components/vl53l1cb/vl53l1cb.c ****           pResult->ZoneResult[i].Signal[j] = signal_temp / (float_t)spad_count;
 701:Drivers/BSP/Components/vl53l1cb/vl53l1cb.c ****         }
 702:Drivers/BSP/Components/vl53l1cb/vl53l1cb.c ****         else
 703:Drivers/BSP/Components/vl53l1cb/vl53l1cb.c ****         {
 704:Drivers/BSP/Components/vl53l1cb/vl53l1cb.c ****           pResult->ZoneResult[i].Signal[j] = 0.0f;
 873              		.loc 1 704 11 is_stmt 1 view .LVU263
 874              		.loc 1 704 44 is_stmt 0 view .LVU264
 875 006c 02EB0210 		add	r0, r2, r2, lsl #4
 876 0070 0844     		add	r0, r0, r1
 877 0072 0C30     		adds	r0, r0, #12
 878 0074 04EB8000 		add	r0, r4, r0, lsl #2
 879 0078 0027     		movs	r7, #0
 880 007a 8760     		str	r7, [r0, #8]	@ float
 881              	.L75:
 705:Drivers/BSP/Components/vl53l1cb/vl53l1cb.c ****         }
 706:Drivers/BSP/Components/vl53l1cb/vl53l1cb.c **** 
 707:Drivers/BSP/Components/vl53l1cb/vl53l1cb.c ****         pResult->ZoneResult[i].Status[j] = data.RangeData[j].RangeStatus;
 882              		.loc 1 707 9 is_stmt 1 discriminator 2 view .LVU265
ARM GAS  C:\Temp\cc6vBPoU.s 			page 31


 883              		.loc 1 707 61 is_stmt 0 discriminator 2 view .LVU266
 884 007c C1EBC107 		rsb	r7, r1, r1, lsl #3
 885 0080 3B48     		ldr	r0, .L89
 886 0082 00EB8700 		add	r0, r0, r7, lsl #2
 887 0086 C77F     		ldrb	r7, [r0, #31]	@ zero_extendqisi2
 888              		.loc 1 707 42 discriminator 2 view .LVU267
 889 0088 02EB0210 		add	r0, r2, r2, lsl #4
 890 008c 0844     		add	r0, r0, r1
 891 008e 0430     		adds	r0, r0, #4
 892 0090 04EB8000 		add	r0, r4, r0, lsl #2
 893 0094 8760     		str	r7, [r0, #8]
 661:Drivers/BSP/Components/vl53l1cb/vl53l1cb.c ****       {
 894              		.loc 1 661 51 is_stmt 1 discriminator 2 view .LVU268
 895 0096 0133     		adds	r3, r3, #1
 896              	.LVL82:
 661:Drivers/BSP/Components/vl53l1cb/vl53l1cb.c ****       {
 897              		.loc 1 661 51 is_stmt 0 discriminator 2 view .LVU269
 898 0098 DBB2     		uxtb	r3, r3
 899              	.LVL83:
 900              	.L69:
 661:Drivers/BSP/Components/vl53l1cb/vl53l1cb.c ****       {
 901              		.loc 1 661 21 is_stmt 1 discriminator 1 view .LVU270
 661:Drivers/BSP/Components/vl53l1cb/vl53l1cb.c ****       {
 902              		.loc 1 661 27 is_stmt 0 discriminator 1 view .LVU271
 903 009a 3549     		ldr	r1, .L89
 904 009c 8979     		ldrb	r1, [r1, #6]	@ zero_extendqisi2
 661:Drivers/BSP/Components/vl53l1cb/vl53l1cb.c ****       {
 905              		.loc 1 661 21 discriminator 1 view .LVU272
 906 009e 9942     		cmp	r1, r3
 907 00a0 56D9     		bls	.L87
 664:Drivers/BSP/Components/vl53l1cb/vl53l1cb.c ****         {
 908              		.loc 1 664 9 is_stmt 1 view .LVU273
 664:Drivers/BSP/Components/vl53l1cb/vl53l1cb.c ****         {
 909              		.loc 1 664 30 is_stmt 0 view .LVU274
 910 00a2 1946     		mov	r1, r3
 911 00a4 C3EBC30C 		rsb	ip, r3, r3, lsl #3
 912 00a8 3148     		ldr	r0, .L89
 913 00aa 00EB8C00 		add	r0, r0, ip, lsl #2
 914 00ae B0F91C70 		ldrsh	r7, [r0, #28]
 664:Drivers/BSP/Components/vl53l1cb/vl53l1cb.c ****         {
 915              		.loc 1 664 12 view .LVU275
 916 00b2 002F     		cmp	r7, #0
 917 00b4 BFDB     		blt	.L88
 670:Drivers/BSP/Components/vl53l1cb/vl53l1cb.c ****         }
 918              		.loc 1 670 11 is_stmt 1 view .LVU276
 670:Drivers/BSP/Components/vl53l1cb/vl53l1cb.c ****         }
 919              		.loc 1 670 46 is_stmt 0 view .LVU277
 920 00b6 02EB0210 		add	r0, r2, r2, lsl #4
 921 00ba 1844     		add	r0, r0, r3
 922 00bc 04EB8000 		add	r0, r4, r0, lsl #2
 923 00c0 8760     		str	r7, [r0, #8]
 924 00c2 BFE7     		b	.L71
 925              	.L85:
 681:Drivers/BSP/Components/vl53l1cb/vl53l1cb.c ****           spad_count = data.EffectiveSpadRtnCount >> 8;
 926              		.loc 1 681 11 is_stmt 1 view .LVU278
 681:Drivers/BSP/Components/vl53l1cb/vl53l1cb.c ****           spad_count = data.EffectiveSpadRtnCount >> 8;
 927              		.loc 1 681 44 is_stmt 0 view .LVU279
ARM GAS  C:\Temp\cc6vBPoU.s 			page 32


 928 00c4 2A4F     		ldr	r7, .L89
 929 00c6 C1EBC100 		rsb	r0, r1, r1, lsl #3
 930 00ca 07EB8000 		add	r0, r7, r0, lsl #2
 931 00ce D0ED057A 		vldr.32	s15, [r0, #20]	@ int
 681:Drivers/BSP/Components/vl53l1cb/vl53l1cb.c ****           spad_count = data.EffectiveSpadRtnCount >> 8;
 932              		.loc 1 681 67 view .LVU280
 933 00d2 F8EE677A 		vcvt.f32.u32	s15, s15
 934 00d6 9FED277A 		vldr.32	s14, .L89+4
 935 00da 67EE877A 		vmul.f32	s15, s15, s14
 681:Drivers/BSP/Components/vl53l1cb/vl53l1cb.c ****           spad_count = data.EffectiveSpadRtnCount >> 8;
 936              		.loc 1 681 24 view .LVU281
 937 00de 9FED267A 		vldr.32	s14, .L89+8
 938 00e2 67EE877A 		vmul.f32	s15, s15, s14
 939              	.LVL84:
 682:Drivers/BSP/Components/vl53l1cb/vl53l1cb.c ****           pResult->ZoneResult[i].Ambient[j] = ambient_temp / (float_t)spad_count;
 940              		.loc 1 682 11 is_stmt 1 view .LVU282
 682:Drivers/BSP/Components/vl53l1cb/vl53l1cb.c ****           pResult->ZoneResult[i].Ambient[j] = ambient_temp / (float_t)spad_count;
 941              		.loc 1 682 28 is_stmt 0 view .LVU283
 942 00e6 B7F87A00 		ldrh	r0, [r7, #122]
 682:Drivers/BSP/Components/vl53l1cb/vl53l1cb.c ****           pResult->ZoneResult[i].Ambient[j] = ambient_temp / (float_t)spad_count;
 943              		.loc 1 682 22 view .LVU284
 944 00ea 000A     		lsrs	r0, r0, #8
 945              	.LVL85:
 683:Drivers/BSP/Components/vl53l1cb/vl53l1cb.c ****         }
 946              		.loc 1 683 11 is_stmt 1 view .LVU285
 683:Drivers/BSP/Components/vl53l1cb/vl53l1cb.c ****         }
 947              		.loc 1 683 62 is_stmt 0 view .LVU286
 948 00ec 07EE100A 		vmov	s14, r0	@ int
 949 00f0 B8EE477A 		vcvt.f32.u32	s14, s14
 683:Drivers/BSP/Components/vl53l1cb/vl53l1cb.c ****         }
 950              		.loc 1 683 60 view .LVU287
 951 00f4 C7EE876A 		vdiv.f32	s13, s15, s14
 683:Drivers/BSP/Components/vl53l1cb/vl53l1cb.c ****         }
 952              		.loc 1 683 45 view .LVU288
 953 00f8 02EB0210 		add	r0, r2, r2, lsl #4
 954              	.LVL86:
 683:Drivers/BSP/Components/vl53l1cb/vl53l1cb.c ****         }
 955              		.loc 1 683 45 view .LVU289
 956 00fc 0844     		add	r0, r0, r1
 957 00fe 0830     		adds	r0, r0, #8
 958 0100 04EB8000 		add	r0, r4, r0, lsl #2
 959 0104 C0ED026A 		vstr.32	s13, [r0, #8]
 960              	.LVL87:
 683:Drivers/BSP/Components/vl53l1cb/vl53l1cb.c ****         }
 961              		.loc 1 683 45 view .LVU290
 962 0108 AAE7     		b	.L73
 963              	.LVL88:
 964              	.L86:
 698:Drivers/BSP/Components/vl53l1cb/vl53l1cb.c ****           spad_count = data.EffectiveSpadRtnCount >> 8;
 965              		.loc 1 698 11 is_stmt 1 view .LVU291
 698:Drivers/BSP/Components/vl53l1cb/vl53l1cb.c ****           spad_count = data.EffectiveSpadRtnCount >> 8;
 966              		.loc 1 698 43 is_stmt 0 view .LVU292
 967 010a 194F     		ldr	r7, .L89
 968 010c C1EBC100 		rsb	r0, r1, r1, lsl #3
 969 0110 07EB8000 		add	r0, r7, r0, lsl #2
 970 0114 D0ED047A 		vldr.32	s15, [r0, #16]	@ int
 698:Drivers/BSP/Components/vl53l1cb/vl53l1cb.c ****           spad_count = data.EffectiveSpadRtnCount >> 8;
ARM GAS  C:\Temp\cc6vBPoU.s 			page 33


 971              		.loc 1 698 65 view .LVU293
 972 0118 F8EE677A 		vcvt.f32.u32	s15, s15
 973 011c 9FED157A 		vldr.32	s14, .L89+4
 974 0120 67EE877A 		vmul.f32	s15, s15, s14
 698:Drivers/BSP/Components/vl53l1cb/vl53l1cb.c ****           spad_count = data.EffectiveSpadRtnCount >> 8;
 975              		.loc 1 698 23 view .LVU294
 976 0124 9FED147A 		vldr.32	s14, .L89+8
 977 0128 67EE877A 		vmul.f32	s15, s15, s14
 978              	.LVL89:
 699:Drivers/BSP/Components/vl53l1cb/vl53l1cb.c ****           pResult->ZoneResult[i].Signal[j] = signal_temp / (float_t)spad_count;
 979              		.loc 1 699 11 is_stmt 1 view .LVU295
 699:Drivers/BSP/Components/vl53l1cb/vl53l1cb.c ****           pResult->ZoneResult[i].Signal[j] = signal_temp / (float_t)spad_count;
 980              		.loc 1 699 28 is_stmt 0 view .LVU296
 981 012c B7F87A00 		ldrh	r0, [r7, #122]
 699:Drivers/BSP/Components/vl53l1cb/vl53l1cb.c ****           pResult->ZoneResult[i].Signal[j] = signal_temp / (float_t)spad_count;
 982              		.loc 1 699 22 view .LVU297
 983 0130 000A     		lsrs	r0, r0, #8
 984              	.LVL90:
 700:Drivers/BSP/Components/vl53l1cb/vl53l1cb.c ****         }
 985              		.loc 1 700 11 is_stmt 1 view .LVU298
 700:Drivers/BSP/Components/vl53l1cb/vl53l1cb.c ****         }
 986              		.loc 1 700 60 is_stmt 0 view .LVU299
 987 0132 07EE100A 		vmov	s14, r0	@ int
 988 0136 B8EE477A 		vcvt.f32.u32	s14, s14
 700:Drivers/BSP/Components/vl53l1cb/vl53l1cb.c ****         }
 989              		.loc 1 700 58 view .LVU300
 990 013a C7EE876A 		vdiv.f32	s13, s15, s14
 700:Drivers/BSP/Components/vl53l1cb/vl53l1cb.c ****         }
 991              		.loc 1 700 44 view .LVU301
 992 013e 02EB0210 		add	r0, r2, r2, lsl #4
 993              	.LVL91:
 700:Drivers/BSP/Components/vl53l1cb/vl53l1cb.c ****         }
 994              		.loc 1 700 44 view .LVU302
 995 0142 0844     		add	r0, r0, r1
 996 0144 0C30     		adds	r0, r0, #12
 997 0146 04EB8000 		add	r0, r4, r0, lsl #2
 998 014a C0ED026A 		vstr.32	s13, [r0, #8]
 999              	.LVL92:
 700:Drivers/BSP/Components/vl53l1cb/vl53l1cb.c ****         }
 1000              		.loc 1 700 44 view .LVU303
 1001 014e 95E7     		b	.L75
 1002              	.LVL93:
 1003              	.L87:
 656:Drivers/BSP/Components/vl53l1cb/vl53l1cb.c ****     {
 1004              		.loc 1 656 45 is_stmt 1 discriminator 2 view .LVU304
 1005 0150 0136     		adds	r6, r6, #1
 1006              	.LVL94:
 656:Drivers/BSP/Components/vl53l1cb/vl53l1cb.c ****     {
 1007              		.loc 1 656 45 is_stmt 0 discriminator 2 view .LVU305
 1008 0152 F6B2     		uxtb	r6, r6
 1009              	.LVL95:
 1010              	.L68:
 656:Drivers/BSP/Components/vl53l1cb/vl53l1cb.c ****     {
 1011              		.loc 1 656 19 is_stmt 1 discriminator 1 view .LVU306
 1012 0154 002E     		cmp	r6, #0
 1013 0156 3FF464AF 		beq	.L77
 708:Drivers/BSP/Components/vl53l1cb/vl53l1cb.c ****       }
ARM GAS  C:\Temp\cc6vBPoU.s 			page 34


 709:Drivers/BSP/Components/vl53l1cb/vl53l1cb.c ****     }
 710:Drivers/BSP/Components/vl53l1cb/vl53l1cb.c **** 
 711:Drivers/BSP/Components/vl53l1cb/vl53l1cb.c ****     ret = VL53L1CB_OK;
 1014              		.loc 1 711 9 is_stmt 0 view .LVU307
 1015 015a 0020     		movs	r0, #0
 1016              	.LVL96:
 1017              	.L66:
 712:Drivers/BSP/Components/vl53l1cb/vl53l1cb.c ****   }
 713:Drivers/BSP/Components/vl53l1cb/vl53l1cb.c **** 
 714:Drivers/BSP/Components/vl53l1cb/vl53l1cb.c ****   return ret;
 715:Drivers/BSP/Components/vl53l1cb/vl53l1cb.c **** }
 1018              		.loc 1 715 1 view .LVU308
 1019 015c F8BD     		pop	{r3, r4, r5, r6, r7, pc}
 1020              	.LVL97:
 1021              	.L78:
 1022              		.cfi_def_cfa_offset 0
 1023              		.cfi_restore 3
 1024              		.cfi_restore 4
 1025              		.cfi_restore 5
 1026              		.cfi_restore 6
 1027              		.cfi_restore 7
 1028              		.cfi_restore 14
 648:Drivers/BSP/Components/vl53l1cb/vl53l1cb.c ****   }
 1029              		.loc 1 648 9 view .LVU309
 1030 015e 6FF00100 		mvn	r0, #1
 1031              	.LVL98:
 1032              		.loc 1 715 1 view .LVU310
 1033 0162 7047     		bx	lr
 1034              	.LVL99:
 1035              	.L79:
 1036              		.cfi_def_cfa_offset 24
 1037              		.cfi_offset 3, -24
 1038              		.cfi_offset 4, -20
 1039              		.cfi_offset 5, -16
 1040              		.cfi_offset 6, -12
 1041              		.cfi_offset 7, -8
 1042              		.cfi_offset 14, -4
 648:Drivers/BSP/Components/vl53l1cb/vl53l1cb.c ****   }
 1043              		.loc 1 648 9 view .LVU311
 1044 0164 6FF00100 		mvn	r0, #1
 1045              	.LVL100:
 648:Drivers/BSP/Components/vl53l1cb/vl53l1cb.c ****   }
 1046              		.loc 1 648 9 view .LVU312
 1047 0168 F8E7     		b	.L66
 1048              	.LVL101:
 1049              	.L80:
 652:Drivers/BSP/Components/vl53l1cb/vl53l1cb.c ****   }
 1050              		.loc 1 652 9 view .LVU313
 1051 016a 4FF0FF30 		mov	r0, #-1
 1052              	.LVL102:
 714:Drivers/BSP/Components/vl53l1cb/vl53l1cb.c **** }
 1053              		.loc 1 714 3 is_stmt 1 view .LVU314
 714:Drivers/BSP/Components/vl53l1cb/vl53l1cb.c **** }
 1054              		.loc 1 714 10 is_stmt 0 view .LVU315
 1055 016e F5E7     		b	.L66
 1056              	.L90:
 1057              		.align	2
ARM GAS  C:\Temp\cc6vBPoU.s 			page 35


 1058              	.L89:
 1059 0170 00000000 		.word	data.0
 1060 0174 00008037 		.word	931135488
 1061 0178 00007A44 		.word	1148846080
 1062              		.cfi_endproc
 1063              	.LFE21:
 1065              		.section	.text.VL53L1CB_GetDistance,"ax",%progbits
 1066              		.align	1
 1067              		.global	VL53L1CB_GetDistance
 1068              		.syntax unified
 1069              		.thumb
 1070              		.thumb_func
 1072              	VL53L1CB_GetDistance:
 1073              	.LVL103:
 1074              	.LFB11:
 345:Drivers/BSP/Components/vl53l1cb/vl53l1cb.c ****   int32_t ret;
 1075              		.loc 1 345 1 is_stmt 1 view -0
 1076              		.cfi_startproc
 1077              		@ args = 0, pretend = 0, frame = 0
 1078              		@ frame_needed = 0, uses_anonymous_args = 0
 346:Drivers/BSP/Components/vl53l1cb/vl53l1cb.c **** 
 1079              		.loc 1 346 3 view .LVU317
 348:Drivers/BSP/Components/vl53l1cb/vl53l1cb.c ****   if ((pObj == NULL) || (pResult == NULL))
 1080              		.loc 1 348 3 view .LVU318
 349:Drivers/BSP/Components/vl53l1cb/vl53l1cb.c ****   {
 1081              		.loc 1 349 3 view .LVU319
 349:Drivers/BSP/Components/vl53l1cb/vl53l1cb.c ****   {
 1082              		.loc 1 349 6 is_stmt 0 view .LVU320
 1083 0000 38B3     		cbz	r0, .L95
 345:Drivers/BSP/Components/vl53l1cb/vl53l1cb.c ****   int32_t ret;
 1084              		.loc 1 345 1 discriminator 1 view .LVU321
 1085 0002 38B5     		push	{r3, r4, r5, lr}
 1086              		.cfi_def_cfa_offset 16
 1087              		.cfi_offset 3, -16
 1088              		.cfi_offset 4, -12
 1089              		.cfi_offset 5, -8
 1090              		.cfi_offset 14, -4
 1091 0004 0D46     		mov	r5, r1
 1092 0006 0446     		mov	r4, r0
 349:Drivers/BSP/Components/vl53l1cb/vl53l1cb.c ****   {
 1093              		.loc 1 349 22 discriminator 1 view .LVU322
 1094 0008 31B3     		cbz	r1, .L96
 353:Drivers/BSP/Components/vl53l1cb/vl53l1cb.c ****   {
 1095              		.loc 1 353 8 is_stmt 1 view .LVU323
 353:Drivers/BSP/Components/vl53l1cb/vl53l1cb.c ****   {
 1096              		.loc 1 353 16 is_stmt 0 view .LVU324
 1097 000a 00F5C043 		add	r3, r0, #24576
 1098 000e 93F8713F 		ldrb	r3, [r3, #3953]	@ zero_extendqisi2
 353:Drivers/BSP/Components/vl53l1cb/vl53l1cb.c ****   {
 1099              		.loc 1 353 11 view .LVU325
 1100 0012 23B3     		cbz	r3, .L97
 357:Drivers/BSP/Components/vl53l1cb/vl53l1cb.c ****   {
 1101              		.loc 1 357 3 is_stmt 1 view .LVU326
 359:Drivers/BSP/Components/vl53l1cb/vl53l1cb.c ****     {
 1102              		.loc 1 359 5 view .LVU327
 359:Drivers/BSP/Components/vl53l1cb/vl53l1cb.c ****     {
 1103              		.loc 1 359 13 is_stmt 0 view .LVU328
ARM GAS  C:\Temp\cc6vBPoU.s 			page 36


 1104 0014 00F5C043 		add	r3, r0, #24576
 1105 0018 93F8723F 		ldrb	r3, [r3, #3954]	@ zero_extendqisi2
 359:Drivers/BSP/Components/vl53l1cb/vl53l1cb.c ****     {
 1106              		.loc 1 359 8 view .LVU329
 1107 001c 012B     		cmp	r3, #1
 1108 001e 04D0     		beq	.L103
 365:Drivers/BSP/Components/vl53l1cb/vl53l1cb.c ****     }
 1109              		.loc 1 365 7 is_stmt 1 view .LVU330
 365:Drivers/BSP/Components/vl53l1cb/vl53l1cb.c ****     }
 1110              		.loc 1 365 13 is_stmt 0 view .LVU331
 1111 0020 0021     		movs	r1, #0
 1112              	.LVL104:
 365:Drivers/BSP/Components/vl53l1cb/vl53l1cb.c ****     }
 1113              		.loc 1 365 13 view .LVU332
 1114 0022 FFF7FEFF 		bl	vl53l1cb_poll_for_measurement
 1115              	.LVL105:
 1116              	.L94:
 368:Drivers/BSP/Components/vl53l1cb/vl53l1cb.c ****     {
 1117              		.loc 1 368 5 is_stmt 1 view .LVU333
 368:Drivers/BSP/Components/vl53l1cb/vl53l1cb.c ****     {
 1118              		.loc 1 368 8 is_stmt 0 view .LVU334
 1119 0026 28B1     		cbz	r0, .L104
 1120              	.LVL106:
 1121              	.L91:
 388:Drivers/BSP/Components/vl53l1cb/vl53l1cb.c **** 
 1122              		.loc 1 388 1 view .LVU335
 1123 0028 38BD     		pop	{r3, r4, r5, pc}
 1124              	.LVL107:
 1125              	.L103:
 361:Drivers/BSP/Components/vl53l1cb/vl53l1cb.c ****     }
 1126              		.loc 1 361 7 is_stmt 1 view .LVU336
 361:Drivers/BSP/Components/vl53l1cb/vl53l1cb.c ****     }
 1127              		.loc 1 361 13 is_stmt 0 view .LVU337
 1128 002a 4FF6FF71 		movw	r1, #65535
 1129              	.LVL108:
 361:Drivers/BSP/Components/vl53l1cb/vl53l1cb.c ****     }
 1130              		.loc 1 361 13 view .LVU338
 1131 002e FFF7FEFF 		bl	vl53l1cb_poll_for_measurement
 1132              	.LVL109:
 361:Drivers/BSP/Components/vl53l1cb/vl53l1cb.c ****     }
 1133              		.loc 1 361 13 view .LVU339
 1134 0032 F8E7     		b	.L94
 1135              	.L104:
 371:Drivers/BSP/Components/vl53l1cb/vl53l1cb.c ****       {
 1136              		.loc 1 371 7 is_stmt 1 view .LVU340
 371:Drivers/BSP/Components/vl53l1cb/vl53l1cb.c ****       {
 1137              		.loc 1 371 11 is_stmt 0 view .LVU341
 1138 0034 2946     		mov	r1, r5
 1139 0036 2046     		mov	r0, r4
 1140              	.LVL110:
 371:Drivers/BSP/Components/vl53l1cb/vl53l1cb.c ****       {
 1141              		.loc 1 371 11 view .LVU342
 1142 0038 FFF7FEFF 		bl	vl53l1cb_get_result
 1143              	.LVL111:
 371:Drivers/BSP/Components/vl53l1cb/vl53l1cb.c ****       {
 1144              		.loc 1 371 10 view .LVU343
 1145 003c 90B9     		cbnz	r0, .L98
ARM GAS  C:\Temp\cc6vBPoU.s 			page 37


 375:Drivers/BSP/Components/vl53l1cb/vl53l1cb.c ****       {
 1146              		.loc 1 375 12 is_stmt 1 view .LVU344
 375:Drivers/BSP/Components/vl53l1cb/vl53l1cb.c ****       {
 1147              		.loc 1 375 20 is_stmt 0 view .LVU345
 1148 003e 04F5C043 		add	r3, r4, #24576
 1149 0042 93F8733F 		ldrb	r3, [r3, #3955]	@ zero_extendqisi2
 375:Drivers/BSP/Components/vl53l1cb/vl53l1cb.c ****       {
 1150              		.loc 1 375 15 view .LVU346
 1151 0046 012B     		cmp	r3, #1
 1152 0048 EED1     		bne	.L91
 378:Drivers/BSP/Components/vl53l1cb/vl53l1cb.c ****       }
 1153              		.loc 1 378 9 is_stmt 1 view .LVU347
 378:Drivers/BSP/Components/vl53l1cb/vl53l1cb.c ****       }
 1154              		.loc 1 378 24 is_stmt 0 view .LVU348
 1155 004a 2046     		mov	r0, r4
 1156 004c FFF7FEFF 		bl	VL53L1_ClearInterruptAndStartMeasurement
 1157              	.LVL112:
 378:Drivers/BSP/Components/vl53l1cb/vl53l1cb.c ****       }
 1158              		.loc 1 378 24 view .LVU349
 1159 0050 EAE7     		b	.L91
 1160              	.LVL113:
 1161              	.L95:
 1162              		.cfi_def_cfa_offset 0
 1163              		.cfi_restore 3
 1164              		.cfi_restore 4
 1165              		.cfi_restore 5
 1166              		.cfi_restore 14
 351:Drivers/BSP/Components/vl53l1cb/vl53l1cb.c ****   }
 1167              		.loc 1 351 9 view .LVU350
 1168 0052 6FF00100 		mvn	r0, #1
 1169              	.LVL114:
 388:Drivers/BSP/Components/vl53l1cb/vl53l1cb.c **** 
 1170              		.loc 1 388 1 view .LVU351
 1171 0056 7047     		bx	lr
 1172              	.LVL115:
 1173              	.L96:
 1174              		.cfi_def_cfa_offset 16
 1175              		.cfi_offset 3, -16
 1176              		.cfi_offset 4, -12
 1177              		.cfi_offset 5, -8
 1178              		.cfi_offset 14, -4
 351:Drivers/BSP/Components/vl53l1cb/vl53l1cb.c ****   }
 1179              		.loc 1 351 9 view .LVU352
 1180 0058 6FF00100 		mvn	r0, #1
 1181              	.LVL116:
 351:Drivers/BSP/Components/vl53l1cb/vl53l1cb.c ****   }
 1182              		.loc 1 351 9 view .LVU353
 1183 005c E4E7     		b	.L91
 1184              	.LVL117:
 1185              	.L97:
 355:Drivers/BSP/Components/vl53l1cb/vl53l1cb.c ****   }
 1186              		.loc 1 355 9 view .LVU354
 1187 005e 4FF0FF30 		mov	r0, #-1
 1188              	.LVL118:
 355:Drivers/BSP/Components/vl53l1cb/vl53l1cb.c ****   }
 1189              		.loc 1 355 9 view .LVU355
 1190 0062 E1E7     		b	.L91
ARM GAS  C:\Temp\cc6vBPoU.s 			page 38


 1191              	.LVL119:
 1192              	.L98:
 373:Drivers/BSP/Components/vl53l1cb/vl53l1cb.c ****       }
 1193              		.loc 1 373 13 view .LVU356
 1194 0064 4FF0FF30 		mov	r0, #-1
 1195              	.LVL120:
 387:Drivers/BSP/Components/vl53l1cb/vl53l1cb.c **** }
 1196              		.loc 1 387 3 is_stmt 1 view .LVU357
 387:Drivers/BSP/Components/vl53l1cb/vl53l1cb.c **** }
 1197              		.loc 1 387 10 is_stmt 0 view .LVU358
 1198 0068 DEE7     		b	.L91
 1199              		.cfi_endproc
 1200              	.LFE11:
 1202              		.section	.text.VL53L1CB_Start,"ax",%progbits
 1203              		.align	1
 1204              		.global	VL53L1CB_Start
 1205              		.syntax unified
 1206              		.thumb
 1207              		.thumb_func
 1209              	VL53L1CB_Start:
 1210              	.LVL121:
 1211              	.LFB12:
 397:Drivers/BSP/Components/vl53l1cb/vl53l1cb.c ****   int32_t ret;
 1212              		.loc 1 397 1 is_stmt 1 view -0
 1213              		.cfi_startproc
 1214              		@ args = 0, pretend = 0, frame = 0
 1215              		@ frame_needed = 0, uses_anonymous_args = 0
 398:Drivers/BSP/Components/vl53l1cb/vl53l1cb.c **** 
 1216              		.loc 1 398 3 view .LVU360
 400:Drivers/BSP/Components/vl53l1cb/vl53l1cb.c ****   {
 1217              		.loc 1 400 3 view .LVU361
 400:Drivers/BSP/Components/vl53l1cb/vl53l1cb.c ****   {
 1218              		.loc 1 400 6 is_stmt 0 view .LVU362
 1219 0000 0028     		cmp	r0, #0
 1220 0002 45D0     		beq	.L113
 397:Drivers/BSP/Components/vl53l1cb/vl53l1cb.c ****   int32_t ret;
 1221              		.loc 1 397 1 view .LVU363
 1222 0004 38B5     		push	{r3, r4, r5, lr}
 1223              		.cfi_def_cfa_offset 16
 1224              		.cfi_offset 3, -16
 1225              		.cfi_offset 4, -12
 1226              		.cfi_offset 5, -8
 1227              		.cfi_offset 14, -4
 1228 0006 0D46     		mov	r5, r1
 1229 0008 0446     		mov	r4, r0
 404:Drivers/BSP/Components/vl53l1cb/vl53l1cb.c ****   {
 1230              		.loc 1 404 8 is_stmt 1 view .LVU364
 404:Drivers/BSP/Components/vl53l1cb/vl53l1cb.c ****   {
 1231              		.loc 1 404 16 is_stmt 0 view .LVU365
 1232 000a 00F5C043 		add	r3, r0, #24576
 1233 000e 93F8713F 		ldrb	r3, [r3, #3953]	@ zero_extendqisi2
 404:Drivers/BSP/Components/vl53l1cb/vl53l1cb.c ****   {
 1234              		.loc 1 404 11 view .LVU366
 1235 0012 012B     		cmp	r3, #1
 1236 0014 3FD0     		beq	.L114
 408:Drivers/BSP/Components/vl53l1cb/vl53l1cb.c ****   {
 1237              		.loc 1 408 8 is_stmt 1 view .LVU367
ARM GAS  C:\Temp\cc6vBPoU.s 			page 39


 408:Drivers/BSP/Components/vl53l1cb/vl53l1cb.c ****   {
 1238              		.loc 1 408 12 is_stmt 0 view .LVU368
 1239 0016 FFF7FEFF 		bl	VL53L1_StartMeasurement
 1240              	.LVL122:
 408:Drivers/BSP/Components/vl53l1cb/vl53l1cb.c ****   {
 1241              		.loc 1 408 11 view .LVU369
 1242 001a 0028     		cmp	r0, #0
 1243 001c 3ED1     		bne	.L115
 410:Drivers/BSP/Components/vl53l1cb/vl53l1cb.c ****     ret = VL53L1CB_OK;
 1244              		.loc 1 410 5 is_stmt 1 view .LVU370
 410:Drivers/BSP/Components/vl53l1cb/vl53l1cb.c ****     ret = VL53L1CB_OK;
 1245              		.loc 1 410 21 is_stmt 0 view .LVU371
 1246 001e 04F5C043 		add	r3, r4, #24576
 1247 0022 0122     		movs	r2, #1
 1248 0024 83F8712F 		strb	r2, [r3, #3953]
 411:Drivers/BSP/Components/vl53l1cb/vl53l1cb.c **** 
 1249              		.loc 1 411 5 is_stmt 1 view .LVU372
 1250              	.LVL123:
 413:Drivers/BSP/Components/vl53l1cb/vl53l1cb.c **** 
 1251              		.loc 1 413 5 view .LVU373
 413:Drivers/BSP/Components/vl53l1cb/vl53l1cb.c **** 
 1252              		.loc 1 413 20 is_stmt 0 view .LVU374
 1253 0028 2046     		mov	r0, r4
 1254 002a FFF7FEFF 		bl	VL53L1_ClearInterruptAndStartMeasurement
 1255              	.LVL124:
 415:Drivers/BSP/Components/vl53l1cb/vl53l1cb.c ****     {
 1256              		.loc 1 415 5 is_stmt 1 view .LVU375
 1257 002e 691E     		subs	r1, r5, #1
 1258 0030 0329     		cmp	r1, #3
 1259 0032 25D8     		bhi	.L107
 1260 0034 DFE801F0 		tbb	[pc, r1]
 1261              	.L109:
 1262 0038 02       		.byte	(.L112-.L109)/2
 1263 0039 0A       		.byte	(.L111-.L109)/2
 1264 003a 13       		.byte	(.L110-.L109)/2
 1265 003b 1C       		.byte	(.L108-.L109)/2
 1266              		.p2align 1
 1267              	.L112:
 418:Drivers/BSP/Components/vl53l1cb/vl53l1cb.c ****       pObj->IsBlocking = 1U;
 1268              		.loc 1 418 7 view .LVU376
 418:Drivers/BSP/Components/vl53l1cb/vl53l1cb.c ****       pObj->IsBlocking = 1U;
 1269              		.loc 1 418 26 is_stmt 0 view .LVU377
 1270 003c 04F5C044 		add	r4, r4, #24576
 1271              	.LVL125:
 418:Drivers/BSP/Components/vl53l1cb/vl53l1cb.c ****       pObj->IsBlocking = 1U;
 1272              		.loc 1 418 26 view .LVU378
 1273 0040 0123     		movs	r3, #1
 1274 0042 84F8733F 		strb	r3, [r4, #3955]
 419:Drivers/BSP/Components/vl53l1cb/vl53l1cb.c ****       break;
 1275              		.loc 1 419 7 is_stmt 1 view .LVU379
 419:Drivers/BSP/Components/vl53l1cb/vl53l1cb.c ****       break;
 1276              		.loc 1 419 24 is_stmt 0 view .LVU380
 1277 0046 84F8723F 		strb	r3, [r4, #3954]
 420:Drivers/BSP/Components/vl53l1cb/vl53l1cb.c **** 
 1278              		.loc 1 420 7 is_stmt 1 view .LVU381
 1279              	.LVL126:
 1280              	.L105:
ARM GAS  C:\Temp\cc6vBPoU.s 			page 40


 449:Drivers/BSP/Components/vl53l1cb/vl53l1cb.c **** 
 1281              		.loc 1 449 1 is_stmt 0 view .LVU382
 1282 004a 38BD     		pop	{r3, r4, r5, pc}
 1283              	.LVL127:
 1284              	.L111:
 423:Drivers/BSP/Components/vl53l1cb/vl53l1cb.c ****       pObj->IsBlocking = 1U;
 1285              		.loc 1 423 7 is_stmt 1 view .LVU383
 423:Drivers/BSP/Components/vl53l1cb/vl53l1cb.c ****       pObj->IsBlocking = 1U;
 1286              		.loc 1 423 26 is_stmt 0 view .LVU384
 1287 004c 04F5C044 		add	r4, r4, #24576
 1288              	.LVL128:
 423:Drivers/BSP/Components/vl53l1cb/vl53l1cb.c ****       pObj->IsBlocking = 1U;
 1289              		.loc 1 423 26 view .LVU385
 1290 0050 0023     		movs	r3, #0
 1291 0052 84F8733F 		strb	r3, [r4, #3955]
 424:Drivers/BSP/Components/vl53l1cb/vl53l1cb.c ****       break;
 1292              		.loc 1 424 7 is_stmt 1 view .LVU386
 424:Drivers/BSP/Components/vl53l1cb/vl53l1cb.c ****       break;
 1293              		.loc 1 424 24 is_stmt 0 view .LVU387
 1294 0056 0123     		movs	r3, #1
 1295 0058 84F8723F 		strb	r3, [r4, #3954]
 425:Drivers/BSP/Components/vl53l1cb/vl53l1cb.c **** 
 1296              		.loc 1 425 7 is_stmt 1 view .LVU388
 1297 005c F5E7     		b	.L105
 1298              	.LVL129:
 1299              	.L110:
 428:Drivers/BSP/Components/vl53l1cb/vl53l1cb.c ****       pObj->IsBlocking = 0U;
 1300              		.loc 1 428 7 view .LVU389
 428:Drivers/BSP/Components/vl53l1cb/vl53l1cb.c ****       pObj->IsBlocking = 0U;
 1301              		.loc 1 428 26 is_stmt 0 view .LVU390
 1302 005e 04F5C044 		add	r4, r4, #24576
 1303              	.LVL130:
 428:Drivers/BSP/Components/vl53l1cb/vl53l1cb.c ****       pObj->IsBlocking = 0U;
 1304              		.loc 1 428 26 view .LVU391
 1305 0062 0123     		movs	r3, #1
 1306 0064 84F8733F 		strb	r3, [r4, #3955]
 429:Drivers/BSP/Components/vl53l1cb/vl53l1cb.c ****       break;
 1307              		.loc 1 429 7 is_stmt 1 view .LVU392
 429:Drivers/BSP/Components/vl53l1cb/vl53l1cb.c ****       break;
 1308              		.loc 1 429 24 is_stmt 0 view .LVU393
 1309 0068 0023     		movs	r3, #0
 1310 006a 84F8723F 		strb	r3, [r4, #3954]
 430:Drivers/BSP/Components/vl53l1cb/vl53l1cb.c **** 
 1311              		.loc 1 430 7 is_stmt 1 view .LVU394
 1312 006e ECE7     		b	.L105
 1313              	.LVL131:
 1314              	.L108:
 433:Drivers/BSP/Components/vl53l1cb/vl53l1cb.c ****       pObj->IsBlocking = 0U;
 1315              		.loc 1 433 7 view .LVU395
 433:Drivers/BSP/Components/vl53l1cb/vl53l1cb.c ****       pObj->IsBlocking = 0U;
 1316              		.loc 1 433 26 is_stmt 0 view .LVU396
 1317 0070 04F5C044 		add	r4, r4, #24576
 1318              	.LVL132:
 433:Drivers/BSP/Components/vl53l1cb/vl53l1cb.c ****       pObj->IsBlocking = 0U;
 1319              		.loc 1 433 26 view .LVU397
 1320 0074 0023     		movs	r3, #0
 1321 0076 84F8733F 		strb	r3, [r4, #3955]
ARM GAS  C:\Temp\cc6vBPoU.s 			page 41


 434:Drivers/BSP/Components/vl53l1cb/vl53l1cb.c ****       break;
 1322              		.loc 1 434 7 is_stmt 1 view .LVU398
 434:Drivers/BSP/Components/vl53l1cb/vl53l1cb.c ****       break;
 1323              		.loc 1 434 24 is_stmt 0 view .LVU399
 1324 007a 84F8723F 		strb	r3, [r4, #3954]
 435:Drivers/BSP/Components/vl53l1cb/vl53l1cb.c **** 
 1325              		.loc 1 435 7 is_stmt 1 view .LVU400
 1326 007e E4E7     		b	.L105
 1327              	.LVL133:
 1328              	.L107:
 438:Drivers/BSP/Components/vl53l1cb/vl53l1cb.c ****       ret = VL53L1CB_INVALID_PARAM;
 1329              		.loc 1 438 7 view .LVU401
 438:Drivers/BSP/Components/vl53l1cb/vl53l1cb.c ****       ret = VL53L1CB_INVALID_PARAM;
 1330              		.loc 1 438 23 is_stmt 0 view .LVU402
 1331 0080 04F5C044 		add	r4, r4, #24576
 1332              	.LVL134:
 438:Drivers/BSP/Components/vl53l1cb/vl53l1cb.c ****       ret = VL53L1CB_INVALID_PARAM;
 1333              		.loc 1 438 23 view .LVU403
 1334 0084 0023     		movs	r3, #0
 1335 0086 84F8713F 		strb	r3, [r4, #3953]
 439:Drivers/BSP/Components/vl53l1cb/vl53l1cb.c ****       break;
 1336              		.loc 1 439 7 is_stmt 1 view .LVU404
 1337              	.LVL135:
 440:Drivers/BSP/Components/vl53l1cb/vl53l1cb.c ****     }
 1338              		.loc 1 440 7 view .LVU405
 439:Drivers/BSP/Components/vl53l1cb/vl53l1cb.c ****       break;
 1339              		.loc 1 439 11 is_stmt 0 view .LVU406
 1340 008a 6FF00100 		mvn	r0, #1
 440:Drivers/BSP/Components/vl53l1cb/vl53l1cb.c ****     }
 1341              		.loc 1 440 7 view .LVU407
 1342 008e DCE7     		b	.L105
 1343              	.LVL136:
 1344              	.L113:
 1345              		.cfi_def_cfa_offset 0
 1346              		.cfi_restore 3
 1347              		.cfi_restore 4
 1348              		.cfi_restore 5
 1349              		.cfi_restore 14
 402:Drivers/BSP/Components/vl53l1cb/vl53l1cb.c ****   }
 1350              		.loc 1 402 9 view .LVU408
 1351 0090 6FF00100 		mvn	r0, #1
 1352              	.LVL137:
 449:Drivers/BSP/Components/vl53l1cb/vl53l1cb.c **** 
 1353              		.loc 1 449 1 view .LVU409
 1354 0094 7047     		bx	lr
 1355              	.LVL138:
 1356              	.L114:
 1357              		.cfi_def_cfa_offset 16
 1358              		.cfi_offset 3, -16
 1359              		.cfi_offset 4, -12
 1360              		.cfi_offset 5, -8
 1361              		.cfi_offset 14, -4
 406:Drivers/BSP/Components/vl53l1cb/vl53l1cb.c ****   }
 1362              		.loc 1 406 9 view .LVU410
 1363 0096 4FF0FF30 		mov	r0, #-1
 1364              	.LVL139:
 406:Drivers/BSP/Components/vl53l1cb/vl53l1cb.c ****   }
ARM GAS  C:\Temp\cc6vBPoU.s 			page 42


 1365              		.loc 1 406 9 view .LVU411
 1366 009a D6E7     		b	.L105
 1367              	.LVL140:
 1368              	.L115:
 445:Drivers/BSP/Components/vl53l1cb/vl53l1cb.c ****   }
 1369              		.loc 1 445 9 view .LVU412
 1370 009c 4FF0FF30 		mov	r0, #-1
 1371              	.LVL141:
 448:Drivers/BSP/Components/vl53l1cb/vl53l1cb.c **** }
 1372              		.loc 1 448 3 is_stmt 1 view .LVU413
 448:Drivers/BSP/Components/vl53l1cb/vl53l1cb.c **** }
 1373              		.loc 1 448 10 is_stmt 0 view .LVU414
 1374 00a0 D3E7     		b	.L105
 1375              		.cfi_endproc
 1376              	.LFE12:
 1378              		.section	.text.VL53L1CB_Stop,"ax",%progbits
 1379              		.align	1
 1380              		.global	VL53L1CB_Stop
 1381              		.syntax unified
 1382              		.thumb
 1383              		.thumb_func
 1385              	VL53L1CB_Stop:
 1386              	.LVL142:
 1387              	.LFB13:
 457:Drivers/BSP/Components/vl53l1cb/vl53l1cb.c ****   int32_t ret;
 1388              		.loc 1 457 1 is_stmt 1 view -0
 1389              		.cfi_startproc
 1390              		@ args = 0, pretend = 0, frame = 0
 1391              		@ frame_needed = 0, uses_anonymous_args = 0
 458:Drivers/BSP/Components/vl53l1cb/vl53l1cb.c **** 
 1392              		.loc 1 458 3 view .LVU416
 460:Drivers/BSP/Components/vl53l1cb/vl53l1cb.c ****   {
 1393              		.loc 1 460 3 view .LVU417
 460:Drivers/BSP/Components/vl53l1cb/vl53l1cb.c ****   {
 1394              		.loc 1 460 6 is_stmt 0 view .LVU418
 1395 0000 70B1     		cbz	r0, .L122
 457:Drivers/BSP/Components/vl53l1cb/vl53l1cb.c ****   int32_t ret;
 1396              		.loc 1 457 1 view .LVU419
 1397 0002 10B5     		push	{r4, lr}
 1398              		.cfi_def_cfa_offset 8
 1399              		.cfi_offset 4, -8
 1400              		.cfi_offset 14, -4
 1401 0004 0446     		mov	r4, r0
 464:Drivers/BSP/Components/vl53l1cb/vl53l1cb.c ****   {
 1402              		.loc 1 464 8 is_stmt 1 view .LVU420
 464:Drivers/BSP/Components/vl53l1cb/vl53l1cb.c ****   {
 1403              		.loc 1 464 16 is_stmt 0 view .LVU421
 1404 0006 00F5C043 		add	r3, r0, #24576
 1405 000a 93F8713F 		ldrb	r3, [r3, #3953]	@ zero_extendqisi2
 464:Drivers/BSP/Components/vl53l1cb/vl53l1cb.c ****   {
 1406              		.loc 1 464 11 view .LVU422
 1407 000e 53B1     		cbz	r3, .L123
 469:Drivers/BSP/Components/vl53l1cb/vl53l1cb.c ****   {
 1408              		.loc 1 469 8 is_stmt 1 view .LVU423
 469:Drivers/BSP/Components/vl53l1cb/vl53l1cb.c ****   {
 1409              		.loc 1 469 12 is_stmt 0 view .LVU424
 1410 0010 FFF7FEFF 		bl	VL53L1_StopMeasurement
ARM GAS  C:\Temp\cc6vBPoU.s 			page 43


 1411              	.LVL143:
 469:Drivers/BSP/Components/vl53l1cb/vl53l1cb.c ****   {
 1412              		.loc 1 469 11 view .LVU425
 1413 0014 50B9     		cbnz	r0, .L124
 471:Drivers/BSP/Components/vl53l1cb/vl53l1cb.c ****     ret = VL53L1CB_OK;
 1414              		.loc 1 471 5 is_stmt 1 view .LVU426
 471:Drivers/BSP/Components/vl53l1cb/vl53l1cb.c ****     ret = VL53L1CB_OK;
 1415              		.loc 1 471 21 is_stmt 0 view .LVU427
 1416 0016 04F5C044 		add	r4, r4, #24576
 1417              	.LVL144:
 471:Drivers/BSP/Components/vl53l1cb/vl53l1cb.c ****     ret = VL53L1CB_OK;
 1418              		.loc 1 471 21 view .LVU428
 1419 001a 84F8710F 		strb	r0, [r4, #3953]
 472:Drivers/BSP/Components/vl53l1cb/vl53l1cb.c ****   }
 1420              		.loc 1 472 5 is_stmt 1 view .LVU429
 1421              	.LVL145:
 1422              	.L120:
 480:Drivers/BSP/Components/vl53l1cb/vl53l1cb.c **** 
 1423              		.loc 1 480 1 is_stmt 0 view .LVU430
 1424 001e 10BD     		pop	{r4, pc}
 1425              	.LVL146:
 1426              	.L122:
 1427              		.cfi_def_cfa_offset 0
 1428              		.cfi_restore 4
 1429              		.cfi_restore 14
 462:Drivers/BSP/Components/vl53l1cb/vl53l1cb.c ****   }
 1430              		.loc 1 462 9 view .LVU431
 1431 0020 6FF00100 		mvn	r0, #1
 1432              	.LVL147:
 480:Drivers/BSP/Components/vl53l1cb/vl53l1cb.c **** 
 1433              		.loc 1 480 1 view .LVU432
 1434 0024 7047     		bx	lr
 1435              	.LVL148:
 1436              	.L123:
 1437              		.cfi_def_cfa_offset 8
 1438              		.cfi_offset 4, -8
 1439              		.cfi_offset 14, -4
 467:Drivers/BSP/Components/vl53l1cb/vl53l1cb.c ****   }
 1440              		.loc 1 467 8 view .LVU433
 1441 0026 4FF0FF30 		mov	r0, #-1
 1442              	.LVL149:
 467:Drivers/BSP/Components/vl53l1cb/vl53l1cb.c ****   }
 1443              		.loc 1 467 8 view .LVU434
 1444 002a F8E7     		b	.L120
 1445              	.L124:
 476:Drivers/BSP/Components/vl53l1cb/vl53l1cb.c ****   }
 1446              		.loc 1 476 9 view .LVU435
 1447 002c 4FF0FF30 		mov	r0, #-1
 1448              	.LVL150:
 479:Drivers/BSP/Components/vl53l1cb/vl53l1cb.c **** }
 1449              		.loc 1 479 3 is_stmt 1 view .LVU436
 479:Drivers/BSP/Components/vl53l1cb/vl53l1cb.c **** }
 1450              		.loc 1 479 10 is_stmt 0 view .LVU437
 1451 0030 F5E7     		b	.L120
 1452              		.cfi_endproc
 1453              	.LFE13:
 1455              		.section	.text.VL53L1CB_SetAddress,"ax",%progbits
ARM GAS  C:\Temp\cc6vBPoU.s 			page 44


 1456              		.align	1
 1457              		.global	VL53L1CB_SetAddress
 1458              		.syntax unified
 1459              		.thumb
 1460              		.thumb_func
 1462              	VL53L1CB_SetAddress:
 1463              	.LVL151:
 1464              	.LFB14:
 489:Drivers/BSP/Components/vl53l1cb/vl53l1cb.c ****   int32_t ret;
 1465              		.loc 1 489 1 is_stmt 1 view -0
 1466              		.cfi_startproc
 1467              		@ args = 0, pretend = 0, frame = 0
 1468              		@ frame_needed = 0, uses_anonymous_args = 0
 490:Drivers/BSP/Components/vl53l1cb/vl53l1cb.c **** 
 1469              		.loc 1 490 3 view .LVU439
 492:Drivers/BSP/Components/vl53l1cb/vl53l1cb.c ****   {
 1470              		.loc 1 492 3 view .LVU440
 492:Drivers/BSP/Components/vl53l1cb/vl53l1cb.c ****   {
 1471              		.loc 1 492 6 is_stmt 0 view .LVU441
 1472 0000 40B1     		cbz	r0, .L131
 489:Drivers/BSP/Components/vl53l1cb/vl53l1cb.c ****   int32_t ret;
 1473              		.loc 1 489 1 view .LVU442
 1474 0002 38B5     		push	{r3, r4, r5, lr}
 1475              		.cfi_def_cfa_offset 16
 1476              		.cfi_offset 3, -16
 1477              		.cfi_offset 4, -12
 1478              		.cfi_offset 5, -8
 1479              		.cfi_offset 14, -4
 1480 0004 0C46     		mov	r4, r1
 1481 0006 0546     		mov	r5, r0
 496:Drivers/BSP/Components/vl53l1cb/vl53l1cb.c ****   {
 1482              		.loc 1 496 8 is_stmt 1 view .LVU443
 496:Drivers/BSP/Components/vl53l1cb/vl53l1cb.c ****   {
 1483              		.loc 1 496 12 is_stmt 0 view .LVU444
 1484 0008 C9B2     		uxtb	r1, r1
 1485              	.LVL152:
 496:Drivers/BSP/Components/vl53l1cb/vl53l1cb.c ****   {
 1486              		.loc 1 496 12 view .LVU445
 1487 000a FFF7FEFF 		bl	VL53L1_SetDeviceAddress
 1488              	.LVL153:
 496:Drivers/BSP/Components/vl53l1cb/vl53l1cb.c ****   {
 1489              		.loc 1 496 11 view .LVU446
 1490 000e 20B9     		cbnz	r0, .L132
 502:Drivers/BSP/Components/vl53l1cb/vl53l1cb.c ****     ret = VL53L1CB_OK;
 1491              		.loc 1 502 5 is_stmt 1 view .LVU447
 502:Drivers/BSP/Components/vl53l1cb/vl53l1cb.c ****     ret = VL53L1CB_OK;
 1492              		.loc 1 502 22 is_stmt 0 view .LVU448
 1493 0010 2C81     		strh	r4, [r5, #8]	@ movhi
 503:Drivers/BSP/Components/vl53l1cb/vl53l1cb.c ****   }
 1494              		.loc 1 503 5 is_stmt 1 view .LVU449
 1495              	.LVL154:
 1496              	.L129:
 507:Drivers/BSP/Components/vl53l1cb/vl53l1cb.c **** 
 1497              		.loc 1 507 1 is_stmt 0 view .LVU450
 1498 0012 38BD     		pop	{r3, r4, r5, pc}
 1499              	.LVL155:
 1500              	.L131:
ARM GAS  C:\Temp\cc6vBPoU.s 			page 45


 1501              		.cfi_def_cfa_offset 0
 1502              		.cfi_restore 3
 1503              		.cfi_restore 4
 1504              		.cfi_restore 5
 1505              		.cfi_restore 14
 494:Drivers/BSP/Components/vl53l1cb/vl53l1cb.c ****   }
 1506              		.loc 1 494 9 view .LVU451
 1507 0014 6FF00100 		mvn	r0, #1
 1508              	.LVL156:
 507:Drivers/BSP/Components/vl53l1cb/vl53l1cb.c **** 
 1509              		.loc 1 507 1 view .LVU452
 1510 0018 7047     		bx	lr
 1511              	.LVL157:
 1512              	.L132:
 1513              		.cfi_def_cfa_offset 16
 1514              		.cfi_offset 3, -16
 1515              		.cfi_offset 4, -12
 1516              		.cfi_offset 5, -8
 1517              		.cfi_offset 14, -4
 498:Drivers/BSP/Components/vl53l1cb/vl53l1cb.c ****   }
 1518              		.loc 1 498 9 view .LVU453
 1519 001a 4FF0FF30 		mov	r0, #-1
 1520              	.LVL158:
 506:Drivers/BSP/Components/vl53l1cb/vl53l1cb.c **** }
 1521              		.loc 1 506 3 is_stmt 1 view .LVU454
 506:Drivers/BSP/Components/vl53l1cb/vl53l1cb.c **** }
 1522              		.loc 1 506 10 is_stmt 0 view .LVU455
 1523 001e F8E7     		b	.L129
 1524              		.cfi_endproc
 1525              	.LFE14:
 1527              		.section	.text.VL53L1CB_RegisterBusIO,"ax",%progbits
 1528              		.align	1
 1529              		.global	VL53L1CB_RegisterBusIO
 1530              		.syntax unified
 1531              		.thumb
 1532              		.thumb_func
 1534              	VL53L1CB_RegisterBusIO:
 1535              	.LVL159:
 1536              	.LFB3:
  92:Drivers/BSP/Components/vl53l1cb/vl53l1cb.c ****   int32_t ret;
 1537              		.loc 1 92 1 is_stmt 1 view -0
 1538              		.cfi_startproc
 1539              		@ args = 0, pretend = 0, frame = 0
 1540              		@ frame_needed = 0, uses_anonymous_args = 0
  93:Drivers/BSP/Components/vl53l1cb/vl53l1cb.c **** 
 1541              		.loc 1 93 3 view .LVU457
  95:Drivers/BSP/Components/vl53l1cb/vl53l1cb.c ****   {
 1542              		.loc 1 95 3 view .LVU458
  95:Drivers/BSP/Components/vl53l1cb/vl53l1cb.c ****   {
 1543              		.loc 1 95 6 is_stmt 0 view .LVU459
 1544 0000 80B1     		cbz	r0, .L139
  92:Drivers/BSP/Components/vl53l1cb/vl53l1cb.c ****   int32_t ret;
 1545              		.loc 1 92 1 view .LVU460
 1546 0002 08B5     		push	{r3, lr}
 1547              		.cfi_def_cfa_offset 8
 1548              		.cfi_offset 3, -8
 1549              		.cfi_offset 14, -4
ARM GAS  C:\Temp\cc6vBPoU.s 			page 46


 1550 0004 0346     		mov	r3, r0
 101:Drivers/BSP/Components/vl53l1cb/vl53l1cb.c ****     pObj->IO.DeInit    = pIO->DeInit;
 1551              		.loc 1 101 5 is_stmt 1 view .LVU461
 101:Drivers/BSP/Components/vl53l1cb/vl53l1cb.c ****     pObj->IO.DeInit    = pIO->DeInit;
 1552              		.loc 1 101 29 is_stmt 0 view .LVU462
 1553 0006 0A68     		ldr	r2, [r1]
 101:Drivers/BSP/Components/vl53l1cb/vl53l1cb.c ****     pObj->IO.DeInit    = pIO->DeInit;
 1554              		.loc 1 101 24 view .LVU463
 1555 0008 0260     		str	r2, [r0]
 102:Drivers/BSP/Components/vl53l1cb/vl53l1cb.c ****     pObj->IO.Address   = pIO->Address;
 1556              		.loc 1 102 5 is_stmt 1 view .LVU464
 102:Drivers/BSP/Components/vl53l1cb/vl53l1cb.c ****     pObj->IO.Address   = pIO->Address;
 1557              		.loc 1 102 29 is_stmt 0 view .LVU465
 1558 000a 4868     		ldr	r0, [r1, #4]
 1559              	.LVL160:
 102:Drivers/BSP/Components/vl53l1cb/vl53l1cb.c ****     pObj->IO.Address   = pIO->Address;
 1560              		.loc 1 102 24 view .LVU466
 1561 000c 5860     		str	r0, [r3, #4]
 103:Drivers/BSP/Components/vl53l1cb/vl53l1cb.c ****     pObj->IO.WriteReg  = pIO->WriteReg;
 1562              		.loc 1 103 5 is_stmt 1 view .LVU467
 103:Drivers/BSP/Components/vl53l1cb/vl53l1cb.c ****     pObj->IO.WriteReg  = pIO->WriteReg;
 1563              		.loc 1 103 29 is_stmt 0 view .LVU468
 1564 000e 0889     		ldrh	r0, [r1, #8]
 103:Drivers/BSP/Components/vl53l1cb/vl53l1cb.c ****     pObj->IO.WriteReg  = pIO->WriteReg;
 1565              		.loc 1 103 24 view .LVU469
 1566 0010 1881     		strh	r0, [r3, #8]	@ movhi
 104:Drivers/BSP/Components/vl53l1cb/vl53l1cb.c ****     pObj->IO.ReadReg   = pIO->ReadReg;
 1567              		.loc 1 104 5 is_stmt 1 view .LVU470
 104:Drivers/BSP/Components/vl53l1cb/vl53l1cb.c ****     pObj->IO.ReadReg   = pIO->ReadReg;
 1568              		.loc 1 104 29 is_stmt 0 view .LVU471
 1569 0012 C868     		ldr	r0, [r1, #12]
 104:Drivers/BSP/Components/vl53l1cb/vl53l1cb.c ****     pObj->IO.ReadReg   = pIO->ReadReg;
 1570              		.loc 1 104 24 view .LVU472
 1571 0014 D860     		str	r0, [r3, #12]
 105:Drivers/BSP/Components/vl53l1cb/vl53l1cb.c ****     pObj->IO.GetTick   = pIO->GetTick;
 1572              		.loc 1 105 5 is_stmt 1 view .LVU473
 105:Drivers/BSP/Components/vl53l1cb/vl53l1cb.c ****     pObj->IO.GetTick   = pIO->GetTick;
 1573              		.loc 1 105 29 is_stmt 0 view .LVU474
 1574 0016 0869     		ldr	r0, [r1, #16]
 105:Drivers/BSP/Components/vl53l1cb/vl53l1cb.c ****     pObj->IO.GetTick   = pIO->GetTick;
 1575              		.loc 1 105 24 view .LVU475
 1576 0018 1861     		str	r0, [r3, #16]
 106:Drivers/BSP/Components/vl53l1cb/vl53l1cb.c **** 
 1577              		.loc 1 106 5 is_stmt 1 view .LVU476
 106:Drivers/BSP/Components/vl53l1cb/vl53l1cb.c **** 
 1578              		.loc 1 106 29 is_stmt 0 view .LVU477
 1579 001a 4969     		ldr	r1, [r1, #20]
 1580              	.LVL161:
 106:Drivers/BSP/Components/vl53l1cb/vl53l1cb.c **** 
 1581              		.loc 1 106 24 view .LVU478
 1582 001c 5961     		str	r1, [r3, #20]
 108:Drivers/BSP/Components/vl53l1cb/vl53l1cb.c ****     {
 1583              		.loc 1 108 5 is_stmt 1 view .LVU479
 108:Drivers/BSP/Components/vl53l1cb/vl53l1cb.c ****     {
 1584              		.loc 1 108 8 is_stmt 0 view .LVU480
 1585 001e 22B1     		cbz	r2, .L140
 110:Drivers/BSP/Components/vl53l1cb/vl53l1cb.c ****     }
ARM GAS  C:\Temp\cc6vBPoU.s 			page 47


 1586              		.loc 1 110 7 is_stmt 1 view .LVU481
 110:Drivers/BSP/Components/vl53l1cb/vl53l1cb.c ****     }
 1587              		.loc 1 110 13 is_stmt 0 view .LVU482
 1588 0020 9047     		blx	r2
 1589              	.LVL162:
 1590              	.L137:
 119:Drivers/BSP/Components/vl53l1cb/vl53l1cb.c **** 
 1591              		.loc 1 119 1 view .LVU483
 1592 0022 08BD     		pop	{r3, pc}
 1593              	.LVL163:
 1594              	.L139:
 1595              		.cfi_def_cfa_offset 0
 1596              		.cfi_restore 3
 1597              		.cfi_restore 14
  97:Drivers/BSP/Components/vl53l1cb/vl53l1cb.c ****   }
 1598              		.loc 1 97 9 view .LVU484
 1599 0024 6FF00100 		mvn	r0, #1
 1600              	.LVL164:
 119:Drivers/BSP/Components/vl53l1cb/vl53l1cb.c **** 
 1601              		.loc 1 119 1 view .LVU485
 1602 0028 7047     		bx	lr
 1603              	.LVL165:
 1604              	.L140:
 1605              		.cfi_def_cfa_offset 8
 1606              		.cfi_offset 3, -8
 1607              		.cfi_offset 14, -4
 114:Drivers/BSP/Components/vl53l1cb/vl53l1cb.c ****     }
 1608              		.loc 1 114 11 view .LVU486
 1609 002a 4FF0FF30 		mov	r0, #-1
 1610              	.LVL166:
 118:Drivers/BSP/Components/vl53l1cb/vl53l1cb.c **** }
 1611              		.loc 1 118 3 is_stmt 1 view .LVU487
 118:Drivers/BSP/Components/vl53l1cb/vl53l1cb.c **** }
 1612              		.loc 1 118 10 is_stmt 0 view .LVU488
 1613 002e F8E7     		b	.L137
 1614              		.cfi_endproc
 1615              	.LFE3:
 1617              		.section	.text.VL53L1CB_OffsetCalibration,"ax",%progbits
 1618              		.align	1
 1619              		.global	VL53L1CB_OffsetCalibration
 1620              		.syntax unified
 1621              		.thumb
 1622              		.thumb_func
 1624              	VL53L1CB_OffsetCalibration:
 1625              	.LVL167:
 1626              	.LFB18:
 567:Drivers/BSP/Components/vl53l1cb/vl53l1cb.c ****   int32_t ret;
 1627              		.loc 1 567 1 is_stmt 1 view -0
 1628              		.cfi_startproc
 1629              		@ args = 0, pretend = 0, frame = 0
 1630              		@ frame_needed = 0, uses_anonymous_args = 0
 567:Drivers/BSP/Components/vl53l1cb/vl53l1cb.c ****   int32_t ret;
 1631              		.loc 1 567 1 is_stmt 0 view .LVU490
 1632 0000 38B5     		push	{r3, r4, r5, lr}
 1633              		.cfi_def_cfa_offset 16
 1634              		.cfi_offset 3, -16
 1635              		.cfi_offset 4, -12
ARM GAS  C:\Temp\cc6vBPoU.s 			page 48


 1636              		.cfi_offset 5, -8
 1637              		.cfi_offset 14, -4
 1638 0002 0446     		mov	r4, r0
 1639 0004 0D46     		mov	r5, r1
 568:Drivers/BSP/Components/vl53l1cb/vl53l1cb.c **** 
 1640              		.loc 1 568 3 is_stmt 1 view .LVU491
 570:Drivers/BSP/Components/vl53l1cb/vl53l1cb.c **** 
 1641              		.loc 1 570 3 view .LVU492
 1642              	.LVL168:
 572:Drivers/BSP/Components/vl53l1cb/vl53l1cb.c ****   {
 1643              		.loc 1 572 3 view .LVU493
 572:Drivers/BSP/Components/vl53l1cb/vl53l1cb.c ****   {
 1644              		.loc 1 572 7 is_stmt 0 view .LVU494
 1645 0006 0121     		movs	r1, #1
 1646              	.LVL169:
 572:Drivers/BSP/Components/vl53l1cb/vl53l1cb.c ****   {
 1647              		.loc 1 572 7 view .LVU495
 1648 0008 FFF7FEFF 		bl	VL53L1_SetOffsetCorrectionMode
 1649              	.LVL170:
 572:Drivers/BSP/Components/vl53l1cb/vl53l1cb.c ****   {
 1650              		.loc 1 572 6 view .LVU496
 1651 000c 48B9     		cbnz	r0, .L147
 576:Drivers/BSP/Components/vl53l1cb/vl53l1cb.c ****   {
 1652              		.loc 1 576 8 is_stmt 1 view .LVU497
 576:Drivers/BSP/Components/vl53l1cb/vl53l1cb.c ****   {
 1653              		.loc 1 576 12 is_stmt 0 view .LVU498
 1654 000e 2946     		mov	r1, r5
 1655 0010 2046     		mov	r0, r4
 1656 0012 FFF7FEFF 		bl	VL53L1_PerformOffsetSimpleCalibration
 1657              	.LVL171:
 576:Drivers/BSP/Components/vl53l1cb/vl53l1cb.c ****   {
 1658              		.loc 1 576 11 view .LVU499
 1659 0016 08B9     		cbnz	r0, .L150
 582:Drivers/BSP/Components/vl53l1cb/vl53l1cb.c ****   }
 1660              		.loc 1 582 9 view .LVU500
 1661 0018 0020     		movs	r0, #0
 1662              	.LVL172:
 585:Drivers/BSP/Components/vl53l1cb/vl53l1cb.c **** }
 1663              		.loc 1 585 3 is_stmt 1 view .LVU501
 1664              	.L145:
 586:Drivers/BSP/Components/vl53l1cb/vl53l1cb.c **** 
 1665              		.loc 1 586 1 is_stmt 0 view .LVU502
 1666 001a 38BD     		pop	{r3, r4, r5, pc}
 1667              	.LVL173:
 1668              	.L150:
 578:Drivers/BSP/Components/vl53l1cb/vl53l1cb.c ****   }
 1669              		.loc 1 578 9 view .LVU503
 1670 001c 4FF0FF30 		mov	r0, #-1
 1671 0020 FBE7     		b	.L145
 1672              	.L147:
 574:Drivers/BSP/Components/vl53l1cb/vl53l1cb.c ****   }
 1673              		.loc 1 574 9 view .LVU504
 1674 0022 4FF0FF30 		mov	r0, #-1
 1675 0026 F8E7     		b	.L145
 1676              		.cfi_endproc
 1677              	.LFE18:
 1679              		.section	.text.VL53L1CB_XTalkCalibration,"ax",%progbits
ARM GAS  C:\Temp\cc6vBPoU.s 			page 49


 1680              		.align	1
 1681              		.global	VL53L1CB_XTalkCalibration
 1682              		.syntax unified
 1683              		.thumb
 1684              		.thumb_func
 1686              	VL53L1CB_XTalkCalibration:
 1687              	.LVL174:
 1688              	.LFB19:
 594:Drivers/BSP/Components/vl53l1cb/vl53l1cb.c ****   int32_t ret;
 1689              		.loc 1 594 1 is_stmt 1 view -0
 1690              		.cfi_startproc
 1691              		@ args = 0, pretend = 0, frame = 0
 1692              		@ frame_needed = 0, uses_anonymous_args = 0
 594:Drivers/BSP/Components/vl53l1cb/vl53l1cb.c ****   int32_t ret;
 1693              		.loc 1 594 1 is_stmt 0 view .LVU506
 1694 0000 08B5     		push	{r3, lr}
 1695              		.cfi_def_cfa_offset 8
 1696              		.cfi_offset 3, -8
 1697              		.cfi_offset 14, -4
 595:Drivers/BSP/Components/vl53l1cb/vl53l1cb.c **** 
 1698              		.loc 1 595 3 is_stmt 1 view .LVU507
 597:Drivers/BSP/Components/vl53l1cb/vl53l1cb.c ****   {
 1699              		.loc 1 597 3 view .LVU508
 597:Drivers/BSP/Components/vl53l1cb/vl53l1cb.c ****   {
 1700              		.loc 1 597 7 is_stmt 0 view .LVU509
 1701 0002 0221     		movs	r1, #2
 1702 0004 FFF7FEFF 		bl	VL53L1_PerformXTalkCalibration
 1703              	.LVL175:
 597:Drivers/BSP/Components/vl53l1cb/vl53l1cb.c ****   {
 1704              		.loc 1 597 6 view .LVU510
 1705 0008 08B9     		cbnz	r0, .L155
 603:Drivers/BSP/Components/vl53l1cb/vl53l1cb.c ****   }
 1706              		.loc 1 603 9 view .LVU511
 1707 000a 0020     		movs	r0, #0
 1708              	.LVL176:
 606:Drivers/BSP/Components/vl53l1cb/vl53l1cb.c **** }
 1709              		.loc 1 606 3 is_stmt 1 view .LVU512
 1710              	.L151:
 607:Drivers/BSP/Components/vl53l1cb/vl53l1cb.c **** 
 1711              		.loc 1 607 1 is_stmt 0 view .LVU513
 1712 000c 08BD     		pop	{r3, pc}
 1713              	.L155:
 599:Drivers/BSP/Components/vl53l1cb/vl53l1cb.c ****   }
 1714              		.loc 1 599 9 view .LVU514
 1715 000e 4FF0FF30 		mov	r0, #-1
 1716 0012 FBE7     		b	.L151
 1717              		.cfi_endproc
 1718              	.LFE19:
 1720              		.section	.bss.data.0,"aw",%nobits
 1721              		.align	2
 1724              	data.0:
 1725 0000 00000000 		.space	128
 1725      00000000 
 1725      00000000 
 1725      00000000 
 1725      00000000 
 1726              		.global	VL53L1CB_RANGING_SENSOR_Driver
ARM GAS  C:\Temp\cc6vBPoU.s 			page 50


 1727              		.section	.data.VL53L1CB_RANGING_SENSOR_Driver,"aw"
 1728              		.align	2
 1731              	VL53L1CB_RANGING_SENSOR_Driver:
 1732 0000 00000000 		.word	VL53L1CB_Init
 1733 0004 00000000 		.word	VL53L1CB_DeInit
 1734 0008 00000000 		.word	VL53L1CB_ReadID
 1735 000c 00000000 		.word	VL53L1CB_GetCapabilities
 1736 0010 00000000 		.word	VL53L1CB_ConfigProfile
 1737 0014 00000000 		.word	VL53L1CB_ConfigROI
 1738 0018 00000000 		.word	VL53L1CB_ConfigIT
 1739 001c 00000000 		.word	VL53L1CB_GetDistance
 1740 0020 00000000 		.word	VL53L1CB_Start
 1741 0024 00000000 		.word	VL53L1CB_Stop
 1742 0028 00000000 		.word	VL53L1CB_SetAddress
 1743 002c 00000000 		.word	VL53L1CB_GetAddress
 1744 0030 00000000 		.word	VL53L1CB_SetPowerMode
 1745 0034 00000000 		.word	VL53L1CB_GetPowerMode
 1746              		.text
 1747              	.Letext0:
 1748              		.file 2 "c:\\users\\jessejabezarendse\\appdata\\roaming\\code\\user\\globalstorage\\bmd.stm32-for-
 1749              		.file 3 "c:\\users\\jessejabezarendse\\appdata\\roaming\\code\\user\\globalstorage\\bmd.stm32-for-
 1750              		.file 4 "c:\\users\\jessejabezarendse\\appdata\\roaming\\code\\user\\globalstorage\\bmd.stm32-for-
 1751              		.file 5 "Drivers/BSP/Components/vl53l1cb/porting/vl53l1_types.h"
 1752              		.file 6 "Drivers/BSP/Components/vl53l1cb/modules/vl53l1_error_codes.h"
 1753              		.file 7 "Drivers/BSP/Components/vl53l1cb/modules/vl53l1_register_structs.h"
 1754              		.file 8 "Drivers/BSP/Components/vl53l1cb/modules/vl53l1_ll_device.h"
 1755              		.file 9 "Drivers/BSP/Components/vl53l1cb/modules/vl53l1_dmax_structs.h"
 1756              		.file 10 "Drivers/BSP/Components/vl53l1cb/modules/vl53l1_hist_structs.h"
 1757              		.file 11 "Drivers/BSP/Components/vl53l1cb/modules/vl53l1_ll_def.h"
 1758              		.file 12 "Drivers/BSP/Components/vl53l1cb/modules/vl53l1_def.h"
 1759              		.file 13 "Drivers/BSP/Components/vl53l1cb/vl53l1cb.h"
 1760              		.file 14 "Drivers/BSP/Components/vl53l1cb/porting/vl53l1_platform_user_data.h"
 1761              		.file 15 "Drivers/BSP/Components/vl53l1cb/modules/vl53l1_api.h"
 1762              		.file 16 "Drivers/BSP/Components/vl53l1cb/porting/vl53l1_platform.h"
ARM GAS  C:\Temp\cc6vBPoU.s 			page 51

