ARM GAS  C:\Temp\ccF97kYR.s 			page 1


   1              		.cpu cortex-m4
   2              		.arch armv7e-m
   3              		.fpu fpv4-sp-d16
   4              		.eabi_attribute 27, 1
   5              		.eabi_attribute 28, 1
   6              		.eabi_attribute 20, 1
   7              		.eabi_attribute 21, 1
   8              		.eabi_attribute 23, 3
   9              		.eabi_attribute 24, 1
  10              		.eabi_attribute 25, 1
  11              		.eabi_attribute 26, 1
  12              		.eabi_attribute 30, 1
  13              		.eabi_attribute 34, 1
  14              		.eabi_attribute 18, 4
  15              		.file	"stm32f4xx_hal_tim.c"
  16              		.text
  17              		.section	.text.TIM_OC1_SetConfig,"ax",%progbits
  18              		.align	1
  19              		.syntax unified
  20              		.thumb
  21              		.thumb_func
  23              	TIM_OC1_SetConfig:
  24              		@ args = 0, pretend = 0, frame = 0
  25              		@ frame_needed = 0, uses_anonymous_args = 0
  26              		@ link register save eliminated.
  27 0000 30B4     		push	{r4, r5}
  28 0002 026A     		ldr	r2, [r0, #32]
  29 0004 036A     		ldr	r3, [r0, #32]
  30 0006 23F00103 		bic	r3, r3, #1
  31 000a 0362     		str	r3, [r0, #32]
  32 000c 4568     		ldr	r5, [r0, #4]
  33 000e 8369     		ldr	r3, [r0, #24]
  34 0010 23F07303 		bic	r3, r3, #115
  35 0014 0C68     		ldr	r4, [r1]
  36 0016 1C43     		orrs	r4, r4, r3
  37 0018 22F00202 		bic	r2, r2, #2
  38 001c 8B68     		ldr	r3, [r1, #8]
  39 001e 1343     		orrs	r3, r3, r2
  40 0020 0B4A     		ldr	r2, .L5
  41 0022 9042     		cmp	r0, r2
  42 0024 06D0     		beq	.L4
  43              	.L2:
  44 0026 4560     		str	r5, [r0, #4]
  45 0028 8461     		str	r4, [r0, #24]
  46 002a 4A68     		ldr	r2, [r1, #4]
  47 002c 4263     		str	r2, [r0, #52]
  48 002e 0362     		str	r3, [r0, #32]
  49 0030 30BC     		pop	{r4, r5}
  50 0032 7047     		bx	lr
  51              	.L4:
  52 0034 23F00803 		bic	r3, r3, #8
  53 0038 CA68     		ldr	r2, [r1, #12]
  54 003a 1A43     		orrs	r2, r2, r3
  55 003c 22F00403 		bic	r3, r2, #4
  56 0040 25F44075 		bic	r5, r5, #768
  57 0044 4A69     		ldr	r2, [r1, #20]
  58 0046 2A43     		orrs	r2, r2, r5
ARM GAS  C:\Temp\ccF97kYR.s 			page 2


  59 0048 8D69     		ldr	r5, [r1, #24]
  60 004a 1543     		orrs	r5, r5, r2
  61 004c EBE7     		b	.L2
  62              	.L6:
  63 004e 00BF     		.align	2
  64              	.L5:
  65 0050 00000140 		.word	1073807360
  67              		.section	.text.TIM_OC3_SetConfig,"ax",%progbits
  68              		.align	1
  69              		.syntax unified
  70              		.thumb
  71              		.thumb_func
  73              	TIM_OC3_SetConfig:
  74              		@ args = 0, pretend = 0, frame = 0
  75              		@ frame_needed = 0, uses_anonymous_args = 0
  76              		@ link register save eliminated.
  77 0000 30B4     		push	{r4, r5}
  78 0002 036A     		ldr	r3, [r0, #32]
  79 0004 026A     		ldr	r2, [r0, #32]
  80 0006 22F48072 		bic	r2, r2, #256
  81 000a 0262     		str	r2, [r0, #32]
  82 000c 4468     		ldr	r4, [r0, #4]
  83 000e C269     		ldr	r2, [r0, #28]
  84 0010 22F07302 		bic	r2, r2, #115
  85 0014 0D68     		ldr	r5, [r1]
  86 0016 1543     		orrs	r5, r5, r2
  87 0018 23F40073 		bic	r3, r3, #512
  88 001c 8A68     		ldr	r2, [r1, #8]
  89 001e 43EA0223 		orr	r3, r3, r2, lsl #8
  90 0022 0D4A     		ldr	r2, .L11
  91 0024 9042     		cmp	r0, r2
  92 0026 06D0     		beq	.L10
  93              	.L8:
  94 0028 4460     		str	r4, [r0, #4]
  95 002a C561     		str	r5, [r0, #28]
  96 002c 4A68     		ldr	r2, [r1, #4]
  97 002e C263     		str	r2, [r0, #60]
  98 0030 0362     		str	r3, [r0, #32]
  99 0032 30BC     		pop	{r4, r5}
 100 0034 7047     		bx	lr
 101              	.L10:
 102 0036 23F40063 		bic	r3, r3, #2048
 103 003a CA68     		ldr	r2, [r1, #12]
 104 003c 43EA0223 		orr	r3, r3, r2, lsl #8
 105 0040 23F48063 		bic	r3, r3, #1024
 106 0044 24F44054 		bic	r4, r4, #12288
 107 0048 4A69     		ldr	r2, [r1, #20]
 108 004a 44EA0214 		orr	r4, r4, r2, lsl #4
 109 004e 8A69     		ldr	r2, [r1, #24]
 110 0050 44EA0214 		orr	r4, r4, r2, lsl #4
 111 0054 E8E7     		b	.L8
 112              	.L12:
 113 0056 00BF     		.align	2
 114              	.L11:
 115 0058 00000140 		.word	1073807360
 117              		.section	.text.TIM_OC4_SetConfig,"ax",%progbits
 118              		.align	1
ARM GAS  C:\Temp\ccF97kYR.s 			page 3


 119              		.syntax unified
 120              		.thumb
 121              		.thumb_func
 123              	TIM_OC4_SetConfig:
 124              		@ args = 0, pretend = 0, frame = 0
 125              		@ frame_needed = 0, uses_anonymous_args = 0
 126              		@ link register save eliminated.
 127 0000 30B4     		push	{r4, r5}
 128 0002 036A     		ldr	r3, [r0, #32]
 129 0004 026A     		ldr	r2, [r0, #32]
 130 0006 22F48052 		bic	r2, r2, #4096
 131 000a 0262     		str	r2, [r0, #32]
 132 000c 4468     		ldr	r4, [r0, #4]
 133 000e C269     		ldr	r2, [r0, #28]
 134 0010 22F4E642 		bic	r2, r2, #29440
 135 0014 0D68     		ldr	r5, [r1]
 136 0016 42EA0522 		orr	r2, r2, r5, lsl #8
 137 001a 23F40053 		bic	r3, r3, #8192
 138 001e 8D68     		ldr	r5, [r1, #8]
 139 0020 43EA0533 		orr	r3, r3, r5, lsl #12
 140 0024 074D     		ldr	r5, .L17
 141 0026 A842     		cmp	r0, r5
 142 0028 06D0     		beq	.L16
 143              	.L14:
 144 002a 4460     		str	r4, [r0, #4]
 145 002c C261     		str	r2, [r0, #28]
 146 002e 4A68     		ldr	r2, [r1, #4]
 147 0030 0264     		str	r2, [r0, #64]
 148 0032 0362     		str	r3, [r0, #32]
 149 0034 30BC     		pop	{r4, r5}
 150 0036 7047     		bx	lr
 151              	.L16:
 152 0038 24F48044 		bic	r4, r4, #16384
 153 003c 4D69     		ldr	r5, [r1, #20]
 154 003e 44EA8514 		orr	r4, r4, r5, lsl #6
 155 0042 F2E7     		b	.L14
 156              	.L18:
 157              		.align	2
 158              	.L17:
 159 0044 00000140 		.word	1073807360
 161              		.section	.text.TIM_TI1_ConfigInputStage,"ax",%progbits
 162              		.align	1
 163              		.syntax unified
 164              		.thumb
 165              		.thumb_func
 167              	TIM_TI1_ConfigInputStage:
 168              		@ args = 0, pretend = 0, frame = 0
 169              		@ frame_needed = 0, uses_anonymous_args = 0
 170              		@ link register save eliminated.
 171 0000 10B4     		push	{r4}
 172 0002 036A     		ldr	r3, [r0, #32]
 173 0004 046A     		ldr	r4, [r0, #32]
 174 0006 24F00104 		bic	r4, r4, #1
 175 000a 0462     		str	r4, [r0, #32]
 176 000c 8469     		ldr	r4, [r0, #24]
 177 000e 24F0F00C 		bic	ip, r4, #240
 178 0012 4CEA0212 		orr	r2, ip, r2, lsl #4
ARM GAS  C:\Temp\ccF97kYR.s 			page 4


 179 0016 23F00A03 		bic	r3, r3, #10
 180 001a 0B43     		orrs	r3, r3, r1
 181 001c 8261     		str	r2, [r0, #24]
 182 001e 0362     		str	r3, [r0, #32]
 183 0020 5DF8044B 		ldr	r4, [sp], #4
 184 0024 7047     		bx	lr
 186              		.section	.text.TIM_TI2_SetConfig,"ax",%progbits
 187              		.align	1
 188              		.syntax unified
 189              		.thumb
 190              		.thumb_func
 192              	TIM_TI2_SetConfig:
 193              		@ args = 0, pretend = 0, frame = 0
 194              		@ frame_needed = 0, uses_anonymous_args = 0
 195              		@ link register save eliminated.
 196 0000 30B4     		push	{r4, r5}
 197 0002 056A     		ldr	r5, [r0, #32]
 198 0004 046A     		ldr	r4, [r0, #32]
 199 0006 24F01004 		bic	r4, r4, #16
 200 000a 0462     		str	r4, [r0, #32]
 201 000c 8469     		ldr	r4, [r0, #24]
 202 000e 24F4407C 		bic	ip, r4, #768
 203 0012 4CEA022C 		orr	ip, ip, r2, lsl #8
 204 0016 2CF4704C 		bic	ip, ip, #61440
 205 001a 1B03     		lsls	r3, r3, #12
 206 001c 9BB2     		uxth	r3, r3
 207 001e 43EA0C03 		orr	r3, r3, ip
 208 0022 25F0A005 		bic	r5, r5, #160
 209 0026 0901     		lsls	r1, r1, #4
 210 0028 01F0A001 		and	r1, r1, #160
 211 002c 2943     		orrs	r1, r1, r5
 212 002e 8361     		str	r3, [r0, #24]
 213 0030 0162     		str	r1, [r0, #32]
 214 0032 30BC     		pop	{r4, r5}
 215 0034 7047     		bx	lr
 217              		.section	.text.TIM_TI2_ConfigInputStage,"ax",%progbits
 218              		.align	1
 219              		.syntax unified
 220              		.thumb
 221              		.thumb_func
 223              	TIM_TI2_ConfigInputStage:
 224              		@ args = 0, pretend = 0, frame = 0
 225              		@ frame_needed = 0, uses_anonymous_args = 0
 226              		@ link register save eliminated.
 227 0000 10B4     		push	{r4}
 228 0002 036A     		ldr	r3, [r0, #32]
 229 0004 046A     		ldr	r4, [r0, #32]
 230 0006 24F01004 		bic	r4, r4, #16
 231 000a 0462     		str	r4, [r0, #32]
 232 000c 8469     		ldr	r4, [r0, #24]
 233 000e 24F4704C 		bic	ip, r4, #61440
 234 0012 4CEA0232 		orr	r2, ip, r2, lsl #12
 235 0016 23F0A003 		bic	r3, r3, #160
 236 001a 43EA0113 		orr	r3, r3, r1, lsl #4
 237 001e 8261     		str	r2, [r0, #24]
 238 0020 0362     		str	r3, [r0, #32]
 239 0022 5DF8044B 		ldr	r4, [sp], #4
ARM GAS  C:\Temp\ccF97kYR.s 			page 5


 240 0026 7047     		bx	lr
 242              		.section	.text.TIM_TI3_SetConfig,"ax",%progbits
 243              		.align	1
 244              		.syntax unified
 245              		.thumb
 246              		.thumb_func
 248              	TIM_TI3_SetConfig:
 249              		@ args = 0, pretend = 0, frame = 0
 250              		@ frame_needed = 0, uses_anonymous_args = 0
 251              		@ link register save eliminated.
 252 0000 30B4     		push	{r4, r5}
 253 0002 056A     		ldr	r5, [r0, #32]
 254 0004 046A     		ldr	r4, [r0, #32]
 255 0006 24F48074 		bic	r4, r4, #256
 256 000a 0462     		str	r4, [r0, #32]
 257 000c C469     		ldr	r4, [r0, #28]
 258 000e 24F0030C 		bic	ip, r4, #3
 259 0012 4CEA020C 		orr	ip, ip, r2
 260 0016 2CF0F00C 		bic	ip, ip, #240
 261 001a 1B01     		lsls	r3, r3, #4
 262 001c DBB2     		uxtb	r3, r3
 263 001e 43EA0C03 		orr	r3, r3, ip
 264 0022 25F42065 		bic	r5, r5, #2560
 265 0026 0902     		lsls	r1, r1, #8
 266 0028 01F42061 		and	r1, r1, #2560
 267 002c 2943     		orrs	r1, r1, r5
 268 002e C361     		str	r3, [r0, #28]
 269 0030 0162     		str	r1, [r0, #32]
 270 0032 30BC     		pop	{r4, r5}
 271 0034 7047     		bx	lr
 273              		.section	.text.TIM_TI4_SetConfig,"ax",%progbits
 274              		.align	1
 275              		.syntax unified
 276              		.thumb
 277              		.thumb_func
 279              	TIM_TI4_SetConfig:
 280              		@ args = 0, pretend = 0, frame = 0
 281              		@ frame_needed = 0, uses_anonymous_args = 0
 282              		@ link register save eliminated.
 283 0000 30B4     		push	{r4, r5}
 284 0002 056A     		ldr	r5, [r0, #32]
 285 0004 046A     		ldr	r4, [r0, #32]
 286 0006 24F48054 		bic	r4, r4, #4096
 287 000a 0462     		str	r4, [r0, #32]
 288 000c C469     		ldr	r4, [r0, #28]
 289 000e 24F4407C 		bic	ip, r4, #768
 290 0012 4CEA022C 		orr	ip, ip, r2, lsl #8
 291 0016 2CF4704C 		bic	ip, ip, #61440
 292 001a 1B03     		lsls	r3, r3, #12
 293 001c 9BB2     		uxth	r3, r3
 294 001e 43EA0C03 		orr	r3, r3, ip
 295 0022 25F42045 		bic	r5, r5, #40960
 296 0026 0903     		lsls	r1, r1, #12
 297 0028 01F42041 		and	r1, r1, #40960
 298 002c 2943     		orrs	r1, r1, r5
 299 002e C361     		str	r3, [r0, #28]
 300 0030 0162     		str	r1, [r0, #32]
ARM GAS  C:\Temp\ccF97kYR.s 			page 6


 301 0032 30BC     		pop	{r4, r5}
 302 0034 7047     		bx	lr
 304              		.section	.text.TIM_ITRx_SetConfig,"ax",%progbits
 305              		.align	1
 306              		.syntax unified
 307              		.thumb
 308              		.thumb_func
 310              	TIM_ITRx_SetConfig:
 311              		@ args = 0, pretend = 0, frame = 0
 312              		@ frame_needed = 0, uses_anonymous_args = 0
 313              		@ link register save eliminated.
 314 0000 8368     		ldr	r3, [r0, #8]
 315 0002 23F07003 		bic	r3, r3, #112
 316 0006 0B43     		orrs	r3, r3, r1
 317 0008 43F00703 		orr	r3, r3, #7
 318 000c 8360     		str	r3, [r0, #8]
 319 000e 7047     		bx	lr
 321              		.section	.text.HAL_TIM_Base_MspInit,"ax",%progbits
 322              		.align	1
 323              		.weak	HAL_TIM_Base_MspInit
 324              		.syntax unified
 325              		.thumb
 326              		.thumb_func
 328              	HAL_TIM_Base_MspInit:
 329              		@ args = 0, pretend = 0, frame = 0
 330              		@ frame_needed = 0, uses_anonymous_args = 0
 331              		@ link register save eliminated.
 332 0000 7047     		bx	lr
 334              		.section	.text.HAL_TIM_Base_MspDeInit,"ax",%progbits
 335              		.align	1
 336              		.weak	HAL_TIM_Base_MspDeInit
 337              		.syntax unified
 338              		.thumb
 339              		.thumb_func
 341              	HAL_TIM_Base_MspDeInit:
 342              		@ args = 0, pretend = 0, frame = 0
 343              		@ frame_needed = 0, uses_anonymous_args = 0
 344              		@ link register save eliminated.
 345 0000 7047     		bx	lr
 347              		.section	.text.HAL_TIM_Base_DeInit,"ax",%progbits
 348              		.align	1
 349              		.global	HAL_TIM_Base_DeInit
 350              		.syntax unified
 351              		.thumb
 352              		.thumb_func
 354              	HAL_TIM_Base_DeInit:
 355              		@ args = 0, pretend = 0, frame = 0
 356              		@ frame_needed = 0, uses_anonymous_args = 0
 357 0000 10B5     		push	{r4, lr}
 358 0002 0446     		mov	r4, r0
 359 0004 0223     		movs	r3, #2
 360 0006 80F83D30 		strb	r3, [r0, #61]
 361 000a 0368     		ldr	r3, [r0]
 362 000c 196A     		ldr	r1, [r3, #32]
 363 000e 41F21112 		movw	r2, #4369
 364 0012 1142     		tst	r1, r2
 365 0014 08D1     		bne	.L33
ARM GAS  C:\Temp\ccF97kYR.s 			page 7


 366 0016 196A     		ldr	r1, [r3, #32]
 367 0018 40F24442 		movw	r2, #1092
 368 001c 1142     		tst	r1, r2
 369 001e 03D1     		bne	.L33
 370 0020 1A68     		ldr	r2, [r3]
 371 0022 22F00102 		bic	r2, r2, #1
 372 0026 1A60     		str	r2, [r3]
 373              	.L33:
 374 0028 2046     		mov	r0, r4
 375 002a FFF7FEFF 		bl	HAL_TIM_Base_MspDeInit
 376 002e 0020     		movs	r0, #0
 377 0030 84F84600 		strb	r0, [r4, #70]
 378 0034 84F83E00 		strb	r0, [r4, #62]
 379 0038 84F83F00 		strb	r0, [r4, #63]
 380 003c 84F84000 		strb	r0, [r4, #64]
 381 0040 84F84100 		strb	r0, [r4, #65]
 382 0044 84F84200 		strb	r0, [r4, #66]
 383 0048 84F84300 		strb	r0, [r4, #67]
 384 004c 84F84400 		strb	r0, [r4, #68]
 385 0050 84F84500 		strb	r0, [r4, #69]
 386 0054 84F83D00 		strb	r0, [r4, #61]
 387 0058 84F83C00 		strb	r0, [r4, #60]
 388 005c 10BD     		pop	{r4, pc}
 390              		.section	.text.HAL_TIM_Base_Start,"ax",%progbits
 391              		.align	1
 392              		.global	HAL_TIM_Base_Start
 393              		.syntax unified
 394              		.thumb
 395              		.thumb_func
 397              	HAL_TIM_Base_Start:
 398              		@ args = 0, pretend = 0, frame = 0
 399              		@ frame_needed = 0, uses_anonymous_args = 0
 400              		@ link register save eliminated.
 401 0000 90F83D30 		ldrb	r3, [r0, #61]	@ zero_extendqisi2
 402 0004 DBB2     		uxtb	r3, r3
 403 0006 012B     		cmp	r3, #1
 404 0008 2AD1     		bne	.L39
 405 000a 0223     		movs	r3, #2
 406 000c 80F83D30 		strb	r3, [r0, #61]
 407 0010 0368     		ldr	r3, [r0]
 408 0012 154A     		ldr	r2, .L41
 409 0014 9342     		cmp	r3, r2
 410 0016 18D0     		beq	.L37
 411 0018 B3F1804F 		cmp	r3, #1073741824
 412 001c 15D0     		beq	.L37
 413 001e A2F57C42 		sub	r2, r2, #64512
 414 0022 9342     		cmp	r3, r2
 415 0024 11D0     		beq	.L37
 416 0026 02F58062 		add	r2, r2, #1024
 417 002a 9342     		cmp	r3, r2
 418 002c 0DD0     		beq	.L37
 419 002e 02F58062 		add	r2, r2, #1024
 420 0032 9342     		cmp	r3, r2
 421 0034 09D0     		beq	.L37
 422 0036 02F59A32 		add	r2, r2, #78848
 423 003a 9342     		cmp	r3, r2
 424 003c 05D0     		beq	.L37
ARM GAS  C:\Temp\ccF97kYR.s 			page 8


 425 003e 1A68     		ldr	r2, [r3]
 426 0040 42F00102 		orr	r2, r2, #1
 427 0044 1A60     		str	r2, [r3]
 428 0046 0020     		movs	r0, #0
 429 0048 7047     		bx	lr
 430              	.L37:
 431 004a 9A68     		ldr	r2, [r3, #8]
 432 004c 02F00702 		and	r2, r2, #7
 433 0050 062A     		cmp	r2, #6
 434 0052 07D0     		beq	.L40
 435 0054 1A68     		ldr	r2, [r3]
 436 0056 42F00102 		orr	r2, r2, #1
 437 005a 1A60     		str	r2, [r3]
 438 005c 0020     		movs	r0, #0
 439 005e 7047     		bx	lr
 440              	.L39:
 441 0060 0120     		movs	r0, #1
 442 0062 7047     		bx	lr
 443              	.L40:
 444 0064 0020     		movs	r0, #0
 445 0066 7047     		bx	lr
 446              	.L42:
 447              		.align	2
 448              	.L41:
 449 0068 00000140 		.word	1073807360
 451              		.section	.text.HAL_TIM_Base_Stop,"ax",%progbits
 452              		.align	1
 453              		.global	HAL_TIM_Base_Stop
 454              		.syntax unified
 455              		.thumb
 456              		.thumb_func
 458              	HAL_TIM_Base_Stop:
 459              		@ args = 0, pretend = 0, frame = 0
 460              		@ frame_needed = 0, uses_anonymous_args = 0
 461              		@ link register save eliminated.
 462 0000 0368     		ldr	r3, [r0]
 463 0002 196A     		ldr	r1, [r3, #32]
 464 0004 41F21112 		movw	r2, #4369
 465 0008 1142     		tst	r1, r2
 466 000a 08D1     		bne	.L44
 467 000c 196A     		ldr	r1, [r3, #32]
 468 000e 40F24442 		movw	r2, #1092
 469 0012 1142     		tst	r1, r2
 470 0014 03D1     		bne	.L44
 471 0016 1A68     		ldr	r2, [r3]
 472 0018 22F00102 		bic	r2, r2, #1
 473 001c 1A60     		str	r2, [r3]
 474              	.L44:
 475 001e 0123     		movs	r3, #1
 476 0020 80F83D30 		strb	r3, [r0, #61]
 477 0024 0020     		movs	r0, #0
 478 0026 7047     		bx	lr
 480              		.section	.text.HAL_TIM_Base_Start_IT,"ax",%progbits
 481              		.align	1
 482              		.global	HAL_TIM_Base_Start_IT
 483              		.syntax unified
 484              		.thumb
ARM GAS  C:\Temp\ccF97kYR.s 			page 9


 485              		.thumb_func
 487              	HAL_TIM_Base_Start_IT:
 488              		@ args = 0, pretend = 0, frame = 0
 489              		@ frame_needed = 0, uses_anonymous_args = 0
 490              		@ link register save eliminated.
 491 0000 90F83D30 		ldrb	r3, [r0, #61]	@ zero_extendqisi2
 492 0004 DBB2     		uxtb	r3, r3
 493 0006 012B     		cmp	r3, #1
 494 0008 2FD1     		bne	.L49
 495 000a 0223     		movs	r3, #2
 496 000c 80F83D30 		strb	r3, [r0, #61]
 497 0010 0268     		ldr	r2, [r0]
 498 0012 D368     		ldr	r3, [r2, #12]
 499 0014 43F00103 		orr	r3, r3, #1
 500 0018 D360     		str	r3, [r2, #12]
 501 001a 0368     		ldr	r3, [r0]
 502 001c 154A     		ldr	r2, .L51
 503 001e 9342     		cmp	r3, r2
 504 0020 18D0     		beq	.L47
 505 0022 B3F1804F 		cmp	r3, #1073741824
 506 0026 15D0     		beq	.L47
 507 0028 A2F57C42 		sub	r2, r2, #64512
 508 002c 9342     		cmp	r3, r2
 509 002e 11D0     		beq	.L47
 510 0030 02F58062 		add	r2, r2, #1024
 511 0034 9342     		cmp	r3, r2
 512 0036 0DD0     		beq	.L47
 513 0038 02F58062 		add	r2, r2, #1024
 514 003c 9342     		cmp	r3, r2
 515 003e 09D0     		beq	.L47
 516 0040 02F59A32 		add	r2, r2, #78848
 517 0044 9342     		cmp	r3, r2
 518 0046 05D0     		beq	.L47
 519 0048 1A68     		ldr	r2, [r3]
 520 004a 42F00102 		orr	r2, r2, #1
 521 004e 1A60     		str	r2, [r3]
 522 0050 0020     		movs	r0, #0
 523 0052 7047     		bx	lr
 524              	.L47:
 525 0054 9A68     		ldr	r2, [r3, #8]
 526 0056 02F00702 		and	r2, r2, #7
 527 005a 062A     		cmp	r2, #6
 528 005c 07D0     		beq	.L50
 529 005e 1A68     		ldr	r2, [r3]
 530 0060 42F00102 		orr	r2, r2, #1
 531 0064 1A60     		str	r2, [r3]
 532 0066 0020     		movs	r0, #0
 533 0068 7047     		bx	lr
 534              	.L49:
 535 006a 0120     		movs	r0, #1
 536 006c 7047     		bx	lr
 537              	.L50:
 538 006e 0020     		movs	r0, #0
 539 0070 7047     		bx	lr
 540              	.L52:
 541 0072 00BF     		.align	2
 542              	.L51:
ARM GAS  C:\Temp\ccF97kYR.s 			page 10


 543 0074 00000140 		.word	1073807360
 545              		.section	.text.HAL_TIM_Base_Stop_IT,"ax",%progbits
 546              		.align	1
 547              		.global	HAL_TIM_Base_Stop_IT
 548              		.syntax unified
 549              		.thumb
 550              		.thumb_func
 552              	HAL_TIM_Base_Stop_IT:
 553              		@ args = 0, pretend = 0, frame = 0
 554              		@ frame_needed = 0, uses_anonymous_args = 0
 555              		@ link register save eliminated.
 556 0000 0268     		ldr	r2, [r0]
 557 0002 D368     		ldr	r3, [r2, #12]
 558 0004 23F00103 		bic	r3, r3, #1
 559 0008 D360     		str	r3, [r2, #12]
 560 000a 0368     		ldr	r3, [r0]
 561 000c 196A     		ldr	r1, [r3, #32]
 562 000e 41F21112 		movw	r2, #4369
 563 0012 1142     		tst	r1, r2
 564 0014 08D1     		bne	.L54
 565 0016 196A     		ldr	r1, [r3, #32]
 566 0018 40F24442 		movw	r2, #1092
 567 001c 1142     		tst	r1, r2
 568 001e 03D1     		bne	.L54
 569 0020 1A68     		ldr	r2, [r3]
 570 0022 22F00102 		bic	r2, r2, #1
 571 0026 1A60     		str	r2, [r3]
 572              	.L54:
 573 0028 0123     		movs	r3, #1
 574 002a 80F83D30 		strb	r3, [r0, #61]
 575 002e 0020     		movs	r0, #0
 576 0030 7047     		bx	lr
 578              		.section	.text.HAL_TIM_Base_Start_DMA,"ax",%progbits
 579              		.align	1
 580              		.global	HAL_TIM_Base_Start_DMA
 581              		.syntax unified
 582              		.thumb
 583              		.thumb_func
 585              	HAL_TIM_Base_Start_DMA:
 586              		@ args = 0, pretend = 0, frame = 0
 587              		@ frame_needed = 0, uses_anonymous_args = 0
 588 0000 38B5     		push	{r3, r4, r5, lr}
 589 0002 90F83D40 		ldrb	r4, [r0, #61]	@ zero_extendqisi2
 590 0006 E4B2     		uxtb	r4, r4
 591 0008 022C     		cmp	r4, #2
 592 000a 4CD0     		beq	.L56
 593 000c 0546     		mov	r5, r0
 594 000e 90F83D40 		ldrb	r4, [r0, #61]	@ zero_extendqisi2
 595 0012 E4B2     		uxtb	r4, r4
 596 0014 012C     		cmp	r4, #1
 597 0016 45D1     		bne	.L59
 598 0018 0029     		cmp	r1, #0
 599 001a 44D0     		beq	.L56
 600 001c 002A     		cmp	r2, #0
 601 001e 42D0     		beq	.L56
 602 0020 0223     		movs	r3, #2
 603 0022 80F83D30 		strb	r3, [r0, #61]
ARM GAS  C:\Temp\ccF97kYR.s 			page 11


 604 0026 036A     		ldr	r3, [r0, #32]
 605 0028 2148     		ldr	r0, .L62
 606 002a D863     		str	r0, [r3, #60]
 607 002c 2B6A     		ldr	r3, [r5, #32]
 608 002e 2148     		ldr	r0, .L62+4
 609 0030 1864     		str	r0, [r3, #64]
 610 0032 2B6A     		ldr	r3, [r5, #32]
 611 0034 2048     		ldr	r0, .L62+8
 612 0036 D864     		str	r0, [r3, #76]
 613 0038 2868     		ldr	r0, [r5]
 614 003a 1346     		mov	r3, r2
 615 003c 00F12C02 		add	r2, r0, #44
 616 0040 286A     		ldr	r0, [r5, #32]
 617 0042 FFF7FEFF 		bl	HAL_DMA_Start_IT
 618 0046 0146     		mov	r1, r0
 619 0048 68BB     		cbnz	r0, .L56
 620 004a 2A68     		ldr	r2, [r5]
 621 004c D368     		ldr	r3, [r2, #12]
 622 004e 43F48073 		orr	r3, r3, #256
 623 0052 D360     		str	r3, [r2, #12]
 624 0054 2B68     		ldr	r3, [r5]
 625 0056 194A     		ldr	r2, .L62+12
 626 0058 9342     		cmp	r3, r2
 627 005a 18D0     		beq	.L57
 628 005c B3F1804F 		cmp	r3, #1073741824
 629 0060 15D0     		beq	.L57
 630 0062 A2F57C42 		sub	r2, r2, #64512
 631 0066 9342     		cmp	r3, r2
 632 0068 11D0     		beq	.L57
 633 006a 02F58062 		add	r2, r2, #1024
 634 006e 9342     		cmp	r3, r2
 635 0070 0DD0     		beq	.L57
 636 0072 02F58062 		add	r2, r2, #1024
 637 0076 9342     		cmp	r3, r2
 638 0078 09D0     		beq	.L57
 639 007a 02F59A32 		add	r2, r2, #78848
 640 007e 9342     		cmp	r3, r2
 641 0080 05D0     		beq	.L57
 642 0082 1A68     		ldr	r2, [r3]
 643 0084 42F00102 		orr	r2, r2, #1
 644 0088 1A60     		str	r2, [r3]
 645 008a 0446     		mov	r4, r0
 646 008c 0BE0     		b	.L56
 647              	.L57:
 648 008e 9A68     		ldr	r2, [r3, #8]
 649 0090 02F00702 		and	r2, r2, #7
 650 0094 062A     		cmp	r2, #6
 651 0096 08D0     		beq	.L60
 652 0098 1A68     		ldr	r2, [r3]
 653 009a 42F00102 		orr	r2, r2, #1
 654 009e 1A60     		str	r2, [r3]
 655 00a0 0C46     		mov	r4, r1
 656 00a2 00E0     		b	.L56
 657              	.L59:
 658 00a4 0124     		movs	r4, #1
 659              	.L56:
 660 00a6 2046     		mov	r0, r4
ARM GAS  C:\Temp\ccF97kYR.s 			page 12


 661 00a8 38BD     		pop	{r3, r4, r5, pc}
 662              	.L60:
 663 00aa 0C46     		mov	r4, r1
 664 00ac FBE7     		b	.L56
 665              	.L63:
 666 00ae 00BF     		.align	2
 667              	.L62:
 668 00b0 00000000 		.word	TIM_DMAPeriodElapsedCplt
 669 00b4 00000000 		.word	TIM_DMAPeriodElapsedHalfCplt
 670 00b8 00000000 		.word	TIM_DMAError
 671 00bc 00000140 		.word	1073807360
 673              		.section	.text.HAL_TIM_Base_Stop_DMA,"ax",%progbits
 674              		.align	1
 675              		.global	HAL_TIM_Base_Stop_DMA
 676              		.syntax unified
 677              		.thumb
 678              		.thumb_func
 680              	HAL_TIM_Base_Stop_DMA:
 681              		@ args = 0, pretend = 0, frame = 0
 682              		@ frame_needed = 0, uses_anonymous_args = 0
 683 0000 10B5     		push	{r4, lr}
 684 0002 0446     		mov	r4, r0
 685 0004 0268     		ldr	r2, [r0]
 686 0006 D368     		ldr	r3, [r2, #12]
 687 0008 23F48073 		bic	r3, r3, #256
 688 000c D360     		str	r3, [r2, #12]
 689 000e 006A     		ldr	r0, [r0, #32]
 690 0010 FFF7FEFF 		bl	HAL_DMA_Abort_IT
 691 0014 2368     		ldr	r3, [r4]
 692 0016 196A     		ldr	r1, [r3, #32]
 693 0018 41F21112 		movw	r2, #4369
 694 001c 1142     		tst	r1, r2
 695 001e 08D1     		bne	.L65
 696 0020 196A     		ldr	r1, [r3, #32]
 697 0022 40F24442 		movw	r2, #1092
 698 0026 1142     		tst	r1, r2
 699 0028 03D1     		bne	.L65
 700 002a 1A68     		ldr	r2, [r3]
 701 002c 22F00102 		bic	r2, r2, #1
 702 0030 1A60     		str	r2, [r3]
 703              	.L65:
 704 0032 0123     		movs	r3, #1
 705 0034 84F83D30 		strb	r3, [r4, #61]
 706 0038 0020     		movs	r0, #0
 707 003a 10BD     		pop	{r4, pc}
 709              		.section	.text.HAL_TIM_OC_MspInit,"ax",%progbits
 710              		.align	1
 711              		.weak	HAL_TIM_OC_MspInit
 712              		.syntax unified
 713              		.thumb
 714              		.thumb_func
 716              	HAL_TIM_OC_MspInit:
 717              		@ args = 0, pretend = 0, frame = 0
 718              		@ frame_needed = 0, uses_anonymous_args = 0
 719              		@ link register save eliminated.
 720 0000 7047     		bx	lr
 722              		.section	.text.HAL_TIM_OC_MspDeInit,"ax",%progbits
ARM GAS  C:\Temp\ccF97kYR.s 			page 13


 723              		.align	1
 724              		.weak	HAL_TIM_OC_MspDeInit
 725              		.syntax unified
 726              		.thumb
 727              		.thumb_func
 729              	HAL_TIM_OC_MspDeInit:
 730              		@ args = 0, pretend = 0, frame = 0
 731              		@ frame_needed = 0, uses_anonymous_args = 0
 732              		@ link register save eliminated.
 733 0000 7047     		bx	lr
 735              		.section	.text.HAL_TIM_OC_DeInit,"ax",%progbits
 736              		.align	1
 737              		.global	HAL_TIM_OC_DeInit
 738              		.syntax unified
 739              		.thumb
 740              		.thumb_func
 742              	HAL_TIM_OC_DeInit:
 743              		@ args = 0, pretend = 0, frame = 0
 744              		@ frame_needed = 0, uses_anonymous_args = 0
 745 0000 10B5     		push	{r4, lr}
 746 0002 0446     		mov	r4, r0
 747 0004 0223     		movs	r3, #2
 748 0006 80F83D30 		strb	r3, [r0, #61]
 749 000a 0368     		ldr	r3, [r0]
 750 000c 196A     		ldr	r1, [r3, #32]
 751 000e 41F21112 		movw	r2, #4369
 752 0012 1142     		tst	r1, r2
 753 0014 08D1     		bne	.L70
 754 0016 196A     		ldr	r1, [r3, #32]
 755 0018 40F24442 		movw	r2, #1092
 756 001c 1142     		tst	r1, r2
 757 001e 03D1     		bne	.L70
 758 0020 1A68     		ldr	r2, [r3]
 759 0022 22F00102 		bic	r2, r2, #1
 760 0026 1A60     		str	r2, [r3]
 761              	.L70:
 762 0028 2046     		mov	r0, r4
 763 002a FFF7FEFF 		bl	HAL_TIM_OC_MspDeInit
 764 002e 0020     		movs	r0, #0
 765 0030 84F84600 		strb	r0, [r4, #70]
 766 0034 84F83E00 		strb	r0, [r4, #62]
 767 0038 84F83F00 		strb	r0, [r4, #63]
 768 003c 84F84000 		strb	r0, [r4, #64]
 769 0040 84F84100 		strb	r0, [r4, #65]
 770 0044 84F84200 		strb	r0, [r4, #66]
 771 0048 84F84300 		strb	r0, [r4, #67]
 772 004c 84F84400 		strb	r0, [r4, #68]
 773 0050 84F84500 		strb	r0, [r4, #69]
 774 0054 84F83D00 		strb	r0, [r4, #61]
 775 0058 84F83C00 		strb	r0, [r4, #60]
 776 005c 10BD     		pop	{r4, pc}
 778              		.section	.text.HAL_TIM_PWM_MspInit,"ax",%progbits
 779              		.align	1
 780              		.weak	HAL_TIM_PWM_MspInit
 781              		.syntax unified
 782              		.thumb
 783              		.thumb_func
ARM GAS  C:\Temp\ccF97kYR.s 			page 14


 785              	HAL_TIM_PWM_MspInit:
 786              		@ args = 0, pretend = 0, frame = 0
 787              		@ frame_needed = 0, uses_anonymous_args = 0
 788              		@ link register save eliminated.
 789 0000 7047     		bx	lr
 791              		.section	.text.HAL_TIM_PWM_MspDeInit,"ax",%progbits
 792              		.align	1
 793              		.weak	HAL_TIM_PWM_MspDeInit
 794              		.syntax unified
 795              		.thumb
 796              		.thumb_func
 798              	HAL_TIM_PWM_MspDeInit:
 799              		@ args = 0, pretend = 0, frame = 0
 800              		@ frame_needed = 0, uses_anonymous_args = 0
 801              		@ link register save eliminated.
 802 0000 7047     		bx	lr
 804              		.section	.text.HAL_TIM_PWM_DeInit,"ax",%progbits
 805              		.align	1
 806              		.global	HAL_TIM_PWM_DeInit
 807              		.syntax unified
 808              		.thumb
 809              		.thumb_func
 811              	HAL_TIM_PWM_DeInit:
 812              		@ args = 0, pretend = 0, frame = 0
 813              		@ frame_needed = 0, uses_anonymous_args = 0
 814 0000 10B5     		push	{r4, lr}
 815 0002 0446     		mov	r4, r0
 816 0004 0223     		movs	r3, #2
 817 0006 80F83D30 		strb	r3, [r0, #61]
 818 000a 0368     		ldr	r3, [r0]
 819 000c 196A     		ldr	r1, [r3, #32]
 820 000e 41F21112 		movw	r2, #4369
 821 0012 1142     		tst	r1, r2
 822 0014 08D1     		bne	.L75
 823 0016 196A     		ldr	r1, [r3, #32]
 824 0018 40F24442 		movw	r2, #1092
 825 001c 1142     		tst	r1, r2
 826 001e 03D1     		bne	.L75
 827 0020 1A68     		ldr	r2, [r3]
 828 0022 22F00102 		bic	r2, r2, #1
 829 0026 1A60     		str	r2, [r3]
 830              	.L75:
 831 0028 2046     		mov	r0, r4
 832 002a FFF7FEFF 		bl	HAL_TIM_PWM_MspDeInit
 833 002e 0020     		movs	r0, #0
 834 0030 84F84600 		strb	r0, [r4, #70]
 835 0034 84F83E00 		strb	r0, [r4, #62]
 836 0038 84F83F00 		strb	r0, [r4, #63]
 837 003c 84F84000 		strb	r0, [r4, #64]
 838 0040 84F84100 		strb	r0, [r4, #65]
 839 0044 84F84200 		strb	r0, [r4, #66]
 840 0048 84F84300 		strb	r0, [r4, #67]
 841 004c 84F84400 		strb	r0, [r4, #68]
 842 0050 84F84500 		strb	r0, [r4, #69]
 843 0054 84F83D00 		strb	r0, [r4, #61]
 844 0058 84F83C00 		strb	r0, [r4, #60]
 845 005c 10BD     		pop	{r4, pc}
ARM GAS  C:\Temp\ccF97kYR.s 			page 15


 847              		.section	.text.HAL_TIM_IC_MspInit,"ax",%progbits
 848              		.align	1
 849              		.weak	HAL_TIM_IC_MspInit
 850              		.syntax unified
 851              		.thumb
 852              		.thumb_func
 854              	HAL_TIM_IC_MspInit:
 855              		@ args = 0, pretend = 0, frame = 0
 856              		@ frame_needed = 0, uses_anonymous_args = 0
 857              		@ link register save eliminated.
 858 0000 7047     		bx	lr
 860              		.section	.text.HAL_TIM_IC_MspDeInit,"ax",%progbits
 861              		.align	1
 862              		.weak	HAL_TIM_IC_MspDeInit
 863              		.syntax unified
 864              		.thumb
 865              		.thumb_func
 867              	HAL_TIM_IC_MspDeInit:
 868              		@ args = 0, pretend = 0, frame = 0
 869              		@ frame_needed = 0, uses_anonymous_args = 0
 870              		@ link register save eliminated.
 871 0000 7047     		bx	lr
 873              		.section	.text.HAL_TIM_IC_DeInit,"ax",%progbits
 874              		.align	1
 875              		.global	HAL_TIM_IC_DeInit
 876              		.syntax unified
 877              		.thumb
 878              		.thumb_func
 880              	HAL_TIM_IC_DeInit:
 881              		@ args = 0, pretend = 0, frame = 0
 882              		@ frame_needed = 0, uses_anonymous_args = 0
 883 0000 10B5     		push	{r4, lr}
 884 0002 0446     		mov	r4, r0
 885 0004 0223     		movs	r3, #2
 886 0006 80F83D30 		strb	r3, [r0, #61]
 887 000a 0368     		ldr	r3, [r0]
 888 000c 196A     		ldr	r1, [r3, #32]
 889 000e 41F21112 		movw	r2, #4369
 890 0012 1142     		tst	r1, r2
 891 0014 08D1     		bne	.L80
 892 0016 196A     		ldr	r1, [r3, #32]
 893 0018 40F24442 		movw	r2, #1092
 894 001c 1142     		tst	r1, r2
 895 001e 03D1     		bne	.L80
 896 0020 1A68     		ldr	r2, [r3]
 897 0022 22F00102 		bic	r2, r2, #1
 898 0026 1A60     		str	r2, [r3]
 899              	.L80:
 900 0028 2046     		mov	r0, r4
 901 002a FFF7FEFF 		bl	HAL_TIM_IC_MspDeInit
 902 002e 0020     		movs	r0, #0
 903 0030 84F84600 		strb	r0, [r4, #70]
 904 0034 84F83E00 		strb	r0, [r4, #62]
 905 0038 84F83F00 		strb	r0, [r4, #63]
 906 003c 84F84000 		strb	r0, [r4, #64]
 907 0040 84F84100 		strb	r0, [r4, #65]
 908 0044 84F84200 		strb	r0, [r4, #66]
ARM GAS  C:\Temp\ccF97kYR.s 			page 16


 909 0048 84F84300 		strb	r0, [r4, #67]
 910 004c 84F84400 		strb	r0, [r4, #68]
 911 0050 84F84500 		strb	r0, [r4, #69]
 912 0054 84F83D00 		strb	r0, [r4, #61]
 913 0058 84F83C00 		strb	r0, [r4, #60]
 914 005c 10BD     		pop	{r4, pc}
 916              		.section	.text.HAL_TIM_OnePulse_MspInit,"ax",%progbits
 917              		.align	1
 918              		.weak	HAL_TIM_OnePulse_MspInit
 919              		.syntax unified
 920              		.thumb
 921              		.thumb_func
 923              	HAL_TIM_OnePulse_MspInit:
 924              		@ args = 0, pretend = 0, frame = 0
 925              		@ frame_needed = 0, uses_anonymous_args = 0
 926              		@ link register save eliminated.
 927 0000 7047     		bx	lr
 929              		.section	.text.HAL_TIM_OnePulse_MspDeInit,"ax",%progbits
 930              		.align	1
 931              		.weak	HAL_TIM_OnePulse_MspDeInit
 932              		.syntax unified
 933              		.thumb
 934              		.thumb_func
 936              	HAL_TIM_OnePulse_MspDeInit:
 937              		@ args = 0, pretend = 0, frame = 0
 938              		@ frame_needed = 0, uses_anonymous_args = 0
 939              		@ link register save eliminated.
 940 0000 7047     		bx	lr
 942              		.section	.text.HAL_TIM_OnePulse_DeInit,"ax",%progbits
 943              		.align	1
 944              		.global	HAL_TIM_OnePulse_DeInit
 945              		.syntax unified
 946              		.thumb
 947              		.thumb_func
 949              	HAL_TIM_OnePulse_DeInit:
 950              		@ args = 0, pretend = 0, frame = 0
 951              		@ frame_needed = 0, uses_anonymous_args = 0
 952 0000 10B5     		push	{r4, lr}
 953 0002 0446     		mov	r4, r0
 954 0004 0223     		movs	r3, #2
 955 0006 80F83D30 		strb	r3, [r0, #61]
 956 000a 0368     		ldr	r3, [r0]
 957 000c 196A     		ldr	r1, [r3, #32]
 958 000e 41F21112 		movw	r2, #4369
 959 0012 1142     		tst	r1, r2
 960 0014 08D1     		bne	.L85
 961 0016 196A     		ldr	r1, [r3, #32]
 962 0018 40F24442 		movw	r2, #1092
 963 001c 1142     		tst	r1, r2
 964 001e 03D1     		bne	.L85
 965 0020 1A68     		ldr	r2, [r3]
 966 0022 22F00102 		bic	r2, r2, #1
 967 0026 1A60     		str	r2, [r3]
 968              	.L85:
 969 0028 2046     		mov	r0, r4
 970 002a FFF7FEFF 		bl	HAL_TIM_OnePulse_MspDeInit
 971 002e 0020     		movs	r0, #0
ARM GAS  C:\Temp\ccF97kYR.s 			page 17


 972 0030 84F84600 		strb	r0, [r4, #70]
 973 0034 84F83E00 		strb	r0, [r4, #62]
 974 0038 84F83F00 		strb	r0, [r4, #63]
 975 003c 84F84200 		strb	r0, [r4, #66]
 976 0040 84F84300 		strb	r0, [r4, #67]
 977 0044 84F83D00 		strb	r0, [r4, #61]
 978 0048 84F83C00 		strb	r0, [r4, #60]
 979 004c 10BD     		pop	{r4, pc}
 981              		.section	.text.HAL_TIM_Encoder_MspInit,"ax",%progbits
 982              		.align	1
 983              		.weak	HAL_TIM_Encoder_MspInit
 984              		.syntax unified
 985              		.thumb
 986              		.thumb_func
 988              	HAL_TIM_Encoder_MspInit:
 989              		@ args = 0, pretend = 0, frame = 0
 990              		@ frame_needed = 0, uses_anonymous_args = 0
 991              		@ link register save eliminated.
 992 0000 7047     		bx	lr
 994              		.section	.text.HAL_TIM_Encoder_MspDeInit,"ax",%progbits
 995              		.align	1
 996              		.weak	HAL_TIM_Encoder_MspDeInit
 997              		.syntax unified
 998              		.thumb
 999              		.thumb_func
 1001              	HAL_TIM_Encoder_MspDeInit:
 1002              		@ args = 0, pretend = 0, frame = 0
 1003              		@ frame_needed = 0, uses_anonymous_args = 0
 1004              		@ link register save eliminated.
 1005 0000 7047     		bx	lr
 1007              		.section	.text.HAL_TIM_Encoder_DeInit,"ax",%progbits
 1008              		.align	1
 1009              		.global	HAL_TIM_Encoder_DeInit
 1010              		.syntax unified
 1011              		.thumb
 1012              		.thumb_func
 1014              	HAL_TIM_Encoder_DeInit:
 1015              		@ args = 0, pretend = 0, frame = 0
 1016              		@ frame_needed = 0, uses_anonymous_args = 0
 1017 0000 10B5     		push	{r4, lr}
 1018 0002 0446     		mov	r4, r0
 1019 0004 0223     		movs	r3, #2
 1020 0006 80F83D30 		strb	r3, [r0, #61]
 1021 000a 0368     		ldr	r3, [r0]
 1022 000c 196A     		ldr	r1, [r3, #32]
 1023 000e 41F21112 		movw	r2, #4369
 1024 0012 1142     		tst	r1, r2
 1025 0014 08D1     		bne	.L90
 1026 0016 196A     		ldr	r1, [r3, #32]
 1027 0018 40F24442 		movw	r2, #1092
 1028 001c 1142     		tst	r1, r2
 1029 001e 03D1     		bne	.L90
 1030 0020 1A68     		ldr	r2, [r3]
 1031 0022 22F00102 		bic	r2, r2, #1
 1032 0026 1A60     		str	r2, [r3]
 1033              	.L90:
 1034 0028 2046     		mov	r0, r4
ARM GAS  C:\Temp\ccF97kYR.s 			page 18


 1035 002a FFF7FEFF 		bl	HAL_TIM_Encoder_MspDeInit
 1036 002e 0020     		movs	r0, #0
 1037 0030 84F84600 		strb	r0, [r4, #70]
 1038 0034 84F83E00 		strb	r0, [r4, #62]
 1039 0038 84F83F00 		strb	r0, [r4, #63]
 1040 003c 84F84200 		strb	r0, [r4, #66]
 1041 0040 84F84300 		strb	r0, [r4, #67]
 1042 0044 84F83D00 		strb	r0, [r4, #61]
 1043 0048 84F83C00 		strb	r0, [r4, #60]
 1044 004c 10BD     		pop	{r4, pc}
 1046              		.section	.text.HAL_TIM_DMABurst_MultiWriteStart,"ax",%progbits
 1047              		.align	1
 1048              		.global	HAL_TIM_DMABurst_MultiWriteStart
 1049              		.syntax unified
 1050              		.thumb
 1051              		.thumb_func
 1053              	HAL_TIM_DMABurst_MultiWriteStart:
 1054              		@ args = 8, pretend = 0, frame = 0
 1055              		@ frame_needed = 0, uses_anonymous_args = 0
 1056 0000 70B5     		push	{r4, r5, r6, lr}
 1057 0002 0546     		mov	r5, r0
 1058 0004 90F84600 		ldrb	r0, [r0, #70]	@ zero_extendqisi2
 1059 0008 C0B2     		uxtb	r0, r0
 1060 000a 0228     		cmp	r0, #2
 1061 000c 4AD0     		beq	.L93
 1062 000e 0E46     		mov	r6, r1
 1063 0010 1446     		mov	r4, r2
 1064 0012 1946     		mov	r1, r3
 1065 0014 95F84600 		ldrb	r0, [r5, #70]	@ zero_extendqisi2
 1066 0018 C0B2     		uxtb	r0, r0
 1067 001a 0128     		cmp	r0, #1
 1068 001c 1CD0     		beq	.L113
 1069              	.L94:
 1070 001e B4F5006F 		cmp	r4, #2048
 1071 0022 00F08680 		beq	.L96
 1072 0026 40D8     		bhi	.L97
 1073 0028 B4F5007F 		cmp	r4, #512
 1074 002c 6ED0     		beq	.L98
 1075 002e B4F5806F 		cmp	r4, #1024
 1076 0032 1AD1     		bne	.L114
 1077 0034 AB6A     		ldr	r3, [r5, #40]
 1078 0036 534A     		ldr	r2, .L120
 1079 0038 DA63     		str	r2, [r3, #60]
 1080 003a AB6A     		ldr	r3, [r5, #40]
 1081 003c 524A     		ldr	r2, .L120+4
 1082 003e 1A64     		str	r2, [r3, #64]
 1083 0040 AB6A     		ldr	r3, [r5, #40]
 1084 0042 524A     		ldr	r2, .L120+8
 1085 0044 DA64     		str	r2, [r3, #76]
 1086 0046 2A68     		ldr	r2, [r5]
 1087 0048 059B     		ldr	r3, [sp, #20]
 1088 004a 4C32     		adds	r2, r2, #76
 1089 004c A86A     		ldr	r0, [r5, #40]
 1090 004e FFF7FEFF 		bl	HAL_DMA_Start_IT
 1091 0052 F0B1     		cbz	r0, .L104
 1092 0054 0120     		movs	r0, #1
 1093 0056 25E0     		b	.L93
ARM GAS  C:\Temp\ccF97kYR.s 			page 19


 1094              	.L113:
 1095 0058 1BB1     		cbz	r3, .L115
 1096              	.L95:
 1097 005a 0223     		movs	r3, #2
 1098 005c 85F84630 		strb	r3, [r5, #70]
 1099 0060 DDE7     		b	.L94
 1100              	.L115:
 1101 0062 049B     		ldr	r3, [sp, #16]
 1102 0064 002B     		cmp	r3, #0
 1103 0066 F8D0     		beq	.L95
 1104 0068 1CE0     		b	.L93
 1105              	.L114:
 1106 006a B4F5807F 		cmp	r4, #256
 1107 006e 1AD1     		bne	.L116
 1108 0070 2B6A     		ldr	r3, [r5, #32]
 1109 0072 474A     		ldr	r2, .L120+12
 1110 0074 DA63     		str	r2, [r3, #60]
 1111 0076 2B6A     		ldr	r3, [r5, #32]
 1112 0078 464A     		ldr	r2, .L120+16
 1113 007a 1A64     		str	r2, [r3, #64]
 1114 007c 2B6A     		ldr	r3, [r5, #32]
 1115 007e 434A     		ldr	r2, .L120+8
 1116 0080 DA64     		str	r2, [r3, #76]
 1117 0082 2A68     		ldr	r2, [r5]
 1118 0084 059B     		ldr	r3, [sp, #20]
 1119 0086 4C32     		adds	r2, r2, #76
 1120 0088 286A     		ldr	r0, [r5, #32]
 1121 008a FFF7FEFF 		bl	HAL_DMA_Start_IT
 1122 008e 0028     		cmp	r0, #0
 1123 0090 75D1     		bne	.L117
 1124              	.L104:
 1125 0092 2B68     		ldr	r3, [r5]
 1126 0094 049A     		ldr	r2, [sp, #16]
 1127 0096 1643     		orrs	r6, r6, r2
 1128 0098 9E64     		str	r6, [r3, #72]
 1129 009a 2A68     		ldr	r2, [r5]
 1130 009c D368     		ldr	r3, [r2, #12]
 1131 009e 2343     		orrs	r3, r3, r4
 1132 00a0 D360     		str	r3, [r2, #12]
 1133 00a2 0020     		movs	r0, #0
 1134              	.L93:
 1135 00a4 70BD     		pop	{r4, r5, r6, pc}
 1136              	.L116:
 1137 00a6 0120     		movs	r0, #1
 1138 00a8 FCE7     		b	.L93
 1139              	.L97:
 1140 00aa B4F5005F 		cmp	r4, #8192
 1141 00ae 53D0     		beq	.L101
 1142 00b0 B4F5804F 		cmp	r4, #16384
 1143 00b4 12D1     		bne	.L118
 1144 00b6 AB6B     		ldr	r3, [r5, #56]
 1145 00b8 374A     		ldr	r2, .L120+20
 1146 00ba DA63     		str	r2, [r3, #60]
 1147 00bc AB6B     		ldr	r3, [r5, #56]
 1148 00be 374A     		ldr	r2, .L120+24
 1149 00c0 1A64     		str	r2, [r3, #64]
 1150 00c2 AB6B     		ldr	r3, [r5, #56]
ARM GAS  C:\Temp\ccF97kYR.s 			page 20


 1151 00c4 314A     		ldr	r2, .L120+8
 1152 00c6 DA64     		str	r2, [r3, #76]
 1153 00c8 2A68     		ldr	r2, [r5]
 1154 00ca 059B     		ldr	r3, [sp, #20]
 1155 00cc 4C32     		adds	r2, r2, #76
 1156 00ce A86B     		ldr	r0, [r5, #56]
 1157 00d0 FFF7FEFF 		bl	HAL_DMA_Start_IT
 1158 00d4 0028     		cmp	r0, #0
 1159 00d6 DCD0     		beq	.L104
 1160 00d8 0120     		movs	r0, #1
 1161 00da E3E7     		b	.L93
 1162              	.L118:
 1163 00dc B4F5805F 		cmp	r4, #4096
 1164 00e0 12D1     		bne	.L119
 1165 00e2 2B6B     		ldr	r3, [r5, #48]
 1166 00e4 274A     		ldr	r2, .L120
 1167 00e6 DA63     		str	r2, [r3, #60]
 1168 00e8 2B6B     		ldr	r3, [r5, #48]
 1169 00ea 274A     		ldr	r2, .L120+4
 1170 00ec 1A64     		str	r2, [r3, #64]
 1171 00ee 2B6B     		ldr	r3, [r5, #48]
 1172 00f0 264A     		ldr	r2, .L120+8
 1173 00f2 DA64     		str	r2, [r3, #76]
 1174 00f4 2A68     		ldr	r2, [r5]
 1175 00f6 059B     		ldr	r3, [sp, #20]
 1176 00f8 4C32     		adds	r2, r2, #76
 1177 00fa 286B     		ldr	r0, [r5, #48]
 1178 00fc FFF7FEFF 		bl	HAL_DMA_Start_IT
 1179 0100 0028     		cmp	r0, #0
 1180 0102 C6D0     		beq	.L104
 1181 0104 0120     		movs	r0, #1
 1182 0106 CDE7     		b	.L93
 1183              	.L119:
 1184 0108 0120     		movs	r0, #1
 1185 010a CBE7     		b	.L93
 1186              	.L98:
 1187 010c 6B6A     		ldr	r3, [r5, #36]
 1188 010e 1D4A     		ldr	r2, .L120
 1189 0110 DA63     		str	r2, [r3, #60]
 1190 0112 6B6A     		ldr	r3, [r5, #36]
 1191 0114 1C4A     		ldr	r2, .L120+4
 1192 0116 1A64     		str	r2, [r3, #64]
 1193 0118 6B6A     		ldr	r3, [r5, #36]
 1194 011a 1C4A     		ldr	r2, .L120+8
 1195 011c DA64     		str	r2, [r3, #76]
 1196 011e 2A68     		ldr	r2, [r5]
 1197 0120 059B     		ldr	r3, [sp, #20]
 1198 0122 4C32     		adds	r2, r2, #76
 1199 0124 686A     		ldr	r0, [r5, #36]
 1200 0126 FFF7FEFF 		bl	HAL_DMA_Start_IT
 1201 012a 0028     		cmp	r0, #0
 1202 012c B1D0     		beq	.L104
 1203 012e 0120     		movs	r0, #1
 1204 0130 B8E7     		b	.L93
 1205              	.L96:
 1206 0132 EB6A     		ldr	r3, [r5, #44]
 1207 0134 134A     		ldr	r2, .L120
ARM GAS  C:\Temp\ccF97kYR.s 			page 21


 1208 0136 DA63     		str	r2, [r3, #60]
 1209 0138 EB6A     		ldr	r3, [r5, #44]
 1210 013a 134A     		ldr	r2, .L120+4
 1211 013c 1A64     		str	r2, [r3, #64]
 1212 013e EB6A     		ldr	r3, [r5, #44]
 1213 0140 124A     		ldr	r2, .L120+8
 1214 0142 DA64     		str	r2, [r3, #76]
 1215 0144 2A68     		ldr	r2, [r5]
 1216 0146 059B     		ldr	r3, [sp, #20]
 1217 0148 4C32     		adds	r2, r2, #76
 1218 014a E86A     		ldr	r0, [r5, #44]
 1219 014c FFF7FEFF 		bl	HAL_DMA_Start_IT
 1220 0150 0028     		cmp	r0, #0
 1221 0152 9ED0     		beq	.L104
 1222 0154 0120     		movs	r0, #1
 1223 0156 A5E7     		b	.L93
 1224              	.L101:
 1225 0158 6B6B     		ldr	r3, [r5, #52]
 1226 015a 114A     		ldr	r2, .L120+28
 1227 015c DA63     		str	r2, [r3, #60]
 1228 015e 6B6B     		ldr	r3, [r5, #52]
 1229 0160 104A     		ldr	r2, .L120+32
 1230 0162 1A64     		str	r2, [r3, #64]
 1231 0164 6B6B     		ldr	r3, [r5, #52]
 1232 0166 094A     		ldr	r2, .L120+8
 1233 0168 DA64     		str	r2, [r3, #76]
 1234 016a 2A68     		ldr	r2, [r5]
 1235 016c 059B     		ldr	r3, [sp, #20]
 1236 016e 4C32     		adds	r2, r2, #76
 1237 0170 686B     		ldr	r0, [r5, #52]
 1238 0172 FFF7FEFF 		bl	HAL_DMA_Start_IT
 1239 0176 0028     		cmp	r0, #0
 1240 0178 8BD0     		beq	.L104
 1241 017a 0120     		movs	r0, #1
 1242 017c 92E7     		b	.L93
 1243              	.L117:
 1244 017e 0120     		movs	r0, #1
 1245 0180 90E7     		b	.L93
 1246              	.L121:
 1247 0182 00BF     		.align	2
 1248              	.L120:
 1249 0184 00000000 		.word	TIM_DMADelayPulseCplt
 1250 0188 00000000 		.word	TIM_DMADelayPulseHalfCplt
 1251 018c 00000000 		.word	TIM_DMAError
 1252 0190 00000000 		.word	TIM_DMAPeriodElapsedCplt
 1253 0194 00000000 		.word	TIM_DMAPeriodElapsedHalfCplt
 1254 0198 00000000 		.word	TIM_DMATriggerCplt
 1255 019c 00000000 		.word	TIM_DMATriggerHalfCplt
 1256 01a0 00000000 		.word	TIMEx_DMACommutationCplt
 1257 01a4 00000000 		.word	TIMEx_DMACommutationHalfCplt
 1259              		.section	.text.HAL_TIM_DMABurst_WriteStart,"ax",%progbits
 1260              		.align	1
 1261              		.global	HAL_TIM_DMABurst_WriteStart
 1262              		.syntax unified
 1263              		.thumb
 1264              		.thumb_func
 1266              	HAL_TIM_DMABurst_WriteStart:
ARM GAS  C:\Temp\ccF97kYR.s 			page 22


 1267              		@ args = 4, pretend = 0, frame = 0
 1268              		@ frame_needed = 0, uses_anonymous_args = 0
 1269 0000 30B5     		push	{r4, r5, lr}
 1270 0002 83B0     		sub	sp, sp, #12
 1271 0004 069D     		ldr	r5, [sp, #24]
 1272 0006 2C0A     		lsrs	r4, r5, #8
 1273 0008 0134     		adds	r4, r4, #1
 1274 000a 0194     		str	r4, [sp, #4]
 1275 000c 0095     		str	r5, [sp]
 1276 000e FFF7FEFF 		bl	HAL_TIM_DMABurst_MultiWriteStart
 1277 0012 03B0     		add	sp, sp, #12
 1278              		@ sp needed
 1279 0014 30BD     		pop	{r4, r5, pc}
 1281              		.section	.text.HAL_TIM_DMABurst_WriteStop,"ax",%progbits
 1282              		.align	1
 1283              		.global	HAL_TIM_DMABurst_WriteStop
 1284              		.syntax unified
 1285              		.thumb
 1286              		.thumb_func
 1288              	HAL_TIM_DMABurst_WriteStop:
 1289              		@ args = 0, pretend = 0, frame = 0
 1290              		@ frame_needed = 0, uses_anonymous_args = 0
 1291 0000 38B5     		push	{r3, r4, r5, lr}
 1292 0002 0546     		mov	r5, r0
 1293 0004 0C46     		mov	r4, r1
 1294 0006 B1F5006F 		cmp	r1, #2048
 1295 000a 33D0     		beq	.L125
 1296 000c 1BD8     		bhi	.L126
 1297 000e B1F5007F 		cmp	r1, #512
 1298 0012 2BD0     		beq	.L127
 1299 0014 B1F5806F 		cmp	r1, #1024
 1300 0018 03D1     		bne	.L136
 1301 001a 806A     		ldr	r0, [r0, #40]
 1302 001c FFF7FEFF 		bl	HAL_DMA_Abort_IT
 1303 0020 05E0     		b	.L134
 1304              	.L136:
 1305 0022 B1F5807F 		cmp	r1, #256
 1306 0026 0CD1     		bne	.L137
 1307 0028 006A     		ldr	r0, [r0, #32]
 1308 002a FFF7FEFF 		bl	HAL_DMA_Abort_IT
 1309              	.L134:
 1310 002e 2A68     		ldr	r2, [r5]
 1311 0030 D368     		ldr	r3, [r2, #12]
 1312 0032 23EA0403 		bic	r3, r3, r4
 1313 0036 D360     		str	r3, [r2, #12]
 1314 0038 0123     		movs	r3, #1
 1315 003a 85F84630 		strb	r3, [r5, #70]
 1316 003e 0020     		movs	r0, #0
 1317              	.L130:
 1318 0040 38BD     		pop	{r3, r4, r5, pc}
 1319              	.L137:
 1320 0042 0120     		movs	r0, #1
 1321 0044 FCE7     		b	.L130
 1322              	.L126:
 1323 0046 B1F5005F 		cmp	r1, #8192
 1324 004a 17D0     		beq	.L131
 1325 004c B1F5804F 		cmp	r1, #16384
ARM GAS  C:\Temp\ccF97kYR.s 			page 23


 1326 0050 03D1     		bne	.L138
 1327 0052 806B     		ldr	r0, [r0, #56]
 1328 0054 FFF7FEFF 		bl	HAL_DMA_Abort_IT
 1329 0058 E9E7     		b	.L134
 1330              	.L138:
 1331 005a B1F5805F 		cmp	r1, #4096
 1332 005e 03D1     		bne	.L139
 1333 0060 006B     		ldr	r0, [r0, #48]
 1334 0062 FFF7FEFF 		bl	HAL_DMA_Abort_IT
 1335 0066 E2E7     		b	.L134
 1336              	.L139:
 1337 0068 0120     		movs	r0, #1
 1338 006a E9E7     		b	.L130
 1339              	.L127:
 1340 006c 406A     		ldr	r0, [r0, #36]
 1341 006e FFF7FEFF 		bl	HAL_DMA_Abort_IT
 1342 0072 DCE7     		b	.L134
 1343              	.L125:
 1344 0074 C06A     		ldr	r0, [r0, #44]
 1345 0076 FFF7FEFF 		bl	HAL_DMA_Abort_IT
 1346 007a D8E7     		b	.L134
 1347              	.L131:
 1348 007c 406B     		ldr	r0, [r0, #52]
 1349 007e FFF7FEFF 		bl	HAL_DMA_Abort_IT
 1350 0082 D4E7     		b	.L134
 1352              		.section	.text.HAL_TIM_DMABurst_MultiReadStart,"ax",%progbits
 1353              		.align	1
 1354              		.global	HAL_TIM_DMABurst_MultiReadStart
 1355              		.syntax unified
 1356              		.thumb
 1357              		.thumb_func
 1359              	HAL_TIM_DMABurst_MultiReadStart:
 1360              		@ args = 8, pretend = 0, frame = 0
 1361              		@ frame_needed = 0, uses_anonymous_args = 0
 1362 0000 70B5     		push	{r4, r5, r6, lr}
 1363 0002 0546     		mov	r5, r0
 1364 0004 90F84600 		ldrb	r0, [r0, #70]	@ zero_extendqisi2
 1365 0008 C0B2     		uxtb	r0, r0
 1366 000a 0228     		cmp	r0, #2
 1367 000c 4AD0     		beq	.L141
 1368 000e 0E46     		mov	r6, r1
 1369 0010 1446     		mov	r4, r2
 1370 0012 1A46     		mov	r2, r3
 1371 0014 95F84600 		ldrb	r0, [r5, #70]	@ zero_extendqisi2
 1372 0018 C0B2     		uxtb	r0, r0
 1373 001a 0128     		cmp	r0, #1
 1374 001c 1CD0     		beq	.L161
 1375              	.L142:
 1376 001e B4F5006F 		cmp	r4, #2048
 1377 0022 00F08680 		beq	.L144
 1378 0026 40D8     		bhi	.L145
 1379 0028 B4F5007F 		cmp	r4, #512
 1380 002c 6ED0     		beq	.L146
 1381 002e B4F5806F 		cmp	r4, #1024
 1382 0032 1AD1     		bne	.L162
 1383 0034 AB6A     		ldr	r3, [r5, #40]
 1384 0036 5349     		ldr	r1, .L168
ARM GAS  C:\Temp\ccF97kYR.s 			page 24


 1385 0038 D963     		str	r1, [r3, #60]
 1386 003a AB6A     		ldr	r3, [r5, #40]
 1387 003c 5249     		ldr	r1, .L168+4
 1388 003e 1964     		str	r1, [r3, #64]
 1389 0040 AB6A     		ldr	r3, [r5, #40]
 1390 0042 5249     		ldr	r1, .L168+8
 1391 0044 D964     		str	r1, [r3, #76]
 1392 0046 2968     		ldr	r1, [r5]
 1393 0048 059B     		ldr	r3, [sp, #20]
 1394 004a 4C31     		adds	r1, r1, #76
 1395 004c A86A     		ldr	r0, [r5, #40]
 1396 004e FFF7FEFF 		bl	HAL_DMA_Start_IT
 1397 0052 F0B1     		cbz	r0, .L152
 1398 0054 0120     		movs	r0, #1
 1399 0056 25E0     		b	.L141
 1400              	.L161:
 1401 0058 1BB1     		cbz	r3, .L163
 1402              	.L143:
 1403 005a 0223     		movs	r3, #2
 1404 005c 85F84630 		strb	r3, [r5, #70]
 1405 0060 DDE7     		b	.L142
 1406              	.L163:
 1407 0062 049B     		ldr	r3, [sp, #16]
 1408 0064 002B     		cmp	r3, #0
 1409 0066 F8D0     		beq	.L143
 1410 0068 1CE0     		b	.L141
 1411              	.L162:
 1412 006a B4F5807F 		cmp	r4, #256
 1413 006e 1AD1     		bne	.L164
 1414 0070 2B6A     		ldr	r3, [r5, #32]
 1415 0072 4749     		ldr	r1, .L168+12
 1416 0074 D963     		str	r1, [r3, #60]
 1417 0076 2B6A     		ldr	r3, [r5, #32]
 1418 0078 4649     		ldr	r1, .L168+16
 1419 007a 1964     		str	r1, [r3, #64]
 1420 007c 2B6A     		ldr	r3, [r5, #32]
 1421 007e 4349     		ldr	r1, .L168+8
 1422 0080 D964     		str	r1, [r3, #76]
 1423 0082 2968     		ldr	r1, [r5]
 1424 0084 059B     		ldr	r3, [sp, #20]
 1425 0086 4C31     		adds	r1, r1, #76
 1426 0088 286A     		ldr	r0, [r5, #32]
 1427 008a FFF7FEFF 		bl	HAL_DMA_Start_IT
 1428 008e 0028     		cmp	r0, #0
 1429 0090 75D1     		bne	.L165
 1430              	.L152:
 1431 0092 2B68     		ldr	r3, [r5]
 1432 0094 049A     		ldr	r2, [sp, #16]
 1433 0096 1643     		orrs	r6, r6, r2
 1434 0098 9E64     		str	r6, [r3, #72]
 1435 009a 2A68     		ldr	r2, [r5]
 1436 009c D368     		ldr	r3, [r2, #12]
 1437 009e 2343     		orrs	r3, r3, r4
 1438 00a0 D360     		str	r3, [r2, #12]
 1439 00a2 0020     		movs	r0, #0
 1440              	.L141:
 1441 00a4 70BD     		pop	{r4, r5, r6, pc}
ARM GAS  C:\Temp\ccF97kYR.s 			page 25


 1442              	.L164:
 1443 00a6 0120     		movs	r0, #1
 1444 00a8 FCE7     		b	.L141
 1445              	.L145:
 1446 00aa B4F5005F 		cmp	r4, #8192
 1447 00ae 53D0     		beq	.L149
 1448 00b0 B4F5804F 		cmp	r4, #16384
 1449 00b4 12D1     		bne	.L166
 1450 00b6 AB6B     		ldr	r3, [r5, #56]
 1451 00b8 3749     		ldr	r1, .L168+20
 1452 00ba D963     		str	r1, [r3, #60]
 1453 00bc AB6B     		ldr	r3, [r5, #56]
 1454 00be 3749     		ldr	r1, .L168+24
 1455 00c0 1964     		str	r1, [r3, #64]
 1456 00c2 AB6B     		ldr	r3, [r5, #56]
 1457 00c4 3149     		ldr	r1, .L168+8
 1458 00c6 D964     		str	r1, [r3, #76]
 1459 00c8 2968     		ldr	r1, [r5]
 1460 00ca 059B     		ldr	r3, [sp, #20]
 1461 00cc 4C31     		adds	r1, r1, #76
 1462 00ce A86B     		ldr	r0, [r5, #56]
 1463 00d0 FFF7FEFF 		bl	HAL_DMA_Start_IT
 1464 00d4 0028     		cmp	r0, #0
 1465 00d6 DCD0     		beq	.L152
 1466 00d8 0120     		movs	r0, #1
 1467 00da E3E7     		b	.L141
 1468              	.L166:
 1469 00dc B4F5805F 		cmp	r4, #4096
 1470 00e0 12D1     		bne	.L167
 1471 00e2 2B6B     		ldr	r3, [r5, #48]
 1472 00e4 2749     		ldr	r1, .L168
 1473 00e6 D963     		str	r1, [r3, #60]
 1474 00e8 2B6B     		ldr	r3, [r5, #48]
 1475 00ea 2749     		ldr	r1, .L168+4
 1476 00ec 1964     		str	r1, [r3, #64]
 1477 00ee 2B6B     		ldr	r3, [r5, #48]
 1478 00f0 2649     		ldr	r1, .L168+8
 1479 00f2 D964     		str	r1, [r3, #76]
 1480 00f4 2968     		ldr	r1, [r5]
 1481 00f6 059B     		ldr	r3, [sp, #20]
 1482 00f8 4C31     		adds	r1, r1, #76
 1483 00fa 286B     		ldr	r0, [r5, #48]
 1484 00fc FFF7FEFF 		bl	HAL_DMA_Start_IT
 1485 0100 0028     		cmp	r0, #0
 1486 0102 C6D0     		beq	.L152
 1487 0104 0120     		movs	r0, #1
 1488 0106 CDE7     		b	.L141
 1489              	.L167:
 1490 0108 0120     		movs	r0, #1
 1491 010a CBE7     		b	.L141
 1492              	.L146:
 1493 010c 6B6A     		ldr	r3, [r5, #36]
 1494 010e 1D49     		ldr	r1, .L168
 1495 0110 D963     		str	r1, [r3, #60]
 1496 0112 6B6A     		ldr	r3, [r5, #36]
 1497 0114 1C49     		ldr	r1, .L168+4
 1498 0116 1964     		str	r1, [r3, #64]
ARM GAS  C:\Temp\ccF97kYR.s 			page 26


 1499 0118 6B6A     		ldr	r3, [r5, #36]
 1500 011a 1C49     		ldr	r1, .L168+8
 1501 011c D964     		str	r1, [r3, #76]
 1502 011e 2968     		ldr	r1, [r5]
 1503 0120 059B     		ldr	r3, [sp, #20]
 1504 0122 4C31     		adds	r1, r1, #76
 1505 0124 686A     		ldr	r0, [r5, #36]
 1506 0126 FFF7FEFF 		bl	HAL_DMA_Start_IT
 1507 012a 0028     		cmp	r0, #0
 1508 012c B1D0     		beq	.L152
 1509 012e 0120     		movs	r0, #1
 1510 0130 B8E7     		b	.L141
 1511              	.L144:
 1512 0132 EB6A     		ldr	r3, [r5, #44]
 1513 0134 1349     		ldr	r1, .L168
 1514 0136 D963     		str	r1, [r3, #60]
 1515 0138 EB6A     		ldr	r3, [r5, #44]
 1516 013a 1349     		ldr	r1, .L168+4
 1517 013c 1964     		str	r1, [r3, #64]
 1518 013e EB6A     		ldr	r3, [r5, #44]
 1519 0140 1249     		ldr	r1, .L168+8
 1520 0142 D964     		str	r1, [r3, #76]
 1521 0144 2968     		ldr	r1, [r5]
 1522 0146 059B     		ldr	r3, [sp, #20]
 1523 0148 4C31     		adds	r1, r1, #76
 1524 014a E86A     		ldr	r0, [r5, #44]
 1525 014c FFF7FEFF 		bl	HAL_DMA_Start_IT
 1526 0150 0028     		cmp	r0, #0
 1527 0152 9ED0     		beq	.L152
 1528 0154 0120     		movs	r0, #1
 1529 0156 A5E7     		b	.L141
 1530              	.L149:
 1531 0158 6B6B     		ldr	r3, [r5, #52]
 1532 015a 1149     		ldr	r1, .L168+28
 1533 015c D963     		str	r1, [r3, #60]
 1534 015e 6B6B     		ldr	r3, [r5, #52]
 1535 0160 1049     		ldr	r1, .L168+32
 1536 0162 1964     		str	r1, [r3, #64]
 1537 0164 6B6B     		ldr	r3, [r5, #52]
 1538 0166 0949     		ldr	r1, .L168+8
 1539 0168 D964     		str	r1, [r3, #76]
 1540 016a 2968     		ldr	r1, [r5]
 1541 016c 059B     		ldr	r3, [sp, #20]
 1542 016e 4C31     		adds	r1, r1, #76
 1543 0170 686B     		ldr	r0, [r5, #52]
 1544 0172 FFF7FEFF 		bl	HAL_DMA_Start_IT
 1545 0176 0028     		cmp	r0, #0
 1546 0178 8BD0     		beq	.L152
 1547 017a 0120     		movs	r0, #1
 1548 017c 92E7     		b	.L141
 1549              	.L165:
 1550 017e 0120     		movs	r0, #1
 1551 0180 90E7     		b	.L141
 1552              	.L169:
 1553 0182 00BF     		.align	2
 1554              	.L168:
 1555 0184 00000000 		.word	TIM_DMACaptureCplt
ARM GAS  C:\Temp\ccF97kYR.s 			page 27


 1556 0188 00000000 		.word	TIM_DMACaptureHalfCplt
 1557 018c 00000000 		.word	TIM_DMAError
 1558 0190 00000000 		.word	TIM_DMAPeriodElapsedCplt
 1559 0194 00000000 		.word	TIM_DMAPeriodElapsedHalfCplt
 1560 0198 00000000 		.word	TIM_DMATriggerCplt
 1561 019c 00000000 		.word	TIM_DMATriggerHalfCplt
 1562 01a0 00000000 		.word	TIMEx_DMACommutationCplt
 1563 01a4 00000000 		.word	TIMEx_DMACommutationHalfCplt
 1565              		.section	.text.HAL_TIM_DMABurst_ReadStart,"ax",%progbits
 1566              		.align	1
 1567              		.global	HAL_TIM_DMABurst_ReadStart
 1568              		.syntax unified
 1569              		.thumb
 1570              		.thumb_func
 1572              	HAL_TIM_DMABurst_ReadStart:
 1573              		@ args = 4, pretend = 0, frame = 0
 1574              		@ frame_needed = 0, uses_anonymous_args = 0
 1575 0000 30B5     		push	{r4, r5, lr}
 1576 0002 83B0     		sub	sp, sp, #12
 1577 0004 069D     		ldr	r5, [sp, #24]
 1578 0006 2C0A     		lsrs	r4, r5, #8
 1579 0008 0134     		adds	r4, r4, #1
 1580 000a 0194     		str	r4, [sp, #4]
 1581 000c 0095     		str	r5, [sp]
 1582 000e FFF7FEFF 		bl	HAL_TIM_DMABurst_MultiReadStart
 1583 0012 03B0     		add	sp, sp, #12
 1584              		@ sp needed
 1585 0014 30BD     		pop	{r4, r5, pc}
 1587              		.section	.text.HAL_TIM_DMABurst_ReadStop,"ax",%progbits
 1588              		.align	1
 1589              		.global	HAL_TIM_DMABurst_ReadStop
 1590              		.syntax unified
 1591              		.thumb
 1592              		.thumb_func
 1594              	HAL_TIM_DMABurst_ReadStop:
 1595              		@ args = 0, pretend = 0, frame = 0
 1596              		@ frame_needed = 0, uses_anonymous_args = 0
 1597 0000 38B5     		push	{r3, r4, r5, lr}
 1598 0002 0546     		mov	r5, r0
 1599 0004 0C46     		mov	r4, r1
 1600 0006 B1F5006F 		cmp	r1, #2048
 1601 000a 33D0     		beq	.L173
 1602 000c 1BD8     		bhi	.L174
 1603 000e B1F5007F 		cmp	r1, #512
 1604 0012 2BD0     		beq	.L175
 1605 0014 B1F5806F 		cmp	r1, #1024
 1606 0018 03D1     		bne	.L184
 1607 001a 806A     		ldr	r0, [r0, #40]
 1608 001c FFF7FEFF 		bl	HAL_DMA_Abort_IT
 1609 0020 05E0     		b	.L182
 1610              	.L184:
 1611 0022 B1F5807F 		cmp	r1, #256
 1612 0026 0CD1     		bne	.L185
 1613 0028 006A     		ldr	r0, [r0, #32]
 1614 002a FFF7FEFF 		bl	HAL_DMA_Abort_IT
 1615              	.L182:
 1616 002e 2A68     		ldr	r2, [r5]
ARM GAS  C:\Temp\ccF97kYR.s 			page 28


 1617 0030 D368     		ldr	r3, [r2, #12]
 1618 0032 23EA0403 		bic	r3, r3, r4
 1619 0036 D360     		str	r3, [r2, #12]
 1620 0038 0123     		movs	r3, #1
 1621 003a 85F84630 		strb	r3, [r5, #70]
 1622 003e 0020     		movs	r0, #0
 1623              	.L178:
 1624 0040 38BD     		pop	{r3, r4, r5, pc}
 1625              	.L185:
 1626 0042 0120     		movs	r0, #1
 1627 0044 FCE7     		b	.L178
 1628              	.L174:
 1629 0046 B1F5005F 		cmp	r1, #8192
 1630 004a 17D0     		beq	.L179
 1631 004c B1F5804F 		cmp	r1, #16384
 1632 0050 03D1     		bne	.L186
 1633 0052 806B     		ldr	r0, [r0, #56]
 1634 0054 FFF7FEFF 		bl	HAL_DMA_Abort_IT
 1635 0058 E9E7     		b	.L182
 1636              	.L186:
 1637 005a B1F5805F 		cmp	r1, #4096
 1638 005e 03D1     		bne	.L187
 1639 0060 006B     		ldr	r0, [r0, #48]
 1640 0062 FFF7FEFF 		bl	HAL_DMA_Abort_IT
 1641 0066 E2E7     		b	.L182
 1642              	.L187:
 1643 0068 0120     		movs	r0, #1
 1644 006a E9E7     		b	.L178
 1645              	.L175:
 1646 006c 406A     		ldr	r0, [r0, #36]
 1647 006e FFF7FEFF 		bl	HAL_DMA_Abort_IT
 1648 0072 DCE7     		b	.L182
 1649              	.L173:
 1650 0074 C06A     		ldr	r0, [r0, #44]
 1651 0076 FFF7FEFF 		bl	HAL_DMA_Abort_IT
 1652 007a D8E7     		b	.L182
 1653              	.L179:
 1654 007c 406B     		ldr	r0, [r0, #52]
 1655 007e FFF7FEFF 		bl	HAL_DMA_Abort_IT
 1656 0082 D4E7     		b	.L182
 1658              		.section	.text.HAL_TIM_GenerateEvent,"ax",%progbits
 1659              		.align	1
 1660              		.global	HAL_TIM_GenerateEvent
 1661              		.syntax unified
 1662              		.thumb
 1663              		.thumb_func
 1665              	HAL_TIM_GenerateEvent:
 1666              		@ args = 0, pretend = 0, frame = 0
 1667              		@ frame_needed = 0, uses_anonymous_args = 0
 1668              		@ link register save eliminated.
 1669 0000 90F83C30 		ldrb	r3, [r0, #60]	@ zero_extendqisi2
 1670 0004 012B     		cmp	r3, #1
 1671 0006 0ED0     		beq	.L190
 1672 0008 0123     		movs	r3, #1
 1673 000a 80F83C30 		strb	r3, [r0, #60]
 1674 000e 0222     		movs	r2, #2
 1675 0010 80F83D20 		strb	r2, [r0, #61]
ARM GAS  C:\Temp\ccF97kYR.s 			page 29


 1676 0014 0268     		ldr	r2, [r0]
 1677 0016 5161     		str	r1, [r2, #20]
 1678 0018 80F83D30 		strb	r3, [r0, #61]
 1679 001c 0023     		movs	r3, #0
 1680 001e 80F83C30 		strb	r3, [r0, #60]
 1681 0022 1846     		mov	r0, r3
 1682 0024 7047     		bx	lr
 1683              	.L190:
 1684 0026 0220     		movs	r0, #2
 1685 0028 7047     		bx	lr
 1687              		.section	.text.HAL_TIM_ConfigTI1Input,"ax",%progbits
 1688              		.align	1
 1689              		.global	HAL_TIM_ConfigTI1Input
 1690              		.syntax unified
 1691              		.thumb
 1692              		.thumb_func
 1694              	HAL_TIM_ConfigTI1Input:
 1695              		@ args = 0, pretend = 0, frame = 0
 1696              		@ frame_needed = 0, uses_anonymous_args = 0
 1697              		@ link register save eliminated.
 1698 0000 0268     		ldr	r2, [r0]
 1699 0002 5368     		ldr	r3, [r2, #4]
 1700 0004 23F08003 		bic	r3, r3, #128
 1701 0008 0B43     		orrs	r3, r3, r1
 1702 000a 5360     		str	r3, [r2, #4]
 1703 000c 0020     		movs	r0, #0
 1704 000e 7047     		bx	lr
 1706              		.section	.text.HAL_TIM_ReadCapturedValue,"ax",%progbits
 1707              		.align	1
 1708              		.global	HAL_TIM_ReadCapturedValue
 1709              		.syntax unified
 1710              		.thumb
 1711              		.thumb_func
 1713              	HAL_TIM_ReadCapturedValue:
 1714              		@ args = 0, pretend = 0, frame = 0
 1715              		@ frame_needed = 0, uses_anonymous_args = 0
 1716              		@ link register save eliminated.
 1717 0000 0C29     		cmp	r1, #12
 1718 0002 14D8     		bhi	.L199
 1719 0004 DFE801F0 		tbb	[pc, r1]
 1720              	.L195:
 1721 0008 07       		.byte	(.L198-.L195)/2
 1722 0009 13       		.byte	(.L199-.L195)/2
 1723 000a 13       		.byte	(.L199-.L195)/2
 1724 000b 13       		.byte	(.L199-.L195)/2
 1725 000c 0A       		.byte	(.L197-.L195)/2
 1726 000d 13       		.byte	(.L199-.L195)/2
 1727 000e 13       		.byte	(.L199-.L195)/2
 1728 000f 13       		.byte	(.L199-.L195)/2
 1729 0010 0D       		.byte	(.L196-.L195)/2
 1730 0011 13       		.byte	(.L199-.L195)/2
 1731 0012 13       		.byte	(.L199-.L195)/2
 1732 0013 13       		.byte	(.L199-.L195)/2
 1733 0014 10       		.byte	(.L194-.L195)/2
 1734 0015 00       		.p2align 1
 1735              	.L198:
 1736 0016 0368     		ldr	r3, [r0]
ARM GAS  C:\Temp\ccF97kYR.s 			page 30


 1737 0018 586B     		ldr	r0, [r3, #52]
 1738 001a 7047     		bx	lr
 1739              	.L197:
 1740 001c 0368     		ldr	r3, [r0]
 1741 001e 986B     		ldr	r0, [r3, #56]
 1742 0020 7047     		bx	lr
 1743              	.L196:
 1744 0022 0368     		ldr	r3, [r0]
 1745 0024 D86B     		ldr	r0, [r3, #60]
 1746 0026 7047     		bx	lr
 1747              	.L194:
 1748 0028 0368     		ldr	r3, [r0]
 1749 002a 186C     		ldr	r0, [r3, #64]
 1750 002c 7047     		bx	lr
 1751              	.L199:
 1752 002e 0020     		movs	r0, #0
 1753 0030 7047     		bx	lr
 1755              		.section	.text.HAL_TIM_PeriodElapsedCallback,"ax",%progbits
 1756              		.align	1
 1757              		.weak	HAL_TIM_PeriodElapsedCallback
 1758              		.syntax unified
 1759              		.thumb
 1760              		.thumb_func
 1762              	HAL_TIM_PeriodElapsedCallback:
 1763              		@ args = 0, pretend = 0, frame = 0
 1764              		@ frame_needed = 0, uses_anonymous_args = 0
 1765              		@ link register save eliminated.
 1766 0000 7047     		bx	lr
 1768              		.section	.text.TIM_DMAPeriodElapsedCplt,"ax",%progbits
 1769              		.align	1
 1770              		.syntax unified
 1771              		.thumb
 1772              		.thumb_func
 1774              	TIM_DMAPeriodElapsedCplt:
 1775              		@ args = 0, pretend = 0, frame = 0
 1776              		@ frame_needed = 0, uses_anonymous_args = 0
 1777 0000 08B5     		push	{r3, lr}
 1778 0002 806B     		ldr	r0, [r0, #56]
 1779 0004 036A     		ldr	r3, [r0, #32]
 1780 0006 DB69     		ldr	r3, [r3, #28]
 1781 0008 13B9     		cbnz	r3, .L202
 1782 000a 0123     		movs	r3, #1
 1783 000c 80F83D30 		strb	r3, [r0, #61]
 1784              	.L202:
 1785 0010 FFF7FEFF 		bl	HAL_TIM_PeriodElapsedCallback
 1786 0014 08BD     		pop	{r3, pc}
 1788              		.section	.text.HAL_TIM_PeriodElapsedHalfCpltCallback,"ax",%progbits
 1789              		.align	1
 1790              		.weak	HAL_TIM_PeriodElapsedHalfCpltCallback
 1791              		.syntax unified
 1792              		.thumb
 1793              		.thumb_func
 1795              	HAL_TIM_PeriodElapsedHalfCpltCallback:
 1796              		@ args = 0, pretend = 0, frame = 0
 1797              		@ frame_needed = 0, uses_anonymous_args = 0
 1798              		@ link register save eliminated.
 1799 0000 7047     		bx	lr
ARM GAS  C:\Temp\ccF97kYR.s 			page 31


 1801              		.section	.text.TIM_DMAPeriodElapsedHalfCplt,"ax",%progbits
 1802              		.align	1
 1803              		.syntax unified
 1804              		.thumb
 1805              		.thumb_func
 1807              	TIM_DMAPeriodElapsedHalfCplt:
 1808              		@ args = 0, pretend = 0, frame = 0
 1809              		@ frame_needed = 0, uses_anonymous_args = 0
 1810 0000 08B5     		push	{r3, lr}
 1811 0002 806B     		ldr	r0, [r0, #56]
 1812 0004 FFF7FEFF 		bl	HAL_TIM_PeriodElapsedHalfCpltCallback
 1813 0008 08BD     		pop	{r3, pc}
 1815              		.section	.text.HAL_TIM_OC_DelayElapsedCallback,"ax",%progbits
 1816              		.align	1
 1817              		.weak	HAL_TIM_OC_DelayElapsedCallback
 1818              		.syntax unified
 1819              		.thumb
 1820              		.thumb_func
 1822              	HAL_TIM_OC_DelayElapsedCallback:
 1823              		@ args = 0, pretend = 0, frame = 0
 1824              		@ frame_needed = 0, uses_anonymous_args = 0
 1825              		@ link register save eliminated.
 1826 0000 7047     		bx	lr
 1828              		.section	.text.HAL_TIM_IC_CaptureCallback,"ax",%progbits
 1829              		.align	1
 1830              		.weak	HAL_TIM_IC_CaptureCallback
 1831              		.syntax unified
 1832              		.thumb
 1833              		.thumb_func
 1835              	HAL_TIM_IC_CaptureCallback:
 1836              		@ args = 0, pretend = 0, frame = 0
 1837              		@ frame_needed = 0, uses_anonymous_args = 0
 1838              		@ link register save eliminated.
 1839 0000 7047     		bx	lr
 1841              		.section	.text.TIM_DMACaptureCplt,"ax",%progbits
 1842              		.align	1
 1843              		.global	TIM_DMACaptureCplt
 1844              		.syntax unified
 1845              		.thumb
 1846              		.thumb_func
 1848              	TIM_DMACaptureCplt:
 1849              		@ args = 0, pretend = 0, frame = 0
 1850              		@ frame_needed = 0, uses_anonymous_args = 0
 1851 0000 10B5     		push	{r4, lr}
 1852 0002 846B     		ldr	r4, [r0, #56]
 1853 0004 636A     		ldr	r3, [r4, #36]
 1854 0006 8342     		cmp	r3, r0
 1855 0008 0ED0     		beq	.L215
 1856 000a A36A     		ldr	r3, [r4, #40]
 1857 000c 8342     		cmp	r3, r0
 1858 000e 16D0     		beq	.L216
 1859 0010 E36A     		ldr	r3, [r4, #44]
 1860 0012 8342     		cmp	r3, r0
 1861 0014 1ED0     		beq	.L217
 1862 0016 236B     		ldr	r3, [r4, #48]
 1863 0018 8342     		cmp	r3, r0
 1864 001a 26D0     		beq	.L218
ARM GAS  C:\Temp\ccF97kYR.s 			page 32


 1865              	.L211:
 1866 001c 2046     		mov	r0, r4
 1867 001e FFF7FEFF 		bl	HAL_TIM_IC_CaptureCallback
 1868 0022 0023     		movs	r3, #0
 1869 0024 2377     		strb	r3, [r4, #28]
 1870 0026 10BD     		pop	{r4, pc}
 1871              	.L215:
 1872 0028 0123     		movs	r3, #1
 1873 002a 2377     		strb	r3, [r4, #28]
 1874 002c C369     		ldr	r3, [r0, #28]
 1875 002e 002B     		cmp	r3, #0
 1876 0030 F4D1     		bne	.L211
 1877 0032 0123     		movs	r3, #1
 1878 0034 84F83E30 		strb	r3, [r4, #62]
 1879 0038 84F84230 		strb	r3, [r4, #66]
 1880 003c EEE7     		b	.L211
 1881              	.L216:
 1882 003e 0223     		movs	r3, #2
 1883 0040 2377     		strb	r3, [r4, #28]
 1884 0042 C369     		ldr	r3, [r0, #28]
 1885 0044 002B     		cmp	r3, #0
 1886 0046 E9D1     		bne	.L211
 1887 0048 0123     		movs	r3, #1
 1888 004a 84F83F30 		strb	r3, [r4, #63]
 1889 004e 84F84330 		strb	r3, [r4, #67]
 1890 0052 E3E7     		b	.L211
 1891              	.L217:
 1892 0054 0423     		movs	r3, #4
 1893 0056 2377     		strb	r3, [r4, #28]
 1894 0058 C369     		ldr	r3, [r0, #28]
 1895 005a 002B     		cmp	r3, #0
 1896 005c DED1     		bne	.L211
 1897 005e 0123     		movs	r3, #1
 1898 0060 84F84030 		strb	r3, [r4, #64]
 1899 0064 84F84430 		strb	r3, [r4, #68]
 1900 0068 D8E7     		b	.L211
 1901              	.L218:
 1902 006a 0823     		movs	r3, #8
 1903 006c 2377     		strb	r3, [r4, #28]
 1904 006e C369     		ldr	r3, [r0, #28]
 1905 0070 002B     		cmp	r3, #0
 1906 0072 D3D1     		bne	.L211
 1907 0074 0123     		movs	r3, #1
 1908 0076 84F84130 		strb	r3, [r4, #65]
 1909 007a 84F84530 		strb	r3, [r4, #69]
 1910 007e CDE7     		b	.L211
 1912              		.section	.text.HAL_TIM_IC_CaptureHalfCpltCallback,"ax",%progbits
 1913              		.align	1
 1914              		.weak	HAL_TIM_IC_CaptureHalfCpltCallback
 1915              		.syntax unified
 1916              		.thumb
 1917              		.thumb_func
 1919              	HAL_TIM_IC_CaptureHalfCpltCallback:
 1920              		@ args = 0, pretend = 0, frame = 0
 1921              		@ frame_needed = 0, uses_anonymous_args = 0
 1922              		@ link register save eliminated.
 1923 0000 7047     		bx	lr
ARM GAS  C:\Temp\ccF97kYR.s 			page 33


 1925              		.section	.text.TIM_DMACaptureHalfCplt,"ax",%progbits
 1926              		.align	1
 1927              		.global	TIM_DMACaptureHalfCplt
 1928              		.syntax unified
 1929              		.thumb
 1930              		.thumb_func
 1932              	TIM_DMACaptureHalfCplt:
 1933              		@ args = 0, pretend = 0, frame = 0
 1934              		@ frame_needed = 0, uses_anonymous_args = 0
 1935 0000 10B5     		push	{r4, lr}
 1936 0002 846B     		ldr	r4, [r0, #56]
 1937 0004 636A     		ldr	r3, [r4, #36]
 1938 0006 8342     		cmp	r3, r0
 1939 0008 0BD0     		beq	.L226
 1940 000a A36A     		ldr	r3, [r4, #40]
 1941 000c 8342     		cmp	r3, r0
 1942 000e 10D0     		beq	.L227
 1943 0010 E36A     		ldr	r3, [r4, #44]
 1944 0012 8342     		cmp	r3, r0
 1945 0014 10D0     		beq	.L228
 1946 0016 236B     		ldr	r3, [r4, #48]
 1947 0018 8342     		cmp	r3, r0
 1948 001a 04D1     		bne	.L222
 1949 001c 0823     		movs	r3, #8
 1950 001e 2377     		strb	r3, [r4, #28]
 1951 0020 01E0     		b	.L222
 1952              	.L226:
 1953 0022 0123     		movs	r3, #1
 1954 0024 2377     		strb	r3, [r4, #28]
 1955              	.L222:
 1956 0026 2046     		mov	r0, r4
 1957 0028 FFF7FEFF 		bl	HAL_TIM_IC_CaptureHalfCpltCallback
 1958 002c 0023     		movs	r3, #0
 1959 002e 2377     		strb	r3, [r4, #28]
 1960 0030 10BD     		pop	{r4, pc}
 1961              	.L227:
 1962 0032 0223     		movs	r3, #2
 1963 0034 2377     		strb	r3, [r4, #28]
 1964 0036 F6E7     		b	.L222
 1965              	.L228:
 1966 0038 0423     		movs	r3, #4
 1967 003a 2377     		strb	r3, [r4, #28]
 1968 003c F3E7     		b	.L222
 1970              		.section	.text.HAL_TIM_PWM_PulseFinishedCallback,"ax",%progbits
 1971              		.align	1
 1972              		.weak	HAL_TIM_PWM_PulseFinishedCallback
 1973              		.syntax unified
 1974              		.thumb
 1975              		.thumb_func
 1977              	HAL_TIM_PWM_PulseFinishedCallback:
 1978              		@ args = 0, pretend = 0, frame = 0
 1979              		@ frame_needed = 0, uses_anonymous_args = 0
 1980              		@ link register save eliminated.
 1981 0000 7047     		bx	lr
 1983              		.section	.text.TIM_DMADelayPulseCplt,"ax",%progbits
 1984              		.align	1
 1985              		.syntax unified
ARM GAS  C:\Temp\ccF97kYR.s 			page 34


 1986              		.thumb
 1987              		.thumb_func
 1989              	TIM_DMADelayPulseCplt:
 1990              		@ args = 0, pretend = 0, frame = 0
 1991              		@ frame_needed = 0, uses_anonymous_args = 0
 1992 0000 10B5     		push	{r4, lr}
 1993 0002 846B     		ldr	r4, [r0, #56]
 1994 0004 636A     		ldr	r3, [r4, #36]
 1995 0006 8342     		cmp	r3, r0
 1996 0008 0ED0     		beq	.L236
 1997 000a A36A     		ldr	r3, [r4, #40]
 1998 000c 8342     		cmp	r3, r0
 1999 000e 14D0     		beq	.L237
 2000 0010 E36A     		ldr	r3, [r4, #44]
 2001 0012 8342     		cmp	r3, r0
 2002 0014 1AD0     		beq	.L238
 2003 0016 236B     		ldr	r3, [r4, #48]
 2004 0018 8342     		cmp	r3, r0
 2005 001a 20D0     		beq	.L239
 2006              	.L232:
 2007 001c 2046     		mov	r0, r4
 2008 001e FFF7FEFF 		bl	HAL_TIM_PWM_PulseFinishedCallback
 2009 0022 0023     		movs	r3, #0
 2010 0024 2377     		strb	r3, [r4, #28]
 2011 0026 10BD     		pop	{r4, pc}
 2012              	.L236:
 2013 0028 0123     		movs	r3, #1
 2014 002a 2377     		strb	r3, [r4, #28]
 2015 002c C369     		ldr	r3, [r0, #28]
 2016 002e 002B     		cmp	r3, #0
 2017 0030 F4D1     		bne	.L232
 2018 0032 0123     		movs	r3, #1
 2019 0034 84F83E30 		strb	r3, [r4, #62]
 2020 0038 F0E7     		b	.L232
 2021              	.L237:
 2022 003a 0223     		movs	r3, #2
 2023 003c 2377     		strb	r3, [r4, #28]
 2024 003e C369     		ldr	r3, [r0, #28]
 2025 0040 002B     		cmp	r3, #0
 2026 0042 EBD1     		bne	.L232
 2027 0044 0123     		movs	r3, #1
 2028 0046 84F83F30 		strb	r3, [r4, #63]
 2029 004a E7E7     		b	.L232
 2030              	.L238:
 2031 004c 0423     		movs	r3, #4
 2032 004e 2377     		strb	r3, [r4, #28]
 2033 0050 C369     		ldr	r3, [r0, #28]
 2034 0052 002B     		cmp	r3, #0
 2035 0054 E2D1     		bne	.L232
 2036 0056 0123     		movs	r3, #1
 2037 0058 84F84030 		strb	r3, [r4, #64]
 2038 005c DEE7     		b	.L232
 2039              	.L239:
 2040 005e 0823     		movs	r3, #8
 2041 0060 2377     		strb	r3, [r4, #28]
 2042 0062 C369     		ldr	r3, [r0, #28]
 2043 0064 002B     		cmp	r3, #0
ARM GAS  C:\Temp\ccF97kYR.s 			page 35


 2044 0066 D9D1     		bne	.L232
 2045 0068 0123     		movs	r3, #1
 2046 006a 84F84130 		strb	r3, [r4, #65]
 2047 006e D5E7     		b	.L232
 2049              		.section	.text.HAL_TIM_PWM_PulseFinishedHalfCpltCallback,"ax",%progbits
 2050              		.align	1
 2051              		.weak	HAL_TIM_PWM_PulseFinishedHalfCpltCallback
 2052              		.syntax unified
 2053              		.thumb
 2054              		.thumb_func
 2056              	HAL_TIM_PWM_PulseFinishedHalfCpltCallback:
 2057              		@ args = 0, pretend = 0, frame = 0
 2058              		@ frame_needed = 0, uses_anonymous_args = 0
 2059              		@ link register save eliminated.
 2060 0000 7047     		bx	lr
 2062              		.section	.text.TIM_DMADelayPulseHalfCplt,"ax",%progbits
 2063              		.align	1
 2064              		.global	TIM_DMADelayPulseHalfCplt
 2065              		.syntax unified
 2066              		.thumb
 2067              		.thumb_func
 2069              	TIM_DMADelayPulseHalfCplt:
 2070              		@ args = 0, pretend = 0, frame = 0
 2071              		@ frame_needed = 0, uses_anonymous_args = 0
 2072 0000 10B5     		push	{r4, lr}
 2073 0002 846B     		ldr	r4, [r0, #56]
 2074 0004 636A     		ldr	r3, [r4, #36]
 2075 0006 8342     		cmp	r3, r0
 2076 0008 0BD0     		beq	.L247
 2077 000a A36A     		ldr	r3, [r4, #40]
 2078 000c 8342     		cmp	r3, r0
 2079 000e 10D0     		beq	.L248
 2080 0010 E36A     		ldr	r3, [r4, #44]
 2081 0012 8342     		cmp	r3, r0
 2082 0014 10D0     		beq	.L249
 2083 0016 236B     		ldr	r3, [r4, #48]
 2084 0018 8342     		cmp	r3, r0
 2085 001a 04D1     		bne	.L243
 2086 001c 0823     		movs	r3, #8
 2087 001e 2377     		strb	r3, [r4, #28]
 2088 0020 01E0     		b	.L243
 2089              	.L247:
 2090 0022 0123     		movs	r3, #1
 2091 0024 2377     		strb	r3, [r4, #28]
 2092              	.L243:
 2093 0026 2046     		mov	r0, r4
 2094 0028 FFF7FEFF 		bl	HAL_TIM_PWM_PulseFinishedHalfCpltCallback
 2095 002c 0023     		movs	r3, #0
 2096 002e 2377     		strb	r3, [r4, #28]
 2097 0030 10BD     		pop	{r4, pc}
 2098              	.L248:
 2099 0032 0223     		movs	r3, #2
 2100 0034 2377     		strb	r3, [r4, #28]
 2101 0036 F6E7     		b	.L243
 2102              	.L249:
 2103 0038 0423     		movs	r3, #4
 2104 003a 2377     		strb	r3, [r4, #28]
ARM GAS  C:\Temp\ccF97kYR.s 			page 36


 2105 003c F3E7     		b	.L243
 2107              		.section	.text.HAL_TIM_TriggerCallback,"ax",%progbits
 2108              		.align	1
 2109              		.weak	HAL_TIM_TriggerCallback
 2110              		.syntax unified
 2111              		.thumb
 2112              		.thumb_func
 2114              	HAL_TIM_TriggerCallback:
 2115              		@ args = 0, pretend = 0, frame = 0
 2116              		@ frame_needed = 0, uses_anonymous_args = 0
 2117              		@ link register save eliminated.
 2118 0000 7047     		bx	lr
 2120              		.section	.text.HAL_TIM_IRQHandler,"ax",%progbits
 2121              		.align	1
 2122              		.global	HAL_TIM_IRQHandler
 2123              		.syntax unified
 2124              		.thumb
 2125              		.thumb_func
 2127              	HAL_TIM_IRQHandler:
 2128              		@ args = 0, pretend = 0, frame = 0
 2129              		@ frame_needed = 0, uses_anonymous_args = 0
 2130 0000 70B5     		push	{r4, r5, r6, lr}
 2131 0002 0446     		mov	r4, r0
 2132 0004 0368     		ldr	r3, [r0]
 2133 0006 DE68     		ldr	r6, [r3, #12]
 2134 0008 1D69     		ldr	r5, [r3, #16]
 2135 000a 15F0020F 		tst	r5, #2
 2136 000e 10D0     		beq	.L252
 2137 0010 16F0020F 		tst	r6, #2
 2138 0014 0DD0     		beq	.L252
 2139 0016 6FF00202 		mvn	r2, #2
 2140 001a 1A61     		str	r2, [r3, #16]
 2141 001c 0123     		movs	r3, #1
 2142 001e 0377     		strb	r3, [r0, #28]
 2143 0020 0368     		ldr	r3, [r0]
 2144 0022 9B69     		ldr	r3, [r3, #24]
 2145 0024 13F0030F 		tst	r3, #3
 2146 0028 5ED0     		beq	.L253
 2147 002a FFF7FEFF 		bl	HAL_TIM_IC_CaptureCallback
 2148              	.L254:
 2149 002e 0023     		movs	r3, #0
 2150 0030 2377     		strb	r3, [r4, #28]
 2151              	.L252:
 2152 0032 15F0040F 		tst	r5, #4
 2153 0036 12D0     		beq	.L255
 2154 0038 16F0040F 		tst	r6, #4
 2155 003c 0FD0     		beq	.L255
 2156 003e 2368     		ldr	r3, [r4]
 2157 0040 6FF00402 		mvn	r2, #4
 2158 0044 1A61     		str	r2, [r3, #16]
 2159 0046 0223     		movs	r3, #2
 2160 0048 2377     		strb	r3, [r4, #28]
 2161 004a 2368     		ldr	r3, [r4]
 2162 004c 9B69     		ldr	r3, [r3, #24]
 2163 004e 13F4407F 		tst	r3, #768
 2164 0052 4FD0     		beq	.L256
 2165 0054 2046     		mov	r0, r4
ARM GAS  C:\Temp\ccF97kYR.s 			page 37


 2166 0056 FFF7FEFF 		bl	HAL_TIM_IC_CaptureCallback
 2167              	.L257:
 2168 005a 0023     		movs	r3, #0
 2169 005c 2377     		strb	r3, [r4, #28]
 2170              	.L255:
 2171 005e 15F0080F 		tst	r5, #8
 2172 0062 12D0     		beq	.L258
 2173 0064 16F0080F 		tst	r6, #8
 2174 0068 0FD0     		beq	.L258
 2175 006a 2368     		ldr	r3, [r4]
 2176 006c 6FF00802 		mvn	r2, #8
 2177 0070 1A61     		str	r2, [r3, #16]
 2178 0072 0423     		movs	r3, #4
 2179 0074 2377     		strb	r3, [r4, #28]
 2180 0076 2368     		ldr	r3, [r4]
 2181 0078 DB69     		ldr	r3, [r3, #28]
 2182 007a 13F0030F 		tst	r3, #3
 2183 007e 40D0     		beq	.L259
 2184 0080 2046     		mov	r0, r4
 2185 0082 FFF7FEFF 		bl	HAL_TIM_IC_CaptureCallback
 2186              	.L260:
 2187 0086 0023     		movs	r3, #0
 2188 0088 2377     		strb	r3, [r4, #28]
 2189              	.L258:
 2190 008a 15F0100F 		tst	r5, #16
 2191 008e 12D0     		beq	.L261
 2192 0090 16F0100F 		tst	r6, #16
 2193 0094 0FD0     		beq	.L261
 2194 0096 2368     		ldr	r3, [r4]
 2195 0098 6FF01002 		mvn	r2, #16
 2196 009c 1A61     		str	r2, [r3, #16]
 2197 009e 0823     		movs	r3, #8
 2198 00a0 2377     		strb	r3, [r4, #28]
 2199 00a2 2368     		ldr	r3, [r4]
 2200 00a4 DB69     		ldr	r3, [r3, #28]
 2201 00a6 13F4407F 		tst	r3, #768
 2202 00aa 31D0     		beq	.L262
 2203 00ac 2046     		mov	r0, r4
 2204 00ae FFF7FEFF 		bl	HAL_TIM_IC_CaptureCallback
 2205              	.L263:
 2206 00b2 0023     		movs	r3, #0
 2207 00b4 2377     		strb	r3, [r4, #28]
 2208              	.L261:
 2209 00b6 15F0010F 		tst	r5, #1
 2210 00ba 02D0     		beq	.L264
 2211 00bc 16F0010F 		tst	r6, #1
 2212 00c0 2DD1     		bne	.L269
 2213              	.L264:
 2214 00c2 15F0800F 		tst	r5, #128
 2215 00c6 02D0     		beq	.L265
 2216 00c8 16F0800F 		tst	r6, #128
 2217 00cc 2FD1     		bne	.L270
 2218              	.L265:
 2219 00ce 15F0400F 		tst	r5, #64
 2220 00d2 02D0     		beq	.L266
 2221 00d4 16F0400F 		tst	r6, #64
 2222 00d8 31D1     		bne	.L271
ARM GAS  C:\Temp\ccF97kYR.s 			page 38


 2223              	.L266:
 2224 00da 15F0200F 		tst	r5, #32
 2225 00de 02D0     		beq	.L251
 2226 00e0 16F0200F 		tst	r6, #32
 2227 00e4 33D1     		bne	.L272
 2228              	.L251:
 2229 00e6 70BD     		pop	{r4, r5, r6, pc}
 2230              	.L253:
 2231 00e8 FFF7FEFF 		bl	HAL_TIM_OC_DelayElapsedCallback
 2232 00ec 2046     		mov	r0, r4
 2233 00ee FFF7FEFF 		bl	HAL_TIM_PWM_PulseFinishedCallback
 2234 00f2 9CE7     		b	.L254
 2235              	.L256:
 2236 00f4 2046     		mov	r0, r4
 2237 00f6 FFF7FEFF 		bl	HAL_TIM_OC_DelayElapsedCallback
 2238 00fa 2046     		mov	r0, r4
 2239 00fc FFF7FEFF 		bl	HAL_TIM_PWM_PulseFinishedCallback
 2240 0100 ABE7     		b	.L257
 2241              	.L259:
 2242 0102 2046     		mov	r0, r4
 2243 0104 FFF7FEFF 		bl	HAL_TIM_OC_DelayElapsedCallback
 2244 0108 2046     		mov	r0, r4
 2245 010a FFF7FEFF 		bl	HAL_TIM_PWM_PulseFinishedCallback
 2246 010e BAE7     		b	.L260
 2247              	.L262:
 2248 0110 2046     		mov	r0, r4
 2249 0112 FFF7FEFF 		bl	HAL_TIM_OC_DelayElapsedCallback
 2250 0116 2046     		mov	r0, r4
 2251 0118 FFF7FEFF 		bl	HAL_TIM_PWM_PulseFinishedCallback
 2252 011c C9E7     		b	.L263
 2253              	.L269:
 2254 011e 2368     		ldr	r3, [r4]
 2255 0120 6FF00102 		mvn	r2, #1
 2256 0124 1A61     		str	r2, [r3, #16]
 2257 0126 2046     		mov	r0, r4
 2258 0128 FFF7FEFF 		bl	HAL_TIM_PeriodElapsedCallback
 2259 012c C9E7     		b	.L264
 2260              	.L270:
 2261 012e 2368     		ldr	r3, [r4]
 2262 0130 6FF08002 		mvn	r2, #128
 2263 0134 1A61     		str	r2, [r3, #16]
 2264 0136 2046     		mov	r0, r4
 2265 0138 FFF7FEFF 		bl	HAL_TIMEx_BreakCallback
 2266 013c C7E7     		b	.L265
 2267              	.L271:
 2268 013e 2368     		ldr	r3, [r4]
 2269 0140 6FF04002 		mvn	r2, #64
 2270 0144 1A61     		str	r2, [r3, #16]
 2271 0146 2046     		mov	r0, r4
 2272 0148 FFF7FEFF 		bl	HAL_TIM_TriggerCallback
 2273 014c C5E7     		b	.L266
 2274              	.L272:
 2275 014e 2368     		ldr	r3, [r4]
 2276 0150 6FF02002 		mvn	r2, #32
 2277 0154 1A61     		str	r2, [r3, #16]
 2278 0156 2046     		mov	r0, r4
 2279 0158 FFF7FEFF 		bl	HAL_TIMEx_CommutCallback
ARM GAS  C:\Temp\ccF97kYR.s 			page 39


 2280 015c C3E7     		b	.L251
 2282              		.section	.text.TIM_DMATriggerCplt,"ax",%progbits
 2283              		.align	1
 2284              		.syntax unified
 2285              		.thumb
 2286              		.thumb_func
 2288              	TIM_DMATriggerCplt:
 2289              		@ args = 0, pretend = 0, frame = 0
 2290              		@ frame_needed = 0, uses_anonymous_args = 0
 2291 0000 08B5     		push	{r3, lr}
 2292 0002 806B     		ldr	r0, [r0, #56]
 2293 0004 836B     		ldr	r3, [r0, #56]
 2294 0006 DB69     		ldr	r3, [r3, #28]
 2295 0008 13B9     		cbnz	r3, .L274
 2296 000a 0123     		movs	r3, #1
 2297 000c 80F83D30 		strb	r3, [r0, #61]
 2298              	.L274:
 2299 0010 FFF7FEFF 		bl	HAL_TIM_TriggerCallback
 2300 0014 08BD     		pop	{r3, pc}
 2302              		.section	.text.HAL_TIM_TriggerHalfCpltCallback,"ax",%progbits
 2303              		.align	1
 2304              		.weak	HAL_TIM_TriggerHalfCpltCallback
 2305              		.syntax unified
 2306              		.thumb
 2307              		.thumb_func
 2309              	HAL_TIM_TriggerHalfCpltCallback:
 2310              		@ args = 0, pretend = 0, frame = 0
 2311              		@ frame_needed = 0, uses_anonymous_args = 0
 2312              		@ link register save eliminated.
 2313 0000 7047     		bx	lr
 2315              		.section	.text.TIM_DMATriggerHalfCplt,"ax",%progbits
 2316              		.align	1
 2317              		.syntax unified
 2318              		.thumb
 2319              		.thumb_func
 2321              	TIM_DMATriggerHalfCplt:
 2322              		@ args = 0, pretend = 0, frame = 0
 2323              		@ frame_needed = 0, uses_anonymous_args = 0
 2324 0000 08B5     		push	{r3, lr}
 2325 0002 806B     		ldr	r0, [r0, #56]
 2326 0004 FFF7FEFF 		bl	HAL_TIM_TriggerHalfCpltCallback
 2327 0008 08BD     		pop	{r3, pc}
 2329              		.section	.text.HAL_TIM_ErrorCallback,"ax",%progbits
 2330              		.align	1
 2331              		.weak	HAL_TIM_ErrorCallback
 2332              		.syntax unified
 2333              		.thumb
 2334              		.thumb_func
 2336              	HAL_TIM_ErrorCallback:
 2337              		@ args = 0, pretend = 0, frame = 0
 2338              		@ frame_needed = 0, uses_anonymous_args = 0
 2339              		@ link register save eliminated.
 2340 0000 7047     		bx	lr
 2342              		.section	.text.TIM_DMAError,"ax",%progbits
 2343              		.align	1
 2344              		.global	TIM_DMAError
 2345              		.syntax unified
ARM GAS  C:\Temp\ccF97kYR.s 			page 40


 2346              		.thumb
 2347              		.thumb_func
 2349              	TIM_DMAError:
 2350              		@ args = 0, pretend = 0, frame = 0
 2351              		@ frame_needed = 0, uses_anonymous_args = 0
 2352 0000 10B5     		push	{r4, lr}
 2353 0002 846B     		ldr	r4, [r0, #56]
 2354 0004 636A     		ldr	r3, [r4, #36]
 2355 0006 8342     		cmp	r3, r0
 2356 0008 0CD0     		beq	.L287
 2357 000a A36A     		ldr	r3, [r4, #40]
 2358 000c 8342     		cmp	r3, r0
 2359 000e 13D0     		beq	.L288
 2360 0010 E36A     		ldr	r3, [r4, #44]
 2361 0012 8342     		cmp	r3, r0
 2362 0014 16D0     		beq	.L289
 2363 0016 236B     		ldr	r3, [r4, #48]
 2364 0018 8342     		cmp	r3, r0
 2365 001a 19D0     		beq	.L290
 2366 001c 0123     		movs	r3, #1
 2367 001e 84F83D30 		strb	r3, [r4, #61]
 2368 0022 03E0     		b	.L282
 2369              	.L287:
 2370 0024 0123     		movs	r3, #1
 2371 0026 2377     		strb	r3, [r4, #28]
 2372 0028 84F83E30 		strb	r3, [r4, #62]
 2373              	.L282:
 2374 002c 2046     		mov	r0, r4
 2375 002e FFF7FEFF 		bl	HAL_TIM_ErrorCallback
 2376 0032 0023     		movs	r3, #0
 2377 0034 2377     		strb	r3, [r4, #28]
 2378 0036 10BD     		pop	{r4, pc}
 2379              	.L288:
 2380 0038 0223     		movs	r3, #2
 2381 003a 2377     		strb	r3, [r4, #28]
 2382 003c 0123     		movs	r3, #1
 2383 003e 84F83F30 		strb	r3, [r4, #63]
 2384 0042 F3E7     		b	.L282
 2385              	.L289:
 2386 0044 0423     		movs	r3, #4
 2387 0046 2377     		strb	r3, [r4, #28]
 2388 0048 0123     		movs	r3, #1
 2389 004a 84F84030 		strb	r3, [r4, #64]
 2390 004e EDE7     		b	.L282
 2391              	.L290:
 2392 0050 0823     		movs	r3, #8
 2393 0052 2377     		strb	r3, [r4, #28]
 2394 0054 0123     		movs	r3, #1
 2395 0056 84F84130 		strb	r3, [r4, #65]
 2396 005a E7E7     		b	.L282
 2398              		.section	.text.HAL_TIM_Base_GetState,"ax",%progbits
 2399              		.align	1
 2400              		.global	HAL_TIM_Base_GetState
 2401              		.syntax unified
 2402              		.thumb
 2403              		.thumb_func
 2405              	HAL_TIM_Base_GetState:
ARM GAS  C:\Temp\ccF97kYR.s 			page 41


 2406              		@ args = 0, pretend = 0, frame = 0
 2407              		@ frame_needed = 0, uses_anonymous_args = 0
 2408              		@ link register save eliminated.
 2409 0000 90F83D00 		ldrb	r0, [r0, #61]	@ zero_extendqisi2
 2410 0004 7047     		bx	lr
 2412              		.section	.text.HAL_TIM_OC_GetState,"ax",%progbits
 2413              		.align	1
 2414              		.global	HAL_TIM_OC_GetState
 2415              		.syntax unified
 2416              		.thumb
 2417              		.thumb_func
 2419              	HAL_TIM_OC_GetState:
 2420              		@ args = 0, pretend = 0, frame = 0
 2421              		@ frame_needed = 0, uses_anonymous_args = 0
 2422              		@ link register save eliminated.
 2423 0000 90F83D00 		ldrb	r0, [r0, #61]	@ zero_extendqisi2
 2424 0004 7047     		bx	lr
 2426              		.section	.text.HAL_TIM_PWM_GetState,"ax",%progbits
 2427              		.align	1
 2428              		.global	HAL_TIM_PWM_GetState
 2429              		.syntax unified
 2430              		.thumb
 2431              		.thumb_func
 2433              	HAL_TIM_PWM_GetState:
 2434              		@ args = 0, pretend = 0, frame = 0
 2435              		@ frame_needed = 0, uses_anonymous_args = 0
 2436              		@ link register save eliminated.
 2437 0000 90F83D00 		ldrb	r0, [r0, #61]	@ zero_extendqisi2
 2438 0004 7047     		bx	lr
 2440              		.section	.text.HAL_TIM_IC_GetState,"ax",%progbits
 2441              		.align	1
 2442              		.global	HAL_TIM_IC_GetState
 2443              		.syntax unified
 2444              		.thumb
 2445              		.thumb_func
 2447              	HAL_TIM_IC_GetState:
 2448              		@ args = 0, pretend = 0, frame = 0
 2449              		@ frame_needed = 0, uses_anonymous_args = 0
 2450              		@ link register save eliminated.
 2451 0000 90F83D00 		ldrb	r0, [r0, #61]	@ zero_extendqisi2
 2452 0004 7047     		bx	lr
 2454              		.section	.text.HAL_TIM_OnePulse_GetState,"ax",%progbits
 2455              		.align	1
 2456              		.global	HAL_TIM_OnePulse_GetState
 2457              		.syntax unified
 2458              		.thumb
 2459              		.thumb_func
 2461              	HAL_TIM_OnePulse_GetState:
 2462              		@ args = 0, pretend = 0, frame = 0
 2463              		@ frame_needed = 0, uses_anonymous_args = 0
 2464              		@ link register save eliminated.
 2465 0000 90F83D00 		ldrb	r0, [r0, #61]	@ zero_extendqisi2
 2466 0004 7047     		bx	lr
 2468              		.section	.text.HAL_TIM_Encoder_GetState,"ax",%progbits
 2469              		.align	1
 2470              		.global	HAL_TIM_Encoder_GetState
 2471              		.syntax unified
ARM GAS  C:\Temp\ccF97kYR.s 			page 42


 2472              		.thumb
 2473              		.thumb_func
 2475              	HAL_TIM_Encoder_GetState:
 2476              		@ args = 0, pretend = 0, frame = 0
 2477              		@ frame_needed = 0, uses_anonymous_args = 0
 2478              		@ link register save eliminated.
 2479 0000 90F83D00 		ldrb	r0, [r0, #61]	@ zero_extendqisi2
 2480 0004 7047     		bx	lr
 2482              		.section	.text.HAL_TIM_GetActiveChannel,"ax",%progbits
 2483              		.align	1
 2484              		.global	HAL_TIM_GetActiveChannel
 2485              		.syntax unified
 2486              		.thumb
 2487              		.thumb_func
 2489              	HAL_TIM_GetActiveChannel:
 2490              		@ args = 0, pretend = 0, frame = 0
 2491              		@ frame_needed = 0, uses_anonymous_args = 0
 2492              		@ link register save eliminated.
 2493 0000 007F     		ldrb	r0, [r0, #28]	@ zero_extendqisi2
 2494 0002 7047     		bx	lr
 2496              		.section	.text.HAL_TIM_GetChannelState,"ax",%progbits
 2497              		.align	1
 2498              		.global	HAL_TIM_GetChannelState
 2499              		.syntax unified
 2500              		.thumb
 2501              		.thumb_func
 2503              	HAL_TIM_GetChannelState:
 2504              		@ args = 0, pretend = 0, frame = 0
 2505              		@ frame_needed = 0, uses_anonymous_args = 0
 2506              		@ link register save eliminated.
 2507 0000 19B9     		cbnz	r1, .L299
 2508 0002 90F83E00 		ldrb	r0, [r0, #62]	@ zero_extendqisi2
 2509 0006 C0B2     		uxtb	r0, r0
 2510 0008 7047     		bx	lr
 2511              	.L299:
 2512 000a 0429     		cmp	r1, #4
 2513 000c 05D0     		beq	.L303
 2514 000e 0829     		cmp	r1, #8
 2515 0010 07D0     		beq	.L304
 2516 0012 90F84100 		ldrb	r0, [r0, #65]	@ zero_extendqisi2
 2517 0016 C0B2     		uxtb	r0, r0
 2518 0018 7047     		bx	lr
 2519              	.L303:
 2520 001a 90F83F00 		ldrb	r0, [r0, #63]	@ zero_extendqisi2
 2521 001e C0B2     		uxtb	r0, r0
 2522 0020 7047     		bx	lr
 2523              	.L304:
 2524 0022 90F84000 		ldrb	r0, [r0, #64]	@ zero_extendqisi2
 2525 0026 C0B2     		uxtb	r0, r0
 2526 0028 7047     		bx	lr
 2528              		.section	.text.HAL_TIM_DMABurstState,"ax",%progbits
 2529              		.align	1
 2530              		.global	HAL_TIM_DMABurstState
 2531              		.syntax unified
 2532              		.thumb
 2533              		.thumb_func
 2535              	HAL_TIM_DMABurstState:
ARM GAS  C:\Temp\ccF97kYR.s 			page 43


 2536              		@ args = 0, pretend = 0, frame = 0
 2537              		@ frame_needed = 0, uses_anonymous_args = 0
 2538              		@ link register save eliminated.
 2539 0000 90F84600 		ldrb	r0, [r0, #70]	@ zero_extendqisi2
 2540 0004 7047     		bx	lr
 2542              		.section	.text.TIM_Base_SetConfig,"ax",%progbits
 2543              		.align	1
 2544              		.global	TIM_Base_SetConfig
 2545              		.syntax unified
 2546              		.thumb
 2547              		.thumb_func
 2549              	TIM_Base_SetConfig:
 2550              		@ args = 0, pretend = 0, frame = 0
 2551              		@ frame_needed = 0, uses_anonymous_args = 0
 2552              		@ link register save eliminated.
 2553 0000 0368     		ldr	r3, [r0]
 2554 0002 294A     		ldr	r2, .L314
 2555 0004 9042     		cmp	r0, r2
 2556 0006 0ED0     		beq	.L307
 2557 0008 B0F1804F 		cmp	r0, #1073741824
 2558 000c 0BD0     		beq	.L307
 2559 000e A2F57C42 		sub	r2, r2, #64512
 2560 0012 9042     		cmp	r0, r2
 2561 0014 07D0     		beq	.L307
 2562 0016 02F58062 		add	r2, r2, #1024
 2563 001a 9042     		cmp	r0, r2
 2564 001c 03D0     		beq	.L307
 2565 001e 02F58062 		add	r2, r2, #1024
 2566 0022 9042     		cmp	r0, r2
 2567 0024 03D1     		bne	.L308
 2568              	.L307:
 2569 0026 23F07003 		bic	r3, r3, #112
 2570 002a 4A68     		ldr	r2, [r1, #4]
 2571 002c 1343     		orrs	r3, r3, r2
 2572              	.L308:
 2573 002e 1E4A     		ldr	r2, .L314
 2574 0030 9042     		cmp	r0, r2
 2575 0032 1AD0     		beq	.L309
 2576 0034 B0F1804F 		cmp	r0, #1073741824
 2577 0038 17D0     		beq	.L309
 2578 003a A2F57C42 		sub	r2, r2, #64512
 2579 003e 9042     		cmp	r0, r2
 2580 0040 13D0     		beq	.L309
 2581 0042 02F58062 		add	r2, r2, #1024
 2582 0046 9042     		cmp	r0, r2
 2583 0048 0FD0     		beq	.L309
 2584 004a 02F58062 		add	r2, r2, #1024
 2585 004e 9042     		cmp	r0, r2
 2586 0050 0BD0     		beq	.L309
 2587 0052 02F59A32 		add	r2, r2, #78848
 2588 0056 9042     		cmp	r0, r2
 2589 0058 07D0     		beq	.L309
 2590 005a 02F58062 		add	r2, r2, #1024
 2591 005e 9042     		cmp	r0, r2
 2592 0060 03D0     		beq	.L309
 2593 0062 02F58062 		add	r2, r2, #1024
 2594 0066 9042     		cmp	r0, r2
ARM GAS  C:\Temp\ccF97kYR.s 			page 44


 2595 0068 03D1     		bne	.L310
 2596              	.L309:
 2597 006a 23F44073 		bic	r3, r3, #768
 2598 006e CA68     		ldr	r2, [r1, #12]
 2599 0070 1343     		orrs	r3, r3, r2
 2600              	.L310:
 2601 0072 23F08003 		bic	r3, r3, #128
 2602 0076 4A69     		ldr	r2, [r1, #20]
 2603 0078 1343     		orrs	r3, r3, r2
 2604 007a 0360     		str	r3, [r0]
 2605 007c 8B68     		ldr	r3, [r1, #8]
 2606 007e C362     		str	r3, [r0, #44]
 2607 0080 0B68     		ldr	r3, [r1]
 2608 0082 8362     		str	r3, [r0, #40]
 2609 0084 084B     		ldr	r3, .L314
 2610 0086 9842     		cmp	r0, r3
 2611 0088 0AD0     		beq	.L313
 2612              	.L311:
 2613 008a 0123     		movs	r3, #1
 2614 008c 4361     		str	r3, [r0, #20]
 2615 008e 0369     		ldr	r3, [r0, #16]
 2616 0090 13F0010F 		tst	r3, #1
 2617 0094 03D0     		beq	.L306
 2618 0096 0369     		ldr	r3, [r0, #16]
 2619 0098 23F00103 		bic	r3, r3, #1
 2620 009c 0361     		str	r3, [r0, #16]
 2621              	.L306:
 2622 009e 7047     		bx	lr
 2623              	.L313:
 2624 00a0 0B69     		ldr	r3, [r1, #16]
 2625 00a2 0363     		str	r3, [r0, #48]
 2626 00a4 F1E7     		b	.L311
 2627              	.L315:
 2628 00a6 00BF     		.align	2
 2629              	.L314:
 2630 00a8 00000140 		.word	1073807360
 2632              		.section	.text.HAL_TIM_Base_Init,"ax",%progbits
 2633              		.align	1
 2634              		.global	HAL_TIM_Base_Init
 2635              		.syntax unified
 2636              		.thumb
 2637              		.thumb_func
 2639              	HAL_TIM_Base_Init:
 2640              		@ args = 0, pretend = 0, frame = 0
 2641              		@ frame_needed = 0, uses_anonymous_args = 0
 2642 0000 40B3     		cbz	r0, .L319
 2643 0002 10B5     		push	{r4, lr}
 2644 0004 0446     		mov	r4, r0
 2645 0006 90F83D30 		ldrb	r3, [r0, #61]	@ zero_extendqisi2
 2646 000a F3B1     		cbz	r3, .L324
 2647              	.L318:
 2648 000c 0223     		movs	r3, #2
 2649 000e 84F83D30 		strb	r3, [r4, #61]
 2650 0012 2146     		mov	r1, r4
 2651 0014 51F8040B 		ldr	r0, [r1], #4
 2652 0018 FFF7FEFF 		bl	TIM_Base_SetConfig
 2653 001c 0123     		movs	r3, #1
ARM GAS  C:\Temp\ccF97kYR.s 			page 45


 2654 001e 84F84630 		strb	r3, [r4, #70]
 2655 0022 84F83E30 		strb	r3, [r4, #62]
 2656 0026 84F83F30 		strb	r3, [r4, #63]
 2657 002a 84F84030 		strb	r3, [r4, #64]
 2658 002e 84F84130 		strb	r3, [r4, #65]
 2659 0032 84F84230 		strb	r3, [r4, #66]
 2660 0036 84F84330 		strb	r3, [r4, #67]
 2661 003a 84F84430 		strb	r3, [r4, #68]
 2662 003e 84F84530 		strb	r3, [r4, #69]
 2663 0042 84F83D30 		strb	r3, [r4, #61]
 2664 0046 0020     		movs	r0, #0
 2665 0048 10BD     		pop	{r4, pc}
 2666              	.L324:
 2667 004a 80F83C30 		strb	r3, [r0, #60]
 2668 004e FFF7FEFF 		bl	HAL_TIM_Base_MspInit
 2669 0052 DBE7     		b	.L318
 2670              	.L319:
 2671 0054 0120     		movs	r0, #1
 2672 0056 7047     		bx	lr
 2674              		.section	.text.HAL_TIM_OC_Init,"ax",%progbits
 2675              		.align	1
 2676              		.global	HAL_TIM_OC_Init
 2677              		.syntax unified
 2678              		.thumb
 2679              		.thumb_func
 2681              	HAL_TIM_OC_Init:
 2682              		@ args = 0, pretend = 0, frame = 0
 2683              		@ frame_needed = 0, uses_anonymous_args = 0
 2684 0000 40B3     		cbz	r0, .L328
 2685 0002 10B5     		push	{r4, lr}
 2686 0004 0446     		mov	r4, r0
 2687 0006 90F83D30 		ldrb	r3, [r0, #61]	@ zero_extendqisi2
 2688 000a F3B1     		cbz	r3, .L333
 2689              	.L327:
 2690 000c 0223     		movs	r3, #2
 2691 000e 84F83D30 		strb	r3, [r4, #61]
 2692 0012 2146     		mov	r1, r4
 2693 0014 51F8040B 		ldr	r0, [r1], #4
 2694 0018 FFF7FEFF 		bl	TIM_Base_SetConfig
 2695 001c 0123     		movs	r3, #1
 2696 001e 84F84630 		strb	r3, [r4, #70]
 2697 0022 84F83E30 		strb	r3, [r4, #62]
 2698 0026 84F83F30 		strb	r3, [r4, #63]
 2699 002a 84F84030 		strb	r3, [r4, #64]
 2700 002e 84F84130 		strb	r3, [r4, #65]
 2701 0032 84F84230 		strb	r3, [r4, #66]
 2702 0036 84F84330 		strb	r3, [r4, #67]
 2703 003a 84F84430 		strb	r3, [r4, #68]
 2704 003e 84F84530 		strb	r3, [r4, #69]
 2705 0042 84F83D30 		strb	r3, [r4, #61]
 2706 0046 0020     		movs	r0, #0
 2707 0048 10BD     		pop	{r4, pc}
 2708              	.L333:
 2709 004a 80F83C30 		strb	r3, [r0, #60]
 2710 004e FFF7FEFF 		bl	HAL_TIM_OC_MspInit
 2711 0052 DBE7     		b	.L327
 2712              	.L328:
ARM GAS  C:\Temp\ccF97kYR.s 			page 46


 2713 0054 0120     		movs	r0, #1
 2714 0056 7047     		bx	lr
 2716              		.section	.text.HAL_TIM_PWM_Init,"ax",%progbits
 2717              		.align	1
 2718              		.global	HAL_TIM_PWM_Init
 2719              		.syntax unified
 2720              		.thumb
 2721              		.thumb_func
 2723              	HAL_TIM_PWM_Init:
 2724              		@ args = 0, pretend = 0, frame = 0
 2725              		@ frame_needed = 0, uses_anonymous_args = 0
 2726 0000 40B3     		cbz	r0, .L337
 2727 0002 10B5     		push	{r4, lr}
 2728 0004 0446     		mov	r4, r0
 2729 0006 90F83D30 		ldrb	r3, [r0, #61]	@ zero_extendqisi2
 2730 000a F3B1     		cbz	r3, .L342
 2731              	.L336:
 2732 000c 0223     		movs	r3, #2
 2733 000e 84F83D30 		strb	r3, [r4, #61]
 2734 0012 2146     		mov	r1, r4
 2735 0014 51F8040B 		ldr	r0, [r1], #4
 2736 0018 FFF7FEFF 		bl	TIM_Base_SetConfig
 2737 001c 0123     		movs	r3, #1
 2738 001e 84F84630 		strb	r3, [r4, #70]
 2739 0022 84F83E30 		strb	r3, [r4, #62]
 2740 0026 84F83F30 		strb	r3, [r4, #63]
 2741 002a 84F84030 		strb	r3, [r4, #64]
 2742 002e 84F84130 		strb	r3, [r4, #65]
 2743 0032 84F84230 		strb	r3, [r4, #66]
 2744 0036 84F84330 		strb	r3, [r4, #67]
 2745 003a 84F84430 		strb	r3, [r4, #68]
 2746 003e 84F84530 		strb	r3, [r4, #69]
 2747 0042 84F83D30 		strb	r3, [r4, #61]
 2748 0046 0020     		movs	r0, #0
 2749 0048 10BD     		pop	{r4, pc}
 2750              	.L342:
 2751 004a 80F83C30 		strb	r3, [r0, #60]
 2752 004e FFF7FEFF 		bl	HAL_TIM_PWM_MspInit
 2753 0052 DBE7     		b	.L336
 2754              	.L337:
 2755 0054 0120     		movs	r0, #1
 2756 0056 7047     		bx	lr
 2758              		.section	.text.HAL_TIM_IC_Init,"ax",%progbits
 2759              		.align	1
 2760              		.global	HAL_TIM_IC_Init
 2761              		.syntax unified
 2762              		.thumb
 2763              		.thumb_func
 2765              	HAL_TIM_IC_Init:
 2766              		@ args = 0, pretend = 0, frame = 0
 2767              		@ frame_needed = 0, uses_anonymous_args = 0
 2768 0000 40B3     		cbz	r0, .L346
 2769 0002 10B5     		push	{r4, lr}
 2770 0004 0446     		mov	r4, r0
 2771 0006 90F83D30 		ldrb	r3, [r0, #61]	@ zero_extendqisi2
 2772 000a F3B1     		cbz	r3, .L351
 2773              	.L345:
ARM GAS  C:\Temp\ccF97kYR.s 			page 47


 2774 000c 0223     		movs	r3, #2
 2775 000e 84F83D30 		strb	r3, [r4, #61]
 2776 0012 2146     		mov	r1, r4
 2777 0014 51F8040B 		ldr	r0, [r1], #4
 2778 0018 FFF7FEFF 		bl	TIM_Base_SetConfig
 2779 001c 0123     		movs	r3, #1
 2780 001e 84F84630 		strb	r3, [r4, #70]
 2781 0022 84F83E30 		strb	r3, [r4, #62]
 2782 0026 84F83F30 		strb	r3, [r4, #63]
 2783 002a 84F84030 		strb	r3, [r4, #64]
 2784 002e 84F84130 		strb	r3, [r4, #65]
 2785 0032 84F84230 		strb	r3, [r4, #66]
 2786 0036 84F84330 		strb	r3, [r4, #67]
 2787 003a 84F84430 		strb	r3, [r4, #68]
 2788 003e 84F84530 		strb	r3, [r4, #69]
 2789 0042 84F83D30 		strb	r3, [r4, #61]
 2790 0046 0020     		movs	r0, #0
 2791 0048 10BD     		pop	{r4, pc}
 2792              	.L351:
 2793 004a 80F83C30 		strb	r3, [r0, #60]
 2794 004e FFF7FEFF 		bl	HAL_TIM_IC_MspInit
 2795 0052 DBE7     		b	.L345
 2796              	.L346:
 2797 0054 0120     		movs	r0, #1
 2798 0056 7047     		bx	lr
 2800              		.section	.text.HAL_TIM_OnePulse_Init,"ax",%progbits
 2801              		.align	1
 2802              		.global	HAL_TIM_OnePulse_Init
 2803              		.syntax unified
 2804              		.thumb
 2805              		.thumb_func
 2807              	HAL_TIM_OnePulse_Init:
 2808              		@ args = 0, pretend = 0, frame = 0
 2809              		@ frame_needed = 0, uses_anonymous_args = 0
 2810 0000 50B3     		cbz	r0, .L355
 2811 0002 38B5     		push	{r3, r4, r5, lr}
 2812 0004 0D46     		mov	r5, r1
 2813 0006 0446     		mov	r4, r0
 2814 0008 90F83D30 		ldrb	r3, [r0, #61]	@ zero_extendqisi2
 2815 000c FBB1     		cbz	r3, .L360
 2816              	.L354:
 2817 000e 0223     		movs	r3, #2
 2818 0010 84F83D30 		strb	r3, [r4, #61]
 2819 0014 2146     		mov	r1, r4
 2820 0016 51F8040B 		ldr	r0, [r1], #4
 2821 001a FFF7FEFF 		bl	TIM_Base_SetConfig
 2822 001e 2268     		ldr	r2, [r4]
 2823 0020 1368     		ldr	r3, [r2]
 2824 0022 23F00803 		bic	r3, r3, #8
 2825 0026 1360     		str	r3, [r2]
 2826 0028 2268     		ldr	r2, [r4]
 2827 002a 1368     		ldr	r3, [r2]
 2828 002c 2B43     		orrs	r3, r3, r5
 2829 002e 1360     		str	r3, [r2]
 2830 0030 0123     		movs	r3, #1
 2831 0032 84F84630 		strb	r3, [r4, #70]
 2832 0036 84F83E30 		strb	r3, [r4, #62]
ARM GAS  C:\Temp\ccF97kYR.s 			page 48


 2833 003a 84F83F30 		strb	r3, [r4, #63]
 2834 003e 84F84230 		strb	r3, [r4, #66]
 2835 0042 84F84330 		strb	r3, [r4, #67]
 2836 0046 84F83D30 		strb	r3, [r4, #61]
 2837 004a 0020     		movs	r0, #0
 2838 004c 38BD     		pop	{r3, r4, r5, pc}
 2839              	.L360:
 2840 004e 80F83C30 		strb	r3, [r0, #60]
 2841 0052 FFF7FEFF 		bl	HAL_TIM_OnePulse_MspInit
 2842 0056 DAE7     		b	.L354
 2843              	.L355:
 2844 0058 0120     		movs	r0, #1
 2845 005a 7047     		bx	lr
 2847              		.section	.text.HAL_TIM_Encoder_Init,"ax",%progbits
 2848              		.align	1
 2849              		.global	HAL_TIM_Encoder_Init
 2850              		.syntax unified
 2851              		.thumb
 2852              		.thumb_func
 2854              	HAL_TIM_Encoder_Init:
 2855              		@ args = 0, pretend = 0, frame = 0
 2856              		@ frame_needed = 0, uses_anonymous_args = 0
 2857 0000 0028     		cmp	r0, #0
 2858 0002 53D0     		beq	.L364
 2859 0004 F8B5     		push	{r3, r4, r5, r6, r7, lr}
 2860 0006 0D46     		mov	r5, r1
 2861 0008 0446     		mov	r4, r0
 2862 000a 90F83D30 		ldrb	r3, [r0, #61]	@ zero_extendqisi2
 2863 000e 002B     		cmp	r3, #0
 2864 0010 47D0     		beq	.L369
 2865              	.L363:
 2866 0012 0223     		movs	r3, #2
 2867 0014 84F83D30 		strb	r3, [r4, #61]
 2868 0018 2268     		ldr	r2, [r4]
 2869 001a 9368     		ldr	r3, [r2, #8]
 2870 001c 23F48043 		bic	r3, r3, #16384
 2871 0020 23F00703 		bic	r3, r3, #7
 2872 0024 9360     		str	r3, [r2, #8]
 2873 0026 2146     		mov	r1, r4
 2874 0028 51F8040B 		ldr	r0, [r1], #4
 2875 002c FFF7FEFF 		bl	TIM_Base_SetConfig
 2876 0030 2168     		ldr	r1, [r4]
 2877 0032 8B68     		ldr	r3, [r1, #8]
 2878 0034 8A69     		ldr	r2, [r1, #24]
 2879 0036 0E6A     		ldr	r6, [r1, #32]
 2880 0038 2868     		ldr	r0, [r5]
 2881 003a 1843     		orrs	r0, r0, r3
 2882 003c 22F44072 		bic	r2, r2, #768
 2883 0040 22F00302 		bic	r2, r2, #3
 2884 0044 AB68     		ldr	r3, [r5, #8]
 2885 0046 AF69     		ldr	r7, [r5, #24]
 2886 0048 43EA0723 		orr	r3, r3, r7, lsl #8
 2887 004c 1343     		orrs	r3, r3, r2
 2888 004e 23F47C43 		bic	r3, r3, #64512
 2889 0052 23F0FC03 		bic	r3, r3, #252
 2890 0056 EA68     		ldr	r2, [r5, #12]
 2891 0058 EF69     		ldr	r7, [r5, #28]
ARM GAS  C:\Temp\ccF97kYR.s 			page 49


 2892 005a 42EA0722 		orr	r2, r2, r7, lsl #8
 2893 005e 1A43     		orrs	r2, r2, r3
 2894 0060 2B6A     		ldr	r3, [r5, #32]
 2895 0062 1B03     		lsls	r3, r3, #12
 2896 0064 2F69     		ldr	r7, [r5, #16]
 2897 0066 43EA0713 		orr	r3, r3, r7, lsl #4
 2898 006a 1343     		orrs	r3, r3, r2
 2899 006c 26F0AA06 		bic	r6, r6, #170
 2900 0070 6A68     		ldr	r2, [r5, #4]
 2901 0072 6D69     		ldr	r5, [r5, #20]
 2902 0074 42EA0512 		orr	r2, r2, r5, lsl #4
 2903 0078 3243     		orrs	r2, r2, r6
 2904 007a 8860     		str	r0, [r1, #8]
 2905 007c 2168     		ldr	r1, [r4]
 2906 007e 8B61     		str	r3, [r1, #24]
 2907 0080 2368     		ldr	r3, [r4]
 2908 0082 1A62     		str	r2, [r3, #32]
 2909 0084 0123     		movs	r3, #1
 2910 0086 84F84630 		strb	r3, [r4, #70]
 2911 008a 84F83E30 		strb	r3, [r4, #62]
 2912 008e 84F83F30 		strb	r3, [r4, #63]
 2913 0092 84F84230 		strb	r3, [r4, #66]
 2914 0096 84F84330 		strb	r3, [r4, #67]
 2915 009a 84F83D30 		strb	r3, [r4, #61]
 2916 009e 0020     		movs	r0, #0
 2917 00a0 F8BD     		pop	{r3, r4, r5, r6, r7, pc}
 2918              	.L369:
 2919 00a2 80F83C30 		strb	r3, [r0, #60]
 2920 00a6 FFF7FEFF 		bl	HAL_TIM_Encoder_MspInit
 2921 00aa B2E7     		b	.L363
 2922              	.L364:
 2923 00ac 0120     		movs	r0, #1
 2924 00ae 7047     		bx	lr
 2926              		.section	.text.TIM_OC2_SetConfig,"ax",%progbits
 2927              		.align	1
 2928              		.global	TIM_OC2_SetConfig
 2929              		.syntax unified
 2930              		.thumb
 2931              		.thumb_func
 2933              	TIM_OC2_SetConfig:
 2934              		@ args = 0, pretend = 0, frame = 0
 2935              		@ frame_needed = 0, uses_anonymous_args = 0
 2936              		@ link register save eliminated.
 2937 0000 30B4     		push	{r4, r5}
 2938 0002 036A     		ldr	r3, [r0, #32]
 2939 0004 026A     		ldr	r2, [r0, #32]
 2940 0006 22F01002 		bic	r2, r2, #16
 2941 000a 0262     		str	r2, [r0, #32]
 2942 000c 4468     		ldr	r4, [r0, #4]
 2943 000e 8269     		ldr	r2, [r0, #24]
 2944 0010 22F4E642 		bic	r2, r2, #29440
 2945 0014 0D68     		ldr	r5, [r1]
 2946 0016 42EA0522 		orr	r2, r2, r5, lsl #8
 2947 001a 23F02003 		bic	r3, r3, #32
 2948 001e 8D68     		ldr	r5, [r1, #8]
 2949 0020 43EA0513 		orr	r3, r3, r5, lsl #4
 2950 0024 0C4D     		ldr	r5, .L374
ARM GAS  C:\Temp\ccF97kYR.s 			page 50


 2951 0026 A842     		cmp	r0, r5
 2952 0028 06D0     		beq	.L373
 2953              	.L371:
 2954 002a 4460     		str	r4, [r0, #4]
 2955 002c 8261     		str	r2, [r0, #24]
 2956 002e 4A68     		ldr	r2, [r1, #4]
 2957 0030 8263     		str	r2, [r0, #56]
 2958 0032 0362     		str	r3, [r0, #32]
 2959 0034 30BC     		pop	{r4, r5}
 2960 0036 7047     		bx	lr
 2961              	.L373:
 2962 0038 23F08003 		bic	r3, r3, #128
 2963 003c CD68     		ldr	r5, [r1, #12]
 2964 003e 43EA0513 		orr	r3, r3, r5, lsl #4
 2965 0042 23F04003 		bic	r3, r3, #64
 2966 0046 24F44064 		bic	r4, r4, #3072
 2967 004a 4D69     		ldr	r5, [r1, #20]
 2968 004c 44EA8504 		orr	r4, r4, r5, lsl #2
 2969 0050 8D69     		ldr	r5, [r1, #24]
 2970 0052 44EA8504 		orr	r4, r4, r5, lsl #2
 2971 0056 E8E7     		b	.L371
 2972              	.L375:
 2973              		.align	2
 2974              	.L374:
 2975 0058 00000140 		.word	1073807360
 2977              		.section	.text.HAL_TIM_OC_ConfigChannel,"ax",%progbits
 2978              		.align	1
 2979              		.global	HAL_TIM_OC_ConfigChannel
 2980              		.syntax unified
 2981              		.thumb
 2982              		.thumb_func
 2984              	HAL_TIM_OC_ConfigChannel:
 2985              		@ args = 0, pretend = 0, frame = 0
 2986              		@ frame_needed = 0, uses_anonymous_args = 0
 2987 0000 90F83C30 		ldrb	r3, [r0, #60]	@ zero_extendqisi2
 2988 0004 012B     		cmp	r3, #1
 2989 0006 28D0     		beq	.L384
 2990 0008 10B5     		push	{r4, lr}
 2991 000a 0446     		mov	r4, r0
 2992 000c 0123     		movs	r3, #1
 2993 000e 80F83C30 		strb	r3, [r0, #60]
 2994 0012 0C2A     		cmp	r2, #12
 2995 0014 1CD8     		bhi	.L385
 2996 0016 DFE802F0 		tbb	[pc, r2]
 2997              	.L380:
 2998 001a 07       		.byte	(.L383-.L380)/2
 2999 001b 1B       		.byte	(.L385-.L380)/2
 3000 001c 1B       		.byte	(.L385-.L380)/2
 3001 001d 1B       		.byte	(.L385-.L380)/2
 3002 001e 0C       		.byte	(.L382-.L380)/2
 3003 001f 1B       		.byte	(.L385-.L380)/2
 3004 0020 1B       		.byte	(.L385-.L380)/2
 3005 0021 1B       		.byte	(.L385-.L380)/2
 3006 0022 11       		.byte	(.L381-.L380)/2
 3007 0023 1B       		.byte	(.L385-.L380)/2
 3008 0024 1B       		.byte	(.L385-.L380)/2
 3009 0025 1B       		.byte	(.L385-.L380)/2
ARM GAS  C:\Temp\ccF97kYR.s 			page 51


 3010 0026 16       		.byte	(.L379-.L380)/2
 3011 0027 00       		.p2align 1
 3012              	.L383:
 3013 0028 0068     		ldr	r0, [r0]
 3014 002a FFF7FEFF 		bl	TIM_OC1_SetConfig
 3015 002e 0020     		movs	r0, #0
 3016 0030 0FE0     		b	.L378
 3017              	.L382:
 3018 0032 0068     		ldr	r0, [r0]
 3019 0034 FFF7FEFF 		bl	TIM_OC2_SetConfig
 3020 0038 0020     		movs	r0, #0
 3021 003a 0AE0     		b	.L378
 3022              	.L381:
 3023 003c 0068     		ldr	r0, [r0]
 3024 003e FFF7FEFF 		bl	TIM_OC3_SetConfig
 3025 0042 0020     		movs	r0, #0
 3026 0044 05E0     		b	.L378
 3027              	.L379:
 3028 0046 0068     		ldr	r0, [r0]
 3029 0048 FFF7FEFF 		bl	TIM_OC4_SetConfig
 3030 004c 0020     		movs	r0, #0
 3031 004e 00E0     		b	.L378
 3032              	.L385:
 3033 0050 0120     		movs	r0, #1
 3034              	.L378:
 3035 0052 0023     		movs	r3, #0
 3036 0054 84F83C30 		strb	r3, [r4, #60]
 3037 0058 10BD     		pop	{r4, pc}
 3038              	.L384:
 3039 005a 0220     		movs	r0, #2
 3040 005c 7047     		bx	lr
 3042              		.section	.text.HAL_TIM_PWM_ConfigChannel,"ax",%progbits
 3043              		.align	1
 3044              		.global	HAL_TIM_PWM_ConfigChannel
 3045              		.syntax unified
 3046              		.thumb
 3047              		.thumb_func
 3049              	HAL_TIM_PWM_ConfigChannel:
 3050              		@ args = 0, pretend = 0, frame = 0
 3051              		@ frame_needed = 0, uses_anonymous_args = 0
 3052 0000 38B5     		push	{r3, r4, r5, lr}
 3053 0002 90F83C30 		ldrb	r3, [r0, #60]	@ zero_extendqisi2
 3054 0006 012B     		cmp	r3, #1
 3055 0008 66D0     		beq	.L398
 3056 000a 0446     		mov	r4, r0
 3057 000c 0D46     		mov	r5, r1
 3058 000e 0123     		movs	r3, #1
 3059 0010 80F83C30 		strb	r3, [r0, #60]
 3060 0014 0C2A     		cmp	r2, #12
 3061 0016 5AD8     		bhi	.L399
 3062 0018 DFE802F0 		tbb	[pc, r2]
 3063              	.L394:
 3064 001c 07       		.byte	(.L397-.L394)/2
 3065 001d 59       		.byte	(.L399-.L394)/2
 3066 001e 59       		.byte	(.L399-.L394)/2
 3067 001f 59       		.byte	(.L399-.L394)/2
 3068 0020 1B       		.byte	(.L396-.L394)/2
ARM GAS  C:\Temp\ccF97kYR.s 			page 52


 3069 0021 59       		.byte	(.L399-.L394)/2
 3070 0022 59       		.byte	(.L399-.L394)/2
 3071 0023 59       		.byte	(.L399-.L394)/2
 3072 0024 30       		.byte	(.L395-.L394)/2
 3073 0025 59       		.byte	(.L399-.L394)/2
 3074 0026 59       		.byte	(.L399-.L394)/2
 3075 0027 59       		.byte	(.L399-.L394)/2
 3076 0028 44       		.byte	(.L393-.L394)/2
 3077 0029 00       		.p2align 1
 3078              	.L397:
 3079 002a 0068     		ldr	r0, [r0]
 3080 002c FFF7FEFF 		bl	TIM_OC1_SetConfig
 3081 0030 2268     		ldr	r2, [r4]
 3082 0032 9369     		ldr	r3, [r2, #24]
 3083 0034 43F00803 		orr	r3, r3, #8
 3084 0038 9361     		str	r3, [r2, #24]
 3085 003a 2268     		ldr	r2, [r4]
 3086 003c 9369     		ldr	r3, [r2, #24]
 3087 003e 23F00403 		bic	r3, r3, #4
 3088 0042 9361     		str	r3, [r2, #24]
 3089 0044 2268     		ldr	r2, [r4]
 3090 0046 9369     		ldr	r3, [r2, #24]
 3091 0048 2969     		ldr	r1, [r5, #16]
 3092 004a 0B43     		orrs	r3, r3, r1
 3093 004c 9361     		str	r3, [r2, #24]
 3094 004e 0020     		movs	r0, #0
 3095 0050 3EE0     		b	.L392
 3096              	.L396:
 3097 0052 0068     		ldr	r0, [r0]
 3098 0054 FFF7FEFF 		bl	TIM_OC2_SetConfig
 3099 0058 2268     		ldr	r2, [r4]
 3100 005a 9369     		ldr	r3, [r2, #24]
 3101 005c 43F40063 		orr	r3, r3, #2048
 3102 0060 9361     		str	r3, [r2, #24]
 3103 0062 2268     		ldr	r2, [r4]
 3104 0064 9369     		ldr	r3, [r2, #24]
 3105 0066 23F48063 		bic	r3, r3, #1024
 3106 006a 9361     		str	r3, [r2, #24]
 3107 006c 2268     		ldr	r2, [r4]
 3108 006e 9369     		ldr	r3, [r2, #24]
 3109 0070 2969     		ldr	r1, [r5, #16]
 3110 0072 43EA0123 		orr	r3, r3, r1, lsl #8
 3111 0076 9361     		str	r3, [r2, #24]
 3112 0078 0020     		movs	r0, #0
 3113 007a 29E0     		b	.L392
 3114              	.L395:
 3115 007c 0068     		ldr	r0, [r0]
 3116 007e FFF7FEFF 		bl	TIM_OC3_SetConfig
 3117 0082 2268     		ldr	r2, [r4]
 3118 0084 D369     		ldr	r3, [r2, #28]
 3119 0086 43F00803 		orr	r3, r3, #8
 3120 008a D361     		str	r3, [r2, #28]
 3121 008c 2268     		ldr	r2, [r4]
 3122 008e D369     		ldr	r3, [r2, #28]
 3123 0090 23F00403 		bic	r3, r3, #4
 3124 0094 D361     		str	r3, [r2, #28]
 3125 0096 2268     		ldr	r2, [r4]
ARM GAS  C:\Temp\ccF97kYR.s 			page 53


 3126 0098 D369     		ldr	r3, [r2, #28]
 3127 009a 2969     		ldr	r1, [r5, #16]
 3128 009c 0B43     		orrs	r3, r3, r1
 3129 009e D361     		str	r3, [r2, #28]
 3130 00a0 0020     		movs	r0, #0
 3131 00a2 15E0     		b	.L392
 3132              	.L393:
 3133 00a4 0068     		ldr	r0, [r0]
 3134 00a6 FFF7FEFF 		bl	TIM_OC4_SetConfig
 3135 00aa 2268     		ldr	r2, [r4]
 3136 00ac D369     		ldr	r3, [r2, #28]
 3137 00ae 43F40063 		orr	r3, r3, #2048
 3138 00b2 D361     		str	r3, [r2, #28]
 3139 00b4 2268     		ldr	r2, [r4]
 3140 00b6 D369     		ldr	r3, [r2, #28]
 3141 00b8 23F48063 		bic	r3, r3, #1024
 3142 00bc D361     		str	r3, [r2, #28]
 3143 00be 2268     		ldr	r2, [r4]
 3144 00c0 D369     		ldr	r3, [r2, #28]
 3145 00c2 2969     		ldr	r1, [r5, #16]
 3146 00c4 43EA0123 		orr	r3, r3, r1, lsl #8
 3147 00c8 D361     		str	r3, [r2, #28]
 3148 00ca 0020     		movs	r0, #0
 3149 00cc 00E0     		b	.L392
 3150              	.L399:
 3151 00ce 0120     		movs	r0, #1
 3152              	.L392:
 3153 00d0 0023     		movs	r3, #0
 3154 00d2 84F83C30 		strb	r3, [r4, #60]
 3155              	.L391:
 3156 00d6 38BD     		pop	{r3, r4, r5, pc}
 3157              	.L398:
 3158 00d8 0220     		movs	r0, #2
 3159 00da FCE7     		b	.L391
 3161              		.section	.text.TIM_TI1_SetConfig,"ax",%progbits
 3162              		.align	1
 3163              		.global	TIM_TI1_SetConfig
 3164              		.syntax unified
 3165              		.thumb
 3166              		.thumb_func
 3168              	TIM_TI1_SetConfig:
 3169              		@ args = 0, pretend = 0, frame = 0
 3170              		@ frame_needed = 0, uses_anonymous_args = 0
 3171              		@ link register save eliminated.
 3172 0000 70B4     		push	{r4, r5, r6}
 3173 0002 9446     		mov	ip, r2
 3174 0004 066A     		ldr	r6, [r0, #32]
 3175 0006 046A     		ldr	r4, [r0, #32]
 3176 0008 24F00104 		bic	r4, r4, #1
 3177 000c 0462     		str	r4, [r0, #32]
 3178 000e 8469     		ldr	r4, [r0, #24]
 3179 0010 144D     		ldr	r5, .L405
 3180 0012 A842     		cmp	r0, r5
 3181 0014 14D0     		beq	.L402
 3182 0016 B0F1804F 		cmp	r0, #1073741824
 3183 001a 11D0     		beq	.L402
 3184 001c 124A     		ldr	r2, .L405+4
ARM GAS  C:\Temp\ccF97kYR.s 			page 54


 3185 001e 9042     		cmp	r0, r2
 3186 0020 0ED0     		beq	.L402
 3187 0022 02F58062 		add	r2, r2, #1024
 3188 0026 9042     		cmp	r0, r2
 3189 0028 0AD0     		beq	.L402
 3190 002a 02F58062 		add	r2, r2, #1024
 3191 002e 9042     		cmp	r0, r2
 3192 0030 06D0     		beq	.L402
 3193 0032 02F59A32 		add	r2, r2, #78848
 3194 0036 9042     		cmp	r0, r2
 3195 0038 02D0     		beq	.L402
 3196 003a 44F00102 		orr	r2, r4, #1
 3197 003e 03E0     		b	.L403
 3198              	.L402:
 3199 0040 24F00302 		bic	r2, r4, #3
 3200 0044 42EA0C02 		orr	r2, r2, ip
 3201              	.L403:
 3202 0048 22F0F002 		bic	r2, r2, #240
 3203 004c 1B01     		lsls	r3, r3, #4
 3204 004e DBB2     		uxtb	r3, r3
 3205 0050 1343     		orrs	r3, r3, r2
 3206 0052 26F00A02 		bic	r2, r6, #10
 3207 0056 01F00A01 		and	r1, r1, #10
 3208 005a 1143     		orrs	r1, r1, r2
 3209 005c 8361     		str	r3, [r0, #24]
 3210 005e 0162     		str	r1, [r0, #32]
 3211 0060 70BC     		pop	{r4, r5, r6}
 3212 0062 7047     		bx	lr
 3213              	.L406:
 3214              		.align	2
 3215              	.L405:
 3216 0064 00000140 		.word	1073807360
 3217 0068 00040040 		.word	1073742848
 3219              		.section	.text.HAL_TIM_IC_ConfigChannel,"ax",%progbits
 3220              		.align	1
 3221              		.global	HAL_TIM_IC_ConfigChannel
 3222              		.syntax unified
 3223              		.thumb
 3224              		.thumb_func
 3226              	HAL_TIM_IC_ConfigChannel:
 3227              		@ args = 0, pretend = 0, frame = 0
 3228              		@ frame_needed = 0, uses_anonymous_args = 0
 3229 0000 38B5     		push	{r3, r4, r5, lr}
 3230 0002 90F83C30 		ldrb	r3, [r0, #60]	@ zero_extendqisi2
 3231 0006 012B     		cmp	r3, #1
 3232 0008 5AD0     		beq	.L413
 3233 000a 0446     		mov	r4, r0
 3234 000c 0D46     		mov	r5, r1
 3235 000e 0123     		movs	r3, #1
 3236 0010 80F83C30 		strb	r3, [r0, #60]
 3237 0014 52B1     		cbz	r2, .L416
 3238 0016 042A     		cmp	r2, #4
 3239 0018 1AD0     		beq	.L417
 3240 001a 082A     		cmp	r2, #8
 3241 001c 2BD0     		beq	.L418
 3242 001e 0C2A     		cmp	r2, #12
 3243 0020 3BD0     		beq	.L419
ARM GAS  C:\Temp\ccF97kYR.s 			page 55


 3244 0022 0120     		movs	r0, #1
 3245              	.L410:
 3246 0024 0023     		movs	r3, #0
 3247 0026 84F83C30 		strb	r3, [r4, #60]
 3248              	.L408:
 3249 002a 38BD     		pop	{r3, r4, r5, pc}
 3250              	.L416:
 3251 002c CB68     		ldr	r3, [r1, #12]
 3252 002e 4A68     		ldr	r2, [r1, #4]
 3253 0030 0968     		ldr	r1, [r1]
 3254 0032 0068     		ldr	r0, [r0]
 3255 0034 FFF7FEFF 		bl	TIM_TI1_SetConfig
 3256 0038 2268     		ldr	r2, [r4]
 3257 003a 9369     		ldr	r3, [r2, #24]
 3258 003c 23F00C03 		bic	r3, r3, #12
 3259 0040 9361     		str	r3, [r2, #24]
 3260 0042 2268     		ldr	r2, [r4]
 3261 0044 9369     		ldr	r3, [r2, #24]
 3262 0046 A968     		ldr	r1, [r5, #8]
 3263 0048 0B43     		orrs	r3, r3, r1
 3264 004a 9361     		str	r3, [r2, #24]
 3265 004c 0020     		movs	r0, #0
 3266 004e E9E7     		b	.L410
 3267              	.L417:
 3268 0050 CB68     		ldr	r3, [r1, #12]
 3269 0052 4A68     		ldr	r2, [r1, #4]
 3270 0054 0968     		ldr	r1, [r1]
 3271 0056 0068     		ldr	r0, [r0]
 3272 0058 FFF7FEFF 		bl	TIM_TI2_SetConfig
 3273 005c 2268     		ldr	r2, [r4]
 3274 005e 9369     		ldr	r3, [r2, #24]
 3275 0060 23F44063 		bic	r3, r3, #3072
 3276 0064 9361     		str	r3, [r2, #24]
 3277 0066 2268     		ldr	r2, [r4]
 3278 0068 9369     		ldr	r3, [r2, #24]
 3279 006a A968     		ldr	r1, [r5, #8]
 3280 006c 43EA0123 		orr	r3, r3, r1, lsl #8
 3281 0070 9361     		str	r3, [r2, #24]
 3282 0072 0020     		movs	r0, #0
 3283 0074 D6E7     		b	.L410
 3284              	.L418:
 3285 0076 CB68     		ldr	r3, [r1, #12]
 3286 0078 4A68     		ldr	r2, [r1, #4]
 3287 007a 0968     		ldr	r1, [r1]
 3288 007c 0068     		ldr	r0, [r0]
 3289 007e FFF7FEFF 		bl	TIM_TI3_SetConfig
 3290 0082 2268     		ldr	r2, [r4]
 3291 0084 D369     		ldr	r3, [r2, #28]
 3292 0086 23F00C03 		bic	r3, r3, #12
 3293 008a D361     		str	r3, [r2, #28]
 3294 008c 2268     		ldr	r2, [r4]
 3295 008e D369     		ldr	r3, [r2, #28]
 3296 0090 A968     		ldr	r1, [r5, #8]
 3297 0092 0B43     		orrs	r3, r3, r1
 3298 0094 D361     		str	r3, [r2, #28]
 3299 0096 0020     		movs	r0, #0
 3300 0098 C4E7     		b	.L410
ARM GAS  C:\Temp\ccF97kYR.s 			page 56


 3301              	.L419:
 3302 009a CB68     		ldr	r3, [r1, #12]
 3303 009c 4A68     		ldr	r2, [r1, #4]
 3304 009e 0968     		ldr	r1, [r1]
 3305 00a0 0068     		ldr	r0, [r0]
 3306 00a2 FFF7FEFF 		bl	TIM_TI4_SetConfig
 3307 00a6 2268     		ldr	r2, [r4]
 3308 00a8 D369     		ldr	r3, [r2, #28]
 3309 00aa 23F44063 		bic	r3, r3, #3072
 3310 00ae D361     		str	r3, [r2, #28]
 3311 00b0 2268     		ldr	r2, [r4]
 3312 00b2 D369     		ldr	r3, [r2, #28]
 3313 00b4 A968     		ldr	r1, [r5, #8]
 3314 00b6 43EA0123 		orr	r3, r3, r1, lsl #8
 3315 00ba D361     		str	r3, [r2, #28]
 3316 00bc 0020     		movs	r0, #0
 3317 00be B1E7     		b	.L410
 3318              	.L413:
 3319 00c0 0220     		movs	r0, #2
 3320 00c2 B2E7     		b	.L408
 3322              		.section	.text.HAL_TIM_OnePulse_ConfigChannel,"ax",%progbits
 3323              		.align	1
 3324              		.global	HAL_TIM_OnePulse_ConfigChannel
 3325              		.syntax unified
 3326              		.thumb
 3327              		.thumb_func
 3329              	HAL_TIM_OnePulse_ConfigChannel:
 3330              		@ args = 0, pretend = 0, frame = 32
 3331              		@ frame_needed = 0, uses_anonymous_args = 0
 3332 0000 9A42     		cmp	r2, r3
 3333 0002 76D0     		beq	.L428
 3334 0004 70B5     		push	{r4, r5, r6, lr}
 3335 0006 88B0     		sub	sp, sp, #32
 3336 0008 0446     		mov	r4, r0
 3337 000a 0D46     		mov	r5, r1
 3338 000c 1E46     		mov	r6, r3
 3339 000e 90F83C30 		ldrb	r3, [r0, #60]	@ zero_extendqisi2
 3340 0012 012B     		cmp	r3, #1
 3341 0014 6FD0     		beq	.L429
 3342 0016 0123     		movs	r3, #1
 3343 0018 80F83C30 		strb	r3, [r0, #60]
 3344 001c 0223     		movs	r3, #2
 3345 001e 80F83D30 		strb	r3, [r0, #61]
 3346 0022 0B68     		ldr	r3, [r1]
 3347 0024 0193     		str	r3, [sp, #4]
 3348 0026 4B68     		ldr	r3, [r1, #4]
 3349 0028 0293     		str	r3, [sp, #8]
 3350 002a 8B68     		ldr	r3, [r1, #8]
 3351 002c 0393     		str	r3, [sp, #12]
 3352 002e CB68     		ldr	r3, [r1, #12]
 3353 0030 0493     		str	r3, [sp, #16]
 3354 0032 0B69     		ldr	r3, [r1, #16]
 3355 0034 0693     		str	r3, [sp, #24]
 3356 0036 4B69     		ldr	r3, [r1, #20]
 3357 0038 0793     		str	r3, [sp, #28]
 3358 003a 52B1     		cbz	r2, .L422
 3359 003c 042A     		cmp	r2, #4
ARM GAS  C:\Temp\ccF97kYR.s 			page 57


 3360 003e 11D0     		beq	.L423
 3361 0040 0120     		movs	r0, #1
 3362              	.L424:
 3363 0042 0123     		movs	r3, #1
 3364 0044 84F83D30 		strb	r3, [r4, #61]
 3365 0048 0023     		movs	r3, #0
 3366 004a 84F83C30 		strb	r3, [r4, #60]
 3367              	.L421:
 3368 004e 08B0     		add	sp, sp, #32
 3369              		@ sp needed
 3370 0050 70BD     		pop	{r4, r5, r6, pc}
 3371              	.L422:
 3372 0052 01A9     		add	r1, sp, #4
 3373 0054 0068     		ldr	r0, [r0]
 3374 0056 FFF7FEFF 		bl	TIM_OC1_SetConfig
 3375              	.L425:
 3376 005a 46B1     		cbz	r6, .L426
 3377 005c 042E     		cmp	r6, #4
 3378 005e 27D0     		beq	.L427
 3379 0060 0120     		movs	r0, #1
 3380 0062 EEE7     		b	.L424
 3381              	.L423:
 3382 0064 01A9     		add	r1, sp, #4
 3383 0066 0068     		ldr	r0, [r0]
 3384 0068 FFF7FEFF 		bl	TIM_OC2_SetConfig
 3385 006c F5E7     		b	.L425
 3386              	.L426:
 3387 006e 2B6A     		ldr	r3, [r5, #32]
 3388 0070 EA69     		ldr	r2, [r5, #28]
 3389 0072 A969     		ldr	r1, [r5, #24]
 3390 0074 2068     		ldr	r0, [r4]
 3391 0076 FFF7FEFF 		bl	TIM_TI1_SetConfig
 3392 007a 2268     		ldr	r2, [r4]
 3393 007c 9369     		ldr	r3, [r2, #24]
 3394 007e 23F00C03 		bic	r3, r3, #12
 3395 0082 9361     		str	r3, [r2, #24]
 3396 0084 2268     		ldr	r2, [r4]
 3397 0086 9368     		ldr	r3, [r2, #8]
 3398 0088 23F07003 		bic	r3, r3, #112
 3399 008c 9360     		str	r3, [r2, #8]
 3400 008e 2268     		ldr	r2, [r4]
 3401 0090 9368     		ldr	r3, [r2, #8]
 3402 0092 43F05003 		orr	r3, r3, #80
 3403 0096 9360     		str	r3, [r2, #8]
 3404 0098 2268     		ldr	r2, [r4]
 3405 009a 9368     		ldr	r3, [r2, #8]
 3406 009c 23F00703 		bic	r3, r3, #7
 3407 00a0 9360     		str	r3, [r2, #8]
 3408 00a2 2268     		ldr	r2, [r4]
 3409 00a4 9368     		ldr	r3, [r2, #8]
 3410 00a6 43F00603 		orr	r3, r3, #6
 3411 00aa 9360     		str	r3, [r2, #8]
 3412 00ac 0020     		movs	r0, #0
 3413 00ae C8E7     		b	.L424
 3414              	.L427:
 3415 00b0 2B6A     		ldr	r3, [r5, #32]
 3416 00b2 EA69     		ldr	r2, [r5, #28]
ARM GAS  C:\Temp\ccF97kYR.s 			page 58


 3417 00b4 A969     		ldr	r1, [r5, #24]
 3418 00b6 2068     		ldr	r0, [r4]
 3419 00b8 FFF7FEFF 		bl	TIM_TI2_SetConfig
 3420 00bc 2268     		ldr	r2, [r4]
 3421 00be 9369     		ldr	r3, [r2, #24]
 3422 00c0 23F44063 		bic	r3, r3, #3072
 3423 00c4 9361     		str	r3, [r2, #24]
 3424 00c6 2268     		ldr	r2, [r4]
 3425 00c8 9368     		ldr	r3, [r2, #8]
 3426 00ca 23F07003 		bic	r3, r3, #112
 3427 00ce 9360     		str	r3, [r2, #8]
 3428 00d0 2268     		ldr	r2, [r4]
 3429 00d2 9368     		ldr	r3, [r2, #8]
 3430 00d4 43F06003 		orr	r3, r3, #96
 3431 00d8 9360     		str	r3, [r2, #8]
 3432 00da 2268     		ldr	r2, [r4]
 3433 00dc 9368     		ldr	r3, [r2, #8]
 3434 00de 23F00703 		bic	r3, r3, #7
 3435 00e2 9360     		str	r3, [r2, #8]
 3436 00e4 2268     		ldr	r2, [r4]
 3437 00e6 9368     		ldr	r3, [r2, #8]
 3438 00e8 43F00603 		orr	r3, r3, #6
 3439 00ec 9360     		str	r3, [r2, #8]
 3440 00ee 0020     		movs	r0, #0
 3441 00f0 A7E7     		b	.L424
 3442              	.L428:
 3443 00f2 0120     		movs	r0, #1
 3444 00f4 7047     		bx	lr
 3445              	.L429:
 3446 00f6 0220     		movs	r0, #2
 3447 00f8 A9E7     		b	.L421
 3449              		.section	.text.TIM_ETR_SetConfig,"ax",%progbits
 3450              		.align	1
 3451              		.global	TIM_ETR_SetConfig
 3452              		.syntax unified
 3453              		.thumb
 3454              		.thumb_func
 3456              	TIM_ETR_SetConfig:
 3457              		@ args = 0, pretend = 0, frame = 0
 3458              		@ frame_needed = 0, uses_anonymous_args = 0
 3459              		@ link register save eliminated.
 3460 0000 10B4     		push	{r4}
 3461 0002 8468     		ldr	r4, [r0, #8]
 3462 0004 24F47F4C 		bic	ip, r4, #65280
 3463 0008 42EA0322 		orr	r2, r2, r3, lsl #8
 3464 000c 0A43     		orrs	r2, r2, r1
 3465 000e 42EA0C02 		orr	r2, r2, ip
 3466 0012 8260     		str	r2, [r0, #8]
 3467 0014 5DF8044B 		ldr	r4, [sp], #4
 3468 0018 7047     		bx	lr
 3470              		.section	.text.HAL_TIM_ConfigOCrefClear,"ax",%progbits
 3471              		.align	1
 3472              		.global	HAL_TIM_ConfigOCrefClear
 3473              		.syntax unified
 3474              		.thumb
 3475              		.thumb_func
 3477              	HAL_TIM_ConfigOCrefClear:
ARM GAS  C:\Temp\ccF97kYR.s 			page 59


 3478              		@ args = 0, pretend = 0, frame = 0
 3479              		@ frame_needed = 0, uses_anonymous_args = 0
 3480 0000 90F83C30 		ldrb	r3, [r0, #60]	@ zero_extendqisi2
 3481 0004 012B     		cmp	r3, #1
 3482 0006 76D0     		beq	.L452
 3483 0008 70B5     		push	{r4, r5, r6, lr}
 3484 000a 0446     		mov	r4, r0
 3485 000c 0D46     		mov	r5, r1
 3486 000e 1646     		mov	r6, r2
 3487 0010 0123     		movs	r3, #1
 3488 0012 80F83C30 		strb	r3, [r0, #60]
 3489 0016 0223     		movs	r3, #2
 3490 0018 80F83D30 		strb	r3, [r0, #61]
 3491 001c 4B68     		ldr	r3, [r1, #4]
 3492 001e 4BB1     		cbz	r3, .L438
 3493 0020 012B     		cmp	r3, #1
 3494 0022 17D0     		beq	.L439
 3495 0024 0120     		movs	r0, #1
 3496              	.L440:
 3497 0026 0123     		movs	r3, #1
 3498 0028 84F83D30 		strb	r3, [r4, #61]
 3499 002c 0023     		movs	r3, #0
 3500 002e 84F83C30 		strb	r3, [r4, #60]
 3501              	.L437:
 3502 0032 70BD     		pop	{r4, r5, r6, pc}
 3503              	.L438:
 3504 0034 0268     		ldr	r2, [r0]
 3505 0036 9368     		ldr	r3, [r2, #8]
 3506 0038 23F47F43 		bic	r3, r3, #65280
 3507 003c 9360     		str	r3, [r2, #8]
 3508              	.L441:
 3509 003e 0C2E     		cmp	r6, #12
 3510 0040 57D8     		bhi	.L453
 3511 0042 DFE806F0 		tbb	[pc, r6]
 3512              	.L444:
 3513 0046 16       		.byte	(.L447-.L444)/2
 3514 0047 56       		.byte	(.L453-.L444)/2
 3515 0048 56       		.byte	(.L453-.L444)/2
 3516 0049 56       		.byte	(.L453-.L444)/2
 3517 004a 26       		.byte	(.L446-.L444)/2
 3518 004b 56       		.byte	(.L453-.L444)/2
 3519 004c 56       		.byte	(.L453-.L444)/2
 3520 004d 56       		.byte	(.L453-.L444)/2
 3521 004e 36       		.byte	(.L445-.L444)/2
 3522 004f 56       		.byte	(.L453-.L444)/2
 3523 0050 56       		.byte	(.L453-.L444)/2
 3524 0051 56       		.byte	(.L453-.L444)/2
 3525 0052 46       		.byte	(.L443-.L444)/2
 3526 0053 00       		.p2align 1
 3527              	.L439:
 3528 0054 C968     		ldr	r1, [r1, #12]
 3529 0056 31B1     		cbz	r1, .L442
 3530 0058 0120     		movs	r0, #1
 3531 005a 84F83D00 		strb	r0, [r4, #61]
 3532 005e 0023     		movs	r3, #0
 3533 0060 84F83C30 		strb	r3, [r4, #60]
 3534 0064 E5E7     		b	.L437
ARM GAS  C:\Temp\ccF97kYR.s 			page 60


 3535              	.L442:
 3536 0066 2B69     		ldr	r3, [r5, #16]
 3537 0068 AA68     		ldr	r2, [r5, #8]
 3538 006a 0068     		ldr	r0, [r0]
 3539 006c FFF7FEFF 		bl	TIM_ETR_SetConfig
 3540 0070 E5E7     		b	.L441
 3541              	.L447:
 3542 0072 2B68     		ldr	r3, [r5]
 3543 0074 33B1     		cbz	r3, .L448
 3544 0076 2268     		ldr	r2, [r4]
 3545 0078 9369     		ldr	r3, [r2, #24]
 3546 007a 43F08003 		orr	r3, r3, #128
 3547 007e 9361     		str	r3, [r2, #24]
 3548 0080 0020     		movs	r0, #0
 3549 0082 D0E7     		b	.L440
 3550              	.L448:
 3551 0084 2268     		ldr	r2, [r4]
 3552 0086 9369     		ldr	r3, [r2, #24]
 3553 0088 23F08003 		bic	r3, r3, #128
 3554 008c 9361     		str	r3, [r2, #24]
 3555 008e 0020     		movs	r0, #0
 3556 0090 C9E7     		b	.L440
 3557              	.L446:
 3558 0092 2B68     		ldr	r3, [r5]
 3559 0094 33B1     		cbz	r3, .L449
 3560 0096 2268     		ldr	r2, [r4]
 3561 0098 9369     		ldr	r3, [r2, #24]
 3562 009a 43F40043 		orr	r3, r3, #32768
 3563 009e 9361     		str	r3, [r2, #24]
 3564 00a0 0020     		movs	r0, #0
 3565 00a2 C0E7     		b	.L440
 3566              	.L449:
 3567 00a4 2268     		ldr	r2, [r4]
 3568 00a6 9369     		ldr	r3, [r2, #24]
 3569 00a8 23F40043 		bic	r3, r3, #32768
 3570 00ac 9361     		str	r3, [r2, #24]
 3571 00ae 0020     		movs	r0, #0
 3572 00b0 B9E7     		b	.L440
 3573              	.L445:
 3574 00b2 2B68     		ldr	r3, [r5]
 3575 00b4 33B1     		cbz	r3, .L450
 3576 00b6 2268     		ldr	r2, [r4]
 3577 00b8 D369     		ldr	r3, [r2, #28]
 3578 00ba 43F08003 		orr	r3, r3, #128
 3579 00be D361     		str	r3, [r2, #28]
 3580 00c0 0020     		movs	r0, #0
 3581 00c2 B0E7     		b	.L440
 3582              	.L450:
 3583 00c4 2268     		ldr	r2, [r4]
 3584 00c6 D369     		ldr	r3, [r2, #28]
 3585 00c8 23F08003 		bic	r3, r3, #128
 3586 00cc D361     		str	r3, [r2, #28]
 3587 00ce 0020     		movs	r0, #0
 3588 00d0 A9E7     		b	.L440
 3589              	.L443:
 3590 00d2 2B68     		ldr	r3, [r5]
 3591 00d4 33B1     		cbz	r3, .L451
ARM GAS  C:\Temp\ccF97kYR.s 			page 61


 3592 00d6 2268     		ldr	r2, [r4]
 3593 00d8 D369     		ldr	r3, [r2, #28]
 3594 00da 43F40043 		orr	r3, r3, #32768
 3595 00de D361     		str	r3, [r2, #28]
 3596 00e0 0020     		movs	r0, #0
 3597 00e2 A0E7     		b	.L440
 3598              	.L451:
 3599 00e4 2268     		ldr	r2, [r4]
 3600 00e6 D369     		ldr	r3, [r2, #28]
 3601 00e8 23F40043 		bic	r3, r3, #32768
 3602 00ec D361     		str	r3, [r2, #28]
 3603 00ee 0020     		movs	r0, #0
 3604 00f0 99E7     		b	.L440
 3605              	.L453:
 3606 00f2 0020     		movs	r0, #0
 3607 00f4 97E7     		b	.L440
 3608              	.L452:
 3609 00f6 0220     		movs	r0, #2
 3610 00f8 7047     		bx	lr
 3612              		.section	.text.HAL_TIM_ConfigClockSource,"ax",%progbits
 3613              		.align	1
 3614              		.global	HAL_TIM_ConfigClockSource
 3615              		.syntax unified
 3616              		.thumb
 3617              		.thumb_func
 3619              	HAL_TIM_ConfigClockSource:
 3620              		@ args = 0, pretend = 0, frame = 0
 3621              		@ frame_needed = 0, uses_anonymous_args = 0
 3622 0000 90F83C30 		ldrb	r3, [r0, #60]	@ zero_extendqisi2
 3623 0004 012B     		cmp	r3, #1
 3624 0006 78D0     		beq	.L469
 3625 0008 10B5     		push	{r4, lr}
 3626 000a 0446     		mov	r4, r0
 3627 000c 0123     		movs	r3, #1
 3628 000e 80F83C30 		strb	r3, [r0, #60]
 3629 0012 0223     		movs	r3, #2
 3630 0014 80F83D30 		strb	r3, [r0, #61]
 3631 0018 0268     		ldr	r2, [r0]
 3632 001a 9368     		ldr	r3, [r2, #8]
 3633 001c 23F47F43 		bic	r3, r3, #65280
 3634 0020 23F07703 		bic	r3, r3, #119
 3635 0024 9360     		str	r3, [r2, #8]
 3636 0026 0B68     		ldr	r3, [r1]
 3637 0028 602B     		cmp	r3, #96
 3638 002a 4CD0     		beq	.L460
 3639 002c 29D8     		bhi	.L461
 3640 002e 402B     		cmp	r3, #64
 3641 0030 54D0     		beq	.L462
 3642 0032 0CD9     		bls	.L476
 3643 0034 502B     		cmp	r3, #80
 3644 0036 22D1     		bne	.L477
 3645 0038 CA68     		ldr	r2, [r1, #12]
 3646 003a 4968     		ldr	r1, [r1, #4]
 3647 003c 0068     		ldr	r0, [r0]
 3648 003e FFF7FEFF 		bl	TIM_TI1_ConfigInputStage
 3649 0042 5021     		movs	r1, #80
 3650 0044 2068     		ldr	r0, [r4]
ARM GAS  C:\Temp\ccF97kYR.s 			page 62


 3651 0046 FFF7FEFF 		bl	TIM_ITRx_SetConfig
 3652 004a 0020     		movs	r0, #0
 3653 004c 05E0     		b	.L466
 3654              	.L476:
 3655 004e 202B     		cmp	r3, #32
 3656 0050 0DD0     		beq	.L464
 3657 0052 09D9     		bls	.L478
 3658 0054 302B     		cmp	r3, #48
 3659 0056 0AD0     		beq	.L464
 3660 0058 0120     		movs	r0, #1
 3661              	.L466:
 3662 005a 0123     		movs	r3, #1
 3663 005c 84F83D30 		strb	r3, [r4, #61]
 3664 0060 0023     		movs	r3, #0
 3665 0062 84F83C30 		strb	r3, [r4, #60]
 3666 0066 10BD     		pop	{r4, pc}
 3667              	.L478:
 3668 0068 0BB1     		cbz	r3, .L464
 3669 006a 102B     		cmp	r3, #16
 3670 006c 05D1     		bne	.L479
 3671              	.L464:
 3672 006e 1946     		mov	r1, r3
 3673 0070 2068     		ldr	r0, [r4]
 3674 0072 FFF7FEFF 		bl	TIM_ITRx_SetConfig
 3675 0076 0020     		movs	r0, #0
 3676 0078 EFE7     		b	.L466
 3677              	.L479:
 3678 007a 0120     		movs	r0, #1
 3679 007c EDE7     		b	.L466
 3680              	.L477:
 3681 007e 0120     		movs	r0, #1
 3682 0080 EBE7     		b	.L466
 3683              	.L461:
 3684 0082 B3F5805F 		cmp	r3, #4096
 3685 0086 34D0     		beq	.L470
 3686 0088 B3F5005F 		cmp	r3, #8192
 3687 008c 0CD1     		bne	.L480
 3688 008e CB68     		ldr	r3, [r1, #12]
 3689 0090 4A68     		ldr	r2, [r1, #4]
 3690 0092 8968     		ldr	r1, [r1, #8]
 3691 0094 0068     		ldr	r0, [r0]
 3692 0096 FFF7FEFF 		bl	TIM_ETR_SetConfig
 3693 009a 2268     		ldr	r2, [r4]
 3694 009c 9368     		ldr	r3, [r2, #8]
 3695 009e 43F48043 		orr	r3, r3, #16384
 3696 00a2 9360     		str	r3, [r2, #8]
 3697 00a4 0020     		movs	r0, #0
 3698 00a6 D8E7     		b	.L466
 3699              	.L480:
 3700 00a8 702B     		cmp	r3, #112
 3701 00aa 24D1     		bne	.L471
 3702 00ac CB68     		ldr	r3, [r1, #12]
 3703 00ae 4A68     		ldr	r2, [r1, #4]
 3704 00b0 8968     		ldr	r1, [r1, #8]
 3705 00b2 0068     		ldr	r0, [r0]
 3706 00b4 FFF7FEFF 		bl	TIM_ETR_SetConfig
 3707 00b8 2268     		ldr	r2, [r4]
ARM GAS  C:\Temp\ccF97kYR.s 			page 63


 3708 00ba 9368     		ldr	r3, [r2, #8]
 3709 00bc 43F07703 		orr	r3, r3, #119
 3710 00c0 9360     		str	r3, [r2, #8]
 3711 00c2 0020     		movs	r0, #0
 3712 00c4 C9E7     		b	.L466
 3713              	.L460:
 3714 00c6 CA68     		ldr	r2, [r1, #12]
 3715 00c8 4968     		ldr	r1, [r1, #4]
 3716 00ca 0068     		ldr	r0, [r0]
 3717 00cc FFF7FEFF 		bl	TIM_TI2_ConfigInputStage
 3718 00d0 6021     		movs	r1, #96
 3719 00d2 2068     		ldr	r0, [r4]
 3720 00d4 FFF7FEFF 		bl	TIM_ITRx_SetConfig
 3721 00d8 0020     		movs	r0, #0
 3722 00da BEE7     		b	.L466
 3723              	.L462:
 3724 00dc CA68     		ldr	r2, [r1, #12]
 3725 00de 4968     		ldr	r1, [r1, #4]
 3726 00e0 0068     		ldr	r0, [r0]
 3727 00e2 FFF7FEFF 		bl	TIM_TI1_ConfigInputStage
 3728 00e6 4021     		movs	r1, #64
 3729 00e8 2068     		ldr	r0, [r4]
 3730 00ea FFF7FEFF 		bl	TIM_ITRx_SetConfig
 3731 00ee 0020     		movs	r0, #0
 3732 00f0 B3E7     		b	.L466
 3733              	.L470:
 3734 00f2 0020     		movs	r0, #0
 3735 00f4 B1E7     		b	.L466
 3736              	.L471:
 3737 00f6 0120     		movs	r0, #1
 3738 00f8 AFE7     		b	.L466
 3739              	.L469:
 3740 00fa 0220     		movs	r0, #2
 3741 00fc 7047     		bx	lr
 3743              		.section	.text.TIM_SlaveTimer_SetConfig,"ax",%progbits
 3744              		.align	1
 3745              		.syntax unified
 3746              		.thumb
 3747              		.thumb_func
 3749              	TIM_SlaveTimer_SetConfig:
 3750              		@ args = 0, pretend = 0, frame = 0
 3751              		@ frame_needed = 0, uses_anonymous_args = 0
 3752 0000 10B5     		push	{r4, lr}
 3753 0002 0468     		ldr	r4, [r0]
 3754 0004 A268     		ldr	r2, [r4, #8]
 3755 0006 22F07002 		bic	r2, r2, #112
 3756 000a 4B68     		ldr	r3, [r1, #4]
 3757 000c 1343     		orrs	r3, r3, r2
 3758 000e 23F00703 		bic	r3, r3, #7
 3759 0012 0A68     		ldr	r2, [r1]
 3760 0014 1A43     		orrs	r2, r2, r3
 3761 0016 A260     		str	r2, [r4, #8]
 3762 0018 4B68     		ldr	r3, [r1, #4]
 3763 001a 502B     		cmp	r3, #80
 3764 001c 32D0     		beq	.L482
 3765 001e 0BD9     		bls	.L496
 3766 0020 602B     		cmp	r3, #96
ARM GAS  C:\Temp\ccF97kYR.s 			page 64


 3767 0022 36D0     		beq	.L487
 3768 0024 702B     		cmp	r3, #112
 3769 0026 43D1     		bne	.L493
 3770 0028 0B69     		ldr	r3, [r1, #16]
 3771 002a 8A68     		ldr	r2, [r1, #8]
 3772 002c C968     		ldr	r1, [r1, #12]
 3773 002e 0068     		ldr	r0, [r0]
 3774 0030 FFF7FEFF 		bl	TIM_ETR_SetConfig
 3775 0034 0020     		movs	r0, #0
 3776 0036 0FE0     		b	.L485
 3777              	.L496:
 3778 0038 402B     		cmp	r3, #64
 3779 003a 0ED0     		beq	.L484
 3780 003c 01D9     		bls	.L497
 3781 003e 0120     		movs	r0, #1
 3782 0040 0AE0     		b	.L485
 3783              	.L497:
 3784 0042 202B     		cmp	r3, #32
 3785 0044 2CD0     		beq	.L489
 3786 0046 03D9     		bls	.L498
 3787 0048 302B     		cmp	r3, #48
 3788 004a 2FD1     		bne	.L492
 3789 004c 0020     		movs	r0, #0
 3790 004e 03E0     		b	.L485
 3791              	.L498:
 3792 0050 43B3     		cbz	r3, .L490
 3793 0052 102B     		cmp	r3, #16
 3794 0054 28D1     		bne	.L491
 3795 0056 0020     		movs	r0, #0
 3796              	.L485:
 3797 0058 10BD     		pop	{r4, pc}
 3798              	.L484:
 3799 005a 0B68     		ldr	r3, [r1]
 3800 005c 052B     		cmp	r3, #5
 3801 005e 29D0     		beq	.L494
 3802 0060 0368     		ldr	r3, [r0]
 3803 0062 1C6A     		ldr	r4, [r3, #32]
 3804 0064 1A6A     		ldr	r2, [r3, #32]
 3805 0066 22F00102 		bic	r2, r2, #1
 3806 006a 1A62     		str	r2, [r3, #32]
 3807 006c 0268     		ldr	r2, [r0]
 3808 006e 9369     		ldr	r3, [r2, #24]
 3809 0070 23F0F003 		bic	r3, r3, #240
 3810 0074 0969     		ldr	r1, [r1, #16]
 3811 0076 43EA0113 		orr	r3, r3, r1, lsl #4
 3812 007a 9361     		str	r3, [r2, #24]
 3813 007c 0368     		ldr	r3, [r0]
 3814 007e 1C62     		str	r4, [r3, #32]
 3815 0080 0020     		movs	r0, #0
 3816 0082 E9E7     		b	.L485
 3817              	.L482:
 3818 0084 0A69     		ldr	r2, [r1, #16]
 3819 0086 8968     		ldr	r1, [r1, #8]
 3820 0088 0068     		ldr	r0, [r0]
 3821 008a FFF7FEFF 		bl	TIM_TI1_ConfigInputStage
 3822 008e 0020     		movs	r0, #0
 3823 0090 E2E7     		b	.L485
ARM GAS  C:\Temp\ccF97kYR.s 			page 65


 3824              	.L487:
 3825 0092 0A69     		ldr	r2, [r1, #16]
 3826 0094 8968     		ldr	r1, [r1, #8]
 3827 0096 0068     		ldr	r0, [r0]
 3828 0098 FFF7FEFF 		bl	TIM_TI2_ConfigInputStage
 3829 009c 0020     		movs	r0, #0
 3830 009e DBE7     		b	.L485
 3831              	.L489:
 3832 00a0 0020     		movs	r0, #0
 3833 00a2 D9E7     		b	.L485
 3834              	.L490:
 3835 00a4 0020     		movs	r0, #0
 3836 00a6 D7E7     		b	.L485
 3837              	.L491:
 3838 00a8 0120     		movs	r0, #1
 3839 00aa D5E7     		b	.L485
 3840              	.L492:
 3841 00ac 0120     		movs	r0, #1
 3842 00ae D3E7     		b	.L485
 3843              	.L493:
 3844 00b0 0120     		movs	r0, #1
 3845 00b2 D1E7     		b	.L485
 3846              	.L494:
 3847 00b4 0120     		movs	r0, #1
 3848 00b6 CFE7     		b	.L485
 3850              		.section	.text.HAL_TIM_SlaveConfigSynchro,"ax",%progbits
 3851              		.align	1
 3852              		.global	HAL_TIM_SlaveConfigSynchro
 3853              		.syntax unified
 3854              		.thumb
 3855              		.thumb_func
 3857              	HAL_TIM_SlaveConfigSynchro:
 3858              		@ args = 0, pretend = 0, frame = 0
 3859              		@ frame_needed = 0, uses_anonymous_args = 0
 3860 0000 90F83C30 		ldrb	r3, [r0, #60]	@ zero_extendqisi2
 3861 0004 012B     		cmp	r3, #1
 3862 0006 22D0     		beq	.L502
 3863 0008 10B5     		push	{r4, lr}
 3864 000a 0446     		mov	r4, r0
 3865 000c 0123     		movs	r3, #1
 3866 000e 80F83C30 		strb	r3, [r0, #60]
 3867 0012 0223     		movs	r3, #2
 3868 0014 80F83D30 		strb	r3, [r0, #61]
 3869 0018 FFF7FEFF 		bl	TIM_SlaveTimer_SetConfig
 3870 001c 80B9     		cbnz	r0, .L507
 3871 001e 2268     		ldr	r2, [r4]
 3872 0020 D368     		ldr	r3, [r2, #12]
 3873 0022 23F04003 		bic	r3, r3, #64
 3874 0026 D360     		str	r3, [r2, #12]
 3875 0028 2268     		ldr	r2, [r4]
 3876 002a D368     		ldr	r3, [r2, #12]
 3877 002c 23F48043 		bic	r3, r3, #16384
 3878 0030 D360     		str	r3, [r2, #12]
 3879 0032 0123     		movs	r3, #1
 3880 0034 84F83D30 		strb	r3, [r4, #61]
 3881 0038 0023     		movs	r3, #0
 3882 003a 84F83C30 		strb	r3, [r4, #60]
ARM GAS  C:\Temp\ccF97kYR.s 			page 66


 3883              	.L500:
 3884 003e 10BD     		pop	{r4, pc}
 3885              	.L507:
 3886 0040 0120     		movs	r0, #1
 3887 0042 84F83D00 		strb	r0, [r4, #61]
 3888 0046 0023     		movs	r3, #0
 3889 0048 84F83C30 		strb	r3, [r4, #60]
 3890 004c F7E7     		b	.L500
 3891              	.L502:
 3892 004e 0220     		movs	r0, #2
 3893 0050 7047     		bx	lr
 3895              		.section	.text.HAL_TIM_SlaveConfigSynchro_IT,"ax",%progbits
 3896              		.align	1
 3897              		.global	HAL_TIM_SlaveConfigSynchro_IT
 3898              		.syntax unified
 3899              		.thumb
 3900              		.thumb_func
 3902              	HAL_TIM_SlaveConfigSynchro_IT:
 3903              		@ args = 0, pretend = 0, frame = 0
 3904              		@ frame_needed = 0, uses_anonymous_args = 0
 3905 0000 90F83C30 		ldrb	r3, [r0, #60]	@ zero_extendqisi2
 3906 0004 012B     		cmp	r3, #1
 3907 0006 22D0     		beq	.L511
 3908 0008 10B5     		push	{r4, lr}
 3909 000a 0446     		mov	r4, r0
 3910 000c 0123     		movs	r3, #1
 3911 000e 80F83C30 		strb	r3, [r0, #60]
 3912 0012 0223     		movs	r3, #2
 3913 0014 80F83D30 		strb	r3, [r0, #61]
 3914 0018 FFF7FEFF 		bl	TIM_SlaveTimer_SetConfig
 3915 001c 80B9     		cbnz	r0, .L516
 3916 001e 2268     		ldr	r2, [r4]
 3917 0020 D368     		ldr	r3, [r2, #12]
 3918 0022 43F04003 		orr	r3, r3, #64
 3919 0026 D360     		str	r3, [r2, #12]
 3920 0028 2268     		ldr	r2, [r4]
 3921 002a D368     		ldr	r3, [r2, #12]
 3922 002c 23F48043 		bic	r3, r3, #16384
 3923 0030 D360     		str	r3, [r2, #12]
 3924 0032 0123     		movs	r3, #1
 3925 0034 84F83D30 		strb	r3, [r4, #61]
 3926 0038 0023     		movs	r3, #0
 3927 003a 84F83C30 		strb	r3, [r4, #60]
 3928              	.L509:
 3929 003e 10BD     		pop	{r4, pc}
 3930              	.L516:
 3931 0040 0120     		movs	r0, #1
 3932 0042 84F83D00 		strb	r0, [r4, #61]
 3933 0046 0023     		movs	r3, #0
 3934 0048 84F83C30 		strb	r3, [r4, #60]
 3935 004c F7E7     		b	.L509
 3936              	.L511:
 3937 004e 0220     		movs	r0, #2
 3938 0050 7047     		bx	lr
 3940              		.section	.text.TIM_CCxChannelCmd,"ax",%progbits
 3941              		.align	1
 3942              		.global	TIM_CCxChannelCmd
ARM GAS  C:\Temp\ccF97kYR.s 			page 67


 3943              		.syntax unified
 3944              		.thumb
 3945              		.thumb_func
 3947              	TIM_CCxChannelCmd:
 3948              		@ args = 0, pretend = 0, frame = 0
 3949              		@ frame_needed = 0, uses_anonymous_args = 0
 3950              		@ link register save eliminated.
 3951 0000 01F01F01 		and	r1, r1, #31
 3952 0004 4FF0010C 		mov	ip, #1
 3953 0008 0CFA01FC 		lsl	ip, ip, r1
 3954 000c 036A     		ldr	r3, [r0, #32]
 3955 000e 23EA0C03 		bic	r3, r3, ip
 3956 0012 0362     		str	r3, [r0, #32]
 3957 0014 036A     		ldr	r3, [r0, #32]
 3958 0016 8A40     		lsls	r2, r2, r1
 3959 0018 1343     		orrs	r3, r3, r2
 3960 001a 0362     		str	r3, [r0, #32]
 3961 001c 7047     		bx	lr
 3963              		.section	.text.HAL_TIM_OC_Start,"ax",%progbits
 3964              		.align	1
 3965              		.global	HAL_TIM_OC_Start
 3966              		.syntax unified
 3967              		.thumb
 3968              		.thumb_func
 3970              	HAL_TIM_OC_Start:
 3971              		@ args = 0, pretend = 0, frame = 0
 3972              		@ frame_needed = 0, uses_anonymous_args = 0
 3973 0000 10B5     		push	{r4, lr}
 3974 0002 0446     		mov	r4, r0
 3975 0004 0846     		mov	r0, r1
 3976 0006 0029     		cmp	r1, #0
 3977 0008 32D1     		bne	.L519
 3978 000a 94F83E30 		ldrb	r3, [r4, #62]	@ zero_extendqisi2
 3979 000e DBB2     		uxtb	r3, r3
 3980 0010 013B     		subs	r3, r3, #1
 3981 0012 18BF     		it	ne
 3982 0014 0123     		movne	r3, #1
 3983              	.L520:
 3984 0016 002B     		cmp	r3, #0
 3985 0018 63D1     		bne	.L531
 3986 001a 0028     		cmp	r0, #0
 3987 001c 41D1     		bne	.L524
 3988 001e 0223     		movs	r3, #2
 3989 0020 84F83E30 		strb	r3, [r4, #62]
 3990              	.L525:
 3991 0024 0122     		movs	r2, #1
 3992 0026 0146     		mov	r1, r0
 3993 0028 2068     		ldr	r0, [r4]
 3994 002a FFF7FEFF 		bl	TIM_CCxChannelCmd
 3995 002e 2368     		ldr	r3, [r4]
 3996 0030 2E4A     		ldr	r2, .L539
 3997 0032 9342     		cmp	r3, r2
 3998 0034 45D0     		beq	.L534
 3999              	.L528:
 4000 0036 2368     		ldr	r3, [r4]
 4001 0038 2C4A     		ldr	r2, .L539
 4002 003a 9342     		cmp	r3, r2
ARM GAS  C:\Temp\ccF97kYR.s 			page 68


 4003 003c 46D0     		beq	.L529
 4004 003e B3F1804F 		cmp	r3, #1073741824
 4005 0042 43D0     		beq	.L529
 4006 0044 A2F57C42 		sub	r2, r2, #64512
 4007 0048 9342     		cmp	r3, r2
 4008 004a 3FD0     		beq	.L529
 4009 004c 02F58062 		add	r2, r2, #1024
 4010 0050 9342     		cmp	r3, r2
 4011 0052 3BD0     		beq	.L529
 4012 0054 02F58062 		add	r2, r2, #1024
 4013 0058 9342     		cmp	r3, r2
 4014 005a 37D0     		beq	.L529
 4015 005c 02F59A32 		add	r2, r2, #78848
 4016 0060 9342     		cmp	r3, r2
 4017 0062 33D0     		beq	.L529
 4018 0064 1A68     		ldr	r2, [r3]
 4019 0066 42F00102 		orr	r2, r2, #1
 4020 006a 1A60     		str	r2, [r3]
 4021 006c 0020     		movs	r0, #0
 4022 006e 37E0     		b	.L523
 4023              	.L519:
 4024 0070 0429     		cmp	r1, #4
 4025 0072 08D0     		beq	.L535
 4026 0074 0829     		cmp	r1, #8
 4027 0076 0DD0     		beq	.L536
 4028 0078 94F84130 		ldrb	r3, [r4, #65]	@ zero_extendqisi2
 4029 007c DBB2     		uxtb	r3, r3
 4030 007e 013B     		subs	r3, r3, #1
 4031 0080 18BF     		it	ne
 4032 0082 0123     		movne	r3, #1
 4033 0084 C7E7     		b	.L520
 4034              	.L535:
 4035 0086 94F83F30 		ldrb	r3, [r4, #63]	@ zero_extendqisi2
 4036 008a DBB2     		uxtb	r3, r3
 4037 008c 013B     		subs	r3, r3, #1
 4038 008e 18BF     		it	ne
 4039 0090 0123     		movne	r3, #1
 4040 0092 C0E7     		b	.L520
 4041              	.L536:
 4042 0094 94F84030 		ldrb	r3, [r4, #64]	@ zero_extendqisi2
 4043 0098 DBB2     		uxtb	r3, r3
 4044 009a 013B     		subs	r3, r3, #1
 4045 009c 18BF     		it	ne
 4046 009e 0123     		movne	r3, #1
 4047 00a0 B9E7     		b	.L520
 4048              	.L524:
 4049 00a2 0428     		cmp	r0, #4
 4050 00a4 05D0     		beq	.L537
 4051 00a6 0828     		cmp	r0, #8
 4052 00a8 07D0     		beq	.L538
 4053 00aa 0223     		movs	r3, #2
 4054 00ac 84F84130 		strb	r3, [r4, #65]
 4055 00b0 B8E7     		b	.L525
 4056              	.L537:
 4057 00b2 0223     		movs	r3, #2
 4058 00b4 84F83F30 		strb	r3, [r4, #63]
 4059 00b8 B4E7     		b	.L525
ARM GAS  C:\Temp\ccF97kYR.s 			page 69


 4060              	.L538:
 4061 00ba 0223     		movs	r3, #2
 4062 00bc 84F84030 		strb	r3, [r4, #64]
 4063 00c0 B0E7     		b	.L525
 4064              	.L534:
 4065 00c2 5A6C     		ldr	r2, [r3, #68]
 4066 00c4 42F40042 		orr	r2, r2, #32768
 4067 00c8 5A64     		str	r2, [r3, #68]
 4068 00ca B4E7     		b	.L528
 4069              	.L529:
 4070 00cc 9A68     		ldr	r2, [r3, #8]
 4071 00ce 02F00702 		and	r2, r2, #7
 4072 00d2 062A     		cmp	r2, #6
 4073 00d4 07D0     		beq	.L532
 4074 00d6 1A68     		ldr	r2, [r3]
 4075 00d8 42F00102 		orr	r2, r2, #1
 4076 00dc 1A60     		str	r2, [r3]
 4077 00de 0020     		movs	r0, #0
 4078              	.L523:
 4079 00e0 10BD     		pop	{r4, pc}
 4080              	.L531:
 4081 00e2 0120     		movs	r0, #1
 4082 00e4 FCE7     		b	.L523
 4083              	.L532:
 4084 00e6 0020     		movs	r0, #0
 4085 00e8 FAE7     		b	.L523
 4086              	.L540:
 4087 00ea 00BF     		.align	2
 4088              	.L539:
 4089 00ec 00000140 		.word	1073807360
 4091              		.section	.text.HAL_TIM_OC_Stop,"ax",%progbits
 4092              		.align	1
 4093              		.global	HAL_TIM_OC_Stop
 4094              		.syntax unified
 4095              		.thumb
 4096              		.thumb_func
 4098              	HAL_TIM_OC_Stop:
 4099              		@ args = 0, pretend = 0, frame = 0
 4100              		@ frame_needed = 0, uses_anonymous_args = 0
 4101 0000 38B5     		push	{r3, r4, r5, lr}
 4102 0002 0446     		mov	r4, r0
 4103 0004 0D46     		mov	r5, r1
 4104 0006 0022     		movs	r2, #0
 4105 0008 0068     		ldr	r0, [r0]
 4106 000a FFF7FEFF 		bl	TIM_CCxChannelCmd
 4107 000e 2368     		ldr	r3, [r4]
 4108 0010 1B4A     		ldr	r2, .L552
 4109 0012 9342     		cmp	r3, r2
 4110 0014 14D0     		beq	.L549
 4111              	.L542:
 4112 0016 2368     		ldr	r3, [r4]
 4113 0018 196A     		ldr	r1, [r3, #32]
 4114 001a 41F21112 		movw	r2, #4369
 4115 001e 1142     		tst	r1, r2
 4116 0020 08D1     		bne	.L543
 4117 0022 196A     		ldr	r1, [r3, #32]
 4118 0024 40F24442 		movw	r2, #1092
ARM GAS  C:\Temp\ccF97kYR.s 			page 70


 4119 0028 1142     		tst	r1, r2
 4120 002a 03D1     		bne	.L543
 4121 002c 1A68     		ldr	r2, [r3]
 4122 002e 22F00102 		bic	r2, r2, #1
 4123 0032 1A60     		str	r2, [r3]
 4124              	.L543:
 4125 0034 9DB9     		cbnz	r5, .L544
 4126 0036 0123     		movs	r3, #1
 4127 0038 84F83E30 		strb	r3, [r4, #62]
 4128              	.L545:
 4129 003c 0020     		movs	r0, #0
 4130 003e 38BD     		pop	{r3, r4, r5, pc}
 4131              	.L549:
 4132 0040 196A     		ldr	r1, [r3, #32]
 4133 0042 41F21112 		movw	r2, #4369
 4134 0046 1142     		tst	r1, r2
 4135 0048 E5D1     		bne	.L542
 4136 004a 196A     		ldr	r1, [r3, #32]
 4137 004c 40F24442 		movw	r2, #1092
 4138 0050 1142     		tst	r1, r2
 4139 0052 E0D1     		bne	.L542
 4140 0054 5A6C     		ldr	r2, [r3, #68]
 4141 0056 22F40042 		bic	r2, r2, #32768
 4142 005a 5A64     		str	r2, [r3, #68]
 4143 005c DBE7     		b	.L542
 4144              	.L544:
 4145 005e 042D     		cmp	r5, #4
 4146 0060 05D0     		beq	.L550
 4147 0062 082D     		cmp	r5, #8
 4148 0064 07D0     		beq	.L551
 4149 0066 0123     		movs	r3, #1
 4150 0068 84F84130 		strb	r3, [r4, #65]
 4151 006c E6E7     		b	.L545
 4152              	.L550:
 4153 006e 0123     		movs	r3, #1
 4154 0070 84F83F30 		strb	r3, [r4, #63]
 4155 0074 E2E7     		b	.L545
 4156              	.L551:
 4157 0076 0123     		movs	r3, #1
 4158 0078 84F84030 		strb	r3, [r4, #64]
 4159 007c DEE7     		b	.L545
 4160              	.L553:
 4161 007e 00BF     		.align	2
 4162              	.L552:
 4163 0080 00000140 		.word	1073807360
 4165              		.section	.text.HAL_TIM_OC_Start_IT,"ax",%progbits
 4166              		.align	1
 4167              		.global	HAL_TIM_OC_Start_IT
 4168              		.syntax unified
 4169              		.thumb
 4170              		.thumb_func
 4172              	HAL_TIM_OC_Start_IT:
 4173              		@ args = 0, pretend = 0, frame = 0
 4174              		@ frame_needed = 0, uses_anonymous_args = 0
 4175 0000 10B5     		push	{r4, lr}
 4176 0002 0446     		mov	r4, r0
 4177 0004 0846     		mov	r0, r1
ARM GAS  C:\Temp\ccF97kYR.s 			page 71


 4178 0006 0029     		cmp	r1, #0
 4179 0008 38D1     		bne	.L555
 4180 000a 94F83E30 		ldrb	r3, [r4, #62]	@ zero_extendqisi2
 4181 000e DBB2     		uxtb	r3, r3
 4182 0010 013B     		subs	r3, r3, #1
 4183 0012 18BF     		it	ne
 4184 0014 0123     		movne	r3, #1
 4185              	.L556:
 4186 0016 002B     		cmp	r3, #0
 4187 0018 40F09880 		bne	.L572
 4188 001c 0028     		cmp	r0, #0
 4189 001e 46D1     		bne	.L560
 4190 0020 0223     		movs	r3, #2
 4191 0022 84F83E30 		strb	r3, [r4, #62]
 4192              	.L561:
 4193 0026 2268     		ldr	r2, [r4]
 4194 0028 D368     		ldr	r3, [r2, #12]
 4195 002a 43F00203 		orr	r3, r3, #2
 4196 002e D360     		str	r3, [r2, #12]
 4197              	.L568:
 4198 0030 0122     		movs	r2, #1
 4199 0032 0146     		mov	r1, r0
 4200 0034 2068     		ldr	r0, [r4]
 4201 0036 FFF7FEFF 		bl	TIM_CCxChannelCmd
 4202 003a 2368     		ldr	r3, [r4]
 4203 003c 464A     		ldr	r2, .L584
 4204 003e 9342     		cmp	r3, r2
 4205 0040 74D0     		beq	.L579
 4206              	.L569:
 4207 0042 2368     		ldr	r3, [r4]
 4208 0044 444A     		ldr	r2, .L584
 4209 0046 9342     		cmp	r3, r2
 4210 0048 75D0     		beq	.L570
 4211 004a B3F1804F 		cmp	r3, #1073741824
 4212 004e 72D0     		beq	.L570
 4213 0050 A2F57C42 		sub	r2, r2, #64512
 4214 0054 9342     		cmp	r3, r2
 4215 0056 6ED0     		beq	.L570
 4216 0058 02F58062 		add	r2, r2, #1024
 4217 005c 9342     		cmp	r3, r2
 4218 005e 6AD0     		beq	.L570
 4219 0060 02F58062 		add	r2, r2, #1024
 4220 0064 9342     		cmp	r3, r2
 4221 0066 66D0     		beq	.L570
 4222 0068 02F59A32 		add	r2, r2, #78848
 4223 006c 9342     		cmp	r3, r2
 4224 006e 62D0     		beq	.L570
 4225 0070 1A68     		ldr	r2, [r3]
 4226 0072 42F00102 		orr	r2, r2, #1
 4227 0076 1A60     		str	r2, [r3]
 4228 0078 0020     		movs	r0, #0
 4229 007a 66E0     		b	.L559
 4230              	.L555:
 4231 007c 0429     		cmp	r1, #4
 4232 007e 08D0     		beq	.L580
 4233 0080 0829     		cmp	r1, #8
 4234 0082 0DD0     		beq	.L581
ARM GAS  C:\Temp\ccF97kYR.s 			page 72


 4235 0084 94F84130 		ldrb	r3, [r4, #65]	@ zero_extendqisi2
 4236 0088 DBB2     		uxtb	r3, r3
 4237 008a 013B     		subs	r3, r3, #1
 4238 008c 18BF     		it	ne
 4239 008e 0123     		movne	r3, #1
 4240 0090 C1E7     		b	.L556
 4241              	.L580:
 4242 0092 94F83F30 		ldrb	r3, [r4, #63]	@ zero_extendqisi2
 4243 0096 DBB2     		uxtb	r3, r3
 4244 0098 013B     		subs	r3, r3, #1
 4245 009a 18BF     		it	ne
 4246 009c 0123     		movne	r3, #1
 4247 009e BAE7     		b	.L556
 4248              	.L581:
 4249 00a0 94F84030 		ldrb	r3, [r4, #64]	@ zero_extendqisi2
 4250 00a4 DBB2     		uxtb	r3, r3
 4251 00a6 013B     		subs	r3, r3, #1
 4252 00a8 18BF     		it	ne
 4253 00aa 0123     		movne	r3, #1
 4254 00ac B3E7     		b	.L556
 4255              	.L560:
 4256 00ae 0428     		cmp	r0, #4
 4257 00b0 24D0     		beq	.L582
 4258 00b2 0828     		cmp	r0, #8
 4259 00b4 2BD0     		beq	.L583
 4260 00b6 0223     		movs	r3, #2
 4261 00b8 84F84130 		strb	r3, [r4, #65]
 4262 00bc 0C28     		cmp	r0, #12
 4263 00be 47D8     		bhi	.L573
 4264 00c0 01A3     		adr	r3, .L567
 4265 00c2 53F820F0 		ldr	pc, [r3, r0, lsl #2]
 4266 00c6 00BF     		.p2align 2
 4267              	.L567:
 4268 00c8 27000000 		.word	.L561+1
 4269 00cc 51010000 		.word	.L573+1
 4270 00d0 51010000 		.word	.L573+1
 4271 00d4 51010000 		.word	.L573+1
 4272 00d8 03010000 		.word	.L563+1
 4273 00dc 51010000 		.word	.L573+1
 4274 00e0 51010000 		.word	.L573+1
 4275 00e4 51010000 		.word	.L573+1
 4276 00e8 15010000 		.word	.L565+1
 4277 00ec 51010000 		.word	.L573+1
 4278 00f0 51010000 		.word	.L573+1
 4279 00f4 51010000 		.word	.L573+1
 4280 00f8 21010000 		.word	.L566+1
 4281              		.p2align 1
 4282              	.L582:
 4283 00fc 0223     		movs	r3, #2
 4284 00fe 84F83F30 		strb	r3, [r4, #63]
 4285              	.L563:
 4286 0102 2268     		ldr	r2, [r4]
 4287 0104 D368     		ldr	r3, [r2, #12]
 4288 0106 43F00403 		orr	r3, r3, #4
 4289 010a D360     		str	r3, [r2, #12]
 4290 010c 90E7     		b	.L568
 4291              	.L583:
ARM GAS  C:\Temp\ccF97kYR.s 			page 73


 4292 010e 0223     		movs	r3, #2
 4293 0110 84F84030 		strb	r3, [r4, #64]
 4294              	.L565:
 4295 0114 2268     		ldr	r2, [r4]
 4296 0116 D368     		ldr	r3, [r2, #12]
 4297 0118 43F00803 		orr	r3, r3, #8
 4298 011c D360     		str	r3, [r2, #12]
 4299 011e 87E7     		b	.L568
 4300              	.L566:
 4301 0120 2268     		ldr	r2, [r4]
 4302 0122 D368     		ldr	r3, [r2, #12]
 4303 0124 43F01003 		orr	r3, r3, #16
 4304 0128 D360     		str	r3, [r2, #12]
 4305 012a 81E7     		b	.L568
 4306              	.L579:
 4307 012c 5A6C     		ldr	r2, [r3, #68]
 4308 012e 42F40042 		orr	r2, r2, #32768
 4309 0132 5A64     		str	r2, [r3, #68]
 4310 0134 85E7     		b	.L569
 4311              	.L570:
 4312 0136 9A68     		ldr	r2, [r3, #8]
 4313 0138 02F00702 		and	r2, r2, #7
 4314 013c 062A     		cmp	r2, #6
 4315 013e 09D0     		beq	.L574
 4316 0140 1A68     		ldr	r2, [r3]
 4317 0142 42F00102 		orr	r2, r2, #1
 4318 0146 1A60     		str	r2, [r3]
 4319 0148 0020     		movs	r0, #0
 4320              	.L559:
 4321 014a 10BD     		pop	{r4, pc}
 4322              	.L572:
 4323 014c 0120     		movs	r0, #1
 4324 014e FCE7     		b	.L559
 4325              	.L573:
 4326 0150 0120     		movs	r0, #1
 4327 0152 FAE7     		b	.L559
 4328              	.L574:
 4329 0154 0020     		movs	r0, #0
 4330 0156 F8E7     		b	.L559
 4331              	.L585:
 4332              		.align	2
 4333              	.L584:
 4334 0158 00000140 		.word	1073807360
 4336              		.section	.text.HAL_TIM_OC_Stop_IT,"ax",%progbits
 4337              		.align	1
 4338              		.global	HAL_TIM_OC_Stop_IT
 4339              		.syntax unified
 4340              		.thumb
 4341              		.thumb_func
 4343              	HAL_TIM_OC_Stop_IT:
 4344              		@ args = 0, pretend = 0, frame = 0
 4345              		@ frame_needed = 0, uses_anonymous_args = 0
 4346 0000 38B5     		push	{r3, r4, r5, lr}
 4347 0002 0546     		mov	r5, r0
 4348 0004 0C46     		mov	r4, r1
 4349 0006 0C29     		cmp	r1, #12
 4350 0008 5FD8     		bhi	.L599
ARM GAS  C:\Temp\ccF97kYR.s 			page 74


 4351 000a DFE801F0 		tbb	[pc, r1]
 4352              	.L589:
 4353 000e 07       		.byte	(.L592-.L589)/2
 4354 000f 5E       		.byte	(.L599-.L589)/2
 4355 0010 5E       		.byte	(.L599-.L589)/2
 4356 0011 5E       		.byte	(.L599-.L589)/2
 4357 0012 2A       		.byte	(.L591-.L589)/2
 4358 0013 5E       		.byte	(.L599-.L589)/2
 4359 0014 5E       		.byte	(.L599-.L589)/2
 4360 0015 5E       		.byte	(.L599-.L589)/2
 4361 0016 30       		.byte	(.L590-.L589)/2
 4362 0017 5E       		.byte	(.L599-.L589)/2
 4363 0018 5E       		.byte	(.L599-.L589)/2
 4364 0019 5E       		.byte	(.L599-.L589)/2
 4365 001a 36       		.byte	(.L588-.L589)/2
 4366 001b 00       		.p2align 1
 4367              	.L592:
 4368 001c 0268     		ldr	r2, [r0]
 4369 001e D368     		ldr	r3, [r2, #12]
 4370 0020 23F00203 		bic	r3, r3, #2
 4371 0024 D360     		str	r3, [r2, #12]
 4372              	.L593:
 4373 0026 0022     		movs	r2, #0
 4374 0028 2146     		mov	r1, r4
 4375 002a 2868     		ldr	r0, [r5]
 4376 002c FFF7FEFF 		bl	TIM_CCxChannelCmd
 4377 0030 2B68     		ldr	r3, [r5]
 4378 0032 274A     		ldr	r2, .L604
 4379 0034 9342     		cmp	r3, r2
 4380 0036 26D0     		beq	.L601
 4381              	.L594:
 4382 0038 2B68     		ldr	r3, [r5]
 4383 003a 196A     		ldr	r1, [r3, #32]
 4384 003c 41F21112 		movw	r2, #4369
 4385 0040 1142     		tst	r1, r2
 4386 0042 08D1     		bne	.L595
 4387 0044 196A     		ldr	r1, [r3, #32]
 4388 0046 40F24442 		movw	r2, #1092
 4389 004a 1142     		tst	r1, r2
 4390 004c 03D1     		bne	.L595
 4391 004e 1A68     		ldr	r2, [r3]
 4392 0050 22F00102 		bic	r2, r2, #1
 4393 0054 1A60     		str	r2, [r3]
 4394              	.L595:
 4395 0056 2CBB     		cbnz	r4, .L596
 4396 0058 0123     		movs	r3, #1
 4397 005a 85F83E30 		strb	r3, [r5, #62]
 4398 005e 0020     		movs	r0, #0
 4399 0060 34E0     		b	.L587
 4400              	.L591:
 4401 0062 0268     		ldr	r2, [r0]
 4402 0064 D368     		ldr	r3, [r2, #12]
 4403 0066 23F00403 		bic	r3, r3, #4
 4404 006a D360     		str	r3, [r2, #12]
 4405 006c DBE7     		b	.L593
 4406              	.L590:
 4407 006e 0268     		ldr	r2, [r0]
ARM GAS  C:\Temp\ccF97kYR.s 			page 75


 4408 0070 D368     		ldr	r3, [r2, #12]
 4409 0072 23F00803 		bic	r3, r3, #8
 4410 0076 D360     		str	r3, [r2, #12]
 4411 0078 D5E7     		b	.L593
 4412              	.L588:
 4413 007a 0268     		ldr	r2, [r0]
 4414 007c D368     		ldr	r3, [r2, #12]
 4415 007e 23F01003 		bic	r3, r3, #16
 4416 0082 D360     		str	r3, [r2, #12]
 4417 0084 CFE7     		b	.L593
 4418              	.L601:
 4419 0086 196A     		ldr	r1, [r3, #32]
 4420 0088 41F21112 		movw	r2, #4369
 4421 008c 1142     		tst	r1, r2
 4422 008e D3D1     		bne	.L594
 4423 0090 196A     		ldr	r1, [r3, #32]
 4424 0092 40F24442 		movw	r2, #1092
 4425 0096 1142     		tst	r1, r2
 4426 0098 CED1     		bne	.L594
 4427 009a 5A6C     		ldr	r2, [r3, #68]
 4428 009c 22F40042 		bic	r2, r2, #32768
 4429 00a0 5A64     		str	r2, [r3, #68]
 4430 00a2 C9E7     		b	.L594
 4431              	.L596:
 4432 00a4 042C     		cmp	r4, #4
 4433 00a6 06D0     		beq	.L602
 4434 00a8 082C     		cmp	r4, #8
 4435 00aa 09D0     		beq	.L603
 4436 00ac 0123     		movs	r3, #1
 4437 00ae 85F84130 		strb	r3, [r5, #65]
 4438 00b2 0020     		movs	r0, #0
 4439 00b4 0AE0     		b	.L587
 4440              	.L602:
 4441 00b6 0123     		movs	r3, #1
 4442 00b8 85F83F30 		strb	r3, [r5, #63]
 4443 00bc 0020     		movs	r0, #0
 4444 00be 05E0     		b	.L587
 4445              	.L603:
 4446 00c0 0123     		movs	r3, #1
 4447 00c2 85F84030 		strb	r3, [r5, #64]
 4448 00c6 0020     		movs	r0, #0
 4449 00c8 00E0     		b	.L587
 4450              	.L599:
 4451 00ca 0120     		movs	r0, #1
 4452              	.L587:
 4453 00cc 38BD     		pop	{r3, r4, r5, pc}
 4454              	.L605:
 4455 00ce 00BF     		.align	2
 4456              	.L604:
 4457 00d0 00000140 		.word	1073807360
 4459              		.section	.text.HAL_TIM_OC_Start_DMA,"ax",%progbits
 4460              		.align	1
 4461              		.global	HAL_TIM_OC_Start_DMA
 4462              		.syntax unified
 4463              		.thumb
 4464              		.thumb_func
 4466              	HAL_TIM_OC_Start_DMA:
ARM GAS  C:\Temp\ccF97kYR.s 			page 76


 4467              		@ args = 0, pretend = 0, frame = 0
 4468              		@ frame_needed = 0, uses_anonymous_args = 0
 4469 0000 70B5     		push	{r4, r5, r6, lr}
 4470 0002 0446     		mov	r4, r0
 4471 0004 1646     		mov	r6, r2
 4472 0006 0D46     		mov	r5, r1
 4473 0008 0029     		cmp	r1, #0
 4474 000a 64D1     		bne	.L607
 4475 000c 90F83E00 		ldrb	r0, [r0, #62]	@ zero_extendqisi2
 4476 0010 C0B2     		uxtb	r0, r0
 4477 0012 0228     		cmp	r0, #2
 4478 0014 14BF     		ite	ne
 4479 0016 0020     		movne	r0, #0
 4480 0018 0120     		moveq	r0, #1
 4481              	.L608:
 4482 001a 0028     		cmp	r0, #0
 4483 001c 40F01481 		bne	.L628
 4484 0020 002D     		cmp	r5, #0
 4485 0022 74D1     		bne	.L612
 4486 0024 94F83E20 		ldrb	r2, [r4, #62]	@ zero_extendqisi2
 4487 0028 D2B2     		uxtb	r2, r2
 4488 002a 012A     		cmp	r2, #1
 4489 002c 14BF     		ite	ne
 4490 002e 0022     		movne	r2, #0
 4491 0030 0122     		moveq	r2, #1
 4492              	.L613:
 4493 0032 002A     		cmp	r2, #0
 4494 0034 00F00A81 		beq	.L629
 4495 0038 002E     		cmp	r6, #0
 4496 003a 00F00981 		beq	.L630
 4497 003e 002B     		cmp	r3, #0
 4498 0040 00F00881 		beq	.L631
 4499 0044 002D     		cmp	r5, #0
 4500 0046 7ED1     		bne	.L616
 4501 0048 0222     		movs	r2, #2
 4502 004a 84F83E20 		strb	r2, [r4, #62]
 4503              	.L617:
 4504 004e 626A     		ldr	r2, [r4, #36]
 4505 0050 8749     		ldr	r1, .L649
 4506 0052 D163     		str	r1, [r2, #60]
 4507 0054 626A     		ldr	r2, [r4, #36]
 4508 0056 8749     		ldr	r1, .L649+4
 4509 0058 1164     		str	r1, [r2, #64]
 4510 005a 626A     		ldr	r2, [r4, #36]
 4511 005c 8649     		ldr	r1, .L649+8
 4512 005e D164     		str	r1, [r2, #76]
 4513 0060 2268     		ldr	r2, [r4]
 4514 0062 3432     		adds	r2, r2, #52
 4515 0064 3146     		mov	r1, r6
 4516 0066 606A     		ldr	r0, [r4, #36]
 4517 0068 FFF7FEFF 		bl	HAL_DMA_Start_IT
 4518 006c 0028     		cmp	r0, #0
 4519 006e 40F0F580 		bne	.L633
 4520 0072 2268     		ldr	r2, [r4]
 4521 0074 D368     		ldr	r3, [r2, #12]
 4522 0076 43F40073 		orr	r3, r3, #512
 4523 007a D360     		str	r3, [r2, #12]
ARM GAS  C:\Temp\ccF97kYR.s 			page 77


 4524              	.L624:
 4525 007c 0122     		movs	r2, #1
 4526 007e 2946     		mov	r1, r5
 4527 0080 2068     		ldr	r0, [r4]
 4528 0082 FFF7FEFF 		bl	TIM_CCxChannelCmd
 4529 0086 2368     		ldr	r3, [r4]
 4530 0088 7C4A     		ldr	r2, .L649+12
 4531 008a 9342     		cmp	r3, r2
 4532 008c 00F0CC80 		beq	.L642
 4533              	.L625:
 4534 0090 2368     		ldr	r3, [r4]
 4535 0092 7A4A     		ldr	r2, .L649+12
 4536 0094 9342     		cmp	r3, r2
 4537 0096 00F0CC80 		beq	.L626
 4538 009a B3F1804F 		cmp	r3, #1073741824
 4539 009e 00F0C880 		beq	.L626
 4540 00a2 A2F57C42 		sub	r2, r2, #64512
 4541 00a6 9342     		cmp	r3, r2
 4542 00a8 00F0C380 		beq	.L626
 4543 00ac 02F58062 		add	r2, r2, #1024
 4544 00b0 9342     		cmp	r3, r2
 4545 00b2 00F0BE80 		beq	.L626
 4546 00b6 02F58062 		add	r2, r2, #1024
 4547 00ba 9342     		cmp	r3, r2
 4548 00bc 00F0B980 		beq	.L626
 4549 00c0 02F59A32 		add	r2, r2, #78848
 4550 00c4 9342     		cmp	r3, r2
 4551 00c6 00F0B480 		beq	.L626
 4552 00ca 1A68     		ldr	r2, [r3]
 4553 00cc 42F00102 		orr	r2, r2, #1
 4554 00d0 1A60     		str	r2, [r3]
 4555 00d2 0020     		movs	r0, #0
 4556 00d4 BBE0     		b	.L611
 4557              	.L607:
 4558 00d6 0429     		cmp	r1, #4
 4559 00d8 09D0     		beq	.L643
 4560 00da 0829     		cmp	r1, #8
 4561 00dc 0FD0     		beq	.L644
 4562 00de 90F84100 		ldrb	r0, [r0, #65]	@ zero_extendqisi2
 4563 00e2 C0B2     		uxtb	r0, r0
 4564 00e4 0228     		cmp	r0, #2
 4565 00e6 14BF     		ite	ne
 4566 00e8 0020     		movne	r0, #0
 4567 00ea 0120     		moveq	r0, #1
 4568 00ec 95E7     		b	.L608
 4569              	.L643:
 4570 00ee 90F83F00 		ldrb	r0, [r0, #63]	@ zero_extendqisi2
 4571 00f2 C0B2     		uxtb	r0, r0
 4572 00f4 0228     		cmp	r0, #2
 4573 00f6 14BF     		ite	ne
 4574 00f8 0020     		movne	r0, #0
 4575 00fa 0120     		moveq	r0, #1
 4576 00fc 8DE7     		b	.L608
 4577              	.L644:
 4578 00fe 90F84000 		ldrb	r0, [r0, #64]	@ zero_extendqisi2
 4579 0102 C0B2     		uxtb	r0, r0
 4580 0104 0228     		cmp	r0, #2
ARM GAS  C:\Temp\ccF97kYR.s 			page 78


 4581 0106 14BF     		ite	ne
 4582 0108 0020     		movne	r0, #0
 4583 010a 0120     		moveq	r0, #1
 4584 010c 85E7     		b	.L608
 4585              	.L612:
 4586 010e 042D     		cmp	r5, #4
 4587 0110 09D0     		beq	.L645
 4588 0112 082D     		cmp	r5, #8
 4589 0114 0FD0     		beq	.L646
 4590 0116 94F84120 		ldrb	r2, [r4, #65]	@ zero_extendqisi2
 4591 011a D2B2     		uxtb	r2, r2
 4592 011c 012A     		cmp	r2, #1
 4593 011e 14BF     		ite	ne
 4594 0120 0022     		movne	r2, #0
 4595 0122 0122     		moveq	r2, #1
 4596 0124 85E7     		b	.L613
 4597              	.L645:
 4598 0126 94F83F20 		ldrb	r2, [r4, #63]	@ zero_extendqisi2
 4599 012a D2B2     		uxtb	r2, r2
 4600 012c 012A     		cmp	r2, #1
 4601 012e 14BF     		ite	ne
 4602 0130 0022     		movne	r2, #0
 4603 0132 0122     		moveq	r2, #1
 4604 0134 7DE7     		b	.L613
 4605              	.L646:
 4606 0136 94F84020 		ldrb	r2, [r4, #64]	@ zero_extendqisi2
 4607 013a D2B2     		uxtb	r2, r2
 4608 013c 012A     		cmp	r2, #1
 4609 013e 14BF     		ite	ne
 4610 0140 0022     		movne	r2, #0
 4611 0142 0122     		moveq	r2, #1
 4612 0144 75E7     		b	.L613
 4613              	.L616:
 4614 0146 042D     		cmp	r5, #4
 4615 0148 24D0     		beq	.L647
 4616 014a 082D     		cmp	r5, #8
 4617 014c 3CD0     		beq	.L648
 4618 014e 0222     		movs	r2, #2
 4619 0150 84F84120 		strb	r2, [r4, #65]
 4620 0154 0C2D     		cmp	r5, #12
 4621 0156 7FD8     		bhi	.L632
 4622 0158 01A2     		adr	r2, .L623
 4623 015a 52F825F0 		ldr	pc, [r2, r5, lsl #2]
 4624 015e 00BF     		.p2align 2
 4625              	.L623:
 4626 0160 4F000000 		.word	.L617+1
 4627 0164 59020000 		.word	.L632+1
 4628 0168 59020000 		.word	.L632+1
 4629 016c 59020000 		.word	.L632+1
 4630 0170 9B010000 		.word	.L619+1
 4631 0174 59020000 		.word	.L632+1
 4632 0178 59020000 		.word	.L632+1
 4633 017c 59020000 		.word	.L632+1
 4634 0180 CF010000 		.word	.L621+1
 4635 0184 59020000 		.word	.L632+1
 4636 0188 59020000 		.word	.L632+1
 4637 018c 59020000 		.word	.L632+1
ARM GAS  C:\Temp\ccF97kYR.s 			page 79


 4638 0190 FD010000 		.word	.L622+1
 4639              		.p2align 1
 4640              	.L647:
 4641 0194 0222     		movs	r2, #2
 4642 0196 84F83F20 		strb	r2, [r4, #63]
 4643              	.L619:
 4644 019a A26A     		ldr	r2, [r4, #40]
 4645 019c 3449     		ldr	r1, .L649
 4646 019e D163     		str	r1, [r2, #60]
 4647 01a0 A26A     		ldr	r2, [r4, #40]
 4648 01a2 3449     		ldr	r1, .L649+4
 4649 01a4 1164     		str	r1, [r2, #64]
 4650 01a6 A26A     		ldr	r2, [r4, #40]
 4651 01a8 3349     		ldr	r1, .L649+8
 4652 01aa D164     		str	r1, [r2, #76]
 4653 01ac 2268     		ldr	r2, [r4]
 4654 01ae 3832     		adds	r2, r2, #56
 4655 01b0 3146     		mov	r1, r6
 4656 01b2 A06A     		ldr	r0, [r4, #40]
 4657 01b4 FFF7FEFF 		bl	HAL_DMA_Start_IT
 4658 01b8 0028     		cmp	r0, #0
 4659 01ba 51D1     		bne	.L634
 4660 01bc 2268     		ldr	r2, [r4]
 4661 01be D368     		ldr	r3, [r2, #12]
 4662 01c0 43F48063 		orr	r3, r3, #1024
 4663 01c4 D360     		str	r3, [r2, #12]
 4664 01c6 59E7     		b	.L624
 4665              	.L648:
 4666 01c8 0222     		movs	r2, #2
 4667 01ca 84F84020 		strb	r2, [r4, #64]
 4668              	.L621:
 4669 01ce E26A     		ldr	r2, [r4, #44]
 4670 01d0 2749     		ldr	r1, .L649
 4671 01d2 D163     		str	r1, [r2, #60]
 4672 01d4 E26A     		ldr	r2, [r4, #44]
 4673 01d6 2749     		ldr	r1, .L649+4
 4674 01d8 1164     		str	r1, [r2, #64]
 4675 01da E26A     		ldr	r2, [r4, #44]
 4676 01dc 2649     		ldr	r1, .L649+8
 4677 01de D164     		str	r1, [r2, #76]
 4678 01e0 2268     		ldr	r2, [r4]
 4679 01e2 3C32     		adds	r2, r2, #60
 4680 01e4 3146     		mov	r1, r6
 4681 01e6 E06A     		ldr	r0, [r4, #44]
 4682 01e8 FFF7FEFF 		bl	HAL_DMA_Start_IT
 4683 01ec 0028     		cmp	r0, #0
 4684 01ee 39D1     		bne	.L635
 4685 01f0 2268     		ldr	r2, [r4]
 4686 01f2 D368     		ldr	r3, [r2, #12]
 4687 01f4 43F40063 		orr	r3, r3, #2048
 4688 01f8 D360     		str	r3, [r2, #12]
 4689 01fa 3FE7     		b	.L624
 4690              	.L622:
 4691 01fc 226B     		ldr	r2, [r4, #48]
 4692 01fe 1C49     		ldr	r1, .L649
 4693 0200 D163     		str	r1, [r2, #60]
 4694 0202 226B     		ldr	r2, [r4, #48]
ARM GAS  C:\Temp\ccF97kYR.s 			page 80


 4695 0204 1B49     		ldr	r1, .L649+4
 4696 0206 1164     		str	r1, [r2, #64]
 4697 0208 226B     		ldr	r2, [r4, #48]
 4698 020a 1B49     		ldr	r1, .L649+8
 4699 020c D164     		str	r1, [r2, #76]
 4700 020e 2268     		ldr	r2, [r4]
 4701 0210 4032     		adds	r2, r2, #64
 4702 0212 3146     		mov	r1, r6
 4703 0214 206B     		ldr	r0, [r4, #48]
 4704 0216 FFF7FEFF 		bl	HAL_DMA_Start_IT
 4705 021a 28BB     		cbnz	r0, .L636
 4706 021c 2268     		ldr	r2, [r4]
 4707 021e D368     		ldr	r3, [r2, #12]
 4708 0220 43F48053 		orr	r3, r3, #4096
 4709 0224 D360     		str	r3, [r2, #12]
 4710 0226 29E7     		b	.L624
 4711              	.L642:
 4712 0228 5A6C     		ldr	r2, [r3, #68]
 4713 022a 42F40042 		orr	r2, r2, #32768
 4714 022e 5A64     		str	r2, [r3, #68]
 4715 0230 2EE7     		b	.L625
 4716              	.L626:
 4717 0232 9A68     		ldr	r2, [r3, #8]
 4718 0234 02F00702 		and	r2, r2, #7
 4719 0238 062A     		cmp	r2, #6
 4720 023a 17D0     		beq	.L637
 4721 023c 1A68     		ldr	r2, [r3]
 4722 023e 42F00102 		orr	r2, r2, #1
 4723 0242 1A60     		str	r2, [r3]
 4724 0244 0020     		movs	r0, #0
 4725 0246 02E0     		b	.L611
 4726              	.L628:
 4727 0248 0220     		movs	r0, #2
 4728 024a 00E0     		b	.L611
 4729              	.L629:
 4730 024c 0120     		movs	r0, #1
 4731              	.L611:
 4732 024e 70BD     		pop	{r4, r5, r6, pc}
 4733              	.L630:
 4734 0250 0120     		movs	r0, #1
 4735 0252 FCE7     		b	.L611
 4736              	.L631:
 4737 0254 0120     		movs	r0, #1
 4738 0256 FAE7     		b	.L611
 4739              	.L632:
 4740 0258 0120     		movs	r0, #1
 4741 025a F8E7     		b	.L611
 4742              	.L633:
 4743 025c 0120     		movs	r0, #1
 4744 025e F6E7     		b	.L611
 4745              	.L634:
 4746 0260 0120     		movs	r0, #1
 4747 0262 F4E7     		b	.L611
 4748              	.L635:
 4749 0264 0120     		movs	r0, #1
 4750 0266 F2E7     		b	.L611
 4751              	.L636:
ARM GAS  C:\Temp\ccF97kYR.s 			page 81


 4752 0268 0120     		movs	r0, #1
 4753 026a F0E7     		b	.L611
 4754              	.L637:
 4755 026c 0020     		movs	r0, #0
 4756 026e EEE7     		b	.L611
 4757              	.L650:
 4758              		.align	2
 4759              	.L649:
 4760 0270 00000000 		.word	TIM_DMADelayPulseCplt
 4761 0274 00000000 		.word	TIM_DMADelayPulseHalfCplt
 4762 0278 00000000 		.word	TIM_DMAError
 4763 027c 00000140 		.word	1073807360
 4765              		.section	.text.HAL_TIM_OC_Stop_DMA,"ax",%progbits
 4766              		.align	1
 4767              		.global	HAL_TIM_OC_Stop_DMA
 4768              		.syntax unified
 4769              		.thumb
 4770              		.thumb_func
 4772              	HAL_TIM_OC_Stop_DMA:
 4773              		@ args = 0, pretend = 0, frame = 0
 4774              		@ frame_needed = 0, uses_anonymous_args = 0
 4775 0000 38B5     		push	{r3, r4, r5, lr}
 4776 0002 0446     		mov	r4, r0
 4777 0004 0D46     		mov	r5, r1
 4778 0006 0C29     		cmp	r1, #12
 4779 0008 6CD8     		bhi	.L664
 4780 000a DFE801F0 		tbb	[pc, r1]
 4781              	.L654:
 4782 000e 07       		.byte	(.L657-.L654)/2
 4783 000f 6B       		.byte	(.L664-.L654)/2
 4784 0010 6B       		.byte	(.L664-.L654)/2
 4785 0011 6B       		.byte	(.L664-.L654)/2
 4786 0012 2E       		.byte	(.L656-.L654)/2
 4787 0013 6B       		.byte	(.L664-.L654)/2
 4788 0014 6B       		.byte	(.L664-.L654)/2
 4789 0015 6B       		.byte	(.L664-.L654)/2
 4790 0016 37       		.byte	(.L655-.L654)/2
 4791 0017 6B       		.byte	(.L664-.L654)/2
 4792 0018 6B       		.byte	(.L664-.L654)/2
 4793 0019 6B       		.byte	(.L664-.L654)/2
 4794 001a 40       		.byte	(.L653-.L654)/2
 4795 001b 00       		.p2align 1
 4796              	.L657:
 4797 001c 0268     		ldr	r2, [r0]
 4798 001e D368     		ldr	r3, [r2, #12]
 4799 0020 23F40073 		bic	r3, r3, #512
 4800 0024 D360     		str	r3, [r2, #12]
 4801 0026 406A     		ldr	r0, [r0, #36]
 4802 0028 FFF7FEFF 		bl	HAL_DMA_Abort_IT
 4803              	.L658:
 4804 002c 0022     		movs	r2, #0
 4805 002e 2946     		mov	r1, r5
 4806 0030 2068     		ldr	r0, [r4]
 4807 0032 FFF7FEFF 		bl	TIM_CCxChannelCmd
 4808 0036 2368     		ldr	r3, [r4]
 4809 0038 2B4A     		ldr	r2, .L669
 4810 003a 9342     		cmp	r3, r2
ARM GAS  C:\Temp\ccF97kYR.s 			page 82


 4811 003c 30D0     		beq	.L666
 4812              	.L659:
 4813 003e 2368     		ldr	r3, [r4]
 4814 0040 196A     		ldr	r1, [r3, #32]
 4815 0042 41F21112 		movw	r2, #4369
 4816 0046 1142     		tst	r1, r2
 4817 0048 08D1     		bne	.L660
 4818 004a 196A     		ldr	r1, [r3, #32]
 4819 004c 40F24442 		movw	r2, #1092
 4820 0050 1142     		tst	r1, r2
 4821 0052 03D1     		bne	.L660
 4822 0054 1A68     		ldr	r2, [r3]
 4823 0056 22F00102 		bic	r2, r2, #1
 4824 005a 1A60     		str	r2, [r3]
 4825              	.L660:
 4826 005c 002D     		cmp	r5, #0
 4827 005e 2ED1     		bne	.L661
 4828 0060 0123     		movs	r3, #1
 4829 0062 84F83E30 		strb	r3, [r4, #62]
 4830 0066 0020     		movs	r0, #0
 4831 0068 3DE0     		b	.L652
 4832              	.L656:
 4833 006a 0268     		ldr	r2, [r0]
 4834 006c D368     		ldr	r3, [r2, #12]
 4835 006e 23F48063 		bic	r3, r3, #1024
 4836 0072 D360     		str	r3, [r2, #12]
 4837 0074 806A     		ldr	r0, [r0, #40]
 4838 0076 FFF7FEFF 		bl	HAL_DMA_Abort_IT
 4839 007a D7E7     		b	.L658
 4840              	.L655:
 4841 007c 0268     		ldr	r2, [r0]
 4842 007e D368     		ldr	r3, [r2, #12]
 4843 0080 23F40063 		bic	r3, r3, #2048
 4844 0084 D360     		str	r3, [r2, #12]
 4845 0086 C06A     		ldr	r0, [r0, #44]
 4846 0088 FFF7FEFF 		bl	HAL_DMA_Abort_IT
 4847 008c CEE7     		b	.L658
 4848              	.L653:
 4849 008e 0268     		ldr	r2, [r0]
 4850 0090 D368     		ldr	r3, [r2, #12]
 4851 0092 23F48053 		bic	r3, r3, #4096
 4852 0096 D360     		str	r3, [r2, #12]
 4853 0098 006B     		ldr	r0, [r0, #48]
 4854 009a FFF7FEFF 		bl	HAL_DMA_Abort_IT
 4855 009e C5E7     		b	.L658
 4856              	.L666:
 4857 00a0 196A     		ldr	r1, [r3, #32]
 4858 00a2 41F21112 		movw	r2, #4369
 4859 00a6 1142     		tst	r1, r2
 4860 00a8 C9D1     		bne	.L659
 4861 00aa 196A     		ldr	r1, [r3, #32]
 4862 00ac 40F24442 		movw	r2, #1092
 4863 00b0 1142     		tst	r1, r2
 4864 00b2 C4D1     		bne	.L659
 4865 00b4 5A6C     		ldr	r2, [r3, #68]
 4866 00b6 22F40042 		bic	r2, r2, #32768
 4867 00ba 5A64     		str	r2, [r3, #68]
ARM GAS  C:\Temp\ccF97kYR.s 			page 83


 4868 00bc BFE7     		b	.L659
 4869              	.L661:
 4870 00be 042D     		cmp	r5, #4
 4871 00c0 06D0     		beq	.L667
 4872 00c2 082D     		cmp	r5, #8
 4873 00c4 09D0     		beq	.L668
 4874 00c6 0123     		movs	r3, #1
 4875 00c8 84F84130 		strb	r3, [r4, #65]
 4876 00cc 0020     		movs	r0, #0
 4877 00ce 0AE0     		b	.L652
 4878              	.L667:
 4879 00d0 0123     		movs	r3, #1
 4880 00d2 84F83F30 		strb	r3, [r4, #63]
 4881 00d6 0020     		movs	r0, #0
 4882 00d8 05E0     		b	.L652
 4883              	.L668:
 4884 00da 0123     		movs	r3, #1
 4885 00dc 84F84030 		strb	r3, [r4, #64]
 4886 00e0 0020     		movs	r0, #0
 4887 00e2 00E0     		b	.L652
 4888              	.L664:
 4889 00e4 0120     		movs	r0, #1
 4890              	.L652:
 4891 00e6 38BD     		pop	{r3, r4, r5, pc}
 4892              	.L670:
 4893              		.align	2
 4894              	.L669:
 4895 00e8 00000140 		.word	1073807360
 4897              		.section	.text.HAL_TIM_PWM_Start,"ax",%progbits
 4898              		.align	1
 4899              		.global	HAL_TIM_PWM_Start
 4900              		.syntax unified
 4901              		.thumb
 4902              		.thumb_func
 4904              	HAL_TIM_PWM_Start:
 4905              		@ args = 0, pretend = 0, frame = 0
 4906              		@ frame_needed = 0, uses_anonymous_args = 0
 4907 0000 10B5     		push	{r4, lr}
 4908 0002 0446     		mov	r4, r0
 4909 0004 0846     		mov	r0, r1
 4910 0006 0029     		cmp	r1, #0
 4911 0008 32D1     		bne	.L672
 4912 000a 94F83E30 		ldrb	r3, [r4, #62]	@ zero_extendqisi2
 4913 000e DBB2     		uxtb	r3, r3
 4914 0010 013B     		subs	r3, r3, #1
 4915 0012 18BF     		it	ne
 4916 0014 0123     		movne	r3, #1
 4917              	.L673:
 4918 0016 002B     		cmp	r3, #0
 4919 0018 63D1     		bne	.L684
 4920 001a 0028     		cmp	r0, #0
 4921 001c 41D1     		bne	.L677
 4922 001e 0223     		movs	r3, #2
 4923 0020 84F83E30 		strb	r3, [r4, #62]
 4924              	.L678:
 4925 0024 0122     		movs	r2, #1
 4926 0026 0146     		mov	r1, r0
ARM GAS  C:\Temp\ccF97kYR.s 			page 84


 4927 0028 2068     		ldr	r0, [r4]
 4928 002a FFF7FEFF 		bl	TIM_CCxChannelCmd
 4929 002e 2368     		ldr	r3, [r4]
 4930 0030 2E4A     		ldr	r2, .L692
 4931 0032 9342     		cmp	r3, r2
 4932 0034 45D0     		beq	.L687
 4933              	.L681:
 4934 0036 2368     		ldr	r3, [r4]
 4935 0038 2C4A     		ldr	r2, .L692
 4936 003a 9342     		cmp	r3, r2
 4937 003c 46D0     		beq	.L682
 4938 003e B3F1804F 		cmp	r3, #1073741824
 4939 0042 43D0     		beq	.L682
 4940 0044 A2F57C42 		sub	r2, r2, #64512
 4941 0048 9342     		cmp	r3, r2
 4942 004a 3FD0     		beq	.L682
 4943 004c 02F58062 		add	r2, r2, #1024
 4944 0050 9342     		cmp	r3, r2
 4945 0052 3BD0     		beq	.L682
 4946 0054 02F58062 		add	r2, r2, #1024
 4947 0058 9342     		cmp	r3, r2
 4948 005a 37D0     		beq	.L682
 4949 005c 02F59A32 		add	r2, r2, #78848
 4950 0060 9342     		cmp	r3, r2
 4951 0062 33D0     		beq	.L682
 4952 0064 1A68     		ldr	r2, [r3]
 4953 0066 42F00102 		orr	r2, r2, #1
 4954 006a 1A60     		str	r2, [r3]
 4955 006c 0020     		movs	r0, #0
 4956 006e 37E0     		b	.L676
 4957              	.L672:
 4958 0070 0429     		cmp	r1, #4
 4959 0072 08D0     		beq	.L688
 4960 0074 0829     		cmp	r1, #8
 4961 0076 0DD0     		beq	.L689
 4962 0078 94F84130 		ldrb	r3, [r4, #65]	@ zero_extendqisi2
 4963 007c DBB2     		uxtb	r3, r3
 4964 007e 013B     		subs	r3, r3, #1
 4965 0080 18BF     		it	ne
 4966 0082 0123     		movne	r3, #1
 4967 0084 C7E7     		b	.L673
 4968              	.L688:
 4969 0086 94F83F30 		ldrb	r3, [r4, #63]	@ zero_extendqisi2
 4970 008a DBB2     		uxtb	r3, r3
 4971 008c 013B     		subs	r3, r3, #1
 4972 008e 18BF     		it	ne
 4973 0090 0123     		movne	r3, #1
 4974 0092 C0E7     		b	.L673
 4975              	.L689:
 4976 0094 94F84030 		ldrb	r3, [r4, #64]	@ zero_extendqisi2
 4977 0098 DBB2     		uxtb	r3, r3
 4978 009a 013B     		subs	r3, r3, #1
 4979 009c 18BF     		it	ne
 4980 009e 0123     		movne	r3, #1
 4981 00a0 B9E7     		b	.L673
 4982              	.L677:
 4983 00a2 0428     		cmp	r0, #4
ARM GAS  C:\Temp\ccF97kYR.s 			page 85


 4984 00a4 05D0     		beq	.L690
 4985 00a6 0828     		cmp	r0, #8
 4986 00a8 07D0     		beq	.L691
 4987 00aa 0223     		movs	r3, #2
 4988 00ac 84F84130 		strb	r3, [r4, #65]
 4989 00b0 B8E7     		b	.L678
 4990              	.L690:
 4991 00b2 0223     		movs	r3, #2
 4992 00b4 84F83F30 		strb	r3, [r4, #63]
 4993 00b8 B4E7     		b	.L678
 4994              	.L691:
 4995 00ba 0223     		movs	r3, #2
 4996 00bc 84F84030 		strb	r3, [r4, #64]
 4997 00c0 B0E7     		b	.L678
 4998              	.L687:
 4999 00c2 5A6C     		ldr	r2, [r3, #68]
 5000 00c4 42F40042 		orr	r2, r2, #32768
 5001 00c8 5A64     		str	r2, [r3, #68]
 5002 00ca B4E7     		b	.L681
 5003              	.L682:
 5004 00cc 9A68     		ldr	r2, [r3, #8]
 5005 00ce 02F00702 		and	r2, r2, #7
 5006 00d2 062A     		cmp	r2, #6
 5007 00d4 07D0     		beq	.L685
 5008 00d6 1A68     		ldr	r2, [r3]
 5009 00d8 42F00102 		orr	r2, r2, #1
 5010 00dc 1A60     		str	r2, [r3]
 5011 00de 0020     		movs	r0, #0
 5012              	.L676:
 5013 00e0 10BD     		pop	{r4, pc}
 5014              	.L684:
 5015 00e2 0120     		movs	r0, #1
 5016 00e4 FCE7     		b	.L676
 5017              	.L685:
 5018 00e6 0020     		movs	r0, #0
 5019 00e8 FAE7     		b	.L676
 5020              	.L693:
 5021 00ea 00BF     		.align	2
 5022              	.L692:
 5023 00ec 00000140 		.word	1073807360
 5025              		.section	.text.HAL_TIM_PWM_Stop,"ax",%progbits
 5026              		.align	1
 5027              		.global	HAL_TIM_PWM_Stop
 5028              		.syntax unified
 5029              		.thumb
 5030              		.thumb_func
 5032              	HAL_TIM_PWM_Stop:
 5033              		@ args = 0, pretend = 0, frame = 0
 5034              		@ frame_needed = 0, uses_anonymous_args = 0
 5035 0000 38B5     		push	{r3, r4, r5, lr}
 5036 0002 0446     		mov	r4, r0
 5037 0004 0D46     		mov	r5, r1
 5038 0006 0022     		movs	r2, #0
 5039 0008 0068     		ldr	r0, [r0]
 5040 000a FFF7FEFF 		bl	TIM_CCxChannelCmd
 5041 000e 2368     		ldr	r3, [r4]
 5042 0010 1B4A     		ldr	r2, .L705
ARM GAS  C:\Temp\ccF97kYR.s 			page 86


 5043 0012 9342     		cmp	r3, r2
 5044 0014 14D0     		beq	.L702
 5045              	.L695:
 5046 0016 2368     		ldr	r3, [r4]
 5047 0018 196A     		ldr	r1, [r3, #32]
 5048 001a 41F21112 		movw	r2, #4369
 5049 001e 1142     		tst	r1, r2
 5050 0020 08D1     		bne	.L696
 5051 0022 196A     		ldr	r1, [r3, #32]
 5052 0024 40F24442 		movw	r2, #1092
 5053 0028 1142     		tst	r1, r2
 5054 002a 03D1     		bne	.L696
 5055 002c 1A68     		ldr	r2, [r3]
 5056 002e 22F00102 		bic	r2, r2, #1
 5057 0032 1A60     		str	r2, [r3]
 5058              	.L696:
 5059 0034 9DB9     		cbnz	r5, .L697
 5060 0036 0123     		movs	r3, #1
 5061 0038 84F83E30 		strb	r3, [r4, #62]
 5062              	.L698:
 5063 003c 0020     		movs	r0, #0
 5064 003e 38BD     		pop	{r3, r4, r5, pc}
 5065              	.L702:
 5066 0040 196A     		ldr	r1, [r3, #32]
 5067 0042 41F21112 		movw	r2, #4369
 5068 0046 1142     		tst	r1, r2
 5069 0048 E5D1     		bne	.L695
 5070 004a 196A     		ldr	r1, [r3, #32]
 5071 004c 40F24442 		movw	r2, #1092
 5072 0050 1142     		tst	r1, r2
 5073 0052 E0D1     		bne	.L695
 5074 0054 5A6C     		ldr	r2, [r3, #68]
 5075 0056 22F40042 		bic	r2, r2, #32768
 5076 005a 5A64     		str	r2, [r3, #68]
 5077 005c DBE7     		b	.L695
 5078              	.L697:
 5079 005e 042D     		cmp	r5, #4
 5080 0060 05D0     		beq	.L703
 5081 0062 082D     		cmp	r5, #8
 5082 0064 07D0     		beq	.L704
 5083 0066 0123     		movs	r3, #1
 5084 0068 84F84130 		strb	r3, [r4, #65]
 5085 006c E6E7     		b	.L698
 5086              	.L703:
 5087 006e 0123     		movs	r3, #1
 5088 0070 84F83F30 		strb	r3, [r4, #63]
 5089 0074 E2E7     		b	.L698
 5090              	.L704:
 5091 0076 0123     		movs	r3, #1
 5092 0078 84F84030 		strb	r3, [r4, #64]
 5093 007c DEE7     		b	.L698
 5094              	.L706:
 5095 007e 00BF     		.align	2
 5096              	.L705:
 5097 0080 00000140 		.word	1073807360
 5099              		.section	.text.HAL_TIM_PWM_Start_IT,"ax",%progbits
 5100              		.align	1
ARM GAS  C:\Temp\ccF97kYR.s 			page 87


 5101              		.global	HAL_TIM_PWM_Start_IT
 5102              		.syntax unified
 5103              		.thumb
 5104              		.thumb_func
 5106              	HAL_TIM_PWM_Start_IT:
 5107              		@ args = 0, pretend = 0, frame = 0
 5108              		@ frame_needed = 0, uses_anonymous_args = 0
 5109 0000 10B5     		push	{r4, lr}
 5110 0002 0446     		mov	r4, r0
 5111 0004 0846     		mov	r0, r1
 5112 0006 0029     		cmp	r1, #0
 5113 0008 38D1     		bne	.L708
 5114 000a 94F83E30 		ldrb	r3, [r4, #62]	@ zero_extendqisi2
 5115 000e DBB2     		uxtb	r3, r3
 5116 0010 013B     		subs	r3, r3, #1
 5117 0012 18BF     		it	ne
 5118 0014 0123     		movne	r3, #1
 5119              	.L709:
 5120 0016 002B     		cmp	r3, #0
 5121 0018 40F09880 		bne	.L725
 5122 001c 0028     		cmp	r0, #0
 5123 001e 46D1     		bne	.L713
 5124 0020 0223     		movs	r3, #2
 5125 0022 84F83E30 		strb	r3, [r4, #62]
 5126              	.L714:
 5127 0026 2268     		ldr	r2, [r4]
 5128 0028 D368     		ldr	r3, [r2, #12]
 5129 002a 43F00203 		orr	r3, r3, #2
 5130 002e D360     		str	r3, [r2, #12]
 5131              	.L721:
 5132 0030 0122     		movs	r2, #1
 5133 0032 0146     		mov	r1, r0
 5134 0034 2068     		ldr	r0, [r4]
 5135 0036 FFF7FEFF 		bl	TIM_CCxChannelCmd
 5136 003a 2368     		ldr	r3, [r4]
 5137 003c 464A     		ldr	r2, .L737
 5138 003e 9342     		cmp	r3, r2
 5139 0040 74D0     		beq	.L732
 5140              	.L722:
 5141 0042 2368     		ldr	r3, [r4]
 5142 0044 444A     		ldr	r2, .L737
 5143 0046 9342     		cmp	r3, r2
 5144 0048 75D0     		beq	.L723
 5145 004a B3F1804F 		cmp	r3, #1073741824
 5146 004e 72D0     		beq	.L723
 5147 0050 A2F57C42 		sub	r2, r2, #64512
 5148 0054 9342     		cmp	r3, r2
 5149 0056 6ED0     		beq	.L723
 5150 0058 02F58062 		add	r2, r2, #1024
 5151 005c 9342     		cmp	r3, r2
 5152 005e 6AD0     		beq	.L723
 5153 0060 02F58062 		add	r2, r2, #1024
 5154 0064 9342     		cmp	r3, r2
 5155 0066 66D0     		beq	.L723
 5156 0068 02F59A32 		add	r2, r2, #78848
 5157 006c 9342     		cmp	r3, r2
 5158 006e 62D0     		beq	.L723
ARM GAS  C:\Temp\ccF97kYR.s 			page 88


 5159 0070 1A68     		ldr	r2, [r3]
 5160 0072 42F00102 		orr	r2, r2, #1
 5161 0076 1A60     		str	r2, [r3]
 5162 0078 0020     		movs	r0, #0
 5163 007a 66E0     		b	.L712
 5164              	.L708:
 5165 007c 0429     		cmp	r1, #4
 5166 007e 08D0     		beq	.L733
 5167 0080 0829     		cmp	r1, #8
 5168 0082 0DD0     		beq	.L734
 5169 0084 94F84130 		ldrb	r3, [r4, #65]	@ zero_extendqisi2
 5170 0088 DBB2     		uxtb	r3, r3
 5171 008a 013B     		subs	r3, r3, #1
 5172 008c 18BF     		it	ne
 5173 008e 0123     		movne	r3, #1
 5174 0090 C1E7     		b	.L709
 5175              	.L733:
 5176 0092 94F83F30 		ldrb	r3, [r4, #63]	@ zero_extendqisi2
 5177 0096 DBB2     		uxtb	r3, r3
 5178 0098 013B     		subs	r3, r3, #1
 5179 009a 18BF     		it	ne
 5180 009c 0123     		movne	r3, #1
 5181 009e BAE7     		b	.L709
 5182              	.L734:
 5183 00a0 94F84030 		ldrb	r3, [r4, #64]	@ zero_extendqisi2
 5184 00a4 DBB2     		uxtb	r3, r3
 5185 00a6 013B     		subs	r3, r3, #1
 5186 00a8 18BF     		it	ne
 5187 00aa 0123     		movne	r3, #1
 5188 00ac B3E7     		b	.L709
 5189              	.L713:
 5190 00ae 0428     		cmp	r0, #4
 5191 00b0 24D0     		beq	.L735
 5192 00b2 0828     		cmp	r0, #8
 5193 00b4 2BD0     		beq	.L736
 5194 00b6 0223     		movs	r3, #2
 5195 00b8 84F84130 		strb	r3, [r4, #65]
 5196 00bc 0C28     		cmp	r0, #12
 5197 00be 47D8     		bhi	.L726
 5198 00c0 01A3     		adr	r3, .L720
 5199 00c2 53F820F0 		ldr	pc, [r3, r0, lsl #2]
 5200 00c6 00BF     		.p2align 2
 5201              	.L720:
 5202 00c8 27000000 		.word	.L714+1
 5203 00cc 51010000 		.word	.L726+1
 5204 00d0 51010000 		.word	.L726+1
 5205 00d4 51010000 		.word	.L726+1
 5206 00d8 03010000 		.word	.L716+1
 5207 00dc 51010000 		.word	.L726+1
 5208 00e0 51010000 		.word	.L726+1
 5209 00e4 51010000 		.word	.L726+1
 5210 00e8 15010000 		.word	.L718+1
 5211 00ec 51010000 		.word	.L726+1
 5212 00f0 51010000 		.word	.L726+1
 5213 00f4 51010000 		.word	.L726+1
 5214 00f8 21010000 		.word	.L719+1
 5215              		.p2align 1
ARM GAS  C:\Temp\ccF97kYR.s 			page 89


 5216              	.L735:
 5217 00fc 0223     		movs	r3, #2
 5218 00fe 84F83F30 		strb	r3, [r4, #63]
 5219              	.L716:
 5220 0102 2268     		ldr	r2, [r4]
 5221 0104 D368     		ldr	r3, [r2, #12]
 5222 0106 43F00403 		orr	r3, r3, #4
 5223 010a D360     		str	r3, [r2, #12]
 5224 010c 90E7     		b	.L721
 5225              	.L736:
 5226 010e 0223     		movs	r3, #2
 5227 0110 84F84030 		strb	r3, [r4, #64]
 5228              	.L718:
 5229 0114 2268     		ldr	r2, [r4]
 5230 0116 D368     		ldr	r3, [r2, #12]
 5231 0118 43F00803 		orr	r3, r3, #8
 5232 011c D360     		str	r3, [r2, #12]
 5233 011e 87E7     		b	.L721
 5234              	.L719:
 5235 0120 2268     		ldr	r2, [r4]
 5236 0122 D368     		ldr	r3, [r2, #12]
 5237 0124 43F01003 		orr	r3, r3, #16
 5238 0128 D360     		str	r3, [r2, #12]
 5239 012a 81E7     		b	.L721
 5240              	.L732:
 5241 012c 5A6C     		ldr	r2, [r3, #68]
 5242 012e 42F40042 		orr	r2, r2, #32768
 5243 0132 5A64     		str	r2, [r3, #68]
 5244 0134 85E7     		b	.L722
 5245              	.L723:
 5246 0136 9A68     		ldr	r2, [r3, #8]
 5247 0138 02F00702 		and	r2, r2, #7
 5248 013c 062A     		cmp	r2, #6
 5249 013e 09D0     		beq	.L727
 5250 0140 1A68     		ldr	r2, [r3]
 5251 0142 42F00102 		orr	r2, r2, #1
 5252 0146 1A60     		str	r2, [r3]
 5253 0148 0020     		movs	r0, #0
 5254              	.L712:
 5255 014a 10BD     		pop	{r4, pc}
 5256              	.L725:
 5257 014c 0120     		movs	r0, #1
 5258 014e FCE7     		b	.L712
 5259              	.L726:
 5260 0150 0120     		movs	r0, #1
 5261 0152 FAE7     		b	.L712
 5262              	.L727:
 5263 0154 0020     		movs	r0, #0
 5264 0156 F8E7     		b	.L712
 5265              	.L738:
 5266              		.align	2
 5267              	.L737:
 5268 0158 00000140 		.word	1073807360
 5270              		.section	.text.HAL_TIM_PWM_Stop_IT,"ax",%progbits
 5271              		.align	1
 5272              		.global	HAL_TIM_PWM_Stop_IT
 5273              		.syntax unified
ARM GAS  C:\Temp\ccF97kYR.s 			page 90


 5274              		.thumb
 5275              		.thumb_func
 5277              	HAL_TIM_PWM_Stop_IT:
 5278              		@ args = 0, pretend = 0, frame = 0
 5279              		@ frame_needed = 0, uses_anonymous_args = 0
 5280 0000 38B5     		push	{r3, r4, r5, lr}
 5281 0002 0546     		mov	r5, r0
 5282 0004 0C46     		mov	r4, r1
 5283 0006 0C29     		cmp	r1, #12
 5284 0008 5FD8     		bhi	.L752
 5285 000a DFE801F0 		tbb	[pc, r1]
 5286              	.L742:
 5287 000e 07       		.byte	(.L745-.L742)/2
 5288 000f 5E       		.byte	(.L752-.L742)/2
 5289 0010 5E       		.byte	(.L752-.L742)/2
 5290 0011 5E       		.byte	(.L752-.L742)/2
 5291 0012 2A       		.byte	(.L744-.L742)/2
 5292 0013 5E       		.byte	(.L752-.L742)/2
 5293 0014 5E       		.byte	(.L752-.L742)/2
 5294 0015 5E       		.byte	(.L752-.L742)/2
 5295 0016 30       		.byte	(.L743-.L742)/2
 5296 0017 5E       		.byte	(.L752-.L742)/2
 5297 0018 5E       		.byte	(.L752-.L742)/2
 5298 0019 5E       		.byte	(.L752-.L742)/2
 5299 001a 36       		.byte	(.L741-.L742)/2
 5300 001b 00       		.p2align 1
 5301              	.L745:
 5302 001c 0268     		ldr	r2, [r0]
 5303 001e D368     		ldr	r3, [r2, #12]
 5304 0020 23F00203 		bic	r3, r3, #2
 5305 0024 D360     		str	r3, [r2, #12]
 5306              	.L746:
 5307 0026 0022     		movs	r2, #0
 5308 0028 2146     		mov	r1, r4
 5309 002a 2868     		ldr	r0, [r5]
 5310 002c FFF7FEFF 		bl	TIM_CCxChannelCmd
 5311 0030 2B68     		ldr	r3, [r5]
 5312 0032 274A     		ldr	r2, .L757
 5313 0034 9342     		cmp	r3, r2
 5314 0036 26D0     		beq	.L754
 5315              	.L747:
 5316 0038 2B68     		ldr	r3, [r5]
 5317 003a 196A     		ldr	r1, [r3, #32]
 5318 003c 41F21112 		movw	r2, #4369
 5319 0040 1142     		tst	r1, r2
 5320 0042 08D1     		bne	.L748
 5321 0044 196A     		ldr	r1, [r3, #32]
 5322 0046 40F24442 		movw	r2, #1092
 5323 004a 1142     		tst	r1, r2
 5324 004c 03D1     		bne	.L748
 5325 004e 1A68     		ldr	r2, [r3]
 5326 0050 22F00102 		bic	r2, r2, #1
 5327 0054 1A60     		str	r2, [r3]
 5328              	.L748:
 5329 0056 2CBB     		cbnz	r4, .L749
 5330 0058 0123     		movs	r3, #1
 5331 005a 85F83E30 		strb	r3, [r5, #62]
ARM GAS  C:\Temp\ccF97kYR.s 			page 91


 5332 005e 0020     		movs	r0, #0
 5333 0060 34E0     		b	.L740
 5334              	.L744:
 5335 0062 0268     		ldr	r2, [r0]
 5336 0064 D368     		ldr	r3, [r2, #12]
 5337 0066 23F00403 		bic	r3, r3, #4
 5338 006a D360     		str	r3, [r2, #12]
 5339 006c DBE7     		b	.L746
 5340              	.L743:
 5341 006e 0268     		ldr	r2, [r0]
 5342 0070 D368     		ldr	r3, [r2, #12]
 5343 0072 23F00803 		bic	r3, r3, #8
 5344 0076 D360     		str	r3, [r2, #12]
 5345 0078 D5E7     		b	.L746
 5346              	.L741:
 5347 007a 0268     		ldr	r2, [r0]
 5348 007c D368     		ldr	r3, [r2, #12]
 5349 007e 23F01003 		bic	r3, r3, #16
 5350 0082 D360     		str	r3, [r2, #12]
 5351 0084 CFE7     		b	.L746
 5352              	.L754:
 5353 0086 196A     		ldr	r1, [r3, #32]
 5354 0088 41F21112 		movw	r2, #4369
 5355 008c 1142     		tst	r1, r2
 5356 008e D3D1     		bne	.L747
 5357 0090 196A     		ldr	r1, [r3, #32]
 5358 0092 40F24442 		movw	r2, #1092
 5359 0096 1142     		tst	r1, r2
 5360 0098 CED1     		bne	.L747
 5361 009a 5A6C     		ldr	r2, [r3, #68]
 5362 009c 22F40042 		bic	r2, r2, #32768
 5363 00a0 5A64     		str	r2, [r3, #68]
 5364 00a2 C9E7     		b	.L747
 5365              	.L749:
 5366 00a4 042C     		cmp	r4, #4
 5367 00a6 06D0     		beq	.L755
 5368 00a8 082C     		cmp	r4, #8
 5369 00aa 09D0     		beq	.L756
 5370 00ac 0123     		movs	r3, #1
 5371 00ae 85F84130 		strb	r3, [r5, #65]
 5372 00b2 0020     		movs	r0, #0
 5373 00b4 0AE0     		b	.L740
 5374              	.L755:
 5375 00b6 0123     		movs	r3, #1
 5376 00b8 85F83F30 		strb	r3, [r5, #63]
 5377 00bc 0020     		movs	r0, #0
 5378 00be 05E0     		b	.L740
 5379              	.L756:
 5380 00c0 0123     		movs	r3, #1
 5381 00c2 85F84030 		strb	r3, [r5, #64]
 5382 00c6 0020     		movs	r0, #0
 5383 00c8 00E0     		b	.L740
 5384              	.L752:
 5385 00ca 0120     		movs	r0, #1
 5386              	.L740:
 5387 00cc 38BD     		pop	{r3, r4, r5, pc}
 5388              	.L758:
ARM GAS  C:\Temp\ccF97kYR.s 			page 92


 5389 00ce 00BF     		.align	2
 5390              	.L757:
 5391 00d0 00000140 		.word	1073807360
 5393              		.section	.text.HAL_TIM_PWM_Start_DMA,"ax",%progbits
 5394              		.align	1
 5395              		.global	HAL_TIM_PWM_Start_DMA
 5396              		.syntax unified
 5397              		.thumb
 5398              		.thumb_func
 5400              	HAL_TIM_PWM_Start_DMA:
 5401              		@ args = 0, pretend = 0, frame = 0
 5402              		@ frame_needed = 0, uses_anonymous_args = 0
 5403 0000 70B5     		push	{r4, r5, r6, lr}
 5404 0002 0446     		mov	r4, r0
 5405 0004 1646     		mov	r6, r2
 5406 0006 0D46     		mov	r5, r1
 5407 0008 0029     		cmp	r1, #0
 5408 000a 64D1     		bne	.L760
 5409 000c 90F83E00 		ldrb	r0, [r0, #62]	@ zero_extendqisi2
 5410 0010 C0B2     		uxtb	r0, r0
 5411 0012 0228     		cmp	r0, #2
 5412 0014 14BF     		ite	ne
 5413 0016 0020     		movne	r0, #0
 5414 0018 0120     		moveq	r0, #1
 5415              	.L761:
 5416 001a 0028     		cmp	r0, #0
 5417 001c 40F01481 		bne	.L781
 5418 0020 002D     		cmp	r5, #0
 5419 0022 74D1     		bne	.L765
 5420 0024 94F83E20 		ldrb	r2, [r4, #62]	@ zero_extendqisi2
 5421 0028 D2B2     		uxtb	r2, r2
 5422 002a 012A     		cmp	r2, #1
 5423 002c 14BF     		ite	ne
 5424 002e 0022     		movne	r2, #0
 5425 0030 0122     		moveq	r2, #1
 5426              	.L766:
 5427 0032 002A     		cmp	r2, #0
 5428 0034 00F00A81 		beq	.L782
 5429 0038 002E     		cmp	r6, #0
 5430 003a 00F00981 		beq	.L783
 5431 003e 002B     		cmp	r3, #0
 5432 0040 00F00881 		beq	.L784
 5433 0044 002D     		cmp	r5, #0
 5434 0046 7ED1     		bne	.L769
 5435 0048 0222     		movs	r2, #2
 5436 004a 84F83E20 		strb	r2, [r4, #62]
 5437              	.L770:
 5438 004e 626A     		ldr	r2, [r4, #36]
 5439 0050 8749     		ldr	r1, .L802
 5440 0052 D163     		str	r1, [r2, #60]
 5441 0054 626A     		ldr	r2, [r4, #36]
 5442 0056 8749     		ldr	r1, .L802+4
 5443 0058 1164     		str	r1, [r2, #64]
 5444 005a 626A     		ldr	r2, [r4, #36]
 5445 005c 8649     		ldr	r1, .L802+8
 5446 005e D164     		str	r1, [r2, #76]
 5447 0060 2268     		ldr	r2, [r4]
ARM GAS  C:\Temp\ccF97kYR.s 			page 93


 5448 0062 3432     		adds	r2, r2, #52
 5449 0064 3146     		mov	r1, r6
 5450 0066 606A     		ldr	r0, [r4, #36]
 5451 0068 FFF7FEFF 		bl	HAL_DMA_Start_IT
 5452 006c 0028     		cmp	r0, #0
 5453 006e 40F0F580 		bne	.L786
 5454 0072 2268     		ldr	r2, [r4]
 5455 0074 D368     		ldr	r3, [r2, #12]
 5456 0076 43F40073 		orr	r3, r3, #512
 5457 007a D360     		str	r3, [r2, #12]
 5458              	.L777:
 5459 007c 0122     		movs	r2, #1
 5460 007e 2946     		mov	r1, r5
 5461 0080 2068     		ldr	r0, [r4]
 5462 0082 FFF7FEFF 		bl	TIM_CCxChannelCmd
 5463 0086 2368     		ldr	r3, [r4]
 5464 0088 7C4A     		ldr	r2, .L802+12
 5465 008a 9342     		cmp	r3, r2
 5466 008c 00F0CC80 		beq	.L795
 5467              	.L778:
 5468 0090 2368     		ldr	r3, [r4]
 5469 0092 7A4A     		ldr	r2, .L802+12
 5470 0094 9342     		cmp	r3, r2
 5471 0096 00F0CC80 		beq	.L779
 5472 009a B3F1804F 		cmp	r3, #1073741824
 5473 009e 00F0C880 		beq	.L779
 5474 00a2 A2F57C42 		sub	r2, r2, #64512
 5475 00a6 9342     		cmp	r3, r2
 5476 00a8 00F0C380 		beq	.L779
 5477 00ac 02F58062 		add	r2, r2, #1024
 5478 00b0 9342     		cmp	r3, r2
 5479 00b2 00F0BE80 		beq	.L779
 5480 00b6 02F58062 		add	r2, r2, #1024
 5481 00ba 9342     		cmp	r3, r2
 5482 00bc 00F0B980 		beq	.L779
 5483 00c0 02F59A32 		add	r2, r2, #78848
 5484 00c4 9342     		cmp	r3, r2
 5485 00c6 00F0B480 		beq	.L779
 5486 00ca 1A68     		ldr	r2, [r3]
 5487 00cc 42F00102 		orr	r2, r2, #1
 5488 00d0 1A60     		str	r2, [r3]
 5489 00d2 0020     		movs	r0, #0
 5490 00d4 BBE0     		b	.L764
 5491              	.L760:
 5492 00d6 0429     		cmp	r1, #4
 5493 00d8 09D0     		beq	.L796
 5494 00da 0829     		cmp	r1, #8
 5495 00dc 0FD0     		beq	.L797
 5496 00de 90F84100 		ldrb	r0, [r0, #65]	@ zero_extendqisi2
 5497 00e2 C0B2     		uxtb	r0, r0
 5498 00e4 0228     		cmp	r0, #2
 5499 00e6 14BF     		ite	ne
 5500 00e8 0020     		movne	r0, #0
 5501 00ea 0120     		moveq	r0, #1
 5502 00ec 95E7     		b	.L761
 5503              	.L796:
 5504 00ee 90F83F00 		ldrb	r0, [r0, #63]	@ zero_extendqisi2
ARM GAS  C:\Temp\ccF97kYR.s 			page 94


 5505 00f2 C0B2     		uxtb	r0, r0
 5506 00f4 0228     		cmp	r0, #2
 5507 00f6 14BF     		ite	ne
 5508 00f8 0020     		movne	r0, #0
 5509 00fa 0120     		moveq	r0, #1
 5510 00fc 8DE7     		b	.L761
 5511              	.L797:
 5512 00fe 90F84000 		ldrb	r0, [r0, #64]	@ zero_extendqisi2
 5513 0102 C0B2     		uxtb	r0, r0
 5514 0104 0228     		cmp	r0, #2
 5515 0106 14BF     		ite	ne
 5516 0108 0020     		movne	r0, #0
 5517 010a 0120     		moveq	r0, #1
 5518 010c 85E7     		b	.L761
 5519              	.L765:
 5520 010e 042D     		cmp	r5, #4
 5521 0110 09D0     		beq	.L798
 5522 0112 082D     		cmp	r5, #8
 5523 0114 0FD0     		beq	.L799
 5524 0116 94F84120 		ldrb	r2, [r4, #65]	@ zero_extendqisi2
 5525 011a D2B2     		uxtb	r2, r2
 5526 011c 012A     		cmp	r2, #1
 5527 011e 14BF     		ite	ne
 5528 0120 0022     		movne	r2, #0
 5529 0122 0122     		moveq	r2, #1
 5530 0124 85E7     		b	.L766
 5531              	.L798:
 5532 0126 94F83F20 		ldrb	r2, [r4, #63]	@ zero_extendqisi2
 5533 012a D2B2     		uxtb	r2, r2
 5534 012c 012A     		cmp	r2, #1
 5535 012e 14BF     		ite	ne
 5536 0130 0022     		movne	r2, #0
 5537 0132 0122     		moveq	r2, #1
 5538 0134 7DE7     		b	.L766
 5539              	.L799:
 5540 0136 94F84020 		ldrb	r2, [r4, #64]	@ zero_extendqisi2
 5541 013a D2B2     		uxtb	r2, r2
 5542 013c 012A     		cmp	r2, #1
 5543 013e 14BF     		ite	ne
 5544 0140 0022     		movne	r2, #0
 5545 0142 0122     		moveq	r2, #1
 5546 0144 75E7     		b	.L766
 5547              	.L769:
 5548 0146 042D     		cmp	r5, #4
 5549 0148 24D0     		beq	.L800
 5550 014a 082D     		cmp	r5, #8
 5551 014c 3CD0     		beq	.L801
 5552 014e 0222     		movs	r2, #2
 5553 0150 84F84120 		strb	r2, [r4, #65]
 5554 0154 0C2D     		cmp	r5, #12
 5555 0156 7FD8     		bhi	.L785
 5556 0158 01A2     		adr	r2, .L776
 5557 015a 52F825F0 		ldr	pc, [r2, r5, lsl #2]
 5558 015e 00BF     		.p2align 2
 5559              	.L776:
 5560 0160 4F000000 		.word	.L770+1
 5561 0164 59020000 		.word	.L785+1
ARM GAS  C:\Temp\ccF97kYR.s 			page 95


 5562 0168 59020000 		.word	.L785+1
 5563 016c 59020000 		.word	.L785+1
 5564 0170 9B010000 		.word	.L772+1
 5565 0174 59020000 		.word	.L785+1
 5566 0178 59020000 		.word	.L785+1
 5567 017c 59020000 		.word	.L785+1
 5568 0180 CF010000 		.word	.L774+1
 5569 0184 59020000 		.word	.L785+1
 5570 0188 59020000 		.word	.L785+1
 5571 018c 59020000 		.word	.L785+1
 5572 0190 FD010000 		.word	.L775+1
 5573              		.p2align 1
 5574              	.L800:
 5575 0194 0222     		movs	r2, #2
 5576 0196 84F83F20 		strb	r2, [r4, #63]
 5577              	.L772:
 5578 019a A26A     		ldr	r2, [r4, #40]
 5579 019c 3449     		ldr	r1, .L802
 5580 019e D163     		str	r1, [r2, #60]
 5581 01a0 A26A     		ldr	r2, [r4, #40]
 5582 01a2 3449     		ldr	r1, .L802+4
 5583 01a4 1164     		str	r1, [r2, #64]
 5584 01a6 A26A     		ldr	r2, [r4, #40]
 5585 01a8 3349     		ldr	r1, .L802+8
 5586 01aa D164     		str	r1, [r2, #76]
 5587 01ac 2268     		ldr	r2, [r4]
 5588 01ae 3832     		adds	r2, r2, #56
 5589 01b0 3146     		mov	r1, r6
 5590 01b2 A06A     		ldr	r0, [r4, #40]
 5591 01b4 FFF7FEFF 		bl	HAL_DMA_Start_IT
 5592 01b8 0028     		cmp	r0, #0
 5593 01ba 51D1     		bne	.L787
 5594 01bc 2268     		ldr	r2, [r4]
 5595 01be D368     		ldr	r3, [r2, #12]
 5596 01c0 43F48063 		orr	r3, r3, #1024
 5597 01c4 D360     		str	r3, [r2, #12]
 5598 01c6 59E7     		b	.L777
 5599              	.L801:
 5600 01c8 0222     		movs	r2, #2
 5601 01ca 84F84020 		strb	r2, [r4, #64]
 5602              	.L774:
 5603 01ce E26A     		ldr	r2, [r4, #44]
 5604 01d0 2749     		ldr	r1, .L802
 5605 01d2 D163     		str	r1, [r2, #60]
 5606 01d4 E26A     		ldr	r2, [r4, #44]
 5607 01d6 2749     		ldr	r1, .L802+4
 5608 01d8 1164     		str	r1, [r2, #64]
 5609 01da E26A     		ldr	r2, [r4, #44]
 5610 01dc 2649     		ldr	r1, .L802+8
 5611 01de D164     		str	r1, [r2, #76]
 5612 01e0 2268     		ldr	r2, [r4]
 5613 01e2 3C32     		adds	r2, r2, #60
 5614 01e4 3146     		mov	r1, r6
 5615 01e6 E06A     		ldr	r0, [r4, #44]
 5616 01e8 FFF7FEFF 		bl	HAL_DMA_Start_IT
 5617 01ec 0028     		cmp	r0, #0
 5618 01ee 39D1     		bne	.L788
ARM GAS  C:\Temp\ccF97kYR.s 			page 96


 5619 01f0 2268     		ldr	r2, [r4]
 5620 01f2 D368     		ldr	r3, [r2, #12]
 5621 01f4 43F40063 		orr	r3, r3, #2048
 5622 01f8 D360     		str	r3, [r2, #12]
 5623 01fa 3FE7     		b	.L777
 5624              	.L775:
 5625 01fc 226B     		ldr	r2, [r4, #48]
 5626 01fe 1C49     		ldr	r1, .L802
 5627 0200 D163     		str	r1, [r2, #60]
 5628 0202 226B     		ldr	r2, [r4, #48]
 5629 0204 1B49     		ldr	r1, .L802+4
 5630 0206 1164     		str	r1, [r2, #64]
 5631 0208 226B     		ldr	r2, [r4, #48]
 5632 020a 1B49     		ldr	r1, .L802+8
 5633 020c D164     		str	r1, [r2, #76]
 5634 020e 2268     		ldr	r2, [r4]
 5635 0210 4032     		adds	r2, r2, #64
 5636 0212 3146     		mov	r1, r6
 5637 0214 206B     		ldr	r0, [r4, #48]
 5638 0216 FFF7FEFF 		bl	HAL_DMA_Start_IT
 5639 021a 28BB     		cbnz	r0, .L789
 5640 021c 2268     		ldr	r2, [r4]
 5641 021e D368     		ldr	r3, [r2, #12]
 5642 0220 43F48053 		orr	r3, r3, #4096
 5643 0224 D360     		str	r3, [r2, #12]
 5644 0226 29E7     		b	.L777
 5645              	.L795:
 5646 0228 5A6C     		ldr	r2, [r3, #68]
 5647 022a 42F40042 		orr	r2, r2, #32768
 5648 022e 5A64     		str	r2, [r3, #68]
 5649 0230 2EE7     		b	.L778
 5650              	.L779:
 5651 0232 9A68     		ldr	r2, [r3, #8]
 5652 0234 02F00702 		and	r2, r2, #7
 5653 0238 062A     		cmp	r2, #6
 5654 023a 17D0     		beq	.L790
 5655 023c 1A68     		ldr	r2, [r3]
 5656 023e 42F00102 		orr	r2, r2, #1
 5657 0242 1A60     		str	r2, [r3]
 5658 0244 0020     		movs	r0, #0
 5659 0246 02E0     		b	.L764
 5660              	.L781:
 5661 0248 0220     		movs	r0, #2
 5662 024a 00E0     		b	.L764
 5663              	.L782:
 5664 024c 0120     		movs	r0, #1
 5665              	.L764:
 5666 024e 70BD     		pop	{r4, r5, r6, pc}
 5667              	.L783:
 5668 0250 0120     		movs	r0, #1
 5669 0252 FCE7     		b	.L764
 5670              	.L784:
 5671 0254 0120     		movs	r0, #1
 5672 0256 FAE7     		b	.L764
 5673              	.L785:
 5674 0258 0120     		movs	r0, #1
 5675 025a F8E7     		b	.L764
ARM GAS  C:\Temp\ccF97kYR.s 			page 97


 5676              	.L786:
 5677 025c 0120     		movs	r0, #1
 5678 025e F6E7     		b	.L764
 5679              	.L787:
 5680 0260 0120     		movs	r0, #1
 5681 0262 F4E7     		b	.L764
 5682              	.L788:
 5683 0264 0120     		movs	r0, #1
 5684 0266 F2E7     		b	.L764
 5685              	.L789:
 5686 0268 0120     		movs	r0, #1
 5687 026a F0E7     		b	.L764
 5688              	.L790:
 5689 026c 0020     		movs	r0, #0
 5690 026e EEE7     		b	.L764
 5691              	.L803:
 5692              		.align	2
 5693              	.L802:
 5694 0270 00000000 		.word	TIM_DMADelayPulseCplt
 5695 0274 00000000 		.word	TIM_DMADelayPulseHalfCplt
 5696 0278 00000000 		.word	TIM_DMAError
 5697 027c 00000140 		.word	1073807360
 5699              		.section	.text.HAL_TIM_PWM_Stop_DMA,"ax",%progbits
 5700              		.align	1
 5701              		.global	HAL_TIM_PWM_Stop_DMA
 5702              		.syntax unified
 5703              		.thumb
 5704              		.thumb_func
 5706              	HAL_TIM_PWM_Stop_DMA:
 5707              		@ args = 0, pretend = 0, frame = 0
 5708              		@ frame_needed = 0, uses_anonymous_args = 0
 5709 0000 38B5     		push	{r3, r4, r5, lr}
 5710 0002 0446     		mov	r4, r0
 5711 0004 0D46     		mov	r5, r1
 5712 0006 0C29     		cmp	r1, #12
 5713 0008 6CD8     		bhi	.L817
 5714 000a DFE801F0 		tbb	[pc, r1]
 5715              	.L807:
 5716 000e 07       		.byte	(.L810-.L807)/2
 5717 000f 6B       		.byte	(.L817-.L807)/2
 5718 0010 6B       		.byte	(.L817-.L807)/2
 5719 0011 6B       		.byte	(.L817-.L807)/2
 5720 0012 2E       		.byte	(.L809-.L807)/2
 5721 0013 6B       		.byte	(.L817-.L807)/2
 5722 0014 6B       		.byte	(.L817-.L807)/2
 5723 0015 6B       		.byte	(.L817-.L807)/2
 5724 0016 37       		.byte	(.L808-.L807)/2
 5725 0017 6B       		.byte	(.L817-.L807)/2
 5726 0018 6B       		.byte	(.L817-.L807)/2
 5727 0019 6B       		.byte	(.L817-.L807)/2
 5728 001a 40       		.byte	(.L806-.L807)/2
 5729 001b 00       		.p2align 1
 5730              	.L810:
 5731 001c 0268     		ldr	r2, [r0]
 5732 001e D368     		ldr	r3, [r2, #12]
 5733 0020 23F40073 		bic	r3, r3, #512
 5734 0024 D360     		str	r3, [r2, #12]
ARM GAS  C:\Temp\ccF97kYR.s 			page 98


 5735 0026 406A     		ldr	r0, [r0, #36]
 5736 0028 FFF7FEFF 		bl	HAL_DMA_Abort_IT
 5737              	.L811:
 5738 002c 0022     		movs	r2, #0
 5739 002e 2946     		mov	r1, r5
 5740 0030 2068     		ldr	r0, [r4]
 5741 0032 FFF7FEFF 		bl	TIM_CCxChannelCmd
 5742 0036 2368     		ldr	r3, [r4]
 5743 0038 2B4A     		ldr	r2, .L822
 5744 003a 9342     		cmp	r3, r2
 5745 003c 30D0     		beq	.L819
 5746              	.L812:
 5747 003e 2368     		ldr	r3, [r4]
 5748 0040 196A     		ldr	r1, [r3, #32]
 5749 0042 41F21112 		movw	r2, #4369
 5750 0046 1142     		tst	r1, r2
 5751 0048 08D1     		bne	.L813
 5752 004a 196A     		ldr	r1, [r3, #32]
 5753 004c 40F24442 		movw	r2, #1092
 5754 0050 1142     		tst	r1, r2
 5755 0052 03D1     		bne	.L813
 5756 0054 1A68     		ldr	r2, [r3]
 5757 0056 22F00102 		bic	r2, r2, #1
 5758 005a 1A60     		str	r2, [r3]
 5759              	.L813:
 5760 005c 002D     		cmp	r5, #0
 5761 005e 2ED1     		bne	.L814
 5762 0060 0123     		movs	r3, #1
 5763 0062 84F83E30 		strb	r3, [r4, #62]
 5764 0066 0020     		movs	r0, #0
 5765 0068 3DE0     		b	.L805
 5766              	.L809:
 5767 006a 0268     		ldr	r2, [r0]
 5768 006c D368     		ldr	r3, [r2, #12]
 5769 006e 23F48063 		bic	r3, r3, #1024
 5770 0072 D360     		str	r3, [r2, #12]
 5771 0074 806A     		ldr	r0, [r0, #40]
 5772 0076 FFF7FEFF 		bl	HAL_DMA_Abort_IT
 5773 007a D7E7     		b	.L811
 5774              	.L808:
 5775 007c 0268     		ldr	r2, [r0]
 5776 007e D368     		ldr	r3, [r2, #12]
 5777 0080 23F40063 		bic	r3, r3, #2048
 5778 0084 D360     		str	r3, [r2, #12]
 5779 0086 C06A     		ldr	r0, [r0, #44]
 5780 0088 FFF7FEFF 		bl	HAL_DMA_Abort_IT
 5781 008c CEE7     		b	.L811
 5782              	.L806:
 5783 008e 0268     		ldr	r2, [r0]
 5784 0090 D368     		ldr	r3, [r2, #12]
 5785 0092 23F48053 		bic	r3, r3, #4096
 5786 0096 D360     		str	r3, [r2, #12]
 5787 0098 006B     		ldr	r0, [r0, #48]
 5788 009a FFF7FEFF 		bl	HAL_DMA_Abort_IT
 5789 009e C5E7     		b	.L811
 5790              	.L819:
 5791 00a0 196A     		ldr	r1, [r3, #32]
ARM GAS  C:\Temp\ccF97kYR.s 			page 99


 5792 00a2 41F21112 		movw	r2, #4369
 5793 00a6 1142     		tst	r1, r2
 5794 00a8 C9D1     		bne	.L812
 5795 00aa 196A     		ldr	r1, [r3, #32]
 5796 00ac 40F24442 		movw	r2, #1092
 5797 00b0 1142     		tst	r1, r2
 5798 00b2 C4D1     		bne	.L812
 5799 00b4 5A6C     		ldr	r2, [r3, #68]
 5800 00b6 22F40042 		bic	r2, r2, #32768
 5801 00ba 5A64     		str	r2, [r3, #68]
 5802 00bc BFE7     		b	.L812
 5803              	.L814:
 5804 00be 042D     		cmp	r5, #4
 5805 00c0 06D0     		beq	.L820
 5806 00c2 082D     		cmp	r5, #8
 5807 00c4 09D0     		beq	.L821
 5808 00c6 0123     		movs	r3, #1
 5809 00c8 84F84130 		strb	r3, [r4, #65]
 5810 00cc 0020     		movs	r0, #0
 5811 00ce 0AE0     		b	.L805
 5812              	.L820:
 5813 00d0 0123     		movs	r3, #1
 5814 00d2 84F83F30 		strb	r3, [r4, #63]
 5815 00d6 0020     		movs	r0, #0
 5816 00d8 05E0     		b	.L805
 5817              	.L821:
 5818 00da 0123     		movs	r3, #1
 5819 00dc 84F84030 		strb	r3, [r4, #64]
 5820 00e0 0020     		movs	r0, #0
 5821 00e2 00E0     		b	.L805
 5822              	.L817:
 5823 00e4 0120     		movs	r0, #1
 5824              	.L805:
 5825 00e6 38BD     		pop	{r3, r4, r5, pc}
 5826              	.L823:
 5827              		.align	2
 5828              	.L822:
 5829 00e8 00000140 		.word	1073807360
 5831              		.section	.text.HAL_TIM_IC_Start,"ax",%progbits
 5832              		.align	1
 5833              		.global	HAL_TIM_IC_Start
 5834              		.syntax unified
 5835              		.thumb
 5836              		.thumb_func
 5838              	HAL_TIM_IC_Start:
 5839              		@ args = 0, pretend = 0, frame = 0
 5840              		@ frame_needed = 0, uses_anonymous_args = 0
 5841 0000 10B5     		push	{r4, lr}
 5842 0002 0446     		mov	r4, r0
 5843 0004 0B46     		mov	r3, r1
 5844 0006 0029     		cmp	r1, #0
 5845 0008 34D1     		bne	.L825
 5846 000a 90F83E00 		ldrb	r0, [r0, #62]	@ zero_extendqisi2
 5847 000e C0B2     		uxtb	r0, r0
 5848              	.L826:
 5849 0010 002B     		cmp	r3, #0
 5850 0012 3FD1     		bne	.L829
ARM GAS  C:\Temp\ccF97kYR.s 			page 100


 5851 0014 94F84220 		ldrb	r2, [r4, #66]	@ zero_extendqisi2
 5852 0018 D2B2     		uxtb	r2, r2
 5853              	.L830:
 5854 001a 0128     		cmp	r0, #1
 5855 001c 74D1     		bne	.L843
 5856 001e 012A     		cmp	r2, #1
 5857 0020 73D1     		bne	.L833
 5858 0022 002B     		cmp	r3, #0
 5859 0024 46D1     		bne	.L834
 5860 0026 0222     		movs	r2, #2
 5861 0028 84F83E20 		strb	r2, [r4, #62]
 5862 002c 84F84220 		strb	r2, [r4, #66]
 5863              	.L835:
 5864 0030 0122     		movs	r2, #1
 5865 0032 1946     		mov	r1, r3
 5866 0034 2068     		ldr	r0, [r4]
 5867 0036 FFF7FEFF 		bl	TIM_CCxChannelCmd
 5868 003a 2368     		ldr	r3, [r4]
 5869 003c 344A     		ldr	r2, .L854
 5870 003e 9342     		cmp	r3, r2
 5871 0040 57D0     		beq	.L841
 5872 0042 B3F1804F 		cmp	r3, #1073741824
 5873 0046 54D0     		beq	.L841
 5874 0048 A2F57C42 		sub	r2, r2, #64512
 5875 004c 9342     		cmp	r3, r2
 5876 004e 50D0     		beq	.L841
 5877 0050 02F58062 		add	r2, r2, #1024
 5878 0054 9342     		cmp	r3, r2
 5879 0056 4CD0     		beq	.L841
 5880 0058 02F58062 		add	r2, r2, #1024
 5881 005c 9342     		cmp	r3, r2
 5882 005e 48D0     		beq	.L841
 5883 0060 02F59A32 		add	r2, r2, #78848
 5884 0064 9342     		cmp	r3, r2
 5885 0066 44D0     		beq	.L841
 5886 0068 1A68     		ldr	r2, [r3]
 5887 006a 42F00102 		orr	r2, r2, #1
 5888 006e 1A60     		str	r2, [r3]
 5889 0070 0020     		movs	r0, #0
 5890 0072 4AE0     		b	.L833
 5891              	.L825:
 5892 0074 0429     		cmp	r1, #4
 5893 0076 05D0     		beq	.L846
 5894 0078 0829     		cmp	r1, #8
 5895 007a 07D0     		beq	.L847
 5896 007c 90F84100 		ldrb	r0, [r0, #65]	@ zero_extendqisi2
 5897 0080 C0B2     		uxtb	r0, r0
 5898 0082 C5E7     		b	.L826
 5899              	.L846:
 5900 0084 90F83F00 		ldrb	r0, [r0, #63]	@ zero_extendqisi2
 5901 0088 C0B2     		uxtb	r0, r0
 5902 008a C1E7     		b	.L826
 5903              	.L847:
 5904 008c 90F84000 		ldrb	r0, [r0, #64]	@ zero_extendqisi2
 5905 0090 C0B2     		uxtb	r0, r0
 5906 0092 BDE7     		b	.L826
 5907              	.L829:
ARM GAS  C:\Temp\ccF97kYR.s 			page 101


 5908 0094 042B     		cmp	r3, #4
 5909 0096 05D0     		beq	.L848
 5910 0098 082B     		cmp	r3, #8
 5911 009a 07D0     		beq	.L849
 5912 009c 94F84520 		ldrb	r2, [r4, #69]	@ zero_extendqisi2
 5913 00a0 D2B2     		uxtb	r2, r2
 5914 00a2 BAE7     		b	.L830
 5915              	.L848:
 5916 00a4 94F84320 		ldrb	r2, [r4, #67]	@ zero_extendqisi2
 5917 00a8 D2B2     		uxtb	r2, r2
 5918 00aa B6E7     		b	.L830
 5919              	.L849:
 5920 00ac 94F84420 		ldrb	r2, [r4, #68]	@ zero_extendqisi2
 5921 00b0 D2B2     		uxtb	r2, r2
 5922 00b2 B2E7     		b	.L830
 5923              	.L834:
 5924 00b4 042B     		cmp	r3, #4
 5925 00b6 0CD0     		beq	.L850
 5926 00b8 082B     		cmp	r3, #8
 5927 00ba 0ED0     		beq	.L851
 5928 00bc 0222     		movs	r2, #2
 5929 00be 84F84120 		strb	r2, [r4, #65]
 5930              	.L837:
 5931 00c2 042B     		cmp	r3, #4
 5932 00c4 0DD0     		beq	.L852
 5933 00c6 082B     		cmp	r3, #8
 5934 00c8 0FD0     		beq	.L853
 5935 00ca 0222     		movs	r2, #2
 5936 00cc 84F84520 		strb	r2, [r4, #69]
 5937 00d0 AEE7     		b	.L835
 5938              	.L850:
 5939 00d2 0222     		movs	r2, #2
 5940 00d4 84F83F20 		strb	r2, [r4, #63]
 5941 00d8 F3E7     		b	.L837
 5942              	.L851:
 5943 00da 0222     		movs	r2, #2
 5944 00dc 84F84020 		strb	r2, [r4, #64]
 5945 00e0 EFE7     		b	.L837
 5946              	.L852:
 5947 00e2 0222     		movs	r2, #2
 5948 00e4 84F84320 		strb	r2, [r4, #67]
 5949 00e8 A2E7     		b	.L835
 5950              	.L853:
 5951 00ea 0222     		movs	r2, #2
 5952 00ec 84F84420 		strb	r2, [r4, #68]
 5953 00f0 9EE7     		b	.L835
 5954              	.L841:
 5955 00f2 9A68     		ldr	r2, [r3, #8]
 5956 00f4 02F00702 		and	r2, r2, #7
 5957 00f8 062A     		cmp	r2, #6
 5958 00fa 07D0     		beq	.L844
 5959 00fc 1A68     		ldr	r2, [r3]
 5960 00fe 42F00102 		orr	r2, r2, #1
 5961 0102 1A60     		str	r2, [r3]
 5962 0104 0020     		movs	r0, #0
 5963 0106 00E0     		b	.L833
 5964              	.L843:
ARM GAS  C:\Temp\ccF97kYR.s 			page 102


 5965 0108 0120     		movs	r0, #1
 5966              	.L833:
 5967 010a 10BD     		pop	{r4, pc}
 5968              	.L844:
 5969 010c 0020     		movs	r0, #0
 5970 010e FCE7     		b	.L833
 5971              	.L855:
 5972              		.align	2
 5973              	.L854:
 5974 0110 00000140 		.word	1073807360
 5976              		.section	.text.HAL_TIM_IC_Stop,"ax",%progbits
 5977              		.align	1
 5978              		.global	HAL_TIM_IC_Stop
 5979              		.syntax unified
 5980              		.thumb
 5981              		.thumb_func
 5983              	HAL_TIM_IC_Stop:
 5984              		@ args = 0, pretend = 0, frame = 0
 5985              		@ frame_needed = 0, uses_anonymous_args = 0
 5986 0000 38B5     		push	{r3, r4, r5, lr}
 5987 0002 0446     		mov	r4, r0
 5988 0004 0D46     		mov	r5, r1
 5989 0006 0022     		movs	r2, #0
 5990 0008 0068     		ldr	r0, [r0]
 5991 000a FFF7FEFF 		bl	TIM_CCxChannelCmd
 5992 000e 2368     		ldr	r3, [r4]
 5993 0010 196A     		ldr	r1, [r3, #32]
 5994 0012 41F21112 		movw	r2, #4369
 5995 0016 1142     		tst	r1, r2
 5996 0018 08D1     		bne	.L857
 5997 001a 196A     		ldr	r1, [r3, #32]
 5998 001c 40F24442 		movw	r2, #1092
 5999 0020 1142     		tst	r1, r2
 6000 0022 03D1     		bne	.L857
 6001 0024 1A68     		ldr	r2, [r3]
 6002 0026 22F00102 		bic	r2, r2, #1
 6003 002a 1A60     		str	r2, [r3]
 6004              	.L857:
 6005 002c 35B9     		cbnz	r5, .L858
 6006 002e 0123     		movs	r3, #1
 6007 0030 84F83E30 		strb	r3, [r4, #62]
 6008 0034 84F84230 		strb	r3, [r4, #66]
 6009              	.L859:
 6010 0038 0020     		movs	r0, #0
 6011 003a 38BD     		pop	{r3, r4, r5, pc}
 6012              	.L858:
 6013 003c 042D     		cmp	r5, #4
 6014 003e 0CD0     		beq	.L866
 6015 0040 082D     		cmp	r5, #8
 6016 0042 0ED0     		beq	.L867
 6017 0044 0123     		movs	r3, #1
 6018 0046 84F84130 		strb	r3, [r4, #65]
 6019              	.L861:
 6020 004a 042D     		cmp	r5, #4
 6021 004c 0DD0     		beq	.L868
 6022 004e 082D     		cmp	r5, #8
 6023 0050 0FD0     		beq	.L869
ARM GAS  C:\Temp\ccF97kYR.s 			page 103


 6024 0052 0123     		movs	r3, #1
 6025 0054 84F84530 		strb	r3, [r4, #69]
 6026 0058 EEE7     		b	.L859
 6027              	.L866:
 6028 005a 0123     		movs	r3, #1
 6029 005c 84F83F30 		strb	r3, [r4, #63]
 6030 0060 F3E7     		b	.L861
 6031              	.L867:
 6032 0062 0123     		movs	r3, #1
 6033 0064 84F84030 		strb	r3, [r4, #64]
 6034 0068 EFE7     		b	.L861
 6035              	.L868:
 6036 006a 0123     		movs	r3, #1
 6037 006c 84F84330 		strb	r3, [r4, #67]
 6038 0070 E2E7     		b	.L859
 6039              	.L869:
 6040 0072 0123     		movs	r3, #1
 6041 0074 84F84430 		strb	r3, [r4, #68]
 6042 0078 DEE7     		b	.L859
 6044              		.section	.text.HAL_TIM_IC_Start_IT,"ax",%progbits
 6045              		.align	1
 6046              		.global	HAL_TIM_IC_Start_IT
 6047              		.syntax unified
 6048              		.thumb
 6049              		.thumb_func
 6051              	HAL_TIM_IC_Start_IT:
 6052              		@ args = 0, pretend = 0, frame = 0
 6053              		@ frame_needed = 0, uses_anonymous_args = 0
 6054 0000 10B5     		push	{r4, lr}
 6055 0002 0446     		mov	r4, r0
 6056 0004 0B46     		mov	r3, r1
 6057 0006 F1B9     		cbnz	r1, .L871
 6058 0008 90F83E00 		ldrb	r0, [r0, #62]	@ zero_extendqisi2
 6059 000c C0B2     		uxtb	r0, r0
 6060              	.L872:
 6061 000e 53BB     		cbnz	r3, .L875
 6062 0010 94F84220 		ldrb	r2, [r4, #66]	@ zero_extendqisi2
 6063 0014 D2B2     		uxtb	r2, r2
 6064              	.L876:
 6065 0016 0128     		cmp	r0, #1
 6066 0018 40F09680 		bne	.L895
 6067 001c 012A     		cmp	r2, #1
 6068 001e 40F09480 		bne	.L879
 6069 0022 83BB     		cbnz	r3, .L880
 6070 0024 0221     		movs	r1, #2
 6071 0026 84F83E10 		strb	r1, [r4, #62]
 6072 002a 84F84210 		strb	r1, [r4, #66]
 6073              	.L881:
 6074 002e 0C2B     		cmp	r3, #12
 6075 0030 00F28C80 		bhi	.L896
 6076 0034 DFE803F0 		tbb	[pc, r3]
 6077              	.L890:
 6078 0038 71       		.byte	(.L891-.L890)/2
 6079 0039 8A       		.byte	(.L896-.L890)/2
 6080 003a 8A       		.byte	(.L896-.L890)/2
 6081 003b 8A       		.byte	(.L896-.L890)/2
 6082 003c 41       		.byte	(.L886-.L890)/2
ARM GAS  C:\Temp\ccF97kYR.s 			page 104


 6083 003d 8A       		.byte	(.L896-.L890)/2
 6084 003e 8A       		.byte	(.L896-.L890)/2
 6085 003f 8A       		.byte	(.L896-.L890)/2
 6086 0040 6B       		.byte	(.L888-.L890)/2
 6087 0041 8A       		.byte	(.L896-.L890)/2
 6088 0042 8A       		.byte	(.L896-.L890)/2
 6089 0043 8A       		.byte	(.L896-.L890)/2
 6090 0044 77       		.byte	(.L889-.L890)/2
 6091 0045 00       		.p2align 1
 6092              	.L871:
 6093 0046 0429     		cmp	r1, #4
 6094 0048 05D0     		beq	.L901
 6095 004a 0829     		cmp	r1, #8
 6096 004c 07D0     		beq	.L902
 6097 004e 90F84100 		ldrb	r0, [r0, #65]	@ zero_extendqisi2
 6098 0052 C0B2     		uxtb	r0, r0
 6099 0054 DBE7     		b	.L872
 6100              	.L901:
 6101 0056 90F83F00 		ldrb	r0, [r0, #63]	@ zero_extendqisi2
 6102 005a C0B2     		uxtb	r0, r0
 6103 005c D7E7     		b	.L872
 6104              	.L902:
 6105 005e 90F84000 		ldrb	r0, [r0, #64]	@ zero_extendqisi2
 6106 0062 C0B2     		uxtb	r0, r0
 6107 0064 D3E7     		b	.L872
 6108              	.L875:
 6109 0066 042B     		cmp	r3, #4
 6110 0068 05D0     		beq	.L903
 6111 006a 082B     		cmp	r3, #8
 6112 006c 07D0     		beq	.L904
 6113 006e 94F84520 		ldrb	r2, [r4, #69]	@ zero_extendqisi2
 6114 0072 D2B2     		uxtb	r2, r2
 6115 0074 CFE7     		b	.L876
 6116              	.L903:
 6117 0076 94F84320 		ldrb	r2, [r4, #67]	@ zero_extendqisi2
 6118 007a D2B2     		uxtb	r2, r2
 6119 007c CBE7     		b	.L876
 6120              	.L904:
 6121 007e 94F84420 		ldrb	r2, [r4, #68]	@ zero_extendqisi2
 6122 0082 D2B2     		uxtb	r2, r2
 6123 0084 C7E7     		b	.L876
 6124              	.L880:
 6125 0086 042B     		cmp	r3, #4
 6126 0088 0CD0     		beq	.L905
 6127 008a 082B     		cmp	r3, #8
 6128 008c 0ED0     		beq	.L906
 6129 008e 0221     		movs	r1, #2
 6130 0090 84F84110 		strb	r1, [r4, #65]
 6131              	.L883:
 6132 0094 042B     		cmp	r3, #4
 6133 0096 0DD0     		beq	.L907
 6134 0098 082B     		cmp	r3, #8
 6135 009a 35D0     		beq	.L908
 6136 009c 0221     		movs	r1, #2
 6137 009e 84F84510 		strb	r1, [r4, #69]
 6138 00a2 C4E7     		b	.L881
 6139              	.L905:
ARM GAS  C:\Temp\ccF97kYR.s 			page 105


 6140 00a4 0221     		movs	r1, #2
 6141 00a6 84F83F10 		strb	r1, [r4, #63]
 6142 00aa F3E7     		b	.L883
 6143              	.L906:
 6144 00ac 0221     		movs	r1, #2
 6145 00ae 84F84010 		strb	r1, [r4, #64]
 6146 00b2 EFE7     		b	.L883
 6147              	.L907:
 6148 00b4 0222     		movs	r2, #2
 6149 00b6 84F84320 		strb	r2, [r4, #67]
 6150              	.L886:
 6151 00ba 2168     		ldr	r1, [r4]
 6152 00bc CA68     		ldr	r2, [r1, #12]
 6153 00be 42F00402 		orr	r2, r2, #4
 6154 00c2 CA60     		str	r2, [r1, #12]
 6155              	.L892:
 6156 00c4 0122     		movs	r2, #1
 6157 00c6 1946     		mov	r1, r3
 6158 00c8 2068     		ldr	r0, [r4]
 6159 00ca FFF7FEFF 		bl	TIM_CCxChannelCmd
 6160 00ce 2368     		ldr	r3, [r4]
 6161 00d0 204A     		ldr	r2, .L909
 6162 00d2 9342     		cmp	r3, r2
 6163 00d4 2DD0     		beq	.L893
 6164 00d6 B3F1804F 		cmp	r3, #1073741824
 6165 00da 2AD0     		beq	.L893
 6166 00dc A2F57C42 		sub	r2, r2, #64512
 6167 00e0 9342     		cmp	r3, r2
 6168 00e2 26D0     		beq	.L893
 6169 00e4 02F58062 		add	r2, r2, #1024
 6170 00e8 9342     		cmp	r3, r2
 6171 00ea 22D0     		beq	.L893
 6172 00ec 02F58062 		add	r2, r2, #1024
 6173 00f0 9342     		cmp	r3, r2
 6174 00f2 1ED0     		beq	.L893
 6175 00f4 02F59A32 		add	r2, r2, #78848
 6176 00f8 9342     		cmp	r3, r2
 6177 00fa 1AD0     		beq	.L893
 6178 00fc 1A68     		ldr	r2, [r3]
 6179 00fe 42F00102 		orr	r2, r2, #1
 6180 0102 1A60     		str	r2, [r3]
 6181 0104 0020     		movs	r0, #0
 6182 0106 20E0     		b	.L879
 6183              	.L908:
 6184 0108 0222     		movs	r2, #2
 6185 010a 84F84420 		strb	r2, [r4, #68]
 6186              	.L888:
 6187 010e 2168     		ldr	r1, [r4]
 6188 0110 CA68     		ldr	r2, [r1, #12]
 6189 0112 42F00802 		orr	r2, r2, #8
 6190 0116 CA60     		str	r2, [r1, #12]
 6191 0118 D4E7     		b	.L892
 6192              	.L891:
 6193 011a 2168     		ldr	r1, [r4]
 6194 011c CA68     		ldr	r2, [r1, #12]
 6195 011e 42F00202 		orr	r2, r2, #2
 6196 0122 CA60     		str	r2, [r1, #12]
ARM GAS  C:\Temp\ccF97kYR.s 			page 106


 6197 0124 CEE7     		b	.L892
 6198              	.L889:
 6199 0126 2168     		ldr	r1, [r4]
 6200 0128 CA68     		ldr	r2, [r1, #12]
 6201 012a 42F01002 		orr	r2, r2, #16
 6202 012e CA60     		str	r2, [r1, #12]
 6203 0130 C8E7     		b	.L892
 6204              	.L893:
 6205 0132 9A68     		ldr	r2, [r3, #8]
 6206 0134 02F00702 		and	r2, r2, #7
 6207 0138 062A     		cmp	r2, #6
 6208 013a 09D0     		beq	.L897
 6209 013c 1A68     		ldr	r2, [r3]
 6210 013e 42F00102 		orr	r2, r2, #1
 6211 0142 1A60     		str	r2, [r3]
 6212 0144 0020     		movs	r0, #0
 6213 0146 00E0     		b	.L879
 6214              	.L895:
 6215 0148 0120     		movs	r0, #1
 6216              	.L879:
 6217 014a 10BD     		pop	{r4, pc}
 6218              	.L896:
 6219 014c 1046     		mov	r0, r2
 6220 014e FCE7     		b	.L879
 6221              	.L897:
 6222 0150 0020     		movs	r0, #0
 6223 0152 FAE7     		b	.L879
 6224              	.L910:
 6225              		.align	2
 6226              	.L909:
 6227 0154 00000140 		.word	1073807360
 6229              		.section	.text.HAL_TIM_IC_Stop_IT,"ax",%progbits
 6230              		.align	1
 6231              		.global	HAL_TIM_IC_Stop_IT
 6232              		.syntax unified
 6233              		.thumb
 6234              		.thumb_func
 6236              	HAL_TIM_IC_Stop_IT:
 6237              		@ args = 0, pretend = 0, frame = 0
 6238              		@ frame_needed = 0, uses_anonymous_args = 0
 6239 0000 38B5     		push	{r3, r4, r5, lr}
 6240 0002 0546     		mov	r5, r0
 6241 0004 0C46     		mov	r4, r1
 6242 0006 0C29     		cmp	r1, #12
 6243 0008 5DD8     		bhi	.L926
 6244 000a DFE801F0 		tbb	[pc, r1]
 6245              	.L914:
 6246 000e 07       		.byte	(.L917-.L914)/2
 6247 000f 5C       		.byte	(.L926-.L914)/2
 6248 0010 5C       		.byte	(.L926-.L914)/2
 6249 0011 5C       		.byte	(.L926-.L914)/2
 6250 0012 28       		.byte	(.L916-.L914)/2
 6251 0013 5C       		.byte	(.L926-.L914)/2
 6252 0014 5C       		.byte	(.L926-.L914)/2
 6253 0015 5C       		.byte	(.L926-.L914)/2
 6254 0016 2E       		.byte	(.L915-.L914)/2
 6255 0017 5C       		.byte	(.L926-.L914)/2
ARM GAS  C:\Temp\ccF97kYR.s 			page 107


 6256 0018 5C       		.byte	(.L926-.L914)/2
 6257 0019 5C       		.byte	(.L926-.L914)/2
 6258 001a 34       		.byte	(.L913-.L914)/2
 6259 001b 00       		.p2align 1
 6260              	.L917:
 6261 001c 0268     		ldr	r2, [r0]
 6262 001e D368     		ldr	r3, [r2, #12]
 6263 0020 23F00203 		bic	r3, r3, #2
 6264 0024 D360     		str	r3, [r2, #12]
 6265              	.L918:
 6266 0026 0022     		movs	r2, #0
 6267 0028 2146     		mov	r1, r4
 6268 002a 2868     		ldr	r0, [r5]
 6269 002c FFF7FEFF 		bl	TIM_CCxChannelCmd
 6270 0030 2B68     		ldr	r3, [r5]
 6271 0032 196A     		ldr	r1, [r3, #32]
 6272 0034 41F21112 		movw	r2, #4369
 6273 0038 1142     		tst	r1, r2
 6274 003a 08D1     		bne	.L919
 6275 003c 196A     		ldr	r1, [r3, #32]
 6276 003e 40F24442 		movw	r2, #1092
 6277 0042 1142     		tst	r1, r2
 6278 0044 03D1     		bne	.L919
 6279 0046 1A68     		ldr	r2, [r3]
 6280 0048 22F00102 		bic	r2, r2, #1
 6281 004c 1A60     		str	r2, [r3]
 6282              	.L919:
 6283 004e C4B9     		cbnz	r4, .L920
 6284 0050 0123     		movs	r3, #1
 6285 0052 85F83E30 		strb	r3, [r5, #62]
 6286 0056 85F84230 		strb	r3, [r5, #66]
 6287 005a 0020     		movs	r0, #0
 6288 005c 34E0     		b	.L912
 6289              	.L916:
 6290 005e 0268     		ldr	r2, [r0]
 6291 0060 D368     		ldr	r3, [r2, #12]
 6292 0062 23F00403 		bic	r3, r3, #4
 6293 0066 D360     		str	r3, [r2, #12]
 6294 0068 DDE7     		b	.L918
 6295              	.L915:
 6296 006a 0268     		ldr	r2, [r0]
 6297 006c D368     		ldr	r3, [r2, #12]
 6298 006e 23F00803 		bic	r3, r3, #8
 6299 0072 D360     		str	r3, [r2, #12]
 6300 0074 D7E7     		b	.L918
 6301              	.L913:
 6302 0076 0268     		ldr	r2, [r0]
 6303 0078 D368     		ldr	r3, [r2, #12]
 6304 007a 23F01003 		bic	r3, r3, #16
 6305 007e D360     		str	r3, [r2, #12]
 6306 0080 D1E7     		b	.L918
 6307              	.L920:
 6308 0082 042C     		cmp	r4, #4
 6309 0084 0DD0     		beq	.L928
 6310 0086 082C     		cmp	r4, #8
 6311 0088 0FD0     		beq	.L929
 6312 008a 0123     		movs	r3, #1
ARM GAS  C:\Temp\ccF97kYR.s 			page 108


 6313 008c 85F84130 		strb	r3, [r5, #65]
 6314              	.L922:
 6315 0090 042C     		cmp	r4, #4
 6316 0092 0ED0     		beq	.L930
 6317 0094 082C     		cmp	r4, #8
 6318 0096 11D0     		beq	.L931
 6319 0098 0123     		movs	r3, #1
 6320 009a 85F84530 		strb	r3, [r5, #69]
 6321 009e 0020     		movs	r0, #0
 6322 00a0 12E0     		b	.L912
 6323              	.L928:
 6324 00a2 0123     		movs	r3, #1
 6325 00a4 85F83F30 		strb	r3, [r5, #63]
 6326 00a8 F2E7     		b	.L922
 6327              	.L929:
 6328 00aa 0123     		movs	r3, #1
 6329 00ac 85F84030 		strb	r3, [r5, #64]
 6330 00b0 EEE7     		b	.L922
 6331              	.L930:
 6332 00b2 0123     		movs	r3, #1
 6333 00b4 85F84330 		strb	r3, [r5, #67]
 6334 00b8 0020     		movs	r0, #0
 6335 00ba 05E0     		b	.L912
 6336              	.L931:
 6337 00bc 0123     		movs	r3, #1
 6338 00be 85F84430 		strb	r3, [r5, #68]
 6339 00c2 0020     		movs	r0, #0
 6340 00c4 00E0     		b	.L912
 6341              	.L926:
 6342 00c6 0120     		movs	r0, #1
 6343              	.L912:
 6344 00c8 38BD     		pop	{r3, r4, r5, pc}
 6346              		.section	.text.HAL_TIM_IC_Start_DMA,"ax",%progbits
 6347              		.align	1
 6348              		.global	HAL_TIM_IC_Start_DMA
 6349              		.syntax unified
 6350              		.thumb
 6351              		.thumb_func
 6353              	HAL_TIM_IC_Start_DMA:
 6354              		@ args = 0, pretend = 0, frame = 0
 6355              		@ frame_needed = 0, uses_anonymous_args = 0
 6356 0000 2DE9F041 		push	{r4, r5, r6, r7, r8, lr}
 6357 0004 0446     		mov	r4, r0
 6358 0006 1646     		mov	r6, r2
 6359 0008 1F46     		mov	r7, r3
 6360 000a 0D46     		mov	r5, r1
 6361 000c 99BB     		cbnz	r1, .L933
 6362 000e 90F83E10 		ldrb	r1, [r0, #62]	@ zero_extendqisi2
 6363 0012 C8B2     		uxtb	r0, r1
 6364              	.L934:
 6365 0014 002D     		cmp	r5, #0
 6366 0016 3ED1     		bne	.L937
 6367 0018 94F84280 		ldrb	r8, [r4, #66]	@ zero_extendqisi2
 6368 001c 5FFA88F8 		uxtb	r8, r8
 6369              	.L938:
 6370 0020 0228     		cmp	r0, #2
 6371 0022 00F0F880 		beq	.L941
ARM GAS  C:\Temp\ccF97kYR.s 			page 109


 6372 0026 B8F1020F 		cmp	r8, #2
 6373 002a 00F0F180 		beq	.L957
 6374 002e 0128     		cmp	r0, #1
 6375 0030 40F0F080 		bne	.L958
 6376 0034 B8F1010F 		cmp	r8, #1
 6377 0038 40F0ED80 		bne	.L941
 6378 003c 002E     		cmp	r6, #0
 6379 003e 00F0EC80 		beq	.L959
 6380 0042 002F     		cmp	r7, #0
 6381 0044 00F0EB80 		beq	.L960
 6382 0048 002D     		cmp	r5, #0
 6383 004a 37D1     		bne	.L942
 6384 004c 0223     		movs	r3, #2
 6385 004e 84F83E30 		strb	r3, [r4, #62]
 6386 0052 84F84230 		strb	r3, [r4, #66]
 6387              	.L943:
 6388 0056 0122     		movs	r2, #1
 6389 0058 2946     		mov	r1, r5
 6390 005a 2068     		ldr	r0, [r4]
 6391 005c FFF7FEFF 		bl	TIM_CCxChannelCmd
 6392 0060 0C2D     		cmp	r5, #12
 6393 0062 63D8     		bhi	.L949
 6394 0064 DFE805F0 		tbb	[pc, r5]
 6395              	.L951:
 6396 0068 49       		.byte	(.L954-.L951)/2
 6397 0069 62       		.byte	(.L949-.L951)/2
 6398 006a 62       		.byte	(.L949-.L951)/2
 6399 006b 62       		.byte	(.L949-.L951)/2
 6400 006c 7F       		.byte	(.L953-.L951)/2
 6401 006d 62       		.byte	(.L949-.L951)/2
 6402 006e 62       		.byte	(.L949-.L951)/2
 6403 006f 62       		.byte	(.L949-.L951)/2
 6404 0070 98       		.byte	(.L952-.L951)/2
 6405 0071 62       		.byte	(.L949-.L951)/2
 6406 0072 62       		.byte	(.L949-.L951)/2
 6407 0073 62       		.byte	(.L949-.L951)/2
 6408 0074 B1       		.byte	(.L950-.L951)/2
 6409 0075 00       		.p2align 1
 6410              	.L933:
 6411 0076 0429     		cmp	r1, #4
 6412 0078 05D0     		beq	.L968
 6413 007a 0829     		cmp	r1, #8
 6414 007c 07D0     		beq	.L969
 6415 007e 90F84110 		ldrb	r1, [r0, #65]	@ zero_extendqisi2
 6416 0082 C8B2     		uxtb	r0, r1
 6417 0084 C6E7     		b	.L934
 6418              	.L968:
 6419 0086 90F83F10 		ldrb	r1, [r0, #63]	@ zero_extendqisi2
 6420 008a C8B2     		uxtb	r0, r1
 6421 008c C2E7     		b	.L934
 6422              	.L969:
 6423 008e 90F84000 		ldrb	r0, [r0, #64]	@ zero_extendqisi2
 6424 0092 C0B2     		uxtb	r0, r0
 6425 0094 BEE7     		b	.L934
 6426              	.L937:
 6427 0096 042D     		cmp	r5, #4
 6428 0098 06D0     		beq	.L970
ARM GAS  C:\Temp\ccF97kYR.s 			page 110


 6429 009a 082D     		cmp	r5, #8
 6430 009c 09D0     		beq	.L971
 6431 009e 94F84580 		ldrb	r8, [r4, #69]	@ zero_extendqisi2
 6432 00a2 5FFA88F8 		uxtb	r8, r8
 6433 00a6 BBE7     		b	.L938
 6434              	.L970:
 6435 00a8 94F84380 		ldrb	r8, [r4, #67]	@ zero_extendqisi2
 6436 00ac 5FFA88F8 		uxtb	r8, r8
 6437 00b0 B6E7     		b	.L938
 6438              	.L971:
 6439 00b2 94F84480 		ldrb	r8, [r4, #68]	@ zero_extendqisi2
 6440 00b6 5FFA88F8 		uxtb	r8, r8
 6441 00ba B1E7     		b	.L938
 6442              	.L942:
 6443 00bc 042D     		cmp	r5, #4
 6444 00be 0CD0     		beq	.L972
 6445 00c0 082D     		cmp	r5, #8
 6446 00c2 0ED0     		beq	.L973
 6447 00c4 0223     		movs	r3, #2
 6448 00c6 84F84130 		strb	r3, [r4, #65]
 6449              	.L945:
 6450 00ca 042D     		cmp	r5, #4
 6451 00cc 0DD0     		beq	.L974
 6452 00ce 082D     		cmp	r5, #8
 6453 00d0 0FD0     		beq	.L975
 6454 00d2 0223     		movs	r3, #2
 6455 00d4 84F84530 		strb	r3, [r4, #69]
 6456 00d8 BDE7     		b	.L943
 6457              	.L972:
 6458 00da 0223     		movs	r3, #2
 6459 00dc 84F83F30 		strb	r3, [r4, #63]
 6460 00e0 F3E7     		b	.L945
 6461              	.L973:
 6462 00e2 0223     		movs	r3, #2
 6463 00e4 84F84030 		strb	r3, [r4, #64]
 6464 00e8 EFE7     		b	.L945
 6465              	.L974:
 6466 00ea 0223     		movs	r3, #2
 6467 00ec 84F84330 		strb	r3, [r4, #67]
 6468 00f0 B1E7     		b	.L943
 6469              	.L975:
 6470 00f2 0223     		movs	r3, #2
 6471 00f4 84F84430 		strb	r3, [r4, #68]
 6472 00f8 ADE7     		b	.L943
 6473              	.L954:
 6474 00fa 636A     		ldr	r3, [r4, #36]
 6475 00fc 4E4A     		ldr	r2, .L976
 6476 00fe DA63     		str	r2, [r3, #60]
 6477 0100 636A     		ldr	r3, [r4, #36]
 6478 0102 4E4A     		ldr	r2, .L976+4
 6479 0104 1A64     		str	r2, [r3, #64]
 6480 0106 636A     		ldr	r3, [r4, #36]
 6481 0108 4D4A     		ldr	r2, .L976+8
 6482 010a DA64     		str	r2, [r3, #76]
 6483 010c 2168     		ldr	r1, [r4]
 6484 010e 3B46     		mov	r3, r7
 6485 0110 3246     		mov	r2, r6
ARM GAS  C:\Temp\ccF97kYR.s 			page 111


 6486 0112 3431     		adds	r1, r1, #52
 6487 0114 606A     		ldr	r0, [r4, #36]
 6488 0116 FFF7FEFF 		bl	HAL_DMA_Start_IT
 6489 011a 0028     		cmp	r0, #0
 6490 011c 40F08180 		bne	.L961
 6491 0120 2268     		ldr	r2, [r4]
 6492 0122 D368     		ldr	r3, [r2, #12]
 6493 0124 43F40073 		orr	r3, r3, #512
 6494 0128 D360     		str	r3, [r2, #12]
 6495 012a 8046     		mov	r8, r0
 6496              	.L949:
 6497 012c 2368     		ldr	r3, [r4]
 6498 012e 454A     		ldr	r2, .L976+12
 6499 0130 9342     		cmp	r3, r2
 6500 0132 62D0     		beq	.L955
 6501 0134 B3F1804F 		cmp	r3, #1073741824
 6502 0138 5FD0     		beq	.L955
 6503 013a A2F57C42 		sub	r2, r2, #64512
 6504 013e 9342     		cmp	r3, r2
 6505 0140 5BD0     		beq	.L955
 6506 0142 02F58062 		add	r2, r2, #1024
 6507 0146 9342     		cmp	r3, r2
 6508 0148 57D0     		beq	.L955
 6509 014a 02F58062 		add	r2, r2, #1024
 6510 014e 9342     		cmp	r3, r2
 6511 0150 53D0     		beq	.L955
 6512 0152 02F59A32 		add	r2, r2, #78848
 6513 0156 9342     		cmp	r3, r2
 6514 0158 4FD0     		beq	.L955
 6515 015a 1A68     		ldr	r2, [r3]
 6516 015c 42F00102 		orr	r2, r2, #1
 6517 0160 1A60     		str	r2, [r3]
 6518 0162 4046     		mov	r0, r8
 6519 0164 57E0     		b	.L941
 6520              	.L953:
 6521 0166 A36A     		ldr	r3, [r4, #40]
 6522 0168 334A     		ldr	r2, .L976
 6523 016a DA63     		str	r2, [r3, #60]
 6524 016c A36A     		ldr	r3, [r4, #40]
 6525 016e 334A     		ldr	r2, .L976+4
 6526 0170 1A64     		str	r2, [r3, #64]
 6527 0172 A36A     		ldr	r3, [r4, #40]
 6528 0174 324A     		ldr	r2, .L976+8
 6529 0176 DA64     		str	r2, [r3, #76]
 6530 0178 2168     		ldr	r1, [r4]
 6531 017a 3B46     		mov	r3, r7
 6532 017c 3246     		mov	r2, r6
 6533 017e 3831     		adds	r1, r1, #56
 6534 0180 A06A     		ldr	r0, [r4, #40]
 6535 0182 FFF7FEFF 		bl	HAL_DMA_Start_IT
 6536 0186 0028     		cmp	r0, #0
 6537 0188 4DD1     		bne	.L962
 6538 018a 2268     		ldr	r2, [r4]
 6539 018c D368     		ldr	r3, [r2, #12]
 6540 018e 43F48063 		orr	r3, r3, #1024
 6541 0192 D360     		str	r3, [r2, #12]
 6542 0194 8046     		mov	r8, r0
ARM GAS  C:\Temp\ccF97kYR.s 			page 112


 6543 0196 C9E7     		b	.L949
 6544              	.L952:
 6545 0198 E36A     		ldr	r3, [r4, #44]
 6546 019a 274A     		ldr	r2, .L976
 6547 019c DA63     		str	r2, [r3, #60]
 6548 019e E36A     		ldr	r3, [r4, #44]
 6549 01a0 264A     		ldr	r2, .L976+4
 6550 01a2 1A64     		str	r2, [r3, #64]
 6551 01a4 E36A     		ldr	r3, [r4, #44]
 6552 01a6 264A     		ldr	r2, .L976+8
 6553 01a8 DA64     		str	r2, [r3, #76]
 6554 01aa 2168     		ldr	r1, [r4]
 6555 01ac 3B46     		mov	r3, r7
 6556 01ae 3246     		mov	r2, r6
 6557 01b0 3C31     		adds	r1, r1, #60
 6558 01b2 E06A     		ldr	r0, [r4, #44]
 6559 01b4 FFF7FEFF 		bl	HAL_DMA_Start_IT
 6560 01b8 0028     		cmp	r0, #0
 6561 01ba 36D1     		bne	.L963
 6562 01bc 2268     		ldr	r2, [r4]
 6563 01be D368     		ldr	r3, [r2, #12]
 6564 01c0 43F40063 		orr	r3, r3, #2048
 6565 01c4 D360     		str	r3, [r2, #12]
 6566 01c6 8046     		mov	r8, r0
 6567 01c8 B0E7     		b	.L949
 6568              	.L950:
 6569 01ca 236B     		ldr	r3, [r4, #48]
 6570 01cc 1A4A     		ldr	r2, .L976
 6571 01ce DA63     		str	r2, [r3, #60]
 6572 01d0 236B     		ldr	r3, [r4, #48]
 6573 01d2 1A4A     		ldr	r2, .L976+4
 6574 01d4 1A64     		str	r2, [r3, #64]
 6575 01d6 236B     		ldr	r3, [r4, #48]
 6576 01d8 194A     		ldr	r2, .L976+8
 6577 01da DA64     		str	r2, [r3, #76]
 6578 01dc 2168     		ldr	r1, [r4]
 6579 01de 3B46     		mov	r3, r7
 6580 01e0 3246     		mov	r2, r6
 6581 01e2 4031     		adds	r1, r1, #64
 6582 01e4 206B     		ldr	r0, [r4, #48]
 6583 01e6 FFF7FEFF 		bl	HAL_DMA_Start_IT
 6584 01ea 00BB     		cbnz	r0, .L964
 6585 01ec 2268     		ldr	r2, [r4]
 6586 01ee D368     		ldr	r3, [r2, #12]
 6587 01f0 43F48053 		orr	r3, r3, #4096
 6588 01f4 D360     		str	r3, [r2, #12]
 6589 01f6 8046     		mov	r8, r0
 6590 01f8 98E7     		b	.L949
 6591              	.L955:
 6592 01fa 9A68     		ldr	r2, [r3, #8]
 6593 01fc 02F00702 		and	r2, r2, #7
 6594 0200 062A     		cmp	r2, #6
 6595 0202 16D0     		beq	.L965
 6596 0204 1A68     		ldr	r2, [r3]
 6597 0206 42F00102 		orr	r2, r2, #1
 6598 020a 1A60     		str	r2, [r3]
 6599 020c 4046     		mov	r0, r8
ARM GAS  C:\Temp\ccF97kYR.s 			page 113


 6600 020e 02E0     		b	.L941
 6601              	.L957:
 6602 0210 4046     		mov	r0, r8
 6603 0212 00E0     		b	.L941
 6604              	.L958:
 6605 0214 0120     		movs	r0, #1
 6606              	.L941:
 6607 0216 BDE8F081 		pop	{r4, r5, r6, r7, r8, pc}
 6608              	.L959:
 6609 021a 4046     		mov	r0, r8
 6610 021c FBE7     		b	.L941
 6611              	.L960:
 6612 021e 4046     		mov	r0, r8
 6613 0220 F9E7     		b	.L941
 6614              	.L961:
 6615 0222 4046     		mov	r0, r8
 6616 0224 F7E7     		b	.L941
 6617              	.L962:
 6618 0226 4046     		mov	r0, r8
 6619 0228 F5E7     		b	.L941
 6620              	.L963:
 6621 022a 4046     		mov	r0, r8
 6622 022c F3E7     		b	.L941
 6623              	.L964:
 6624 022e 4046     		mov	r0, r8
 6625 0230 F1E7     		b	.L941
 6626              	.L965:
 6627 0232 4046     		mov	r0, r8
 6628 0234 EFE7     		b	.L941
 6629              	.L977:
 6630 0236 00BF     		.align	2
 6631              	.L976:
 6632 0238 00000000 		.word	TIM_DMACaptureCplt
 6633 023c 00000000 		.word	TIM_DMACaptureHalfCplt
 6634 0240 00000000 		.word	TIM_DMAError
 6635 0244 00000140 		.word	1073807360
 6637              		.section	.text.HAL_TIM_IC_Stop_DMA,"ax",%progbits
 6638              		.align	1
 6639              		.global	HAL_TIM_IC_Stop_DMA
 6640              		.syntax unified
 6641              		.thumb
 6642              		.thumb_func
 6644              	HAL_TIM_IC_Stop_DMA:
 6645              		@ args = 0, pretend = 0, frame = 0
 6646              		@ frame_needed = 0, uses_anonymous_args = 0
 6647 0000 38B5     		push	{r3, r4, r5, lr}
 6648 0002 0446     		mov	r4, r0
 6649 0004 0D46     		mov	r5, r1
 6650 0006 0022     		movs	r2, #0
 6651 0008 0068     		ldr	r0, [r0]
 6652 000a FFF7FEFF 		bl	TIM_CCxChannelCmd
 6653 000e 0C2D     		cmp	r5, #12
 6654 0010 64D8     		bhi	.L993
 6655 0012 DFE805F0 		tbb	[pc, r5]
 6656              	.L981:
 6657 0016 07       		.byte	(.L984-.L981)/2
 6658 0017 63       		.byte	(.L993-.L981)/2
ARM GAS  C:\Temp\ccF97kYR.s 			page 114


 6659 0018 63       		.byte	(.L993-.L981)/2
 6660 0019 63       		.byte	(.L993-.L981)/2
 6661 001a 26       		.byte	(.L983-.L981)/2
 6662 001b 63       		.byte	(.L993-.L981)/2
 6663 001c 63       		.byte	(.L993-.L981)/2
 6664 001d 63       		.byte	(.L993-.L981)/2
 6665 001e 2F       		.byte	(.L982-.L981)/2
 6666 001f 63       		.byte	(.L993-.L981)/2
 6667 0020 63       		.byte	(.L993-.L981)/2
 6668 0021 63       		.byte	(.L993-.L981)/2
 6669 0022 38       		.byte	(.L980-.L981)/2
 6670 0023 00       		.p2align 1
 6671              	.L984:
 6672 0024 2268     		ldr	r2, [r4]
 6673 0026 D368     		ldr	r3, [r2, #12]
 6674 0028 23F40073 		bic	r3, r3, #512
 6675 002c D360     		str	r3, [r2, #12]
 6676 002e 606A     		ldr	r0, [r4, #36]
 6677 0030 FFF7FEFF 		bl	HAL_DMA_Abort_IT
 6678              	.L985:
 6679 0034 2368     		ldr	r3, [r4]
 6680 0036 196A     		ldr	r1, [r3, #32]
 6681 0038 41F21112 		movw	r2, #4369
 6682 003c 1142     		tst	r1, r2
 6683 003e 08D1     		bne	.L986
 6684 0040 196A     		ldr	r1, [r3, #32]
 6685 0042 40F24442 		movw	r2, #1092
 6686 0046 1142     		tst	r1, r2
 6687 0048 03D1     		bne	.L986
 6688 004a 1A68     		ldr	r2, [r3]
 6689 004c 22F00102 		bic	r2, r2, #1
 6690 0050 1A60     		str	r2, [r3]
 6691              	.L986:
 6692 0052 0DBB     		cbnz	r5, .L987
 6693 0054 0123     		movs	r3, #1
 6694 0056 84F83E30 		strb	r3, [r4, #62]
 6695 005a 84F84230 		strb	r3, [r4, #66]
 6696 005e 0020     		movs	r0, #0
 6697 0060 3DE0     		b	.L979
 6698              	.L983:
 6699 0062 2268     		ldr	r2, [r4]
 6700 0064 D368     		ldr	r3, [r2, #12]
 6701 0066 23F48063 		bic	r3, r3, #1024
 6702 006a D360     		str	r3, [r2, #12]
 6703 006c A06A     		ldr	r0, [r4, #40]
 6704 006e FFF7FEFF 		bl	HAL_DMA_Abort_IT
 6705 0072 DFE7     		b	.L985
 6706              	.L982:
 6707 0074 2268     		ldr	r2, [r4]
 6708 0076 D368     		ldr	r3, [r2, #12]
 6709 0078 23F40063 		bic	r3, r3, #2048
 6710 007c D360     		str	r3, [r2, #12]
 6711 007e E06A     		ldr	r0, [r4, #44]
 6712 0080 FFF7FEFF 		bl	HAL_DMA_Abort_IT
 6713 0084 D6E7     		b	.L985
 6714              	.L980:
 6715 0086 2268     		ldr	r2, [r4]
ARM GAS  C:\Temp\ccF97kYR.s 			page 115


 6716 0088 D368     		ldr	r3, [r2, #12]
 6717 008a 23F48053 		bic	r3, r3, #4096
 6718 008e D360     		str	r3, [r2, #12]
 6719 0090 206B     		ldr	r0, [r4, #48]
 6720 0092 FFF7FEFF 		bl	HAL_DMA_Abort_IT
 6721 0096 CDE7     		b	.L985
 6722              	.L987:
 6723 0098 042D     		cmp	r5, #4
 6724 009a 0DD0     		beq	.L995
 6725 009c 082D     		cmp	r5, #8
 6726 009e 0FD0     		beq	.L996
 6727 00a0 0123     		movs	r3, #1
 6728 00a2 84F84130 		strb	r3, [r4, #65]
 6729              	.L989:
 6730 00a6 042D     		cmp	r5, #4
 6731 00a8 0ED0     		beq	.L997
 6732 00aa 082D     		cmp	r5, #8
 6733 00ac 11D0     		beq	.L998
 6734 00ae 0123     		movs	r3, #1
 6735 00b0 84F84530 		strb	r3, [r4, #69]
 6736 00b4 0020     		movs	r0, #0
 6737 00b6 12E0     		b	.L979
 6738              	.L995:
 6739 00b8 0123     		movs	r3, #1
 6740 00ba 84F83F30 		strb	r3, [r4, #63]
 6741 00be F2E7     		b	.L989
 6742              	.L996:
 6743 00c0 0123     		movs	r3, #1
 6744 00c2 84F84030 		strb	r3, [r4, #64]
 6745 00c6 EEE7     		b	.L989
 6746              	.L997:
 6747 00c8 0123     		movs	r3, #1
 6748 00ca 84F84330 		strb	r3, [r4, #67]
 6749 00ce 0020     		movs	r0, #0
 6750 00d0 05E0     		b	.L979
 6751              	.L998:
 6752 00d2 0123     		movs	r3, #1
 6753 00d4 84F84430 		strb	r3, [r4, #68]
 6754 00d8 0020     		movs	r0, #0
 6755 00da 00E0     		b	.L979
 6756              	.L993:
 6757 00dc 0120     		movs	r0, #1
 6758              	.L979:
 6759 00de 38BD     		pop	{r3, r4, r5, pc}
 6761              		.section	.text.HAL_TIM_OnePulse_Start,"ax",%progbits
 6762              		.align	1
 6763              		.global	HAL_TIM_OnePulse_Start
 6764              		.syntax unified
 6765              		.thumb
 6766              		.thumb_func
 6768              	HAL_TIM_OnePulse_Start:
 6769              		@ args = 0, pretend = 0, frame = 0
 6770              		@ frame_needed = 0, uses_anonymous_args = 0
 6771 0000 10B5     		push	{r4, lr}
 6772 0002 0446     		mov	r4, r0
 6773 0004 90F83E00 		ldrb	r0, [r0, #62]	@ zero_extendqisi2
 6774 0008 C0B2     		uxtb	r0, r0
ARM GAS  C:\Temp\ccF97kYR.s 			page 116


 6775 000a 94F83F30 		ldrb	r3, [r4, #63]	@ zero_extendqisi2
 6776 000e 94F84220 		ldrb	r2, [r4, #66]	@ zero_extendqisi2
 6777 0012 94F84310 		ldrb	r1, [r4, #67]	@ zero_extendqisi2
 6778 0016 0128     		cmp	r0, #1
 6779 0018 28D1     		bne	.L1001
 6780 001a DBB2     		uxtb	r3, r3
 6781 001c D2B2     		uxtb	r2, r2
 6782 001e C9B2     		uxtb	r1, r1
 6783 0020 012B     		cmp	r3, #1
 6784 0022 24D1     		bne	.L1000
 6785 0024 012A     		cmp	r2, #1
 6786 0026 23D1     		bne	.L1002
 6787 0028 0129     		cmp	r1, #1
 6788 002a 01D0     		beq	.L1006
 6789 002c 1046     		mov	r0, r2
 6790 002e 1EE0     		b	.L1000
