ARM GAS  C:\Temp\ccTREKz2.s 			page 1


   1              		.cpu cortex-m4
   2              		.arch armv7e-m
   3              		.fpu fpv4-sp-d16
   4              		.eabi_attribute 27, 1
   5              		.eabi_attribute 28, 1
   6              		.eabi_attribute 20, 1
   7              		.eabi_attribute 21, 1
   8              		.eabi_attribute 23, 3
   9              		.eabi_attribute 24, 1
  10              		.eabi_attribute 25, 1
  11              		.eabi_attribute 26, 1
  12              		.eabi_attribute 30, 1
  13              		.eabi_attribute 34, 1
  14              		.eabi_attribute 18, 4
  15              		.file	"stm32f4xx_hal_msp.c"
  16              		.text
  17              		.section	.text.HAL_MspInit,"ax",%progbits
  18              		.align	1
  19              		.global	HAL_MspInit
  20              		.syntax unified
  21              		.thumb
  22              		.thumb_func
  24              	HAL_MspInit:
  25              		@ args = 0, pretend = 0, frame = 8
  26              		@ frame_needed = 0, uses_anonymous_args = 0
  27 0000 00B5     		push	{lr}
  28 0002 83B0     		sub	sp, sp, #12
  29 0004 0021     		movs	r1, #0
  30 0006 0091     		str	r1, [sp]
  31 0008 0C4B     		ldr	r3, .L3
  32 000a 5A6C     		ldr	r2, [r3, #68]
  33 000c 42F48042 		orr	r2, r2, #16384
  34 0010 5A64     		str	r2, [r3, #68]
  35 0012 5A6C     		ldr	r2, [r3, #68]
  36 0014 02F48042 		and	r2, r2, #16384
  37 0018 0092     		str	r2, [sp]
  38 001a 009A     		ldr	r2, [sp]
  39 001c 0191     		str	r1, [sp, #4]
  40 001e 1A6C     		ldr	r2, [r3, #64]
  41 0020 42F08052 		orr	r2, r2, #268435456
  42 0024 1A64     		str	r2, [r3, #64]
  43 0026 1B6C     		ldr	r3, [r3, #64]
  44 0028 03F08053 		and	r3, r3, #268435456
  45 002c 0193     		str	r3, [sp, #4]
  46 002e 019B     		ldr	r3, [sp, #4]
  47 0030 0520     		movs	r0, #5
  48 0032 FFF7FEFF 		bl	HAL_NVIC_SetPriorityGrouping
  49 0036 03B0     		add	sp, sp, #12
  50              		@ sp needed
  51 0038 5DF804FB 		ldr	pc, [sp], #4
  52              	.L4:
  53              		.align	2
  54              	.L3:
  55 003c 00380240 		.word	1073887232
  57              		.section	.text.HAL_I2C_MspInit,"ax",%progbits
  58              		.align	1
  59              		.global	HAL_I2C_MspInit
ARM GAS  C:\Temp\ccTREKz2.s 			page 2


  60              		.syntax unified
  61              		.thumb
  62              		.thumb_func
  64              	HAL_I2C_MspInit:
  65              		@ args = 0, pretend = 0, frame = 32
  66              		@ frame_needed = 0, uses_anonymous_args = 0
  67 0000 30B5     		push	{r4, r5, lr}
  68 0002 89B0     		sub	sp, sp, #36
  69 0004 0023     		movs	r3, #0
  70 0006 0393     		str	r3, [sp, #12]
  71 0008 0493     		str	r3, [sp, #16]
  72 000a 0593     		str	r3, [sp, #20]
  73 000c 0693     		str	r3, [sp, #24]
  74 000e 0793     		str	r3, [sp, #28]
  75 0010 0268     		ldr	r2, [r0]
  76 0012 144B     		ldr	r3, .L9
  77 0014 9A42     		cmp	r2, r3
  78 0016 01D0     		beq	.L8
  79              	.L5:
  80 0018 09B0     		add	sp, sp, #36
  81              		@ sp needed
  82 001a 30BD     		pop	{r4, r5, pc}
  83              	.L8:
  84 001c 0025     		movs	r5, #0
  85 001e 0195     		str	r5, [sp, #4]
  86 0020 114C     		ldr	r4, .L9+4
  87 0022 236B     		ldr	r3, [r4, #48]
  88 0024 43F00203 		orr	r3, r3, #2
  89 0028 2363     		str	r3, [r4, #48]
  90 002a 236B     		ldr	r3, [r4, #48]
  91 002c 03F00203 		and	r3, r3, #2
  92 0030 0193     		str	r3, [sp, #4]
  93 0032 019B     		ldr	r3, [sp, #4]
  94 0034 4FF44073 		mov	r3, #768
  95 0038 0393     		str	r3, [sp, #12]
  96 003a 1223     		movs	r3, #18
  97 003c 0493     		str	r3, [sp, #16]
  98 003e 0323     		movs	r3, #3
  99 0040 0693     		str	r3, [sp, #24]
 100 0042 0423     		movs	r3, #4
 101 0044 0793     		str	r3, [sp, #28]
 102 0046 03A9     		add	r1, sp, #12
 103 0048 0848     		ldr	r0, .L9+8
 104 004a FFF7FEFF 		bl	HAL_GPIO_Init
 105 004e 0295     		str	r5, [sp, #8]
 106 0050 236C     		ldr	r3, [r4, #64]
 107 0052 43F40013 		orr	r3, r3, #2097152
 108 0056 2364     		str	r3, [r4, #64]
 109 0058 236C     		ldr	r3, [r4, #64]
 110 005a 03F40013 		and	r3, r3, #2097152
 111 005e 0293     		str	r3, [sp, #8]
 112 0060 029B     		ldr	r3, [sp, #8]
 113 0062 D9E7     		b	.L5
 114              	.L10:
 115              		.align	2
 116              	.L9:
 117 0064 00540040 		.word	1073763328
ARM GAS  C:\Temp\ccTREKz2.s 			page 3


 118 0068 00380240 		.word	1073887232
 119 006c 00040240 		.word	1073873920
 121              		.section	.text.HAL_I2C_MspDeInit,"ax",%progbits
 122              		.align	1
 123              		.global	HAL_I2C_MspDeInit
 124              		.syntax unified
 125              		.thumb
 126              		.thumb_func
 128              	HAL_I2C_MspDeInit:
 129              		@ args = 0, pretend = 0, frame = 0
 130              		@ frame_needed = 0, uses_anonymous_args = 0
 131 0000 0268     		ldr	r2, [r0]
 132 0002 0B4B     		ldr	r3, .L18
 133 0004 9A42     		cmp	r2, r3
 134 0006 00D0     		beq	.L17
 135 0008 7047     		bx	lr
 136              	.L17:
 137 000a 10B5     		push	{r4, lr}
 138 000c 094A     		ldr	r2, .L18+4
 139 000e 136C     		ldr	r3, [r2, #64]
 140 0010 23F40013 		bic	r3, r3, #2097152
 141 0014 1364     		str	r3, [r2, #64]
 142 0016 084C     		ldr	r4, .L18+8
 143 0018 4FF48071 		mov	r1, #256
 144 001c 2046     		mov	r0, r4
 145 001e FFF7FEFF 		bl	HAL_GPIO_DeInit
 146 0022 4FF40071 		mov	r1, #512
 147 0026 2046     		mov	r0, r4
 148 0028 FFF7FEFF 		bl	HAL_GPIO_DeInit
 149 002c 10BD     		pop	{r4, pc}
 150              	.L19:
 151 002e 00BF     		.align	2
 152              	.L18:
 153 0030 00540040 		.word	1073763328
 154 0034 00380240 		.word	1073887232
 155 0038 00040240 		.word	1073873920
 157              		.section	.text.HAL_TIM_Base_MspInit,"ax",%progbits
 158              		.align	1
 159              		.global	HAL_TIM_Base_MspInit
 160              		.syntax unified
 161              		.thumb
 162              		.thumb_func
 164              	HAL_TIM_Base_MspInit:
 165              		@ args = 0, pretend = 0, frame = 8
 166              		@ frame_needed = 0, uses_anonymous_args = 0
 167 0000 00B5     		push	{lr}
 168 0002 83B0     		sub	sp, sp, #12
 169 0004 0368     		ldr	r3, [r0]
 170 0006 B3F1804F 		cmp	r3, #1073741824
 171 000a 05D0     		beq	.L24
 172 000c 174A     		ldr	r2, .L26
 173 000e 9342     		cmp	r3, r2
 174 0010 17D0     		beq	.L25
 175              	.L20:
 176 0012 03B0     		add	sp, sp, #12
 177              		@ sp needed
 178 0014 5DF804FB 		ldr	pc, [sp], #4
ARM GAS  C:\Temp\ccTREKz2.s 			page 4


 179              	.L24:
 180 0018 0021     		movs	r1, #0
 181 001a 0091     		str	r1, [sp]
 182 001c 03F50E33 		add	r3, r3, #145408
 183 0020 1A6C     		ldr	r2, [r3, #64]
 184 0022 42F00102 		orr	r2, r2, #1
 185 0026 1A64     		str	r2, [r3, #64]
 186 0028 1B6C     		ldr	r3, [r3, #64]
 187 002a 03F00103 		and	r3, r3, #1
 188 002e 0093     		str	r3, [sp]
 189 0030 009B     		ldr	r3, [sp]
 190 0032 0A46     		mov	r2, r1
 191 0034 1C20     		movs	r0, #28
 192 0036 FFF7FEFF 		bl	HAL_NVIC_SetPriority
 193 003a 1C20     		movs	r0, #28
 194 003c FFF7FEFF 		bl	HAL_NVIC_EnableIRQ
 195 0040 E7E7     		b	.L20
 196              	.L25:
 197 0042 0021     		movs	r1, #0
 198 0044 0191     		str	r1, [sp, #4]
 199 0046 0A4B     		ldr	r3, .L26+4
 200 0048 1A6C     		ldr	r2, [r3, #64]
 201 004a 42F00802 		orr	r2, r2, #8
 202 004e 1A64     		str	r2, [r3, #64]
 203 0050 1B6C     		ldr	r3, [r3, #64]
 204 0052 03F00803 		and	r3, r3, #8
 205 0056 0193     		str	r3, [sp, #4]
 206 0058 019B     		ldr	r3, [sp, #4]
 207 005a 0A46     		mov	r2, r1
 208 005c 3220     		movs	r0, #50
 209 005e FFF7FEFF 		bl	HAL_NVIC_SetPriority
 210 0062 3220     		movs	r0, #50
 211 0064 FFF7FEFF 		bl	HAL_NVIC_EnableIRQ
 212 0068 D3E7     		b	.L20
 213              	.L27:
 214 006a 00BF     		.align	2
 215              	.L26:
 216 006c 000C0040 		.word	1073744896
 217 0070 00380240 		.word	1073887232
 219              		.section	.text.HAL_TIM_Base_MspDeInit,"ax",%progbits
 220              		.align	1
 221              		.global	HAL_TIM_Base_MspDeInit
 222              		.syntax unified
 223              		.thumb
 224              		.thumb_func
 226              	HAL_TIM_Base_MspDeInit:
 227              		@ args = 0, pretend = 0, frame = 0
 228              		@ frame_needed = 0, uses_anonymous_args = 0
 229 0000 08B5     		push	{r3, lr}
 230 0002 0368     		ldr	r3, [r0]
 231 0004 B3F1804F 		cmp	r3, #1073741824
 232 0008 03D0     		beq	.L32
 233 000a 0B4A     		ldr	r2, .L34
 234 000c 9342     		cmp	r3, r2
 235 000e 09D0     		beq	.L33
 236              	.L28:
 237 0010 08BD     		pop	{r3, pc}
ARM GAS  C:\Temp\ccTREKz2.s 			page 5


 238              	.L32:
 239 0012 0A4A     		ldr	r2, .L34+4
 240 0014 136C     		ldr	r3, [r2, #64]
 241 0016 23F00103 		bic	r3, r3, #1
 242 001a 1364     		str	r3, [r2, #64]
 243 001c 1C20     		movs	r0, #28
 244 001e FFF7FEFF 		bl	HAL_NVIC_DisableIRQ
 245 0022 F5E7     		b	.L28
 246              	.L33:
 247 0024 02F50B32 		add	r2, r2, #142336
 248 0028 136C     		ldr	r3, [r2, #64]
 249 002a 23F00803 		bic	r3, r3, #8
 250 002e 1364     		str	r3, [r2, #64]
 251 0030 3220     		movs	r0, #50
 252 0032 FFF7FEFF 		bl	HAL_NVIC_DisableIRQ
 253 0036 EBE7     		b	.L28
 254              	.L35:
 255              		.align	2
 256              	.L34:
 257 0038 000C0040 		.word	1073744896
 258 003c 00380240 		.word	1073887232
 260              		.section	.text.HAL_UART_MspInit,"ax",%progbits
 261              		.align	1
 262              		.global	HAL_UART_MspInit
 263              		.syntax unified
 264              		.thumb
 265              		.thumb_func
 267              	HAL_UART_MspInit:
 268              		@ args = 0, pretend = 0, frame = 32
 269              		@ frame_needed = 0, uses_anonymous_args = 0
 270 0000 30B5     		push	{r4, r5, lr}
 271 0002 89B0     		sub	sp, sp, #36
 272 0004 0023     		movs	r3, #0
 273 0006 0393     		str	r3, [sp, #12]
 274 0008 0493     		str	r3, [sp, #16]
 275 000a 0593     		str	r3, [sp, #20]
 276 000c 0693     		str	r3, [sp, #24]
 277 000e 0793     		str	r3, [sp, #28]
 278 0010 0268     		ldr	r2, [r0]
 279 0012 214B     		ldr	r3, .L42
 280 0014 9A42     		cmp	r2, r3
 281 0016 01D0     		beq	.L40
 282              	.L36:
 283 0018 09B0     		add	sp, sp, #36
 284              		@ sp needed
 285 001a 30BD     		pop	{r4, r5, pc}
 286              	.L40:
 287 001c 0446     		mov	r4, r0
 288 001e 0025     		movs	r5, #0
 289 0020 0195     		str	r5, [sp, #4]
 290 0022 03F5FA33 		add	r3, r3, #128000
 291 0026 1A6C     		ldr	r2, [r3, #64]
 292 0028 42F40032 		orr	r2, r2, #131072
 293 002c 1A64     		str	r2, [r3, #64]
 294 002e 1A6C     		ldr	r2, [r3, #64]
 295 0030 02F40032 		and	r2, r2, #131072
 296 0034 0192     		str	r2, [sp, #4]
ARM GAS  C:\Temp\ccTREKz2.s 			page 6


 297 0036 019A     		ldr	r2, [sp, #4]
 298 0038 0295     		str	r5, [sp, #8]
 299 003a 1A6B     		ldr	r2, [r3, #48]
 300 003c 42F00102 		orr	r2, r2, #1
 301 0040 1A63     		str	r2, [r3, #48]
 302 0042 1B6B     		ldr	r3, [r3, #48]
 303 0044 03F00103 		and	r3, r3, #1
 304 0048 0293     		str	r3, [sp, #8]
 305 004a 029B     		ldr	r3, [sp, #8]
 306 004c 0C23     		movs	r3, #12
 307 004e 0393     		str	r3, [sp, #12]
 308 0050 0223     		movs	r3, #2
 309 0052 0493     		str	r3, [sp, #16]
 310 0054 0723     		movs	r3, #7
 311 0056 0793     		str	r3, [sp, #28]
 312 0058 03A9     		add	r1, sp, #12
 313 005a 1048     		ldr	r0, .L42+4
 314 005c FFF7FEFF 		bl	HAL_GPIO_Init
 315 0060 0F48     		ldr	r0, .L42+8
 316 0062 104B     		ldr	r3, .L42+12
 317 0064 0360     		str	r3, [r0]
 318 0066 4FF00063 		mov	r3, #134217728
 319 006a 4360     		str	r3, [r0, #4]
 320 006c 8560     		str	r5, [r0, #8]
 321 006e C560     		str	r5, [r0, #12]
 322 0070 4FF48063 		mov	r3, #1024
 323 0074 0361     		str	r3, [r0, #16]
 324 0076 4561     		str	r5, [r0, #20]
 325 0078 8561     		str	r5, [r0, #24]
 326 007a 4FF48073 		mov	r3, #256
 327 007e C361     		str	r3, [r0, #28]
 328 0080 0562     		str	r5, [r0, #32]
 329 0082 4562     		str	r5, [r0, #36]
 330 0084 FFF7FEFF 		bl	HAL_DMA_Init
 331 0088 18B9     		cbnz	r0, .L41
 332              	.L38:
 333 008a 054B     		ldr	r3, .L42+8
 334 008c E363     		str	r3, [r4, #60]
 335 008e 9C63     		str	r4, [r3, #56]
 336 0090 C2E7     		b	.L36
 337              	.L41:
 338 0092 FFF7FEFF 		bl	Error_Handler
 339 0096 F8E7     		b	.L38
 340              	.L43:
 341              		.align	2
 342              	.L42:
 343 0098 00440040 		.word	1073759232
 344 009c 00000240 		.word	1073872896
 345 00a0 00000000 		.word	hdma_usart2_rx
 346 00a4 88600240 		.word	1073897608
 348              		.section	.text.HAL_UART_MspDeInit,"ax",%progbits
 349              		.align	1
 350              		.global	HAL_UART_MspDeInit
 351              		.syntax unified
 352              		.thumb
 353              		.thumb_func
 355              	HAL_UART_MspDeInit:
ARM GAS  C:\Temp\ccTREKz2.s 			page 7


 356              		@ args = 0, pretend = 0, frame = 0
 357              		@ frame_needed = 0, uses_anonymous_args = 0
 358 0000 0268     		ldr	r2, [r0]
 359 0002 094B     		ldr	r3, .L51
 360 0004 9A42     		cmp	r2, r3
 361 0006 00D0     		beq	.L50
 362 0008 7047     		bx	lr
 363              	.L50:
 364 000a 10B5     		push	{r4, lr}
 365 000c 0446     		mov	r4, r0
 366 000e 074A     		ldr	r2, .L51+4
 367 0010 136C     		ldr	r3, [r2, #64]
 368 0012 23F40033 		bic	r3, r3, #131072
 369 0016 1364     		str	r3, [r2, #64]
 370 0018 0C21     		movs	r1, #12
 371 001a 0548     		ldr	r0, .L51+8
 372 001c FFF7FEFF 		bl	HAL_GPIO_DeInit
 373 0020 E06B     		ldr	r0, [r4, #60]
 374 0022 FFF7FEFF 		bl	HAL_DMA_DeInit
 375 0026 10BD     		pop	{r4, pc}
 376              	.L52:
 377              		.align	2
 378              	.L51:
 379 0028 00440040 		.word	1073759232
 380 002c 00380240 		.word	1073887232
 381 0030 00000240 		.word	1073872896
 383              		.ident	"GCC: (xPack GNU Arm Embedded GCC x86_64) 12.3.1 20230626"
ARM GAS  C:\Temp\ccTREKz2.s 			page 8

