ARM GAS  C:\Temp\ccb7OYN5.s 			page 1


   1              		.cpu cortex-m4
   2              		.arch armv7e-m
   3              		.fpu fpv4-sp-d16
   4              		.eabi_attribute 27, 1
   5              		.eabi_attribute 28, 1
   6              		.eabi_attribute 20, 1
   7              		.eabi_attribute 21, 1
   8              		.eabi_attribute 23, 3
   9              		.eabi_attribute 24, 1
  10              		.eabi_attribute 25, 1
  11              		.eabi_attribute 26, 1
  12              		.eabi_attribute 30, 1
  13              		.eabi_attribute 34, 1
  14              		.eabi_attribute 18, 4
  15              		.file	"vl53l1_core.c"
  16              		.text
  17              		.section	.text.VL53L1_init_version,"ax",%progbits
  18              		.align	1
  19              		.global	VL53L1_init_version
  20              		.syntax unified
  21              		.thumb
  22              		.thumb_func
  24              	VL53L1_init_version:
  25              		@ args = 0, pretend = 0, frame = 0
  26              		@ frame_needed = 0, uses_anonymous_args = 0
  27              		@ link register save eliminated.
  28 0000 0123     		movs	r3, #1
  29 0002 80F84030 		strb	r3, [r0, #64]
  30 0006 80F84130 		strb	r3, [r0, #65]
  31 000a 3023     		movs	r3, #48
  32 000c 80F84230 		strb	r3, [r0, #66]
  33 0010 4FF43F53 		mov	r3, #12224
  34 0014 C363     		str	r3, [r0, #60]
  35 0016 7047     		bx	lr
  37              		.section	.text.VL53L1_init_ll_driver_state,"ax",%progbits
  38              		.align	1
  39              		.global	VL53L1_init_ll_driver_state
  40              		.syntax unified
  41              		.thumb
  42              		.thumb_func
  44              	VL53L1_init_ll_driver_state:
  45              		@ args = 0, pretend = 0, frame = 0
  46              		@ frame_needed = 0, uses_anonymous_args = 0
  47              		@ link register save eliminated.
  48 0000 80F84410 		strb	r1, [r0, #68]
  49 0004 0023     		movs	r3, #0
  50 0006 80F84530 		strb	r3, [r0, #69]
  51 000a 0222     		movs	r2, #2
  52 000c 80F84820 		strb	r2, [r0, #72]
  53 0010 80F84930 		strb	r3, [r0, #73]
  54 0014 80F84A30 		strb	r3, [r0, #74]
  55 0018 80F84B10 		strb	r1, [r0, #75]
  56 001c 80F84C30 		strb	r3, [r0, #76]
  57 0020 80F84F20 		strb	r2, [r0, #79]
  58 0024 80F85030 		strb	r3, [r0, #80]
  59 0028 80F85130 		strb	r3, [r0, #81]
  60 002c 7047     		bx	lr
ARM GAS  C:\Temp\ccb7OYN5.s 			page 2


  62              		.section	.text.VL53L1_check_ll_driver_rd_state,"ax",%progbits
  63              		.align	1
  64              		.global	VL53L1_check_ll_driver_rd_state
  65              		.syntax unified
  66              		.thumb
  67              		.thumb_func
  69              	VL53L1_check_ll_driver_rd_state:
  70              		@ args = 0, pretend = 0, frame = 0
  71              		@ frame_needed = 0, uses_anonymous_args = 0
  72 0000 10B5     		push	{r4, lr}
  73 0002 0346     		mov	r3, r0
  74 0004 90F8C723 		ldrb	r2, [r0, #967]	@ zero_extendqisi2
  75 0008 02F01F00 		and	r0, r2, #31
  76 000c 93F8C9E3 		ldrb	lr, [r3, #969]	@ zero_extendqisi2
  77 0010 93F8C413 		ldrb	r1, [r3, #964]	@ zero_extendqisi2
  78 0014 93F8C623 		ldrb	r2, [r3, #966]	@ zero_extendqisi2
  79 0018 1209     		lsrs	r2, r2, #4
  80 001a 02F00202 		and	r2, r2, #2
  81 001e 11F00204 		ands	r4, r1, #2
  82 0022 04D0     		beq	.L4
  83 0024 93F89C24 		ldrb	r2, [r3, #1180]	@ zero_extendqisi2
  84 0028 1209     		lsrs	r2, r2, #4
  85 002a 02F00202 		and	r2, r2, #2
  86              	.L4:
  87 002e 11F0200F 		tst	r1, #32
  88 0032 36D0     		beq	.L10
  89 0034 93F84B10 		ldrb	r1, [r3, #75]	@ zero_extendqisi2
  90 0038 0629     		cmp	r1, #6
  91 003a 26D0     		beq	.L19
  92 003c 93F84C10 		ldrb	r1, [r3, #76]	@ zero_extendqisi2
  93 0040 7145     		cmp	r1, lr
  94 0042 27D0     		beq	.L20
  95 0044 6FF01100 		mvn	r0, #17
  96              	.L7:
  97 0048 93F84F10 		ldrb	r1, [r3, #79]	@ zero_extendqisi2
  98 004c 9142     		cmp	r1, r2
  99 004e 01D0     		beq	.L8
 100 0050 6FF01200 		mvn	r0, #18
 101              	.L8:
 102 0054 93F851C0 		ldrb	ip, [r3, #81]	@ zero_extendqisi2
 103 0058 03F5C041 		add	r1, r3, #24576
 104 005c 0CEB8C04 		add	r4, ip, ip, lsl #2
 105 0060 01EB4404 		add	r4, r1, r4, lsl #1
 106 0064 94F89247 		ldrb	r4, [r4, #1938]	@ zero_extendqisi2
 107 0068 0CEB8C0C 		add	ip, ip, ip, lsl #2
 108 006c 01EB4C01 		add	r1, r1, ip, lsl #1
 109 0070 91F89317 		ldrb	r1, [r1, #1939]	@ zero_extendqisi2
 110 0074 A645     		cmp	lr, r4
 111 0076 11D0     		beq	.L9
 112 0078 93F8DB30 		ldrb	r3, [r3, #219]	@ zero_extendqisi2
 113 007c 63B9     		cbnz	r3, .L15
 114 007e BEF1FF0F 		cmp	lr, #255
 115 0082 0BD0     		beq	.L9
 116 0084 6FF01300 		mvn	r0, #19
 117 0088 08E0     		b	.L9
 118              	.L19:
 119 008a 64B9     		cbnz	r4, .L11
ARM GAS  C:\Temp\ccb7OYN5.s 			page 3


 120 008c 1228     		cmp	r0, #18
 121 008e 0CD1     		bne	.L12
 122 0090 0020     		movs	r0, #0
 123 0092 05E0     		b	.L5
 124              	.L20:
 125 0094 0020     		movs	r0, #0
 126 0096 D7E7     		b	.L7
 127              	.L15:
 128 0098 6FF01300 		mvn	r0, #19
 129              	.L9:
 130 009c 8A42     		cmp	r2, r1
 131 009e 07D1     		bne	.L21
 132              	.L5:
 133 00a0 10BD     		pop	{r4, pc}
 134              	.L10:
 135 00a2 0020     		movs	r0, #0
 136 00a4 FCE7     		b	.L5
 137              	.L11:
 138 00a6 0020     		movs	r0, #0
 139 00a8 FAE7     		b	.L5
 140              	.L12:
 141 00aa 6FF01000 		mvn	r0, #16
 142 00ae F7E7     		b	.L5
 143              	.L21:
 144 00b0 6FF01400 		mvn	r0, #20
 145 00b4 F4E7     		b	.L5
 147              		.section	.text.VL53L1_copy_rtn_good_spads_to_buffer,"ax",%progbits
 148              		.align	1
 149              		.global	VL53L1_copy_rtn_good_spads_to_buffer
 150              		.syntax unified
 151              		.thumb
 152              		.thumb_func
 154              	VL53L1_copy_rtn_good_spads_to_buffer:
 155              		@ args = 0, pretend = 0, frame = 0
 156              		@ frame_needed = 0, uses_anonymous_args = 0
 157              		@ link register save eliminated.
 158 0000 037C     		ldrb	r3, [r0, #16]	@ zero_extendqisi2
 159 0002 0B70     		strb	r3, [r1]
 160 0004 437C     		ldrb	r3, [r0, #17]	@ zero_extendqisi2
 161 0006 4B70     		strb	r3, [r1, #1]
 162 0008 837C     		ldrb	r3, [r0, #18]	@ zero_extendqisi2
 163 000a 8B70     		strb	r3, [r1, #2]
 164 000c C37C     		ldrb	r3, [r0, #19]	@ zero_extendqisi2
 165 000e CB70     		strb	r3, [r1, #3]
 166 0010 037D     		ldrb	r3, [r0, #20]	@ zero_extendqisi2
 167 0012 0B71     		strb	r3, [r1, #4]
 168 0014 437D     		ldrb	r3, [r0, #21]	@ zero_extendqisi2
 169 0016 4B71     		strb	r3, [r1, #5]
 170 0018 837D     		ldrb	r3, [r0, #22]	@ zero_extendqisi2
 171 001a 8B71     		strb	r3, [r1, #6]
 172 001c C37D     		ldrb	r3, [r0, #23]	@ zero_extendqisi2
 173 001e CB71     		strb	r3, [r1, #7]
 174 0020 037E     		ldrb	r3, [r0, #24]	@ zero_extendqisi2
 175 0022 0B72     		strb	r3, [r1, #8]
 176 0024 437E     		ldrb	r3, [r0, #25]	@ zero_extendqisi2
 177 0026 4B72     		strb	r3, [r1, #9]
 178 0028 837E     		ldrb	r3, [r0, #26]	@ zero_extendqisi2
ARM GAS  C:\Temp\ccb7OYN5.s 			page 4


 179 002a 8B72     		strb	r3, [r1, #10]
 180 002c C37E     		ldrb	r3, [r0, #27]	@ zero_extendqisi2
 181 002e CB72     		strb	r3, [r1, #11]
 182 0030 037F     		ldrb	r3, [r0, #28]	@ zero_extendqisi2
 183 0032 0B73     		strb	r3, [r1, #12]
 184 0034 437F     		ldrb	r3, [r0, #29]	@ zero_extendqisi2
 185 0036 4B73     		strb	r3, [r1, #13]
 186 0038 837F     		ldrb	r3, [r0, #30]	@ zero_extendqisi2
 187 003a 8B73     		strb	r3, [r1, #14]
 188 003c C37F     		ldrb	r3, [r0, #31]	@ zero_extendqisi2
 189 003e CB73     		strb	r3, [r1, #15]
 190 0040 90F82030 		ldrb	r3, [r0, #32]	@ zero_extendqisi2
 191 0044 0B74     		strb	r3, [r1, #16]
 192 0046 90F82130 		ldrb	r3, [r0, #33]	@ zero_extendqisi2
 193 004a 4B74     		strb	r3, [r1, #17]
 194 004c 90F82230 		ldrb	r3, [r0, #34]	@ zero_extendqisi2
 195 0050 8B74     		strb	r3, [r1, #18]
 196 0052 90F82330 		ldrb	r3, [r0, #35]	@ zero_extendqisi2
 197 0056 CB74     		strb	r3, [r1, #19]
 198 0058 90F82430 		ldrb	r3, [r0, #36]	@ zero_extendqisi2
 199 005c 0B75     		strb	r3, [r1, #20]
 200 005e 90F82530 		ldrb	r3, [r0, #37]	@ zero_extendqisi2
 201 0062 4B75     		strb	r3, [r1, #21]
 202 0064 90F82630 		ldrb	r3, [r0, #38]	@ zero_extendqisi2
 203 0068 8B75     		strb	r3, [r1, #22]
 204 006a 90F82730 		ldrb	r3, [r0, #39]	@ zero_extendqisi2
 205 006e CB75     		strb	r3, [r1, #23]
 206 0070 90F82830 		ldrb	r3, [r0, #40]	@ zero_extendqisi2
 207 0074 0B76     		strb	r3, [r1, #24]
 208 0076 90F82930 		ldrb	r3, [r0, #41]	@ zero_extendqisi2
 209 007a 4B76     		strb	r3, [r1, #25]
 210 007c 90F82A30 		ldrb	r3, [r0, #42]	@ zero_extendqisi2
 211 0080 8B76     		strb	r3, [r1, #26]
 212 0082 90F82B30 		ldrb	r3, [r0, #43]	@ zero_extendqisi2
 213 0086 CB76     		strb	r3, [r1, #27]
 214 0088 90F82C30 		ldrb	r3, [r0, #44]	@ zero_extendqisi2
 215 008c 0B77     		strb	r3, [r1, #28]
 216 008e 90F82D30 		ldrb	r3, [r0, #45]	@ zero_extendqisi2
 217 0092 4B77     		strb	r3, [r1, #29]
 218 0094 90F82E30 		ldrb	r3, [r0, #46]	@ zero_extendqisi2
 219 0098 8B77     		strb	r3, [r1, #30]
 220 009a 90F82F30 		ldrb	r3, [r0, #47]	@ zero_extendqisi2
 221 009e CB77     		strb	r3, [r1, #31]
 222 00a0 7047     		bx	lr
 224              		.section	.text.VL53L1_init_system_results,"ax",%progbits
 225              		.align	1
 226              		.global	VL53L1_init_system_results
 227              		.syntax unified
 228              		.thumb
 229              		.thumb_func
 231              	VL53L1_init_system_results:
 232              		@ args = 0, pretend = 0, frame = 0
 233              		@ frame_needed = 0, uses_anonymous_args = 0
 234              		@ link register save eliminated.
 235 0000 FF23     		movs	r3, #255
 236 0002 0370     		strb	r3, [r0]
 237 0004 4370     		strb	r3, [r0, #1]
ARM GAS  C:\Temp\ccb7OYN5.s 			page 5


 238 0006 8370     		strb	r3, [r0, #2]
 239 0008 C370     		strb	r3, [r0, #3]
 240 000a 4FF6FF73 		movw	r3, #65535
 241 000e 8380     		strh	r3, [r0, #4]	@ movhi
 242 0010 C380     		strh	r3, [r0, #6]	@ movhi
 243 0012 0381     		strh	r3, [r0, #8]	@ movhi
 244 0014 4381     		strh	r3, [r0, #10]	@ movhi
 245 0016 8381     		strh	r3, [r0, #12]	@ movhi
 246 0018 C381     		strh	r3, [r0, #14]	@ movhi
 247 001a 0382     		strh	r3, [r0, #16]	@ movhi
 248 001c 4382     		strh	r3, [r0, #18]	@ movhi
 249 001e 8382     		strh	r3, [r0, #20]	@ movhi
 250 0020 C382     		strh	r3, [r0, #22]	@ movhi
 251 0022 0383     		strh	r3, [r0, #24]	@ movhi
 252 0024 4383     		strh	r3, [r0, #26]	@ movhi
 253 0026 8383     		strh	r3, [r0, #28]	@ movhi
 254 0028 C383     		strh	r3, [r0, #30]	@ movhi
 255 002a 0384     		strh	r3, [r0, #32]	@ movhi
 256 002c 4384     		strh	r3, [r0, #34]	@ movhi
 257 002e 8384     		strh	r3, [r0, #36]	@ movhi
 258 0030 C384     		strh	r3, [r0, #38]	@ movhi
 259 0032 0385     		strh	r3, [r0, #40]	@ movhi
 260 0034 80F82A30 		strb	r3, [r0, #42]
 261 0038 7047     		bx	lr
 263              		.section	.text.V53L1_init_zone_results_structure,"ax",%progbits
 264              		.align	1
 265              		.global	V53L1_init_zone_results_structure
 266              		.syntax unified
 267              		.thumb
 268              		.thumb_func
 270              	V53L1_init_zone_results_structure:
 271              		@ args = 0, pretend = 0, frame = 0
 272              		@ frame_needed = 0, uses_anonymous_args = 0
 273              		@ link register save eliminated.
 274 0000 1023     		movs	r3, #16
 275 0002 0B70     		strb	r3, [r1]
 276 0004 4870     		strb	r0, [r1, #1]
 277 0006 0023     		movs	r3, #0
 278 0008 10E0     		b	.L25
 279              	.L26:
 280 000a 03EB0312 		add	r2, r3, r3, lsl #4
 281 000e 01EB8202 		add	r2, r1, r2, lsl #2
 282 0012 0320     		movs	r0, #3
 283 0014 1071     		strb	r0, [r2, #4]
 284 0016 5071     		strb	r0, [r2, #5]
 285 0018 0420     		movs	r0, #4
 286 001a 1072     		strb	r0, [r2, #8]
 287 001c 03EB0312 		add	r2, r3, r3, lsl #4
 288 0020 01EB8202 		add	r2, r1, r2, lsl #2
 289 0024 0020     		movs	r0, #0
 290 0026 5072     		strb	r0, [r2, #9]
 291 0028 0133     		adds	r3, r3, #1
 292 002a DBB2     		uxtb	r3, r3
 293              	.L25:
 294 002c 0F2B     		cmp	r3, #15
 295 002e ECD9     		bls	.L26
 296 0030 7047     		bx	lr
ARM GAS  C:\Temp\ccb7OYN5.s 			page 6


 298              		.section	.text.V53L1_init_zone_dss_configs,"ax",%progbits
 299              		.align	1
 300              		.global	V53L1_init_zone_dss_configs
 301              		.syntax unified
 302              		.thumb
 303              		.thumb_func
 305              	V53L1_init_zone_dss_configs:
 306              		@ args = 0, pretend = 0, frame = 0
 307              		@ frame_needed = 0, uses_anonymous_args = 0
 308              		@ link register save eliminated.
 309 0000 0023     		movs	r3, #0
 310 0002 12E0     		b	.L28
 311              	.L29:
 312 0004 00F5C042 		add	r2, r0, #24576
 313 0008 03EB8301 		add	r1, r3, r3, lsl #2
 314 000c 02EB4101 		add	r1, r2, r1, lsl #1
 315 0010 4FF0010C 		mov	ip, #1
 316 0014 81F894C7 		strb	ip, [r1, #1940]
 317 0018 03EB8301 		add	r1, r3, r3, lsl #2
 318 001c 02EB4102 		add	r2, r2, r1, lsl #1
 319 0020 0021     		movs	r1, #0
 320 0022 A2F89617 		strh	r1, [r2, #1942]	@ movhi
 321 0026 6344     		add	r3, r3, ip
 322 0028 DBB2     		uxtb	r3, r3
 323              	.L28:
 324 002a 0F2B     		cmp	r3, #15
 325 002c EAD9     		bls	.L29
 326 002e 7047     		bx	lr
 328              		.section	.text.VL53L1_init_histogram_config_structure,"ax",%progbits
 329              		.align	1
 330              		.global	VL53L1_init_histogram_config_structure
 331              		.syntax unified
 332              		.thumb
 333              		.thumb_func
 335              	VL53L1_init_histogram_config_structure:
 336              		@ args = 36, pretend = 0, frame = 0
 337              		@ frame_needed = 0, uses_anonymous_args = 0
 338 0000 2DE9F043 		push	{r4, r5, r6, r7, r8, r9, lr}
 339 0004 9DF82C90 		ldrb	r9, [sp, #44]	@ zero_extendqisi2
 340 0008 9DF83070 		ldrb	r7, [sp, #48]	@ zero_extendqisi2
 341 000c 9DF83480 		ldrb	r8, [sp, #52]	@ zero_extendqisi2
 342 0010 9DF83860 		ldrb	r6, [sp, #56]	@ zero_extendqisi2
 343 0014 0F9C     		ldr	r4, [sp, #60]
 344 0016 0901     		lsls	r1, r1, #4
 345 0018 C9B2     		uxtb	r1, r1
 346 001a 0144     		add	r1, r1, r0
 347 001c CDB2     		uxtb	r5, r1
 348 001e 6570     		strb	r5, [r4, #1]
 349 0020 1B01     		lsls	r3, r3, #4
 350 0022 DBB2     		uxtb	r3, r3
 351 0024 1344     		add	r3, r3, r2
 352 0026 5FFA83FE 		uxtb	lr, r3
 353 002a 84F802E0 		strb	lr, [r4, #2]
 354 002e 9DF820C0 		ldrb	ip, [sp, #32]	@ zero_extendqisi2
 355 0032 4FEA0C1C 		lsl	ip, ip, #4
 356 0036 5FFA8CFC 		uxtb	ip, ip
 357 003a 9DF81C30 		ldrb	r3, [sp, #28]	@ zero_extendqisi2
ARM GAS  C:\Temp\ccb7OYN5.s 			page 7


 358 003e 9C44     		add	ip, ip, r3
 359 0040 5FFA8CFC 		uxtb	ip, ip
 360 0044 84F803C0 		strb	ip, [r4, #3]
 361 0048 9DF82830 		ldrb	r3, [sp, #40]	@ zero_extendqisi2
 362 004c 1B01     		lsls	r3, r3, #4
 363 004e DBB2     		uxtb	r3, r3
 364 0050 9DF82420 		ldrb	r2, [sp, #36]	@ zero_extendqisi2
 365 0054 1344     		add	r3, r3, r2
 366 0056 DBB2     		uxtb	r3, r3
 367 0058 2371     		strb	r3, [r4, #4]
 368 005a 3901     		lsls	r1, r7, #4
 369 005c C9B2     		uxtb	r1, r1
 370 005e 4944     		add	r1, r1, r9
 371 0060 C9B2     		uxtb	r1, r1
 372 0062 6171     		strb	r1, [r4, #5]
 373 0064 3201     		lsls	r2, r6, #4
 374 0066 D2B2     		uxtb	r2, r2
 375 0068 4244     		add	r2, r2, r8
 376 006a D2B2     		uxtb	r2, r2
 377 006c A271     		strb	r2, [r4, #6]
 378 006e E571     		strb	r5, [r4, #7]
 379 0070 84F808E0 		strb	lr, [r4, #8]
 380 0074 84F809C0 		strb	ip, [r4, #9]
 381 0078 A372     		strb	r3, [r4, #10]
 382 007a 84F80B90 		strb	r9, [r4, #11]
 383 007e 4FEA0810 		lsl	r0, r8, #4
 384 0082 C0B2     		uxtb	r0, r0
 385 0084 3844     		add	r0, r0, r7
 386 0086 2073     		strb	r0, [r4, #12]
 387 0088 6673     		strb	r6, [r4, #13]
 388 008a 0020     		movs	r0, #0
 389 008c A073     		strb	r0, [r4, #14]
 390 008e E573     		strb	r5, [r4, #15]
 391 0090 84F810E0 		strb	lr, [r4, #16]
 392 0094 84F811C0 		strb	ip, [r4, #17]
 393 0098 A374     		strb	r3, [r4, #18]
 394 009a E174     		strb	r1, [r4, #19]
 395 009c 2275     		strb	r2, [r4, #20]
 396 009e 4FF6FF73 		movw	r3, #65535
 397 00a2 E382     		strh	r3, [r4, #22]	@ movhi
 398 00a4 2383     		strh	r3, [r4, #24]	@ movhi
 399 00a6 2070     		strb	r0, [r4]
 400 00a8 BDE8F083 		pop	{r4, r5, r6, r7, r8, r9, pc}
 402              		.section	.text.VL53L1_init_histogram_multizone_config_structure,"ax",%progbits
 403              		.align	1
 404              		.global	VL53L1_init_histogram_multizone_config_structure
 405              		.syntax unified
 406              		.thumb
 407              		.thumb_func
 409              	VL53L1_init_histogram_multizone_config_structure:
 410              		@ args = 36, pretend = 0, frame = 0
 411              		@ frame_needed = 0, uses_anonymous_args = 0
 412 0000 70B5     		push	{r4, r5, r6, lr}
 413 0002 9DF82060 		ldrb	r6, [sp, #32]	@ zero_extendqisi2
 414 0006 9DF824E0 		ldrb	lr, [sp, #36]	@ zero_extendqisi2
 415 000a 9DF82850 		ldrb	r5, [sp, #40]	@ zero_extendqisi2
 416 000e 9DF82CC0 		ldrb	ip, [sp, #44]	@ zero_extendqisi2
ARM GAS  C:\Temp\ccb7OYN5.s 			page 8


 417 0012 0C9C     		ldr	r4, [sp, #48]
 418 0014 0901     		lsls	r1, r1, #4
 419 0016 C9B2     		uxtb	r1, r1
 420 0018 0144     		add	r1, r1, r0
 421 001a C9B2     		uxtb	r1, r1
 422 001c 6170     		strb	r1, [r4, #1]
 423 001e 1B01     		lsls	r3, r3, #4
 424 0020 DBB2     		uxtb	r3, r3
 425 0022 1A44     		add	r2, r2, r3
 426 0024 D2B2     		uxtb	r2, r2
 427 0026 A270     		strb	r2, [r4, #2]
 428 0028 9DF81430 		ldrb	r3, [sp, #20]	@ zero_extendqisi2
 429 002c 1B01     		lsls	r3, r3, #4
 430 002e DBB2     		uxtb	r3, r3
 431 0030 9DF81000 		ldrb	r0, [sp, #16]	@ zero_extendqisi2
 432 0034 0344     		add	r3, r3, r0
 433 0036 DBB2     		uxtb	r3, r3
 434 0038 E370     		strb	r3, [r4, #3]
 435 003a 2171     		strb	r1, [r4, #4]
 436 003c 6271     		strb	r2, [r4, #5]
 437 003e A371     		strb	r3, [r4, #6]
 438 0040 E171     		strb	r1, [r4, #7]
 439 0042 2272     		strb	r2, [r4, #8]
 440 0044 6372     		strb	r3, [r4, #9]
 441 0046 A172     		strb	r1, [r4, #10]
 442 0048 E672     		strb	r6, [r4, #11]
 443 004a 2B01     		lsls	r3, r5, #4
 444 004c DBB2     		uxtb	r3, r3
 445 004e 7344     		add	r3, r3, lr
 446 0050 2373     		strb	r3, [r4, #12]
 447 0052 84F80DC0 		strb	ip, [r4, #13]
 448 0056 0020     		movs	r0, #0
 449 0058 A073     		strb	r0, [r4, #14]
 450 005a 9DF81C10 		ldrb	r1, [sp, #28]	@ zero_extendqisi2
 451 005e 0901     		lsls	r1, r1, #4
 452 0060 C9B2     		uxtb	r1, r1
 453 0062 9DF81830 		ldrb	r3, [sp, #24]	@ zero_extendqisi2
 454 0066 1944     		add	r1, r1, r3
 455 0068 C9B2     		uxtb	r1, r1
 456 006a E173     		strb	r1, [r4, #15]
 457 006c 4FEA0E12 		lsl	r2, lr, #4
 458 0070 D2B2     		uxtb	r2, r2
 459 0072 3244     		add	r2, r2, r6
 460 0074 D2B2     		uxtb	r2, r2
 461 0076 2274     		strb	r2, [r4, #16]
 462 0078 4FEA0C13 		lsl	r3, ip, #4
 463 007c DBB2     		uxtb	r3, r3
 464 007e 2B44     		add	r3, r3, r5
 465 0080 DBB2     		uxtb	r3, r3
 466 0082 6374     		strb	r3, [r4, #17]
 467 0084 A174     		strb	r1, [r4, #18]
 468 0086 E274     		strb	r2, [r4, #19]
 469 0088 2375     		strb	r3, [r4, #20]
 470 008a 4FF6FF73 		movw	r3, #65535
 471 008e E382     		strh	r3, [r4, #22]	@ movhi
 472 0090 2383     		strh	r3, [r4, #24]	@ movhi
 473 0092 2070     		strb	r0, [r4]
ARM GAS  C:\Temp\ccb7OYN5.s 			page 9


 474 0094 70BD     		pop	{r4, r5, r6, pc}
 476              		.section	.text.VL53L1_init_xtalk_bin_data_struct,"ax",%progbits
 477              		.align	1
 478              		.global	VL53L1_init_xtalk_bin_data_struct
 479              		.syntax unified
 480              		.thumb
 481              		.thumb_func
 483              	VL53L1_init_xtalk_bin_data_struct:
 484              		@ args = 0, pretend = 0, frame = 0
 485              		@ frame_needed = 0, uses_anonymous_args = 0
 486              		@ link register save eliminated.
 487 0000 10B4     		push	{r4}
 488 0002 0023     		movs	r3, #0
 489 0004 1370     		strb	r3, [r2]
 490 0006 5360     		str	r3, [r2, #4]
 491 0008 1372     		strb	r3, [r2, #8]
 492 000a 0C24     		movs	r4, #12
 493 000c 5472     		strb	r4, [r2, #9]
 494 000e 9172     		strb	r1, [r2, #10]
 495 0010 9387     		strh	r3, [r2, #60]	@ movhi
 496 0012 82F83E30 		strb	r3, [r2, #62]
 497 0016 82F83F30 		strb	r3, [r2, #63]
 498 001a A2F84030 		strh	r3, [r2, #64]	@ movhi
 499 001e A2F84230 		strh	r3, [r2, #66]	@ movhi
 500 0022 A2F84430 		strh	r3, [r2, #68]	@ movhi
 501 0026 08E0     		b	.L35
 502              	.L36:
 503 0028 03F1020C 		add	ip, r3, #2
 504 002c 02EB8C0C 		add	ip, r2, ip, lsl #2
 505 0030 0024     		movs	r4, #0
 506 0032 CCF80440 		str	r4, [ip, #4]
 507              	.L37:
 508 0036 0133     		adds	r3, r3, #1
 509 0038 9BB2     		uxth	r3, r3
 510              	.L35:
 511 003a 0B2B     		cmp	r3, #11
 512 003c 08D8     		bhi	.L40
 513 003e 8B42     		cmp	r3, r1
 514 0040 F2D2     		bcs	.L36
 515 0042 03F1020C 		add	ip, r3, #2
 516 0046 02EB8C0C 		add	ip, r2, ip, lsl #2
 517 004a CCF80400 		str	r0, [ip, #4]
 518 004e F2E7     		b	.L37
 519              	.L40:
 520 0050 5DF8044B 		ldr	r4, [sp], #4
 521 0054 7047     		bx	lr
 523              		.section	.text.VL53L1_i2c_encode_uint16_t,"ax",%progbits
 524              		.align	1
 525              		.global	VL53L1_i2c_encode_uint16_t
 526              		.syntax unified
 527              		.thumb
 528              		.thumb_func
 530              	VL53L1_i2c_encode_uint16_t:
 531              		@ args = 0, pretend = 0, frame = 0
 532              		@ frame_needed = 0, uses_anonymous_args = 0
 533              		@ link register save eliminated.
 534 0000 0023     		movs	r3, #0
ARM GAS  C:\Temp\ccb7OYN5.s 			page 10


 535 0002 08E0     		b	.L42
 536              	.L43:
 537 0004 A1EB030C 		sub	ip, r1, r3
 538 0008 0CF1FF3C 		add	ip, ip, #-1
 539 000c 02F80C00 		strb	r0, [r2, ip]
 540 0010 000A     		lsrs	r0, r0, #8
 541 0012 0133     		adds	r3, r3, #1
 542 0014 9BB2     		uxth	r3, r3
 543              	.L42:
 544 0016 8B42     		cmp	r3, r1
 545 0018 F4D3     		bcc	.L43
 546 001a 7047     		bx	lr
 548              		.section	.text.VL53L1_i2c_decode_uint16_t,"ax",%progbits
 549              		.align	1
 550              		.global	VL53L1_i2c_decode_uint16_t
 551              		.syntax unified
 552              		.thumb
 553              		.thumb_func
 555              	VL53L1_i2c_decode_uint16_t:
 556              		@ args = 0, pretend = 0, frame = 0
 557              		@ frame_needed = 0, uses_anonymous_args = 0
 558              		@ link register save eliminated.
 559 0000 0246     		mov	r2, r0
 560 0002 0020     		movs	r0, #0
 561 0004 05E0     		b	.L45
 562              	.L46:
 563 0006 11F8012B 		ldrb	r2, [r1], #1	@ zero_extendqisi2
 564 000a 42EA0020 		orr	r0, r2, r0, lsl #8
 565 000e 80B2     		uxth	r0, r0
 566 0010 1A46     		mov	r2, r3
 567              	.L45:
 568 0012 531E     		subs	r3, r2, #1
 569 0014 9BB2     		uxth	r3, r3
 570 0016 002A     		cmp	r2, #0
 571 0018 F5D1     		bne	.L46
 572 001a 7047     		bx	lr
 574              		.section	.text.VL53L1_i2c_encode_int16_t,"ax",%progbits
 575              		.align	1
 576              		.global	VL53L1_i2c_encode_int16_t
 577              		.syntax unified
 578              		.thumb
 579              		.thumb_func
 581              	VL53L1_i2c_encode_int16_t:
 582              		@ args = 0, pretend = 0, frame = 0
 583              		@ frame_needed = 0, uses_anonymous_args = 0
 584              		@ link register save eliminated.
 585 0000 0023     		movs	r3, #0
 586 0002 08E0     		b	.L48
 587              	.L49:
 588 0004 A1EB030C 		sub	ip, r1, r3
 589 0008 0CF1FF3C 		add	ip, ip, #-1
 590 000c 02F80C00 		strb	r0, [r2, ip]
 591 0010 0012     		asrs	r0, r0, #8
 592 0012 0133     		adds	r3, r3, #1
 593 0014 9BB2     		uxth	r3, r3
 594              	.L48:
 595 0016 8B42     		cmp	r3, r1
ARM GAS  C:\Temp\ccb7OYN5.s 			page 11


 596 0018 F4D3     		bcc	.L49
 597 001a 7047     		bx	lr
 599              		.section	.text.VL53L1_i2c_decode_int16_t,"ax",%progbits
 600              		.align	1
 601              		.global	VL53L1_i2c_decode_int16_t
 602              		.syntax unified
 603              		.thumb
 604              		.thumb_func
 606              	VL53L1_i2c_decode_int16_t:
 607              		@ args = 0, pretend = 0, frame = 0
 608              		@ frame_needed = 0, uses_anonymous_args = 0
 609              		@ link register save eliminated.
 610 0000 0246     		mov	r2, r0
 611 0002 91F90030 		ldrsb	r3, [r1]
 612 0006 002B     		cmp	r3, #0
 613 0008 01DB     		blt	.L54
 614 000a 0020     		movs	r0, #0
 615 000c 08E0     		b	.L52
 616              	.L54:
 617 000e 4FF0FF30 		mov	r0, #-1
 618 0012 05E0     		b	.L52
 619              	.L53:
 620 0014 0002     		lsls	r0, r0, #8
 621 0016 00B2     		sxth	r0, r0
 622 0018 11F8012B 		ldrb	r2, [r1], #1	@ zero_extendqisi2
 623 001c 1043     		orrs	r0, r0, r2
 624 001e 1A46     		mov	r2, r3
 625              	.L52:
 626 0020 531E     		subs	r3, r2, #1
 627 0022 9BB2     		uxth	r3, r3
 628 0024 002A     		cmp	r2, #0
 629 0026 F5D1     		bne	.L53
 630 0028 7047     		bx	lr
 632              		.section	.text.VL53L1_i2c_encode_uint32_t,"ax",%progbits
 633              		.align	1
 634              		.global	VL53L1_i2c_encode_uint32_t
 635              		.syntax unified
 636              		.thumb
 637              		.thumb_func
 639              	VL53L1_i2c_encode_uint32_t:
 640              		@ args = 0, pretend = 0, frame = 0
 641              		@ frame_needed = 0, uses_anonymous_args = 0
 642              		@ link register save eliminated.
 643 0000 0023     		movs	r3, #0
 644 0002 08E0     		b	.L56
 645              	.L57:
 646 0004 A1EB030C 		sub	ip, r1, r3
 647 0008 0CF1FF3C 		add	ip, ip, #-1
 648 000c 02F80C00 		strb	r0, [r2, ip]
 649 0010 000A     		lsrs	r0, r0, #8
 650 0012 0133     		adds	r3, r3, #1
 651 0014 9BB2     		uxth	r3, r3
 652              	.L56:
 653 0016 8B42     		cmp	r3, r1
 654 0018 F4D3     		bcc	.L57
 655 001a 7047     		bx	lr
 657              		.section	.text.VL53L1_i2c_decode_uint32_t,"ax",%progbits
ARM GAS  C:\Temp\ccb7OYN5.s 			page 12


 658              		.align	1
 659              		.global	VL53L1_i2c_decode_uint32_t
 660              		.syntax unified
 661              		.thumb
 662              		.thumb_func
 664              	VL53L1_i2c_decode_uint32_t:
 665              		@ args = 0, pretend = 0, frame = 0
 666              		@ frame_needed = 0, uses_anonymous_args = 0
 667              		@ link register save eliminated.
 668 0000 0246     		mov	r2, r0
 669 0002 0020     		movs	r0, #0
 670 0004 04E0     		b	.L59
 671              	.L60:
 672 0006 11F8012B 		ldrb	r2, [r1], #1	@ zero_extendqisi2
 673 000a 42EA0020 		orr	r0, r2, r0, lsl #8
 674 000e 1A46     		mov	r2, r3
 675              	.L59:
 676 0010 531E     		subs	r3, r2, #1
 677 0012 9BB2     		uxth	r3, r3
 678 0014 002A     		cmp	r2, #0
 679 0016 F6D1     		bne	.L60
 680 0018 7047     		bx	lr
 682              		.section	.text.VL53L1_i2c_decode_with_mask,"ax",%progbits
 683              		.align	1
 684              		.global	VL53L1_i2c_decode_with_mask
 685              		.syntax unified
 686              		.thumb
 687              		.thumb_func
 689              	VL53L1_i2c_decode_with_mask:
 690              		@ args = 4, pretend = 0, frame = 0
 691              		@ frame_needed = 0, uses_anonymous_args = 0
 692 0000 00B5     		push	{lr}
 693 0002 4FF0000E 		mov	lr, #0
 694 0006 04E0     		b	.L62
 695              	.L63:
 696 0008 11F8010B 		ldrb	r0, [r1], #1	@ zero_extendqisi2
 697 000c 40EA0E2E 		orr	lr, r0, lr, lsl #8
 698 0010 6046     		mov	r0, ip
 699              	.L62:
 700 0012 00F1FF3C 		add	ip, r0, #-1
 701 0016 1FFA8CFC 		uxth	ip, ip
 702 001a 0028     		cmp	r0, #0
 703 001c F4D1     		bne	.L63
 704 001e 0EEA020E 		and	lr, lr, r2
 705 0022 0BB1     		cbz	r3, .L64
 706 0024 2EFA03FE 		lsr	lr, lr, r3
 707              	.L64:
 708 0028 0198     		ldr	r0, [sp, #4]
 709 002a 7044     		add	r0, r0, lr
 710 002c 5DF804FB 		ldr	pc, [sp], #4
 712              		.section	.text.VL53L1_i2c_encode_int32_t,"ax",%progbits
 713              		.align	1
 714              		.global	VL53L1_i2c_encode_int32_t
 715              		.syntax unified
 716              		.thumb
 717              		.thumb_func
 719              	VL53L1_i2c_encode_int32_t:
ARM GAS  C:\Temp\ccb7OYN5.s 			page 13


 720              		@ args = 0, pretend = 0, frame = 0
 721              		@ frame_needed = 0, uses_anonymous_args = 0
 722              		@ link register save eliminated.
 723 0000 0023     		movs	r3, #0
 724 0002 08E0     		b	.L67
 725              	.L68:
 726 0004 A1EB030C 		sub	ip, r1, r3
 727 0008 0CF1FF3C 		add	ip, ip, #-1
 728 000c 02F80C00 		strb	r0, [r2, ip]
 729 0010 0012     		asrs	r0, r0, #8
 730 0012 0133     		adds	r3, r3, #1
 731 0014 9BB2     		uxth	r3, r3
 732              	.L67:
 733 0016 8B42     		cmp	r3, r1
 734 0018 F4D3     		bcc	.L68
 735 001a 7047     		bx	lr
 737              		.section	.text.VL53L1_i2c_decode_int32_t,"ax",%progbits
 738              		.align	1
 739              		.global	VL53L1_i2c_decode_int32_t
 740              		.syntax unified
 741              		.thumb
 742              		.thumb_func
 744              	VL53L1_i2c_decode_int32_t:
 745              		@ args = 0, pretend = 0, frame = 0
 746              		@ frame_needed = 0, uses_anonymous_args = 0
 747              		@ link register save eliminated.
 748 0000 0246     		mov	r2, r0
 749 0002 91F90030 		ldrsb	r3, [r1]
 750 0006 002B     		cmp	r3, #0
 751 0008 01DB     		blt	.L73
 752 000a 0020     		movs	r0, #0
 753 000c 07E0     		b	.L71
 754              	.L73:
 755 000e 4FF0FF30 		mov	r0, #-1
 756 0012 04E0     		b	.L71
 757              	.L72:
 758 0014 11F8012B 		ldrb	r2, [r1], #1	@ zero_extendqisi2
 759 0018 42EA0020 		orr	r0, r2, r0, lsl #8
 760 001c 1A46     		mov	r2, r3
 761              	.L71:
 762 001e 531E     		subs	r3, r2, #1
 763 0020 9BB2     		uxth	r3, r3
 764 0022 002A     		cmp	r2, #0
 765 0024 F6D1     		bne	.L72
 766 0026 7047     		bx	lr
 768              		.section	.text.VL53L1_start_test,"ax",%progbits
 769              		.align	1
 770              		.global	VL53L1_start_test
 771              		.syntax unified
 772              		.thumb
 773              		.thumb_func
 775              	VL53L1_start_test:
 776              		@ args = 0, pretend = 0, frame = 0
 777              		@ frame_needed = 0, uses_anonymous_args = 0
 778 0000 08B5     		push	{r3, lr}
 779 0002 0A46     		mov	r2, r1
 780 0004 2721     		movs	r1, #39
ARM GAS  C:\Temp\ccb7OYN5.s 			page 14


 781 0006 FFF7FEFF 		bl	VL53L1_WrByte
 782 000a 08BD     		pop	{r3, pc}
 784              		.section	.text.VL53L1_set_firmware_enable_register,"ax",%progbits
 785              		.align	1
 786              		.global	VL53L1_set_firmware_enable_register
 787              		.syntax unified
 788              		.thumb
 789              		.thumb_func
 791              	VL53L1_set_firmware_enable_register:
 792              		@ args = 0, pretend = 0, frame = 0
 793              		@ frame_needed = 0, uses_anonymous_args = 0
 794 0000 08B5     		push	{r3, lr}
 795 0002 0A46     		mov	r2, r1
 796 0004 80F8C213 		strb	r1, [r0, #962]
 797 0008 8521     		movs	r1, #133
 798 000a FFF7FEFF 		bl	VL53L1_WrByte
 799 000e 08BD     		pop	{r3, pc}
 801              		.section	.text.VL53L1_enable_firmware,"ax",%progbits
 802              		.align	1
 803              		.global	VL53L1_enable_firmware
 804              		.syntax unified
 805              		.thumb
 806              		.thumb_func
 808              	VL53L1_enable_firmware:
 809              		@ args = 0, pretend = 0, frame = 0
 810              		@ frame_needed = 0, uses_anonymous_args = 0
 811 0000 08B5     		push	{r3, lr}
 812 0002 0121     		movs	r1, #1
 813 0004 FFF7FEFF 		bl	VL53L1_set_firmware_enable_register
 814 0008 08BD     		pop	{r3, pc}
 816              		.section	.text.VL53L1_disable_firmware,"ax",%progbits
 817              		.align	1
 818              		.global	VL53L1_disable_firmware
 819              		.syntax unified
 820              		.thumb
 821              		.thumb_func
 823              	VL53L1_disable_firmware:
 824              		@ args = 0, pretend = 0, frame = 0
 825              		@ frame_needed = 0, uses_anonymous_args = 0
 826 0000 08B5     		push	{r3, lr}
 827 0002 0021     		movs	r1, #0
 828 0004 FFF7FEFF 		bl	VL53L1_set_firmware_enable_register
 829 0008 08BD     		pop	{r3, pc}
 831              		.section	.text.VL53L1_set_powerforce_register,"ax",%progbits
 832              		.align	1
 833              		.global	VL53L1_set_powerforce_register
 834              		.syntax unified
 835              		.thumb
 836              		.thumb_func
 838              	VL53L1_set_powerforce_register:
 839              		@ args = 0, pretend = 0, frame = 0
 840              		@ frame_needed = 0, uses_anonymous_args = 0
 841 0000 08B5     		push	{r3, lr}
 842 0002 0A46     		mov	r2, r1
 843 0004 80F8C013 		strb	r1, [r0, #960]
 844 0008 8321     		movs	r1, #131
 845 000a FFF7FEFF 		bl	VL53L1_WrByte
ARM GAS  C:\Temp\ccb7OYN5.s 			page 15


 846 000e 08BD     		pop	{r3, pc}
 848              		.section	.text.VL53L1_enable_powerforce,"ax",%progbits
 849              		.align	1
 850              		.global	VL53L1_enable_powerforce
 851              		.syntax unified
 852              		.thumb
 853              		.thumb_func
 855              	VL53L1_enable_powerforce:
 856              		@ args = 0, pretend = 0, frame = 0
 857              		@ frame_needed = 0, uses_anonymous_args = 0
 858 0000 08B5     		push	{r3, lr}
 859 0002 0121     		movs	r1, #1
 860 0004 FFF7FEFF 		bl	VL53L1_set_powerforce_register
 861 0008 08BD     		pop	{r3, pc}
 863              		.section	.text.VL53L1_disable_powerforce,"ax",%progbits
 864              		.align	1
 865              		.global	VL53L1_disable_powerforce
 866              		.syntax unified
 867              		.thumb
 868              		.thumb_func
 870              	VL53L1_disable_powerforce:
 871              		@ args = 0, pretend = 0, frame = 0
 872              		@ frame_needed = 0, uses_anonymous_args = 0
 873 0000 08B5     		push	{r3, lr}
 874 0002 0021     		movs	r1, #0
 875 0004 FFF7FEFF 		bl	VL53L1_set_powerforce_register
 876 0008 08BD     		pop	{r3, pc}
 878              		.section	.text.VL53L1_clear_interrupt,"ax",%progbits
 879              		.align	1
 880              		.global	VL53L1_clear_interrupt
 881              		.syntax unified
 882              		.thumb
 883              		.thumb_func
 885              	VL53L1_clear_interrupt:
 886              		@ args = 0, pretend = 0, frame = 0
 887              		@ frame_needed = 0, uses_anonymous_args = 0
 888 0000 08B5     		push	{r3, lr}
 889 0002 0122     		movs	r2, #1
 890 0004 80F8C323 		strb	r2, [r0, #963]
 891 0008 8621     		movs	r1, #134
 892 000a FFF7FEFF 		bl	VL53L1_WrByte
 893 000e 08BD     		pop	{r3, pc}
 895              		.section	.text.VL53L1_force_shadow_stream_count_to_zero,"ax",%progbits
 896              		.align	1
 897              		.global	VL53L1_force_shadow_stream_count_to_zero
 898              		.syntax unified
 899              		.thumb
 900              		.thumb_func
 902              	VL53L1_force_shadow_stream_count_to_zero:
 903              		@ args = 0, pretend = 0, frame = 0
 904              		@ frame_needed = 0, uses_anonymous_args = 0
 905 0000 10B5     		push	{r4, lr}
 906 0002 0446     		mov	r4, r0
 907 0004 FFF7FEFF 		bl	VL53L1_disable_firmware
 908 0008 00B1     		cbz	r0, .L93
 909              	.L91:
 910 000a 10BD     		pop	{r4, pc}
ARM GAS  C:\Temp\ccb7OYN5.s 			page 16


 911              	.L93:
 912 000c 0022     		movs	r2, #0
 913 000e 40F6B371 		movw	r1, #4019
 914 0012 2046     		mov	r0, r4
 915 0014 FFF7FEFF 		bl	VL53L1_WrByte
 916 0018 0028     		cmp	r0, #0
 917 001a F6D1     		bne	.L91
 918 001c 2046     		mov	r0, r4
 919 001e FFF7FEFF 		bl	VL53L1_enable_firmware
 920 0022 F2E7     		b	.L91
 922              		.section	.text.VL53L1_calc_macro_period_us,"ax",%progbits
 923              		.align	1
 924              		.global	VL53L1_calc_macro_period_us
 925              		.syntax unified
 926              		.thumb
 927              		.thumb_func
 929              	VL53L1_calc_macro_period_us:
 930              		@ args = 0, pretend = 0, frame = 0
 931              		@ frame_needed = 0, uses_anonymous_args = 0
 932 0000 38B5     		push	{r3, r4, r5, lr}
 933 0002 0D46     		mov	r5, r1
 934 0004 FFF7FEFF 		bl	VL53L1_calc_pll_period_us
 935 0008 0446     		mov	r4, r0
 936 000a 2846     		mov	r0, r5
 937 000c FFF7FEFF 		bl	VL53L1_decode_vcsel_period
 938 0010 04EBC404 		add	r4, r4, r4, lsl #3
 939 0014 2402     		lsls	r4, r4, #8
 940 0016 A409     		lsrs	r4, r4, #6
 941 0018 04FB00F0 		mul	r0, r4, r0
 942 001c 8009     		lsrs	r0, r0, #6
 943 001e 38BD     		pop	{r3, r4, r5, pc}
 945              		.section	.text.VL53L1_calc_range_ignore_threshold,"ax",%progbits
 946              		.align	1
 947              		.global	VL53L1_calc_range_ignore_threshold
 948              		.syntax unified
 949              		.thumb
 950              		.thumb_func
 952              	VL53L1_calc_range_ignore_threshold:
 953              		@ args = 0, pretend = 0, frame = 0
 954              		@ frame_needed = 0, uses_anonymous_args = 0
 955 0000 00B5     		push	{lr}
 956 0002 9446     		mov	ip, r2
 957 0004 0001     		lsls	r0, r0, #4
 958 0006 184A     		ldr	r2, .L108
 959 0008 82FB00E2 		smull	lr, r2, r2, r0
 960 000c C017     		asrs	r0, r0, #31
 961 000e C0EBA210 		rsb	r0, r0, r2, asr #6
 962 0012 0029     		cmp	r1, #0
 963 0014 1ADB     		blt	.L105
 964 0016 0022     		movs	r2, #0
 965              	.L97:
 966 0018 BCF1000F 		cmp	ip, #0
 967 001c 19DB     		blt	.L106
 968 001e 4FF0000C 		mov	ip, #0
 969              	.L98:
 970 0022 6244     		add	r2, r2, ip
 971 0024 5201     		lsls	r2, r2, #5
ARM GAS  C:\Temp\ccb7OYN5.s 			page 17


 972 0026 1049     		ldr	r1, .L108
 973 0028 81FB02C1 		smull	ip, r1, r1, r2
 974 002c D217     		asrs	r2, r2, #31
 975 002e C2EBA112 		rsb	r2, r2, r1, asr #6
 976 0032 1044     		add	r0, r0, r2
 977 0034 00FB03F3 		mul	r3, r0, r3
 978 0038 13F11000 		adds	r0, r3, #16
 979 003c 0ED4     		bmi	.L107
 980              	.L99:
 981 003e 4011     		asrs	r0, r0, #5
 982 0040 0A4A     		ldr	r2, .L108+4
 983 0042 9342     		cmp	r3, r2
 984 0044 0CDC     		bgt	.L103
 985 0046 80B2     		uxth	r0, r0
 986              	.L100:
 987 0048 5DF804FB 		ldr	pc, [sp], #4
 988              	.L105:
 989 004c 4942     		rsbs	r1, r1, #0
 990 004e 0AB2     		sxth	r2, r1
 991 0050 E2E7     		b	.L97
 992              	.L106:
 993 0052 CCF1000C 		rsb	ip, ip, #0
 994 0056 0FFA8CFC 		sxth	ip, ip
 995 005a E2E7     		b	.L98
 996              	.L107:
 997 005c 1F30     		adds	r0, r0, #31
 998 005e EEE7     		b	.L99
 999              	.L103:
 1000 0060 4FF6FF70 		movw	r0, #65535
 1001 0064 F0E7     		b	.L100
 1002              	.L109:
 1003 0066 00BF     		.align	2
 1004              	.L108:
 1005 0068 D34D6210 		.word	274877907
 1006 006c EFFF1F00 		.word	2097135
 1008              		.section	.text.VL53L1_calc_timeout_mclks,"ax",%progbits
 1009              		.align	1
 1010              		.global	VL53L1_calc_timeout_mclks
 1011              		.syntax unified
 1012              		.thumb
 1013              		.thumb_func
 1015              	VL53L1_calc_timeout_mclks:
 1016              		@ args = 0, pretend = 0, frame = 0
 1017              		@ frame_needed = 0, uses_anonymous_args = 0
 1018              		@ link register save eliminated.
 1019 0000 0346     		mov	r3, r0
 1020 0002 0846     		mov	r0, r1
 1021 0004 21B1     		cbz	r1, .L111
 1022 0006 4A08     		lsrs	r2, r1, #1
 1023 0008 02EB0333 		add	r3, r2, r3, lsl #12
 1024 000c B3FBF1F0 		udiv	r0, r3, r1
 1025              	.L111:
 1026 0010 7047     		bx	lr
 1028              		.section	.text.VL53L1_calc_timeout_us,"ax",%progbits
 1029              		.align	1
 1030              		.global	VL53L1_calc_timeout_us
 1031              		.syntax unified
ARM GAS  C:\Temp\ccb7OYN5.s 			page 18


 1032              		.thumb
 1033              		.thumb_func
 1035              	VL53L1_calc_timeout_us:
 1036              		@ args = 0, pretend = 0, frame = 0
 1037              		@ frame_needed = 0, uses_anonymous_args = 0
 1038              		@ link register save eliminated.
 1039 0000 A0FB0131 		umull	r3, r1, r0, r1
 1040 0004 13F50063 		adds	r3, r3, #2048
 1041 0008 41F10000 		adc	r0, r1, #0
 1042 000c 1B0B     		lsrs	r3, r3, #12
 1043 000e 43EA0050 		orr	r0, r3, r0, lsl #20
 1044 0012 7047     		bx	lr
 1046              		.section	.text.VL53L1_calc_crosstalk_plane_offset_with_margin,"ax",%progbits
 1047              		.align	1
 1048              		.global	VL53L1_calc_crosstalk_plane_offset_with_margin
 1049              		.syntax unified
 1050              		.thumb
 1051              		.thumb_func
 1053              	VL53L1_calc_crosstalk_plane_offset_with_margin:
 1054              		@ args = 0, pretend = 0, frame = 0
 1055              		@ frame_needed = 0, uses_anonymous_args = 0
 1056              		@ link register save eliminated.
 1057 0000 0818     		adds	r0, r1, r0
 1058 0002 03D4     		bmi	.L115
 1059 0004 B0F5802F 		cmp	r0, #262144
 1060 0008 02DA     		bge	.L116
 1061 000a 7047     		bx	lr
 1062              	.L115:
 1063 000c 0020     		movs	r0, #0
 1064 000e 7047     		bx	lr
 1065              	.L116:
 1066 0010 0048     		ldr	r0, .L117
 1067 0012 7047     		bx	lr
 1068              	.L118:
 1069              		.align	2
 1070              	.L117:
 1071 0014 FFFF0300 		.word	262143
 1073              		.section	.text.VL53L1_encode_timeout,"ax",%progbits
 1074              		.align	1
 1075              		.global	VL53L1_encode_timeout
 1076              		.syntax unified
 1077              		.thumb
 1078              		.thumb_func
 1080              	VL53L1_encode_timeout:
 1081              		@ args = 0, pretend = 0, frame = 0
 1082              		@ frame_needed = 0, uses_anonymous_args = 0
 1083              		@ link register save eliminated.
 1084 0000 68B1     		cbz	r0, .L123
 1085 0002 0138     		subs	r0, r0, #1
 1086 0004 0023     		movs	r3, #0
 1087 0006 02E0     		b	.L121
 1088              	.L122:
 1089 0008 4008     		lsrs	r0, r0, #1
 1090 000a 0133     		adds	r3, r3, #1
 1091 000c 9BB2     		uxth	r3, r3
 1092              	.L121:
 1093 000e FF28     		cmp	r0, #255
ARM GAS  C:\Temp\ccb7OYN5.s 			page 19


 1094 0010 FAD8     		bhi	.L122
 1095 0012 1B02     		lsls	r3, r3, #8
 1096 0014 9BB2     		uxth	r3, r3
 1097 0016 53FA80F0 		uxtab	r0, r3, r0
 1098 001a 80B2     		uxth	r0, r0
 1099 001c 7047     		bx	lr
 1100              	.L123:
 1101 001e 0020     		movs	r0, #0
 1102 0020 7047     		bx	lr
 1104              		.section	.text.VL53L1_calc_encoded_timeout,"ax",%progbits
 1105              		.align	1
 1106              		.global	VL53L1_calc_encoded_timeout
 1107              		.syntax unified
 1108              		.thumb
 1109              		.thumb_func
 1111              	VL53L1_calc_encoded_timeout:
 1112              		@ args = 0, pretend = 0, frame = 0
 1113              		@ frame_needed = 0, uses_anonymous_args = 0
 1114 0000 08B5     		push	{r3, lr}
 1115 0002 FFF7FEFF 		bl	VL53L1_calc_timeout_mclks
 1116 0006 FFF7FEFF 		bl	VL53L1_encode_timeout
 1117 000a 08BD     		pop	{r3, pc}
 1119              		.section	.text.VL53L1_decode_timeout,"ax",%progbits
 1120              		.align	1
 1121              		.global	VL53L1_decode_timeout
 1122              		.syntax unified
 1123              		.thumb
 1124              		.thumb_func
 1126              	VL53L1_decode_timeout:
 1127              		@ args = 0, pretend = 0, frame = 0
 1128              		@ frame_needed = 0, uses_anonymous_args = 0
 1129              		@ link register save eliminated.
 1130 0000 C3B2     		uxtb	r3, r0
 1131 0002 000A     		lsrs	r0, r0, #8
 1132 0004 03FA00F0 		lsl	r0, r3, r0
 1133 0008 0130     		adds	r0, r0, #1
 1134 000a 7047     		bx	lr
 1136              		.section	.text.VL53L1_calc_decoded_timeout_us,"ax",%progbits
 1137              		.align	1
 1138              		.global	VL53L1_calc_decoded_timeout_us
 1139              		.syntax unified
 1140              		.thumb
 1141              		.thumb_func
 1143              	VL53L1_calc_decoded_timeout_us:
 1144              		@ args = 0, pretend = 0, frame = 0
 1145              		@ frame_needed = 0, uses_anonymous_args = 0
 1146 0000 10B5     		push	{r4, lr}
 1147 0002 0C46     		mov	r4, r1
 1148 0004 FFF7FEFF 		bl	VL53L1_decode_timeout
 1149 0008 2146     		mov	r1, r4
 1150 000a FFF7FEFF 		bl	VL53L1_calc_timeout_us
 1151 000e 10BD     		pop	{r4, pc}
 1153              		.section	.text.VL53L1_calc_timeout_register_values,"ax",%progbits
 1154              		.align	1
 1155              		.global	VL53L1_calc_timeout_register_values
 1156              		.syntax unified
 1157              		.thumb
ARM GAS  C:\Temp\ccb7OYN5.s 			page 20


 1158              		.thumb_func
 1160              	VL53L1_calc_timeout_register_values:
 1161              		@ args = 8, pretend = 0, frame = 0
 1162              		@ frame_needed = 0, uses_anonymous_args = 0
 1163 0000 2DE9F843 		push	{r3, r4, r5, r6, r7, r8, r9, lr}
 1164 0004 099C     		ldr	r4, [sp, #36]
 1165 0006 CBB3     		cbz	r3, .L132
 1166 0008 8146     		mov	r9, r0
 1167 000a 0F46     		mov	r7, r1
 1168 000c 1646     		mov	r6, r2
 1169 000e 9846     		mov	r8, r3
 1170 0010 A179     		ldrb	r1, [r4, #6]	@ zero_extendqisi2
 1171 0012 1846     		mov	r0, r3
 1172 0014 FFF7FEFF 		bl	VL53L1_calc_macro_period_us
 1173 0018 0546     		mov	r5, r0
 1174 001a 0146     		mov	r1, r0
 1175 001c 4846     		mov	r0, r9
 1176 001e FFF7FEFF 		bl	VL53L1_calc_timeout_mclks
 1177 0022 FF28     		cmp	r0, #255
 1178 0024 00D9     		bls	.L131
 1179 0026 FF20     		movs	r0, #255
 1180              	.L131:
 1181 0028 089B     		ldr	r3, [sp, #32]
 1182 002a D871     		strb	r0, [r3, #7]
 1183 002c 2946     		mov	r1, r5
 1184 002e 3846     		mov	r0, r7
 1185 0030 FFF7FEFF 		bl	VL53L1_calc_encoded_timeout
 1186 0034 C0F30723 		ubfx	r3, r0, #8, #8
 1187 0038 2370     		strb	r3, [r4]
 1188 003a 6070     		strb	r0, [r4, #1]
 1189 003c 2946     		mov	r1, r5
 1190 003e 3046     		mov	r0, r6
 1191 0040 FFF7FEFF 		bl	VL53L1_calc_encoded_timeout
 1192 0044 C0F30723 		ubfx	r3, r0, #8, #8
 1193 0048 2371     		strb	r3, [r4, #4]
 1194 004a 6071     		strb	r0, [r4, #5]
 1195 004c 617A     		ldrb	r1, [r4, #9]	@ zero_extendqisi2
 1196 004e 4046     		mov	r0, r8
 1197 0050 FFF7FEFF 		bl	VL53L1_calc_macro_period_us
 1198 0054 0546     		mov	r5, r0
 1199 0056 0146     		mov	r1, r0
 1200 0058 3846     		mov	r0, r7
 1201 005a FFF7FEFF 		bl	VL53L1_calc_encoded_timeout
 1202 005e C0F30723 		ubfx	r3, r0, #8, #8
 1203 0062 A370     		strb	r3, [r4, #2]
 1204 0064 E070     		strb	r0, [r4, #3]
 1205 0066 2946     		mov	r1, r5
 1206 0068 3046     		mov	r0, r6
 1207 006a FFF7FEFF 		bl	VL53L1_calc_encoded_timeout
 1208 006e C0F30723 		ubfx	r3, r0, #8, #8
 1209 0072 E371     		strb	r3, [r4, #7]
 1210 0074 2072     		strb	r0, [r4, #8]
 1211 0076 0020     		movs	r0, #0
 1212              	.L130:
 1213 0078 BDE8F883 		pop	{r3, r4, r5, r6, r7, r8, r9, pc}
 1214              	.L132:
 1215 007c 6FF00E00 		mvn	r0, #14
ARM GAS  C:\Temp\ccb7OYN5.s 			page 21


 1216 0080 FAE7     		b	.L130
 1218              		.section	.text.VL53L1_encode_vcsel_period,"ax",%progbits
 1219              		.align	1
 1220              		.global	VL53L1_encode_vcsel_period
 1221              		.syntax unified
 1222              		.thumb
 1223              		.thumb_func
 1225              	VL53L1_encode_vcsel_period:
 1226              		@ args = 0, pretend = 0, frame = 0
 1227              		@ frame_needed = 0, uses_anonymous_args = 0
 1228              		@ link register save eliminated.
 1229 0000 4008     		lsrs	r0, r0, #1
 1230 0002 0138     		subs	r0, r0, #1
 1231 0004 C0B2     		uxtb	r0, r0
 1232 0006 7047     		bx	lr
 1234              		.section	.text.VL53L1_decode_unsigned_integer,"ax",%progbits
 1235              		.align	1
 1236              		.global	VL53L1_decode_unsigned_integer
 1237              		.syntax unified
 1238              		.thumb
 1239              		.thumb_func
 1241              	VL53L1_decode_unsigned_integer:
 1242              		@ args = 0, pretend = 0, frame = 0
 1243              		@ frame_needed = 0, uses_anonymous_args = 0
 1244              		@ link register save eliminated.
 1245 0000 8446     		mov	ip, r0
 1246 0002 0020     		movs	r0, #0
 1247 0004 0346     		mov	r3, r0
 1248 0006 05E0     		b	.L137
 1249              	.L138:
 1250 0008 1CF80320 		ldrb	r2, [ip, r3]	@ zero_extendqisi2
 1251 000c 02EB0020 		add	r0, r2, r0, lsl #8
 1252 0010 0133     		adds	r3, r3, #1
 1253 0012 DBB2     		uxtb	r3, r3
 1254              	.L137:
 1255 0014 8B42     		cmp	r3, r1
 1256 0016 F7D3     		bcc	.L138
 1257 0018 7047     		bx	lr
 1259              		.section	.text.VL53L1_encode_unsigned_integer,"ax",%progbits
 1260              		.align	1
 1261              		.global	VL53L1_encode_unsigned_integer
 1262              		.syntax unified
 1263              		.thumb
 1264              		.thumb_func
 1266              	VL53L1_encode_unsigned_integer:
 1267              		@ args = 0, pretend = 0, frame = 0
 1268              		@ frame_needed = 0, uses_anonymous_args = 0
 1269              		@ link register save eliminated.
 1270 0000 0023     		movs	r3, #0
 1271 0002 08E0     		b	.L140
 1272              	.L141:
 1273 0004 A1EB030C 		sub	ip, r1, r3
 1274 0008 0CF1FF3C 		add	ip, ip, #-1
 1275 000c 02F80C00 		strb	r0, [r2, ip]
 1276 0010 000A     		lsrs	r0, r0, #8
 1277 0012 0133     		adds	r3, r3, #1
 1278 0014 DBB2     		uxtb	r3, r3
ARM GAS  C:\Temp\ccb7OYN5.s 			page 22


 1279              	.L140:
 1280 0016 8B42     		cmp	r3, r1
 1281 0018 F4D3     		bcc	.L141
 1282 001a 7047     		bx	lr
 1284              		.global	__aeabi_ldivmod
 1285              		.section	.text.VL53L1_hist_copy_and_scale_ambient_info,"ax",%progbits
 1286              		.align	1
 1287              		.global	VL53L1_hist_copy_and_scale_ambient_info
 1288              		.syntax unified
 1289              		.thumb
 1290              		.thumb_func
 1292              	VL53L1_hist_copy_and_scale_ambient_info:
 1293              		@ args = 0, pretend = 0, frame = 0
 1294              		@ frame_needed = 0, uses_anonymous_args = 0
 1295 0000 70B5     		push	{r4, r5, r6, lr}
 1296 0002 0446     		mov	r4, r0
 1297 0004 4088     		ldrh	r0, [r0, #2]
 1298 0006 0028     		cmp	r0, #0
 1299 0008 45D0     		beq	.L145
 1300 000a 0D46     		mov	r5, r1
 1301 000c 6378     		ldrb	r3, [r4, #1]	@ zero_extendqisi2
 1302 000e 002B     		cmp	r3, #0
 1303 0010 44D0     		beq	.L146
 1304 0012 CB7A     		ldrb	r3, [r1, #11]	@ zero_extendqisi2
 1305 0014 002B     		cmp	r3, #0
 1306 0016 43D1     		bne	.L147
 1307 0018 D1F88830 		ldr	r3, [r1, #136]
 1308 001c 4FF0000E 		mov	lr, #0
 1309 0020 0133     		adds	r3, r3, #1
 1310 0022 4EF10006 		adc	r6, lr, #0
 1311 0026 B1F87C20 		ldrh	r2, [r1, #124]
 1312 002a A2FB03C1 		umull	ip, r1, r2, r3
 1313 002e 02FB0611 		mla	r1, r2, r6, r1
 1314 0032 A268     		ldr	r2, [r4, #8]
 1315 0034 0132     		adds	r2, r2, #1
 1316 0036 4EF1000E 		adc	lr, lr, #0
 1317 003a A0FB0223 		umull	r2, r3, r0, r2
 1318 003e 00FB0E33 		mla	r3, r0, lr, r3
 1319 0042 E068     		ldr	r0, [r4, #12]
 1320 0044 4FEAE07E 		asr	lr, r0, #31
 1321 0048 00FB01F1 		mul	r1, r0, r1
 1322 004c 0CFB0E11 		mla	r1, ip, lr, r1
 1323 0050 A0FB0CC0 		umull	ip, r0, r0, ip
 1324 0054 0144     		add	r1, r1, r0
 1325 0056 D80F     		lsrs	r0, r3, #31
 1326 0058 8018     		adds	r0, r0, r2
 1327 005a 43F1000E 		adc	lr, r3, #0
 1328 005e 4008     		lsrs	r0, r0, #1
 1329 0060 40EACE70 		orr	r0, r0, lr, lsl #31
 1330 0064 10EB0C00 		adds	r0, r0, ip
 1331 0068 41EB6E01 		adc	r1, r1, lr, asr #1
 1332 006c 52EA0306 		orrs	r6, r2, r3
 1333 0070 01D0     		beq	.L144
 1334 0072 FFF7FEFF 		bl	__aeabi_ldivmod
 1335              	.L144:
 1336 0076 C5F8A000 		str	r0, [r5, #160]
 1337 007a C5F8A400 		str	r0, [r5, #164]
ARM GAS  C:\Temp\ccb7OYN5.s 			page 23


 1338 007e 6378     		ldrb	r3, [r4, #1]	@ zero_extendqisi2
 1339 0080 00EB5300 		add	r0, r0, r3, lsr #1
 1340 0084 C5F8A400 		str	r0, [r5, #164]
 1341 0088 6378     		ldrb	r3, [r4, #1]	@ zero_extendqisi2
 1342 008a 90FBF3F0 		sdiv	r0, r0, r3
 1343 008e C5F8A400 		str	r0, [r5, #164]
 1344 0092 0020     		movs	r0, #0
 1345 0094 03E0     		b	.L143
 1346              	.L145:
 1347 0096 6FF00E00 		mvn	r0, #14
 1348 009a 00E0     		b	.L143
 1349              	.L146:
 1350 009c 0020     		movs	r0, #0
 1351              	.L143:
 1352 009e 70BD     		pop	{r4, r5, r6, pc}
 1353              	.L147:
 1354 00a0 0020     		movs	r0, #0
 1355 00a2 FCE7     		b	.L143
 1357              		.section	.text.VL53L1_hist_get_bin_sequence_config,"ax",%progbits
 1358              		.align	1
 1359              		.global	VL53L1_hist_get_bin_sequence_config
 1360              		.syntax unified
 1361              		.thumb
 1362              		.thumb_func
 1364              	VL53L1_hist_get_bin_sequence_config:
 1365              		@ args = 0, pretend = 0, frame = 0
 1366              		@ frame_needed = 0, uses_anonymous_args = 0
 1367              		@ link register save eliminated.
 1368 0000 10B4     		push	{r4}
 1369 0002 B0F85A33 		ldrh	r3, [r0, #858]
 1370 0006 9B02     		lsls	r3, r3, #10
 1371 0008 B0F85C23 		ldrh	r2, [r0, #860]
 1372 000c 9202     		lsls	r2, r2, #10
 1373 000e 90F84CC0 		ldrb	ip, [r0, #76]	@ zero_extendqisi2
 1374 0012 1CF0010F 		tst	ip, #1
 1375 0016 61D1     		bne	.L150
 1376 0018 90F84DC3 		ldrb	ip, [r0, #845]	@ zero_extendqisi2
 1377 001c 4FEA1C1C 		lsr	ip, ip, #4
 1378 0020 81F811C0 		strb	ip, [r1, #17]
 1379 0024 90F84DC3 		ldrb	ip, [r0, #845]	@ zero_extendqisi2
 1380 0028 0CF00F0C 		and	ip, ip, #15
 1381 002c 81F810C0 		strb	ip, [r1, #16]
 1382 0030 90F84CC3 		ldrb	ip, [r0, #844]	@ zero_extendqisi2
 1383 0034 4FEA1C1C 		lsr	ip, ip, #4
 1384 0038 81F80FC0 		strb	ip, [r1, #15]
 1385 003c 90F84CC3 		ldrb	ip, [r0, #844]	@ zero_extendqisi2
 1386 0040 0CF00F0C 		and	ip, ip, #15
 1387 0044 81F80EC0 		strb	ip, [r1, #14]
 1388 0048 90F84BC3 		ldrb	ip, [r0, #843]	@ zero_extendqisi2
 1389 004c 4FEA1C1C 		lsr	ip, ip, #4
 1390 0050 81F80DC0 		strb	ip, [r1, #13]
 1391 0054 90F84BC3 		ldrb	ip, [r0, #843]	@ zero_extendqisi2
 1392 0058 0CF00F0C 		and	ip, ip, #15
 1393 005c 81F80CC0 		strb	ip, [r1, #12]
 1394 0060 D1F8A040 		ldr	r4, [r1, #160]
 1395 0064 9442     		cmp	r4, r2
 1396 0066 1ADD     		ble	.L151
ARM GAS  C:\Temp\ccb7OYN5.s 			page 24


 1397 0068 90F85523 		ldrb	r2, [r0, #853]	@ zero_extendqisi2
 1398 006c 1209     		lsrs	r2, r2, #4
 1399 006e 4A74     		strb	r2, [r1, #17]
 1400 0070 90F85523 		ldrb	r2, [r0, #853]	@ zero_extendqisi2
 1401 0074 02F00F02 		and	r2, r2, #15
 1402 0078 0A74     		strb	r2, [r1, #16]
 1403 007a 90F85423 		ldrb	r2, [r0, #852]	@ zero_extendqisi2
 1404 007e 1209     		lsrs	r2, r2, #4
 1405 0080 CA73     		strb	r2, [r1, #15]
 1406 0082 90F85423 		ldrb	r2, [r0, #852]	@ zero_extendqisi2
 1407 0086 02F00F02 		and	r2, r2, #15
 1408 008a 8A73     		strb	r2, [r1, #14]
 1409 008c 90F85323 		ldrb	r2, [r0, #851]	@ zero_extendqisi2
 1410 0090 1209     		lsrs	r2, r2, #4
 1411 0092 4A73     		strb	r2, [r1, #13]
 1412 0094 90F85323 		ldrb	r2, [r0, #851]	@ zero_extendqisi2
 1413 0098 02F00F02 		and	r2, r2, #15
 1414 009c 0A73     		strb	r2, [r1, #12]
 1415              	.L151:
 1416 009e 9C42     		cmp	r4, r3
 1417 00a0 1ADA     		bge	.L152
 1418 00a2 90F84733 		ldrb	r3, [r0, #839]	@ zero_extendqisi2
 1419 00a6 1B09     		lsrs	r3, r3, #4
 1420 00a8 4B74     		strb	r3, [r1, #17]
 1421 00aa 90F84733 		ldrb	r3, [r0, #839]	@ zero_extendqisi2
 1422 00ae 03F00F03 		and	r3, r3, #15
 1423 00b2 0B74     		strb	r3, [r1, #16]
 1424 00b4 90F84633 		ldrb	r3, [r0, #838]	@ zero_extendqisi2
 1425 00b8 1B09     		lsrs	r3, r3, #4
 1426 00ba CB73     		strb	r3, [r1, #15]
 1427 00bc 90F84633 		ldrb	r3, [r0, #838]	@ zero_extendqisi2
 1428 00c0 03F00F03 		and	r3, r3, #15
 1429 00c4 8B73     		strb	r3, [r1, #14]
 1430 00c6 90F84533 		ldrb	r3, [r0, #837]	@ zero_extendqisi2
 1431 00ca 1B09     		lsrs	r3, r3, #4
 1432 00cc 4B73     		strb	r3, [r1, #13]
 1433 00ce 90F84533 		ldrb	r3, [r0, #837]	@ zero_extendqisi2
 1434 00d2 03F00F03 		and	r3, r3, #15
 1435 00d6 0B73     		strb	r3, [r1, #12]
 1436              	.L152:
 1437 00d8 0023     		movs	r3, #0
 1438 00da 65E0     		b	.L154
 1439              	.L150:
 1440 00dc 90F851C3 		ldrb	ip, [r0, #849]	@ zero_extendqisi2
 1441 00e0 0CF00F0C 		and	ip, ip, #15
 1442 00e4 81F811C0 		strb	ip, [r1, #17]
 1443 00e8 90F850C3 		ldrb	ip, [r0, #848]	@ zero_extendqisi2
 1444 00ec 0CF00F0C 		and	ip, ip, #15
 1445 00f0 81F810C0 		strb	ip, [r1, #16]
 1446 00f4 90F850C3 		ldrb	ip, [r0, #848]	@ zero_extendqisi2
 1447 00f8 4FEA1C1C 		lsr	ip, ip, #4
 1448 00fc 81F80FC0 		strb	ip, [r1, #15]
 1449 0100 90F84FC3 		ldrb	ip, [r0, #847]	@ zero_extendqisi2
 1450 0104 0CF00F0C 		and	ip, ip, #15
 1451 0108 81F80EC0 		strb	ip, [r1, #14]
 1452 010c 90F84EC3 		ldrb	ip, [r0, #846]	@ zero_extendqisi2
 1453 0110 4FEA1C1C 		lsr	ip, ip, #4
ARM GAS  C:\Temp\ccb7OYN5.s 			page 25


 1454 0114 81F80DC0 		strb	ip, [r1, #13]
 1455 0118 90F84EC3 		ldrb	ip, [r0, #846]	@ zero_extendqisi2
 1456 011c 0CF00F0C 		and	ip, ip, #15
 1457 0120 81F80CC0 		strb	ip, [r1, #12]
 1458 0124 D1F8A040 		ldr	r4, [r1, #160]
 1459 0128 9442     		cmp	r4, r2
 1460 012a 1ADD     		ble	.L153
 1461 012c 90F85823 		ldrb	r2, [r0, #856]	@ zero_extendqisi2
 1462 0130 1209     		lsrs	r2, r2, #4
 1463 0132 4A74     		strb	r2, [r1, #17]
 1464 0134 90F85823 		ldrb	r2, [r0, #856]	@ zero_extendqisi2
 1465 0138 02F00F02 		and	r2, r2, #15
 1466 013c 0A74     		strb	r2, [r1, #16]
 1467 013e 90F85723 		ldrb	r2, [r0, #855]	@ zero_extendqisi2
 1468 0142 1209     		lsrs	r2, r2, #4
 1469 0144 CA73     		strb	r2, [r1, #15]
 1470 0146 90F85723 		ldrb	r2, [r0, #855]	@ zero_extendqisi2
 1471 014a 02F00F02 		and	r2, r2, #15
 1472 014e 8A73     		strb	r2, [r1, #14]
 1473 0150 90F85623 		ldrb	r2, [r0, #854]	@ zero_extendqisi2
 1474 0154 1209     		lsrs	r2, r2, #4
 1475 0156 4A73     		strb	r2, [r1, #13]
 1476 0158 90F85623 		ldrb	r2, [r0, #854]	@ zero_extendqisi2
 1477 015c 02F00F02 		and	r2, r2, #15
 1478 0160 0A73     		strb	r2, [r1, #12]
 1479              	.L153:
 1480 0162 9C42     		cmp	r4, r3
 1481 0164 B8DA     		bge	.L152
 1482 0166 90F84A33 		ldrb	r3, [r0, #842]	@ zero_extendqisi2
 1483 016a 1B09     		lsrs	r3, r3, #4
 1484 016c 4B74     		strb	r3, [r1, #17]
 1485 016e 90F84A33 		ldrb	r3, [r0, #842]	@ zero_extendqisi2
 1486 0172 03F00F03 		and	r3, r3, #15
 1487 0176 0B74     		strb	r3, [r1, #16]
 1488 0178 90F84933 		ldrb	r3, [r0, #841]	@ zero_extendqisi2
 1489 017c 1B09     		lsrs	r3, r3, #4
 1490 017e CB73     		strb	r3, [r1, #15]
 1491 0180 90F84933 		ldrb	r3, [r0, #841]	@ zero_extendqisi2
 1492 0184 03F00F03 		and	r3, r3, #15
 1493 0188 8B73     		strb	r3, [r1, #14]
 1494 018a 90F84833 		ldrb	r3, [r0, #840]	@ zero_extendqisi2
 1495 018e 1B09     		lsrs	r3, r3, #4
 1496 0190 4B73     		strb	r3, [r1, #13]
 1497 0192 90F84833 		ldrb	r3, [r0, #840]	@ zero_extendqisi2
 1498 0196 03F00F03 		and	r3, r3, #15
 1499 019a 0B73     		strb	r3, [r1, #12]
 1500 019c 9CE7     		b	.L152
 1501              	.L155:
 1502 019e CA18     		adds	r2, r1, r3
 1503 01a0 0120     		movs	r0, #1
 1504 01a2 9074     		strb	r0, [r2, #18]
 1505 01a4 0344     		add	r3, r3, r0
 1506 01a6 DBB2     		uxtb	r3, r3
 1507              	.L154:
 1508 01a8 052B     		cmp	r3, #5
 1509 01aa F8D9     		bls	.L155
 1510 01ac 5DF8044B 		ldr	r4, [sp], #4
ARM GAS  C:\Temp\ccb7OYN5.s 			page 26


 1511 01b0 7047     		bx	lr
 1513              		.section	.text.VL53L1_hist_events_consistency_check,"ax",%progbits
 1514              		.align	1
 1515              		.global	VL53L1_hist_events_consistency_check
 1516              		.syntax unified
 1517              		.thumb
 1518              		.thumb_func
 1520              	VL53L1_hist_events_consistency_check:
 1521              		@ args = 16, pretend = 0, frame = 8
 1522              		@ frame_needed = 0, uses_anonymous_args = 0
 1523 0000 2DE9F04F 		push	{r4, r5, r6, r7, r8, r9, r10, fp, lr}
 1524 0004 83B0     		sub	sp, sp, #12
 1525 0006 0191     		str	r1, [sp, #4]
 1526 0008 0C9F     		ldr	r7, [sp, #48]
 1527 000a 0D9E     		ldr	r6, [sp, #52]
 1528 000c 0028     		cmp	r0, #0
 1529 000e 00F0AA80 		beq	.L172
 1530 0012 1D46     		mov	r5, r3
 1531 0014 8046     		mov	r8, r0
 1532 0016 9168     		ldr	r1, [r2, #8]
 1533 0018 0023     		movs	r3, #0
 1534 001a 0131     		adds	r1, r1, #1
 1535 001c 43F10000 		adc	r0, r3, #0
 1536 0020 5288     		ldrh	r2, [r2, #2]
 1537 0022 A2FB0141 		umull	r4, r1, r2, r1
 1538 0026 02FB0011 		mla	r1, r2, r0, r1
 1539 002a BA69     		ldr	r2, [r7, #24]
 1540 002c 0132     		adds	r2, r2, #1
 1541 002e 43F10000 		adc	r0, r3, #0
 1542 0032 B7F816C0 		ldrh	ip, [r7, #22]
 1543 0036 ACFB0223 		umull	r2, r3, ip, r2
 1544 003a 0CFB0033 		mla	r3, ip, r0, r3
 1545 003e 0903     		lsls	r1, r1, #12
 1546 0040 41EA1451 		orr	r1, r1, r4, lsr #20
 1547 0044 2403     		lsls	r4, r4, #12
 1548 0046 D80F     		lsrs	r0, r3, #31
 1549 0048 8018     		adds	r0, r0, r2
 1550 004a 43F1000C 		adc	ip, r3, #0
 1551 004e 4008     		lsrs	r0, r0, #1
 1552 0050 40EACC70 		orr	r0, r0, ip, lsl #31
 1553 0054 0019     		adds	r0, r0, r4
 1554 0056 41EB6C01 		adc	r1, r1, ip, asr #1
 1555 005a 52EA0304 		orrs	r4, r2, r3
 1556 005e 01D0     		beq	.L160
 1557 0060 FFF7FEFF 		bl	__aeabi_ldivmod
 1558              	.L160:
 1559 0064 00FB01F2 		mul	r2, r0, r1
 1560 0068 A0FB00C3 		umull	ip, r3, r0, r0
 1561 006c 1CF5006C 		adds	ip, ip, #2048
 1562 0070 43EB4203 		adc	r3, r3, r2, lsl #1
 1563 0074 1A46     		mov	r2, r3
 1564 0076 002B     		cmp	r3, #0
 1565 0078 79DB     		blt	.L173
 1566              	.L161:
 1567 007a 4FEA1C3C 		lsr	ip, ip, #12
 1568 007e 4FEA223E 		asr	lr, r2, #12
 1569 0082 4CEA025C 		orr	ip, ip, r2, lsl #20
ARM GAS  C:\Temp\ccb7OYN5.s 			page 27


 1570 0086 D7F828A0 		ldr	r10, [r7, #40]
 1571 008a 5346     		mov	r3, r10
 1572 008c D7F82490 		ldr	r9, [r7, #36]
 1573 0090 4A46     		mov	r2, r9
 1574 0092 BAEB0904 		subs	r4, r10, r9
 1575 0096 6BEB0B0B 		sbc	fp, fp, fp
 1576 009a 00FB0BFB 		mul	fp, r0, fp
 1577 009e 04FB01BB 		mla	fp, r4, r1, fp
 1578 00a2 A0FB0401 		umull	r0, r1, r0, r4
 1579 00a6 10F50060 		adds	r0, r0, #2048
 1580 00aa 4BEB0104 		adc	r4, fp, r1
 1581 00ae 2146     		mov	r1, r4
 1582 00b0 002C     		cmp	r4, #0
 1583 00b2 63DB     		blt	.L174
 1584              	.L162:
 1585 00b4 000B     		lsrs	r0, r0, #12
 1586 00b6 40EA0154 		orr	r4, r0, r1, lsl #20
 1587 00ba ACFB0313 		umull	r1, r3, ip, r3
 1588 00be 0AFB0E33 		mla	r3, r10, lr, r3
 1589 00c2 11F50061 		adds	r1, r1, #2048
 1590 00c6 43F10003 		adc	r3, r3, #0
 1591 00ca 1846     		mov	r0, r3
 1592 00cc 002B     		cmp	r3, #0
 1593 00ce 5CDB     		blt	.L175
 1594              	.L163:
 1595 00d0 090B     		lsrs	r1, r1, #12
 1596 00d2 41EA0051 		orr	r1, r1, r0, lsl #20
 1597 00d6 A2FB0C2C 		umull	r2, ip, r2, ip
 1598 00da 09FB0ECC 		mla	ip, r9, lr, ip
 1599 00de 12F50062 		adds	r2, r2, #2048
 1600 00e2 4CF1000C 		adc	ip, ip, #0
 1601 00e6 6346     		mov	r3, ip
 1602 00e8 BCF1000F 		cmp	ip, #0
 1603 00ec 54DB     		blt	.L176
 1604              	.L164:
 1605 00ee 120B     		lsrs	r2, r2, #12
 1606 00f0 42EA0352 		orr	r2, r2, r3, lsl #20
 1607 00f4 1B13     		asrs	r3, r3, #12
 1608 00f6 0232     		adds	r2, r2, #2
 1609 00f8 43F10003 		adc	r3, r3, #0
 1610 00fc 1846     		mov	r0, r3
 1611 00fe 002B     		cmp	r3, #0
 1612 0100 50DB     		blt	.L177
 1613              	.L165:
 1614 0102 9208     		lsrs	r2, r2, #2
 1615 0104 42EA8072 		orr	r2, r2, r0, lsl #30
 1616 0108 2B68     		ldr	r3, [r5]
 1617 010a 0233     		adds	r3, r3, #2
 1618 010c 2CBF     		ite	cs
 1619 010e 0120     		movcs	r0, #1
 1620 0110 0020     		movcc	r0, #0
 1621 0112 9B08     		lsrs	r3, r3, #2
 1622 0114 43EA8073 		orr	r3, r3, r0, lsl #30
 1623 0118 6868     		ldr	r0, [r5, #4]
 1624 011a 0844     		add	r0, r0, r1
 1625 011c 1844     		add	r0, r0, r3
 1626 011e 1044     		add	r0, r0, r2
ARM GAS  C:\Temp\ccb7OYN5.s 			page 28


 1627 0120 0001     		lsls	r0, r0, #4
 1628 0122 FFF7FEFF 		bl	VL53L1_isqrt
 1629 0126 3060     		str	r0, [r6]
 1630 0128 08FB00F0 		mul	r0, r8, r0
 1631 012c 3060     		str	r0, [r6]
 1632 012e 2030     		adds	r0, r0, #32
 1633 0130 3060     		str	r0, [r6]
 1634 0132 0346     		mov	r3, r0
 1635 0134 0028     		cmp	r0, #0
 1636 0136 39DB     		blt	.L178
 1637              	.L167:
 1638 0138 9B11     		asrs	r3, r3, #6
 1639 013a 3360     		str	r3, [r6]
 1640 013c 6B68     		ldr	r3, [r5, #4]
 1641 013e 2A68     		ldr	r2, [r5]
 1642 0140 9B1A     		subs	r3, r3, r2
 1643 0142 9C42     		cmp	r4, r3
 1644 0144 35DD     		ble	.L168
 1645 0146 E31A     		subs	r3, r4, r3
 1646 0148 0E9A     		ldr	r2, [sp, #56]
 1647 014a 1360     		str	r3, [r2]
 1648              	.L169:
 1649 014c 0E9B     		ldr	r3, [sp, #56]
 1650 014e 1A68     		ldr	r2, [r3]
 1651 0150 3368     		ldr	r3, [r6]
 1652 0152 9A42     		cmp	r2, r3
 1653 0154 31DD     		ble	.L170
 1654 0156 FB8A     		ldrh	r3, [r7, #22]
 1655 0158 019A     		ldr	r2, [sp, #4]
 1656 015a 9342     		cmp	r3, r2
 1657 015c 2DD9     		bls	.L170
 1658 015e 1423     		movs	r3, #20
 1659 0160 0F9A     		ldr	r2, [sp, #60]
 1660 0162 1370     		strb	r3, [r2]
 1661 0164 2CE0     		b	.L159
 1662              	.L172:
 1663 0166 0923     		movs	r3, #9
 1664 0168 0F9A     		ldr	r2, [sp, #60]
 1665 016a 1370     		strb	r3, [r2]
 1666 016c 28E0     		b	.L159
 1667              	.L173:
 1668 016e 40F6FF72 		movw	r2, #4095
 1669 0172 1CEB020C 		adds	ip, ip, r2
 1670 0176 43F10002 		adc	r2, r3, #0
 1671 017a 7EE7     		b	.L161
 1672              	.L174:
 1673 017c 40F6FF71 		movw	r1, #4095
 1674 0180 4118     		adds	r1, r0, r1
 1675 0182 0846     		mov	r0, r1
 1676 0184 44F10001 		adc	r1, r4, #0
 1677 0188 94E7     		b	.L162
 1678              	.L175:
 1679 018a 40F6FF70 		movw	r0, #4095
 1680 018e 0818     		adds	r0, r1, r0
 1681 0190 0146     		mov	r1, r0
 1682 0192 43F10000 		adc	r0, r3, #0
 1683 0196 9BE7     		b	.L163
ARM GAS  C:\Temp\ccb7OYN5.s 			page 29


 1684              	.L176:
 1685 0198 40F6FF73 		movw	r3, #4095
 1686 019c D218     		adds	r2, r2, r3
 1687 019e 4CF10003 		adc	r3, ip, #0
 1688 01a2 A4E7     		b	.L164
 1689              	.L177:
 1690 01a4 0332     		adds	r2, r2, #3
 1691 01a6 43F10000 		adc	r0, r3, #0
 1692 01aa AAE7     		b	.L165
 1693              	.L178:
 1694 01ac 00F13F03 		add	r3, r0, #63
 1695 01b0 C2E7     		b	.L167
 1696              	.L168:
 1697 01b2 1B1B     		subs	r3, r3, r4
 1698 01b4 0E9A     		ldr	r2, [sp, #56]
 1699 01b6 1360     		str	r3, [r2]
 1700 01b8 C8E7     		b	.L169
 1701              	.L170:
 1702 01ba 0923     		movs	r3, #9
 1703 01bc 0F9A     		ldr	r2, [sp, #60]
 1704 01be 1370     		strb	r3, [r2]
 1705              	.L159:
 1706 01c0 0020     		movs	r0, #0
 1707 01c2 03B0     		add	sp, sp, #12
 1708              		@ sp needed
 1709 01c4 BDE8F08F 		pop	{r4, r5, r6, r7, r8, r9, r10, fp, pc}
 1711              		.section	.text.VL53L1_hist_merged_pulse_check,"ax",%progbits
 1712              		.align	1
 1713              		.global	VL53L1_hist_merged_pulse_check
 1714              		.syntax unified
 1715              		.thumb
 1716              		.thumb_func
 1718              	VL53L1_hist_merged_pulse_check:
 1719              		@ args = 0, pretend = 0, frame = 0
 1720              		@ frame_needed = 0, uses_anonymous_args = 0
 1721              		@ link register save eliminated.
 1722 0000 B1F948C0 		ldrsh	ip, [r1, #72]
 1723 0004 B1F94430 		ldrsh	r3, [r1, #68]
 1724 0008 9C45     		cmp	ip, r3
 1725 000a 0DDD     		ble	.L180
 1726 000c 1FFA8CFC 		uxth	ip, ip
 1727 0010 9BB2     		uxth	r3, r3
 1728 0012 ACEB030C 		sub	ip, ip, r3
 1729 0016 0FFA8CF3 		sxth	r3, ip
 1730              	.L181:
 1731 001a 0028     		cmp	r0, #0
 1732 001c 0BDD     		ble	.L182
 1733 001e 8342     		cmp	r3, r0
 1734 0020 09DD     		ble	.L182
 1735 0022 1623     		movs	r3, #22
 1736 0024 1370     		strb	r3, [r2]
 1737 0026 08E0     		b	.L183
 1738              	.L180:
 1739 0028 9BB2     		uxth	r3, r3
 1740 002a 1FFA8CFC 		uxth	ip, ip
 1741 002e A3EB0C03 		sub	r3, r3, ip
 1742 0032 1BB2     		sxth	r3, r3
ARM GAS  C:\Temp\ccb7OYN5.s 			page 30


 1743 0034 F1E7     		b	.L181
 1744              	.L182:
 1745 0036 0923     		movs	r3, #9
 1746 0038 1370     		strb	r3, [r2]
 1747              	.L183:
 1748 003a 0020     		movs	r0, #0
 1749 003c 7047     		bx	lr
 1751              		.section	.text.VL53L1_hist_phase_consistency_check,"ax",%progbits
 1752              		.align	1
 1753              		.global	VL53L1_hist_phase_consistency_check
 1754              		.syntax unified
 1755              		.thumb
 1756              		.thumb_func
 1758              	VL53L1_hist_phase_consistency_check:
 1759              		@ args = 0, pretend = 0, frame = 32
 1760              		@ frame_needed = 0, uses_anonymous_args = 0
 1761 0000 2DE9F04F 		push	{r4, r5, r6, r7, r8, r9, r10, fp, lr}
 1762 0004 8DB0     		sub	sp, sp, #52
 1763 0006 0591     		str	r1, [sp, #20]
 1764 0008 1E46     		mov	r6, r3
 1765 000a 0023     		movs	r3, #0
 1766 000c 0B93     		str	r3, [sp, #44]
 1767 000e 0A93     		str	r3, [sp, #40]
 1768 0010 8DF82730 		strb	r3, [sp, #39]
 1769 0014 90F89792 		ldrb	r9, [r0, #663]	@ zero_extendqisi2
 1770 0018 B0F89812 		ldrh	r1, [r0, #664]
 1771 001c B0F89AE2 		ldrh	lr, [r0, #666]
 1772 0020 90F89682 		ldrb	r8, [r0, #662]	@ zero_extendqisi2
 1773 0024 5378     		ldrb	r3, [r2, #1]	@ zero_extendqisi2
 1774 0026 073B     		subs	r3, r3, #7
 1775 0028 DBB2     		uxtb	r3, r3
 1776 002a 012B     		cmp	r3, #1
 1777 002c 00F28580 		bhi	.L198
 1778 0030 1546     		mov	r5, r2
 1779 0032 4FEA0828 		lsl	r8, r8, #8
 1780 0036 B8F1000F 		cmp	r8, #0
 1781 003a 00F08380 		beq	.L199
 1782 003e 4FF0000B 		mov	fp, #0
 1783 0042 5A46     		mov	r2, fp
 1784 0044 DA46     		mov	r10, fp
 1785 0046 8B46     		mov	fp, r1
 1786 0048 CDF81CE0 		str	lr, [sp, #28]
 1787 004c 5BE0     		b	.L186
 1788              	.L189:
 1789 004e 4C23     		movs	r3, #76
 1790 0050 03FB0763 		mla	r3, r3, r7, r6
 1791 0054 0721     		movs	r1, #7
 1792 0056 83F85E10 		strb	r1, [r3, #94]
 1793 005a 6AE0     		b	.L191
 1794              	.L192:
 1795 005c A1EB0C01 		sub	r1, r1, ip
 1796 0060 89B2     		uxth	r1, r1
 1797 0062 1CE0     		b	.L193
 1798              	.L195:
 1799 0064 4C23     		movs	r3, #76
 1800 0066 03FB0763 		mla	r3, r3, r7, r6
 1801 006a 9DF82710 		ldrb	r1, [sp, #39]	@ zero_extendqisi2
ARM GAS  C:\Temp\ccb7OYN5.s 			page 31


 1802 006e 83F85E10 		strb	r1, [r3, #94]
 1803              	.L194:
 1804 0072 0134     		adds	r4, r4, #1
 1805 0074 E4B2     		uxtb	r4, r4
 1806              	.L190:
 1807 0076 6B79     		ldrb	r3, [r5, #5]	@ zero_extendqisi2
 1808 0078 A342     		cmp	r3, r4
 1809 007a 3ED9     		bls	.L201
 1810 007c 4C23     		movs	r3, #76
 1811 007e 03FB0763 		mla	r3, r3, r7, r6
 1812 0082 B3F854C0 		ldrh	ip, [r3, #84]
 1813 0086 2346     		mov	r3, r4
 1814 0088 04EB4401 		add	r1, r4, r4, lsl #1
 1815 008c 05EB8101 		add	r1, r5, r1, lsl #2
 1816 0090 098A     		ldrh	r1, [r1, #16]
 1817 0092 8C45     		cmp	ip, r1
 1818 0094 E2D9     		bls	.L192
 1819 0096 ACEB010C 		sub	ip, ip, r1
 1820 009a 1FFA8CF1 		uxth	r1, ip
 1821              	.L193:
 1822 009e 4145     		cmp	r1, r8
 1823 00a0 E7D2     		bcs	.L194
 1824 00a2 002A     		cmp	r2, #0
 1825 00a4 DED1     		bne	.L195
 1826 00a6 4C22     		movs	r2, #76
 1827 00a8 07FB02F2 		mul	r2, r7, r2
 1828 00ac 1032     		adds	r2, r2, #16
 1829 00ae 3244     		add	r2, r2, r6
 1830 00b0 02F1040A 		add	r10, r2, #4
 1831 00b4 03EB4303 		add	r3, r3, r3, lsl #1
 1832 00b8 9B00     		lsls	r3, r3, #2
 1833 00ba 0833     		adds	r3, r3, #8
 1834 00bc 0DF12702 		add	r2, sp, #39
 1835 00c0 0392     		str	r2, [sp, #12]
 1836 00c2 0BAA     		add	r2, sp, #44
 1837 00c4 0292     		str	r2, [sp, #8]
 1838 00c6 0AAA     		add	r2, sp, #40
 1839 00c8 0192     		str	r2, [sp, #4]
 1840 00ca CDF800A0 		str	r10, [sp]
 1841 00ce 2B44     		add	r3, r3, r5
 1842 00d0 059A     		ldr	r2, [sp, #20]
 1843 00d2 5946     		mov	r1, fp
 1844 00d4 4846     		mov	r0, r9
 1845 00d6 FFF7FEFF 		bl	VL53L1_hist_events_consistency_check
 1846 00da 0246     		mov	r2, r0
 1847 00dc 0028     		cmp	r0, #0
 1848 00de C1D1     		bne	.L195
 1849 00e0 9DF82730 		ldrb	r3, [sp, #39]	@ zero_extendqisi2
 1850 00e4 092B     		cmp	r3, #9
 1851 00e6 BDD1     		bne	.L195
 1852 00e8 0DF12702 		add	r2, sp, #39
 1853 00ec 5146     		mov	r1, r10
 1854 00ee BDF91C00 		ldrsh	r0, [sp, #28]
 1855 00f2 FFF7FEFF 		bl	VL53L1_hist_merged_pulse_check
 1856 00f6 0246     		mov	r2, r0
 1857 00f8 B4E7     		b	.L195
 1858              	.L201:
ARM GAS  C:\Temp\ccb7OYN5.s 			page 32


 1859 00fa DDF818A0 		ldr	r10, [sp, #24]
 1860              	.L188:
 1861 00fe 0AF1010A 		add	r10, r10, #1
 1862 0102 5FFA8AFA 		uxtb	r10, r10
 1863              	.L186:
 1864 0106 B37C     		ldrb	r3, [r6, #18]	@ zero_extendqisi2
 1865 0108 5345     		cmp	r3, r10
 1866 010a 17D9     		bls	.L185
 1867 010c 5746     		mov	r7, r10
 1868 010e 4C23     		movs	r3, #76
 1869 0110 03FB0A63 		mla	r3, r3, r10, r6
 1870 0114 93F85E30 		ldrb	r3, [r3, #94]	@ zero_extendqisi2
 1871 0118 092B     		cmp	r3, #9
 1872 011a 01D0     		beq	.L187
 1873 011c 132B     		cmp	r3, #19
 1874 011e EED1     		bne	.L188
 1875              	.L187:
 1876 0120 6B79     		ldrb	r3, [r5, #5]	@ zero_extendqisi2
 1877 0122 002B     		cmp	r3, #0
 1878 0124 93D1     		bne	.L189
 1879 0126 4C23     		movs	r3, #76
 1880 0128 03FB0763 		mla	r3, r3, r7, r6
 1881 012c 1721     		movs	r1, #23
 1882 012e 83F85E10 		strb	r1, [r3, #94]
 1883              	.L191:
 1884 0132 0024     		movs	r4, #0
 1885 0134 CDF818A0 		str	r10, [sp, #24]
 1886 0138 9DE7     		b	.L190
 1887              	.L198:
 1888 013a 0022     		movs	r2, #0
 1889              	.L185:
 1890 013c 1046     		mov	r0, r2
 1891 013e 0DB0     		add	sp, sp, #52
 1892              		@ sp needed
 1893 0140 BDE8F08F 		pop	{r4, r5, r6, r7, r8, r9, r10, fp, pc}
 1894              	.L199:
 1895 0144 0022     		movs	r2, #0
 1896 0146 F9E7     		b	.L185
 1898              		.section	.text.VL53L1_hist_xmonitor_consistency_check,"ax",%progbits
 1899              		.align	1
 1900              		.global	VL53L1_hist_xmonitor_consistency_check
 1901              		.syntax unified
 1902              		.thumb
 1903              		.thumb_func
 1905              	VL53L1_hist_xmonitor_consistency_check:
 1906              		@ args = 0, pretend = 0, frame = 8
 1907              		@ frame_needed = 0, uses_anonymous_args = 0
 1908 0000 10B5     		push	{r4, lr}
 1909 0002 86B0     		sub	sp, sp, #24
 1910 0004 8446     		mov	ip, r0
 1911 0006 0020     		movs	r0, #0
 1912 0008 0590     		str	r0, [sp, #20]
 1913 000a 0490     		str	r0, [sp, #16]
 1914 000c 9CF8B002 		ldrb	r0, [ip, #688]	@ zero_extendqisi2
 1915 0010 BCF898E2 		ldrh	lr, [ip, #664]
 1916 0014 93F84AC0 		ldrb	ip, [r3, #74]	@ zero_extendqisi2
 1917 0018 BCF1090F 		cmp	ip, #9
ARM GAS  C:\Temp\ccb7OYN5.s 			page 33


 1918 001c 07D0     		beq	.L203
 1919 001e BCF1130F 		cmp	ip, #19
 1920 0022 04D0     		beq	.L203
 1921 0024 BCF1140F 		cmp	ip, #20
 1922 0028 01D0     		beq	.L203
 1923 002a 0020     		movs	r0, #0
 1924 002c 1DE0     		b	.L204
 1925              	.L203:
 1926 002e 92F842C0 		ldrb	ip, [r2, #66]	@ zero_extendqisi2
 1927 0032 BCF1090F 		cmp	ip, #9
 1928 0036 07D0     		beq	.L205
 1929 0038 BCF1130F 		cmp	ip, #19
 1930 003c 04D0     		beq	.L205
 1931 003e BCF1140F 		cmp	ip, #20
 1932 0042 01D0     		beq	.L205
 1933 0044 0020     		movs	r0, #0
 1934 0046 10E0     		b	.L204
 1935              	.L205:
 1936 0048 1C46     		mov	r4, r3
 1937 004a 4FF0090C 		mov	ip, #9
 1938 004e 04F84ACF 		strb	ip, [r4, #74]!
 1939 0052 0394     		str	r4, [sp, #12]
 1940 0054 05AC     		add	r4, sp, #20
 1941 0056 0294     		str	r4, [sp, #8]
 1942 0058 04AC     		add	r4, sp, #16
 1943 005a 0194     		str	r4, [sp, #4]
 1944 005c 0093     		str	r3, [sp]
 1945 005e 02F13803 		add	r3, r2, #56
 1946 0062 0A46     		mov	r2, r1
 1947 0064 7146     		mov	r1, lr
 1948 0066 FFF7FEFF 		bl	VL53L1_hist_events_consistency_check
 1949              	.L204:
 1950 006a 06B0     		add	sp, sp, #24
 1951              		@ sp needed
 1952 006c 10BD     		pop	{r4, pc}
 1954              		.section	.text.VL53L1_hist_wrap_dmax,"ax",%progbits
 1955              		.align	1
 1956              		.global	VL53L1_hist_wrap_dmax
 1957              		.syntax unified
 1958              		.thumb
 1959              		.thumb_func
 1961              	VL53L1_hist_wrap_dmax:
 1962              		@ args = 0, pretend = 0, frame = 0
 1963              		@ frame_needed = 0, uses_anonymous_args = 0
 1964 0000 38B5     		push	{r3, r4, r5, lr}
 1965 0002 0546     		mov	r5, r0
 1966 0004 0023     		movs	r3, #0
 1967 0006 1380     		strh	r3, [r2]	@ movhi
 1968 0008 B1F88600 		ldrh	r0, [r1, #134]
 1969 000c 08B9     		cbnz	r0, .L212
 1970              	.L210:
 1971 000e 0020     		movs	r0, #0
 1972 0010 38BD     		pop	{r3, r4, r5, pc}
 1973              	.L212:
 1974 0012 1446     		mov	r4, r2
 1975 0014 FFF7FEFF 		bl	VL53L1_calc_pll_period_mm
 1976 0018 95F82130 		ldrb	r3, [r5, #33]	@ zero_extendqisi2
ARM GAS  C:\Temp\ccb7OYN5.s 			page 34


 1977 001c 1B02     		lsls	r3, r3, #8
 1978 001e 03FB00F0 		mul	r0, r3, r0
 1979 0022 00F58040 		add	r0, r0, #16384
 1980 0026 40F3CF30 		sbfx	r0, r0, #15, #16
 1981 002a 2080     		strh	r0, [r4]	@ movhi
 1982 002c EFE7     		b	.L210
 1984              		.section	.text.VL53L1_hist_xtalk_extract_calc_window,"ax",%progbits
 1985              		.align	1
 1986              		.global	VL53L1_hist_xtalk_extract_calc_window
 1987              		.syntax unified
 1988              		.thumb
 1989              		.thumb_func
 1991              	VL53L1_hist_xtalk_extract_calc_window:
 1992              		@ args = 0, pretend = 0, frame = 0
 1993              		@ frame_needed = 0, uses_anonymous_args = 0
 1994 0000 2DE9F041 		push	{r4, r5, r6, r7, r8, lr}
 1995 0004 0546     		mov	r5, r0
 1996 0006 8846     		mov	r8, r1
 1997 0008 1646     		mov	r6, r2
 1998 000a 1C46     		mov	r4, r3
 1999 000c B2F88600 		ldrh	r0, [r2, #134]
 2000 0010 FFF7FEFF 		bl	VL53L1_calc_pll_period_mm
 2001 0014 8646     		mov	lr, r0
 2002 0016 6060     		str	r0, [r4, #4]
 2003 0018 B6F88230 		ldrh	r3, [r6, #130]
 2004 001c DF01     		lsls	r7, r3, #7
 2005 001e 2763     		str	r7, [r4, #48]
 2006 0020 07EBC812 		add	r2, r7, r8, lsl #7
 2007 0024 E263     		str	r2, [r4, #60]
 2008 0026 B6F89C10 		ldrh	r1, [r6, #156]
 2009 002a A1EB5701 		sub	r1, r1, r7, lsr #1
 2010 002e A162     		str	r1, [r4, #40]
 2011 0030 7818     		adds	r0, r7, r1
 2012 0032 E062     		str	r0, [r4, #44]
 2013 0034 0029     		cmp	r1, #0
 2014 0036 6FDB     		blt	.L225
 2015              	.L214:
 2016 0038 A16A     		ldr	r1, [r4, #40]
 2017 003a 8C46     		mov	ip, r1
 2018 003c 0029     		cmp	r1, #0
 2019 003e 6EDB     		blt	.L226
 2020              	.L215:
 2021 0040 CCF3C72C 		ubfx	ip, ip, #11, #8
 2022 0044 84F848C0 		strb	ip, [r4, #72]
 2023 0048 00F2FF7C 		addw	ip, r0, #2047
 2024 004c BCF1000F 		cmp	ip, #0
 2025 0050 68DB     		blt	.L227
 2026              	.L216:
 2027 0052 CCF3C72C 		ubfx	ip, ip, #11, #8
 2028 0056 84F849C0 		strb	ip, [r4, #73]
 2029 005a E803     		lsls	r0, r5, #15
 2030 005c 6063     		str	r0, [r4, #52]
 2031 005e 0EEBDE75 		add	r5, lr, lr, lsr #31
 2032 0062 00EB6500 		add	r0, r0, r5, asr #1
 2033 0066 6063     		str	r0, [r4, #52]
 2034 0068 90FBFEF0 		sdiv	r0, r0, lr
 2035 006c 6063     		str	r0, [r4, #52]
ARM GAS  C:\Temp\ccb7OYN5.s 			page 35


 2036 006e B6F89C50 		ldrh	r5, [r6, #156]
 2037 0072 2844     		add	r0, r0, r5
 2038 0074 6063     		str	r0, [r4, #52]
 2039 0076 A0EB5200 		sub	r0, r0, r2, lsr #1
 2040 007a 6063     		str	r0, [r4, #52]
 2041 007c 0244     		add	r2, r2, r0
 2042 007e A263     		str	r2, [r4, #56]
 2043 0080 0028     		cmp	r0, #0
 2044 0082 52DB     		blt	.L228
 2045              	.L217:
 2046 0084 626B     		ldr	r2, [r4, #52]
 2047 0086 002A     		cmp	r2, #0
 2048 0088 52DB     		blt	.L229
 2049              	.L218:
 2050 008a C2F3C722 		ubfx	r2, r2, #11, #8
 2051 008e 84F84A20 		strb	r2, [r4, #74]
 2052 0092 9445     		cmp	ip, r2
 2053 0094 02D3     		bcc	.L219
 2054 0096 013A     		subs	r2, r2, #1
 2055 0098 84F84920 		strb	r2, [r4, #73]
 2056              	.L219:
 2057 009c 94F84920 		ldrb	r2, [r4, #73]	@ zero_extendqisi2
 2058 00a0 0132     		adds	r2, r2, #1
 2059 00a2 D202     		lsls	r2, r2, #11
 2060 00a4 2264     		str	r2, [r4, #64]
 2061 00a6 521A     		subs	r2, r2, r1
 2062 00a8 2264     		str	r2, [r4, #64]
 2063 00aa 9742     		cmp	r7, r2
 2064 00ac 00DA     		bge	.L220
 2065 00ae 2764     		str	r7, [r4, #64]
 2066              	.L220:
 2067 00b0 226C     		ldr	r2, [r4, #64]
 2068 00b2 002A     		cmp	r2, #0
 2069 00b4 3FDD     		ble	.L230
 2070              	.L221:
 2071 00b6 4FF4FA32 		mov	r2, #128000
 2072 00ba 02FB03F3 		mul	r3, r2, r3
 2073 00be 6364     		str	r3, [r4, #68]
 2074 00c0 226C     		ldr	r2, [r4, #64]
 2075 00c2 02EBD271 		add	r1, r2, r2, lsr #31
 2076 00c6 03EB6103 		add	r3, r3, r1, asr #1
 2077 00ca 6364     		str	r3, [r4, #68]
 2078 00cc 93FBF2F3 		sdiv	r3, r3, r2
 2079 00d0 6364     		str	r3, [r4, #68]
 2080 00d2 B3F57A7F 		cmp	r3, #1000
 2081 00d6 02DA     		bge	.L222
 2082 00d8 4FF47A73 		mov	r3, #1000
 2083 00dc 6364     		str	r3, [r4, #68]
 2084              	.L222:
 2085 00de 636C     		ldr	r3, [r4, #68]
 2086 00e0 B3F57A6F 		cmp	r3, #4000
 2087 00e4 02DD     		ble	.L223
 2088 00e6 4FF47A63 		mov	r3, #4000
 2089 00ea 6364     		str	r3, [r4, #68]
 2090              	.L223:
 2091 00ec A369     		ldr	r3, [r4, #24]
 2092 00ee 626C     		ldr	r2, [r4, #68]
ARM GAS  C:\Temp\ccb7OYN5.s 			page 36


 2093 00f0 1344     		add	r3, r3, r2
 2094 00f2 A361     		str	r3, [r4, #24]
 2095 00f4 A368     		ldr	r3, [r4, #8]
 2096 00f6 D6F88C20 		ldr	r2, [r6, #140]
 2097 00fa 1344     		add	r3, r3, r2
 2098 00fc A360     		str	r3, [r4, #8]
 2099 00fe E368     		ldr	r3, [r4, #12]
 2100 0100 B6F87C20 		ldrh	r2, [r6, #124]
 2101 0104 1344     		add	r3, r3, r2
 2102 0106 E360     		str	r3, [r4, #12]
 2103 0108 2369     		ldr	r3, [r4, #16]
 2104 010a B6F89C20 		ldrh	r2, [r6, #156]
 2105 010e 1344     		add	r3, r3, r2
 2106 0110 2361     		str	r3, [r4, #16]
 2107 0112 0020     		movs	r0, #0
 2108 0114 BDE8F081 		pop	{r4, r5, r6, r7, r8, pc}
 2109              	.L225:
 2110 0118 0021     		movs	r1, #0
 2111 011a A162     		str	r1, [r4, #40]
 2112 011c 8CE7     		b	.L214
 2113              	.L226:
 2114 011e 01F2FF7C 		addw	ip, r1, #2047
 2115 0122 8DE7     		b	.L215
 2116              	.L227:
 2117 0124 0CF2FF7C 		addw	ip, ip, #2047
 2118 0128 93E7     		b	.L216
 2119              	.L228:
 2120 012a 0022     		movs	r2, #0
 2121 012c 6263     		str	r2, [r4, #52]
 2122 012e A9E7     		b	.L217
 2123              	.L229:
 2124 0130 02F2FF72 		addw	r2, r2, #2047
 2125 0134 A9E7     		b	.L218
 2126              	.L230:
 2127 0136 0122     		movs	r2, #1
 2128 0138 2264     		str	r2, [r4, #64]
 2129 013a BCE7     		b	.L221
 2131              		.section	.text.VL53L1_hist_xtalk_extract_calc_event_sums,"ax",%progbits
 2132              		.align	1
 2133              		.global	VL53L1_hist_xtalk_extract_calc_event_sums
 2134              		.syntax unified
 2135              		.thumb
 2136              		.thumb_func
 2138              	VL53L1_hist_xtalk_extract_calc_event_sums:
 2139              		@ args = 0, pretend = 0, frame = 0
 2140              		@ frame_needed = 0, uses_anonymous_args = 0
 2141 0000 10B5     		push	{r4, lr}
 2142 0002 91F848C0 		ldrb	ip, [r1, #72]	@ zero_extendqisi2
 2143 0006 16E0     		b	.L232
 2144              	.L233:
 2145 0008 C37A     		ldrb	r3, [r0, #11]	@ zero_extendqisi2
 2146 000a 6344     		add	r3, r3, ip
 2147 000c 827A     		ldrb	r2, [r0, #10]	@ zero_extendqisi2
 2148 000e 1344     		add	r3, r3, r2
 2149 0010 93FBF2FE 		sdiv	lr, r3, r2
 2150 0014 02FB1E33 		mls	r3, r2, lr, r3
 2151 0018 0A6A     		ldr	r2, [r1, #32]
ARM GAS  C:\Temp\ccb7OYN5.s 			page 37


 2152 001a DBB2     		uxtb	r3, r3
 2153 001c 0633     		adds	r3, r3, #6
 2154 001e 50F82330 		ldr	r3, [r0, r3, lsl #2]
 2155 0022 1344     		add	r3, r3, r2
 2156 0024 0B62     		str	r3, [r1, #32]
 2157 0026 D0F8A420 		ldr	r2, [r0, #164]
 2158 002a 9B1A     		subs	r3, r3, r2
 2159 002c 0B62     		str	r3, [r1, #32]
 2160 002e 0CF1010C 		add	ip, ip, #1
 2161 0032 5FFA8CFC 		uxtb	ip, ip
 2162              	.L232:
 2163 0036 91F84930 		ldrb	r3, [r1, #73]	@ zero_extendqisi2
 2164 003a 6345     		cmp	r3, ip
 2165 003c E4D2     		bcs	.L233
 2166 003e 0022     		movs	r2, #0
 2167              	.L234:
 2168 0040 0B2A     		cmp	r2, #11
 2169 0042 1DD8     		bhi	.L235
 2170 0044 90F80AC0 		ldrb	ip, [r0, #10]	@ zero_extendqisi2
 2171 0048 9445     		cmp	ip, r2
 2172 004a 19D9     		bls	.L235
 2173 004c C37A     		ldrb	r3, [r0, #11]	@ zero_extendqisi2
 2174 004e 1344     		add	r3, r3, r2
 2175 0050 6344     		add	r3, r3, ip
 2176 0052 93FBFCFE 		sdiv	lr, r3, ip
 2177 0056 0CFB1E33 		mls	r3, ip, lr, r3
 2178 005a 02F1140C 		add	ip, r2, #20
 2179 005e DBB2     		uxtb	r3, r3
 2180 0060 0633     		adds	r3, r3, #6
 2181 0062 50F82330 		ldr	r3, [r0, r3, lsl #2]
 2182 0066 51F82C40 		ldr	r4, [r1, ip, lsl #2]
 2183 006a 2344     		add	r3, r3, r4
 2184 006c 41F82C30 		str	r3, [r1, ip, lsl #2]
 2185 0070 D0F8A440 		ldr	r4, [r0, #164]
 2186 0074 1B1B     		subs	r3, r3, r4
 2187 0076 41F82C30 		str	r3, [r1, ip, lsl #2]
 2188 007a 0132     		adds	r2, r2, #1
 2189 007c D2B2     		uxtb	r2, r2
 2190 007e DFE7     		b	.L234
 2191              	.L235:
 2192 0080 0B68     		ldr	r3, [r1]
 2193 0082 0133     		adds	r3, r3, #1
 2194 0084 0B60     		str	r3, [r1]
 2195 0086 0020     		movs	r0, #0
 2196 0088 10BD     		pop	{r4, pc}
 2198              		.global	__aeabi_uldivmod
 2199              		.section	.text.VL53L1_hist_xtalk_extract_calc_rate_per_spad,"ax",%progbits
 2200              		.align	1
 2201              		.global	VL53L1_hist_xtalk_extract_calc_rate_per_spad
 2202              		.syntax unified
 2203              		.thumb
 2204              		.thumb_func
 2206              	VL53L1_hist_xtalk_extract_calc_rate_per_spad:
 2207              		@ args = 0, pretend = 0, frame = 0
 2208              		@ frame_needed = 0, uses_anonymous_args = 0
 2209 0000 70B5     		push	{r4, r5, r6, lr}
 2210 0002 0446     		mov	r4, r0
ARM GAS  C:\Temp\ccb7OYN5.s 			page 38


 2211 0004 C668     		ldr	r6, [r0, #12]
 2212 0006 8568     		ldr	r5, [r0, #8]
 2213 0008 A6FB0556 		umull	r5, r6, r6, r5
 2214 000c 036A     		ldr	r3, [r0, #32]
 2215 000e 002B     		cmp	r3, #0
 2216 0010 28DB     		blt	.L242
 2217              	.L239:
 2218 0012 226A     		ldr	r2, [r4, #32]
 2219 0014 D117     		asrs	r1, r2, #31
 2220 0016 2368     		ldr	r3, [r4]
 2221 0018 A2FB0320 		umull	r2, r0, r2, r3
 2222 001c 03FB0100 		mla	r0, r3, r1, r0
 2223 0020 E369     		ldr	r3, [r4, #28]
 2224 0022 D917     		asrs	r1, r3, #31
 2225 0024 02FB01F1 		mul	r1, r2, r1
 2226 0028 03FB0011 		mla	r1, r3, r0, r1
 2227 002c A2FB0323 		umull	r2, r3, r2, r3
 2228 0030 1944     		add	r1, r1, r3
 2229 0032 0902     		lsls	r1, r1, #8
 2230 0034 41EA1261 		orr	r1, r1, r2, lsr #24
 2231 0038 1302     		lsls	r3, r2, #8
 2232 003a 4902     		lsls	r1, r1, #9
 2233 003c 41EAD351 		orr	r1, r1, r3, lsr #23
 2234 0040 5204     		lsls	r2, r2, #17
 2235 0042 55EA0603 		orrs	r3, r5, r6
 2236 0046 0AD0     		beq	.L240
 2237 0048 6808     		lsrs	r0, r5, #1
 2238 004a 40EAC670 		orr	r0, r0, r6, lsl #31
 2239 004e 8018     		adds	r0, r0, r2
 2240 0050 2A46     		mov	r2, r5
 2241 0052 3346     		mov	r3, r6
 2242 0054 41EB5601 		adc	r1, r1, r6, lsr #1
 2243 0058 FFF7FEFF 		bl	__aeabi_uldivmod
 2244 005c 0246     		mov	r2, r0
 2245              	.L240:
 2246 005e 6262     		str	r2, [r4, #36]
 2247 0060 0020     		movs	r0, #0
 2248 0062 70BD     		pop	{r4, r5, r6, pc}
 2249              	.L242:
 2250 0064 0023     		movs	r3, #0
 2251 0066 0362     		str	r3, [r0, #32]
 2252 0068 0268     		ldr	r2, [r0]
 2253 006a C169     		ldr	r1, [r0, #28]
 2254 006c C817     		asrs	r0, r1, #31
 2255 006e A2FB0113 		umull	r1, r3, r2, r1
 2256 0072 02FB0033 		mla	r3, r2, r0, r3
 2257 0076 1B02     		lsls	r3, r3, #8
 2258 0078 43EA1163 		orr	r3, r3, r1, lsr #24
 2259 007c 0A02     		lsls	r2, r1, #8
 2260 007e 5B02     		lsls	r3, r3, #9
 2261 0080 43EAD253 		orr	r3, r3, r2, lsr #23
 2262 0084 4A04     		lsls	r2, r1, #17
 2263 0086 53EA4141 		orrs	r1, r3, r1, lsl #17
 2264 008a C2D0     		beq	.L239
 2265 008c 6819     		adds	r0, r5, r5
 2266 008e 46EB0601 		adc	r1, r6, r6
 2267 0092 4019     		adds	r0, r0, r5
ARM GAS  C:\Temp\ccb7OYN5.s 			page 39


 2268 0094 46EB0101 		adc	r1, r6, r1
 2269 0098 C900     		lsls	r1, r1, #3
 2270 009a 41EA5071 		orr	r1, r1, r0, lsr #29
 2271 009e C000     		lsls	r0, r0, #3
 2272 00a0 4019     		adds	r0, r0, r5
 2273 00a2 46EB0101 		adc	r1, r6, r1
 2274 00a6 0018     		adds	r0, r0, r0
 2275 00a8 4941     		adcs	r1, r1, r1
 2276 00aa FFF7FEFF 		bl	__aeabi_uldivmod
 2277 00ae 2062     		str	r0, [r4, #32]
 2278 00b0 AFE7     		b	.L239
 2280              		.section	.text.VL53L1_hist_xtalk_extract_calc_shape,"ax",%progbits
 2281              		.align	1
 2282              		.global	VL53L1_hist_xtalk_extract_calc_shape
 2283              		.syntax unified
 2284              		.thumb
 2285              		.thumb_func
 2287              	VL53L1_hist_xtalk_extract_calc_shape:
 2288              		@ args = 0, pretend = 0, frame = 0
 2289              		@ frame_needed = 0, uses_anonymous_args = 0
 2290 0000 2DE9F843 		push	{r3, r4, r5, r6, r7, r8, r9, lr}
 2291 0004 0546     		mov	r5, r0
 2292 0006 0F46     		mov	r7, r1
 2293 0008 0023     		movs	r3, #0
 2294 000a 0B72     		strb	r3, [r1, #8]
 2295 000c 0C23     		movs	r3, #12
 2296 000e 4B72     		strb	r3, [r1, #9]
 2297 0010 8B72     		strb	r3, [r1, #10]
 2298 0012 838A     		ldrh	r3, [r0, #20]
 2299 0014 A1F84430 		strh	r3, [r1, #68]	@ movhi
 2300 0018 838A     		ldrh	r3, [r0, #20]
 2301 001a 03F5C053 		add	r3, r3, #6144
 2302 001e 8B87     		strh	r3, [r1, #60]	@ movhi
 2303 0020 036A     		ldr	r3, [r0, #32]
 2304 0022 002B     		cmp	r3, #0
 2305 0024 11DD     		ble	.L254
 2306 0026 D817     		asrs	r0, r3, #31
 2307 0028 E969     		ldr	r1, [r5, #28]
 2308 002a CA17     		asrs	r2, r1, #31
 2309 002c 03FB02F2 		mul	r2, r3, r2
 2310 0030 01FB0022 		mla	r2, r1, r0, r2
 2311 0034 A3FB0198 		umull	r9, r8, r3, r1
 2312 0038 9044     		add	r8, r8, r2
 2313 003a 59EA0803 		orrs	r3, r9, r8
 2314 003e 08D1     		bne	.L244
 2315 0040 4FF00109 		mov	r9, #1
 2316 0044 4FF00008 		mov	r8, #0
 2317 0048 03E0     		b	.L244
 2318              	.L254:
 2319 004a 4FF00109 		mov	r9, #1
 2320 004e 4FF00008 		mov	r8, #0
 2321              	.L244:
 2322 0052 0024     		movs	r4, #0
 2323 0054 EC64     		str	r4, [r5, #76]
 2324 0056 4FF48066 		mov	r6, #1024
 2325 005a 1AE0     		b	.L245
 2326              	.L246:
ARM GAS  C:\Temp\ccb7OYN5.s 			page 40


 2327 005c 721E     		subs	r2, r6, #1
 2328 005e 40F2FE33 		movw	r3, #1022
 2329 0062 9A42     		cmp	r2, r3
 2330 0064 0FD8     		bhi	.L248
 2331 0066 EB6C     		ldr	r3, [r5, #76]
 2332 0068 B342     		cmp	r3, r6
 2333 006a 06DA     		bge	.L249
 2334 006c A21C     		adds	r2, r4, #2
 2335 006e 07EB8202 		add	r2, r7, r2, lsl #2
 2336 0072 5360     		str	r3, [r2, #4]
 2337 0074 EB6C     		ldr	r3, [r5, #76]
 2338 0076 F61A     		subs	r6, r6, r3
 2339 0078 0AE0     		b	.L250
 2340              	.L249:
 2341 007a A31C     		adds	r3, r4, #2
 2342 007c 07EB8303 		add	r3, r7, r3, lsl #2
 2343 0080 5E60     		str	r6, [r3, #4]
 2344 0082 0026     		movs	r6, #0
 2345 0084 04E0     		b	.L250
 2346              	.L248:
 2347 0086 A31C     		adds	r3, r4, #2
 2348 0088 07EB8303 		add	r3, r7, r3, lsl #2
 2349 008c 0022     		movs	r2, #0
 2350 008e 5A60     		str	r2, [r3, #4]
 2351              	.L250:
 2352 0090 0134     		adds	r4, r4, #1
 2353              	.L245:
 2354 0092 0B2C     		cmp	r4, #11
 2355 0094 41DC     		bgt	.L258
 2356 0096 95F84830 		ldrb	r3, [r5, #72]	@ zero_extendqisi2
 2357 009a A342     		cmp	r3, r4
 2358 009c DEDC     		bgt	.L246
 2359 009e 95F84930 		ldrb	r3, [r5, #73]	@ zero_extendqisi2
 2360 00a2 A342     		cmp	r3, r4
 2361 00a4 DADB     		blt	.L246
 2362 00a6 04F11403 		add	r3, r4, #20
 2363 00aa 55F82320 		ldr	r2, [r5, r3, lsl #2]
 2364 00ae 002A     		cmp	r2, #0
 2365 00b0 D4DB     		blt	.L246
 2366 00b2 D117     		asrs	r1, r2, #31
 2367 00b4 4801     		lsls	r0, r1, #5
 2368 00b6 40EAD260 		orr	r0, r0, r2, lsr #27
 2369 00ba 5301     		lsls	r3, r2, #5
 2370 00bc 9B1A     		subs	r3, r3, r2
 2371 00be 60EB0100 		sbc	r0, r0, r1
 2372 00c2 8000     		lsls	r0, r0, #2
 2373 00c4 40EA9370 		orr	r0, r0, r3, lsr #30
 2374 00c8 9B00     		lsls	r3, r3, #2
 2375 00ca 9B18     		adds	r3, r3, r2
 2376 00cc 41EB0001 		adc	r1, r1, r0
 2377 00d0 4903     		lsls	r1, r1, #13
 2378 00d2 41EAD341 		orr	r1, r1, r3, lsr #19
 2379 00d6 5B03     		lsls	r3, r3, #13
 2380 00d8 4FEA5900 		lsr	r0, r9, #1
 2381 00dc 40EAC870 		orr	r0, r0, r8, lsl #31
 2382 00e0 C018     		adds	r0, r0, r3
 2383 00e2 4A46     		mov	r2, r9
ARM GAS  C:\Temp\ccb7OYN5.s 			page 41


 2384 00e4 4346     		mov	r3, r8
 2385 00e6 41EB5801 		adc	r1, r1, r8, lsr #1
 2386 00ea FFF7FEFF 		bl	__aeabi_uldivmod
 2387 00ee 0346     		mov	r3, r0
 2388 00f0 B0F5803F 		cmp	r0, #65536
 2389 00f4 71F10001 		sbcs	r1, r1, #0
 2390 00f8 01D3     		bcc	.L251
 2391 00fa 4FF6FF73 		movw	r3, #65535
 2392              	.L251:
 2393 00fe A21C     		adds	r2, r4, #2
 2394 0100 07EB8202 		add	r2, r7, r2, lsl #2
 2395 0104 5360     		str	r3, [r2, #4]
 2396 0106 EA6C     		ldr	r2, [r5, #76]
 2397 0108 9342     		cmp	r3, r2
 2398 010a 00DD     		ble	.L252
 2399 010c EB64     		str	r3, [r5, #76]
 2400              	.L252:
 2401 010e A31C     		adds	r3, r4, #2
 2402 0110 07EB8303 		add	r3, r7, r3, lsl #2
 2403 0114 5B68     		ldr	r3, [r3, #4]
 2404 0116 F61A     		subs	r6, r6, r3
 2405 0118 BAE7     		b	.L250
 2406              	.L258:
 2407 011a 0020     		movs	r0, #0
 2408 011c BDE8F883 		pop	{r3, r4, r5, r6, r7, r8, r9, pc}
 2410              		.section	.text.VL53L1_hist_xtalk_shape_model_interp,"ax",%progbits
 2411              		.align	1
 2412              		.global	VL53L1_hist_xtalk_shape_model_interp
 2413              		.syntax unified
 2414              		.thumb
 2415              		.thumb_func
 2417              	VL53L1_hist_xtalk_shape_model_interp:
 2418              		@ args = 0, pretend = 0, frame = 0
 2419              		@ frame_needed = 0, uses_anonymous_args = 0
 2420              		@ link register save eliminated.
 2421 0000 01FB00F0 		mul	r0, r1, r0
 2422 0004 00F58063 		add	r3, r0, #1024
 2423 0008 D80A     		lsrs	r0, r3, #11
 2424 000a B3F1006F 		cmp	r3, #134217728
 2425 000e 01D3     		bcc	.L260
 2426 0010 4FF6FF70 		movw	r0, #65535
 2427              	.L260:
 2428 0014 80B2     		uxth	r0, r0
 2429 0016 7047     		bx	lr
 2431              		.section	.text.VL53L1_hist_xtalk_shape_model,"ax",%progbits
 2432              		.align	1
 2433              		.global	VL53L1_hist_xtalk_shape_model
 2434              		.syntax unified
 2435              		.thumb
 2436              		.thumb_func
 2438              	VL53L1_hist_xtalk_shape_model:
 2439              		@ args = 0, pretend = 0, frame = 0
 2440              		@ frame_needed = 0, uses_anonymous_args = 0
 2441 0000 2DE9F047 		push	{r4, r5, r6, r7, r8, r9, r10, lr}
 2442 0004 8146     		mov	r9, r0
 2443 0006 1E46     		mov	r6, r3
 2444 0008 0023     		movs	r3, #0
ARM GAS  C:\Temp\ccb7OYN5.s 			page 42


 2445 000a 3372     		strb	r3, [r6, #8]
 2446 000c 0C23     		movs	r3, #12
 2447 000e 7372     		strb	r3, [r6, #9]
 2448 0010 B372     		strb	r3, [r6, #10]
 2449 0012 A6F84410 		strh	r1, [r6, #68]	@ movhi
 2450 0016 01F5C053 		add	r3, r1, #6144
 2451 001a B387     		strh	r3, [r6, #60]	@ movhi
 2452 001c 5308     		lsrs	r3, r2, #1
 2453 001e B1EB520F 		cmp	r1, r2, lsr #1
 2454 0022 09D9     		bls	.L270
 2455 0024 A1EB030A 		sub	r10, r1, r3
 2456              	.L263:
 2457 0028 01EB0308 		add	r8, r1, r3
 2458 002c 4FEADA25 		lsr	r5, r10, #11
 2459 0030 4FEAD827 		lsr	r7, r8, #11
 2460 0034 0024     		movs	r4, #0
 2461 0036 14E0     		b	.L264
 2462              	.L270:
 2463 0038 4FF0000A 		mov	r10, #0
 2464 003c F4E7     		b	.L263
 2465              	.L277:
 2466 003e BC42     		cmp	r4, r7
 2467 0040 13D1     		bne	.L265
 2468 0042 A8EB0A01 		sub	r1, r8, r10
 2469 0046 4846     		mov	r0, r9
 2470 0048 FFF7FEFF 		bl	VL53L1_hist_xtalk_shape_model_interp
 2471 004c 04E0     		b	.L266
 2472              	.L267:
 2473 004e AC42     		cmp	r4, r5
 2474 0050 11D0     		beq	.L274
 2475 0052 BC42     		cmp	r4, r7
 2476 0054 16D0     		beq	.L275
 2477 0056 0020     		movs	r0, #0
 2478              	.L266:
 2479 0058 A21C     		adds	r2, r4, #2
 2480 005a 06EB8202 		add	r2, r6, r2, lsl #2
 2481 005e 5060     		str	r0, [r2, #4]
 2482 0060 0134     		adds	r4, r4, #1
 2483              	.L264:
 2484 0062 0B2C     		cmp	r4, #11
 2485 0064 14D8     		bhi	.L276
 2486 0066 AC42     		cmp	r4, r5
 2487 0068 E9D0     		beq	.L277
 2488              	.L265:
 2489 006a AC42     		cmp	r4, r5
 2490 006c EFD9     		bls	.L267
 2491 006e BC42     		cmp	r4, r7
 2492 0070 EDD2     		bcs	.L267
 2493 0072 4846     		mov	r0, r9
 2494 0074 F0E7     		b	.L266
 2495              	.L274:
 2496 0076 611C     		adds	r1, r4, #1
 2497 0078 CAEBC121 		rsb	r1, r10, r1, lsl #11
 2498 007c 4846     		mov	r0, r9
 2499 007e FFF7FEFF 		bl	VL53L1_hist_xtalk_shape_model_interp
 2500 0082 E9E7     		b	.L266
 2501              	.L275:
ARM GAS  C:\Temp\ccb7OYN5.s 			page 43


 2502 0084 A8EBC421 		sub	r1, r8, r4, lsl #11
 2503 0088 4846     		mov	r0, r9
 2504 008a FFF7FEFF 		bl	VL53L1_hist_xtalk_shape_model_interp
 2505 008e E3E7     		b	.L266
 2506              	.L276:
 2507 0090 0020     		movs	r0, #0
 2508 0092 BDE8F087 		pop	{r4, r5, r6, r7, r8, r9, r10, pc}
 2510              		.section	.text.VL53L1_spad_number_to_byte_bit_index,"ax",%progbits
 2511              		.align	1
 2512              		.global	VL53L1_spad_number_to_byte_bit_index
 2513              		.syntax unified
 2514              		.thumb
 2515              		.thumb_func
 2517              	VL53L1_spad_number_to_byte_bit_index:
 2518              		@ args = 0, pretend = 0, frame = 0
 2519              		@ frame_needed = 0, uses_anonymous_args = 0
 2520              		@ link register save eliminated.
 2521 0000 4FEAD00C 		lsr	ip, r0, #3
 2522 0004 81F800C0 		strb	ip, [r1]
 2523 0008 00F00700 		and	r0, r0, #7
 2524 000c 1070     		strb	r0, [r2]
 2525 000e 0122     		movs	r2, #1
 2526 0010 8240     		lsls	r2, r2, r0
 2527 0012 1A70     		strb	r2, [r3]
 2528 0014 7047     		bx	lr
 2530              		.section	.text.VL53L1_encode_row_col,"ax",%progbits
 2531              		.align	1
 2532              		.global	VL53L1_encode_row_col
 2533              		.syntax unified
 2534              		.thumb
 2535              		.thumb_func
 2537              	VL53L1_encode_row_col:
 2538              		@ args = 0, pretend = 0, frame = 0
 2539              		@ frame_needed = 0, uses_anonymous_args = 0
 2540              		@ link register save eliminated.
 2541 0000 0728     		cmp	r0, #7
 2542 0002 05D9     		bls	.L280
 2543 0004 C900     		lsls	r1, r1, #3
 2544 0006 C9B2     		uxtb	r1, r1
 2545 0008 091A     		subs	r1, r1, r0
 2546 000a 7139     		subs	r1, r1, #113
 2547 000c 1170     		strb	r1, [r2]
 2548 000e 7047     		bx	lr
 2549              	.L280:
 2550 0010 C1F10F01 		rsb	r1, r1, #15
 2551 0014 C9B2     		uxtb	r1, r1
 2552 0016 C900     		lsls	r1, r1, #3
 2553 0018 C9B2     		uxtb	r1, r1
 2554 001a 0844     		add	r0, r0, r1
 2555 001c 1070     		strb	r0, [r2]
 2556 001e 7047     		bx	lr
 2558              		.section	.text.VL53L1_decode_zone_size,"ax",%progbits
 2559              		.align	1
 2560              		.global	VL53L1_decode_zone_size
 2561              		.syntax unified
 2562              		.thumb
 2563              		.thumb_func
ARM GAS  C:\Temp\ccb7OYN5.s 			page 44


 2565              	VL53L1_decode_zone_size:
 2566              		@ args = 0, pretend = 0, frame = 0
 2567              		@ frame_needed = 0, uses_anonymous_args = 0
 2568              		@ link register save eliminated.
 2569 0000 0309     		lsrs	r3, r0, #4
 2570 0002 1370     		strb	r3, [r2]
 2571 0004 00F00F00 		and	r0, r0, #15
 2572 0008 0870     		strb	r0, [r1]
 2573 000a 7047     		bx	lr
 2575              		.section	.text.VL53L1_encode_zone_size,"ax",%progbits
 2576              		.align	1
 2577              		.global	VL53L1_encode_zone_size
 2578              		.syntax unified
 2579              		.thumb
 2580              		.thumb_func
 2582              	VL53L1_encode_zone_size:
 2583              		@ args = 0, pretend = 0, frame = 0
 2584              		@ frame_needed = 0, uses_anonymous_args = 0
 2585              		@ link register save eliminated.
 2586 0000 0901     		lsls	r1, r1, #4
 2587 0002 C9B2     		uxtb	r1, r1
 2588 0004 0144     		add	r1, r1, r0
 2589 0006 1170     		strb	r1, [r2]
 2590 0008 7047     		bx	lr
 2592              		.section	.text.VL53L1_decode_zone_limits,"ax",%progbits
 2593              		.align	1
 2594              		.global	VL53L1_decode_zone_limits
 2595              		.syntax unified
 2596              		.thumb
 2597              		.thumb_func
 2599              	VL53L1_decode_zone_limits:
 2600              		@ args = 8, pretend = 0, frame = 8
 2601              		@ frame_needed = 0, uses_anonymous_args = 0
 2602 0000 2DE9F041 		push	{r4, r5, r6, r7, r8, lr}
 2603 0004 82B0     		sub	sp, sp, #8
 2604 0006 8846     		mov	r8, r1
 2605 0008 1646     		mov	r6, r2
 2606 000a 1C46     		mov	r4, r3
 2607 000c 089F     		ldr	r7, [sp, #32]
 2608 000e 099D     		ldr	r5, [sp, #36]
 2609 0010 0023     		movs	r3, #0
 2610 0012 8DF80730 		strb	r3, [sp, #7]
 2611 0016 8DF80630 		strb	r3, [sp, #6]
 2612 001a 8DF80530 		strb	r3, [sp, #5]
 2613 001e 8DF80430 		strb	r3, [sp, #4]
 2614 0022 0DF10702 		add	r2, sp, #7
 2615 0026 0DF10601 		add	r1, sp, #6
 2616 002a FFF7FEFF 		bl	VL53L1_decode_row_col
 2617 002e 01AA     		add	r2, sp, #4
 2618 0030 0DF10501 		add	r1, sp, #5
 2619 0034 4046     		mov	r0, r8
 2620 0036 FFF7FEFF 		bl	VL53L1_decode_zone_size
 2621 003a 9DF80510 		ldrb	r1, [sp, #5]	@ zero_extendqisi2
 2622 003e 4A1C     		adds	r2, r1, #1
 2623 0040 9DF80730 		ldrb	r3, [sp, #7]	@ zero_extendqisi2
 2624 0044 A3EB6203 		sub	r3, r3, r2, asr #1
 2625 0048 3380     		strh	r3, [r6]	@ movhi
ARM GAS  C:\Temp\ccb7OYN5.s 			page 45


 2626 004a 002B     		cmp	r3, #0
 2627 004c 1CDB     		blt	.L290
 2628              	.L285:
 2629 004e 3388     		ldrh	r3, [r6]
 2630 0050 CA18     		adds	r2, r1, r3
 2631 0052 12B2     		sxth	r2, r2
 2632 0054 3A80     		strh	r2, [r7]	@ movhi
 2633 0056 0F2A     		cmp	r2, #15
 2634 0058 01DD     		ble	.L286
 2635 005a 0F23     		movs	r3, #15
 2636 005c 3B80     		strh	r3, [r7]	@ movhi
 2637              	.L286:
 2638 005e 9DF80420 		ldrb	r2, [sp, #4]	@ zero_extendqisi2
 2639 0062 511C     		adds	r1, r2, #1
 2640 0064 9DF80630 		ldrb	r3, [sp, #6]	@ zero_extendqisi2
 2641 0068 A3EB6103 		sub	r3, r3, r1, asr #1
 2642 006c 2380     		strh	r3, [r4]	@ movhi
 2643 006e 002B     		cmp	r3, #0
 2644 0070 0DDB     		blt	.L291
 2645              	.L287:
 2646 0072 2388     		ldrh	r3, [r4]
 2647 0074 1344     		add	r3, r3, r2
 2648 0076 1BB2     		sxth	r3, r3
 2649 0078 2B80     		strh	r3, [r5]	@ movhi
 2650 007a 0F2B     		cmp	r3, #15
 2651 007c 01DD     		ble	.L284
 2652 007e 0F23     		movs	r3, #15
 2653 0080 2B80     		strh	r3, [r5]	@ movhi
 2654              	.L284:
 2655 0082 02B0     		add	sp, sp, #8
 2656              		@ sp needed
 2657 0084 BDE8F081 		pop	{r4, r5, r6, r7, r8, pc}
 2658              	.L290:
 2659 0088 0023     		movs	r3, #0
 2660 008a 3380     		strh	r3, [r6]	@ movhi
 2661 008c DFE7     		b	.L285
 2662              	.L291:
 2663 008e 0023     		movs	r3, #0
 2664 0090 2380     		strh	r3, [r4]	@ movhi
 2665 0092 EEE7     		b	.L287
 2667              		.section	.text.VL53L1_is_aperture_location,"ax",%progbits
 2668              		.align	1
 2669              		.global	VL53L1_is_aperture_location
 2670              		.syntax unified
 2671              		.thumb
 2672              		.thumb_func
 2674              	VL53L1_is_aperture_location:
 2675              		@ args = 0, pretend = 0, frame = 0
 2676              		@ frame_needed = 0, uses_anonymous_args = 0
 2677              		@ link register save eliminated.
 2678 0000 01F00301 		and	r1, r1, #3
 2679 0004 10F00303 		ands	r3, r0, #3
 2680 0008 03D1     		bne	.L295
 2681 000a 0229     		cmp	r1, #2
 2682 000c 05D0     		beq	.L296
 2683 000e 1846     		mov	r0, r3
 2684 0010 00E0     		b	.L293
ARM GAS  C:\Temp\ccb7OYN5.s 			page 46


 2685              	.L295:
 2686 0012 0020     		movs	r0, #0
 2687              	.L293:
 2688 0014 022B     		cmp	r3, #2
 2689 0016 02D0     		beq	.L298
 2690              	.L294:
 2691 0018 7047     		bx	lr
 2692              	.L296:
 2693 001a 0120     		movs	r0, #1
 2694 001c FAE7     		b	.L293
 2695              	.L298:
 2696 001e 0029     		cmp	r1, #0
 2697 0020 FAD1     		bne	.L294
 2698 0022 0120     		movs	r0, #1
 2699 0024 F8E7     		b	.L294
 2701              		.section	.text.VL53L1_calc_max_effective_spads,"ax",%progbits
 2702              		.align	1
 2703              		.global	VL53L1_calc_max_effective_spads
 2704              		.syntax unified
 2705              		.thumb
 2706              		.thumb_func
 2708              	VL53L1_calc_max_effective_spads:
 2709              		@ args = 4, pretend = 0, frame = 16
 2710              		@ frame_needed = 0, uses_anonymous_args = 0
 2711 0000 2DE9F047 		push	{r4, r5, r6, r7, r8, r9, r10, lr}
 2712 0004 86B0     		sub	sp, sp, #24
 2713 0006 9046     		mov	r8, r2
 2714 0008 9A46     		mov	r10, r3
 2715 000a DDF83890 		ldr	r9, [sp, #56]
 2716 000e 0024     		movs	r4, #0
 2717 0010 ADF81640 		strh	r4, [sp, #22]	@ movhi
 2718 0014 ADF81440 		strh	r4, [sp, #20]	@ movhi
 2719 0018 ADF81240 		strh	r4, [sp, #18]	@ movhi
 2720 001c ADF81040 		strh	r4, [sp, #16]	@ movhi
 2721 0020 8DF80F40 		strb	r4, [sp, #15]
 2722 0024 8DF80E40 		strb	r4, [sp, #14]
 2723 0028 8DF80D40 		strb	r4, [sp, #13]
 2724 002c 8DF80C40 		strb	r4, [sp, #12]
 2725 0030 04AB     		add	r3, sp, #16
 2726 0032 0193     		str	r3, [sp, #4]
 2727 0034 0DF11203 		add	r3, sp, #18
 2728 0038 0093     		str	r3, [sp]
 2729 003a 05AB     		add	r3, sp, #20
 2730 003c 0DF11602 		add	r2, sp, #22
 2731 0040 FFF7FEFF 		bl	VL53L1_decode_zone_limits
 2732 0044 A9F80040 		strh	r4, [r9]	@ movhi
 2733 0048 BDF91470 		ldrsh	r7, [sp, #20]
 2734 004c 32E0     		b	.L300
 2735              	.L303:
 2736 004e B9F80030 		ldrh	r3, [r9]
 2737 0052 03F58073 		add	r3, r3, #256
 2738 0056 A9F80030 		strh	r3, [r9]	@ movhi
 2739              	.L302:
 2740 005a 0134     		adds	r4, r4, #1
 2741 005c 24B2     		sxth	r4, r4
 2742              	.L301:
 2743 005e BDF91210 		ldrsh	r1, [sp, #18]
ARM GAS  C:\Temp\ccb7OYN5.s 			page 47


 2744 0062 A142     		cmp	r1, r4
 2745 0064 24DB     		blt	.L307
 2746 0066 FDB2     		uxtb	r5, r7
 2747 0068 E6B2     		uxtb	r6, r4
 2748 006a 0DF10F02 		add	r2, sp, #15
 2749 006e 3146     		mov	r1, r6
 2750 0070 2846     		mov	r0, r5
 2751 0072 FFF7FEFF 		bl	VL53L1_encode_row_col
 2752 0076 03AB     		add	r3, sp, #12
 2753 0078 0DF10D02 		add	r2, sp, #13
 2754 007c 0DF10E01 		add	r1, sp, #14
 2755 0080 9DF80F00 		ldrb	r0, [sp, #15]	@ zero_extendqisi2
 2756 0084 FFF7FEFF 		bl	VL53L1_spad_number_to_byte_bit_index
 2757 0088 9DF80E30 		ldrb	r3, [sp, #14]	@ zero_extendqisi2
 2758 008c 18F80320 		ldrb	r2, [r8, r3]	@ zero_extendqisi2
 2759 0090 9DF80C30 		ldrb	r3, [sp, #12]	@ zero_extendqisi2
 2760 0094 1A42     		tst	r2, r3
 2761 0096 E0D0     		beq	.L302
 2762 0098 3146     		mov	r1, r6
 2763 009a 2846     		mov	r0, r5
 2764 009c FFF7FEFF 		bl	VL53L1_is_aperture_location
 2765 00a0 0028     		cmp	r0, #0
 2766 00a2 D4D0     		beq	.L303
 2767 00a4 B9F80030 		ldrh	r3, [r9]
 2768 00a8 5344     		add	r3, r3, r10
 2769 00aa A9F80030 		strh	r3, [r9]	@ movhi
 2770 00ae D4E7     		b	.L302
 2771              	.L307:
 2772 00b0 0137     		adds	r7, r7, #1
 2773 00b2 3FB2     		sxth	r7, r7
 2774              	.L300:
 2775 00b4 BDF91030 		ldrsh	r3, [sp, #16]
 2776 00b8 BB42     		cmp	r3, r7
 2777 00ba 02DB     		blt	.L308
 2778 00bc BDF91640 		ldrsh	r4, [sp, #22]
 2779 00c0 CDE7     		b	.L301
 2780              	.L308:
 2781 00c2 06B0     		add	sp, sp, #24
 2782              		@ sp needed
 2783 00c4 BDE8F087 		pop	{r4, r5, r6, r7, r8, r9, r10, pc}
 2785              		.section	.text.VL53L1_calc_mm_effective_spads,"ax",%progbits
 2786              		.align	1
 2787              		.global	VL53L1_calc_mm_effective_spads
 2788              		.syntax unified
 2789              		.thumb
 2790              		.thumb_func
 2792              	VL53L1_calc_mm_effective_spads:
 2793              		@ args = 16, pretend = 0, frame = 24
 2794              		@ frame_needed = 0, uses_anonymous_args = 0
 2795 0000 2DE9F04F 		push	{r4, r5, r6, r7, r8, r9, r10, fp, lr}
 2796 0004 89B0     		sub	sp, sp, #36
 2797 0006 1546     		mov	r5, r2
 2798 0008 1E46     		mov	r6, r3
 2799 000a DDF84880 		ldr	r8, [sp, #72]
 2800 000e BDF84CA0 		ldrh	r10, [sp, #76]
 2801 0012 DDF850B0 		ldr	fp, [sp, #80]
 2802 0016 DDF85490 		ldr	r9, [sp, #84]
ARM GAS  C:\Temp\ccb7OYN5.s 			page 48


 2803 001a 0024     		movs	r4, #0
 2804 001c ADF81E40 		strh	r4, [sp, #30]	@ movhi
 2805 0020 ADF81C40 		strh	r4, [sp, #28]	@ movhi
 2806 0024 ADF81A40 		strh	r4, [sp, #26]	@ movhi
 2807 0028 ADF81840 		strh	r4, [sp, #24]	@ movhi
 2808 002c ADF81640 		strh	r4, [sp, #22]	@ movhi
 2809 0030 ADF81440 		strh	r4, [sp, #20]	@ movhi
 2810 0034 ADF81240 		strh	r4, [sp, #18]	@ movhi
 2811 0038 ADF81040 		strh	r4, [sp, #16]	@ movhi
 2812 003c 8DF80F40 		strb	r4, [sp, #15]
 2813 0040 8DF80E40 		strb	r4, [sp, #14]
 2814 0044 8DF80D40 		strb	r4, [sp, #13]
 2815 0048 8DF80C40 		strb	r4, [sp, #12]
 2816 004c 06AB     		add	r3, sp, #24
 2817 004e 0193     		str	r3, [sp, #4]
 2818 0050 0DF11A03 		add	r3, sp, #26
 2819 0054 0093     		str	r3, [sp]
 2820 0056 07AB     		add	r3, sp, #28
 2821 0058 0DF11E02 		add	r2, sp, #30
 2822 005c FFF7FEFF 		bl	VL53L1_decode_zone_limits
 2823 0060 04AB     		add	r3, sp, #16
 2824 0062 0193     		str	r3, [sp, #4]
 2825 0064 0DF11203 		add	r3, sp, #18
 2826 0068 0093     		str	r3, [sp]
 2827 006a 05AB     		add	r3, sp, #20
 2828 006c 0DF11602 		add	r2, sp, #22
 2829 0070 3146     		mov	r1, r6
 2830 0072 2846     		mov	r0, r5
 2831 0074 FFF7FEFF 		bl	VL53L1_decode_zone_limits
 2832 0078 ABF80040 		strh	r4, [fp]	@ movhi
 2833 007c A9F80040 		strh	r4, [r9]	@ movhi
 2834 0080 BDF91470 		ldrsh	r7, [sp, #20]
 2835 0084 45E0     		b	.L310
 2836              	.L317:
 2837 0086 4FF48072 		mov	r2, #256
 2838 008a 2AE0     		b	.L313
 2839              	.L314:
 2840 008c B9F80030 		ldrh	r3, [r9]
 2841 0090 1344     		add	r3, r3, r2
 2842 0092 A9F80030 		strh	r3, [r9]	@ movhi
 2843              	.L312:
 2844 0096 0134     		adds	r4, r4, #1
 2845 0098 24B2     		sxth	r4, r4
 2846              	.L311:
 2847 009a BDF91230 		ldrsh	r3, [sp, #18]
 2848 009e A342     		cmp	r3, r4
 2849 00a0 35DB     		blt	.L319
 2850 00a2 FDB2     		uxtb	r5, r7
 2851 00a4 E6B2     		uxtb	r6, r4
 2852 00a6 0DF10F02 		add	r2, sp, #15
 2853 00aa 3146     		mov	r1, r6
 2854 00ac 2846     		mov	r0, r5
 2855 00ae FFF7FEFF 		bl	VL53L1_encode_row_col
 2856 00b2 03AB     		add	r3, sp, #12
 2857 00b4 0DF10D02 		add	r2, sp, #13
 2858 00b8 0DF10E01 		add	r1, sp, #14
 2859 00bc 9DF80F00 		ldrb	r0, [sp, #15]	@ zero_extendqisi2
ARM GAS  C:\Temp\ccb7OYN5.s 			page 49


 2860 00c0 FFF7FEFF 		bl	VL53L1_spad_number_to_byte_bit_index
 2861 00c4 9DF80E30 		ldrb	r3, [sp, #14]	@ zero_extendqisi2
 2862 00c8 18F80320 		ldrb	r2, [r8, r3]	@ zero_extendqisi2
 2863 00cc 9DF80C30 		ldrb	r3, [sp, #12]	@ zero_extendqisi2
 2864 00d0 1A42     		tst	r2, r3
 2865 00d2 E0D0     		beq	.L312
 2866 00d4 3146     		mov	r1, r6
 2867 00d6 2846     		mov	r0, r5
 2868 00d8 FFF7FEFF 		bl	VL53L1_is_aperture_location
 2869 00dc 0028     		cmp	r0, #0
 2870 00de D2D0     		beq	.L317
 2871 00e0 5246     		mov	r2, r10
 2872              	.L313:
 2873 00e2 BDF91E30 		ldrsh	r3, [sp, #30]
 2874 00e6 A342     		cmp	r3, r4
 2875 00e8 D0DC     		bgt	.L314
 2876 00ea BDF91A30 		ldrsh	r3, [sp, #26]
 2877 00ee A342     		cmp	r3, r4
 2878 00f0 CCDB     		blt	.L314
 2879 00f2 BDF91C30 		ldrsh	r3, [sp, #28]
 2880 00f6 BB42     		cmp	r3, r7
 2881 00f8 C8DC     		bgt	.L314
 2882 00fa BDF91830 		ldrsh	r3, [sp, #24]
 2883 00fe BB42     		cmp	r3, r7
 2884 0100 C4DB     		blt	.L314
 2885 0102 BBF80030 		ldrh	r3, [fp]
 2886 0106 1344     		add	r3, r3, r2
 2887 0108 ABF80030 		strh	r3, [fp]	@ movhi
 2888 010c C3E7     		b	.L312
 2889              	.L319:
 2890 010e 0137     		adds	r7, r7, #1
 2891 0110 3FB2     		sxth	r7, r7
 2892              	.L310:
 2893 0112 BDF91030 		ldrsh	r3, [sp, #16]
 2894 0116 BB42     		cmp	r3, r7
 2895 0118 02DB     		blt	.L320
 2896 011a BDF91640 		ldrsh	r4, [sp, #22]
 2897 011e BCE7     		b	.L311
 2898              	.L320:
 2899 0120 09B0     		add	sp, sp, #36
 2900              		@ sp needed
 2901 0122 BDE8F08F 		pop	{r4, r5, r6, r7, r8, r9, r10, fp, pc}
 2903              		.section	.text.VL53L1_hist_combine_mm1_mm2_offsets,"ax",%progbits
 2904              		.align	1
 2905              		.global	VL53L1_hist_combine_mm1_mm2_offsets
 2906              		.syntax unified
 2907              		.thumb
 2908              		.thumb_func
 2910              	VL53L1_hist_combine_mm1_mm2_offsets:
 2911              		@ args = 24, pretend = 0, frame = 8
 2912              		@ frame_needed = 0, uses_anonymous_args = 0
 2913 0000 2DE9F043 		push	{r4, r5, r6, r7, r8, r9, lr}
 2914 0004 87B0     		sub	sp, sp, #28
 2915 0006 8046     		mov	r8, r0
 2916 0008 0C46     		mov	r4, r1
 2917 000a 1546     		mov	r5, r2
 2918 000c 1F46     		mov	r7, r3
ARM GAS  C:\Temp\ccb7OYN5.s 			page 50


 2919 000e 119E     		ldr	r6, [sp, #68]
 2920 0010 BDF84890 		ldrh	r9, [sp, #72]
 2921 0014 4FF0000C 		mov	ip, #0
 2922 0018 ADF816C0 		strh	ip, [sp, #22]	@ movhi
 2923 001c ADF814C0 		strh	ip, [sp, #20]	@ movhi
 2924 0020 ADF812C0 		strh	ip, [sp, #18]	@ movhi
 2925 0024 ADF810C0 		strh	ip, [sp, #16]	@ movhi
 2926 0028 05AB     		add	r3, sp, #20
 2927 002a 0393     		str	r3, [sp, #12]
 2928 002c 0DF11603 		add	r3, sp, #22
 2929 0030 0293     		str	r3, [sp, #8]
 2930 0032 CDF80490 		str	r9, [sp, #4]
 2931 0036 0096     		str	r6, [sp]
 2932 0038 FF23     		movs	r3, #255
 2933 003a C722     		movs	r2, #199
 2934 003c 3946     		mov	r1, r7
 2935 003e 2846     		mov	r0, r5
 2936 0040 FFF7FEFF 		bl	VL53L1_calc_mm_effective_spads
 2937 0044 BDF81630 		ldrh	r3, [sp, #22]
 2938 0048 93B3     		cbz	r3, .L323
 2939 004a BDF81430 		ldrh	r3, [sp, #20]
 2940 004e 0BB9     		cbnz	r3, .L326
 2941 0050 0020     		movs	r0, #0
 2942 0052 2EE0     		b	.L322
 2943              	.L326:
 2944 0054 04AB     		add	r3, sp, #16
 2945 0056 0393     		str	r3, [sp, #12]
 2946 0058 0DF11203 		add	r3, sp, #18
 2947 005c 0293     		str	r3, [sp, #8]
 2948 005e CDF80490 		str	r9, [sp, #4]
 2949 0062 0096     		str	r6, [sp]
 2950 0064 9DF83C30 		ldrb	r3, [sp, #60]	@ zero_extendqisi2
 2951 0068 9DF83820 		ldrb	r2, [sp, #56]	@ zero_extendqisi2
 2952 006c 3946     		mov	r1, r7
 2953 006e 2846     		mov	r0, r5
 2954 0070 FFF7FEFF 		bl	VL53L1_calc_mm_effective_spads
 2955 0074 109B     		ldr	r3, [sp, #64]
 2956 0076 9A88     		ldrh	r2, [r3, #4]
 2957 0078 BDF81230 		ldrh	r3, [sp, #18]
 2958 007c 02FB03F3 		mul	r3, r2, r3
 2959 0080 BDF81620 		ldrh	r2, [sp, #22]
 2960 0084 B3FBF2F3 		udiv	r3, r3, r2
 2961 0088 109A     		ldr	r2, [sp, #64]
 2962 008a D188     		ldrh	r1, [r2, #6]
 2963 008c BDF81020 		ldrh	r2, [sp, #16]
 2964 0090 01FB02F2 		mul	r2, r1, r2
 2965 0094 BDF81410 		ldrh	r1, [sp, #20]
 2966 0098 B2FBF1F2 		udiv	r2, r2, r1
 2967 009c 02FB04F4 		mul	r4, r2, r4
 2968 00a0 03FB0840 		mla	r0, r3, r8, r4
 2969 00a4 9B18     		adds	r3, r3, r2
 2970 00a6 04D0     		beq	.L322
 2971 00a8 8000     		lsls	r0, r0, #2
 2972 00aa 90FBF3F0 		sdiv	r0, r0, r3
 2973 00ae 00E0     		b	.L322
 2974              	.L323:
 2975 00b0 0020     		movs	r0, #0
ARM GAS  C:\Temp\ccb7OYN5.s 			page 51


 2976              	.L322:
 2977 00b2 139B     		ldr	r3, [sp, #76]
 2978 00b4 1880     		strh	r0, [r3]	@ movhi
 2979 00b6 07B0     		add	sp, sp, #28
 2980              		@ sp needed
 2981 00b8 BDE8F083 		pop	{r4, r5, r6, r7, r8, r9, pc}
 2983              		.section	.text.VL53L1_hist_copy_results_to_sys_and_core,"ax",%progbits
 2984              		.align	1
 2985              		.global	VL53L1_hist_copy_results_to_sys_and_core
 2986              		.syntax unified
 2987              		.thumb
 2988              		.thumb_func
 2990              	VL53L1_hist_copy_results_to_sys_and_core:
 2991              		@ args = 0, pretend = 0, frame = 0
 2992              		@ frame_needed = 0, uses_anonymous_args = 0
 2993 0000 F8B5     		push	{r3, r4, r5, r6, r7, lr}
 2994 0002 0446     		mov	r4, r0
 2995 0004 0F46     		mov	r7, r1
 2996 0006 1546     		mov	r5, r2
 2997 0008 1E46     		mov	r6, r3
 2998 000a 1046     		mov	r0, r2
 2999 000c FFF7FEFF 		bl	VL53L1_init_system_results
 3000 0010 94F87830 		ldrb	r3, [r4, #120]	@ zero_extendqisi2
 3001 0014 2B70     		strb	r3, [r5]
 3002 0016 BB7C     		ldrb	r3, [r7, #18]	@ zero_extendqisi2
 3003 0018 6B70     		strb	r3, [r5, #1]
 3004 001a 94F87A30 		ldrb	r3, [r4, #122]	@ zero_extendqisi2
 3005 001e AB70     		strb	r3, [r5, #2]
 3006 0020 94F87B30 		ldrb	r3, [r4, #123]	@ zero_extendqisi2
 3007 0024 EB70     		strb	r3, [r5, #3]
 3008 0026 07F11400 		add	r0, r7, #20
 3009 002a 0024     		movs	r4, #0
 3010 002c 1CE0     		b	.L328
 3011              	.L329:
 3012 002e C38A     		ldrh	r3, [r0, #22]
 3013 0030 AB80     		strh	r3, [r5, #4]	@ movhi
 3014 0032 038E     		ldrh	r3, [r0, #48]
 3015 0034 EB80     		strh	r3, [r5, #6]	@ movhi
 3016 0036 438E     		ldrh	r3, [r0, #50]
 3017 0038 EB82     		strh	r3, [r5, #22]	@ movhi
 3018 003a 838E     		ldrh	r3, [r0, #52]
 3019 003c 2B81     		strh	r3, [r5, #8]	@ movhi
 3020 003e 838F     		ldrh	r3, [r0, #60]
 3021 0040 6B81     		strh	r3, [r5, #10]	@ movhi
 3022 0042 B0F84030 		ldrh	r3, [r0, #64]
 3023 0046 AB81     		strh	r3, [r5, #12]	@ movhi
 3024 0048 B0F94630 		ldrsh	r3, [r0, #70]
 3025 004c EB81     		strh	r3, [r5, #14]	@ movhi
 3026 004e 838A     		ldrh	r3, [r0, #20]
 3027 0050 2B84     		strh	r3, [r5, #32]	@ movhi
 3028 0052 836A     		ldr	r3, [r0, #40]
 3029 0054 7360     		str	r3, [r6, #4]
 3030 0056 C36A     		ldr	r3, [r0, #44]
 3031 0058 B360     		str	r3, [r6, #8]
 3032 005a 8369     		ldr	r3, [r0, #24]
 3033 005c F360     		str	r3, [r6, #12]
 3034 005e 436A     		ldr	r3, [r0, #36]
ARM GAS  C:\Temp\ccb7OYN5.s 			page 52


 3035 0060 3360     		str	r3, [r6]
 3036              	.L331:
 3037 0062 4C30     		adds	r0, r0, #76
 3038 0064 0134     		adds	r4, r4, #1
 3039 0066 E4B2     		uxtb	r4, r4
 3040              	.L328:
 3041 0068 97F812C0 		ldrb	ip, [r7, #18]	@ zero_extendqisi2
 3042 006c A445     		cmp	ip, r4
 3043 006e 1AD9     		bls	.L334
 3044 0070 002C     		cmp	r4, #0
 3045 0072 DCD0     		beq	.L329
 3046 0074 012C     		cmp	r4, #1
 3047 0076 F4D1     		bne	.L331
 3048 0078 C38A     		ldrh	r3, [r0, #22]
 3049 007a 2B83     		strh	r3, [r5, #24]	@ movhi
 3050 007c 038E     		ldrh	r3, [r0, #48]
 3051 007e 6B83     		strh	r3, [r5, #26]	@ movhi
 3052 0080 838E     		ldrh	r3, [r0, #52]
 3053 0082 AB83     		strh	r3, [r5, #28]	@ movhi
 3054 0084 838F     		ldrh	r3, [r0, #60]
 3055 0086 EB83     		strh	r3, [r5, #30]	@ movhi
 3056 0088 B0F84030 		ldrh	r3, [r0, #64]
 3057 008c 2B84     		strh	r3, [r5, #32]	@ movhi
 3058 008e B0F94630 		ldrsh	r3, [r0, #70]
 3059 0092 6B84     		strh	r3, [r5, #34]	@ movhi
 3060 0094 836A     		ldr	r3, [r0, #40]
 3061 0096 7361     		str	r3, [r6, #20]
 3062 0098 C36A     		ldr	r3, [r0, #44]
 3063 009a B361     		str	r3, [r6, #24]
 3064 009c 8369     		ldr	r3, [r0, #24]
 3065 009e F361     		str	r3, [r6, #28]
 3066 00a0 436A     		ldr	r3, [r0, #36]
 3067 00a2 3361     		str	r3, [r6, #16]
 3068 00a4 DDE7     		b	.L331
 3069              	.L334:
 3070 00a6 F8BD     		pop	{r3, r4, r5, r6, r7, pc}
 3072              		.section	.text.VL53L1_sum_histogram_data,"ax",%progbits
 3073              		.align	1
 3074              		.global	VL53L1_sum_histogram_data
 3075              		.syntax unified
 3076              		.thumb
 3077              		.thumb_func
 3079              	VL53L1_sum_histogram_data:
 3080              		@ args = 0, pretend = 0, frame = 0
 3081              		@ frame_needed = 0, uses_anonymous_args = 0
 3082              		@ link register save eliminated.
 3083 0000 30B4     		push	{r4, r5}
 3084 0002 91F80AC0 		ldrb	ip, [r1, #10]	@ zero_extendqisi2
 3085 0006 837A     		ldrb	r3, [r0, #10]	@ zero_extendqisi2
 3086 0008 9C45     		cmp	ip, r3
 3087 000a 00D3     		bcc	.L336
 3088 000c 9C46     		mov	ip, r3
 3089              	.L336:
 3090 000e 0023     		movs	r3, #0
 3091 0010 09E0     		b	.L337
 3092              	.L338:
 3093 0012 9A1D     		adds	r2, r3, #6
ARM GAS  C:\Temp\ccb7OYN5.s 			page 53


 3094 0014 50F82240 		ldr	r4, [r0, r2, lsl #2]
 3095 0018 51F82250 		ldr	r5, [r1, r2, lsl #2]
 3096 001c 2C44     		add	r4, r4, r5
 3097 001e 41F82240 		str	r4, [r1, r2, lsl #2]
 3098 0022 0133     		adds	r3, r3, #1
 3099 0024 DBB2     		uxtb	r3, r3
 3100              	.L337:
 3101 0026 6345     		cmp	r3, ip
 3102 0028 F3D3     		bcc	.L338
 3103 002a D1F8A430 		ldr	r3, [r1, #164]
 3104 002e D0F8A420 		ldr	r2, [r0, #164]
 3105 0032 1344     		add	r3, r3, r2
 3106 0034 C1F8A430 		str	r3, [r1, #164]
 3107 0038 0020     		movs	r0, #0
 3108 003a 30BC     		pop	{r4, r5}
 3109 003c 7047     		bx	lr
 3111              		.section	.text.VL53L1_avg_histogram_data,"ax",%progbits
 3112              		.align	1
 3113              		.global	VL53L1_avg_histogram_data
 3114              		.syntax unified
 3115              		.thumb
 3116              		.thumb_func
 3118              	VL53L1_avg_histogram_data:
 3119              		@ args = 0, pretend = 0, frame = 0
 3120              		@ frame_needed = 0, uses_anonymous_args = 0
 3121              		@ link register save eliminated.
 3122 0000 0023     		movs	r3, #0
 3123 0002 91F80AC0 		ldrb	ip, [r1, #10]	@ zero_extendqisi2
 3124 0006 9C45     		cmp	ip, r3
 3125 0008 26D9     		bls	.L354
 3126 000a 30B4     		push	{r4, r5}
 3127 000c 0AE0     		b	.L344
 3128              	.L342:
 3129 000e 9C1D     		adds	r4, r3, #6
 3130 0010 51F82450 		ldr	r5, [r1, r4, lsl #2]
 3131 0014 42F82450 		str	r5, [r2, r4, lsl #2]
 3132              	.L343:
 3133 0018 0133     		adds	r3, r3, #1
 3134 001a DBB2     		uxtb	r3, r3
 3135 001c 91F80AC0 		ldrb	ip, [r1, #10]	@ zero_extendqisi2
 3136 0020 9C45     		cmp	ip, r3
 3137 0022 0AD9     		bls	.L355
 3138              	.L344:
 3139 0024 0028     		cmp	r0, #0
 3140 0026 F2D0     		beq	.L342
 3141 0028 03F1060C 		add	ip, r3, #6
 3142 002c 51F82C40 		ldr	r4, [r1, ip, lsl #2]
 3143 0030 94FBF0F4 		sdiv	r4, r4, r0
 3144 0034 42F82C40 		str	r4, [r2, ip, lsl #2]
 3145 0038 EEE7     		b	.L343
 3146              	.L355:
 3147 003a 40B1     		cbz	r0, .L345
 3148 003c D1F8A430 		ldr	r3, [r1, #164]
 3149 0040 93FBF0F3 		sdiv	r3, r3, r0
 3150 0044 C2F8A430 		str	r3, [r2, #164]
 3151              	.L346:
 3152 0048 0020     		movs	r0, #0
ARM GAS  C:\Temp\ccb7OYN5.s 			page 54


 3153 004a 30BC     		pop	{r4, r5}
 3154 004c 7047     		bx	lr
 3155              	.L345:
 3156 004e D1F8A430 		ldr	r3, [r1, #164]
 3157 0052 C2F8A430 		str	r3, [r2, #164]
 3158 0056 F7E7     		b	.L346
 3159              	.L354:
 3160 0058 38B1     		cbz	r0, .L351
 3161 005a D1F8A430 		ldr	r3, [r1, #164]
 3162 005e 93FBF0F3 		sdiv	r3, r3, r0
 3163 0062 C2F8A430 		str	r3, [r2, #164]
 3164              	.L352:
 3165 0066 0020     		movs	r0, #0
 3166 0068 7047     		bx	lr
 3167              	.L351:
 3168 006a D1F8A430 		ldr	r3, [r1, #164]
 3169 006e C2F8A430 		str	r3, [r2, #164]
 3170 0072 F8E7     		b	.L352
 3172              		.section	.text.VL53L1_save_cfg_data,"ax",%progbits
 3173              		.align	1
 3174              		.global	VL53L1_save_cfg_data
 3175              		.syntax unified
 3176              		.thumb
 3177              		.thumb_func
 3179              	VL53L1_save_cfg_data:
 3180              		@ args = 0, pretend = 0, frame = 0
 3181              		@ frame_needed = 0, uses_anonymous_args = 0
 3182              		@ link register save eliminated.
 3183 0000 90F84A30 		ldrb	r3, [r0, #74]	@ zero_extendqisi2
 3184 0004 90F845C0 		ldrb	ip, [r0, #69]	@ zero_extendqisi2
 3185 0008 00F5C041 		add	r1, r0, #24576
 3186 000c 03EB8302 		add	r2, r3, r3, lsl #2
 3187 0010 01EB4202 		add	r2, r1, r2, lsl #1
 3188 0014 82F892C7 		strb	ip, [r2, #1938]
 3189 0018 90F848C0 		ldrb	ip, [r0, #72]	@ zero_extendqisi2
 3190 001c 82F893C7 		strb	ip, [r2, #1939]
 3191 0020 90F8BBC3 		ldrb	ip, [r0, #955]	@ zero_extendqisi2
 3192 0024 82F89AC7 		strb	ip, [r2, #1946]
 3193 0028 90F8BC23 		ldrb	r2, [r0, #956]	@ zero_extendqisi2
 3194 002c 03EB8303 		add	r3, r3, r3, lsl #2
 3195 0030 01EB4301 		add	r1, r1, r3, lsl #1
 3196 0034 81F89B27 		strb	r2, [r1, #1947]
 3197 0038 0020     		movs	r0, #0
 3198 003a 7047     		bx	lr
 3200              		.section	.text.VL53L1_dynamic_zone_update,"ax",%progbits
 3201              		.align	1
 3202              		.global	VL53L1_dynamic_zone_update
 3203              		.syntax unified
 3204              		.thumb
 3205              		.thumb_func
 3207              	VL53L1_dynamic_zone_update:
 3208              		@ args = 0, pretend = 0, frame = 0
 3209              		@ frame_needed = 0, uses_anonymous_args = 0
 3210 0000 70B5     		push	{r4, r5, r6, lr}
 3211 0002 90F851C0 		ldrb	ip, [r0, #81]	@ zero_extendqisi2
 3212 0006 B0F85EE3 		ldrh	lr, [r0, #862]
 3213 000a B0F83452 		ldrh	r5, [r0, #564]
ARM GAS  C:\Temp\ccb7OYN5.s 			page 55


 3214 000e B0F83662 		ldrh	r6, [r0, #566]
 3215 0012 00F5C043 		add	r3, r0, #24576
 3216 0016 0CEB8C02 		add	r2, ip, ip, lsl #2
 3217 001a 03EB4203 		add	r3, r3, r2, lsl #1
 3218 001e 0022     		movs	r2, #0
 3219 0020 A3F89627 		strh	r2, [r3, #1942]	@ movhi
 3220 0024 B1F84A40 		ldrh	r4, [r1, #74]
 3221 0028 0123     		movs	r3, #1
 3222 002a 01E0     		b	.L358
 3223              	.L359:
 3224 002c 0133     		adds	r3, r3, #1
 3225 002e DBB2     		uxtb	r3, r3
 3226              	.L358:
 3227 0030 8A7C     		ldrb	r2, [r1, #18]	@ zero_extendqisi2
 3228 0032 9A42     		cmp	r2, r3
 3229 0034 08D9     		bls	.L368
 3230 0036 4C22     		movs	r2, #76
 3231 0038 02FB0312 		mla	r2, r2, r3, r1
 3232 003c B2F84A20 		ldrh	r2, [r2, #74]
 3233 0040 A242     		cmp	r2, r4
 3234 0042 F3D9     		bls	.L359
 3235 0044 1446     		mov	r4, r2
 3236 0046 F1E7     		b	.L359
 3237              	.L368:
 3238 0048 12B9     		cbnz	r2, .L361
 3239 004a AC42     		cmp	r4, r5
 3240 004c 00D9     		bls	.L361
 3241 004e 3446     		mov	r4, r6
 3242              	.L361:
 3243 0050 4CB1     		cbz	r4, .L365
 3244 0052 4FEA8E33 		lsl	r3, lr, #14
 3245 0056 B3FBF4F3 		udiv	r3, r3, r4
 3246 005a B3F5803F 		cmp	r3, #65536
 3247 005e 04D3     		bcc	.L362
 3248 0060 4FF6FF73 		movw	r3, #65535
 3249 0064 01E0     		b	.L362
 3250              	.L365:
 3251 0066 4FF6FF73 		movw	r3, #65535
 3252              	.L362:
 3253 006a 00F5C040 		add	r0, r0, #24576
 3254 006e 0CEB8C0C 		add	ip, ip, ip, lsl #2
 3255 0072 00EB4C00 		add	r0, r0, ip, lsl #1
 3256 0076 A0F89637 		strh	r3, [r0, #1942]	@ movhi
 3257 007a 0020     		movs	r0, #0
 3258 007c 70BD     		pop	{r4, r5, r6, pc}
 3260              		.section	.text.VL53L1_multizone_hist_bins_update,"ax",%progbits
 3261              		.align	1
 3262              		.global	VL53L1_multizone_hist_bins_update
 3263              		.syntax unified
 3264              		.thumb
 3265              		.thumb_func
 3267              	VL53L1_multizone_hist_bins_update:
 3268              		@ args = 0, pretend = 0, frame = 0
 3269              		@ frame_needed = 0, uses_anonymous_args = 0
 3270 0000 08B5     		push	{r3, lr}
 3271 0002 0146     		mov	r1, r0
 3272 0004 00F55170 		add	r0, r0, #836
ARM GAS  C:\Temp\ccb7OYN5.s 			page 56


 3273 0008 91F84530 		ldrb	r3, [r1, #69]	@ zero_extendqisi2
 3274 000c 03F00102 		and	r2, r3, #1
 3275 0010 91F84A30 		ldrb	r3, [r1, #74]	@ zero_extendqisi2
 3276 0014 0B44     		add	r3, r3, r1
 3277 0016 93F83631 		ldrb	r3, [r3, #310]	@ zero_extendqisi2
 3278 001a 012B     		cmp	r3, #1
 3279 001c 0BD0     		beq	.L377
 3280 001e 022B     		cmp	r3, #2
 3281 0020 24D0     		beq	.L378
 3282 0022 032B     		cmp	r3, #3
 3283 0024 3DD0     		beq	.L379
 3284              	.L372:
 3285 0026 01F56572 		add	r2, r1, #916
 3286 002a 01F25E31 		addw	r1, r1, #862
 3287 002e FFF7FEFF 		bl	VL53L1_copy_hist_bins_to_static_cfg
 3288 0032 0020     		movs	r0, #0
 3289 0034 08BD     		pop	{r3, pc}
 3290              	.L377:
 3291 0036 62B1     		cbz	r2, .L371
 3292 0038 91F8DD30 		ldrb	r3, [r1, #221]	@ zero_extendqisi2
 3293 003c 81F84833 		strb	r3, [r1, #840]
 3294 0040 91F8DE30 		ldrb	r3, [r1, #222]	@ zero_extendqisi2
 3295 0044 81F84933 		strb	r3, [r1, #841]
 3296 0048 91F8DF30 		ldrb	r3, [r1, #223]	@ zero_extendqisi2
 3297 004c 81F84A33 		strb	r3, [r1, #842]
 3298 0050 E9E7     		b	.L372
 3299              	.L371:
 3300 0052 91F8DD30 		ldrb	r3, [r1, #221]	@ zero_extendqisi2
 3301 0056 81F84533 		strb	r3, [r1, #837]
 3302 005a 91F8DE30 		ldrb	r3, [r1, #222]	@ zero_extendqisi2
 3303 005e 81F84633 		strb	r3, [r1, #838]
 3304 0062 91F8DF30 		ldrb	r3, [r1, #223]	@ zero_extendqisi2
 3305 0066 81F84733 		strb	r3, [r1, #839]
 3306 006a DCE7     		b	.L372
 3307              	.L378:
 3308 006c 62B1     		cbz	r2, .L374
 3309 006e 91F8E330 		ldrb	r3, [r1, #227]	@ zero_extendqisi2
 3310 0072 81F84833 		strb	r3, [r1, #840]
 3311 0076 91F8E430 		ldrb	r3, [r1, #228]	@ zero_extendqisi2
 3312 007a 81F84933 		strb	r3, [r1, #841]
 3313 007e 91F8E530 		ldrb	r3, [r1, #229]	@ zero_extendqisi2
 3314 0082 81F84A33 		strb	r3, [r1, #842]
 3315 0086 CEE7     		b	.L372
 3316              	.L374:
 3317 0088 91F8E330 		ldrb	r3, [r1, #227]	@ zero_extendqisi2
 3318 008c 81F84533 		strb	r3, [r1, #837]
 3319 0090 91F8E430 		ldrb	r3, [r1, #228]	@ zero_extendqisi2
 3320 0094 81F84633 		strb	r3, [r1, #838]
 3321 0098 91F8E530 		ldrb	r3, [r1, #229]	@ zero_extendqisi2
 3322 009c 81F84733 		strb	r3, [r1, #839]
 3323 00a0 C1E7     		b	.L372
 3324              	.L379:
 3325 00a2 62B1     		cbz	r2, .L375
 3326 00a4 91F8EB30 		ldrb	r3, [r1, #235]	@ zero_extendqisi2
 3327 00a8 81F84833 		strb	r3, [r1, #840]
 3328 00ac 91F8EC30 		ldrb	r3, [r1, #236]	@ zero_extendqisi2
 3329 00b0 81F84933 		strb	r3, [r1, #841]
ARM GAS  C:\Temp\ccb7OYN5.s 			page 57


 3330 00b4 91F8ED30 		ldrb	r3, [r1, #237]	@ zero_extendqisi2
 3331 00b8 81F84A33 		strb	r3, [r1, #842]
 3332 00bc B3E7     		b	.L372
 3333              	.L375:
 3334 00be 91F8EB30 		ldrb	r3, [r1, #235]	@ zero_extendqisi2
 3335 00c2 81F84533 		strb	r3, [r1, #837]
 3336 00c6 91F8EC30 		ldrb	r3, [r1, #236]	@ zero_extendqisi2
 3337 00ca 81F84633 		strb	r3, [r1, #838]
 3338 00ce 91F8ED30 		ldrb	r3, [r1, #237]	@ zero_extendqisi2
 3339 00d2 81F84733 		strb	r3, [r1, #839]
 3340 00d6 A6E7     		b	.L372
 3342              		.section	.text.VL53L1_update_internal_stream_counters,"ax",%progbits
 3343              		.align	1
 3344              		.global	VL53L1_update_internal_stream_counters
 3345              		.syntax unified
 3346              		.thumb
 3347              		.thumb_func
 3349              	VL53L1_update_internal_stream_counters:
 3350              		@ args = 0, pretend = 0, frame = 0
 3351              		@ frame_needed = 0, uses_anonymous_args = 0
 3352              		@ link register save eliminated.
 3353 0000 90F87F03 		ldrb	r0, [r0, #895]	@ zero_extendqisi2
 3354 0004 10B9     		cbnz	r0, .L381
 3355 0006 1170     		strb	r1, [r2]
 3356              	.L382:
 3357 0008 0020     		movs	r0, #0
 3358 000a 7047     		bx	lr
 3359              	.L381:
 3360 000c 1978     		ldrb	r1, [r3]	@ zero_extendqisi2
 3361 000e 0138     		subs	r0, r0, #1
 3362 0010 8142     		cmp	r1, r0
 3363 0012 02D0     		beq	.L386
 3364 0014 0131     		adds	r1, r1, #1
 3365 0016 1970     		strb	r1, [r3]
 3366 0018 F6E7     		b	.L382
 3367              	.L386:
 3368 001a 1178     		ldrb	r1, [r2]	@ zero_extendqisi2
 3369 001c FF29     		cmp	r1, #255
 3370 001e 04D0     		beq	.L387
 3371 0020 0131     		adds	r1, r1, #1
 3372 0022 1170     		strb	r1, [r2]
 3373              	.L385:
 3374 0024 0022     		movs	r2, #0
 3375 0026 1A70     		strb	r2, [r3]
 3376 0028 EEE7     		b	.L382
 3377              	.L387:
 3378 002a 8021     		movs	r1, #128
 3379 002c 1170     		strb	r1, [r2]
 3380 002e F9E7     		b	.L385
 3382              		.section	.text.VL53L1_update_ll_driver_rd_state,"ax",%progbits
 3383              		.align	1
 3384              		.global	VL53L1_update_ll_driver_rd_state
 3385              		.syntax unified
 3386              		.thumb
 3387              		.thumb_func
 3389              	VL53L1_update_ll_driver_rd_state:
 3390              		@ args = 0, pretend = 0, frame = 0
ARM GAS  C:\Temp\ccb7OYN5.s 			page 58


 3391              		@ frame_needed = 0, uses_anonymous_args = 0
 3392 0000 10B5     		push	{r4, lr}
 3393 0002 0446     		mov	r4, r0
 3394 0004 90F8C433 		ldrb	r3, [r0, #964]	@ zero_extendqisi2
 3395 0008 0F2B     		cmp	r3, #15
 3396 000a 11D8     		bhi	.L389
 3397 000c 0323     		movs	r3, #3
 3398 000e 80F84B30 		strb	r3, [r0, #75]
 3399 0012 0020     		movs	r0, #0
 3400 0014 84F84C00 		strb	r0, [r4, #76]
 3401 0018 84F84D00 		strb	r0, [r4, #77]
 3402 001c 84F84E00 		strb	r0, [r4, #78]
 3403 0020 0223     		movs	r3, #2
 3404 0022 84F84F30 		strb	r3, [r4, #79]
 3405 0026 84F85000 		strb	r0, [r4, #80]
 3406 002a 84F85100 		strb	r0, [r4, #81]
 3407              	.L390:
 3408 002e 10BD     		pop	{r4, pc}
 3409              	.L389:
 3410 0030 90F84C30 		ldrb	r3, [r0, #76]	@ zero_extendqisi2
 3411 0034 FF2B     		cmp	r3, #255
 3412 0036 1BD0     		beq	.L406
 3413 0038 0133     		adds	r3, r3, #1
 3414 003a 80F84C30 		strb	r3, [r0, #76]
 3415              	.L392:
 3416 003e 04F14E03 		add	r3, r4, #78
 3417 0042 04F14D02 		add	r2, r4, #77
 3418 0046 94F84C10 		ldrb	r1, [r4, #76]	@ zero_extendqisi2
 3419 004a 2046     		mov	r0, r4
 3420 004c FFF7FEFF 		bl	VL53L1_update_internal_stream_counters
 3421 0050 94F84F30 		ldrb	r3, [r4, #79]	@ zero_extendqisi2
 3422 0054 83F00203 		eor	r3, r3, #2
 3423 0058 84F84F30 		strb	r3, [r4, #79]
 3424 005c 94F84B30 		ldrb	r3, [r4, #75]	@ zero_extendqisi2
 3425 0060 033B     		subs	r3, r3, #3
 3426 0062 052B     		cmp	r3, #5
 3427 0064 64D8     		bhi	.L393
 3428 0066 DFE803F0 		tbb	[pc, r3]
 3429              	.L395:
 3430 006a 07       		.byte	(.L398-.L395)/2
 3431 006b 63       		.byte	(.L393-.L395)/2
 3432 006c 63       		.byte	(.L393-.L395)/2
 3433 006d 29       		.byte	(.L397-.L395)/2
 3434 006e 3D       		.byte	(.L396-.L395)/2
 3435 006f 4F       		.byte	(.L394-.L395)/2
 3436              		.p2align 1
 3437              	.L406:
 3438 0070 8023     		movs	r3, #128
 3439 0072 80F84C30 		strb	r3, [r0, #76]
 3440 0076 E2E7     		b	.L392
 3441              	.L398:
 3442 0078 94F8BE33 		ldrb	r3, [r4, #958]	@ zero_extendqisi2
 3443 007c 13F0020F 		tst	r3, #2
 3444 0080 0ED0     		beq	.L399
 3445 0082 0623     		movs	r3, #6
 3446 0084 84F84B30 		strb	r3, [r4, #75]
 3447              	.L400:
ARM GAS  C:\Temp\ccb7OYN5.s 			page 59


 3448 0088 0023     		movs	r3, #0
 3449 008a 84F84C30 		strb	r3, [r4, #76]
 3450 008e 84F84D30 		strb	r3, [r4, #77]
 3451 0092 84F84E30 		strb	r3, [r4, #78]
 3452 0096 84F85030 		strb	r3, [r4, #80]
 3453 009a 84F85130 		strb	r3, [r4, #81]
 3454 009e C6E7     		b	.L390
 3455              	.L399:
 3456 00a0 94F85120 		ldrb	r2, [r4, #81]	@ zero_extendqisi2
 3457 00a4 94F8DB30 		ldrb	r3, [r4, #219]	@ zero_extendqisi2
 3458 00a8 9A42     		cmp	r2, r3
 3459 00aa 03D3     		bcc	.L401
 3460 00ac 0823     		movs	r3, #8
 3461 00ae 84F84B30 		strb	r3, [r4, #75]
 3462 00b2 E9E7     		b	.L400
 3463              	.L401:
 3464 00b4 0723     		movs	r3, #7
 3465 00b6 84F84B30 		strb	r3, [r4, #75]
 3466 00ba E5E7     		b	.L400
 3467              	.L397:
 3468 00bc 0023     		movs	r3, #0
 3469 00be 84F84C30 		strb	r3, [r4, #76]
 3470 00c2 84F84D30 		strb	r3, [r4, #77]
 3471 00c6 84F84E30 		strb	r3, [r4, #78]
 3472 00ca 84F85130 		strb	r3, [r4, #81]
 3473 00ce 94F8DB30 		ldrb	r3, [r4, #219]	@ zero_extendqisi2
 3474 00d2 1BB9     		cbnz	r3, .L402
 3475 00d4 0823     		movs	r3, #8
 3476 00d6 84F84B30 		strb	r3, [r4, #75]
 3477 00da A8E7     		b	.L390
 3478              	.L402:
 3479 00dc 0723     		movs	r3, #7
 3480 00de 84F84B30 		strb	r3, [r4, #75]
 3481 00e2 A4E7     		b	.L390
 3482              	.L396:
 3483 00e4 94F85130 		ldrb	r3, [r4, #81]	@ zero_extendqisi2
 3484 00e8 0133     		adds	r3, r3, #1
 3485 00ea DBB2     		uxtb	r3, r3
 3486 00ec 84F85130 		strb	r3, [r4, #81]
 3487 00f0 94F8DB20 		ldrb	r2, [r4, #219]	@ zero_extendqisi2
 3488 00f4 9342     		cmp	r3, r2
 3489 00f6 03D3     		bcc	.L403
 3490 00f8 0823     		movs	r3, #8
 3491 00fa 84F84B30 		strb	r3, [r4, #75]
 3492 00fe 96E7     		b	.L390
 3493              	.L403:
 3494 0100 0723     		movs	r3, #7
 3495 0102 84F84B30 		strb	r3, [r4, #75]
 3496 0106 92E7     		b	.L390
 3497              	.L394:
 3498 0108 0023     		movs	r3, #0
 3499 010a 84F85130 		strb	r3, [r4, #81]
 3500 010e 94F85030 		ldrb	r3, [r4, #80]	@ zero_extendqisi2
 3501 0112 83F00103 		eor	r3, r3, #1
 3502 0116 84F85030 		strb	r3, [r4, #80]
 3503 011a 94F8DB30 		ldrb	r3, [r4, #219]	@ zero_extendqisi2
 3504 011e 1BB9     		cbnz	r3, .L404
ARM GAS  C:\Temp\ccb7OYN5.s 			page 60


 3505 0120 0823     		movs	r3, #8
 3506 0122 84F84B30 		strb	r3, [r4, #75]
 3507 0126 82E7     		b	.L390
 3508              	.L404:
 3509 0128 0723     		movs	r3, #7
 3510 012a 84F84B30 		strb	r3, [r4, #75]
 3511 012e 7EE7     		b	.L390
 3512              	.L393:
 3513 0130 0323     		movs	r3, #3
 3514 0132 84F84B30 		strb	r3, [r4, #75]
 3515 0136 0023     		movs	r3, #0
 3516 0138 84F84C30 		strb	r3, [r4, #76]
 3517 013c 84F84D30 		strb	r3, [r4, #77]
 3518 0140 84F84E30 		strb	r3, [r4, #78]
 3519 0144 0222     		movs	r2, #2
 3520 0146 84F84F20 		strb	r2, [r4, #79]
 3521 014a 84F85030 		strb	r3, [r4, #80]
 3522 014e 84F85130 		strb	r3, [r4, #81]
 3523 0152 6CE7     		b	.L390
 3525              		.section	.text.VL53L1_update_ll_driver_cfg_state,"ax",%progbits
 3526              		.align	1
 3527              		.global	VL53L1_update_ll_driver_cfg_state
 3528              		.syntax unified
 3529              		.thumb
 3530              		.thumb_func
 3532              	VL53L1_update_ll_driver_cfg_state:
 3533              		@ args = 0, pretend = 0, frame = 0
 3534              		@ frame_needed = 0, uses_anonymous_args = 0
 3535 0000 F8B5     		push	{r3, r4, r5, r6, r7, lr}
 3536 0002 0446     		mov	r4, r0
 3537 0004 90F8C433 		ldrb	r3, [r0, #964]	@ zero_extendqisi2
 3538 0008 0F2B     		cmp	r3, #15
 3539 000a 2CD8     		bhi	.L408
 3540 000c 0323     		movs	r3, #3
 3541 000e 80F84430 		strb	r3, [r0, #68]
 3542 0012 0020     		movs	r0, #0
 3543 0014 84F84500 		strb	r0, [r4, #69]
 3544 0018 84F84600 		strb	r0, [r4, #70]
 3545 001c 84F84700 		strb	r0, [r4, #71]
 3546 0020 0223     		movs	r3, #2
 3547 0022 84F84830 		strb	r3, [r4, #72]
 3548 0026 84F84900 		strb	r0, [r4, #73]
 3549 002a 84F84A00 		strb	r0, [r4, #74]
 3550 002e 0746     		mov	r7, r0
 3551 0030 0646     		mov	r6, r0
 3552 0032 0546     		mov	r5, r0
 3553              	.L409:
 3554 0034 94F8DB30 		ldrb	r3, [r4, #219]	@ zero_extendqisi2
 3555 0038 002B     		cmp	r3, #0
 3556 003a 40F0A180 		bne	.L418
 3557 003e 013F     		subs	r7, r7, #1
 3558 0040 04F5C042 		add	r2, r4, #24576
 3559 0044 05EB8503 		add	r3, r5, r5, lsl #2
 3560 0048 02EB4303 		add	r3, r2, r3, lsl #1
 3561 004c 83F89277 		strb	r7, [r3, #1938]
 3562 0050 94F85130 		ldrb	r3, [r4, #81]	@ zero_extendqisi2
 3563 0054 03EB8303 		add	r3, r3, r3, lsl #2
ARM GAS  C:\Temp\ccb7OYN5.s 			page 61


 3564 0058 02EB4302 		add	r2, r2, r3, lsl #1
 3565 005c 86F00206 		eor	r6, r6, #2
 3566 0060 82F89367 		strb	r6, [r2, #1939]
 3567              	.L419:
 3568 0064 F8BD     		pop	{r3, r4, r5, r6, r7, pc}
 3569              	.L408:
 3570 0066 90F84860 		ldrb	r6, [r0, #72]	@ zero_extendqisi2
 3571 006a 90F84A50 		ldrb	r5, [r0, #74]	@ zero_extendqisi2
 3572 006e 90F84570 		ldrb	r7, [r0, #69]	@ zero_extendqisi2
 3573 0072 FF2F     		cmp	r7, #255
 3574 0074 2BD0     		beq	.L421
 3575 0076 7B1C     		adds	r3, r7, #1
 3576 0078 80F84530 		strb	r3, [r0, #69]
 3577              	.L411:
 3578 007c 04F14703 		add	r3, r4, #71
 3579 0080 04F14602 		add	r2, r4, #70
 3580 0084 94F84510 		ldrb	r1, [r4, #69]	@ zero_extendqisi2
 3581 0088 2046     		mov	r0, r4
 3582 008a FFF7FEFF 		bl	VL53L1_update_internal_stream_counters
 3583 008e 94F84830 		ldrb	r3, [r4, #72]	@ zero_extendqisi2
 3584 0092 83F00203 		eor	r3, r3, #2
 3585 0096 84F84830 		strb	r3, [r4, #72]
 3586 009a 94F84430 		ldrb	r3, [r4, #68]	@ zero_extendqisi2
 3587 009e 042B     		cmp	r3, #4
 3588 00a0 3ED0     		beq	.L412
 3589 00a2 052B     		cmp	r3, #5
 3590 00a4 57D0     		beq	.L413
 3591 00a6 032B     		cmp	r3, #3
 3592 00a8 15D0     		beq	.L422
 3593 00aa 0323     		movs	r3, #3
 3594 00ac 84F84430 		strb	r3, [r4, #68]
 3595 00b0 0023     		movs	r3, #0
 3596 00b2 84F84530 		strb	r3, [r4, #69]
 3597 00b6 84F84630 		strb	r3, [r4, #70]
 3598 00ba 84F84730 		strb	r3, [r4, #71]
 3599 00be 0222     		movs	r2, #2
 3600 00c0 84F84820 		strb	r2, [r4, #72]
 3601 00c4 84F84930 		strb	r3, [r4, #73]
 3602 00c8 84F84A30 		strb	r3, [r4, #74]
 3603 00cc B2E7     		b	.L409
 3604              	.L421:
 3605 00ce 8023     		movs	r3, #128
 3606 00d0 80F84530 		strb	r3, [r0, #69]
 3607 00d4 D2E7     		b	.L411
 3608              	.L422:
 3609 00d6 0123     		movs	r3, #1
 3610 00d8 84F84A30 		strb	r3, [r4, #74]
 3611 00dc 94F8DB30 		ldrb	r3, [r4, #219]	@ zero_extendqisi2
 3612 00e0 3BB9     		cbnz	r3, .L415
 3613 00e2 84F84A30 		strb	r3, [r4, #74]
 3614 00e6 94F84930 		ldrb	r3, [r4, #73]	@ zero_extendqisi2
 3615 00ea 83F00103 		eor	r3, r3, #1
 3616 00ee 84F84930 		strb	r3, [r4, #73]
 3617              	.L415:
 3618 00f2 0123     		movs	r3, #1
 3619 00f4 84F84530 		strb	r3, [r4, #69]
 3620 00f8 94F87F33 		ldrb	r3, [r4, #895]	@ zero_extendqisi2
ARM GAS  C:\Temp\ccb7OYN5.s 			page 62


 3621 00fc 4BB9     		cbnz	r3, .L416
 3622 00fe 0123     		movs	r3, #1
 3623 0100 84F84630 		strb	r3, [r4, #70]
 3624 0104 0023     		movs	r3, #0
 3625 0106 84F84730 		strb	r3, [r4, #71]
 3626              	.L417:
 3627 010a 0423     		movs	r3, #4
 3628 010c 84F84430 		strb	r3, [r4, #68]
 3629 0110 90E7     		b	.L409
 3630              	.L416:
 3631 0112 0023     		movs	r3, #0
 3632 0114 84F84630 		strb	r3, [r4, #70]
 3633 0118 0123     		movs	r3, #1
 3634 011a 84F84730 		strb	r3, [r4, #71]
 3635 011e F4E7     		b	.L417
 3636              	.L412:
 3637 0120 94F84A30 		ldrb	r3, [r4, #74]	@ zero_extendqisi2
 3638 0124 0133     		adds	r3, r3, #1
 3639 0126 DBB2     		uxtb	r3, r3
 3640 0128 84F84A30 		strb	r3, [r4, #74]
 3641 012c 94F8DB20 		ldrb	r2, [r4, #219]	@ zero_extendqisi2
 3642 0130 9342     		cmp	r3, r2
 3643 0132 7FF67FAF 		bls	.L409
 3644 0136 0023     		movs	r3, #0
 3645 0138 84F84A30 		strb	r3, [r4, #74]
 3646 013c 94F84930 		ldrb	r3, [r4, #73]	@ zero_extendqisi2
 3647 0140 83F00103 		eor	r3, r3, #1
 3648 0144 84F84930 		strb	r3, [r4, #73]
 3649 0148 002A     		cmp	r2, #0
 3650 014a 3FF473AF 		beq	.L409
 3651 014e 0523     		movs	r3, #5
 3652 0150 84F84430 		strb	r3, [r4, #68]
 3653 0154 6EE7     		b	.L409
 3654              	.L413:
 3655 0156 94F84A30 		ldrb	r3, [r4, #74]	@ zero_extendqisi2
 3656 015a 0133     		adds	r3, r3, #1
 3657 015c DBB2     		uxtb	r3, r3
 3658 015e 84F84A30 		strb	r3, [r4, #74]
 3659 0162 94F8DB20 		ldrb	r2, [r4, #219]	@ zero_extendqisi2
 3660 0166 9342     		cmp	r3, r2
 3661 0168 7FF664AF 		bls	.L409
 3662 016c 0023     		movs	r3, #0
 3663 016e 84F84A30 		strb	r3, [r4, #74]
 3664 0172 94F84930 		ldrb	r3, [r4, #73]	@ zero_extendqisi2
 3665 0176 83F00103 		eor	r3, r3, #1
 3666 017a 84F84930 		strb	r3, [r4, #73]
 3667 017e 59E7     		b	.L409
 3668              	.L418:
 3669 0180 04F5C044 		add	r4, r4, #24576
 3670 0184 05EB8503 		add	r3, r5, r5, lsl #2
 3671 0188 04EB4303 		add	r3, r4, r3, lsl #1
 3672 018c 83F89277 		strb	r7, [r3, #1938]
 3673 0190 05EB8503 		add	r3, r5, r5, lsl #2
 3674 0194 04EB4304 		add	r4, r4, r3, lsl #1
 3675 0198 84F89367 		strb	r6, [r4, #1939]
 3676 019c 62E7     		b	.L419
 3678              		.section	.text.VL53L1_set_histogram_multizone_initial_bin_config,"ax",%progbits
ARM GAS  C:\Temp\ccb7OYN5.s 			page 63


 3679              		.align	1
 3680              		.global	VL53L1_set_histogram_multizone_initial_bin_config
 3681              		.syntax unified
 3682              		.thumb
 3683              		.thumb_func
 3685              	VL53L1_set_histogram_multizone_initial_bin_config:
 3686              		@ args = 0, pretend = 0, frame = 0
 3687              		@ frame_needed = 0, uses_anonymous_args = 0
 3688              		@ link register save eliminated.
 3689 0000 90F85C30 		ldrb	r3, [r0, #92]	@ zero_extendqisi2
 3690 0004 012B     		cmp	r3, #1
 3691 0006 10D0     		beq	.L427
 3692 0008 022B     		cmp	r3, #2
 3693 000a 1CD0     		beq	.L428
 3694 000c 032B     		cmp	r3, #3
 3695 000e 18D1     		bne	.L425
 3696 0010 D37B     		ldrb	r3, [r2, #15]	@ zero_extendqisi2
 3697 0012 4B70     		strb	r3, [r1, #1]
 3698 0014 137C     		ldrb	r3, [r2, #16]	@ zero_extendqisi2
 3699 0016 8B70     		strb	r3, [r1, #2]
 3700 0018 537C     		ldrb	r3, [r2, #17]	@ zero_extendqisi2
 3701 001a CB70     		strb	r3, [r1, #3]
 3702 001c D37B     		ldrb	r3, [r2, #15]	@ zero_extendqisi2
 3703 001e 0B71     		strb	r3, [r1, #4]
 3704 0020 137C     		ldrb	r3, [r2, #16]	@ zero_extendqisi2
 3705 0022 4B71     		strb	r3, [r1, #5]
 3706 0024 537C     		ldrb	r3, [r2, #17]	@ zero_extendqisi2
 3707 0026 8B71     		strb	r3, [r1, #6]
 3708 0028 0BE0     		b	.L425
 3709              	.L427:
 3710 002a 5378     		ldrb	r3, [r2, #1]	@ zero_extendqisi2
 3711 002c 4B70     		strb	r3, [r1, #1]
 3712 002e 9378     		ldrb	r3, [r2, #2]	@ zero_extendqisi2
 3713 0030 8B70     		strb	r3, [r1, #2]
 3714 0032 D378     		ldrb	r3, [r2, #3]	@ zero_extendqisi2
 3715 0034 CB70     		strb	r3, [r1, #3]
 3716 0036 5378     		ldrb	r3, [r2, #1]	@ zero_extendqisi2
 3717 0038 0B71     		strb	r3, [r1, #4]
 3718 003a 9378     		ldrb	r3, [r2, #2]	@ zero_extendqisi2
 3719 003c 4B71     		strb	r3, [r1, #5]
 3720 003e D378     		ldrb	r3, [r2, #3]	@ zero_extendqisi2
 3721 0040 8B71     		strb	r3, [r1, #6]
 3722              	.L425:
 3723 0042 0020     		movs	r0, #0
 3724 0044 7047     		bx	lr
 3725              	.L428:
 3726 0046 D379     		ldrb	r3, [r2, #7]	@ zero_extendqisi2
 3727 0048 4B70     		strb	r3, [r1, #1]
 3728 004a 137A     		ldrb	r3, [r2, #8]	@ zero_extendqisi2
 3729 004c 8B70     		strb	r3, [r1, #2]
 3730 004e 537A     		ldrb	r3, [r2, #9]	@ zero_extendqisi2
 3731 0050 CB70     		strb	r3, [r1, #3]
 3732 0052 D379     		ldrb	r3, [r2, #7]	@ zero_extendqisi2
 3733 0054 0B71     		strb	r3, [r1, #4]
 3734 0056 137A     		ldrb	r3, [r2, #8]	@ zero_extendqisi2
 3735 0058 4B71     		strb	r3, [r1, #5]
 3736 005a 537A     		ldrb	r3, [r2, #9]	@ zero_extendqisi2
ARM GAS  C:\Temp\ccb7OYN5.s 			page 64


 3737 005c 8B71     		strb	r3, [r1, #6]
 3738 005e F0E7     		b	.L425
 3740              		.section	.text.VL53L1_encode_GPIO_interrupt_config,"ax",%progbits
 3741              		.align	1
 3742              		.global	VL53L1_encode_GPIO_interrupt_config
 3743              		.syntax unified
 3744              		.thumb
 3745              		.thumb_func
 3747              	VL53L1_encode_GPIO_interrupt_config:
 3748              		@ args = 0, pretend = 0, frame = 0
 3749              		@ frame_needed = 0, uses_anonymous_args = 0
 3750              		@ link register save eliminated.
 3751 0000 0378     		ldrb	r3, [r0]	@ zero_extendqisi2
 3752 0002 4278     		ldrb	r2, [r0, #1]	@ zero_extendqisi2
 3753 0004 43EA8203 		orr	r3, r3, r2, lsl #2
 3754 0008 5BB2     		sxtb	r3, r3
 3755 000a 8278     		ldrb	r2, [r0, #2]	@ zero_extendqisi2
 3756 000c 43EA4213 		orr	r3, r3, r2, lsl #5
 3757 0010 5BB2     		sxtb	r3, r3
 3758 0012 C278     		ldrb	r2, [r0, #3]	@ zero_extendqisi2
 3759 0014 43EA8213 		orr	r3, r3, r2, lsl #6
 3760 0018 5BB2     		sxtb	r3, r3
 3761 001a 0279     		ldrb	r2, [r0, #4]	@ zero_extendqisi2
 3762 001c 43EAC210 		orr	r0, r3, r2, lsl #7
 3763 0020 C0B2     		uxtb	r0, r0
 3764 0022 7047     		bx	lr
 3766              		.section	.text.VL53L1_decode_GPIO_interrupt_config,"ax",%progbits
 3767              		.align	1
 3768              		.global	VL53L1_decode_GPIO_interrupt_config
 3769              		.syntax unified
 3770              		.thumb
 3771              		.thumb_func
 3773              	VL53L1_decode_GPIO_interrupt_config:
 3774              		@ args = 0, pretend = 0, frame = 16
 3775              		@ frame_needed = 0, uses_anonymous_args = 0
 3776              		@ link register save eliminated.
 3777 0000 84B0     		sub	sp, sp, #16
 3778 0002 0346     		mov	r3, r0
 3779 0004 01F00302 		and	r2, r1, #3
 3780 0008 8DF80020 		strb	r2, [sp]
 3781 000c C1F38102 		ubfx	r2, r1, #2, #2
 3782 0010 8DF80120 		strb	r2, [sp, #1]
 3783 0014 C1F34012 		ubfx	r2, r1, #5, #1
 3784 0018 8DF80220 		strb	r2, [sp, #2]
 3785 001c C1F38012 		ubfx	r2, r1, #6, #1
 3786 0020 8DF80320 		strb	r2, [sp, #3]
 3787 0024 C909     		lsrs	r1, r1, #7
 3788 0026 8DF80410 		strb	r1, [sp, #4]
 3789 002a 0022     		movs	r2, #0
 3790 002c ADF80C20 		strh	r2, [sp, #12]	@ movhi
 3791 0030 ADF80A20 		strh	r2, [sp, #10]	@ movhi
 3792 0034 ADF80820 		strh	r2, [sp, #8]	@ movhi
 3793 0038 ADF80620 		strh	r2, [sp, #6]	@ movhi
 3794 003c EC46     		mov	ip, sp
 3795 003e BCE80700 		ldmia	ip!, {r0, r1, r2}
 3796 0042 1860     		str	r0, [r3]	@ unaligned
 3797 0044 5960     		str	r1, [r3, #4]	@ unaligned
ARM GAS  C:\Temp\ccb7OYN5.s 			page 65


 3798 0046 9A60     		str	r2, [r3, #8]	@ unaligned
 3799 0048 BCF80020 		ldrh	r2, [ip]	@ unaligned
 3800 004c 9A81     		strh	r2, [r3, #12]	@ unaligned
 3801 004e 1846     		mov	r0, r3
 3802 0050 04B0     		add	sp, sp, #16
 3803              		@ sp needed
 3804 0052 7047     		bx	lr
 3806              		.section	.text.VL53L1_set_GPIO_distance_threshold,"ax",%progbits
 3807              		.align	1
 3808              		.global	VL53L1_set_GPIO_distance_threshold
 3809              		.syntax unified
 3810              		.thumb
 3811              		.thumb_func
 3813              	VL53L1_set_GPIO_distance_threshold:
 3814              		@ args = 0, pretend = 0, frame = 0
 3815              		@ frame_needed = 0, uses_anonymous_args = 0
 3816              		@ link register save eliminated.
 3817 0000 A0F8AE13 		strh	r1, [r0, #942]	@ movhi
 3818 0004 A0F8B023 		strh	r2, [r0, #944]	@ movhi
 3819 0008 0020     		movs	r0, #0
 3820 000a 7047     		bx	lr
 3822              		.section	.text.VL53L1_set_GPIO_rate_threshold,"ax",%progbits
 3823              		.align	1
 3824              		.global	VL53L1_set_GPIO_rate_threshold
 3825              		.syntax unified
 3826              		.thumb
 3827              		.thumb_func
 3829              	VL53L1_set_GPIO_rate_threshold:
 3830              		@ args = 0, pretend = 0, frame = 0
 3831              		@ frame_needed = 0, uses_anonymous_args = 0
 3832              		@ link register save eliminated.
 3833 0000 A0F88A13 		strh	r1, [r0, #906]	@ movhi
 3834 0004 A0F88C23 		strh	r2, [r0, #908]	@ movhi
 3835 0008 0020     		movs	r0, #0
 3836 000a 7047     		bx	lr
 3838              		.section	.text.VL53L1_set_GPIO_thresholds_from_struct,"ax",%progbits
 3839              		.align	1
 3840              		.global	VL53L1_set_GPIO_thresholds_from_struct
 3841              		.syntax unified
 3842              		.thumb
 3843              		.thumb_func
 3845              	VL53L1_set_GPIO_thresholds_from_struct:
 3846              		@ args = 0, pretend = 0, frame = 0
 3847              		@ frame_needed = 0, uses_anonymous_args = 0
 3848 0000 38B5     		push	{r3, r4, r5, lr}
 3849 0002 0546     		mov	r5, r0
 3850 0004 0C46     		mov	r4, r1
 3851 0006 0A89     		ldrh	r2, [r1, #8]
 3852 0008 C988     		ldrh	r1, [r1, #6]
 3853 000a FFF7FEFF 		bl	VL53L1_set_GPIO_distance_threshold
 3854 000e 00B1     		cbz	r0, .L437
 3855              	.L435:
 3856 0010 38BD     		pop	{r3, r4, r5, pc}
 3857              	.L437:
 3858 0012 A289     		ldrh	r2, [r4, #12]
 3859 0014 6189     		ldrh	r1, [r4, #10]
 3860 0016 2846     		mov	r0, r5
ARM GAS  C:\Temp\ccb7OYN5.s 			page 66


 3861 0018 FFF7FEFF 		bl	VL53L1_set_GPIO_rate_threshold
 3862 001c F8E7     		b	.L435
 3864              		.section	.text.VL53L1_set_ref_spad_char_config,"ax",%progbits
 3865              		.align	1
 3866              		.global	VL53L1_set_ref_spad_char_config
 3867              		.syntax unified
 3868              		.thumb
 3869              		.thumb_func
 3871              	VL53L1_set_ref_spad_char_config:
 3872              		@ args = 12, pretend = 0, frame = 8
 3873              		@ frame_needed = 0, uses_anonymous_args = 0
 3874 0000 F0B5     		push	{r4, r5, r6, r7, lr}
 3875 0002 83B0     		sub	sp, sp, #12
 3876 0004 0446     		mov	r4, r0
 3877 0006 0E46     		mov	r6, r1
 3878 0008 1746     		mov	r7, r2
 3879 000a 1D46     		mov	r5, r3
 3880 000c BDF82800 		ldrh	r0, [sp, #40]
 3881 0010 FFF7FEFF 		bl	VL53L1_calc_macro_period_us
 3882 0014 0346     		mov	r3, r0
 3883 0016 00B9     		cbnz	r0, .L439
 3884 0018 0123     		movs	r3, #1
 3885              	.L439:
 3886 001a 5A08     		lsrs	r2, r3, #1
 3887 001c 02EB0732 		add	r2, r2, r7, lsl #12
 3888 0020 B2FBF3F2 		udiv	r2, r2, r3
 3889 0024 FF2A     		cmp	r2, #255
 3890 0026 19D9     		bls	.L440
 3891 0028 FF23     		movs	r3, #255
 3892 002a 84F88533 		strb	r3, [r4, #901]
 3893              	.L441:
 3894 002e 84F89A63 		strb	r6, [r4, #922]
 3895 0032 94F88523 		ldrb	r2, [r4, #901]	@ zero_extendqisi2
 3896 0036 4B21     		movs	r1, #75
 3897 0038 2046     		mov	r0, r4
 3898 003a FFF7FEFF 		bl	VL53L1_WrByte
 3899 003e 0146     		mov	r1, r0
 3900 0040 78B1     		cbz	r0, .L448
 3901              	.L442:
 3902 0042 94F89A33 		ldrb	r3, [r4, #922]	@ zero_extendqisi2
 3903 0046 8DF80430 		strb	r3, [sp, #4]
 3904 004a 8DF80530 		strb	r3, [sp, #5]
 3905 004e 81B1     		cbz	r1, .L443
 3906 0050 A4F87050 		strh	r5, [r4, #112]	@ movhi
 3907              	.L444:
 3908 0054 F9B1     		cbz	r1, .L449
 3909              	.L445:
 3910 0056 0846     		mov	r0, r1
 3911 0058 03B0     		add	sp, sp, #12
 3912              		@ sp needed
 3913 005a F0BD     		pop	{r4, r5, r6, r7, pc}
 3914              	.L440:
 3915 005c 84F88523 		strb	r2, [r4, #901]
 3916 0060 E5E7     		b	.L441
 3917              	.L448:
 3918 0062 94F89A23 		ldrb	r2, [r4, #922]	@ zero_extendqisi2
 3919 0066 6021     		movs	r1, #96
ARM GAS  C:\Temp\ccb7OYN5.s 			page 67


 3920 0068 2046     		mov	r0, r4
 3921 006a FFF7FEFF 		bl	VL53L1_WrByte
 3922 006e 0146     		mov	r1, r0
 3923 0070 E7E7     		b	.L442
 3924              	.L443:
 3925 0072 0223     		movs	r3, #2
 3926 0074 01AA     		add	r2, sp, #4
 3927 0076 7821     		movs	r1, #120
 3928 0078 2046     		mov	r0, r4
 3929 007a FFF7FEFF 		bl	VL53L1_WriteMulti
 3930 007e A4F87050 		strh	r5, [r4, #112]	@ movhi
 3931 0082 0146     		mov	r1, r0
 3932 0084 0028     		cmp	r0, #0
 3933 0086 E6D1     		bne	.L445
 3934 0088 2A46     		mov	r2, r5
 3935 008a 1C21     		movs	r1, #28
 3936 008c 2046     		mov	r0, r4
 3937 008e FFF7FEFF 		bl	VL53L1_WrWord
 3938 0092 0146     		mov	r1, r0
 3939 0094 DEE7     		b	.L444
 3940              	.L449:
 3941 0096 BDF82020 		ldrh	r2, [sp, #32]
 3942 009a 6421     		movs	r1, #100
 3943 009c 2046     		mov	r0, r4
 3944 009e FFF7FEFF 		bl	VL53L1_WrWord
 3945 00a2 0146     		mov	r1, r0
 3946 00a4 0028     		cmp	r0, #0
 3947 00a6 D6D1     		bne	.L445
 3948 00a8 BDF82420 		ldrh	r2, [sp, #36]
 3949 00ac 6621     		movs	r1, #102
 3950 00ae 2046     		mov	r0, r4
 3951 00b0 FFF7FEFF 		bl	VL53L1_WrWord
 3952 00b4 0146     		mov	r1, r0
 3953 00b6 CEE7     		b	.L445
 3955              		.section	.text.VL53L1_set_ssc_config,"ax",%progbits
 3956              		.align	1
 3957              		.global	VL53L1_set_ssc_config
 3958              		.syntax unified
 3959              		.thumb
 3960              		.thumb_func
 3962              	VL53L1_set_ssc_config:
 3963              		@ args = 0, pretend = 0, frame = 8
 3964              		@ frame_needed = 0, uses_anonymous_args = 0
 3965 0000 70B5     		push	{r4, r5, r6, lr}
 3966 0002 82B0     		sub	sp, sp, #8
 3967 0004 0546     		mov	r5, r0
 3968 0006 0C46     		mov	r4, r1
 3969 0008 4978     		ldrb	r1, [r1, #1]	@ zero_extendqisi2
 3970 000a 1046     		mov	r0, r2
 3971 000c FFF7FEFF 		bl	VL53L1_calc_macro_period_us
 3972 0010 0146     		mov	r1, r0
 3973 0012 6068     		ldr	r0, [r4, #4]
 3974 0014 FFF7FEFF 		bl	VL53L1_calc_encoded_timeout
 3975 0018 0646     		mov	r6, r0
 3976 001a A278     		ldrb	r2, [r4, #2]	@ zero_extendqisi2
 3977 001c 4721     		movs	r1, #71
 3978 001e 2846     		mov	r0, r5
ARM GAS  C:\Temp\ccb7OYN5.s 			page 68


 3979 0020 FFF7FEFF 		bl	VL53L1_WrByte
 3980 0024 0346     		mov	r3, r0
 3981 0026 C0B1     		cbz	r0, .L455
 3982              	.L451:
 3983 0028 C6F30722 		ubfx	r2, r6, #8, #8
 3984 002c 8DF80020 		strb	r2, [sp]
 3985 0030 8DF80160 		strb	r6, [sp, #1]
 3986 0034 6278     		ldrb	r2, [r4, #1]	@ zero_extendqisi2
 3987 0036 8DF80220 		strb	r2, [sp, #2]
 3988 003a 2289     		ldrh	r2, [r4, #8]
 3989 003c 110A     		lsrs	r1, r2, #8
 3990 003e 8DF80310 		strb	r1, [sp, #3]
 3991 0042 8DF80420 		strb	r2, [sp, #4]
 3992 0046 7BB1     		cbz	r3, .L456
 3993              	.L452:
 3994 0048 6278     		ldrb	r2, [r4, #1]	@ zero_extendqisi2
 3995 004a 8DF80020 		strb	r2, [sp]
 3996 004e 8DF80120 		strb	r2, [sp, #1]
 3997 0052 8BB1     		cbz	r3, .L457
 3998              	.L453:
 3999 0054 1846     		mov	r0, r3
 4000 0056 02B0     		add	sp, sp, #8
 4001              		@ sp needed
 4002 0058 70BD     		pop	{r4, r5, r6, pc}
 4003              	.L455:
 4004 005a E278     		ldrb	r2, [r4, #3]	@ zero_extendqisi2
 4005 005c 4A21     		movs	r1, #74
 4006 005e 2846     		mov	r0, r5
 4007 0060 FFF7FEFF 		bl	VL53L1_WrByte
 4008 0064 0346     		mov	r3, r0
 4009 0066 DFE7     		b	.L451
 4010              	.L456:
 4011 0068 0523     		movs	r3, #5
 4012 006a 6A46     		mov	r2, sp
 4013 006c 6121     		movs	r1, #97
 4014 006e 2846     		mov	r0, r5
 4015 0070 FFF7FEFF 		bl	VL53L1_WriteMulti
 4016 0074 0346     		mov	r3, r0
 4017 0076 E7E7     		b	.L452
 4018              	.L457:
 4019 0078 0223     		movs	r3, #2
 4020 007a 6A46     		mov	r2, sp
 4021 007c 7821     		movs	r1, #120
 4022 007e 2846     		mov	r0, r5
 4023 0080 FFF7FEFF 		bl	VL53L1_WriteMulti
 4024 0084 0346     		mov	r3, r0
 4025 0086 0028     		cmp	r0, #0
 4026 0088 E4D1     		bne	.L453
 4027 008a 2278     		ldrb	r2, [r4]	@ zero_extendqisi2
 4028 008c 2921     		movs	r1, #41
 4029 008e 2846     		mov	r0, r5
 4030 0090 FFF7FEFF 		bl	VL53L1_WrByte
 4031 0094 0346     		mov	r3, r0
 4032 0096 DDE7     		b	.L453
 4034              		.section	.text.VL53L1_get_spad_rate_data,"ax",%progbits
 4035              		.align	1
 4036              		.global	VL53L1_get_spad_rate_data
ARM GAS  C:\Temp\ccb7OYN5.s 			page 69


 4037              		.syntax unified
 4038              		.thumb
 4039              		.thumb_func
 4041              	VL53L1_get_spad_rate_data:
 4042              		@ args = 0, pretend = 0, frame = 512
 4043              		@ frame_needed = 0, uses_anonymous_args = 0
 4044 0000 2DE9F041 		push	{r4, r5, r6, r7, r8, lr}
 4045 0004 ADF5007D 		sub	sp, sp, #512
 4046 0008 8046     		mov	r8, r0
 4047 000a 0E46     		mov	r6, r1
 4048 000c FFF7FEFF 		bl	VL53L1_disable_firmware
 4049 0010 0746     		mov	r7, r0
 4050 0012 10B1     		cbz	r0, .L464
 4051              	.L459:
 4052 0014 6D46     		mov	r5, sp
 4053 0016 0024     		movs	r4, #0
 4054 0018 12E0     		b	.L460
 4055              	.L464:
 4056 001a 4FF40073 		mov	r3, #512
 4057 001e 6A46     		mov	r2, sp
 4058 0020 4FF46061 		mov	r1, #3584
 4059 0024 4046     		mov	r0, r8
 4060 0026 FFF7FEFF 		bl	VL53L1_ReadMulti
 4061 002a 0746     		mov	r7, r0
 4062 002c F2E7     		b	.L459
 4063              	.L461:
 4064 002e 0221     		movs	r1, #2
 4065 0030 2846     		mov	r0, r5
 4066 0032 FFF7FEFF 		bl	VL53L1_decode_unsigned_integer
 4067 0036 06EB4403 		add	r3, r6, r4, lsl #1
 4068 003a 9880     		strh	r0, [r3, #4]	@ movhi
 4069 003c 0235     		adds	r5, r5, #2
 4070 003e 0134     		adds	r4, r4, #1
 4071              	.L460:
 4072 0040 FF2C     		cmp	r4, #255
 4073 0042 F4DD     		ble	.L461
 4074 0044 4FF48073 		mov	r3, #256
 4075 0048 7380     		strh	r3, [r6, #2]	@ movhi
 4076 004a A6F80432 		strh	r3, [r6, #516]	@ movhi
 4077 004e 0F23     		movs	r3, #15
 4078 0050 86F80632 		strb	r3, [r6, #518]
 4079 0054 27B1     		cbz	r7, .L465
 4080              	.L462:
 4081 0056 3846     		mov	r0, r7
 4082 0058 0DF5007D 		add	sp, sp, #512
 4083              		@ sp needed
 4084 005c BDE8F081 		pop	{r4, r5, r6, r7, r8, pc}
 4085              	.L465:
 4086 0060 4046     		mov	r0, r8
 4087 0062 FFF7FEFF 		bl	VL53L1_enable_firmware
 4088 0066 0746     		mov	r7, r0
 4089 0068 F5E7     		b	.L462
 4091              		.section	.text.VL53L1_dynamic_xtalk_correction_calc_required_samples,"ax",%progbits
 4092              		.align	1
 4093              		.global	VL53L1_dynamic_xtalk_correction_calc_required_samples
 4094              		.syntax unified
 4095              		.thumb
ARM GAS  C:\Temp\ccb7OYN5.s 			page 70


 4096              		.thumb_func
 4098              	VL53L1_dynamic_xtalk_correction_calc_required_samples:
 4099              		@ args = 0, pretend = 0, frame = 0
 4100              		@ frame_needed = 0, uses_anonymous_args = 0
 4101 0000 2DE9F041 		push	{r4, r5, r6, r7, r8, lr}
 4102 0004 0446     		mov	r4, r0
 4103 0006 00F5C043 		add	r3, r0, #24576
 4104 000a D3F85077 		ldr	r7, [r3, #1872]
 4105 000e 0FB9     		cbnz	r7, .L467
 4106 0010 4FF47A77 		mov	r7, #1000
 4107              	.L467:
 4108 0014 04F5C048 		add	r8, r4, #24576
 4109 0018 D8F85C27 		ldr	r2, [r8, #1884]
 4110 001c D8F85837 		ldr	r3, [r8, #1880]
 4111 0020 1A44     		add	r2, r2, r3
 4112 0022 0025     		movs	r5, #0
 4113 0024 D30E     		lsrs	r3, r2, #27
 4114 0026 5101     		lsls	r1, r2, #5
 4115 0028 891A     		subs	r1, r1, r2
 4116 002a 63F10003 		sbc	r3, r3, #0
 4117 002e 9B00     		lsls	r3, r3, #2
 4118 0030 43EA9173 		orr	r3, r3, r1, lsr #30
 4119 0034 8900     		lsls	r1, r1, #2
 4120 0036 8918     		adds	r1, r1, r2
 4121 0038 43F10003 		adc	r3, r3, #0
 4122 003c DE00     		lsls	r6, r3, #3
 4123 003e 3A46     		mov	r2, r7
 4124 0040 2B46     		mov	r3, r5
 4125 0042 C800     		lsls	r0, r1, #3
 4126 0044 46EA5171 		orr	r1, r6, r1, lsr #29
 4127 0048 FFF7FEFF 		bl	__aeabi_uldivmod
 4128 004c 0246     		mov	r2, r0
 4129 004e 4B01     		lsls	r3, r1, #5
 4130 0050 43EAD063 		orr	r3, r3, r0, lsr #27
 4131 0054 4001     		lsls	r0, r0, #5
 4132 0056 801A     		subs	r0, r0, r2
 4133 0058 63EB0103 		sbc	r3, r3, r1
 4134 005c 9B00     		lsls	r3, r3, #2
 4135 005e 43EA9073 		orr	r3, r3, r0, lsr #30
 4136 0062 8000     		lsls	r0, r0, #2
 4137 0064 8618     		adds	r6, r0, r2
 4138 0066 43EB0101 		adc	r1, r3, r1
 4139 006a C900     		lsls	r1, r1, #3
 4140 006c 3A46     		mov	r2, r7
 4141 006e 2B46     		mov	r3, r5
 4142 0070 F000     		lsls	r0, r6, #3
 4143 0072 41EA5671 		orr	r1, r1, r6, lsr #29
 4144 0076 FFF7FEFF 		bl	__aeabi_uldivmod
 4145 007a 0746     		mov	r7, r0
 4146 007c 8C46     		mov	ip, r1
 4147 007e 04F58053 		add	r3, r4, #4096
 4148 0082 D3F8FC33 		ldr	r3, [r3, #1020]
 4149 0086 B8F84A27 		ldrh	r2, [r8, #1866]
 4150 008a 02FB03F3 		mul	r3, r2, r3
 4151 008e 1E46     		mov	r6, r3
 4152 0090 03B9     		cbnz	r3, .L468
 4153 0092 0126     		movs	r6, #1
ARM GAS  C:\Temp\ccb7OYN5.s 			page 71


 4154              	.L468:
 4155 0094 4A01     		lsls	r2, r1, #5
 4156 0096 42EAD062 		orr	r2, r2, r0, lsr #27
 4157 009a 4301     		lsls	r3, r0, #5
 4158 009c DB1B     		subs	r3, r3, r7
 4159 009e 62EB0C02 		sbc	r2, r2, ip
 4160 00a2 9200     		lsls	r2, r2, #2
 4161 00a4 42EA9372 		orr	r2, r2, r3, lsr #30
 4162 00a8 9B00     		lsls	r3, r3, #2
 4163 00aa DF19     		adds	r7, r3, r7
 4164 00ac 42EB0101 		adc	r1, r2, r1
 4165 00b0 C902     		lsls	r1, r1, #11
 4166 00b2 3246     		mov	r2, r6
 4167 00b4 2B46     		mov	r3, r5
 4168 00b6 F802     		lsls	r0, r7, #11
 4169 00b8 41EA5751 		orr	r1, r1, r7, lsr #21
 4170 00bc FFF7FEFF 		bl	__aeabi_uldivmod
 4171 00c0 4B01     		lsls	r3, r1, #5
 4172 00c2 43EAD063 		orr	r3, r3, r0, lsr #27
 4173 00c6 4201     		lsls	r2, r0, #5
 4174 00c8 121A     		subs	r2, r2, r0
 4175 00ca 63EB0103 		sbc	r3, r3, r1
 4176 00ce 9B00     		lsls	r3, r3, #2
 4177 00d0 43EA9273 		orr	r3, r3, r2, lsr #30
 4178 00d4 9200     		lsls	r2, r2, #2
 4179 00d6 1718     		adds	r7, r2, r0
 4180 00d8 43EB0101 		adc	r1, r3, r1
 4181 00dc C902     		lsls	r1, r1, #11
 4182 00de 3246     		mov	r2, r6
 4183 00e0 2B46     		mov	r3, r5
 4184 00e2 F802     		lsls	r0, r7, #11
 4185 00e4 41EA5751 		orr	r1, r1, r7, lsr #21
 4186 00e8 FFF7FEFF 		bl	__aeabi_uldivmod
 4187 00ec 04F58053 		add	r3, r4, #4096
 4188 00f0 C3F87804 		str	r0, [r3, #1144]
 4189 00f4 0128     		cmp	r0, #1
 4190 00f6 02D9     		bls	.L473
 4191              	.L469:
 4192 00f8 0020     		movs	r0, #0
 4193 00fa BDE8F081 		pop	{r4, r5, r6, r7, r8, pc}
 4194              	.L473:
 4195 00fe 1C46     		mov	r4, r3
 4196 0100 0223     		movs	r3, #2
 4197 0102 C4F87834 		str	r3, [r4, #1144]
 4198 0106 F7E7     		b	.L469
 4200              		.section	.text.VL53L1_dynamic_xtalk_correction_output_init,"ax",%progbits
 4201              		.align	1
 4202              		.global	VL53L1_dynamic_xtalk_correction_output_init
 4203              		.syntax unified
 4204              		.thumb
 4205              		.thumb_func
 4207              	VL53L1_dynamic_xtalk_correction_output_init:
 4208              		@ args = 0, pretend = 0, frame = 0
 4209              		@ frame_needed = 0, uses_anonymous_args = 0
 4210              		@ link register save eliminated.
 4211 0000 0346     		mov	r3, r0
 4212 0002 0020     		movs	r0, #0
ARM GAS  C:\Temp\ccb7OYN5.s 			page 72


 4213 0004 83F89001 		strb	r0, [r3, #400]
 4214 0008 83F89101 		strb	r0, [r3, #401]
 4215 000c 83F89201 		strb	r0, [r3, #402]
 4216 0010 83F89301 		strb	r0, [r3, #403]
 4217 0014 83F89401 		strb	r0, [r3, #404]
 4218 0018 83F89501 		strb	r0, [r3, #405]
 4219 001c 83F89601 		strb	r0, [r3, #406]
 4220 0020 C3F89801 		str	r0, [r3, #408]
 4221 0024 A3F89C01 		strh	r0, [r3, #412]	@ movhi
 4222 0028 A3F89E01 		strh	r0, [r3, #414]	@ movhi
 4223 002c 7047     		bx	lr
 4225              		.section	.text.VL53L1_dynamic_xtalk_correction_data_init,"ax",%progbits
 4226              		.align	1
 4227              		.global	VL53L1_dynamic_xtalk_correction_data_init
 4228              		.syntax unified
 4229              		.thumb
 4230              		.thumb_func
 4232              	VL53L1_dynamic_xtalk_correction_data_init:
 4233              		@ args = 0, pretend = 0, frame = 0
 4234              		@ frame_needed = 0, uses_anonymous_args = 0
 4235 0000 10B5     		push	{r4, lr}
 4236 0002 0246     		mov	r2, r0
 4237 0004 00F5CB40 		add	r0, r0, #25984
 4238 0008 7030     		adds	r0, r0, #112
 4239 000a 02F58051 		add	r1, r2, #4096
 4240 000e 0123     		movs	r3, #1
 4241 0010 81F8F433 		strb	r3, [r1, #1012]
 4242 0014 81F8F533 		strb	r3, [r1, #1013]
 4243 0018 0023     		movs	r3, #0
 4244 001a 81F8F633 		strb	r3, [r1, #1014]
 4245 001e 4FF40074 		mov	r4, #512
 4246 0022 A1F8F843 		strh	r4, [r1, #1016]	@ movhi
 4247 0026 4FF4FA74 		mov	r4, #500
 4248 002a C1F8FC43 		str	r4, [r1, #1020]
 4249 002e C1F80034 		str	r3, [r1, #1024]
 4250 0032 81F80434 		strb	r3, [r1, #1028]
 4251 0036 C824     		movs	r4, #200
 4252 0038 C1F80844 		str	r4, [r1, #1032]
 4253 003c 4FF42054 		mov	r4, #10240
 4254 0040 C1F80C44 		str	r4, [r1, #1036]
 4255 0044 4FF48054 		mov	r4, #4096
 4256 0048 C1F81044 		str	r4, [r1, #1040]
 4257 004c 264C     		ldr	r4, .L479+8
 4258 004e C1F81444 		str	r4, [r1, #1044]
 4259 0052 4FF4A064 		mov	r4, #1280
 4260 0056 C1F81844 		str	r4, [r1, #1048]
 4261 005a 81F81C34 		strb	r3, [r1, #1052]
 4262 005e 4FF48074 		mov	r4, #256
 4263 0062 A1F81E44 		strh	r4, [r1, #1054]	@ movhi
 4264 0066 A1F82044 		strh	r4, [r1, #1056]	@ movhi
 4265 006a 81F82234 		strb	r3, [r1, #1058]
 4266 006e 4FF05C74 		mov	r4, #57671680
 4267 0072 C1F82444 		str	r4, [r1, #1060]
 4268 0076 0A24     		movs	r4, #10
 4269 0078 C1F82844 		str	r4, [r1, #1064]
 4270 007c 4FF40064 		mov	r4, #2048
 4271 0080 C1F82C44 		str	r4, [r1, #1068]
ARM GAS  C:\Temp\ccb7OYN5.s 			page 73


 4272 0084 4FF46174 		mov	r4, #900
 4273 0088 A1F83044 		strh	r4, [r1, #1072]	@ movhi
 4274 008c 174C     		ldr	r4, .L479+12
 4275 008e C1F83444 		str	r4, [r1, #1076]
 4276 0092 18E0     		b	.L476
 4277              	.L477:
 4278 0094 03F5A161 		add	r1, r3, #1288
 4279 0098 02EB8101 		add	r1, r2, r1, lsl #2
 4280 009c 0024     		movs	r4, #0
 4281 009e 8C61     		str	r4, [r1, #24]
 4282 00a0 03F28D21 		addw	r1, r3, #653
 4283 00a4 02EBC101 		add	r1, r2, r1, lsl #3
 4284 00a8 9FED0D7B 		vldr.64	d7, .L479	@ int
 4285 00ac 81ED067B 		vstr.64	d7, [r1, #24]	@ int
 4286 00b0 03F23A51 		addw	r1, r3, #1338
 4287 00b4 02EB8101 		add	r1, r2, r1, lsl #2
 4288 00b8 8C61     		str	r4, [r1, #24]
 4289 00ba 03F24A51 		addw	r1, r3, #1354
 4290 00be 02EB8101 		add	r1, r2, r1, lsl #2
 4291 00c2 8C61     		str	r4, [r1, #24]
 4292 00c4 0133     		adds	r3, r3, #1
 4293              	.L476:
 4294 00c6 0F2B     		cmp	r3, #15
 4295 00c8 E4DD     		ble	.L477
 4296 00ca 02F58052 		add	r2, r2, #4096
 4297 00ce 0024     		movs	r4, #0
 4298 00d0 C2F87844 		str	r4, [r2, #1144]
 4299 00d4 FFF7FEFF 		bl	VL53L1_dynamic_xtalk_correction_output_init
 4300 00d8 2046     		mov	r0, r4
 4301 00da 10BD     		pop	{r4, pc}
 4302              	.L480:
 4303 00dc AFF30080 		.align	3
 4304              	.L479:
 4305 00e0 00000000 		.word	0
 4306 00e4 00000000 		.word	0
 4307 00e8 00F80F00 		.word	1046528
 4308 00ec 00701700 		.word	1536000
 4310              		.section	.text.VL53L1_xtalk_cal_data_init,"ax",%progbits
 4311              		.align	1
 4312              		.global	VL53L1_xtalk_cal_data_init
 4313              		.syntax unified
 4314              		.thumb
 4315              		.thumb_func
 4317              	VL53L1_xtalk_cal_data_init:
 4318              		@ args = 0, pretend = 0, frame = 0
 4319              		@ frame_needed = 0, uses_anonymous_args = 0
 4320              		@ link register save eliminated.
 4321 0000 0346     		mov	r3, r0
 4322 0002 00F58052 		add	r2, r0, #4096
 4323 0006 0020     		movs	r0, #0
 4324 0008 C2F89C02 		str	r0, [r2, #668]
 4325 000c A2F8A002 		strh	r0, [r2, #672]	@ movhi
 4326 0010 A2F8A202 		strh	r0, [r2, #674]	@ movhi
 4327 0014 1833     		adds	r3, r3, #24
 4328 0016 41F28C21 		movw	r1, #4748
 4329 001a 5A18     		adds	r2, r3, r1
 4330 001c 5850     		str	r0, [r3, r1]	@ unaligned
ARM GAS  C:\Temp\ccb7OYN5.s 			page 74


 4331 001e 5060     		str	r0, [r2, #4]	@ unaligned
 4332 0020 9060     		str	r0, [r2, #8]	@ unaligned
 4333 0022 D060     		str	r0, [r2, #12]	@ unaligned
 4334 0024 1061     		str	r0, [r2, #16]	@ unaligned
 4335 0026 5061     		str	r0, [r2, #20]	@ unaligned
 4336 0028 7047     		bx	lr
 4338              		.section	.text.VL53L1_low_power_auto_data_init,"ax",%progbits
 4339              		.align	1
 4340              		.global	VL53L1_low_power_auto_data_init
 4341              		.syntax unified
 4342              		.thumb
 4343              		.thumb_func
 4345              	VL53L1_low_power_auto_data_init:
 4346              		@ args = 0, pretend = 0, frame = 0
 4347              		@ frame_needed = 0, uses_anonymous_args = 0
 4348              		@ link register save eliminated.
 4349 0000 00F58053 		add	r3, r0, #4096
 4350 0004 0322     		movs	r2, #3
 4351 0006 83F88025 		strb	r2, [r3, #1408]
 4352 000a 0020     		movs	r0, #0
 4353 000c 83F88105 		strb	r0, [r3, #1409]
 4354 0010 83F88205 		strb	r0, [r3, #1410]
 4355 0014 83F88305 		strb	r0, [r3, #1411]
 4356 0018 83F88405 		strb	r0, [r3, #1412]
 4357 001c 83F88505 		strb	r0, [r3, #1413]
 4358 0020 83F88605 		strb	r0, [r3, #1414]
 4359 0024 C3F88805 		str	r0, [r3, #1416]
 4360 0028 A3F88C05 		strh	r0, [r3, #1420]	@ movhi
 4361 002c 7047     		bx	lr
 4363              		.section	.text.VL53L1_low_power_auto_data_stop_range,"ax",%progbits
 4364              		.align	1
 4365              		.global	VL53L1_low_power_auto_data_stop_range
 4366              		.syntax unified
 4367              		.thumb
 4368              		.thumb_func
 4370              	VL53L1_low_power_auto_data_stop_range:
 4371              		@ args = 0, pretend = 0, frame = 0
 4372              		@ frame_needed = 0, uses_anonymous_args = 0
 4373              		@ link register save eliminated.
 4374 0000 0346     		mov	r3, r0
 4375 0002 00F58052 		add	r2, r0, #4096
 4376 0006 FF21     		movs	r1, #255
 4377 0008 82F88215 		strb	r1, [r2, #1410]
 4378 000c 0021     		movs	r1, #0
 4379 000e 82F88615 		strb	r1, [r2, #1414]
 4380 0012 C2F88815 		str	r1, [r2, #1416]
 4381 0016 A2F88C15 		strh	r1, [r2, #1420]	@ movhi
 4382 001a 92F88425 		ldrb	r2, [r2, #1412]	@ zero_extendqisi2
 4383 001e 0AB1     		cbz	r2, .L484
 4384 0020 80F84323 		strb	r2, [r0, #835]
 4385              	.L484:
 4386 0024 03F58052 		add	r2, r3, #4096
 4387 0028 92F88525 		ldrb	r2, [r2, #1413]	@ zero_extendqisi2
 4388 002c 0AB1     		cbz	r2, .L485
 4389 002e 83F84023 		strb	r2, [r3, #832]
 4390              	.L485:
 4391 0032 0020     		movs	r0, #0
ARM GAS  C:\Temp\ccb7OYN5.s 			page 75


 4392 0034 83F88703 		strb	r0, [r3, #903]
 4393 0038 7047     		bx	lr
 4395              		.section	.text.VL53L1_config_low_power_auto_mode,"ax",%progbits
 4396              		.align	1
 4397              		.global	VL53L1_config_low_power_auto_mode
 4398              		.syntax unified
 4399              		.thumb
 4400              		.thumb_func
 4402              	VL53L1_config_low_power_auto_mode:
 4403              		@ args = 0, pretend = 0, frame = 0
 4404              		@ frame_needed = 0, uses_anonymous_args = 0
 4405              		@ link register save eliminated.
 4406 0000 0123     		movs	r3, #1
 4407 0002 5370     		strb	r3, [r2, #1]
 4408 0004 0020     		movs	r0, #0
 4409 0006 9070     		strb	r0, [r2, #2]
 4410 0008 9B23     		movs	r3, #155
 4411 000a 4B74     		strb	r3, [r1, #17]
 4412 000c 7047     		bx	lr
 4414              		.section	.text.VL53L1_low_power_auto_setup_manual_calibration,"ax",%progbits
 4415              		.align	1
 4416              		.global	VL53L1_low_power_auto_setup_manual_calibration
 4417              		.syntax unified
 4418              		.thumb
 4419              		.thumb_func
 4421              	VL53L1_low_power_auto_setup_manual_calibration:
 4422              		@ args = 0, pretend = 0, frame = 0
 4423              		@ frame_needed = 0, uses_anonymous_args = 0
 4424              		@ link register save eliminated.
 4425 0000 90F84313 		ldrb	r1, [r0, #835]	@ zero_extendqisi2
 4426 0004 00F58052 		add	r2, r0, #4096
 4427 0008 82F88415 		strb	r1, [r2, #1412]
 4428 000c 90F84033 		ldrb	r3, [r0, #832]	@ zero_extendqisi2
 4429 0010 82F88535 		strb	r3, [r2, #1413]
 4430 0014 01F07F01 		and	r1, r1, #127
 4431 0018 80F84313 		strb	r1, [r0, #835]
 4432 001c 03F00303 		and	r3, r3, #3
 4433 0020 92F88015 		ldrb	r1, [r2, #1408]	@ zero_extendqisi2
 4434 0024 8900     		lsls	r1, r1, #2
 4435 0026 C9B2     		uxtb	r1, r1
 4436 0028 0B44     		add	r3, r3, r1
 4437 002a 80F84033 		strb	r3, [r0, #832]
 4438 002e 0123     		movs	r3, #1
 4439 0030 80F88733 		strb	r3, [r0, #903]
 4440 0034 92F8BE33 		ldrb	r3, [r2, #958]	@ zero_extendqisi2
 4441 0038 82F88635 		strb	r3, [r2, #1414]
 4442 003c 80F88133 		strb	r3, [r0, #897]
 4443 0040 0020     		movs	r0, #0
 4444 0042 7047     		bx	lr
 4446              		.section	.text.VL53L1_low_power_auto_update_DSS,"ax",%progbits
 4447              		.align	1
 4448              		.global	VL53L1_low_power_auto_update_DSS
 4449              		.syntax unified
 4450              		.thumb
 4451              		.thumb_func
 4453              	VL53L1_low_power_auto_update_DSS:
 4454              		@ args = 0, pretend = 0, frame = 0
ARM GAS  C:\Temp\ccb7OYN5.s 			page 76


 4455              		@ frame_needed = 0, uses_anonymous_args = 0
 4456              		@ link register save eliminated.
 4457 0000 10B4     		push	{r4}
 4458 0002 B0F8D633 		ldrh	r3, [r0, #982]
 4459 0006 B0F8CE23 		ldrh	r2, [r0, #974]
 4460 000a 1344     		add	r3, r3, r2
 4461 000c B3F5803F 		cmp	r3, #65536
 4462 0010 01D3     		bcc	.L489
 4463 0012 4FF6FF73 		movw	r3, #65535
 4464              	.L489:
 4465 0016 1B04     		lsls	r3, r3, #16
 4466 0018 B0F8CA13 		ldrh	r1, [r0, #970]
 4467 001c E1B1     		cbz	r1, .L490
 4468 001e B3FBF1F4 		udiv	r4, r3, r1
 4469 0022 00F58052 		add	r2, r0, #4096
 4470 0026 C2F88845 		str	r4, [r2, #1416]
 4471 002a B0F85E23 		ldrh	r2, [r0, #862]
 4472 002e 1204     		lsls	r2, r2, #16
 4473 0030 9942     		cmp	r1, r3
 4474 0032 11D8     		bhi	.L490
 4475 0034 B2FBF4F2 		udiv	r2, r2, r4
 4476 0038 B2F5803F 		cmp	r2, #65536
 4477 003c 01D3     		bcc	.L491
 4478 003e 4FF6FF72 		movw	r2, #65535
 4479              	.L491:
 4480 0042 92B2     		uxth	r2, r2
 4481 0044 00F58053 		add	r3, r0, #4096
 4482 0048 A3F88C25 		strh	r2, [r3, #1420]	@ movhi
 4483 004c A0F88E23 		strh	r2, [r0, #910]	@ movhi
 4484 0050 0223     		movs	r3, #2
 4485 0052 80F88833 		strb	r3, [r0, #904]
 4486 0056 0AE0     		b	.L492
 4487              	.L490:
 4488 0058 00F58052 		add	r2, r0, #4096
 4489 005c 4FF40043 		mov	r3, #32768
 4490 0060 A2F88C35 		strh	r3, [r2, #1420]	@ movhi
 4491 0064 A0F88E33 		strh	r3, [r0, #910]	@ movhi
 4492 0068 0223     		movs	r3, #2
 4493 006a 80F88833 		strb	r3, [r0, #904]
 4494              	.L492:
 4495 006e 0020     		movs	r0, #0
 4496 0070 5DF8044B 		ldr	r4, [sp], #4
 4497 0074 7047     		bx	lr
 4499              		.section	.text.VL53L1_compute_nb_frame_in_buffer,"ax",%progbits
 4500              		.align	1
 4501              		.global	VL53L1_compute_nb_frame_in_buffer
 4502              		.syntax unified
 4503              		.thumb
 4504              		.thumb_func
 4506              	VL53L1_compute_nb_frame_in_buffer:
 4507              		@ args = 0, pretend = 0, frame = 0
 4508              		@ frame_needed = 0, uses_anonymous_args = 0
 4509 0000 F0B5     		push	{r4, r5, r6, r7, lr}
 4510 0002 0C46     		mov	r4, r1
 4511 0004 1146     		mov	r1, r2
 4512 0006 1A46     		mov	r2, r3
 4513 0008 0026     		movs	r6, #0
ARM GAS  C:\Temp\ccb7OYN5.s 			page 77


 4514 000a 3346     		mov	r3, r6
 4515 000c 22E0     		b	.L497
 4516              	.L498:
 4517 000e 0EF1010E 		add	lr, lr, #1
 4518 0012 5FFA8EFE 		uxtb	lr, lr
 4519              	.L501:
 4520 0016 BEF1170F 		cmp	lr, #23
 4521 001a 16D8     		bhi	.L505
 4522 001c 02EB4207 		add	r7, r2, r2, lsl #1
 4523 0020 03EB430C 		add	ip, r3, r3, lsl #1
 4524 0024 4FEA0C1C 		lsl	ip, ip, #4
 4525 0028 0CEBC70C 		add	ip, ip, r7, lsl #3
 4526 002c 01EBC107 		add	r7, r1, r1, lsl #3
 4527 0030 0CEB471C 		add	ip, ip, r7, lsl #5
 4528 0034 F444     		add	ip, ip, lr
 4529 0036 0CF5EC6C 		add	ip, ip, #1888
 4530 003a 00EB8C0C 		add	ip, r0, ip, lsl #2
 4531 003e DCF81C70 		ldr	r7, [ip, #28]
 4532 0042 002F     		cmp	r7, #0
 4533 0044 E3DD     		ble	.L498
 4534 0046 0125     		movs	r5, #1
 4535 0048 E1E7     		b	.L498
 4536              	.L505:
 4537 004a 0DB1     		cbz	r5, .L500
 4538 004c 0136     		adds	r6, r6, #1
 4539 004e F6B2     		uxtb	r6, r6
 4540              	.L500:
 4541 0050 0133     		adds	r3, r3, #1
 4542 0052 DBB2     		uxtb	r3, r3
 4543              	.L497:
 4544 0054 052B     		cmp	r3, #5
 4545 0056 02D8     		bhi	.L506
 4546 0058 0025     		movs	r5, #0
 4547 005a AE46     		mov	lr, r5
 4548 005c DBE7     		b	.L501
 4549              	.L506:
 4550 005e 2670     		strb	r6, [r4]
 4551 0060 0020     		movs	r0, #0
 4552 0062 F0BD     		pop	{r4, r5, r6, r7, pc}
 4554              		.section	.text.VL53L1_compute_histo_merge_nb,"ax",%progbits
 4555              		.align	1
 4556              		.global	VL53L1_compute_histo_merge_nb
 4557              		.syntax unified
 4558              		.thumb
 4559              		.thumb_func
 4561              	VL53L1_compute_histo_merge_nb:
 4562              		@ args = 0, pretend = 0, frame = 8
 4563              		@ frame_needed = 0, uses_anonymous_args = 0
 4564 0000 70B5     		push	{r4, r5, r6, lr}
 4565 0002 82B0     		sub	sp, sp, #8
 4566 0004 0446     		mov	r4, r0
 4567 0006 0D46     		mov	r5, r1
 4568 0008 90F82F34 		ldrb	r3, [r0, #1071]	@ zero_extendqisi2
 4569 000c 9B08     		lsrs	r3, r3, #2
 4570 000e 90F85120 		ldrb	r2, [r0, #81]	@ zero_extendqisi2
 4571 0012 FFF7FEFF 		bl	VL53L1_compute_nb_frame_in_buffer
 4572 0016 0646     		mov	r6, r0
ARM GAS  C:\Temp\ccb7OYN5.s 			page 78


 4573 0018 2B78     		ldrb	r3, [r5]	@ zero_extendqisi2
 4574 001a 0BB9     		cbnz	r3, .L508
 4575 001c 0123     		movs	r3, #1
 4576 001e 2B70     		strb	r3, [r5]
 4577              	.L508:
 4578 0020 01AA     		add	r2, sp, #4
 4579 0022 48F28D01 		movw	r1, #32909
 4580 0026 2046     		mov	r0, r4
 4581 0028 FFF7FEFF 		bl	VL53L1_get_tuning_parm
 4582 002c 019B     		ldr	r3, [sp, #4]
 4583 002e 0BB9     		cbnz	r3, .L509
 4584 0030 0123     		movs	r3, #1
 4585 0032 2B70     		strb	r3, [r5]
 4586              	.L509:
 4587 0034 3046     		mov	r0, r6
 4588 0036 02B0     		add	sp, sp, #8
 4589              		@ sp needed
 4590 0038 70BD     		pop	{r4, r5, r6, pc}
 4592              		.section	.text.VL53L1_dynamic_xtalk_correction_calc_new_xtalk,"ax",%progbits
 4593              		.align	1
 4594              		.global	VL53L1_dynamic_xtalk_correction_calc_new_xtalk
 4595              		.syntax unified
 4596              		.thumb
 4597              		.thumb_func
 4599              	VL53L1_dynamic_xtalk_correction_calc_new_xtalk:
 4600              		@ args = 8, pretend = 0, frame = 8
 4601              		@ frame_needed = 0, uses_anonymous_args = 0
 4602 0000 2DE9F043 		push	{r4, r5, r6, r7, r8, r9, lr}
 4603 0004 83B0     		sub	sp, sp, #12
 4604 0006 0546     		mov	r5, r0
 4605 0008 1446     		mov	r4, r2
 4606 000a 1E46     		mov	r6, r3
 4607 000c 9DF82C70 		ldrb	r7, [sp, #44]	@ zero_extendqisi2
 4608 0010 90F8CC81 		ldrb	r8, [r0, #460]	@ zero_extendqisi2
 4609 0014 9DF82830 		ldrb	r3, [sp, #40]	@ zero_extendqisi2
 4610 0018 012B     		cmp	r3, #1
 4611 001a 59D0     		beq	.L541
 4612 001c B160     		str	r1, [r6, #8]
 4613              	.L513:
 4614 001e D5F8F412 		ldr	r1, [r5, #756]
 4615 0022 B5F9F8C2 		ldrsh	ip, [r5, #760]
 4616 0026 B5F9FA02 		ldrsh	r0, [r5, #762]
 4617 002a 94F82E30 		ldrb	r3, [r4, #46]	@ zero_extendqisi2
 4618 002e 1BB1     		cbz	r3, .L514
 4619 0030 94F82830 		ldrb	r3, [r4, #40]	@ zero_extendqisi2
 4620 0034 012B     		cmp	r3, #1
 4621 0036 05D1     		bne	.L515
 4622              	.L514:
 4623 0038 05F58053 		add	r3, r5, #4096
 4624 003c D3F89C32 		ldr	r3, [r3, #668]
 4625 0040 002B     		cmp	r3, #0
 4626 0042 49D1     		bne	.L542
 4627              	.L515:
 4628 0044 94F82E30 		ldrb	r3, [r4, #46]	@ zero_extendqisi2
 4629 0048 33B9     		cbnz	r3, .L519
 4630 004a BCF1000F 		cmp	ip, #0
 4631 004e 03D1     		bne	.L519
ARM GAS  C:\Temp\ccb7OYN5.s 			page 79


 4632 0050 7379     		ldrb	r3, [r6, #5]	@ zero_extendqisi2
 4633 0052 43F00103 		orr	r3, r3, #1
 4634 0056 7371     		strb	r3, [r6, #5]
 4635              	.L519:
 4636 0058 94F82E30 		ldrb	r3, [r4, #46]	@ zero_extendqisi2
 4637 005c 23B9     		cbnz	r3, .L520
 4638 005e 18B9     		cbnz	r0, .L520
 4639 0060 7379     		ldrb	r3, [r6, #5]	@ zero_extendqisi2
 4640 0062 43F00203 		orr	r3, r3, #2
 4641 0066 7371     		strb	r3, [r6, #5]
 4642              	.L520:
 4643 0068 01B9     		cbnz	r1, .L521
 4644 006a 0121     		movs	r1, #1
 4645              	.L521:
 4646 006c 94F82E30 		ldrb	r3, [r4, #46]	@ zero_extendqisi2
 4647 0070 012B     		cmp	r3, #1
 4648 0072 54D0     		beq	.L543
 4649 0074 4FEA8C12 		lsl	r2, ip, #6
 4650 0078 B2FBF1F2 		udiv	r2, r2, r1
 4651 007c 12B2     		sxth	r2, r2
 4652 007e 6285     		strh	r2, [r4, #42]	@ movhi
 4653 0080 8301     		lsls	r3, r0, #6
 4654 0082 B3FBF1F3 		udiv	r3, r3, r1
 4655 0086 1BB2     		sxth	r3, r3
 4656 0088 A385     		strh	r3, [r4, #44]	@ movhi
 4657              	.L523:
 4658 008a 94F828E0 		ldrb	lr, [r4, #40]	@ zero_extendqisi2
 4659 008e BEF1000F 		cmp	lr, #0
 4660 0092 49D1     		bne	.L524
 4661 0094 B168     		ldr	r1, [r6, #8]
 4662 0096 01FB02F2 		mul	r2, r1, r2
 4663 009a 9011     		asrs	r0, r2, #6
 4664 009c B2F5800F 		cmp	r2, #4194304
 4665 00a0 01DB     		blt	.L525
 4666 00a2 4FF6FF70 		movw	r0, #65535
 4667              	.L525:
 4668 00a6 B081     		strh	r0, [r6, #12]	@ movhi
 4669 00a8 01FB03F3 		mul	r3, r1, r3
 4670 00ac 9A11     		asrs	r2, r3, #6
 4671 00ae B3F5800F 		cmp	r3, #4194304
 4672 00b2 01DB     		blt	.L526
 4673 00b4 4FF6FF72 		movw	r2, #65535
 4674              	.L526:
 4675 00b8 F281     		strh	r2, [r6, #14]	@ movhi
 4676              	.L527:
 4677 00ba 6378     		ldrb	r3, [r4, #1]	@ zero_extendqisi2
 4678 00bc 012B     		cmp	r3, #1
 4679 00be 57D0     		beq	.L544
 4680              	.L531:
 4681 00c0 012F     		cmp	r7, #1
 4682 00c2 01D0     		beq	.L532
 4683 00c4 0123     		movs	r3, #1
 4684 00c6 3370     		strb	r3, [r6]
 4685              	.L532:
 4686 00c8 0020     		movs	r0, #0
 4687 00ca 03B0     		add	sp, sp, #12
 4688              		@ sp needed
ARM GAS  C:\Temp\ccb7OYN5.s 			page 80


 4689 00cc BDE8F083 		pop	{r4, r5, r6, r7, r8, r9, pc}
 4690              	.L541:
 4691 00d0 9388     		ldrh	r3, [r2, #4]
 4692 00d2 0B44     		add	r3, r3, r1
 4693 00d4 B360     		str	r3, [r6, #8]
 4694 00d6 A2E7     		b	.L513
 4695              	.L542:
 4696 00d8 0DF10701 		add	r1, sp, #7
 4697 00dc 2846     		mov	r0, r5
 4698 00de FFF7FEFF 		bl	VL53L1_compute_histo_merge_nb
 4699 00e2 9DF80730 		ldrb	r3, [sp, #7]	@ zero_extendqisi2
 4700 00e6 13B9     		cbnz	r3, .L516
 4701 00e8 0123     		movs	r3, #1
 4702 00ea 8DF80730 		strb	r3, [sp, #7]
 4703              	.L516:
 4704 00ee B8F1000F 		cmp	r8, #0
 4705 00f2 0AD1     		bne	.L517
 4706 00f4 05F58053 		add	r3, r5, #4096
 4707 00f8 D3F89C12 		ldr	r1, [r3, #668]
 4708              	.L518:
 4709 00fc 05F58053 		add	r3, r5, #4096
 4710 0100 B3F9A0C2 		ldrsh	ip, [r3, #672]
 4711 0104 B3F9A202 		ldrsh	r0, [r3, #674]
 4712 0108 9CE7     		b	.L515
 4713              	.L517:
 4714 010a 9DF80720 		ldrb	r2, [sp, #7]	@ zero_extendqisi2
 4715 010e 05F58053 		add	r3, r5, #4096
 4716 0112 0132     		adds	r2, r2, #1
 4717 0114 03EB8203 		add	r3, r3, r2, lsl #2
 4718 0118 D3F89C12 		ldr	r1, [r3, #668]
 4719 011c EEE7     		b	.L518
 4720              	.L543:
 4721 011e B4F92A20 		ldrsh	r2, [r4, #42]
 4722 0122 B4F92C30 		ldrsh	r3, [r4, #44]
 4723 0126 B0E7     		b	.L523
 4724              	.L524:
 4725 0128 BEF1010F 		cmp	lr, #1
 4726 012c C5D1     		bne	.L527
 4727 012e B368     		ldr	r3, [r6, #8]
 4728 0130 C91A     		subs	r1, r1, r3
 4729 0132 0B46     		mov	r3, r1
 4730 0134 0029     		cmp	r1, #0
 4731 0136 18DB     		blt	.L545
 4732              	.L528:
 4733 0138 1B11     		asrs	r3, r3, #4
 4734 013a 0CEB830C 		add	ip, ip, r3, lsl #2
 4735 013e BCF5803F 		cmp	ip, #65536
 4736 0142 01DB     		blt	.L529
 4737 0144 4FF6FF7C 		movw	ip, #65535
 4738              	.L529:
 4739 0148 A6F80CC0 		strh	ip, [r6, #12]	@ movhi
 4740 014c 264B     		ldr	r3, .L546
 4741 014e 83FB0123 		smull	r2, r3, r3, r1
 4742 0152 C917     		asrs	r1, r1, #31
 4743 0154 C1EB6311 		rsb	r1, r1, r3, asr #5
 4744 0158 00EB8100 		add	r0, r0, r1, lsl #2
 4745 015c B0F5803F 		cmp	r0, #65536
ARM GAS  C:\Temp\ccb7OYN5.s 			page 81


 4746 0160 01DB     		blt	.L530
 4747 0162 4FF6FF70 		movw	r0, #65535
 4748              	.L530:
 4749 0166 F081     		strh	r0, [r6, #14]	@ movhi
 4750 0168 A7E7     		b	.L527
 4751              	.L545:
 4752 016a 01F10F03 		add	r3, r1, #15
 4753 016e E3E7     		b	.L528
 4754              	.L544:
 4755 0170 012F     		cmp	r7, #1
 4756 0172 A9D0     		beq	.L532
 4757 0174 B371     		strb	r3, [r6, #6]
 4758 0176 D6F80890 		ldr	r9, [r6, #8]
 4759 017a 0DF10701 		add	r1, sp, #7
 4760 017e 2846     		mov	r0, r5
 4761 0180 FFF7FEFF 		bl	VL53L1_compute_histo_merge_nb
 4762 0184 95F8D421 		ldrb	r2, [r5, #468]	@ zero_extendqisi2
 4763 0188 9DF80730 		ldrb	r3, [sp, #7]	@ zero_extendqisi2
 4764 018c 7BB1     		cbz	r3, .L533
 4765 018e B8F1000F 		cmp	r8, #0
 4766 0192 0CD0     		beq	.L533
 4767 0194 B9F1000F 		cmp	r9, #0
 4768 0198 09D0     		beq	.L533
 4769 019a D5F8EC32 		ldr	r3, [r5, #748]
 4770 019e A9EB0309 		sub	r9, r9, r3
 4771 01a2 12B1     		cbz	r2, .L534
 4772 01a4 236C     		ldr	r3, [r4, #64]
 4773 01a6 4B45     		cmp	r3, r9
 4774 01a8 01DC     		bgt	.L533
 4775              	.L534:
 4776 01aa 0023     		movs	r3, #0
 4777 01ac B371     		strb	r3, [r6, #6]
 4778              	.L533:
 4779 01ae B379     		ldrb	r3, [r6, #6]	@ zero_extendqisi2
 4780 01b0 002B     		cmp	r3, #0
 4781 01b2 85D0     		beq	.L531
 4782 01b4 95F85130 		ldrb	r3, [r5, #81]	@ zero_extendqisi2
 4783 01b8 B268     		ldr	r2, [r6, #8]
 4784 01ba 03F24A53 		addw	r3, r3, #1354
 4785 01be 05EB8303 		add	r3, r5, r3, lsl #2
 4786 01c2 9A61     		str	r2, [r3, #24]
 4787 01c4 C5F8EC22 		str	r2, [r5, #748]
 4788 01c8 B6F90C30 		ldrsh	r3, [r6, #12]
 4789 01cc A5F8F032 		strh	r3, [r5, #752]	@ movhi
 4790 01d0 B6F90E30 		ldrsh	r3, [r6, #14]
 4791 01d4 A5F8F232 		strh	r3, [r5, #754]	@ movhi
 4792 01d8 A378     		ldrb	r3, [r4, #2]	@ zero_extendqisi2
 4793 01da 012B     		cmp	r3, #1
 4794 01dc 7FF470AF 		bne	.L531
 4795 01e0 0023     		movs	r3, #0
 4796 01e2 6370     		strb	r3, [r4, #1]
 4797 01e4 A370     		strb	r3, [r4, #2]
 4798 01e6 6BE7     		b	.L531
 4799              	.L547:
 4800              		.align	2
 4801              	.L546:
 4802 01e8 67666666 		.word	1717986919
ARM GAS  C:\Temp\ccb7OYN5.s 			page 82


 4804              		.section	.text.VL53L1_dynamic_xtalk_correction_corrector,"ax",%progbits
 4805              		.align	1
 4806              		.global	VL53L1_dynamic_xtalk_correction_corrector
 4807              		.syntax unified
 4808              		.thumb
 4809              		.thumb_func
 4811              	VL53L1_dynamic_xtalk_correction_corrector:
 4812              		@ args = 0, pretend = 0, frame = 8
 4813              		@ frame_needed = 0, uses_anonymous_args = 0
 4814 0000 2DE9F04F 		push	{r4, r5, r6, r7, r8, r9, r10, fp, lr}
 4815 0004 85B0     		sub	sp, sp, #20
 4816 0006 0446     		mov	r4, r0
 4817 0008 00F5CB45 		add	r5, r0, #25984
 4818 000c 7035     		adds	r5, r5, #112
 4819 000e 00F59F56 		add	r6, r0, #5088
 4820 0012 1436     		adds	r6, r6, #20
 4821 0014 00F5CF48 		add	r8, r0, #26496
 4822 0018 90F8CC71 		ldrb	r7, [r0, #460]	@ zero_extendqisi2
 4823 001c 0DF10F01 		add	r1, sp, #15
 4824 0020 FFF7FEFF 		bl	VL53L1_compute_histo_merge_nb
 4825 0024 9DF80F30 		ldrb	r3, [sp, #15]	@ zero_extendqisi2
 4826 0028 03B1     		cbz	r3, .L549
 4827 002a 17B9     		cbnz	r7, .L550
 4828              	.L549:
 4829 002c 0123     		movs	r3, #1
 4830 002e 8DF80F30 		strb	r3, [sp, #15]
 4831              	.L550:
 4832 0032 2846     		mov	r0, r5
 4833 0034 FFF7FEFF 		bl	VL53L1_dynamic_xtalk_correction_output_init
 4834 0038 04F58053 		add	r3, r4, #4096
 4835 003c D3F81834 		ldr	r3, [r3, #1048]
 4836 0040 5BB1     		cbz	r3, .L586
 4837 0042 9DF80F20 		ldrb	r2, [sp, #15]	@ zero_extendqisi2
 4838 0046 02FB03F3 		mul	r3, r2, r3
 4839 004a 04F5C042 		add	r2, r4, #24576
 4840 004e B2F86827 		ldrh	r2, [r2, #1896]
 4841 0052 9342     		cmp	r3, r2
 4842 0054 0CD9     		bls	.L587
 4843 0056 0123     		movs	r3, #1
 4844 0058 00E0     		b	.L551
 4845              	.L586:
 4846 005a 0123     		movs	r3, #1
 4847              	.L551:
 4848 005c DBB2     		uxtb	r3, r3
 4849 005e 5FB1     		cbz	r7, .L588
 4850 0060 94F8D411 		ldrb	r1, [r4, #468]	@ zero_extendqisi2
 4851 0064 9DF80F20 		ldrb	r2, [sp, #15]	@ zero_extendqisi2
 4852 0068 9142     		cmp	r1, r2
 4853 006a 03D0     		beq	.L606
 4854 006c 0020     		movs	r0, #0
 4855 006e 04E0     		b	.L552
 4856              	.L587:
 4857 0070 0023     		movs	r3, #0
 4858 0072 F3E7     		b	.L551
 4859              	.L606:
 4860 0074 0120     		movs	r0, #1
 4861 0076 00E0     		b	.L552
ARM GAS  C:\Temp\ccb7OYN5.s 			page 83


 4862              	.L588:
 4863 0078 0120     		movs	r0, #1
 4864              	.L552:
 4865 007a C0B2     		uxtb	r0, r0
 4866 007c 04F58052 		add	r2, r4, #4096
 4867 0080 92F8F4C3 		ldrb	ip, [r2, #1012]	@ zero_extendqisi2
 4868 0084 BCF1010F 		cmp	ip, #1
 4869 0088 16D0     		beq	.L607
 4870 008a 0021     		movs	r1, #0
 4871              	.L553:
 4872 008c C9B2     		uxtb	r1, r1
 4873 008e 04F5C043 		add	r3, r4, #24576
 4874 0092 93F87E37 		ldrb	r3, [r3, #1918]	@ zero_extendqisi2
 4875 0096 092B     		cmp	r3, #9
 4876 0098 00F09680 		beq	.L594
 4877 009c BCF1010F 		cmp	ip, #1
 4878 00a0 3ED0     		beq	.L595
 4879 00a2 0025     		movs	r5, #0
 4880              	.L554:
 4881 00a4 0029     		cmp	r1, #0
 4882 00a6 40F09580 		bne	.L608
 4883              	.L562:
 4884 00aa 012D     		cmp	r5, #1
 4885 00ac 00F0AB81 		beq	.L609
 4886              	.L581:
 4887 00b0 0020     		movs	r0, #0
 4888 00b2 05B0     		add	sp, sp, #20
 4889              		@ sp needed
 4890 00b4 BDE8F08F 		pop	{r4, r5, r6, r7, r8, r9, r10, fp, pc}
 4891              	.L607:
 4892 00b8 53B1     		cbz	r3, .L591
 4893 00ba 04F5C043 		add	r3, r4, #24576
 4894 00be 93F87E37 		ldrb	r3, [r3, #1918]	@ zero_extendqisi2
 4895 00c2 092B     		cmp	r3, #9
 4896 00c4 01D0     		beq	.L610
 4897 00c6 0021     		movs	r1, #0
 4898 00c8 E0E7     		b	.L553
 4899              	.L610:
 4900 00ca 18B9     		cbnz	r0, .L593
 4901 00cc 0021     		movs	r1, #0
 4902 00ce DDE7     		b	.L553
 4903              	.L591:
 4904 00d0 0021     		movs	r1, #0
 4905 00d2 DBE7     		b	.L553
 4906              	.L593:
 4907 00d4 0121     		movs	r1, #1
 4908 00d6 D9E7     		b	.L553
 4909              	.L596:
 4910 00d8 0025     		movs	r5, #0
 4911              	.L556:
 4912 00da 0133     		adds	r3, r3, #1
 4913 00dc DBB2     		uxtb	r3, r3
 4914              	.L555:
 4915 00de 04F5C042 		add	r2, r4, #24576
 4916 00e2 92F80226 		ldrb	r2, [r2, #1538]	@ zero_extendqisi2
 4917 00e6 9A42     		cmp	r2, r3
 4918 00e8 1FD9     		bls	.L611
ARM GAS  C:\Temp\ccb7OYN5.s 			page 84


 4919 00ea 04F5C042 		add	r2, r4, #24576
 4920 00ee 4FF04C09 		mov	r9, #76
 4921 00f2 09FB0322 		mla	r2, r9, r3, r2
 4922 00f6 92F84E26 		ldrb	r2, [r2, #1614]	@ zero_extendqisi2
 4923 00fa 092A     		cmp	r2, #9
 4924 00fc EDD1     		bne	.L556
 4925 00fe 04F5C042 		add	r2, r4, #24576
 4926 0102 09FB0322 		mla	r2, r9, r3, r2
 4927 0106 B2F94A96 		ldrsh	r9, [r2, #1610]
 4928 010a 04F58052 		add	r2, r4, #4096
 4929 010e B2F83024 		ldrh	r2, [r2, #1072]
 4930 0112 9145     		cmp	r9, r2
 4931 0114 E0DD     		ble	.L596
 4932 0116 022D     		cmp	r5, #2
 4933 0118 DFD1     		bne	.L556
 4934 011a 9E46     		mov	lr, r3
 4935 011c 6546     		mov	r5, ip
 4936 011e DCE7     		b	.L556
 4937              	.L595:
 4938 0120 4FF0000E 		mov	lr, #0
 4939 0124 7346     		mov	r3, lr
 4940 0126 0225     		movs	r5, #2
 4941 0128 D9E7     		b	.L555
 4942              	.L611:
 4943 012a 022D     		cmp	r5, #2
 4944 012c 4ED0     		beq	.L598
 4945 012e 04F5C043 		add	r3, r4, #24576
 4946 0132 4C22     		movs	r2, #76
 4947 0134 02FB0E33 		mla	r3, r2, lr, r3
 4948 0138 B3F838C6 		ldrh	ip, [r3, #1592]
 4949 013c 012D     		cmp	r5, #1
 4950 013e B1D1     		bne	.L554
 4951 0140 4FEA4C13 		lsl	r3, ip, #5
 4952 0144 B3EB0C03 		subs	r3, r3, ip
 4953 0148 62EB0202 		sbc	r2, r2, r2
 4954 014c 9200     		lsls	r2, r2, #2
 4955 014e 42EA9372 		orr	r2, r2, r3, lsr #30
 4956 0152 9B00     		lsls	r3, r3, #2
 4957 0154 13EB0C03 		adds	r3, r3, ip
 4958 0158 42F10002 		adc	r2, r2, #0
 4959 015c D200     		lsls	r2, r2, #3
 4960 015e 42EA5372 		orr	r2, r2, r3, lsr #29
 4961 0162 DB00     		lsls	r3, r3, #3
 4962 0164 5202     		lsls	r2, r2, #9
 4963 0166 42EAD352 		orr	r2, r2, r3, lsr #23
 4964 016a 5B02     		lsls	r3, r3, #9
 4965 016c 04F5805C 		add	ip, r4, #4096
 4966 0170 DCF824C4 		ldr	ip, [ip, #1060]
 4967 0174 6345     		cmp	r3, ip
 4968 0176 72F10002 		sbcs	r2, r2, #0
 4969 017a 00D3     		bcc	.L558
 4970 017c 0025     		movs	r5, #0
 4971              	.L558:
 4972 017e 00B1     		cbz	r0, .L559
 4973 0180 2846     		mov	r0, r5
 4974              	.L559:
 4975 0182 0022     		movs	r2, #0
ARM GAS  C:\Temp\ccb7OYN5.s 			page 85


 4976 0184 1546     		mov	r5, r2
 4977 0186 9446     		mov	ip, r2
 4978 0188 0CE0     		b	.L560
 4979              	.L561:
 4980 018a 94F82F34 		ldrb	r3, [r4, #1071]	@ zero_extendqisi2
 4981 018e 1344     		add	r3, r3, r2
 4982 0190 03F58473 		add	r3, r3, #264
 4983 0194 04EB8303 		add	r3, r4, r3, lsl #2
 4984 0198 DB69     		ldr	r3, [r3, #28]
 4985 019a 5D19     		adds	r5, r3, r5
 4986 019c 4CEBE37C 		adc	ip, ip, r3, asr #31
 4987 01a0 0132     		adds	r2, r2, #1
 4988 01a2 D2B2     		uxtb	r2, r2
 4989              	.L560:
 4990 01a4 032A     		cmp	r2, #3
 4991 01a6 F0D9     		bls	.L561
 4992 01a8 AD08     		lsrs	r5, r5, #2
 4993 01aa 45EA8C75 		orr	r5, r5, ip, lsl #30
 4994 01ae 4FEA9C0C 		lsr	ip, ip, #2
 4995 01b2 D4F8C834 		ldr	r3, [r4, #1224]
 4996 01b6 3233     		adds	r3, r3, #50
 4997 01b8 AB42     		cmp	r3, r5
 4998 01ba 4FF00003 		mov	r3, #0
 4999 01be 73EB0C03 		sbcs	r3, r3, ip
 5000 01c2 05D3     		bcc	.L600
 5001 01c4 0546     		mov	r5, r0
 5002 01c6 6DE7     		b	.L554
 5003              	.L594:
 5004 01c8 0025     		movs	r5, #0
 5005 01ca 6BE7     		b	.L554
 5006              	.L598:
 5007 01cc 0025     		movs	r5, #0
 5008 01ce 69E7     		b	.L554
 5009              	.L600:
 5010 01d0 0025     		movs	r5, #0
 5011 01d2 67E7     		b	.L554
 5012              	.L608:
 5013 01d4 94F85130 		ldrb	r3, [r4, #81]	@ zero_extendqisi2
 5014 01d8 04F58059 		add	r9, r4, #4096
 5015 01dc 3233     		adds	r3, r3, #50
 5016 01de 09EB8303 		add	r3, r9, r3, lsl #2
 5017 01e2 0022     		movs	r2, #0
 5018 01e4 C3F83824 		str	r2, [r3, #1080]
 5019 01e8 2046     		mov	r0, r4
 5020 01ea FFF7FEFF 		bl	VL53L1_dynamic_xtalk_correction_calc_required_samples
 5021 01ee D9F87834 		ldr	r3, [r9, #1144]
 5022 01f2 012B     		cmp	r3, #1
 5023 01f4 40F29C80 		bls	.L612
 5024              	.L563:
 5025 01f8 04F5C043 		add	r3, r4, #24576
 5026 01fc D3F86C17 		ldr	r1, [r3, #1900]
 5027 0200 D4F8EC32 		ldr	r3, [r4, #748]
 5028 0204 4FEA830A 		lsl	r10, r3, #2
 5029 0208 04F58052 		add	r2, r4, #4096
 5030 020c B2F8F823 		ldrh	r2, [r2, #1016]
 5031 0210 4FEA8209 		lsl	r9, r2, #2
 5032 0214 A1EB8303 		sub	r3, r1, r3, lsl #2
ARM GAS  C:\Temp\ccb7OYN5.s 			page 86


 5033 0218 13EB8203 		adds	r3, r3, r2, lsl #2
 5034 021c 00F18C80 		bmi	.L613
 5035              	.L564:
 5036 0220 04F58052 		add	r2, r4, #4096
 5037 0224 D2F80C24 		ldr	r2, [r2, #1036]
 5038 0228 9A42     		cmp	r2, r3
 5039 022a 09DA     		bge	.L565
 5040 022c AAEB0903 		sub	r3, r10, r9
 5041 0230 8B42     		cmp	r3, r1
 5042 0232 80F28380 		bge	.L566
 5043 0236 04F5C043 		add	r3, r4, #24576
 5044 023a 0122     		movs	r2, #1
 5045 023c 83F88227 		strb	r2, [r3, #1922]
 5046              	.L565:
 5047 0240 94F851C0 		ldrb	ip, [r4, #81]	@ zero_extendqisi2
 5048 0244 04F58053 		add	r3, r4, #4096
 5049 0248 03EB8C00 		add	r0, r3, ip, lsl #2
 5050 024c D0F83824 		ldr	r2, [r0, #1080]
 5051 0250 0132     		adds	r2, r2, #1
 5052 0252 C0F83824 		str	r2, [r0, #1080]
 5053 0256 D3F80834 		ldr	r3, [r3, #1032]
 5054 025a 9A42     		cmp	r2, r3
 5055 025c 74D9     		bls	.L567
 5056 025e 04F5C043 		add	r3, r4, #24576
 5057 0262 0121     		movs	r1, #1
 5058 0264 83F88417 		strb	r1, [r3, #1924]
 5059 0268 4FF0020B 		mov	fp, #2
 5060              	.L568:
 5061 026c 04F58053 		add	r3, r4, #4096
 5062 0270 D3F87834 		ldr	r3, [r3, #1144]
 5063 0274 9A42     		cmp	r2, r3
 5064 0276 01D2     		bcs	.L569
 5065 0278 4FF0010B 		mov	fp, #1
 5066              	.L569:
 5067 027c 04F5A251 		add	r1, r4, #5184
 5068 0280 0CF1090C 		add	ip, ip, #9
 5069 0284 01EBCC01 		add	r1, r1, ip, lsl #3
 5070 0288 0023     		movs	r3, #0
 5071 028a 51E90201 		ldrd	r0, [r1, #-8]
 5072 028e FFF7FEFF 		bl	__aeabi_uldivmod
 5073 0292 0246     		mov	r2, r0
 5074 0294 A0EB0A03 		sub	r3, r0, r10
 5075 0298 13EB0903 		adds	r3, r3, r9
 5076 029c 68D4     		bmi	.L614
 5077              	.L570:
 5078 029e BBF1000F 		cmp	fp, #0
 5079 02a2 67D0     		beq	.L571
 5080 02a4 04F5C043 		add	r3, r4, #24576
 5081 02a8 0021     		movs	r1, #0
 5082 02aa 83F88117 		strb	r1, [r3, #1921]
 5083              	.L572:
 5084 02ae 04F58053 		add	r3, r4, #4096
 5085 02b2 93F80434 		ldrb	r3, [r3, #1028]	@ zero_extendqisi2
 5086 02b6 33B1     		cbz	r3, .L576
 5087 02b8 04F58051 		add	r1, r4, #4096
 5088 02bc D1F80014 		ldr	r1, [r1, #1024]
 5089 02c0 8142     		cmp	r1, r0
ARM GAS  C:\Temp\ccb7OYN5.s 			page 87


 5090 02c2 00D2     		bcs	.L576
 5091 02c4 0A46     		mov	r2, r1
 5092              	.L576:
 5093 02c6 33B9     		cbnz	r3, .L577
 5094 02c8 04F58053 		add	r3, r4, #4096
 5095 02cc D3F80034 		ldr	r3, [r3, #1024]
 5096 02d0 9342     		cmp	r3, r2
 5097 02d2 00D9     		bls	.L577
 5098 02d4 1A46     		mov	r2, r3
 5099              	.L577:
 5100 02d6 9108     		lsrs	r1, r2, #2
 5101 02d8 B2F5801F 		cmp	r2, #1048576
 5102 02dc 00D3     		bcc	.L578
 5103 02de 7149     		ldr	r1, .L616
 5104              	.L578:
 5105 02e0 BBF1000F 		cmp	fp, #0
 5106 02e4 40F08280 		bne	.L579
 5107 02e8 0023     		movs	r3, #0
 5108 02ea 0193     		str	r3, [sp, #4]
 5109 02ec 0123     		movs	r3, #1
 5110 02ee 0093     		str	r3, [sp]
 5111 02f0 4346     		mov	r3, r8
 5112 02f2 3246     		mov	r2, r6
 5113 02f4 2046     		mov	r0, r4
 5114 02f6 FFF7FEFF 		bl	VL53L1_dynamic_xtalk_correction_calc_new_xtalk
 5115              	.L580:
 5116 02fa 94F85120 		ldrb	r2, [r4, #81]	@ zero_extendqisi2
 5117 02fe 04F58053 		add	r3, r4, #4096
 5118 0302 04F5A251 		add	r1, r4, #5184
 5119 0306 02F10900 		add	r0, r2, #9
 5120 030a 01EBC001 		add	r1, r1, r0, lsl #3
 5121 030e 4FF0000A 		mov	r10, #0
 5122 0312 4FF0000B 		mov	fp, #0
 5123 0316 41E902AB 		strd	r10, [r1, #-8]
 5124 031a 03EB8200 		add	r0, r3, r2, lsl #2
 5125 031e 0021     		movs	r1, #0
 5126 0320 C0F83814 		str	r1, [r0, #1080]
 5127 0324 3232     		adds	r2, r2, #50
 5128 0326 03EB8203 		add	r3, r3, r2, lsl #2
 5129 032a C3F83814 		str	r1, [r3, #1080]
 5130 032e BCE6     		b	.L562
 5131              	.L612:
 5132 0330 0222     		movs	r2, #2
 5133 0332 C9F87824 		str	r2, [r9, #1144]
 5134 0336 5FE7     		b	.L563
 5135              	.L613:
 5136 0338 5B42     		rsbs	r3, r3, #0
 5137 033a 71E7     		b	.L564
 5138              	.L566:
 5139 033c 04F5C043 		add	r3, r4, #24576
 5140 0340 0222     		movs	r2, #2
 5141 0342 83F88227 		strb	r2, [r3, #1922]
 5142 0346 7BE7     		b	.L565
 5143              	.L567:
 5144 0348 04F5A25E 		add	lr, r4, #5184
 5145 034c 0CF10903 		add	r3, ip, #9
 5146 0350 0EEBC30E 		add	lr, lr, r3, lsl #3
ARM GAS  C:\Temp\ccb7OYN5.s 			page 88


 5147 0354 5EF8080C 		ldr	r0, [lr, #-8]
 5148 0358 5EF8043C 		ldr	r3, [lr, #-4]
 5149 035c 0918     		adds	r1, r1, r0
 5150 035e 43F10003 		adc	r3, r3, #0
 5151 0362 4EF8081C 		str	r1, [lr, #-8]
 5152 0366 4EF8043C 		str	r3, [lr, #-4]
 5153 036a 4FF0000B 		mov	fp, #0
 5154 036e 7DE7     		b	.L568
 5155              	.L614:
 5156 0370 5B42     		rsbs	r3, r3, #0
 5157 0372 94E7     		b	.L570
 5158              	.L571:
 5159 0374 04F58051 		add	r1, r4, #4096
 5160 0378 D1F81014 		ldr	r1, [r1, #1040]
 5161 037c 9942     		cmp	r1, r3
 5162 037e 09DC     		bgt	.L573
 5163 0380 AAEB090A 		sub	r10, r10, r9
 5164 0384 8245     		cmp	r10, r0
 5165 0386 0FDA     		bge	.L574
 5166 0388 04F5C04C 		add	ip, r4, #24576
 5167 038c 4FF0010E 		mov	lr, #1
 5168 0390 8CF883E7 		strb	lr, [ip, #1923]
 5169              	.L573:
 5170 0394 9942     		cmp	r1, r3
 5171 0396 0EDD     		ble	.L575
 5172 0398 04F5C043 		add	r3, r4, #24576
 5173 039c 0021     		movs	r1, #0
 5174 039e 83F88117 		strb	r1, [r3, #1921]
 5175 03a2 4FF0020B 		mov	fp, #2
 5176 03a6 82E7     		b	.L572
 5177              	.L574:
 5178 03a8 04F5C04C 		add	ip, r4, #24576
 5179 03ac 4FF0020E 		mov	lr, #2
 5180 03b0 8CF883E7 		strb	lr, [ip, #1923]
 5181 03b4 EEE7     		b	.L573
 5182              	.L575:
 5183 03b6 04F5C043 		add	r3, r4, #24576
 5184 03ba 0021     		movs	r1, #0
 5185 03bc 83F88117 		strb	r1, [r3, #1921]
 5186 03c0 04F58053 		add	r3, r4, #4096
 5187 03c4 D3F81434 		ldr	r3, [r3, #1044]
 5188 03c8 002B     		cmp	r3, #0
 5189 03ca 3FF470AF 		beq	.L572
 5190 03ce 9DF80F10 		ldrb	r1, [sp, #15]	@ zero_extendqisi2
 5191 03d2 01FB03F3 		mul	r3, r1, r3
 5192 03d6 8342     		cmp	r3, r0
 5193 03d8 BFF469AF 		bcs	.L572
 5194 03dc 04F5C043 		add	r3, r4, #24576
 5195 03e0 0121     		movs	r1, #1
 5196 03e2 83F88117 		strb	r1, [r3, #1921]
 5197 03e6 4FF0020B 		mov	fp, #2
 5198 03ea 60E7     		b	.L572
 5199              	.L579:
 5200 03ec 0123     		movs	r3, #1
 5201 03ee 0193     		str	r3, [sp, #4]
 5202 03f0 0093     		str	r3, [sp]
 5203 03f2 4346     		mov	r3, r8
ARM GAS  C:\Temp\ccb7OYN5.s 			page 89


 5204 03f4 3246     		mov	r2, r6
 5205 03f6 2046     		mov	r0, r4
 5206 03f8 FFF7FEFF 		bl	VL53L1_dynamic_xtalk_correction_calc_new_xtalk
 5207 03fc BBF1020F 		cmp	fp, #2
 5208 0400 7FF453AE 		bne	.L562
 5209 0404 79E7     		b	.L580
 5210              	.L609:
 5211 0406 94F85130 		ldrb	r3, [r4, #81]	@ zero_extendqisi2
 5212 040a 04F58051 		add	r1, r4, #4096
 5213 040e 3233     		adds	r3, r3, #50
 5214 0410 01EB8303 		add	r3, r1, r3, lsl #2
 5215 0414 D3F83824 		ldr	r2, [r3, #1080]
 5216 0418 0132     		adds	r2, r2, #1
 5217 041a C3F83824 		str	r2, [r3, #1080]
 5218 041e D1F82834 		ldr	r3, [r1, #1064]
 5219 0422 9A42     		cmp	r2, r3
 5220 0424 00D3     		bcc	.L582
 5221 0426 0025     		movs	r5, #0
 5222              	.L582:
 5223 0428 012F     		cmp	r7, #1
 5224 042a 28D0     		beq	.L615
 5225 042c 04F58053 		add	r3, r4, #4096
 5226 0430 D3F8A412 		ldr	r1, [r3, #676]
 5227              	.L584:
 5228 0434 5DBB     		cbnz	r5, .L585
 5229 0436 0195     		str	r5, [sp, #4]
 5230 0438 0095     		str	r5, [sp]
 5231 043a 4346     		mov	r3, r8
 5232 043c 3246     		mov	r2, r6
 5233 043e 2046     		mov	r0, r4
 5234 0440 FFF7FEFF 		bl	VL53L1_dynamic_xtalk_correction_calc_new_xtalk
 5235 0444 04F5C043 		add	r3, r4, #24576
 5236 0448 0222     		movs	r2, #2
 5237 044a 83F88027 		strb	r2, [r3, #1920]
 5238 044e 94F85130 		ldrb	r3, [r4, #81]	@ zero_extendqisi2
 5239 0452 04F58052 		add	r2, r4, #4096
 5240 0456 04F5A254 		add	r4, r4, #5184
 5241 045a 03F10901 		add	r1, r3, #9
 5242 045e 04EBC104 		add	r4, r4, r1, lsl #3
 5243 0462 0020     		movs	r0, #0
 5244 0464 0021     		movs	r1, #0
 5245 0466 44E90201 		strd	r0, [r4, #-8]
 5246 046a 02EB8301 		add	r1, r2, r3, lsl #2
 5247 046e C1F83854 		str	r5, [r1, #1080]
 5248 0472 3233     		adds	r3, r3, #50
 5249 0474 02EB8302 		add	r2, r2, r3, lsl #2
 5250 0478 C2F83854 		str	r5, [r2, #1080]
 5251 047c 18E6     		b	.L581
 5252              	.L615:
 5253 047e 94F8D431 		ldrb	r3, [r4, #468]	@ zero_extendqisi2
 5254 0482 03F2A143 		addw	r3, r3, #1185
 5255 0486 04EB8303 		add	r3, r4, r3, lsl #2
 5256 048a D969     		ldr	r1, [r3, #28]
 5257 048c D2E7     		b	.L584
 5258              	.L585:
 5259 048e 0123     		movs	r3, #1
 5260 0490 0193     		str	r3, [sp, #4]
ARM GAS  C:\Temp\ccb7OYN5.s 			page 90


 5261 0492 0023     		movs	r3, #0
 5262 0494 0093     		str	r3, [sp]
 5263 0496 4346     		mov	r3, r8
 5264 0498 3246     		mov	r2, r6
 5265 049a 2046     		mov	r0, r4
 5266 049c FFF7FEFF 		bl	VL53L1_dynamic_xtalk_correction_calc_new_xtalk
 5267 04a0 06E6     		b	.L581
 5268              	.L617:
 5269 04a2 00BF     		.align	2
 5270              	.L616:
 5271 04a4 FFFF0300 		.word	262143
 5273              		.ident	"GCC: (xPack GNU Arm Embedded GCC x86_64) 12.3.1 20230626"
ARM GAS  C:\Temp\ccb7OYN5.s 			page 91

