ARM GAS  C:\Temp\ccsTM43M.s 			page 1


   1              		.cpu cortex-m4
   2              		.arch armv7e-m
   3              		.fpu fpv4-sp-d16
   4              		.eabi_attribute 27, 1
   5              		.eabi_attribute 28, 1
   6              		.eabi_attribute 20, 1
   7              		.eabi_attribute 21, 1
   8              		.eabi_attribute 23, 3
   9              		.eabi_attribute 24, 1
  10              		.eabi_attribute 25, 1
  11              		.eabi_attribute 26, 1
  12              		.eabi_attribute 30, 1
  13              		.eabi_attribute 34, 1
  14              		.eabi_attribute 18, 4
  15              		.file	"vl53l1_hist_core.c"
  16              		.text
  17              		.section	.text.VL53L1_f_013,"ax",%progbits
  18              		.align	1
  19              		.global	VL53L1_f_013
  20              		.syntax unified
  21              		.thumb
  22              		.thumb_func
  24              	VL53L1_f_013:
  25              		@ args = 8, pretend = 0, frame = 0
  26              		@ frame_needed = 0, uses_anonymous_args = 0
  27 0000 F0B5     		push	{r4, r5, r6, r7, lr}
  28 0002 069C     		ldr	r4, [sp, #24]
  29 0004 0025     		movs	r5, #0
  30 0006 1D60     		str	r5, [r3]
  31 0008 861D     		adds	r6, r0, #6
  32 000a 52F82670 		ldr	r7, [r2, r6, lsl #2]
  33 000e 059E     		ldr	r6, [sp, #20]
  34 0010 3760     		str	r7, [r6]
  35 0012 2560     		str	r5, [r4]
  36 0014 AE46     		mov	lr, r5
  37 0016 0EE0     		b	.L2
  38              	.L3:
  39 0018 8E45     		cmp	lr, r1
  40 001a 08D9     		bls	.L4
  41 001c 5FFA8CFC 		uxtb	ip, ip
  42 0020 0CF1060C 		add	ip, ip, #6
  43 0024 52F82C50 		ldr	r5, [r2, ip, lsl #2]
  44 0028 2668     		ldr	r6, [r4]
  45 002a 3544     		add	r5, r5, r6
  46 002c 2560     		str	r5, [r4]
  47              	.L4:
  48 002e 0EF1010E 		add	lr, lr, #1
  49 0032 5FFA8EFE 		uxtb	lr, lr
  50              	.L2:
  51 0036 BEEB410F 		cmp	lr, r1, lsl #1
  52 003a 15DC     		bgt	.L7
  53 003c 00EB0E0C 		add	ip, r0, lr
  54 0040 957A     		ldrb	r5, [r2, #10]	@ zero_extendqisi2
  55 0042 AC44     		add	ip, ip, r5
  56 0044 ACEB010C 		sub	ip, ip, r1
  57 0048 9CFBF5F6 		sdiv	r6, ip, r5
  58 004c 05FB16CC 		mls	ip, r5, r6, ip
ARM GAS  C:\Temp\ccsTM43M.s 			page 2


  59 0050 8E45     		cmp	lr, r1
  60 0052 E1D2     		bcs	.L3
  61 0054 5FFA8CFC 		uxtb	ip, ip
  62 0058 0CF1060C 		add	ip, ip, #6
  63 005c 52F82C50 		ldr	r5, [r2, ip, lsl #2]
  64 0060 1E68     		ldr	r6, [r3]
  65 0062 3544     		add	r5, r5, r6
  66 0064 1D60     		str	r5, [r3]
  67 0066 E2E7     		b	.L4
  68              	.L7:
  69 0068 F0BD     		pop	{r4, r5, r6, r7, pc}
  71              		.section	.text.VL53L1_f_011,"ax",%progbits
  72              		.align	1
  73              		.global	VL53L1_f_011
  74              		.syntax unified
  75              		.thumb
  76              		.thumb_func
  78              	VL53L1_f_011:
  79              		@ args = 8, pretend = 0, frame = 0
  80              		@ frame_needed = 0, uses_anonymous_args = 0
  81 0000 2DE9F041 		push	{r4, r5, r6, r7, r8, lr}
  82 0004 069C     		ldr	r4, [sp, #24]
  83 0006 9DF81C60 		ldrb	r6, [sp, #28]	@ zero_extendqisi2
  84 000a E081     		strh	r0, [r4, #14]	@ movhi
  85 000c 6182     		strh	r1, [r4, #18]	@ movhi
  86 000e A261     		str	r2, [r4, #24]
  87 0010 E382     		strh	r3, [r4, #22]	@ movhi
  88 0012 31B1     		cbz	r1, .L12
  89 0014 0025     		movs	r5, #0
  90              	.L9:
  91 0016 002A     		cmp	r2, #0
  92 0018 3FD0     		beq	.L13
  93 001a 2DB1     		cbz	r5, .L15
  94              	.L10:
  95 001c 2846     		mov	r0, r5
  96 001e BDE8F081 		pop	{r4, r5, r6, r7, r8, pc}
  97              	.L12:
  98 0022 6FF00E05 		mvn	r5, #14
  99 0026 F6E7     		b	.L9
 100              	.L15:
 101 0028 0846     		mov	r0, r1
 102 002a FFF7FEFF 		bl	VL53L1_calc_pll_period_us
 103 002e 8046     		mov	r8, r0
 104 0030 A769     		ldr	r7, [r4, #24]
 105 0032 0137     		adds	r7, r7, #1
 106 0034 3B46     		mov	r3, r7
 107 0036 4FF40062 		mov	r2, #2048
 108 003a E189     		ldrh	r1, [r4, #14]
 109 003c FFF7FEFF 		bl	VL53L1_duration_maths
 110 0040 E061     		str	r0, [r4, #28]
 111 0042 217C     		ldrb	r1, [r4, #16]	@ zero_extendqisi2
 112 0044 3B46     		mov	r3, r7
 113 0046 4FF40062 		mov	r2, #2048
 114 004a 0901     		lsls	r1, r1, #4
 115 004c 4046     		mov	r0, r8
 116 004e FFF7FEFF 		bl	VL53L1_duration_maths
 117 0052 2062     		str	r0, [r4, #32]
ARM GAS  C:\Temp\ccsTM43M.s 			page 3


 118 0054 E169     		ldr	r1, [r4, #28]
 119 0056 E06A     		ldr	r0, [r4, #44]
 120 0058 FFF7FEFF 		bl	VL53L1_rate_maths
 121 005c 2086     		strh	r0, [r4, #48]	@ movhi
 122 005e 216A     		ldr	r1, [r4, #32]
 123 0060 E06A     		ldr	r0, [r4, #44]
 124 0062 FFF7FEFF 		bl	VL53L1_rate_maths
 125 0066 6086     		strh	r0, [r4, #50]	@ movhi
 126 0068 216A     		ldr	r1, [r4, #32]
 127 006a 606A     		ldr	r0, [r4, #36]
 128 006c FFF7FEFF 		bl	VL53L1_rate_maths
 129 0070 A086     		strh	r0, [r4, #52]	@ movhi
 130 0072 218E     		ldrh	r1, [r4, #48]
 131 0074 0144     		add	r1, r1, r0
 132 0076 012E     		cmp	r6, #1
 133 0078 01D9     		bls	.L11
 134 007a B1FBF6F1 		udiv	r1, r1, r6
 135              	.L11:
 136 007e 4FF6FF73 		movw	r3, #65535
 137 0082 E28A     		ldrh	r2, [r4, #22]
 138 0084 0620     		movs	r0, #6
 139 0086 FFF7FEFF 		bl	VL53L1_rate_per_spad_maths
 140 008a E086     		strh	r0, [r4, #54]	@ movhi
 141 008c E269     		ldr	r2, [r4, #28]
 142 008e E18A     		ldrh	r1, [r4, #22]
 143 0090 E06A     		ldr	r0, [r4, #44]
 144 0092 FFF7FEFF 		bl	VL53L1_events_per_spad_maths
 145 0096 A063     		str	r0, [r4, #56]
 146 0098 C0E7     		b	.L10
 147              	.L13:
 148 009a 6FF00E05 		mvn	r5, #14
 149 009e BDE7     		b	.L10
 151              		.section	.text.VL53L1_f_012,"ax",%progbits
 152              		.align	1
 153              		.global	VL53L1_f_012
 154              		.syntax unified
 155              		.thumb
 156              		.thumb_func
 158              	VL53L1_f_012:
 159              		@ args = 0, pretend = 0, frame = 0
 160              		@ frame_needed = 0, uses_anonymous_args = 0
 161 0000 70B5     		push	{r4, r5, r6, lr}
 162 0002 82B0     		sub	sp, sp, #8
 163 0004 0546     		mov	r5, r0
 164 0006 0E46     		mov	r6, r1
 165 0008 1446     		mov	r4, r2
 166 000a 0191     		str	r1, [sp, #4]
 167 000c 0090     		str	r0, [sp]
 168 000e 0023     		movs	r3, #0
 169 0010 928A     		ldrh	r2, [r2, #20]
 170 0012 E18F     		ldrh	r1, [r4, #62]
 171 0014 608A     		ldrh	r0, [r4, #18]
 172 0016 FFF7FEFF 		bl	VL53L1_range_maths
 173 001a A4F84400 		strh	r0, [r4, #68]	@ movhi
 174 001e 0196     		str	r6, [sp, #4]
 175 0020 0095     		str	r5, [sp]
 176 0022 0023     		movs	r3, #0
ARM GAS  C:\Temp\ccsTM43M.s 			page 4


 177 0024 A28A     		ldrh	r2, [r4, #20]
 178 0026 B4F84010 		ldrh	r1, [r4, #64]
 179 002a 608A     		ldrh	r0, [r4, #18]
 180 002c FFF7FEFF 		bl	VL53L1_range_maths
 181 0030 A4F84600 		strh	r0, [r4, #70]	@ movhi
 182 0034 0196     		str	r6, [sp, #4]
 183 0036 0095     		str	r5, [sp]
 184 0038 0023     		movs	r3, #0
 185 003a A28A     		ldrh	r2, [r4, #20]
 186 003c B4F84210 		ldrh	r1, [r4, #66]
 187 0040 608A     		ldrh	r0, [r4, #18]
 188 0042 FFF7FEFF 		bl	VL53L1_range_maths
 189 0046 A4F84800 		strh	r0, [r4, #72]	@ movhi
 190 004a 02B0     		add	sp, sp, #8
 191              		@ sp needed
 192 004c 70BD     		pop	{r4, r5, r6, pc}
 194              		.section	.text.VL53L1_f_037,"ax",%progbits
 195              		.align	1
 196              		.global	VL53L1_f_037
 197              		.syntax unified
 198              		.thumb
 199              		.thumb_func
 201              	VL53L1_f_037:
 202              		@ args = 0, pretend = 0, frame = 0
 203              		@ frame_needed = 0, uses_anonymous_args = 0
 204              		@ link register save eliminated.
 205 0000 0023     		movs	r3, #0
 206 0002 08E0     		b	.L19
 207              	.L20:
 208 0004 03F1060C 		add	ip, r3, #6
 209 0008 50F82C20 		ldr	r2, [r0, ip, lsl #2]
 210 000c 521A     		subs	r2, r2, r1
 211 000e 40F82C20 		str	r2, [r0, ip, lsl #2]
 212 0012 0133     		adds	r3, r3, #1
 213 0014 DBB2     		uxtb	r3, r3
 214              	.L19:
 215 0016 827A     		ldrb	r2, [r0, #10]	@ zero_extendqisi2
 216 0018 9A42     		cmp	r2, r3
 217 001a F3D8     		bhi	.L20
 218 001c 7047     		bx	lr
 220              		.section	.text.VL53L1_f_038,"ax",%progbits
 221              		.align	1
 222              		.global	VL53L1_f_038
 223              		.syntax unified
 224              		.thumb
 225              		.thumb_func
 227              	VL53L1_f_038:
 228              		@ args = 0, pretend = 0, frame = 0
 229              		@ frame_needed = 0, uses_anonymous_args = 0
 230 0000 38B5     		push	{r3, r4, r5, lr}
 231 0002 0446     		mov	r4, r0
 232 0004 0D46     		mov	r5, r1
 233 0006 90F88400 		ldrb	r0, [r0, #132]	@ zero_extendqisi2
 234 000a FFF7FEFF 		bl	VL53L1_decode_vcsel_period
 235 000e C302     		lsls	r3, r0, #11
 236 0010 05D0     		beq	.L22
 237 0012 B5F89C20 		ldrh	r2, [r5, #156]
ARM GAS  C:\Temp\ccsTM43M.s 			page 5


 238 0016 B2FBF3F1 		udiv	r1, r2, r3
 239 001a 03FB1123 		mls	r3, r3, r1, r2
 240              	.L22:
 241 001e B4F89C00 		ldrh	r0, [r4, #156]
 242 0022 C01A     		subs	r0, r0, r3
 243 0024 0028     		cmp	r0, #0
 244 0026 08DD     		ble	.L23
 245 0028 10F58060 		adds	r0, r0, #1024
 246 002c 02D4     		bmi	.L28
 247              	.L24:
 248 002e 40F3C720 		sbfx	r0, r0, #11, #8
 249              	.L25:
 250 0032 38BD     		pop	{r3, r4, r5, pc}
 251              	.L28:
 252 0034 00F2FF70 		addw	r0, r0, #2047
 253 0038 F9E7     		b	.L24
 254              	.L23:
 255 003a B0F58060 		subs	r0, r0, #1024
 256 003e 02D4     		bmi	.L29
 257              	.L26:
 258 0040 40F3C720 		sbfx	r0, r0, #11, #8
 259 0044 F5E7     		b	.L25
 260              	.L29:
 261 0046 00F2FF70 		addw	r0, r0, #2047
 262 004a F9E7     		b	.L26
 264              		.section	.text.VL53L1_f_004,"ax",%progbits
 265              		.align	1
 266              		.global	VL53L1_f_004
 267              		.syntax unified
 268              		.thumb
 269              		.thumb_func
 271              	VL53L1_f_004:
 272              		@ args = 0, pretend = 0, frame = 0
 273              		@ frame_needed = 0, uses_anonymous_args = 0
 274 0000 F8B5     		push	{r3, r4, r5, r6, r7, lr}
 275 0002 0646     		mov	r6, r0
 276 0004 0D46     		mov	r5, r1
 277 0006 1446     		mov	r4, r2
 278 0008 AC22     		movs	r2, #172
 279 000a 2046     		mov	r0, r4
 280 000c FFF7FEFF 		bl	memcpy
 281 0010 0023     		movs	r3, #0
 282 0012 05E0     		b	.L31
 283              	.L32:
 284 0014 9A1D     		adds	r2, r3, #6
 285 0016 0021     		movs	r1, #0
 286 0018 44F82210 		str	r1, [r4, r2, lsl #2]
 287 001c 0133     		adds	r3, r3, #1
 288 001e DBB2     		uxtb	r3, r3
 289              	.L31:
 290 0020 627A     		ldrb	r2, [r4, #9]	@ zero_extendqisi2
 291 0022 9A42     		cmp	r2, r3
 292 0024 F6D8     		bhi	.L32
 293 0026 3146     		mov	r1, r6
 294 0028 2846     		mov	r0, r5
 295 002a FFF7FEFF 		bl	VL53L1_f_038
 296 002e B37A     		ldrb	r3, [r6, #10]	@ zero_extendqisi2
ARM GAS  C:\Temp\ccsTM43M.s 			page 6


 297 0030 A97A     		ldrb	r1, [r5, #10]	@ zero_extendqisi2
 298 0032 8B42     		cmp	r3, r1
 299 0034 00D2     		bcs	.L33
 300 0036 1946     		mov	r1, r3
 301              	.L33:
 302 0038 0022     		movs	r2, #0
 303 003a 18E0     		b	.L34
 304              	.L35:
 305 003c 95F90A70 		ldrsb	r7, [r5, #10]
 306 0040 40FA82F3 		sxtab	r3, r0, r2
 307 0044 3B44     		add	r3, r3, r7
 308 0046 93FBF7FC 		sdiv	ip, r3, r7
 309 004a 07FB1C33 		mls	r3, r7, ip, r3
 310 004e 5BB2     		sxtb	r3, r3
 311 0050 1AE0     		b	.L36
 312              	.L37:
 313 0052 9F1D     		adds	r7, r3, #6
 314 0054 4FF0000E 		mov	lr, #0
 315 0058 45F827E0 		str	lr, [r5, r7, lsl #2]
 316              	.L38:
 317 005c 0CF1060C 		add	ip, ip, #6
 318 0060 56F82C70 		ldr	r7, [r6, ip, lsl #2]
 319 0064 0633     		adds	r3, r3, #6
 320 0066 44F82370 		str	r7, [r4, r3, lsl #2]
 321 006a 0132     		adds	r2, r2, #1
 322 006c D2B2     		uxtb	r2, r2
 323              	.L34:
 324 006e 8A42     		cmp	r2, r1
 325 0070 1CD2     		bcs	.L41
 326 0072 0028     		cmp	r0, #0
 327 0074 E2DB     		blt	.L35
 328 0076 40FA82F3 		sxtab	r3, r0, r2
 329 007a 95F90A70 		ldrsb	r7, [r5, #10]
 330 007e 93FBF7FC 		sdiv	ip, r3, r7
 331 0082 07FB1C33 		mls	r3, r7, ip, r3
 332 0086 5BB2     		sxtb	r3, r3
 333              	.L36:
 334 0088 DBB2     		uxtb	r3, r3
 335 008a 9F1D     		adds	r7, r3, #6
 336 008c 55F82770 		ldr	r7, [r5, r7, lsl #2]
 337 0090 9446     		mov	ip, r2
 338 0092 02F1060E 		add	lr, r2, #6
 339 0096 56F82EE0 		ldr	lr, [r6, lr, lsl #2]
 340 009a 7745     		cmp	r7, lr
 341 009c D9DD     		ble	.L37
 342 009e A7EB0E07 		sub	r7, r7, lr
 343 00a2 03F1060E 		add	lr, r3, #6
 344 00a6 45F82E70 		str	r7, [r5, lr, lsl #2]
 345 00aa D7E7     		b	.L38
 346              	.L41:
 347 00ac F8BD     		pop	{r3, r4, r5, r6, r7, pc}
 349              		.section	.text.VL53L1_f_039,"ax",%progbits
 350              		.align	1
 351              		.global	VL53L1_f_039
 352              		.syntax unified
 353              		.thumb
 354              		.thumb_func
ARM GAS  C:\Temp\ccsTM43M.s 			page 7


 356              	VL53L1_f_039:
 357              		@ args = 0, pretend = 0, frame = 32
 358              		@ frame_needed = 0, uses_anonymous_args = 0
 359 0000 F0B5     		push	{r4, r5, r6, r7, lr}
 360 0002 89B0     		sub	sp, sp, #36
 361 0004 0546     		mov	r5, r0
 362 0006 0C46     		mov	r4, r1
 363 0008 AC22     		movs	r2, #172
 364 000a 0146     		mov	r1, r0
 365 000c 2046     		mov	r0, r4
 366 000e FFF7FEFF 		bl	memcpy
 367 0012 0023     		movs	r3, #0
 368 0014 A372     		strb	r3, [r4, #10]
 369 0016 04E0     		b	.L43
 370              	.L44:
 371 0018 E218     		adds	r2, r4, r3
 372 001a 1021     		movs	r1, #16
 373 001c 1173     		strb	r1, [r2, #12]
 374 001e 0133     		adds	r3, r3, #1
 375 0020 DBB2     		uxtb	r3, r3
 376              	.L43:
 377 0022 052B     		cmp	r3, #5
 378 0024 F8D9     		bls	.L44
 379 0026 0023     		movs	r3, #0
 380 0028 05E0     		b	.L45
 381              	.L46:
 382 002a 9A1D     		adds	r2, r3, #6
 383 002c 0021     		movs	r1, #0
 384 002e 44F82210 		str	r1, [r4, r2, lsl #2]
 385 0032 0133     		adds	r3, r3, #1
 386 0034 DBB2     		uxtb	r3, r3
 387              	.L45:
 388 0036 627A     		ldrb	r2, [r4, #9]	@ zero_extendqisi2
 389 0038 9A42     		cmp	r2, r3
 390 003a F6D8     		bhi	.L46
 391 003c 0023     		movs	r3, #0
 392 003e 09E0     		b	.L47
 393              	.L48:
 394 0040 03F12002 		add	r2, r3, #32
 395 0044 6A44     		add	r2, sp, r2
 396 0046 0021     		movs	r1, #0
 397 0048 02F8101C 		strb	r1, [r2, #-16]
 398 004c 02F8201C 		strb	r1, [r2, #-32]
 399 0050 0133     		adds	r3, r3, #1
 400 0052 DBB2     		uxtb	r3, r3
 401              	.L47:
 402 0054 0F2B     		cmp	r3, #15
 403 0056 F3D9     		bls	.L48
 404 0058 4FF0000C 		mov	ip, #0
 405 005c 6746     		mov	r7, ip
 406 005e 14E0     		b	.L49
 407              	.L52:
 408 0060 0EEB0302 		add	r2, lr, r3
 409 0064 0632     		adds	r2, r2, #6
 410 0066 54F82210 		ldr	r1, [r4, r2, lsl #2]
 411 006a 03EB8600 		add	r0, r3, r6, lsl #2
 412 006e 0630     		adds	r0, r0, #6
ARM GAS  C:\Temp\ccsTM43M.s 			page 8


 413 0070 55F82000 		ldr	r0, [r5, r0, lsl #2]
 414 0074 0144     		add	r1, r1, r0
 415 0076 44F82210 		str	r1, [r4, r2, lsl #2]
 416 007a 0133     		adds	r3, r3, #1
 417 007c DBB2     		uxtb	r3, r3
 418              	.L51:
 419 007e 032B     		cmp	r3, #3
 420 0080 EED9     		bls	.L52
 421 0082 0CF1010C 		add	ip, ip, #1
 422 0086 5FFA8CFC 		uxtb	ip, ip
 423              	.L49:
 424 008a BCF1050F 		cmp	ip, #5
 425 008e 1CD8     		bhi	.L66
 426 0090 6646     		mov	r6, ip
 427 0092 05EB0C03 		add	r3, r5, ip
 428 0096 1B7B     		ldrb	r3, [r3, #12]	@ zero_extendqisi2
 429 0098 03F12002 		add	r2, r3, #32
 430 009c 6A44     		add	r2, sp, r2
 431 009e 12F8202C 		ldrb	r2, [r2, #-32]	@ zero_extendqisi2
 432 00a2 4AB9     		cbnz	r2, .L50
 433 00a4 B800     		lsls	r0, r7, #2
 434 00a6 03F12001 		add	r1, r3, #32
 435 00aa 6944     		add	r1, sp, r1
 436 00ac 01F8100C 		strb	r0, [r1, #-16]
 437 00b0 E119     		adds	r1, r4, r7
 438 00b2 0B73     		strb	r3, [r1, #12]
 439 00b4 0137     		adds	r7, r7, #1
 440 00b6 FFB2     		uxtb	r7, r7
 441              	.L50:
 442 00b8 2033     		adds	r3, r3, #32
 443 00ba 6B44     		add	r3, sp, r3
 444 00bc 0132     		adds	r2, r2, #1
 445 00be 03F8202C 		strb	r2, [r3, #-32]
 446 00c2 13F810EC 		ldrb	lr, [r3, #-16]	@ zero_extendqisi2
 447 00c6 0023     		movs	r3, #0
 448 00c8 D9E7     		b	.L51
 449              	.L66:
 450 00ca 0023     		movs	r3, #0
 451 00cc 04E0     		b	.L54
 452              	.L55:
 453 00ce E218     		adds	r2, r4, r3
 454 00d0 0021     		movs	r1, #0
 455 00d2 9174     		strb	r1, [r2, #18]
 456              	.L56:
 457 00d4 0133     		adds	r3, r3, #1
 458 00d6 DBB2     		uxtb	r3, r3
 459              	.L54:
 460 00d8 052B     		cmp	r3, #5
 461 00da 0AD8     		bhi	.L67
 462 00dc E218     		adds	r2, r4, r3
 463 00de 127B     		ldrb	r2, [r2, #12]	@ zero_extendqisi2
 464 00e0 0F2A     		cmp	r2, #15
 465 00e2 F4D8     		bhi	.L55
 466 00e4 2032     		adds	r2, r2, #32
 467 00e6 6A44     		add	r2, sp, r2
 468 00e8 12F8201C 		ldrb	r1, [r2, #-32]	@ zero_extendqisi2
 469 00ec E218     		adds	r2, r4, r3
ARM GAS  C:\Temp\ccsTM43M.s 			page 9


 470 00ee 9174     		strb	r1, [r2, #18]
 471 00f0 F0E7     		b	.L56
 472              	.L67:
 473 00f2 BF00     		lsls	r7, r7, #2
 474 00f4 A772     		strb	r7, [r4, #10]
 475 00f6 0020     		movs	r0, #0
 476 00f8 11E0     		b	.L58
 477              	.L61:
 478 00fa B118     		adds	r1, r6, r2
 479 00fc 0631     		adds	r1, r1, #6
 480 00fe 54F82130 		ldr	r3, [r4, r1, lsl #2]
 481 0102 03EB5503 		add	r3, r3, r5, lsr #1
 482 0106 44F82130 		str	r3, [r4, r1, lsl #2]
 483 010a 93FBF5F3 		sdiv	r3, r3, r5
 484 010e 44F82130 		str	r3, [r4, r1, lsl #2]
 485 0112 0132     		adds	r2, r2, #1
 486 0114 D2B2     		uxtb	r2, r2
 487              	.L60:
 488 0116 032A     		cmp	r2, #3
 489 0118 EFD9     		bls	.L61
 490              	.L59:
 491 011a 0130     		adds	r0, r0, #1
 492 011c C0B2     		uxtb	r0, r0
 493              	.L58:
 494 011e 0F28     		cmp	r0, #15
 495 0120 0DD8     		bhi	.L68
 496 0122 00F12003 		add	r3, r0, #32
 497 0126 6B44     		add	r3, sp, r3
 498 0128 13F8205C 		ldrb	r5, [r3, #-32]	@ zero_extendqisi2
 499 012c 002D     		cmp	r5, #0
 500 012e F4D0     		beq	.L59
 501 0130 00F12003 		add	r3, r0, #32
 502 0134 6B44     		add	r3, sp, r3
 503 0136 13F8106C 		ldrb	r6, [r3, #-16]	@ zero_extendqisi2
 504 013a 0022     		movs	r2, #0
 505 013c EBE7     		b	.L60
 506              	.L68:
 507 013e 0023     		movs	r3, #0
 508 0140 E372     		strb	r3, [r4, #11]
 509 0142 9DF80730 		ldrb	r3, [sp, #7]	@ zero_extendqisi2
 510 0146 13B9     		cbnz	r3, .L63
 511 0148 9DF80F30 		ldrb	r3, [sp, #15]	@ zero_extendqisi2
 512 014c 0BB1     		cbz	r3, .L64
 513              	.L63:
 514 014e 0423     		movs	r3, #4
 515 0150 E372     		strb	r3, [r4, #11]
 516              	.L64:
 517 0152 0020     		movs	r0, #0
 518 0154 09B0     		add	sp, sp, #36
 519              		@ sp needed
 520 0156 F0BD     		pop	{r4, r5, r6, r7, pc}
 522              		.ident	"GCC: (xPack GNU Arm Embedded GCC x86_64) 12.3.1 20230626"
ARM GAS  C:\Temp\ccsTM43M.s 			page 10

