ARM GAS  C:\Temp\ccBVImra.s 			page 1


   1              		.cpu cortex-m4
   2              		.arch armv7e-m
   3              		.fpu fpv4-sp-d16
   4              		.eabi_attribute 27, 1
   5              		.eabi_attribute 28, 1
   6              		.eabi_attribute 20, 1
   7              		.eabi_attribute 21, 1
   8              		.eabi_attribute 23, 3
   9              		.eabi_attribute 24, 1
  10              		.eabi_attribute 25, 1
  11              		.eabi_attribute 26, 1
  12              		.eabi_attribute 30, 1
  13              		.eabi_attribute 34, 1
  14              		.eabi_attribute 18, 4
  15              		.file	"vl53l1_platform.c"
  16              		.text
  17              		.section	.text.VL53L1_Delay,"ax",%progbits
  18              		.align	1
  19              		.syntax unified
  20              		.thumb
  21              		.thumb_func
  23              	VL53L1_Delay:
  24              		@ args = 0, pretend = 0, frame = 0
  25              		@ frame_needed = 0, uses_anonymous_args = 0
  26 0000 70B5     		push	{r4, r5, r6, lr}
  27 0002 0446     		mov	r4, r0
  28 0004 0E46     		mov	r6, r1
  29 0006 4369     		ldr	r3, [r0, #20]
  30 0008 9847     		blx	r3
  31 000a 0546     		mov	r5, r0
  32              	.L2:
  33 000c 6369     		ldr	r3, [r4, #20]
  34 000e 9847     		blx	r3
  35 0010 401B     		subs	r0, r0, r5
  36 0012 B042     		cmp	r0, r6
  37 0014 FAD3     		bcc	.L2
  38 0016 0020     		movs	r0, #0
  39 0018 70BD     		pop	{r4, r5, r6, pc}
  41              		.section	.text._I2CWrite,"ax",%progbits
  42              		.align	1
  43              		.global	_I2CWrite
  44              		.syntax unified
  45              		.thumb
  46              		.thumb_func
  48              	_I2CWrite:
  49              		@ args = 0, pretend = 0, frame = 0
  50              		@ frame_needed = 0, uses_anonymous_args = 0
  51 0000 08B5     		push	{r3, lr}
  52 0002 C368     		ldr	r3, [r0, #12]
  53 0004 92B2     		uxth	r2, r2
  54 0006 0089     		ldrh	r0, [r0, #8]
  55 0008 9847     		blx	r3
  56 000a 08BD     		pop	{r3, pc}
  58              		.section	.text._I2CRead,"ax",%progbits
  59              		.align	1
  60              		.global	_I2CRead
  61              		.syntax unified
ARM GAS  C:\Temp\ccBVImra.s 			page 2


  62              		.thumb
  63              		.thumb_func
  65              	_I2CRead:
  66              		@ args = 0, pretend = 0, frame = 0
  67              		@ frame_needed = 0, uses_anonymous_args = 0
  68 0000 08B5     		push	{r3, lr}
  69 0002 0369     		ldr	r3, [r0, #16]
  70 0004 92B2     		uxth	r2, r2
  71 0006 0089     		ldrh	r0, [r0, #8]
  72 0008 9847     		blx	r3
  73 000a 08BD     		pop	{r3, pc}
  75              		.section	.text.VL53L1_WriteMulti,"ax",%progbits
  76              		.align	1
  77              		.global	VL53L1_WriteMulti
  78              		.syntax unified
  79              		.thumb
  80              		.thumb_func
  82              	VL53L1_WriteMulti:
  83              		@ args = 0, pretend = 0, frame = 0
  84              		@ frame_needed = 0, uses_anonymous_args = 0
  85 0000 FF2B     		cmp	r3, #255
  86 0002 15D8     		bhi	.L10
  87 0004 70B5     		push	{r4, r5, r6, lr}
  88 0006 0646     		mov	r6, r0
  89 0008 8C46     		mov	ip, r1
  90 000a 1146     		mov	r1, r2
  91 000c 1C46     		mov	r4, r3
  92 000e 0B4D     		ldr	r5, .L16
  93 0010 4FEA1C23 		lsr	r3, ip, #8
  94 0014 2B70     		strb	r3, [r5]
  95 0016 85F801C0 		strb	ip, [r5, #1]
  96 001a 2246     		mov	r2, r4
  97 001c A81C     		adds	r0, r5, #2
  98 001e FFF7FEFF 		bl	memcpy
  99 0022 A21C     		adds	r2, r4, #2
 100 0024 2946     		mov	r1, r5
 101 0026 3046     		mov	r0, r6
 102 0028 FFF7FEFF 		bl	_I2CWrite
 103 002c 18B9     		cbnz	r0, .L11
 104              	.L9:
 105 002e 70BD     		pop	{r4, r5, r6, pc}
 106              	.L10:
 107 0030 6FF00300 		mvn	r0, #3
 108 0034 7047     		bx	lr
 109              	.L11:
 110 0036 6FF00C00 		mvn	r0, #12
 111 003a F8E7     		b	.L9
 112              	.L17:
 113              		.align	2
 114              	.L16:
 115 003c 00000000 		.word	_I2CBuffer
 117              		.section	.text.VL53L1_ReadMulti,"ax",%progbits
 118              		.align	1
 119              		.global	VL53L1_ReadMulti
 120              		.syntax unified
 121              		.thumb
 122              		.thumb_func
ARM GAS  C:\Temp\ccBVImra.s 			page 3


 124              	VL53L1_ReadMulti:
 125              		@ args = 0, pretend = 0, frame = 0
 126              		@ frame_needed = 0, uses_anonymous_args = 0
 127 0000 70B5     		push	{r4, r5, r6, lr}
 128 0002 0446     		mov	r4, r0
 129 0004 8C46     		mov	ip, r1
 130 0006 1546     		mov	r5, r2
 131 0008 1E46     		mov	r6, r3
 132 000a 0B49     		ldr	r1, .L23
 133 000c 4FEA1C23 		lsr	r3, ip, #8
 134 0010 0B70     		strb	r3, [r1]
 135 0012 81F801C0 		strb	ip, [r1, #1]
 136 0016 0222     		movs	r2, #2
 137 0018 FFF7FEFF 		bl	_I2CWrite
 138 001c 30B9     		cbnz	r0, .L20
 139 001e 3246     		mov	r2, r6
 140 0020 2946     		mov	r1, r5
 141 0022 2046     		mov	r0, r4
 142 0024 FFF7FEFF 		bl	_I2CRead
 143 0028 18B9     		cbnz	r0, .L21
 144              	.L19:
 145 002a 70BD     		pop	{r4, r5, r6, pc}
 146              	.L20:
 147 002c 6FF00C00 		mvn	r0, #12
 148 0030 FBE7     		b	.L19
 149              	.L21:
 150 0032 6FF00C00 		mvn	r0, #12
 151 0036 F8E7     		b	.L19
 152              	.L24:
 153              		.align	2
 154              	.L23:
 155 0038 00000000 		.word	_I2CBuffer
 157              		.section	.text.VL53L1_WrByte,"ax",%progbits
 158              		.align	1
 159              		.global	VL53L1_WrByte
 160              		.syntax unified
 161              		.thumb
 162              		.thumb_func
 164              	VL53L1_WrByte:
 165              		@ args = 0, pretend = 0, frame = 0
 166              		@ frame_needed = 0, uses_anonymous_args = 0
 167 0000 08B5     		push	{r3, lr}
 168 0002 0B46     		mov	r3, r1
 169 0004 0749     		ldr	r1, .L30
 170 0006 4FEA132C 		lsr	ip, r3, #8
 171 000a 81F800C0 		strb	ip, [r1]
 172 000e 4B70     		strb	r3, [r1, #1]
 173 0010 8A70     		strb	r2, [r1, #2]
 174 0012 0322     		movs	r2, #3
 175 0014 FFF7FEFF 		bl	_I2CWrite
 176 0018 00B9     		cbnz	r0, .L29
 177              	.L26:
 178 001a 08BD     		pop	{r3, pc}
 179              	.L29:
 180 001c 6FF00C00 		mvn	r0, #12
 181 0020 FBE7     		b	.L26
 182              	.L31:
ARM GAS  C:\Temp\ccBVImra.s 			page 4


 183 0022 00BF     		.align	2
 184              	.L30:
 185 0024 00000000 		.word	_I2CBuffer
 187              		.section	.text.VL53L1_WrWord,"ax",%progbits
 188              		.align	1
 189              		.global	VL53L1_WrWord
 190              		.syntax unified
 191              		.thumb
 192              		.thumb_func
 194              	VL53L1_WrWord:
 195              		@ args = 0, pretend = 0, frame = 0
 196              		@ frame_needed = 0, uses_anonymous_args = 0
 197 0000 08B5     		push	{r3, lr}
 198 0002 0B46     		mov	r3, r1
 199 0004 0849     		ldr	r1, .L37
 200 0006 4FEA132C 		lsr	ip, r3, #8
 201 000a 81F800C0 		strb	ip, [r1]
 202 000e 4B70     		strb	r3, [r1, #1]
 203 0010 130A     		lsrs	r3, r2, #8
 204 0012 8B70     		strb	r3, [r1, #2]
 205 0014 CA70     		strb	r2, [r1, #3]
 206 0016 0422     		movs	r2, #4
 207 0018 FFF7FEFF 		bl	_I2CWrite
 208 001c 00B9     		cbnz	r0, .L36
 209              	.L33:
 210 001e 08BD     		pop	{r3, pc}
 211              	.L36:
 212 0020 6FF00C00 		mvn	r0, #12
 213 0024 FBE7     		b	.L33
 214              	.L38:
 215 0026 00BF     		.align	2
 216              	.L37:
 217 0028 00000000 		.word	_I2CBuffer
 219              		.section	.text.VL53L1_WrDWord,"ax",%progbits
 220              		.align	1
 221              		.global	VL53L1_WrDWord
 222              		.syntax unified
 223              		.thumb
 224              		.thumb_func
 226              	VL53L1_WrDWord:
 227              		@ args = 0, pretend = 0, frame = 0
 228              		@ frame_needed = 0, uses_anonymous_args = 0
 229 0000 08B5     		push	{r3, lr}
 230 0002 0B46     		mov	r3, r1
 231 0004 0A49     		ldr	r1, .L44
 232 0006 4FEA132C 		lsr	ip, r3, #8
 233 000a 81F800C0 		strb	ip, [r1]
 234 000e 4B70     		strb	r3, [r1, #1]
 235 0010 130E     		lsrs	r3, r2, #24
 236 0012 8B70     		strb	r3, [r1, #2]
 237 0014 130C     		lsrs	r3, r2, #16
 238 0016 CB70     		strb	r3, [r1, #3]
 239 0018 130A     		lsrs	r3, r2, #8
 240 001a 0B71     		strb	r3, [r1, #4]
 241 001c 4A71     		strb	r2, [r1, #5]
 242 001e 0622     		movs	r2, #6
 243 0020 FFF7FEFF 		bl	_I2CWrite
ARM GAS  C:\Temp\ccBVImra.s 			page 5


 244 0024 00B9     		cbnz	r0, .L43
 245              	.L40:
 246 0026 08BD     		pop	{r3, pc}
 247              	.L43:
 248 0028 6FF00C00 		mvn	r0, #12
 249 002c FBE7     		b	.L40
 250              	.L45:
 251 002e 00BF     		.align	2
 252              	.L44:
 253 0030 00000000 		.word	_I2CBuffer
 255              		.section	.text.VL53L1_RdByte,"ax",%progbits
 256              		.align	1
 257              		.global	VL53L1_RdByte
 258              		.syntax unified
 259              		.thumb
 260              		.thumb_func
 262              	VL53L1_RdByte:
 263              		@ args = 0, pretend = 0, frame = 0
 264              		@ frame_needed = 0, uses_anonymous_args = 0
 265 0000 38B5     		push	{r3, r4, r5, lr}
 266 0002 0446     		mov	r4, r0
 267 0004 0B46     		mov	r3, r1
 268 0006 1546     		mov	r5, r2
 269 0008 0A49     		ldr	r1, .L51
 270 000a 1A0A     		lsrs	r2, r3, #8
 271 000c 0A70     		strb	r2, [r1]
 272 000e 4B70     		strb	r3, [r1, #1]
 273 0010 0222     		movs	r2, #2
 274 0012 FFF7FEFF 		bl	_I2CWrite
 275 0016 30B9     		cbnz	r0, .L48
 276 0018 0122     		movs	r2, #1
 277 001a 2946     		mov	r1, r5
 278 001c 2046     		mov	r0, r4
 279 001e FFF7FEFF 		bl	_I2CRead
 280 0022 18B9     		cbnz	r0, .L49
 281              	.L47:
 282 0024 38BD     		pop	{r3, r4, r5, pc}
 283              	.L48:
 284 0026 6FF00C00 		mvn	r0, #12
 285 002a FBE7     		b	.L47
 286              	.L49:
 287 002c 6FF00C00 		mvn	r0, #12
 288 0030 F8E7     		b	.L47
 289              	.L52:
 290 0032 00BF     		.align	2
 291              	.L51:
 292 0034 00000000 		.word	_I2CBuffer
 294              		.section	.text.VL53L1_UpdateByte,"ax",%progbits
 295              		.align	1
 296              		.global	VL53L1_UpdateByte
 297              		.syntax unified
 298              		.thumb
 299              		.thumb_func
 301              	VL53L1_UpdateByte:
 302              		@ args = 0, pretend = 0, frame = 8
 303              		@ frame_needed = 0, uses_anonymous_args = 0
 304 0000 F0B5     		push	{r4, r5, r6, r7, lr}
ARM GAS  C:\Temp\ccBVImra.s 			page 6


 305 0002 83B0     		sub	sp, sp, #12
 306 0004 0646     		mov	r6, r0
 307 0006 0F46     		mov	r7, r1
 308 0008 1546     		mov	r5, r2
 309 000a 1C46     		mov	r4, r3
 310 000c 0DF10702 		add	r2, sp, #7
 311 0010 FFF7FEFF 		bl	VL53L1_RdByte
 312 0014 08B1     		cbz	r0, .L56
 313              	.L54:
 314 0016 03B0     		add	sp, sp, #12
 315              		@ sp needed
 316 0018 F0BD     		pop	{r4, r5, r6, r7, pc}
 317              	.L56:
 318 001a 9DF80730 		ldrb	r3, [sp, #7]	@ zero_extendqisi2
 319 001e 05EA0302 		and	r2, r5, r3
 320 0022 2243     		orrs	r2, r2, r4
 321 0024 8DF80720 		strb	r2, [sp, #7]
 322 0028 3946     		mov	r1, r7
 323 002a 3046     		mov	r0, r6
 324 002c FFF7FEFF 		bl	VL53L1_WrByte
 325 0030 F1E7     		b	.L54
 327              		.section	.text.VL53L1_RdWord,"ax",%progbits
 328              		.align	1
 329              		.global	VL53L1_RdWord
 330              		.syntax unified
 331              		.thumb
 332              		.thumb_func
 334              	VL53L1_RdWord:
 335              		@ args = 0, pretend = 0, frame = 0
 336              		@ frame_needed = 0, uses_anonymous_args = 0
 337 0000 38B5     		push	{r3, r4, r5, lr}
 338 0002 0446     		mov	r4, r0
 339 0004 0B46     		mov	r3, r1
 340 0006 1546     		mov	r5, r2
 341 0008 0D49     		ldr	r1, .L62
 342 000a 1A0A     		lsrs	r2, r3, #8
 343 000c 0A70     		strb	r2, [r1]
 344 000e 4B70     		strb	r3, [r1, #1]
 345 0010 0222     		movs	r2, #2
 346 0012 FFF7FEFF 		bl	_I2CWrite
 347 0016 60B9     		cbnz	r0, .L59
 348 0018 0222     		movs	r2, #2
 349 001a 0949     		ldr	r1, .L62
 350 001c 2046     		mov	r0, r4
 351 001e FFF7FEFF 		bl	_I2CRead
 352 0022 48B9     		cbnz	r0, .L60
 353 0024 064B     		ldr	r3, .L62
 354 0026 1A78     		ldrb	r2, [r3]	@ zero_extendqisi2
 355 0028 5B78     		ldrb	r3, [r3, #1]	@ zero_extendqisi2
 356 002a 03EB0223 		add	r3, r3, r2, lsl #8
 357 002e 2B80     		strh	r3, [r5]	@ movhi
 358              	.L58:
 359 0030 38BD     		pop	{r3, r4, r5, pc}
 360              	.L59:
 361 0032 6FF00C00 		mvn	r0, #12
 362 0036 FBE7     		b	.L58
 363              	.L60:
ARM GAS  C:\Temp\ccBVImra.s 			page 7


 364 0038 6FF00C00 		mvn	r0, #12
 365 003c F8E7     		b	.L58
 366              	.L63:
 367 003e 00BF     		.align	2
 368              	.L62:
 369 0040 00000000 		.word	_I2CBuffer
 371              		.section	.text.VL53L1_RdDWord,"ax",%progbits
 372              		.align	1
 373              		.global	VL53L1_RdDWord
 374              		.syntax unified
 375              		.thumb
 376              		.thumb_func
 378              	VL53L1_RdDWord:
 379              		@ args = 0, pretend = 0, frame = 0
 380              		@ frame_needed = 0, uses_anonymous_args = 0
 381 0000 38B5     		push	{r3, r4, r5, lr}
 382 0002 0546     		mov	r5, r0
 383 0004 0B46     		mov	r3, r1
 384 0006 1446     		mov	r4, r2
 385 0008 1049     		ldr	r1, .L69
 386 000a 1A0A     		lsrs	r2, r3, #8
 387 000c 0A70     		strb	r2, [r1]
 388 000e 4B70     		strb	r3, [r1, #1]
 389 0010 0222     		movs	r2, #2
 390 0012 FFF7FEFF 		bl	_I2CWrite
 391 0016 90B9     		cbnz	r0, .L66
 392 0018 0422     		movs	r2, #4
 393 001a 0C49     		ldr	r1, .L69
 394 001c 2846     		mov	r0, r5
 395 001e FFF7FEFF 		bl	_I2CRead
 396 0022 78B9     		cbnz	r0, .L67
 397 0024 0949     		ldr	r1, .L69
 398 0026 0A78     		ldrb	r2, [r1]	@ zero_extendqisi2
 399 0028 4B78     		ldrb	r3, [r1, #1]	@ zero_extendqisi2
 400 002a 1B04     		lsls	r3, r3, #16
 401 002c 03EB0263 		add	r3, r3, r2, lsl #24
 402 0030 8A78     		ldrb	r2, [r1, #2]	@ zero_extendqisi2
 403 0032 03EB0223 		add	r3, r3, r2, lsl #8
 404 0036 CA78     		ldrb	r2, [r1, #3]	@ zero_extendqisi2
 405 0038 1344     		add	r3, r3, r2
 406 003a 2360     		str	r3, [r4]
 407              	.L65:
 408 003c 38BD     		pop	{r3, r4, r5, pc}
 409              	.L66:
 410 003e 6FF00C00 		mvn	r0, #12
 411 0042 FBE7     		b	.L65
 412              	.L67:
 413 0044 6FF00C00 		mvn	r0, #12
 414 0048 F8E7     		b	.L65
 415              	.L70:
 416 004a 00BF     		.align	2
 417              	.L69:
 418 004c 00000000 		.word	_I2CBuffer
 420              		.section	.text.VL53L1_GetTickCount,"ax",%progbits
 421              		.align	1
 422              		.global	VL53L1_GetTickCount
 423              		.syntax unified
ARM GAS  C:\Temp\ccBVImra.s 			page 8


 424              		.thumb
 425              		.thumb_func
 427              	VL53L1_GetTickCount:
 428              		@ args = 0, pretend = 0, frame = 0
 429              		@ frame_needed = 0, uses_anonymous_args = 0
 430 0000 10B5     		push	{r4, lr}
 431 0002 0C46     		mov	r4, r1
 432 0004 4369     		ldr	r3, [r0, #20]
 433 0006 9847     		blx	r3
 434 0008 2060     		str	r0, [r4]
 435 000a 0020     		movs	r0, #0
 436 000c 10BD     		pop	{r4, pc}
 438              		.section	.text.VL53L1_GetTimerFrequency,"ax",%progbits
 439              		.align	1
 440              		.global	VL53L1_GetTimerFrequency
 441              		.syntax unified
 442              		.thumb
 443              		.thumb_func
 445              	VL53L1_GetTimerFrequency:
 446              		@ args = 0, pretend = 0, frame = 0
 447              		@ frame_needed = 0, uses_anonymous_args = 0
 448              		@ link register save eliminated.
 449 0000 0346     		mov	r3, r0
 450 0002 0020     		movs	r0, #0
 451 0004 1860     		str	r0, [r3]
 452 0006 7047     		bx	lr
 454              		.section	.text.VL53L1_WaitMs,"ax",%progbits
 455              		.align	1
 456              		.global	VL53L1_WaitMs
 457              		.syntax unified
 458              		.thumb
 459              		.thumb_func
 461              	VL53L1_WaitMs:
 462              		@ args = 0, pretend = 0, frame = 0
 463              		@ frame_needed = 0, uses_anonymous_args = 0
 464 0000 08B5     		push	{r3, lr}
 465 0002 FFF7FEFF 		bl	VL53L1_Delay
 466 0006 0020     		movs	r0, #0
 467 0008 08BD     		pop	{r3, pc}
 469              		.section	.text.VL53L1_WaitUs,"ax",%progbits
 470              		.align	1
 471              		.global	VL53L1_WaitUs
 472              		.syntax unified
 473              		.thumb
 474              		.thumb_func
 476              	VL53L1_WaitUs:
 477              		@ args = 0, pretend = 0, frame = 0
 478              		@ frame_needed = 0, uses_anonymous_args = 0
 479 0000 08B5     		push	{r3, lr}
 480 0002 054B     		ldr	r3, .L78
 481 0004 83FB0123 		smull	r2, r3, r3, r1
 482 0008 C917     		asrs	r1, r1, #31
 483 000a C1EBA311 		rsb	r1, r1, r3, asr #6
 484 000e FFF7FEFF 		bl	VL53L1_Delay
 485 0012 0020     		movs	r0, #0
 486 0014 08BD     		pop	{r3, pc}
 487              	.L79:
ARM GAS  C:\Temp\ccBVImra.s 			page 9


 488 0016 00BF     		.align	2
 489              	.L78:
 490 0018 D34D6210 		.word	274877907
 492              		.section	.rodata.VL53L1_WaitValueMaskEx.str1.4,"aMS",%progbits,1
 493              		.align	2
 494              	.LC0:
 495 0000 00       		.ascii	"\000"
 496              		.section	.text.VL53L1_WaitValueMaskEx,"ax",%progbits
 497              		.align	1
 498              		.global	VL53L1_WaitValueMaskEx
 499              		.syntax unified
 500              		.thumb
 501              		.thumb_func
 503              	VL53L1_WaitValueMaskEx:
 504              		@ args = 8, pretend = 0, frame = 528
 505              		@ frame_needed = 0, uses_anonymous_args = 0
 506 0000 2DE9F04F 		push	{r4, r5, r6, r7, r8, r9, r10, fp, lr}
 507 0004 ADF5057D 		sub	sp, sp, #532
 508 0008 0546     		mov	r5, r0
 509 000a 0F46     		mov	r7, r1
 510 000c 9146     		mov	r9, r2
 511 000e 9846     		mov	r8, r3
 512 0010 9DF838A2 		ldrb	r10, [sp, #568]	@ zero_extendqisi2
 513 0014 DDF83CB2 		ldr	fp, [sp, #572]
 514 0018 0024     		movs	r4, #0
 515 001a 8394     		str	r4, [sp, #524]
 516 001c 8294     		str	r4, [sp, #520]
 517 001e 8DF80742 		strb	r4, [sp, #519]
 518 0022 40F2FF12 		movw	r2, #511
 519 0026 1E49     		ldr	r1, .L92
 520 0028 01A8     		add	r0, sp, #4
 521 002a FFF7FEFF 		bl	strncpy
 522 002e 83A9     		add	r1, sp, #524
 523 0030 2846     		mov	r0, r5
 524 0032 FFF7FEFF 		bl	VL53L1_GetTickCount
 525 0036 2646     		mov	r6, r4
 526 0038 2346     		mov	r3, r4
 527 003a 08E0     		b	.L81
 528              	.L90:
 529 003c 0126     		movs	r6, #1
 530 003e 17E0     		b	.L82
 531              	.L83:
 532 0040 82A9     		add	r1, sp, #520
 533 0042 2846     		mov	r0, r5
 534 0044 FFF7FEFF 		bl	VL53L1_GetTickCount
 535 0048 829B     		ldr	r3, [sp, #520]
 536 004a 839A     		ldr	r2, [sp, #524]
 537 004c 9B1A     		subs	r3, r3, r2
 538              	.L81:
 539 004e E4B9     		cbnz	r4, .L84
 540 0050 BB42     		cmp	r3, r7
 541 0052 1AD2     		bcs	.L84
 542 0054 CEB9     		cbnz	r6, .L84
 543 0056 0DF20722 		addw	r2, sp, #519
 544 005a 4946     		mov	r1, r9
 545 005c 2846     		mov	r0, r5
 546 005e FFF7FEFF 		bl	VL53L1_RdByte
ARM GAS  C:\Temp\ccBVImra.s 			page 10


 547 0062 0446     		mov	r4, r0
 548 0064 9DF80732 		ldrb	r3, [sp, #519]	@ zero_extendqisi2
 549 0068 0AEA0303 		and	r3, r10, r3
 550 006c 4345     		cmp	r3, r8
 551 006e E5D0     		beq	.L90
 552              	.L82:
 553 0070 002C     		cmp	r4, #0
 554 0072 E5D1     		bne	.L83
 555 0074 002E     		cmp	r6, #0
 556 0076 E3D1     		bne	.L83
 557 0078 BBF1000F 		cmp	fp, #0
 558 007c E0D0     		beq	.L83
 559 007e 5946     		mov	r1, fp
 560 0080 2846     		mov	r0, r5
 561 0082 FFF7FEFF 		bl	VL53L1_WaitMs
 562 0086 0446     		mov	r4, r0
 563 0088 DAE7     		b	.L83
 564              	.L84:
 565 008a 06B9     		cbnz	r6, .L86
 566 008c 24B1     		cbz	r4, .L91
 567              	.L86:
 568 008e 2046     		mov	r0, r4
 569 0090 0DF5057D 		add	sp, sp, #532
 570              		@ sp needed
 571 0094 BDE8F08F 		pop	{r4, r5, r6, r7, r8, r9, r10, fp, pc}
 572              	.L91:
 573 0098 6FF00604 		mvn	r4, #6
 574 009c F7E7     		b	.L86
 575              	.L93:
 576 009e 00BF     		.align	2
 577              	.L92:
 578 00a0 00000000 		.word	.LC0
 580              		.global	SPI2C_Buffer
 581              		.section	.bss.SPI2C_Buffer,"aw",%nobits
 582              		.align	2
 585              	SPI2C_Buffer:
 586 0000 00000000 		.space	256
 586      00000000 
 586      00000000 
 586      00000000 
 586      00000000 
 587              		.global	i2cwriteCount
 588              		.section	.bss.i2cwriteCount,"aw",%nobits
 589              		.align	2
 592              	i2cwriteCount:
 593 0000 00000000 		.space	4
 594              		.global	i2creadCount
 595              		.section	.bss.i2creadCount,"aw",%nobits
 596              		.align	2
 599              	i2creadCount:
 600 0000 00000000 		.space	4
 601              		.global	_I2CBuffer
 602              		.section	.bss._I2CBuffer,"aw",%nobits
 603              		.align	2
 606              	_I2CBuffer:
 607 0000 00000000 		.space	256
 607      00000000 
ARM GAS  C:\Temp\ccBVImra.s 			page 11


 607      00000000 
 607      00000000 
 607      00000000 
 608              		.ident	"GCC: (xPack GNU Arm Embedded GCC x86_64) 12.3.1 20230626"
ARM GAS  C:\Temp\ccBVImra.s 			page 12

