ARM GAS  C:\Temp\ccBC1ii9.s 			page 1


   1              		.cpu cortex-m4
   2              		.arch armv7e-m
   3              		.fpu fpv4-sp-d16
   4              		.eabi_attribute 27, 1
   5              		.eabi_attribute 28, 1
   6              		.eabi_attribute 20, 1
   7              		.eabi_attribute 21, 1
   8              		.eabi_attribute 23, 3
   9              		.eabi_attribute 24, 1
  10              		.eabi_attribute 25, 1
  11              		.eabi_attribute 26, 1
  12              		.eabi_attribute 30, 1
  13              		.eabi_attribute 34, 1
  14              		.eabi_attribute 18, 4
  15              		.file	"vl53l1_core_support.c"
  16              		.text
  17              		.section	.text.VL53L1_calc_pll_period_us,"ax",%progbits
  18              		.align	1
  19              		.global	VL53L1_calc_pll_period_us
  20              		.syntax unified
  21              		.thumb
  22              		.thumb_func
  24              	VL53L1_calc_pll_period_us:
  25              		@ args = 0, pretend = 0, frame = 0
  26              		@ frame_needed = 0, uses_anonymous_args = 0
  27              		@ link register save eliminated.
  28 0000 0346     		mov	r3, r0
  29 0002 20B1     		cbz	r0, .L3
  30 0004 4FF08040 		mov	r0, #1073741824
  31 0008 90FBF3F0 		sdiv	r0, r0, r3
  32 000c 7047     		bx	lr
  33              	.L3:
  34 000e 0020     		movs	r0, #0
  35 0010 7047     		bx	lr
  37              		.section	.text.VL53L1_duration_maths,"ax",%progbits
  38              		.align	1
  39              		.global	VL53L1_duration_maths
  40              		.syntax unified
  41              		.thumb
  42              		.thumb_func
  44              	VL53L1_duration_maths:
  45              		@ args = 0, pretend = 0, frame = 0
  46              		@ frame_needed = 0, uses_anonymous_args = 0
  47              		@ link register save eliminated.
  48 0000 00FB02F2 		mul	r2, r0, r2
  49 0004 120B     		lsrs	r2, r2, #12
  50 0006 01FB03F0 		mul	r0, r1, r3
  51 000a 0009     		lsrs	r0, r0, #4
  52 000c A0FB0202 		umull	r0, r2, r0, r2
  53 0010 000B     		lsrs	r0, r0, #12
  54 0012 40EA0250 		orr	r0, r0, r2, lsl #20
  55 0016 120B     		lsrs	r2, r2, #12
  56 0018 4FF0FF33 		mov	r3, #-1
  57 001c 8342     		cmp	r3, r0
  58 001e 4FF00003 		mov	r3, #0
  59 0022 9341     		sbcs	r3, r3, r2
  60 0024 01D2     		bcs	.L5
ARM GAS  C:\Temp\ccBC1ii9.s 			page 2


  61 0026 4FF0FF30 		mov	r0, #-1
  62              	.L5:
  63 002a 7047     		bx	lr
  65              		.global	__aeabi_uldivmod
  66              		.section	.text.VL53L1_events_per_spad_maths,"ax",%progbits
  67              		.align	1
  68              		.global	VL53L1_events_per_spad_maths
  69              		.syntax unified
  70              		.thumb
  71              		.thumb_func
  73              	VL53L1_events_per_spad_maths:
  74              		@ args = 0, pretend = 0, frame = 0
  75              		@ frame_needed = 0, uses_anonymous_args = 0
  76 0000 10B5     		push	{r4, lr}
  77 0002 1446     		mov	r4, r2
  78 0004 4FEAE07C 		asr	ip, r0, #31
  79 0008 4FEA4C12 		lsl	r2, ip, #5
  80 000c 42EAD062 		orr	r2, r2, r0, lsr #27
  81 0010 4301     		lsls	r3, r0, #5
  82 0012 1B1A     		subs	r3, r3, r0
  83 0014 62EB0C02 		sbc	r2, r2, ip
  84 0018 9200     		lsls	r2, r2, #2
  85 001a 42EA9372 		orr	r2, r2, r3, lsr #30
  86 001e 9B00     		lsls	r3, r3, #2
  87 0020 1B18     		adds	r3, r3, r0
  88 0022 4CEB020C 		adc	ip, ip, r2
  89 0026 4FEACC2C 		lsl	ip, ip, #11
  90 002a 4CEA535C 		orr	ip, ip, r3, lsr #21
  91 002e A1B1     		cbz	r1, .L11
  92 0030 D802     		lsls	r0, r3, #11
  93 0032 0A46     		mov	r2, r1
  94 0034 0023     		movs	r3, #0
  95 0036 6146     		mov	r1, ip
  96 0038 FFF7FEFF 		bl	__aeabi_uldivmod
  97              	.L8:
  98 003c 84B1     		cbz	r4, .L9
  99 003e C902     		lsls	r1, r1, #11
 100 0040 41EA5051 		orr	r1, r1, r0, lsr #21
 101 0044 C002     		lsls	r0, r0, #11
 102 0046 6308     		lsrs	r3, r4, #1
 103 0048 C018     		adds	r0, r0, r3
 104 004a 2246     		mov	r2, r4
 105 004c 4FF00003 		mov	r3, #0
 106 0050 41F10001 		adc	r1, r1, #0
 107 0054 FFF7FEFF 		bl	__aeabi_uldivmod
 108              	.L10:
 109 0058 10BD     		pop	{r4, pc}
 110              	.L11:
 111 005a 0020     		movs	r0, #0
 112 005c 0146     		mov	r1, r0
 113 005e EDE7     		b	.L8
 114              	.L9:
 115 0060 C002     		lsls	r0, r0, #11
 116 0062 F9E7     		b	.L10
 118              		.section	.text.VL53L1_isqrt,"ax",%progbits
 119              		.align	1
 120              		.global	VL53L1_isqrt
ARM GAS  C:\Temp\ccBC1ii9.s 			page 3


 121              		.syntax unified
 122              		.thumb
 123              		.thumb_func
 125              	VL53L1_isqrt:
 126              		@ args = 0, pretend = 0, frame = 0
 127              		@ frame_needed = 0, uses_anonymous_args = 0
 128              		@ link register save eliminated.
 129 0000 0246     		mov	r2, r0
 130 0002 4FF08043 		mov	r3, #1073741824
 131 0006 00E0     		b	.L14
 132              	.L15:
 133 0008 9B08     		lsrs	r3, r3, #2
 134              	.L14:
 135 000a 9342     		cmp	r3, r2
 136 000c FCD8     		bhi	.L15
 137 000e 0020     		movs	r0, #0
 138 0010 01E0     		b	.L16
 139              	.L17:
 140 0012 4008     		lsrs	r0, r0, #1
 141              	.L18:
 142 0014 9B08     		lsrs	r3, r3, #2
 143              	.L16:
 144 0016 33B1     		cbz	r3, .L20
 145 0018 C118     		adds	r1, r0, r3
 146 001a 9142     		cmp	r1, r2
 147 001c F9D8     		bhi	.L17
 148 001e 521A     		subs	r2, r2, r1
 149 0020 03EB5000 		add	r0, r3, r0, lsr #1
 150 0024 F6E7     		b	.L18
 151              	.L20:
 152 0026 7047     		bx	lr
 154              		.section	.text.VL53L1_hist_remove_ambient_bins,"ax",%progbits
 155              		.align	1
 156              		.global	VL53L1_hist_remove_ambient_bins
 157              		.syntax unified
 158              		.thumb
 159              		.thumb_func
 161              	VL53L1_hist_remove_ambient_bins:
 162              		@ args = 0, pretend = 0, frame = 0
 163              		@ frame_needed = 0, uses_anonymous_args = 0
 164              		@ link register save eliminated.
 165 0000 10B4     		push	{r4}
 166 0002 037B     		ldrb	r3, [r0, #12]	@ zero_extendqisi2
 167 0004 03F00703 		and	r3, r3, #7
 168 0008 072B     		cmp	r3, #7
 169 000a 16D0     		beq	.L34
 170              	.L23:
 171 000c C47A     		ldrb	r4, [r0, #11]	@ zero_extendqisi2
 172 000e 9CBB     		cbnz	r4, .L32
 173              	.L21:
 174 0010 5DF8044B 		ldr	r4, [sp], #4
 175 0014 7047     		bx	lr
 176              	.L24:
 177 0016 0132     		adds	r2, r2, #1
 178 0018 D2B2     		uxtb	r2, r2
 179              	.L22:
 180 001a 052A     		cmp	r2, #5
ARM GAS  C:\Temp\ccBC1ii9.s 			page 4


 181 001c 17D8     		bhi	.L26
 182 001e 8118     		adds	r1, r0, r2
 183 0020 097B     		ldrb	r1, [r1, #12]	@ zero_extendqisi2
 184 0022 01F00704 		and	r4, r1, #7
 185 0026 072C     		cmp	r4, #7
 186 0028 F5D0     		beq	.L24
 187 002a C418     		adds	r4, r0, r3
 188 002c 2173     		strb	r1, [r4, #12]
 189 002e 8118     		adds	r1, r0, r2
 190 0030 897C     		ldrb	r1, [r1, #18]	@ zero_extendqisi2
 191 0032 A174     		strb	r1, [r4, #18]
 192 0034 0133     		adds	r3, r3, #1
 193 0036 DBB2     		uxtb	r3, r3
 194 0038 EDE7     		b	.L24
 195              	.L34:
 196 003a 0023     		movs	r3, #0
 197 003c 1A46     		mov	r2, r3
 198 003e ECE7     		b	.L22
 199              	.L27:
 200 0040 C218     		adds	r2, r0, r3
 201 0042 1021     		movs	r1, #16
 202 0044 1173     		strb	r1, [r2, #12]
 203 0046 0021     		movs	r1, #0
 204 0048 9174     		strb	r1, [r2, #18]
 205 004a 0133     		adds	r3, r3, #1
 206 004c DBB2     		uxtb	r3, r3
 207              	.L26:
 208 004e 052B     		cmp	r3, #5
 209 0050 F6D9     		bls	.L27
 210 0052 DBE7     		b	.L23
 211              	.L30:
 212 0054 1A1B     		subs	r2, r3, r4
 213 0056 991D     		adds	r1, r3, #6
 214 0058 50F82110 		ldr	r1, [r0, r1, lsl #2]
 215 005c 0632     		adds	r2, r2, #6
 216 005e 40F82210 		str	r1, [r0, r2, lsl #2]
 217 0062 0133     		adds	r3, r3, #1
 218 0064 DBB2     		uxtb	r3, r3
 219              	.L28:
 220 0066 427A     		ldrb	r2, [r0, #9]	@ zero_extendqisi2
 221 0068 9A42     		cmp	r2, r3
 222 006a F3D8     		bhi	.L30
 223 006c 837A     		ldrb	r3, [r0, #10]	@ zero_extendqisi2
 224 006e 1B1B     		subs	r3, r3, r4
 225 0070 8372     		strb	r3, [r0, #10]
 226 0072 0023     		movs	r3, #0
 227 0074 C372     		strb	r3, [r0, #11]
 228 0076 CBE7     		b	.L21
 229              	.L32:
 230 0078 2346     		mov	r3, r4
 231 007a F4E7     		b	.L28
 233              		.section	.text.VL53L1_calc_pll_period_mm,"ax",%progbits
 234              		.align	1
 235              		.global	VL53L1_calc_pll_period_mm
 236              		.syntax unified
 237              		.thumb
 238              		.thumb_func
ARM GAS  C:\Temp\ccBC1ii9.s 			page 5


 240              	VL53L1_calc_pll_period_mm:
 241              		@ args = 0, pretend = 0, frame = 0
 242              		@ frame_needed = 0, uses_anonymous_args = 0
 243 0000 08B5     		push	{r3, lr}
 244 0002 FFF7FEFF 		bl	VL53L1_calc_pll_period_us
 245 0006 8008     		lsrs	r0, r0, #2
 246 0008 49F25723 		movw	r3, #37463
 247 000c 03FB00F0 		mul	r0, r3, r0
 248 0010 00F50040 		add	r0, r0, #32768
 249 0014 000C     		lsrs	r0, r0, #16
 250 0016 08BD     		pop	{r3, pc}
 252              		.section	.text.VL53L1_rate_maths,"ax",%progbits
 253              		.align	1
 254              		.global	VL53L1_rate_maths
 255              		.syntax unified
 256              		.thumb
 257              		.thumb_func
 259              	VL53L1_rate_maths:
 260              		@ args = 0, pretend = 0, frame = 0
 261              		@ frame_needed = 0, uses_anonymous_args = 0
 262              		@ link register save eliminated.
 263 0000 B0F1005F 		cmp	r0, #536870912
 264 0004 07DA     		bge	.L42
 265 0006 0028     		cmp	r0, #0
 266 0008 19DD     		ble	.L43
 267 000a 0346     		mov	r3, r0
 268 000c B0F1807F 		cmp	r0, #16777216
 269 0010 18DD     		ble	.L44
 270 0012 0322     		movs	r2, #3
 271 0014 02E0     		b	.L38
 272              	.L42:
 273 0016 6FF06043 		mvn	r3, #-536870912
 274 001a 0322     		movs	r2, #3
 275              	.L38:
 276 001c 21B1     		cbz	r1, .L39
 277 001e 9340     		lsls	r3, r3, r2
 278 0020 03EB5103 		add	r3, r3, r1, lsr #1
 279 0024 B3FBF1F3 		udiv	r3, r3, r1
 280              	.L39:
 281 0028 B0F1807F 		cmp	r0, #16777216
 282 002c 00DD     		ble	.L40
 283 002e 1B01     		lsls	r3, r3, #4
 284              	.L40:
 285 0030 B3F5803F 		cmp	r3, #65536
 286 0034 01D3     		bcc	.L41
 287 0036 4FF6FF73 		movw	r3, #65535
 288              	.L41:
 289 003a 98B2     		uxth	r0, r3
 290 003c 7047     		bx	lr
 291              	.L43:
 292 003e 0023     		movs	r3, #0
 293 0040 0722     		movs	r2, #7
 294 0042 EBE7     		b	.L38
 295              	.L44:
 296 0044 0722     		movs	r2, #7
 297 0046 E9E7     		b	.L38
 299              		.section	.text.VL53L1_rate_per_spad_maths,"ax",%progbits
ARM GAS  C:\Temp\ccBC1ii9.s 			page 6


 300              		.align	1
 301              		.global	VL53L1_rate_per_spad_maths
 302              		.syntax unified
 303              		.thumb
 304              		.thumb_func
 306              	VL53L1_rate_per_spad_maths:
 307              		@ args = 0, pretend = 0, frame = 0
 308              		@ frame_needed = 0, uses_anonymous_args = 0
 309              		@ link register save eliminated.
 310 0000 52B1     		cbz	r2, .L47
 311 0002 0902     		lsls	r1, r1, #8
 312 0004 8140     		lsls	r1, r1, r0
 313 0006 01EB5201 		add	r1, r1, r2, lsr #1
 314 000a B1FBF2F1 		udiv	r1, r1, r2
 315              	.L48:
 316 000e 9942     		cmp	r1, r3
 317 0010 00D8     		bhi	.L49
 318 0012 0B46     		mov	r3, r1
 319              	.L49:
 320 0014 98B2     		uxth	r0, r3
 321 0016 7047     		bx	lr
 322              	.L47:
 323 0018 8140     		lsls	r1, r1, r0
 324 001a F8E7     		b	.L48
 326              		.section	.text.VL53L1_range_maths,"ax",%progbits
 327              		.align	1
 328              		.global	VL53L1_range_maths
 329              		.syntax unified
 330              		.thumb
 331              		.thumb_func
 333              	VL53L1_range_maths:
 334              		@ args = 8, pretend = 0, frame = 0
 335              		@ frame_needed = 0, uses_anonymous_args = 0
 336 0000 70B5     		push	{r4, r5, r6, lr}
 337 0002 0C46     		mov	r4, r1
 338 0004 1646     		mov	r6, r2
 339 0006 1D46     		mov	r5, r3
 340 0008 FFF7FEFF 		bl	VL53L1_calc_pll_period_us
 341 000c A21B     		subs	r2, r4, r6
 342 000e 63EB0303 		sbc	r3, r3, r3
 343 0012 A0FB0221 		umull	r2, r1, r0, r2
 344 0016 00FB0311 		mla	r1, r0, r3, r1
 345 001a 0B46     		mov	r3, r1
 346 001c 0029     		cmp	r1, #0
 347 001e 33DB     		blt	.L60
 348              	.L51:
 349 0020 520A     		lsrs	r2, r2, #9
 350 0022 42EAC352 		orr	r2, r2, r3, lsl #23
 351 0026 5912     		asrs	r1, r3, #9
 352 0028 49F25720 		movw	r0, #37463
 353 002c A2FB0023 		umull	r2, r3, r2, r0
 354 0030 00FB0133 		mla	r3, r0, r1, r3
 355 0034 1946     		mov	r1, r3
 356 0036 002B     		cmp	r3, #0
 357 0038 2CDB     		blt	.L61
 358              	.L52:
 359 003a 920D     		lsrs	r2, r2, #22
ARM GAS  C:\Temp\ccBC1ii9.s 			page 7


 360 003c 42EA8122 		orr	r2, r2, r1, lsl #10
 361 0040 059B     		ldr	r3, [sp, #20]
 362 0042 1A44     		add	r2, r2, r3
 363 0044 049B     		ldr	r3, [sp, #16]
 364 0046 03FB02F2 		mul	r2, r3, r2
 365 004a 02F58062 		add	r2, r2, #1024
 366 004e 1046     		mov	r0, r2
 367 0050 002A     		cmp	r2, #0
 368 0052 24DB     		blt	.L62
 369              	.L53:
 370 0054 C012     		asrs	r0, r0, #11
 371 0056 85BB     		cbnz	r5, .L54
 372 0058 00EB8000 		add	r0, r0, r0, lsl #2
 373 005c 4000     		lsls	r0, r0, #1
 374 005e 0346     		mov	r3, r0
 375 0060 0028     		cmp	r0, #0
 376 0062 1FDB     		blt	.L63
 377              	.L55:
 378 0064 9810     		asrs	r0, r3, #2
 379 0066 1A4A     		ldr	r2, .L66
 380 0068 82FB0012 		smull	r1, r2, r2, r0
 381 006c DB17     		asrs	r3, r3, #31
 382 006e C3EBA203 		rsb	r3, r3, r2, asr #2
 383 0072 03EB8303 		add	r3, r3, r3, lsl #2
 384 0076 A0EB4303 		sub	r3, r0, r3, lsl #1
 385 007a 042B     		cmp	r3, #4
 386 007c 14DC     		bgt	.L56
 387 007e C017     		asrs	r0, r0, #31
 388 0080 C0EBA200 		rsb	r0, r0, r2, asr #2
 389 0084 00B2     		sxth	r0, r0
 390 0086 1AE0     		b	.L50
 391              	.L60:
 392 0088 40F2FF13 		movw	r3, #511
 393 008c D218     		adds	r2, r2, r3
 394 008e 41F10003 		adc	r3, r1, #0
 395 0092 C5E7     		b	.L51
 396              	.L61:
 397 0094 0F49     		ldr	r1, .L66+4
 398 0096 5218     		adds	r2, r2, r1
 399 0098 43F10001 		adc	r1, r3, #0
 400 009c CDE7     		b	.L52
 401              	.L62:
 402 009e 02F2FF70 		addw	r0, r2, #2047
 403 00a2 D7E7     		b	.L53
 404              	.L63:
 405 00a4 C31C     		adds	r3, r0, #3
 406 00a6 DDE7     		b	.L55
 407              	.L56:
 408 00a8 094B     		ldr	r3, .L66
 409 00aa 83FB0023 		smull	r2, r3, r3, r0
 410 00ae C017     		asrs	r0, r0, #31
 411 00b0 C0EBA300 		rsb	r0, r0, r3, asr #2
 412 00b4 0130     		adds	r0, r0, #1
 413 00b6 00B2     		sxth	r0, r0
 414 00b8 01E0     		b	.L50
 415              	.L54:
 416 00ba 012D     		cmp	r5, #1
ARM GAS  C:\Temp\ccBC1ii9.s 			page 8


 417 00bc 00D0     		beq	.L64
 418              	.L50:
 419 00be 70BD     		pop	{r4, r5, r6, pc}
 420              	.L64:
 421 00c0 1046     		mov	r0, r2
 422 00c2 002A     		cmp	r2, #0
 423 00c4 01DB     		blt	.L65
 424              	.L58:
 425 00c6 0013     		asrs	r0, r0, #12
 426 00c8 F9E7     		b	.L50
 427              	.L65:
 428 00ca 02F6FF70 		addw	r0, r2, #4095
 429 00ce FAE7     		b	.L58
 430              	.L67:
 431              		.align	2
 432              	.L66:
 433 00d0 67666666 		.word	1717986919
 434 00d4 FFFF3F00 		.word	4194303
 436              		.section	.text.VL53L1_decode_vcsel_period,"ax",%progbits
 437              		.align	1
 438              		.global	VL53L1_decode_vcsel_period
 439              		.syntax unified
 440              		.thumb
 441              		.thumb_func
 443              	VL53L1_decode_vcsel_period:
 444              		@ args = 0, pretend = 0, frame = 0
 445              		@ frame_needed = 0, uses_anonymous_args = 0
 446              		@ link register save eliminated.
 447 0000 0130     		adds	r0, r0, #1
 448 0002 C0B2     		uxtb	r0, r0
 449 0004 4000     		lsls	r0, r0, #1
 450 0006 00F0FE00 		and	r0, r0, #254
 451 000a 7047     		bx	lr
 453              		.section	.text.VL53L1_hist_calc_zero_distance_phase,"ax",%progbits
 454              		.align	1
 455              		.global	VL53L1_hist_calc_zero_distance_phase
 456              		.syntax unified
 457              		.thumb
 458              		.thumb_func
 460              	VL53L1_hist_calc_zero_distance_phase:
 461              		@ args = 0, pretend = 0, frame = 0
 462              		@ frame_needed = 0, uses_anonymous_args = 0
 463 0000 10B5     		push	{r4, lr}
 464 0002 0446     		mov	r4, r0
 465 0004 90F88400 		ldrb	r0, [r0, #132]	@ zero_extendqisi2
 466 0008 FFF7FEFF 		bl	VL53L1_decode_vcsel_period
 467 000c B4F87E30 		ldrh	r3, [r4, #126]
 468 0010 03EBC023 		add	r3, r3, r0, lsl #11
 469 0014 94F88020 		ldrb	r2, [r4, #128]	@ zero_extendqisi2
 470 0018 03EBC223 		add	r3, r3, r2, lsl #11
 471 001c 94F88120 		ldrb	r2, [r4, #129]	@ zero_extendqisi2
 472 0020 A3EBC223 		sub	r3, r3, r2, lsl #11
 473 0024 C002     		lsls	r0, r0, #11
 474 0026 03D0     		beq	.L70
 475 0028 B3FBF0F2 		udiv	r2, r3, r0
 476 002c 00FB1230 		mls	r0, r0, r2, r3
 477              	.L70:
ARM GAS  C:\Temp\ccBC1ii9.s 			page 9


 478 0030 A4F89C00 		strh	r0, [r4, #156]	@ movhi
 479 0034 10BD     		pop	{r4, pc}
 481              		.section	.text.VL53L1_copy_xtalk_bin_data_to_histogram_data_struct,"ax",%progbits
 482              		.align	1
 483              		.global	VL53L1_copy_xtalk_bin_data_to_histogram_data_struct
 484              		.syntax unified
 485              		.thumb
 486              		.thumb_func
 488              	VL53L1_copy_xtalk_bin_data_to_histogram_data_struct:
 489              		@ args = 0, pretend = 0, frame = 0
 490              		@ frame_needed = 0, uses_anonymous_args = 0
 491              		@ link register save eliminated.
 492 0000 90F83F30 		ldrb	r3, [r0, #63]	@ zero_extendqisi2
 493 0004 81F88130 		strb	r3, [r1, #129]
 494 0008 B0F84230 		ldrh	r3, [r0, #66]
 495 000c A1F88630 		strh	r3, [r1, #134]	@ movhi
 496 0010 037A     		ldrb	r3, [r0, #8]	@ zero_extendqisi2
 497 0012 0B72     		strb	r3, [r1, #8]
 498 0014 838F     		ldrh	r3, [r0, #60]
 499 0016 A1F87E30 		strh	r3, [r1, #126]	@ movhi
 500 001a 90F83E30 		ldrb	r3, [r0, #62]	@ zero_extendqisi2
 501 001e 81F88030 		strb	r3, [r1, #128]
 502 0022 B0F84030 		ldrh	r3, [r0, #64]
 503 0026 A1F88230 		strh	r3, [r1, #130]	@ movhi
 504 002a B0F84430 		ldrh	r3, [r0, #68]
 505 002e A1F89C30 		strh	r3, [r1, #156]	@ movhi
 506 0032 0378     		ldrb	r3, [r0]	@ zero_extendqisi2
 507 0034 8B70     		strb	r3, [r1, #2]
 508 0036 437A     		ldrb	r3, [r0, #9]	@ zero_extendqisi2
 509 0038 4B72     		strb	r3, [r1, #9]
 510 003a 4368     		ldr	r3, [r0, #4]
 511 003c 4B60     		str	r3, [r1, #4]
 512 003e 7047     		bx	lr
 514              		.section	.text.VL53L1_init_histogram_bin_data_struct,"ax",%progbits
 515              		.align	1
 516              		.global	VL53L1_init_histogram_bin_data_struct
 517              		.syntax unified
 518              		.thumb
 519              		.thumb_func
 521              	VL53L1_init_histogram_bin_data_struct:
 522              		@ args = 0, pretend = 0, frame = 0
 523              		@ frame_needed = 0, uses_anonymous_args = 0
 524              		@ link register save eliminated.
 525 0000 10B4     		push	{r4}
 526 0002 0323     		movs	r3, #3
 527 0004 1370     		strb	r3, [r2]
 528 0006 5370     		strb	r3, [r2, #1]
 529 0008 0023     		movs	r3, #0
 530 000a 9370     		strb	r3, [r2, #2]
 531 000c 5360     		str	r3, [r2, #4]
 532 000e 1372     		strb	r3, [r2, #8]
 533 0010 1824     		movs	r4, #24
 534 0012 5472     		strb	r4, [r2, #9]
 535 0014 9172     		strb	r1, [r2, #10]
 536 0016 D372     		strb	r3, [r2, #11]
 537 0018 82F87830 		strb	r3, [r2, #120]
 538 001c 82F87930 		strb	r3, [r2, #121]
ARM GAS  C:\Temp\ccBC1ii9.s 			page 10


 539 0020 82F87A30 		strb	r3, [r2, #122]
 540 0024 82F87B30 		strb	r3, [r2, #123]
 541 0028 A2F87C30 		strh	r3, [r2, #124]	@ movhi
 542 002c A2F87E30 		strh	r3, [r2, #126]	@ movhi
 543 0030 82F88030 		strb	r3, [r2, #128]
 544 0034 82F88130 		strb	r3, [r2, #129]
 545 0038 A2F88230 		strh	r3, [r2, #130]	@ movhi
 546 003c 82F88430 		strb	r3, [r2, #132]
 547 0040 A2F88630 		strh	r3, [r2, #134]	@ movhi
 548 0044 C2F88830 		str	r3, [r2, #136]
 549 0048 C2F89430 		str	r3, [r2, #148]
 550 004c C2F89830 		str	r3, [r2, #152]
 551 0050 A2F89C30 		strh	r3, [r2, #156]	@ movhi
 552 0054 82F89E30 		strb	r3, [r2, #158]
 553 0058 C2F8A030 		str	r3, [r2, #160]
 554 005c C2F8A430 		str	r3, [r2, #164]
 555 0060 03E0     		b	.L74
 556              	.L75:
 557 0062 D418     		adds	r4, r2, r3
 558 0064 2373     		strb	r3, [r4, #12]
 559 0066 0133     		adds	r3, r3, #1
 560 0068 9BB2     		uxth	r3, r3
 561              	.L74:
 562 006a 052B     		cmp	r3, #5
 563 006c F9D9     		bls	.L75
 564 006e 0023     		movs	r3, #0
 565 0070 06E0     		b	.L76
 566              	.L77:
 567 0072 D418     		adds	r4, r2, r3
 568 0074 4FF0010C 		mov	ip, #1
 569 0078 84F812C0 		strb	ip, [r4, #18]
 570 007c 6344     		add	r3, r3, ip
 571 007e 9BB2     		uxth	r3, r3
 572              	.L76:
 573 0080 052B     		cmp	r3, #5
 574 0082 F6D9     		bls	.L77
 575 0084 0023     		movs	r3, #0
 576 0086 06E0     		b	.L78
 577              	.L79:
 578 0088 03F1060C 		add	ip, r3, #6
 579 008c 0024     		movs	r4, #0
 580 008e 42F82C40 		str	r4, [r2, ip, lsl #2]
 581              	.L80:
 582 0092 0133     		adds	r3, r3, #1
 583 0094 9BB2     		uxth	r3, r3
 584              	.L78:
 585 0096 172B     		cmp	r3, #23
 586 0098 05D8     		bhi	.L83
 587 009a 8B42     		cmp	r3, r1
 588 009c F4D2     		bcs	.L79
 589 009e 9C1D     		adds	r4, r3, #6
 590 00a0 42F82400 		str	r0, [r2, r4, lsl #2]
 591 00a4 F5E7     		b	.L80
 592              	.L83:
 593 00a6 5DF8044B 		ldr	r4, [sp], #4
 594 00aa 7047     		bx	lr
 596              		.section	.text.VL53L1_decode_row_col,"ax",%progbits
ARM GAS  C:\Temp\ccBC1ii9.s 			page 11


 597              		.align	1
 598              		.global	VL53L1_decode_row_col
 599              		.syntax unified
 600              		.thumb
 601              		.thumb_func
 603              	VL53L1_decode_row_col:
 604              		@ args = 0, pretend = 0, frame = 0
 605              		@ frame_needed = 0, uses_anonymous_args = 0
 606              		@ link register save eliminated.
 607 0000 10F0800F 		tst	r0, #128
 608 0004 07D1     		bne	.L87
 609 0006 00F00703 		and	r3, r0, #7
 610 000a 0B70     		strb	r3, [r1]
 611 000c C0F17F00 		rsb	r0, r0, #127
 612 0010 C010     		asrs	r0, r0, #3
 613 0012 1070     		strb	r0, [r2]
 614 0014 7047     		bx	lr
 615              	.L87:
 616 0016 C343     		mvns	r3, r0
 617 0018 03F00703 		and	r3, r3, #7
 618 001c 0833     		adds	r3, r3, #8
 619 001e 0B70     		strb	r3, [r1]
 620 0020 8038     		subs	r0, r0, #128
 621 0022 C010     		asrs	r0, r0, #3
 622 0024 1070     		strb	r0, [r2]
 623 0026 7047     		bx	lr
 625              		.section	.text.VL53L1_hist_find_min_max_bin_values,"ax",%progbits
 626              		.align	1
 627              		.global	VL53L1_hist_find_min_max_bin_values
 628              		.syntax unified
 629              		.thumb
 630              		.thumb_func
 632              	VL53L1_hist_find_min_max_bin_values:
 633              		@ args = 0, pretend = 0, frame = 0
 634              		@ frame_needed = 0, uses_anonymous_args = 0
 635              		@ link register save eliminated.
 636 0000 0023     		movs	r3, #0
 637 0002 13E0     		b	.L89
 638              	.L90:
 639 0004 9A1D     		adds	r2, r3, #6
 640 0006 50F82220 		ldr	r2, [r0, r2, lsl #2]
 641 000a C0F89420 		str	r2, [r0, #148]
 642              	.L91:
 643 000e 33B1     		cbz	r3, .L92
 644 0010 D0F89810 		ldr	r1, [r0, #152]
 645 0014 9A1D     		adds	r2, r3, #6
 646 0016 50F82220 		ldr	r2, [r0, r2, lsl #2]
 647 001a 9142     		cmp	r1, r2
 648 001c 04DC     		bgt	.L93
 649              	.L92:
 650 001e 9A1D     		adds	r2, r3, #6
 651 0020 50F82220 		ldr	r2, [r0, r2, lsl #2]
 652 0024 C0F89820 		str	r2, [r0, #152]
 653              	.L93:
 654 0028 0133     		adds	r3, r3, #1
 655 002a DBB2     		uxtb	r3, r3
 656              	.L89:
ARM GAS  C:\Temp\ccBC1ii9.s 			page 12


 657 002c 827A     		ldrb	r2, [r0, #10]	@ zero_extendqisi2
 658 002e 9A42     		cmp	r2, r3
 659 0030 09D9     		bls	.L95
 660 0032 002B     		cmp	r3, #0
 661 0034 E6D0     		beq	.L90
 662 0036 D0F89410 		ldr	r1, [r0, #148]
 663 003a 9A1D     		adds	r2, r3, #6
 664 003c 50F82220 		ldr	r2, [r0, r2, lsl #2]
 665 0040 9142     		cmp	r1, r2
 666 0042 E4DB     		blt	.L91
 667 0044 DEE7     		b	.L90
 668              	.L95:
 669 0046 7047     		bx	lr
 671              		.section	.text.VL53L1_hist_estimate_ambient_from_thresholded_bins,"ax",%progbits
 672              		.align	1
 673              		.global	VL53L1_hist_estimate_ambient_from_thresholded_bins
 674              		.syntax unified
 675              		.thumb
 676              		.thumb_func
 678              	VL53L1_hist_estimate_ambient_from_thresholded_bins:
 679              		@ args = 0, pretend = 0, frame = 0
 680              		@ frame_needed = 0, uses_anonymous_args = 0
 681 0000 70B5     		push	{r4, r5, r6, lr}
 682 0002 0646     		mov	r6, r0
 683 0004 0C46     		mov	r4, r1
 684 0006 0846     		mov	r0, r1
 685 0008 FFF7FEFF 		bl	VL53L1_hist_find_min_max_bin_values
 686 000c D4F89450 		ldr	r5, [r4, #148]
 687 0010 2846     		mov	r0, r5
 688 0012 FFF7FEFF 		bl	VL53L1_isqrt
 689 0016 06FB00F0 		mul	r0, r6, r0
 690 001a 0730     		adds	r0, r0, #7
 691 001c 05EB2010 		add	r0, r5, r0, asr #4
 692 0020 0023     		movs	r3, #0
 693 0022 84F89E30 		strb	r3, [r4, #158]
 694 0026 C4F8A030 		str	r3, [r4, #160]
 695 002a 01E0     		b	.L97
 696              	.L98:
 697 002c 0133     		adds	r3, r3, #1
 698 002e DBB2     		uxtb	r3, r3
 699              	.L97:
 700 0030 A27A     		ldrb	r2, [r4, #10]	@ zero_extendqisi2
 701 0032 9A42     		cmp	r2, r3
 702 0034 0FD9     		bls	.L102
 703 0036 9A1D     		adds	r2, r3, #6
 704 0038 54F82220 		ldr	r2, [r4, r2, lsl #2]
 705 003c 8242     		cmp	r2, r0
 706 003e F5DA     		bge	.L98
 707 0040 D4F8A010 		ldr	r1, [r4, #160]
 708 0044 0A44     		add	r2, r2, r1
 709 0046 C4F8A020 		str	r2, [r4, #160]
 710 004a 94F89E20 		ldrb	r2, [r4, #158]	@ zero_extendqisi2
 711 004e 0132     		adds	r2, r2, #1
 712 0050 84F89E20 		strb	r2, [r4, #158]
 713 0054 EAE7     		b	.L98
 714              	.L102:
 715 0056 94F89E20 		ldrb	r2, [r4, #158]	@ zero_extendqisi2
ARM GAS  C:\Temp\ccBC1ii9.s 			page 13


 716 005a 5AB1     		cbz	r2, .L96
 717 005c D4F8A030 		ldr	r3, [r4, #160]
 718 0060 C4F8A430 		str	r3, [r4, #164]
 719 0064 03EB5203 		add	r3, r3, r2, lsr #1
 720 0068 C4F8A430 		str	r3, [r4, #164]
 721 006c 93FBF2F3 		sdiv	r3, r3, r2
 722 0070 C4F8A430 		str	r3, [r4, #164]
 723              	.L96:
 724 0074 70BD     		pop	{r4, r5, r6, pc}
 726              		.section	.text.VL53L1_hist_estimate_ambient_from_ambient_bins,"ax",%progbits
 727              		.align	1
 728              		.global	VL53L1_hist_estimate_ambient_from_ambient_bins
 729              		.syntax unified
 730              		.thumb
 731              		.thumb_func
 733              	VL53L1_hist_estimate_ambient_from_ambient_bins:
 734              		@ args = 0, pretend = 0, frame = 0
 735              		@ frame_needed = 0, uses_anonymous_args = 0
 736              		@ link register save eliminated.
 737 0000 10B4     		push	{r4}
 738 0002 C47A     		ldrb	r4, [r0, #11]	@ zero_extendqisi2
 739 0004 ECB1     		cbz	r4, .L103
 740 0006 80F89E40 		strb	r4, [r0, #158]
 741 000a 0023     		movs	r3, #0
 742 000c C0F8A030 		str	r3, [r0, #160]
 743 0010 09E0     		b	.L105
 744              	.L106:
 745 0012 D0F8A020 		ldr	r2, [r0, #160]
 746 0016 991D     		adds	r1, r3, #6
 747 0018 50F82110 		ldr	r1, [r0, r1, lsl #2]
 748 001c 0A44     		add	r2, r2, r1
 749 001e C0F8A020 		str	r2, [r0, #160]
 750 0022 0133     		adds	r3, r3, #1
 751 0024 DBB2     		uxtb	r3, r3
 752              	.L105:
 753 0026 9C42     		cmp	r4, r3
 754 0028 F3D8     		bhi	.L106
 755 002a D0F8A030 		ldr	r3, [r0, #160]
 756 002e C0F8A430 		str	r3, [r0, #164]
 757 0032 03EB5403 		add	r3, r3, r4, lsr #1
 758 0036 C0F8A430 		str	r3, [r0, #164]
 759 003a 93FBF4F3 		sdiv	r3, r3, r4
 760 003e C0F8A430 		str	r3, [r0, #164]
 761              	.L103:
 762 0042 5DF8044B 		ldr	r4, [sp], #4
 763 0046 7047     		bx	lr
 765              		.ident	"GCC: (xPack GNU Arm Embedded GCC x86_64) 12.3.1 20230626"
ARM GAS  C:\Temp\ccBC1ii9.s 			page 14

