ARM GAS  C:\Temp\ccOiDYGD.s 			page 1


   1              		.cpu cortex-m4
   2              		.arch armv7e-m
   3              		.fpu fpv4-sp-d16
   4              		.eabi_attribute 27, 1
   5              		.eabi_attribute 28, 1
   6              		.eabi_attribute 20, 1
   7              		.eabi_attribute 21, 1
   8              		.eabi_attribute 23, 3
   9              		.eabi_attribute 24, 1
  10              		.eabi_attribute 25, 1
  11              		.eabi_attribute 26, 1
  12              		.eabi_attribute 30, 1
  13              		.eabi_attribute 34, 1
  14              		.eabi_attribute 18, 4
  15              		.file	"vl53l1_hist_char.c"
  16              		.text
  17              		.section	.text.VL53L1_set_calib_config,"ax",%progbits
  18              		.align	1
  19              		.global	VL53L1_set_calib_config
  20              		.syntax unified
  21              		.thumb
  22              		.thumb_func
  24              	VL53L1_set_calib_config:
  25              		@ args = 12, pretend = 0, frame = 8
  26              		@ frame_needed = 0, uses_anonymous_args = 0
  27 0000 2DE9F041 		push	{r4, r5, r6, r7, r8, lr}
  28 0004 82B0     		sub	sp, sp, #8
  29 0006 0546     		mov	r5, r0
  30 0008 8846     		mov	r8, r1
  31 000a 1746     		mov	r7, r2
  32 000c 1E46     		mov	r6, r3
  33 000e FFF7FEFF 		bl	VL53L1_enable_powerforce
  34 0012 0446     		mov	r4, r0
  35 0014 20B1     		cbz	r0, .L5
  36              	.L2:
  37 0016 8CB1     		cbz	r4, .L6
  38              	.L3:
  39 0018 2046     		mov	r0, r4
  40 001a 02B0     		add	sp, sp, #8
  41              		@ sp needed
  42 001c BDE8F081 		pop	{r4, r5, r6, r7, r8, pc}
  43              	.L5:
  44 0020 2846     		mov	r0, r5
  45 0022 FFF7FEFF 		bl	VL53L1_disable_firmware
  46 0026 0446     		mov	r4, r0
  47 0028 0028     		cmp	r0, #0
  48 002a F5D1     		bne	.L3
  49 002c 4246     		mov	r2, r8
  50 002e 40F61A21 		movw	r1, #2586
  51 0032 2846     		mov	r0, r5
  52 0034 FFF7FEFF 		bl	VL53L1_WrByte
  53 0038 0446     		mov	r4, r0
  54 003a ECE7     		b	.L2
  55              	.L6:
  56 003c 8DF80470 		strb	r7, [sp, #4]
  57 0040 8DF80560 		strb	r6, [sp, #5]
  58 0044 9DF82030 		ldrb	r3, [sp, #32]	@ zero_extendqisi2
ARM GAS  C:\Temp\ccOiDYGD.s 			page 2


  59 0048 8DF80630 		strb	r3, [sp, #6]
  60 004c 0323     		movs	r3, #3
  61 004e 01AA     		add	r2, sp, #4
  62 0050 40F2C461 		movw	r1, #1732
  63 0054 2846     		mov	r0, r5
  64 0056 FFF7FEFF 		bl	VL53L1_WriteMulti
  65 005a 0446     		mov	r4, r0
  66 005c 0028     		cmp	r0, #0
  67 005e DBD1     		bne	.L3
  68 0060 9DF82420 		ldrb	r2, [sp, #36]	@ zero_extendqisi2
  69 0064 40F60A21 		movw	r1, #2570
  70 0068 2846     		mov	r0, r5
  71 006a FFF7FEFF 		bl	VL53L1_WrByte
  72 006e 0446     		mov	r4, r0
  73 0070 0028     		cmp	r0, #0
  74 0072 D1D1     		bne	.L3
  75 0074 9DF82820 		ldrb	r2, [sp, #40]	@ zero_extendqisi2
  76 0078 40F2CF61 		movw	r1, #1743
  77 007c 2846     		mov	r0, r5
  78 007e FFF7FEFF 		bl	VL53L1_WrByte
  79 0082 0446     		mov	r4, r0
  80 0084 0028     		cmp	r0, #0
  81 0086 C7D1     		bne	.L3
  82 0088 2846     		mov	r0, r5
  83 008a FFF7FEFF 		bl	VL53L1_enable_firmware
  84 008e 0446     		mov	r4, r0
  85 0090 C2E7     		b	.L3
  87              		.section	.text.VL53L1_set_hist_calib_pulse_delay,"ax",%progbits
  88              		.align	1
  89              		.global	VL53L1_set_hist_calib_pulse_delay
  90              		.syntax unified
  91              		.thumb
  92              		.thumb_func
  94              	VL53L1_set_hist_calib_pulse_delay:
  95              		@ args = 0, pretend = 0, frame = 0
  96              		@ frame_needed = 0, uses_anonymous_args = 0
  97 0000 00B5     		push	{lr}
  98 0002 85B0     		sub	sp, sp, #20
  99 0004 0A46     		mov	r2, r1
 100 0006 F523     		movs	r3, #245
 101 0008 0293     		str	r3, [sp, #8]
 102 000a 1423     		movs	r3, #20
 103 000c 0193     		str	r3, [sp, #4]
 104 000e 0823     		movs	r3, #8
 105 0010 0093     		str	r3, [sp]
 106 0012 0423     		movs	r3, #4
 107 0014 0121     		movs	r1, #1
 108 0016 FFF7FEFF 		bl	VL53L1_set_calib_config
 109 001a 05B0     		add	sp, sp, #20
 110              		@ sp needed
 111 001c 5DF804FB 		ldr	pc, [sp], #4
 113              		.section	.text.VL53L1_disable_calib_pulse_delay,"ax",%progbits
 114              		.align	1
 115              		.global	VL53L1_disable_calib_pulse_delay
 116              		.syntax unified
 117              		.thumb
 118              		.thumb_func
ARM GAS  C:\Temp\ccOiDYGD.s 			page 3


 120              	VL53L1_disable_calib_pulse_delay:
 121              		@ args = 0, pretend = 0, frame = 0
 122              		@ frame_needed = 0, uses_anonymous_args = 0
 123 0000 00B5     		push	{lr}
 124 0002 85B0     		sub	sp, sp, #20
 125 0004 4523     		movs	r3, #69
 126 0006 0293     		str	r3, [sp, #8]
 127 0008 0021     		movs	r1, #0
 128 000a 0191     		str	r1, [sp, #4]
 129 000c 0091     		str	r1, [sp]
 130 000e 0B46     		mov	r3, r1
 131 0010 0A46     		mov	r2, r1
 132 0012 FFF7FEFF 		bl	VL53L1_set_calib_config
 133 0016 05B0     		add	sp, sp, #20
 134              		@ sp needed
 135 0018 5DF804FB 		ldr	pc, [sp], #4
 137              		.ident	"GCC: (xPack GNU Arm Embedded GCC x86_64) 12.3.1 20230626"
ARM GAS  C:\Temp\ccOiDYGD.s 			page 4

