ARM GAS  C:\Temp\cchBoeYA.s 			page 1


   1              		.cpu cortex-m4
   2              		.arch armv7e-m
   3              		.fpu fpv4-sp-d16
   4              		.eabi_attribute 27, 1
   5              		.eabi_attribute 28, 1
   6              		.eabi_attribute 20, 1
   7              		.eabi_attribute 21, 1
   8              		.eabi_attribute 23, 3
   9              		.eabi_attribute 24, 1
  10              		.eabi_attribute 25, 1
  11              		.eabi_attribute 26, 1
  12              		.eabi_attribute 30, 1
  13              		.eabi_attribute 34, 1
  14              		.eabi_attribute 18, 4
  15              		.file	"vl53l1_sigma_estimate.c"
  16              		.text
  17              		.global	__aeabi_uldivmod
  18              		.section	.text.VL53L1_f_044,"ax",%progbits
  19              		.align	1
  20              		.global	VL53L1_f_044
  21              		.syntax unified
  22              		.thumb
  23              		.thumb_func
  25              	VL53L1_f_044:
  26              		@ args = 0, pretend = 0, frame = 0
  27              		@ frame_needed = 0, uses_anonymous_args = 0
  28 0000 F8B5     		push	{r3, r4, r5, r6, r7, lr}
  29 0002 1646     		mov	r6, r2
  30 0004 1D46     		mov	r5, r3
  31 0006 1A8E     		ldrh	r2, [r3, #48]
  32 0008 7AB3     		cbz	r2, .L3
  33 000a DB6A     		ldr	r3, [r3, #44]
  34 000c 002B     		cmp	r3, #0
  35 000e 2FDD     		ble	.L4
  36 0010 03EB4303 		add	r3, r3, r3, lsl #1
  37 0014 1A4F     		ldr	r7, .L6+8
  38 0016 B7FBF3F7 		udiv	r7, r7, r3
  39 001a 0402     		lsls	r4, r0, #8
  40 001c AB8E     		ldrh	r3, [r5, #52]
  41 001e 03FB01F0 		mul	r0, r3, r1
  42 0022 0023     		movs	r3, #0
  43 0024 0002     		lsls	r0, r0, #8
  44 0026 1946     		mov	r1, r3
  45 0028 FFF7FEFF 		bl	__aeabi_uldivmod
  46 002c 0346     		mov	r3, r0
  47 002e A4FB0442 		umull	r4, r2, r4, r4
  48 0032 01FB00F0 		mul	r0, r1, r0
  49 0036 A3FB0332 		umull	r3, r2, r3, r3
  50 003a E418     		adds	r4, r4, r3
  51 003c 42EB4003 		adc	r3, r2, r0, lsl #1
  52 0040 A7FB0441 		umull	r4, r1, r7, r4
  53 0044 07FB0311 		mla	r1, r7, r3, r1
  54 0048 0901     		lsls	r1, r1, #4
  55 004a 0BA3     		adr	r3, .L6
  56 004c D3E90023 		ldrd	r2, [r3]
  57 0050 2001     		lsls	r0, r4, #4
  58 0052 41EA1471 		orr	r1, r1, r4, lsr #28
ARM GAS  C:\Temp\cchBoeYA.s 			page 2


  59 0056 FFF7FEFF 		bl	__aeabi_uldivmod
  60 005a B600     		lsls	r6, r6, #2
  61 005c 06FB0600 		mla	r0, r6, r6, r0
  62 0060 FFF7FEFF 		bl	VL53L1_isqrt
  63 0064 80B2     		uxth	r0, r0
  64              	.L2:
  65 0066 A887     		strh	r0, [r5, #60]	@ movhi
  66 0068 F8BD     		pop	{r3, r4, r5, r6, r7, pc}
  67              	.L3:
  68 006a 4FF6FF70 		movw	r0, #65535
  69 006e FAE7     		b	.L2
  70              	.L4:
  71 0070 4FF6FF70 		movw	r0, #65535
  72 0074 F7E7     		b	.L2
  73              	.L7:
  74 0076 00BF     		.align	3
  75              	.L6:
  76 0078 514A8D0E 		.word	244140625
  77 007c 00000000 		.word	0
  78 0080 C9183F01 		.word	20912329
  80              		.section	.text.VL53L1_f_045,"ax",%progbits
  81              		.align	1
  82              		.global	VL53L1_f_045
  83              		.syntax unified
  84              		.thumb
  85              		.thumb_func
  87              	VL53L1_f_045:
  88              		@ args = 32, pretend = 0, frame = 24
  89              		@ frame_needed = 0, uses_anonymous_args = 0
  90 0000 2DE9F04F 		push	{r4, r5, r6, r7, r8, r9, r10, fp, lr}
  91 0004 87B0     		sub	sp, sp, #28
  92 0006 0290     		str	r0, [sp, #8]
  93 0008 9046     		mov	r8, r2
  94 000a 1E46     		mov	r6, r3
  95 000c BDF85800 		ldrh	r0, [sp, #88]
  96 0010 4FF6FF73 		movw	r3, #65535
  97 0014 179A     		ldr	r2, [sp, #92]
  98 0016 1380     		strh	r3, [r2]	@ movhi
  99 0018 0028     		cmp	r0, #0
 100 001a 00F0B580 		beq	.L16
 101 001e 0D46     		mov	r5, r1
 102 0020 FFF7FEFF 		bl	VL53L1_calc_pll_period_mm
 103 0024 841C     		adds	r4, r0, #2
 104 0026 A408     		lsrs	r4, r4, #2
 105 0028 159B     		ldr	r3, [sp, #84]
 106 002a 4345     		cmp	r3, r8
 107 002c 40F29D80 		bls	.L10
 108 0030 B3EB0809 		subs	r9, r3, r8
 109 0034 67EB0707 		sbc	r7, r7, r7
 110              	.L11:
 111 0038 B542     		cmp	r5, r6
 112 003a 40F29C80 		bls	.L12
 113 003e AE1B     		subs	r6, r5, r6
 114 0040 63EB0303 		sbc	r3, r3, r3
 115 0044 0193     		str	r3, [sp, #4]
 116              	.L13:
 117 0046 59EA0703 		orrs	r3, r9, r7
ARM GAS  C:\Temp\cchBoeYA.s 			page 3


 118 004a 00F0A080 		beq	.L17
 119 004e 4FF0000A 		mov	r10, #0
 120 0052 A4FB0442 		umull	r4, r2, r4, r4
 121 0056 119B     		ldr	r3, [sp, #68]
 122 0058 1499     		ldr	r1, [sp, #80]
 123 005a 5818     		adds	r0, r3, r1
 124 005c 4AEB0A03 		adc	r3, r10, r10
 125 0060 1099     		ldr	r1, [sp, #64]
 126 0062 4018     		adds	r0, r0, r1
 127 0064 43F10003 		adc	r3, r3, #0
 128 0068 1399     		ldr	r1, [sp, #76]
 129 006a 4018     		adds	r0, r0, r1
 130 006c 43F10003 		adc	r3, r3, #0
 131 0070 0392     		str	r2, [sp, #12]
 132 0072 00FB02F1 		mul	r1, r0, r2
 133 0076 04FB0311 		mla	r1, r4, r3, r1
 134 007a A0FB0403 		umull	r0, r3, r0, r4
 135 007e 1944     		add	r1, r1, r3
 136 0080 4FEA5905 		lsr	r5, r9, #1
 137 0084 45EAC775 		orr	r5, r5, r7, lsl #31
 138 0088 4FEA570B 		lsr	fp, r7, #1
 139 008c 2818     		adds	r0, r5, r0
 140 008e 4A46     		mov	r2, r9
 141 0090 3B46     		mov	r3, r7
 142 0092 41EB5701 		adc	r1, r1, r7, lsr #1
 143 0096 FFF7FEFF 		bl	__aeabi_uldivmod
 144 009a 0591     		str	r1, [sp, #20]
 145 009c 0490     		str	r0, [sp, #16]
 146 009e 039A     		ldr	r2, [sp, #12]
 147 00a0 06FB02F1 		mul	r1, r6, r2
 148 00a4 019B     		ldr	r3, [sp, #4]
 149 00a6 04FB0311 		mla	r1, r4, r3, r1
 150 00aa A6FB0443 		umull	r4, r3, r6, r4
 151 00ae 1944     		add	r1, r1, r3
 152 00b0 2819     		adds	r0, r5, r4
 153 00b2 4A46     		mov	r2, r9
 154 00b4 3B46     		mov	r3, r7
 155 00b6 41EB0B01 		adc	r1, r1, fp
 156 00ba FFF7FEFF 		bl	__aeabi_uldivmod
 157 00be 0346     		mov	r3, r0
 158 00c0 06FB01F1 		mul	r1, r6, r1
 159 00c4 019A     		ldr	r2, [sp, #4]
 160 00c6 02FB0011 		mla	r1, r2, r0, r1
 161 00ca A6FB0363 		umull	r6, r3, r6, r3
 162 00ce 1944     		add	r1, r1, r3
 163 00d0 A819     		adds	r0, r5, r6
 164 00d2 4A46     		mov	r2, r9
 165 00d4 3B46     		mov	r3, r7
 166 00d6 41EB0B01 		adc	r1, r1, fp
 167 00da FFF7FEFF 		bl	__aeabi_uldivmod
 168 00de 0246     		mov	r2, r0
 169 00e0 129B     		ldr	r3, [sp, #72]
 170 00e2 18EB0303 		adds	r3, r8, r3
 171 00e6 4AEB0A04 		adc	r4, r10, r10
 172 00ea 159E     		ldr	r6, [sp, #84]
 173 00ec 9B19     		adds	r3, r3, r6
 174 00ee 44F10004 		adc	r4, r4, #0
ARM GAS  C:\Temp\cchBoeYA.s 			page 4


 175 00f2 03FB01F1 		mul	r1, r3, r1
 176 00f6 04FB0011 		mla	r1, r4, r0, r1
 177 00fa A3FB0232 		umull	r3, r2, r3, r2
 178 00fe 1144     		add	r1, r1, r2
 179 0100 E818     		adds	r0, r5, r3
 180 0102 4A46     		mov	r2, r9
 181 0104 3B46     		mov	r3, r7
 182 0106 41EB0B01 		adc	r1, r1, fp
 183 010a FFF7FEFF 		bl	__aeabi_uldivmod
 184 010e 049B     		ldr	r3, [sp, #16]
 185 0110 1818     		adds	r0, r3, r0
 186 0112 059B     		ldr	r3, [sp, #20]
 187 0114 43EB0101 		adc	r1, r3, r1
 188 0118 2818     		adds	r0, r5, r0
 189 011a 4A46     		mov	r2, r9
 190 011c 3B46     		mov	r3, r7
 191 011e 4BEB0101 		adc	r1, fp, r1
 192 0122 FFF7FEFF 		bl	__aeabi_uldivmod
 193 0126 0130     		adds	r0, r0, #1
 194 0128 41F10001 		adc	r1, r1, #0
 195 012c 8008     		lsrs	r0, r0, #2
 196 012e 40EA8170 		orr	r0, r0, r1, lsl #30
 197 0132 8908     		lsrs	r1, r1, #2
 198 0134 029B     		ldr	r3, [sp, #8]
 199 0136 9B00     		lsls	r3, r3, #2
 200 0138 A3FB0332 		umull	r3, r2, r3, r3
 201 013c C018     		adds	r0, r0, r3
 202 013e 41F10001 		adc	r1, r1, #0
 203 0142 4FF0FF33 		mov	r3, #-1
 204 0146 8342     		cmp	r3, r0
 205 0148 7AEB0101 		sbcs	r1, r10, r1
 206 014c 00D2     		bcs	.L14
 207 014e 1846     		mov	r0, r3
 208              	.L14:
 209 0150 FFF7FEFF 		bl	VL53L1_isqrt
 210 0154 B0F5803F 		cmp	r0, #65536
 211 0158 12D3     		bcc	.L15
 212 015a 4FF6FF73 		movw	r3, #65535
 213 015e 179A     		ldr	r2, [sp, #92]
 214 0160 1380     		strh	r3, [r2]	@ movhi
 215 0162 0020     		movs	r0, #0
 216              	.L9:
 217 0164 07B0     		add	sp, sp, #28
 218              		@ sp needed
 219 0166 BDE8F08F 		pop	{r4, r5, r6, r7, r8, r9, r10, fp, pc}
 220              	.L10:
 221 016a 159B     		ldr	r3, [sp, #84]
 222 016c B8EB0309 		subs	r9, r8, r3
 223 0170 67EB0707 		sbc	r7, r7, r7
 224 0174 60E7     		b	.L11
 225              	.L12:
 226 0176 761B     		subs	r6, r6, r5
 227 0178 63EB0303 		sbc	r3, r3, r3
 228 017c 0193     		str	r3, [sp, #4]
 229 017e 62E7     		b	.L13
 230              	.L15:
 231 0180 179B     		ldr	r3, [sp, #92]
ARM GAS  C:\Temp\cchBoeYA.s 			page 5


 232 0182 1880     		strh	r0, [r3]	@ movhi
 233 0184 0020     		movs	r0, #0
 234 0186 EDE7     		b	.L9
 235              	.L16:
 236 0188 6FF00E00 		mvn	r0, #14
 237 018c EAE7     		b	.L9
 238              	.L17:
 239 018e 6FF00E00 		mvn	r0, #14
 240 0192 E7E7     		b	.L9
 242              		.section	.text.VL53L1_f_014,"ax",%progbits
 243              		.align	1
 244              		.global	VL53L1_f_014
 245              		.syntax unified
 246              		.thumb
 247              		.thumb_func
 249              	VL53L1_f_014:
 250              		@ args = 32, pretend = 0, frame = 0
 251              		@ frame_needed = 0, uses_anonymous_args = 0
 252 0000 2DE9F84F 		push	{r3, r4, r5, r6, r7, r8, r9, r10, fp, lr}
 253 0004 0646     		mov	r6, r0
 254 0006 1446     		mov	r4, r2
 255 0008 1D46     		mov	r5, r3
 256 000a DDF83C90 		ldr	r9, [sp, #60]
 257 000e BDF84000 		ldrh	r0, [sp, #64]
 258 0012 4FF6FF73 		movw	r3, #65535
 259 0016 119A     		ldr	r2, [sp, #68]
 260 0018 1380     		strh	r3, [r2]	@ movhi
 261 001a 0028     		cmp	r0, #0
 262 001c 00F0EC80 		beq	.L38
 263 0020 8846     		mov	r8, r1
 264 0022 FFF7FEFF 		bl	VL53L1_calc_pll_period_mm
 265 0026 0746     		mov	r7, r0
 266 0028 A145     		cmp	r9, r4
 267 002a 7DD9     		bls	.L22
 268 002c B9EB040B 		subs	fp, r9, r4
 269 0030 6AEB0A0A 		sbc	r10, r10, r10
 270              	.L23:
 271 0034 A845     		cmp	r8, r5
 272 0036 7CD9     		bls	.L24
 273 0038 B8EB0505 		subs	r5, r8, r5
 274 003c 63EB0303 		sbc	r3, r3, r3
 275              	.L25:
 276 0040 5BEA0A02 		orrs	r2, fp, r10
 277 0044 00F0DB80 		beq	.L39
 278 0048 4FF00008 		mov	r8, #0
 279 004c 0C9A     		ldr	r2, [sp, #48]
 280 004e A418     		adds	r4, r4, r2
 281 0050 48EB0808 		adc	r8, r8, r8
 282 0054 14EB0904 		adds	r4, r4, r9
 283 0058 48F10008 		adc	r8, r8, #0
 284 005c B4F1807F 		cmp	r4, #16777216
 285 0060 78F10002 		sbcs	r2, r8, #0
 286 0064 03D3     		bcc	.L26
 287 0066 6FF07F44 		mvn	r4, #-16777216
 288 006a 4FF00008 		mov	r8, #0
 289              	.L26:
 290 006e 05FB03F3 		mul	r3, r5, r3
ARM GAS  C:\Temp\cchBoeYA.s 			page 6


 291 0072 A5FB0551 		umull	r5, r1, r5, r5
 292 0076 01EB4301 		add	r1, r1, r3, lsl #1
 293 007a 0902     		lsls	r1, r1, #8
 294 007c 41EA1561 		orr	r1, r1, r5, lsr #24
 295 0080 2802     		lsls	r0, r5, #8
 296 0082 4FF0FF33 		mov	r3, #-1
 297 0086 8342     		cmp	r3, r0
 298 0088 6FF07F43 		mvn	r3, #-16777216
 299 008c 8B41     		sbcs	r3, r3, r1
 300 008e 03D2     		bcs	.L27
 301 0090 4FF0FF30 		mov	r0, #-1
 302 0094 6FF07F41 		mvn	r1, #-16777216
 303              	.L27:
 304 0098 5A46     		mov	r2, fp
 305 009a 5346     		mov	r3, r10
 306 009c FFF7FEFF 		bl	__aeabi_uldivmod
 307 00a0 5A46     		mov	r2, fp
 308 00a2 5346     		mov	r3, r10
 309 00a4 FFF7FEFF 		bl	__aeabi_uldivmod
 310 00a8 0246     		mov	r2, r0
 311 00aa 0B46     		mov	r3, r1
 312 00ac 4FF0FF35 		mov	r5, #-1
 313 00b0 8542     		cmp	r5, r0
 314 00b2 4FF07F00 		mov	r0, #127
 315 00b6 8841     		sbcs	r0, r0, r1
 316 00b8 01D2     		bcs	.L28
 317 00ba 2A46     		mov	r2, r5
 318 00bc 7F23     		movs	r3, #127
 319              	.L28:
 320 00be 04FB03F3 		mul	r3, r4, r3
 321 00c2 02FB0833 		mla	r3, r2, r8, r3
 322 00c6 A4FB0204 		umull	r0, r4, r4, r2
 323 00ca 1C44     		add	r4, r4, r3
 324 00cc 0021     		movs	r1, #0
 325 00ce 0B9B     		ldr	r3, [sp, #44]
 326 00d0 0E9A     		ldr	r2, [sp, #56]
 327 00d2 9B18     		adds	r3, r3, r2
 328 00d4 4941     		adcs	r1, r1, r1
 329 00d6 0A9A     		ldr	r2, [sp, #40]
 330 00d8 9B18     		adds	r3, r3, r2
 331 00da 41F10001 		adc	r1, r1, #0
 332 00de 0D9A     		ldr	r2, [sp, #52]
 333 00e0 9B18     		adds	r3, r3, r2
 334 00e2 41F10001 		adc	r1, r1, #0
 335 00e6 B3F1807F 		cmp	r3, #16777216
 336 00ea 71F10002 		sbcs	r2, r1, #0
 337 00ee 02D3     		bcc	.L29
 338 00f0 6FF07F43 		mvn	r3, #-16777216
 339 00f4 0021     		movs	r1, #0
 340              	.L29:
 341 00f6 0902     		lsls	r1, r1, #8
 342 00f8 41EA1361 		orr	r1, r1, r3, lsr #24
 343 00fc 1B02     		lsls	r3, r3, #8
 344 00fe C018     		adds	r0, r0, r3
 345 0100 44EB0101 		adc	r1, r4, r1
 346 0104 0029     		cmp	r1, #0
 347 0106 19DB     		blt	.L44
ARM GAS  C:\Temp\cchBoeYA.s 			page 7


 348 0108 4FF0FF33 		mov	r3, #-1
 349 010c 8342     		cmp	r3, r0
 350 010e 4FF00003 		mov	r3, #0
 351 0112 8B41     		sbcs	r3, r3, r1
 352 0114 16D3     		bcc	.L30
 353 0116 A7FB0004 		umull	r0, r4, r7, r0
 354 011a 5A46     		mov	r2, fp
 355 011c 5346     		mov	r3, r10
 356 011e 07FB0141 		mla	r1, r7, r1, r4
 357 0122 FFF7FEFF 		bl	__aeabi_uldivmod
 358 0126 16E0     		b	.L32
 359              	.L22:
 360 0128 B4EB090B 		subs	fp, r4, r9
 361 012c 6AEB0A0A 		sbc	r10, r10, r10
 362 0130 80E7     		b	.L23
 363              	.L24:
 364 0132 B5EB0805 		subs	r5, r5, r8
 365 0136 63EB0303 		sbc	r3, r3, r3
 366 013a 81E7     		b	.L25
 367              	.L44:
 368 013c 4FF0FF30 		mov	r0, #-1
 369 0140 6FF00041 		mvn	r1, #-2147483648
 370              	.L30:
 371 0144 5A46     		mov	r2, fp
 372 0146 5346     		mov	r3, r10
 373 0148 FFF7FEFF 		bl	__aeabi_uldivmod
 374 014c 0B46     		mov	r3, r1
 375 014e A7FB0001 		umull	r0, r1, r7, r0
 376 0152 07FB0311 		mla	r1, r7, r3, r1
 377              	.L32:
 378 0156 0029     		cmp	r1, #0
 379 0158 13DB     		blt	.L45
 380 015a 4FF0FF33 		mov	r3, #-1
 381 015e 8342     		cmp	r3, r0
 382 0160 4FF00003 		mov	r3, #0
 383 0164 8B41     		sbcs	r3, r3, r1
 384 0166 10D3     		bcc	.L33
 385 0168 A7FB0004 		umull	r0, r4, r7, r0
 386 016c 5A46     		mov	r2, fp
 387 016e 5346     		mov	r3, r10
 388 0170 07FB0141 		mla	r1, r7, r1, r4
 389 0174 FFF7FEFF 		bl	__aeabi_uldivmod
 390 0178 8008     		lsrs	r0, r0, #2
 391 017a 40EA8170 		orr	r0, r0, r1, lsl #30
 392 017e 8B08     		lsrs	r3, r1, #2
 393 0180 11E0     		b	.L36
 394              	.L45:
 395 0182 4FF0FF30 		mov	r0, #-1
 396 0186 6FF00041 		mvn	r1, #-2147483648
 397              	.L33:
 398 018a 5A46     		mov	r2, fp
 399 018c 5346     		mov	r3, r10
 400 018e FFF7FEFF 		bl	__aeabi_uldivmod
 401 0192 8008     		lsrs	r0, r0, #2
 402 0194 40EA8170 		orr	r0, r0, r1, lsl #30
 403 0198 8908     		lsrs	r1, r1, #2
 404 019a A7FB0003 		umull	r0, r3, r7, r0
ARM GAS  C:\Temp\cchBoeYA.s 			page 8


 405 019e 07FB0133 		mla	r3, r7, r1, r3
 406 01a2 002B     		cmp	r3, #0
 407 01a4 20DB     		blt	.L50
 408              	.L36:
 409 01a6 8008     		lsrs	r0, r0, #2
 410 01a8 40EA8370 		orr	r0, r0, r3, lsl #30
 411 01ac 9B08     		lsrs	r3, r3, #2
 412 01ae 4FF0FF32 		mov	r2, #-1
 413 01b2 8242     		cmp	r2, r0
 414 01b4 4FF00002 		mov	r2, #0
 415 01b8 9A41     		sbcs	r2, r2, r3
 416 01ba 19D3     		bcc	.L47
 417              	.L35:
 418 01bc F601     		lsls	r6, r6, #7
 419 01be A6FB0662 		umull	r6, r2, r6, r6
 420 01c2 8019     		adds	r0, r0, r6
 421 01c4 43F10003 		adc	r3, r3, #0
 422 01c8 4FF0FF32 		mov	r2, #-1
 423 01cc 8242     		cmp	r2, r0
 424 01ce 4FF00002 		mov	r2, #0
 425 01d2 9A41     		sbcs	r2, r2, r3
 426 01d4 01D2     		bcs	.L37
 427 01d6 4FF0FF30 		mov	r0, #-1
 428              	.L37:
 429 01da FFF7FEFF 		bl	VL53L1_isqrt
 430 01de 119B     		ldr	r3, [sp, #68]
 431 01e0 1880     		strh	r0, [r3]	@ movhi
 432 01e2 0020     		movs	r0, #0
 433              	.L21:
 434 01e4 BDE8F88F 		pop	{r3, r4, r5, r6, r7, r8, r9, r10, fp, pc}
 435              	.L50:
 436 01e8 4FF0FF30 		mov	r0, #-1
 437 01ec 0023     		movs	r3, #0
 438 01ee E5E7     		b	.L35
 439              	.L47:
 440 01f0 4FF0FF30 		mov	r0, #-1
 441 01f4 0023     		movs	r3, #0
 442 01f6 E1E7     		b	.L35
 443              	.L38:
 444 01f8 6FF00E00 		mvn	r0, #14
 445 01fc F2E7     		b	.L21
 446              	.L39:
 447 01fe 6FF00E00 		mvn	r0, #14
 448 0202 EFE7     		b	.L21
 450              		.section	.text.VL53L1_f_046,"ax",%progbits
 451              		.align	1
 452              		.global	VL53L1_f_046
 453              		.syntax unified
 454              		.thumb
 455              		.thumb_func
 457              	VL53L1_f_046:
 458              		@ args = 0, pretend = 0, frame = 0
 459              		@ frame_needed = 0, uses_anonymous_args = 0
 460 0000 10B5     		push	{r4, lr}
 461 0002 0446     		mov	r4, r0
 462 0004 5208     		lsrs	r2, r2, #1
 463 0006 0020     		movs	r0, #0
ARM GAS  C:\Temp\cchBoeYA.s 			page 9


 464 0008 06E0     		b	.L53
 465              	.L57:
 466 000a 1044     		add	r0, r0, r2
 467 000c 6446     		mov	r4, ip
 468 000e 7146     		mov	r1, lr
 469              	.L52:
 470 0010 5308     		lsrs	r3, r2, #1
 471 0012 012A     		cmp	r2, #1
 472 0014 1AD9     		bls	.L56
 473 0016 1A46     		mov	r2, r3
 474              	.L53:
 475 0018 C2F1200E 		rsb	lr, r2, #32
 476 001c A2F12003 		sub	r3, r2, #32
 477 0020 24FA02FC 		lsr	ip, r4, r2
 478 0024 01FA0EFE 		lsl	lr, r1, lr
 479 0028 4CEA0E0C 		orr	ip, ip, lr
 480 002c 21FA03F3 		lsr	r3, r1, r3
 481 0030 4CEA030C 		orr	ip, ip, r3
 482 0034 21FA02FE 		lsr	lr, r1, r2
 483 0038 0123     		movs	r3, #1
 484 003a 9340     		lsls	r3, r3, r2
 485 003c 013B     		subs	r3, r3, #1
 486 003e 1C40     		ands	r4, r4, r3
 487 0040 01EAE371 		and	r1, r1, r3, asr #31
 488 0044 5CEA0E03 		orrs	r3, ip, lr
 489 0048 E2D0     		beq	.L52
 490 004a DEE7     		b	.L57
 491              	.L56:
 492 004c 10BD     		pop	{r4, pc}
 494              		.section	.text.VL53L1_f_043,"ax",%progbits
 495              		.align	1
 496              		.global	VL53L1_f_043
 497              		.syntax unified
 498              		.thumb
 499              		.thumb_func
 501              	VL53L1_f_043:
 502              		@ args = 0, pretend = 0, frame = 0
 503              		@ frame_needed = 0, uses_anonymous_args = 0
 504 0000 B0F5803F 		cmp	r0, #65536
 505 0004 0DD2     		bcs	.L60
 506 0006 B1F5803F 		cmp	r1, #65536
 507 000a 02D3     		bcc	.L66
 508 000c 4FF6FF70 		movw	r0, #65535
 509 0010 7047     		bx	lr
 510              	.L66:
 511 0012 08B5     		push	{r3, lr}
 512 0014 01FB01F1 		mul	r1, r1, r1
 513 0018 00FB0010 		mla	r0, r0, r0, r1
 514 001c FFF7FEFF 		bl	VL53L1_isqrt
 515 0020 08BD     		pop	{r3, pc}
 516              	.L60:
 517 0022 4FF6FF70 		movw	r0, #65535
 518 0026 7047     		bx	lr
 520              		.section	.text.VL53L1_f_042,"ax",%progbits
 521              		.align	1
 522              		.global	VL53L1_f_042
 523              		.syntax unified
ARM GAS  C:\Temp\cchBoeYA.s 			page 10


 524              		.thumb
 525              		.thumb_func
 527              	VL53L1_f_042:
 528              		@ args = 0, pretend = 0, frame = 0
 529              		@ frame_needed = 0, uses_anonymous_args = 0
 530 0000 70B5     		push	{r4, r5, r6, lr}
 531 0002 1C46     		mov	r4, r3
 532 0004 1B8E     		ldrh	r3, [r3, #48]
 533 0006 3BB3     		cbz	r3, .L69
 534 0008 1546     		mov	r5, r2
 535 000a E26A     		ldr	r2, [r4, #44]
 536 000c 002A     		cmp	r2, #0
 537 000e 27DD     		ble	.L70
 538 0010 6426     		movs	r6, #100
 539 0012 00FB01F1 		mul	r1, r0, r1
 540 0016 5A08     		lsrs	r2, r3, #1
 541 0018 06FB0121 		mla	r1, r6, r1, r2
 542 001c B1FBF3F1 		udiv	r1, r1, r3
 543 0020 06FB00F0 		mul	r0, r6, r0
 544 0024 FFF7FEFF 		bl	VL53L1_f_043
 545 0028 9623     		movs	r3, #150
 546 002a 03FB00F6 		mul	r6, r3, r0
 547 002e E06A     		ldr	r0, [r4, #44]
 548 0030 00EB4000 		add	r0, r0, r0, lsl #1
 549 0034 8000     		lsls	r0, r0, #2
 550 0036 FFF7FEFF 		bl	VL53L1_isqrt
 551 003a 10B9     		cbnz	r0, .L73
 552 003c 4FF6FF70 		movw	r0, #65535
 553 0040 0CE0     		b	.L68
 554              	.L73:
 555 0042 06EB5006 		add	r6, r6, r0, lsr #1
 556 0046 B6FBF0F1 		udiv	r1, r6, r0
 557 004a 6420     		movs	r0, #100
 558 004c 05FB00F0 		mul	r0, r5, r0
 559 0050 FFF7FEFF 		bl	VL53L1_f_043
 560 0054 80B2     		uxth	r0, r0
 561 0056 01E0     		b	.L68
 562              	.L69:
 563 0058 4FF6FF70 		movw	r0, #65535
 564              	.L68:
 565 005c A087     		strh	r0, [r4, #60]	@ movhi
 566 005e 70BD     		pop	{r4, r5, r6, pc}
 567              	.L70:
 568 0060 4FF6FF70 		movw	r0, #65535
 569 0064 FAE7     		b	.L68
 571              		.ident	"GCC: (xPack GNU Arm Embedded GCC x86_64) 12.3.1 20230626"
ARM GAS  C:\Temp\cchBoeYA.s 			page 11

