ARM GAS  C:\Temp\ccZaAZsQ.s 			page 1


   1              		.cpu cortex-m4
   2              		.arch armv7e-m
   3              		.fpu fpv4-sp-d16
   4              		.eabi_attribute 27, 1
   5              		.eabi_attribute 28, 1
   6              		.eabi_attribute 20, 1
   7              		.eabi_attribute 21, 1
   8              		.eabi_attribute 23, 3
   9              		.eabi_attribute 24, 1
  10              		.eabi_attribute 25, 1
  11              		.eabi_attribute 26, 1
  12              		.eabi_attribute 30, 1
  13              		.eabi_attribute 34, 1
  14              		.eabi_attribute 18, 4
  15              		.file	"vl53l1_api_strings.c"
  16              		.text
  17              		.section	.rodata.VL53L1_get_range_status_string.str1.4,"aMS",%progbits,1
  18              		.align	2
  19              	.LC0:
  20 0000 52616E67 		.ascii	"Range Valid\000"
  20      65205661 
  20      6C696400 
  21              		.align	2
  22              	.LC1:
  23 000c 5369676D 		.ascii	"Sigma Fail\000"
  23      61204661 
  23      696C00
  24 0017 00       		.align	2
  25              	.LC2:
  26 0018 5369676E 		.ascii	"Signal Fail\000"
  26      616C2046 
  26      61696C00 
  27              		.align	2
  28              	.LC3:
  29 0024 4D696E20 		.ascii	"Min Range Fail\000"
  29      52616E67 
  29      65204661 
  29      696C00
  30 0033 00       		.align	2
  31              	.LC4:
  32 0034 50686173 		.ascii	"Phase Fail\000"
  32      65204661 
  32      696C00
  33 003f 00       		.align	2
  34              	.LC5:
  35 0040 48617264 		.ascii	"Hardware Fail\000"
  35      77617265 
  35      20466169 
  35      6C00
  36 004e 0000     		.align	2
  37              	.LC6:
  38 0050 4E6F2055 		.ascii	"No Update\000"
  38      70646174 
  38      6500
  39              		.section	.text.VL53L1_get_range_status_string,"ax",%progbits
  40              		.align	1
  41              		.global	VL53L1_get_range_status_string
ARM GAS  C:\Temp\ccZaAZsQ.s 			page 2


  42              		.syntax unified
  43              		.thumb
  44              		.thumb_func
  46              	VL53L1_get_range_status_string:
  47              		@ args = 0, pretend = 0, frame = 0
  48              		@ frame_needed = 0, uses_anonymous_args = 0
  49 0000 08B5     		push	{r3, lr}
  50 0002 0B46     		mov	r3, r1
  51 0004 0528     		cmp	r0, #5
  52 0006 2FD8     		bhi	.L2
  53 0008 DFE800F0 		tbb	[pc, r0]
  54              	.L4:
  55 000c 03       		.byte	(.L9-.L4)/2
  56 000d 0B       		.byte	(.L8-.L4)/2
  57 000e 12       		.byte	(.L7-.L4)/2
  58 000f 19       		.byte	(.L6-.L4)/2
  59 0010 20       		.byte	(.L5-.L4)/2
  60 0011 27       		.byte	(.L3-.L4)/2
  61              		.p2align 1
  62              	.L9:
  63 0012 40F2FF12 		movw	r2, #511
  64 0016 1849     		ldr	r1, .L12
  65 0018 1846     		mov	r0, r3
  66 001a FFF7FEFF 		bl	strncpy
  67              	.L10:
  68 001e 0020     		movs	r0, #0
  69 0020 08BD     		pop	{r3, pc}
  70              	.L8:
  71 0022 40F2FF12 		movw	r2, #511
  72 0026 1549     		ldr	r1, .L12+4
  73 0028 1846     		mov	r0, r3
  74 002a FFF7FEFF 		bl	strncpy
  75 002e F6E7     		b	.L10
  76              	.L7:
  77 0030 40F2FF12 		movw	r2, #511
  78 0034 1249     		ldr	r1, .L12+8
  79 0036 1846     		mov	r0, r3
  80 0038 FFF7FEFF 		bl	strncpy
  81 003c EFE7     		b	.L10
  82              	.L6:
  83 003e 40F2FF12 		movw	r2, #511
  84 0042 1049     		ldr	r1, .L12+12
  85 0044 1846     		mov	r0, r3
  86 0046 FFF7FEFF 		bl	strncpy
  87 004a E8E7     		b	.L10
  88              	.L5:
  89 004c 40F2FF12 		movw	r2, #511
  90 0050 0D49     		ldr	r1, .L12+16
  91 0052 1846     		mov	r0, r3
  92 0054 FFF7FEFF 		bl	strncpy
  93 0058 E1E7     		b	.L10
  94              	.L3:
  95 005a 40F2FF12 		movw	r2, #511
  96 005e 0B49     		ldr	r1, .L12+20
  97 0060 1846     		mov	r0, r3
  98 0062 FFF7FEFF 		bl	strncpy
  99 0066 DAE7     		b	.L10
ARM GAS  C:\Temp\ccZaAZsQ.s 			page 3


 100              	.L2:
 101 0068 40F2FF12 		movw	r2, #511
 102 006c 0849     		ldr	r1, .L12+24
 103 006e 1846     		mov	r0, r3
 104 0070 FFF7FEFF 		bl	strncpy
 105 0074 D3E7     		b	.L10
 106              	.L13:
 107 0076 00BF     		.align	2
 108              	.L12:
 109 0078 00000000 		.word	.LC0
 110 007c 0C000000 		.word	.LC1
 111 0080 18000000 		.word	.LC2
 112 0084 24000000 		.word	.LC3
 113 0088 34000000 		.word	.LC4
 114 008c 40000000 		.word	.LC5
 115 0090 50000000 		.word	.LC6
 117              		.section	.rodata.VL53L1_get_pal_state_string.str1.4,"aMS",%progbits,1
 118              		.align	2
 119              	.LC7:
 120 0000 504F5745 		.ascii	"POWERDOWN State\000"
 120      52444F57 
 120      4E205374 
 120      61746500 
 121              		.align	2
 122              	.LC8:
 123 0010 57616974 		.ascii	"Wait for staticinit State\000"
 123      20666F72 
 123      20737461 
 123      74696369 
 123      6E697420 
 124 002a 0000     		.align	2
 125              	.LC9:
 126 002c 5354414E 		.ascii	"STANDBY State\000"
 126      44425920 
 126      53746174 
 126      6500
 127 003a 0000     		.align	2
 128              	.LC10:
 129 003c 49444C45 		.ascii	"IDLE State\000"
 129      20537461 
 129      746500
 130 0047 00       		.align	2
 131              	.LC11:
 132 0048 52554E4E 		.ascii	"RUNNING State\000"
 132      494E4720 
 132      53746174 
 132      6500
 133 0056 0000     		.align	2
 134              	.LC12:
 135 0058 52455345 		.ascii	"RESET State\000"
 135      54205374 
 135      61746500 
 136              		.align	2
 137              	.LC13:
 138 0064 554E4B4E 		.ascii	"UNKNOWN State\000"
 138      4F574E20 
 138      53746174 
ARM GAS  C:\Temp\ccZaAZsQ.s 			page 4


 138      6500
 139 0072 0000     		.align	2
 140              	.LC14:
 141 0074 4552524F 		.ascii	"ERROR State\000"
 141      52205374 
 141      61746500 
 142              		.section	.text.VL53L1_get_pal_state_string,"ax",%progbits
 143              		.align	1
 144              		.global	VL53L1_get_pal_state_string
 145              		.syntax unified
 146              		.thumb
 147              		.thumb_func
 149              	VL53L1_get_pal_state_string:
 150              		@ args = 0, pretend = 0, frame = 0
 151              		@ frame_needed = 0, uses_anonymous_args = 0
 152 0000 08B5     		push	{r3, lr}
 153 0002 0346     		mov	r3, r0
 154 0004 0846     		mov	r0, r1
 155 0006 052B     		cmp	r3, #5
 156 0008 06D8     		bhi	.L15
 157 000a 052B     		cmp	r3, #5
 158 000c 39D8     		bhi	.L16
 159 000e DFE803F0 		tbb	[pc, r3]
 160              	.L18:
 161 0012 0D       		.byte	(.L23-.L18)/2
 162 0013 14       		.byte	(.L22-.L18)/2
 163 0014 1A       		.byte	(.L21-.L18)/2
 164 0015 20       		.byte	(.L20-.L18)/2
 165 0016 26       		.byte	(.L19-.L18)/2
 166 0017 2C       		.byte	(.L17-.L18)/2
 167              		.p2align 1
 168              	.L15:
 169 0018 622B     		cmp	r3, #98
 170 001a 2CD0     		beq	.L24
 171 001c 632B     		cmp	r3, #99
 172 001e 30D1     		bne	.L16
 173 0020 40F2FF12 		movw	r2, #511
 174 0024 1A49     		ldr	r1, .L29
 175 0026 FFF7FEFF 		bl	strncpy
 176 002a 04E0     		b	.L26
 177              	.L23:
 178 002c 40F2FF12 		movw	r2, #511
 179 0030 1849     		ldr	r1, .L29+4
 180 0032 FFF7FEFF 		bl	strncpy
 181              	.L26:
 182 0036 0020     		movs	r0, #0
 183 0038 08BD     		pop	{r3, pc}
 184              	.L22:
 185 003a 40F2FF12 		movw	r2, #511
 186 003e 1649     		ldr	r1, .L29+8
 187 0040 FFF7FEFF 		bl	strncpy
 188 0044 F7E7     		b	.L26
 189              	.L21:
 190 0046 40F2FF12 		movw	r2, #511
 191 004a 1449     		ldr	r1, .L29+12
 192 004c FFF7FEFF 		bl	strncpy
 193 0050 F1E7     		b	.L26
ARM GAS  C:\Temp\ccZaAZsQ.s 			page 5


 194              	.L20:
 195 0052 40F2FF12 		movw	r2, #511
 196 0056 1249     		ldr	r1, .L29+16
 197 0058 FFF7FEFF 		bl	strncpy
 198 005c EBE7     		b	.L26
 199              	.L19:
 200 005e 40F2FF12 		movw	r2, #511
 201 0062 1049     		ldr	r1, .L29+20
 202 0064 FFF7FEFF 		bl	strncpy
 203 0068 E5E7     		b	.L26
 204              	.L17:
 205 006a 40F2FF12 		movw	r2, #511
 206 006e 0E49     		ldr	r1, .L29+24
 207 0070 FFF7FEFF 		bl	strncpy
 208 0074 DFE7     		b	.L26
 209              	.L24:
 210 0076 40F2FF12 		movw	r2, #511
 211 007a 0C49     		ldr	r1, .L29+28
 212 007c FFF7FEFF 		bl	strncpy
 213 0080 D9E7     		b	.L26
 214              	.L16:
 215 0082 40F2FF12 		movw	r2, #511
 216 0086 0949     		ldr	r1, .L29+28
 217 0088 FFF7FEFF 		bl	strncpy
 218 008c D3E7     		b	.L26
 219              	.L30:
 220 008e 00BF     		.align	2
 221              	.L29:
 222 0090 74000000 		.word	.LC14
 223 0094 00000000 		.word	.LC7
 224 0098 10000000 		.word	.LC8
 225 009c 2C000000 		.word	.LC9
 226 00a0 3C000000 		.word	.LC10
 227 00a4 48000000 		.word	.LC11
 228 00a8 58000000 		.word	.LC12
 229 00ac 64000000 		.word	.LC13
 231              		.section	.rodata.VL53L1_get_sequence_steps_info.str1.4,"aMS",%progbits,1
 232              		.align	2
 233              	.LC15:
 234 0000 56485600 		.ascii	"VHV\000"
 235              		.align	2
 236              	.LC16:
 237 0004 50484153 		.ascii	"PHASE CAL\000"
 237      45204341 
 237      4C00
 238 000e 0000     		.align	2
 239              	.LC17:
 240 0010 44535331 		.ascii	"DSS1\000"
 240      00
 241 0015 000000   		.align	2
 242              	.LC18:
 243 0018 44535332 		.ascii	"DSS2\000"
 243      00
 244 001d 000000   		.align	2
 245              	.LC19:
 246 0020 4D4D3100 		.ascii	"MM1\000"
 247              		.align	2
ARM GAS  C:\Temp\ccZaAZsQ.s 			page 6


 248              	.LC20:
 249 0024 4D4D3200 		.ascii	"MM2\000"
 250              		.align	2
 251              	.LC21:
 252 0028 52414E47 		.ascii	"RANGE\000"
 252      4500
 253              		.section	.text.VL53L1_get_sequence_steps_info,"ax",%progbits
 254              		.align	1
 255              		.global	VL53L1_get_sequence_steps_info
 256              		.syntax unified
 257              		.thumb
 258              		.thumb_func
 260              	VL53L1_get_sequence_steps_info:
 261              		@ args = 0, pretend = 0, frame = 0
 262              		@ frame_needed = 0, uses_anonymous_args = 0
 263 0000 08B5     		push	{r3, lr}
 264 0002 0346     		mov	r3, r0
 265 0004 0846     		mov	r0, r1
 266 0006 072B     		cmp	r3, #7
 267 0008 3DD8     		bhi	.L42
 268 000a DFE803F0 		tbb	[pc, r3]
 269              	.L34:
 270 000e 04       		.byte	(.L41-.L34)/2
 271 000f 0B       		.byte	(.L40-.L34)/2
 272 0010 12       		.byte	(.L39-.L34)/2
 273 0011 19       		.byte	(.L38-.L34)/2
 274 0012 20       		.byte	(.L37-.L34)/2
 275 0013 27       		.byte	(.L36-.L34)/2
 276 0014 2E       		.byte	(.L35-.L34)/2
 277 0015 35       		.byte	(.L33-.L34)/2
 278              		.p2align 1
 279              	.L41:
 280 0016 40F2FF12 		movw	r2, #511
 281 001a 1C49     		ldr	r1, .L44
 282 001c FFF7FEFF 		bl	strncpy
 283 0020 0020     		movs	r0, #0
 284              	.L32:
 285 0022 08BD     		pop	{r3, pc}
 286              	.L40:
 287 0024 40F2FF12 		movw	r2, #511
 288 0028 1949     		ldr	r1, .L44+4
 289 002a FFF7FEFF 		bl	strncpy
 290 002e 0020     		movs	r0, #0
 291 0030 F7E7     		b	.L32
 292              	.L39:
 293 0032 40F2FF12 		movw	r2, #511
 294 0036 1749     		ldr	r1, .L44+8
 295 0038 FFF7FEFF 		bl	strncpy
 296 003c 0020     		movs	r0, #0
 297 003e F0E7     		b	.L32
 298              	.L38:
 299 0040 40F2FF12 		movw	r2, #511
 300 0044 1349     		ldr	r1, .L44+8
 301 0046 FFF7FEFF 		bl	strncpy
 302 004a 0020     		movs	r0, #0
 303 004c E9E7     		b	.L32
 304              	.L37:
ARM GAS  C:\Temp\ccZaAZsQ.s 			page 7


 305 004e 40F2FF12 		movw	r2, #511
 306 0052 1149     		ldr	r1, .L44+12
 307 0054 FFF7FEFF 		bl	strncpy
 308 0058 0020     		movs	r0, #0
 309 005a E2E7     		b	.L32
 310              	.L36:
 311 005c 40F2FF12 		movw	r2, #511
 312 0060 0E49     		ldr	r1, .L44+16
 313 0062 FFF7FEFF 		bl	strncpy
 314 0066 0020     		movs	r0, #0
 315 0068 DBE7     		b	.L32
 316              	.L35:
 317 006a 40F2FF12 		movw	r2, #511
 318 006e 0C49     		ldr	r1, .L44+20
 319 0070 FFF7FEFF 		bl	strncpy
 320 0074 0020     		movs	r0, #0
 321 0076 D4E7     		b	.L32
 322              	.L33:
 323 0078 40F2FF12 		movw	r2, #511
 324 007c 0949     		ldr	r1, .L44+24
 325 007e FFF7FEFF 		bl	strncpy
 326 0082 0020     		movs	r0, #0
 327 0084 CDE7     		b	.L32
 328              	.L42:
 329 0086 6FF00300 		mvn	r0, #3
 330 008a CAE7     		b	.L32
 331              	.L45:
 332              		.align	2
 333              	.L44:
 334 008c 00000000 		.word	.LC15
 335 0090 04000000 		.word	.LC16
 336 0094 10000000 		.word	.LC17
 337 0098 18000000 		.word	.LC18
 338 009c 20000000 		.word	.LC19
 339 00a0 24000000 		.word	.LC20
 340 00a4 28000000 		.word	.LC21
 342              		.section	.rodata.VL53L1_get_limit_check_info.str1.4,"aMS",%progbits,1
 343              		.align	2
 344              	.LC22:
 345 0000 5349474D 		.ascii	"SIGMA FINAL RANGE\000"
 345      41204649 
 345      4E414C20 
 345      52414E47 
 345      4500
 346 0012 0000     		.align	2
 347              	.LC23:
 348 0014 5349474E 		.ascii	"SIGNAL RATE FINAL RANGE\000"
 348      414C2052 
 348      41544520 
 348      46494E41 
 348      4C205241 
 349              		.align	2
 350              	.LC24:
 351 002c 556E6B6E 		.ascii	"Unknown Error Code\000"
 351      6F776E20 
 351      4572726F 
 351      7220436F 
ARM GAS  C:\Temp\ccZaAZsQ.s 			page 8


 351      646500
 352              		.section	.text.VL53L1_get_limit_check_info,"ax",%progbits
 353              		.align	1
 354              		.global	VL53L1_get_limit_check_info
 355              		.syntax unified
 356              		.thumb
 357              		.thumb_func
 359              	VL53L1_get_limit_check_info:
 360              		@ args = 0, pretend = 0, frame = 0
 361              		@ frame_needed = 0, uses_anonymous_args = 0
 362 0000 08B5     		push	{r3, lr}
 363 0002 0346     		mov	r3, r0
 364 0004 0846     		mov	r0, r1
 365 0006 3BB1     		cbz	r3, .L47
 366 0008 012B     		cmp	r3, #1
 367 000a 0CD0     		beq	.L48
 368 000c 40F2FF12 		movw	r2, #511
 369 0010 0849     		ldr	r1, .L53
 370 0012 FFF7FEFF 		bl	strncpy
 371 0016 04E0     		b	.L50
 372              	.L47:
 373 0018 40F2FF12 		movw	r2, #511
 374 001c 0649     		ldr	r1, .L53+4
 375 001e FFF7FEFF 		bl	strncpy
 376              	.L50:
 377 0022 0020     		movs	r0, #0
 378 0024 08BD     		pop	{r3, pc}
 379              	.L48:
 380 0026 40F2FF12 		movw	r2, #511
 381 002a 0449     		ldr	r1, .L53+8
 382 002c FFF7FEFF 		bl	strncpy
 383 0030 F7E7     		b	.L50
 384              	.L54:
 385 0032 00BF     		.align	2
 386              	.L53:
 387 0034 2C000000 		.word	.LC24
 388 0038 00000000 		.word	.LC22
 389 003c 14000000 		.word	.LC23
 391              		.ident	"GCC: (xPack GNU Arm Embedded GCC x86_64) 12.3.1 20230626"
ARM GAS  C:\Temp\ccZaAZsQ.s 			page 9

