ARM GAS  C:\Temp\ccLQRxBk.s 			page 1


   1              		.cpu cortex-m4
   2              		.arch armv7e-m
   3              		.fpu fpv4-sp-d16
   4              		.eabi_attribute 27, 1
   5              		.eabi_attribute 28, 1
   6              		.eabi_attribute 20, 1
   7              		.eabi_attribute 21, 1
   8              		.eabi_attribute 23, 3
   9              		.eabi_attribute 24, 1
  10              		.eabi_attribute 25, 1
  11              		.eabi_attribute 26, 1
  12              		.eabi_attribute 30, 1
  13              		.eabi_attribute 34, 1
  14              		.eabi_attribute 18, 4
  15              		.file	"vl53l1_hist_funcs.c"
  16              		.text
  17              		.section	.text.VL53L1_hist_process_data,"ax",%progbits
  18              		.align	1
  19              		.global	VL53L1_hist_process_data
  20              		.syntax unified
  21              		.thumb
  22              		.thumb_func
  24              	VL53L1_hist_process_data:
  25              		@ args = 20, pretend = 0, frame = 240
  26              		@ frame_needed = 0, uses_anonymous_args = 0
  27 0000 2DE9F04F 		push	{r4, r5, r6, r7, r8, r9, r10, fp, lr}
  28 0004 C3B0     		sub	sp, sp, #268
  29 0006 0890     		str	r0, [sp, #32]
  30 0008 0991     		str	r1, [sp, #36]
  31 000a 1746     		mov	r7, r2
  32 000c 1C46     		mov	r4, r3
  33 000e 4C9D     		ldr	r5, [sp, #304]
  34 0010 4F9E     		ldr	r6, [sp, #316]
  35 0012 DDF84081 		ldr	r8, [sp, #320]
  36 0016 4FF00009 		mov	r9, #0
  37 001a CDF83090 		str	r9, [sp, #48]
  38 001e 0DA9     		add	r1, sp, #52
  39 0020 1846     		mov	r0, r3
  40 0022 FFF7FEFF 		bl	VL53L1_f_039
  41 0026 05F14803 		add	r3, r5, #72
  42 002a 0793     		str	r3, [sp, #28]
  43 002c 9A46     		mov	r10, r3
  44 002e 1A46     		mov	r2, r3
  45 0030 A97A     		ldrb	r1, [r5, #10]	@ zero_extendqisi2
  46 0032 4846     		mov	r0, r9
  47 0034 FFF7FEFF 		bl	VL53L1_init_histogram_bin_data_struct
  48 0038 5146     		mov	r1, r10
  49 003a 2846     		mov	r0, r5
  50 003c FFF7FEFF 		bl	VL53L1_copy_xtalk_bin_data_to_histogram_data_struct
  51 0040 97F82830 		ldrb	r3, [r7, #40]	@ zero_extendqisi2
  52 0044 FBB9     		cbnz	r3, .L17
  53 0046 0023     		movs	r3, #0
  54 0048 0693     		str	r3, [sp, #24]
  55              	.L2:
  56 004a 97F82830 		ldrb	r3, [r7, #40]	@ zero_extendqisi2
  57 004e 9BBB     		cbnz	r3, .L18
  58              	.L3:
ARM GAS  C:\Temp\ccLQRxBk.s 			page 2


  59 0050 2F9B     		ldr	r3, [sp, #188]
  60 0052 C6F85C31 		str	r3, [r6, #348]
  61 0056 BDF8B030 		ldrh	r3, [sp, #176]
  62 005a A6F85A31 		strh	r3, [r6, #346]	@ movhi
  63 005e 0023     		movs	r3, #0
  64 0060 A6F87431 		strh	r3, [r6, #372]	@ movhi
  65 0064 C6F87C31 		str	r3, [r6, #380]
  66 0068 86F84431 		strb	r3, [r6, #324]
  67 006c 86F88E31 		strb	r3, [r6, #398]
  68 0070 97F828B0 		ldrb	fp, [r7, #40]	@ zero_extendqisi2
  69 0074 BBF1000F 		cmp	fp, #0
  70 0078 01D0     		beq	.L4
  71 007a 4FF0010B 		mov	fp, #1
  72              	.L4:
  73 007e 0025     		movs	r5, #0
  74 0080 DDF838A1 		ldr	r10, [sp, #312]
  75 0084 6BE0     		b	.L5
  76              	.L17:
  77 0086 0CAB     		add	r3, sp, #48
  78 0088 0493     		str	r3, [sp, #16]
  79 008a 94F8A930 		ldrb	r3, [r4, #169]	@ zero_extendqisi2
  80 008e 0393     		str	r3, [sp, #12]
  81 0090 94F8A830 		ldrb	r3, [r4, #168]	@ zero_extendqisi2
  82 0094 0293     		str	r3, [sp, #8]
  83 0096 B4F87C30 		ldrh	r3, [r4, #124]
  84 009a 0193     		str	r3, [sp, #4]
  85 009c 4B46     		mov	r3, r9
  86 009e CDF80090 		str	r9, [sp]
  87 00a2 B7F93220 		ldrsh	r2, [r7, #50]
  88 00a6 B7F93010 		ldrsh	r1, [r7, #48]
  89 00aa F86A     		ldr	r0, [r7, #44]
  90 00ac FFF7FEFF 		bl	VL53L1_f_040
  91 00b0 0690     		str	r0, [sp, #24]
  92 00b2 0028     		cmp	r0, #0
  93 00b4 CCD1     		bne	.L3
  94 00b6 C8E7     		b	.L2
  95              	.L18:
  96 00b8 079B     		ldr	r3, [sp, #28]
  97 00ba 0C9A     		ldr	r2, [sp, #48]
  98 00bc 2946     		mov	r1, r5
  99 00be 0DA8     		add	r0, sp, #52
 100 00c0 FFF7FEFF 		bl	VL53L1_f_041
 101 00c4 0690     		str	r0, [sp, #24]
 102 00c6 C3E7     		b	.L3
 103              	.L9:
 104 00c8 9BB2     		uxth	r3, r3
 105 00ca 80B2     		uxth	r0, r0
 106 00cc 1B1A     		subs	r3, r3, r0
 107 00ce 1BB2     		sxth	r3, r3
 108 00d0 16E0     		b	.L10
 109              	.L11:
 110 00d2 0134     		adds	r4, r4, #1
 111 00d4 E4B2     		uxtb	r4, r4
 112              	.L8:
 113 00d6 A145     		cmp	r9, r4
 114 00d8 3ED9     		bls	.L19
 115 00da 2246     		mov	r2, r4
ARM GAS  C:\Temp\ccLQRxBk.s 			page 3


 116 00dc 4C23     		movs	r3, #76
 117 00de 04FB03F3 		mul	r3, r4, r3
 118 00e2 03F11001 		add	r1, r3, #16
 119 00e6 3144     		add	r1, r1, r6
 120 00e8 0431     		adds	r1, r1, #4
 121 00ea 3344     		add	r3, r3, r6
 122 00ec B3F95C00 		ldrsh	r0, [r3, #92]
 123 00f0 B3F95830 		ldrsh	r3, [r3, #88]
 124 00f4 9842     		cmp	r0, r3
 125 00f6 E7DD     		ble	.L9
 126 00f8 80B2     		uxth	r0, r0
 127 00fa 9BB2     		uxth	r3, r3
 128 00fc C01A     		subs	r0, r0, r3
 129 00fe 03B2     		sxth	r3, r0
 130              	.L10:
 131 0100 B7F83AC0 		ldrh	ip, [r7, #58]
 132 0104 98F80000 		ldrb	r0, [r8]	@ zero_extendqisi2
 133 0108 0CFB00F0 		mul	r0, ip, r0
 134 010c 4FEA401C 		lsl	ip, r0, #5
 135 0110 4C20     		movs	r0, #76
 136 0112 00FB0260 		mla	r0, r0, r2, r6
 137 0116 B0F95A00 		ldrsh	r0, [r0, #90]
 138 011a B7F934E0 		ldrsh	lr, [r7, #52]
 139 011e 7045     		cmp	r0, lr
 140 0120 D7DD     		ble	.L11
 141 0122 B7F936E0 		ldrsh	lr, [r7, #54]
 142 0126 7045     		cmp	r0, lr
 143 0128 D3DA     		bge	.L11
 144 012a 4C20     		movs	r0, #76
 145 012c 00FB0260 		mla	r0, r0, r2, r6
 146 0130 C06C     		ldr	r0, [r0, #76]
 147 0132 0A9D     		ldr	r5, [sp, #40]
 148 0134 A842     		cmp	r0, r5
 149 0136 CCD2     		bcs	.L11
 150 0138 4C20     		movs	r0, #76
 151 013a 00FB0262 		mla	r2, r0, r2, r6
 152 013e B2F85020 		ldrh	r2, [r2, #80]
 153 0142 6245     		cmp	r2, ip
 154 0144 C5D2     		bcs	.L11
 155 0146 FA8F     		ldrh	r2, [r7, #62]
 156 0148 9342     		cmp	r3, r2
 157 014a C2DA     		bge	.L11
 158 014c 0246     		mov	r2, r0
 159 014e 06F5A270 		add	r0, r6, #324
 160 0152 FFF7FEFF 		bl	memcpy
 161 0156 BCE7     		b	.L11
 162              	.L19:
 163 0158 0B9D     		ldr	r5, [sp, #44]
 164              	.L6:
 165 015a 0135     		adds	r5, r5, #1
 166 015c EDB2     		uxtb	r5, r5
 167              	.L5:
 168 015e AB45     		cmp	fp, r5
 169 0160 2ED3     		bcc	.L20
 170 0162 87F82850 		strb	r5, [r7, #40]
 171 0166 98F80030 		ldrb	r3, [r8]	@ zero_extendqisi2
 172 016a 0593     		str	r3, [sp, #20]
ARM GAS  C:\Temp\ccLQRxBk.s 			page 4


 173 016c 0496     		str	r6, [sp, #16]
 174 016e 38AB     		add	r3, sp, #224
 175 0170 0393     		str	r3, [sp, #12]
 176 0172 CDF808A0 		str	r10, [sp, #8]
 177 0176 4D9B     		ldr	r3, [sp, #308]
 178 0178 0193     		str	r3, [sp, #4]
 179 017a 079B     		ldr	r3, [sp, #28]
 180 017c 0093     		str	r3, [sp]
 181 017e 0DAB     		add	r3, sp, #52
 182 0180 3A46     		mov	r2, r7
 183 0182 0999     		ldr	r1, [sp, #36]
 184 0184 0898     		ldr	r0, [sp, #32]
 185 0186 FFF7FEFF 		bl	VL53L1_f_033
 186 018a 0690     		str	r0, [sp, #24]
 187 018c 0028     		cmp	r0, #0
 188 018e E4D1     		bne	.L6
 189 0190 002D     		cmp	r5, #0
 190 0192 E2D1     		bne	.L6
 191 0194 96F81290 		ldrb	r9, [r6, #18]	@ zero_extendqisi2
 192 0198 B9F1000F 		cmp	r9, #0
 193 019c 06D1     		bne	.L7
 194 019e BDF8F830 		ldrh	r3, [sp, #248]
 195 01a2 A6F84830 		strh	r3, [r6, #72]	@ movhi
 196 01a6 BDF8FA30 		ldrh	r3, [sp, #250]
 197 01aa 7385     		strh	r3, [r6, #42]	@ movhi
 198              	.L7:
 199 01ac 3A8F     		ldrh	r2, [r7, #56]
 200 01ae 98F80030 		ldrb	r3, [r8]	@ zero_extendqisi2
 201 01b2 02FB03F3 		mul	r3, r2, r3
 202 01b6 1B01     		lsls	r3, r3, #4
 203 01b8 0A93     		str	r3, [sp, #40]
 204 01ba 2C46     		mov	r4, r5
 205 01bc 0B95     		str	r5, [sp, #44]
 206 01be 8AE7     		b	.L8
 207              	.L20:
 208 01c0 87F828B0 		strb	fp, [r7, #40]
 209 01c4 0698     		ldr	r0, [sp, #24]
 210 01c6 43B0     		add	sp, sp, #268
 211              		@ sp needed
 212 01c8 BDE8F08F 		pop	{r4, r5, r6, r7, r8, r9, r10, fp, pc}
 214              		.section	.text.VL53L1_hist_ambient_dmax,"ax",%progbits
 215              		.align	1
 216              		.global	VL53L1_hist_ambient_dmax
 217              		.syntax unified
 218              		.thumb
 219              		.thumb_func
 221              	VL53L1_hist_ambient_dmax:
 222              		@ args = 4, pretend = 0, frame = 40
 223              		@ frame_needed = 0, uses_anonymous_args = 0
 224 0000 10B5     		push	{r4, lr}
 225 0002 8CB0     		sub	sp, sp, #48
 226 0004 0E9C     		ldr	r4, [sp, #56]
 227 0006 0194     		str	r4, [sp, #4]
 228 0008 02AC     		add	r4, sp, #8
 229 000a 0094     		str	r4, [sp]
 230 000c FFF7FEFF 		bl	VL53L1_f_001
 231 0010 0CB0     		add	sp, sp, #48
ARM GAS  C:\Temp\ccLQRxBk.s 			page 5


 232              		@ sp needed
 233 0012 10BD     		pop	{r4, pc}
 235              		.ident	"GCC: (xPack GNU Arm Embedded GCC x86_64) 12.3.1 20230626"
ARM GAS  C:\Temp\ccLQRxBk.s 			page 6


DEFINED SYMBOLS
                            *ABS*:00000000 vl53l1_hist_funcs.c
  C:\Temp\ccLQRxBk.s:18     .text.VL53L1_hist_process_data:00000000 $t
  C:\Temp\ccLQRxBk.s:24     .text.VL53L1_hist_process_data:00000000 VL53L1_hist_process_data
  C:\Temp\ccLQRxBk.s:215    .text.VL53L1_hist_ambient_dmax:00000000 $t
  C:\Temp\ccLQRxBk.s:221    .text.VL53L1_hist_ambient_dmax:00000000 VL53L1_hist_ambient_dmax

UNDEFINED SYMBOLS
VL53L1_f_039
VL53L1_init_histogram_bin_data_struct
VL53L1_copy_xtalk_bin_data_to_histogram_data_struct
VL53L1_f_040
VL53L1_f_041
memcpy
VL53L1_f_033
VL53L1_f_001
