ARM GAS  C:\Temp\ccPnkkzZ.s 			page 1


   1              		.cpu cortex-m4
   2              		.arch armv7e-m
   3              		.fpu fpv4-sp-d16
   4              		.eabi_attribute 27, 1
   5              		.eabi_attribute 28, 1
   6              		.eabi_attribute 20, 1
   7              		.eabi_attribute 21, 1
   8              		.eabi_attribute 23, 3
   9              		.eabi_attribute 24, 1
  10              		.eabi_attribute 25, 1
  11              		.eabi_attribute 26, 1
  12              		.eabi_attribute 30, 1
  13              		.eabi_attribute 34, 1
  14              		.eabi_attribute 18, 4
  15              		.file	"VL53L1A1_Simulink.c"
  16              		.text
  17              		.section	.text.initVL53L1A1,"ax",%progbits
  18              		.align	1
  19              		.global	initVL53L1A1
  20              		.syntax unified
  21              		.thumb
  22              		.thumb_func
  24              	initVL53L1A1:
  25              		@ args = 0, pretend = 0, frame = 8
  26              		@ frame_needed = 0, uses_anonymous_args = 0
  27 0000 F0B5     		push	{r4, r5, r6, r7, lr}
  28 0002 83B0     		sub	sp, sp, #12
  29 0004 0024     		movs	r4, #0
  30 0006 05E0     		b	.L2
  31              	.L3:
  32 0008 0121     		movs	r1, #1
  33 000a 2046     		mov	r0, r4
  34 000c FFF7FEFF 		bl	VL53L1A2_RANGING_SENSOR_SetPowerMode
  35 0010 0134     		adds	r4, r4, #1
  36 0012 E4B2     		uxtb	r4, r4
  37              	.L2:
  38 0014 022C     		cmp	r4, #2
  39 0016 F7D9     		bls	.L3
  40 0018 0024     		movs	r4, #0
  41 001a 01E0     		b	.L4
  42              	.L5:
  43 001c 0134     		adds	r4, r4, #1
  44 001e E4B2     		uxtb	r4, r4
  45              	.L4:
  46 0020 022C     		cmp	r4, #2
  47 0022 1BD8     		bhi	.L8
  48 0024 0021     		movs	r1, #0
  49 0026 2046     		mov	r0, r4
  50 0028 FFF7FEFF 		bl	VL53L1A2_RANGING_SENSOR_SetPowerMode
  51 002c 2046     		mov	r0, r4
  52 002e FFF7FEFF 		bl	VL53L1A2_RANGING_SENSOR_Init
  53 0032 294B     		ldr	r3, .L9
  54 0034 1860     		str	r0, [r3]
  55 0036 B0FA80F0 		clz	r0, r0
  56 003a 4009     		lsrs	r0, r0, #5
  57 003c 274B     		ldr	r3, .L9+4
  58 003e 1855     		strb	r0, [r3, r4]
ARM GAS  C:\Temp\ccPnkkzZ.s 			page 2


  59 0040 0028     		cmp	r0, #0
  60 0042 EBD0     		beq	.L5
  61 0044 04F12A01 		add	r1, r4, #42
  62 0048 4900     		lsls	r1, r1, #1
  63 004a 89B2     		uxth	r1, r1
  64 004c 2046     		mov	r0, r4
  65 004e FFF7FEFF 		bl	VL53L1A2_RANGING_SENSOR_SetAddress
  66 0052 01A9     		add	r1, sp, #4
  67 0054 2046     		mov	r0, r4
  68 0056 FFF7FEFF 		bl	VL53L1A2_RANGING_SENSOR_ReadID
  69 005a DFE7     		b	.L5
  70              	.L8:
  71 005c 204B     		ldr	r3, .L9+8
  72 005e 93ED007A 		vldr.32	s14, [r3]
  73 0062 DFED206A 		vldr.32	s13, .L9+12
  74 0066 C6EE877A 		vdiv.f32	s15, s13, s14
  75 006a 1F4D     		ldr	r5, .L9+16
  76 006c FCEEE77A 		vcvt.u32.f32	s15, s15
  77 0070 C5ED017A 		vstr.32	s15, [r5, #4]	@ int
  78 0074 0027     		movs	r7, #0
  79 0076 AF60     		str	r7, [r5, #8]
  80 0078 0126     		movs	r6, #1
  81 007a EE60     		str	r6, [r5, #12]
  82 007c 2E61     		str	r6, [r5, #16]
  83 007e 1B4C     		ldr	r4, .L9+20
  84 0080 0823     		movs	r3, #8
  85 0082 2370     		strb	r3, [r4]
  86 0084 0C22     		movs	r2, #12
  87 0086 6270     		strb	r2, [r4, #1]
  88 0088 A270     		strb	r2, [r4, #2]
  89 008a E370     		strb	r3, [r4, #3]
  90 008c 2946     		mov	r1, r5
  91 008e 3846     		mov	r0, r7
  92 0090 FFF7FEFF 		bl	VL53L1A2_RANGING_SENSOR_ConfigProfile
  93 0094 2946     		mov	r1, r5
  94 0096 3046     		mov	r0, r6
  95 0098 FFF7FEFF 		bl	VL53L1A2_RANGING_SENSOR_ConfigProfile
  96 009c 2946     		mov	r1, r5
  97 009e 0220     		movs	r0, #2
  98 00a0 FFF7FEFF 		bl	VL53L1A2_RANGING_SENSOR_ConfigProfile
  99 00a4 2146     		mov	r1, r4
 100 00a6 3846     		mov	r0, r7
 101 00a8 FFF7FEFF 		bl	VL53L1A2_RANGING_SENSOR_ConfigROI
 102 00ac 2146     		mov	r1, r4
 103 00ae 3046     		mov	r0, r6
 104 00b0 FFF7FEFF 		bl	VL53L1A2_RANGING_SENSOR_ConfigROI
 105 00b4 2146     		mov	r1, r4
 106 00b6 0220     		movs	r0, #2
 107 00b8 FFF7FEFF 		bl	VL53L1A2_RANGING_SENSOR_ConfigROI
 108 00bc 0321     		movs	r1, #3
 109 00be 3846     		mov	r0, r7
 110 00c0 FFF7FEFF 		bl	VL53L1A2_RANGING_SENSOR_Start
 111 00c4 0321     		movs	r1, #3
 112 00c6 3046     		mov	r0, r6
 113 00c8 FFF7FEFF 		bl	VL53L1A2_RANGING_SENSOR_Start
 114 00cc 0321     		movs	r1, #3
 115 00ce 0220     		movs	r0, #2
ARM GAS  C:\Temp\ccPnkkzZ.s 			page 3


 116 00d0 FFF7FEFF 		bl	VL53L1A2_RANGING_SENSOR_Start
 117 00d4 03B0     		add	sp, sp, #12
 118              		@ sp needed
 119 00d6 F0BD     		pop	{r4, r5, r6, r7, pc}
 120              	.L10:
 121              		.align	2
 122              	.L9:
 123 00d8 00000000 		.word	status
 124 00dc 00000000 		.word	ToF_Present
 125 00e0 00000000 		.word	tof_odr
 126 00e4 00007A44 		.word	1148846080
 127 00e8 00000000 		.word	Profile
 128 00ec 00000000 		.word	ROI
 130              		.section	.text.bytesToFloat,"ax",%progbits
 131              		.align	1
 132              		.global	bytesToFloat
 133              		.syntax unified
 134              		.thumb
 135              		.thumb_func
 137              	bytesToFloat:
 138              		@ args = 0, pretend = 0, frame = 8
 139              		@ frame_needed = 0, uses_anonymous_args = 0
 140              		@ link register save eliminated.
 141 0000 82B0     		sub	sp, sp, #8
 142 0002 8DF80400 		strb	r0, [sp, #4]
 143 0006 8DF80510 		strb	r1, [sp, #5]
 144 000a 8DF80620 		strb	r2, [sp, #6]
 145 000e 8DF80730 		strb	r3, [sp, #7]
 146 0012 9DED010A 		vldr.32	s0, [sp, #4]
 147 0016 02B0     		add	sp, sp, #8
 148              		@ sp needed
 149 0018 7047     		bx	lr
 151              		.section	.text.bytesToInt32,"ax",%progbits
 152              		.align	1
 153              		.global	bytesToInt32
 154              		.syntax unified
 155              		.thumb
 156              		.thumb_func
 158              	bytesToInt32:
 159              		@ args = 0, pretend = 0, frame = 8
 160              		@ frame_needed = 0, uses_anonymous_args = 0
 161              		@ link register save eliminated.
 162 0000 82B0     		sub	sp, sp, #8
 163 0002 8DF80400 		strb	r0, [sp, #4]
 164 0006 8DF80510 		strb	r1, [sp, #5]
 165 000a 8DF80620 		strb	r2, [sp, #6]
 166 000e 8DF80730 		strb	r3, [sp, #7]
 167 0012 0198     		ldr	r0, [sp, #4]
 168 0014 02B0     		add	sp, sp, #8
 169              		@ sp needed
 170 0016 7047     		bx	lr
 172              		.section	.text.selectBestTOF,"ax",%progbits
 173              		.align	1
 174              		.global	selectBestTOF
 175              		.syntax unified
 176              		.thumb
 177              		.thumb_func
ARM GAS  C:\Temp\ccPnkkzZ.s 			page 4


 179              	selectBestTOF:
 180              		@ args = 0, pretend = 0, frame = 0
 181              		@ frame_needed = 0, uses_anonymous_args = 0
 182 0000 10B5     		push	{r4, lr}
 183 0002 4FF0000C 		mov	ip, #0
 184 0006 DFED246A 		vldr.32	s13, .L27
 185 000a 6446     		mov	r4, ip
 186 000c E646     		mov	lr, ip
 187 000e 2BE0     		b	.L16
 188              	.L21:
 189 0010 DFED217A 		vldr.32	s15, .L27
 190 0014 1AE0     		b	.L17
 191              	.L18:
 192 0016 0133     		adds	r3, r3, #1
 193 0018 DBB2     		uxtb	r3, r3
 194              	.L20:
 195 001a 032B     		cmp	r3, #3
 196 001c 20D8     		bhi	.L25
 197 001e 0CEBCC02 		add	r2, ip, ip, lsl #3
 198 0022 00EBC202 		add	r2, r0, r2, lsl #3
 199 0026 03EBC301 		add	r1, r3, r3, lsl #3
 200 002a 02EBC101 		add	r1, r2, r1, lsl #3
 201 002e 91ED0E7A 		vldr.32	s14, [r1, #56]
 202 0032 B5EE407A 		vcmp.f32	s14, #0
 203 0036 F1EE10FA 		vmrs	APSR_nzcv, FPSCR
 204 003a E9D0     		beq	.L21
 205 003c 03EBC301 		add	r1, r3, r3, lsl #3
 206 0040 02EBC102 		add	r2, r2, r1, lsl #3
 207 0044 92ED0A6A 		vldr.32	s12, [r2, #40]
 208 0048 C7EE067A 		vdiv.f32	s15, s14, s12
 209              	.L17:
 210 004c F4EEE76A 		vcmpe.f32	s13, s15
 211 0050 F1EE10FA 		vmrs	APSR_nzcv, FPSCR
 212 0054 DFD5     		bpl	.L18
 213 0056 F0EE676A 		vmov.f32	s13, s15
 214 005a 1C46     		mov	r4, r3
 215 005c E646     		mov	lr, ip
 216 005e DAE7     		b	.L18
 217              	.L25:
 218 0060 0CF1010C 		add	ip, ip, #1
 219 0064 5FFA8CFC 		uxtb	ip, ip
 220              	.L16:
 221 0068 BCF13B0F 		cmp	ip, #59
 222 006c 01D8     		bhi	.L26
 223 006e 0023     		movs	r3, #0
 224 0070 D3E7     		b	.L20
 225              	.L26:
 226 0072 0EEBCE0E 		add	lr, lr, lr, lsl #3
 227 0076 00EBCE03 		add	r3, r0, lr, lsl #3
 228 007a 04EBC402 		add	r2, r4, r4, lsl #3
 229 007e 03EBC202 		add	r2, r3, r2, lsl #3
 230 0082 916A     		ldr	r1, [r2, #40]	@ float
 231 0084 8162     		str	r1, [r0, #40]	@ float
 232 0086 9268     		ldr	r2, [r2, #8]
 233 0088 8260     		str	r2, [r0, #8]
 234 008a 04EBC404 		add	r4, r4, r4, lsl #3
 235 008e 03EBC403 		add	r3, r3, r4, lsl #3
ARM GAS  C:\Temp\ccPnkkzZ.s 			page 5


 236 0092 9B6B     		ldr	r3, [r3, #56]	@ float
 237 0094 8363     		str	r3, [r0, #56]	@ float
 238 0096 10BD     		pop	{r4, pc}
 239              	.L28:
 240              		.align	2
 241              	.L27:
 242 0098 00000000 		.word	0
 244              		.section	.text.isItWorthy,"ax",%progbits
 245              		.align	1
 246              		.global	isItWorthy
 247              		.syntax unified
 248              		.thumb
 249              		.thumb_func
 251              	isItWorthy:
 252              		@ args = 0, pretend = 0, frame = 0
 253              		@ frame_needed = 0, uses_anonymous_args = 0
 254              		@ link register save eliminated.
 255 0000 4368     		ldr	r3, [r0, #4]
 256 0002 0333     		adds	r3, r3, #3
 257 0004 00EB8300 		add	r0, r0, r3, lsl #2
 258 0008 8368     		ldr	r3, [r0, #8]
 259 000a 0BB9     		cbnz	r3, .L31
 260 000c 0120     		movs	r0, #1
 261 000e 7047     		bx	lr
 262              	.L31:
 263 0010 0020     		movs	r0, #0
 264 0012 7047     		bx	lr
 266              		.section	.text.getVL53L1A1,"ax",%progbits
 267              		.align	1
 268              		.global	getVL53L1A1
 269              		.syntax unified
 270              		.thumb
 271              		.thumb_func
 273              	getVL53L1A1:
 274              		@ args = 0, pretend = 0, frame = 0
 275              		@ frame_needed = 0, uses_anonymous_args = 0
 276 0000 38B5     		push	{r3, r4, r5, lr}
 277 0002 2D49     		ldr	r1, .L52
 278 0004 0020     		movs	r0, #0
 279 0006 FFF7FEFF 		bl	VL53L1A2_RANGING_SENSOR_GetDistance
 280 000a 2C49     		ldr	r1, .L52+4
 281 000c 0120     		movs	r0, #1
 282 000e FFF7FEFF 		bl	VL53L1A2_RANGING_SENSOR_GetDistance
 283 0012 2B49     		ldr	r1, .L52+8
 284 0014 0220     		movs	r0, #2
 285 0016 FFF7FEFF 		bl	VL53L1A2_RANGING_SENSOR_GetDistance
 286 001a 0024     		movs	r4, #0
 287 001c 02E0     		b	.L33
 288              	.L34:
 289 001e FF2D     		cmp	r5, #255
 290 0020 0FD0     		beq	.L46
 291              	.L35:
 292 0022 0134     		adds	r4, r4, #1
 293              	.L33:
 294 0024 032C     		cmp	r4, #3
 295 0026 12DC     		bgt	.L47
 296 0028 221D     		adds	r2, r4, #4
ARM GAS  C:\Temp\ccPnkkzZ.s 			page 6


 297 002a 234B     		ldr	r3, .L52
 298 002c 03EB8203 		add	r3, r3, r2, lsl #2
 299 0030 9D68     		ldr	r5, [r3, #8]
 300 0032 002D     		cmp	r5, #0
 301 0034 F3D1     		bne	.L34
 302 0036 4822     		movs	r2, #72
 303 0038 1F49     		ldr	r1, .L52
 304 003a 2248     		ldr	r0, .L52+12
 305 003c FFF7FEFF 		bl	memcpy
 306 0040 EDE7     		b	.L34
 307              	.L46:
 308 0042 4822     		movs	r2, #72
 309 0044 1C49     		ldr	r1, .L52
 310 0046 1F48     		ldr	r0, .L52+12
 311 0048 FFF7FEFF 		bl	memcpy
 312 004c E9E7     		b	.L35
 313              	.L47:
 314 004e 0024     		movs	r4, #0
 315 0050 02E0     		b	.L37
 316              	.L38:
 317 0052 FF2D     		cmp	r5, #255
 318 0054 0FD0     		beq	.L48
 319              	.L39:
 320 0056 0134     		adds	r4, r4, #1
 321              	.L37:
 322 0058 032C     		cmp	r4, #3
 323 005a 12DC     		bgt	.L49
 324 005c 221D     		adds	r2, r4, #4
 325 005e 174B     		ldr	r3, .L52+4
 326 0060 03EB8203 		add	r3, r3, r2, lsl #2
 327 0064 9D68     		ldr	r5, [r3, #8]
 328 0066 002D     		cmp	r5, #0
 329 0068 F3D1     		bne	.L38
 330 006a 4822     		movs	r2, #72
 331 006c 1349     		ldr	r1, .L52+4
 332 006e 1648     		ldr	r0, .L52+16
 333 0070 FFF7FEFF 		bl	memcpy
 334 0074 EDE7     		b	.L38
 335              	.L48:
 336 0076 4822     		movs	r2, #72
 337 0078 1049     		ldr	r1, .L52+4
 338 007a 1348     		ldr	r0, .L52+16
 339 007c FFF7FEFF 		bl	memcpy
 340 0080 E9E7     		b	.L39
 341              	.L49:
 342 0082 0024     		movs	r4, #0
 343 0084 02E0     		b	.L41
 344              	.L42:
 345 0086 FF2D     		cmp	r5, #255
 346 0088 0FD0     		beq	.L50
 347              	.L43:
 348 008a 0134     		adds	r4, r4, #1
 349              	.L41:
 350 008c 032C     		cmp	r4, #3
 351 008e 12DC     		bgt	.L51
 352 0090 221D     		adds	r2, r4, #4
 353 0092 0B4B     		ldr	r3, .L52+8
ARM GAS  C:\Temp\ccPnkkzZ.s 			page 7


 354 0094 03EB8203 		add	r3, r3, r2, lsl #2
 355 0098 9D68     		ldr	r5, [r3, #8]
 356 009a 002D     		cmp	r5, #0
 357 009c F3D1     		bne	.L42
 358 009e 4822     		movs	r2, #72
 359 00a0 0749     		ldr	r1, .L52+8
 360 00a2 0A48     		ldr	r0, .L52+20
 361 00a4 FFF7FEFF 		bl	memcpy
 362 00a8 EDE7     		b	.L42
 363              	.L50:
 364 00aa 4822     		movs	r2, #72
 365 00ac 0449     		ldr	r1, .L52+8
 366 00ae 0748     		ldr	r0, .L52+20
 367 00b0 FFF7FEFF 		bl	memcpy
 368 00b4 E9E7     		b	.L43
 369              	.L51:
 370 00b6 38BD     		pop	{r3, r4, r5, pc}
 371              	.L53:
 372              		.align	2
 373              	.L52:
 374 00b8 00000000 		.word	temp_TOF_left
 375 00bc 00000000 		.word	temp_TOF_centre
 376 00c0 00000000 		.word	temp_TOF_right
 377 00c4 00000000 		.word	TOF_left
 378 00c8 00000000 		.word	TOF_centre
 379 00cc 00000000 		.word	TOF_right
 381              		.section	.text.sendToSimulink,"ax",%progbits
 382              		.align	1
 383              		.global	sendToSimulink
 384              		.syntax unified
 385              		.thumb
 386              		.thumb_func
 388              	sendToSimulink:
 389              		@ args = 0, pretend = 0, frame = 0
 390              		@ frame_needed = 0, uses_anonymous_args = 0
 391 0000 38B5     		push	{r3, r4, r5, lr}
 392 0002 4F4C     		ldr	r4, .L56
 393 0004 4FF0FF33 		mov	r3, #-1
 394 0008 0322     		movs	r2, #3
 395 000a 4E49     		ldr	r1, .L56+4
 396 000c 2046     		mov	r0, r4
 397 000e FFF7FEFF 		bl	HAL_UART_Transmit
 398 0012 4D4D     		ldr	r5, .L56+8
 399 0014 6968     		ldr	r1, [r5, #4]
 400 0016 0139     		subs	r1, r1, #1
 401 0018 05EB8101 		add	r1, r5, r1, lsl #2
 402 001c 4FF0FF33 		mov	r3, #-1
 403 0020 0422     		movs	r2, #4
 404 0022 0831     		adds	r1, r1, #8
 405 0024 2046     		mov	r0, r4
 406 0026 FFF7FEFF 		bl	HAL_UART_Transmit
 407 002a 6968     		ldr	r1, [r5, #4]
 408 002c 0731     		adds	r1, r1, #7
 409 002e 05EB8101 		add	r1, r5, r1, lsl #2
 410 0032 4FF0FF33 		mov	r3, #-1
 411 0036 0422     		movs	r2, #4
 412 0038 0831     		adds	r1, r1, #8
ARM GAS  C:\Temp\ccPnkkzZ.s 			page 8


 413 003a 2046     		mov	r0, r4
 414 003c FFF7FEFF 		bl	HAL_UART_Transmit
 415 0040 6968     		ldr	r1, [r5, #4]
 416 0042 0B31     		adds	r1, r1, #11
 417 0044 05EB8101 		add	r1, r5, r1, lsl #2
 418 0048 4FF0FF33 		mov	r3, #-1
 419 004c 0422     		movs	r2, #4
 420 004e 0831     		adds	r1, r1, #8
 421 0050 2046     		mov	r0, r4
 422 0052 FFF7FEFF 		bl	HAL_UART_Transmit
 423 0056 6B68     		ldr	r3, [r5, #4]
 424 0058 0333     		adds	r3, r3, #3
 425 005a 05EB8301 		add	r1, r5, r3, lsl #2
 426 005e 4FF0FF33 		mov	r3, #-1
 427 0062 0422     		movs	r2, #4
 428 0064 0831     		adds	r1, r1, #8
 429 0066 2046     		mov	r0, r4
 430 0068 FFF7FEFF 		bl	HAL_UART_Transmit
 431 006c 374D     		ldr	r5, .L56+12
 432 006e 6968     		ldr	r1, [r5, #4]
 433 0070 0139     		subs	r1, r1, #1
 434 0072 05EB8101 		add	r1, r5, r1, lsl #2
 435 0076 4FF0FF33 		mov	r3, #-1
 436 007a 0422     		movs	r2, #4
 437 007c 0831     		adds	r1, r1, #8
 438 007e 2046     		mov	r0, r4
 439 0080 FFF7FEFF 		bl	HAL_UART_Transmit
 440 0084 6968     		ldr	r1, [r5, #4]
 441 0086 0731     		adds	r1, r1, #7
 442 0088 05EB8101 		add	r1, r5, r1, lsl #2
 443 008c 4FF0FF33 		mov	r3, #-1
 444 0090 0422     		movs	r2, #4
 445 0092 0831     		adds	r1, r1, #8
 446 0094 2046     		mov	r0, r4
 447 0096 FFF7FEFF 		bl	HAL_UART_Transmit
 448 009a 6968     		ldr	r1, [r5, #4]
 449 009c 0B31     		adds	r1, r1, #11
 450 009e 05EB8101 		add	r1, r5, r1, lsl #2
 451 00a2 4FF0FF33 		mov	r3, #-1
 452 00a6 0422     		movs	r2, #4
 453 00a8 0831     		adds	r1, r1, #8
 454 00aa 2046     		mov	r0, r4
 455 00ac FFF7FEFF 		bl	HAL_UART_Transmit
 456 00b0 6B68     		ldr	r3, [r5, #4]
 457 00b2 0333     		adds	r3, r3, #3
 458 00b4 05EB8301 		add	r1, r5, r3, lsl #2
 459 00b8 4FF0FF33 		mov	r3, #-1
 460 00bc 0422     		movs	r2, #4
 461 00be 0831     		adds	r1, r1, #8
 462 00c0 2046     		mov	r0, r4
 463 00c2 FFF7FEFF 		bl	HAL_UART_Transmit
 464 00c6 224D     		ldr	r5, .L56+16
 465 00c8 6968     		ldr	r1, [r5, #4]
 466 00ca 0139     		subs	r1, r1, #1
 467 00cc 05EB8101 		add	r1, r5, r1, lsl #2
 468 00d0 4FF0FF33 		mov	r3, #-1
 469 00d4 0422     		movs	r2, #4
ARM GAS  C:\Temp\ccPnkkzZ.s 			page 9


 470 00d6 0831     		adds	r1, r1, #8
 471 00d8 2046     		mov	r0, r4
 472 00da FFF7FEFF 		bl	HAL_UART_Transmit
 473 00de 6968     		ldr	r1, [r5, #4]
 474 00e0 0731     		adds	r1, r1, #7
 475 00e2 05EB8101 		add	r1, r5, r1, lsl #2
 476 00e6 4FF0FF33 		mov	r3, #-1
 477 00ea 0422     		movs	r2, #4
 478 00ec 0831     		adds	r1, r1, #8
 479 00ee 2046     		mov	r0, r4
 480 00f0 FFF7FEFF 		bl	HAL_UART_Transmit
 481 00f4 6968     		ldr	r1, [r5, #4]
 482 00f6 0B31     		adds	r1, r1, #11
 483 00f8 05EB8101 		add	r1, r5, r1, lsl #2
 484 00fc 4FF0FF33 		mov	r3, #-1
 485 0100 0422     		movs	r2, #4
 486 0102 0831     		adds	r1, r1, #8
 487 0104 2046     		mov	r0, r4
 488 0106 FFF7FEFF 		bl	HAL_UART_Transmit
 489 010a 6B68     		ldr	r3, [r5, #4]
 490 010c 0333     		adds	r3, r3, #3
 491 010e 05EB8301 		add	r1, r5, r3, lsl #2
 492 0112 4FF0FF33 		mov	r3, #-1
 493 0116 0422     		movs	r2, #4
 494 0118 0831     		adds	r1, r1, #8
 495 011a 2046     		mov	r0, r4
 496 011c FFF7FEFF 		bl	HAL_UART_Transmit
 497 0120 4FF0FF33 		mov	r3, #-1
 498 0124 0422     		movs	r2, #4
 499 0126 0B49     		ldr	r1, .L56+20
 500 0128 2046     		mov	r0, r4
 501 012a FFF7FEFF 		bl	HAL_UART_Transmit
 502 012e 4FF0FF33 		mov	r3, #-1
 503 0132 0322     		movs	r2, #3
 504 0134 0849     		ldr	r1, .L56+24
 505 0136 2046     		mov	r0, r4
 506 0138 FFF7FEFF 		bl	HAL_UART_Transmit
 507 013c 38BD     		pop	{r3, r4, r5, pc}
 508              	.L57:
 509 013e 00BF     		.align	2
 510              	.L56:
 511 0140 00000000 		.word	huart2
 512 0144 00000000 		.word	header
 513 0148 00000000 		.word	TOF_left
 514 014c 00000000 		.word	TOF_centre
 515 0150 00000000 		.word	TOF_right
 516 0154 00000000 		.word	counter
 517 0158 00000000 		.word	terminator
 519              		.section	.text.calibrate_VL53L1A1,"ax",%progbits
 520              		.align	1
 521              		.global	calibrate_VL53L1A1
 522              		.syntax unified
 523              		.thumb
 524              		.thumb_func
 526              	calibrate_VL53L1A1:
 527              		@ args = 0, pretend = 0, frame = 0
 528              		@ frame_needed = 0, uses_anonymous_args = 0
ARM GAS  C:\Temp\ccPnkkzZ.s 			page 10


 529              		@ link register save eliminated.
 530 0000 0A4B     		ldr	r3, .L65
 531 0002 1B68     		ldr	r3, [r3]
 532 0004 012B     		cmp	r3, #1
 533 0006 04D0     		beq	.L62
 534              	.L59:
 535 0008 022B     		cmp	r3, #2
 536 000a 06D0     		beq	.L63
 537              	.L60:
 538 000c 032B     		cmp	r3, #3
 539 000e 08D0     		beq	.L64
 540              	.L58:
 541 0010 7047     		bx	lr
 542              	.L62:
 543 0012 074A     		ldr	r2, .L65+4
 544 0014 0121     		movs	r1, #1
 545 0016 1160     		str	r1, [r2]
 546 0018 F6E7     		b	.L59
 547              	.L63:
 548 001a 054A     		ldr	r2, .L65+4
 549 001c 0221     		movs	r1, #2
 550 001e 1160     		str	r1, [r2]
 551 0020 F4E7     		b	.L60
 552              	.L64:
 553 0022 034B     		ldr	r3, .L65+4
 554 0024 0322     		movs	r2, #3
 555 0026 1A60     		str	r2, [r3]
 556 0028 F2E7     		b	.L58
 557              	.L66:
 558 002a 00BF     		.align	2
 559              	.L65:
 560 002c 00000000 		.word	tof_fsr
 561 0030 00000000 		.word	Profile
 563              		.section	.text.receivedFromSimulink,"ax",%progbits
 564              		.align	1
 565              		.global	receivedFromSimulink
 566              		.syntax unified
 567              		.thumb
 568              		.thumb_func
 570              	receivedFromSimulink:
 571              		@ args = 0, pretend = 0, frame = 0
 572              		@ frame_needed = 0, uses_anonymous_args = 0
 573 0000 10B5     		push	{r4, lr}
 574 0002 0446     		mov	r4, r0
 575 0004 8379     		ldrb	r3, [r0, #6]	@ zero_extendqisi2
 576 0006 4279     		ldrb	r2, [r0, #5]	@ zero_extendqisi2
 577 0008 0179     		ldrb	r1, [r0, #4]	@ zero_extendqisi2
 578 000a C078     		ldrb	r0, [r0, #3]	@ zero_extendqisi2
 579 000c FFF7FEFF 		bl	bytesToInt32
 580 0010 064B     		ldr	r3, .L69
 581 0012 1860     		str	r0, [r3]
 582 0014 A37A     		ldrb	r3, [r4, #10]	@ zero_extendqisi2
 583 0016 627A     		ldrb	r2, [r4, #9]	@ zero_extendqisi2
 584 0018 217A     		ldrb	r1, [r4, #8]	@ zero_extendqisi2
 585 001a E079     		ldrb	r0, [r4, #7]	@ zero_extendqisi2
 586 001c FFF7FEFF 		bl	bytesToFloat
 587 0020 034B     		ldr	r3, .L69+4
ARM GAS  C:\Temp\ccPnkkzZ.s 			page 11


 588 0022 83ED000A 		vstr.32	s0, [r3]
 589 0026 FFF7FEFF 		bl	calibrate_VL53L1A1
 590 002a 10BD     		pop	{r4, pc}
 591              	.L70:
 592              		.align	2
 593              	.L69:
 594 002c 00000000 		.word	tof_fsr
 595 0030 00000000 		.word	tof_odr
 597              		.global	buff_counter
 598              		.section	.bss.buff_counter,"aw",%nobits
 601              	buff_counter:
 602 0000 00       		.space	1
 603              		.global	temp_TOF_right
 604              		.section	.bss.temp_TOF_right,"aw",%nobits
 605              		.align	2
 608              	temp_TOF_right:
 609 0000 00000000 		.space	72
 609      00000000 
 609      00000000 
 609      00000000 
 609      00000000 
 610              		.global	temp_TOF_centre
 611              		.section	.bss.temp_TOF_centre,"aw",%nobits
 612              		.align	2
 615              	temp_TOF_centre:
 616 0000 00000000 		.space	72
 616      00000000 
 616      00000000 
 616      00000000 
 616      00000000 
 617              		.global	temp_TOF_left
 618              		.section	.bss.temp_TOF_left,"aw",%nobits
 619              		.align	2
 622              	temp_TOF_left:
 623 0000 00000000 		.space	72
 623      00000000 
 623      00000000 
 623      00000000 
 623      00000000 
 624              		.global	sub_TOF_right
 625              		.section	.bss.sub_TOF_right,"aw",%nobits
 626              		.align	2
 629              	sub_TOF_right:
 630 0000 00000000 		.space	72
 630      00000000 
 630      00000000 
 630      00000000 
 630      00000000 
 631              		.global	sub_TOF_centre
 632              		.section	.bss.sub_TOF_centre,"aw",%nobits
 633              		.align	2
 636              	sub_TOF_centre:
 637 0000 00000000 		.space	72
 637      00000000 
 637      00000000 
 637      00000000 
 637      00000000 
ARM GAS  C:\Temp\ccPnkkzZ.s 			page 12


 638              		.global	sub_TOF_left
 639              		.section	.bss.sub_TOF_left,"aw",%nobits
 640              		.align	2
 643              	sub_TOF_left:
 644 0000 00000000 		.space	72
 644      00000000 
 644      00000000 
 644      00000000 
 644      00000000 
 645              		.global	TOF_right_array
 646              		.section	.bss.TOF_right_array,"aw",%nobits
 647              		.align	2
 650              	TOF_right_array:
 651 0000 00000000 		.space	4320
 651      00000000 
 651      00000000 
 651      00000000 
 651      00000000 
 652              		.global	TOF_centre_array
 653              		.section	.bss.TOF_centre_array,"aw",%nobits
 654              		.align	2
 657              	TOF_centre_array:
 658 0000 00000000 		.space	4320
 658      00000000 
 658      00000000 
 658      00000000 
 658      00000000 
 659              		.global	TOF_left_array
 660              		.section	.bss.TOF_left_array,"aw",%nobits
 661              		.align	2
 664              	TOF_left_array:
 665 0000 00000000 		.space	4320
 665      00000000 
 665      00000000 
 665      00000000 
 665      00000000 
 666              		.global	L1_BUFFER_SIZE
 667              		.section	.rodata.L1_BUFFER_SIZE,"a"
 670              	L1_BUFFER_SIZE:
 671 0000 3C       		.byte	60
 672              		.global	ToF_EventDetected
 673              		.section	.bss.ToF_EventDetected,"aw",%nobits
 676              	ToF_EventDetected:
 677 0000 00       		.space	1
 678              		.section	.bss.ToF_Present,"aw",%nobits
 679              		.align	2
 682              	ToF_Present:
 683 0000 000000   		.space	3
 684              		.section	.bss.status,"aw",%nobits
 685              		.align	2
 688              	status:
 689 0000 00000000 		.space	4
 690              		.global	ROI
 691              		.section	.bss.ROI,"aw",%nobits
 692              		.align	2
 695              	ROI:
 696 0000 00000000 		.space	4
ARM GAS  C:\Temp\ccPnkkzZ.s 			page 13


 697              		.global	tof_odr
 698              		.section	.bss.tof_odr,"aw",%nobits
 699              		.align	2
 702              	tof_odr:
 703 0000 00000000 		.space	4
 704              		.global	tof_fsr
 705              		.section	.bss.tof_fsr,"aw",%nobits
 706              		.align	2
 709              	tof_fsr:
 710 0000 00000000 		.space	4
 711              		.global	terminator
 712              		.section	.data.terminator,"aw"
 713              		.align	2
 716              	terminator:
 717 0000 415F4A00 		.word	4874049
 718              		.global	header
 719              		.section	.data.header,"aw"
 720              		.align	2
 723              	header:
 724 0000 4A5F4100 		.word	4284234
 725              		.ident	"GCC: (xPack GNU Arm Embedded GCC x86_64) 12.3.1 20230626"
ARM GAS  C:\Temp\ccPnkkzZ.s 			page 14

