ARM GAS  C:\Temp\ccrtA2Jt.s 			page 1


   1              		.cpu cortex-m4
   2              		.arch armv7e-m
   3              		.fpu fpv4-sp-d16
   4              		.eabi_attribute 27, 1
   5              		.eabi_attribute 28, 1
   6              		.eabi_attribute 20, 1
   7              		.eabi_attribute 21, 1
   8              		.eabi_attribute 23, 3
   9              		.eabi_attribute 24, 1
  10              		.eabi_attribute 25, 1
  11              		.eabi_attribute 26, 1
  12              		.eabi_attribute 30, 1
  13              		.eabi_attribute 34, 1
  14              		.eabi_attribute 18, 4
  15              		.file	"vl53l1_api_core.c"
  16              		.text
  17              		.section	.text.select_offset_per_vcsel,"ax",%progbits
  18              		.align	1
  19              		.syntax unified
  20              		.thumb
  21              		.thumb_func
  23              	select_offset_per_vcsel:
  24              		@ args = 0, pretend = 0, frame = 0
  25              		@ frame_needed = 0, uses_anonymous_args = 0
  26              		@ link register save eliminated.
  27 0000 0346     		mov	r3, r0
  28 0002 4278     		ldrb	r2, [r0, #1]	@ zero_extendqisi2
  29 0004 1E2A     		cmp	r2, #30
  30 0006 1ED0     		beq	.L2
  31 0008 212A     		cmp	r2, #33
  32 000a 0CD0     		beq	.L3
  33 000c 1B2A     		cmp	r2, #27
  34 000e 22D0     		beq	.L10
  35 0010 00F58052 		add	r2, r0, #4096
  36 0014 B2F980CD 		ldrsh	ip, [r2, #3456]
  37 0018 B2F9822D 		ldrsh	r2, [r2, #3458]
  38 001c 0020     		movs	r0, #0
  39 001e 0880     		strh	r0, [r1]	@ movhi
  40 0020 6FF00300 		mvn	r0, #3
  41 0024 06E0     		b	.L6
  42              	.L3:
  43 0026 00F58052 		add	r2, r0, #4096
  44 002a B2F978CD 		ldrsh	ip, [r2, #3448]
  45 002e B2F97A2D 		ldrsh	r2, [r2, #3450]
  46 0032 0020     		movs	r0, #0
  47              	.L6:
  48 0034 93F82E30 		ldrb	r3, [r3, #46]	@ zero_extendqisi2
  49 0038 20B9     		cbnz	r0, .L7
  50 003a 13F0010F 		tst	r3, #1
  51 003e 00D0     		beq	.L8
  52 0040 6246     		mov	r2, ip
  53              	.L8:
  54 0042 0A80     		strh	r2, [r1]	@ movhi
  55              	.L7:
  56 0044 7047     		bx	lr
  57              	.L2:
  58 0046 00F58052 		add	r2, r0, #4096
ARM GAS  C:\Temp\ccrtA2Jt.s 			page 2


  59 004a B2F97CCD 		ldrsh	ip, [r2, #3452]
  60 004e B2F97E2D 		ldrsh	r2, [r2, #3454]
  61 0052 0020     		movs	r0, #0
  62 0054 EEE7     		b	.L6
  63              	.L10:
  64 0056 00F58052 		add	r2, r0, #4096
  65 005a B2F980CD 		ldrsh	ip, [r2, #3456]
  66 005e B2F9822D 		ldrsh	r2, [r2, #3458]
  67 0062 0020     		movs	r0, #0
  68 0064 E6E7     		b	.L6
  70              		.section	.text.vl53l1_diff_histo_stddev,"ax",%progbits
  71              		.align	1
  72              		.syntax unified
  73              		.thumb
  74              		.thumb_func
  76              	vl53l1_diff_histo_stddev:
  77              		@ args = 8, pretend = 0, frame = 0
  78              		@ frame_needed = 0, uses_anonymous_args = 0
  79 0000 2DE9F04F 		push	{r4, r5, r6, r7, r8, r9, r10, fp, lr}
  80 0004 8B46     		mov	fp, r1
  81 0006 9DF82450 		ldrb	r5, [sp, #36]	@ zero_extendqisi2
  82 000a DDF82880 		ldr	r8, [sp, #40]
  83 000e 90F839E0 		ldrb	lr, [r0, #57]	@ zero_extendqisi2
  84 0012 0024     		movs	r4, #0
  85 0014 C8F80040 		str	r4, [r8]
  86 0018 9700     		lsls	r7, r2, #2
  87 001a B946     		mov	r9, r7
  88 001c 2646     		mov	r6, r4
  89 001e 1CE0     		b	.L12
  90              	.L13:
  91 0020 02EB420A 		add	r10, r2, r2, lsl #1
  92 0024 05EB450C 		add	ip, r5, r5, lsl #1
  93 0028 4FEA0C1C 		lsl	ip, ip, #4
  94 002c 0CEBCA0C 		add	ip, ip, r10, lsl #3
  95 0030 0EEBCE0A 		add	r10, lr, lr, lsl #3
  96 0034 0CEB4A1C 		add	ip, ip, r10, lsl #5
  97 0038 CC44     		add	ip, ip, r9
  98 003a 0CF5EC6C 		add	ip, ip, #1888
  99 003e 00EB8C0C 		add	ip, r0, ip, lsl #2
 100 0042 DCF804C0 		ldr	ip, [ip, #4]
 101 0046 6444     		add	r4, r4, ip
 102 0048 09F1060C 		add	ip, r9, #6
 103 004c 5BF82CC0 		ldr	ip, [fp, ip, lsl #2]
 104 0050 6644     		add	r6, r6, ip
 105 0052 09F10109 		add	r9, r9, #1
 106 0056 1FFA89F9 		uxth	r9, r9
 107              	.L12:
 108 005a 4B45     		cmp	r3, r9
 109 005c E0D8     		bhi	.L13
 110 005e 04B1     		cbz	r4, .L11
 111 0060 66BB     		cbnz	r6, .L15
 112              	.L11:
 113 0062 BDE8F08F 		pop	{r4, r5, r6, r7, r8, r9, r10, fp, pc}
 114              	.L16:
 115 0066 02EB4209 		add	r9, r2, r2, lsl #1
 116 006a 05EB450C 		add	ip, r5, r5, lsl #1
 117 006e 4FEA0C1C 		lsl	ip, ip, #4
ARM GAS  C:\Temp\ccrtA2Jt.s 			page 3


 118 0072 0CEBC90C 		add	ip, ip, r9, lsl #3
 119 0076 0EEBCE09 		add	r9, lr, lr, lsl #3
 120 007a 0CEB491C 		add	ip, ip, r9, lsl #5
 121 007e BC44     		add	ip, ip, r7
 122 0080 0CF5EC6C 		add	ip, ip, #1888
 123 0084 00EB8C0C 		add	ip, r0, ip, lsl #2
 124 0088 DCF804C0 		ldr	ip, [ip, #4]
 125 008c 4FF47A7A 		mov	r10, #1000
 126 0090 0AFB0CFC 		mul	ip, r10, ip
 127 0094 9CFBF4FC 		sdiv	ip, ip, r4
 128 0098 07F10609 		add	r9, r7, #6
 129 009c 5BF82990 		ldr	r9, [fp, r9, lsl #2]
 130 00a0 0AFB09F9 		mul	r9, r10, r9
 131 00a4 99FBF6F9 		sdiv	r9, r9, r6
 132 00a8 ACEB090C 		sub	ip, ip, r9
 133 00ac D8F80010 		ldr	r1, [r8]
 134 00b0 0CFB0C1C 		mla	ip, ip, ip, r1
 135 00b4 C8F800C0 		str	ip, [r8]
 136 00b8 0137     		adds	r7, r7, #1
 137 00ba BFB2     		uxth	r7, r7
 138              	.L15:
 139 00bc BB42     		cmp	r3, r7
 140 00be D2D8     		bhi	.L16
 141 00c0 CFE7     		b	.L11
 143              		.section	.text.VL53L1_unload_patch,"ax",%progbits
 144              		.align	1
 145              		.global	VL53L1_unload_patch
 146              		.syntax unified
 147              		.thumb
 148              		.thumb_func
 150              	VL53L1_unload_patch:
 151              		@ args = 0, pretend = 0, frame = 0
 152              		@ frame_needed = 0, uses_anonymous_args = 0
 153 0000 10B5     		push	{r4, lr}
 154 0002 0446     		mov	r4, r0
 155 0004 0022     		movs	r2, #0
 156 0006 8521     		movs	r1, #133
 157 0008 FFF7FEFF 		bl	VL53L1_WrByte
 158 000c 08B1     		cbz	r0, .L22
 159              	.L19:
 160 000e 50B1     		cbz	r0, .L23
 161              	.L20:
 162 0010 10BD     		pop	{r4, pc}
 163              	.L22:
 164 0012 2046     		mov	r0, r4
 165 0014 FFF7FEFF 		bl	VL53L1_disable_powerforce
 166 0018 0022     		movs	r2, #0
 167 001a 4FF48E61 		mov	r1, #1136
 168 001e 2046     		mov	r0, r4
 169 0020 FFF7FEFF 		bl	VL53L1_WrByte
 170 0024 F3E7     		b	.L19
 171              	.L23:
 172 0026 0122     		movs	r2, #1
 173 0028 8521     		movs	r1, #133
 174 002a 2046     		mov	r0, r4
 175 002c FFF7FEFF 		bl	VL53L1_WrByte
 176 0030 EEE7     		b	.L20
ARM GAS  C:\Temp\ccrtA2Jt.s 			page 4


 178              		.section	.text.VL53L1_get_version,"ax",%progbits
 179              		.align	1
 180              		.global	VL53L1_get_version
 181              		.syntax unified
 182              		.thumb
 183              		.thumb_func
 185              	VL53L1_get_version:
 186              		@ args = 0, pretend = 0, frame = 0
 187              		@ frame_needed = 0, uses_anonymous_args = 0
 188 0000 38B5     		push	{r3, r4, r5, lr}
 189 0002 0546     		mov	r5, r0
 190 0004 0C46     		mov	r4, r1
 191 0006 FFF7FEFF 		bl	VL53L1_init_version
 192 000a EA6B     		ldr	r2, [r5, #60]	@ unaligned
 193 000c 2B6C     		ldr	r3, [r5, #64]	@ unaligned
 194 000e 2260     		str	r2, [r4]	@ unaligned
 195 0010 6360     		str	r3, [r4, #4]	@ unaligned
 196 0012 0020     		movs	r0, #0
 197 0014 38BD     		pop	{r3, r4, r5, pc}
 199              		.section	.text.VL53L1_get_device_firmware_version,"ax",%progbits
 200              		.align	1
 201              		.global	VL53L1_get_device_firmware_version
 202              		.syntax unified
 203              		.thumb
 204              		.thumb_func
 206              	VL53L1_get_device_firmware_version:
 207              		@ args = 0, pretend = 0, frame = 0
 208              		@ frame_needed = 0, uses_anonymous_args = 0
 209 0000 38B5     		push	{r3, r4, r5, lr}
 210 0002 0446     		mov	r4, r0
 211 0004 0D46     		mov	r5, r1
 212 0006 FFF7FEFF 		bl	VL53L1_disable_firmware
 213 000a 00B1     		cbz	r0, .L29
 214              	.L27:
 215 000c 38BD     		pop	{r3, r4, r5, pc}
 216              	.L29:
 217 000e 2A46     		mov	r2, r5
 218 0010 40F22C41 		movw	r1, #1068
 219 0014 2046     		mov	r0, r4
 220 0016 FFF7FEFF 		bl	VL53L1_RdWord
 221 001a 0028     		cmp	r0, #0
 222 001c F6D1     		bne	.L27
 223 001e 2046     		mov	r0, r4
 224 0020 FFF7FEFF 		bl	VL53L1_enable_firmware
 225 0024 F2E7     		b	.L27
 227              		.section	.text.VL53L1_software_reset,"ax",%progbits
 228              		.align	1
 229              		.global	VL53L1_software_reset
 230              		.syntax unified
 231              		.thumb
 232              		.thumb_func
 234              	VL53L1_software_reset:
 235              		@ args = 0, pretend = 0, frame = 0
 236              		@ frame_needed = 0, uses_anonymous_args = 0
 237 0000 10B5     		push	{r4, lr}
 238 0002 0446     		mov	r4, r0
 239 0004 0022     		movs	r2, #0
ARM GAS  C:\Temp\ccrtA2Jt.s 			page 5


 240 0006 1146     		mov	r1, r2
 241 0008 FFF7FEFF 		bl	VL53L1_WrByte
 242 000c 0346     		mov	r3, r0
 243 000e 10B1     		cbz	r0, .L34
 244              	.L31:
 245 0010 7BB1     		cbz	r3, .L35
 246              	.L32:
 247 0012 1846     		mov	r0, r3
 248 0014 10BD     		pop	{r4, pc}
 249              	.L34:
 250 0016 6421     		movs	r1, #100
 251 0018 2046     		mov	r0, r4
 252 001a FFF7FEFF 		bl	VL53L1_WaitUs
 253 001e 0346     		mov	r3, r0
 254 0020 0028     		cmp	r0, #0
 255 0022 F6D1     		bne	.L32
 256 0024 0122     		movs	r2, #1
 257 0026 0021     		movs	r1, #0
 258 0028 2046     		mov	r0, r4
 259 002a FFF7FEFF 		bl	VL53L1_WrByte
 260 002e 0346     		mov	r3, r0
 261 0030 EEE7     		b	.L31
 262              	.L35:
 263 0032 2046     		mov	r0, r4
 264 0034 FFF7FEFF 		bl	VL53L1_wait_for_boot_completion
 265 0038 0346     		mov	r3, r0
 266 003a EAE7     		b	.L32
 268              		.section	.text.VL53L1_set_part_to_part_data,"ax",%progbits
 269              		.align	1
 270              		.global	VL53L1_set_part_to_part_data
 271              		.syntax unified
 272              		.thumb
 273              		.thumb_func
 275              	VL53L1_set_part_to_part_data:
 276              		@ args = 0, pretend = 0, frame = 0
 277              		@ frame_needed = 0, uses_anonymous_args = 0
 278 0000 70B5     		push	{r4, r5, r6, lr}
 279 0002 0D46     		mov	r5, r1
 280 0004 0968     		ldr	r1, [r1]
 281 0006 4C4A     		ldr	r2, .L44
 282 0008 9142     		cmp	r1, r2
 283 000a 40F09180 		bne	.L41
 284 000e 0446     		mov	r4, r0
 285 0010 6968     		ldr	r1, [r5, #4]	@ unaligned
 286 0012 AA68     		ldr	r2, [r5, #8]	@ unaligned
 287 0014 EE68     		ldr	r6, [r5, #12]	@ unaligned
 288 0016 2869     		ldr	r0, [r5, #16]	@ unaligned
 289 0018 2166     		str	r1, [r4, #96]	@ unaligned
 290 001a 6266     		str	r2, [r4, #100]	@ unaligned
 291 001c A666     		str	r6, [r4, #104]	@ unaligned
 292 001e E066     		str	r0, [r4, #108]	@ unaligned
 293 0020 6969     		ldr	r1, [r5, #20]	@ unaligned
 294 0022 AA69     		ldr	r2, [r5, #24]	@ unaligned
 295 0024 2167     		str	r1, [r4, #112]	@ unaligned
 296 0026 6267     		str	r2, [r4, #116]	@ unaligned
 297 0028 2A6B     		ldr	r2, [r5, #48]	@ unaligned
 298 002a 6B6B     		ldr	r3, [r5, #52]	@ unaligned
ARM GAS  C:\Temp\ccrtA2Jt.s 			page 6


 299 002c C4F8B420 		str	r2, [r4, #180]	@ unaligned
 300 0030 C4F8B830 		str	r3, [r4, #184]	@ unaligned
 301 0034 EA69     		ldr	r2, [r5, #28]	@ unaligned
 302 0036 2B6A     		ldr	r3, [r5, #32]	@ unaligned
 303 0038 C4F8BC20 		str	r2, [r4, #188]	@ unaligned
 304 003c C4F8C030 		str	r3, [r4, #192]	@ unaligned
 305 0040 AB8C     		ldrh	r3, [r5, #36]	@ unaligned
 306 0042 A4F8C430 		strh	r3, [r4, #196]	@ unaligned
 307 0046 D5F82620 		ldr	r2, [r5, #38]	@ unaligned
 308 004a D5F82A30 		ldr	r3, [r5, #42]	@ unaligned
 309 004e C4F8C620 		str	r2, [r4, #198]	@ unaligned
 310 0052 C4F8CA30 		str	r3, [r4, #202]	@ unaligned
 311 0056 EB8D     		ldrh	r3, [r5, #46]	@ unaligned
 312 0058 A4F8CE30 		strh	r3, [r4, #206]	@ unaligned
 313 005c F422     		movs	r2, #244
 314 005e 05F13C01 		add	r1, r5, #60
 315 0062 04F27C50 		addw	r0, r4, #1404
 316 0066 FFF7FEFF 		bl	memcpy
 317 006a D5F83031 		ldr	r3, [r5, #304]	@ unaligned
 318 006e C4F8D030 		str	r3, [r4, #208]	@ unaligned
 319 0072 05F59A73 		add	r3, r5, #308
 320 0076 04F17802 		add	r2, r4, #120
 321 007a 05F5B276 		add	r6, r5, #356
 322              	.L38:
 323 007e D3F800E0 		ldr	lr, [r3]	@ unaligned
 324 0082 D3F804C0 		ldr	ip, [r3, #4]	@ unaligned
 325 0086 9868     		ldr	r0, [r3, #8]	@ unaligned
 326 0088 D968     		ldr	r1, [r3, #12]	@ unaligned
 327 008a C2F800E0 		str	lr, [r2]	@ unaligned
 328 008e C2F804C0 		str	ip, [r2, #4]	@ unaligned
 329 0092 9060     		str	r0, [r2, #8]	@ unaligned
 330 0094 D160     		str	r1, [r2, #12]	@ unaligned
 331 0096 1033     		adds	r3, r3, #16
 332 0098 1032     		adds	r2, r2, #16
 333 009a B342     		cmp	r3, r6
 334 009c EFD1     		bne	.L38
 335 009e 1868     		ldr	r0, [r3]	@ unaligned
 336 00a0 5968     		ldr	r1, [r3, #4]	@ unaligned
 337 00a2 9B68     		ldr	r3, [r3, #8]	@ unaligned
 338 00a4 1060     		str	r0, [r2]	@ unaligned
 339 00a6 5160     		str	r1, [r2, #4]	@ unaligned
 340 00a8 9360     		str	r3, [r2, #8]	@ unaligned
 341 00aa 04F11801 		add	r1, r4, #24
 342 00ae 41F67852 		movw	r2, #7544
 343 00b2 8B18     		adds	r3, r1, r2
 344 00b4 D5F870C1 		ldr	ip, [r5, #368]	@ unaligned
 345 00b8 D5F87461 		ldr	r6, [r5, #372]	@ unaligned
 346 00bc D5F87801 		ldr	r0, [r5, #376]	@ unaligned
 347 00c0 41F802C0 		str	ip, [r1, r2]	@ unaligned
 348 00c4 5E60     		str	r6, [r3, #4]	@ unaligned
 349 00c6 9860     		str	r0, [r3, #8]	@ unaligned
 350 00c8 B4F86A00 		ldrh	r0, [r4, #106]
 351 00cc C4F8EC02 		str	r0, [r4, #748]
 352 00d0 B4F96C30 		ldrsh	r3, [r4, #108]
 353 00d4 A4F8F032 		strh	r3, [r4, #752]	@ movhi
 354 00d8 B4F96E30 		ldrsh	r3, [r4, #110]
 355 00dc A4F8F232 		strh	r3, [r4, #754]	@ movhi
ARM GAS  C:\Temp\ccrtA2Jt.s 			page 7


 356 00e0 B4F9FE12 		ldrsh	r1, [r4, #766]
 357 00e4 FFF7FEFF 		bl	VL53L1_calc_crosstalk_plane_offset_with_margin
 358 00e8 C4F8A002 		str	r0, [r4, #672]
 359 00ec B4F9F032 		ldrsh	r3, [r4, #752]
 360 00f0 A4F8A432 		strh	r3, [r4, #676]	@ movhi
 361 00f4 B4F9F232 		ldrsh	r3, [r4, #754]
 362 00f8 A4F8A632 		strh	r3, [r4, #678]	@ movhi
 363 00fc 94F8FC32 		ldrb	r3, [r4, #764]	@ zero_extendqisi2
 364 0100 3BB9     		cbnz	r3, .L39
 365 0102 0020     		movs	r0, #0
 366 0104 A4F86A00 		strh	r0, [r4, #106]	@ movhi
 367 0108 A4F86C00 		strh	r0, [r4, #108]	@ movhi
 368 010c A4F86E00 		strh	r0, [r4, #110]	@ movhi
 369              	.L37:
 370 0110 70BD     		pop	{r4, r5, r6, pc}
 371              	.L39:
 372 0112 B4F90013 		ldrsh	r1, [r4, #768]
 373 0116 D4F8EC02 		ldr	r0, [r4, #748]
 374 011a FFF7FEFF 		bl	VL53L1_calc_crosstalk_plane_offset_with_margin
 375 011e B0F5803F 		cmp	r0, #65536
 376 0122 01D3     		bcc	.L40
 377 0124 4FF6FF70 		movw	r0, #65535
 378              	.L40:
 379 0128 A4F86A00 		strh	r0, [r4, #106]	@ movhi
 380 012c 0020     		movs	r0, #0
 381 012e EFE7     		b	.L37
 382              	.L41:
 383 0130 6FF00300 		mvn	r0, #3
 384 0134 ECE7     		b	.L37
 385              	.L45:
 386 0136 00BF     		.align	2
 387              	.L44:
 388 0138 0201ABEC 		.word	-324337406
 390              		.section	.text.VL53L1_get_part_to_part_data,"ax",%progbits
 391              		.align	1
 392              		.global	VL53L1_get_part_to_part_data
 393              		.syntax unified
 394              		.thumb
 395              		.thumb_func
 397              	VL53L1_get_part_to_part_data:
 398              		@ args = 0, pretend = 0, frame = 0
 399              		@ frame_needed = 0, uses_anonymous_args = 0
 400 0000 70B5     		push	{r4, r5, r6, lr}
 401 0002 0446     		mov	r4, r0
 402 0004 0D46     		mov	r5, r1
 403 0006 0B46     		mov	r3, r1
 404 0008 394A     		ldr	r2, .L51
 405 000a 43F8042B 		str	r2, [r3], #4
 406 000e 016E     		ldr	r1, [r0, #96]	@ unaligned
 407 0010 426E     		ldr	r2, [r0, #100]	@ unaligned
 408 0012 D0F868C0 		ldr	ip, [r0, #104]	@ unaligned
 409 0016 C06E     		ldr	r0, [r0, #108]	@ unaligned
 410 0018 6960     		str	r1, [r5, #4]	@ unaligned
 411 001a 5A60     		str	r2, [r3, #4]	@ unaligned
 412 001c C3F808C0 		str	ip, [r3, #8]	@ unaligned
 413 0020 D860     		str	r0, [r3, #12]	@ unaligned
 414 0022 216F     		ldr	r1, [r4, #112]	@ unaligned
ARM GAS  C:\Temp\ccrtA2Jt.s 			page 8


 415 0024 626F     		ldr	r2, [r4, #116]	@ unaligned
 416 0026 1961     		str	r1, [r3, #16]	@ unaligned
 417 0028 5A61     		str	r2, [r3, #20]	@ unaligned
 418 002a D4F8EC32 		ldr	r3, [r4, #748]
 419 002e B3F5803F 		cmp	r3, #65536
 420 0032 5BD3     		bcc	.L47
 421 0034 4FF6FF73 		movw	r3, #65535
 422 0038 EB81     		strh	r3, [r5, #14]	@ movhi
 423              	.L48:
 424 003a B4F9F032 		ldrsh	r3, [r4, #752]
 425 003e 2B82     		strh	r3, [r5, #16]	@ movhi
 426 0040 B4F9F232 		ldrsh	r3, [r4, #754]
 427 0044 6B82     		strh	r3, [r5, #18]	@ movhi
 428 0046 D4F8BC20 		ldr	r2, [r4, #188]	@ unaligned
 429 004a D4F8C030 		ldr	r3, [r4, #192]	@ unaligned
 430 004e EA61     		str	r2, [r5, #28]	@ unaligned
 431 0050 2B62     		str	r3, [r5, #32]	@ unaligned
 432 0052 B4F8C430 		ldrh	r3, [r4, #196]	@ unaligned
 433 0056 AB84     		strh	r3, [r5, #36]	@ unaligned
 434 0058 D4F8C620 		ldr	r2, [r4, #198]	@ unaligned
 435 005c D4F8CA30 		ldr	r3, [r4, #202]	@ unaligned
 436 0060 C5F82620 		str	r2, [r5, #38]	@ unaligned
 437 0064 C5F82A30 		str	r3, [r5, #42]	@ unaligned
 438 0068 B4F8CE30 		ldrh	r3, [r4, #206]	@ unaligned
 439 006c EB85     		strh	r3, [r5, #46]	@ unaligned
 440 006e D4F8B420 		ldr	r2, [r4, #180]	@ unaligned
 441 0072 D4F8B830 		ldr	r3, [r4, #184]	@ unaligned
 442 0076 2A63     		str	r2, [r5, #48]	@ unaligned
 443 0078 6B63     		str	r3, [r5, #52]	@ unaligned
 444 007a B4F8D830 		ldrh	r3, [r4, #216]	@ unaligned
 445 007e 2B87     		strh	r3, [r5, #56]	@ unaligned
 446 0080 F422     		movs	r2, #244
 447 0082 04F27C51 		addw	r1, r4, #1404
 448 0086 05F13C00 		add	r0, r5, #60
 449 008a FFF7FEFF 		bl	memcpy
 450 008e D4F8D030 		ldr	r3, [r4, #208]	@ unaligned
 451 0092 C5F83031 		str	r3, [r5, #304]	@ unaligned
 452 0096 04F17803 		add	r3, r4, #120
 453 009a 05F59A72 		add	r2, r5, #308
 454 009e 04F1A801 		add	r1, r4, #168
 455              	.L49:
 456 00a2 1E68     		ldr	r6, [r3]	@ unaligned
 457 00a4 D3F804E0 		ldr	lr, [r3, #4]	@ unaligned
 458 00a8 D3F808C0 		ldr	ip, [r3, #8]	@ unaligned
 459 00ac D868     		ldr	r0, [r3, #12]	@ unaligned
 460 00ae 1660     		str	r6, [r2]	@ unaligned
 461 00b0 C2F804E0 		str	lr, [r2, #4]	@ unaligned
 462 00b4 C2F808C0 		str	ip, [r2, #8]	@ unaligned
 463 00b8 D060     		str	r0, [r2, #12]	@ unaligned
 464 00ba 1033     		adds	r3, r3, #16
 465 00bc 1032     		adds	r2, r2, #16
 466 00be 8B42     		cmp	r3, r1
 467 00c0 EFD1     		bne	.L49
 468 00c2 1868     		ldr	r0, [r3]	@ unaligned
 469 00c4 5968     		ldr	r1, [r3, #4]	@ unaligned
 470 00c6 9B68     		ldr	r3, [r3, #8]	@ unaligned
 471 00c8 1060     		str	r0, [r2]	@ unaligned
ARM GAS  C:\Temp\ccrtA2Jt.s 			page 9


 472 00ca 5160     		str	r1, [r2, #4]	@ unaligned
 473 00cc 9360     		str	r3, [r2, #8]	@ unaligned
 474 00ce 1834     		adds	r4, r4, #24
 475 00d0 41F67852 		movw	r2, #7544
 476 00d4 A318     		adds	r3, r4, r2
 477 00d6 A158     		ldr	r1, [r4, r2]	@ unaligned
 478 00d8 5A68     		ldr	r2, [r3, #4]	@ unaligned
 479 00da 9B68     		ldr	r3, [r3, #8]	@ unaligned
 480 00dc C5F87011 		str	r1, [r5, #368]	@ unaligned
 481 00e0 C5F87421 		str	r2, [r5, #372]	@ unaligned
 482 00e4 C5F87831 		str	r3, [r5, #376]	@ unaligned
 483 00e8 0020     		movs	r0, #0
 484 00ea 70BD     		pop	{r4, r5, r6, pc}
 485              	.L47:
 486 00ec EB81     		strh	r3, [r5, #14]	@ movhi
 487 00ee A4E7     		b	.L48
 488              	.L52:
 489              		.align	2
 490              	.L51:
 491 00f0 0201ABEC 		.word	-324337406
 493              		.section	.text.VL53L1_set_inter_measurement_period_ms,"ax",%progbits
 494              		.align	1
 495              		.global	VL53L1_set_inter_measurement_period_ms
 496              		.syntax unified
 497              		.thumb
 498              		.thumb_func
 500              	VL53L1_set_inter_measurement_period_ms:
 501              		@ args = 0, pretend = 0, frame = 0
 502              		@ frame_needed = 0, uses_anonymous_args = 0
 503              		@ link register save eliminated.
 504 0000 00F58053 		add	r3, r0, #4096
 505 0004 B3F8C433 		ldrh	r3, [r3, #964]
 506 0008 33B1     		cbz	r3, .L55
 507 000a C162     		str	r1, [r0, #44]
 508 000c 01FB03F3 		mul	r3, r1, r3
 509 0010 C0F8A433 		str	r3, [r0, #932]
 510 0014 0020     		movs	r0, #0
 511 0016 7047     		bx	lr
 512              	.L55:
 513 0018 6FF00E00 		mvn	r0, #14
 514 001c 7047     		bx	lr
 516              		.section	.text.VL53L1_get_inter_measurement_period_ms,"ax",%progbits
 517              		.align	1
 518              		.global	VL53L1_get_inter_measurement_period_ms
 519              		.syntax unified
 520              		.thumb
 521              		.thumb_func
 523              	VL53L1_get_inter_measurement_period_ms:
 524              		@ args = 0, pretend = 0, frame = 0
 525              		@ frame_needed = 0, uses_anonymous_args = 0
 526              		@ link register save eliminated.
 527 0000 00F58053 		add	r3, r0, #4096
 528 0004 B3F8C423 		ldrh	r2, [r3, #964]
 529 0008 32B1     		cbz	r2, .L58
 530 000a D0F8A433 		ldr	r3, [r0, #932]
 531 000e B3FBF2F3 		udiv	r3, r3, r2
 532 0012 0B60     		str	r3, [r1]
ARM GAS  C:\Temp\ccrtA2Jt.s 			page 10


 533 0014 0020     		movs	r0, #0
 534 0016 7047     		bx	lr
 535              	.L58:
 536 0018 6FF00E00 		mvn	r0, #14
 537 001c 7047     		bx	lr
 539              		.section	.text.VL53L1_set_timeouts_us,"ax",%progbits
 540              		.align	1
 541              		.global	VL53L1_set_timeouts_us
 542              		.syntax unified
 543              		.thumb
 544              		.thumb_func
 546              	VL53L1_set_timeouts_us:
 547              		@ args = 0, pretend = 0, frame = 0
 548              		@ frame_needed = 0, uses_anonymous_args = 0
 549 0000 8446     		mov	ip, r0
 550 0002 0846     		mov	r0, r1
 551 0004 1146     		mov	r1, r2
 552 0006 1A46     		mov	r2, r3
 553 0008 BCF83E33 		ldrh	r3, [ip, #830]
 554 000c 8BB1     		cbz	r3, .L61
 555 000e 10B5     		push	{r4, lr}
 556 0010 82B0     		sub	sp, sp, #8
 557 0012 CCF82000 		str	r0, [ip, #32]
 558 0016 CCF82410 		str	r1, [ip, #36]
 559 001a CCF82820 		str	r2, [ip, #40]
 560 001e 0CF56574 		add	r4, ip, #916
 561 0022 0194     		str	r4, [sp, #4]
 562 0024 0CF27E34 		addw	r4, ip, #894
 563 0028 0094     		str	r4, [sp]
 564 002a FFF7FEFF 		bl	VL53L1_calc_timeout_register_values
 565 002e 02B0     		add	sp, sp, #8
 566              		@ sp needed
 567 0030 10BD     		pop	{r4, pc}
 568              	.L61:
 569 0032 6FF00E00 		mvn	r0, #14
 570 0036 7047     		bx	lr
 572              		.section	.text.VL53L1_get_timeouts_us,"ax",%progbits
 573              		.align	1
 574              		.global	VL53L1_get_timeouts_us
 575              		.syntax unified
 576              		.thumb
 577              		.thumb_func
 579              	VL53L1_get_timeouts_us:
 580              		@ args = 0, pretend = 0, frame = 0
 581              		@ frame_needed = 0, uses_anonymous_args = 0
 582 0000 2DE9F041 		push	{r4, r5, r6, r7, r8, lr}
 583 0004 0446     		mov	r4, r0
 584 0006 B0F83E03 		ldrh	r0, [r0, #830]
 585 000a 70B3     		cbz	r0, .L68
 586 000c 8846     		mov	r8, r1
 587 000e 1746     		mov	r7, r2
 588 0010 1E46     		mov	r6, r3
 589 0012 94F89A13 		ldrb	r1, [r4, #922]	@ zero_extendqisi2
 590 0016 FFF7FEFF 		bl	VL53L1_calc_macro_period_us
 591 001a 0546     		mov	r5, r0
 592 001c 0146     		mov	r1, r0
 593 001e 94F88503 		ldrb	r0, [r4, #901]	@ zero_extendqisi2
ARM GAS  C:\Temp\ccrtA2Jt.s 			page 11


 594 0022 FFF7FEFF 		bl	VL53L1_calc_timeout_us
 595 0026 C8F80000 		str	r0, [r8]
 596 002a 94F89433 		ldrb	r3, [r4, #916]	@ zero_extendqisi2
 597 002e 94F89503 		ldrb	r0, [r4, #917]	@ zero_extendqisi2
 598 0032 00EB0320 		add	r0, r0, r3, lsl #8
 599 0036 2946     		mov	r1, r5
 600 0038 80B2     		uxth	r0, r0
 601 003a FFF7FEFF 		bl	VL53L1_calc_decoded_timeout_us
 602 003e 3860     		str	r0, [r7]
 603 0040 94F89833 		ldrb	r3, [r4, #920]	@ zero_extendqisi2
 604 0044 94F89903 		ldrb	r0, [r4, #921]	@ zero_extendqisi2
 605 0048 00EB0320 		add	r0, r0, r3, lsl #8
 606 004c 2946     		mov	r1, r5
 607 004e 80B2     		uxth	r0, r0
 608 0050 FFF7FEFF 		bl	VL53L1_calc_decoded_timeout_us
 609 0054 3060     		str	r0, [r6]
 610 0056 D8F80030 		ldr	r3, [r8]
 611 005a 2362     		str	r3, [r4, #32]
 612 005c 3B68     		ldr	r3, [r7]
 613 005e 6362     		str	r3, [r4, #36]
 614 0060 3368     		ldr	r3, [r6]
 615 0062 A362     		str	r3, [r4, #40]
 616 0064 0020     		movs	r0, #0
 617              	.L67:
 618 0066 BDE8F081 		pop	{r4, r5, r6, r7, r8, pc}
 619              	.L68:
 620 006a 6FF00E00 		mvn	r0, #14
 621 006e FAE7     		b	.L67
 623              		.section	.text.VL53L1_set_calibration_repeat_period,"ax",%progbits
 624              		.align	1
 625              		.global	VL53L1_set_calibration_repeat_period
 626              		.syntax unified
 627              		.thumb
 628              		.thumb_func
 630              	VL53L1_set_calibration_repeat_period:
 631              		@ args = 0, pretend = 0, frame = 0
 632              		@ frame_needed = 0, uses_anonymous_args = 0
 633              		@ link register save eliminated.
 634 0000 A0F88213 		strh	r1, [r0, #898]	@ movhi
 635 0004 0020     		movs	r0, #0
 636 0006 7047     		bx	lr
 638              		.section	.text.VL53L1_get_calibration_repeat_period,"ax",%progbits
 639              		.align	1
 640              		.global	VL53L1_get_calibration_repeat_period
 641              		.syntax unified
 642              		.thumb
 643              		.thumb_func
 645              	VL53L1_get_calibration_repeat_period:
 646              		@ args = 0, pretend = 0, frame = 0
 647              		@ frame_needed = 0, uses_anonymous_args = 0
 648              		@ link register save eliminated.
 649 0000 B0F88233 		ldrh	r3, [r0, #898]
 650 0004 0B80     		strh	r3, [r1]	@ movhi
 651 0006 0020     		movs	r0, #0
 652 0008 7047     		bx	lr
 654              		.section	.text.VL53L1_set_sequence_config_bit,"ax",%progbits
 655              		.align	1
ARM GAS  C:\Temp\ccrtA2Jt.s 			page 12


 656              		.global	VL53L1_set_sequence_config_bit
 657              		.syntax unified
 658              		.thumb
 659              		.thumb_func
 661              	VL53L1_set_sequence_config_bit:
 662              		@ args = 0, pretend = 0, frame = 0
 663              		@ frame_needed = 0, uses_anonymous_args = 0
 664              		@ link register save eliminated.
 665 0000 02F00102 		and	r2, r2, #1
 666 0004 0729     		cmp	r1, #7
 667 0006 11D8     		bhi	.L75
 668 0008 39B1     		cbz	r1, .L76
 669 000a 0123     		movs	r3, #1
 670 000c 8B40     		lsls	r3, r3, r1
 671 000e DBB2     		uxtb	r3, r3
 672 0010 8A40     		lsls	r2, r2, r1
 673 0012 D2B2     		uxtb	r2, r2
 674 0014 DB43     		mvns	r3, r3
 675 0016 DBB2     		uxtb	r3, r3
 676 0018 00E0     		b	.L74
 677              	.L76:
 678 001a FE23     		movs	r3, #254
 679              	.L74:
 680 001c 90F8BD13 		ldrb	r1, [r0, #957]	@ zero_extendqisi2
 681 0020 0B40     		ands	r3, r3, r1
 682 0022 1A43     		orrs	r2, r2, r3
 683 0024 80F8BD23 		strb	r2, [r0, #957]
 684 0028 0020     		movs	r0, #0
 685 002a 7047     		bx	lr
 686              	.L75:
 687 002c 6FF00300 		mvn	r0, #3
 688 0030 7047     		bx	lr
 690              		.section	.text.VL53L1_get_sequence_config_bit,"ax",%progbits
 691              		.align	1
 692              		.global	VL53L1_get_sequence_config_bit
 693              		.syntax unified
 694              		.thumb
 695              		.thumb_func
 697              	VL53L1_get_sequence_config_bit:
 698              		@ args = 0, pretend = 0, frame = 0
 699              		@ frame_needed = 0, uses_anonymous_args = 0
 700              		@ link register save eliminated.
 701 0000 0729     		cmp	r1, #7
 702 0002 13D8     		bhi	.L80
 703 0004 31B1     		cbz	r1, .L81
 704 0006 4FF0010C 		mov	ip, #1
 705 000a 0CFA01FC 		lsl	ip, ip, r1
 706 000e 5FFA8CFC 		uxtb	ip, ip
 707 0012 01E0     		b	.L79
 708              	.L81:
 709 0014 4FF0010C 		mov	ip, #1
 710              	.L79:
 711 0018 90F8BD33 		ldrb	r3, [r0, #957]	@ zero_extendqisi2
 712 001c 03EA0C03 		and	r3, r3, ip
 713 0020 1370     		strb	r3, [r2]
 714 0022 31B1     		cbz	r1, .L82
 715 0024 0B41     		asrs	r3, r3, r1
ARM GAS  C:\Temp\ccrtA2Jt.s 			page 13


 716 0026 1370     		strb	r3, [r2]
 717 0028 0020     		movs	r0, #0
 718 002a 7047     		bx	lr
 719              	.L80:
 720 002c 6FF00300 		mvn	r0, #3
 721 0030 7047     		bx	lr
 722              	.L82:
 723 0032 0020     		movs	r0, #0
 724 0034 7047     		bx	lr
 726              		.section	.text.VL53L1_set_interrupt_polarity,"ax",%progbits
 727              		.align	1
 728              		.global	VL53L1_set_interrupt_polarity
 729              		.syntax unified
 730              		.thumb
 731              		.thumb_func
 733              	VL53L1_set_interrupt_polarity:
 734              		@ args = 0, pretend = 0, frame = 0
 735              		@ frame_needed = 0, uses_anonymous_args = 0
 736              		@ link register save eliminated.
 737 0000 90F86A33 		ldrb	r3, [r0, #874]	@ zero_extendqisi2
 738 0004 23F01003 		bic	r3, r3, #16
 739 0008 01F01001 		and	r1, r1, #16
 740 000c 0B43     		orrs	r3, r3, r1
 741 000e 80F86A33 		strb	r3, [r0, #874]
 742 0012 0020     		movs	r0, #0
 743 0014 7047     		bx	lr
 745              		.section	.text.VL53L1_set_refspadchar_config_struct,"ax",%progbits
 746              		.align	1
 747              		.global	VL53L1_set_refspadchar_config_struct
 748              		.syntax unified
 749              		.thumb
 750              		.thumb_func
 752              	VL53L1_set_refspadchar_config_struct:
 753              		@ args = 0, pretend = 0, frame = 0
 754              		@ frame_needed = 0, uses_anonymous_args = 0
 755              		@ link register save eliminated.
 756 0000 0B78     		ldrb	r3, [r1]	@ zero_extendqisi2
 757 0002 80F85832 		strb	r3, [r0, #600]
 758 0006 4B78     		ldrb	r3, [r1, #1]	@ zero_extendqisi2
 759 0008 80F85932 		strb	r3, [r0, #601]
 760 000c 4B68     		ldr	r3, [r1, #4]
 761 000e C0F85C32 		str	r3, [r0, #604]
 762 0012 0B89     		ldrh	r3, [r1, #8]
 763 0014 A0F86032 		strh	r3, [r0, #608]	@ movhi
 764 0018 4B89     		ldrh	r3, [r1, #10]
 765 001a A0F86232 		strh	r3, [r0, #610]	@ movhi
 766 001e 8B89     		ldrh	r3, [r1, #12]
 767 0020 A0F86432 		strh	r3, [r0, #612]	@ movhi
 768 0024 0020     		movs	r0, #0
 769 0026 7047     		bx	lr
 771              		.section	.text.VL53L1_get_refspadchar_config_struct,"ax",%progbits
 772              		.align	1
 773              		.global	VL53L1_get_refspadchar_config_struct
 774              		.syntax unified
 775              		.thumb
 776              		.thumb_func
 778              	VL53L1_get_refspadchar_config_struct:
ARM GAS  C:\Temp\ccrtA2Jt.s 			page 14


 779              		@ args = 0, pretend = 0, frame = 0
 780              		@ frame_needed = 0, uses_anonymous_args = 0
 781              		@ link register save eliminated.
 782 0000 90F85832 		ldrb	r3, [r0, #600]	@ zero_extendqisi2
 783 0004 0B70     		strb	r3, [r1]
 784 0006 90F85932 		ldrb	r3, [r0, #601]	@ zero_extendqisi2
 785 000a 4B70     		strb	r3, [r1, #1]
 786 000c D0F85C32 		ldr	r3, [r0, #604]
 787 0010 4B60     		str	r3, [r1, #4]
 788 0012 B0F86032 		ldrh	r3, [r0, #608]
 789 0016 0B81     		strh	r3, [r1, #8]	@ movhi
 790 0018 B0F86232 		ldrh	r3, [r0, #610]
 791 001c 4B81     		strh	r3, [r1, #10]	@ movhi
 792 001e B0F86432 		ldrh	r3, [r0, #612]
 793 0022 8B81     		strh	r3, [r1, #12]	@ movhi
 794 0024 0020     		movs	r0, #0
 795 0026 7047     		bx	lr
 797              		.section	.text.VL53L1_set_range_ignore_threshold,"ax",%progbits
 798              		.align	1
 799              		.global	VL53L1_set_range_ignore_threshold
 800              		.syntax unified
 801              		.thumb
 802              		.thumb_func
 804              	VL53L1_set_range_ignore_threshold:
 805              		@ args = 0, pretend = 0, frame = 0
 806              		@ frame_needed = 0, uses_anonymous_args = 0
 807              		@ link register save eliminated.
 808 0000 A0F80423 		strh	r2, [r0, #772]	@ movhi
 809 0004 80F80213 		strb	r1, [r0, #770]
 810 0008 0020     		movs	r0, #0
 811 000a 7047     		bx	lr
 813              		.section	.text.VL53L1_get_range_ignore_threshold,"ax",%progbits
 814              		.align	1
 815              		.global	VL53L1_get_range_ignore_threshold
 816              		.syntax unified
 817              		.thumb
 818              		.thumb_func
 820              	VL53L1_get_range_ignore_threshold:
 821              		@ args = 0, pretend = 0, frame = 0
 822              		@ frame_needed = 0, uses_anonymous_args = 0
 823              		@ link register save eliminated.
 824 0000 90F802C3 		ldrb	ip, [r0, #770]	@ zero_extendqisi2
 825 0004 81F800C0 		strb	ip, [r1]
 826 0008 B0F87613 		ldrh	r1, [r0, #886]
 827 000c 1980     		strh	r1, [r3]	@ movhi
 828 000e B0F80433 		ldrh	r3, [r0, #772]
 829 0012 1380     		strh	r3, [r2]	@ movhi
 830 0014 0020     		movs	r0, #0
 831 0016 7047     		bx	lr
 833              		.section	.text.VL53L1_get_interrupt_polarity,"ax",%progbits
 834              		.align	1
 835              		.global	VL53L1_get_interrupt_polarity
 836              		.syntax unified
 837              		.thumb
 838              		.thumb_func
 840              	VL53L1_get_interrupt_polarity:
 841              		@ args = 0, pretend = 0, frame = 0
ARM GAS  C:\Temp\ccrtA2Jt.s 			page 15


 842              		@ frame_needed = 0, uses_anonymous_args = 0
 843              		@ link register save eliminated.
 844 0000 90F86A33 		ldrb	r3, [r0, #874]	@ zero_extendqisi2
 845 0004 03F01003 		and	r3, r3, #16
 846 0008 0B70     		strb	r3, [r1]
 847 000a 0020     		movs	r0, #0
 848 000c 7047     		bx	lr
 850              		.section	.text.VL53L1_set_user_zone,"ax",%progbits
 851              		.align	1
 852              		.global	VL53L1_set_user_zone
 853              		.syntax unified
 854              		.thumb
 855              		.thumb_func
 857              	VL53L1_set_user_zone:
 858              		@ args = 0, pretend = 0, frame = 0
 859              		@ frame_needed = 0, uses_anonymous_args = 0
 860 0000 38B5     		push	{r3, r4, r5, lr}
 861 0002 0546     		mov	r5, r0
 862 0004 0C46     		mov	r4, r1
 863 0006 00F2BB32 		addw	r2, r0, #955
 864 000a 0978     		ldrb	r1, [r1]	@ zero_extendqisi2
 865 000c 6078     		ldrb	r0, [r4, #1]	@ zero_extendqisi2
 866 000e FFF7FEFF 		bl	VL53L1_encode_row_col
 867 0012 05F56F72 		add	r2, r5, #956
 868 0016 E178     		ldrb	r1, [r4, #3]	@ zero_extendqisi2
 869 0018 A078     		ldrb	r0, [r4, #2]	@ zero_extendqisi2
 870 001a FFF7FEFF 		bl	VL53L1_encode_zone_size
 871 001e 0020     		movs	r0, #0
 872 0020 38BD     		pop	{r3, r4, r5, pc}
 874              		.section	.text.VL53L1_get_user_zone,"ax",%progbits
 875              		.align	1
 876              		.global	VL53L1_get_user_zone
 877              		.syntax unified
 878              		.thumb
 879              		.thumb_func
 881              	VL53L1_get_user_zone:
 882              		@ args = 0, pretend = 0, frame = 0
 883              		@ frame_needed = 0, uses_anonymous_args = 0
 884 0000 38B5     		push	{r3, r4, r5, lr}
 885 0002 0546     		mov	r5, r0
 886 0004 0C46     		mov	r4, r1
 887 0006 0A46     		mov	r2, r1
 888 0008 0131     		adds	r1, r1, #1
 889 000a 90F8BB03 		ldrb	r0, [r0, #955]	@ zero_extendqisi2
 890 000e FFF7FEFF 		bl	VL53L1_decode_row_col
 891 0012 E21C     		adds	r2, r4, #3
 892 0014 A11C     		adds	r1, r4, #2
 893 0016 95F8BC03 		ldrb	r0, [r5, #956]	@ zero_extendqisi2
 894 001a FFF7FEFF 		bl	VL53L1_decode_zone_size
 895 001e 0020     		movs	r0, #0
 896 0020 38BD     		pop	{r3, r4, r5, pc}
 898              		.section	.text.VL53L1_get_mode_mitigation_roi,"ax",%progbits
 899              		.align	1
 900              		.global	VL53L1_get_mode_mitigation_roi
 901              		.syntax unified
 902              		.thumb
 903              		.thumb_func
ARM GAS  C:\Temp\ccrtA2Jt.s 			page 16


 905              	VL53L1_get_mode_mitigation_roi:
 906              		@ args = 0, pretend = 0, frame = 8
 907              		@ frame_needed = 0, uses_anonymous_args = 0
 908 0000 70B5     		push	{r4, r5, r6, lr}
 909 0002 82B0     		sub	sp, sp, #8
 910 0004 0546     		mov	r5, r0
 911 0006 0C46     		mov	r4, r1
 912 0008 0026     		movs	r6, #0
 913 000a 8DF80760 		strb	r6, [sp, #7]
 914 000e 8DF80660 		strb	r6, [sp, #6]
 915 0012 0DF10702 		add	r2, sp, #7
 916 0016 0DF10601 		add	r1, sp, #6
 917 001a 90F82204 		ldrb	r0, [r0, #1058]	@ zero_extendqisi2
 918 001e FFF7FEFF 		bl	VL53L1_decode_row_col
 919 0022 9DF80730 		ldrb	r3, [sp, #7]	@ zero_extendqisi2
 920 0026 2370     		strb	r3, [r4]
 921 0028 9DF80630 		ldrb	r3, [sp, #6]	@ zero_extendqisi2
 922 002c 6370     		strb	r3, [r4, #1]
 923 002e 95F82334 		ldrb	r3, [r5, #1059]	@ zero_extendqisi2
 924 0032 1A09     		lsrs	r2, r3, #4
 925 0034 E270     		strb	r2, [r4, #3]
 926 0036 03F00F03 		and	r3, r3, #15
 927 003a A370     		strb	r3, [r4, #2]
 928 003c 3046     		mov	r0, r6
 929 003e 02B0     		add	sp, sp, #8
 930              		@ sp needed
 931 0040 70BD     		pop	{r4, r5, r6, pc}
 933              		.section	.text.VL53L1_read_p2p_data,"ax",%progbits
 934              		.align	1
 935              		.global	VL53L1_read_p2p_data
 936              		.syntax unified
 937              		.thumb
 938              		.thumb_func
 940              	VL53L1_read_p2p_data:
 941              		@ args = 0, pretend = 0, frame = 16
 942              		@ frame_needed = 0, uses_anonymous_args = 0
 943 0000 F0B5     		push	{r4, r5, r6, r7, lr}
 944 0002 89B0     		sub	sp, sp, #36
 945 0004 0446     		mov	r4, r0
 946 0006 00F1B406 		add	r6, r0, #180
 947 000a 00F54E71 		add	r1, r0, #824
 948 000e FFF7FEFF 		bl	VL53L1_get_static_nvm_managed
 949 0012 0546     		mov	r5, r0
 950 0014 E0B1     		cbz	r0, .L105
 951              	.L96:
 952 0016 95B3     		cbz	r5, .L106
 953              	.L97:
 954 0018 B4F83E33 		ldrh	r3, [r4, #830]
 955 001c B3F5805F 		cmp	r3, #4096
 956 0020 03D2     		bcs	.L101
 957 0022 4BF6CC43 		movw	r3, #48332
 958 0026 A4F83E33 		strh	r3, [r4, #830]	@ movhi
 959              	.L101:
 960 002a 002D     		cmp	r5, #0
 961 002c 00F09680 		beq	.L107
 962              	.L102:
 963 0030 B4F8D830 		ldrh	r3, [r4, #216]	@ unaligned
ARM GAS  C:\Temp\ccrtA2Jt.s 			page 17


 964 0034 4BB9     		cbnz	r3, .L103
 965 0036 94F8D430 		ldrb	r3, [r4, #212]	@ zero_extendqisi2
 966 003a 1B01     		lsls	r3, r3, #4
 967 003c 84F8D830 		strb	r3, [r4, #216]
 968 0040 94F8D530 		ldrb	r3, [r4, #213]	@ zero_extendqisi2
 969 0044 1B01     		lsls	r3, r3, #4
 970 0046 84F8D930 		strb	r3, [r4, #217]
 971              	.L103:
 972 004a 2846     		mov	r0, r5
 973 004c 09B0     		add	sp, sp, #36
 974              		@ sp needed
 975 004e F0BD     		pop	{r4, r5, r6, r7, pc}
 976              	.L105:
 977 0050 04F16001 		add	r1, r4, #96
 978 0054 2046     		mov	r0, r4
 979 0056 FFF7FEFF 		bl	VL53L1_get_customer_nvm_managed
 980 005a 0546     		mov	r5, r0
 981 005c 0028     		cmp	r0, #0
 982 005e DBD1     		bne	.L97
 983 0060 04F2F237 		addw	r7, r4, #1010
 984 0064 3946     		mov	r1, r7
 985 0066 2046     		mov	r0, r4
 986 0068 FFF7FEFF 		bl	VL53L1_get_nvm_copy_data
 987 006c 0546     		mov	r5, r0
 988 006e 0028     		cmp	r0, #0
 989 0070 D2D1     		bne	.L97
 990 0072 04F50E71 		add	r1, r4, #568
 991 0076 3846     		mov	r0, r7
 992 0078 FFF7FEFF 		bl	VL53L1_copy_rtn_good_spads_to_buffer
 993 007c CBE7     		b	.L96
 994              	.L106:
 995 007e B4F86A30 		ldrh	r3, [r4, #106]
 996 0082 C4F8A032 		str	r3, [r4, #672]
 997 0086 B4F96C30 		ldrsh	r3, [r4, #108]
 998 008a A4F8A432 		strh	r3, [r4, #676]	@ movhi
 999 008e B4F96E30 		ldrsh	r3, [r4, #110]
 1000 0092 A4F8A632 		strh	r3, [r4, #678]	@ movhi
 1001 0096 04F1D801 		add	r1, r4, #216
 1002 009a 2046     		mov	r0, r4
 1003 009c FFF7FEFF 		bl	VL53L1_read_nvm_optical_centre
 1004 00a0 0546     		mov	r5, r0
 1005 00a2 0028     		cmp	r0, #0
 1006 00a4 B8D1     		bne	.L97
 1007 00a6 04F17801 		add	r1, r4, #120
 1008 00aa 2046     		mov	r0, r4
 1009 00ac FFF7FEFF 		bl	VL53L1_read_nvm_cal_peak_rate_map
 1010 00b0 0546     		mov	r5, r0
 1011 00b2 0028     		cmp	r0, #0
 1012 00b4 B0D1     		bne	.L97
 1013 00b6 3146     		mov	r1, r6
 1014 00b8 2046     		mov	r0, r4
 1015 00ba FFF7FEFF 		bl	VL53L1_read_nvm_additional_offset_cal_data
 1016 00be 0546     		mov	r5, r0
 1017 00c0 B4F8B830 		ldrh	r3, [r4, #184]
 1018 00c4 13B9     		cbnz	r3, .L98
 1019 00c6 B4F8BA30 		ldrh	r3, [r4, #186]
 1020 00ca 43B3     		cbz	r3, .L108
ARM GAS  C:\Temp\ccrtA2Jt.s 			page 18


 1021              	.L98:
 1022 00cc 002D     		cmp	r5, #0
 1023 00ce A3D1     		bne	.L97
 1024 00d0 04AA     		add	r2, sp, #16
 1025 00d2 4FF4D671 		mov	r1, #428
 1026 00d6 2046     		mov	r0, r4
 1027 00d8 FFF7FEFF 		bl	VL53L1_read_nvm_fmt_range_results_data
 1028 00dc 0546     		mov	r5, r0
 1029 00de 0028     		cmp	r0, #0
 1030 00e0 9AD1     		bne	.L97
 1031 00e2 BDF81030 		ldrh	r3, [sp, #16]
 1032 00e6 A4F8BC30 		strh	r3, [r4, #188]	@ movhi
 1033 00ea BDF81430 		ldrh	r3, [sp, #20]
 1034 00ee A4F8BE30 		strh	r3, [r4, #190]	@ movhi
 1035 00f2 BDF81C30 		ldrh	r3, [sp, #28]
 1036 00f6 A4F8C030 		strh	r3, [r4, #192]	@ movhi
 1037 00fa B4F87A30 		ldrh	r3, [r4, #122]
 1038 00fe 4BB3     		cbz	r3, .L99
 1039 0100 A4F8C230 		strh	r3, [r4, #194]	@ movhi
 1040              	.L100:
 1041 0104 4FF48073 		mov	r3, #256
 1042 0108 A4F8C430 		strh	r3, [r4, #196]	@ movhi
 1043 010c 04F59E52 		add	r2, r4, #5056
 1044 0110 0432     		adds	r2, r2, #4
 1045 0112 DE21     		movs	r1, #222
 1046 0114 2046     		mov	r0, r4
 1047 0116 FFF7FEFF 		bl	VL53L1_RdWord
 1048 011a 0546     		mov	r5, r0
 1049 011c 7CE7     		b	.L97
 1050              	.L108:
 1051 011e 8023     		movs	r3, #128
 1052 0120 A4F8B830 		strh	r3, [r4, #184]	@ movhi
 1053 0124 4FF4C073 		mov	r3, #384
 1054 0128 A4F8BA30 		strh	r3, [r4, #186]	@ movhi
 1055 012c 04F1B403 		add	r3, r4, #180
 1056 0130 04F1B602 		add	r2, r4, #182
 1057 0134 0392     		str	r2, [sp, #12]
 1058 0136 0293     		str	r3, [sp, #8]
 1059 0138 3823     		movs	r3, #56
 1060 013a 0193     		str	r3, [sp, #4]
 1061 013c 04F50E73 		add	r3, r4, #568
 1062 0140 0093     		str	r3, [sp]
 1063 0142 FF23     		movs	r3, #255
 1064 0144 C722     		movs	r2, #199
 1065 0146 94F82314 		ldrb	r1, [r4, #1059]	@ zero_extendqisi2
 1066 014a 94F82204 		ldrb	r0, [r4, #1058]	@ zero_extendqisi2
 1067 014e FFF7FEFF 		bl	VL53L1_calc_mm_effective_spads
 1068 0152 BBE7     		b	.L98
 1069              	.L99:
 1070 0154 1423     		movs	r3, #20
 1071 0156 A4F8C230 		strh	r3, [r4, #194]	@ movhi
 1072 015a D3E7     		b	.L100
 1073              	.L107:
 1074 015c 04F1D401 		add	r1, r4, #212
 1075 0160 2046     		mov	r0, r4
 1076 0162 FFF7FEFF 		bl	VL53L1_get_mode_mitigation_roi
 1077 0166 0546     		mov	r5, r0
ARM GAS  C:\Temp\ccrtA2Jt.s 			page 19


 1078 0168 62E7     		b	.L102
 1080              		.section	.text.VL53L1_set_zone_config,"ax",%progbits
 1081              		.align	1
 1082              		.global	VL53L1_set_zone_config
 1083              		.syntax unified
 1084              		.thumb
 1085              		.thumb_func
 1087              	VL53L1_set_zone_config:
 1088              		@ args = 0, pretend = 0, frame = 0
 1089              		@ frame_needed = 0, uses_anonymous_args = 0
 1090 0000 70B5     		push	{r4, r5, r6, lr}
 1091 0002 0446     		mov	r4, r0
 1092 0004 0D46     		mov	r5, r1
 1093 0006 01F11C03 		add	r3, r1, #28
 1094 000a 00F1F602 		add	r2, r0, #246
 1095 000e 5C31     		adds	r1, r1, #92
 1096              	.L110:
 1097 0010 1E68     		ldr	r6, [r3]	@ unaligned
 1098 0012 D3F804E0 		ldr	lr, [r3, #4]	@ unaligned
 1099 0016 D3F808C0 		ldr	ip, [r3, #8]	@ unaligned
 1100 001a D868     		ldr	r0, [r3, #12]	@ unaligned
 1101 001c 1660     		str	r6, [r2]	@ unaligned
 1102 001e C2F804E0 		str	lr, [r2, #4]	@ unaligned
 1103 0022 C2F808C0 		str	ip, [r2, #8]	@ unaligned
 1104 0026 D060     		str	r0, [r2, #12]	@ unaligned
 1105 0028 1033     		adds	r3, r3, #16
 1106 002a 1032     		adds	r2, r2, #16
 1107 002c 8B42     		cmp	r3, r1
 1108 002e EFD1     		bne	.L110
 1109 0030 2B78     		ldrb	r3, [r5]	@ zero_extendqisi2
 1110 0032 84F8DA30 		strb	r3, [r4, #218]
 1111 0036 6B78     		ldrb	r3, [r5, #1]	@ zero_extendqisi2
 1112 0038 84F8DB30 		strb	r3, [r4, #219]
 1113 003c 04F1DA00 		add	r0, r4, #218
 1114 0040 FFF7FEFF 		bl	VL53L1_init_zone_config_histogram_bins
 1115 0044 6B78     		ldrb	r3, [r5, #1]	@ zero_extendqisi2
 1116 0046 13B9     		cbnz	r3, .L111
 1117 0048 84F87F33 		strb	r3, [r4, #895]
 1118              	.L112:
 1119 004c 70BD     		pop	{r4, r5, r6, pc}
 1120              	.L111:
 1121 004e 0F2B     		cmp	r3, #15
 1122 0050 03D8     		bhi	.L113
 1123 0052 0133     		adds	r3, r3, #1
 1124 0054 84F87F33 		strb	r3, [r4, #895]
 1125 0058 F8E7     		b	.L112
 1126              	.L113:
 1127 005a 1123     		movs	r3, #17
 1128 005c 84F87F33 		strb	r3, [r4, #895]
 1129 0060 F4E7     		b	.L112
 1131              		.section	.text.VL53L1_get_zone_config,"ax",%progbits
 1132              		.align	1
 1133              		.global	VL53L1_get_zone_config
 1134              		.syntax unified
 1135              		.thumb
 1136              		.thumb_func
 1138              	VL53L1_get_zone_config:
ARM GAS  C:\Temp\ccrtA2Jt.s 			page 20


 1139              		@ args = 0, pretend = 0, frame = 0
 1140              		@ frame_needed = 0, uses_anonymous_args = 0
 1141 0000 08B5     		push	{r3, lr}
 1142 0002 0B46     		mov	r3, r1
 1143 0004 6C22     		movs	r2, #108
 1144 0006 00F1DA01 		add	r1, r0, #218
 1145 000a 1846     		mov	r0, r3
 1146 000c FFF7FEFF 		bl	memcpy
 1147 0010 0020     		movs	r0, #0
 1148 0012 08BD     		pop	{r3, pc}
 1150              		.section	.text.VL53L1_get_preset_mode_timing_cfg,"ax",%progbits
 1151              		.align	1
 1152              		.global	VL53L1_get_preset_mode_timing_cfg
 1153              		.syntax unified
 1154              		.thumb
 1155              		.thumb_func
 1157              	VL53L1_get_preset_mode_timing_cfg:
 1158              		@ args = 8, pretend = 0, frame = 0
 1159              		@ frame_needed = 0, uses_anonymous_args = 0
 1160              		@ link register save eliminated.
 1161 0000 0139     		subs	r1, r1, #1
 1162 0002 2629     		cmp	r1, #38
 1163 0004 00F2D980 		bhi	.L131
 1164 0008 DFE811F0 		tbh	[pc, r1, lsl #1]
 1165              	.L120:
 1166 000c 2700     		.2byte	(.L129-.L120)/2
 1167 000e 2700     		.2byte	(.L129-.L120)/2
 1168 0010 2700     		.2byte	(.L129-.L120)/2
 1169 0012 2700     		.2byte	(.L129-.L120)/2
 1170 0014 2700     		.2byte	(.L129-.L120)/2
 1171 0016 3700     		.2byte	(.L128-.L120)/2
 1172 0018 3700     		.2byte	(.L128-.L120)/2
 1173 001a 3700     		.2byte	(.L128-.L120)/2
 1174 001c D700     		.2byte	(.L131-.L120)/2
 1175 001e D700     		.2byte	(.L131-.L120)/2
 1176 0020 5700     		.2byte	(.L124-.L120)/2
 1177 0022 9700     		.2byte	(.L130-.L120)/2
 1178 0024 5700     		.2byte	(.L124-.L120)/2
 1179 0026 D700     		.2byte	(.L131-.L120)/2
 1180 0028 D700     		.2byte	(.L131-.L120)/2
 1181 002a D700     		.2byte	(.L131-.L120)/2
 1182 002c 2700     		.2byte	(.L129-.L120)/2
 1183 002e 3700     		.2byte	(.L128-.L120)/2
 1184 0030 5700     		.2byte	(.L124-.L120)/2
 1185 0032 5700     		.2byte	(.L124-.L120)/2
 1186 0034 5700     		.2byte	(.L124-.L120)/2
 1187 0036 5700     		.2byte	(.L124-.L120)/2
 1188 0038 5700     		.2byte	(.L124-.L120)/2
 1189 003a 6700     		.2byte	(.L127-.L120)/2
 1190 003c 7700     		.2byte	(.L126-.L120)/2
 1191 003e 8700     		.2byte	(.L125-.L120)/2
 1192 0040 5700     		.2byte	(.L124-.L120)/2
 1193 0042 5700     		.2byte	(.L124-.L120)/2
 1194 0044 5700     		.2byte	(.L124-.L120)/2
 1195 0046 A700     		.2byte	(.L123-.L120)/2
 1196 0048 A700     		.2byte	(.L123-.L120)/2
 1197 004a A700     		.2byte	(.L123-.L120)/2
ARM GAS  C:\Temp\ccrtA2Jt.s 			page 21


 1198 004c B700     		.2byte	(.L122-.L120)/2
 1199 004e B700     		.2byte	(.L122-.L120)/2
 1200 0050 B700     		.2byte	(.L122-.L120)/2
 1201 0052 4700     		.2byte	(.L121-.L120)/2
 1202 0054 4700     		.2byte	(.L121-.L120)/2
 1203 0056 4700     		.2byte	(.L121-.L120)/2
 1204 0058 C700     		.2byte	(.L119-.L120)/2
 1205              		.p2align 1
 1206              	.L129:
 1207 005a B0F87411 		ldrh	r1, [r0, #372]
 1208 005e 1180     		strh	r1, [r2]	@ movhi
 1209 0060 D0F88021 		ldr	r2, [r0, #384]
 1210 0064 1A60     		str	r2, [r3]
 1211 0066 D0F8A031 		ldr	r3, [r0, #416]
 1212 006a 009A     		ldr	r2, [sp]
 1213 006c 1360     		str	r3, [r2]
 1214 006e D0F8B431 		ldr	r3, [r0, #436]
 1215 0072 019A     		ldr	r2, [sp, #4]
 1216 0074 1360     		str	r3, [r2]
 1217 0076 0020     		movs	r0, #0
 1218 0078 7047     		bx	lr
 1219              	.L128:
 1220 007a B0F87A11 		ldrh	r1, [r0, #378]
 1221 007e 1180     		strh	r1, [r2]	@ movhi
 1222 0080 D0F89C21 		ldr	r2, [r0, #412]
 1223 0084 1A60     		str	r2, [r3]
 1224 0086 D0F8AC31 		ldr	r3, [r0, #428]
 1225 008a 009A     		ldr	r2, [sp]
 1226 008c 1360     		str	r3, [r2]
 1227 008e D0F8C031 		ldr	r3, [r0, #448]
 1228 0092 019A     		ldr	r2, [sp, #4]
 1229 0094 1360     		str	r3, [r2]
 1230 0096 0020     		movs	r0, #0
 1231 0098 7047     		bx	lr
 1232              	.L121:
 1233 009a B0F87A11 		ldrh	r1, [r0, #378]
 1234 009e 1180     		strh	r1, [r2]	@ movhi
 1235 00a0 D0F89C21 		ldr	r2, [r0, #412]
 1236 00a4 1A60     		str	r2, [r3]
 1237 00a6 D0F8B031 		ldr	r3, [r0, #432]
 1238 00aa 009A     		ldr	r2, [sp]
 1239 00ac 1360     		str	r3, [r2]
 1240 00ae D0F8C431 		ldr	r3, [r0, #452]
 1241 00b2 019A     		ldr	r2, [sp, #4]
 1242 00b4 1360     		str	r3, [r2]
 1243 00b6 0020     		movs	r0, #0
 1244 00b8 7047     		bx	lr
 1245              	.L124:
 1246 00ba B0F87611 		ldrh	r1, [r0, #374]
 1247 00be 1180     		strh	r1, [r2]	@ movhi
 1248 00c0 D0F88421 		ldr	r2, [r0, #388]
 1249 00c4 1A60     		str	r2, [r3]
 1250 00c6 D0F8A431 		ldr	r3, [r0, #420]
 1251 00ca 009A     		ldr	r2, [sp]
 1252 00cc 1360     		str	r3, [r2]
 1253 00ce D0F8B831 		ldr	r3, [r0, #440]
 1254 00d2 019A     		ldr	r2, [sp, #4]
ARM GAS  C:\Temp\ccrtA2Jt.s 			page 22


 1255 00d4 1360     		str	r3, [r2]
 1256 00d6 0020     		movs	r0, #0
 1257 00d8 7047     		bx	lr
 1258              	.L127:
 1259 00da B0F87811 		ldrh	r1, [r0, #376]
 1260 00de 1180     		strh	r1, [r2]	@ movhi
 1261 00e0 D0F89421 		ldr	r2, [r0, #404]
 1262 00e4 1A60     		str	r2, [r3]
 1263 00e6 D0F8A831 		ldr	r3, [r0, #424]
 1264 00ea 009A     		ldr	r2, [sp]
 1265 00ec 1360     		str	r3, [r2]
 1266 00ee D0F8BC31 		ldr	r3, [r0, #444]
 1267 00f2 019A     		ldr	r2, [sp, #4]
 1268 00f4 1360     		str	r3, [r2]
 1269 00f6 0020     		movs	r0, #0
 1270 00f8 7047     		bx	lr
 1271              	.L126:
 1272 00fa B0F87811 		ldrh	r1, [r0, #376]
 1273 00fe 1180     		strh	r1, [r2]	@ movhi
 1274 0100 D0F89821 		ldr	r2, [r0, #408]
 1275 0104 1A60     		str	r2, [r3]
 1276 0106 D0F8A831 		ldr	r3, [r0, #424]
 1277 010a 009A     		ldr	r2, [sp]
 1278 010c 1360     		str	r3, [r2]
 1279 010e D0F8BC31 		ldr	r3, [r0, #444]
 1280 0112 019A     		ldr	r2, [sp, #4]
 1281 0114 1360     		str	r3, [r2]
 1282 0116 0020     		movs	r0, #0
 1283 0118 7047     		bx	lr
 1284              	.L125:
 1285 011a B0F87811 		ldrh	r1, [r0, #376]
 1286 011e 1180     		strh	r1, [r2]	@ movhi
 1287 0120 D0F89021 		ldr	r2, [r0, #400]
 1288 0124 1A60     		str	r2, [r3]
 1289 0126 D0F8A831 		ldr	r3, [r0, #424]
 1290 012a 009A     		ldr	r2, [sp]
 1291 012c 1360     		str	r3, [r2]
 1292 012e D0F8BC31 		ldr	r3, [r0, #444]
 1293 0132 019A     		ldr	r2, [sp, #4]
 1294 0134 1360     		str	r3, [r2]
 1295 0136 0020     		movs	r0, #0
 1296 0138 7047     		bx	lr
 1297              	.L130:
 1298 013a B0F87611 		ldrh	r1, [r0, #374]
 1299 013e 1180     		strh	r1, [r2]	@ movhi
 1300 0140 D0F88C21 		ldr	r2, [r0, #396]
 1301 0144 1A60     		str	r2, [r3]
 1302 0146 D0F8A431 		ldr	r3, [r0, #420]
 1303 014a 009A     		ldr	r2, [sp]
 1304 014c 1360     		str	r3, [r2]
 1305 014e D0F8B831 		ldr	r3, [r0, #440]
 1306 0152 019A     		ldr	r2, [sp, #4]
 1307 0154 1360     		str	r3, [r2]
 1308 0156 0020     		movs	r0, #0
 1309 0158 7047     		bx	lr
 1310              	.L123:
 1311 015a B0F87611 		ldrh	r1, [r0, #374]
ARM GAS  C:\Temp\ccrtA2Jt.s 			page 23


 1312 015e 1180     		strh	r1, [r2]	@ movhi
 1313 0160 D0F88821 		ldr	r2, [r0, #392]
 1314 0164 1A60     		str	r2, [r3]
 1315 0166 D0F8A431 		ldr	r3, [r0, #420]
 1316 016a 009A     		ldr	r2, [sp]
 1317 016c 1360     		str	r3, [r2]
 1318 016e D0F8B831 		ldr	r3, [r0, #440]
 1319 0172 019A     		ldr	r2, [sp, #4]
 1320 0174 1360     		str	r3, [r2]
 1321 0176 0020     		movs	r0, #0
 1322 0178 7047     		bx	lr
 1323              	.L122:
 1324 017a B0F87611 		ldrh	r1, [r0, #374]
 1325 017e 1180     		strh	r1, [r2]	@ movhi
 1326 0180 D0F88C21 		ldr	r2, [r0, #396]
 1327 0184 1A60     		str	r2, [r3]
 1328 0186 D0F8A431 		ldr	r3, [r0, #420]
 1329 018a 009A     		ldr	r2, [sp]
 1330 018c 1360     		str	r3, [r2]
 1331 018e D0F8B831 		ldr	r3, [r0, #440]
 1332 0192 019A     		ldr	r2, [sp, #4]
 1333 0194 1360     		str	r3, [r2]
 1334 0196 0020     		movs	r0, #0
 1335 0198 7047     		bx	lr
 1336              	.L119:
 1337 019a B0F87C11 		ldrh	r1, [r0, #380]
 1338 019e 1180     		strh	r1, [r2]	@ movhi
 1339 01a0 D0F88C21 		ldr	r2, [r0, #396]
 1340 01a4 1A60     		str	r2, [r3]
 1341 01a6 D0F8A431 		ldr	r3, [r0, #420]
 1342 01aa 009A     		ldr	r2, [sp]
 1343 01ac 1360     		str	r3, [r2]
 1344 01ae D0F8B831 		ldr	r3, [r0, #440]
 1345 01b2 019A     		ldr	r2, [sp, #4]
 1346 01b4 1360     		str	r3, [r2]
 1347 01b6 0020     		movs	r0, #0
 1348 01b8 7047     		bx	lr
 1349              	.L131:
 1350 01ba 6FF00300 		mvn	r0, #3
 1351 01be 7047     		bx	lr
 1353              		.section	.text.VL53L1_set_preset_mode,"ax",%progbits
 1354              		.align	1
 1355              		.global	VL53L1_set_preset_mode
 1356              		.syntax unified
 1357              		.thumb
 1358              		.thumb_func
 1360              	VL53L1_set_preset_mode:
 1361              		@ args = 12, pretend = 0, frame = 24
 1362              		@ frame_needed = 0, uses_anonymous_args = 0
 1363 0000 2DE9F04F 		push	{r4, r5, r6, r7, r8, r9, r10, fp, lr}
 1364 0004 8DB0     		sub	sp, sp, #52
 1365 0006 0446     		mov	r4, r0
 1366 0008 0D46     		mov	r5, r1
 1367 000a 0992     		str	r2, [sp, #36]
 1368 000c 0A93     		str	r3, [sp, #40]
 1369 000e 00F51D73 		add	r3, r0, #628
 1370 0012 0893     		str	r3, [sp, #32]
ARM GAS  C:\Temp\ccrtA2Jt.s 			page 24


 1371 0014 00F25E33 		addw	r3, r0, #862
 1372 0018 0693     		str	r3, [sp, #24]
 1373 001a 00F55173 		add	r3, r0, #836
 1374 001e 0793     		str	r3, [sp, #28]
 1375 0020 00F27E38 		addw	r8, r0, #894
 1376 0024 00F5657B 		add	fp, r0, #916
 1377 0028 00F56B76 		add	r6, r0, #940
 1378 002c 00F57077 		add	r7, r0, #960
 1379 0030 00F1DA0A 		add	r10, r0, #218
 1380 0034 00F5A479 		add	r9, r0, #328
 1381 0038 00F5AC53 		add	r3, r0, #5504
 1382 003c 0B93     		str	r3, [sp, #44]
 1383 003e 4176     		strb	r1, [r0, #25]
 1384 0040 169B     		ldr	r3, [sp, #88]
 1385 0042 4362     		str	r3, [r0, #36]
 1386 0044 179B     		ldr	r3, [sp, #92]
 1387 0046 8362     		str	r3, [r0, #40]
 1388 0048 189B     		ldr	r3, [sp, #96]
 1389 004a C362     		str	r3, [r0, #44]
 1390 004c 0321     		movs	r1, #3
 1391 004e FFF7FEFF 		bl	VL53L1_init_ll_driver_state
 1392 0052 013D     		subs	r5, r5, #1
 1393 0054 262D     		cmp	r5, #38
 1394 0056 00F27982 		bhi	.L174
 1395 005a DFE815F0 		tbh	[pc, r5, lsl #1]
 1396              	.L135:
 1397 005e 2700     		.2byte	(.L171-.L135)/2
 1398 0060 4900     		.2byte	(.L170-.L135)/2
 1399 0062 5700     		.2byte	(.L169-.L135)/2
 1400 0064 6500     		.2byte	(.L168-.L135)/2
 1401 0066 7300     		.2byte	(.L167-.L135)/2
 1402 0068 8100     		.2byte	(.L166-.L135)/2
 1403 006a 8F00     		.2byte	(.L165-.L135)/2
 1404 006c 9D00     		.2byte	(.L164-.L135)/2
 1405 006e 7702     		.2byte	(.L174-.L135)/2
 1406 0070 7702     		.2byte	(.L174-.L135)/2
 1407 0072 AB00     		.2byte	(.L163-.L135)/2
 1408 0074 3B01     		.2byte	(.L162-.L135)/2
 1409 0076 DB01     		.2byte	(.L161-.L135)/2
 1410 0078 EB01     		.2byte	(.L160-.L135)/2
 1411 007a FB01     		.2byte	(.L159-.L135)/2
 1412 007c 0B02     		.2byte	(.L158-.L135)/2
 1413 007e 1B02     		.2byte	(.L157-.L135)/2
 1414 0080 2902     		.2byte	(.L156-.L135)/2
 1415 0082 2B01     		.2byte	(.L155-.L135)/2
 1416 0084 BB00     		.2byte	(.L154-.L135)/2
 1417 0086 CB00     		.2byte	(.L153-.L135)/2
 1418 0088 DB00     		.2byte	(.L152-.L135)/2
 1419 008a EB00     		.2byte	(.L151-.L135)/2
 1420 008c FB00     		.2byte	(.L150-.L135)/2
 1421 008e 0B01     		.2byte	(.L149-.L135)/2
 1422 0090 1B01     		.2byte	(.L148-.L135)/2
 1423 0092 4B01     		.2byte	(.L147-.L135)/2
 1424 0094 5B01     		.2byte	(.L146-.L135)/2
 1425 0096 6B01     		.2byte	(.L145-.L135)/2
 1426 0098 7B01     		.2byte	(.L144-.L135)/2
 1427 009a 8B01     		.2byte	(.L143-.L135)/2
ARM GAS  C:\Temp\ccrtA2Jt.s 			page 25


 1428 009c 9B01     		.2byte	(.L142-.L135)/2
 1429 009e AB01     		.2byte	(.L141-.L135)/2
 1430 00a0 BB01     		.2byte	(.L140-.L135)/2
 1431 00a2 CB01     		.2byte	(.L139-.L135)/2
 1432 00a4 3702     		.2byte	(.L138-.L135)/2
 1433 00a6 4702     		.2byte	(.L137-.L135)/2
 1434 00a8 5702     		.2byte	(.L136-.L135)/2
 1435 00aa 6702     		.2byte	(.L134-.L135)/2
 1436              		.p2align 1
 1437              	.L171:
 1438 00ac CDF80CA0 		str	r10, [sp, #12]
 1439 00b0 CDF80890 		str	r9, [sp, #8]
 1440 00b4 0197     		str	r7, [sp, #4]
 1441 00b6 0096     		str	r6, [sp]
 1442 00b8 5B46     		mov	r3, fp
 1443 00ba 4246     		mov	r2, r8
 1444 00bc 0799     		ldr	r1, [sp, #28]
 1445 00be 0698     		ldr	r0, [sp, #24]
 1446 00c0 FFF7FEFF 		bl	VL53L1_preset_mode_standard_ranging
 1447 00c4 0546     		mov	r5, r0
 1448              	.L172:
 1449 00c6 35B9     		cbnz	r5, .L173
 1450 00c8 099B     		ldr	r3, [sp, #36]
 1451 00ca A4F85E33 		strh	r3, [r4, #862]	@ movhi
 1452 00ce 2386     		strh	r3, [r4, #48]	@ movhi
 1453              	.L133:
 1454 00d0 002D     		cmp	r5, #0
 1455 00d2 00F03E82 		beq	.L176
 1456              	.L173:
 1457 00d6 94F8DB00 		ldrb	r0, [r4, #219]	@ zero_extendqisi2
 1458 00da 0130     		adds	r0, r0, #1
 1459 00dc 04F5D041 		add	r1, r4, #26624
 1460 00e0 3431     		adds	r1, r1, #52
 1461 00e2 C0B2     		uxtb	r0, r0
 1462 00e4 FFF7FEFF 		bl	V53L1_init_zone_results_structure
 1463 00e8 2846     		mov	r0, r5
 1464 00ea 0DB0     		add	sp, sp, #52
 1465              		@ sp needed
 1466 00ec BDE8F08F 		pop	{r4, r5, r6, r7, r8, r9, r10, fp, pc}
 1467              	.L170:
 1468 00f0 CDF80CA0 		str	r10, [sp, #12]
 1469 00f4 CDF80890 		str	r9, [sp, #8]
 1470 00f8 0197     		str	r7, [sp, #4]
 1471 00fa 0096     		str	r6, [sp]
 1472 00fc 5B46     		mov	r3, fp
 1473 00fe 4246     		mov	r2, r8
 1474 0100 0799     		ldr	r1, [sp, #28]
 1475 0102 0698     		ldr	r0, [sp, #24]
 1476 0104 FFF7FEFF 		bl	VL53L1_preset_mode_standard_ranging_short_range
 1477 0108 0546     		mov	r5, r0
 1478 010a DCE7     		b	.L172
 1479              	.L169:
 1480 010c CDF80CA0 		str	r10, [sp, #12]
 1481 0110 CDF80890 		str	r9, [sp, #8]
 1482 0114 0197     		str	r7, [sp, #4]
 1483 0116 0096     		str	r6, [sp]
 1484 0118 5B46     		mov	r3, fp
ARM GAS  C:\Temp\ccrtA2Jt.s 			page 26


 1485 011a 4246     		mov	r2, r8
 1486 011c 0799     		ldr	r1, [sp, #28]
 1487 011e 0698     		ldr	r0, [sp, #24]
 1488 0120 FFF7FEFF 		bl	VL53L1_preset_mode_standard_ranging_long_range
 1489 0124 0546     		mov	r5, r0
 1490 0126 CEE7     		b	.L172
 1491              	.L168:
 1492 0128 CDF80CA0 		str	r10, [sp, #12]
 1493 012c CDF80890 		str	r9, [sp, #8]
 1494 0130 0197     		str	r7, [sp, #4]
 1495 0132 0096     		str	r6, [sp]
 1496 0134 5B46     		mov	r3, fp
 1497 0136 4246     		mov	r2, r8
 1498 0138 0799     		ldr	r1, [sp, #28]
 1499 013a 0698     		ldr	r0, [sp, #24]
 1500 013c FFF7FEFF 		bl	VL53L1_preset_mode_standard_ranging_mm1_cal
 1501 0140 0546     		mov	r5, r0
 1502 0142 C0E7     		b	.L172
 1503              	.L167:
 1504 0144 CDF80CA0 		str	r10, [sp, #12]
 1505 0148 CDF80890 		str	r9, [sp, #8]
 1506 014c 0197     		str	r7, [sp, #4]
 1507 014e 0096     		str	r6, [sp]
 1508 0150 5B46     		mov	r3, fp
 1509 0152 4246     		mov	r2, r8
 1510 0154 0799     		ldr	r1, [sp, #28]
 1511 0156 0698     		ldr	r0, [sp, #24]
 1512 0158 FFF7FEFF 		bl	VL53L1_preset_mode_standard_ranging_mm2_cal
 1513 015c 0546     		mov	r5, r0
 1514 015e B2E7     		b	.L172
 1515              	.L166:
 1516 0160 CDF80CA0 		str	r10, [sp, #12]
 1517 0164 CDF80890 		str	r9, [sp, #8]
 1518 0168 0197     		str	r7, [sp, #4]
 1519 016a 0096     		str	r6, [sp]
 1520 016c 5B46     		mov	r3, fp
 1521 016e 4246     		mov	r2, r8
 1522 0170 0799     		ldr	r1, [sp, #28]
 1523 0172 0698     		ldr	r0, [sp, #24]
 1524 0174 FFF7FEFF 		bl	VL53L1_preset_mode_timed_ranging
 1525 0178 0546     		mov	r5, r0
 1526 017a A4E7     		b	.L172
 1527              	.L165:
 1528 017c CDF80CA0 		str	r10, [sp, #12]
 1529 0180 CDF80890 		str	r9, [sp, #8]
 1530 0184 0197     		str	r7, [sp, #4]
 1531 0186 0096     		str	r6, [sp]
 1532 0188 5B46     		mov	r3, fp
 1533 018a 4246     		mov	r2, r8
 1534 018c 0799     		ldr	r1, [sp, #28]
 1535 018e 0698     		ldr	r0, [sp, #24]
 1536 0190 FFF7FEFF 		bl	VL53L1_preset_mode_timed_ranging_short_range
 1537 0194 0546     		mov	r5, r0
 1538 0196 96E7     		b	.L172
 1539              	.L164:
 1540 0198 CDF80CA0 		str	r10, [sp, #12]
 1541 019c CDF80890 		str	r9, [sp, #8]
ARM GAS  C:\Temp\ccrtA2Jt.s 			page 27


 1542 01a0 0197     		str	r7, [sp, #4]
 1543 01a2 0096     		str	r6, [sp]
 1544 01a4 5B46     		mov	r3, fp
 1545 01a6 4246     		mov	r2, r8
 1546 01a8 0799     		ldr	r1, [sp, #28]
 1547 01aa 0698     		ldr	r0, [sp, #24]
 1548 01ac FFF7FEFF 		bl	VL53L1_preset_mode_timed_ranging_long_range
 1549 01b0 0546     		mov	r5, r0
 1550 01b2 88E7     		b	.L172
 1551              	.L163:
 1552 01b4 CDF810A0 		str	r10, [sp, #16]
 1553 01b8 CDF80C90 		str	r9, [sp, #12]
 1554 01bc 0297     		str	r7, [sp, #8]
 1555 01be 0196     		str	r6, [sp, #4]
 1556 01c0 CDF800B0 		str	fp, [sp]
 1557 01c4 4346     		mov	r3, r8
 1558 01c6 079A     		ldr	r2, [sp, #28]
 1559 01c8 0699     		ldr	r1, [sp, #24]
 1560 01ca 0898     		ldr	r0, [sp, #32]
 1561 01cc FFF7FEFF 		bl	VL53L1_preset_mode_histogram_ranging
 1562 01d0 0546     		mov	r5, r0
 1563 01d2 78E7     		b	.L172
 1564              	.L154:
 1565 01d4 CDF810A0 		str	r10, [sp, #16]
 1566 01d8 CDF80C90 		str	r9, [sp, #12]
 1567 01dc 0297     		str	r7, [sp, #8]
 1568 01de 0196     		str	r6, [sp, #4]
 1569 01e0 CDF800B0 		str	fp, [sp]
 1570 01e4 4346     		mov	r3, r8
 1571 01e6 079A     		ldr	r2, [sp, #28]
 1572 01e8 0699     		ldr	r1, [sp, #24]
 1573 01ea 0898     		ldr	r0, [sp, #32]
 1574 01ec FFF7FEFF 		bl	VL53L1_preset_mode_histogram_ranging_with_mm1
 1575 01f0 0546     		mov	r5, r0
 1576 01f2 68E7     		b	.L172
 1577              	.L153:
 1578 01f4 CDF810A0 		str	r10, [sp, #16]
 1579 01f8 CDF80C90 		str	r9, [sp, #12]
 1580 01fc 0297     		str	r7, [sp, #8]
 1581 01fe 0196     		str	r6, [sp, #4]
 1582 0200 CDF800B0 		str	fp, [sp]
 1583 0204 4346     		mov	r3, r8
 1584 0206 079A     		ldr	r2, [sp, #28]
 1585 0208 0699     		ldr	r1, [sp, #24]
 1586 020a 0898     		ldr	r0, [sp, #32]
 1587 020c FFF7FEFF 		bl	VL53L1_preset_mode_histogram_ranging_with_mm2
 1588 0210 0546     		mov	r5, r0
 1589 0212 58E7     		b	.L172
 1590              	.L152:
 1591 0214 CDF810A0 		str	r10, [sp, #16]
 1592 0218 CDF80C90 		str	r9, [sp, #12]
 1593 021c 0297     		str	r7, [sp, #8]
 1594 021e 0196     		str	r6, [sp, #4]
 1595 0220 CDF800B0 		str	fp, [sp]
 1596 0224 4346     		mov	r3, r8
 1597 0226 079A     		ldr	r2, [sp, #28]
 1598 0228 0699     		ldr	r1, [sp, #24]
ARM GAS  C:\Temp\ccrtA2Jt.s 			page 28


 1599 022a 0898     		ldr	r0, [sp, #32]
 1600 022c FFF7FEFF 		bl	VL53L1_preset_mode_histogram_ranging_mm1_cal
 1601 0230 0546     		mov	r5, r0
 1602 0232 48E7     		b	.L172
 1603              	.L151:
 1604 0234 CDF810A0 		str	r10, [sp, #16]
 1605 0238 CDF80C90 		str	r9, [sp, #12]
 1606 023c 0297     		str	r7, [sp, #8]
 1607 023e 0196     		str	r6, [sp, #4]
 1608 0240 CDF800B0 		str	fp, [sp]
 1609 0244 4346     		mov	r3, r8
 1610 0246 079A     		ldr	r2, [sp, #28]
 1611 0248 0699     		ldr	r1, [sp, #24]
 1612 024a 0898     		ldr	r0, [sp, #32]
 1613 024c FFF7FEFF 		bl	VL53L1_preset_mode_histogram_ranging_mm2_cal
 1614 0250 0546     		mov	r5, r0
 1615 0252 38E7     		b	.L172
 1616              	.L150:
 1617 0254 CDF810A0 		str	r10, [sp, #16]
 1618 0258 CDF80C90 		str	r9, [sp, #12]
 1619 025c 0297     		str	r7, [sp, #8]
 1620 025e 0196     		str	r6, [sp, #4]
 1621 0260 CDF800B0 		str	fp, [sp]
 1622 0264 4346     		mov	r3, r8
 1623 0266 079A     		ldr	r2, [sp, #28]
 1624 0268 0699     		ldr	r1, [sp, #24]
 1625 026a 0898     		ldr	r0, [sp, #32]
 1626 026c FFF7FEFF 		bl	VL53L1_preset_mode_histogram_multizone
 1627 0270 0546     		mov	r5, r0
 1628 0272 28E7     		b	.L172
 1629              	.L149:
 1630 0274 CDF810A0 		str	r10, [sp, #16]
 1631 0278 CDF80C90 		str	r9, [sp, #12]
 1632 027c 0297     		str	r7, [sp, #8]
 1633 027e 0196     		str	r6, [sp, #4]
 1634 0280 CDF800B0 		str	fp, [sp]
 1635 0284 4346     		mov	r3, r8
 1636 0286 079A     		ldr	r2, [sp, #28]
 1637 0288 0699     		ldr	r1, [sp, #24]
 1638 028a 0898     		ldr	r0, [sp, #32]
 1639 028c FFF7FEFF 		bl	VL53L1_preset_mode_histogram_multizone_short_range
 1640 0290 0546     		mov	r5, r0
 1641 0292 18E7     		b	.L172
 1642              	.L148:
 1643 0294 CDF810A0 		str	r10, [sp, #16]
 1644 0298 CDF80C90 		str	r9, [sp, #12]
 1645 029c 0297     		str	r7, [sp, #8]
 1646 029e 0196     		str	r6, [sp, #4]
 1647 02a0 CDF800B0 		str	fp, [sp]
 1648 02a4 4346     		mov	r3, r8
 1649 02a6 079A     		ldr	r2, [sp, #28]
 1650 02a8 0699     		ldr	r1, [sp, #24]
 1651 02aa 0898     		ldr	r0, [sp, #32]
 1652 02ac FFF7FEFF 		bl	VL53L1_preset_mode_histogram_multizone_long_range
 1653 02b0 0546     		mov	r5, r0
 1654 02b2 08E7     		b	.L172
 1655              	.L155:
ARM GAS  C:\Temp\ccrtA2Jt.s 			page 29


 1656 02b4 CDF810A0 		str	r10, [sp, #16]
 1657 02b8 CDF80C90 		str	r9, [sp, #12]
 1658 02bc 0297     		str	r7, [sp, #8]
 1659 02be 0196     		str	r6, [sp, #4]
 1660 02c0 CDF800B0 		str	fp, [sp]
 1661 02c4 4346     		mov	r3, r8
 1662 02c6 079A     		ldr	r2, [sp, #28]
 1663 02c8 0699     		ldr	r1, [sp, #24]
 1664 02ca 0898     		ldr	r0, [sp, #32]
 1665 02cc FFF7FEFF 		bl	VL53L1_preset_mode_histogram_ranging_ref
 1666 02d0 0546     		mov	r5, r0
 1667 02d2 F8E6     		b	.L172
 1668              	.L162:
 1669 02d4 CDF810A0 		str	r10, [sp, #16]
 1670 02d8 CDF80C90 		str	r9, [sp, #12]
 1671 02dc 0297     		str	r7, [sp, #8]
 1672 02de 0196     		str	r6, [sp, #4]
 1673 02e0 CDF800B0 		str	fp, [sp]
 1674 02e4 4346     		mov	r3, r8
 1675 02e6 079A     		ldr	r2, [sp, #28]
 1676 02e8 0699     		ldr	r1, [sp, #24]
 1677 02ea 0898     		ldr	r0, [sp, #32]
 1678 02ec FFF7FEFF 		bl	VL53L1_preset_mode_histogram_ranging_short_timing
 1679 02f0 0546     		mov	r5, r0
 1680 02f2 E8E6     		b	.L172
 1681              	.L147:
 1682 02f4 CDF810A0 		str	r10, [sp, #16]
 1683 02f8 CDF80C90 		str	r9, [sp, #12]
 1684 02fc 0297     		str	r7, [sp, #8]
 1685 02fe 0196     		str	r6, [sp, #4]
 1686 0300 CDF800B0 		str	fp, [sp]
 1687 0304 4346     		mov	r3, r8
 1688 0306 079A     		ldr	r2, [sp, #28]
 1689 0308 0699     		ldr	r1, [sp, #24]
 1690 030a 0898     		ldr	r0, [sp, #32]
 1691 030c FFF7FEFF 		bl	VL53L1_preset_mode_histogram_long_range
 1692 0310 0546     		mov	r5, r0
 1693 0312 D8E6     		b	.L172
 1694              	.L146:
 1695 0314 CDF810A0 		str	r10, [sp, #16]
 1696 0318 CDF80C90 		str	r9, [sp, #12]
 1697 031c 0297     		str	r7, [sp, #8]
 1698 031e 0196     		str	r6, [sp, #4]
 1699 0320 CDF800B0 		str	fp, [sp]
 1700 0324 4346     		mov	r3, r8
 1701 0326 079A     		ldr	r2, [sp, #28]
 1702 0328 0699     		ldr	r1, [sp, #24]
 1703 032a 0898     		ldr	r0, [sp, #32]
 1704 032c FFF7FEFF 		bl	VL53L1_preset_mode_histogram_long_range_mm1
 1705 0330 0546     		mov	r5, r0
 1706 0332 C8E6     		b	.L172
 1707              	.L145:
 1708 0334 CDF810A0 		str	r10, [sp, #16]
 1709 0338 CDF80C90 		str	r9, [sp, #12]
 1710 033c 0297     		str	r7, [sp, #8]
 1711 033e 0196     		str	r6, [sp, #4]
 1712 0340 CDF800B0 		str	fp, [sp]
ARM GAS  C:\Temp\ccrtA2Jt.s 			page 30


 1713 0344 4346     		mov	r3, r8
 1714 0346 079A     		ldr	r2, [sp, #28]
 1715 0348 0699     		ldr	r1, [sp, #24]
 1716 034a 0898     		ldr	r0, [sp, #32]
 1717 034c FFF7FEFF 		bl	VL53L1_preset_mode_histogram_long_range_mm2
 1718 0350 0546     		mov	r5, r0
 1719 0352 B8E6     		b	.L172
 1720              	.L144:
 1721 0354 CDF810A0 		str	r10, [sp, #16]
 1722 0358 CDF80C90 		str	r9, [sp, #12]
 1723 035c 0297     		str	r7, [sp, #8]
 1724 035e 0196     		str	r6, [sp, #4]
 1725 0360 CDF800B0 		str	fp, [sp]
 1726 0364 4346     		mov	r3, r8
 1727 0366 079A     		ldr	r2, [sp, #28]
 1728 0368 0699     		ldr	r1, [sp, #24]
 1729 036a 0898     		ldr	r0, [sp, #32]
 1730 036c FFF7FEFF 		bl	VL53L1_preset_mode_histogram_medium_range
 1731 0370 0546     		mov	r5, r0
 1732 0372 A8E6     		b	.L172
 1733              	.L143:
 1734 0374 CDF810A0 		str	r10, [sp, #16]
 1735 0378 CDF80C90 		str	r9, [sp, #12]
 1736 037c 0297     		str	r7, [sp, #8]
 1737 037e 0196     		str	r6, [sp, #4]
 1738 0380 CDF800B0 		str	fp, [sp]
 1739 0384 4346     		mov	r3, r8
 1740 0386 079A     		ldr	r2, [sp, #28]
 1741 0388 0699     		ldr	r1, [sp, #24]
 1742 038a 0898     		ldr	r0, [sp, #32]
 1743 038c FFF7FEFF 		bl	VL53L1_preset_mode_histogram_medium_range_mm1
 1744 0390 0546     		mov	r5, r0
 1745 0392 98E6     		b	.L172
 1746              	.L142:
 1747 0394 CDF810A0 		str	r10, [sp, #16]
 1748 0398 CDF80C90 		str	r9, [sp, #12]
 1749 039c 0297     		str	r7, [sp, #8]
 1750 039e 0196     		str	r6, [sp, #4]
 1751 03a0 CDF800B0 		str	fp, [sp]
 1752 03a4 4346     		mov	r3, r8
 1753 03a6 079A     		ldr	r2, [sp, #28]
 1754 03a8 0699     		ldr	r1, [sp, #24]
 1755 03aa 0898     		ldr	r0, [sp, #32]
 1756 03ac FFF7FEFF 		bl	VL53L1_preset_mode_histogram_medium_range_mm2
 1757 03b0 0546     		mov	r5, r0
 1758 03b2 88E6     		b	.L172
 1759              	.L141:
 1760 03b4 CDF810A0 		str	r10, [sp, #16]
 1761 03b8 CDF80C90 		str	r9, [sp, #12]
 1762 03bc 0297     		str	r7, [sp, #8]
 1763 03be 0196     		str	r6, [sp, #4]
 1764 03c0 CDF800B0 		str	fp, [sp]
 1765 03c4 4346     		mov	r3, r8
 1766 03c6 079A     		ldr	r2, [sp, #28]
 1767 03c8 0699     		ldr	r1, [sp, #24]
 1768 03ca 0898     		ldr	r0, [sp, #32]
 1769 03cc FFF7FEFF 		bl	VL53L1_preset_mode_histogram_short_range
ARM GAS  C:\Temp\ccrtA2Jt.s 			page 31


 1770 03d0 0546     		mov	r5, r0
 1771 03d2 78E6     		b	.L172
 1772              	.L140:
 1773 03d4 CDF810A0 		str	r10, [sp, #16]
 1774 03d8 CDF80C90 		str	r9, [sp, #12]
 1775 03dc 0297     		str	r7, [sp, #8]
 1776 03de 0196     		str	r6, [sp, #4]
 1777 03e0 CDF800B0 		str	fp, [sp]
 1778 03e4 4346     		mov	r3, r8
 1779 03e6 079A     		ldr	r2, [sp, #28]
 1780 03e8 0699     		ldr	r1, [sp, #24]
 1781 03ea 0898     		ldr	r0, [sp, #32]
 1782 03ec FFF7FEFF 		bl	VL53L1_preset_mode_histogram_short_range_mm1
 1783 03f0 0546     		mov	r5, r0
 1784 03f2 68E6     		b	.L172
 1785              	.L139:
 1786 03f4 CDF810A0 		str	r10, [sp, #16]
 1787 03f8 CDF80C90 		str	r9, [sp, #12]
 1788 03fc 0297     		str	r7, [sp, #8]
 1789 03fe 0196     		str	r6, [sp, #4]
 1790 0400 CDF800B0 		str	fp, [sp]
 1791 0404 4346     		mov	r3, r8
 1792 0406 079A     		ldr	r2, [sp, #28]
 1793 0408 0699     		ldr	r1, [sp, #24]
 1794 040a 0898     		ldr	r0, [sp, #32]
 1795 040c FFF7FEFF 		bl	VL53L1_preset_mode_histogram_short_range_mm2
 1796 0410 0546     		mov	r5, r0
 1797 0412 58E6     		b	.L172
 1798              	.L161:
 1799 0414 CDF810A0 		str	r10, [sp, #16]
 1800 0418 CDF80C90 		str	r9, [sp, #12]
 1801 041c 0297     		str	r7, [sp, #8]
 1802 041e 0196     		str	r6, [sp, #4]
 1803 0420 CDF800B0 		str	fp, [sp]
 1804 0424 4346     		mov	r3, r8
 1805 0426 079A     		ldr	r2, [sp, #28]
 1806 0428 0699     		ldr	r1, [sp, #24]
 1807 042a 0898     		ldr	r0, [sp, #32]
 1808 042c FFF7FEFF 		bl	VL53L1_preset_mode_histogram_characterisation
 1809 0430 0546     		mov	r5, r0
 1810 0432 48E6     		b	.L172
 1811              	.L160:
 1812 0434 CDF810A0 		str	r10, [sp, #16]
 1813 0438 CDF80C90 		str	r9, [sp, #12]
 1814 043c 0297     		str	r7, [sp, #8]
 1815 043e 0196     		str	r6, [sp, #4]
 1816 0440 CDF800B0 		str	fp, [sp]
 1817 0444 4346     		mov	r3, r8
 1818 0446 079A     		ldr	r2, [sp, #28]
 1819 0448 0699     		ldr	r1, [sp, #24]
 1820 044a 0898     		ldr	r0, [sp, #32]
 1821 044c FFF7FEFF 		bl	VL53L1_preset_mode_histogram_xtalk_planar
 1822 0450 0546     		mov	r5, r0
 1823 0452 38E6     		b	.L172
 1824              	.L159:
 1825 0454 CDF810A0 		str	r10, [sp, #16]
 1826 0458 CDF80C90 		str	r9, [sp, #12]
ARM GAS  C:\Temp\ccrtA2Jt.s 			page 32


 1827 045c 0297     		str	r7, [sp, #8]
 1828 045e 0196     		str	r6, [sp, #4]
 1829 0460 CDF800B0 		str	fp, [sp]
 1830 0464 4346     		mov	r3, r8
 1831 0466 079A     		ldr	r2, [sp, #28]
 1832 0468 0699     		ldr	r1, [sp, #24]
 1833 046a 0898     		ldr	r0, [sp, #32]
 1834 046c FFF7FEFF 		bl	VL53L1_preset_mode_histogram_xtalk_mm1
 1835 0470 0546     		mov	r5, r0
 1836 0472 28E6     		b	.L172
 1837              	.L158:
 1838 0474 CDF810A0 		str	r10, [sp, #16]
 1839 0478 CDF80C90 		str	r9, [sp, #12]
 1840 047c 0297     		str	r7, [sp, #8]
 1841 047e 0196     		str	r6, [sp, #4]
 1842 0480 CDF800B0 		str	fp, [sp]
 1843 0484 4346     		mov	r3, r8
 1844 0486 079A     		ldr	r2, [sp, #28]
 1845 0488 0699     		ldr	r1, [sp, #24]
 1846 048a 0898     		ldr	r0, [sp, #32]
 1847 048c FFF7FEFF 		bl	VL53L1_preset_mode_histogram_xtalk_mm2
 1848 0490 0546     		mov	r5, r0
 1849 0492 18E6     		b	.L172
 1850              	.L157:
 1851 0494 CDF80CA0 		str	r10, [sp, #12]
 1852 0498 CDF80890 		str	r9, [sp, #8]
 1853 049c 0197     		str	r7, [sp, #4]
 1854 049e 0096     		str	r6, [sp]
 1855 04a0 5B46     		mov	r3, fp
 1856 04a2 4246     		mov	r2, r8
 1857 04a4 0799     		ldr	r1, [sp, #28]
 1858 04a6 0698     		ldr	r0, [sp, #24]
 1859 04a8 FFF7FEFF 		bl	VL53L1_preset_mode_olt
 1860 04ac 0546     		mov	r5, r0
 1861 04ae 0AE6     		b	.L172
 1862              	.L156:
 1863 04b0 CDF80CA0 		str	r10, [sp, #12]
 1864 04b4 CDF80890 		str	r9, [sp, #8]
 1865 04b8 0197     		str	r7, [sp, #4]
 1866 04ba 0096     		str	r6, [sp]
 1867 04bc 5B46     		mov	r3, fp
 1868 04be 4246     		mov	r2, r8
 1869 04c0 0799     		ldr	r1, [sp, #28]
 1870 04c2 0698     		ldr	r0, [sp, #24]
 1871 04c4 FFF7FEFF 		bl	VL53L1_preset_mode_singleshot_ranging
 1872 04c8 0546     		mov	r5, r0
 1873 04ca FCE5     		b	.L172
 1874              	.L138:
 1875 04cc 0B9B     		ldr	r3, [sp, #44]
 1876 04ce 0493     		str	r3, [sp, #16]
 1877 04d0 CDF80CA0 		str	r10, [sp, #12]
 1878 04d4 CDF80890 		str	r9, [sp, #8]
 1879 04d8 0197     		str	r7, [sp, #4]
 1880 04da 0096     		str	r6, [sp]
 1881 04dc 5B46     		mov	r3, fp
 1882 04de 4246     		mov	r2, r8
 1883 04e0 0799     		ldr	r1, [sp, #28]
ARM GAS  C:\Temp\ccrtA2Jt.s 			page 33


 1884 04e2 0698     		ldr	r0, [sp, #24]
 1885 04e4 FFF7FEFF 		bl	VL53L1_preset_mode_low_power_auto_short_ranging
 1886 04e8 0546     		mov	r5, r0
 1887 04ea ECE5     		b	.L172
 1888              	.L137:
 1889 04ec 0B9B     		ldr	r3, [sp, #44]
 1890 04ee 0493     		str	r3, [sp, #16]
 1891 04f0 CDF80CA0 		str	r10, [sp, #12]
 1892 04f4 CDF80890 		str	r9, [sp, #8]
 1893 04f8 0197     		str	r7, [sp, #4]
 1894 04fa 0096     		str	r6, [sp]
 1895 04fc 5B46     		mov	r3, fp
 1896 04fe 4246     		mov	r2, r8
 1897 0500 0799     		ldr	r1, [sp, #28]
 1898 0502 0698     		ldr	r0, [sp, #24]
 1899 0504 FFF7FEFF 		bl	VL53L1_preset_mode_low_power_auto_ranging
 1900 0508 0546     		mov	r5, r0
 1901 050a DCE5     		b	.L172
 1902              	.L136:
 1903 050c 0B9B     		ldr	r3, [sp, #44]
 1904 050e 0493     		str	r3, [sp, #16]
 1905 0510 CDF80CA0 		str	r10, [sp, #12]
 1906 0514 CDF80890 		str	r9, [sp, #8]
 1907 0518 0197     		str	r7, [sp, #4]
 1908 051a 0096     		str	r6, [sp]
 1909 051c 5B46     		mov	r3, fp
 1910 051e 4246     		mov	r2, r8
 1911 0520 0799     		ldr	r1, [sp, #28]
 1912 0522 0698     		ldr	r0, [sp, #24]
 1913 0524 FFF7FEFF 		bl	VL53L1_preset_mode_low_power_auto_long_ranging
 1914 0528 0546     		mov	r5, r0
 1915 052a CCE5     		b	.L172
 1916              	.L134:
 1917 052c CDF810A0 		str	r10, [sp, #16]
 1918 0530 CDF80C90 		str	r9, [sp, #12]
 1919 0534 0297     		str	r7, [sp, #8]
 1920 0536 0196     		str	r6, [sp, #4]
 1921 0538 CDF800B0 		str	fp, [sp]
 1922 053c 4346     		mov	r3, r8
 1923 053e 079A     		ldr	r2, [sp, #28]
 1924 0540 0699     		ldr	r1, [sp, #24]
 1925 0542 0898     		ldr	r0, [sp, #32]
 1926 0544 FFF7FEFF 		bl	VL53L1_preset_mode_special_histogram_short_range
 1927 0548 0546     		mov	r5, r0
 1928 054a BCE5     		b	.L172
 1929              	.L174:
 1930 054c 6FF00305 		mvn	r5, #3
 1931 0550 BEE5     		b	.L133
 1932              	.L176:
 1933 0552 179B     		ldr	r3, [sp, #92]
 1934 0554 169A     		ldr	r2, [sp, #88]
 1935 0556 0A99     		ldr	r1, [sp, #40]
 1936 0558 2046     		mov	r0, r4
 1937 055a FFF7FEFF 		bl	VL53L1_set_timeouts_us
 1938 055e 0546     		mov	r5, r0
 1939 0560 0028     		cmp	r0, #0
 1940 0562 7FF4B8AD 		bne	.L173
ARM GAS  C:\Temp\ccrtA2Jt.s 			page 34


 1941 0566 1899     		ldr	r1, [sp, #96]
 1942 0568 2046     		mov	r0, r4
 1943 056a FFF7FEFF 		bl	VL53L1_set_inter_measurement_period_ms
 1944 056e 0546     		mov	r5, r0
 1945 0570 B1E5     		b	.L173
 1947              		.section	.text.VL53L1_data_init,"ax",%progbits
 1948              		.align	1
 1949              		.global	VL53L1_data_init
 1950              		.syntax unified
 1951              		.thumb
 1952              		.thumb_func
 1954              	VL53L1_data_init:
 1955              		@ args = 0, pretend = 0, frame = 0
 1956              		@ frame_needed = 0, uses_anonymous_args = 0
 1957 0000 70B5     		push	{r4, r5, r6, lr}
 1958 0002 84B0     		sub	sp, sp, #16
 1959 0004 0446     		mov	r4, r0
 1960 0006 0D46     		mov	r5, r1
 1961 0008 6221     		movs	r1, #98
 1962 000a FFF7FEFF 		bl	VL53L1_init_ll_driver_state
 1963 000e 04F5C042 		add	r2, r4, #24576
 1964 0012 0423     		movs	r3, #4
 1965 0014 82F80136 		strb	r3, [r2, #1537]
 1966 0018 0023     		movs	r3, #0
 1967 001a 82F80236 		strb	r3, [r2, #1538]
 1968 001e 1021     		movs	r1, #16
 1969 0020 82F83418 		strb	r1, [r2, #2100]
 1970 0024 82F83538 		strb	r3, [r2, #2101]
 1971 0028 14E0     		b	.L178
 1972              	.L179:
 1973 002a 04F5C042 		add	r2, r4, #24576
 1974 002e 03EB0311 		add	r1, r3, r3, lsl #4
 1975 0032 02EB8101 		add	r1, r2, r1, lsl #2
 1976 0036 0020     		movs	r0, #0
 1977 0038 C1F87008 		str	r0, [r1, #2160]
 1978 003c C1F87408 		str	r0, [r1, #2164]
 1979 0040 A1F87808 		strh	r0, [r1, #2168]	@ movhi
 1980 0044 03EB0311 		add	r1, r3, r3, lsl #4
 1981 0048 02EB8102 		add	r2, r2, r1, lsl #2
 1982 004c 82F87A08 		strb	r0, [r2, #2170]
 1983 0050 0133     		adds	r3, r3, #1
 1984 0052 DBB2     		uxtb	r3, r3
 1985              	.L178:
 1986 0054 0F2B     		cmp	r3, #15
 1987 0056 E8D9     		bls	.L179
 1988 0058 04F5C042 		add	r2, r4, #24576
 1989 005c 1021     		movs	r1, #16
 1990 005e 82F8781C 		strb	r1, [r2, #3192]
 1991 0062 0023     		movs	r3, #0
 1992 0064 82F8793C 		strb	r3, [r2, #3193]
 1993 0068 82F88B1D 		strb	r1, [r2, #3467]
 1994 006c 82F88C3D 		strb	r3, [r2, #3468]
 1995 0070 16E0     		b	.L180
 1996              	.L181:
 1997 0072 04F5C042 		add	r2, r4, #24576
 1998 0076 C3EBC301 		rsb	r1, r3, r3, lsl #3
 1999 007a 02EB8101 		add	r1, r2, r1, lsl #2
ARM GAS  C:\Temp\ccrtA2Jt.s 			page 35


 2000 007e 0020     		movs	r0, #0
 2001 0080 C1F8900D 		str	r0, [r1, #3472]
 2002 0084 C1F8940D 		str	r0, [r1, #3476]
 2003 0088 C1F8980D 		str	r0, [r1, #3480]
 2004 008c C1F8A40D 		str	r0, [r1, #3492]
 2005 0090 C3EBC301 		rsb	r1, r3, r3, lsl #3
 2006 0094 02EB8102 		add	r2, r2, r1, lsl #2
 2007 0098 C2F8A80D 		str	r0, [r2, #3496]
 2008 009c 0133     		adds	r3, r3, #1
 2009 009e DBB2     		uxtb	r3, r3
 2010              	.L180:
 2011 00a0 0F2B     		cmp	r3, #15
 2012 00a2 E6D9     		bls	.L181
 2013 00a4 0026     		movs	r6, #0
 2014 00a6 2676     		strb	r6, [r4, #24]
 2015 00a8 0123     		movs	r3, #1
 2016 00aa 6376     		strb	r3, [r4, #25]
 2017 00ac A676     		strb	r6, [r4, #26]
 2018 00ae E676     		strb	r6, [r4, #27]
 2019 00b0 2377     		strb	r3, [r4, #28]
 2020 00b2 6377     		strb	r3, [r4, #29]
 2021 00b4 A377     		strb	r3, [r4, #30]
 2022 00b6 4FF47A73 		mov	r3, #1000
 2023 00ba 2362     		str	r3, [r4, #32]
 2024 00bc 4FF4FA63 		mov	r3, #2000
 2025 00c0 6362     		str	r3, [r4, #36]
 2026 00c2 43F2C823 		movw	r3, #13000
 2027 00c6 A362     		str	r3, [r4, #40]
 2028 00c8 6423     		movs	r3, #100
 2029 00ca E362     		str	r3, [r4, #44]
 2030 00cc 4FF42063 		mov	r3, #2560
 2031 00d0 2386     		strh	r3, [r4, #48]	@ movhi
 2032 00d2 84F83960 		strb	r6, [r4, #57]
 2033 00d6 04F58053 		add	r3, r4, #4096
 2034 00da 0322     		movs	r2, #3
 2035 00dc 83F84223 		strb	r2, [r3, #834]
 2036 00e0 83F84363 		strb	r6, [r3, #835]
 2037 00e4 40F2DB73 		movw	r3, #2011
 2038 00e8 A4F8D030 		strh	r3, [r4, #208]	@ movhi
 2039 00ec 40F2C373 		movw	r3, #1987
 2040 00f0 A4F8D230 		strh	r3, [r4, #210]	@ movhi
 2041 00f4 2046     		mov	r0, r4
 2042 00f6 FFF7FEFF 		bl	VL53L1_init_version
 2043 00fa 4FF49042 		mov	r2, #18432
 2044 00fe 3146     		mov	r1, r6
 2045 0100 04F5EC50 		add	r0, r4, #7552
 2046 0104 1C30     		adds	r0, r0, #28
 2047 0106 FFF7FEFF 		bl	memset
 2048 010a 25B1     		cbz	r5, .L182
 2049 010c 2046     		mov	r0, r4
 2050 010e FFF7FEFF 		bl	VL53L1_read_p2p_data
 2051 0112 0546     		mov	r5, r0
 2052 0114 28B9     		cbnz	r0, .L183
 2053              	.L182:
 2054 0116 04F51670 		add	r0, r4, #600
 2055 011a FFF7FEFF 		bl	VL53L1_init_refspadchar_config_struct
 2056 011e 0546     		mov	r5, r0
ARM GAS  C:\Temp\ccrtA2Jt.s 			page 36


 2057 0120 E8B1     		cbz	r0, .L185
 2058              	.L183:
 2059 0122 04F22442 		addw	r2, r4, #1060
 2060 0126 1821     		movs	r1, #24
 2061 0128 0020     		movs	r0, #0
 2062 012a FFF7FEFF 		bl	VL53L1_init_histogram_bin_data_struct
 2063 012e 04F59A62 		add	r2, r4, #1232
 2064 0132 1821     		movs	r1, #24
 2065 0134 0020     		movs	r0, #0
 2066 0136 FFF7FEFF 		bl	VL53L1_init_histogram_bin_data_struct
 2067 013a 04F27C52 		addw	r2, r4, #1404
 2068 013e 0C21     		movs	r1, #12
 2069 0140 0020     		movs	r0, #0
 2070 0142 FFF7FEFF 		bl	VL53L1_init_xtalk_bin_data_struct
 2071 0146 2046     		mov	r0, r4
 2072 0148 FFF7FEFF 		bl	VL53L1_xtalk_cal_data_init
 2073 014c 2046     		mov	r0, r4
 2074 014e FFF7FEFF 		bl	VL53L1_dynamic_xtalk_correction_data_init
 2075 0152 2046     		mov	r0, r4
 2076 0154 FFF7FEFF 		bl	VL53L1_low_power_auto_data_init
 2077 0158 2846     		mov	r0, r5
 2078 015a 04B0     		add	sp, sp, #16
 2079              		@ sp needed
 2080 015c 70BD     		pop	{r4, r5, r6, pc}
 2081              	.L185:
 2082 015e 04F51A70 		add	r0, r4, #616
 2083 0162 FFF7FEFF 		bl	VL53L1_init_ssc_config_struct
 2084 0166 0546     		mov	r5, r0
 2085 0168 0028     		cmp	r0, #0
 2086 016a DAD1     		bne	.L183
 2087 016c 04F53B71 		add	r1, r4, #748
 2088 0170 04F16000 		add	r0, r4, #96
 2089 0174 FFF7FEFF 		bl	VL53L1_init_xtalk_config_struct
 2090 0178 0546     		mov	r5, r0
 2091 017a 0028     		cmp	r0, #0
 2092 017c D1D1     		bne	.L183
 2093 017e 04F53470 		add	r0, r4, #720
 2094 0182 FFF7FEFF 		bl	VL53L1_init_xtalk_extract_config_struct
 2095 0186 0546     		mov	r5, r0
 2096 0188 0028     		cmp	r0, #0
 2097 018a CAD1     		bne	.L183
 2098 018c 04F54470 		add	r0, r4, #784
 2099 0190 FFF7FEFF 		bl	VL53L1_init_offset_cal_config_struct
 2100 0194 0546     		mov	r5, r0
 2101 0196 0028     		cmp	r0, #0
 2102 0198 C3D1     		bne	.L183
 2103 019a 04F54970 		add	r0, r4, #804
 2104 019e FFF7FEFF 		bl	VL53L1_init_zone_cal_config_struct
 2105 01a2 0546     		mov	r5, r0
 2106 01a4 0028     		cmp	r0, #0
 2107 01a6 BCD1     		bne	.L183
 2108 01a8 04F51D71 		add	r1, r4, #628
 2109 01ac 94F8FC02 		ldrb	r0, [r4, #764]	@ zero_extendqisi2
 2110 01b0 FFF7FEFF 		bl	VL53L1_init_hist_post_process_config_struct
 2111 01b4 0546     		mov	r5, r0
 2112 01b6 0028     		cmp	r0, #0
 2113 01b8 B3D1     		bne	.L183
ARM GAS  C:\Temp\ccrtA2Jt.s 			page 37


 2114 01ba 04F52D70 		add	r0, r4, #692
 2115 01be FFF7FEFF 		bl	VL53L1_init_hist_gen3_dmax_config_struct
 2116 01c2 0546     		mov	r5, r0
 2117 01c4 0028     		cmp	r0, #0
 2118 01c6 ACD1     		bne	.L183
 2119 01c8 04F5A470 		add	r0, r4, #328
 2120 01cc FFF7FEFF 		bl	VL53L1_init_tuning_parm_storage_struct
 2121 01d0 0546     		mov	r5, r0
 2122 01d2 0028     		cmp	r0, #0
 2123 01d4 A5D1     		bne	.L183
 2124 01d6 E36A     		ldr	r3, [r4, #44]
 2125 01d8 0293     		str	r3, [sp, #8]
 2126 01da A36A     		ldr	r3, [r4, #40]
 2127 01dc 0193     		str	r3, [sp, #4]
 2128 01de 636A     		ldr	r3, [r4, #36]
 2129 01e0 0093     		str	r3, [sp]
 2130 01e2 236A     		ldr	r3, [r4, #32]
 2131 01e4 228E     		ldrh	r2, [r4, #48]
 2132 01e6 617E     		ldrb	r1, [r4, #25]	@ zero_extendqisi2
 2133 01e8 2046     		mov	r0, r4
 2134 01ea FFF7FEFF 		bl	VL53L1_set_preset_mode
 2135 01ee 0546     		mov	r5, r0
 2136 01f0 97E7     		b	.L183
 2138              		.section	.text.VL53L1_set_zone_preset,"ax",%progbits
 2139              		.align	1
 2140              		.global	VL53L1_set_zone_preset
 2141              		.syntax unified
 2142              		.thumb
 2143              		.thumb_func
 2145              	VL53L1_set_zone_preset:
 2146              		@ args = 0, pretend = 0, frame = 0
 2147              		@ frame_needed = 0, uses_anonymous_args = 0
 2148 0000 10B5     		push	{r4, lr}
 2149 0002 86B0     		sub	sp, sp, #24
 2150 0004 0446     		mov	r4, r0
 2151 0006 00F1DA02 		add	r2, r0, #218
 2152 000a 8176     		strb	r1, [r0, #26]
 2153 000c 4B1E     		subs	r3, r1, #1
 2154 000e 0A2B     		cmp	r3, #10
 2155 0010 00F29B80 		bhi	.L203
 2156 0014 DFE803F0 		tbb	[pc, r3]
 2157              	.L189:
 2158 0018 06       		.byte	(.L199-.L189)/2
 2159 0019 14       		.byte	(.L198-.L189)/2
 2160 001a 21       		.byte	(.L197-.L189)/2
 2161 001b 30       		.byte	(.L196-.L189)/2
 2162 001c 3F       		.byte	(.L195-.L189)/2
 2163 001d 4C       		.byte	(.L194-.L189)/2
 2164 001e 59       		.byte	(.L193-.L189)/2
 2165 001f 66       		.byte	(.L192-.L189)/2
 2166 0020 72       		.byte	(.L191-.L189)/2
 2167 0021 7F       		.byte	(.L190-.L189)/2
 2168 0022 8C       		.byte	(.L188-.L189)/2
 2169 0023 00       		.p2align 1
 2170              	.L199:
 2171 0024 00F27E30 		addw	r0, r0, #894
 2172 0028 1146     		mov	r1, r2
ARM GAS  C:\Temp\ccrtA2Jt.s 			page 38


 2173 002a FFF7FEFF 		bl	VL53L1_zone_preset_xtalk_planar
 2174              	.L187:
 2175 002e 94F8DB30 		ldrb	r3, [r4, #219]	@ zero_extendqisi2
 2176 0032 002B     		cmp	r3, #0
 2177 0034 40F08B80 		bne	.L200
 2178 0038 84F87F33 		strb	r3, [r4, #895]
 2179              	.L201:
 2180 003c 06B0     		add	sp, sp, #24
 2181              		@ sp needed
 2182 003e 10BD     		pop	{r4, pc}
 2183              	.L198:
 2184 0040 0492     		str	r2, [sp, #16]
 2185 0042 0F23     		movs	r3, #15
 2186 0044 0393     		str	r3, [sp, #12]
 2187 0046 0293     		str	r3, [sp, #8]
 2188 0048 0121     		movs	r1, #1
 2189 004a 0191     		str	r1, [sp, #4]
 2190 004c 0091     		str	r1, [sp]
 2191 004e 0823     		movs	r3, #8
 2192 0050 0A46     		mov	r2, r1
 2193 0052 1846     		mov	r0, r3
 2194 0054 FFF7FEFF 		bl	VL53L1_init_zone_config_structure
 2195 0058 E9E7     		b	.L187
 2196              	.L197:
 2197 005a 0492     		str	r2, [sp, #16]
 2198 005c 0723     		movs	r3, #7
 2199 005e 0393     		str	r3, [sp, #12]
 2200 0060 0F23     		movs	r3, #15
 2201 0062 0293     		str	r3, [sp, #8]
 2202 0064 0223     		movs	r3, #2
 2203 0066 0193     		str	r3, [sp, #4]
 2204 0068 0820     		movs	r0, #8
 2205 006a 0090     		str	r0, [sp]
 2206 006c 0423     		movs	r3, #4
 2207 006e 0122     		movs	r2, #1
 2208 0070 1146     		mov	r1, r2
 2209 0072 FFF7FEFF 		bl	VL53L1_init_zone_config_structure
 2210 0076 DAE7     		b	.L187
 2211              	.L196:
 2212 0078 0492     		str	r2, [sp, #16]
 2213 007a 0F23     		movs	r3, #15
 2214 007c 0393     		str	r3, [sp, #12]
 2215 007e 0723     		movs	r3, #7
 2216 0080 0293     		str	r3, [sp, #8]
 2217 0082 0123     		movs	r3, #1
 2218 0084 0193     		str	r3, [sp, #4]
 2219 0086 0093     		str	r3, [sp]
 2220 0088 0823     		movs	r3, #8
 2221 008a 0222     		movs	r2, #2
 2222 008c 1946     		mov	r1, r3
 2223 008e 0420     		movs	r0, #4
 2224 0090 FFF7FEFF 		bl	VL53L1_init_zone_config_structure
 2225 0094 CBE7     		b	.L187
 2226              	.L195:
 2227 0096 0492     		str	r2, [sp, #16]
 2228 0098 0723     		movs	r3, #7
 2229 009a 0393     		str	r3, [sp, #12]
ARM GAS  C:\Temp\ccrtA2Jt.s 			page 39


 2230 009c 0293     		str	r3, [sp, #8]
 2231 009e 0222     		movs	r2, #2
 2232 00a0 0192     		str	r2, [sp, #4]
 2233 00a2 0821     		movs	r1, #8
 2234 00a4 0091     		str	r1, [sp]
 2235 00a6 0423     		movs	r3, #4
 2236 00a8 1846     		mov	r0, r3
 2237 00aa FFF7FEFF 		bl	VL53L1_init_zone_config_structure
 2238 00ae BEE7     		b	.L187
 2239              	.L194:
 2240 00b0 0492     		str	r2, [sp, #16]
 2241 00b2 0423     		movs	r3, #4
 2242 00b4 0393     		str	r3, [sp, #12]
 2243 00b6 0293     		str	r3, [sp, #8]
 2244 00b8 0322     		movs	r2, #3
 2245 00ba 0192     		str	r2, [sp, #4]
 2246 00bc 0521     		movs	r1, #5
 2247 00be 0091     		str	r1, [sp]
 2248 00c0 0223     		movs	r3, #2
 2249 00c2 1846     		mov	r0, r3
 2250 00c4 FFF7FEFF 		bl	VL53L1_init_zone_config_structure
 2251 00c8 B1E7     		b	.L187
 2252              	.L193:
 2253 00ca 0492     		str	r2, [sp, #16]
 2254 00cc 0323     		movs	r3, #3
 2255 00ce 0393     		str	r3, [sp, #12]
 2256 00d0 0293     		str	r3, [sp, #8]
 2257 00d2 0421     		movs	r1, #4
 2258 00d4 0191     		str	r1, [sp, #4]
 2259 00d6 0091     		str	r1, [sp]
 2260 00d8 0223     		movs	r3, #2
 2261 00da 0A46     		mov	r2, r1
 2262 00dc 1846     		mov	r0, r3
 2263 00de FFF7FEFF 		bl	VL53L1_init_zone_config_structure
 2264 00e2 A4E7     		b	.L187
 2265              	.L192:
 2266 00e4 0492     		str	r2, [sp, #16]
 2267 00e6 0321     		movs	r1, #3
 2268 00e8 0391     		str	r1, [sp, #12]
 2269 00ea 0291     		str	r1, [sp, #8]
 2270 00ec 0522     		movs	r2, #5
 2271 00ee 0192     		str	r2, [sp, #4]
 2272 00f0 0091     		str	r1, [sp]
 2273 00f2 0223     		movs	r3, #2
 2274 00f4 1846     		mov	r0, r3
 2275 00f6 FFF7FEFF 		bl	VL53L1_init_zone_config_structure
 2276 00fa 98E7     		b	.L187
 2277              	.L191:
 2278 00fc 0492     		str	r2, [sp, #16]
 2279 00fe 0423     		movs	r3, #4
 2280 0100 0393     		str	r3, [sp, #12]
 2281 0102 0293     		str	r3, [sp, #8]
 2282 0104 0B22     		movs	r2, #11
 2283 0106 0192     		str	r2, [sp, #4]
 2284 0108 0121     		movs	r1, #1
 2285 010a 0091     		str	r1, [sp]
 2286 010c 0323     		movs	r3, #3
ARM GAS  C:\Temp\ccrtA2Jt.s 			page 40


 2287 010e 1846     		mov	r0, r3
 2288 0110 FFF7FEFF 		bl	VL53L1_init_zone_config_structure
 2289 0114 8BE7     		b	.L187
 2290              	.L190:
 2291 0116 0492     		str	r2, [sp, #16]
 2292 0118 0323     		movs	r3, #3
 2293 011a 0393     		str	r3, [sp, #12]
 2294 011c 0293     		str	r3, [sp, #8]
 2295 011e 0D22     		movs	r2, #13
 2296 0120 0192     		str	r2, [sp, #4]
 2297 0122 0121     		movs	r1, #1
 2298 0124 0091     		str	r1, [sp]
 2299 0126 0223     		movs	r3, #2
 2300 0128 1846     		mov	r0, r3
 2301 012a FFF7FEFF 		bl	VL53L1_init_zone_config_structure
 2302 012e 7EE7     		b	.L187
 2303              	.L188:
 2304 0130 0492     		str	r2, [sp, #16]
 2305 0132 0323     		movs	r3, #3
 2306 0134 0393     		str	r3, [sp, #12]
 2307 0136 0293     		str	r3, [sp, #8]
 2308 0138 0121     		movs	r1, #1
 2309 013a 0191     		str	r1, [sp, #4]
 2310 013c 0091     		str	r1, [sp]
 2311 013e 0823     		movs	r3, #8
 2312 0140 0A46     		mov	r2, r1
 2313 0142 1846     		mov	r0, r3
 2314 0144 FFF7FEFF 		bl	VL53L1_init_zone_config_structure
 2315 0148 71E7     		b	.L187
 2316              	.L203:
 2317 014a 0020     		movs	r0, #0
 2318 014c 6FE7     		b	.L187
 2319              	.L200:
 2320 014e 0F2B     		cmp	r3, #15
 2321 0150 03D8     		bhi	.L202
 2322 0152 0133     		adds	r3, r3, #1
 2323 0154 84F87F33 		strb	r3, [r4, #895]
 2324 0158 70E7     		b	.L201
 2325              	.L202:
 2326 015a 1123     		movs	r3, #17
 2327 015c 84F87F33 		strb	r3, [r4, #895]
 2328 0160 6CE7     		b	.L201
 2330              		.section	.text.VL53L1_enable_xtalk_compensation,"ax",%progbits
 2331              		.align	1
 2332              		.global	VL53L1_enable_xtalk_compensation
 2333              		.syntax unified
 2334              		.thumb
 2335              		.thumb_func
 2337              	VL53L1_enable_xtalk_compensation:
 2338              		@ args = 0, pretend = 0, frame = 0
 2339              		@ frame_needed = 0, uses_anonymous_args = 0
 2340 0000 38B5     		push	{r3, r4, r5, lr}
 2341 0002 0446     		mov	r4, r0
 2342 0004 00F16005 		add	r5, r0, #96
 2343 0008 B0F90013 		ldrsh	r1, [r0, #768]
 2344 000c D0F8EC02 		ldr	r0, [r0, #748]
 2345 0010 FFF7FEFF 		bl	VL53L1_calc_crosstalk_plane_offset_with_margin
ARM GAS  C:\Temp\ccrtA2Jt.s 			page 41


 2346 0014 B0F5803F 		cmp	r0, #65536
 2347 0018 01D3     		bcc	.L206
 2348 001a 4FF6FF70 		movw	r0, #65535
 2349              	.L206:
 2350 001e A4F86A00 		strh	r0, [r4, #106]	@ movhi
 2351 0022 B4F9F032 		ldrsh	r3, [r4, #752]
 2352 0026 A4F86C30 		strh	r3, [r4, #108]	@ movhi
 2353 002a B4F9F232 		ldrsh	r3, [r4, #754]
 2354 002e A4F86E30 		strh	r3, [r4, #110]	@ movhi
 2355 0032 B4F9FE12 		ldrsh	r1, [r4, #766]
 2356 0036 D4F8EC02 		ldr	r0, [r4, #748]
 2357 003a FFF7FEFF 		bl	VL53L1_calc_crosstalk_plane_offset_with_margin
 2358 003e C4F8A002 		str	r0, [r4, #672]
 2359 0042 B4F9F012 		ldrsh	r1, [r4, #752]
 2360 0046 A4F8A412 		strh	r1, [r4, #676]	@ movhi
 2361 004a B4F9F222 		ldrsh	r2, [r4, #754]
 2362 004e A4F8A622 		strh	r2, [r4, #678]	@ movhi
 2363 0052 0123     		movs	r3, #1
 2364 0054 84F8FC32 		strb	r3, [r4, #764]
 2365 0058 84F89C32 		strb	r3, [r4, #668]
 2366 005c 94F80233 		ldrb	r3, [r4, #770]	@ zero_extendqisi2
 2367 0060 D4F8EC02 		ldr	r0, [r4, #748]
 2368 0064 FFF7FEFF 		bl	VL53L1_calc_range_ignore_threshold
 2369 0068 A4F80403 		strh	r0, [r4, #772]	@ movhi
 2370 006c 2946     		mov	r1, r5
 2371 006e 2046     		mov	r0, r4
 2372 0070 FFF7FEFF 		bl	VL53L1_set_customer_nvm_managed
 2373 0074 38BD     		pop	{r3, r4, r5, pc}
 2375              		.section	.text.VL53L1_get_xtalk_compensation_enable,"ax",%progbits
 2376              		.align	1
 2377              		.global	VL53L1_get_xtalk_compensation_enable
 2378              		.syntax unified
 2379              		.thumb
 2380              		.thumb_func
 2382              	VL53L1_get_xtalk_compensation_enable:
 2383              		@ args = 0, pretend = 0, frame = 0
 2384              		@ frame_needed = 0, uses_anonymous_args = 0
 2385              		@ link register save eliminated.
 2386 0000 90F8FC32 		ldrb	r3, [r0, #764]	@ zero_extendqisi2
 2387 0004 0B70     		strb	r3, [r1]
 2388 0006 7047     		bx	lr
 2390              		.section	.text.VL53L1_get_lite_xtalk_margin_kcps,"ax",%progbits
 2391              		.align	1
 2392              		.global	VL53L1_get_lite_xtalk_margin_kcps
 2393              		.syntax unified
 2394              		.thumb
 2395              		.thumb_func
 2397              	VL53L1_get_lite_xtalk_margin_kcps:
 2398              		@ args = 0, pretend = 0, frame = 0
 2399              		@ frame_needed = 0, uses_anonymous_args = 0
 2400              		@ link register save eliminated.
 2401 0000 B0F90033 		ldrsh	r3, [r0, #768]
 2402 0004 0B80     		strh	r3, [r1]	@ movhi
 2403 0006 0020     		movs	r0, #0
 2404 0008 7047     		bx	lr
 2406              		.section	.text.VL53L1_set_lite_xtalk_margin_kcps,"ax",%progbits
 2407              		.align	1
ARM GAS  C:\Temp\ccrtA2Jt.s 			page 42


 2408              		.global	VL53L1_set_lite_xtalk_margin_kcps
 2409              		.syntax unified
 2410              		.thumb
 2411              		.thumb_func
 2413              	VL53L1_set_lite_xtalk_margin_kcps:
 2414              		@ args = 0, pretend = 0, frame = 0
 2415              		@ frame_needed = 0, uses_anonymous_args = 0
 2416              		@ link register save eliminated.
 2417 0000 A0F80013 		strh	r1, [r0, #768]	@ movhi
 2418 0004 0020     		movs	r0, #0
 2419 0006 7047     		bx	lr
 2421              		.section	.text.VL53L1_get_histogram_xtalk_margin_kcps,"ax",%progbits
 2422              		.align	1
 2423              		.global	VL53L1_get_histogram_xtalk_margin_kcps
 2424              		.syntax unified
 2425              		.thumb
 2426              		.thumb_func
 2428              	VL53L1_get_histogram_xtalk_margin_kcps:
 2429              		@ args = 0, pretend = 0, frame = 0
 2430              		@ frame_needed = 0, uses_anonymous_args = 0
 2431              		@ link register save eliminated.
 2432 0000 B0F9FE32 		ldrsh	r3, [r0, #766]
 2433 0004 0B80     		strh	r3, [r1]	@ movhi
 2434 0006 0020     		movs	r0, #0
 2435 0008 7047     		bx	lr
 2437              		.section	.text.VL53L1_set_histogram_xtalk_margin_kcps,"ax",%progbits
 2438              		.align	1
 2439              		.global	VL53L1_set_histogram_xtalk_margin_kcps
 2440              		.syntax unified
 2441              		.thumb
 2442              		.thumb_func
 2444              	VL53L1_set_histogram_xtalk_margin_kcps:
 2445              		@ args = 0, pretend = 0, frame = 0
 2446              		@ frame_needed = 0, uses_anonymous_args = 0
 2447              		@ link register save eliminated.
 2448 0000 A0F8FE12 		strh	r1, [r0, #766]	@ movhi
 2449 0004 0020     		movs	r0, #0
 2450 0006 7047     		bx	lr
 2452              		.section	.text.VL53L1_restore_xtalk_nvm_default,"ax",%progbits
 2453              		.align	1
 2454              		.global	VL53L1_restore_xtalk_nvm_default
 2455              		.syntax unified
 2456              		.thumb
 2457              		.thumb_func
 2459              	VL53L1_restore_xtalk_nvm_default:
 2460              		@ args = 0, pretend = 0, frame = 0
 2461              		@ frame_needed = 0, uses_anonymous_args = 0
 2462              		@ link register save eliminated.
 2463 0000 D0F8F432 		ldr	r3, [r0, #756]
 2464 0004 C0F8EC32 		str	r3, [r0, #748]
 2465 0008 B0F9F832 		ldrsh	r3, [r0, #760]
 2466 000c A0F8F032 		strh	r3, [r0, #752]	@ movhi
 2467 0010 B0F9FA32 		ldrsh	r3, [r0, #762]
 2468 0014 A0F8F232 		strh	r3, [r0, #754]	@ movhi
 2469 0018 0020     		movs	r0, #0
 2470 001a 7047     		bx	lr
 2472              		.section	.text.VL53L1_disable_xtalk_compensation,"ax",%progbits
ARM GAS  C:\Temp\ccrtA2Jt.s 			page 43


 2473              		.align	1
 2474              		.global	VL53L1_disable_xtalk_compensation
 2475              		.syntax unified
 2476              		.thumb
 2477              		.thumb_func
 2479              	VL53L1_disable_xtalk_compensation:
 2480              		@ args = 0, pretend = 0, frame = 0
 2481              		@ frame_needed = 0, uses_anonymous_args = 0
 2482 0000 08B5     		push	{r3, lr}
 2483 0002 0146     		mov	r1, r0
 2484 0004 0023     		movs	r3, #0
 2485 0006 A0F86A30 		strh	r3, [r0, #106]	@ movhi
 2486 000a A0F86C30 		strh	r3, [r0, #108]	@ movhi
 2487 000e A0F86E30 		strh	r3, [r0, #110]	@ movhi
 2488 0012 80F8FC32 		strb	r3, [r0, #764]
 2489 0016 80F89C32 		strb	r3, [r0, #668]
 2490 001a A0F80433 		strh	r3, [r0, #772]	@ movhi
 2491 001e 6031     		adds	r1, r1, #96
 2492 0020 FFF7FEFF 		bl	VL53L1_set_customer_nvm_managed
 2493 0024 08BD     		pop	{r3, pc}
 2495              		.section	.text.VL53L1_get_histogram_phase_consistency,"ax",%progbits
 2496              		.align	1
 2497              		.global	VL53L1_get_histogram_phase_consistency
 2498              		.syntax unified
 2499              		.thumb
 2500              		.thumb_func
 2502              	VL53L1_get_histogram_phase_consistency:
 2503              		@ args = 0, pretend = 0, frame = 0
 2504              		@ frame_needed = 0, uses_anonymous_args = 0
 2505              		@ link register save eliminated.
 2506 0000 90F89632 		ldrb	r3, [r0, #662]	@ zero_extendqisi2
 2507 0004 0B70     		strb	r3, [r1]
 2508 0006 0020     		movs	r0, #0
 2509 0008 7047     		bx	lr
 2511              		.section	.text.VL53L1_set_histogram_phase_consistency,"ax",%progbits
 2512              		.align	1
 2513              		.global	VL53L1_set_histogram_phase_consistency
 2514              		.syntax unified
 2515              		.thumb
 2516              		.thumb_func
 2518              	VL53L1_set_histogram_phase_consistency:
 2519              		@ args = 0, pretend = 0, frame = 0
 2520              		@ frame_needed = 0, uses_anonymous_args = 0
 2521              		@ link register save eliminated.
 2522 0000 80F89612 		strb	r1, [r0, #662]
 2523 0004 0020     		movs	r0, #0
 2524 0006 7047     		bx	lr
 2526              		.section	.text.VL53L1_get_histogram_event_consistency,"ax",%progbits
 2527              		.align	1
 2528              		.global	VL53L1_get_histogram_event_consistency
 2529              		.syntax unified
 2530              		.thumb
 2531              		.thumb_func
 2533              	VL53L1_get_histogram_event_consistency:
 2534              		@ args = 0, pretend = 0, frame = 0
 2535              		@ frame_needed = 0, uses_anonymous_args = 0
 2536              		@ link register save eliminated.
ARM GAS  C:\Temp\ccrtA2Jt.s 			page 44


 2537 0000 90F89732 		ldrb	r3, [r0, #663]	@ zero_extendqisi2
 2538 0004 0B70     		strb	r3, [r1]
 2539 0006 0020     		movs	r0, #0
 2540 0008 7047     		bx	lr
 2542              		.section	.text.VL53L1_set_histogram_event_consistency,"ax",%progbits
 2543              		.align	1
 2544              		.global	VL53L1_set_histogram_event_consistency
 2545              		.syntax unified
 2546              		.thumb
 2547              		.thumb_func
 2549              	VL53L1_set_histogram_event_consistency:
 2550              		@ args = 0, pretend = 0, frame = 0
 2551              		@ frame_needed = 0, uses_anonymous_args = 0
 2552              		@ link register save eliminated.
 2553 0000 80F89712 		strb	r1, [r0, #663]
 2554 0004 0020     		movs	r0, #0
 2555 0006 7047     		bx	lr
 2557              		.section	.text.VL53L1_get_histogram_ambient_threshold_sigma,"ax",%progbits
 2558              		.align	1
 2559              		.global	VL53L1_get_histogram_ambient_threshold_sigma
 2560              		.syntax unified
 2561              		.thumb
 2562              		.thumb_func
 2564              	VL53L1_get_histogram_ambient_threshold_sigma:
 2565              		@ args = 0, pretend = 0, frame = 0
 2566              		@ frame_needed = 0, uses_anonymous_args = 0
 2567              		@ link register save eliminated.
 2568 0000 90F87A32 		ldrb	r3, [r0, #634]	@ zero_extendqisi2
 2569 0004 0B70     		strb	r3, [r1]
 2570 0006 0020     		movs	r0, #0
 2571 0008 7047     		bx	lr
 2573              		.section	.text.VL53L1_set_histogram_ambient_threshold_sigma,"ax",%progbits
 2574              		.align	1
 2575              		.global	VL53L1_set_histogram_ambient_threshold_sigma
 2576              		.syntax unified
 2577              		.thumb
 2578              		.thumb_func
 2580              	VL53L1_set_histogram_ambient_threshold_sigma:
 2581              		@ args = 0, pretend = 0, frame = 0
 2582              		@ frame_needed = 0, uses_anonymous_args = 0
 2583              		@ link register save eliminated.
 2584 0000 80F87A12 		strb	r1, [r0, #634]
 2585 0004 0020     		movs	r0, #0
 2586 0006 7047     		bx	lr
 2588              		.section	.text.VL53L1_get_lite_sigma_threshold,"ax",%progbits
 2589              		.align	1
 2590              		.global	VL53L1_get_lite_sigma_threshold
 2591              		.syntax unified
 2592              		.thumb
 2593              		.thumb_func
 2595              	VL53L1_get_lite_sigma_threshold:
 2596              		@ args = 0, pretend = 0, frame = 0
 2597              		@ frame_needed = 0, uses_anonymous_args = 0
 2598              		@ link register save eliminated.
 2599 0000 B0F89E33 		ldrh	r3, [r0, #926]
 2600 0004 0B80     		strh	r3, [r1]	@ movhi
 2601 0006 0020     		movs	r0, #0
ARM GAS  C:\Temp\ccrtA2Jt.s 			page 45


 2602 0008 7047     		bx	lr
 2604              		.section	.text.VL53L1_set_lite_sigma_threshold,"ax",%progbits
 2605              		.align	1
 2606              		.global	VL53L1_set_lite_sigma_threshold
 2607              		.syntax unified
 2608              		.thumb
 2609              		.thumb_func
 2611              	VL53L1_set_lite_sigma_threshold:
 2612              		@ args = 0, pretend = 0, frame = 0
 2613              		@ frame_needed = 0, uses_anonymous_args = 0
 2614              		@ link register save eliminated.
 2615 0000 A0F89E13 		strh	r1, [r0, #926]	@ movhi
 2616 0004 0020     		movs	r0, #0
 2617 0006 7047     		bx	lr
 2619              		.section	.text.VL53L1_get_lite_min_count_rate,"ax",%progbits
 2620              		.align	1
 2621              		.global	VL53L1_get_lite_min_count_rate
 2622              		.syntax unified
 2623              		.thumb
 2624              		.thumb_func
 2626              	VL53L1_get_lite_min_count_rate:
 2627              		@ args = 0, pretend = 0, frame = 0
 2628              		@ frame_needed = 0, uses_anonymous_args = 0
 2629              		@ link register save eliminated.
 2630 0000 B0F8A033 		ldrh	r3, [r0, #928]
 2631 0004 0B80     		strh	r3, [r1]	@ movhi
 2632 0006 0020     		movs	r0, #0
 2633 0008 7047     		bx	lr
 2635              		.section	.text.VL53L1_set_lite_min_count_rate,"ax",%progbits
 2636              		.align	1
 2637              		.global	VL53L1_set_lite_min_count_rate
 2638              		.syntax unified
 2639              		.thumb
 2640              		.thumb_func
 2642              	VL53L1_set_lite_min_count_rate:
 2643              		@ args = 0, pretend = 0, frame = 0
 2644              		@ frame_needed = 0, uses_anonymous_args = 0
 2645              		@ link register save eliminated.
 2646 0000 A0F8A013 		strh	r1, [r0, #928]	@ movhi
 2647 0004 0020     		movs	r0, #0
 2648 0006 7047     		bx	lr
 2650              		.section	.text.VL53L1_get_xtalk_detect_config,"ax",%progbits
 2651              		.align	1
 2652              		.global	VL53L1_get_xtalk_detect_config
 2653              		.syntax unified
 2654              		.thumb
 2655              		.thumb_func
 2657              	VL53L1_get_xtalk_detect_config:
 2658              		@ args = 4, pretend = 0, frame = 0
 2659              		@ frame_needed = 0, uses_anonymous_args = 0
 2660              		@ link register save eliminated.
 2661 0000 B0F908C3 		ldrsh	ip, [r0, #776]
 2662 0004 A1F800C0 		strh	ip, [r1]	@ movhi
 2663 0008 B0F90613 		ldrsh	r1, [r0, #774]
 2664 000c 1180     		strh	r1, [r2]	@ movhi
 2665 000e B0F80A23 		ldrh	r2, [r0, #778]
 2666 0012 1A80     		strh	r2, [r3]	@ movhi
ARM GAS  C:\Temp\ccrtA2Jt.s 			page 46


 2667 0014 B0F80C23 		ldrh	r2, [r0, #780]
 2668 0018 009B     		ldr	r3, [sp]
 2669 001a 1A80     		strh	r2, [r3]	@ movhi
 2670 001c 0020     		movs	r0, #0
 2671 001e 7047     		bx	lr
 2673              		.section	.text.VL53L1_set_xtalk_detect_config,"ax",%progbits
 2674              		.align	1
 2675              		.global	VL53L1_set_xtalk_detect_config
 2676              		.syntax unified
 2677              		.thumb
 2678              		.thumb_func
 2680              	VL53L1_set_xtalk_detect_config:
 2681              		@ args = 4, pretend = 0, frame = 0
 2682              		@ frame_needed = 0, uses_anonymous_args = 0
 2683              		@ link register save eliminated.
 2684 0000 A0F80813 		strh	r1, [r0, #776]	@ movhi
 2685 0004 A0F80623 		strh	r2, [r0, #774]	@ movhi
 2686 0008 A0F80A33 		strh	r3, [r0, #778]	@ movhi
 2687 000c BDF80030 		ldrh	r3, [sp]
 2688 0010 A0F80C33 		strh	r3, [r0, #780]	@ movhi
 2689 0014 0020     		movs	r0, #0
 2690 0016 7047     		bx	lr
 2692              		.section	.text.VL53L1_get_target_order_mode,"ax",%progbits
 2693              		.align	1
 2694              		.global	VL53L1_get_target_order_mode
 2695              		.syntax unified
 2696              		.thumb
 2697              		.thumb_func
 2699              	VL53L1_get_target_order_mode:
 2700              		@ args = 0, pretend = 0, frame = 0
 2701              		@ frame_needed = 0, uses_anonymous_args = 0
 2702              		@ link register save eliminated.
 2703 0000 90F87532 		ldrb	r3, [r0, #629]	@ zero_extendqisi2
 2704 0004 0B70     		strb	r3, [r1]
 2705 0006 0020     		movs	r0, #0
 2706 0008 7047     		bx	lr
 2708              		.section	.text.VL53L1_set_target_order_mode,"ax",%progbits
 2709              		.align	1
 2710              		.global	VL53L1_set_target_order_mode
 2711              		.syntax unified
 2712              		.thumb
 2713              		.thumb_func
 2715              	VL53L1_set_target_order_mode:
 2716              		@ args = 0, pretend = 0, frame = 0
 2717              		@ frame_needed = 0, uses_anonymous_args = 0
 2718              		@ link register save eliminated.
 2719 0000 80F87512 		strb	r1, [r0, #629]
 2720 0004 0020     		movs	r0, #0
 2721 0006 7047     		bx	lr
 2723              		.section	.text.VL53L1_get_dmax_reflectance_values,"ax",%progbits
 2724              		.align	1
 2725              		.global	VL53L1_get_dmax_reflectance_values
 2726              		.syntax unified
 2727              		.thumb
 2728              		.thumb_func
 2730              	VL53L1_get_dmax_reflectance_values:
 2731              		@ args = 0, pretend = 0, frame = 0
ARM GAS  C:\Temp\ccrtA2Jt.s 			page 47


 2732              		@ frame_needed = 0, uses_anonymous_args = 0
 2733              		@ link register save eliminated.
 2734 0000 0023     		movs	r3, #0
 2735 0002 08E0     		b	.L232
 2736              	.L233:
 2737 0004 03F5A872 		add	r2, r3, #336
 2738 0008 00EB4202 		add	r2, r0, r2, lsl #1
 2739 000c 128C     		ldrh	r2, [r2, #32]
 2740 000e 21F81320 		strh	r2, [r1, r3, lsl #1]	@ movhi
 2741 0012 0133     		adds	r3, r3, #1
 2742 0014 DBB2     		uxtb	r3, r3
 2743              	.L232:
 2744 0016 042B     		cmp	r3, #4
 2745 0018 F4D9     		bls	.L233
 2746 001a 0020     		movs	r0, #0
 2747 001c 7047     		bx	lr
 2749              		.section	.text.VL53L1_set_dmax_reflectance_values,"ax",%progbits
 2750              		.align	1
 2751              		.global	VL53L1_set_dmax_reflectance_values
 2752              		.syntax unified
 2753              		.thumb
 2754              		.thumb_func
 2756              	VL53L1_set_dmax_reflectance_values:
 2757              		@ args = 0, pretend = 0, frame = 0
 2758              		@ frame_needed = 0, uses_anonymous_args = 0
 2759              		@ link register save eliminated.
 2760 0000 0023     		movs	r3, #0
 2761 0002 09E0     		b	.L235
 2762              	.L236:
 2763 0004 31F813C0 		ldrh	ip, [r1, r3, lsl #1]
 2764 0008 03F5A872 		add	r2, r3, #336
 2765 000c 00EB4202 		add	r2, r0, r2, lsl #1
 2766 0010 A2F820C0 		strh	ip, [r2, #32]	@ movhi
 2767 0014 0133     		adds	r3, r3, #1
 2768 0016 DBB2     		uxtb	r3, r3
 2769              	.L235:
 2770 0018 042B     		cmp	r3, #4
 2771 001a F3D9     		bls	.L236
 2772 001c 0020     		movs	r0, #0
 2773 001e 7047     		bx	lr
 2775              		.section	.text.VL53L1_get_vhv_loopbound,"ax",%progbits
 2776              		.align	1
 2777              		.global	VL53L1_get_vhv_loopbound
 2778              		.syntax unified
 2779              		.thumb
 2780              		.thumb_func
 2782              	VL53L1_get_vhv_loopbound:
 2783              		@ args = 0, pretend = 0, frame = 0
 2784              		@ frame_needed = 0, uses_anonymous_args = 0
 2785              		@ link register save eliminated.
 2786 0000 90F84033 		ldrb	r3, [r0, #832]	@ zero_extendqisi2
 2787 0004 9B08     		lsrs	r3, r3, #2
 2788 0006 0B70     		strb	r3, [r1]
 2789 0008 0020     		movs	r0, #0
 2790 000a 7047     		bx	lr
 2792              		.section	.text.VL53L1_set_vhv_loopbound,"ax",%progbits
 2793              		.align	1
ARM GAS  C:\Temp\ccrtA2Jt.s 			page 48


 2794              		.global	VL53L1_set_vhv_loopbound
 2795              		.syntax unified
 2796              		.thumb
 2797              		.thumb_func
 2799              	VL53L1_set_vhv_loopbound:
 2800              		@ args = 0, pretend = 0, frame = 0
 2801              		@ frame_needed = 0, uses_anonymous_args = 0
 2802              		@ link register save eliminated.
 2803 0000 90F84033 		ldrb	r3, [r0, #832]	@ zero_extendqisi2
 2804 0004 03F00303 		and	r3, r3, #3
 2805 0008 03EB8103 		add	r3, r3, r1, lsl #2
 2806 000c 80F84033 		strb	r3, [r0, #832]
 2807 0010 0020     		movs	r0, #0
 2808 0012 7047     		bx	lr
 2810              		.section	.text.VL53L1_get_vhv_config,"ax",%progbits
 2811              		.align	1
 2812              		.global	VL53L1_get_vhv_config
 2813              		.syntax unified
 2814              		.thumb
 2815              		.thumb_func
 2817              	VL53L1_get_vhv_config:
 2818              		@ args = 0, pretend = 0, frame = 0
 2819              		@ frame_needed = 0, uses_anonymous_args = 0
 2820              		@ link register save eliminated.
 2821 0000 90F84333 		ldrb	r3, [r0, #835]	@ zero_extendqisi2
 2822 0004 DB09     		lsrs	r3, r3, #7
 2823 0006 0B70     		strb	r3, [r1]
 2824 0008 90F84333 		ldrb	r3, [r0, #835]	@ zero_extendqisi2
 2825 000c 03F07F03 		and	r3, r3, #127
 2826 0010 1370     		strb	r3, [r2]
 2827 0012 0020     		movs	r0, #0
 2828 0014 7047     		bx	lr
 2830              		.section	.text.VL53L1_set_vhv_config,"ax",%progbits
 2831              		.align	1
 2832              		.global	VL53L1_set_vhv_config
 2833              		.syntax unified
 2834              		.thumb
 2835              		.thumb_func
 2837              	VL53L1_set_vhv_config:
 2838              		@ args = 0, pretend = 0, frame = 0
 2839              		@ frame_needed = 0, uses_anonymous_args = 0
 2840              		@ link register save eliminated.
 2841 0000 02F07F02 		and	r2, r2, #127
 2842 0004 02EBC112 		add	r2, r2, r1, lsl #7
 2843 0008 80F84323 		strb	r2, [r0, #835]
 2844 000c 0020     		movs	r0, #0
 2845 000e 7047     		bx	lr
 2847              		.section	.text.VL53L1_stop_range,"ax",%progbits
 2848              		.align	1
 2849              		.global	VL53L1_stop_range
 2850              		.syntax unified
 2851              		.thumb
 2852              		.thumb_func
 2854              	VL53L1_stop_range:
 2855              		@ args = 0, pretend = 0, frame = 0
 2856              		@ frame_needed = 0, uses_anonymous_args = 0
 2857 0000 38B5     		push	{r3, r4, r5, lr}
ARM GAS  C:\Temp\ccrtA2Jt.s 			page 49


 2858 0002 0446     		mov	r4, r0
 2859 0004 90F8C433 		ldrb	r3, [r0, #964]	@ zero_extendqisi2
 2860 0008 03F00F03 		and	r3, r3, #15
 2861 000c 63F07F03 		orn	r3, r3, #127
 2862 0010 80F8C433 		strb	r3, [r0, #964]
 2863 0014 00F57071 		add	r1, r0, #960
 2864 0018 FFF7FEFF 		bl	VL53L1_set_system_control
 2865 001c 0546     		mov	r5, r0
 2866 001e 94F8C433 		ldrb	r3, [r4, #964]	@ zero_extendqisi2
 2867 0022 03F00F03 		and	r3, r3, #15
 2868 0026 84F8C433 		strb	r3, [r4, #964]
 2869 002a 0321     		movs	r1, #3
 2870 002c 2046     		mov	r0, r4
 2871 002e FFF7FEFF 		bl	VL53L1_init_ll_driver_state
 2872 0032 94F8DB00 		ldrb	r0, [r4, #219]	@ zero_extendqisi2
 2873 0036 0130     		adds	r0, r0, #1
 2874 0038 04F5D041 		add	r1, r4, #26624
 2875 003c 3431     		adds	r1, r1, #52
 2876 003e C0B2     		uxtb	r0, r0
 2877 0040 FFF7FEFF 		bl	V53L1_init_zone_results_structure
 2878 0044 2046     		mov	r0, r4
 2879 0046 FFF7FEFF 		bl	V53L1_init_zone_dss_configs
 2880 004a 04F58053 		add	r3, r4, #4096
 2881 004e 93F88135 		ldrb	r3, [r3, #1409]	@ zero_extendqisi2
 2882 0052 012B     		cmp	r3, #1
 2883 0054 01D0     		beq	.L244
 2884              	.L242:
 2885 0056 2846     		mov	r0, r5
 2886 0058 38BD     		pop	{r3, r4, r5, pc}
 2887              	.L244:
 2888 005a 2046     		mov	r0, r4
 2889 005c FFF7FEFF 		bl	VL53L1_low_power_auto_data_stop_range
 2890 0060 F9E7     		b	.L242
 2892              		.section	.text.VL53L1_get_measurement_results,"ax",%progbits
 2893              		.align	1
 2894              		.global	VL53L1_get_measurement_results
 2895              		.syntax unified
 2896              		.thumb
 2897              		.thumb_func
 2899              	VL53L1_get_measurement_results:
 2900              		@ args = 0, pretend = 0, frame = 256
 2901              		@ frame_needed = 0, uses_anonymous_args = 0
 2902 0000 F0B5     		push	{r4, r5, r6, r7, lr}
 2903 0002 C1B0     		sub	sp, sp, #260
 2904 0004 0C46     		mov	r4, r1
 2905 0006 00F11805 		add	r5, r0, #24
 2906 000a 00F2C636 		addw	r6, r0, #966
 2907 000e 05F59C57 		add	r7, r5, #4992
 2908 0012 05F59D55 		add	r5, r5, #5024
 2909 0016 0435     		adds	r5, r5, #4
 2910 0018 0129     		cmp	r1, #1
 2911 001a 13D0     		beq	.L250
 2912 001c 0229     		cmp	r1, #2
 2913 001e 13D1     		bne	.L251
 2914 0020 8623     		movs	r3, #134
 2915              	.L246:
 2916 0022 6A46     		mov	r2, sp
ARM GAS  C:\Temp\ccrtA2Jt.s 			page 50


 2917 0024 8821     		movs	r1, #136
 2918 0026 FFF7FEFF 		bl	VL53L1_ReadMulti
 2919 002a 012C     		cmp	r4, #1
 2920 002c 00D9     		bls	.L247
 2921 002e 68B1     		cbz	r0, .L253
 2922              	.L247:
 2923 0030 2CB1     		cbz	r4, .L248
 2924 0032 28B9     		cbnz	r0, .L249
 2925 0034 3A46     		mov	r2, r7
 2926 0036 0BA9     		add	r1, sp, #44
 2927 0038 2120     		movs	r0, #33
 2928 003a FFF7FEFF 		bl	VL53L1_i2c_decode_core_results
 2929              	.L248:
 2930 003e 60B1     		cbz	r0, .L254
 2931              	.L249:
 2932 0040 41B0     		add	sp, sp, #260
 2933              		@ sp needed
 2934 0042 F0BD     		pop	{r4, r5, r6, r7, pc}
 2935              	.L250:
 2936 0044 4D23     		movs	r3, #77
 2937 0046 ECE7     		b	.L246
 2938              	.L251:
 2939 0048 2C23     		movs	r3, #44
 2940 004a EAE7     		b	.L246
 2941              	.L253:
 2942 004c 2A46     		mov	r2, r5
 2943 004e 0DF14E01 		add	r1, sp, #78
 2944 0052 3820     		movs	r0, #56
 2945 0054 FFF7FEFF 		bl	VL53L1_i2c_decode_debug_results
 2946 0058 EAE7     		b	.L247
 2947              	.L254:
 2948 005a 3246     		mov	r2, r6
 2949 005c 6946     		mov	r1, sp
 2950 005e 2C20     		movs	r0, #44
 2951 0060 FFF7FEFF 		bl	VL53L1_i2c_decode_system_results
 2952 0064 ECE7     		b	.L249
 2954              		.section	.text.VL53L1_copy_sys_and_core_results_to_range_results,"ax",%progbits
 2955              		.align	1
 2956              		.global	VL53L1_copy_sys_and_core_results_to_range_results
 2957              		.syntax unified
 2958              		.thumb
 2959              		.thumb_func
 2961              	VL53L1_copy_sys_and_core_results_to_range_results:
 2962              		@ args = 0, pretend = 0, frame = 0
 2963              		@ frame_needed = 0, uses_anonymous_args = 0
 2964 0000 F0B5     		push	{r4, r5, r6, r7, lr}
 2965 0002 0024     		movs	r4, #0
 2966 0004 9C70     		strb	r4, [r3, #2]
 2967 0006 CD78     		ldrb	r5, [r1, #3]	@ zero_extendqisi2
 2968 0008 DD70     		strb	r5, [r3, #3]
 2969 000a DC81     		strh	r4, [r3, #14]	@ movhi
 2970 000c 0425     		movs	r5, #4
 2971 000e 5D74     		strb	r5, [r3, #17]
 2972 0010 0125     		movs	r5, #1
 2973 0012 9D74     		strb	r5, [r3, #18]
 2974 0014 B1F810E0 		ldrh	lr, [r1, #16]
 2975 0018 8E8A     		ldrh	r6, [r1, #20]
ARM GAS  C:\Temp\ccrtA2Jt.s 			page 51


 2976 001a 4D8A     		ldrh	r5, [r1, #18]
 2977 001c 07E0     		b	.L256
 2978              	.L257:
 2979 001e 03EB4407 		add	r7, r3, r4, lsl #1
 2980 0022 4FF0000C 		mov	ip, #0
 2981 0026 A7F804C0 		strh	ip, [r7, #4]	@ movhi
 2982 002a 0134     		adds	r4, r4, #1
 2983 002c E4B2     		uxtb	r4, r4
 2984              	.L256:
 2985 002e 042C     		cmp	r4, #4
 2986 0030 F5D9     		bls	.L257
 2987 0032 03F1140C 		add	ip, r3, #20
 2988 0036 0024     		movs	r4, #0
 2989 0038 24E0     		b	.L258
 2990              	.L259:
 2991 003a 4F78     		ldrb	r7, [r1, #1]	@ zero_extendqisi2
 2992 003c 07F01F07 		and	r7, r7, #31
 2993 0040 8CF84A70 		strb	r7, [ip, #74]
 2994              	.L260:
 2995 0044 0027     		movs	r7, #0
 2996 0046 8CF80870 		strb	r7, [ip, #8]
 2997 004a 8CF80970 		strb	r7, [ip, #9]
 2998 004e 8CF80A70 		strb	r7, [ip, #10]
 2999 0052 8CF80B70 		strb	r7, [ip, #11]
 3000 0056 8CF80C70 		strb	r7, [ip, #12]
 3001 005a 8CF80D70 		strb	r7, [ip, #13]
 3002 005e 24B3     		cbz	r4, .L261
 3003 0060 012C     		cmp	r4, #1
 3004 0062 5ED0     		beq	.L262
 3005              	.L263:
 3006 0064 BCF84070 		ldrh	r7, [ip, #64]
 3007 0068 ACF83E70 		strh	r7, [ip, #62]	@ movhi
 3008 006c ACF84270 		strh	r7, [ip, #66]	@ movhi
 3009 0070 BCF94670 		ldrsh	r7, [ip, #70]
 3010 0074 ACF84470 		strh	r7, [ip, #68]	@ movhi
 3011 0078 ACF84870 		strh	r7, [ip, #72]	@ movhi
 3012 007c 0CF14C0C 		add	ip, ip, #76
 3013 0080 0134     		adds	r4, r4, #1
 3014 0082 E4B2     		uxtb	r4, r4
 3015              	.L258:
 3016 0084 012C     		cmp	r4, #1
 3017 0086 7FD8     		bhi	.L276
 3018 0088 8CF80040 		strb	r4, [ip]
 3019 008c 0027     		movs	r7, #0
 3020 008e CCF80470 		str	r7, [ip, #4]
 3021 0092 CF78     		ldrb	r7, [r1, #3]	@ zero_extendqisi2
 3022 0094 002F     		cmp	r7, #0
 3023 0096 D0D1     		bne	.L259
 3024 0098 4F78     		ldrb	r7, [r1, #1]	@ zero_extendqisi2
 3025 009a 07F01F07 		and	r7, r7, #31
 3026 009e 092F     		cmp	r7, #9
 3027 00a0 CBD1     		bne	.L259
 3028 00a2 1327     		movs	r7, #19
 3029 00a4 8CF84A70 		strb	r7, [ip, #74]
 3030 00a8 CCE7     		b	.L260
 3031              	.L261:
 3032 00aa 8F78     		ldrb	r7, [r1, #2]	@ zero_extendqisi2
ARM GAS  C:\Temp\ccrtA2Jt.s 			page 52


 3033 00ac 072F     		cmp	r7, #7
 3034 00ae 2FD0     		beq	.L277
 3035 00b0 082F     		cmp	r7, #8
 3036 00b2 30D0     		beq	.L278
 3037 00b4 8F88     		ldrh	r7, [r1, #4]
 3038 00b6 ACF81670 		strh	r7, [ip, #22]	@ movhi
 3039              	.L265:
 3040 00ba ACF830E0 		strh	lr, [ip, #48]	@ movhi
 3041 00be CF8A     		ldrh	r7, [r1, #22]
 3042 00c0 ACF83270 		strh	r7, [ip, #50]	@ movhi
 3043 00c4 0F89     		ldrh	r7, [r1, #8]
 3044 00c6 ACF83470 		strh	r7, [ip, #52]	@ movhi
 3045 00ca 4F89     		ldrh	r7, [r1, #10]
 3046 00cc 7F01     		lsls	r7, r7, #5
 3047 00ce B7F5803F 		cmp	r7, #65536
 3048 00d2 01D3     		bcc	.L267
 3049 00d4 4FF6FF77 		movw	r7, #65535
 3050              	.L267:
 3051 00d8 ACF83C70 		strh	r7, [ip, #60]	@ movhi
 3052 00dc 8F89     		ldrh	r7, [r1, #12]
 3053 00de ACF84070 		strh	r7, [ip, #64]	@ movhi
 3054 00e2 CF89     		ldrh	r7, [r1, #14]
 3055 00e4 00FB07F7 		mul	r7, r0, r7
 3056 00e8 17F58067 		adds	r7, r7, #1024
 3057 00ec 16D4     		bmi	.L279
 3058              	.L268:
 3059 00ee 47F3CF27 		sbfx	r7, r7, #11, #16
 3060 00f2 ACF84670 		strh	r7, [ip, #70]	@ movhi
 3061 00f6 5768     		ldr	r7, [r2, #4]
 3062 00f8 CCF82870 		str	r7, [ip, #40]
 3063 00fc 9768     		ldr	r7, [r2, #8]
 3064 00fe CCF82C70 		str	r7, [ip, #44]
 3065 0102 D768     		ldr	r7, [r2, #12]
 3066 0104 CCF81870 		str	r7, [ip, #24]
 3067 0108 1768     		ldr	r7, [r2]
 3068 010a CCF82470 		str	r7, [ip, #36]
 3069 010e A9E7     		b	.L263
 3070              	.L277:
 3071 0110 ACF81650 		strh	r5, [ip, #22]	@ movhi
 3072 0114 D1E7     		b	.L265
 3073              	.L278:
 3074 0116 ACF81660 		strh	r6, [ip, #22]	@ movhi
 3075 011a CEE7     		b	.L265
 3076              	.L279:
 3077 011c 07F2FF77 		addw	r7, r7, #2047
 3078 0120 E5E7     		b	.L268
 3079              	.L262:
 3080 0122 0F8B     		ldrh	r7, [r1, #24]
 3081 0124 ACF81670 		strh	r7, [ip, #22]	@ movhi
 3082 0128 4F8B     		ldrh	r7, [r1, #26]
 3083 012a ACF83070 		strh	r7, [ip, #48]	@ movhi
 3084 012e 4FF6FF77 		movw	r7, #65535
 3085 0132 ACF83270 		strh	r7, [ip, #50]	@ movhi
 3086 0136 8F8B     		ldrh	r7, [r1, #28]
 3087 0138 ACF83470 		strh	r7, [ip, #52]	@ movhi
 3088 013c CF8B     		ldrh	r7, [r1, #30]
 3089 013e 7F01     		lsls	r7, r7, #5
ARM GAS  C:\Temp\ccrtA2Jt.s 			page 53


 3090 0140 B7F5803F 		cmp	r7, #65536
 3091 0144 01D3     		bcc	.L269
 3092 0146 4FF6FF77 		movw	r7, #65535
 3093              	.L269:
 3094 014a ACF83C70 		strh	r7, [ip, #60]	@ movhi
 3095 014e 0F8C     		ldrh	r7, [r1, #32]
 3096 0150 ACF84070 		strh	r7, [ip, #64]	@ movhi
 3097 0154 4F8C     		ldrh	r7, [r1, #34]
 3098 0156 00FB07F7 		mul	r7, r0, r7
 3099 015a 17F58067 		adds	r7, r7, #1024
 3100 015e 10D4     		bmi	.L280
 3101              	.L270:
 3102 0160 47F3CF27 		sbfx	r7, r7, #11, #16
 3103 0164 ACF84670 		strh	r7, [ip, #70]	@ movhi
 3104 0168 5769     		ldr	r7, [r2, #20]
 3105 016a CCF82870 		str	r7, [ip, #40]
 3106 016e 9769     		ldr	r7, [r2, #24]
 3107 0170 CCF82C70 		str	r7, [ip, #44]
 3108 0174 D769     		ldr	r7, [r2, #28]
 3109 0176 CCF81870 		str	r7, [ip, #24]
 3110 017a 1769     		ldr	r7, [r2, #16]
 3111 017c CCF82470 		str	r7, [ip, #36]
 3112 0180 70E7     		b	.L263
 3113              	.L280:
 3114 0182 07F2FF77 		addw	r7, r7, #2047
 3115 0186 EBE7     		b	.L270
 3116              	.L276:
 3117 0188 0022     		movs	r2, #0
 3118 018a 1A74     		strb	r2, [r3, #16]
 3119 018c 4A78     		ldrb	r2, [r1, #1]	@ zero_extendqisi2
 3120 018e 02F01F02 		and	r2, r2, #31
 3121 0192 112A     		cmp	r2, #17
 3122 0194 04D8     		bhi	.L255
 3123 0196 0549     		ldr	r1, .L282
 3124 0198 D140     		lsrs	r1, r1, r2
 3125 019a 11F0010F 		tst	r1, #1
 3126 019e 00D1     		bne	.L281
 3127              	.L255:
 3128 01a0 F0BD     		pop	{r4, r5, r6, r7, pc}
 3129              	.L281:
 3130 01a2 1A74     		strb	r2, [r3, #16]
 3131 01a4 0022     		movs	r2, #0
 3132 01a6 83F85E20 		strb	r2, [r3, #94]
 3133 01aa F9E7     		b	.L255
 3134              	.L283:
 3135              		.align	2
 3136              	.L282:
 3137 01ac 0E200200 		.word	139278
 3139              		.section	.text.VL53L1_set_zone_dss_config,"ax",%progbits
 3140              		.align	1
 3141              		.global	VL53L1_set_zone_dss_config
 3142              		.syntax unified
 3143              		.thumb
 3144              		.thumb_func
 3146              	VL53L1_set_zone_dss_config:
 3147              		@ args = 0, pretend = 0, frame = 0
 3148              		@ frame_needed = 0, uses_anonymous_args = 0
ARM GAS  C:\Temp\ccrtA2Jt.s 			page 54


 3149              		@ link register save eliminated.
 3150 0000 90F84430 		ldrb	r3, [r0, #68]	@ zero_extendqisi2
 3151 0004 052B     		cmp	r3, #5
 3152 0006 04D0     		beq	.L287
 3153 0008 0123     		movs	r3, #1
 3154 000a 80F88833 		strb	r3, [r0, #904]
 3155              	.L286:
 3156 000e 0020     		movs	r0, #0
 3157 0010 7047     		bx	lr
 3158              	.L287:
 3159 0012 0223     		movs	r3, #2
 3160 0014 80F88833 		strb	r3, [r0, #904]
 3161 0018 8B88     		ldrh	r3, [r1, #4]
 3162 001a A0F88E33 		strh	r3, [r0, #910]	@ movhi
 3163 001e F6E7     		b	.L286
 3165              		.section	.text.VL53L1_init_and_start_range,"ax",%progbits
 3166              		.align	1
 3167              		.global	VL53L1_init_and_start_range
 3168              		.syntax unified
 3169              		.thumb
 3170              		.thumb_func
 3172              	VL53L1_init_and_start_range:
 3173              		@ args = 0, pretend = 0, frame = 272
 3174              		@ frame_needed = 0, uses_anonymous_args = 0
 3175 0000 2DE9F04F 		push	{r4, r5, r6, r7, r8, r9, r10, fp, lr}
 3176 0004 C5B0     		sub	sp, sp, #276
 3177 0006 0446     		mov	r4, r0
 3178 0008 1646     		mov	r6, r2
 3179 000a 00F11803 		add	r3, r0, #24
 3180 000e 00F54E7B 		add	fp, r0, #824
 3181 0012 00F16002 		add	r2, r0, #96
 3182 0016 0192     		str	r2, [sp, #4]
 3183 0018 00F25E32 		addw	r2, r0, #862
 3184 001c 0292     		str	r2, [sp, #8]
 3185 001e 00F27E32 		addw	r2, r0, #894
 3186 0022 0392     		str	r2, [sp, #12]
 3187 0024 00F5657A 		add	r10, r0, #916
 3188 0028 00F56B79 		add	r9, r0, #940
 3189 002c 00F57078 		add	r8, r0, #960
 3190 0030 C176     		strb	r1, [r0, #27]
 3191 0032 90F8C423 		ldrb	r2, [r0, #964]	@ zero_extendqisi2
 3192 0036 02F00F02 		and	r2, r2, #15
 3193 003a 1143     		orrs	r1, r1, r2
 3194 003c 80F8C413 		strb	r1, [r0, #964]
 3195 0040 90F84A20 		ldrb	r2, [r0, #74]	@ zero_extendqisi2
 3196 0044 3632     		adds	r2, r2, #54
 3197 0046 03EB8201 		add	r1, r3, r2, lsl #2
 3198 004a 0631     		adds	r1, r1, #6
 3199 004c FFF7FEFF 		bl	VL53L1_set_user_zone
 3200 0050 94F8DB30 		ldrb	r3, [r4, #219]	@ zero_extendqisi2
 3201 0054 73BB     		cbnz	r3, .L319
 3202              	.L289:
 3203 0056 94F8C433 		ldrb	r3, [r4, #964]	@ zero_extendqisi2
 3204 005a 13F0020F 		tst	r3, #2
 3205 005e 03D1     		bne	.L290
 3206 0060 94F8FC32 		ldrb	r3, [r4, #764]	@ zero_extendqisi2
 3207 0064 012B     		cmp	r3, #1
ARM GAS  C:\Temp\ccrtA2Jt.s 			page 55


 3208 0066 35D0     		beq	.L320
 3209              	.L290:
 3210 0068 04F58053 		add	r3, r4, #4096
 3211 006c 93F88235 		ldrb	r3, [r3, #1410]	@ zero_extendqisi2
 3212 0070 FF2B     		cmp	r3, #255
 3213 0072 34D0     		beq	.L321
 3214              	.L291:
 3215 0074 04F58053 		add	r3, r4, #4096
 3216 0078 D3F88035 		ldr	r3, [r3, #1408]
 3217 007c 23F07F43 		bic	r3, r3, #-16777216
 3218 0080 23F0FF03 		bic	r3, r3, #255
 3219 0084 B3F5807F 		cmp	r3, #256
 3220 0088 2FD0     		beq	.L322
 3221              	.L292:
 3222 008a 04F58053 		add	r3, r4, #4096
 3223 008e D3F88035 		ldr	r3, [r3, #1408]
 3224 0092 23F07F43 		bic	r3, r3, #-16777216
 3225 0096 23F0FF03 		bic	r3, r3, #255
 3226 009a 744A     		ldr	r2, .L331
 3227 009c 9342     		cmp	r3, r2
 3228 009e 3FD0     		beq	.L323
 3229              	.L295:
 3230 00a0 0028     		cmp	r0, #0
 3231 00a2 45D0     		beq	.L324
 3232              	.L296:
 3233 00a4 731E     		subs	r3, r6, #1
 3234 00a6 052B     		cmp	r3, #5
 3235 00a8 55D8     		bhi	.L297
 3236 00aa DFE803F0 		tbb	[pc, r3]
 3237              	.L299:
 3238 00ae 52       		.byte	(.L304-.L299)/2
 3239 00af 50       		.byte	(.L303-.L299)/2
 3240 00b0 4E       		.byte	(.L302-.L299)/2
 3241 00b1 4C       		.byte	(.L301-.L299)/2
 3242 00b2 56       		.byte	(.L317-.L299)/2
 3243 00b3 45       		.byte	(.L298-.L299)/2
 3244              		.p2align 1
 3245              	.L319:
 3246 00b4 94F84A30 		ldrb	r3, [r4, #74]	@ zero_extendqisi2
 3247 00b8 04F5CB41 		add	r1, r4, #25984
 3248 00bc 7031     		adds	r1, r1, #112
 3249 00be 03EB8303 		add	r3, r3, r3, lsl #2
 3250 00c2 5B00     		lsls	r3, r3, #1
 3251 00c4 03F5D073 		add	r3, r3, #416
 3252 00c8 1944     		add	r1, r1, r3
 3253 00ca 0231     		adds	r1, r1, #2
 3254 00cc 2046     		mov	r0, r4
 3255 00ce FFF7FEFF 		bl	VL53L1_set_zone_dss_config
 3256 00d2 C0E7     		b	.L289
 3257              	.L320:
 3258 00d4 B4F80433 		ldrh	r3, [r4, #772]
 3259 00d8 A4F87633 		strh	r3, [r4, #886]	@ movhi
 3260 00dc C4E7     		b	.L290
 3261              	.L321:
 3262 00de 04F58053 		add	r3, r4, #4096
 3263 00e2 0022     		movs	r2, #0
 3264 00e4 83F88225 		strb	r2, [r3, #1410]
ARM GAS  C:\Temp\ccrtA2Jt.s 			page 56


 3265 00e8 C4E7     		b	.L291
 3266              	.L322:
 3267 00ea 94F88023 		ldrb	r2, [r4, #896]	@ zero_extendqisi2
 3268 00ee 04F58053 		add	r3, r4, #4096
 3269 00f2 83F88325 		strb	r2, [r3, #1411]
 3270 00f6 2023     		movs	r3, #32
 3271 00f8 84F88033 		strb	r3, [r4, #896]
 3272 00fc 94F8BD33 		ldrb	r3, [r4, #957]	@ zero_extendqisi2
 3273 0100 13F0600F 		tst	r3, #96
 3274 0104 08D1     		bne	.L293
 3275 0106 B4F97630 		ldrsh	r3, [r4, #118]
 3276 010a 9B00     		lsls	r3, r3, #2
 3277 010c A4F87230 		strh	r3, [r4, #114]	@ movhi
 3278              	.L294:
 3279 0110 042E     		cmp	r6, #4
 3280 0112 BAD8     		bhi	.L292
 3281 0114 0526     		movs	r6, #5
 3282 0116 B8E7     		b	.L292
 3283              	.L293:
 3284 0118 0023     		movs	r3, #0
 3285 011a A4F87230 		strh	r3, [r4, #114]	@ movhi
 3286 011e F7E7     		b	.L294
 3287              	.L323:
 3288 0120 04F58053 		add	r3, r4, #4096
 3289 0124 93F88335 		ldrb	r3, [r3, #1411]	@ zero_extendqisi2
 3290 0128 84F88033 		strb	r3, [r4, #896]
 3291 012c 0626     		movs	r6, #6
 3292 012e B7E7     		b	.L295
 3293              	.L324:
 3294 0130 2046     		mov	r0, r4
 3295 0132 FFF7FEFF 		bl	VL53L1_save_cfg_data
 3296 0136 B5E7     		b	.L296
 3297              	.L298:
 3298 0138 0127     		movs	r7, #1
 3299              	.L300:
 3300 013a C7F18805 		rsb	r5, r7, #136
 3301 013e ADB2     		uxth	r5, r5
 3302 0140 0022     		movs	r2, #0
 3303 0142 04AB     		add	r3, sp, #16
 3304 0144 10E0     		b	.L305
 3305              	.L301:
 3306 0146 2427     		movs	r7, #36
 3307 0148 F7E7     		b	.L300
 3308              	.L302:
 3309 014a 4427     		movs	r7, #68
 3310 014c F5E7     		b	.L300
 3311              	.L303:
 3312 014e 5A27     		movs	r7, #90
 3313 0150 F3E7     		b	.L300
 3314              	.L304:
 3315 0152 7127     		movs	r7, #113
 3316 0154 F1E7     		b	.L300
 3317              	.L297:
 3318 0156 8327     		movs	r7, #131
 3319 0158 EFE7     		b	.L300
 3320              	.L317:
 3321 015a 0D27     		movs	r7, #13
ARM GAS  C:\Temp\ccrtA2Jt.s 			page 57


 3322 015c EDE7     		b	.L300
 3323              	.L306:
 3324 015e 0021     		movs	r1, #0
 3325 0160 03F8011B 		strb	r1, [r3], #1
 3326 0164 0132     		adds	r2, r2, #1
 3327 0166 92B2     		uxth	r2, r2
 3328              	.L305:
 3329 0168 AA42     		cmp	r2, r5
 3330 016a F8D3     		bcc	.L306
 3331 016c 052E     		cmp	r6, #5
 3332 016e 00D9     		bls	.L307
 3333 0170 70B3     		cbz	r0, .L325
 3334              	.L307:
 3335 0172 042E     		cmp	r6, #4
 3336 0174 01D9     		bls	.L308
 3337 0176 0028     		cmp	r0, #0
 3338 0178 34D0     		beq	.L326
 3339              	.L308:
 3340 017a 032E     		cmp	r6, #3
 3341 017c 01D9     		bls	.L309
 3342 017e 0028     		cmp	r0, #0
 3343 0180 3AD0     		beq	.L327
 3344              	.L309:
 3345 0182 022E     		cmp	r6, #2
 3346 0184 01D9     		bls	.L310
 3347 0186 0028     		cmp	r0, #0
 3348 0188 40D0     		beq	.L328
 3349              	.L310:
 3350 018a 012E     		cmp	r6, #1
 3351 018c 01D9     		bls	.L311
 3352 018e 0028     		cmp	r0, #0
 3353 0190 46D0     		beq	.L329
 3354              	.L311:
 3355 0192 CEB1     		cbz	r6, .L312
 3356 0194 0028     		cmp	r0, #0
 3357 0196 56D1     		bne	.L313
 3358 0198 C7F17102 		rsb	r2, r7, #113
 3359 019c 92B2     		uxth	r2, r2
 3360 019e 94F8C433 		ldrb	r3, [r4, #964]	@ zero_extendqisi2
 3361 01a2 13F0200F 		tst	r3, #32
 3362 01a6 09D0     		beq	.L314
 3363 01a8 94F84830 		ldrb	r3, [r4, #72]	@ zero_extendqisi2
 3364 01ac 43F00101 		orr	r1, r3, #1
 3365 01b0 84F8AC13 		strb	r1, [r4, #940]
 3366 01b4 84F8B813 		strb	r1, [r4, #952]
 3367 01b8 84F8BE33 		strb	r3, [r4, #958]
 3368              	.L314:
 3369 01bc 04AB     		add	r3, sp, #16
 3370 01be 1A44     		add	r2, r2, r3
 3371 01c0 1221     		movs	r1, #18
 3372 01c2 4846     		mov	r0, r9
 3373 01c4 FFF7FEFF 		bl	VL53L1_i2c_encode_dynamic_config
 3374              	.L312:
 3375 01c8 A0B3     		cbz	r0, .L330
 3376              	.L315:
 3377 01ca 45B0     		add	sp, sp, #276
 3378              		@ sp needed
ARM GAS  C:\Temp\ccrtA2Jt.s 			page 58


 3379 01cc BDE8F08F 		pop	{r4, r5, r6, r7, r8, r9, r10, fp, pc}
 3380              	.L325:
 3381 01d0 C7F10102 		rsb	r2, r7, #1
 3382 01d4 04AB     		add	r3, sp, #16
 3383 01d6 13FA82F2 		uxtah	r2, r3, r2
 3384 01da 0B21     		movs	r1, #11
 3385 01dc 5846     		mov	r0, fp
 3386 01de FFF7FEFF 		bl	VL53L1_i2c_encode_static_nvm_managed
 3387 01e2 C6E7     		b	.L307
 3388              	.L326:
 3389 01e4 C7F10D02 		rsb	r2, r7, #13
 3390 01e8 04AB     		add	r3, sp, #16
 3391 01ea 13FA82F2 		uxtah	r2, r3, r2
 3392 01ee 1721     		movs	r1, #23
 3393 01f0 0198     		ldr	r0, [sp, #4]
 3394 01f2 FFF7FEFF 		bl	VL53L1_i2c_encode_customer_nvm_managed
 3395 01f6 C0E7     		b	.L308
 3396              	.L327:
 3397 01f8 C7F12402 		rsb	r2, r7, #36
 3398 01fc 04AB     		add	r3, sp, #16
 3399 01fe 13FA82F2 		uxtah	r2, r3, r2
 3400 0202 2021     		movs	r1, #32
 3401 0204 0298     		ldr	r0, [sp, #8]
 3402 0206 FFF7FEFF 		bl	VL53L1_i2c_encode_static_config
 3403 020a BAE7     		b	.L309
 3404              	.L328:
 3405 020c C7F14402 		rsb	r2, r7, #68
 3406 0210 04AB     		add	r3, sp, #16
 3407 0212 13FA82F2 		uxtah	r2, r3, r2
 3408 0216 1621     		movs	r1, #22
 3409 0218 0398     		ldr	r0, [sp, #12]
 3410 021a FFF7FEFF 		bl	VL53L1_i2c_encode_general_config
 3411 021e B4E7     		b	.L310
 3412              	.L329:
 3413 0220 C7F15A02 		rsb	r2, r7, #90
 3414 0224 04AB     		add	r3, sp, #16
 3415 0226 13FA82F2 		uxtah	r2, r3, r2
 3416 022a 1721     		movs	r1, #23
 3417 022c 5046     		mov	r0, r10
 3418 022e FFF7FEFF 		bl	VL53L1_i2c_encode_timing_config
 3419 0232 AEE7     		b	.L311
 3420              	.L330:
 3421 0234 C7F18302 		rsb	r2, r7, #131
 3422 0238 04AB     		add	r3, sp, #16
 3423 023a 13FA82F2 		uxtah	r2, r3, r2
 3424 023e 0521     		movs	r1, #5
 3425 0240 4046     		mov	r0, r8
 3426 0242 FFF7FEFF 		bl	VL53L1_i2c_encode_system_control
 3427              	.L313:
 3428 0246 0028     		cmp	r0, #0
 3429 0248 BFD1     		bne	.L315
 3430 024a 2B46     		mov	r3, r5
 3431 024c 04AA     		add	r2, sp, #16
 3432 024e 3946     		mov	r1, r7
 3433 0250 2046     		mov	r0, r4
 3434 0252 FFF7FEFF 		bl	VL53L1_WriteMulti
 3435 0256 0028     		cmp	r0, #0
ARM GAS  C:\Temp\ccrtA2Jt.s 			page 59


 3436 0258 B7D1     		bne	.L315
 3437 025a 2046     		mov	r0, r4
 3438 025c FFF7FEFF 		bl	VL53L1_update_ll_driver_rd_state
 3439 0260 0028     		cmp	r0, #0
 3440 0262 B2D1     		bne	.L315
 3441 0264 2046     		mov	r0, r4
 3442 0266 FFF7FEFF 		bl	VL53L1_update_ll_driver_cfg_state
 3443 026a AEE7     		b	.L315
 3444              	.L332:
 3445              		.align	2
 3446              	.L331:
 3447 026c 00010100 		.word	65792
 3449              		.section	.text.VL53L1_clear_interrupt_and_enable_next_range,"ax",%progbits
 3450              		.align	1
 3451              		.global	VL53L1_clear_interrupt_and_enable_next_range
 3452              		.syntax unified
 3453              		.thumb
 3454              		.thumb_func
 3456              	VL53L1_clear_interrupt_and_enable_next_range:
 3457              		@ args = 0, pretend = 0, frame = 0
 3458              		@ frame_needed = 0, uses_anonymous_args = 0
 3459 0000 08B5     		push	{r3, lr}
 3460 0002 0322     		movs	r2, #3
 3461 0004 FFF7FEFF 		bl	VL53L1_init_and_start_range
 3462 0008 08BD     		pop	{r3, pc}
 3464              		.section	.text.VL53L1_set_GPIO_interrupt_config,"ax",%progbits
 3465              		.align	1
 3466              		.global	VL53L1_set_GPIO_interrupt_config
 3467              		.syntax unified
 3468              		.thumb
 3469              		.thumb_func
 3471              	VL53L1_set_GPIO_interrupt_config:
 3472              		@ args = 24, pretend = 0, frame = 0
 3473              		@ frame_needed = 0, uses_anonymous_args = 0
 3474 0000 38B5     		push	{r3, r4, r5, lr}
 3475 0002 0446     		mov	r4, r0
 3476 0004 00F15205 		add	r5, r0, #82
 3477 0008 80F85210 		strb	r1, [r0, #82]
 3478 000c 80F85320 		strb	r2, [r0, #83]
 3479 0010 80F85430 		strb	r3, [r0, #84]
 3480 0014 9DF81030 		ldrb	r3, [sp, #16]	@ zero_extendqisi2
 3481 0018 80F85530 		strb	r3, [r0, #85]
 3482 001c 9DF81430 		ldrb	r3, [sp, #20]	@ zero_extendqisi2
 3483 0020 80F85630 		strb	r3, [r0, #86]
 3484 0024 BDF81830 		ldrh	r3, [sp, #24]
 3485 0028 A0F85830 		strh	r3, [r0, #88]	@ movhi
 3486 002c BDF81C30 		ldrh	r3, [sp, #28]
 3487 0030 A0F85A30 		strh	r3, [r0, #90]	@ movhi
 3488 0034 BDF82030 		ldrh	r3, [sp, #32]
 3489 0038 A0F85C30 		strh	r3, [r0, #92]	@ movhi
 3490 003c BDF82430 		ldrh	r3, [sp, #36]
 3491 0040 A0F85E30 		strh	r3, [r0, #94]	@ movhi
 3492 0044 2846     		mov	r0, r5
 3493 0046 FFF7FEFF 		bl	VL53L1_encode_GPIO_interrupt_config
 3494 004a 84F88003 		strb	r0, [r4, #896]
 3495 004e 2946     		mov	r1, r5
 3496 0050 2046     		mov	r0, r4
ARM GAS  C:\Temp\ccrtA2Jt.s 			page 60


 3497 0052 FFF7FEFF 		bl	VL53L1_set_GPIO_thresholds_from_struct
 3498 0056 38BD     		pop	{r3, r4, r5, pc}
 3500              		.section	.text.VL53L1_set_GPIO_interrupt_config_struct,"ax",%progbits
 3501              		.align	1
 3502              		.global	VL53L1_set_GPIO_interrupt_config_struct
 3503              		.syntax unified
 3504              		.thumb
 3505              		.thumb_func
 3507              	VL53L1_set_GPIO_interrupt_config_struct:
 3508              		@ args = 20, pretend = 16, frame = 0
 3509              		@ frame_needed = 0, uses_anonymous_args = 0
 3510 0000 84B0     		sub	sp, sp, #16
 3511 0002 38B5     		push	{r3, r4, r5, lr}
 3512 0004 0446     		mov	r4, r0
 3513 0006 05A8     		add	r0, sp, #20
 3514 0008 80E80E00 		stm	r0, {r1, r2, r3}
 3515 000c 04F15205 		add	r5, r4, #82
 3516 0010 0599     		ldr	r1, [sp, #20]	@ unaligned
 3517 0012 4268     		ldr	r2, [r0, #4]	@ unaligned
 3518 0014 8368     		ldr	r3, [r0, #8]	@ unaligned
 3519 0016 C4F85210 		str	r1, [r4, #82]	@ unaligned
 3520 001a C4F85620 		str	r2, [r4, #86]	@ unaligned
 3521 001e C4F85A30 		str	r3, [r4, #90]	@ unaligned
 3522 0022 8389     		ldrh	r3, [r0, #12]	@ unaligned
 3523 0024 A4F85E30 		strh	r3, [r4, #94]	@ unaligned
 3524 0028 2846     		mov	r0, r5
 3525 002a FFF7FEFF 		bl	VL53L1_encode_GPIO_interrupt_config
 3526 002e 84F88003 		strb	r0, [r4, #896]
 3527 0032 2946     		mov	r1, r5
 3528 0034 2046     		mov	r0, r4
 3529 0036 FFF7FEFF 		bl	VL53L1_set_GPIO_thresholds_from_struct
 3530 003a BDE83840 		pop	{r3, r4, r5, lr}
 3531 003e 04B0     		add	sp, sp, #16
 3532 0040 7047     		bx	lr
 3534              		.section	.text.VL53L1_get_GPIO_interrupt_config,"ax",%progbits
 3535              		.align	1
 3536              		.global	VL53L1_get_GPIO_interrupt_config
 3537              		.syntax unified
 3538              		.thumb
 3539              		.thumb_func
 3541              	VL53L1_get_GPIO_interrupt_config:
 3542              		@ args = 0, pretend = 0, frame = 16
 3543              		@ frame_needed = 0, uses_anonymous_args = 0
 3544 0000 30B5     		push	{r4, r5, lr}
 3545 0002 85B0     		sub	sp, sp, #20
 3546 0004 0446     		mov	r4, r0
 3547 0006 0D46     		mov	r5, r1
 3548 0008 90F88013 		ldrb	r1, [r0, #896]	@ zero_extendqisi2
 3549 000c 6846     		mov	r0, sp
 3550 000e FFF7FEFF 		bl	VL53L1_decode_GPIO_interrupt_config
 3551 0012 0099     		ldr	r1, [sp]	@ unaligned
 3552 0014 019A     		ldr	r2, [sp, #4]	@ unaligned
 3553 0016 029B     		ldr	r3, [sp, #8]	@ unaligned
 3554 0018 C4F85210 		str	r1, [r4, #82]	@ unaligned
 3555 001c C4F85620 		str	r2, [r4, #86]	@ unaligned
 3556 0020 C4F85A30 		str	r3, [r4, #90]	@ unaligned
 3557 0024 BDF80C30 		ldrh	r3, [sp, #12]	@ unaligned
ARM GAS  C:\Temp\ccrtA2Jt.s 			page 61


 3558 0028 A4F85E30 		strh	r3, [r4, #94]	@ unaligned
 3559 002c B4F8AE33 		ldrh	r3, [r4, #942]
 3560 0030 A4F85830 		strh	r3, [r4, #88]	@ movhi
 3561 0034 B4F8B033 		ldrh	r3, [r4, #944]
 3562 0038 A4F85A30 		strh	r3, [r4, #90]	@ movhi
 3563 003c B4F88A33 		ldrh	r3, [r4, #906]
 3564 0040 A4F85C30 		strh	r3, [r4, #92]	@ movhi
 3565 0044 B4F88C33 		ldrh	r3, [r4, #908]
 3566 0048 A4F85E30 		strh	r3, [r4, #94]	@ movhi
 3567 004c 04F15203 		add	r3, r4, #82
 3568 0050 AB42     		cmp	r3, r5
 3569 0052 0BD0     		beq	.L340
 3570 0054 D4F85200 		ldr	r0, [r4, #82]	@ unaligned
 3571 0058 D4F85610 		ldr	r1, [r4, #86]	@ unaligned
 3572 005c D4F85A20 		ldr	r2, [r4, #90]	@ unaligned
 3573 0060 2860     		str	r0, [r5]	@ unaligned
 3574 0062 6960     		str	r1, [r5, #4]	@ unaligned
 3575 0064 AA60     		str	r2, [r5, #8]	@ unaligned
 3576 0066 B4F85E30 		ldrh	r3, [r4, #94]	@ unaligned
 3577 006a AB81     		strh	r3, [r5, #12]	@ unaligned
 3578              	.L340:
 3579 006c 0020     		movs	r0, #0
 3580 006e 05B0     		add	sp, sp, #20
 3581              		@ sp needed
 3582 0070 30BD     		pop	{r4, r5, pc}
 3584              		.section	.text.VL53L1_set_dmax_mode,"ax",%progbits
 3585              		.align	1
 3586              		.global	VL53L1_set_dmax_mode
 3587              		.syntax unified
 3588              		.thumb
 3589              		.thumb_func
 3591              	VL53L1_set_dmax_mode:
 3592              		@ args = 0, pretend = 0, frame = 0
 3593              		@ frame_needed = 0, uses_anonymous_args = 0
 3594              		@ link register save eliminated.
 3595 0000 8177     		strb	r1, [r0, #30]
 3596 0002 0020     		movs	r0, #0
 3597 0004 7047     		bx	lr
 3599              		.section	.text.VL53L1_get_dmax_mode,"ax",%progbits
 3600              		.align	1
 3601              		.global	VL53L1_get_dmax_mode
 3602              		.syntax unified
 3603              		.thumb
 3604              		.thumb_func
 3606              	VL53L1_get_dmax_mode:
 3607              		@ args = 0, pretend = 0, frame = 0
 3608              		@ frame_needed = 0, uses_anonymous_args = 0
 3609              		@ link register save eliminated.
 3610 0000 837F     		ldrb	r3, [r0, #30]	@ zero_extendqisi2
 3611 0002 0B70     		strb	r3, [r1]
 3612 0004 0020     		movs	r0, #0
 3613 0006 7047     		bx	lr
 3615              		.section	.text.VL53L1_get_dmax_calibration_data,"ax",%progbits
 3616              		.align	1
 3617              		.global	VL53L1_get_dmax_calibration_data
 3618              		.syntax unified
 3619              		.thumb
ARM GAS  C:\Temp\ccrtA2Jt.s 			page 62


 3620              		.thumb_func
 3622              	VL53L1_get_dmax_calibration_data:
 3623              		@ args = 0, pretend = 0, frame = 0
 3624              		@ frame_needed = 0, uses_anonymous_args = 0
 3625              		@ link register save eliminated.
 3626 0000 0229     		cmp	r1, #2
 3627 0002 21D0     		beq	.L345
 3628 0004 0329     		cmp	r1, #3
 3629 0006 04D0     		beq	.L346
 3630 0008 0129     		cmp	r1, #1
 3631 000a 28D0     		beq	.L347
 3632 000c 6FF00300 		mvn	r0, #3
 3633 0010 7047     		bx	lr
 3634              	.L346:
 3635 0012 00F5C040 		add	r0, r0, #24576
 3636 0016 C2EBC201 		rsb	r1, r2, r2, lsl #3
 3637 001a 00EB8101 		add	r1, r0, r1, lsl #2
 3638 001e B1F8941D 		ldrh	r1, [r1, #3476]
 3639 0022 1980     		strh	r1, [r3]	@ movhi
 3640 0024 C2EBC202 		rsb	r2, r2, r2, lsl #3
 3641 0028 00EB8202 		add	r2, r0, r2, lsl #2
 3642 002c B2F8982D 		ldrh	r2, [r2, #3480]
 3643 0030 5A80     		strh	r2, [r3, #2]	@ movhi
 3644 0032 B0F8822D 		ldrh	r2, [r0, #3458]
 3645 0036 9A80     		strh	r2, [r3, #4]	@ movhi
 3646 0038 B0F8842D 		ldrh	r2, [r0, #3460]
 3647 003c DA80     		strh	r2, [r3, #6]	@ movhi
 3648 003e 4FF48072 		mov	r2, #256
 3649 0042 1A81     		strh	r2, [r3, #8]	@ movhi
 3650 0044 0020     		movs	r0, #0
 3651 0046 7047     		bx	lr
 3652              	.L345:
 3653 0048 D0F8C610 		ldr	r1, [r0, #198]	@ unaligned
 3654 004c D0F8CA20 		ldr	r2, [r0, #202]	@ unaligned
 3655 0050 1960     		str	r1, [r3]	@ unaligned
 3656 0052 5A60     		str	r2, [r3, #4]	@ unaligned
 3657 0054 B0F8CE20 		ldrh	r2, [r0, #206]	@ unaligned
 3658 0058 1A81     		strh	r2, [r3, #8]	@ unaligned
 3659 005a 0020     		movs	r0, #0
 3660 005c 7047     		bx	lr
 3661              	.L347:
 3662 005e D0F8BC10 		ldr	r1, [r0, #188]	@ unaligned
 3663 0062 D0F8C020 		ldr	r2, [r0, #192]	@ unaligned
 3664 0066 1960     		str	r1, [r3]	@ unaligned
 3665 0068 5A60     		str	r2, [r3, #4]	@ unaligned
 3666 006a B0F8C420 		ldrh	r2, [r0, #196]	@ unaligned
 3667 006e 1A81     		strh	r2, [r3, #8]	@ unaligned
 3668 0070 0020     		movs	r0, #0
 3669 0072 7047     		bx	lr
 3671              		.section	.text.VL53L1_calc_ambient_dmax,"ax",%progbits
 3672              		.align	1
 3673              		.global	VL53L1_calc_ambient_dmax
 3674              		.syntax unified
 3675              		.thumb
 3676              		.thumb_func
 3678              	VL53L1_calc_ambient_dmax:
 3679              		@ args = 0, pretend = 0, frame = 16
ARM GAS  C:\Temp\ccrtA2Jt.s 			page 63


 3680              		@ frame_needed = 0, uses_anonymous_args = 0
 3681 0000 70B5     		push	{r4, r5, r6, lr}
 3682 0002 86B0     		sub	sp, sp, #24
 3683 0004 0446     		mov	r4, r0
 3684 0006 0D46     		mov	r5, r1
 3685 0008 1646     		mov	r6, r2
 3686 000a 03AB     		add	r3, sp, #12
 3687 000c 90F85120 		ldrb	r2, [r0, #81]	@ zero_extendqisi2
 3688 0010 90F83910 		ldrb	r1, [r0, #57]	@ zero_extendqisi2
 3689 0014 FFF7FEFF 		bl	VL53L1_get_dmax_calibration_data
 3690 0018 08B1     		cbz	r0, .L352
 3691              	.L350:
 3692 001a 06B0     		add	sp, sp, #24
 3693              		@ sp needed
 3694 001c 70BD     		pop	{r4, r5, r6, pc}
 3695              	.L352:
 3696 001e 0196     		str	r6, [sp, #4]
 3697 0020 04F22443 		addw	r3, r4, #1060
 3698 0024 0093     		str	r3, [sp]
 3699 0026 04F52D73 		add	r3, r4, #692
 3700 002a 04F1BC02 		add	r2, r4, #188
 3701 002e 2946     		mov	r1, r5
 3702 0030 2046     		mov	r0, r4
 3703 0032 FFF7FEFF 		bl	VL53L1_ipp_hist_ambient_dmax
 3704 0036 F0E7     		b	.L350
 3706              		.section	.text.VL53L1_set_hist_dmax_config,"ax",%progbits
 3707              		.align	1
 3708              		.global	VL53L1_set_hist_dmax_config
 3709              		.syntax unified
 3710              		.thumb
 3711              		.thumb_func
 3713              	VL53L1_set_hist_dmax_config:
 3714              		@ args = 0, pretend = 0, frame = 0
 3715              		@ frame_needed = 0, uses_anonymous_args = 0
 3716 0000 00B5     		push	{lr}
 3717 0002 D1F800C0 		ldr	ip, [r1]	@ unaligned
 3718 0006 4A68     		ldr	r2, [r1, #4]	@ unaligned
 3719 0008 8B68     		ldr	r3, [r1, #8]	@ unaligned
 3720 000a D1F80CE0 		ldr	lr, [r1, #12]	@ unaligned
 3721 000e C0F8B4C2 		str	ip, [r0, #692]	@ unaligned
 3722 0012 C0F8B822 		str	r2, [r0, #696]	@ unaligned
 3723 0016 C0F8BC32 		str	r3, [r0, #700]	@ unaligned
 3724 001a C0F8C0E2 		str	lr, [r0, #704]	@ unaligned
 3725 001e D1F810C0 		ldr	ip, [r1, #16]	@ unaligned
 3726 0022 4A69     		ldr	r2, [r1, #20]	@ unaligned
 3727 0024 8B69     		ldr	r3, [r1, #24]	@ unaligned
 3728 0026 C0F8C4C2 		str	ip, [r0, #708]	@ unaligned
 3729 002a C0F8C822 		str	r2, [r0, #712]	@ unaligned
 3730 002e C0F8CC32 		str	r3, [r0, #716]	@ unaligned
 3731 0032 0020     		movs	r0, #0
 3732 0034 5DF804FB 		ldr	pc, [sp], #4
 3734              		.section	.text.VL53L1_get_hist_dmax_config,"ax",%progbits
 3735              		.align	1
 3736              		.global	VL53L1_get_hist_dmax_config
 3737              		.syntax unified
 3738              		.thumb
 3739              		.thumb_func
ARM GAS  C:\Temp\ccrtA2Jt.s 			page 64


 3741              	VL53L1_get_hist_dmax_config:
 3742              		@ args = 0, pretend = 0, frame = 0
 3743              		@ frame_needed = 0, uses_anonymous_args = 0
 3744 0000 00B5     		push	{lr}
 3745 0002 D0F8B4C2 		ldr	ip, [r0, #692]	@ unaligned
 3746 0006 D0F8B822 		ldr	r2, [r0, #696]	@ unaligned
 3747 000a D0F8BC32 		ldr	r3, [r0, #700]	@ unaligned
 3748 000e D0F8C0E2 		ldr	lr, [r0, #704]	@ unaligned
 3749 0012 C1F800C0 		str	ip, [r1]	@ unaligned
 3750 0016 4A60     		str	r2, [r1, #4]	@ unaligned
 3751 0018 8B60     		str	r3, [r1, #8]	@ unaligned
 3752 001a C1F80CE0 		str	lr, [r1, #12]	@ unaligned
 3753 001e D0F8C4C2 		ldr	ip, [r0, #708]	@ unaligned
 3754 0022 D0F8C822 		ldr	r2, [r0, #712]	@ unaligned
 3755 0026 D0F8CC32 		ldr	r3, [r0, #716]	@ unaligned
 3756 002a C1F810C0 		str	ip, [r1, #16]	@ unaligned
 3757 002e 4A61     		str	r2, [r1, #20]	@ unaligned
 3758 0030 8B61     		str	r3, [r1, #24]	@ unaligned
 3759 0032 0020     		movs	r0, #0
 3760 0034 5DF804FB 		ldr	pc, [sp], #4
 3762              		.section	.text.VL53L1_set_offset_calibration_mode,"ax",%progbits
 3763              		.align	1
 3764              		.global	VL53L1_set_offset_calibration_mode
 3765              		.syntax unified
 3766              		.thumb
 3767              		.thumb_func
 3769              	VL53L1_set_offset_calibration_mode:
 3770              		@ args = 0, pretend = 0, frame = 0
 3771              		@ frame_needed = 0, uses_anonymous_args = 0
 3772              		@ link register save eliminated.
 3773 0000 0177     		strb	r1, [r0, #28]
 3774 0002 0020     		movs	r0, #0
 3775 0004 7047     		bx	lr
 3777              		.section	.text.VL53L1_get_offset_calibration_mode,"ax",%progbits
 3778              		.align	1
 3779              		.global	VL53L1_get_offset_calibration_mode
 3780              		.syntax unified
 3781              		.thumb
 3782              		.thumb_func
 3784              	VL53L1_get_offset_calibration_mode:
 3785              		@ args = 0, pretend = 0, frame = 0
 3786              		@ frame_needed = 0, uses_anonymous_args = 0
 3787              		@ link register save eliminated.
 3788 0000 037F     		ldrb	r3, [r0, #28]	@ zero_extendqisi2
 3789 0002 0B70     		strb	r3, [r1]
 3790 0004 0020     		movs	r0, #0
 3791 0006 7047     		bx	lr
 3793              		.section	.text.VL53L1_set_offset_correction_mode,"ax",%progbits
 3794              		.align	1
 3795              		.global	VL53L1_set_offset_correction_mode
 3796              		.syntax unified
 3797              		.thumb
 3798              		.thumb_func
 3800              	VL53L1_set_offset_correction_mode:
 3801              		@ args = 0, pretend = 0, frame = 0
 3802              		@ frame_needed = 0, uses_anonymous_args = 0
 3803              		@ link register save eliminated.
ARM GAS  C:\Temp\ccrtA2Jt.s 			page 65


 3804 0000 4177     		strb	r1, [r0, #29]
 3805 0002 0020     		movs	r0, #0
 3806 0004 7047     		bx	lr
 3808              		.section	.text.VL53L1_get_offset_correction_mode,"ax",%progbits
 3809              		.align	1
 3810              		.global	VL53L1_get_offset_correction_mode
 3811              		.syntax unified
 3812              		.thumb
 3813              		.thumb_func
 3815              	VL53L1_get_offset_correction_mode:
 3816              		@ args = 0, pretend = 0, frame = 0
 3817              		@ frame_needed = 0, uses_anonymous_args = 0
 3818              		@ link register save eliminated.
 3819 0000 437F     		ldrb	r3, [r0, #29]	@ zero_extendqisi2
 3820 0002 0B70     		strb	r3, [r1]
 3821 0004 0020     		movs	r0, #0
 3822 0006 7047     		bx	lr
 3824              		.section	.text.VL53L1_set_zone_calibration_data,"ax",%progbits
 3825              		.align	1
 3826              		.global	VL53L1_set_zone_calibration_data
 3827              		.syntax unified
 3828              		.thumb
 3829              		.thumb_func
 3831              	VL53L1_set_zone_calibration_data:
 3832              		@ args = 0, pretend = 0, frame = 0
 3833              		@ frame_needed = 0, uses_anonymous_args = 0
 3834 0000 08B5     		push	{r3, lr}
 3835 0002 0A68     		ldr	r2, [r1]
 3836 0004 074B     		ldr	r3, .L365
 3837 0006 9A42     		cmp	r2, r3
 3838 0008 08D1     		bne	.L363
 3839 000a 4FF4EA72 		mov	r2, #468
 3840 000e 00F5DA40 		add	r0, r0, #27904
 3841 0012 7C30     		adds	r0, r0, #124
 3842 0014 FFF7FEFF 		bl	memcpy
 3843 0018 0020     		movs	r0, #0
 3844              	.L362:
 3845 001a 08BD     		pop	{r3, pc}
 3846              	.L363:
 3847 001c 6FF00300 		mvn	r0, #3
 3848 0020 FBE7     		b	.L362
 3849              	.L366:
 3850 0022 00BF     		.align	2
 3851              	.L365:
 3852 0024 0101AEEC 		.word	-324140799
 3854              		.section	.text.VL53L1_get_zone_calibration_data,"ax",%progbits
 3855              		.align	1
 3856              		.global	VL53L1_get_zone_calibration_data
 3857              		.syntax unified
 3858              		.thumb
 3859              		.thumb_func
 3861              	VL53L1_get_zone_calibration_data:
 3862              		@ args = 0, pretend = 0, frame = 0
 3863              		@ frame_needed = 0, uses_anonymous_args = 0
 3864 0000 10B5     		push	{r4, lr}
 3865 0002 0C46     		mov	r4, r1
 3866 0004 4FF4EA72 		mov	r2, #468
ARM GAS  C:\Temp\ccrtA2Jt.s 			page 66


 3867 0008 00F5DA41 		add	r1, r0, #27904
 3868 000c 7C31     		adds	r1, r1, #124
 3869 000e 2046     		mov	r0, r4
 3870 0010 FFF7FEFF 		bl	memcpy
 3871 0014 014B     		ldr	r3, .L369
 3872 0016 2360     		str	r3, [r4]
 3873 0018 0020     		movs	r0, #0
 3874 001a 10BD     		pop	{r4, pc}
 3875              	.L370:
 3876              		.align	2
 3877              	.L369:
 3878 001c 0101AEEC 		.word	-324140799
 3880              		.section	.text.VL53L1_get_tuning_debug_data,"ax",%progbits
 3881              		.align	1
 3882              		.global	VL53L1_get_tuning_debug_data
 3883              		.syntax unified
 3884              		.thumb
 3885              		.thumb_func
 3887              	VL53L1_get_tuning_debug_data:
 3888              		@ args = 0, pretend = 0, frame = 0
 3889              		@ frame_needed = 0, uses_anonymous_args = 0
 3890              		@ link register save eliminated.
 3891 0000 B0F84831 		ldrh	r3, [r0, #328]
 3892 0004 0B80     		strh	r3, [r1]	@ movhi
 3893 0006 B0F84A31 		ldrh	r3, [r0, #330]
 3894 000a 4B80     		strh	r3, [r1, #2]	@ movhi
 3895 000c B0F84C31 		ldrh	r3, [r0, #332]
 3896 0010 8B80     		strh	r3, [r1, #4]	@ movhi
 3897 0012 90F87432 		ldrb	r3, [r0, #628]	@ zero_extendqisi2
 3898 0016 8B71     		strb	r3, [r1, #6]
 3899 0018 90F87532 		ldrb	r3, [r0, #629]	@ zero_extendqisi2
 3900 001c CB71     		strb	r3, [r1, #7]
 3901 001e 90F87632 		ldrb	r3, [r0, #630]	@ zero_extendqisi2
 3902 0022 0B72     		strb	r3, [r1, #8]
 3903 0024 90F87732 		ldrb	r3, [r0, #631]	@ zero_extendqisi2
 3904 0028 4B72     		strb	r3, [r1, #9]
 3905 002a 90F87832 		ldrb	r3, [r0, #632]	@ zero_extendqisi2
 3906 002e 8B72     		strb	r3, [r1, #10]
 3907 0030 90F87932 		ldrb	r3, [r0, #633]	@ zero_extendqisi2
 3908 0034 CB72     		strb	r3, [r1, #11]
 3909 0036 90F87A32 		ldrb	r3, [r0, #634]	@ zero_extendqisi2
 3910 003a 0B73     		strb	r3, [r1, #12]
 3911 003c D0F88032 		ldr	r3, [r0, #640]
 3912 0040 0B61     		str	r3, [r1, #16]
 3913 0042 B0F87C32 		ldrh	r3, [r0, #636]
 3914 0046 8B82     		strh	r3, [r1, #20]	@ movhi
 3915 0048 B0F88432 		ldrh	r3, [r0, #644]
 3916 004c CB82     		strh	r3, [r1, #22]	@ movhi
 3917 004e D0F88832 		ldr	r3, [r0, #648]
 3918 0052 8B61     		str	r3, [r1, #24]
 3919 0054 90F88C32 		ldrb	r3, [r0, #652]	@ zero_extendqisi2
 3920 0058 0B77     		strb	r3, [r1, #28]
 3921 005a B0F88E32 		ldrh	r3, [r0, #654]
 3922 005e CB83     		strh	r3, [r1, #30]	@ movhi
 3923 0060 B0F8D230 		ldrh	r3, [r0, #210]
 3924 0064 0B84     		strh	r3, [r1, #32]	@ movhi
 3925 0066 90F89632 		ldrb	r3, [r0, #662]	@ zero_extendqisi2
ARM GAS  C:\Temp\ccrtA2Jt.s 			page 67


 3926 006a 81F82230 		strb	r3, [r1, #34]
 3927 006e B0F89A32 		ldrh	r3, [r0, #666]
 3928 0072 8B84     		strh	r3, [r1, #36]	@ movhi
 3929 0074 90F89732 		ldrb	r3, [r0, #663]	@ zero_extendqisi2
 3930 0078 81F82630 		strb	r3, [r1, #38]
 3931 007c B0F89832 		ldrh	r3, [r0, #664]
 3932 0080 0B85     		strh	r3, [r1, #40]	@ movhi
 3933 0082 90F85431 		ldrb	r3, [r0, #340]	@ zero_extendqisi2
 3934 0086 81F82A30 		strb	r3, [r1, #42]
 3935 008a 90F85531 		ldrb	r3, [r0, #341]	@ zero_extendqisi2
 3936 008e 81F82B30 		strb	r3, [r1, #43]
 3937 0092 90F85631 		ldrb	r3, [r0, #342]	@ zero_extendqisi2
 3938 0096 81F82C30 		strb	r3, [r1, #44]
 3939 009a 90F85731 		ldrb	r3, [r0, #343]	@ zero_extendqisi2
 3940 009e 81F82D30 		strb	r3, [r1, #45]
 3941 00a2 90F85831 		ldrb	r3, [r0, #344]	@ zero_extendqisi2
 3942 00a6 81F82E30 		strb	r3, [r1, #46]
 3943 00aa 90F85931 		ldrb	r3, [r0, #345]	@ zero_extendqisi2
 3944 00ae 81F82F30 		strb	r3, [r1, #47]
 3945 00b2 B0F90633 		ldrsh	r3, [r0, #774]
 3946 00b6 0B86     		strh	r3, [r1, #48]	@ movhi
 3947 00b8 B0F90833 		ldrsh	r3, [r0, #776]
 3948 00bc 4B86     		strh	r3, [r1, #50]	@ movhi
 3949 00be B0F80C33 		ldrh	r3, [r0, #780]
 3950 00c2 8B86     		strh	r3, [r1, #52]	@ movhi
 3951 00c4 B0F8B232 		ldrh	r3, [r0, #690]
 3952 00c8 CB86     		strh	r3, [r1, #54]	@ movhi
 3953 00ca B0F80A33 		ldrh	r3, [r0, #778]
 3954 00ce 0B87     		strh	r3, [r1, #56]	@ movhi
 3955 00d0 90F8B032 		ldrb	r3, [r0, #688]	@ zero_extendqisi2
 3956 00d4 81F83A30 		strb	r3, [r1, #58]
 3957 00d8 B0F9FE32 		ldrsh	r3, [r0, #766]
 3958 00dc 8B87     		strh	r3, [r1, #60]	@ movhi
 3959 00de 90F85A31 		ldrb	r3, [r0, #346]	@ zero_extendqisi2
 3960 00e2 81F83E30 		strb	r3, [r1, #62]
 3961 00e6 90F85B31 		ldrb	r3, [r0, #347]	@ zero_extendqisi2
 3962 00ea 81F83F30 		strb	r3, [r1, #63]
 3963 00ee B0F85C31 		ldrh	r3, [r0, #348]
 3964 00f2 A1F84030 		strh	r3, [r1, #64]	@ movhi
 3965 00f6 B0F8D030 		ldrh	r3, [r0, #208]
 3966 00fa A1F84230 		strh	r3, [r1, #66]	@ movhi
 3967 00fe 90F85E31 		ldrb	r3, [r0, #350]	@ zero_extendqisi2
 3968 0102 81F84430 		strb	r3, [r1, #68]
 3969 0106 B0F86031 		ldrh	r3, [r0, #352]
 3970 010a A1F84630 		strh	r3, [r1, #70]	@ movhi
 3971 010e B0F86231 		ldrh	r3, [r0, #354]
 3972 0112 A1F84830 		strh	r3, [r1, #72]	@ movhi
 3973 0116 B0F86431 		ldrh	r3, [r0, #356]
 3974 011a A1F84A30 		strh	r3, [r1, #74]	@ movhi
 3975 011e B0F86631 		ldrh	r3, [r0, #358]
 3976 0122 A1F84C30 		strh	r3, [r1, #76]	@ movhi
 3977 0126 B0F86831 		ldrh	r3, [r0, #360]
 3978 012a A1F84E30 		strh	r3, [r1, #78]	@ movhi
 3979 012e B0F86A31 		ldrh	r3, [r0, #362]
 3980 0132 A1F85030 		strh	r3, [r1, #80]	@ movhi
 3981 0136 90F86C31 		ldrb	r3, [r0, #364]	@ zero_extendqisi2
 3982 013a 81F85230 		strb	r3, [r1, #82]
ARM GAS  C:\Temp\ccrtA2Jt.s 			page 68


 3983 013e 90F86D31 		ldrb	r3, [r0, #365]	@ zero_extendqisi2
 3984 0142 81F85330 		strb	r3, [r1, #83]
 3985 0146 90F86E31 		ldrb	r3, [r0, #366]	@ zero_extendqisi2
 3986 014a 81F85430 		strb	r3, [r1, #84]
 3987 014e 90F80233 		ldrb	r3, [r0, #770]	@ zero_extendqisi2
 3988 0152 81F85530 		strb	r3, [r1, #85]
 3989 0156 90F86F31 		ldrb	r3, [r0, #367]	@ zero_extendqisi2
 3990 015a 81F85630 		strb	r3, [r1, #86]
 3991 015e 90F87131 		ldrb	r3, [r0, #369]	@ zero_extendqisi2
 3992 0162 81F85730 		strb	r3, [r1, #87]
 3993 0166 90F87231 		ldrb	r3, [r0, #370]	@ zero_extendqisi2
 3994 016a 81F85830 		strb	r3, [r1, #88]
 3995 016e B0F90033 		ldrsh	r3, [r0, #768]
 3996 0172 A1F85A30 		strh	r3, [r1, #90]	@ movhi
 3997 0176 90F84E31 		ldrb	r3, [r0, #334]	@ zero_extendqisi2
 3998 017a 81F85C30 		strb	r3, [r1, #92]
 3999 017e 90F84F31 		ldrb	r3, [r0, #335]	@ zero_extendqisi2
 4000 0182 81F85D30 		strb	r3, [r1, #93]
 4001 0186 90F85031 		ldrb	r3, [r0, #336]	@ zero_extendqisi2
 4002 018a 81F85E30 		strb	r3, [r1, #94]
 4003 018e 90F85131 		ldrb	r3, [r0, #337]	@ zero_extendqisi2
 4004 0192 81F85F30 		strb	r3, [r1, #95]
 4005 0196 90F85231 		ldrb	r3, [r0, #338]	@ zero_extendqisi2
 4006 019a 81F86030 		strb	r3, [r1, #96]
 4007 019e 90F85331 		ldrb	r3, [r0, #339]	@ zero_extendqisi2
 4008 01a2 81F86130 		strb	r3, [r1, #97]
 4009 01a6 90F87031 		ldrb	r3, [r0, #368]	@ zero_extendqisi2
 4010 01aa 81F86230 		strb	r3, [r1, #98]
 4011 01ae 90F8B432 		ldrb	r3, [r0, #692]	@ zero_extendqisi2
 4012 01b2 81F86330 		strb	r3, [r1, #99]
 4013 01b6 B0F8C032 		ldrh	r3, [r0, #704]
 4014 01ba A1F86430 		strh	r3, [r1, #100]	@ movhi
 4015 01be B0F8C232 		ldrh	r3, [r0, #706]
 4016 01c2 A1F86630 		strh	r3, [r1, #102]	@ movhi
 4017 01c6 B0F8C432 		ldrh	r3, [r0, #708]
 4018 01ca A1F86830 		strh	r3, [r1, #104]	@ movhi
 4019 01ce B0F8C632 		ldrh	r3, [r0, #710]
 4020 01d2 A1F86A30 		strh	r3, [r1, #106]	@ movhi
 4021 01d6 B0F8C832 		ldrh	r3, [r0, #712]
 4022 01da A1F86C30 		strh	r3, [r1, #108]	@ movhi
 4023 01de 90F84033 		ldrb	r3, [r0, #832]	@ zero_extendqisi2
 4024 01e2 81F86E30 		strb	r3, [r1, #110]
 4025 01e6 90F85832 		ldrb	r3, [r0, #600]	@ zero_extendqisi2
 4026 01ea 81F86F30 		strb	r3, [r1, #111]
 4027 01ee 90F85932 		ldrb	r3, [r0, #601]	@ zero_extendqisi2
 4028 01f2 81F87030 		strb	r3, [r1, #112]
 4029 01f6 D0F85C32 		ldr	r3, [r0, #604]
 4030 01fa 4B67     		str	r3, [r1, #116]
 4031 01fc B0F86032 		ldrh	r3, [r0, #608]
 4032 0200 A1F87830 		strh	r3, [r1, #120]	@ movhi
 4033 0204 B0F86232 		ldrh	r3, [r0, #610]
 4034 0208 A1F87A30 		strh	r3, [r1, #122]	@ movhi
 4035 020c B0F86432 		ldrh	r3, [r0, #612]
 4036 0210 A1F87C30 		strh	r3, [r1, #124]	@ movhi
 4037 0214 90F8E032 		ldrb	r3, [r0, #736]	@ zero_extendqisi2
 4038 0218 81F87E30 		strb	r3, [r1, #126]
 4039 021c B0F9E232 		ldrsh	r3, [r0, #738]
ARM GAS  C:\Temp\ccrtA2Jt.s 			page 69


 4040 0220 A1F88030 		strh	r3, [r1, #128]	@ movhi
 4041 0224 B0F9E432 		ldrsh	r3, [r0, #740]
 4042 0228 A1F88230 		strh	r3, [r1, #130]	@ movhi
 4043 022c B0F8D032 		ldrh	r3, [r0, #720]
 4044 0230 A1F88430 		strh	r3, [r1, #132]	@ movhi
 4045 0234 D0F8D432 		ldr	r3, [r0, #724]
 4046 0238 C1F88830 		str	r3, [r1, #136]
 4047 023c B0F8E632 		ldrh	r3, [r0, #742]
 4048 0240 A1F88C30 		strh	r3, [r1, #140]	@ movhi
 4049 0244 B0F8E832 		ldrh	r3, [r0, #744]
 4050 0248 A1F88E30 		strh	r3, [r1, #142]	@ movhi
 4051 024c D0F8D832 		ldr	r3, [r0, #728]
 4052 0250 C1F89030 		str	r3, [r1, #144]
 4053 0254 D0F8DC32 		ldr	r3, [r0, #732]
 4054 0258 C1F89430 		str	r3, [r1, #148]
 4055 025c B0F81033 		ldrh	r3, [r0, #784]
 4056 0260 A1F89830 		strh	r3, [r1, #152]	@ movhi
 4057 0264 D0F81433 		ldr	r3, [r0, #788]
 4058 0268 C1F89C30 		str	r3, [r1, #156]
 4059 026c D0F81C33 		ldr	r3, [r0, #796]
 4060 0270 C1F8A030 		str	r3, [r1, #160]
 4061 0274 D0F81833 		ldr	r3, [r0, #792]
 4062 0278 C1F8A430 		str	r3, [r1, #164]
 4063 027c 90F82033 		ldrb	r3, [r0, #800]	@ zero_extendqisi2
 4064 0280 81F8A830 		strb	r3, [r1, #168]
 4065 0284 90F82133 		ldrb	r3, [r0, #801]	@ zero_extendqisi2
 4066 0288 81F8A930 		strb	r3, [r1, #169]
 4067 028c 90F82233 		ldrb	r3, [r0, #802]	@ zero_extendqisi2
 4068 0290 81F8AA30 		strb	r3, [r1, #170]
 4069 0294 B0F82433 		ldrh	r3, [r0, #804]
 4070 0298 A1F8AC30 		strh	r3, [r1, #172]	@ movhi
 4071 029c D0F82833 		ldr	r3, [r0, #808]
 4072 02a0 C1F8B030 		str	r3, [r1, #176]
 4073 02a4 D0F82C33 		ldr	r3, [r0, #812]
 4074 02a8 C1F8B430 		str	r3, [r1, #180]
 4075 02ac B0F83433 		ldrh	r3, [r0, #820]
 4076 02b0 A1F8B830 		strh	r3, [r1, #184]	@ movhi
 4077 02b4 D0F83033 		ldr	r3, [r0, #816]
 4078 02b8 C1F8BC30 		str	r3, [r1, #188]
 4079 02bc B0F83633 		ldrh	r3, [r0, #822]
 4080 02c0 A1F8C030 		strh	r3, [r1, #192]	@ movhi
 4081 02c4 90F86932 		ldrb	r3, [r0, #617]	@ zero_extendqisi2
 4082 02c8 81F8C230 		strb	r3, [r1, #194]
 4083 02cc 90F86A32 		ldrb	r3, [r0, #618]	@ zero_extendqisi2
 4084 02d0 81F8C330 		strb	r3, [r1, #195]
 4085 02d4 B0F87032 		ldrh	r3, [r0, #624]
 4086 02d8 A1F8C430 		strh	r3, [r1, #196]	@ movhi
 4087 02dc B0F87431 		ldrh	r3, [r0, #372]
 4088 02e0 A1F8C630 		strh	r3, [r1, #198]	@ movhi
 4089 02e4 B0F87631 		ldrh	r3, [r0, #374]
 4090 02e8 A1F8C830 		strh	r3, [r1, #200]	@ movhi
 4091 02ec B0F87831 		ldrh	r3, [r0, #376]
 4092 02f0 A1F8CA30 		strh	r3, [r1, #202]	@ movhi
 4093 02f4 B0F87A31 		ldrh	r3, [r0, #378]
 4094 02f8 A1F8CC30 		strh	r3, [r1, #204]	@ movhi
 4095 02fc D0F88031 		ldr	r3, [r0, #384]
 4096 0300 C1F8D030 		str	r3, [r1, #208]
ARM GAS  C:\Temp\ccrtA2Jt.s 			page 70


 4097 0304 D0F88431 		ldr	r3, [r0, #388]
 4098 0308 C1F8D430 		str	r3, [r1, #212]
 4099 030c D0F88831 		ldr	r3, [r0, #392]
 4100 0310 C1F8D830 		str	r3, [r1, #216]
 4101 0314 D0F88C31 		ldr	r3, [r0, #396]
 4102 0318 C1F8DC30 		str	r3, [r1, #220]
 4103 031c D0F89031 		ldr	r3, [r0, #400]
 4104 0320 C1F8E030 		str	r3, [r1, #224]
 4105 0324 D0F89431 		ldr	r3, [r0, #404]
 4106 0328 C1F8E430 		str	r3, [r1, #228]
 4107 032c D0F89831 		ldr	r3, [r0, #408]
 4108 0330 C1F8E830 		str	r3, [r1, #232]
 4109 0334 D0F89C31 		ldr	r3, [r0, #412]
 4110 0338 C1F8EC30 		str	r3, [r1, #236]
 4111 033c D0F8A031 		ldr	r3, [r0, #416]
 4112 0340 C1F8F030 		str	r3, [r1, #240]
 4113 0344 D0F8A431 		ldr	r3, [r0, #420]
 4114 0348 C1F8F430 		str	r3, [r1, #244]
 4115 034c D0F8A831 		ldr	r3, [r0, #424]
 4116 0350 C1F8F830 		str	r3, [r1, #248]
 4117 0354 D0F8AC31 		ldr	r3, [r0, #428]
 4118 0358 C1F8FC30 		str	r3, [r1, #252]
 4119 035c D0F8B431 		ldr	r3, [r0, #436]
 4120 0360 C1F80031 		str	r3, [r1, #256]
 4121 0364 D0F8B831 		ldr	r3, [r0, #440]
 4122 0368 C1F80431 		str	r3, [r1, #260]
 4123 036c D0F8BC31 		ldr	r3, [r0, #444]
 4124 0370 C1F80831 		str	r3, [r1, #264]
 4125 0374 D0F8C031 		ldr	r3, [r0, #448]
 4126 0378 C1F80C31 		str	r3, [r1, #268]
 4127 037c 00F58053 		add	r3, r0, #4096
 4128 0380 B3F8F823 		ldrh	r2, [r3, #1016]
 4129 0384 A1F81021 		strh	r2, [r1, #272]	@ movhi
 4130 0388 D3F8FC23 		ldr	r2, [r3, #1020]
 4131 038c C1F81421 		str	r2, [r1, #276]
 4132 0390 D3F80024 		ldr	r2, [r3, #1024]
 4133 0394 C1F81821 		str	r2, [r1, #280]
 4134 0398 93F80424 		ldrb	r2, [r3, #1028]	@ zero_extendqisi2
 4135 039c 81F81C21 		strb	r2, [r1, #284]
 4136 03a0 D3F80824 		ldr	r2, [r3, #1032]
 4137 03a4 C1F82021 		str	r2, [r1, #288]
 4138 03a8 D3F80C24 		ldr	r2, [r3, #1036]
 4139 03ac C1F82421 		str	r2, [r1, #292]
 4140 03b0 D3F81024 		ldr	r2, [r3, #1040]
 4141 03b4 C1F82821 		str	r2, [r1, #296]
 4142 03b8 D3F81424 		ldr	r2, [r3, #1044]
 4143 03bc C1F82C21 		str	r2, [r1, #300]
 4144 03c0 93F81C24 		ldrb	r2, [r3, #1052]	@ zero_extendqisi2
 4145 03c4 81F83021 		strb	r2, [r1, #304]
 4146 03c8 B3F91E24 		ldrsh	r2, [r3, #1054]
 4147 03cc A1F83221 		strh	r2, [r1, #306]	@ movhi
 4148 03d0 B3F92024 		ldrsh	r2, [r3, #1056]
 4149 03d4 A1F83421 		strh	r2, [r1, #308]	@ movhi
 4150 03d8 93F82224 		ldrb	r2, [r3, #1058]	@ zero_extendqisi2
 4151 03dc 81F83621 		strb	r2, [r1, #310]
 4152 03e0 93F8F623 		ldrb	r2, [r3, #1014]	@ zero_extendqisi2
 4153 03e4 81F83721 		strb	r2, [r1, #311]
ARM GAS  C:\Temp\ccrtA2Jt.s 			page 71


 4154 03e8 D3F81824 		ldr	r2, [r3, #1048]
 4155 03ec C1F83821 		str	r2, [r1, #312]
 4156 03f0 D3F82424 		ldr	r2, [r3, #1060]
 4157 03f4 C1F83C21 		str	r2, [r1, #316]
 4158 03f8 D3F82824 		ldr	r2, [r3, #1064]
 4159 03fc C1F84021 		str	r2, [r1, #320]
 4160 0400 D3F82C24 		ldr	r2, [r3, #1068]
 4161 0404 C1F84421 		str	r2, [r1, #324]
 4162 0408 B3F83024 		ldrh	r2, [r3, #1072]
 4163 040c A1F84821 		strh	r2, [r1, #328]	@ movhi
 4164 0410 93F88035 		ldrb	r3, [r3, #1408]	@ zero_extendqisi2
 4165 0414 81F84A31 		strb	r3, [r1, #330]
 4166 0418 D0F8B031 		ldr	r3, [r0, #432]
 4167 041c C1F84C31 		str	r3, [r1, #332]
 4168 0420 D0F8C431 		ldr	r3, [r0, #452]
 4169 0424 C1F85031 		str	r3, [r1, #336]
 4170 0428 B0F87C31 		ldrh	r3, [r0, #380]
 4171 042c A1F85431 		strh	r3, [r1, #340]	@ movhi
 4172 0430 D0F8C831 		ldr	r3, [r0, #456]
 4173 0434 C1F85831 		str	r3, [r1, #344]
 4174 0438 0020     		movs	r0, #0
 4175 043a 7047     		bx	lr
 4177              		.section	.text.VL53L1_get_tuning_parm,"ax",%progbits
 4178              		.align	1
 4179              		.global	VL53L1_get_tuning_parm
 4180              		.syntax unified
 4181              		.thumb
 4182              		.thumb_func
 4184              	VL53L1_get_tuning_parm:
 4185              		@ args = 0, pretend = 0, frame = 0
 4186              		@ frame_needed = 0, uses_anonymous_args = 0
 4187              		@ link register save eliminated.
 4188 0000 A1F50041 		sub	r1, r1, #32768
 4189 0004 C029     		cmp	r1, #192
 4190 0006 00F2B084 		bhi	.L373
 4191 000a DFE811F0 		tbh	[pc, r1, lsl #1]
 4192              	.L375:
 4193 000e C100     		.2byte	(.L567-.L375)/2
 4194 0010 C600     		.2byte	(.L566-.L375)/2
 4195 0012 CB00     		.2byte	(.L565-.L375)/2
 4196 0014 D000     		.2byte	(.L564-.L375)/2
 4197 0016 D500     		.2byte	(.L563-.L375)/2
 4198 0018 DA00     		.2byte	(.L562-.L375)/2
 4199 001a DF00     		.2byte	(.L561-.L375)/2
 4200 001c E400     		.2byte	(.L560-.L375)/2
 4201 001e E900     		.2byte	(.L559-.L375)/2
 4202 0020 EE00     		.2byte	(.L558-.L375)/2
 4203 0022 F300     		.2byte	(.L557-.L375)/2
 4204 0024 F800     		.2byte	(.L556-.L375)/2
 4205 0026 FD00     		.2byte	(.L555-.L375)/2
 4206 0028 0201     		.2byte	(.L554-.L375)/2
 4207 002a 0701     		.2byte	(.L553-.L375)/2
 4208 002c 0C01     		.2byte	(.L552-.L375)/2
 4209 002e 1101     		.2byte	(.L551-.L375)/2
 4210 0030 1601     		.2byte	(.L550-.L375)/2
 4211 0032 1B01     		.2byte	(.L549-.L375)/2
 4212 0034 2001     		.2byte	(.L548-.L375)/2
ARM GAS  C:\Temp\ccrtA2Jt.s 			page 72


 4213 0036 2501     		.2byte	(.L547-.L375)/2
 4214 0038 2A01     		.2byte	(.L546-.L375)/2
 4215 003a 2F01     		.2byte	(.L545-.L375)/2
 4216 003c 3401     		.2byte	(.L544-.L375)/2
 4217 003e 3901     		.2byte	(.L543-.L375)/2
 4218 0040 3E01     		.2byte	(.L542-.L375)/2
 4219 0042 4301     		.2byte	(.L541-.L375)/2
 4220 0044 4801     		.2byte	(.L540-.L375)/2
 4221 0046 4D01     		.2byte	(.L539-.L375)/2
 4222 0048 5201     		.2byte	(.L538-.L375)/2
 4223 004a 5701     		.2byte	(.L537-.L375)/2
 4224 004c 5C01     		.2byte	(.L536-.L375)/2
 4225 004e 6101     		.2byte	(.L535-.L375)/2
 4226 0050 6601     		.2byte	(.L534-.L375)/2
 4227 0052 6B01     		.2byte	(.L533-.L375)/2
 4228 0054 7001     		.2byte	(.L532-.L375)/2
 4229 0056 7501     		.2byte	(.L531-.L375)/2
 4230 0058 7A01     		.2byte	(.L530-.L375)/2
 4231 005a 7F01     		.2byte	(.L529-.L375)/2
 4232 005c 8401     		.2byte	(.L528-.L375)/2
 4233 005e 8901     		.2byte	(.L527-.L375)/2
 4234 0060 8E01     		.2byte	(.L526-.L375)/2
 4235 0062 9301     		.2byte	(.L525-.L375)/2
 4236 0064 9801     		.2byte	(.L524-.L375)/2
 4237 0066 9D01     		.2byte	(.L523-.L375)/2
 4238 0068 A201     		.2byte	(.L522-.L375)/2
 4239 006a A701     		.2byte	(.L521-.L375)/2
 4240 006c AC01     		.2byte	(.L520-.L375)/2
 4241 006e B101     		.2byte	(.L519-.L375)/2
 4242 0070 B601     		.2byte	(.L518-.L375)/2
 4243 0072 BB01     		.2byte	(.L517-.L375)/2
 4244 0074 C001     		.2byte	(.L516-.L375)/2
 4245 0076 C501     		.2byte	(.L515-.L375)/2
 4246 0078 CA01     		.2byte	(.L514-.L375)/2
 4247 007a CF01     		.2byte	(.L513-.L375)/2
 4248 007c D401     		.2byte	(.L512-.L375)/2
 4249 007e D901     		.2byte	(.L511-.L375)/2
 4250 0080 DE01     		.2byte	(.L510-.L375)/2
 4251 0082 E301     		.2byte	(.L509-.L375)/2
 4252 0084 E801     		.2byte	(.L508-.L375)/2
 4253 0086 ED01     		.2byte	(.L507-.L375)/2
 4254 0088 F201     		.2byte	(.L506-.L375)/2
 4255 008a F701     		.2byte	(.L505-.L375)/2
 4256 008c FC01     		.2byte	(.L504-.L375)/2
 4257 008e 0102     		.2byte	(.L503-.L375)/2
 4258 0090 0602     		.2byte	(.L502-.L375)/2
 4259 0092 0B02     		.2byte	(.L501-.L375)/2
 4260 0094 1002     		.2byte	(.L500-.L375)/2
 4261 0096 1502     		.2byte	(.L499-.L375)/2
 4262 0098 1A02     		.2byte	(.L498-.L375)/2
 4263 009a 1F02     		.2byte	(.L497-.L375)/2
 4264 009c 2402     		.2byte	(.L496-.L375)/2
 4265 009e 2902     		.2byte	(.L495-.L375)/2
 4266 00a0 2E02     		.2byte	(.L494-.L375)/2
 4267 00a2 3302     		.2byte	(.L493-.L375)/2
 4268 00a4 3802     		.2byte	(.L492-.L375)/2
 4269 00a6 3D02     		.2byte	(.L491-.L375)/2
ARM GAS  C:\Temp\ccrtA2Jt.s 			page 73


 4270 00a8 4202     		.2byte	(.L490-.L375)/2
 4271 00aa 4702     		.2byte	(.L489-.L375)/2
 4272 00ac 4C02     		.2byte	(.L488-.L375)/2
 4273 00ae 5102     		.2byte	(.L487-.L375)/2
 4274 00b0 5602     		.2byte	(.L486-.L375)/2
 4275 00b2 5B02     		.2byte	(.L485-.L375)/2
 4276 00b4 6002     		.2byte	(.L484-.L375)/2
 4277 00b6 6502     		.2byte	(.L483-.L375)/2
 4278 00b8 6A02     		.2byte	(.L482-.L375)/2
 4279 00ba 6F02     		.2byte	(.L481-.L375)/2
 4280 00bc 7402     		.2byte	(.L480-.L375)/2
 4281 00be 7902     		.2byte	(.L479-.L375)/2
 4282 00c0 7E02     		.2byte	(.L478-.L375)/2
 4283 00c2 8302     		.2byte	(.L477-.L375)/2
 4284 00c4 8802     		.2byte	(.L476-.L375)/2
 4285 00c6 8D02     		.2byte	(.L475-.L375)/2
 4286 00c8 9202     		.2byte	(.L474-.L375)/2
 4287 00ca 9702     		.2byte	(.L473-.L375)/2
 4288 00cc 9C02     		.2byte	(.L472-.L375)/2
 4289 00ce A102     		.2byte	(.L471-.L375)/2
 4290 00d0 A602     		.2byte	(.L470-.L375)/2
 4291 00d2 AB02     		.2byte	(.L469-.L375)/2
 4292 00d4 B002     		.2byte	(.L468-.L375)/2
 4293 00d6 B502     		.2byte	(.L467-.L375)/2
 4294 00d8 BA02     		.2byte	(.L466-.L375)/2
 4295 00da BF02     		.2byte	(.L465-.L375)/2
 4296 00dc C402     		.2byte	(.L464-.L375)/2
 4297 00de C902     		.2byte	(.L463-.L375)/2
 4298 00e0 CE02     		.2byte	(.L462-.L375)/2
 4299 00e2 D302     		.2byte	(.L461-.L375)/2
 4300 00e4 D802     		.2byte	(.L460-.L375)/2
 4301 00e6 DD02     		.2byte	(.L459-.L375)/2
 4302 00e8 E202     		.2byte	(.L458-.L375)/2
 4303 00ea E702     		.2byte	(.L457-.L375)/2
 4304 00ec EC02     		.2byte	(.L456-.L375)/2
 4305 00ee F102     		.2byte	(.L455-.L375)/2
 4306 00f0 F602     		.2byte	(.L454-.L375)/2
 4307 00f2 FB02     		.2byte	(.L453-.L375)/2
 4308 00f4 0003     		.2byte	(.L452-.L375)/2
 4309 00f6 0503     		.2byte	(.L451-.L375)/2
 4310 00f8 0A03     		.2byte	(.L450-.L375)/2
 4311 00fa 0F03     		.2byte	(.L449-.L375)/2
 4312 00fc 1603     		.2byte	(.L448-.L375)/2
 4313 00fe 1D03     		.2byte	(.L447-.L375)/2
 4314 0100 2403     		.2byte	(.L446-.L375)/2
 4315 0102 2B03     		.2byte	(.L445-.L375)/2
 4316 0104 3203     		.2byte	(.L444-.L375)/2
 4317 0106 3903     		.2byte	(.L443-.L375)/2
 4318 0108 4003     		.2byte	(.L442-.L375)/2
 4319 010a 4703     		.2byte	(.L441-.L375)/2
 4320 010c 4E03     		.2byte	(.L440-.L375)/2
 4321 010e 5503     		.2byte	(.L439-.L375)/2
 4322 0110 5C03     		.2byte	(.L438-.L375)/2
 4323 0112 6303     		.2byte	(.L437-.L375)/2
 4324 0114 6A03     		.2byte	(.L436-.L375)/2
 4325 0116 7103     		.2byte	(.L435-.L375)/2
 4326 0118 7803     		.2byte	(.L434-.L375)/2
ARM GAS  C:\Temp\ccrtA2Jt.s 			page 74


 4327 011a 7F03     		.2byte	(.L433-.L375)/2
 4328 011c 8603     		.2byte	(.L432-.L375)/2
 4329 011e 8D03     		.2byte	(.L431-.L375)/2
 4330 0120 9403     		.2byte	(.L430-.L375)/2
 4331 0122 9903     		.2byte	(.L429-.L375)/2
 4332 0124 9E03     		.2byte	(.L428-.L375)/2
 4333 0126 A303     		.2byte	(.L427-.L375)/2
 4334 0128 A803     		.2byte	(.L426-.L375)/2
 4335 012a AD03     		.2byte	(.L425-.L375)/2
 4336 012c B203     		.2byte	(.L424-.L375)/2
 4337 012e B703     		.2byte	(.L423-.L375)/2
 4338 0130 BE03     		.2byte	(.L422-.L375)/2
 4339 0132 C303     		.2byte	(.L421-.L375)/2
 4340 0134 C803     		.2byte	(.L420-.L375)/2
 4341 0136 CD03     		.2byte	(.L419-.L375)/2
 4342 0138 D203     		.2byte	(.L418-.L375)/2
 4343 013a D703     		.2byte	(.L417-.L375)/2
 4344 013c DC03     		.2byte	(.L416-.L375)/2
 4345 013e E103     		.2byte	(.L415-.L375)/2
 4346 0140 E603     		.2byte	(.L414-.L375)/2
 4347 0142 EB03     		.2byte	(.L413-.L375)/2
 4348 0144 F003     		.2byte	(.L412-.L375)/2
 4349 0146 F503     		.2byte	(.L411-.L375)/2
 4350 0148 FA03     		.2byte	(.L410-.L375)/2
 4351 014a FF03     		.2byte	(.L409-.L375)/2
 4352 014c 0404     		.2byte	(.L408-.L375)/2
 4353 014e 0904     		.2byte	(.L407-.L375)/2
 4354 0150 0E04     		.2byte	(.L406-.L375)/2
 4355 0152 1304     		.2byte	(.L405-.L375)/2
 4356 0154 1804     		.2byte	(.L404-.L375)/2
 4357 0156 1D04     		.2byte	(.L403-.L375)/2
 4358 0158 2204     		.2byte	(.L402-.L375)/2
 4359 015a 2704     		.2byte	(.L401-.L375)/2
 4360 015c 2C04     		.2byte	(.L400-.L375)/2
 4361 015e 3104     		.2byte	(.L399-.L375)/2
 4362 0160 3604     		.2byte	(.L398-.L375)/2
 4363 0162 3B04     		.2byte	(.L397-.L375)/2
 4364 0164 4004     		.2byte	(.L396-.L375)/2
 4365 0166 4504     		.2byte	(.L395-.L375)/2
 4366 0168 4A04     		.2byte	(.L394-.L375)/2
 4367 016a 4F04     		.2byte	(.L393-.L375)/2
 4368 016c 5404     		.2byte	(.L392-.L375)/2
 4369 016e 5904     		.2byte	(.L391-.L375)/2
 4370 0170 5E04     		.2byte	(.L390-.L375)/2
 4371 0172 6304     		.2byte	(.L389-.L375)/2
 4372 0174 6804     		.2byte	(.L388-.L375)/2
 4373 0176 6D04     		.2byte	(.L387-.L375)/2
 4374 0178 7204     		.2byte	(.L386-.L375)/2
 4375 017a 7704     		.2byte	(.L385-.L375)/2
 4376 017c 7C04     		.2byte	(.L384-.L375)/2
 4377 017e 8104     		.2byte	(.L383-.L375)/2
 4378 0180 8604     		.2byte	(.L382-.L375)/2
 4379 0182 8B04     		.2byte	(.L381-.L375)/2
 4380 0184 9004     		.2byte	(.L380-.L375)/2
 4381 0186 9504     		.2byte	(.L379-.L375)/2
 4382 0188 9A04     		.2byte	(.L378-.L375)/2
 4383 018a 9F04     		.2byte	(.L377-.L375)/2
ARM GAS  C:\Temp\ccrtA2Jt.s 			page 75


 4384 018c A404     		.2byte	(.L376-.L375)/2
 4385 018e A904     		.2byte	(.L374-.L375)/2
 4386              		.p2align 1
 4387              	.L567:
 4388 0190 B0F84831 		ldrh	r3, [r0, #328]
 4389 0194 1360     		str	r3, [r2]
 4390 0196 0020     		movs	r0, #0
 4391 0198 7047     		bx	lr
 4392              	.L566:
 4393 019a B0F84A31 		ldrh	r3, [r0, #330]
 4394 019e 1360     		str	r3, [r2]
 4395 01a0 0020     		movs	r0, #0
 4396 01a2 7047     		bx	lr
 4397              	.L565:
 4398 01a4 B0F84C31 		ldrh	r3, [r0, #332]
 4399 01a8 1360     		str	r3, [r2]
 4400 01aa 0020     		movs	r0, #0
 4401 01ac 7047     		bx	lr
 4402              	.L564:
 4403 01ae 90F87432 		ldrb	r3, [r0, #628]	@ zero_extendqisi2
 4404 01b2 1360     		str	r3, [r2]
 4405 01b4 0020     		movs	r0, #0
 4406 01b6 7047     		bx	lr
 4407              	.L563:
 4408 01b8 90F87532 		ldrb	r3, [r0, #629]	@ zero_extendqisi2
 4409 01bc 1360     		str	r3, [r2]
 4410 01be 0020     		movs	r0, #0
 4411 01c0 7047     		bx	lr
 4412              	.L562:
 4413 01c2 90F87632 		ldrb	r3, [r0, #630]	@ zero_extendqisi2
 4414 01c6 1360     		str	r3, [r2]
 4415 01c8 0020     		movs	r0, #0
 4416 01ca 7047     		bx	lr
 4417              	.L561:
 4418 01cc 90F87732 		ldrb	r3, [r0, #631]	@ zero_extendqisi2
 4419 01d0 1360     		str	r3, [r2]
 4420 01d2 0020     		movs	r0, #0
 4421 01d4 7047     		bx	lr
 4422              	.L560:
 4423 01d6 90F87832 		ldrb	r3, [r0, #632]	@ zero_extendqisi2
 4424 01da 1360     		str	r3, [r2]
 4425 01dc 0020     		movs	r0, #0
 4426 01de 7047     		bx	lr
 4427              	.L559:
 4428 01e0 90F87932 		ldrb	r3, [r0, #633]	@ zero_extendqisi2
 4429 01e4 1360     		str	r3, [r2]
 4430 01e6 0020     		movs	r0, #0
 4431 01e8 7047     		bx	lr
 4432              	.L558:
 4433 01ea 90F87A32 		ldrb	r3, [r0, #634]	@ zero_extendqisi2
 4434 01ee 1360     		str	r3, [r2]
 4435 01f0 0020     		movs	r0, #0
 4436 01f2 7047     		bx	lr
 4437              	.L557:
 4438 01f4 D0F88032 		ldr	r3, [r0, #640]
 4439 01f8 1360     		str	r3, [r2]
 4440 01fa 0020     		movs	r0, #0
ARM GAS  C:\Temp\ccrtA2Jt.s 			page 76


 4441 01fc 7047     		bx	lr
 4442              	.L556:
 4443 01fe B0F87C32 		ldrh	r3, [r0, #636]
 4444 0202 1360     		str	r3, [r2]
 4445 0204 0020     		movs	r0, #0
 4446 0206 7047     		bx	lr
 4447              	.L555:
 4448 0208 B0F88432 		ldrh	r3, [r0, #644]
 4449 020c 1360     		str	r3, [r2]
 4450 020e 0020     		movs	r0, #0
 4451 0210 7047     		bx	lr
 4452              	.L554:
 4453 0212 D0F88832 		ldr	r3, [r0, #648]
 4454 0216 1360     		str	r3, [r2]
 4455 0218 0020     		movs	r0, #0
 4456 021a 7047     		bx	lr
 4457              	.L553:
 4458 021c 90F88C32 		ldrb	r3, [r0, #652]	@ zero_extendqisi2
 4459 0220 1360     		str	r3, [r2]
 4460 0222 0020     		movs	r0, #0
 4461 0224 7047     		bx	lr
 4462              	.L552:
 4463 0226 B0F88E32 		ldrh	r3, [r0, #654]
 4464 022a 1360     		str	r3, [r2]
 4465 022c 0020     		movs	r0, #0
 4466 022e 7047     		bx	lr
 4467              	.L551:
 4468 0230 B0F8D230 		ldrh	r3, [r0, #210]
 4469 0234 1360     		str	r3, [r2]
 4470 0236 0020     		movs	r0, #0
 4471 0238 7047     		bx	lr
 4472              	.L550:
 4473 023a 90F89632 		ldrb	r3, [r0, #662]	@ zero_extendqisi2
 4474 023e 1360     		str	r3, [r2]
 4475 0240 0020     		movs	r0, #0
 4476 0242 7047     		bx	lr
 4477              	.L549:
 4478 0244 B0F89A32 		ldrh	r3, [r0, #666]
 4479 0248 1360     		str	r3, [r2]
 4480 024a 0020     		movs	r0, #0
 4481 024c 7047     		bx	lr
 4482              	.L548:
 4483 024e 90F89732 		ldrb	r3, [r0, #663]	@ zero_extendqisi2
 4484 0252 1360     		str	r3, [r2]
 4485 0254 0020     		movs	r0, #0
 4486 0256 7047     		bx	lr
 4487              	.L547:
 4488 0258 B0F89832 		ldrh	r3, [r0, #664]
 4489 025c 1360     		str	r3, [r2]
 4490 025e 0020     		movs	r0, #0
 4491 0260 7047     		bx	lr
 4492              	.L546:
 4493 0262 90F85431 		ldrb	r3, [r0, #340]	@ zero_extendqisi2
 4494 0266 1360     		str	r3, [r2]
 4495 0268 0020     		movs	r0, #0
 4496 026a 7047     		bx	lr
 4497              	.L545:
ARM GAS  C:\Temp\ccrtA2Jt.s 			page 77


 4498 026c 90F85531 		ldrb	r3, [r0, #341]	@ zero_extendqisi2
 4499 0270 1360     		str	r3, [r2]
 4500 0272 0020     		movs	r0, #0
 4501 0274 7047     		bx	lr
 4502              	.L544:
 4503 0276 90F85631 		ldrb	r3, [r0, #342]	@ zero_extendqisi2
 4504 027a 1360     		str	r3, [r2]
 4505 027c 0020     		movs	r0, #0
 4506 027e 7047     		bx	lr
 4507              	.L543:
 4508 0280 90F85731 		ldrb	r3, [r0, #343]	@ zero_extendqisi2
 4509 0284 1360     		str	r3, [r2]
 4510 0286 0020     		movs	r0, #0
 4511 0288 7047     		bx	lr
 4512              	.L542:
 4513 028a 90F85831 		ldrb	r3, [r0, #344]	@ zero_extendqisi2
 4514 028e 1360     		str	r3, [r2]
 4515 0290 0020     		movs	r0, #0
 4516 0292 7047     		bx	lr
 4517              	.L541:
 4518 0294 90F85931 		ldrb	r3, [r0, #345]	@ zero_extendqisi2
 4519 0298 1360     		str	r3, [r2]
 4520 029a 0020     		movs	r0, #0
 4521 029c 7047     		bx	lr
 4522              	.L540:
 4523 029e B0F90633 		ldrsh	r3, [r0, #774]
 4524 02a2 1360     		str	r3, [r2]
 4525 02a4 0020     		movs	r0, #0
 4526 02a6 7047     		bx	lr
 4527              	.L539:
 4528 02a8 B0F90833 		ldrsh	r3, [r0, #776]
 4529 02ac 1360     		str	r3, [r2]
 4530 02ae 0020     		movs	r0, #0
 4531 02b0 7047     		bx	lr
 4532              	.L538:
 4533 02b2 B0F80C33 		ldrh	r3, [r0, #780]
 4534 02b6 1360     		str	r3, [r2]
 4535 02b8 0020     		movs	r0, #0
 4536 02ba 7047     		bx	lr
 4537              	.L537:
 4538 02bc B0F8B232 		ldrh	r3, [r0, #690]
 4539 02c0 1360     		str	r3, [r2]
 4540 02c2 0020     		movs	r0, #0
 4541 02c4 7047     		bx	lr
 4542              	.L536:
 4543 02c6 B0F80A33 		ldrh	r3, [r0, #778]
 4544 02ca 1360     		str	r3, [r2]
 4545 02cc 0020     		movs	r0, #0
 4546 02ce 7047     		bx	lr
 4547              	.L535:
 4548 02d0 90F8B032 		ldrb	r3, [r0, #688]	@ zero_extendqisi2
 4549 02d4 1360     		str	r3, [r2]
 4550 02d6 0020     		movs	r0, #0
 4551 02d8 7047     		bx	lr
 4552              	.L534:
 4553 02da B0F9FE32 		ldrsh	r3, [r0, #766]
 4554 02de 1360     		str	r3, [r2]
ARM GAS  C:\Temp\ccrtA2Jt.s 			page 78


 4555 02e0 0020     		movs	r0, #0
 4556 02e2 7047     		bx	lr
 4557              	.L533:
 4558 02e4 90F85A31 		ldrb	r3, [r0, #346]	@ zero_extendqisi2
 4559 02e8 1360     		str	r3, [r2]
 4560 02ea 0020     		movs	r0, #0
 4561 02ec 7047     		bx	lr
 4562              	.L532:
 4563 02ee 90F85B31 		ldrb	r3, [r0, #347]	@ zero_extendqisi2
 4564 02f2 1360     		str	r3, [r2]
 4565 02f4 0020     		movs	r0, #0
 4566 02f6 7047     		bx	lr
 4567              	.L531:
 4568 02f8 B0F85C31 		ldrh	r3, [r0, #348]
 4569 02fc 1360     		str	r3, [r2]
 4570 02fe 0020     		movs	r0, #0
 4571 0300 7047     		bx	lr
 4572              	.L530:
 4573 0302 B0F8D030 		ldrh	r3, [r0, #208]
 4574 0306 1360     		str	r3, [r2]
 4575 0308 0020     		movs	r0, #0
 4576 030a 7047     		bx	lr
 4577              	.L529:
 4578 030c 90F85E31 		ldrb	r3, [r0, #350]	@ zero_extendqisi2
 4579 0310 1360     		str	r3, [r2]
 4580 0312 0020     		movs	r0, #0
 4581 0314 7047     		bx	lr
 4582              	.L528:
 4583 0316 B0F86031 		ldrh	r3, [r0, #352]
 4584 031a 1360     		str	r3, [r2]
 4585 031c 0020     		movs	r0, #0
 4586 031e 7047     		bx	lr
 4587              	.L527:
 4588 0320 B0F86231 		ldrh	r3, [r0, #354]
 4589 0324 1360     		str	r3, [r2]
 4590 0326 0020     		movs	r0, #0
 4591 0328 7047     		bx	lr
 4592              	.L526:
 4593 032a B0F86431 		ldrh	r3, [r0, #356]
 4594 032e 1360     		str	r3, [r2]
 4595 0330 0020     		movs	r0, #0
 4596 0332 7047     		bx	lr
 4597              	.L525:
 4598 0334 B0F86631 		ldrh	r3, [r0, #358]
 4599 0338 1360     		str	r3, [r2]
 4600 033a 0020     		movs	r0, #0
 4601 033c 7047     		bx	lr
 4602              	.L524:
 4603 033e B0F86831 		ldrh	r3, [r0, #360]
 4604 0342 1360     		str	r3, [r2]
 4605 0344 0020     		movs	r0, #0
 4606 0346 7047     		bx	lr
 4607              	.L523:
 4608 0348 B0F86A31 		ldrh	r3, [r0, #362]
 4609 034c 1360     		str	r3, [r2]
 4610 034e 0020     		movs	r0, #0
 4611 0350 7047     		bx	lr
ARM GAS  C:\Temp\ccrtA2Jt.s 			page 79


 4612              	.L522:
 4613 0352 90F86C31 		ldrb	r3, [r0, #364]	@ zero_extendqisi2
 4614 0356 1360     		str	r3, [r2]
 4615 0358 0020     		movs	r0, #0
 4616 035a 7047     		bx	lr
 4617              	.L521:
 4618 035c 90F86D31 		ldrb	r3, [r0, #365]	@ zero_extendqisi2
 4619 0360 1360     		str	r3, [r2]
 4620 0362 0020     		movs	r0, #0
 4621 0364 7047     		bx	lr
 4622              	.L520:
 4623 0366 90F86E31 		ldrb	r3, [r0, #366]	@ zero_extendqisi2
 4624 036a 1360     		str	r3, [r2]
 4625 036c 0020     		movs	r0, #0
 4626 036e 7047     		bx	lr
 4627              	.L519:
 4628 0370 90F80233 		ldrb	r3, [r0, #770]	@ zero_extendqisi2
 4629 0374 1360     		str	r3, [r2]
 4630 0376 0020     		movs	r0, #0
 4631 0378 7047     		bx	lr
 4632              	.L518:
 4633 037a 90F86F31 		ldrb	r3, [r0, #367]	@ zero_extendqisi2
 4634 037e 1360     		str	r3, [r2]
 4635 0380 0020     		movs	r0, #0
 4636 0382 7047     		bx	lr
 4637              	.L517:
 4638 0384 90F87131 		ldrb	r3, [r0, #369]	@ zero_extendqisi2
 4639 0388 1360     		str	r3, [r2]
 4640 038a 0020     		movs	r0, #0
 4641 038c 7047     		bx	lr
 4642              	.L516:
 4643 038e 90F87231 		ldrb	r3, [r0, #370]	@ zero_extendqisi2
 4644 0392 1360     		str	r3, [r2]
 4645 0394 0020     		movs	r0, #0
 4646 0396 7047     		bx	lr
 4647              	.L515:
 4648 0398 B0F90033 		ldrsh	r3, [r0, #768]
 4649 039c 1360     		str	r3, [r2]
 4650 039e 0020     		movs	r0, #0
 4651 03a0 7047     		bx	lr
 4652              	.L514:
 4653 03a2 90F84E31 		ldrb	r3, [r0, #334]	@ zero_extendqisi2
 4654 03a6 1360     		str	r3, [r2]
 4655 03a8 0020     		movs	r0, #0
 4656 03aa 7047     		bx	lr
 4657              	.L513:
 4658 03ac 90F84F31 		ldrb	r3, [r0, #335]	@ zero_extendqisi2
 4659 03b0 1360     		str	r3, [r2]
 4660 03b2 0020     		movs	r0, #0
 4661 03b4 7047     		bx	lr
 4662              	.L512:
 4663 03b6 90F85031 		ldrb	r3, [r0, #336]	@ zero_extendqisi2
 4664 03ba 1360     		str	r3, [r2]
 4665 03bc 0020     		movs	r0, #0
 4666 03be 7047     		bx	lr
 4667              	.L511:
 4668 03c0 90F85131 		ldrb	r3, [r0, #337]	@ zero_extendqisi2
ARM GAS  C:\Temp\ccrtA2Jt.s 			page 80


 4669 03c4 1360     		str	r3, [r2]
 4670 03c6 0020     		movs	r0, #0
 4671 03c8 7047     		bx	lr
 4672              	.L510:
 4673 03ca 90F85231 		ldrb	r3, [r0, #338]	@ zero_extendqisi2
 4674 03ce 1360     		str	r3, [r2]
 4675 03d0 0020     		movs	r0, #0
 4676 03d2 7047     		bx	lr
 4677              	.L509:
 4678 03d4 90F85331 		ldrb	r3, [r0, #339]	@ zero_extendqisi2
 4679 03d8 1360     		str	r3, [r2]
 4680 03da 0020     		movs	r0, #0
 4681 03dc 7047     		bx	lr
 4682              	.L508:
 4683 03de 90F87031 		ldrb	r3, [r0, #368]	@ zero_extendqisi2
 4684 03e2 1360     		str	r3, [r2]
 4685 03e4 0020     		movs	r0, #0
 4686 03e6 7047     		bx	lr
 4687              	.L507:
 4688 03e8 90F8B432 		ldrb	r3, [r0, #692]	@ zero_extendqisi2
 4689 03ec 1360     		str	r3, [r2]
 4690 03ee 0020     		movs	r0, #0
 4691 03f0 7047     		bx	lr
 4692              	.L506:
 4693 03f2 B0F8C032 		ldrh	r3, [r0, #704]
 4694 03f6 1360     		str	r3, [r2]
 4695 03f8 0020     		movs	r0, #0
 4696 03fa 7047     		bx	lr
 4697              	.L505:
 4698 03fc B0F8C232 		ldrh	r3, [r0, #706]
 4699 0400 1360     		str	r3, [r2]
 4700 0402 0020     		movs	r0, #0
 4701 0404 7047     		bx	lr
 4702              	.L504:
 4703 0406 B0F8C432 		ldrh	r3, [r0, #708]
 4704 040a 1360     		str	r3, [r2]
 4705 040c 0020     		movs	r0, #0
 4706 040e 7047     		bx	lr
 4707              	.L503:
 4708 0410 B0F8C632 		ldrh	r3, [r0, #710]
 4709 0414 1360     		str	r3, [r2]
 4710 0416 0020     		movs	r0, #0
 4711 0418 7047     		bx	lr
 4712              	.L502:
 4713 041a B0F8C832 		ldrh	r3, [r0, #712]
 4714 041e 1360     		str	r3, [r2]
 4715 0420 0020     		movs	r0, #0
 4716 0422 7047     		bx	lr
 4717              	.L501:
 4718 0424 90F84033 		ldrb	r3, [r0, #832]	@ zero_extendqisi2
 4719 0428 1360     		str	r3, [r2]
 4720 042a 0020     		movs	r0, #0
 4721 042c 7047     		bx	lr
 4722              	.L500:
 4723 042e 90F85832 		ldrb	r3, [r0, #600]	@ zero_extendqisi2
 4724 0432 1360     		str	r3, [r2]
 4725 0434 0020     		movs	r0, #0
ARM GAS  C:\Temp\ccrtA2Jt.s 			page 81


 4726 0436 7047     		bx	lr
 4727              	.L499:
 4728 0438 90F85932 		ldrb	r3, [r0, #601]	@ zero_extendqisi2
 4729 043c 1360     		str	r3, [r2]
 4730 043e 0020     		movs	r0, #0
 4731 0440 7047     		bx	lr
 4732              	.L498:
 4733 0442 D0F85C32 		ldr	r3, [r0, #604]
 4734 0446 1360     		str	r3, [r2]
 4735 0448 0020     		movs	r0, #0
 4736 044a 7047     		bx	lr
 4737              	.L497:
 4738 044c B0F86032 		ldrh	r3, [r0, #608]
 4739 0450 1360     		str	r3, [r2]
 4740 0452 0020     		movs	r0, #0
 4741 0454 7047     		bx	lr
 4742              	.L496:
 4743 0456 B0F86232 		ldrh	r3, [r0, #610]
 4744 045a 1360     		str	r3, [r2]
 4745 045c 0020     		movs	r0, #0
 4746 045e 7047     		bx	lr
 4747              	.L495:
 4748 0460 B0F86432 		ldrh	r3, [r0, #612]
 4749 0464 1360     		str	r3, [r2]
 4750 0466 0020     		movs	r0, #0
 4751 0468 7047     		bx	lr
 4752              	.L494:
 4753 046a 90F8E032 		ldrb	r3, [r0, #736]	@ zero_extendqisi2
 4754 046e 1360     		str	r3, [r2]
 4755 0470 0020     		movs	r0, #0
 4756 0472 7047     		bx	lr
 4757              	.L493:
 4758 0474 B0F9E232 		ldrsh	r3, [r0, #738]
 4759 0478 1360     		str	r3, [r2]
 4760 047a 0020     		movs	r0, #0
 4761 047c 7047     		bx	lr
 4762              	.L492:
 4763 047e B0F9E432 		ldrsh	r3, [r0, #740]
 4764 0482 1360     		str	r3, [r2]
 4765 0484 0020     		movs	r0, #0
 4766 0486 7047     		bx	lr
 4767              	.L491:
 4768 0488 B0F8D032 		ldrh	r3, [r0, #720]
 4769 048c 1360     		str	r3, [r2]
 4770 048e 0020     		movs	r0, #0
 4771 0490 7047     		bx	lr
 4772              	.L490:
 4773 0492 D0F8D432 		ldr	r3, [r0, #724]
 4774 0496 1360     		str	r3, [r2]
 4775 0498 0020     		movs	r0, #0
 4776 049a 7047     		bx	lr
 4777              	.L489:
 4778 049c B0F8E632 		ldrh	r3, [r0, #742]
 4779 04a0 1360     		str	r3, [r2]
 4780 04a2 0020     		movs	r0, #0
 4781 04a4 7047     		bx	lr
 4782              	.L488:
ARM GAS  C:\Temp\ccrtA2Jt.s 			page 82


 4783 04a6 B0F8E832 		ldrh	r3, [r0, #744]
 4784 04aa 1360     		str	r3, [r2]
 4785 04ac 0020     		movs	r0, #0
 4786 04ae 7047     		bx	lr
 4787              	.L487:
 4788 04b0 D0F8D832 		ldr	r3, [r0, #728]
 4789 04b4 1360     		str	r3, [r2]
 4790 04b6 0020     		movs	r0, #0
 4791 04b8 7047     		bx	lr
 4792              	.L486:
 4793 04ba D0F8DC32 		ldr	r3, [r0, #732]
 4794 04be 1360     		str	r3, [r2]
 4795 04c0 0020     		movs	r0, #0
 4796 04c2 7047     		bx	lr
 4797              	.L485:
 4798 04c4 B0F81033 		ldrh	r3, [r0, #784]
 4799 04c8 1360     		str	r3, [r2]
 4800 04ca 0020     		movs	r0, #0
 4801 04cc 7047     		bx	lr
 4802              	.L484:
 4803 04ce D0F81433 		ldr	r3, [r0, #788]
 4804 04d2 1360     		str	r3, [r2]
 4805 04d4 0020     		movs	r0, #0
 4806 04d6 7047     		bx	lr
 4807              	.L483:
 4808 04d8 D0F81C33 		ldr	r3, [r0, #796]
 4809 04dc 1360     		str	r3, [r2]
 4810 04de 0020     		movs	r0, #0
 4811 04e0 7047     		bx	lr
 4812              	.L482:
 4813 04e2 D0F81833 		ldr	r3, [r0, #792]
 4814 04e6 1360     		str	r3, [r2]
 4815 04e8 0020     		movs	r0, #0
 4816 04ea 7047     		bx	lr
 4817              	.L481:
 4818 04ec 90F82033 		ldrb	r3, [r0, #800]	@ zero_extendqisi2
 4819 04f0 1360     		str	r3, [r2]
 4820 04f2 0020     		movs	r0, #0
 4821 04f4 7047     		bx	lr
 4822              	.L480:
 4823 04f6 90F82133 		ldrb	r3, [r0, #801]	@ zero_extendqisi2
 4824 04fa 1360     		str	r3, [r2]
 4825 04fc 0020     		movs	r0, #0
 4826 04fe 7047     		bx	lr
 4827              	.L479:
 4828 0500 90F82233 		ldrb	r3, [r0, #802]	@ zero_extendqisi2
 4829 0504 1360     		str	r3, [r2]
 4830 0506 0020     		movs	r0, #0
 4831 0508 7047     		bx	lr
 4832              	.L478:
 4833 050a B0F82433 		ldrh	r3, [r0, #804]
 4834 050e 1360     		str	r3, [r2]
 4835 0510 0020     		movs	r0, #0
 4836 0512 7047     		bx	lr
 4837              	.L477:
 4838 0514 D0F82833 		ldr	r3, [r0, #808]
 4839 0518 1360     		str	r3, [r2]
ARM GAS  C:\Temp\ccrtA2Jt.s 			page 83


 4840 051a 0020     		movs	r0, #0
 4841 051c 7047     		bx	lr
 4842              	.L476:
 4843 051e D0F82C33 		ldr	r3, [r0, #812]
 4844 0522 1360     		str	r3, [r2]
 4845 0524 0020     		movs	r0, #0
 4846 0526 7047     		bx	lr
 4847              	.L475:
 4848 0528 B0F83433 		ldrh	r3, [r0, #820]
 4849 052c 1360     		str	r3, [r2]
 4850 052e 0020     		movs	r0, #0
 4851 0530 7047     		bx	lr
 4852              	.L474:
 4853 0532 D0F83033 		ldr	r3, [r0, #816]
 4854 0536 1360     		str	r3, [r2]
 4855 0538 0020     		movs	r0, #0
 4856 053a 7047     		bx	lr
 4857              	.L473:
 4858 053c B0F83633 		ldrh	r3, [r0, #822]
 4859 0540 1360     		str	r3, [r2]
 4860 0542 0020     		movs	r0, #0
 4861 0544 7047     		bx	lr
 4862              	.L472:
 4863 0546 90F86932 		ldrb	r3, [r0, #617]	@ zero_extendqisi2
 4864 054a 1360     		str	r3, [r2]
 4865 054c 0020     		movs	r0, #0
 4866 054e 7047     		bx	lr
 4867              	.L471:
 4868 0550 90F86A32 		ldrb	r3, [r0, #618]	@ zero_extendqisi2
 4869 0554 1360     		str	r3, [r2]
 4870 0556 0020     		movs	r0, #0
 4871 0558 7047     		bx	lr
 4872              	.L470:
 4873 055a B0F87032 		ldrh	r3, [r0, #624]
 4874 055e 1360     		str	r3, [r2]
 4875 0560 0020     		movs	r0, #0
 4876 0562 7047     		bx	lr
 4877              	.L469:
 4878 0564 B0F87431 		ldrh	r3, [r0, #372]
 4879 0568 1360     		str	r3, [r2]
 4880 056a 0020     		movs	r0, #0
 4881 056c 7047     		bx	lr
 4882              	.L468:
 4883 056e B0F87631 		ldrh	r3, [r0, #374]
 4884 0572 1360     		str	r3, [r2]
 4885 0574 0020     		movs	r0, #0
 4886 0576 7047     		bx	lr
 4887              	.L467:
 4888 0578 B0F87831 		ldrh	r3, [r0, #376]
 4889 057c 1360     		str	r3, [r2]
 4890 057e 0020     		movs	r0, #0
 4891 0580 7047     		bx	lr
 4892              	.L466:
 4893 0582 B0F87A31 		ldrh	r3, [r0, #378]
 4894 0586 1360     		str	r3, [r2]
 4895 0588 0020     		movs	r0, #0
 4896 058a 7047     		bx	lr
ARM GAS  C:\Temp\ccrtA2Jt.s 			page 84


 4897              	.L465:
 4898 058c D0F88031 		ldr	r3, [r0, #384]
 4899 0590 1360     		str	r3, [r2]
 4900 0592 0020     		movs	r0, #0
 4901 0594 7047     		bx	lr
 4902              	.L464:
 4903 0596 D0F88431 		ldr	r3, [r0, #388]
 4904 059a 1360     		str	r3, [r2]
 4905 059c 0020     		movs	r0, #0
 4906 059e 7047     		bx	lr
 4907              	.L463:
 4908 05a0 D0F88831 		ldr	r3, [r0, #392]
 4909 05a4 1360     		str	r3, [r2]
 4910 05a6 0020     		movs	r0, #0
 4911 05a8 7047     		bx	lr
 4912              	.L462:
 4913 05aa D0F88C31 		ldr	r3, [r0, #396]
 4914 05ae 1360     		str	r3, [r2]
 4915 05b0 0020     		movs	r0, #0
 4916 05b2 7047     		bx	lr
 4917              	.L461:
 4918 05b4 D0F89031 		ldr	r3, [r0, #400]
 4919 05b8 1360     		str	r3, [r2]
 4920 05ba 0020     		movs	r0, #0
 4921 05bc 7047     		bx	lr
 4922              	.L460:
 4923 05be D0F89431 		ldr	r3, [r0, #404]
 4924 05c2 1360     		str	r3, [r2]
 4925 05c4 0020     		movs	r0, #0
 4926 05c6 7047     		bx	lr
 4927              	.L459:
 4928 05c8 D0F89831 		ldr	r3, [r0, #408]
 4929 05cc 1360     		str	r3, [r2]
 4930 05ce 0020     		movs	r0, #0
 4931 05d0 7047     		bx	lr
 4932              	.L458:
 4933 05d2 D0F89C31 		ldr	r3, [r0, #412]
 4934 05d6 1360     		str	r3, [r2]
 4935 05d8 0020     		movs	r0, #0
 4936 05da 7047     		bx	lr
 4937              	.L457:
 4938 05dc D0F8A031 		ldr	r3, [r0, #416]
 4939 05e0 1360     		str	r3, [r2]
 4940 05e2 0020     		movs	r0, #0
 4941 05e4 7047     		bx	lr
 4942              	.L456:
 4943 05e6 D0F8A431 		ldr	r3, [r0, #420]
 4944 05ea 1360     		str	r3, [r2]
 4945 05ec 0020     		movs	r0, #0
 4946 05ee 7047     		bx	lr
 4947              	.L455:
 4948 05f0 D0F8A831 		ldr	r3, [r0, #424]
 4949 05f4 1360     		str	r3, [r2]
 4950 05f6 0020     		movs	r0, #0
 4951 05f8 7047     		bx	lr
 4952              	.L454:
 4953 05fa D0F8AC31 		ldr	r3, [r0, #428]
ARM GAS  C:\Temp\ccrtA2Jt.s 			page 85


 4954 05fe 1360     		str	r3, [r2]
 4955 0600 0020     		movs	r0, #0
 4956 0602 7047     		bx	lr
 4957              	.L453:
 4958 0604 D0F8B431 		ldr	r3, [r0, #436]
 4959 0608 1360     		str	r3, [r2]
 4960 060a 0020     		movs	r0, #0
 4961 060c 7047     		bx	lr
 4962              	.L452:
 4963 060e D0F8B831 		ldr	r3, [r0, #440]
 4964 0612 1360     		str	r3, [r2]
 4965 0614 0020     		movs	r0, #0
 4966 0616 7047     		bx	lr
 4967              	.L451:
 4968 0618 D0F8BC31 		ldr	r3, [r0, #444]
 4969 061c 1360     		str	r3, [r2]
 4970 061e 0020     		movs	r0, #0
 4971 0620 7047     		bx	lr
 4972              	.L450:
 4973 0622 D0F8C031 		ldr	r3, [r0, #448]
 4974 0626 1360     		str	r3, [r2]
 4975 0628 0020     		movs	r0, #0
 4976 062a 7047     		bx	lr
 4977              	.L449:
 4978 062c 00F58050 		add	r0, r0, #4096
 4979 0630 B0F8F833 		ldrh	r3, [r0, #1016]
 4980 0634 1360     		str	r3, [r2]
 4981 0636 0020     		movs	r0, #0
 4982 0638 7047     		bx	lr
 4983              	.L448:
 4984 063a 00F58050 		add	r0, r0, #4096
 4985 063e D0F8FC33 		ldr	r3, [r0, #1020]
 4986 0642 1360     		str	r3, [r2]
 4987 0644 0020     		movs	r0, #0
 4988 0646 7047     		bx	lr
 4989              	.L447:
 4990 0648 00F58050 		add	r0, r0, #4096
 4991 064c D0F80034 		ldr	r3, [r0, #1024]
 4992 0650 1360     		str	r3, [r2]
 4993 0652 0020     		movs	r0, #0
 4994 0654 7047     		bx	lr
 4995              	.L446:
 4996 0656 00F58050 		add	r0, r0, #4096
 4997 065a 90F80434 		ldrb	r3, [r0, #1028]	@ zero_extendqisi2
 4998 065e 1360     		str	r3, [r2]
 4999 0660 0020     		movs	r0, #0
 5000 0662 7047     		bx	lr
 5001              	.L445:
 5002 0664 00F58050 		add	r0, r0, #4096
 5003 0668 D0F80834 		ldr	r3, [r0, #1032]
 5004 066c 1360     		str	r3, [r2]
 5005 066e 0020     		movs	r0, #0
 5006 0670 7047     		bx	lr
 5007              	.L444:
 5008 0672 00F58050 		add	r0, r0, #4096
 5009 0676 D0F80C34 		ldr	r3, [r0, #1036]
 5010 067a 1360     		str	r3, [r2]
ARM GAS  C:\Temp\ccrtA2Jt.s 			page 86


 5011 067c 0020     		movs	r0, #0
 5012 067e 7047     		bx	lr
 5013              	.L443:
 5014 0680 00F58050 		add	r0, r0, #4096
 5015 0684 D0F81034 		ldr	r3, [r0, #1040]
 5016 0688 1360     		str	r3, [r2]
 5017 068a 0020     		movs	r0, #0
 5018 068c 7047     		bx	lr
 5019              	.L442:
 5020 068e 00F58050 		add	r0, r0, #4096
 5021 0692 D0F81434 		ldr	r3, [r0, #1044]
 5022 0696 1360     		str	r3, [r2]
 5023 0698 0020     		movs	r0, #0
 5024 069a 7047     		bx	lr
 5025              	.L441:
 5026 069c 00F58050 		add	r0, r0, #4096
 5027 06a0 90F81C34 		ldrb	r3, [r0, #1052]	@ zero_extendqisi2
 5028 06a4 1360     		str	r3, [r2]
 5029 06a6 0020     		movs	r0, #0
 5030 06a8 7047     		bx	lr
 5031              	.L440:
 5032 06aa 00F58050 		add	r0, r0, #4096
 5033 06ae B0F91E34 		ldrsh	r3, [r0, #1054]
 5034 06b2 1360     		str	r3, [r2]
 5035 06b4 0020     		movs	r0, #0
 5036 06b6 7047     		bx	lr
 5037              	.L439:
 5038 06b8 00F58050 		add	r0, r0, #4096
 5039 06bc B0F92034 		ldrsh	r3, [r0, #1056]
 5040 06c0 1360     		str	r3, [r2]
 5041 06c2 0020     		movs	r0, #0
 5042 06c4 7047     		bx	lr
 5043              	.L438:
 5044 06c6 00F58050 		add	r0, r0, #4096
 5045 06ca 90F82234 		ldrb	r3, [r0, #1058]	@ zero_extendqisi2
 5046 06ce 1360     		str	r3, [r2]
 5047 06d0 0020     		movs	r0, #0
 5048 06d2 7047     		bx	lr
 5049              	.L437:
 5050 06d4 00F58050 		add	r0, r0, #4096
 5051 06d8 90F8F633 		ldrb	r3, [r0, #1014]	@ zero_extendqisi2
 5052 06dc 1360     		str	r3, [r2]
 5053 06de 0020     		movs	r0, #0
 5054 06e0 7047     		bx	lr
 5055              	.L436:
 5056 06e2 00F58050 		add	r0, r0, #4096
 5057 06e6 D0F81834 		ldr	r3, [r0, #1048]
 5058 06ea 1360     		str	r3, [r2]
 5059 06ec 0020     		movs	r0, #0
 5060 06ee 7047     		bx	lr
 5061              	.L435:
 5062 06f0 00F58050 		add	r0, r0, #4096
 5063 06f4 D0F82434 		ldr	r3, [r0, #1060]
 5064 06f8 1360     		str	r3, [r2]
 5065 06fa 0020     		movs	r0, #0
 5066 06fc 7047     		bx	lr
 5067              	.L434:
ARM GAS  C:\Temp\ccrtA2Jt.s 			page 87


 5068 06fe 00F58050 		add	r0, r0, #4096
 5069 0702 D0F82834 		ldr	r3, [r0, #1064]
 5070 0706 1360     		str	r3, [r2]
 5071 0708 0020     		movs	r0, #0
 5072 070a 7047     		bx	lr
 5073              	.L433:
 5074 070c 00F58050 		add	r0, r0, #4096
 5075 0710 D0F82C34 		ldr	r3, [r0, #1068]
 5076 0714 1360     		str	r3, [r2]
 5077 0716 0020     		movs	r0, #0
 5078 0718 7047     		bx	lr
 5079              	.L432:
 5080 071a 00F58050 		add	r0, r0, #4096
 5081 071e B0F83034 		ldrh	r3, [r0, #1072]
 5082 0722 1360     		str	r3, [r2]
 5083 0724 0020     		movs	r0, #0
 5084 0726 7047     		bx	lr
 5085              	.L431:
 5086 0728 00F58050 		add	r0, r0, #4096
 5087 072c 90F88035 		ldrb	r3, [r0, #1408]	@ zero_extendqisi2
 5088 0730 1360     		str	r3, [r2]
 5089 0732 0020     		movs	r0, #0
 5090 0734 7047     		bx	lr
 5091              	.L430:
 5092 0736 D0F8B031 		ldr	r3, [r0, #432]
 5093 073a 1360     		str	r3, [r2]
 5094 073c 0020     		movs	r0, #0
 5095 073e 7047     		bx	lr
 5096              	.L429:
 5097 0740 D0F8C431 		ldr	r3, [r0, #452]
 5098 0744 1360     		str	r3, [r2]
 5099 0746 0020     		movs	r0, #0
 5100 0748 7047     		bx	lr
 5101              	.L428:
 5102 074a B0F87C31 		ldrh	r3, [r0, #380]
 5103 074e 1360     		str	r3, [r2]
 5104 0750 0020     		movs	r0, #0
 5105 0752 7047     		bx	lr
 5106              	.L427:
 5107 0754 D0F8C831 		ldr	r3, [r0, #456]
 5108 0758 1360     		str	r3, [r2]
 5109 075a 0020     		movs	r0, #0
 5110 075c 7047     		bx	lr
 5111              	.L426:
 5112 075e 90F8CC31 		ldrb	r3, [r0, #460]	@ zero_extendqisi2
 5113 0762 1360     		str	r3, [r2]
 5114 0764 0020     		movs	r0, #0
 5115 0766 7047     		bx	lr
 5116              	.L425:
 5117 0768 D0F8D031 		ldr	r3, [r0, #464]
 5118 076c 1360     		str	r3, [r2]
 5119 076e 0020     		movs	r0, #0
 5120 0770 7047     		bx	lr
 5121              	.L424:
 5122 0772 90F8D431 		ldrb	r3, [r0, #468]	@ zero_extendqisi2
 5123 0776 1360     		str	r3, [r2]
 5124 0778 0020     		movs	r0, #0
ARM GAS  C:\Temp\ccrtA2Jt.s 			page 88


 5125 077a 7047     		bx	lr
 5126              	.L423:
 5127 077c 00F58050 		add	r0, r0, #4096
 5128 0780 D0F83434 		ldr	r3, [r0, #1076]
 5129 0784 1360     		str	r3, [r2]
 5130 0786 0020     		movs	r0, #0
 5131 0788 7047     		bx	lr
 5132              	.L422:
 5133 078a 90F8D531 		ldrb	r3, [r0, #469]	@ zero_extendqisi2
 5134 078e 1360     		str	r3, [r2]
 5135 0790 0020     		movs	r0, #0
 5136 0792 7047     		bx	lr
 5137              	.L421:
 5138 0794 B0F9D631 		ldrsh	r3, [r0, #470]
 5139 0798 1360     		str	r3, [r2]
 5140 079a 0020     		movs	r0, #0
 5141 079c 7047     		bx	lr
 5142              	.L420:
 5143 079e B0F9D831 		ldrsh	r3, [r0, #472]
 5144 07a2 1360     		str	r3, [r2]
 5145 07a4 0020     		movs	r0, #0
 5146 07a6 7047     		bx	lr
 5147              	.L419:
 5148 07a8 B0F9DA31 		ldrsh	r3, [r0, #474]
 5149 07ac 1360     		str	r3, [r2]
 5150 07ae 0020     		movs	r0, #0
 5151 07b0 7047     		bx	lr
 5152              	.L418:
 5153 07b2 B0F9DC31 		ldrsh	r3, [r0, #476]
 5154 07b6 1360     		str	r3, [r2]
 5155 07b8 0020     		movs	r0, #0
 5156 07ba 7047     		bx	lr
 5157              	.L417:
 5158 07bc B0F9DE31 		ldrsh	r3, [r0, #478]
 5159 07c0 1360     		str	r3, [r2]
 5160 07c2 0020     		movs	r0, #0
 5161 07c4 7047     		bx	lr
 5162              	.L416:
 5163 07c6 B0F9E031 		ldrsh	r3, [r0, #480]
 5164 07ca 1360     		str	r3, [r2]
 5165 07cc 0020     		movs	r0, #0
 5166 07ce 7047     		bx	lr
 5167              	.L415:
 5168 07d0 B0F9E231 		ldrsh	r3, [r0, #482]
 5169 07d4 1360     		str	r3, [r2]
 5170 07d6 0020     		movs	r0, #0
 5171 07d8 7047     		bx	lr
 5172              	.L414:
 5173 07da B0F9E431 		ldrsh	r3, [r0, #484]
 5174 07de 1360     		str	r3, [r2]
 5175 07e0 0020     		movs	r0, #0
 5176 07e2 7047     		bx	lr
 5177              	.L413:
 5178 07e4 B0F9E631 		ldrsh	r3, [r0, #486]
 5179 07e8 1360     		str	r3, [r2]
 5180 07ea 0020     		movs	r0, #0
 5181 07ec 7047     		bx	lr
ARM GAS  C:\Temp\ccrtA2Jt.s 			page 89


 5182              	.L412:
 5183 07ee B0F9E831 		ldrsh	r3, [r0, #488]
 5184 07f2 1360     		str	r3, [r2]
 5185 07f4 0020     		movs	r0, #0
 5186 07f6 7047     		bx	lr
 5187              	.L411:
 5188 07f8 B0F9EA31 		ldrsh	r3, [r0, #490]
 5189 07fc 1360     		str	r3, [r2]
 5190 07fe 0020     		movs	r0, #0
 5191 0800 7047     		bx	lr
 5192              	.L410:
 5193 0802 B0F9EC31 		ldrsh	r3, [r0, #492]
 5194 0806 1360     		str	r3, [r2]
 5195 0808 0020     		movs	r0, #0
 5196 080a 7047     		bx	lr
 5197              	.L409:
 5198 080c B0F9EE31 		ldrsh	r3, [r0, #494]
 5199 0810 1360     		str	r3, [r2]
 5200 0812 0020     		movs	r0, #0
 5201 0814 7047     		bx	lr
 5202              	.L408:
 5203 0816 B0F9F031 		ldrsh	r3, [r0, #496]
 5204 081a 1360     		str	r3, [r2]
 5205 081c 0020     		movs	r0, #0
 5206 081e 7047     		bx	lr
 5207              	.L407:
 5208 0820 B0F9F231 		ldrsh	r3, [r0, #498]
 5209 0824 1360     		str	r3, [r2]
 5210 0826 0020     		movs	r0, #0
 5211 0828 7047     		bx	lr
 5212              	.L406:
 5213 082a B0F9F431 		ldrsh	r3, [r0, #500]
 5214 082e 1360     		str	r3, [r2]
 5215 0830 0020     		movs	r0, #0
 5216 0832 7047     		bx	lr
 5217              	.L405:
 5218 0834 B0F9F631 		ldrsh	r3, [r0, #502]
 5219 0838 1360     		str	r3, [r2]
 5220 083a 0020     		movs	r0, #0
 5221 083c 7047     		bx	lr
 5222              	.L404:
 5223 083e B0F9F831 		ldrsh	r3, [r0, #504]
 5224 0842 1360     		str	r3, [r2]
 5225 0844 0020     		movs	r0, #0
 5226 0846 7047     		bx	lr
 5227              	.L403:
 5228 0848 B0F9FA31 		ldrsh	r3, [r0, #506]
 5229 084c 1360     		str	r3, [r2]
 5230 084e 0020     		movs	r0, #0
 5231 0850 7047     		bx	lr
 5232              	.L402:
 5233 0852 B0F9FC31 		ldrsh	r3, [r0, #508]
 5234 0856 1360     		str	r3, [r2]
 5235 0858 0020     		movs	r0, #0
 5236 085a 7047     		bx	lr
 5237              	.L401:
 5238 085c B0F9FE31 		ldrsh	r3, [r0, #510]
ARM GAS  C:\Temp\ccrtA2Jt.s 			page 90


 5239 0860 1360     		str	r3, [r2]
 5240 0862 0020     		movs	r0, #0
 5241 0864 7047     		bx	lr
 5242              	.L400:
 5243 0866 B0F90032 		ldrsh	r3, [r0, #512]
 5244 086a 1360     		str	r3, [r2]
 5245 086c 0020     		movs	r0, #0
 5246 086e 7047     		bx	lr
 5247              	.L399:
 5248 0870 B0F90232 		ldrsh	r3, [r0, #514]
 5249 0874 1360     		str	r3, [r2]
 5250 0876 0020     		movs	r0, #0
 5251 0878 7047     		bx	lr
 5252              	.L398:
 5253 087a B0F90432 		ldrsh	r3, [r0, #516]
 5254 087e 1360     		str	r3, [r2]
 5255 0880 0020     		movs	r0, #0
 5256 0882 7047     		bx	lr
 5257              	.L397:
 5258 0884 B0F90632 		ldrsh	r3, [r0, #518]
 5259 0888 1360     		str	r3, [r2]
 5260 088a 0020     		movs	r0, #0
 5261 088c 7047     		bx	lr
 5262              	.L396:
 5263 088e B0F90832 		ldrsh	r3, [r0, #520]
 5264 0892 1360     		str	r3, [r2]
 5265 0894 0020     		movs	r0, #0
 5266 0896 7047     		bx	lr
 5267              	.L395:
 5268 0898 B0F90A32 		ldrsh	r3, [r0, #522]
 5269 089c 1360     		str	r3, [r2]
 5270 089e 0020     		movs	r0, #0
 5271 08a0 7047     		bx	lr
 5272              	.L394:
 5273 08a2 B0F90C32 		ldrsh	r3, [r0, #524]
 5274 08a6 1360     		str	r3, [r2]
 5275 08a8 0020     		movs	r0, #0
 5276 08aa 7047     		bx	lr
 5277              	.L393:
 5278 08ac B0F90E32 		ldrsh	r3, [r0, #526]
 5279 08b0 1360     		str	r3, [r2]
 5280 08b2 0020     		movs	r0, #0
 5281 08b4 7047     		bx	lr
 5282              	.L392:
 5283 08b6 B0F91032 		ldrsh	r3, [r0, #528]
 5284 08ba 1360     		str	r3, [r2]
 5285 08bc 0020     		movs	r0, #0
 5286 08be 7047     		bx	lr
 5287              	.L391:
 5288 08c0 B0F91232 		ldrsh	r3, [r0, #530]
 5289 08c4 1360     		str	r3, [r2]
 5290 08c6 0020     		movs	r0, #0
 5291 08c8 7047     		bx	lr
 5292              	.L390:
 5293 08ca B0F91432 		ldrsh	r3, [r0, #532]
 5294 08ce 1360     		str	r3, [r2]
 5295 08d0 0020     		movs	r0, #0
ARM GAS  C:\Temp\ccrtA2Jt.s 			page 91


 5296 08d2 7047     		bx	lr
 5297              	.L389:
 5298 08d4 B0F91632 		ldrsh	r3, [r0, #534]
 5299 08d8 1360     		str	r3, [r2]
 5300 08da 0020     		movs	r0, #0
 5301 08dc 7047     		bx	lr
 5302              	.L388:
 5303 08de B0F91832 		ldrsh	r3, [r0, #536]
 5304 08e2 1360     		str	r3, [r2]
 5305 08e4 0020     		movs	r0, #0
 5306 08e6 7047     		bx	lr
 5307              	.L387:
 5308 08e8 B0F91A32 		ldrsh	r3, [r0, #538]
 5309 08ec 1360     		str	r3, [r2]
 5310 08ee 0020     		movs	r0, #0
 5311 08f0 7047     		bx	lr
 5312              	.L386:
 5313 08f2 B0F91C32 		ldrsh	r3, [r0, #540]
 5314 08f6 1360     		str	r3, [r2]
 5315 08f8 0020     		movs	r0, #0
 5316 08fa 7047     		bx	lr
 5317              	.L385:
 5318 08fc B0F91E32 		ldrsh	r3, [r0, #542]
 5319 0900 1360     		str	r3, [r2]
 5320 0902 0020     		movs	r0, #0
 5321 0904 7047     		bx	lr
 5322              	.L384:
 5323 0906 B0F92032 		ldrsh	r3, [r0, #544]
 5324 090a 1360     		str	r3, [r2]
 5325 090c 0020     		movs	r0, #0
 5326 090e 7047     		bx	lr
 5327              	.L383:
 5328 0910 B0F92232 		ldrsh	r3, [r0, #546]
 5329 0914 1360     		str	r3, [r2]
 5330 0916 0020     		movs	r0, #0
 5331 0918 7047     		bx	lr
 5332              	.L382:
 5333 091a B0F92432 		ldrsh	r3, [r0, #548]
 5334 091e 1360     		str	r3, [r2]
 5335 0920 0020     		movs	r0, #0
 5336 0922 7047     		bx	lr
 5337              	.L381:
 5338 0924 B0F92632 		ldrsh	r3, [r0, #550]
 5339 0928 1360     		str	r3, [r2]
 5340 092a 0020     		movs	r0, #0
 5341 092c 7047     		bx	lr
 5342              	.L380:
 5343 092e B0F92832 		ldrsh	r3, [r0, #552]
 5344 0932 1360     		str	r3, [r2]
 5345 0934 0020     		movs	r0, #0
 5346 0936 7047     		bx	lr
 5347              	.L379:
 5348 0938 B0F92A32 		ldrsh	r3, [r0, #554]
 5349 093c 1360     		str	r3, [r2]
 5350 093e 0020     		movs	r0, #0
 5351 0940 7047     		bx	lr
 5352              	.L378:
ARM GAS  C:\Temp\ccrtA2Jt.s 			page 92


 5353 0942 B0F92C32 		ldrsh	r3, [r0, #556]
 5354 0946 1360     		str	r3, [r2]
 5355 0948 0020     		movs	r0, #0
 5356 094a 7047     		bx	lr
 5357              	.L377:
 5358 094c D0F83032 		ldr	r3, [r0, #560]
 5359 0950 1360     		str	r3, [r2]
 5360 0952 0020     		movs	r0, #0
 5361 0954 7047     		bx	lr
 5362              	.L376:
 5363 0956 B0F83432 		ldrh	r3, [r0, #564]
 5364 095a 1360     		str	r3, [r2]
 5365 095c 0020     		movs	r0, #0
 5366 095e 7047     		bx	lr
 5367              	.L374:
 5368 0960 B0F83632 		ldrh	r3, [r0, #566]
 5369 0964 1360     		str	r3, [r2]
 5370 0966 0020     		movs	r0, #0
 5371 0968 7047     		bx	lr
 5372              	.L373:
 5373 096a 6FF00043 		mvn	r3, #-2147483648
 5374 096e 1360     		str	r3, [r2]
 5375 0970 6FF00300 		mvn	r0, #3
 5376 0974 7047     		bx	lr
 5378              		.section	.text.VL53L1_load_patch,"ax",%progbits
 5379              		.align	1
 5380              		.global	VL53L1_load_patch
 5381              		.syntax unified
 5382              		.thumb
 5383              		.thumb_func
 5385              	VL53L1_load_patch:
 5386              		@ args = 0, pretend = 0, frame = 264
 5387              		@ frame_needed = 0, uses_anonymous_args = 0
 5388 0000 30B5     		push	{r4, r5, lr}
 5389 0002 C3B0     		sub	sp, sp, #268
 5390 0004 0446     		mov	r4, r0
 5391 0006 0022     		movs	r2, #0
 5392 0008 4192     		str	r2, [sp, #260]
 5393 000a 8521     		movs	r1, #133
 5394 000c FFF7FEFF 		bl	VL53L1_WrByte
 5395 0010 0546     		mov	r5, r0
 5396 0012 98B1     		cbz	r0, .L578
 5397              	.L570:
 5398 0014 41AA     		add	r2, sp, #260
 5399 0016 48F28C01 		movw	r1, #32908
 5400 001a 2046     		mov	r0, r4
 5401 001c FFF7FEFF 		bl	VL53L1_get_tuning_parm
 5402 0020 419B     		ldr	r3, [sp, #260]
 5403 0022 022B     		cmp	r3, #2
 5404 0024 10D0     		beq	.L574
 5405 0026 032B     		cmp	r3, #3
 5406 0028 10D0     		beq	.L575
 5407 002a 012B     		cmp	r3, #1
 5408 002c 0AD0     		beq	.L579
 5409 002e 0023     		movs	r3, #0
 5410              	.L571:
 5411 0030 75B1     		cbz	r5, .L580
ARM GAS  C:\Temp\ccrtA2Jt.s 			page 93


 5412              	.L572:
 5413 0032 002D     		cmp	r5, #0
 5414 0034 41D0     		beq	.L581
 5415              	.L573:
 5416 0036 2846     		mov	r0, r5
 5417 0038 43B0     		add	sp, sp, #268
 5418              		@ sp needed
 5419 003a 30BD     		pop	{r4, r5, pc}
 5420              	.L578:
 5421 003c 2046     		mov	r0, r4
 5422 003e FFF7FEFF 		bl	VL53L1_enable_powerforce
 5423 0042 E7E7     		b	.L570
 5424              	.L579:
 5425 0044 1023     		movs	r3, #16
 5426 0046 F3E7     		b	.L571
 5427              	.L574:
 5428 0048 2023     		movs	r3, #32
 5429 004a F1E7     		b	.L571
 5430              	.L575:
 5431 004c 4023     		movs	r3, #64
 5432 004e EFE7     		b	.L571
 5433              	.L580:
 5434 0050 2922     		movs	r2, #41
 5435 0052 8DF80420 		strb	r2, [sp, #4]
 5436 0056 C922     		movs	r2, #201
 5437 0058 8DF80520 		strb	r2, [sp, #5]
 5438 005c 0E22     		movs	r2, #14
 5439 005e 8DF80620 		strb	r2, [sp, #6]
 5440 0062 4022     		movs	r2, #64
 5441 0064 8DF80720 		strb	r2, [sp, #7]
 5442 0068 2822     		movs	r2, #40
 5443 006a 8DF80820 		strb	r2, [sp, #8]
 5444 006e 8DF80930 		strb	r3, [sp, #9]
 5445 0072 0623     		movs	r3, #6
 5446 0074 01AA     		add	r2, sp, #4
 5447 0076 40F27641 		movw	r1, #1142
 5448 007a 2046     		mov	r0, r4
 5449 007c FFF7FEFF 		bl	VL53L1_WriteMulti
 5450 0080 0546     		mov	r5, r0
 5451 0082 0028     		cmp	r0, #0
 5452 0084 D7D1     		bne	.L573
 5453 0086 0323     		movs	r3, #3
 5454 0088 8DF80430 		strb	r3, [sp, #4]
 5455 008c 6D22     		movs	r2, #109
 5456 008e 8DF80520 		strb	r2, [sp, #5]
 5457 0092 8DF80630 		strb	r3, [sp, #6]
 5458 0096 6F23     		movs	r3, #111
 5459 0098 8DF80730 		strb	r3, [sp, #7]
 5460 009c 0723     		movs	r3, #7
 5461 009e 8DF80830 		strb	r3, [sp, #8]
 5462 00a2 2923     		movs	r3, #41
 5463 00a4 8DF80930 		strb	r3, [sp, #9]
 5464 00a8 0623     		movs	r3, #6
 5465 00aa 01AA     		add	r2, sp, #4
 5466 00ac 40F29641 		movw	r1, #1174
 5467 00b0 2046     		mov	r0, r4
 5468 00b2 FFF7FEFF 		bl	VL53L1_WriteMulti
ARM GAS  C:\Temp\ccrtA2Jt.s 			page 94


 5469 00b6 0546     		mov	r5, r0
 5470 00b8 BBE7     		b	.L572
 5471              	.L581:
 5472 00ba 0023     		movs	r3, #0
 5473 00bc 8DF80430 		strb	r3, [sp, #4]
 5474 00c0 0723     		movs	r3, #7
 5475 00c2 8DF80530 		strb	r3, [sp, #5]
 5476 00c6 0223     		movs	r3, #2
 5477 00c8 01AA     		add	r2, sp, #4
 5478 00ca 40F27241 		movw	r1, #1138
 5479 00ce 2046     		mov	r0, r4
 5480 00d0 FFF7FEFF 		bl	VL53L1_WriteMulti
 5481 00d4 0546     		mov	r5, r0
 5482 00d6 0028     		cmp	r0, #0
 5483 00d8 ADD1     		bne	.L573
 5484 00da 0023     		movs	r3, #0
 5485 00dc 8DF80430 		strb	r3, [sp, #4]
 5486 00e0 0723     		movs	r3, #7
 5487 00e2 8DF80530 		strb	r3, [sp, #5]
 5488 00e6 0223     		movs	r3, #2
 5489 00e8 01AA     		add	r2, sp, #4
 5490 00ea 40F27441 		movw	r1, #1140
 5491 00ee 2046     		mov	r0, r4
 5492 00f0 FFF7FEFF 		bl	VL53L1_WriteMulti
 5493 00f4 0546     		mov	r5, r0
 5494 00f6 0028     		cmp	r0, #0
 5495 00f8 9DD1     		bne	.L573
 5496 00fa 0122     		movs	r2, #1
 5497 00fc 4FF48E61 		mov	r1, #1136
 5498 0100 2046     		mov	r0, r4
 5499 0102 FFF7FEFF 		bl	VL53L1_WrByte
 5500 0106 0546     		mov	r5, r0
 5501 0108 0028     		cmp	r0, #0
 5502 010a 94D1     		bne	.L573
 5503 010c 0122     		movs	r2, #1
 5504 010e 8521     		movs	r1, #133
 5505 0110 2046     		mov	r0, r4
 5506 0112 FFF7FEFF 		bl	VL53L1_WrByte
 5507 0116 0546     		mov	r5, r0
 5508 0118 8DE7     		b	.L573
 5510              		.section	.text.vl53l1_histo_merge,"ax",%progbits
 5511              		.align	1
 5512              		.syntax unified
 5513              		.thumb
 5514              		.thumb_func
 5516              	vl53l1_histo_merge:
 5517              		@ args = 0, pretend = 0, frame = 16
 5518              		@ frame_needed = 0, uses_anonymous_args = 0
 5519 0000 2DE9F043 		push	{r4, r5, r6, r7, r8, r9, lr}
 5520 0004 87B0     		sub	sp, sp, #28
 5521 0006 0646     		mov	r6, r0
 5522 0008 8846     		mov	r8, r1
 5523 000a 1746     		mov	r7, r2
 5524 000c 00F11809 		add	r9, r0, #24
 5525 0010 0023     		movs	r3, #0
 5526 0012 0593     		str	r3, [sp, #20]
 5527 0014 0493     		str	r3, [sp, #16]
ARM GAS  C:\Temp\ccrtA2Jt.s 			page 95


 5528 0016 0393     		str	r3, [sp, #12]
 5529 0018 90F85150 		ldrb	r5, [r0, #81]	@ zero_extendqisi2
 5530 001c 05AA     		add	r2, sp, #20
 5531 001e 48F28F01 		movw	r1, #32911
 5532 0022 FFF7FEFF 		bl	VL53L1_get_tuning_parm
 5533 0026 04AA     		add	r2, sp, #16
 5534 0028 48F28E01 		movw	r1, #32910
 5535 002c 3046     		mov	r0, r6
 5536 002e FFF7FEFF 		bl	VL53L1_get_tuning_parm
 5537 0032 96F84C30 		ldrb	r3, [r6, #76]	@ zero_extendqisi2
 5538 0036 33B1     		cbz	r3, .L603
 5539              	.L583:
 5540 0038 98F80B40 		ldrb	r4, [r8, #11]	@ zero_extendqisi2
 5541 003c A408     		lsrs	r4, r4, #2
 5542 003e 0022     		movs	r2, #0
 5543 0040 0392     		str	r2, [sp, #12]
 5544 0042 1146     		mov	r1, r2
 5545 0044 0AE0     		b	.L584
 5546              	.L603:
 5547 0046 4FF49042 		mov	r2, #18432
 5548 004a 0021     		movs	r1, #0
 5549 004c 06F5EC50 		add	r0, r6, #7552
 5550 0050 1C30     		adds	r0, r0, #28
 5551 0052 FFF7FEFF 		bl	memset
 5552 0056 EFE7     		b	.L583
 5553              	.L585:
 5554 0058 0132     		adds	r2, r2, #1
 5555 005a D2B2     		uxtb	r2, r2
 5556              	.L584:
 5557 005c 172A     		cmp	r2, #23
 5558 005e 10D8     		bhi	.L604
 5559 0060 04EB4400 		add	r0, r4, r4, lsl #1
 5560 0064 05EBC503 		add	r3, r5, r5, lsl #3
 5561 0068 5B01     		lsls	r3, r3, #5
 5562 006a 03EBC003 		add	r3, r3, r0, lsl #3
 5563 006e 1344     		add	r3, r3, r2
 5564 0070 03F5EC63 		add	r3, r3, #1888
 5565 0074 06EB8303 		add	r3, r6, r3, lsl #2
 5566 0078 DB69     		ldr	r3, [r3, #28]
 5567 007a 002B     		cmp	r3, #0
 5568 007c ECDD     		ble	.L585
 5569 007e 1946     		mov	r1, r3
 5570 0080 EAE7     		b	.L585
 5571              	.L604:
 5572 0082 0029     		cmp	r1, #0
 5573 0084 05DC     		bgt	.L605
 5574              	.L587:
 5575 0086 039A     		ldr	r2, [sp, #12]
 5576 0088 049B     		ldr	r3, [sp, #16]
 5577 008a 9A42     		cmp	r2, r3
 5578 008c 0CDA     		bge	.L606
 5579              	.L588:
 5580 008e 0021     		movs	r1, #0
 5581 0090 40E0     		b	.L589
 5582              	.L605:
 5583 0092 03AB     		add	r3, sp, #12
 5584 0094 0193     		str	r3, [sp, #4]
ARM GAS  C:\Temp\ccrtA2Jt.s 			page 96


 5585 0096 0023     		movs	r3, #0
 5586 0098 0093     		str	r3, [sp]
 5587 009a 1823     		movs	r3, #24
 5588 009c 2246     		mov	r2, r4
 5589 009e 4146     		mov	r1, r8
 5590 00a0 4846     		mov	r0, r9
 5591 00a2 FFF7FEFF 		bl	vl53l1_diff_histo_stddev
 5592 00a6 EEE7     		b	.L587
 5593              	.L606:
 5594 00a8 4FF49042 		mov	r2, #18432
 5595 00ac 0021     		movs	r1, #0
 5596 00ae 06F5EC50 		add	r0, r6, #7552
 5597 00b2 1C30     		adds	r0, r0, #28
 5598 00b4 FFF7FEFF 		bl	memset
 5599 00b8 E9E7     		b	.L588
 5600              	.L590:
 5601 00ba 9B1A     		subs	r3, r3, r2
 5602 00bc 981E     		subs	r0, r3, #2
 5603 00be 013B     		subs	r3, r3, #1
 5604 00c0 04EB440C 		add	ip, r4, r4, lsl #1
 5605 00c4 00EB4000 		add	r0, r0, r0, lsl #1
 5606 00c8 0001     		lsls	r0, r0, #4
 5607 00ca 00EBCC00 		add	r0, r0, ip, lsl #3
 5608 00ce 05EBC50C 		add	ip, r5, r5, lsl #3
 5609 00d2 00EB4C10 		add	r0, r0, ip, lsl #5
 5610 00d6 0844     		add	r0, r0, r1
 5611 00d8 00F5EC60 		add	r0, r0, #1888
 5612 00dc 06EB8000 		add	r0, r6, r0, lsl #2
 5613 00e0 C069     		ldr	r0, [r0, #28]
 5614 00e2 04EB440C 		add	ip, r4, r4, lsl #1
 5615 00e6 03EB4303 		add	r3, r3, r3, lsl #1
 5616 00ea 1B01     		lsls	r3, r3, #4
 5617 00ec 03EBCC03 		add	r3, r3, ip, lsl #3
 5618 00f0 05EBC50C 		add	ip, r5, r5, lsl #3
 5619 00f4 03EB4C13 		add	r3, r3, ip, lsl #5
 5620 00f8 0B44     		add	r3, r3, r1
 5621 00fa 03F5EC63 		add	r3, r3, #1888
 5622 00fe 06EB8303 		add	r3, r6, r3, lsl #2
 5623 0102 D861     		str	r0, [r3, #28]
 5624 0104 0132     		adds	r2, r2, #1
 5625 0106 D2B2     		uxtb	r2, r2
 5626              	.L591:
 5627 0108 059B     		ldr	r3, [sp, #20]
 5628 010a 581E     		subs	r0, r3, #1
 5629 010c 8242     		cmp	r2, r0
 5630 010e D4DB     		blt	.L590
 5631 0110 0131     		adds	r1, r1, #1
 5632 0112 C9B2     		uxtb	r1, r1
 5633              	.L589:
 5634 0114 1729     		cmp	r1, #23
 5635 0116 01D8     		bhi	.L607
 5636 0118 0022     		movs	r2, #0
 5637 011a F5E7     		b	.L591
 5638              	.L607:
 5639 011c 0022     		movs	r2, #0
 5640 011e 11E0     		b	.L592
 5641              	.L593:
ARM GAS  C:\Temp\ccrtA2Jt.s 			page 97


 5642 0120 931D     		adds	r3, r2, #6
 5643 0122 58F82300 		ldr	r0, [r8, r3, lsl #2]
 5644 0126 04EB4401 		add	r1, r4, r4, lsl #1
 5645 012a 05EBC503 		add	r3, r5, r5, lsl #3
 5646 012e 5B01     		lsls	r3, r3, #5
 5647 0130 03EBC103 		add	r3, r3, r1, lsl #3
 5648 0134 1344     		add	r3, r3, r2
 5649 0136 03F5EC63 		add	r3, r3, #1888
 5650 013a 06EB8303 		add	r3, r6, r3, lsl #2
 5651 013e D861     		str	r0, [r3, #28]
 5652 0140 0132     		adds	r2, r2, #1
 5653 0142 D2B2     		uxtb	r2, r2
 5654              	.L592:
 5655 0144 172A     		cmp	r2, #23
 5656 0146 EBD9     		bls	.L593
 5657 0148 0023     		movs	r3, #0
 5658 014a 04E0     		b	.L594
 5659              	.L595:
 5660 014c 0022     		movs	r2, #0
 5661 014e 47F82320 		str	r2, [r7, r3, lsl #2]
 5662 0152 0133     		adds	r3, r3, #1
 5663 0154 9BB2     		uxth	r3, r3
 5664              	.L594:
 5665 0156 172B     		cmp	r3, #23
 5666 0158 F8D9     		bls	.L595
 5667 015a 0020     		movs	r0, #0
 5668 015c 1CE0     		b	.L596
 5669              	.L597:
 5670 015e 57F82020 		ldr	r2, [r7, r0, lsl #2]
 5671 0162 04EB440C 		add	ip, r4, r4, lsl #1
 5672 0166 01EB4103 		add	r3, r1, r1, lsl #1
 5673 016a 1B01     		lsls	r3, r3, #4
 5674 016c 03EBCC03 		add	r3, r3, ip, lsl #3
 5675 0170 05EBC50C 		add	ip, r5, r5, lsl #3
 5676 0174 03EB4C13 		add	r3, r3, ip, lsl #5
 5677 0178 0344     		add	r3, r3, r0
 5678 017a 03F5EC63 		add	r3, r3, #1888
 5679 017e 06EB8303 		add	r3, r6, r3, lsl #2
 5680 0182 DB69     		ldr	r3, [r3, #28]
 5681 0184 1A44     		add	r2, r2, r3
 5682 0186 47F82020 		str	r2, [r7, r0, lsl #2]
 5683 018a 0131     		adds	r1, r1, #1
 5684 018c C9B2     		uxtb	r1, r1
 5685              	.L598:
 5686 018e 059B     		ldr	r3, [sp, #20]
 5687 0190 9942     		cmp	r1, r3
 5688 0192 E4DB     		blt	.L597
 5689 0194 0130     		adds	r0, r0, #1
 5690 0196 80B2     		uxth	r0, r0
 5691              	.L596:
 5692 0198 1728     		cmp	r0, #23
 5693 019a 01D8     		bhi	.L608
 5694 019c 0021     		movs	r1, #0
 5695 019e F6E7     		b	.L598
 5696              	.L608:
 5697 01a0 07B0     		add	sp, sp, #28
 5698              		@ sp needed
ARM GAS  C:\Temp\ccrtA2Jt.s 			page 98


 5699 01a2 BDE8F083 		pop	{r4, r5, r6, r7, r8, r9, pc}
 5701              		.section	.text.VL53L1_get_histogram_bin_data,"ax",%progbits
 5702              		.align	1
 5703              		.global	VL53L1_get_histogram_bin_data
 5704              		.syntax unified
 5705              		.thumb
 5706              		.thumb_func
 5708              	VL53L1_get_histogram_bin_data:
 5709              		@ args = 0, pretend = 0, frame = 360
 5710              		@ frame_needed = 0, uses_anonymous_args = 0
 5711 0000 2DE9F041 		push	{r4, r5, r6, r7, r8, lr}
 5712 0004 DAB0     		sub	sp, sp, #360
 5713 0006 0746     		mov	r7, r0
 5714 0008 0D46     		mov	r5, r1
 5715 000a 0024     		movs	r4, #0
 5716 000c 1994     		str	r4, [sp, #100]
 5717 000e 5323     		movs	r3, #83
 5718 0010 1AAA     		add	r2, sp, #104
 5719 0012 8821     		movs	r1, #136
 5720 0014 FFF7FEFF 		bl	VL53L1_ReadMulti
 5721 0018 8046     		mov	r8, r0
 5722 001a 9DF86830 		ldrb	r3, [sp, #104]	@ zero_extendqisi2
 5723 001e 85F87830 		strb	r3, [r5, #120]
 5724 0022 9DF86930 		ldrb	r3, [sp, #105]	@ zero_extendqisi2
 5725 0026 85F87930 		strb	r3, [r5, #121]
 5726 002a 9DF86A30 		ldrb	r3, [sp, #106]	@ zero_extendqisi2
 5727 002e 85F87A30 		strb	r3, [r5, #122]
 5728 0032 9DF86B30 		ldrb	r3, [sp, #107]	@ zero_extendqisi2
 5729 0036 85F87B30 		strb	r3, [r5, #123]
 5730 003a 1BA9     		add	r1, sp, #108
 5731 003c 0220     		movs	r0, #2
 5732 003e FFF7FEFF 		bl	VL53L1_i2c_decode_uint16_t
 5733 0042 A5F87C00 		strh	r0, [r5, #124]	@ movhi
 5734 0046 0DF1B601 		add	r1, sp, #182
 5735 004a 0220     		movs	r0, #2
 5736 004c FFF7FEFF 		bl	VL53L1_i2c_decode_uint16_t
 5737 0050 A5F87E00 		strh	r0, [r5, #126]	@ movhi
 5738 0054 9DF8B830 		ldrb	r3, [sp, #184]	@ zero_extendqisi2
 5739 0058 85F88030 		strb	r3, [r5, #128]
 5740 005c 07F58053 		add	r3, r7, #4096
 5741 0060 A3F8BC03 		strh	r0, [r3, #956]	@ movhi
 5742 0064 95F88020 		ldrb	r2, [r5, #128]	@ zero_extendqisi2
 5743 0068 83F8BE23 		strb	r2, [r3, #958]
 5744 006c 9DF8B930 		ldrb	r3, [sp, #185]	@ zero_extendqisi2
 5745 0070 9B00     		lsls	r3, r3, #2
 5746 0072 DBB2     		uxtb	r3, r3
 5747 0074 9DF8BA20 		ldrb	r2, [sp, #186]	@ zero_extendqisi2
 5748 0078 1344     		add	r3, r3, r2
 5749 007a 8DF8B530 		strb	r3, [sp, #181]
 5750 007e 0DF16E06 		add	r6, sp, #110
 5751 0082 09E0     		b	.L610
 5752              	.L611:
 5753 0084 3146     		mov	r1, r6
 5754 0086 0320     		movs	r0, #3
 5755 0088 FFF7FEFF 		bl	VL53L1_i2c_decode_uint32_t
 5756 008c A31D     		adds	r3, r4, #6
 5757 008e 45F82300 		str	r0, [r5, r3, lsl #2]
ARM GAS  C:\Temp\ccrtA2Jt.s 			page 99


 5758 0092 0336     		adds	r6, r6, #3
 5759 0094 0134     		adds	r4, r4, #1
 5760 0096 A4B2     		uxth	r4, r4
 5761              	.L610:
 5762 0098 172C     		cmp	r4, #23
 5763 009a F3D9     		bls	.L611
 5764 009c 19AA     		add	r2, sp, #100
 5765 009e 48F28D01 		movw	r1, #32909
 5766 00a2 3846     		mov	r0, r7
 5767 00a4 FFF7FEFF 		bl	VL53L1_get_tuning_parm
 5768 00a8 95F87B30 		ldrb	r3, [r5, #123]	@ zero_extendqisi2
 5769 00ac 73B3     		cbz	r3, .L624
 5770              	.L612:
 5771 00ae 97F85130 		ldrb	r3, [r7, #81]	@ zero_extendqisi2
 5772 00b2 AB70     		strb	r3, [r5, #2]
 5773 00b4 0023     		movs	r3, #0
 5774 00b6 2B72     		strb	r3, [r5, #8]
 5775 00b8 1823     		movs	r3, #24
 5776 00ba 6B72     		strb	r3, [r5, #9]
 5777 00bc AB72     		strb	r3, [r5, #10]
 5778 00be 97F88133 		ldrb	r3, [r7, #897]	@ zero_extendqisi2
 5779 00c2 85F88130 		strb	r3, [r5, #129]
 5780 00c6 97F88433 		ldrb	r3, [r7, #900]	@ zero_extendqisi2
 5781 00ca 1B01     		lsls	r3, r3, #4
 5782 00cc A5F88230 		strh	r3, [r5, #130]	@ movhi
 5783 00d0 97F86E23 		ldrb	r2, [r7, #878]	@ zero_extendqisi2
 5784 00d4 1344     		add	r3, r3, r2
 5785 00d6 A5F88230 		strh	r3, [r5, #130]	@ movhi
 5786 00da B7F83E33 		ldrh	r3, [r7, #830]
 5787 00de A5F88630 		strh	r3, [r5, #134]	@ movhi
 5788 00e2 2946     		mov	r1, r5
 5789 00e4 3846     		mov	r0, r7
 5790 00e6 FFF7FEFF 		bl	VL53L1_hist_get_bin_sequence_config
 5791 00ea 97F85030 		ldrb	r3, [r7, #80]	@ zero_extendqisi2
 5792 00ee B3B9     		cbnz	r3, .L613
 5793 00f0 97F89833 		ldrb	r3, [r7, #920]	@ zero_extendqisi2
 5794 00f4 97F89943 		ldrb	r4, [r7, #921]	@ zero_extendqisi2
 5795 00f8 04EB0324 		add	r4, r4, r3, lsl #8
 5796 00fc A4B2     		uxth	r4, r4
 5797 00fe 97F89A33 		ldrb	r3, [r7, #922]	@ zero_extendqisi2
 5798 0102 85F88430 		strb	r3, [r5, #132]
 5799              	.L614:
 5800 0106 0023     		movs	r3, #0
 5801 0108 EB72     		strb	r3, [r5, #11]
 5802 010a 16E0     		b	.L615
 5803              	.L624:
 5804 010c 4FF49042 		mov	r2, #18432
 5805 0110 0021     		movs	r1, #0
 5806 0112 07F5EC50 		add	r0, r7, #7552
 5807 0116 1C30     		adds	r0, r0, #28
 5808 0118 FFF7FEFF 		bl	memset
 5809 011c C7E7     		b	.L612
 5810              	.L613:
 5811 011e 97F89B33 		ldrb	r3, [r7, #923]	@ zero_extendqisi2
 5812 0122 97F89C43 		ldrb	r4, [r7, #924]	@ zero_extendqisi2
 5813 0126 04EB0324 		add	r4, r4, r3, lsl #8
 5814 012a A4B2     		uxth	r4, r4
ARM GAS  C:\Temp\ccrtA2Jt.s 			page 100


 5815 012c 97F89D33 		ldrb	r3, [r7, #925]	@ zero_extendqisi2
 5816 0130 85F88430 		strb	r3, [r5, #132]
 5817 0134 E7E7     		b	.L614
 5818              	.L616:
 5819 0136 0133     		adds	r3, r3, #1
 5820 0138 DBB2     		uxtb	r3, r3
 5821              	.L615:
 5822 013a 052B     		cmp	r3, #5
 5823 013c 09D8     		bhi	.L625
 5824 013e EA18     		adds	r2, r5, r3
 5825 0140 127B     		ldrb	r2, [r2, #12]	@ zero_extendqisi2
 5826 0142 02F00702 		and	r2, r2, #7
 5827 0146 072A     		cmp	r2, #7
 5828 0148 F5D1     		bne	.L616
 5829 014a EA7A     		ldrb	r2, [r5, #11]	@ zero_extendqisi2
 5830 014c 0432     		adds	r2, r2, #4
 5831 014e EA72     		strb	r2, [r5, #11]
 5832 0150 F1E7     		b	.L616
 5833              	.L625:
 5834 0152 01AA     		add	r2, sp, #4
 5835 0154 2946     		mov	r1, r5
 5836 0156 3846     		mov	r0, r7
 5837 0158 FFF7FEFF 		bl	vl53l1_histo_merge
 5838 015c 199B     		ldr	r3, [sp, #100]
 5839 015e 012B     		cmp	r3, #1
 5840 0160 54D0     		beq	.L626
 5841              	.L619:
 5842 0162 2046     		mov	r0, r4
 5843 0164 FFF7FEFF 		bl	VL53L1_decode_timeout
 5844 0168 C5F88800 		str	r0, [r5, #136]
 5845 016c B5F88600 		ldrh	r0, [r5, #134]
 5846 0170 FFF7FEFF 		bl	VL53L1_calc_pll_period_us
 5847 0174 D5F88830 		ldr	r3, [r5, #136]
 5848 0178 0133     		adds	r3, r3, #1
 5849 017a 4FF40062 		mov	r2, #2048
 5850 017e B5F88210 		ldrh	r1, [r5, #130]
 5851 0182 FFF7FEFF 		bl	VL53L1_duration_maths
 5852 0186 C5F88C00 		str	r0, [r5, #140]
 5853 018a 0024     		movs	r4, #0
 5854 018c C5F89040 		str	r4, [r5, #144]
 5855 0190 2846     		mov	r0, r5
 5856 0192 FFF7FEFF 		bl	VL53L1_hist_calc_zero_distance_phase
 5857 0196 2846     		mov	r0, r5
 5858 0198 FFF7FEFF 		bl	VL53L1_hist_estimate_ambient_from_ambient_bins
 5859 019c 97F84430 		ldrb	r3, [r7, #68]	@ zero_extendqisi2
 5860 01a0 2B70     		strb	r3, [r5]
 5861 01a2 97F84B30 		ldrb	r3, [r7, #75]	@ zero_extendqisi2
 5862 01a6 6B70     		strb	r3, [r5, #1]
 5863 01a8 AB78     		ldrb	r3, [r5, #2]	@ zero_extendqisi2
 5864 01aa 07F5C042 		add	r2, r7, #24576
 5865 01ae 03EB8301 		add	r1, r3, r3, lsl #2
 5866 01b2 02EB4101 		add	r1, r2, r1, lsl #1
 5867 01b6 91F89A17 		ldrb	r1, [r1, #1946]	@ zero_extendqisi2
 5868 01ba 85F8A810 		strb	r1, [r5, #168]
 5869 01be 03EB8303 		add	r3, r3, r3, lsl #2
 5870 01c2 02EB4303 		add	r3, r2, r3, lsl #1
 5871 01c6 93F89B37 		ldrb	r3, [r3, #1947]	@ zero_extendqisi2
ARM GAS  C:\Temp\ccrtA2Jt.s 			page 101


 5872 01ca 85F8A930 		strb	r3, [r5, #169]
 5873 01ce 82F80046 		strb	r4, [r2, #1536]
 5874 01d2 95F87930 		ldrb	r3, [r5, #121]	@ zero_extendqisi2
 5875 01d6 03F01F03 		and	r3, r3, #31
 5876 01da 112B     		cmp	r3, #17
 5877 01dc 04D8     		bhi	.L621
 5878 01de 104A     		ldr	r2, .L628
 5879 01e0 DA40     		lsrs	r2, r2, r3
 5880 01e2 12F0010F 		tst	r2, #1
 5881 01e6 13D1     		bne	.L627
 5882              	.L621:
 5883 01e8 4046     		mov	r0, r8
 5884 01ea 5AB0     		add	sp, sp, #360
 5885              		@ sp needed
 5886 01ec BDE8F081 		pop	{r4, r5, r6, r7, r8, pc}
 5887              	.L620:
 5888 01f0 5AAA     		add	r2, sp, #360
 5889 01f2 02EB8302 		add	r2, r2, r3, lsl #2
 5890 01f6 A2F5B272 		sub	r2, r2, #356
 5891 01fa 1168     		ldr	r1, [r2]
 5892 01fc 9A1D     		adds	r2, r3, #6
 5893 01fe 45F82210 		str	r1, [r5, r2, lsl #2]
 5894 0202 0133     		adds	r3, r3, #1
 5895 0204 DBB2     		uxtb	r3, r3
 5896              	.L618:
 5897 0206 172B     		cmp	r3, #23
 5898 0208 F2D9     		bls	.L620
 5899 020a AAE7     		b	.L619
 5900              	.L626:
 5901 020c 0023     		movs	r3, #0
 5902 020e FAE7     		b	.L618
 5903              	.L627:
 5904 0210 07F5C047 		add	r7, r7, #24576
 5905 0214 87F80036 		strb	r3, [r7, #1536]
 5906 0218 6FF00508 		mvn	r8, #5
 5907 021c E4E7     		b	.L621
 5908              	.L629:
 5909 021e 00BF     		.align	2
 5910              	.L628:
 5911 0220 0E200200 		.word	139278
 5913              		.section	.text.VL53L1_get_device_results,"ax",%progbits
 5914              		.align	1
 5915              		.global	VL53L1_get_device_results
 5916              		.syntax unified
 5917              		.thumb
 5918              		.thumb_func
 5920              	VL53L1_get_device_results:
 5921              		@ args = 0, pretend = 0, frame = 24
 5922              		@ frame_needed = 0, uses_anonymous_args = 0
 5923 0000 2DE9F04F 		push	{r4, r5, r6, r7, r8, r9, r10, fp, lr}
 5924 0004 8DB0     		sub	sp, sp, #52
 5925 0006 0446     		mov	r4, r0
 5926 0008 0792     		str	r2, [sp, #28]
 5927 000a 00F5CB46 		add	r6, r0, #25984
 5928 000e 7036     		adds	r6, r6, #112
 5929 0010 0123     		movs	r3, #1
 5930 0012 8DF82330 		strb	r3, [sp, #35]
ARM GAS  C:\Temp\ccrtA2Jt.s 			page 102


 5931 0016 90F8CC81 		ldrb	r8, [r0, #460]	@ zero_extendqisi2
 5932 001a 90F851A0 		ldrb	r10, [r0, #81]	@ zero_extendqisi2
 5933 001e 90F8C433 		ldrb	r3, [r0, #964]	@ zero_extendqisi2
 5934 0022 13F0020F 		tst	r3, #2
 5935 0026 00F03382 		beq	.L631
 5936 002a 00F11807 		add	r7, r0, #24
 5937 002e 00F51D7B 		add	fp, r0, #628
 5938 0032 00F22449 		addw	r9, r0, #1060
 5939 0036 4946     		mov	r1, r9
 5940 0038 FFF7FEFF 		bl	VL53L1_get_histogram_bin_data
 5941 003c 0546     		mov	r5, r0
 5942 003e 0028     		cmp	r0, #0
 5943 0040 40F00181 		bne	.L635
 5944 0044 94F82F34 		ldrb	r3, [r4, #1071]	@ zero_extendqisi2
 5945 0048 002B     		cmp	r3, #0
 5946 004a 61D0     		beq	.L667
 5947              	.L633:
 5948 004c 002D     		cmp	r5, #0
 5949 004e 40F0FA80 		bne	.L635
 5950 0052 0AF24A53 		addw	r3, r10, #1354
 5951 0056 04EB8303 		add	r3, r4, r3, lsl #2
 5952 005a 9B69     		ldr	r3, [r3, #24]
 5953 005c 002B     		cmp	r3, #0
 5954 005e 62D0     		beq	.L636
 5955 0060 C4F8EC32 		str	r3, [r4, #748]
 5956              	.L637:
 5957 0064 B8F1000F 		cmp	r8, #0
 5958 0068 64D1     		bne	.L668
 5959              	.L638:
 5960 006a 637E     		ldrb	r3, [r4, #25]	@ zero_extendqisi2
 5961 006c 1A2B     		cmp	r3, #26
 5962 006e 00F09480 		beq	.L669
 5963              	.L640:
 5964 0072 182B     		cmp	r3, #24
 5965 0074 00F0A080 		beq	.L670
 5966              	.L641:
 5967 0078 B4F8D230 		ldrh	r3, [r4, #210]
 5968 007c A4F89232 		strh	r3, [r4, #658]	@ movhi
 5969 0080 B4F9FE12 		ldrsh	r1, [r4, #766]
 5970 0084 D4F8EC02 		ldr	r0, [r4, #748]
 5971 0088 FFF7FEFF 		bl	VL53L1_calc_crosstalk_plane_offset_with_margin
 5972 008c C4F8A002 		str	r0, [r4, #672]
 5973 0090 B4F9F032 		ldrsh	r3, [r4, #752]
 5974 0094 A4F8A432 		strh	r3, [r4, #676]	@ movhi
 5975 0098 B4F9F232 		ldrsh	r3, [r4, #754]
 5976 009c A4F8A632 		strh	r3, [r4, #678]	@ movhi
 5977 00a0 94F87A32 		ldrb	r3, [r4, #634]	@ zero_extendqisi2
 5978 00a4 84F8B532 		strb	r3, [r4, #693]
 5979 00a8 D4F88032 		ldr	r3, [r4, #640]
 5980 00ac C4F8B832 		str	r3, [r4, #696]
 5981 00b0 D4F88832 		ldr	r3, [r4, #648]
 5982 00b4 C4F8BC32 		str	r3, [r4, #700]
 5983 00b8 B4F85E33 		ldrh	r3, [r4, #862]
 5984 00bc A4F8CC32 		strh	r3, [r4, #716]	@ movhi
 5985 00c0 94F89133 		ldrb	r3, [r4, #913]	@ zero_extendqisi2
 5986 00c4 84F8CE32 		strb	r3, [r4, #718]
 5987 00c8 B4F90833 		ldrsh	r3, [r4, #776]
ARM GAS  C:\Temp\ccrtA2Jt.s 			page 103


 5988 00cc A4F8AA32 		strh	r3, [r4, #682]	@ movhi
 5989 00d0 B4F90633 		ldrsh	r3, [r4, #774]
 5990 00d4 A4F8A832 		strh	r3, [r4, #680]	@ movhi
 5991 00d8 B4F80A33 		ldrh	r3, [r4, #778]
 5992 00dc A4F8AC32 		strh	r3, [r4, #684]	@ movhi
 5993 00e0 B4F80C33 		ldrh	r3, [r4, #780]
 5994 00e4 A4F8AE32 		strh	r3, [r4, #686]	@ movhi
 5995 00e8 04F50E75 		add	r5, r4, #568
 5996 00ec 2946     		mov	r1, r5
 5997 00ee 04F2F230 		addw	r0, r4, #1010
 5998 00f2 FFF7FEFF 		bl	VL53L1_copy_rtn_good_spads_to_buffer
 5999 00f6 637F     		ldrb	r3, [r4, #29]	@ zero_extendqisi2
 6000 00f8 022B     		cmp	r3, #2
 6001 00fa 00F0B280 		beq	.L643
 6002 00fe 032B     		cmp	r3, #3
 6003 0100 00F0BC80 		beq	.L644
 6004 0104 012B     		cmp	r3, #1
 6005 0106 6FD0     		beq	.L671
 6006 0108 0023     		movs	r3, #0
 6007 010a A4F89032 		strh	r3, [r4, #656]	@ movhi
 6008 010e 85E0     		b	.L646
 6009              	.L667:
 6010 0110 04F5D840 		add	r0, r4, #27648
 6011 0114 7830     		adds	r0, r0, #120
 6012 0116 00EB0A10 		add	r0, r0, r10, lsl #4
 6013 011a 4946     		mov	r1, r9
 6014 011c 0430     		adds	r0, r0, #4
 6015 011e FFF7FEFF 		bl	VL53L1_hist_copy_and_scale_ambient_info
 6016 0122 0546     		mov	r5, r0
 6017 0124 92E7     		b	.L633
 6018              	.L636:
 6019 0126 04F58053 		add	r3, r4, #4096
 6020 012a D3F8A432 		ldr	r3, [r3, #676]
 6021 012e C4F8EC32 		str	r3, [r4, #748]
 6022 0132 97E7     		b	.L637
 6023              	.L668:
 6024 0134 0DF12301 		add	r1, sp, #35
 6025 0138 2046     		mov	r0, r4
 6026 013a FFF7FEFF 		bl	VL53L1_compute_histo_merge_nb
 6027 013e 9DF82330 		ldrb	r3, [sp, #35]	@ zero_extendqisi2
 6028 0142 13B9     		cbnz	r3, .L639
 6029 0144 0123     		movs	r3, #1
 6030 0146 8DF82330 		strb	r3, [sp, #35]
 6031              	.L639:
 6032 014a 9DF82330 		ldrb	r3, [sp, #35]	@ zero_extendqisi2
 6033 014e 013B     		subs	r3, r3, #1
 6034 0150 DBB2     		uxtb	r3, r3
 6035 0152 03F2A242 		addw	r2, r3, #1186
 6036 0156 04EB8202 		add	r2, r4, r2, lsl #2
 6037 015a D269     		ldr	r2, [r2, #28]
 6038 015c C4F8EC22 		str	r2, [r4, #748]
 6039 0160 0AF24A5A 		addw	r10, r10, #1354
 6040 0164 04EB8A0A 		add	r10, r4, r10, lsl #2
 6041 0168 DAF81820 		ldr	r2, [r10, #24]
 6042 016c 002A     		cmp	r2, #0
 6043 016e 3FF47CAF 		beq	.L638
 6044 0172 94F8D411 		ldrb	r1, [r4, #468]	@ zero_extendqisi2
ARM GAS  C:\Temp\ccrtA2Jt.s 			page 104


 6045 0176 B2FBF1F2 		udiv	r2, r2, r1
 6046 017a 03FB0222 		mla	r2, r3, r2, r2
 6047 017e C4F8EC22 		str	r2, [r4, #748]
 6048 0182 0139     		subs	r1, r1, #1
 6049 0184 8B42     		cmp	r3, r1
 6050 0186 BFF670AF 		bge	.L638
 6051 018a C04B     		ldr	r3, .L681
 6052 018c A3FB0213 		umull	r1, r3, r3, r2
 6053 0190 02EB1312 		add	r2, r2, r3, lsr #4
 6054 0194 C4F8EC22 		str	r2, [r4, #748]
 6055 0198 67E7     		b	.L638
 6056              	.L669:
 6057 019a 94F82F24 		ldrb	r2, [r4, #1071]	@ zero_extendqisi2
 6058 019e 042A     		cmp	r2, #4
 6059 01a0 7FF467AF 		bne	.L640
 6060 01a4 D4F8EC22 		ldr	r2, [r4, #748]
 6061 01a8 B849     		ldr	r1, .L681
 6062 01aa A1FB0201 		umull	r0, r1, r1, r2
 6063 01ae 02EBD102 		add	r2, r2, r1, lsr #3
 6064 01b2 C4F8EC22 		str	r2, [r4, #748]
 6065 01b6 5CE7     		b	.L640
 6066              	.L670:
 6067 01b8 94F82F34 		ldrb	r3, [r4, #1071]	@ zero_extendqisi2
 6068 01bc 042B     		cmp	r3, #4
 6069 01be 09D0     		beq	.L672
 6070 01c0 D4F8EC32 		ldr	r3, [r4, #748]
 6071 01c4 B14A     		ldr	r2, .L681
 6072 01c6 A2FB0312 		umull	r1, r2, r2, r3
 6073 01ca 03EBD203 		add	r3, r3, r2, lsr #3
 6074 01ce C4F8EC32 		str	r3, [r4, #748]
 6075 01d2 51E7     		b	.L641
 6076              	.L672:
 6077 01d4 D4F8EC32 		ldr	r3, [r4, #748]
 6078 01d8 AC4A     		ldr	r2, .L681
 6079 01da A2FB0312 		umull	r1, r2, r2, r3
 6080 01de 03EB9203 		add	r3, r3, r2, lsr #2
 6081 01e2 C4F8EC32 		str	r3, [r4, #748]
 6082 01e6 47E7     		b	.L641
 6083              	.L671:
 6084 01e8 94F89133 		ldrb	r3, [r4, #913]	@ zero_extendqisi2
 6085 01ec 04F52472 		add	r2, r4, #656
 6086 01f0 0592     		str	r2, [sp, #20]
 6087 01f2 0493     		str	r3, [sp, #16]
 6088 01f4 0395     		str	r5, [sp, #12]
 6089 01f6 04F1B403 		add	r3, r4, #180
 6090 01fa 0293     		str	r3, [sp, #8]
 6091 01fc 94F8CD34 		ldrb	r3, [r4, #1229]	@ zero_extendqisi2
 6092 0200 0193     		str	r3, [sp, #4]
 6093 0202 94F8CC34 		ldrb	r3, [r4, #1228]	@ zero_extendqisi2
 6094 0206 0093     		str	r3, [sp]
 6095 0208 94F82334 		ldrb	r3, [r4, #1059]	@ zero_extendqisi2
 6096 020c 94F82224 		ldrb	r2, [r4, #1058]	@ zero_extendqisi2
 6097 0210 B4F97610 		ldrsh	r1, [r4, #118]
 6098 0214 B4F97400 		ldrsh	r0, [r4, #116]
 6099 0218 FFF7FEFF 		bl	VL53L1_hist_combine_mm1_mm2_offsets
 6100              	.L646:
 6101 021c 04F2CA23 		addw	r3, r4, #714
ARM GAS  C:\Temp\ccrtA2Jt.s 			page 105


 6102 0220 0093     		str	r3, [sp]
 6103 0222 94F89133 		ldrb	r3, [r4, #913]	@ zero_extendqisi2
 6104 0226 2A46     		mov	r2, r5
 6105 0228 94F8CD14 		ldrb	r1, [r4, #1229]	@ zero_extendqisi2
 6106 022c 94F8CC04 		ldrb	r0, [r4, #1228]	@ zero_extendqisi2
 6107 0230 FFF7FEFF 		bl	VL53L1_calc_max_effective_spads
 6108 0234 09AB     		add	r3, sp, #36
 6109 0236 94F85120 		ldrb	r2, [r4, #81]	@ zero_extendqisi2
 6110 023a A17F     		ldrb	r1, [r4, #30]	@ zero_extendqisi2
 6111 023c 2046     		mov	r0, r4
 6112 023e FFF7FEFF 		bl	VL53L1_get_dmax_calibration_data
 6113 0242 0546     		mov	r5, r0
 6114 0244 28B3     		cbz	r0, .L673
 6115              	.L635:
 6116 0246 94F8DB30 		ldrb	r3, [r4, #219]	@ zero_extendqisi2
 6117 024a 002B     		cmp	r3, #0
 6118 024c 00F00A81 		beq	.L651
 6119 0250 94F84B30 		ldrb	r3, [r4, #75]	@ zero_extendqisi2
 6120 0254 062B     		cmp	r3, #6
 6121 0256 02D0     		beq	.L652
 6122 0258 002D     		cmp	r5, #0
 6123 025a 00F0E980 		beq	.L674
 6124              	.L652:
 6125 025e 0023     		movs	r3, #0
 6126 0260 F2E0     		b	.L653
 6127              	.L643:
 6128 0262 94F85120 		ldrb	r2, [r4, #81]	@ zero_extendqisi2
 6129 0266 04F5C043 		add	r3, r4, #24576
 6130 026a C2EBC202 		rsb	r2, r2, r2, lsl #3
 6131 026e 03EB8203 		add	r3, r3, r2, lsl #2
 6132 0272 B3F9A83D 		ldrsh	r3, [r3, #3496]
 6133 0276 A4F89032 		strh	r3, [r4, #656]	@ movhi
 6134 027a CFE7     		b	.L646
 6135              	.L644:
 6136 027c 04F52471 		add	r1, r4, #656
 6137 0280 3846     		mov	r0, r7
 6138 0282 FFF7FEFF 		bl	select_offset_per_vcsel
 6139 0286 B4F89032 		ldrh	r3, [r4, #656]
 6140 028a 9B00     		lsls	r3, r3, #2
 6141 028c A4F89032 		strh	r3, [r4, #656]	@ movhi
 6142 0290 C4E7     		b	.L646
 6143              	.L673:
 6144 0292 04F5AC53 		add	r3, r4, #5504
 6145 0296 1033     		adds	r3, r3, #16
 6146 0298 04F5DC52 		add	r2, r4, #7040
 6147 029c 1032     		adds	r2, r2, #16
 6148 029e 0596     		str	r6, [sp, #20]
 6149 02a0 0DF12301 		add	r1, sp, #35
 6150 02a4 0491     		str	r1, [sp, #16]
 6151 02a6 0392     		str	r2, [sp, #12]
 6152 02a8 0293     		str	r3, [sp, #8]
 6153 02aa 04F27C53 		addw	r3, r4, #1404
 6154 02ae 0193     		str	r3, [sp, #4]
 6155 02b0 CDF80090 		str	r9, [sp]
 6156 02b4 5B46     		mov	r3, fp
 6157 02b6 04F52D72 		add	r2, r4, #692
 6158 02ba 09A9     		add	r1, sp, #36
ARM GAS  C:\Temp\ccrtA2Jt.s 			page 106


 6159 02bc 2046     		mov	r0, r4
 6160 02be FFF7FEFF 		bl	VL53L1_ipp_hist_process_data
 6161 02c2 0546     		mov	r5, r0
 6162 02c4 B8F1000F 		cmp	r8, #0
 6163 02c8 38D0     		beq	.L647
 6164 02ca 9DF82320 		ldrb	r2, [sp, #35]	@ zero_extendqisi2
 6165 02ce 012A     		cmp	r2, #1
 6166 02d0 34D9     		bls	.L647
 6167 02d2 0021     		movs	r1, #0
 6168 02d4 30E0     		b	.L648
 6169              	.L649:
 6170 02d6 04F5C043 		add	r3, r4, #24576
 6171 02da 4C20     		movs	r0, #76
 6172 02dc 00FB0133 		mla	r3, r0, r1, r3
 6173 02e0 D3F82806 		ldr	r0, [r3, #1576]
 6174 02e4 B0FBF2F0 		udiv	r0, r0, r2
 6175 02e8 C3F82806 		str	r0, [r3, #1576]
 6176 02ec D3F82C06 		ldr	r0, [r3, #1580]
 6177 02f0 B0FBF2F0 		udiv	r0, r0, r2
 6178 02f4 C3F82C06 		str	r0, [r3, #1580]
 6179 02f8 D3F83006 		ldr	r0, [r3, #1584]
 6180 02fc 90FBF2F0 		sdiv	r0, r0, r2
 6181 0300 C3F83006 		str	r0, [r3, #1584]
 6182 0304 B3F83406 		ldrh	r0, [r3, #1588]
 6183 0308 90FBF2F0 		sdiv	r0, r0, r2
 6184 030c A3F83406 		strh	r0, [r3, #1588]	@ movhi
 6185 0310 B3F83606 		ldrh	r0, [r3, #1590]
 6186 0314 90FBF2F0 		sdiv	r0, r0, r2
 6187 0318 A3F83606 		strh	r0, [r3, #1590]	@ movhi
 6188 031c B3F83806 		ldrh	r0, [r3, #1592]
 6189 0320 90FBF2F0 		sdiv	r0, r0, r2
 6190 0324 A3F83806 		strh	r0, [r3, #1592]	@ movhi
 6191 0328 D3F83C06 		ldr	r0, [r3, #1596]
 6192 032c B0FBF2F0 		udiv	r0, r0, r2
 6193 0330 C3F83C06 		str	r0, [r3, #1596]
 6194 0334 0131     		adds	r1, r1, #1
 6195 0336 C9B2     		uxtb	r1, r1
 6196              	.L648:
 6197 0338 0329     		cmp	r1, #3
 6198 033a CCD9     		bls	.L649
 6199              	.L647:
 6200 033c 002D     		cmp	r5, #0
 6201 033e 82D1     		bne	.L635
 6202 0340 04F5CB42 		add	r2, r4, #25984
 6203 0344 7E32     		adds	r2, r2, #126
 6204 0346 4946     		mov	r1, r9
 6205 0348 5846     		mov	r0, fp
 6206 034a FFF7FEFF 		bl	VL53L1_hist_wrap_dmax
 6207 034e 0546     		mov	r5, r0
 6208 0350 0028     		cmp	r0, #0
 6209 0352 7FF478AF 		bne	.L635
 6210 0356 94F85110 		ldrb	r1, [r4, #81]	@ zero_extendqisi2
 6211 035a 04F5CB43 		add	r3, r4, #25984
 6212 035e 7033     		adds	r3, r3, #112
 6213 0360 01EB0112 		add	r2, r1, r1, lsl #4
 6214 0364 9200     		lsls	r2, r2, #2
 6215 0366 02F51072 		add	r2, r2, #576
ARM GAS  C:\Temp\ccrtA2Jt.s 			page 107


 6216 036a 1A44     		add	r2, r2, r3
 6217 036c 04F5D843 		add	r3, r4, #27648
 6218 0370 7833     		adds	r3, r3, #120
 6219 0372 03EB0111 		add	r1, r3, r1, lsl #4
 6220 0376 3346     		mov	r3, r6
 6221 0378 0832     		adds	r2, r2, #8
 6222 037a 0431     		adds	r1, r1, #4
 6223 037c 2046     		mov	r0, r4
 6224 037e FFF7FEFF 		bl	VL53L1_hist_phase_consistency_check
 6225 0382 0546     		mov	r5, r0
 6226 0384 0028     		cmp	r0, #0
 6227 0386 7FF45EAF 		bne	.L635
 6228 038a 94F85100 		ldrb	r0, [r4, #81]	@ zero_extendqisi2
 6229 038e 04F5CB43 		add	r3, r4, #25984
 6230 0392 7033     		adds	r3, r3, #112
 6231 0394 00EB0012 		add	r2, r0, r0, lsl #4
 6232 0398 9200     		lsls	r2, r2, #2
 6233 039a 02F51072 		add	r2, r2, #576
 6234 039e 1A44     		add	r2, r2, r3
 6235 03a0 04F5D841 		add	r1, r4, #27648
 6236 03a4 7831     		adds	r1, r1, #120
 6237 03a6 01EB0011 		add	r1, r1, r0, lsl #4
 6238 03aa 03F5A273 		add	r3, r3, #324
 6239 03ae 0832     		adds	r2, r2, #8
 6240 03b0 0431     		adds	r1, r1, #4
 6241 03b2 2046     		mov	r0, r4
 6242 03b4 FFF7FEFF 		bl	VL53L1_hist_xmonitor_consistency_check
 6243 03b8 0546     		mov	r5, r0
 6244 03ba 0028     		cmp	r0, #0
 6245 03bc 7FF443AF 		bne	.L635
 6246 03c0 94F85120 		ldrb	r2, [r4, #81]	@ zero_extendqisi2
 6247 03c4 04F5C043 		add	r3, r4, #24576
 6248 03c8 1021     		movs	r1, #16
 6249 03ca 83F8781C 		strb	r1, [r3, #3192]
 6250 03ce 94F8DB10 		ldrb	r1, [r4, #219]	@ zero_extendqisi2
 6251 03d2 0131     		adds	r1, r1, #1
 6252 03d4 83F8791C 		strb	r1, [r3, #3193]
 6253 03d8 84F82624 		strb	r2, [r4, #1062]
 6254 03dc 93F83438 		ldrb	r3, [r3, #2100]	@ zero_extendqisi2
 6255 03e0 9342     		cmp	r3, r2
 6256 03e2 1BD9     		bls	.L650
 6257 03e4 94F82514 		ldrb	r1, [r4, #1061]	@ zero_extendqisi2
 6258 03e8 04F5C043 		add	r3, r4, #24576
 6259 03ec 03EB0213 		add	r3, r3, r2, lsl #4
 6260 03f0 83F87C1C 		strb	r1, [r3, #3196]
 6261 03f4 94F82F24 		ldrb	r2, [r4, #1071]	@ zero_extendqisi2
 6262 03f8 83F87D2C 		strb	r2, [r3, #3197]
 6263 03fc B4F8A024 		ldrh	r2, [r4, #1184]
 6264 0400 A3F87E2C 		strh	r2, [r3, #3198]	@ movhi
 6265 0404 94F8A824 		ldrb	r2, [r4, #1192]	@ zero_extendqisi2
 6266 0408 83F8802C 		strb	r2, [r3, #3200]
 6267 040c D4F8AC24 		ldr	r2, [r4, #1196]
 6268 0410 C3F8842C 		str	r2, [r3, #3204]
 6269 0414 D4F8C424 		ldr	r2, [r4, #1220]
 6270 0418 C3F8882C 		str	r2, [r3, #3208]
 6271              	.L650:
 6272 041c 04F59C53 		add	r3, r4, #4992
ARM GAS  C:\Temp\ccrtA2Jt.s 			page 108


 6273 0420 1833     		adds	r3, r3, #24
 6274 0422 04F2C632 		addw	r2, r4, #966
 6275 0426 3146     		mov	r1, r6
 6276 0428 4846     		mov	r0, r9
 6277 042a FFF7FEFF 		bl	VL53L1_hist_copy_results_to_sys_and_core
 6278 042e 0AE7     		b	.L635
 6279              	.L674:
 6280 0430 3146     		mov	r1, r6
 6281 0432 2046     		mov	r0, r4
 6282 0434 FFF7FEFF 		bl	VL53L1_dynamic_zone_update
 6283 0438 0546     		mov	r5, r0
 6284 043a 10E7     		b	.L652
 6285              	.L665:
 6286 043c 0121     		movs	r1, #1
 6287              	.L654:
 6288 043e E218     		adds	r2, r4, r3
 6289 0440 82F83611 		strb	r1, [r2, #310]
