ARM GAS  C:\Temp\ccUJJAjd.s 			page 1


   1              		.cpu cortex-m4
   2              		.arch armv7e-m
   3              		.fpu fpv4-sp-d16
   4              		.eabi_attribute 27, 1
   5              		.eabi_attribute 28, 1
   6              		.eabi_attribute 20, 1
   7              		.eabi_attribute 21, 1
   8              		.eabi_attribute 23, 3
   9              		.eabi_attribute 24, 1
  10              		.eabi_attribute 25, 1
  11              		.eabi_attribute 26, 1
  12              		.eabi_attribute 30, 1
  13              		.eabi_attribute 34, 1
  14              		.eabi_attribute 18, 4
  15              		.file	"vl53l1_nvm.c"
  16              		.text
  17              		.section	.text.VL53L1_nvm_enable,"ax",%progbits
  18              		.align	1
  19              		.global	VL53L1_nvm_enable
  20              		.syntax unified
  21              		.thumb
  22              		.thumb_func
  24              	VL53L1_nvm_enable:
  25              		@ args = 0, pretend = 0, frame = 0
  26              		@ frame_needed = 0, uses_anonymous_args = 0
  27 0000 70B5     		push	{r4, r5, r6, lr}
  28 0002 0646     		mov	r6, r0
  29 0004 0D46     		mov	r5, r1
  30 0006 1446     		mov	r4, r2
  31 0008 FFF7FEFF 		bl	VL53L1_disable_firmware
  32 000c 0346     		mov	r3, r0
  33 000e 10B1     		cbz	r0, .L5
  34              	.L2:
  35 0010 6BB1     		cbz	r3, .L6
  36              	.L3:
  37 0012 1846     		mov	r0, r3
  38 0014 70BD     		pop	{r4, r5, r6, pc}
  39              	.L5:
  40 0016 3046     		mov	r0, r6
  41 0018 FFF7FEFF 		bl	VL53L1_enable_powerforce
  42 001c 0346     		mov	r3, r0
  43 001e 0028     		cmp	r0, #0
  44 0020 F7D1     		bne	.L3
  45 0022 FA21     		movs	r1, #250
  46 0024 3046     		mov	r0, r6
  47 0026 FFF7FEFF 		bl	VL53L1_WaitUs
  48 002a 0346     		mov	r3, r0
  49 002c F0E7     		b	.L2
  50              	.L6:
  51 002e 0122     		movs	r2, #1
  52 0030 40F28171 		movw	r1, #1921
  53 0034 3046     		mov	r0, r6
  54 0036 FFF7FEFF 		bl	VL53L1_WrByte
  55 003a 0346     		mov	r3, r0
  56 003c 0028     		cmp	r0, #0
  57 003e E8D1     		bne	.L3
  58 0040 0522     		movs	r2, #5
ARM GAS  C:\Temp\ccUJJAjd.s 			page 2


  59 0042 40F28361 		movw	r1, #1667
  60 0046 3046     		mov	r0, r6
  61 0048 FFF7FEFF 		bl	VL53L1_WrByte
  62 004c 0346     		mov	r3, r0
  63 004e 0028     		cmp	r0, #0
  64 0050 DFD1     		bne	.L3
  65 0052 2146     		mov	r1, r4
  66 0054 3046     		mov	r0, r6
  67 0056 FFF7FEFF 		bl	VL53L1_WaitUs
  68 005a 0346     		mov	r3, r0
  69 005c 0028     		cmp	r0, #0
  70 005e D8D1     		bne	.L3
  71 0060 0122     		movs	r2, #1
  72 0062 4FF4F061 		mov	r1, #1920
  73 0066 3046     		mov	r0, r6
  74 0068 FFF7FEFF 		bl	VL53L1_WrByte
  75 006c 0346     		mov	r3, r0
  76 006e 0028     		cmp	r0, #0
  77 0070 CFD1     		bne	.L3
  78 0072 2A46     		mov	r2, r5
  79 0074 40F28471 		movw	r1, #1924
  80 0078 3046     		mov	r0, r6
  81 007a FFF7FEFF 		bl	VL53L1_WrWord
  82 007e 0346     		mov	r3, r0
  83 0080 C7E7     		b	.L3
  85              		.section	.text.VL53L1_nvm_read,"ax",%progbits
  86              		.align	1
  87              		.global	VL53L1_nvm_read
  88              		.syntax unified
  89              		.thumb
  90              		.thumb_func
  92              	VL53L1_nvm_read:
  93              		@ args = 0, pretend = 0, frame = 0
  94              		@ frame_needed = 0, uses_anonymous_args = 0
  95 0000 2DE9F843 		push	{r3, r4, r5, r6, r7, r8, r9, lr}
  96 0004 8146     		mov	r9, r0
  97 0006 0F46     		mov	r7, r1
  98 0008 9046     		mov	r8, r2
  99 000a 1E46     		mov	r6, r3
 100 000c 0C46     		mov	r4, r1
 101 000e 0025     		movs	r5, #0
 102 0010 0AE0     		b	.L8
 103              	.L15:
 104 0012 2246     		mov	r2, r4
 105 0014 40F29471 		movw	r1, #1940
 106 0018 4846     		mov	r0, r9
 107 001a FFF7FEFF 		bl	VL53L1_WrByte
 108 001e 0546     		mov	r5, r0
 109 0020 18B3     		cbz	r0, .L13
 110              	.L10:
 111 0022 0436     		adds	r6, r6, #4
 112 0024 0134     		adds	r4, r4, #1
 113 0026 E4B2     		uxtb	r4, r4
 114              	.L8:
 115 0028 07EB0803 		add	r3, r7, r8
 116 002c 9C42     		cmp	r4, r3
 117 002e 24DA     		bge	.L14
ARM GAS  C:\Temp\ccUJJAjd.s 			page 3


 118 0030 002D     		cmp	r5, #0
 119 0032 EED0     		beq	.L15
 120              	.L9:
 121 0034 002D     		cmp	r5, #0
 122 0036 F4D1     		bne	.L10
 123 0038 0521     		movs	r1, #5
 124 003a 4846     		mov	r0, r9
 125 003c FFF7FEFF 		bl	VL53L1_WaitUs
 126 0040 0546     		mov	r5, r0
 127 0042 0028     		cmp	r0, #0
 128 0044 EDD1     		bne	.L10
 129 0046 0122     		movs	r2, #1
 130 0048 40F28371 		movw	r1, #1923
 131 004c 4846     		mov	r0, r9
 132 004e FFF7FEFF 		bl	VL53L1_WrByte
 133 0052 0546     		mov	r5, r0
 134 0054 0028     		cmp	r0, #0
 135 0056 E4D1     		bne	.L10
 136 0058 0423     		movs	r3, #4
 137 005a 3246     		mov	r2, r6
 138 005c 4FF4F261 		mov	r1, #1936
 139 0060 4846     		mov	r0, r9
 140 0062 FFF7FEFF 		bl	VL53L1_ReadMulti
 141 0066 0546     		mov	r5, r0
 142 0068 DBE7     		b	.L10
 143              	.L13:
 144 006a 0022     		movs	r2, #0
 145 006c 40F28371 		movw	r1, #1923
 146 0070 4846     		mov	r0, r9
 147 0072 FFF7FEFF 		bl	VL53L1_WrByte
 148 0076 0546     		mov	r5, r0
 149 0078 DCE7     		b	.L9
 150              	.L14:
 151 007a 2846     		mov	r0, r5
 152 007c BDE8F883 		pop	{r3, r4, r5, r6, r7, r8, r9, pc}
 154              		.section	.text.VL53L1_nvm_disable,"ax",%progbits
 155              		.align	1
 156              		.global	VL53L1_nvm_disable
 157              		.syntax unified
 158              		.thumb
 159              		.thumb_func
 161              	VL53L1_nvm_disable:
 162              		@ args = 0, pretend = 0, frame = 0
 163              		@ frame_needed = 0, uses_anonymous_args = 0
 164 0000 10B5     		push	{r4, lr}
 165 0002 0446     		mov	r4, r0
 166 0004 0122     		movs	r2, #1
 167 0006 40F28371 		movw	r1, #1923
 168 000a FFF7FEFF 		bl	VL53L1_WrByte
 169 000e 0346     		mov	r3, r0
 170 0010 10B1     		cbz	r0, .L20
 171              	.L17:
 172 0012 7BB1     		cbz	r3, .L21
 173              	.L18:
 174 0014 1846     		mov	r0, r3
 175 0016 10BD     		pop	{r4, pc}
 176              	.L20:
ARM GAS  C:\Temp\ccUJJAjd.s 			page 4


 177 0018 0022     		movs	r2, #0
 178 001a 40F28171 		movw	r1, #1921
 179 001e 2046     		mov	r0, r4
 180 0020 FFF7FEFF 		bl	VL53L1_WrByte
 181 0024 0346     		mov	r3, r0
 182 0026 0028     		cmp	r0, #0
 183 0028 F4D1     		bne	.L18
 184 002a 2046     		mov	r0, r4
 185 002c FFF7FEFF 		bl	VL53L1_disable_powerforce
 186 0030 0346     		mov	r3, r0
 187 0032 EEE7     		b	.L17
 188              	.L21:
 189 0034 2046     		mov	r0, r4
 190 0036 FFF7FEFF 		bl	VL53L1_enable_firmware
 191 003a 0346     		mov	r3, r0
 192 003c EAE7     		b	.L18
 194              		.section	.text.VL53L1_nvm_decode_optical_centre,"ax",%progbits
 195              		.align	1
 196              		.global	VL53L1_nvm_decode_optical_centre
 197              		.syntax unified
 198              		.thumb
 199              		.thumb_func
 201              	VL53L1_nvm_decode_optical_centre:
 202              		@ args = 0, pretend = 0, frame = 0
 203              		@ frame_needed = 0, uses_anonymous_args = 0
 204              		@ link register save eliminated.
 205 0000 0328     		cmp	r0, #3
 206 0002 0BD9     		bls	.L25
 207 0004 8B78     		ldrb	r3, [r1, #2]	@ zero_extendqisi2
 208 0006 C3F1F003 		rsb	r3, r3, #240
 209 000a 9BB2     		uxth	r3, r3
 210 000c FF2B     		cmp	r3, #255
 211 000e 00D9     		bls	.L24
 212 0010 0023     		movs	r3, #0
 213              	.L24:
 214 0012 1370     		strb	r3, [r2]
 215 0014 CB78     		ldrb	r3, [r1, #3]	@ zero_extendqisi2
 216 0016 5370     		strb	r3, [r2, #1]
 217 0018 0020     		movs	r0, #0
 218 001a 7047     		bx	lr
 219              	.L25:
 220 001c 6FF00800 		mvn	r0, #8
 221 0020 7047     		bx	lr
 223              		.section	.text.VL53L1_nvm_decode_cal_peak_rate_map,"ax",%progbits
 224              		.align	1
 225              		.global	VL53L1_nvm_decode_cal_peak_rate_map
 226              		.syntax unified
 227              		.thumb
 228              		.thumb_func
 230              	VL53L1_nvm_decode_cal_peak_rate_map:
 231              		@ args = 0, pretend = 0, frame = 0
 232              		@ frame_needed = 0, uses_anonymous_args = 0
 233 0000 3728     		cmp	r0, #55
 234 0002 24D9     		bls	.L31
 235 0004 70B5     		push	{r4, r5, r6, lr}
 236 0006 0D46     		mov	r5, r1
 237 0008 1646     		mov	r6, r2
ARM GAS  C:\Temp\ccUJJAjd.s 			page 5


 238 000a 0220     		movs	r0, #2
 239 000c FFF7FEFF 		bl	VL53L1_i2c_decode_uint16_t
 240 0010 3080     		strh	r0, [r6]	@ movhi
 241 0012 A91C     		adds	r1, r5, #2
 242 0014 0220     		movs	r0, #2
 243 0016 FFF7FEFF 		bl	VL53L1_i2c_decode_uint16_t
 244 001a 7080     		strh	r0, [r6, #2]	@ movhi
 245 001c 8009     		lsrs	r0, r0, #6
 246 001e 7080     		strh	r0, [r6, #2]	@ movhi
 247 0020 1923     		movs	r3, #25
 248 0022 B380     		strh	r3, [r6, #4]	@ movhi
 249 0024 0523     		movs	r3, #5
 250 0026 F380     		strh	r3, [r6, #6]	@ movhi
 251 0028 3381     		strh	r3, [r6, #8]	@ movhi
 252 002a 0435     		adds	r5, r5, #4
 253 002c 0024     		movs	r4, #0
 254 002e 0AE0     		b	.L29
 255              	.L30:
 256 0030 2946     		mov	r1, r5
 257 0032 0220     		movs	r0, #2
 258 0034 FFF7FEFF 		bl	VL53L1_i2c_decode_uint16_t
 259 0038 231D     		adds	r3, r4, #4
 260 003a 06EB4303 		add	r3, r6, r3, lsl #1
 261 003e 5880     		strh	r0, [r3, #2]	@ movhi
 262 0040 0235     		adds	r5, r5, #2
 263 0042 0134     		adds	r4, r4, #1
 264 0044 E4B2     		uxtb	r4, r4
 265              	.L29:
 266 0046 182C     		cmp	r4, #24
 267 0048 F2D9     		bls	.L30
 268 004a 0020     		movs	r0, #0
 269 004c 70BD     		pop	{r4, r5, r6, pc}
 270              	.L31:
 271 004e 6FF00800 		mvn	r0, #8
 272 0052 7047     		bx	lr
 274              		.section	.text.VL53L1_nvm_decode_additional_offset_cal_data,"ax",%progbits
 275              		.align	1
 276              		.global	VL53L1_nvm_decode_additional_offset_cal_data
 277              		.syntax unified
 278              		.thumb
 279              		.thumb_func
 281              	VL53L1_nvm_decode_additional_offset_cal_data:
 282              		@ args = 0, pretend = 0, frame = 0
 283              		@ frame_needed = 0, uses_anonymous_args = 0
 284 0000 0728     		cmp	r0, #7
 285 0002 17D9     		bls	.L38
 286 0004 38B5     		push	{r3, r4, r5, lr}
 287 0006 0D46     		mov	r5, r1
 288 0008 1446     		mov	r4, r2
 289 000a 0220     		movs	r0, #2
 290 000c FFF7FEFF 		bl	VL53L1_i2c_decode_uint16_t
 291 0010 2080     		strh	r0, [r4]	@ movhi
 292 0012 A91C     		adds	r1, r5, #2
 293 0014 0220     		movs	r0, #2
 294 0016 FFF7FEFF 		bl	VL53L1_i2c_decode_uint16_t
 295 001a 6080     		strh	r0, [r4, #2]	@ movhi
 296 001c 291D     		adds	r1, r5, #4
ARM GAS  C:\Temp\ccUJJAjd.s 			page 6


 297 001e 0220     		movs	r0, #2
 298 0020 FFF7FEFF 		bl	VL53L1_i2c_decode_uint16_t
 299 0024 A080     		strh	r0, [r4, #4]	@ movhi
 300 0026 A91D     		adds	r1, r5, #6
 301 0028 0220     		movs	r0, #2
 302 002a FFF7FEFF 		bl	VL53L1_i2c_decode_uint16_t
 303 002e E080     		strh	r0, [r4, #6]	@ movhi
 304 0030 0020     		movs	r0, #0
 305 0032 38BD     		pop	{r3, r4, r5, pc}
 306              	.L38:
 307 0034 6FF00800 		mvn	r0, #8
 308 0038 7047     		bx	lr
 310              		.section	.text.VL53L1_nvm_decode_fmt_range_results_data,"ax",%progbits
 311              		.align	1
 312              		.global	VL53L1_nvm_decode_fmt_range_results_data
 313              		.syntax unified
 314              		.thumb
 315              		.thumb_func
 317              	VL53L1_nvm_decode_fmt_range_results_data:
 318              		@ args = 0, pretend = 0, frame = 0
 319              		@ frame_needed = 0, uses_anonymous_args = 0
 320 0000 0F28     		cmp	r0, #15
 321 0002 2ED9     		bls	.L45
 322 0004 38B5     		push	{r3, r4, r5, lr}
 323 0006 0D46     		mov	r5, r1
 324 0008 1446     		mov	r4, r2
 325 000a 0220     		movs	r0, #2
 326 000c FFF7FEFF 		bl	VL53L1_i2c_decode_uint16_t
 327 0010 2080     		strh	r0, [r4]	@ movhi
 328 0012 AB78     		ldrb	r3, [r5, #2]	@ zero_extendqisi2
 329 0014 A370     		strb	r3, [r4, #2]
 330 0016 EB78     		ldrb	r3, [r5, #3]	@ zero_extendqisi2
 331 0018 E370     		strb	r3, [r4, #3]
 332 001a 291D     		adds	r1, r5, #4
 333 001c 0220     		movs	r0, #2
 334 001e FFF7FEFF 		bl	VL53L1_i2c_decode_uint16_t
 335 0022 A080     		strh	r0, [r4, #4]	@ movhi
 336 0024 A91D     		adds	r1, r5, #6
 337 0026 0220     		movs	r0, #2
 338 0028 FFF7FEFF 		bl	VL53L1_i2c_decode_uint16_t
 339 002c E080     		strh	r0, [r4, #6]	@ movhi
 340 002e 05F10801 		add	r1, r5, #8
 341 0032 0220     		movs	r0, #2
 342 0034 FFF7FEFF 		bl	VL53L1_i2c_decode_uint16_t
 343 0038 2081     		strh	r0, [r4, #8]	@ movhi
 344 003a 05F10A01 		add	r1, r5, #10
 345 003e 0220     		movs	r0, #2
 346 0040 FFF7FEFF 		bl	VL53L1_i2c_decode_uint16_t
 347 0044 6081     		strh	r0, [r4, #10]	@ movhi
 348 0046 05F10C01 		add	r1, r5, #12
 349 004a 0220     		movs	r0, #2
 350 004c FFF7FEFF 		bl	VL53L1_i2c_decode_uint16_t
 351 0050 A081     		strh	r0, [r4, #12]	@ movhi
 352 0052 05F10E01 		add	r1, r5, #14
 353 0056 0220     		movs	r0, #2
 354 0058 FFF7FEFF 		bl	VL53L1_i2c_decode_uint16_t
 355 005c E081     		strh	r0, [r4, #14]	@ movhi
ARM GAS  C:\Temp\ccUJJAjd.s 			page 7


 356 005e 0020     		movs	r0, #0
 357 0060 38BD     		pop	{r3, r4, r5, pc}
 358              	.L45:
 359 0062 6FF00800 		mvn	r0, #8
 360 0066 7047     		bx	lr
 362              		.section	.text.VL53L1_nvm_decode_fmt_info,"ax",%progbits
 363              		.align	1
 364              		.global	VL53L1_nvm_decode_fmt_info
 365              		.syntax unified
 366              		.thumb
 367              		.thumb_func
 369              	VL53L1_nvm_decode_fmt_info:
 370              		@ args = 0, pretend = 0, frame = 0
 371              		@ frame_needed = 0, uses_anonymous_args = 0
 372 0000 B0F5007F 		cmp	r0, #512
 373 0004 C0F01C81 		bcc	.L52
 374 0008 F0B5     		push	{r4, r5, r6, r7, lr}
 375 000a 83B0     		sub	sp, sp, #12
 376 000c 0E46     		mov	r6, r1
 377 000e 1546     		mov	r5, r2
 378 0010 0024     		movs	r4, #0
 379 0012 0094     		str	r4, [sp]
 380 0014 0123     		movs	r3, #1
 381 0016 FE22     		movs	r2, #254
 382 0018 01F5EE71 		add	r1, r1, #476
 383 001c 1846     		mov	r0, r3
 384 001e FFF7FEFF 		bl	VL53L1_i2c_decode_with_mask
 385 0022 2870     		strb	r0, [r5]
 386 0024 06F2DD17 		addw	r7, r6, #477
 387 0028 0094     		str	r4, [sp]
 388 002a 0223     		movs	r3, #2
 389 002c 4FF4FE72 		mov	r2, #508
 390 0030 3946     		mov	r1, r7
 391 0032 0120     		movs	r0, #1
 392 0034 FFF7FEFF 		bl	VL53L1_i2c_decode_with_mask
 393 0038 6870     		strb	r0, [r5, #1]
 394 003a 0094     		str	r4, [sp]
 395 003c 0323     		movs	r3, #3
 396 003e 4FF47E72 		mov	r2, #1016
 397 0042 3946     		mov	r1, r7
 398 0044 0120     		movs	r0, #1
 399 0046 FFF7FEFF 		bl	VL53L1_i2c_decode_with_mask
 400 004a A870     		strb	r0, [r5, #2]
 401 004c 0094     		str	r4, [sp]
 402 004e 0423     		movs	r3, #4
 403 0050 4FF4FE62 		mov	r2, #2032
 404 0054 06F5EF71 		add	r1, r6, #478
 405 0058 0120     		movs	r0, #1
 406 005a FFF7FEFF 		bl	VL53L1_i2c_decode_with_mask
 407 005e E870     		strb	r0, [r5, #3]
 408 0060 0094     		str	r4, [sp]
 409 0062 0523     		movs	r3, #5
 410 0064 4FF47E62 		mov	r2, #4064
 411 0068 06F2DF11 		addw	r1, r6, #479
 412 006c 0120     		movs	r0, #1
 413 006e FFF7FEFF 		bl	VL53L1_i2c_decode_with_mask
 414 0072 2871     		strb	r0, [r5, #4]
ARM GAS  C:\Temp\ccUJJAjd.s 			page 8


 415 0074 0094     		str	r4, [sp]
 416 0076 0623     		movs	r3, #6
 417 0078 4FF4FE52 		mov	r2, #8128
 418 007c 06F5F071 		add	r1, r6, #480
 419 0080 0120     		movs	r0, #1
 420 0082 FFF7FEFF 		bl	VL53L1_i2c_decode_with_mask
 421 0086 6871     		strb	r0, [r5, #5]
 422 0088 0094     		str	r4, [sp]
 423 008a 0723     		movs	r3, #7
 424 008c 4FF47E52 		mov	r2, #16256
 425 0090 06F2E111 		addw	r1, r6, #481
 426 0094 0120     		movs	r0, #1
 427 0096 FFF7FEFF 		bl	VL53L1_i2c_decode_with_mask
 428 009a A871     		strb	r0, [r5, #6]
 429 009c 0094     		str	r4, [sp]
 430 009e 2346     		mov	r3, r4
 431 00a0 7F22     		movs	r2, #127
 432 00a2 06F5F171 		add	r1, r6, #482
 433 00a6 0120     		movs	r0, #1
 434 00a8 FFF7FEFF 		bl	VL53L1_i2c_decode_with_mask
 435 00ac E871     		strb	r0, [r5, #7]
 436 00ae 0094     		str	r4, [sp]
 437 00b0 0123     		movs	r3, #1
 438 00b2 FE22     		movs	r2, #254
 439 00b4 06F2E311 		addw	r1, r6, #483
 440 00b8 1846     		mov	r0, r3
 441 00ba FFF7FEFF 		bl	VL53L1_i2c_decode_with_mask
 442 00be 2872     		strb	r0, [r5, #8]
 443 00c0 06F5F277 		add	r7, r6, #484
 444 00c4 0094     		str	r4, [sp]
 445 00c6 0223     		movs	r3, #2
 446 00c8 4FF4FE72 		mov	r2, #508
 447 00cc 3946     		mov	r1, r7
 448 00ce 0120     		movs	r0, #1
 449 00d0 FFF7FEFF 		bl	VL53L1_i2c_decode_with_mask
 450 00d4 6872     		strb	r0, [r5, #9]
 451 00d6 0094     		str	r4, [sp]
 452 00d8 0323     		movs	r3, #3
 453 00da 4FF47E72 		mov	r2, #1016
 454 00de 3946     		mov	r1, r7
 455 00e0 0120     		movs	r0, #1
 456 00e2 FFF7FEFF 		bl	VL53L1_i2c_decode_with_mask
 457 00e6 A872     		strb	r0, [r5, #10]
 458 00e8 0094     		str	r4, [sp]
 459 00ea 0423     		movs	r3, #4
 460 00ec 4FF4FE62 		mov	r2, #2032
 461 00f0 06F2E511 		addw	r1, r6, #485
 462 00f4 0120     		movs	r0, #1
 463 00f6 FFF7FEFF 		bl	VL53L1_i2c_decode_with_mask
 464 00fa E872     		strb	r0, [r5, #11]
 465 00fc 0094     		str	r4, [sp]
 466 00fe 0523     		movs	r3, #5
 467 0100 4FF47E62 		mov	r2, #4064
 468 0104 06F5F371 		add	r1, r6, #486
 469 0108 0120     		movs	r0, #1
 470 010a FFF7FEFF 		bl	VL53L1_i2c_decode_with_mask
 471 010e 2873     		strb	r0, [r5, #12]
ARM GAS  C:\Temp\ccUJJAjd.s 			page 9


 472 0110 0094     		str	r4, [sp]
 473 0112 0623     		movs	r3, #6
 474 0114 4FF4FE52 		mov	r2, #8128
 475 0118 06F2E711 		addw	r1, r6, #487
 476 011c 0120     		movs	r0, #1
 477 011e FFF7FEFF 		bl	VL53L1_i2c_decode_with_mask
 478 0122 6873     		strb	r0, [r5, #13]
 479 0124 0094     		str	r4, [sp]
 480 0126 0723     		movs	r3, #7
 481 0128 4FF47E52 		mov	r2, #16256
 482 012c 06F5F471 		add	r1, r6, #488
 483 0130 0120     		movs	r0, #1
 484 0132 FFF7FEFF 		bl	VL53L1_i2c_decode_with_mask
 485 0136 A873     		strb	r0, [r5, #14]
 486 0138 0094     		str	r4, [sp]
 487 013a 2346     		mov	r3, r4
 488 013c 7F22     		movs	r2, #127
 489 013e 06F2E911 		addw	r1, r6, #489
 490 0142 0120     		movs	r0, #1
 491 0144 FFF7FEFF 		bl	VL53L1_i2c_decode_with_mask
 492 0148 E873     		strb	r0, [r5, #15]
 493 014a 0094     		str	r4, [sp]
 494 014c 0123     		movs	r3, #1
 495 014e FE22     		movs	r2, #254
 496 0150 06F5F571 		add	r1, r6, #490
 497 0154 1846     		mov	r0, r3
 498 0156 FFF7FEFF 		bl	VL53L1_i2c_decode_with_mask
 499 015a 2874     		strb	r0, [r5, #16]
 500 015c 0094     		str	r4, [sp]
 501 015e 0223     		movs	r3, #2
 502 0160 4FF4FE72 		mov	r2, #508
 503 0164 06F2EB11 		addw	r1, r6, #491
 504 0168 0120     		movs	r0, #1
 505 016a FFF7FEFF 		bl	VL53L1_i2c_decode_with_mask
 506 016e 6874     		strb	r0, [r5, #17]
 507 0170 AC74     		strb	r4, [r5, #18]
 508 0172 06F5F677 		add	r7, r6, #492
 509 0176 0094     		str	r4, [sp]
 510 0178 0523     		movs	r3, #5
 511 017a E022     		movs	r2, #224
 512 017c 3946     		mov	r1, r7
 513 017e 0120     		movs	r0, #1
 514 0180 FFF7FEFF 		bl	VL53L1_i2c_decode_with_mask
 515 0184 E874     		strb	r0, [r5, #19]
 516 0186 0094     		str	r4, [sp]
 517 0188 2346     		mov	r3, r4
 518 018a 1F22     		movs	r2, #31
 519 018c 3946     		mov	r1, r7
 520 018e 0120     		movs	r0, #1
 521 0190 FFF7FEFF 		bl	VL53L1_i2c_decode_with_mask
 522 0194 2875     		strb	r0, [r5, #20]
 523 0196 06F2ED17 		addw	r7, r6, #493
 524 019a 0094     		str	r4, [sp]
 525 019c 0523     		movs	r3, #5
 526 019e E022     		movs	r2, #224
 527 01a0 3946     		mov	r1, r7
 528 01a2 0120     		movs	r0, #1
ARM GAS  C:\Temp\ccUJJAjd.s 			page 10


 529 01a4 FFF7FEFF 		bl	VL53L1_i2c_decode_with_mask
 530 01a8 6875     		strb	r0, [r5, #21]
 531 01aa 0094     		str	r4, [sp]
 532 01ac 2346     		mov	r3, r4
 533 01ae 1F22     		movs	r2, #31
 534 01b0 3946     		mov	r1, r7
 535 01b2 0120     		movs	r0, #1
 536 01b4 FFF7FEFF 		bl	VL53L1_i2c_decode_with_mask
 537 01b8 A875     		strb	r0, [r5, #22]
 538 01ba 06F5F777 		add	r7, r6, #494
 539 01be 0094     		str	r4, [sp]
 540 01c0 0423     		movs	r3, #4
 541 01c2 F022     		movs	r2, #240
 542 01c4 3946     		mov	r1, r7
 543 01c6 0120     		movs	r0, #1
 544 01c8 FFF7FEFF 		bl	VL53L1_i2c_decode_with_mask
 545 01cc E875     		strb	r0, [r5, #23]
 546 01ce 0094     		str	r4, [sp]
 547 01d0 2346     		mov	r3, r4
 548 01d2 0F22     		movs	r2, #15
 549 01d4 3946     		mov	r1, r7
 550 01d6 0120     		movs	r0, #1
 551 01d8 FFF7FEFF 		bl	VL53L1_i2c_decode_with_mask
 552 01dc 2876     		strb	r0, [r5, #24]
 553 01de 06F2EF17 		addw	r7, r6, #495
 554 01e2 0094     		str	r4, [sp]
 555 01e4 0323     		movs	r3, #3
 556 01e6 F822     		movs	r2, #248
 557 01e8 3946     		mov	r1, r7
 558 01ea 0120     		movs	r0, #1
 559 01ec FFF7FEFF 		bl	VL53L1_i2c_decode_with_mask
 560 01f0 6876     		strb	r0, [r5, #25]
 561 01f2 0094     		str	r4, [sp]
 562 01f4 2346     		mov	r3, r4
 563 01f6 0722     		movs	r2, #7
 564 01f8 3946     		mov	r1, r7
 565 01fa 0120     		movs	r0, #1
 566 01fc FFF7FEFF 		bl	VL53L1_i2c_decode_with_mask
 567 0200 A876     		strb	r0, [r5, #26]
 568 0202 0094     		str	r4, [sp]
 569 0204 2346     		mov	r3, r4
 570 0206 4FF6FF72 		movw	r2, #65535
 571 020a 06F5F871 		add	r1, r6, #496
 572 020e 0220     		movs	r0, #2
 573 0210 FFF7FEFF 		bl	VL53L1_i2c_decode_with_mask
 574 0214 A883     		strh	r0, [r5, #28]	@ movhi
 575 0216 0094     		str	r4, [sp]
 576 0218 2346     		mov	r3, r4
 577 021a FF22     		movs	r2, #255
 578 021c 06F5F971 		add	r1, r6, #498
 579 0220 0120     		movs	r0, #1
 580 0222 FFF7FEFF 		bl	VL53L1_i2c_decode_with_mask
 581 0226 A877     		strb	r0, [r5, #30]
 582 0228 0094     		str	r4, [sp]
 583 022a 2346     		mov	r3, r4
 584 022c FF22     		movs	r2, #255
 585 022e 06F2F311 		addw	r1, r6, #499
ARM GAS  C:\Temp\ccUJJAjd.s 			page 11


 586 0232 0120     		movs	r0, #1
 587 0234 FFF7FEFF 		bl	VL53L1_i2c_decode_with_mask
 588 0238 E877     		strb	r0, [r5, #31]
 589 023a 2046     		mov	r0, r4
 590 023c 03B0     		add	sp, sp, #12
 591              		@ sp needed
 592 023e F0BD     		pop	{r4, r5, r6, r7, pc}
 593              	.L52:
 594 0240 6FF00800 		mvn	r0, #8
 595 0244 7047     		bx	lr
 597              		.section	.text.VL53L1_nvm_decode_ews_info,"ax",%progbits
 598              		.align	1
 599              		.global	VL53L1_nvm_decode_ews_info
 600              		.syntax unified
 601              		.thumb
 602              		.thumb_func
 604              	VL53L1_nvm_decode_ews_info:
 605              		@ args = 0, pretend = 0, frame = 0
 606              		@ frame_needed = 0, uses_anonymous_args = 0
 607 0000 B0F5007F 		cmp	r0, #512
 608 0004 C0F09780 		bcc	.L59
 609 0008 2DE9F041 		push	{r4, r5, r6, r7, r8, lr}
 610 000c 82B0     		sub	sp, sp, #8
 611 000e 0E46     		mov	r6, r1
 612 0010 1546     		mov	r5, r2
 613 0012 01F5FA77 		add	r7, r1, #500
 614 0016 0024     		movs	r4, #0
 615 0018 0094     		str	r4, [sp]
 616 001a 0523     		movs	r3, #5
 617 001c E022     		movs	r2, #224
 618 001e 3946     		mov	r1, r7
 619 0020 0120     		movs	r0, #1
 620 0022 FFF7FEFF 		bl	VL53L1_i2c_decode_with_mask
 621 0026 2870     		strb	r0, [r5]
 622 0028 0094     		str	r4, [sp]
 623 002a 2346     		mov	r3, r4
 624 002c 1F22     		movs	r2, #31
 625 002e 3946     		mov	r1, r7
 626 0030 0120     		movs	r0, #1
 627 0032 FFF7FEFF 		bl	VL53L1_i2c_decode_with_mask
 628 0036 6870     		strb	r0, [r5, #1]
 629 0038 06F2F517 		addw	r7, r6, #501
 630 003c 0094     		str	r4, [sp]
 631 003e 0423     		movs	r3, #4
 632 0040 F022     		movs	r2, #240
 633 0042 3946     		mov	r1, r7
 634 0044 0120     		movs	r0, #1
 635 0046 FFF7FEFF 		bl	VL53L1_i2c_decode_with_mask
 636 004a A870     		strb	r0, [r5, #2]
 637 004c 0094     		str	r4, [sp]
 638 004e 2346     		mov	r3, r4
 639 0050 0F22     		movs	r2, #15
 640 0052 3946     		mov	r1, r7
 641 0054 0120     		movs	r0, #1
 642 0056 FFF7FEFF 		bl	VL53L1_i2c_decode_with_mask
 643 005a E870     		strb	r0, [r5, #3]
 644 005c 0094     		str	r4, [sp]
ARM GAS  C:\Temp\ccUJJAjd.s 			page 12


 645 005e 2346     		mov	r3, r4
 646 0060 FF22     		movs	r2, #255
 647 0062 06F5FB71 		add	r1, r6, #502
 648 0066 0120     		movs	r0, #1
 649 0068 FFF7FEFF 		bl	VL53L1_i2c_decode_with_mask
 650 006c 2871     		strb	r0, [r5, #4]
 651 006e 06F5FC78 		add	r8, r6, #504
 652 0072 2027     		movs	r7, #32
 653 0074 0097     		str	r7, [sp]
 654 0076 0223     		movs	r3, #2
 655 0078 FC22     		movs	r2, #252
 656 007a 4146     		mov	r1, r8
 657 007c 0120     		movs	r0, #1
 658 007e FFF7FEFF 		bl	VL53L1_i2c_decode_with_mask
 659 0082 6871     		strb	r0, [r5, #5]
 660 0084 0097     		str	r7, [sp]
 661 0086 0423     		movs	r3, #4
 662 0088 4FF47C72 		mov	r2, #1008
 663 008c 4146     		mov	r1, r8
 664 008e 0220     		movs	r0, #2
 665 0090 FFF7FEFF 		bl	VL53L1_i2c_decode_with_mask
 666 0094 A871     		strb	r0, [r5, #6]
 667 0096 0097     		str	r7, [sp]
 668 0098 0623     		movs	r3, #6
 669 009a 4FF47C62 		mov	r2, #4032
 670 009e 06F2F911 		addw	r1, r6, #505
 671 00a2 0220     		movs	r0, #2
 672 00a4 FFF7FEFF 		bl	VL53L1_i2c_decode_with_mask
 673 00a8 E871     		strb	r0, [r5, #7]
 674 00aa 0097     		str	r7, [sp]
 675 00ac 2346     		mov	r3, r4
 676 00ae 3F22     		movs	r2, #63
 677 00b0 06F5FD71 		add	r1, r6, #506
 678 00b4 0120     		movs	r0, #1
 679 00b6 FFF7FEFF 		bl	VL53L1_i2c_decode_with_mask
 680 00ba 2872     		strb	r0, [r5, #8]
 681 00bc 06F2FB18 		addw	r8, r6, #507
 682 00c0 0097     		str	r7, [sp]
 683 00c2 0223     		movs	r3, #2
 684 00c4 FC22     		movs	r2, #252
 685 00c6 4146     		mov	r1, r8
 686 00c8 0120     		movs	r0, #1
 687 00ca FFF7FEFF 		bl	VL53L1_i2c_decode_with_mask
 688 00ce 6872     		strb	r0, [r5, #9]
 689 00d0 0097     		str	r7, [sp]
 690 00d2 0423     		movs	r3, #4
 691 00d4 4FF47C72 		mov	r2, #1008
 692 00d8 4146     		mov	r1, r8
 693 00da 0220     		movs	r0, #2
 694 00dc FFF7FEFF 		bl	VL53L1_i2c_decode_with_mask
 695 00e0 A872     		strb	r0, [r5, #10]
 696 00e2 0097     		str	r7, [sp]
 697 00e4 0623     		movs	r3, #6
 698 00e6 4FF47C62 		mov	r2, #4032
 699 00ea 06F5FE71 		add	r1, r6, #508
 700 00ee 0220     		movs	r0, #2
 701 00f0 FFF7FEFF 		bl	VL53L1_i2c_decode_with_mask
ARM GAS  C:\Temp\ccUJJAjd.s 			page 13


 702 00f4 E872     		strb	r0, [r5, #11]
 703 00f6 2C73     		strb	r4, [r5, #12]
 704 00f8 0094     		str	r4, [sp]
 705 00fa 2346     		mov	r3, r4
 706 00fc 1F22     		movs	r2, #31
 707 00fe 06F2FD11 		addw	r1, r6, #509
 708 0102 0120     		movs	r0, #1
 709 0104 FFF7FEFF 		bl	VL53L1_i2c_decode_with_mask
 710 0108 6873     		strb	r0, [r5, #13]
 711 010a 0094     		str	r4, [sp]
 712 010c 2346     		mov	r3, r4
 713 010e FF22     		movs	r2, #255
 714 0110 06F5FF71 		add	r1, r6, #510
 715 0114 0120     		movs	r0, #1
 716 0116 FFF7FEFF 		bl	VL53L1_i2c_decode_with_mask
 717 011a A873     		strb	r0, [r5, #14]
 718 011c 0094     		str	r4, [sp]
 719 011e 2346     		mov	r3, r4
 720 0120 FF22     		movs	r2, #255
 721 0122 06F2FF11 		addw	r1, r6, #511
 722 0126 0120     		movs	r0, #1
 723 0128 FFF7FEFF 		bl	VL53L1_i2c_decode_with_mask
 724 012c E873     		strb	r0, [r5, #15]
 725 012e 2046     		mov	r0, r4
 726 0130 02B0     		add	sp, sp, #8
 727              		@ sp needed
 728 0132 BDE8F081 		pop	{r4, r5, r6, r7, r8, pc}
 729              	.L59:
 730 0136 6FF00800 		mvn	r0, #8
 731 013a 7047     		bx	lr
 733              		.section	.text.VL53L1_nvm_format_decode,"ax",%progbits
 734              		.align	1
 735              		.global	VL53L1_nvm_format_decode
 736              		.syntax unified
 737              		.thumb
 738              		.thumb_func
 740              	VL53L1_nvm_format_decode:
 741              		@ args = 0, pretend = 0, frame = 16
 742              		@ frame_needed = 0, uses_anonymous_args = 0
 743 0000 B0F5007F 		cmp	r0, #512
 744 0004 C0F02783 		bcc	.L86
 745 0008 2DE9F043 		push	{r4, r5, r6, r7, r8, r9, lr}
 746 000c 87B0     		sub	sp, sp, #28
 747 000e 0746     		mov	r7, r0
 748 0010 0E46     		mov	r6, r1
 749 0012 1546     		mov	r5, r2
 750 0014 0024     		movs	r4, #0
 751 0016 0094     		str	r4, [sp]
 752 0018 2346     		mov	r3, r4
 753 001a FF22     		movs	r2, #255
 754 001c 0831     		adds	r1, r1, #8
 755 001e 0120     		movs	r0, #1
 756 0020 FFF7FEFF 		bl	VL53L1_i2c_decode_with_mask
 757 0024 2870     		strb	r0, [r5]
 758 0026 0094     		str	r4, [sp]
 759 0028 2346     		mov	r3, r4
 760 002a FF22     		movs	r2, #255
ARM GAS  C:\Temp\ccUJJAjd.s 			page 14


 761 002c 06F10C01 		add	r1, r6, #12
 762 0030 0120     		movs	r0, #1
 763 0032 FFF7FEFF 		bl	VL53L1_i2c_decode_with_mask
 764 0036 6870     		strb	r0, [r5, #1]
 765 0038 0094     		str	r4, [sp]
 766 003a 2346     		mov	r3, r4
 767 003c 0F22     		movs	r2, #15
 768 003e 06F10D01 		add	r1, r6, #13
 769 0042 0120     		movs	r0, #1
 770 0044 FFF7FEFF 		bl	VL53L1_i2c_decode_with_mask
 771 0048 A870     		strb	r0, [r5, #2]
 772 004a 0094     		str	r4, [sp]
 773 004c 2346     		mov	r3, r4
 774 004e 4FF6FF72 		movw	r2, #65535
 775 0052 06F10E01 		add	r1, r6, #14
 776 0056 0220     		movs	r0, #2
 777 0058 FFF7FEFF 		bl	VL53L1_i2c_decode_with_mask
 778 005c A880     		strh	r0, [r5, #4]	@ movhi
 779 005e 0094     		str	r4, [sp]
 780 0060 2346     		mov	r3, r4
 781 0062 FF22     		movs	r2, #255
 782 0064 06F11001 		add	r1, r6, #16
 783 0068 0120     		movs	r0, #1
 784 006a FFF7FEFF 		bl	VL53L1_i2c_decode_with_mask
 785 006e A871     		strb	r0, [r5, #6]
 786 0070 0094     		str	r4, [sp]
 787 0072 2346     		mov	r3, r4
 788 0074 FF22     		movs	r2, #255
 789 0076 06F11101 		add	r1, r6, #17
 790 007a 0120     		movs	r0, #1
 791 007c FFF7FEFF 		bl	VL53L1_i2c_decode_with_mask
 792 0080 E871     		strb	r0, [r5, #7]
 793 0082 0094     		str	r4, [sp]
 794 0084 2346     		mov	r3, r4
 795 0086 4FF6FF72 		movw	r2, #65535
 796 008a 06F11401 		add	r1, r6, #20
 797 008e 0220     		movs	r0, #2
 798 0090 FFF7FEFF 		bl	VL53L1_i2c_decode_with_mask
 799 0094 2881     		strh	r0, [r5, #8]	@ movhi
 800 0096 0094     		str	r4, [sp]
 801 0098 2346     		mov	r3, r4
 802 009a 7F22     		movs	r2, #127
 803 009c 06F11601 		add	r1, r6, #22
 804 00a0 0120     		movs	r0, #1
 805 00a2 FFF7FEFF 		bl	VL53L1_i2c_decode_with_mask
 806 00a6 A872     		strb	r0, [r5, #10]
 807 00a8 0094     		str	r4, [sp]
 808 00aa 2346     		mov	r3, r4
 809 00ac 0722     		movs	r2, #7
 810 00ae 06F11701 		add	r1, r6, #23
 811 00b2 0120     		movs	r0, #1
 812 00b4 FFF7FEFF 		bl	VL53L1_i2c_decode_with_mask
 813 00b8 E872     		strb	r0, [r5, #11]
 814 00ba 0094     		str	r4, [sp]
 815 00bc 2346     		mov	r3, r4
 816 00be 40F2FF32 		movw	r2, #1023
 817 00c2 06F11801 		add	r1, r6, #24
ARM GAS  C:\Temp\ccUJJAjd.s 			page 15


 818 00c6 0220     		movs	r0, #2
 819 00c8 FFF7FEFF 		bl	VL53L1_i2c_decode_with_mask
 820 00cc A881     		strh	r0, [r5, #12]	@ movhi
 821 00ce 0094     		str	r4, [sp]
 822 00d0 2346     		mov	r3, r4
 823 00d2 4FF6FF72 		movw	r2, #65535
 824 00d6 06F11C01 		add	r1, r6, #28
 825 00da 0220     		movs	r0, #2
 826 00dc FFF7FEFF 		bl	VL53L1_i2c_decode_with_mask
 827 00e0 E881     		strh	r0, [r5, #14]	@ movhi
 828 00e2 0094     		str	r4, [sp]
 829 00e4 2346     		mov	r3, r4
 830 00e6 7F22     		movs	r2, #127
 831 00e8 06F11E01 		add	r1, r6, #30
 832 00ec 0120     		movs	r0, #1
 833 00ee FFF7FEFF 		bl	VL53L1_i2c_decode_with_mask
 834 00f2 2874     		strb	r0, [r5, #16]
 835 00f4 0094     		str	r4, [sp]
 836 00f6 2346     		mov	r3, r4
 837 00f8 0722     		movs	r2, #7
 838 00fa 06F11F01 		add	r1, r6, #31
 839 00fe 0120     		movs	r0, #1
 840 0100 FFF7FEFF 		bl	VL53L1_i2c_decode_with_mask
 841 0104 6874     		strb	r0, [r5, #17]
 842 0106 0094     		str	r4, [sp]
 843 0108 2346     		mov	r3, r4
 844 010a 40F2FF32 		movw	r2, #1023
 845 010e 06F12001 		add	r1, r6, #32
 846 0112 0220     		movs	r0, #2
 847 0114 FFF7FEFF 		bl	VL53L1_i2c_decode_with_mask
 848 0118 6882     		strh	r0, [r5, #18]	@ movhi
 849 011a 0094     		str	r4, [sp]
 850 011c 2346     		mov	r3, r4
 851 011e FF22     		movs	r2, #255
 852 0120 06F12801 		add	r1, r6, #40
 853 0124 0120     		movs	r0, #1
 854 0126 FFF7FEFF 		bl	VL53L1_i2c_decode_with_mask
 855 012a 2875     		strb	r0, [r5, #20]
 856 012c 0094     		str	r4, [sp]
 857 012e 2346     		mov	r3, r4
 858 0130 0F22     		movs	r2, #15
 859 0132 06F12901 		add	r1, r6, #41
 860 0136 0120     		movs	r0, #1
 861 0138 FFF7FEFF 		bl	VL53L1_i2c_decode_with_mask
 862 013c 6875     		strb	r0, [r5, #21]
 863 013e 0094     		str	r4, [sp]
 864 0140 0323     		movs	r3, #3
 865 0142 7822     		movs	r2, #120
 866 0144 06F12A01 		add	r1, r6, #42
 867 0148 0120     		movs	r0, #1
 868 014a FFF7FEFF 		bl	VL53L1_i2c_decode_with_mask
 869 014e A875     		strb	r0, [r5, #22]
 870 0150 06F12B08 		add	r8, r6, #43
 871 0154 0094     		str	r4, [sp]
 872 0156 0223     		movs	r3, #2
 873 0158 0C22     		movs	r2, #12
 874 015a 4146     		mov	r1, r8
ARM GAS  C:\Temp\ccUJJAjd.s 			page 16


 875 015c 0120     		movs	r0, #1
 876 015e FFF7FEFF 		bl	VL53L1_i2c_decode_with_mask
 877 0162 E875     		strb	r0, [r5, #23]
 878 0164 0094     		str	r4, [sp]
 879 0166 2346     		mov	r3, r4
 880 0168 0322     		movs	r2, #3
 881 016a 4146     		mov	r1, r8
 882 016c 0120     		movs	r0, #1
 883 016e FFF7FEFF 		bl	VL53L1_i2c_decode_with_mask
 884 0172 2876     		strb	r0, [r5, #24]
 885 0174 06F12C08 		add	r8, r6, #44
 886 0178 0094     		str	r4, [sp]
 887 017a 2346     		mov	r3, r4
 888 017c 0322     		movs	r2, #3
 889 017e 4146     		mov	r1, r8
 890 0180 0120     		movs	r0, #1
 891 0182 FFF7FEFF 		bl	VL53L1_i2c_decode_with_mask
 892 0186 6876     		strb	r0, [r5, #25]
 893 0188 0094     		str	r4, [sp]
 894 018a 0223     		movs	r3, #2
 895 018c FC22     		movs	r2, #252
 896 018e 4146     		mov	r1, r8
 897 0190 0120     		movs	r0, #1
 898 0192 FFF7FEFF 		bl	VL53L1_i2c_decode_with_mask
 899 0196 A876     		strb	r0, [r5, #26]
 900 0198 0094     		str	r4, [sp]
 901 019a 2346     		mov	r3, r4
 902 019c FF22     		movs	r2, #255
 903 019e 06F12D01 		add	r1, r6, #45
 904 01a2 0120     		movs	r0, #1
 905 01a4 FFF7FEFF 		bl	VL53L1_i2c_decode_with_mask
 906 01a8 E876     		strb	r0, [r5, #27]
 907 01aa 0094     		str	r4, [sp]
 908 01ac 2346     		mov	r3, r4
 909 01ae 3F22     		movs	r2, #63
 910 01b0 06F12E01 		add	r1, r6, #46
 911 01b4 0120     		movs	r0, #1
 912 01b6 FFF7FEFF 		bl	VL53L1_i2c_decode_with_mask
 913 01ba 2877     		strb	r0, [r5, #28]
 914 01bc 06F12F08 		add	r8, r6, #47
 915 01c0 0094     		str	r4, [sp]
 916 01c2 0723     		movs	r3, #7
 917 01c4 8022     		movs	r2, #128
 918 01c6 4146     		mov	r1, r8
 919 01c8 0120     		movs	r0, #1
 920 01ca FFF7FEFF 		bl	VL53L1_i2c_decode_with_mask
 921 01ce 6877     		strb	r0, [r5, #29]
 922 01d0 0094     		str	r4, [sp]
 923 01d2 2346     		mov	r3, r4
 924 01d4 3F22     		movs	r2, #63
 925 01d6 4146     		mov	r1, r8
 926 01d8 0120     		movs	r0, #1
 927 01da FFF7FEFF 		bl	VL53L1_i2c_decode_with_mask
 928 01de A877     		strb	r0, [r5, #30]
 929 01e0 0094     		str	r4, [sp]
 930 01e2 2346     		mov	r3, r4
 931 01e4 0722     		movs	r2, #7
ARM GAS  C:\Temp\ccUJJAjd.s 			page 17


 932 01e6 06F13001 		add	r1, r6, #48
 933 01ea 0120     		movs	r0, #1
 934 01ec FFF7FEFF 		bl	VL53L1_i2c_decode_with_mask
 935 01f0 E877     		strb	r0, [r5, #31]
 936 01f2 0094     		str	r4, [sp]
 937 01f4 2346     		mov	r3, r4
 938 01f6 3F22     		movs	r2, #63
 939 01f8 06F13101 		add	r1, r6, #49
 940 01fc 0120     		movs	r0, #1
 941 01fe FFF7FEFF 		bl	VL53L1_i2c_decode_with_mask
 942 0202 85F82000 		strb	r0, [r5, #32]
 943 0206 0094     		str	r4, [sp]
 944 0208 2346     		mov	r3, r4
 945 020a 3F22     		movs	r2, #63
 946 020c 06F13201 		add	r1, r6, #50
 947 0210 0120     		movs	r0, #1
 948 0212 FFF7FEFF 		bl	VL53L1_i2c_decode_with_mask
 949 0216 85F82100 		strb	r0, [r5, #33]
 950 021a 0094     		str	r4, [sp]
 951 021c 2346     		mov	r3, r4
 952 021e 3F22     		movs	r2, #63
 953 0220 06F13401 		add	r1, r6, #52
 954 0224 0120     		movs	r0, #1
 955 0226 FFF7FEFF 		bl	VL53L1_i2c_decode_with_mask
 956 022a 85F82200 		strb	r0, [r5, #34]
 957 022e 0094     		str	r4, [sp]
 958 0230 2346     		mov	r3, r4
 959 0232 3F22     		movs	r2, #63
 960 0234 06F13501 		add	r1, r6, #53
 961 0238 0120     		movs	r0, #1
 962 023a FFF7FEFF 		bl	VL53L1_i2c_decode_with_mask
 963 023e 85F82300 		strb	r0, [r5, #35]
 964 0242 0094     		str	r4, [sp]
 965 0244 2346     		mov	r3, r4
 966 0246 0722     		movs	r2, #7
 967 0248 06F13801 		add	r1, r6, #56
 968 024c 0120     		movs	r0, #1
 969 024e FFF7FEFF 		bl	VL53L1_i2c_decode_with_mask
 970 0252 85F82400 		strb	r0, [r5, #36]
 971 0256 0094     		str	r4, [sp]
 972 0258 2346     		mov	r3, r4
 973 025a 3F22     		movs	r2, #63
 974 025c 06F13901 		add	r1, r6, #57
 975 0260 0120     		movs	r0, #1
 976 0262 FFF7FEFF 		bl	VL53L1_i2c_decode_with_mask
 977 0266 85F82500 		strb	r0, [r5, #37]
 978 026a 0094     		str	r4, [sp]
 979 026c 2346     		mov	r3, r4
 980 026e 3F22     		movs	r2, #63
 981 0270 06F13A01 		add	r1, r6, #58
 982 0274 0120     		movs	r0, #1
 983 0276 FFF7FEFF 		bl	VL53L1_i2c_decode_with_mask
 984 027a 85F82600 		strb	r0, [r5, #38]
 985 027e 0094     		str	r4, [sp]
 986 0280 2346     		mov	r3, r4
 987 0282 3F22     		movs	r2, #63
 988 0284 06F13C01 		add	r1, r6, #60
ARM GAS  C:\Temp\ccUJJAjd.s 			page 18


 989 0288 0120     		movs	r0, #1
 990 028a FFF7FEFF 		bl	VL53L1_i2c_decode_with_mask
 991 028e 85F82700 		strb	r0, [r5, #39]
 992 0292 0094     		str	r4, [sp]
 993 0294 2346     		mov	r3, r4
 994 0296 3F22     		movs	r2, #63
 995 0298 06F13D01 		add	r1, r6, #61
 996 029c 0120     		movs	r0, #1
 997 029e FFF7FEFF 		bl	VL53L1_i2c_decode_with_mask
 998 02a2 85F82800 		strb	r0, [r5, #40]
 999 02a6 0094     		str	r4, [sp]
 1000 02a8 2346     		mov	r3, r4
 1001 02aa FF22     		movs	r2, #255
 1002 02ac 06F14001 		add	r1, r6, #64
 1003 02b0 0120     		movs	r0, #1
 1004 02b2 FFF7FEFF 		bl	VL53L1_i2c_decode_with_mask
 1005 02b6 85F82900 		strb	r0, [r5, #41]
 1006 02ba 0094     		str	r4, [sp]
 1007 02bc 2346     		mov	r3, r4
 1008 02be FF22     		movs	r2, #255
 1009 02c0 06F14401 		add	r1, r6, #68
 1010 02c4 0120     		movs	r0, #1
 1011 02c6 FFF7FEFF 		bl	VL53L1_i2c_decode_with_mask
 1012 02ca 85F82A00 		strb	r0, [r5, #42]
 1013 02ce 06F14802 		add	r2, r6, #72
 1014 02d2 2346     		mov	r3, r4
 1015 02d4 06E0     		b	.L66
 1016              	.L67:
 1017 02d6 12F8010B 		ldrb	r0, [r2], #1	@ zero_extendqisi2
 1018 02da E918     		adds	r1, r5, r3
 1019 02dc 81F82B00 		strb	r0, [r1, #43]
 1020 02e0 0133     		adds	r3, r3, #1
 1021 02e2 DBB2     		uxtb	r3, r3
 1022              	.L66:
 1023 02e4 1F2B     		cmp	r3, #31
 1024 02e6 F6D9     		bls	.L67
 1025 02e8 06F16802 		add	r2, r6, #104
 1026 02ec 0023     		movs	r3, #0
 1027 02ee 06E0     		b	.L68
 1028              	.L69:
 1029 02f0 12F8010B 		ldrb	r0, [r2], #1	@ zero_extendqisi2
 1030 02f4 E918     		adds	r1, r5, r3
 1031 02f6 81F84B00 		strb	r0, [r1, #75]
 1032 02fa 0133     		adds	r3, r3, #1
 1033 02fc DBB2     		uxtb	r3, r3
 1034              	.L68:
 1035 02fe 052B     		cmp	r3, #5
 1036 0300 F6D9     		bls	.L69
 1037 0302 06F17002 		add	r2, r6, #112
 1038 0306 0023     		movs	r3, #0
 1039 0308 06E0     		b	.L70
 1040              	.L71:
 1041 030a 12F8010B 		ldrb	r0, [r2], #1	@ zero_extendqisi2
 1042 030e E918     		adds	r1, r5, r3
 1043 0310 81F85100 		strb	r0, [r1, #81]
 1044 0314 0133     		adds	r3, r3, #1
 1045 0316 DBB2     		uxtb	r3, r3
ARM GAS  C:\Temp\ccUJJAjd.s 			page 19


 1046              	.L70:
 1047 0318 052B     		cmp	r3, #5
 1048 031a F6D9     		bls	.L71
 1049 031c 06F17802 		add	r2, r6, #120
 1050 0320 0023     		movs	r3, #0
 1051 0322 06E0     		b	.L72
 1052              	.L73:
 1053 0324 12F8010B 		ldrb	r0, [r2], #1	@ zero_extendqisi2
 1054 0328 E918     		adds	r1, r5, r3
 1055 032a 81F85700 		strb	r0, [r1, #87]
 1056 032e 0133     		adds	r3, r3, #1
 1057 0330 DBB2     		uxtb	r3, r3
 1058              	.L72:
 1059 0332 052B     		cmp	r3, #5
 1060 0334 F6D9     		bls	.L73
 1061 0336 06F18002 		add	r2, r6, #128
 1062 033a 0023     		movs	r3, #0
 1063 033c 06E0     		b	.L74
 1064              	.L75:
 1065 033e 12F8010B 		ldrb	r0, [r2], #1	@ zero_extendqisi2
 1066 0342 E918     		adds	r1, r5, r3
 1067 0344 81F85D00 		strb	r0, [r1, #93]
 1068 0348 0133     		adds	r3, r3, #1
 1069 034a DBB2     		uxtb	r3, r3
 1070              	.L74:
 1071 034c 1F2B     		cmp	r3, #31
 1072 034e F6D9     		bls	.L75
 1073 0350 06F1A002 		add	r2, r6, #160
 1074 0354 0023     		movs	r3, #0
 1075 0356 06E0     		b	.L76
 1076              	.L77:
 1077 0358 12F8010B 		ldrb	r0, [r2], #1	@ zero_extendqisi2
 1078 035c E918     		adds	r1, r5, r3
 1079 035e 81F87D00 		strb	r0, [r1, #125]
 1080 0362 0133     		adds	r3, r3, #1
 1081 0364 DBB2     		uxtb	r3, r3
 1082              	.L76:
 1083 0366 052B     		cmp	r3, #5
 1084 0368 F6D9     		bls	.L77
 1085 036a 06F1A802 		add	r2, r6, #168
 1086 036e 0023     		movs	r3, #0
 1087 0370 06E0     		b	.L78
 1088              	.L79:
 1089 0372 12F8010B 		ldrb	r0, [r2], #1	@ zero_extendqisi2
 1090 0376 E918     		adds	r1, r5, r3
 1091 0378 81F88300 		strb	r0, [r1, #131]
 1092 037c 0133     		adds	r3, r3, #1
 1093 037e DBB2     		uxtb	r3, r3
 1094              	.L78:
 1095 0380 052B     		cmp	r3, #5
 1096 0382 F6D9     		bls	.L79
 1097 0384 06F1B002 		add	r2, r6, #176
 1098 0388 0023     		movs	r3, #0
 1099 038a 06E0     		b	.L80
 1100              	.L81:
 1101 038c 12F8010B 		ldrb	r0, [r2], #1	@ zero_extendqisi2
 1102 0390 E918     		adds	r1, r5, r3
ARM GAS  C:\Temp\ccUJJAjd.s 			page 20


 1103 0392 81F88900 		strb	r0, [r1, #137]
 1104 0396 0133     		adds	r3, r3, #1
 1105 0398 DBB2     		uxtb	r3, r3
 1106              	.L80:
 1107 039a 052B     		cmp	r3, #5
 1108 039c F6D9     		bls	.L81
 1109 039e 06F1B808 		add	r8, r6, #184
 1110 03a2 0024     		movs	r4, #0
 1111 03a4 0094     		str	r4, [sp]
 1112 03a6 2346     		mov	r3, r4
 1113 03a8 FF22     		movs	r2, #255
 1114 03aa 4146     		mov	r1, r8
 1115 03ac 0120     		movs	r0, #1
 1116 03ae FFF7FEFF 		bl	VL53L1_i2c_decode_with_mask
 1117 03b2 85F88F00 		strb	r0, [r5, #143]
 1118 03b6 06F1B909 		add	r9, r6, #185
 1119 03ba 0094     		str	r4, [sp]
 1120 03bc 0423     		movs	r3, #4
 1121 03be F022     		movs	r2, #240
 1122 03c0 4946     		mov	r1, r9
 1123 03c2 0120     		movs	r0, #1
 1124 03c4 FFF7FEFF 		bl	VL53L1_i2c_decode_with_mask
 1125 03c8 85F89000 		strb	r0, [r5, #144]
 1126 03cc 0094     		str	r4, [sp]
 1127 03ce 2346     		mov	r3, r4
 1128 03d0 0F22     		movs	r2, #15
 1129 03d2 4946     		mov	r1, r9
 1130 03d4 0120     		movs	r0, #1
 1131 03d6 FFF7FEFF 		bl	VL53L1_i2c_decode_with_mask
 1132 03da 85F89100 		strb	r0, [r5, #145]
 1133 03de 0094     		str	r4, [sp]
 1134 03e0 2346     		mov	r3, r4
 1135 03e2 FF22     		movs	r2, #255
 1136 03e4 06F1BC01 		add	r1, r6, #188
 1137 03e8 0120     		movs	r0, #1
 1138 03ea FFF7FEFF 		bl	VL53L1_i2c_decode_with_mask
 1139 03ee 85F89200 		strb	r0, [r5, #146]
 1140 03f2 0094     		str	r4, [sp]
 1141 03f4 2346     		mov	r3, r4
 1142 03f6 0322     		movs	r2, #3
 1143 03f8 06F1BD01 		add	r1, r6, #189
 1144 03fc 0120     		movs	r0, #1
 1145 03fe FFF7FEFF 		bl	VL53L1_i2c_decode_with_mask
 1146 0402 85F89300 		strb	r0, [r5, #147]
 1147 0406 0094     		str	r4, [sp]
 1148 0408 2346     		mov	r3, r4
 1149 040a 4FF6FF72 		movw	r2, #65535
 1150 040e 06F1C001 		add	r1, r6, #192
 1151 0412 0220     		movs	r0, #2
 1152 0414 FFF7FEFF 		bl	VL53L1_i2c_decode_with_mask
 1153 0418 A5F89400 		strh	r0, [r5, #148]	@ movhi
 1154 041c 0094     		str	r4, [sp]
 1155 041e 2346     		mov	r3, r4
 1156 0420 4FF6FF72 		movw	r2, #65535
 1157 0424 06F1C201 		add	r1, r6, #194
 1158 0428 0220     		movs	r0, #2
 1159 042a FFF7FEFF 		bl	VL53L1_i2c_decode_with_mask
ARM GAS  C:\Temp\ccUJJAjd.s 			page 21


 1160 042e A5F89600 		strh	r0, [r5, #150]	@ movhi
 1161 0432 0094     		str	r4, [sp]
 1162 0434 2346     		mov	r3, r4
 1163 0436 40F6FF72 		movw	r2, #4095
 1164 043a 06F1C401 		add	r1, r6, #196
 1165 043e 0220     		movs	r0, #2
 1166 0440 FFF7FEFF 		bl	VL53L1_i2c_decode_with_mask
 1167 0444 A5F89800 		strh	r0, [r5, #152]	@ movhi
 1168 0448 0094     		str	r4, [sp]
 1169 044a 2346     		mov	r3, r4
 1170 044c 4FF6FF72 		movw	r2, #65535
 1171 0450 06F1C801 		add	r1, r6, #200
 1172 0454 0220     		movs	r0, #2
 1173 0456 FFF7FEFF 		bl	VL53L1_i2c_decode_with_mask
 1174 045a A5F89A00 		strh	r0, [r5, #154]	@ movhi
 1175 045e 0094     		str	r4, [sp]
 1176 0460 2346     		mov	r3, r4
 1177 0462 4FF6FF72 		movw	r2, #65535
 1178 0466 06F1CA01 		add	r1, r6, #202
 1179 046a 0220     		movs	r0, #2
 1180 046c FFF7FEFF 		bl	VL53L1_i2c_decode_with_mask
 1181 0470 A5F89C00 		strh	r0, [r5, #156]	@ movhi
 1182 0474 0094     		str	r4, [sp]
 1183 0476 2346     		mov	r3, r4
 1184 0478 4FF6FF72 		movw	r2, #65535
 1185 047c 06F1CC01 		add	r1, r6, #204
 1186 0480 0220     		movs	r0, #2
 1187 0482 FFF7FEFF 		bl	VL53L1_i2c_decode_with_mask
 1188 0486 A5F89E00 		strh	r0, [r5, #158]	@ movhi
 1189 048a 0094     		str	r4, [sp]
 1190 048c 2346     		mov	r3, r4
 1191 048e FF22     		movs	r2, #255
 1192 0490 06F1CE01 		add	r1, r6, #206
 1193 0494 0120     		movs	r0, #1
 1194 0496 FFF7FEFF 		bl	VL53L1_i2c_decode_with_mask
 1195 049a 85F8A000 		strb	r0, [r5, #160]
 1196 049e 0094     		str	r4, [sp]
 1197 04a0 2346     		mov	r3, r4
 1198 04a2 FF22     		movs	r2, #255
 1199 04a4 06F1CF01 		add	r1, r6, #207
 1200 04a8 0120     		movs	r0, #1
 1201 04aa FFF7FEFF 		bl	VL53L1_i2c_decode_with_mask
 1202 04ae 85F8A100 		strb	r0, [r5, #161]
 1203 04b2 0094     		str	r4, [sp]
 1204 04b4 2346     		mov	r3, r4
 1205 04b6 FF22     		movs	r2, #255
 1206 04b8 06F1E001 		add	r1, r6, #224
 1207 04bc 0120     		movs	r0, #1
 1208 04be FFF7FEFF 		bl	VL53L1_i2c_decode_with_mask
 1209 04c2 85F8A200 		strb	r0, [r5, #162]
 1210 04c6 0094     		str	r4, [sp]
 1211 04c8 2346     		mov	r3, r4
 1212 04ca FF22     		movs	r2, #255
 1213 04cc 06F1E401 		add	r1, r6, #228
 1214 04d0 0120     		movs	r0, #1
 1215 04d2 FFF7FEFF 		bl	VL53L1_i2c_decode_with_mask
 1216 04d6 85F8A300 		strb	r0, [r5, #163]
ARM GAS  C:\Temp\ccUJJAjd.s 			page 22


 1217 04da 0094     		str	r4, [sp]
 1218 04dc 2346     		mov	r3, r4
 1219 04de FF22     		movs	r2, #255
 1220 04e0 06F1E801 		add	r1, r6, #232
 1221 04e4 0120     		movs	r0, #1
 1222 04e6 FFF7FEFF 		bl	VL53L1_i2c_decode_with_mask
 1223 04ea 85F8A400 		strb	r0, [r5, #164]
 1224 04ee 0094     		str	r4, [sp]
 1225 04f0 2346     		mov	r3, r4
 1226 04f2 0322     		movs	r2, #3
 1227 04f4 06F1E901 		add	r1, r6, #233
 1228 04f8 0120     		movs	r0, #1
 1229 04fa FFF7FEFF 		bl	VL53L1_i2c_decode_with_mask
 1230 04fe 85F8A500 		strb	r0, [r5, #165]
 1231 0502 0094     		str	r4, [sp]
 1232 0504 2346     		mov	r3, r4
 1233 0506 4FF6FF72 		movw	r2, #65535
 1234 050a 06F1EC01 		add	r1, r6, #236
 1235 050e 0220     		movs	r0, #2
 1236 0510 FFF7FEFF 		bl	VL53L1_i2c_decode_with_mask
 1237 0514 A5F8A600 		strh	r0, [r5, #166]	@ movhi
 1238 0518 0094     		str	r4, [sp]
 1239 051a 2346     		mov	r3, r4
 1240 051c 4FF6FF72 		movw	r2, #65535
 1241 0520 06F1EE01 		add	r1, r6, #238
 1242 0524 0220     		movs	r0, #2
 1243 0526 FFF7FEFF 		bl	VL53L1_i2c_decode_with_mask
 1244 052a A5F8A800 		strh	r0, [r5, #168]	@ movhi
 1245 052e 0094     		str	r4, [sp]
 1246 0530 2346     		mov	r3, r4
 1247 0532 40F6FF72 		movw	r2, #4095
 1248 0536 06F1F001 		add	r1, r6, #240
 1249 053a 0220     		movs	r0, #2
 1250 053c FFF7FEFF 		bl	VL53L1_i2c_decode_with_mask
 1251 0540 A5F8AA00 		strh	r0, [r5, #170]	@ movhi
 1252 0544 0094     		str	r4, [sp]
 1253 0546 2346     		mov	r3, r4
 1254 0548 4FF6FF72 		movw	r2, #65535
 1255 054c 06F1F401 		add	r1, r6, #244
 1256 0550 0220     		movs	r0, #2
 1257 0552 FFF7FEFF 		bl	VL53L1_i2c_decode_with_mask
 1258 0556 A5F8AC00 		strh	r0, [r5, #172]	@ movhi
 1259 055a 0094     		str	r4, [sp]
 1260 055c 2346     		mov	r3, r4
 1261 055e 4FF6FF72 		movw	r2, #65535
 1262 0562 06F1F601 		add	r1, r6, #246
 1263 0566 0220     		movs	r0, #2
 1264 0568 FFF7FEFF 		bl	VL53L1_i2c_decode_with_mask
 1265 056c A5F8AE00 		strh	r0, [r5, #174]	@ movhi
 1266 0570 0094     		str	r4, [sp]
 1267 0572 2346     		mov	r3, r4
 1268 0574 4FF6FF72 		movw	r2, #65535
 1269 0578 06F1F801 		add	r1, r6, #248
 1270 057c 0220     		movs	r0, #2
 1271 057e FFF7FEFF 		bl	VL53L1_i2c_decode_with_mask
 1272 0582 A5F8B000 		strh	r0, [r5, #176]	@ movhi
 1273 0586 0094     		str	r4, [sp]
ARM GAS  C:\Temp\ccUJJAjd.s 			page 23


 1274 0588 2346     		mov	r3, r4
 1275 058a FF22     		movs	r2, #255
 1276 058c 06F1FA01 		add	r1, r6, #250
 1277 0590 0120     		movs	r0, #1
 1278 0592 FFF7FEFF 		bl	VL53L1_i2c_decode_with_mask
 1279 0596 85F8B200 		strb	r0, [r5, #178]
 1280 059a 0094     		str	r4, [sp]
 1281 059c 2346     		mov	r3, r4
 1282 059e FF22     		movs	r2, #255
 1283 05a0 06F1FB01 		add	r1, r6, #251
 1284 05a4 0120     		movs	r0, #1
 1285 05a6 FFF7FEFF 		bl	VL53L1_i2c_decode_with_mask
 1286 05aa 85F8B300 		strb	r0, [r5, #179]
 1287 05ae 05F1B402 		add	r2, r5, #180
 1288 05b2 4146     		mov	r1, r8
 1289 05b4 3846     		mov	r0, r7
 1290 05b6 FFF7FEFF 		bl	VL53L1_nvm_decode_optical_centre
 1291 05ba 0346     		mov	r3, r0
 1292 05bc 68B1     		cbz	r0, .L91
 1293              	.L82:
 1294 05be 4FF4CE72 		mov	r2, #412
 1295 05c2 0292     		str	r2, [sp, #8]
 1296 05c4 4FF4D672 		mov	r2, #428
 1297 05c8 0392     		str	r2, [sp, #12]
 1298 05ca 4FF4DE72 		mov	r2, #444
 1299 05ce 0492     		str	r2, [sp, #16]
 1300 05d0 4FF4E672 		mov	r2, #460
 1301 05d4 0592     		str	r2, [sp, #20]
 1302 05d6 0024     		movs	r4, #0
 1303 05d8 14E0     		b	.L83
 1304              	.L91:
 1305 05da 05F1B602 		add	r2, r5, #182
 1306 05de 06F5AE71 		add	r1, r6, #348
 1307 05e2 3846     		mov	r0, r7
 1308 05e4 FFF7FEFF 		bl	VL53L1_nvm_decode_cal_peak_rate_map
 1309 05e8 0346     		mov	r3, r0
 1310 05ea 0028     		cmp	r0, #0
 1311 05ec E7D1     		bne	.L82
 1312 05ee 05F1F202 		add	r2, r5, #242
 1313 05f2 06F5CA71 		add	r1, r6, #404
 1314 05f6 3846     		mov	r0, r7
 1315 05f8 FFF7FEFF 		bl	VL53L1_nvm_decode_additional_offset_cal_data
 1316 05fc 0346     		mov	r3, r0
 1317 05fe DEE7     		b	.L82
 1318              	.L84:
 1319 0600 0134     		adds	r4, r4, #1
 1320 0602 E4B2     		uxtb	r4, r4
 1321              	.L83:
 1322 0604 032C     		cmp	r4, #3
 1323 0606 10D8     		bhi	.L92
 1324 0608 002B     		cmp	r3, #0
 1325 060a F9D1     		bne	.L84
 1326 060c 06AB     		add	r3, sp, #24
 1327 060e 03EB8403 		add	r3, r3, r4, lsl #2
 1328 0612 53F8101C 		ldr	r1, [r3, #-16]
 1329 0616 2201     		lsls	r2, r4, #4
 1330 0618 F832     		adds	r2, r2, #248
ARM GAS  C:\Temp\ccUJJAjd.s 			page 24


 1331 061a 2A44     		add	r2, r2, r5
 1332 061c 0232     		adds	r2, r2, #2
 1333 061e 3144     		add	r1, r1, r6
 1334 0620 3846     		mov	r0, r7
 1335 0622 FFF7FEFF 		bl	VL53L1_nvm_decode_fmt_range_results_data
 1336 0626 0346     		mov	r3, r0
 1337 0628 EAE7     		b	.L84
 1338              	.L92:
 1339 062a 1BB1     		cbz	r3, .L93
 1340              	.L65:
 1341 062c 1846     		mov	r0, r3
 1342 062e 07B0     		add	sp, sp, #28
 1343              		@ sp needed
 1344 0630 BDE8F083 		pop	{r4, r5, r6, r7, r8, r9, pc}
 1345              	.L93:
 1346 0634 05F59D72 		add	r2, r5, #314
 1347 0638 3146     		mov	r1, r6
 1348 063a 3846     		mov	r0, r7
 1349 063c FFF7FEFF 		bl	VL53L1_nvm_decode_fmt_info
 1350 0640 0346     		mov	r3, r0
 1351 0642 0028     		cmp	r0, #0
 1352 0644 F2D1     		bne	.L65
 1353 0646 05F5B572 		add	r2, r5, #362
 1354 064a 3146     		mov	r1, r6
 1355 064c 3846     		mov	r0, r7
 1356 064e FFF7FEFF 		bl	VL53L1_nvm_decode_ews_info
 1357 0652 0346     		mov	r3, r0
 1358 0654 EAE7     		b	.L65
 1359              	.L86:
 1360 0656 6FF00803 		mvn	r3, #8
 1361 065a 1846     		mov	r0, r3
 1362 065c 7047     		bx	lr
 1364              		.section	.text.VL53L1_nvm_format_encode,"ax",%progbits
 1365              		.align	1
 1366              		.global	VL53L1_nvm_format_encode
 1367              		.syntax unified
 1368              		.thumb
 1369              		.thumb_func
 1371              	VL53L1_nvm_format_encode:
 1372              		@ args = 0, pretend = 0, frame = 0
 1373              		@ frame_needed = 0, uses_anonymous_args = 0
 1374              		@ link register save eliminated.
 1375 0000 7047     		bx	lr
 1377              		.section	.text.VL53L1_read_nvm_raw_data,"ax",%progbits
 1378              		.align	1
 1379              		.global	VL53L1_read_nvm_raw_data
 1380              		.syntax unified
 1381              		.thumb
 1382              		.thumb_func
 1384              	VL53L1_read_nvm_raw_data:
 1385              		@ args = 0, pretend = 0, frame = 0
 1386              		@ frame_needed = 0, uses_anonymous_args = 0
 1387 0000 F8B5     		push	{r3, r4, r5, r6, r7, lr}
 1388 0002 0446     		mov	r4, r0
 1389 0004 0D46     		mov	r5, r1
 1390 0006 1646     		mov	r6, r2
 1391 0008 1F46     		mov	r7, r3
ARM GAS  C:\Temp\ccUJJAjd.s 			page 25


 1392 000a 3222     		movs	r2, #50
 1393 000c 0421     		movs	r1, #4
 1394 000e FFF7FEFF 		bl	VL53L1_nvm_enable
 1395 0012 00B1     		cbz	r0, .L98
 1396              	.L96:
 1397 0014 F8BD     		pop	{r3, r4, r5, r6, r7, pc}
 1398              	.L98:
 1399 0016 3B46     		mov	r3, r7
 1400 0018 3246     		mov	r2, r6
 1401 001a 2946     		mov	r1, r5
 1402 001c 2046     		mov	r0, r4
 1403 001e FFF7FEFF 		bl	VL53L1_nvm_read
 1404 0022 0028     		cmp	r0, #0
 1405 0024 F6D1     		bne	.L96
 1406 0026 2046     		mov	r0, r4
 1407 0028 FFF7FEFF 		bl	VL53L1_nvm_disable
 1408 002c F2E7     		b	.L96
 1410              		.section	.text.VL53L1_read_nvm,"ax",%progbits
 1411              		.align	1
 1412              		.global	VL53L1_read_nvm
 1413              		.syntax unified
 1414              		.thumb
 1415              		.thumb_func
 1417              	VL53L1_read_nvm:
 1418              		@ args = 0, pretend = 0, frame = 512
 1419              		@ frame_needed = 0, uses_anonymous_args = 0
 1420 0000 10B5     		push	{r4, lr}
 1421 0002 ADF5007D 		sub	sp, sp, #512
 1422 0006 1446     		mov	r4, r2
 1423 0008 6B46     		mov	r3, sp
 1424 000a 8022     		movs	r2, #128
 1425 000c 0021     		movs	r1, #0
 1426 000e FFF7FEFF 		bl	VL53L1_read_nvm_raw_data
 1427 0012 10B1     		cbz	r0, .L102
 1428              	.L100:
 1429 0014 0DF5007D 		add	sp, sp, #512
 1430              		@ sp needed
 1431 0018 10BD     		pop	{r4, pc}
 1432              	.L102:
 1433 001a 2246     		mov	r2, r4
 1434 001c 6946     		mov	r1, sp
 1435 001e 4FF40070 		mov	r0, #512
 1436 0022 FFF7FEFF 		bl	VL53L1_nvm_format_decode
 1437 0026 F5E7     		b	.L100
 1439              		.section	.text.VL53L1_read_nvm_optical_centre,"ax",%progbits
 1440              		.align	1
 1441              		.global	VL53L1_read_nvm_optical_centre
 1442              		.syntax unified
 1443              		.thumb
 1444              		.thumb_func
 1446              	VL53L1_read_nvm_optical_centre:
 1447              		@ args = 0, pretend = 0, frame = 8
 1448              		@ frame_needed = 0, uses_anonymous_args = 0
 1449 0000 10B5     		push	{r4, lr}
 1450 0002 82B0     		sub	sp, sp, #8
 1451 0004 0C46     		mov	r4, r1
 1452 0006 01AB     		add	r3, sp, #4
ARM GAS  C:\Temp\ccUJJAjd.s 			page 26


 1453 0008 0122     		movs	r2, #1
 1454 000a 2E21     		movs	r1, #46
 1455 000c FFF7FEFF 		bl	VL53L1_read_nvm_raw_data
 1456 0010 08B1     		cbz	r0, .L106
 1457              	.L104:
 1458 0012 02B0     		add	sp, sp, #8
 1459              		@ sp needed
 1460 0014 10BD     		pop	{r4, pc}
 1461              	.L106:
 1462 0016 2246     		mov	r2, r4
 1463 0018 01A9     		add	r1, sp, #4
 1464 001a 0420     		movs	r0, #4
 1465 001c FFF7FEFF 		bl	VL53L1_nvm_decode_optical_centre
 1466 0020 F7E7     		b	.L104
 1468              		.section	.text.VL53L1_read_nvm_cal_peak_rate_map,"ax",%progbits
 1469              		.align	1
 1470              		.global	VL53L1_read_nvm_cal_peak_rate_map
 1471              		.syntax unified
 1472              		.thumb
 1473              		.thumb_func
 1475              	VL53L1_read_nvm_cal_peak_rate_map:
 1476              		@ args = 0, pretend = 0, frame = 56
 1477              		@ frame_needed = 0, uses_anonymous_args = 0
 1478 0000 10B5     		push	{r4, lr}
 1479 0002 8EB0     		sub	sp, sp, #56
 1480 0004 0C46     		mov	r4, r1
 1481 0006 6B46     		mov	r3, sp
 1482 0008 0E22     		movs	r2, #14
 1483 000a 5721     		movs	r1, #87
 1484 000c FFF7FEFF 		bl	VL53L1_read_nvm_raw_data
 1485 0010 08B1     		cbz	r0, .L110
 1486              	.L108:
 1487 0012 0EB0     		add	sp, sp, #56
 1488              		@ sp needed
 1489 0014 10BD     		pop	{r4, pc}
 1490              	.L110:
 1491 0016 2246     		mov	r2, r4
 1492 0018 6946     		mov	r1, sp
 1493 001a 3820     		movs	r0, #56
 1494 001c FFF7FEFF 		bl	VL53L1_nvm_decode_cal_peak_rate_map
 1495 0020 F7E7     		b	.L108
 1497              		.section	.text.VL53L1_read_nvm_additional_offset_cal_data,"ax",%progbits
 1498              		.align	1
 1499              		.global	VL53L1_read_nvm_additional_offset_cal_data
 1500              		.syntax unified
 1501              		.thumb
 1502              		.thumb_func
 1504              	VL53L1_read_nvm_additional_offset_cal_data:
 1505              		@ args = 0, pretend = 0, frame = 8
 1506              		@ frame_needed = 0, uses_anonymous_args = 0
 1507 0000 10B5     		push	{r4, lr}
 1508 0002 82B0     		sub	sp, sp, #8
 1509 0004 0C46     		mov	r4, r1
 1510 0006 6B46     		mov	r3, sp
 1511 0008 0222     		movs	r2, #2
 1512 000a 6521     		movs	r1, #101
 1513 000c FFF7FEFF 		bl	VL53L1_read_nvm_raw_data
ARM GAS  C:\Temp\ccUJJAjd.s 			page 27


 1514 0010 08B1     		cbz	r0, .L114
 1515              	.L112:
 1516 0012 02B0     		add	sp, sp, #8
 1517              		@ sp needed
 1518 0014 10BD     		pop	{r4, pc}
 1519              	.L114:
 1520 0016 2246     		mov	r2, r4
 1521 0018 6946     		mov	r1, sp
 1522 001a 0820     		movs	r0, #8
 1523 001c FFF7FEFF 		bl	VL53L1_nvm_decode_additional_offset_cal_data
 1524 0020 F7E7     		b	.L112
 1526              		.section	.text.VL53L1_read_nvm_fmt_range_results_data,"ax",%progbits
 1527              		.align	1
 1528              		.global	VL53L1_read_nvm_fmt_range_results_data
 1529              		.syntax unified
 1530              		.thumb
 1531              		.thumb_func
 1533              	VL53L1_read_nvm_fmt_range_results_data:
 1534              		@ args = 0, pretend = 0, frame = 16
 1535              		@ frame_needed = 0, uses_anonymous_args = 0
 1536 0000 10B5     		push	{r4, lr}
 1537 0002 84B0     		sub	sp, sp, #16
 1538 0004 1446     		mov	r4, r2
 1539 0006 6B46     		mov	r3, sp
 1540 0008 0422     		movs	r2, #4
 1541 000a C1F38701 		ubfx	r1, r1, #2, #8
 1542 000e FFF7FEFF 		bl	VL53L1_read_nvm_raw_data
 1543 0012 08B1     		cbz	r0, .L118
 1544              	.L116:
 1545 0014 04B0     		add	sp, sp, #16
 1546              		@ sp needed
 1547 0016 10BD     		pop	{r4, pc}
 1548              	.L118:
 1549 0018 2246     		mov	r2, r4
 1550 001a 6946     		mov	r1, sp
 1551 001c 1020     		movs	r0, #16
 1552 001e FFF7FEFF 		bl	VL53L1_nvm_decode_fmt_range_results_data
 1553 0022 F7E7     		b	.L116
 1555              		.ident	"GCC: (xPack GNU Arm Embedded GCC x86_64) 12.3.1 20230626"
ARM GAS  C:\Temp\ccUJJAjd.s 			page 28

