ARM GAS  C:\Temp\ccVzAG2n.s 			page 1


   1              		.cpu cortex-m4
   2              		.arch armv7e-m
   3              		.fpu fpv4-sp-d16
   4              		.eabi_attribute 27, 1
   5              		.eabi_attribute 28, 1
   6              		.eabi_attribute 20, 1
   7              		.eabi_attribute 21, 1
   8              		.eabi_attribute 23, 3
   9              		.eabi_attribute 24, 1
  10              		.eabi_attribute 25, 1
  11              		.eabi_attribute 26, 1
  12              		.eabi_attribute 30, 1
  13              		.eabi_attribute 34, 1
  14              		.eabi_attribute 18, 4
  15              		.file	"stm32f4xx_hal_i2c.c"
  16              		.text
  17              		.section	.text.I2C_Flush_DR,"ax",%progbits
  18              		.align	1
  19              		.syntax unified
  20              		.thumb
  21              		.thumb_func
  23              	I2C_Flush_DR:
  24              		@ args = 0, pretend = 0, frame = 0
  25              		@ frame_needed = 0, uses_anonymous_args = 0
  26              		@ link register save eliminated.
  27 0000 0368     		ldr	r3, [r0]
  28 0002 5A69     		ldr	r2, [r3, #20]
  29 0004 12F0800F 		tst	r2, #128
  30 0008 01D0     		beq	.L1
  31 000a 0022     		movs	r2, #0
  32 000c 1A61     		str	r2, [r3, #16]
  33              	.L1:
  34 000e 7047     		bx	lr
  36              		.section	.text.I2C_Master_SB,"ax",%progbits
  37              		.align	1
  38              		.syntax unified
  39              		.thumb
  40              		.thumb_func
  42              	I2C_Master_SB:
  43              		@ args = 0, pretend = 0, frame = 0
  44              		@ frame_needed = 0, uses_anonymous_args = 0
  45              		@ link register save eliminated.
  46 0000 90F83E30 		ldrb	r3, [r0, #62]	@ zero_extendqisi2
  47 0004 DBB2     		uxtb	r3, r3
  48 0006 402B     		cmp	r3, #64
  49 0008 10D0     		beq	.L13
  50 000a 0369     		ldr	r3, [r0, #16]
  51 000c B3F5804F 		cmp	r3, #16384
  52 0010 1BD0     		beq	.L14
  53 0012 036D     		ldr	r3, [r0, #80]
  54 0014 002B     		cmp	r3, #0
  55 0016 39D1     		bne	.L12
  56 0018 436C     		ldr	r3, [r0, #68]
  57 001a C3F3C813 		ubfx	r3, r3, #7, #9
  58 001e 0268     		ldr	r2, [r0]
  59 0020 03F00603 		and	r3, r3, #6
  60 0024 43F0F003 		orr	r3, r3, #240
ARM GAS  C:\Temp\ccVzAG2n.s 			page 2


  61 0028 1361     		str	r3, [r2, #16]
  62 002a 7047     		bx	lr
  63              	.L13:
  64 002c 036D     		ldr	r3, [r0, #80]
  65 002e 2BB9     		cbnz	r3, .L5
  66 0030 436C     		ldr	r3, [r0, #68]
  67 0032 0268     		ldr	r2, [r0]
  68 0034 03F0FE03 		and	r3, r3, #254
  69 0038 1361     		str	r3, [r2, #16]
  70 003a 7047     		bx	lr
  71              	.L5:
  72 003c 436C     		ldr	r3, [r0, #68]
  73 003e 0268     		ldr	r2, [r0]
  74 0040 43F00103 		orr	r3, r3, #1
  75 0044 DBB2     		uxtb	r3, r3
  76 0046 1361     		str	r3, [r2, #16]
  77 0048 7047     		bx	lr
  78              	.L14:
  79 004a 90F83D30 		ldrb	r3, [r0, #61]	@ zero_extendqisi2
  80 004e DBB2     		uxtb	r3, r3
  81 0050 212B     		cmp	r3, #33
  82 0052 0FD0     		beq	.L15
  83 0054 436C     		ldr	r3, [r0, #68]
  84 0056 0268     		ldr	r2, [r0]
  85 0058 43F00103 		orr	r3, r3, #1
  86 005c DBB2     		uxtb	r3, r3
  87 005e 1361     		str	r3, [r2, #16]
  88              	.L9:
  89 0060 436B     		ldr	r3, [r0, #52]
  90 0062 6BB1     		cbz	r3, .L10
  91 0064 DB6B     		ldr	r3, [r3, #60]
  92 0066 5BB1     		cbz	r3, .L10
  93              	.L11:
  94 0068 0268     		ldr	r2, [r0]
  95 006a 5368     		ldr	r3, [r2, #4]
  96 006c 43F40063 		orr	r3, r3, #2048
  97 0070 5360     		str	r3, [r2, #4]
  98 0072 7047     		bx	lr
  99              	.L15:
 100 0074 436C     		ldr	r3, [r0, #68]
 101 0076 0268     		ldr	r2, [r0]
 102 0078 03F0FE03 		and	r3, r3, #254
 103 007c 1361     		str	r3, [r2, #16]
 104 007e EFE7     		b	.L9
 105              	.L10:
 106 0080 836B     		ldr	r3, [r0, #56]
 107 0082 33B1     		cbz	r3, .L3
 108 0084 DB6B     		ldr	r3, [r3, #60]
 109 0086 002B     		cmp	r3, #0
 110 0088 EED1     		bne	.L11
 111 008a 02E0     		b	.L3
 112              	.L12:
 113 008c 036D     		ldr	r3, [r0, #80]
 114 008e 012B     		cmp	r3, #1
 115 0090 00D0     		beq	.L16
 116              	.L3:
 117 0092 7047     		bx	lr
ARM GAS  C:\Temp\ccVzAG2n.s 			page 3


 118              	.L16:
 119 0094 436C     		ldr	r3, [r0, #68]
 120 0096 C3F3C813 		ubfx	r3, r3, #7, #9
 121 009a 0268     		ldr	r2, [r0]
 122 009c 03F00603 		and	r3, r3, #6
 123 00a0 43F0F103 		orr	r3, r3, #241
 124 00a4 1361     		str	r3, [r2, #16]
 125 00a6 F4E7     		b	.L3
 127              		.section	.text.I2C_Master_ADD10,"ax",%progbits
 128              		.align	1
 129              		.syntax unified
 130              		.thumb
 131              		.thumb_func
 133              	I2C_Master_ADD10:
 134              		@ args = 0, pretend = 0, frame = 0
 135              		@ frame_needed = 0, uses_anonymous_args = 0
 136              		@ link register save eliminated.
 137 0000 436C     		ldr	r3, [r0, #68]
 138 0002 0268     		ldr	r2, [r0]
 139 0004 DBB2     		uxtb	r3, r3
 140 0006 1361     		str	r3, [r2, #16]
 141 0008 436B     		ldr	r3, [r0, #52]
 142 000a 3BB1     		cbz	r3, .L18
 143 000c DB6B     		ldr	r3, [r3, #60]
 144 000e 2BB1     		cbz	r3, .L18
 145              	.L19:
 146 0010 0268     		ldr	r2, [r0]
 147 0012 5368     		ldr	r3, [r2, #4]
 148 0014 43F40063 		orr	r3, r3, #2048
 149 0018 5360     		str	r3, [r2, #4]
 150              	.L17:
 151 001a 7047     		bx	lr
 152              	.L18:
 153 001c 836B     		ldr	r3, [r0, #56]
 154 001e 002B     		cmp	r3, #0
 155 0020 FBD0     		beq	.L17
 156 0022 DB6B     		ldr	r3, [r3, #60]
 157 0024 002B     		cmp	r3, #0
 158 0026 F3D1     		bne	.L19
 159 0028 F7E7     		b	.L17
 161              		.section	.text.I2C_Master_ADDR,"ax",%progbits
 162              		.align	1
 163              		.syntax unified
 164              		.thumb
 165              		.thumb_func
 167              	I2C_Master_ADDR:
 168              		@ args = 0, pretend = 0, frame = 40
 169              		@ frame_needed = 0, uses_anonymous_args = 0
 170              		@ link register save eliminated.
 171 0000 10B4     		push	{r4}
 172 0002 8BB0     		sub	sp, sp, #44
 173 0004 90F83E30 		ldrb	r3, [r0, #62]	@ zero_extendqisi2
 174 0008 DAB2     		uxtb	r2, r3
 175 000a C16A     		ldr	r1, [r0, #44]
 176 000c 046B     		ldr	r4, [r0, #48]
 177 000e 90F83D30 		ldrb	r3, [r0, #61]	@ zero_extendqisi2
 178 0012 DBB2     		uxtb	r3, r3
ARM GAS  C:\Temp\ccVzAG2n.s 			page 4


 179 0014 222B     		cmp	r3, #34
 180 0016 0BD0     		beq	.L49
 181 0018 0023     		movs	r3, #0
 182 001a 0993     		str	r3, [sp, #36]
 183 001c 0368     		ldr	r3, [r0]
 184 001e 5A69     		ldr	r2, [r3, #20]
 185 0020 0992     		str	r2, [sp, #36]
 186 0022 9B69     		ldr	r3, [r3, #24]
 187 0024 0993     		str	r3, [sp, #36]
 188 0026 099B     		ldr	r3, [sp, #36]
 189              	.L21:
 190 0028 0BB0     		add	sp, sp, #44
 191              		@ sp needed
 192 002a 5DF8044B 		ldr	r4, [sp], #4
 193 002e 7047     		bx	lr
 194              	.L49:
 195 0030 036D     		ldr	r3, [r0, #80]
 196 0032 0BB9     		cbnz	r3, .L23
 197 0034 402A     		cmp	r2, #64
 198 0036 17D0     		beq	.L50
 199              	.L23:
 200 0038 036D     		ldr	r3, [r0, #80]
 201 003a 1BB9     		cbnz	r3, .L25
 202 003c 0369     		ldr	r3, [r0, #16]
 203 003e B3F5404F 		cmp	r3, #49152
 204 0042 19D0     		beq	.L51
 205              	.L25:
 206 0044 438D     		ldrh	r3, [r0, #42]
 207 0046 9BB2     		uxth	r3, r3
 208 0048 002B     		cmp	r3, #0
 209 004a 25D1     		bne	.L26
 210 004c 0293     		str	r3, [sp, #8]
 211 004e 0368     		ldr	r3, [r0]
 212 0050 5A69     		ldr	r2, [r3, #20]
 213 0052 0292     		str	r2, [sp, #8]
 214 0054 9A69     		ldr	r2, [r3, #24]
 215 0056 0292     		str	r2, [sp, #8]
 216 0058 029A     		ldr	r2, [sp, #8]
 217 005a 1A68     		ldr	r2, [r3]
 218 005c 42F40072 		orr	r2, r2, #512
 219 0060 1A60     		str	r2, [r3]
 220              	.L27:
 221 0062 0023     		movs	r3, #0
 222 0064 0365     		str	r3, [r0, #80]
 223 0066 DFE7     		b	.L21
 224              	.L50:
 225 0068 0093     		str	r3, [sp]
 226 006a 0368     		ldr	r3, [r0]
 227 006c 5A69     		ldr	r2, [r3, #20]
 228 006e 0092     		str	r2, [sp]
 229 0070 9B69     		ldr	r3, [r3, #24]
 230 0072 0093     		str	r3, [sp]
 231 0074 009B     		ldr	r3, [sp]
 232 0076 D7E7     		b	.L21
 233              	.L51:
 234 0078 0023     		movs	r3, #0
 235 007a 0193     		str	r3, [sp, #4]
ARM GAS  C:\Temp\ccVzAG2n.s 			page 5


 236 007c 0368     		ldr	r3, [r0]
 237 007e 5A69     		ldr	r2, [r3, #20]
 238 0080 0192     		str	r2, [sp, #4]
 239 0082 9A69     		ldr	r2, [r3, #24]
 240 0084 0192     		str	r2, [sp, #4]
 241 0086 019A     		ldr	r2, [sp, #4]
 242 0088 1A68     		ldr	r2, [r3]
 243 008a 42F48072 		orr	r2, r2, #256
 244 008e 1A60     		str	r2, [r3]
 245 0090 036D     		ldr	r3, [r0, #80]
 246 0092 0133     		adds	r3, r3, #1
 247 0094 0365     		str	r3, [r0, #80]
 248 0096 C7E7     		b	.L21
 249              	.L26:
 250 0098 438D     		ldrh	r3, [r0, #42]
 251 009a 9BB2     		uxth	r3, r3
 252 009c 012B     		cmp	r3, #1
 253 009e 1CD0     		beq	.L52
 254 00a0 438D     		ldrh	r3, [r0, #42]
 255 00a2 9BB2     		uxth	r3, r3
 256 00a4 022B     		cmp	r3, #2
 257 00a6 72D0     		beq	.L53
 258 00a8 0268     		ldr	r2, [r0]
 259 00aa 1368     		ldr	r3, [r2]
 260 00ac 43F48063 		orr	r3, r3, #1024
 261 00b0 1360     		str	r3, [r2]
 262 00b2 0368     		ldr	r3, [r0]
 263 00b4 5A68     		ldr	r2, [r3, #4]
 264 00b6 12F4006F 		tst	r2, #2048
 265 00ba 00F0A980 		beq	.L44
 266 00be 2029     		cmp	r1, #32
 267 00c0 00F2AF80 		bhi	.L45
 268 00c4 0829     		cmp	r1, #8
 269 00c6 80F09C80 		bcs	.L46
 270 00ca 0129     		cmp	r1, #1
 271 00cc 40F0A080 		bne	.L44
 272              	.L47:
 273 00d0 5A68     		ldr	r2, [r3, #4]
 274 00d2 42F48052 		orr	r2, r2, #4096
 275 00d6 5A60     		str	r2, [r3, #4]
 276 00d8 9AE0     		b	.L44
 277              	.L52:
 278 00da 11F5803F 		cmn	r1, #65536
 279 00de 11D0     		beq	.L54
 280 00e0 0829     		cmp	r1, #8
 281 00e2 34D0     		beq	.L31
 282 00e4 2029     		cmp	r1, #32
 283 00e6 32D0     		beq	.L31
 284 00e8 122C     		cmp	r4, #18
 285 00ea 2ED0     		beq	.L55
 286 00ec 0429     		cmp	r1, #4
 287 00ee 40D0     		beq	.L34
 288              	.L33:
 289 00f0 0229     		cmp	r1, #2
 290 00f2 3ED0     		beq	.L34
 291 00f4 1029     		cmp	r1, #16
 292 00f6 3CD0     		beq	.L34
ARM GAS  C:\Temp\ccVzAG2n.s 			page 6


 293 00f8 0268     		ldr	r2, [r0]
 294 00fa 1368     		ldr	r3, [r2]
 295 00fc 23F48063 		bic	r3, r3, #1024
 296 0100 1360     		str	r3, [r2]
 297 0102 3BE0     		b	.L35
 298              	.L54:
 299 0104 0268     		ldr	r2, [r0]
 300 0106 1368     		ldr	r3, [r2]
 301 0108 23F48063 		bic	r3, r3, #1024
 302 010c 1360     		str	r3, [r2]
 303 010e 0368     		ldr	r3, [r0]
 304 0110 5A68     		ldr	r2, [r3, #4]
 305 0112 12F4006F 		tst	r2, #2048
 306 0116 0CD0     		beq	.L30
 307 0118 1A68     		ldr	r2, [r3]
 308 011a 22F48062 		bic	r2, r2, #1024
 309 011e 1A60     		str	r2, [r3]
 310 0120 0023     		movs	r3, #0
 311 0122 0393     		str	r3, [sp, #12]
 312 0124 0368     		ldr	r3, [r0]
 313 0126 5A69     		ldr	r2, [r3, #20]
 314 0128 0392     		str	r2, [sp, #12]
 315 012a 9B69     		ldr	r3, [r3, #24]
 316 012c 0393     		str	r3, [sp, #12]
 317 012e 039B     		ldr	r3, [sp, #12]
 318 0130 97E7     		b	.L27
 319              	.L30:
 320 0132 0022     		movs	r2, #0
 321 0134 0492     		str	r2, [sp, #16]
 322 0136 5A69     		ldr	r2, [r3, #20]
 323 0138 0492     		str	r2, [sp, #16]
 324 013a 9A69     		ldr	r2, [r3, #24]
 325 013c 0492     		str	r2, [sp, #16]
 326 013e 049A     		ldr	r2, [sp, #16]
 327 0140 1A68     		ldr	r2, [r3]
 328 0142 42F40072 		orr	r2, r2, #512
 329 0146 1A60     		str	r2, [r3]
 330 0148 8BE7     		b	.L27
 331              	.L55:
 332 014a 0129     		cmp	r1, #1
 333 014c D0D0     		beq	.L33
 334              	.L31:
 335 014e 0268     		ldr	r2, [r0]
 336 0150 1368     		ldr	r3, [r2]
 337 0152 23F48063 		bic	r3, r3, #1024
 338 0156 1360     		str	r3, [r2]
 339 0158 0023     		movs	r3, #0
 340 015a 0693     		str	r3, [sp, #24]
 341 015c 0368     		ldr	r3, [r0]
 342 015e 5A69     		ldr	r2, [r3, #20]
 343 0160 0692     		str	r2, [sp, #24]
 344 0162 9A69     		ldr	r2, [r3, #24]
 345 0164 0692     		str	r2, [sp, #24]
 346 0166 069A     		ldr	r2, [sp, #24]
 347 0168 1A68     		ldr	r2, [r3]
 348 016a 42F40072 		orr	r2, r2, #512
 349 016e 1A60     		str	r2, [r3]
ARM GAS  C:\Temp\ccVzAG2n.s 			page 7


 350 0170 77E7     		b	.L27
 351              	.L34:
 352 0172 0268     		ldr	r2, [r0]
 353 0174 1368     		ldr	r3, [r2]
 354 0176 43F48063 		orr	r3, r3, #1024
 355 017a 1360     		str	r3, [r2]
 356              	.L35:
 357 017c 0023     		movs	r3, #0
 358 017e 0593     		str	r3, [sp, #20]
 359 0180 0368     		ldr	r3, [r0]
 360 0182 5A69     		ldr	r2, [r3, #20]
 361 0184 0592     		str	r2, [sp, #20]
 362 0186 9B69     		ldr	r3, [r3, #24]
 363 0188 0593     		str	r3, [sp, #20]
 364 018a 059B     		ldr	r3, [sp, #20]
 365 018c 69E7     		b	.L27
 366              	.L53:
 367 018e 1029     		cmp	r1, #16
 368 0190 04D8     		bhi	.L37
 369 0192 264B     		ldr	r3, .L56
 370 0194 CB40     		lsrs	r3, r3, r1
 371 0196 13F0010F 		tst	r3, #1
 372 019a 19D1     		bne	.L38
 373              	.L37:
 374 019c 0268     		ldr	r2, [r0]
 375 019e 1368     		ldr	r3, [r2]
 376 01a0 23F48063 		bic	r3, r3, #1024
 377 01a4 1360     		str	r3, [r2]
 378 01a6 0268     		ldr	r2, [r0]
 379 01a8 1368     		ldr	r3, [r2]
 380 01aa 43F40063 		orr	r3, r3, #2048
 381 01ae 1360     		str	r3, [r2]
 382              	.L39:
 383 01b0 0368     		ldr	r3, [r0]
 384 01b2 5A68     		ldr	r2, [r3, #4]
 385 01b4 12F4006F 		tst	r2, #2048
 386 01b8 16D0     		beq	.L40
 387 01ba 2029     		cmp	r1, #32
 388 01bc 1DD8     		bhi	.L41
 389 01be 0829     		cmp	r1, #8
 390 01c0 0CD2     		bcs	.L42
 391 01c2 0129     		cmp	r1, #1
 392 01c4 10D1     		bne	.L40
 393              	.L43:
 394 01c6 5A68     		ldr	r2, [r3, #4]
 395 01c8 42F48052 		orr	r2, r2, #4096
 396 01cc 5A60     		str	r2, [r3, #4]
 397 01ce 0BE0     		b	.L40
 398              	.L38:
 399 01d0 0268     		ldr	r2, [r0]
 400 01d2 1368     		ldr	r3, [r2]
 401 01d4 43F48063 		orr	r3, r3, #1024
 402 01d8 1360     		str	r3, [r2]
 403 01da E9E7     		b	.L39
 404              	.L42:
 405 01dc 0839     		subs	r1, r1, #8
 406 01de 144A     		ldr	r2, .L56+4
ARM GAS  C:\Temp\ccVzAG2n.s 			page 8


 407 01e0 CA40     		lsrs	r2, r2, r1
 408 01e2 12F0010F 		tst	r2, #1
 409 01e6 EED1     		bne	.L43
 410              	.L40:
 411 01e8 0023     		movs	r3, #0
 412 01ea 0793     		str	r3, [sp, #28]
 413 01ec 0368     		ldr	r3, [r0]
 414 01ee 5A69     		ldr	r2, [r3, #20]
 415 01f0 0792     		str	r2, [sp, #28]
 416 01f2 9B69     		ldr	r3, [r3, #24]
 417 01f4 0793     		str	r3, [sp, #28]
 418 01f6 079B     		ldr	r3, [sp, #28]
 419 01f8 33E7     		b	.L27
 420              	.L41:
 421 01fa 11F5803F 		cmn	r1, #65536
 422 01fe F3D1     		bne	.L40
 423 0200 E1E7     		b	.L43
 424              	.L46:
 425 0202 0839     		subs	r1, r1, #8
 426 0204 0A4A     		ldr	r2, .L56+4
 427 0206 CA40     		lsrs	r2, r2, r1
 428 0208 12F0010F 		tst	r2, #1
 429 020c 7FF460AF 		bne	.L47
 430              	.L44:
 431 0210 0023     		movs	r3, #0
 432 0212 0893     		str	r3, [sp, #32]
 433 0214 0368     		ldr	r3, [r0]
 434 0216 5A69     		ldr	r2, [r3, #20]
 435 0218 0892     		str	r2, [sp, #32]
 436 021a 9B69     		ldr	r3, [r3, #24]
 437 021c 0893     		str	r3, [sp, #32]
 438 021e 089B     		ldr	r3, [sp, #32]
 439 0220 1FE7     		b	.L27
 440              	.L45:
 441 0222 11F5803F 		cmn	r1, #65536
 442 0226 F3D1     		bne	.L44
 443 0228 52E7     		b	.L47
 444              	.L57:
 445 022a 00BF     		.align	2
 446              	.L56:
 447 022c 14000100 		.word	65556
 448 0230 01010001 		.word	16777473
 450              		.section	.text.I2C_SlaveTransmit_BTF,"ax",%progbits
 451              		.align	1
 452              		.syntax unified
 453              		.thumb
 454              		.thumb_func
 456              	I2C_SlaveTransmit_BTF:
 457              		@ args = 0, pretend = 0, frame = 0
 458              		@ frame_needed = 0, uses_anonymous_args = 0
 459              		@ link register save eliminated.
 460 0000 438D     		ldrh	r3, [r0, #42]
 461 0002 9BB2     		uxth	r3, r3
 462 0004 5BB1     		cbz	r3, .L58
 463 0006 426A     		ldr	r2, [r0, #36]
 464 0008 0368     		ldr	r3, [r0]
 465 000a 1278     		ldrb	r2, [r2]	@ zero_extendqisi2
ARM GAS  C:\Temp\ccVzAG2n.s 			page 9


 466 000c 1A61     		str	r2, [r3, #16]
 467 000e 436A     		ldr	r3, [r0, #36]
 468 0010 0133     		adds	r3, r3, #1
 469 0012 4362     		str	r3, [r0, #36]
 470 0014 438D     		ldrh	r3, [r0, #42]
 471 0016 9BB2     		uxth	r3, r3
 472 0018 013B     		subs	r3, r3, #1
 473 001a 9BB2     		uxth	r3, r3
 474 001c 4385     		strh	r3, [r0, #42]	@ movhi
 475              	.L58:
 476 001e 7047     		bx	lr
 478              		.section	.text.I2C_SlaveReceive_BTF,"ax",%progbits
 479              		.align	1
 480              		.syntax unified
 481              		.thumb
 482              		.thumb_func
 484              	I2C_SlaveReceive_BTF:
 485              		@ args = 0, pretend = 0, frame = 0
 486              		@ frame_needed = 0, uses_anonymous_args = 0
 487              		@ link register save eliminated.
 488 0000 438D     		ldrh	r3, [r0, #42]
 489 0002 9BB2     		uxth	r3, r3
 490 0004 5BB1     		cbz	r3, .L60
 491 0006 0368     		ldr	r3, [r0]
 492 0008 1A69     		ldr	r2, [r3, #16]
 493 000a 436A     		ldr	r3, [r0, #36]
 494 000c 1A70     		strb	r2, [r3]
 495 000e 436A     		ldr	r3, [r0, #36]
 496 0010 0133     		adds	r3, r3, #1
 497 0012 4362     		str	r3, [r0, #36]
 498 0014 438D     		ldrh	r3, [r0, #42]
 499 0016 9BB2     		uxth	r3, r3
 500 0018 013B     		subs	r3, r3, #1
 501 001a 9BB2     		uxth	r3, r3
 502 001c 4385     		strh	r3, [r0, #42]	@ movhi
 503              	.L60:
 504 001e 7047     		bx	lr
 506              		.section	.text.I2C_WaitOnSTOPRequestThroughIT,"ax",%progbits
 507              		.align	1
 508              		.syntax unified
 509              		.thumb
 510              		.thumb_func
 512              	I2C_WaitOnSTOPRequestThroughIT:
 513              		@ args = 0, pretend = 0, frame = 8
 514              		@ frame_needed = 0, uses_anonymous_args = 0
 515              		@ link register save eliminated.
 516 0000 82B0     		sub	sp, sp, #8
 517 0002 0023     		movs	r3, #0
 518 0004 0193     		str	r3, [sp, #4]
 519 0006 0E4B     		ldr	r3, .L68
 520 0008 1B68     		ldr	r3, [r3]
 521 000a DB08     		lsrs	r3, r3, #3
 522 000c 0D4A     		ldr	r2, .L68+4
 523 000e A2FB0323 		umull	r2, r3, r2, r3
 524 0012 1B0A     		lsrs	r3, r3, #8
 525 0014 03EB8303 		add	r3, r3, r3, lsl #2
 526 0018 0193     		str	r3, [sp, #4]
ARM GAS  C:\Temp\ccVzAG2n.s 			page 10


 527              	.L65:
 528 001a 019B     		ldr	r3, [sp, #4]
 529 001c 013B     		subs	r3, r3, #1
 530 001e 0193     		str	r3, [sp, #4]
 531 0020 019B     		ldr	r3, [sp, #4]
 532 0022 33B1     		cbz	r3, .L67
 533 0024 0368     		ldr	r3, [r0]
 534 0026 1B68     		ldr	r3, [r3]
 535 0028 13F4007F 		tst	r3, #512
 536 002c F5D1     		bne	.L65
 537 002e 0020     		movs	r0, #0
 538 0030 04E0     		b	.L64
 539              	.L67:
 540 0032 036C     		ldr	r3, [r0, #64]
 541 0034 43F02003 		orr	r3, r3, #32
 542 0038 0364     		str	r3, [r0, #64]
 543 003a 0120     		movs	r0, #1
 544              	.L64:
 545 003c 02B0     		add	sp, sp, #8
 546              		@ sp needed
 547 003e 7047     		bx	lr
 548              	.L69:
 549              		.align	2
 550              	.L68:
 551 0040 00000000 		.word	SystemCoreClock
 552 0044 89B5F814 		.word	351843721
 554              		.section	.text.I2C_IsAcknowledgeFailed,"ax",%progbits
 555              		.align	1
 556              		.syntax unified
 557              		.thumb
 558              		.thumb_func
 560              	I2C_IsAcknowledgeFailed:
 561              		@ args = 0, pretend = 0, frame = 0
 562              		@ frame_needed = 0, uses_anonymous_args = 0
 563              		@ link register save eliminated.
 564 0000 0368     		ldr	r3, [r0]
 565 0002 5A69     		ldr	r2, [r3, #20]
 566 0004 12F4806F 		tst	r2, #1024
 567 0008 01D1     		bne	.L73
 568 000a 0020     		movs	r0, #0
 569 000c 7047     		bx	lr
 570              	.L73:
 571 000e 6FF48062 		mvn	r2, #1024
 572 0012 5A61     		str	r2, [r3, #20]
 573 0014 0023     		movs	r3, #0
 574 0016 0363     		str	r3, [r0, #48]
 575 0018 2022     		movs	r2, #32
 576 001a 80F83D20 		strb	r2, [r0, #61]
 577 001e 80F83E30 		strb	r3, [r0, #62]
 578 0022 026C     		ldr	r2, [r0, #64]
 579 0024 42F00402 		orr	r2, r2, #4
 580 0028 0264     		str	r2, [r0, #64]
 581 002a 80F83C30 		strb	r3, [r0, #60]
 582 002e 0120     		movs	r0, #1
 583 0030 7047     		bx	lr
 585              		.section	.text.I2C_ConvertOtherXferOptions,"ax",%progbits
 586              		.align	1
ARM GAS  C:\Temp\ccVzAG2n.s 			page 11


 587              		.syntax unified
 588              		.thumb
 589              		.thumb_func
 591              	I2C_ConvertOtherXferOptions:
 592              		@ args = 0, pretend = 0, frame = 0
 593              		@ frame_needed = 0, uses_anonymous_args = 0
 594              		@ link register save eliminated.
 595 0000 C36A     		ldr	r3, [r0, #44]
 596 0002 B3F52A0F 		cmp	r3, #11141120
 597 0006 04D0     		beq	.L77
 598 0008 C36A     		ldr	r3, [r0, #44]
 599 000a B3F12A4F 		cmp	r3, #-1442840576
 600 000e 03D0     		beq	.L78
 601              	.L74:
 602 0010 7047     		bx	lr
 603              	.L77:
 604 0012 0123     		movs	r3, #1
 605 0014 C362     		str	r3, [r0, #44]
 606 0016 7047     		bx	lr
 607              	.L78:
 608 0018 0823     		movs	r3, #8
 609 001a C362     		str	r3, [r0, #44]
 610 001c F8E7     		b	.L74
 612              		.section	.text.I2C_WaitOnFlagUntilTimeout,"ax",%progbits
 613              		.align	1
 614              		.syntax unified
 615              		.thumb
 616              		.thumb_func
 618              	I2C_WaitOnFlagUntilTimeout:
 619              		@ args = 4, pretend = 0, frame = 0
 620              		@ frame_needed = 0, uses_anonymous_args = 0
 621 0000 2DE9F041 		push	{r4, r5, r6, r7, r8, lr}
 622 0004 0646     		mov	r6, r0
 623 0006 0C46     		mov	r4, r1
 624 0008 1746     		mov	r7, r2
 625 000a 9846     		mov	r8, r3
 626 000c 3BE0     		b	.L81
 627              	.L92:
 628 000e FFF7FEFF 		bl	HAL_GetTick
 629 0012 069B     		ldr	r3, [sp, #24]
 630 0014 C01A     		subs	r0, r0, r3
 631 0016 4045     		cmp	r0, r8
 632 0018 02D8     		bhi	.L82
 633 001a B8F1000F 		cmp	r8, #0
 634 001e 32D1     		bne	.L81
 635              	.L82:
 636 0020 012D     		cmp	r5, #1
 637 0022 18D0     		beq	.L90
 638 0024 3368     		ldr	r3, [r6]
 639 0026 9B69     		ldr	r3, [r3, #24]
 640 0028 24EA0303 		bic	r3, r4, r3
 641 002c 9BB2     		uxth	r3, r3
 642 002e B3FA83F3 		clz	r3, r3
 643 0032 5B09     		lsrs	r3, r3, #5
 644              	.L84:
 645 0034 9F42     		cmp	r7, r3
 646 0036 26D1     		bne	.L81
ARM GAS  C:\Temp\ccVzAG2n.s 			page 12


 647 0038 0023     		movs	r3, #0
 648 003a 3363     		str	r3, [r6, #48]
 649 003c 2022     		movs	r2, #32
 650 003e 86F83D20 		strb	r2, [r6, #61]
 651 0042 86F83E30 		strb	r3, [r6, #62]
 652 0046 326C     		ldr	r2, [r6, #64]
 653 0048 42F02002 		orr	r2, r2, #32
 654 004c 3264     		str	r2, [r6, #64]
 655 004e 86F83C30 		strb	r3, [r6, #60]
 656 0052 0120     		movs	r0, #1
 657 0054 27E0     		b	.L85
 658              	.L90:
 659 0056 3368     		ldr	r3, [r6]
 660 0058 5B69     		ldr	r3, [r3, #20]
 661 005a 24EA0303 		bic	r3, r4, r3
 662 005e 9BB2     		uxth	r3, r3
 663 0060 B3FA83F3 		clz	r3, r3
 664 0064 5B09     		lsrs	r3, r3, #5
 665 0066 E5E7     		b	.L84
 666              	.L93:
 667 0068 3368     		ldr	r3, [r6]
 668 006a 5B69     		ldr	r3, [r3, #20]
 669 006c 24EA030C 		bic	ip, r4, r3
 670 0070 1FFA8CFC 		uxth	ip, ip
 671 0074 BCFA8CFC 		clz	ip, ip
 672 0078 4FEA5C1C 		lsr	ip, ip, #5
 673              	.L87:
 674 007c 6745     		cmp	r7, ip
 675 007e 11D1     		bne	.L91
 676 0080 B8F1FF3F 		cmp	r8, #-1
 677 0084 C3D1     		bne	.L92
 678              	.L81:
 679 0086 C4F30745 		ubfx	r5, r4, #16, #8
 680 008a 012D     		cmp	r5, #1
 681 008c ECD0     		beq	.L93
 682 008e 3368     		ldr	r3, [r6]
 683 0090 9B69     		ldr	r3, [r3, #24]
 684 0092 24EA030C 		bic	ip, r4, r3
 685 0096 1FFA8CFC 		uxth	ip, ip
 686 009a BCFA8CFC 		clz	ip, ip
 687 009e 4FEA5C1C 		lsr	ip, ip, #5
 688 00a2 EBE7     		b	.L87
 689              	.L91:
 690 00a4 0020     		movs	r0, #0
 691              	.L85:
 692 00a6 BDE8F081 		pop	{r4, r5, r6, r7, r8, pc}
 694              		.section	.text.I2C_WaitOnMasterAddressFlagUntilTimeout,"ax",%progbits
 695              		.align	1
 696              		.syntax unified
 697              		.thumb
 698              		.thumb_func
 700              	I2C_WaitOnMasterAddressFlagUntilTimeout:
 701              		@ args = 0, pretend = 0, frame = 0
 702              		@ frame_needed = 0, uses_anonymous_args = 0
 703 0000 2DE9F843 		push	{r3, r4, r5, r6, r7, r8, r9, lr}
 704 0004 0546     		mov	r5, r0
 705 0006 0E46     		mov	r6, r1
ARM GAS  C:\Temp\ccVzAG2n.s 			page 13


 706 0008 9046     		mov	r8, r2
 707 000a 9946     		mov	r9, r3
 708 000c 53E0     		b	.L98
 709              	.L108:
 710 000e 1A68     		ldr	r2, [r3]
 711 0010 42F40072 		orr	r2, r2, #512
 712 0014 1A60     		str	r2, [r3]
 713 0016 2B68     		ldr	r3, [r5]
 714 0018 6FF48062 		mvn	r2, #1024
 715 001c 5A61     		str	r2, [r3, #20]
 716 001e 0023     		movs	r3, #0
 717 0020 2B63     		str	r3, [r5, #48]
 718 0022 2022     		movs	r2, #32
 719 0024 85F83D20 		strb	r2, [r5, #61]
 720 0028 85F83E30 		strb	r3, [r5, #62]
 721 002c 2A6C     		ldr	r2, [r5, #64]
 722 002e 42F00402 		orr	r2, r2, #4
 723 0032 2A64     		str	r2, [r5, #64]
 724 0034 85F83C30 		strb	r3, [r5, #60]
 725 0038 0120     		movs	r0, #1
 726 003a 4AE0     		b	.L97
 727              	.L109:
 728 003c FFF7FEFF 		bl	HAL_GetTick
 729 0040 A0EB0900 		sub	r0, r0, r9
 730 0044 4045     		cmp	r0, r8
 731 0046 02D8     		bhi	.L99
 732 0048 B8F1000F 		cmp	r8, #0
 733 004c 33D1     		bne	.L98
 734              	.L99:
 735 004e 012F     		cmp	r7, #1
 736 0050 17D0     		beq	.L106
 737 0052 2B68     		ldr	r3, [r5]
 738 0054 9B69     		ldr	r3, [r3, #24]
 739 0056 26EA0303 		bic	r3, r6, r3
 740 005a 9BB2     		uxth	r3, r3
 741 005c 003B     		subs	r3, r3, #0
 742 005e 18BF     		it	ne
 743 0060 0123     		movne	r3, #1
 744              	.L101:
 745 0062 43B3     		cbz	r3, .L98
 746 0064 0023     		movs	r3, #0
 747 0066 2B63     		str	r3, [r5, #48]
 748 0068 2022     		movs	r2, #32
 749 006a 85F83D20 		strb	r2, [r5, #61]
 750 006e 85F83E30 		strb	r3, [r5, #62]
 751 0072 2A6C     		ldr	r2, [r5, #64]
 752 0074 42F02002 		orr	r2, r2, #32
 753 0078 2A64     		str	r2, [r5, #64]
 754 007a 85F83C30 		strb	r3, [r5, #60]
 755 007e 0120     		movs	r0, #1
 756 0080 27E0     		b	.L97
 757              	.L106:
 758 0082 2B68     		ldr	r3, [r5]
 759 0084 5B69     		ldr	r3, [r3, #20]
 760 0086 26EA0303 		bic	r3, r6, r3
 761 008a 9BB2     		uxth	r3, r3
 762 008c 003B     		subs	r3, r3, #0
ARM GAS  C:\Temp\ccVzAG2n.s 			page 14


 763 008e 18BF     		it	ne
 764 0090 0123     		movne	r3, #1
 765 0092 E6E7     		b	.L101
 766              	.L102:
 767 0094 2B68     		ldr	r3, [r5]
 768 0096 9C69     		ldr	r4, [r3, #24]
 769 0098 26EA0404 		bic	r4, r6, r4
 770 009c A4B2     		uxth	r4, r4
 771 009e 003C     		subs	r4, r4, #0
 772 00a0 18BF     		it	ne
 773 00a2 0124     		movne	r4, #1
 774              	.L103:
 775 00a4 A4B1     		cbz	r4, .L107
 776 00a6 2B68     		ldr	r3, [r5]
 777 00a8 5A69     		ldr	r2, [r3, #20]
 778 00aa 12F4806F 		tst	r2, #1024
 779 00ae AED1     		bne	.L108
 780 00b0 B8F1FF3F 		cmp	r8, #-1
 781 00b4 C2D1     		bne	.L109
 782              	.L98:
 783 00b6 C6F30747 		ubfx	r7, r6, #16, #8
 784 00ba 012F     		cmp	r7, #1
 785 00bc EAD1     		bne	.L102
 786 00be 2B68     		ldr	r3, [r5]
 787 00c0 5C69     		ldr	r4, [r3, #20]
 788 00c2 26EA0404 		bic	r4, r6, r4
 789 00c6 A4B2     		uxth	r4, r4
 790 00c8 003C     		subs	r4, r4, #0
 791 00ca 18BF     		it	ne
 792 00cc 0124     		movne	r4, #1
 793 00ce E9E7     		b	.L103
 794              	.L107:
 795 00d0 0020     		movs	r0, #0
 796              	.L97:
 797 00d2 BDE8F883 		pop	{r3, r4, r5, r6, r7, r8, r9, pc}
 799              		.section	.text.I2C_MasterRequestWrite,"ax",%progbits
 800              		.align	1
 801              		.syntax unified
 802              		.thumb
 803              		.thumb_func
 805              	I2C_MasterRequestWrite:
 806              		@ args = 0, pretend = 0, frame = 0
 807              		@ frame_needed = 0, uses_anonymous_args = 0
 808 0000 F0B5     		push	{r4, r5, r6, r7, lr}
 809 0002 83B0     		sub	sp, sp, #12
 810 0004 0446     		mov	r4, r0
 811 0006 0D46     		mov	r5, r1
 812 0008 1646     		mov	r6, r2
 813 000a 1F46     		mov	r7, r3
 814 000c C36A     		ldr	r3, [r0, #44]
 815 000e 082B     		cmp	r3, #8
 816 0010 0DD0     		beq	.L111
 817 0012 012B     		cmp	r3, #1
 818 0014 0BD0     		beq	.L111
 819 0016 13F5803F 		cmn	r3, #65536
 820 001a 08D0     		beq	.L111
 821 001c 036B     		ldr	r3, [r0, #48]
ARM GAS  C:\Temp\ccVzAG2n.s 			page 15


 822 001e 122B     		cmp	r3, #18
 823 0020 0AD1     		bne	.L113
 824 0022 0268     		ldr	r2, [r0]
 825 0024 1368     		ldr	r3, [r2]
 826 0026 43F48073 		orr	r3, r3, #256
 827 002a 1360     		str	r3, [r2]
 828 002c 04E0     		b	.L113
 829              	.L111:
 830 002e 2268     		ldr	r2, [r4]
 831 0030 1368     		ldr	r3, [r2]
 832 0032 43F48073 		orr	r3, r3, #256
 833 0036 1360     		str	r3, [r2]
 834              	.L113:
 835 0038 0097     		str	r7, [sp]
 836 003a 3346     		mov	r3, r6
 837 003c 0022     		movs	r2, #0
 838 003e 4FF00111 		mov	r1, #65537
 839 0042 2046     		mov	r0, r4
 840 0044 FFF7FEFF 		bl	I2C_WaitOnFlagUntilTimeout
 841 0048 80B9     		cbnz	r0, .L122
 842 004a 2369     		ldr	r3, [r4, #16]
 843 004c B3F5804F 		cmp	r3, #16384
 844 0050 16D1     		bne	.L117
 845 0052 2368     		ldr	r3, [r4]
 846 0054 05F0FE05 		and	r5, r5, #254
 847 0058 1D61     		str	r5, [r3, #16]
 848              	.L118:
 849 005a 3B46     		mov	r3, r7
 850 005c 3246     		mov	r2, r6
 851 005e 1349     		ldr	r1, .L124
 852 0060 2046     		mov	r0, r4
 853 0062 FFF7FEFF 		bl	I2C_WaitOnMasterAddressFlagUntilTimeout
 854 0066 F8B9     		cbnz	r0, .L123
 855              	.L116:
 856 0068 03B0     		add	sp, sp, #12
 857              		@ sp needed
 858 006a F0BD     		pop	{r4, r5, r6, r7, pc}
 859              	.L122:
 860 006c 2368     		ldr	r3, [r4]
 861 006e 1B68     		ldr	r3, [r3]
 862 0070 13F4807F 		tst	r3, #256
 863 0074 02D0     		beq	.L115
 864 0076 4FF40073 		mov	r3, #512
 865 007a 2364     		str	r3, [r4, #64]
 866              	.L115:
 867 007c 0320     		movs	r0, #3
 868 007e F3E7     		b	.L116
 869              	.L117:
 870 0080 EB11     		asrs	r3, r5, #7
 871 0082 2268     		ldr	r2, [r4]
 872 0084 03F00603 		and	r3, r3, #6
 873 0088 43F0F003 		orr	r3, r3, #240
 874 008c 1361     		str	r3, [r2, #16]
 875 008e 3B46     		mov	r3, r7
 876 0090 3246     		mov	r2, r6
 877 0092 0749     		ldr	r1, .L124+4
 878 0094 2046     		mov	r0, r4
ARM GAS  C:\Temp\ccVzAG2n.s 			page 16


 879 0096 FFF7FEFF 		bl	I2C_WaitOnMasterAddressFlagUntilTimeout
 880 009a 18B9     		cbnz	r0, .L119
 881 009c 2368     		ldr	r3, [r4]
 882 009e EDB2     		uxtb	r5, r5
 883 00a0 1D61     		str	r5, [r3, #16]
 884 00a2 DAE7     		b	.L118
 885              	.L119:
 886 00a4 0120     		movs	r0, #1
 887 00a6 DFE7     		b	.L116
 888              	.L123:
 889 00a8 0120     		movs	r0, #1
 890 00aa DDE7     		b	.L116
 891              	.L125:
 892              		.align	2
 893              	.L124:
 894 00ac 02000100 		.word	65538
 895 00b0 08000100 		.word	65544
 897              		.section	.text.I2C_MasterRequestRead,"ax",%progbits
 898              		.align	1
 899              		.syntax unified
 900              		.thumb
 901              		.thumb_func
 903              	I2C_MasterRequestRead:
 904              		@ args = 0, pretend = 0, frame = 8
 905              		@ frame_needed = 0, uses_anonymous_args = 0
 906 0000 2DE9F041 		push	{r4, r5, r6, r7, r8, lr}
 907 0004 84B0     		sub	sp, sp, #16
 908 0006 0446     		mov	r4, r0
 909 0008 0D46     		mov	r5, r1
 910 000a 1646     		mov	r6, r2
 911 000c 1F46     		mov	r7, r3
 912 000e C26A     		ldr	r2, [r0, #44]
 913 0010 0168     		ldr	r1, [r0]
 914 0012 0B68     		ldr	r3, [r1]
 915 0014 43F48063 		orr	r3, r3, #1024
 916 0018 0B60     		str	r3, [r1]
 917 001a 082A     		cmp	r2, #8
 918 001c 0DD0     		beq	.L127
 919 001e 012A     		cmp	r2, #1
 920 0020 0BD0     		beq	.L127
 921 0022 12F5803F 		cmn	r2, #65536
 922 0026 08D0     		beq	.L127
 923 0028 036B     		ldr	r3, [r0, #48]
 924 002a 112B     		cmp	r3, #17
 925 002c 0AD1     		bne	.L129
 926 002e 0268     		ldr	r2, [r0]
 927 0030 1368     		ldr	r3, [r2]
 928 0032 43F48073 		orr	r3, r3, #256
 929 0036 1360     		str	r3, [r2]
 930 0038 04E0     		b	.L129
 931              	.L127:
 932 003a 2268     		ldr	r2, [r4]
 933 003c 1368     		ldr	r3, [r2]
 934 003e 43F48073 		orr	r3, r3, #256
 935 0042 1360     		str	r3, [r2]
 936              	.L129:
 937 0044 0097     		str	r7, [sp]
ARM GAS  C:\Temp\ccVzAG2n.s 			page 17


 938 0046 3346     		mov	r3, r6
 939 0048 0022     		movs	r2, #0
 940 004a 4FF00111 		mov	r1, #65537
 941 004e 2046     		mov	r0, r4
 942 0050 FFF7FEFF 		bl	I2C_WaitOnFlagUntilTimeout
 943 0054 98B9     		cbnz	r0, .L141
 944 0056 2369     		ldr	r3, [r4, #16]
 945 0058 B3F5804F 		cmp	r3, #16384
 946 005c 19D1     		bne	.L133
 947 005e 2368     		ldr	r3, [r4]
 948 0060 45F00105 		orr	r5, r5, #1
 949 0064 EDB2     		uxtb	r5, r5
 950 0066 1D61     		str	r5, [r3, #16]
 951              	.L134:
 952 0068 3B46     		mov	r3, r7
 953 006a 3246     		mov	r2, r6
 954 006c 2A49     		ldr	r1, .L146
 955 006e 2046     		mov	r0, r4
 956 0070 FFF7FEFF 		bl	I2C_WaitOnMasterAddressFlagUntilTimeout
 957 0074 0028     		cmp	r0, #0
 958 0076 4CD1     		bne	.L142
 959              	.L132:
 960 0078 04B0     		add	sp, sp, #16
 961              		@ sp needed
 962 007a BDE8F081 		pop	{r4, r5, r6, r7, r8, pc}
 963              	.L141:
 964 007e 2368     		ldr	r3, [r4]
 965 0080 1B68     		ldr	r3, [r3]
 966 0082 13F4807F 		tst	r3, #256
 967 0086 02D0     		beq	.L131
 968 0088 4FF40073 		mov	r3, #512
 969 008c 2364     		str	r3, [r4, #64]
 970              	.L131:
 971 008e 0320     		movs	r0, #3
 972 0090 F2E7     		b	.L132
 973              	.L133:
 974 0092 4FEAE518 		asr	r8, r5, #7
 975 0096 08F00608 		and	r8, r8, #6
 976 009a 2368     		ldr	r3, [r4]
 977 009c 48F0F002 		orr	r2, r8, #240
 978 00a0 1A61     		str	r2, [r3, #16]
 979 00a2 3B46     		mov	r3, r7
 980 00a4 3246     		mov	r2, r6
 981 00a6 1D49     		ldr	r1, .L146+4
 982 00a8 2046     		mov	r0, r4
 983 00aa FFF7FEFF 		bl	I2C_WaitOnMasterAddressFlagUntilTimeout
 984 00ae 08B1     		cbz	r0, .L143
 985 00b0 0120     		movs	r0, #1
 986 00b2 E1E7     		b	.L132
 987              	.L143:
 988 00b4 2368     		ldr	r3, [r4]
 989 00b6 EDB2     		uxtb	r5, r5
 990 00b8 1D61     		str	r5, [r3, #16]
 991 00ba 3B46     		mov	r3, r7
 992 00bc 3246     		mov	r2, r6
 993 00be 1649     		ldr	r1, .L146
 994 00c0 2046     		mov	r0, r4
ARM GAS  C:\Temp\ccVzAG2n.s 			page 18


 995 00c2 FFF7FEFF 		bl	I2C_WaitOnMasterAddressFlagUntilTimeout
 996 00c6 08B1     		cbz	r0, .L144
 997 00c8 0120     		movs	r0, #1
 998 00ca D5E7     		b	.L132
 999              	.L144:
 1000 00cc 0022     		movs	r2, #0
 1001 00ce 0392     		str	r2, [sp, #12]
 1002 00d0 2368     		ldr	r3, [r4]
 1003 00d2 5969     		ldr	r1, [r3, #20]
 1004 00d4 0391     		str	r1, [sp, #12]
 1005 00d6 9969     		ldr	r1, [r3, #24]
 1006 00d8 0391     		str	r1, [sp, #12]
 1007 00da 0399     		ldr	r1, [sp, #12]
 1008 00dc 1968     		ldr	r1, [r3]
 1009 00de 41F48071 		orr	r1, r1, #256
 1010 00e2 1960     		str	r1, [r3]
 1011 00e4 0097     		str	r7, [sp]
 1012 00e6 3346     		mov	r3, r6
 1013 00e8 4FF00111 		mov	r1, #65537
 1014 00ec 2046     		mov	r0, r4
 1015 00ee FFF7FEFF 		bl	I2C_WaitOnFlagUntilTimeout
 1016 00f2 20B9     		cbnz	r0, .L145
 1017 00f4 2268     		ldr	r2, [r4]
 1018 00f6 48F0F103 		orr	r3, r8, #241
 1019 00fa 1361     		str	r3, [r2, #16]
 1020 00fc B4E7     		b	.L134
 1021              	.L145:
 1022 00fe 2368     		ldr	r3, [r4]
 1023 0100 1B68     		ldr	r3, [r3]
 1024 0102 13F4807F 		tst	r3, #256
 1025 0106 02D0     		beq	.L136
 1026 0108 4FF40073 		mov	r3, #512
 1027 010c 2364     		str	r3, [r4, #64]
 1028              	.L136:
 1029 010e 0320     		movs	r0, #3
 1030 0110 B2E7     		b	.L132
 1031              	.L142:
 1032 0112 0120     		movs	r0, #1
 1033 0114 B0E7     		b	.L132
 1034              	.L147:
 1035 0116 00BF     		.align	2
 1036              	.L146:
 1037 0118 02000100 		.word	65538
 1038 011c 08000100 		.word	65544
 1040              		.section	.text.I2C_WaitOnTXEFlagUntilTimeout,"ax",%progbits
 1041              		.align	1
 1042              		.syntax unified
 1043              		.thumb
 1044              		.thumb_func
 1046              	I2C_WaitOnTXEFlagUntilTimeout:
 1047              		@ args = 0, pretend = 0, frame = 0
 1048              		@ frame_needed = 0, uses_anonymous_args = 0
 1049 0000 70B5     		push	{r4, r5, r6, lr}
 1050 0002 0446     		mov	r4, r0
 1051 0004 0D46     		mov	r5, r1
 1052 0006 1646     		mov	r6, r2
 1053              	.L151:
ARM GAS  C:\Temp\ccVzAG2n.s 			page 19


 1054 0008 2368     		ldr	r3, [r4]
 1055 000a 5B69     		ldr	r3, [r3, #20]
 1056 000c 13F0800F 		tst	r3, #128
 1057 0010 21D1     		bne	.L156
 1058 0012 2046     		mov	r0, r4
 1059 0014 FFF7FEFF 		bl	I2C_IsAcknowledgeFailed
 1060 0018 F8B9     		cbnz	r0, .L154
 1061 001a B5F1FF3F 		cmp	r5, #-1
 1062 001e F3D0     		beq	.L151
 1063 0020 FFF7FEFF 		bl	HAL_GetTick
 1064 0024 801B     		subs	r0, r0, r6
 1065 0026 A842     		cmp	r0, r5
 1066 0028 01D8     		bhi	.L152
 1067 002a 002D     		cmp	r5, #0
 1068 002c ECD1     		bne	.L151
 1069              	.L152:
 1070 002e 2368     		ldr	r3, [r4]
 1071 0030 5B69     		ldr	r3, [r3, #20]
 1072 0032 13F0800F 		tst	r3, #128
 1073 0036 E7D1     		bne	.L151
 1074 0038 0023     		movs	r3, #0
 1075 003a 2363     		str	r3, [r4, #48]
 1076 003c 2022     		movs	r2, #32
 1077 003e 84F83D20 		strb	r2, [r4, #61]
 1078 0042 84F83E30 		strb	r3, [r4, #62]
 1079 0046 226C     		ldr	r2, [r4, #64]
 1080 0048 42F02002 		orr	r2, r2, #32
 1081 004c 2264     		str	r2, [r4, #64]
 1082 004e 84F83C30 		strb	r3, [r4, #60]
 1083 0052 0120     		movs	r0, #1
 1084 0054 00E0     		b	.L150
 1085              	.L156:
 1086 0056 0020     		movs	r0, #0
 1087              	.L150:
 1088 0058 70BD     		pop	{r4, r5, r6, pc}
 1089              	.L154:
 1090 005a 0120     		movs	r0, #1
 1091 005c FCE7     		b	.L150
 1093              		.section	.text.I2C_RequestMemoryWrite,"ax",%progbits
 1094              		.align	1
 1095              		.syntax unified
 1096              		.thumb
 1097              		.thumb_func
 1099              	I2C_RequestMemoryWrite:
 1100              		@ args = 8, pretend = 0, frame = 8
 1101              		@ frame_needed = 0, uses_anonymous_args = 0
 1102 0000 2DE9F043 		push	{r4, r5, r6, r7, r8, r9, lr}
 1103 0004 85B0     		sub	sp, sp, #20
 1104 0006 0446     		mov	r4, r0
 1105 0008 0D46     		mov	r5, r1
 1106 000a 9146     		mov	r9, r2
 1107 000c 1F46     		mov	r7, r3
 1108 000e DDF83080 		ldr	r8, [sp, #48]
 1109 0012 0D9E     		ldr	r6, [sp, #52]
 1110 0014 0368     		ldr	r3, [r0]
 1111 0016 1968     		ldr	r1, [r3]
 1112 0018 41F48071 		orr	r1, r1, #256
ARM GAS  C:\Temp\ccVzAG2n.s 			page 20


 1113 001c 1960     		str	r1, [r3]
 1114 001e 0096     		str	r6, [sp]
 1115 0020 4346     		mov	r3, r8
 1116 0022 0022     		movs	r2, #0
 1117 0024 4FF00111 		mov	r1, #65537
 1118 0028 FFF7FEFF 		bl	I2C_WaitOnFlagUntilTimeout
 1119 002c 60B9     		cbnz	r0, .L168
 1120 002e 2368     		ldr	r3, [r4]
 1121 0030 05F0FE05 		and	r5, r5, #254
 1122 0034 1D61     		str	r5, [r3, #16]
 1123 0036 3346     		mov	r3, r6
 1124 0038 4246     		mov	r2, r8
 1125 003a 2649     		ldr	r1, .L174
 1126 003c 2046     		mov	r0, r4
 1127 003e FFF7FEFF 		bl	I2C_WaitOnMasterAddressFlagUntilTimeout
 1128 0042 68B1     		cbz	r0, .L169
 1129 0044 0120     		movs	r0, #1
 1130 0046 08E0     		b	.L160
 1131              	.L168:
 1132 0048 2368     		ldr	r3, [r4]
 1133 004a 1B68     		ldr	r3, [r3]
 1134 004c 13F4807F 		tst	r3, #256
 1135 0050 02D0     		beq	.L159
 1136 0052 4FF40073 		mov	r3, #512
 1137 0056 2364     		str	r3, [r4, #64]
 1138              	.L159:
 1139 0058 0320     		movs	r0, #3
 1140              	.L160:
 1141 005a 05B0     		add	sp, sp, #20
 1142              		@ sp needed
 1143 005c BDE8F083 		pop	{r4, r5, r6, r7, r8, r9, pc}
 1144              	.L169:
 1145 0060 0023     		movs	r3, #0
 1146 0062 0393     		str	r3, [sp, #12]
 1147 0064 2368     		ldr	r3, [r4]
 1148 0066 5A69     		ldr	r2, [r3, #20]
 1149 0068 0392     		str	r2, [sp, #12]
 1150 006a 9B69     		ldr	r3, [r3, #24]
 1151 006c 0393     		str	r3, [sp, #12]
 1152 006e 039B     		ldr	r3, [sp, #12]
 1153 0070 3246     		mov	r2, r6
 1154 0072 4146     		mov	r1, r8
 1155 0074 2046     		mov	r0, r4
 1156 0076 FFF7FEFF 		bl	I2C_WaitOnTXEFlagUntilTimeout
 1157 007a 30B9     		cbnz	r0, .L170
 1158 007c 012F     		cmp	r7, #1
 1159 007e 0FD1     		bne	.L163
 1160 0080 2368     		ldr	r3, [r4]
 1161 0082 5FFA89F6 		uxtb	r6, r9
 1162 0086 1E61     		str	r6, [r3, #16]
 1163 0088 E7E7     		b	.L160
 1164              	.L170:
 1165 008a 236C     		ldr	r3, [r4, #64]
 1166 008c 042B     		cmp	r3, #4
 1167 008e 01D0     		beq	.L171
 1168              	.L162:
 1169 0090 0120     		movs	r0, #1
ARM GAS  C:\Temp\ccVzAG2n.s 			page 21


 1170 0092 E2E7     		b	.L160
 1171              	.L171:
 1172 0094 2268     		ldr	r2, [r4]
 1173 0096 1368     		ldr	r3, [r2]
 1174 0098 43F40073 		orr	r3, r3, #512
 1175 009c 1360     		str	r3, [r2]
 1176 009e F7E7     		b	.L162
 1177              	.L163:
 1178 00a0 2368     		ldr	r3, [r4]
 1179 00a2 4FEA1922 		lsr	r2, r9, #8
 1180 00a6 1A61     		str	r2, [r3, #16]
 1181 00a8 3246     		mov	r2, r6
 1182 00aa 4146     		mov	r1, r8
 1183 00ac 2046     		mov	r0, r4
 1184 00ae FFF7FEFF 		bl	I2C_WaitOnTXEFlagUntilTimeout
 1185 00b2 20B9     		cbnz	r0, .L172
 1186 00b4 2368     		ldr	r3, [r4]
 1187 00b6 5FFA89F6 		uxtb	r6, r9
 1188 00ba 1E61     		str	r6, [r3, #16]
 1189 00bc CDE7     		b	.L160
 1190              	.L172:
 1191 00be 236C     		ldr	r3, [r4, #64]
 1192 00c0 042B     		cmp	r3, #4
 1193 00c2 01D0     		beq	.L173
 1194              	.L165:
 1195 00c4 0120     		movs	r0, #1
 1196 00c6 C8E7     		b	.L160
 1197              	.L173:
 1198 00c8 2268     		ldr	r2, [r4]
 1199 00ca 1368     		ldr	r3, [r2]
 1200 00cc 43F40073 		orr	r3, r3, #512
 1201 00d0 1360     		str	r3, [r2]
 1202 00d2 F7E7     		b	.L165
 1203              	.L175:
 1204              		.align	2
 1205              	.L174:
 1206 00d4 02000100 		.word	65538
 1208              		.section	.text.I2C_RequestMemoryRead,"ax",%progbits
 1209              		.align	1
 1210              		.syntax unified
 1211              		.thumb
 1212              		.thumb_func
 1214              	I2C_RequestMemoryRead:
 1215              		@ args = 8, pretend = 0, frame = 8
 1216              		@ frame_needed = 0, uses_anonymous_args = 0
 1217 0000 2DE9F047 		push	{r4, r5, r6, r7, r8, r9, r10, lr}
 1218 0004 84B0     		sub	sp, sp, #16
 1219 0006 0446     		mov	r4, r0
 1220 0008 0D46     		mov	r5, r1
 1221 000a 1646     		mov	r6, r2
 1222 000c 9946     		mov	r9, r3
 1223 000e 0C9F     		ldr	r7, [sp, #48]
 1224 0010 DDF83480 		ldr	r8, [sp, #52]
 1225 0014 0268     		ldr	r2, [r0]
 1226 0016 1368     		ldr	r3, [r2]
 1227 0018 43F48063 		orr	r3, r3, #1024
 1228 001c 1360     		str	r3, [r2]
ARM GAS  C:\Temp\ccVzAG2n.s 			page 22


 1229 001e 0368     		ldr	r3, [r0]
 1230 0020 1968     		ldr	r1, [r3]
 1231 0022 41F48071 		orr	r1, r1, #256
 1232 0026 1960     		str	r1, [r3]
 1233 0028 CDF80080 		str	r8, [sp]
 1234 002c 3B46     		mov	r3, r7
 1235 002e 0022     		movs	r2, #0
 1236 0030 4FF00111 		mov	r1, #65537
 1237 0034 FFF7FEFF 		bl	I2C_WaitOnFlagUntilTimeout
 1238 0038 70B9     		cbnz	r0, .L193
 1239 003a 5FFA85FA 		uxtb	r10, r5
 1240 003e 2368     		ldr	r3, [r4]
 1241 0040 05F0FE05 		and	r5, r5, #254
 1242 0044 1D61     		str	r5, [r3, #16]
 1243 0046 4346     		mov	r3, r8
 1244 0048 3A46     		mov	r2, r7
 1245 004a 4149     		ldr	r1, .L201
 1246 004c 2046     		mov	r0, r4
 1247 004e FFF7FEFF 		bl	I2C_WaitOnMasterAddressFlagUntilTimeout
 1248 0052 68B1     		cbz	r0, .L194
 1249 0054 0120     		movs	r0, #1
 1250 0056 08E0     		b	.L179
 1251              	.L193:
 1252 0058 2368     		ldr	r3, [r4]
 1253 005a 1B68     		ldr	r3, [r3]
 1254 005c 13F4807F 		tst	r3, #256
 1255 0060 02D0     		beq	.L178
 1256 0062 4FF40073 		mov	r3, #512
 1257 0066 2364     		str	r3, [r4, #64]
 1258              	.L178:
 1259 0068 0320     		movs	r0, #3
 1260              	.L179:
 1261 006a 04B0     		add	sp, sp, #16
 1262              		@ sp needed
 1263 006c BDE8F087 		pop	{r4, r5, r6, r7, r8, r9, r10, pc}
 1264              	.L194:
 1265 0070 0023     		movs	r3, #0
 1266 0072 0393     		str	r3, [sp, #12]
 1267 0074 2368     		ldr	r3, [r4]
 1268 0076 5A69     		ldr	r2, [r3, #20]
 1269 0078 0392     		str	r2, [sp, #12]
 1270 007a 9B69     		ldr	r3, [r3, #24]
 1271 007c 0393     		str	r3, [sp, #12]
 1272 007e 039B     		ldr	r3, [sp, #12]
 1273 0080 4246     		mov	r2, r8
 1274 0082 3946     		mov	r1, r7
 1275 0084 2046     		mov	r0, r4
 1276 0086 FFF7FEFF 		bl	I2C_WaitOnTXEFlagUntilTimeout
 1277 008a 80B9     		cbnz	r0, .L195
 1278 008c B9F1010F 		cmp	r9, #1
 1279 0090 18D1     		bne	.L182
 1280 0092 2368     		ldr	r3, [r4]
 1281 0094 F6B2     		uxtb	r6, r6
 1282 0096 1E61     		str	r6, [r3, #16]
 1283              	.L183:
 1284 0098 4246     		mov	r2, r8
 1285 009a 3946     		mov	r1, r7
ARM GAS  C:\Temp\ccVzAG2n.s 			page 23


 1286 009c 2046     		mov	r0, r4
 1287 009e FFF7FEFF 		bl	I2C_WaitOnTXEFlagUntilTimeout
 1288 00a2 68B3     		cbz	r0, .L186
 1289 00a4 236C     		ldr	r3, [r4, #64]
 1290 00a6 042B     		cmp	r3, #4
 1291 00a8 24D0     		beq	.L196
 1292              	.L187:
 1293 00aa 0120     		movs	r0, #1
 1294 00ac DDE7     		b	.L179
 1295              	.L195:
 1296 00ae 236C     		ldr	r3, [r4, #64]
 1297 00b0 042B     		cmp	r3, #4
 1298 00b2 01D0     		beq	.L197
 1299              	.L181:
 1300 00b4 0120     		movs	r0, #1
 1301 00b6 D8E7     		b	.L179
 1302              	.L197:
 1303 00b8 2268     		ldr	r2, [r4]
 1304 00ba 1368     		ldr	r3, [r2]
 1305 00bc 43F40073 		orr	r3, r3, #512
 1306 00c0 1360     		str	r3, [r2]
 1307 00c2 F7E7     		b	.L181
 1308              	.L182:
 1309 00c4 2368     		ldr	r3, [r4]
 1310 00c6 320A     		lsrs	r2, r6, #8
 1311 00c8 1A61     		str	r2, [r3, #16]
 1312 00ca 4246     		mov	r2, r8
 1313 00cc 3946     		mov	r1, r7
 1314 00ce 2046     		mov	r0, r4
 1315 00d0 FFF7FEFF 		bl	I2C_WaitOnTXEFlagUntilTimeout
 1316 00d4 18B9     		cbnz	r0, .L198
 1317 00d6 2368     		ldr	r3, [r4]
 1318 00d8 F6B2     		uxtb	r6, r6
 1319 00da 1E61     		str	r6, [r3, #16]
 1320 00dc DCE7     		b	.L183
 1321              	.L198:
 1322 00de 236C     		ldr	r3, [r4, #64]
 1323 00e0 042B     		cmp	r3, #4
 1324 00e2 01D0     		beq	.L199
 1325              	.L185:
 1326 00e4 0120     		movs	r0, #1
 1327 00e6 C0E7     		b	.L179
 1328              	.L199:
 1329 00e8 2268     		ldr	r2, [r4]
 1330 00ea 1368     		ldr	r3, [r2]
 1331 00ec 43F40073 		orr	r3, r3, #512
 1332 00f0 1360     		str	r3, [r2]
 1333 00f2 F7E7     		b	.L185
 1334              	.L196:
 1335 00f4 2268     		ldr	r2, [r4]
 1336 00f6 1368     		ldr	r3, [r2]
 1337 00f8 43F40073 		orr	r3, r3, #512
 1338 00fc 1360     		str	r3, [r2]
 1339 00fe D4E7     		b	.L187
 1340              	.L186:
 1341 0100 2268     		ldr	r2, [r4]
 1342 0102 1368     		ldr	r3, [r2]
ARM GAS  C:\Temp\ccVzAG2n.s 			page 24


 1343 0104 43F48073 		orr	r3, r3, #256
 1344 0108 1360     		str	r3, [r2]
 1345 010a CDF80080 		str	r8, [sp]
 1346 010e 3B46     		mov	r3, r7
 1347 0110 0022     		movs	r2, #0
 1348 0112 4FF00111 		mov	r1, #65537
 1349 0116 2046     		mov	r0, r4
 1350 0118 FFF7FEFF 		bl	I2C_WaitOnFlagUntilTimeout
 1351 011c 68B9     		cbnz	r0, .L200
 1352 011e 2268     		ldr	r2, [r4]
 1353 0120 4AF00103 		orr	r3, r10, #1
 1354 0124 1361     		str	r3, [r2, #16]
 1355 0126 4346     		mov	r3, r8
 1356 0128 3A46     		mov	r2, r7
 1357 012a 0949     		ldr	r1, .L201
 1358 012c 2046     		mov	r0, r4
 1359 012e FFF7FEFF 		bl	I2C_WaitOnMasterAddressFlagUntilTimeout
 1360 0132 0028     		cmp	r0, #0
 1361 0134 99D0     		beq	.L179
 1362 0136 0120     		movs	r0, #1
 1363 0138 97E7     		b	.L179
 1364              	.L200:
 1365 013a 2368     		ldr	r3, [r4]
 1366 013c 1B68     		ldr	r3, [r3]
 1367 013e 13F4807F 		tst	r3, #256
 1368 0142 02D0     		beq	.L189
 1369 0144 4FF40073 		mov	r3, #512
 1370 0148 2364     		str	r3, [r4, #64]
 1371              	.L189:
 1372 014a 0320     		movs	r0, #3
 1373 014c 8DE7     		b	.L179
 1374              	.L202:
 1375 014e 00BF     		.align	2
 1376              	.L201:
 1377 0150 02000100 		.word	65538
 1379              		.section	.text.I2C_WaitOnBTFFlagUntilTimeout,"ax",%progbits
 1380              		.align	1
 1381              		.syntax unified
 1382              		.thumb
 1383              		.thumb_func
 1385              	I2C_WaitOnBTFFlagUntilTimeout:
 1386              		@ args = 0, pretend = 0, frame = 0
 1387              		@ frame_needed = 0, uses_anonymous_args = 0
 1388 0000 70B5     		push	{r4, r5, r6, lr}
 1389 0002 0446     		mov	r4, r0
 1390 0004 0D46     		mov	r5, r1
 1391 0006 1646     		mov	r6, r2
 1392              	.L206:
 1393 0008 2368     		ldr	r3, [r4]
 1394 000a 5B69     		ldr	r3, [r3, #20]
 1395 000c 13F0040F 		tst	r3, #4
 1396 0010 21D1     		bne	.L211
 1397 0012 2046     		mov	r0, r4
 1398 0014 FFF7FEFF 		bl	I2C_IsAcknowledgeFailed
 1399 0018 F8B9     		cbnz	r0, .L209
 1400 001a B5F1FF3F 		cmp	r5, #-1
 1401 001e F3D0     		beq	.L206
ARM GAS  C:\Temp\ccVzAG2n.s 			page 25


 1402 0020 FFF7FEFF 		bl	HAL_GetTick
 1403 0024 801B     		subs	r0, r0, r6
 1404 0026 A842     		cmp	r0, r5
 1405 0028 01D8     		bhi	.L207
 1406 002a 002D     		cmp	r5, #0
 1407 002c ECD1     		bne	.L206
 1408              	.L207:
 1409 002e 2368     		ldr	r3, [r4]
 1410 0030 5B69     		ldr	r3, [r3, #20]
 1411 0032 13F0040F 		tst	r3, #4
 1412 0036 E7D1     		bne	.L206
 1413 0038 0023     		movs	r3, #0
 1414 003a 2363     		str	r3, [r4, #48]
 1415 003c 2022     		movs	r2, #32
 1416 003e 84F83D20 		strb	r2, [r4, #61]
 1417 0042 84F83E30 		strb	r3, [r4, #62]
 1418 0046 226C     		ldr	r2, [r4, #64]
 1419 0048 42F02002 		orr	r2, r2, #32
 1420 004c 2264     		str	r2, [r4, #64]
 1421 004e 84F83C30 		strb	r3, [r4, #60]
 1422 0052 0120     		movs	r0, #1
 1423 0054 00E0     		b	.L205
 1424              	.L211:
 1425 0056 0020     		movs	r0, #0
 1426              	.L205:
 1427 0058 70BD     		pop	{r4, r5, r6, pc}
 1428              	.L209:
 1429 005a 0120     		movs	r0, #1
 1430 005c FCE7     		b	.L205
 1432              		.section	.text.I2C_WaitOnRXNEFlagUntilTimeout,"ax",%progbits
 1433              		.align	1
 1434              		.syntax unified
 1435              		.thumb
 1436              		.thumb_func
 1438              	I2C_WaitOnRXNEFlagUntilTimeout:
 1439              		@ args = 0, pretend = 0, frame = 0
 1440              		@ frame_needed = 0, uses_anonymous_args = 0
 1441 0000 70B5     		push	{r4, r5, r6, lr}
 1442 0002 0446     		mov	r4, r0
 1443 0004 0D46     		mov	r5, r1
 1444 0006 1646     		mov	r6, r2
 1445 0008 14E0     		b	.L213
 1446              	.L221:
 1447 000a 6FF01002 		mvn	r2, #16
 1448 000e 5A61     		str	r2, [r3, #20]
 1449 0010 0023     		movs	r3, #0
 1450 0012 2363     		str	r3, [r4, #48]
 1451 0014 2022     		movs	r2, #32
 1452 0016 84F83D20 		strb	r2, [r4, #61]
 1453 001a 84F83E30 		strb	r3, [r4, #62]
 1454 001e 226C     		ldr	r2, [r4, #64]
 1455 0020 2264     		str	r2, [r4, #64]
 1456 0022 84F83C30 		strb	r3, [r4, #60]
 1457 0026 0120     		movs	r0, #1
 1458 0028 25E0     		b	.L215
 1459              	.L216:
 1460 002a 2368     		ldr	r3, [r4]
ARM GAS  C:\Temp\ccVzAG2n.s 			page 26


 1461 002c 5B69     		ldr	r3, [r3, #20]
 1462 002e 13F0400F 		tst	r3, #64
 1463 0032 10D0     		beq	.L219
 1464              	.L213:
 1465 0034 2368     		ldr	r3, [r4]
 1466 0036 5869     		ldr	r0, [r3, #20]
 1467 0038 10F0400F 		tst	r0, #64
 1468 003c 1AD1     		bne	.L220
 1469 003e 5869     		ldr	r0, [r3, #20]
 1470 0040 10F0100F 		tst	r0, #16
 1471 0044 E1D1     		bne	.L221
 1472 0046 FFF7FEFF 		bl	HAL_GetTick
 1473 004a 801B     		subs	r0, r0, r6
 1474 004c A842     		cmp	r0, r5
 1475 004e ECD8     		bhi	.L216
 1476 0050 002D     		cmp	r5, #0
 1477 0052 EFD1     		bne	.L213
 1478 0054 E9E7     		b	.L216
 1479              	.L219:
 1480 0056 0023     		movs	r3, #0
 1481 0058 2363     		str	r3, [r4, #48]
 1482 005a 2022     		movs	r2, #32
 1483 005c 84F83D20 		strb	r2, [r4, #61]
 1484 0060 84F83E30 		strb	r3, [r4, #62]
 1485 0064 226C     		ldr	r2, [r4, #64]
 1486 0066 42F02002 		orr	r2, r2, #32
 1487 006a 2264     		str	r2, [r4, #64]
 1488 006c 84F83C30 		strb	r3, [r4, #60]
 1489 0070 0120     		movs	r0, #1
 1490 0072 00E0     		b	.L215
 1491              	.L220:
 1492 0074 0020     		movs	r0, #0
 1493              	.L215:
 1494 0076 70BD     		pop	{r4, r5, r6, pc}
 1496              		.section	.text.I2C_WaitOnSTOPFlagUntilTimeout,"ax",%progbits
 1497              		.align	1
 1498              		.syntax unified
 1499              		.thumb
 1500              		.thumb_func
 1502              	I2C_WaitOnSTOPFlagUntilTimeout:
 1503              		@ args = 0, pretend = 0, frame = 0
 1504              		@ frame_needed = 0, uses_anonymous_args = 0
 1505 0000 70B5     		push	{r4, r5, r6, lr}
 1506 0002 0446     		mov	r4, r0
 1507 0004 0D46     		mov	r5, r1
 1508 0006 1646     		mov	r6, r2
 1509 0008 04E0     		b	.L223
 1510              	.L225:
 1511 000a 2368     		ldr	r3, [r4]
 1512 000c 5B69     		ldr	r3, [r3, #20]
 1513 000e 13F0100F 		tst	r3, #16
 1514 0012 10D0     		beq	.L229
 1515              	.L223:
 1516 0014 2368     		ldr	r3, [r4]
 1517 0016 5B69     		ldr	r3, [r3, #20]
 1518 0018 13F0100F 		tst	r3, #16
 1519 001c 1AD1     		bne	.L230
ARM GAS  C:\Temp\ccVzAG2n.s 			page 27


 1520 001e 2046     		mov	r0, r4
 1521 0020 FFF7FEFF 		bl	I2C_IsAcknowledgeFailed
 1522 0024 C0B9     		cbnz	r0, .L227
 1523 0026 FFF7FEFF 		bl	HAL_GetTick
 1524 002a 801B     		subs	r0, r0, r6
 1525 002c A842     		cmp	r0, r5
 1526 002e ECD8     		bhi	.L225
 1527 0030 002D     		cmp	r5, #0
 1528 0032 EFD1     		bne	.L223
 1529 0034 E9E7     		b	.L225
 1530              	.L229:
 1531 0036 0023     		movs	r3, #0
 1532 0038 2363     		str	r3, [r4, #48]
 1533 003a 2022     		movs	r2, #32
 1534 003c 84F83D20 		strb	r2, [r4, #61]
 1535 0040 84F83E30 		strb	r3, [r4, #62]
 1536 0044 226C     		ldr	r2, [r4, #64]
 1537 0046 42F02002 		orr	r2, r2, #32
 1538 004a 2264     		str	r2, [r4, #64]
 1539 004c 84F83C30 		strb	r3, [r4, #60]
 1540 0050 0120     		movs	r0, #1
 1541 0052 00E0     		b	.L224
 1542              	.L230:
 1543 0054 0020     		movs	r0, #0
 1544              	.L224:
 1545 0056 70BD     		pop	{r4, r5, r6, pc}
 1546              	.L227:
 1547 0058 0120     		movs	r0, #1
 1548 005a FCE7     		b	.L224
 1550              		.section	.text.HAL_I2C_MspInit,"ax",%progbits
 1551              		.align	1
 1552              		.weak	HAL_I2C_MspInit
 1553              		.syntax unified
 1554              		.thumb
 1555              		.thumb_func
 1557              	HAL_I2C_MspInit:
 1558              		@ args = 0, pretend = 0, frame = 0
 1559              		@ frame_needed = 0, uses_anonymous_args = 0
 1560              		@ link register save eliminated.
 1561 0000 7047     		bx	lr
 1563              		.section	.rodata.HAL_I2C_Init.str1.4,"aMS",%progbits,1
 1564              		.align	2
 1565              	.LC0:
 1566 0000 44726976 		.ascii	"Drivers/STM32F4xx_HAL_Driver/Src/stm32f4xx_hal_i2c."
 1566      6572732F 
 1566      53544D33 
 1566      32463478 
 1566      785F4841 
 1567 0033 6300     		.ascii	"c\000"
 1568              		.section	.text.HAL_I2C_Init,"ax",%progbits
 1569              		.align	1
 1570              		.global	HAL_I2C_Init
 1571              		.syntax unified
 1572              		.thumb
 1573              		.thumb_func
 1575              	HAL_I2C_Init:
 1576              		@ args = 0, pretend = 0, frame = 0
ARM GAS  C:\Temp\ccVzAG2n.s 			page 28


 1577              		@ frame_needed = 0, uses_anonymous_args = 0
 1578 0000 0028     		cmp	r0, #0
 1579 0002 00F03381 		beq	.L253
 1580 0006 70B5     		push	{r4, r5, r6, lr}
 1581 0008 0446     		mov	r4, r0
 1582 000a 0368     		ldr	r3, [r0]
 1583 000c 994A     		ldr	r2, .L270
 1584 000e 9342     		cmp	r3, r2
 1585 0010 0CD0     		beq	.L234
 1586 0012 02F58062 		add	r2, r2, #1024
 1587 0016 9342     		cmp	r3, r2
 1588 0018 08D0     		beq	.L234
 1589 001a 02F58062 		add	r2, r2, #1024
 1590 001e 9342     		cmp	r3, r2
 1591 0020 04D0     		beq	.L234
 1592 0022 40F2C911 		movw	r1, #457
 1593 0026 9448     		ldr	r0, .L270+4
 1594 0028 FFF7FEFF 		bl	assert_failed
 1595              	.L234:
 1596 002c 6368     		ldr	r3, [r4, #4]
 1597 002e 013B     		subs	r3, r3, #1
 1598 0030 924A     		ldr	r2, .L270+8
 1599 0032 9342     		cmp	r3, r2
 1600 0034 6ED8     		bhi	.L261
 1601              	.L235:
 1602 0036 A368     		ldr	r3, [r4, #8]
 1603 0038 13B1     		cbz	r3, .L236
 1604 003a B3F5804F 		cmp	r3, #16384
 1605 003e 6FD1     		bne	.L262
 1606              	.L236:
 1607 0040 E368     		ldr	r3, [r4, #12]
 1608 0042 B3F5806F 		cmp	r3, #1024
 1609 0046 71D2     		bcs	.L263
 1610              	.L237:
 1611 0048 2369     		ldr	r3, [r4, #16]
 1612 004a B3F5804F 		cmp	r3, #16384
 1613 004e 02D0     		beq	.L238
 1614 0050 B3F5404F 		cmp	r3, #49152
 1615 0054 70D1     		bne	.L264
 1616              	.L238:
 1617 0056 6369     		ldr	r3, [r4, #20]
 1618 0058 012B     		cmp	r3, #1
 1619 005a 73D8     		bhi	.L265
 1620              	.L239:
 1621 005c A369     		ldr	r3, [r4, #24]
 1622 005e 33F0FE03 		bics	r3, r3, #254
 1623 0062 75D1     		bne	.L266
 1624              	.L240:
 1625 0064 E369     		ldr	r3, [r4, #28]
 1626 0066 0BB1     		cbz	r3, .L241
 1627 0068 402B     		cmp	r3, #64
 1628 006a 77D1     		bne	.L267
 1629              	.L241:
 1630 006c 236A     		ldr	r3, [r4, #32]
 1631 006e 0BB1     		cbz	r3, .L242
 1632 0070 802B     		cmp	r3, #128
 1633 0072 79D1     		bne	.L268
ARM GAS  C:\Temp\ccVzAG2n.s 			page 29


 1634              	.L242:
 1635 0074 94F83D30 		ldrb	r3, [r4, #61]	@ zero_extendqisi2
 1636 0078 002B     		cmp	r3, #0
 1637 007a 7BD0     		beq	.L269
 1638              	.L243:
 1639 007c 2423     		movs	r3, #36
 1640 007e 84F83D30 		strb	r3, [r4, #61]
 1641 0082 2268     		ldr	r2, [r4]
 1642 0084 1368     		ldr	r3, [r2]
 1643 0086 23F00103 		bic	r3, r3, #1
 1644 008a 1360     		str	r3, [r2]
 1645 008c 2268     		ldr	r2, [r4]
 1646 008e 1368     		ldr	r3, [r2]
 1647 0090 43F40043 		orr	r3, r3, #32768
 1648 0094 1360     		str	r3, [r2]
 1649 0096 2268     		ldr	r2, [r4]
 1650 0098 1368     		ldr	r3, [r2]
 1651 009a 23F40043 		bic	r3, r3, #32768
 1652 009e 1360     		str	r3, [r2]
 1653 00a0 FFF7FEFF 		bl	HAL_RCC_GetPCLK1Freq
 1654 00a4 6268     		ldr	r2, [r4, #4]
 1655 00a6 764B     		ldr	r3, .L270+12
 1656 00a8 9A42     		cmp	r2, r3
 1657 00aa 69D8     		bhi	.L244
 1658 00ac 754B     		ldr	r3, .L270+16
 1659 00ae 9842     		cmp	r0, r3
 1660 00b0 8CBF     		ite	hi
 1661 00b2 0023     		movhi	r3, #0
 1662 00b4 0123     		movls	r3, #1
 1663              	.L245:
 1664 00b6 002B     		cmp	r3, #0
 1665 00b8 40F0DA80 		bne	.L254
 1666 00bc 7249     		ldr	r1, .L270+20
 1667 00be A1FB0031 		umull	r3, r1, r1, r0
 1668 00c2 8B0C     		lsrs	r3, r1, #18
 1669 00c4 2568     		ldr	r5, [r4]
 1670 00c6 6A68     		ldr	r2, [r5, #4]
 1671 00c8 22F03F02 		bic	r2, r2, #63
 1672 00cc 42EA9142 		orr	r2, r2, r1, lsr #18
 1673 00d0 6A60     		str	r2, [r5, #4]
 1674 00d2 2168     		ldr	r1, [r4]
 1675 00d4 0A6A     		ldr	r2, [r1, #32]
 1676 00d6 22F03F02 		bic	r2, r2, #63
 1677 00da 6668     		ldr	r6, [r4, #4]
 1678 00dc 684D     		ldr	r5, .L270+12
 1679 00de AE42     		cmp	r6, r5
 1680 00e0 54D8     		bhi	.L246
 1681 00e2 0133     		adds	r3, r3, #1
 1682              	.L247:
 1683 00e4 1343     		orrs	r3, r3, r2
 1684 00e6 0B62     		str	r3, [r1, #32]
 1685 00e8 2168     		ldr	r1, [r4]
 1686 00ea CA69     		ldr	r2, [r1, #28]
 1687 00ec 22F44F42 		bic	r2, r2, #52992
 1688 00f0 22F0FF02 		bic	r2, r2, #255
 1689 00f4 6568     		ldr	r5, [r4, #4]
 1690 00f6 624B     		ldr	r3, .L270+12
ARM GAS  C:\Temp\ccVzAG2n.s 			page 30


 1691 00f8 9D42     		cmp	r5, r3
 1692 00fa 51D8     		bhi	.L248
 1693 00fc 431E     		subs	r3, r0, #1
 1694 00fe 6D00     		lsls	r5, r5, #1
 1695 0100 B3FBF5F3 		udiv	r3, r3, r5
 1696 0104 0133     		adds	r3, r3, #1
 1697 0106 40F6FC70 		movw	r0, #4092
 1698 010a 0342     		tst	r3, r0
 1699 010c 7ED0     		beq	.L255
 1700 010e C3F30B03 		ubfx	r3, r3, #0, #12
 1701 0112 7CE0     		b	.L249
 1702              	.L261:
 1703 0114 4FF4E571 		mov	r1, #458
 1704 0118 5748     		ldr	r0, .L270+4
 1705 011a FFF7FEFF 		bl	assert_failed
 1706 011e 8AE7     		b	.L235
 1707              	.L262:
 1708 0120 40F2CB11 		movw	r1, #459
 1709 0124 5448     		ldr	r0, .L270+4
 1710 0126 FFF7FEFF 		bl	assert_failed
 1711 012a 89E7     		b	.L236
 1712              	.L263:
 1713 012c 4FF4E671 		mov	r1, #460
 1714 0130 5148     		ldr	r0, .L270+4
 1715 0132 FFF7FEFF 		bl	assert_failed
 1716 0136 87E7     		b	.L237
 1717              	.L264:
 1718 0138 40F2CD11 		movw	r1, #461
 1719 013c 4E48     		ldr	r0, .L270+4
 1720 013e FFF7FEFF 		bl	assert_failed
 1721 0142 88E7     		b	.L238
 1722              	.L265:
 1723 0144 4FF4E771 		mov	r1, #462
 1724 0148 4B48     		ldr	r0, .L270+4
 1725 014a FFF7FEFF 		bl	assert_failed
 1726 014e 85E7     		b	.L239
 1727              	.L266:
 1728 0150 40F2CF11 		movw	r1, #463
 1729 0154 4848     		ldr	r0, .L270+4
 1730 0156 FFF7FEFF 		bl	assert_failed
 1731 015a 83E7     		b	.L240
 1732              	.L267:
 1733 015c 4FF4E871 		mov	r1, #464
 1734 0160 4548     		ldr	r0, .L270+4
 1735 0162 FFF7FEFF 		bl	assert_failed
 1736 0166 81E7     		b	.L241
 1737              	.L268:
 1738 0168 40F2D111 		movw	r1, #465
 1739 016c 4248     		ldr	r0, .L270+4
 1740 016e FFF7FEFF 		bl	assert_failed
 1741 0172 7FE7     		b	.L242
 1742              	.L269:
 1743 0174 84F83C30 		strb	r3, [r4, #60]
 1744 0178 2046     		mov	r0, r4
 1745 017a FFF7FEFF 		bl	HAL_I2C_MspInit
 1746 017e 7DE7     		b	.L243
 1747              	.L244:
ARM GAS  C:\Temp\ccVzAG2n.s 			page 31


 1748 0180 424B     		ldr	r3, .L270+24
 1749 0182 9842     		cmp	r0, r3
 1750 0184 8CBF     		ite	hi
 1751 0186 0023     		movhi	r3, #0
 1752 0188 0123     		movls	r3, #1
 1753 018a 94E7     		b	.L245
 1754              	.L246:
 1755 018c 4FF49675 		mov	r5, #300
 1756 0190 05FB03F3 		mul	r3, r5, r3
 1757 0194 3E4D     		ldr	r5, .L270+28
 1758 0196 A5FB0353 		umull	r5, r3, r5, r3
 1759 019a 9B09     		lsrs	r3, r3, #6
 1760 019c 0133     		adds	r3, r3, #1
 1761 019e A1E7     		b	.L247
 1762              	.L248:
 1763 01a0 A668     		ldr	r6, [r4, #8]
 1764 01a2 C6B9     		cbnz	r6, .L250
 1765 01a4 431E     		subs	r3, r0, #1
 1766 01a6 05EB450C 		add	ip, r5, r5, lsl #1
 1767 01aa B3FBFCF3 		udiv	r3, r3, ip
 1768 01ae 0133     		adds	r3, r3, #1
 1769 01b0 C3F30B03 		ubfx	r3, r3, #0, #12
 1770 01b4 B3FA83F3 		clz	r3, r3
 1771 01b8 5B09     		lsrs	r3, r3, #5
 1772              	.L251:
 1773 01ba 002B     		cmp	r3, #0
 1774 01bc 54D1     		bne	.L256
 1775 01be C6B9     		cbnz	r6, .L252
 1776 01c0 431E     		subs	r3, r0, #1
 1777 01c2 05EB4505 		add	r5, r5, r5, lsl #1
 1778 01c6 B3FBF5F3 		udiv	r3, r3, r5
 1779 01ca 0133     		adds	r3, r3, #1
 1780 01cc C3F30B03 		ubfx	r3, r3, #0, #12
 1781 01d0 43F40043 		orr	r3, r3, #32768
 1782 01d4 1BE0     		b	.L249
 1783              	.L250:
 1784 01d6 431E     		subs	r3, r0, #1
 1785 01d8 05EB850C 		add	ip, r5, r5, lsl #2
 1786 01dc 0CEB8C0C 		add	ip, ip, ip, lsl #2
 1787 01e0 B3FBFCF3 		udiv	r3, r3, ip
 1788 01e4 0133     		adds	r3, r3, #1
 1789 01e6 C3F30B03 		ubfx	r3, r3, #0, #12
 1790 01ea B3FA83F3 		clz	r3, r3
 1791 01ee 5B09     		lsrs	r3, r3, #5
 1792 01f0 E3E7     		b	.L251
 1793              	.L252:
 1794 01f2 431E     		subs	r3, r0, #1
 1795 01f4 05EB8505 		add	r5, r5, r5, lsl #2
 1796 01f8 05EB8505 		add	r5, r5, r5, lsl #2
 1797 01fc B3FBF5F3 		udiv	r3, r3, r5
 1798 0200 0133     		adds	r3, r3, #1
 1799 0202 C3F30B03 		ubfx	r3, r3, #0, #12
 1800 0206 43F44043 		orr	r3, r3, #49152
 1801 020a 00E0     		b	.L249
 1802              	.L255:
 1803 020c 0423     		movs	r3, #4
 1804              	.L249:
ARM GAS  C:\Temp\ccVzAG2n.s 			page 32


 1805 020e 1A43     		orrs	r2, r2, r3
 1806 0210 CA61     		str	r2, [r1, #28]
 1807 0212 2168     		ldr	r1, [r4]
 1808 0214 0B68     		ldr	r3, [r1]
 1809 0216 23F0C003 		bic	r3, r3, #192
 1810 021a E269     		ldr	r2, [r4, #28]
 1811 021c 206A     		ldr	r0, [r4, #32]
 1812 021e 0243     		orrs	r2, r2, r0
 1813 0220 1343     		orrs	r3, r3, r2
 1814 0222 0B60     		str	r3, [r1]
 1815 0224 2168     		ldr	r1, [r4]
 1816 0226 8B68     		ldr	r3, [r1, #8]
 1817 0228 23F40343 		bic	r3, r3, #33536
 1818 022c 23F0FF03 		bic	r3, r3, #255
 1819 0230 2269     		ldr	r2, [r4, #16]
 1820 0232 E068     		ldr	r0, [r4, #12]
 1821 0234 0243     		orrs	r2, r2, r0
 1822 0236 1343     		orrs	r3, r3, r2
 1823 0238 8B60     		str	r3, [r1, #8]
 1824 023a 2168     		ldr	r1, [r4]
 1825 023c CB68     		ldr	r3, [r1, #12]
 1826 023e 23F0FF03 		bic	r3, r3, #255
 1827 0242 6269     		ldr	r2, [r4, #20]
 1828 0244 A069     		ldr	r0, [r4, #24]
 1829 0246 0243     		orrs	r2, r2, r0
 1830 0248 1343     		orrs	r3, r3, r2
 1831 024a CB60     		str	r3, [r1, #12]
 1832 024c 2268     		ldr	r2, [r4]
 1833 024e 1368     		ldr	r3, [r2]
 1834 0250 43F00103 		orr	r3, r3, #1
 1835 0254 1360     		str	r3, [r2]
 1836 0256 0020     		movs	r0, #0
 1837 0258 2064     		str	r0, [r4, #64]
 1838 025a 2023     		movs	r3, #32
 1839 025c 84F83D30 		strb	r3, [r4, #61]
 1840 0260 2063     		str	r0, [r4, #48]
 1841 0262 84F83E00 		strb	r0, [r4, #62]
 1842              	.L233:
 1843 0266 70BD     		pop	{r4, r5, r6, pc}
 1844              	.L256:
 1845 0268 0123     		movs	r3, #1
 1846 026a D0E7     		b	.L249
 1847              	.L253:
 1848 026c 0120     		movs	r0, #1
 1849 026e 7047     		bx	lr
 1850              	.L254:
 1851 0270 0120     		movs	r0, #1
 1852 0272 F8E7     		b	.L233
 1853              	.L271:
 1854              		.align	2
 1855              	.L270:
 1856 0274 00540040 		.word	1073763328
 1857 0278 00000000 		.word	.LC0
 1858 027c 7F1A0600 		.word	399999
 1859 0280 A0860100 		.word	100000
 1860 0284 7F841E00 		.word	1999999
 1861 0288 83DE1B43 		.word	1125899907
ARM GAS  C:\Temp\ccVzAG2n.s 			page 33


 1862 028c FF083D00 		.word	3999999
 1863 0290 D34D6210 		.word	274877907
 1865              		.section	.text.HAL_I2C_MspDeInit,"ax",%progbits
 1866              		.align	1
 1867              		.weak	HAL_I2C_MspDeInit
 1868              		.syntax unified
 1869              		.thumb
 1870              		.thumb_func
 1872              	HAL_I2C_MspDeInit:
 1873              		@ args = 0, pretend = 0, frame = 0
 1874              		@ frame_needed = 0, uses_anonymous_args = 0
 1875              		@ link register save eliminated.
 1876 0000 7047     		bx	lr
 1878              		.section	.text.HAL_I2C_DeInit,"ax",%progbits
 1879              		.align	1
 1880              		.global	HAL_I2C_DeInit
 1881              		.syntax unified
 1882              		.thumb
 1883              		.thumb_func
 1885              	HAL_I2C_DeInit:
 1886              		@ args = 0, pretend = 0, frame = 0
 1887              		@ frame_needed = 0, uses_anonymous_args = 0
 1888 0000 38B3     		cbz	r0, .L276
 1889 0002 10B5     		push	{r4, lr}
 1890 0004 0446     		mov	r4, r0
 1891 0006 0368     		ldr	r3, [r0]
 1892 0008 134A     		ldr	r2, .L281
 1893 000a 9342     		cmp	r3, r2
 1894 000c 0CD0     		beq	.L275
 1895 000e 02F58062 		add	r2, r2, #1024
 1896 0012 9342     		cmp	r3, r2
 1897 0014 08D0     		beq	.L275
 1898 0016 02F58062 		add	r2, r2, #1024
 1899 001a 9342     		cmp	r3, r2
 1900 001c 04D0     		beq	.L275
 1901 001e 40F23921 		movw	r1, #569
 1902 0022 0E48     		ldr	r0, .L281+4
 1903 0024 FFF7FEFF 		bl	assert_failed
 1904              	.L275:
 1905 0028 2423     		movs	r3, #36
 1906 002a 84F83D30 		strb	r3, [r4, #61]
 1907 002e 2268     		ldr	r2, [r4]
 1908 0030 1368     		ldr	r3, [r2]
 1909 0032 23F00103 		bic	r3, r3, #1
 1910 0036 1360     		str	r3, [r2]
 1911 0038 2046     		mov	r0, r4
 1912 003a FFF7FEFF 		bl	HAL_I2C_MspDeInit
 1913 003e 0020     		movs	r0, #0
 1914 0040 2064     		str	r0, [r4, #64]
 1915 0042 84F83D00 		strb	r0, [r4, #61]
 1916 0046 2063     		str	r0, [r4, #48]
 1917 0048 84F83E00 		strb	r0, [r4, #62]
 1918 004c 84F83C00 		strb	r0, [r4, #60]
 1919 0050 10BD     		pop	{r4, pc}
 1920              	.L276:
 1921 0052 0120     		movs	r0, #1
 1922 0054 7047     		bx	lr
ARM GAS  C:\Temp\ccVzAG2n.s 			page 34


 1923              	.L282:
 1924 0056 00BF     		.align	2
 1925              	.L281:
 1926 0058 00540040 		.word	1073763328
 1927 005c 00000000 		.word	.LC0
 1929              		.section	.text.HAL_I2C_Master_Transmit,"ax",%progbits
 1930              		.align	1
 1931              		.global	HAL_I2C_Master_Transmit
 1932              		.syntax unified
 1933              		.thumb
 1934              		.thumb_func
 1936              	HAL_I2C_Master_Transmit:
 1937              		@ args = 4, pretend = 0, frame = 8
 1938              		@ frame_needed = 0, uses_anonymous_args = 0
 1939 0000 2DE9F043 		push	{r4, r5, r6, r7, r8, r9, lr}
 1940 0004 85B0     		sub	sp, sp, #20
 1941 0006 0446     		mov	r4, r0
 1942 0008 0F46     		mov	r7, r1
 1943 000a 9146     		mov	r9, r2
 1944 000c 9846     		mov	r8, r3
 1945 000e 0C9E     		ldr	r6, [sp, #48]
 1946 0010 FFF7FEFF 		bl	HAL_GetTick
 1947 0014 0546     		mov	r5, r0
 1948 0016 94F83D00 		ldrb	r0, [r4, #61]	@ zero_extendqisi2
 1949 001a C0B2     		uxtb	r0, r0
 1950 001c 2028     		cmp	r0, #32
 1951 001e 04D0     		beq	.L297
 1952 0020 0227     		movs	r7, #2
 1953              	.L284:
 1954 0022 3846     		mov	r0, r7
 1955 0024 05B0     		add	sp, sp, #20
 1956              		@ sp needed
 1957 0026 BDE8F083 		pop	{r4, r5, r6, r7, r8, r9, pc}
 1958              	.L297:
 1959 002a 0095     		str	r5, [sp]
 1960 002c 1923     		movs	r3, #25
 1961 002e 0122     		movs	r2, #1
 1962 0030 4F49     		ldr	r1, .L303
 1963 0032 2046     		mov	r0, r4
 1964 0034 FFF7FEFF 		bl	I2C_WaitOnFlagUntilTimeout
 1965 0038 0028     		cmp	r0, #0
 1966 003a 40F09280 		bne	.L293
 1967 003e 94F83C30 		ldrb	r3, [r4, #60]	@ zero_extendqisi2
 1968 0042 012B     		cmp	r3, #1
 1969 0044 00F08F80 		beq	.L294
 1970 0048 0123     		movs	r3, #1
 1971 004a 84F83C30 		strb	r3, [r4, #60]
 1972 004e 2368     		ldr	r3, [r4]
 1973 0050 1A68     		ldr	r2, [r3]
 1974 0052 12F0010F 		tst	r2, #1
 1975 0056 03D1     		bne	.L285
 1976 0058 1A68     		ldr	r2, [r3]
 1977 005a 42F00102 		orr	r2, r2, #1
 1978 005e 1A60     		str	r2, [r3]
 1979              	.L285:
 1980 0060 2268     		ldr	r2, [r4]
 1981 0062 1368     		ldr	r3, [r2]
ARM GAS  C:\Temp\ccVzAG2n.s 			page 35


 1982 0064 23F40063 		bic	r3, r3, #2048
 1983 0068 1360     		str	r3, [r2]
 1984 006a 2123     		movs	r3, #33
 1985 006c 84F83D30 		strb	r3, [r4, #61]
 1986 0070 1023     		movs	r3, #16
 1987 0072 84F83E30 		strb	r3, [r4, #62]
 1988 0076 0023     		movs	r3, #0
 1989 0078 2364     		str	r3, [r4, #64]
 1990 007a C4F82490 		str	r9, [r4, #36]
 1991 007e A4F82A80 		strh	r8, [r4, #42]	@ movhi
 1992 0082 638D     		ldrh	r3, [r4, #42]
 1993 0084 2385     		strh	r3, [r4, #40]	@ movhi
 1994 0086 3B4B     		ldr	r3, .L303+4
 1995 0088 E362     		str	r3, [r4, #44]
 1996 008a 2B46     		mov	r3, r5
 1997 008c 3246     		mov	r2, r6
 1998 008e 3946     		mov	r1, r7
 1999 0090 2046     		mov	r0, r4
 2000 0092 FFF7FEFF 		bl	I2C_MasterRequestWrite
 2001 0096 0746     		mov	r7, r0
 2002 0098 0028     		cmp	r0, #0
 2003 009a 66D1     		bne	.L295
 2004 009c 0023     		movs	r3, #0
 2005 009e 0393     		str	r3, [sp, #12]
 2006 00a0 2368     		ldr	r3, [r4]
 2007 00a2 5A69     		ldr	r2, [r3, #20]
 2008 00a4 0392     		str	r2, [sp, #12]
 2009 00a6 9B69     		ldr	r3, [r3, #24]
 2010 00a8 0393     		str	r3, [sp, #12]
 2011 00aa 039B     		ldr	r3, [sp, #12]
 2012 00ac 11E0     		b	.L286
 2013              	.L301:
 2014 00ae 236C     		ldr	r3, [r4, #64]
 2015 00b0 042B     		cmp	r3, #4
 2016 00b2 01D0     		beq	.L298
 2017              	.L288:
 2018 00b4 0127     		movs	r7, #1
 2019 00b6 B4E7     		b	.L284
 2020              	.L298:
 2021 00b8 2268     		ldr	r2, [r4]
 2022 00ba 1368     		ldr	r3, [r2]
 2023 00bc 43F40073 		orr	r3, r3, #512
 2024 00c0 1360     		str	r3, [r2]
 2025 00c2 F7E7     		b	.L288
 2026              	.L289:
 2027 00c4 2A46     		mov	r2, r5
 2028 00c6 3146     		mov	r1, r6
 2029 00c8 2046     		mov	r0, r4
 2030 00ca FFF7FEFF 		bl	I2C_WaitOnBTFFlagUntilTimeout
 2031 00ce 0028     		cmp	r0, #0
 2032 00d0 2ED1     		bne	.L299
 2033              	.L286:
 2034 00d2 238D     		ldrh	r3, [r4, #40]
 2035 00d4 002B     		cmp	r3, #0
 2036 00d6 36D0     		beq	.L300
 2037 00d8 2A46     		mov	r2, r5
 2038 00da 3146     		mov	r1, r6
ARM GAS  C:\Temp\ccVzAG2n.s 			page 36


 2039 00dc 2046     		mov	r0, r4
 2040 00de FFF7FEFF 		bl	I2C_WaitOnTXEFlagUntilTimeout
 2041 00e2 0028     		cmp	r0, #0
 2042 00e4 E3D1     		bne	.L301
 2043 00e6 626A     		ldr	r2, [r4, #36]
 2044 00e8 2368     		ldr	r3, [r4]
 2045 00ea 1278     		ldrb	r2, [r2]	@ zero_extendqisi2
 2046 00ec 1A61     		str	r2, [r3, #16]
 2047 00ee 606A     		ldr	r0, [r4, #36]
 2048 00f0 431C     		adds	r3, r0, #1
 2049 00f2 6362     		str	r3, [r4, #36]
 2050 00f4 618D     		ldrh	r1, [r4, #42]
 2051 00f6 89B2     		uxth	r1, r1
 2052 00f8 0139     		subs	r1, r1, #1
 2053 00fa 89B2     		uxth	r1, r1
 2054 00fc 6185     		strh	r1, [r4, #42]	@ movhi
 2055 00fe 238D     		ldrh	r3, [r4, #40]
 2056 0100 013B     		subs	r3, r3, #1
 2057 0102 9BB2     		uxth	r3, r3
 2058 0104 2385     		strh	r3, [r4, #40]	@ movhi
 2059 0106 2268     		ldr	r2, [r4]
 2060 0108 5169     		ldr	r1, [r2, #20]
 2061 010a 11F0040F 		tst	r1, #4
 2062 010e D9D0     		beq	.L289
 2063 0110 002B     		cmp	r3, #0
 2064 0112 D7D0     		beq	.L289
 2065 0114 4378     		ldrb	r3, [r0, #1]	@ zero_extendqisi2
 2066 0116 1361     		str	r3, [r2, #16]
 2067 0118 636A     		ldr	r3, [r4, #36]
 2068 011a 0133     		adds	r3, r3, #1
 2069 011c 6362     		str	r3, [r4, #36]
 2070 011e 638D     		ldrh	r3, [r4, #42]
 2071 0120 9BB2     		uxth	r3, r3
 2072 0122 013B     		subs	r3, r3, #1
 2073 0124 9BB2     		uxth	r3, r3
 2074 0126 6385     		strh	r3, [r4, #42]	@ movhi
 2075 0128 238D     		ldrh	r3, [r4, #40]
 2076 012a 013B     		subs	r3, r3, #1
 2077 012c 2385     		strh	r3, [r4, #40]	@ movhi
 2078 012e C9E7     		b	.L289
 2079              	.L299:
 2080 0130 236C     		ldr	r3, [r4, #64]
 2081 0132 042B     		cmp	r3, #4
 2082 0134 01D0     		beq	.L302
 2083              	.L290:
 2084 0136 0127     		movs	r7, #1
 2085 0138 73E7     		b	.L284
 2086              	.L302:
 2087 013a 2268     		ldr	r2, [r4]
 2088 013c 1368     		ldr	r3, [r2]
 2089 013e 43F40073 		orr	r3, r3, #512
 2090 0142 1360     		str	r3, [r2]
 2091 0144 F7E7     		b	.L290
 2092              	.L300:
 2093 0146 2268     		ldr	r2, [r4]
 2094 0148 1368     		ldr	r3, [r2]
 2095 014a 43F40073 		orr	r3, r3, #512
ARM GAS  C:\Temp\ccVzAG2n.s 			page 37


 2096 014e 1360     		str	r3, [r2]
 2097 0150 2023     		movs	r3, #32
 2098 0152 84F83D30 		strb	r3, [r4, #61]
 2099 0156 0023     		movs	r3, #0
 2100 0158 84F83E30 		strb	r3, [r4, #62]
 2101 015c 84F83C30 		strb	r3, [r4, #60]
 2102 0160 5FE7     		b	.L284
 2103              	.L293:
 2104 0162 0227     		movs	r7, #2
 2105 0164 5DE7     		b	.L284
 2106              	.L294:
 2107 0166 0227     		movs	r7, #2
 2108 0168 5BE7     		b	.L284
 2109              	.L295:
 2110 016a 0127     		movs	r7, #1
 2111 016c 59E7     		b	.L284
 2112              	.L304:
 2113 016e 00BF     		.align	2
 2114              	.L303:
 2115 0170 02001000 		.word	1048578
 2116 0174 0000FFFF 		.word	-65536
 2118              		.section	.text.HAL_I2C_Master_Receive,"ax",%progbits
 2119              		.align	1
 2120              		.global	HAL_I2C_Master_Receive
 2121              		.syntax unified
 2122              		.thumb
 2123              		.thumb_func
 2125              	HAL_I2C_Master_Receive:
 2126              		@ args = 4, pretend = 0, frame = 16
 2127              		@ frame_needed = 0, uses_anonymous_args = 0
 2128 0000 2DE9F043 		push	{r4, r5, r6, r7, r8, r9, lr}
 2129 0004 87B0     		sub	sp, sp, #28
 2130 0006 0446     		mov	r4, r0
 2131 0008 0F46     		mov	r7, r1
 2132 000a 9146     		mov	r9, r2
 2133 000c 9846     		mov	r8, r3
 2134 000e 0E9E     		ldr	r6, [sp, #56]
 2135 0010 FFF7FEFF 		bl	HAL_GetTick
 2136 0014 0546     		mov	r5, r0
 2137 0016 94F83D00 		ldrb	r0, [r4, #61]	@ zero_extendqisi2
 2138 001a C0B2     		uxtb	r0, r0
 2139 001c 2028     		cmp	r0, #32
 2140 001e 04D0     		beq	.L329
 2141 0020 0227     		movs	r7, #2
 2142              	.L306:
 2143 0022 3846     		mov	r0, r7
 2144 0024 07B0     		add	sp, sp, #28
 2145              		@ sp needed
 2146 0026 BDE8F083 		pop	{r4, r5, r6, r7, r8, r9, pc}
 2147              	.L329:
 2148 002a 0095     		str	r5, [sp]
 2149 002c 1923     		movs	r3, #25
 2150 002e 0122     		movs	r2, #1
 2151 0030 8949     		ldr	r1, .L336
 2152 0032 2046     		mov	r0, r4
 2153 0034 FFF7FEFF 		bl	I2C_WaitOnFlagUntilTimeout
 2154 0038 0028     		cmp	r0, #0
ARM GAS  C:\Temp\ccVzAG2n.s 			page 38


 2155 003a 40F04F81 		bne	.L320
 2156 003e 94F83C30 		ldrb	r3, [r4, #60]	@ zero_extendqisi2
 2157 0042 012B     		cmp	r3, #1
 2158 0044 00F04C81 		beq	.L321
 2159 0048 0123     		movs	r3, #1
 2160 004a 84F83C30 		strb	r3, [r4, #60]
 2161 004e 2368     		ldr	r3, [r4]
 2162 0050 1A68     		ldr	r2, [r3]
 2163 0052 12F0010F 		tst	r2, #1
 2164 0056 03D1     		bne	.L307
 2165 0058 1A68     		ldr	r2, [r3]
 2166 005a 42F00102 		orr	r2, r2, #1
 2167 005e 1A60     		str	r2, [r3]
 2168              	.L307:
 2169 0060 2268     		ldr	r2, [r4]
 2170 0062 1368     		ldr	r3, [r2]
 2171 0064 23F40063 		bic	r3, r3, #2048
 2172 0068 1360     		str	r3, [r2]
 2173 006a 2223     		movs	r3, #34
 2174 006c 84F83D30 		strb	r3, [r4, #61]
 2175 0070 1023     		movs	r3, #16
 2176 0072 84F83E30 		strb	r3, [r4, #62]
 2177 0076 0023     		movs	r3, #0
 2178 0078 2364     		str	r3, [r4, #64]
 2179 007a C4F82490 		str	r9, [r4, #36]
 2180 007e A4F82A80 		strh	r8, [r4, #42]	@ movhi
 2181 0082 638D     		ldrh	r3, [r4, #42]
 2182 0084 2385     		strh	r3, [r4, #40]	@ movhi
 2183 0086 754B     		ldr	r3, .L336+4
 2184 0088 E362     		str	r3, [r4, #44]
 2185 008a 2B46     		mov	r3, r5
 2186 008c 3246     		mov	r2, r6
 2187 008e 3946     		mov	r1, r7
 2188 0090 2046     		mov	r0, r4
 2189 0092 FFF7FEFF 		bl	I2C_MasterRequestRead
 2190 0096 0746     		mov	r7, r0
 2191 0098 0028     		cmp	r0, #0
 2192 009a 40F02381 		bne	.L322
 2193 009e 238D     		ldrh	r3, [r4, #40]
 2194 00a0 5BB9     		cbnz	r3, .L308
 2195 00a2 0293     		str	r3, [sp, #8]
 2196 00a4 2368     		ldr	r3, [r4]
 2197 00a6 5A69     		ldr	r2, [r3, #20]
 2198 00a8 0292     		str	r2, [sp, #8]
 2199 00aa 9A69     		ldr	r2, [r3, #24]
 2200 00ac 0292     		str	r2, [sp, #8]
 2201 00ae 029A     		ldr	r2, [sp, #8]
 2202 00b0 1A68     		ldr	r2, [r3]
 2203 00b2 42F40072 		orr	r2, r2, #512
 2204 00b6 1A60     		str	r2, [r3]
 2205 00b8 7AE0     		b	.L311
 2206              	.L308:
 2207 00ba 012B     		cmp	r3, #1
 2208 00bc 0FD0     		beq	.L330
 2209 00be 022B     		cmp	r3, #2
 2210 00c0 1FD0     		beq	.L331
 2211 00c2 2268     		ldr	r2, [r4]
ARM GAS  C:\Temp\ccVzAG2n.s 			page 39


 2212 00c4 1368     		ldr	r3, [r2]
 2213 00c6 43F48063 		orr	r3, r3, #1024
 2214 00ca 1360     		str	r3, [r2]
 2215 00cc 0023     		movs	r3, #0
 2216 00ce 0593     		str	r3, [sp, #20]
 2217 00d0 2368     		ldr	r3, [r4]
 2218 00d2 5A69     		ldr	r2, [r3, #20]
 2219 00d4 0592     		str	r2, [sp, #20]
 2220 00d6 9B69     		ldr	r3, [r3, #24]
 2221 00d8 0593     		str	r3, [sp, #20]
 2222 00da 059B     		ldr	r3, [sp, #20]
 2223 00dc 68E0     		b	.L311
 2224              	.L330:
 2225 00de 2268     		ldr	r2, [r4]
 2226 00e0 1368     		ldr	r3, [r2]
 2227 00e2 23F48063 		bic	r3, r3, #1024
 2228 00e6 1360     		str	r3, [r2]
 2229 00e8 0023     		movs	r3, #0
 2230 00ea 0393     		str	r3, [sp, #12]
 2231 00ec 2368     		ldr	r3, [r4]
 2232 00ee 5A69     		ldr	r2, [r3, #20]
 2233 00f0 0392     		str	r2, [sp, #12]
 2234 00f2 9A69     		ldr	r2, [r3, #24]
 2235 00f4 0392     		str	r2, [sp, #12]
 2236 00f6 039A     		ldr	r2, [sp, #12]
 2237 00f8 1A68     		ldr	r2, [r3]
 2238 00fa 42F40072 		orr	r2, r2, #512
 2239 00fe 1A60     		str	r2, [r3]
 2240 0100 56E0     		b	.L311
 2241              	.L331:
 2242 0102 2268     		ldr	r2, [r4]
 2243 0104 1368     		ldr	r3, [r2]
 2244 0106 23F48063 		bic	r3, r3, #1024
 2245 010a 1360     		str	r3, [r2]
 2246 010c 2268     		ldr	r2, [r4]
 2247 010e 1368     		ldr	r3, [r2]
 2248 0110 43F40063 		orr	r3, r3, #2048
 2249 0114 1360     		str	r3, [r2]
 2250 0116 0023     		movs	r3, #0
 2251 0118 0493     		str	r3, [sp, #16]
 2252 011a 2368     		ldr	r3, [r4]
 2253 011c 5A69     		ldr	r2, [r3, #20]
 2254 011e 0492     		str	r2, [sp, #16]
 2255 0120 9B69     		ldr	r3, [r3, #24]
 2256 0122 0493     		str	r3, [sp, #16]
 2257 0124 049B     		ldr	r3, [sp, #16]
 2258 0126 43E0     		b	.L311
 2259              	.L333:
 2260 0128 2A46     		mov	r2, r5
 2261 012a 3146     		mov	r1, r6
 2262 012c 2046     		mov	r0, r4
 2263 012e FFF7FEFF 		bl	I2C_WaitOnRXNEFlagUntilTimeout
 2264 0132 0028     		cmp	r0, #0
 2265 0134 40F0D880 		bne	.L323
 2266 0138 2368     		ldr	r3, [r4]
 2267 013a 1A69     		ldr	r2, [r3, #16]
 2268 013c 636A     		ldr	r3, [r4, #36]
ARM GAS  C:\Temp\ccVzAG2n.s 			page 40


 2269 013e 1A70     		strb	r2, [r3]
 2270 0140 636A     		ldr	r3, [r4, #36]
 2271 0142 0133     		adds	r3, r3, #1
 2272 0144 6362     		str	r3, [r4, #36]
 2273 0146 238D     		ldrh	r3, [r4, #40]
 2274 0148 013B     		subs	r3, r3, #1
 2275 014a 2385     		strh	r3, [r4, #40]	@ movhi
 2276 014c 638D     		ldrh	r3, [r4, #42]
 2277 014e 9BB2     		uxth	r3, r3
 2278 0150 013B     		subs	r3, r3, #1
 2279 0152 9BB2     		uxth	r3, r3
 2280 0154 6385     		strh	r3, [r4, #42]	@ movhi
 2281 0156 2BE0     		b	.L311
 2282              	.L334:
 2283 0158 0095     		str	r5, [sp]
 2284 015a 3346     		mov	r3, r6
 2285 015c 0022     		movs	r2, #0
 2286 015e 4049     		ldr	r1, .L336+8
 2287 0160 2046     		mov	r0, r4
 2288 0162 FFF7FEFF 		bl	I2C_WaitOnFlagUntilTimeout
 2289 0166 0028     		cmp	r0, #0
 2290 0168 40F0C080 		bne	.L324
 2291 016c 2268     		ldr	r2, [r4]
 2292 016e 1368     		ldr	r3, [r2]
 2293 0170 43F40073 		orr	r3, r3, #512
 2294 0174 1360     		str	r3, [r2]
 2295 0176 2368     		ldr	r3, [r4]
 2296 0178 1A69     		ldr	r2, [r3, #16]
 2297 017a 636A     		ldr	r3, [r4, #36]
 2298 017c 1A70     		strb	r2, [r3]
 2299 017e 626A     		ldr	r2, [r4, #36]
 2300 0180 531C     		adds	r3, r2, #1
 2301 0182 6362     		str	r3, [r4, #36]
 2302 0184 238D     		ldrh	r3, [r4, #40]
 2303 0186 013B     		subs	r3, r3, #1
 2304 0188 2385     		strh	r3, [r4, #40]	@ movhi
 2305 018a 638D     		ldrh	r3, [r4, #42]
 2306 018c 9BB2     		uxth	r3, r3
 2307 018e 013B     		subs	r3, r3, #1
 2308 0190 9BB2     		uxth	r3, r3
 2309 0192 6385     		strh	r3, [r4, #42]	@ movhi
 2310 0194 2368     		ldr	r3, [r4]
 2311 0196 1B69     		ldr	r3, [r3, #16]
 2312 0198 5370     		strb	r3, [r2, #1]
 2313 019a 636A     		ldr	r3, [r4, #36]
 2314 019c 0133     		adds	r3, r3, #1
 2315 019e 6362     		str	r3, [r4, #36]
 2316 01a0 238D     		ldrh	r3, [r4, #40]
 2317 01a2 013B     		subs	r3, r3, #1
 2318 01a4 2385     		strh	r3, [r4, #40]	@ movhi
 2319 01a6 638D     		ldrh	r3, [r4, #42]
 2320 01a8 9BB2     		uxth	r3, r3
 2321 01aa 013B     		subs	r3, r3, #1
 2322 01ac 9BB2     		uxth	r3, r3
 2323 01ae 6385     		strh	r3, [r4, #42]	@ movhi
 2324              	.L311:
 2325 01b0 218D     		ldrh	r1, [r4, #40]
ARM GAS  C:\Temp\ccVzAG2n.s 			page 41


 2326 01b2 0029     		cmp	r1, #0
 2327 01b4 00F08980 		beq	.L332
 2328 01b8 0329     		cmp	r1, #3
 2329 01ba 53D8     		bhi	.L313
 2330 01bc 0129     		cmp	r1, #1
 2331 01be B3D0     		beq	.L333
 2332 01c0 0229     		cmp	r1, #2
 2333 01c2 C9D0     		beq	.L334
 2334 01c4 0095     		str	r5, [sp]
 2335 01c6 3346     		mov	r3, r6
 2336 01c8 0022     		movs	r2, #0
 2337 01ca 2549     		ldr	r1, .L336+8
 2338 01cc 2046     		mov	r0, r4
 2339 01ce FFF7FEFF 		bl	I2C_WaitOnFlagUntilTimeout
 2340 01d2 0028     		cmp	r0, #0
 2341 01d4 40F08C80 		bne	.L325
 2342 01d8 2268     		ldr	r2, [r4]
 2343 01da 1368     		ldr	r3, [r2]
 2344 01dc 23F48063 		bic	r3, r3, #1024
 2345 01e0 1360     		str	r3, [r2]
 2346 01e2 2368     		ldr	r3, [r4]
 2347 01e4 1A69     		ldr	r2, [r3, #16]
 2348 01e6 636A     		ldr	r3, [r4, #36]
 2349 01e8 1A70     		strb	r2, [r3]
 2350 01ea 636A     		ldr	r3, [r4, #36]
 2351 01ec 0133     		adds	r3, r3, #1
 2352 01ee 6362     		str	r3, [r4, #36]
 2353 01f0 238D     		ldrh	r3, [r4, #40]
 2354 01f2 013B     		subs	r3, r3, #1
 2355 01f4 2385     		strh	r3, [r4, #40]	@ movhi
 2356 01f6 618D     		ldrh	r1, [r4, #42]
 2357 01f8 89B2     		uxth	r1, r1
 2358 01fa 0139     		subs	r1, r1, #1
 2359 01fc 89B2     		uxth	r1, r1
 2360 01fe 6185     		strh	r1, [r4, #42]	@ movhi
 2361 0200 0095     		str	r5, [sp]
 2362 0202 3346     		mov	r3, r6
 2363 0204 0022     		movs	r2, #0
 2364 0206 1649     		ldr	r1, .L336+8
 2365 0208 2046     		mov	r0, r4
 2366 020a FFF7FEFF 		bl	I2C_WaitOnFlagUntilTimeout
 2367 020e 0028     		cmp	r0, #0
 2368 0210 70D1     		bne	.L326
 2369 0212 2268     		ldr	r2, [r4]
 2370 0214 1368     		ldr	r3, [r2]
 2371 0216 43F40073 		orr	r3, r3, #512
 2372 021a 1360     		str	r3, [r2]
 2373 021c 2368     		ldr	r3, [r4]
 2374 021e 1A69     		ldr	r2, [r3, #16]
 2375 0220 636A     		ldr	r3, [r4, #36]
 2376 0222 1A70     		strb	r2, [r3]
 2377 0224 626A     		ldr	r2, [r4, #36]
 2378 0226 531C     		adds	r3, r2, #1
 2379 0228 6362     		str	r3, [r4, #36]
 2380 022a 238D     		ldrh	r3, [r4, #40]
 2381 022c 013B     		subs	r3, r3, #1
 2382 022e 2385     		strh	r3, [r4, #40]	@ movhi
ARM GAS  C:\Temp\ccVzAG2n.s 			page 42


 2383 0230 638D     		ldrh	r3, [r4, #42]
 2384 0232 9BB2     		uxth	r3, r3
 2385 0234 013B     		subs	r3, r3, #1
 2386 0236 9BB2     		uxth	r3, r3
 2387 0238 6385     		strh	r3, [r4, #42]	@ movhi
 2388 023a 2368     		ldr	r3, [r4]
 2389 023c 1B69     		ldr	r3, [r3, #16]
 2390 023e 5370     		strb	r3, [r2, #1]
 2391 0240 636A     		ldr	r3, [r4, #36]
 2392 0242 0133     		adds	r3, r3, #1
 2393 0244 6362     		str	r3, [r4, #36]
 2394 0246 238D     		ldrh	r3, [r4, #40]
 2395 0248 013B     		subs	r3, r3, #1
 2396 024a 2385     		strh	r3, [r4, #40]	@ movhi
 2397 024c 638D     		ldrh	r3, [r4, #42]
 2398 024e 9BB2     		uxth	r3, r3
 2399 0250 013B     		subs	r3, r3, #1
 2400 0252 9BB2     		uxth	r3, r3
 2401 0254 6385     		strh	r3, [r4, #42]	@ movhi
 2402 0256 ABE7     		b	.L311
 2403              	.L337:
 2404              		.align	2
 2405              	.L336:
 2406 0258 02001000 		.word	1048578
 2407 025c 0000FFFF 		.word	-65536
 2408 0260 04000100 		.word	65540
 2409              	.L313:
 2410 0264 2A46     		mov	r2, r5
 2411 0266 3146     		mov	r1, r6
 2412 0268 2046     		mov	r0, r4
 2413 026a FFF7FEFF 		bl	I2C_WaitOnRXNEFlagUntilTimeout
 2414 026e 0028     		cmp	r0, #0
 2415 0270 42D1     		bne	.L327
 2416 0272 2368     		ldr	r3, [r4]
 2417 0274 1A69     		ldr	r2, [r3, #16]
 2418 0276 636A     		ldr	r3, [r4, #36]
 2419 0278 1A70     		strb	r2, [r3]
 2420 027a 636A     		ldr	r3, [r4, #36]
 2421 027c 0133     		adds	r3, r3, #1
 2422 027e 6362     		str	r3, [r4, #36]
 2423 0280 228D     		ldrh	r2, [r4, #40]
 2424 0282 013A     		subs	r2, r2, #1
 2425 0284 92B2     		uxth	r2, r2
 2426 0286 2285     		strh	r2, [r4, #40]	@ movhi
 2427 0288 638D     		ldrh	r3, [r4, #42]
 2428 028a 9BB2     		uxth	r3, r3
 2429 028c 013B     		subs	r3, r3, #1
 2430 028e 9BB2     		uxth	r3, r3
 2431 0290 6385     		strh	r3, [r4, #42]	@ movhi
 2432 0292 2368     		ldr	r3, [r4]
 2433 0294 5969     		ldr	r1, [r3, #20]
 2434 0296 11F0040F 		tst	r1, #4
 2435 029a 89D0     		beq	.L311
 2436 029c 032A     		cmp	r2, #3
 2437 029e 0FD0     		beq	.L335
 2438              	.L317:
 2439 02a0 2368     		ldr	r3, [r4]
ARM GAS  C:\Temp\ccVzAG2n.s 			page 43


 2440 02a2 1A69     		ldr	r2, [r3, #16]
 2441 02a4 636A     		ldr	r3, [r4, #36]
 2442 02a6 1A70     		strb	r2, [r3]
 2443 02a8 636A     		ldr	r3, [r4, #36]
 2444 02aa 0133     		adds	r3, r3, #1
 2445 02ac 6362     		str	r3, [r4, #36]
 2446 02ae 238D     		ldrh	r3, [r4, #40]
 2447 02b0 013B     		subs	r3, r3, #1
 2448 02b2 2385     		strh	r3, [r4, #40]	@ movhi
 2449 02b4 638D     		ldrh	r3, [r4, #42]
 2450 02b6 9BB2     		uxth	r3, r3
 2451 02b8 013B     		subs	r3, r3, #1
 2452 02ba 9BB2     		uxth	r3, r3
 2453 02bc 6385     		strh	r3, [r4, #42]	@ movhi
 2454 02be 77E7     		b	.L311
 2455              	.L335:
 2456 02c0 1A68     		ldr	r2, [r3]
 2457 02c2 22F48062 		bic	r2, r2, #1024
 2458 02c6 1A60     		str	r2, [r3]
 2459 02c8 EAE7     		b	.L317
 2460              	.L332:
 2461 02ca 2023     		movs	r3, #32
 2462 02cc 84F83D30 		strb	r3, [r4, #61]
 2463 02d0 0023     		movs	r3, #0
 2464 02d2 84F83E30 		strb	r3, [r4, #62]
 2465 02d6 84F83C30 		strb	r3, [r4, #60]
 2466 02da A2E6     		b	.L306
 2467              	.L320:
 2468 02dc 0227     		movs	r7, #2
 2469 02de A0E6     		b	.L306
 2470              	.L321:
 2471 02e0 0227     		movs	r7, #2
 2472 02e2 9EE6     		b	.L306
 2473              	.L322:
 2474 02e4 0127     		movs	r7, #1
 2475 02e6 9CE6     		b	.L306
 2476              	.L323:
 2477 02e8 0127     		movs	r7, #1
 2478 02ea 9AE6     		b	.L306
 2479              	.L324:
 2480 02ec 0127     		movs	r7, #1
 2481 02ee 98E6     		b	.L306
 2482              	.L325:
 2483 02f0 0127     		movs	r7, #1
 2484 02f2 96E6     		b	.L306
 2485              	.L326:
 2486 02f4 0127     		movs	r7, #1
 2487 02f6 94E6     		b	.L306
 2488              	.L327:
 2489 02f8 0127     		movs	r7, #1
 2490 02fa 92E6     		b	.L306
 2492              		.section	.text.HAL_I2C_Slave_Transmit,"ax",%progbits
 2493              		.align	1
 2494              		.global	HAL_I2C_Slave_Transmit
 2495              		.syntax unified
 2496              		.thumb
 2497              		.thumb_func
ARM GAS  C:\Temp\ccVzAG2n.s 			page 44


 2499              	HAL_I2C_Slave_Transmit:
 2500              		@ args = 0, pretend = 0, frame = 8
 2501              		@ frame_needed = 0, uses_anonymous_args = 0
 2502 0000 2DE9F041 		push	{r4, r5, r6, r7, r8, lr}
 2503 0004 84B0     		sub	sp, sp, #16
 2504 0006 0446     		mov	r4, r0
 2505 0008 0D46     		mov	r5, r1
 2506 000a 9046     		mov	r8, r2
 2507 000c 1E46     		mov	r6, r3
 2508 000e FFF7FEFF 		bl	HAL_GetTick
 2509 0012 94F83D30 		ldrb	r3, [r4, #61]	@ zero_extendqisi2
 2510 0016 DBB2     		uxtb	r3, r3
 2511 0018 202B     		cmp	r3, #32
 2512 001a 40F0AE80 		bne	.L346
 2513 001e 0746     		mov	r7, r0
 2514 0020 002D     		cmp	r5, #0
 2515 0022 00F0AE80 		beq	.L347
 2516 0026 B8F1000F 		cmp	r8, #0
 2517 002a 00F0AC80 		beq	.L348
 2518 002e 94F83C30 		ldrb	r3, [r4, #60]	@ zero_extendqisi2
 2519 0032 012B     		cmp	r3, #1
 2520 0034 00F0A980 		beq	.L349
 2521 0038 0123     		movs	r3, #1
 2522 003a 84F83C30 		strb	r3, [r4, #60]
 2523 003e 2368     		ldr	r3, [r4]
 2524 0040 1A68     		ldr	r2, [r3]
 2525 0042 12F0010F 		tst	r2, #1
 2526 0046 03D1     		bne	.L340
 2527 0048 1A68     		ldr	r2, [r3]
 2528 004a 42F00102 		orr	r2, r2, #1
 2529 004e 1A60     		str	r2, [r3]
 2530              	.L340:
 2531 0050 2268     		ldr	r2, [r4]
 2532 0052 1368     		ldr	r3, [r2]
 2533 0054 23F40063 		bic	r3, r3, #2048
 2534 0058 1360     		str	r3, [r2]
 2535 005a 2123     		movs	r3, #33
 2536 005c 84F83D30 		strb	r3, [r4, #61]
 2537 0060 2023     		movs	r3, #32
 2538 0062 84F83E30 		strb	r3, [r4, #62]
 2539 0066 0022     		movs	r2, #0
 2540 0068 2264     		str	r2, [r4, #64]
 2541 006a 6562     		str	r5, [r4, #36]
 2542 006c A4F82A80 		strh	r8, [r4, #42]	@ movhi
 2543 0070 638D     		ldrh	r3, [r4, #42]
 2544 0072 2385     		strh	r3, [r4, #40]	@ movhi
 2545 0074 494B     		ldr	r3, .L357
 2546 0076 E362     		str	r3, [r4, #44]
 2547 0078 2168     		ldr	r1, [r4]
 2548 007a 0B68     		ldr	r3, [r1]
 2549 007c 43F48063 		orr	r3, r3, #1024
 2550 0080 0B60     		str	r3, [r1]
 2551 0082 0097     		str	r7, [sp]
 2552 0084 3346     		mov	r3, r6
 2553 0086 4649     		ldr	r1, .L357+4
 2554 0088 2046     		mov	r0, r4
 2555 008a FFF7FEFF 		bl	I2C_WaitOnFlagUntilTimeout
ARM GAS  C:\Temp\ccVzAG2n.s 			page 45


 2556 008e 0028     		cmp	r0, #0
 2557 0090 7DD1     		bne	.L350
 2558 0092 0023     		movs	r3, #0
 2559 0094 0293     		str	r3, [sp, #8]
 2560 0096 2368     		ldr	r3, [r4]
 2561 0098 5A69     		ldr	r2, [r3, #20]
 2562 009a 0292     		str	r2, [sp, #8]
 2563 009c 9B69     		ldr	r3, [r3, #24]
 2564 009e 0293     		str	r3, [sp, #8]
 2565 00a0 029B     		ldr	r3, [sp, #8]
 2566 00a2 2369     		ldr	r3, [r4, #16]
 2567 00a4 B3F5404F 		cmp	r3, #49152
 2568 00a8 33D0     		beq	.L354
 2569              	.L342:
 2570 00aa 238D     		ldrh	r3, [r4, #40]
 2571 00ac 002B     		cmp	r3, #0
 2572 00ae 49D0     		beq	.L355
 2573 00b0 3A46     		mov	r2, r7
 2574 00b2 3146     		mov	r1, r6
 2575 00b4 2046     		mov	r0, r4
 2576 00b6 FFF7FEFF 		bl	I2C_WaitOnTXEFlagUntilTimeout
 2577 00ba 0028     		cmp	r0, #0
 2578 00bc 3BD1     		bne	.L356
 2579 00be 626A     		ldr	r2, [r4, #36]
 2580 00c0 2368     		ldr	r3, [r4]
 2581 00c2 1278     		ldrb	r2, [r2]	@ zero_extendqisi2
 2582 00c4 1A61     		str	r2, [r3, #16]
 2583 00c6 626A     		ldr	r2, [r4, #36]
 2584 00c8 531C     		adds	r3, r2, #1
 2585 00ca 6362     		str	r3, [r4, #36]
 2586 00cc B4F82AC0 		ldrh	ip, [r4, #42]
 2587 00d0 1FFA8CFC 		uxth	ip, ip
 2588 00d4 0CF1FF3C 		add	ip, ip, #-1
 2589 00d8 1FFA8CFC 		uxth	ip, ip
 2590 00dc A4F82AC0 		strh	ip, [r4, #42]	@ movhi
 2591 00e0 258D     		ldrh	r5, [r4, #40]
 2592 00e2 013D     		subs	r5, r5, #1
 2593 00e4 ADB2     		uxth	r5, r5
 2594 00e6 2585     		strh	r5, [r4, #40]	@ movhi
 2595 00e8 2368     		ldr	r3, [r4]
 2596 00ea 5969     		ldr	r1, [r3, #20]
 2597 00ec 11F0040F 		tst	r1, #4
 2598 00f0 DBD0     		beq	.L342
 2599 00f2 002D     		cmp	r5, #0
 2600 00f4 D9D0     		beq	.L342
 2601 00f6 5278     		ldrb	r2, [r2, #1]	@ zero_extendqisi2
 2602 00f8 1A61     		str	r2, [r3, #16]
 2603 00fa 636A     		ldr	r3, [r4, #36]
 2604 00fc 0133     		adds	r3, r3, #1
 2605 00fe 6362     		str	r3, [r4, #36]
 2606 0100 638D     		ldrh	r3, [r4, #42]
 2607 0102 9BB2     		uxth	r3, r3
 2608 0104 013B     		subs	r3, r3, #1
 2609 0106 9BB2     		uxth	r3, r3
 2610 0108 6385     		strh	r3, [r4, #42]	@ movhi
 2611 010a 238D     		ldrh	r3, [r4, #40]
 2612 010c 013B     		subs	r3, r3, #1
ARM GAS  C:\Temp\ccVzAG2n.s 			page 46


 2613 010e 2385     		strh	r3, [r4, #40]	@ movhi
 2614 0110 CBE7     		b	.L342
 2615              	.L354:
 2616 0112 0097     		str	r7, [sp]
 2617 0114 3346     		mov	r3, r6
 2618 0116 0022     		movs	r2, #0
 2619 0118 2149     		ldr	r1, .L357+4
 2620 011a 2046     		mov	r0, r4
 2621 011c FFF7FEFF 		bl	I2C_WaitOnFlagUntilTimeout
 2622 0120 0028     		cmp	r0, #0
 2623 0122 36D1     		bne	.L351
 2624 0124 0023     		movs	r3, #0
 2625 0126 0393     		str	r3, [sp, #12]
 2626 0128 2368     		ldr	r3, [r4]
 2627 012a 5A69     		ldr	r2, [r3, #20]
 2628 012c 0392     		str	r2, [sp, #12]
 2629 012e 9B69     		ldr	r3, [r3, #24]
 2630 0130 0393     		str	r3, [sp, #12]
 2631 0132 039B     		ldr	r3, [sp, #12]
 2632 0134 B9E7     		b	.L342
 2633              	.L356:
 2634 0136 2268     		ldr	r2, [r4]
 2635 0138 1368     		ldr	r3, [r2]
 2636 013a 23F48063 		bic	r3, r3, #1024
 2637 013e 1360     		str	r3, [r2]
 2638 0140 0120     		movs	r0, #1
 2639 0142 1BE0     		b	.L339
 2640              	.L355:
 2641 0144 0097     		str	r7, [sp]
 2642 0146 3346     		mov	r3, r6
 2643 0148 0022     		movs	r2, #0
 2644 014a 4FF48231 		mov	r1, #66560
 2645 014e 2046     		mov	r0, r4
 2646 0150 FFF7FEFF 		bl	I2C_WaitOnFlagUntilTimeout
 2647 0154 F8B9     		cbnz	r0, .L352
 2648 0156 2368     		ldr	r3, [r4]
 2649 0158 6FF48062 		mvn	r2, #1024
 2650 015c 5A61     		str	r2, [r3, #20]
 2651 015e 2268     		ldr	r2, [r4]
 2652 0160 1368     		ldr	r3, [r2]
 2653 0162 23F48063 		bic	r3, r3, #1024
 2654 0166 1360     		str	r3, [r2]
 2655 0168 2023     		movs	r3, #32
 2656 016a 84F83D30 		strb	r3, [r4, #61]
 2657 016e 0023     		movs	r3, #0
 2658 0170 84F83E30 		strb	r3, [r4, #62]
 2659 0174 84F83C30 		strb	r3, [r4, #60]
 2660 0178 00E0     		b	.L339
 2661              	.L346:
 2662 017a 0220     		movs	r0, #2
 2663              	.L339:
 2664 017c 04B0     		add	sp, sp, #16
 2665              		@ sp needed
 2666 017e BDE8F081 		pop	{r4, r5, r6, r7, r8, pc}
 2667              	.L347:
 2668 0182 0120     		movs	r0, #1
 2669 0184 FAE7     		b	.L339
ARM GAS  C:\Temp\ccVzAG2n.s 			page 47


 2670              	.L348:
 2671 0186 0120     		movs	r0, #1
 2672 0188 F8E7     		b	.L339
 2673              	.L349:
 2674 018a 0220     		movs	r0, #2
 2675 018c F6E7     		b	.L339
 2676              	.L350:
 2677 018e 0120     		movs	r0, #1
 2678 0190 F4E7     		b	.L339
 2679              	.L351:
 2680 0192 0120     		movs	r0, #1
 2681 0194 F2E7     		b	.L339
 2682              	.L352:
 2683 0196 0120     		movs	r0, #1
 2684 0198 F0E7     		b	.L339
 2685              	.L358:
 2686 019a 00BF     		.align	2
 2687              	.L357:
 2688 019c 0000FFFF 		.word	-65536
 2689 01a0 02000100 		.word	65538
 2691              		.section	.text.HAL_I2C_Slave_Receive,"ax",%progbits
 2692              		.align	1
 2693              		.global	HAL_I2C_Slave_Receive
 2694              		.syntax unified
 2695              		.thumb
 2696              		.thumb_func
 2698              	HAL_I2C_Slave_Receive:
 2699              		@ args = 0, pretend = 0, frame = 8
 2700              		@ frame_needed = 0, uses_anonymous_args = 0
 2701 0000 2DE9F041 		push	{r4, r5, r6, r7, r8, lr}
 2702 0004 84B0     		sub	sp, sp, #16
 2703 0006 0446     		mov	r4, r0
 2704 0008 0D46     		mov	r5, r1
 2705 000a 9046     		mov	r8, r2
 2706 000c 1E46     		mov	r6, r3
 2707 000e FFF7FEFF 		bl	HAL_GetTick
 2708 0012 94F83D30 		ldrb	r3, [r4, #61]	@ zero_extendqisi2
 2709 0016 DBB2     		uxtb	r3, r3
 2710 0018 202B     		cmp	r3, #32
 2711 001a 40F0A080 		bne	.L367
 2712 001e 0746     		mov	r7, r0
 2713 0020 002D     		cmp	r5, #0
 2714 0022 00F0A080 		beq	.L368
 2715 0026 B8F1000F 		cmp	r8, #0
 2716 002a 00F09E80 		beq	.L369
 2717 002e 94F83C30 		ldrb	r3, [r4, #60]	@ zero_extendqisi2
 2718 0032 012B     		cmp	r3, #1
 2719 0034 00F09B80 		beq	.L370
 2720 0038 0123     		movs	r3, #1
 2721 003a 84F83C30 		strb	r3, [r4, #60]
 2722 003e 2368     		ldr	r3, [r4]
 2723 0040 1A68     		ldr	r2, [r3]
 2724 0042 12F0010F 		tst	r2, #1
 2725 0046 03D1     		bne	.L361
 2726 0048 1A68     		ldr	r2, [r3]
 2727 004a 42F00102 		orr	r2, r2, #1
 2728 004e 1A60     		str	r2, [r3]
ARM GAS  C:\Temp\ccVzAG2n.s 			page 48


 2729              	.L361:
 2730 0050 2268     		ldr	r2, [r4]
 2731 0052 1368     		ldr	r3, [r2]
 2732 0054 23F40063 		bic	r3, r3, #2048
 2733 0058 1360     		str	r3, [r2]
 2734 005a 2223     		movs	r3, #34
 2735 005c 84F83D30 		strb	r3, [r4, #61]
 2736 0060 2023     		movs	r3, #32
 2737 0062 84F83E30 		strb	r3, [r4, #62]
 2738 0066 0022     		movs	r2, #0
 2739 0068 2264     		str	r2, [r4, #64]
 2740 006a 6562     		str	r5, [r4, #36]
 2741 006c A4F82A80 		strh	r8, [r4, #42]	@ movhi
 2742 0070 638D     		ldrh	r3, [r4, #42]
 2743 0072 2385     		strh	r3, [r4, #40]	@ movhi
 2744 0074 404B     		ldr	r3, .L375
 2745 0076 E362     		str	r3, [r4, #44]
 2746 0078 2168     		ldr	r1, [r4]
 2747 007a 0B68     		ldr	r3, [r1]
 2748 007c 43F48063 		orr	r3, r3, #1024
 2749 0080 0B60     		str	r3, [r1]
 2750 0082 0097     		str	r7, [sp]
 2751 0084 3346     		mov	r3, r6
 2752 0086 3D49     		ldr	r1, .L375+4
 2753 0088 2046     		mov	r0, r4
 2754 008a FFF7FEFF 		bl	I2C_WaitOnFlagUntilTimeout
 2755 008e 0028     		cmp	r0, #0
 2756 0090 6FD1     		bne	.L371
 2757 0092 0023     		movs	r3, #0
 2758 0094 0293     		str	r3, [sp, #8]
 2759 0096 2368     		ldr	r3, [r4]
 2760 0098 5A69     		ldr	r2, [r3, #20]
 2761 009a 0292     		str	r2, [sp, #8]
 2762 009c 9B69     		ldr	r3, [r3, #24]
 2763 009e 0293     		str	r3, [sp, #8]
 2764 00a0 029B     		ldr	r3, [sp, #8]
 2765              	.L362:
 2766 00a2 238D     		ldrh	r3, [r4, #40]
 2767 00a4 002B     		cmp	r3, #0
 2768 00a6 36D0     		beq	.L373
 2769 00a8 3A46     		mov	r2, r7
 2770 00aa 3146     		mov	r1, r6
 2771 00ac 2046     		mov	r0, r4
 2772 00ae FFF7FEFF 		bl	I2C_WaitOnRXNEFlagUntilTimeout
 2773 00b2 48BB     		cbnz	r0, .L374
 2774 00b4 2368     		ldr	r3, [r4]
 2775 00b6 1A69     		ldr	r2, [r3, #16]
 2776 00b8 636A     		ldr	r3, [r4, #36]
 2777 00ba 1A70     		strb	r2, [r3]
 2778 00bc 636A     		ldr	r3, [r4, #36]
 2779 00be 5A1C     		adds	r2, r3, #1
 2780 00c0 6262     		str	r2, [r4, #36]
 2781 00c2 258D     		ldrh	r5, [r4, #40]
 2782 00c4 013D     		subs	r5, r5, #1
 2783 00c6 ADB2     		uxth	r5, r5
 2784 00c8 2585     		strh	r5, [r4, #40]	@ movhi
 2785 00ca B4F82AC0 		ldrh	ip, [r4, #42]
ARM GAS  C:\Temp\ccVzAG2n.s 			page 49


 2786 00ce 1FFA8CFC 		uxth	ip, ip
 2787 00d2 0CF1FF3C 		add	ip, ip, #-1
 2788 00d6 1FFA8CFC 		uxth	ip, ip
 2789 00da A4F82AC0 		strh	ip, [r4, #42]	@ movhi
 2790 00de 2268     		ldr	r2, [r4]
 2791 00e0 5169     		ldr	r1, [r2, #20]
 2792 00e2 11F0040F 		tst	r1, #4
 2793 00e6 DCD0     		beq	.L362
 2794 00e8 002D     		cmp	r5, #0
 2795 00ea DAD0     		beq	.L362
 2796 00ec 1269     		ldr	r2, [r2, #16]
 2797 00ee 5A70     		strb	r2, [r3, #1]
 2798 00f0 636A     		ldr	r3, [r4, #36]
 2799 00f2 0133     		adds	r3, r3, #1
 2800 00f4 6362     		str	r3, [r4, #36]
 2801 00f6 238D     		ldrh	r3, [r4, #40]
 2802 00f8 013B     		subs	r3, r3, #1
 2803 00fa 2385     		strh	r3, [r4, #40]	@ movhi
 2804 00fc 638D     		ldrh	r3, [r4, #42]
 2805 00fe 9BB2     		uxth	r3, r3
 2806 0100 013B     		subs	r3, r3, #1
 2807 0102 9BB2     		uxth	r3, r3
 2808 0104 6385     		strh	r3, [r4, #42]	@ movhi
 2809 0106 CCE7     		b	.L362
 2810              	.L374:
 2811 0108 2268     		ldr	r2, [r4]
 2812 010a 1368     		ldr	r3, [r2]
 2813 010c 23F48063 		bic	r3, r3, #1024
 2814 0110 1360     		str	r3, [r2]
 2815 0112 0120     		movs	r0, #1
 2816 0114 24E0     		b	.L360
 2817              	.L373:
 2818 0116 3A46     		mov	r2, r7
 2819 0118 3146     		mov	r1, r6
 2820 011a 2046     		mov	r0, r4
 2821 011c FFF7FEFF 		bl	I2C_WaitOnSTOPFlagUntilTimeout
 2822 0120 30B1     		cbz	r0, .L366
 2823 0122 2268     		ldr	r2, [r4]
 2824 0124 1368     		ldr	r3, [r2]
 2825 0126 23F48063 		bic	r3, r3, #1024
 2826 012a 1360     		str	r3, [r2]
 2827 012c 0120     		movs	r0, #1
 2828 012e 17E0     		b	.L360
 2829              	.L366:
 2830 0130 0023     		movs	r3, #0
 2831 0132 0393     		str	r3, [sp, #12]
 2832 0134 2268     		ldr	r2, [r4]
 2833 0136 5169     		ldr	r1, [r2, #20]
 2834 0138 0391     		str	r1, [sp, #12]
 2835 013a 1168     		ldr	r1, [r2]
 2836 013c 41F00101 		orr	r1, r1, #1
 2837 0140 1160     		str	r1, [r2]
 2838 0142 039A     		ldr	r2, [sp, #12]
 2839 0144 2168     		ldr	r1, [r4]
 2840 0146 0A68     		ldr	r2, [r1]
 2841 0148 22F48062 		bic	r2, r2, #1024
 2842 014c 0A60     		str	r2, [r1]
ARM GAS  C:\Temp\ccVzAG2n.s 			page 50


 2843 014e 2022     		movs	r2, #32
 2844 0150 84F83D20 		strb	r2, [r4, #61]
 2845 0154 84F83E30 		strb	r3, [r4, #62]
 2846 0158 84F83C30 		strb	r3, [r4, #60]
 2847 015c 00E0     		b	.L360
 2848              	.L367:
 2849 015e 0220     		movs	r0, #2
 2850              	.L360:
 2851 0160 04B0     		add	sp, sp, #16
 2852              		@ sp needed
 2853 0162 BDE8F081 		pop	{r4, r5, r6, r7, r8, pc}
 2854              	.L368:
 2855 0166 0120     		movs	r0, #1
 2856 0168 FAE7     		b	.L360
 2857              	.L369:
 2858 016a 0120     		movs	r0, #1
 2859 016c F8E7     		b	.L360
 2860              	.L370:
 2861 016e 0220     		movs	r0, #2
 2862 0170 F6E7     		b	.L360
 2863              	.L371:
 2864 0172 0120     		movs	r0, #1
 2865 0174 F4E7     		b	.L360
 2866              	.L376:
 2867 0176 00BF     		.align	2
 2868              	.L375:
 2869 0178 0000FFFF 		.word	-65536
 2870 017c 02000100 		.word	65538
 2872              		.section	.text.HAL_I2C_Master_Transmit_IT,"ax",%progbits
 2873              		.align	1
 2874              		.global	HAL_I2C_Master_Transmit_IT
 2875              		.syntax unified
 2876              		.thumb
 2877              		.thumb_func
 2879              	HAL_I2C_Master_Transmit_IT:
 2880              		@ args = 0, pretend = 0, frame = 8
 2881              		@ frame_needed = 0, uses_anonymous_args = 0
 2882              		@ link register save eliminated.
 2883 0000 30B4     		push	{r4, r5}
 2884 0002 82B0     		sub	sp, sp, #8
 2885 0004 0024     		movs	r4, #0
 2886 0006 0194     		str	r4, [sp, #4]
 2887 0008 90F83D40 		ldrb	r4, [r0, #61]	@ zero_extendqisi2
 2888 000c E4B2     		uxtb	r4, r4
 2889 000e 202C     		cmp	r4, #32
 2890 0010 53D1     		bne	.L382
 2891 0012 2D4C     		ldr	r4, .L386
 2892 0014 2468     		ldr	r4, [r4]
 2893 0016 E408     		lsrs	r4, r4, #3
 2894 0018 2C4D     		ldr	r5, .L386+4
 2895 001a A5FB0454 		umull	r5, r4, r5, r4
 2896 001e 240A     		lsrs	r4, r4, #8
 2897 0020 04EB8404 		add	r4, r4, r4, lsl #2
 2898 0024 04EB8404 		add	r4, r4, r4, lsl #2
 2899 0028 0194     		str	r4, [sp, #4]
 2900              	.L380:
 2901 002a 019C     		ldr	r4, [sp, #4]
ARM GAS  C:\Temp\ccVzAG2n.s 			page 51


 2902 002c 013C     		subs	r4, r4, #1
 2903 002e 0194     		str	r4, [sp, #4]
 2904 0030 019C     		ldr	r4, [sp, #4]
 2905 0032 002C     		cmp	r4, #0
 2906 0034 35D0     		beq	.L385
 2907 0036 0468     		ldr	r4, [r0]
 2908 0038 A569     		ldr	r5, [r4, #24]
 2909 003a 15F0020F 		tst	r5, #2
 2910 003e F4D1     		bne	.L380
 2911 0040 90F83C50 		ldrb	r5, [r0, #60]	@ zero_extendqisi2
 2912 0044 012D     		cmp	r5, #1
 2913 0046 3CD0     		beq	.L383
 2914 0048 0125     		movs	r5, #1
 2915 004a 80F83C50 		strb	r5, [r0, #60]
 2916 004e 2568     		ldr	r5, [r4]
 2917 0050 15F0010F 		tst	r5, #1
 2918 0054 03D1     		bne	.L381
 2919 0056 2568     		ldr	r5, [r4]
 2920 0058 45F00105 		orr	r5, r5, #1
 2921 005c 2560     		str	r5, [r4]
 2922              	.L381:
 2923 005e 0568     		ldr	r5, [r0]
 2924 0060 2C68     		ldr	r4, [r5]
 2925 0062 24F40064 		bic	r4, r4, #2048
 2926 0066 2C60     		str	r4, [r5]
 2927 0068 2124     		movs	r4, #33
 2928 006a 80F83D40 		strb	r4, [r0, #61]
 2929 006e 1024     		movs	r4, #16
 2930 0070 80F83E40 		strb	r4, [r0, #62]
 2931 0074 0024     		movs	r4, #0
 2932 0076 0464     		str	r4, [r0, #64]
 2933 0078 4262     		str	r2, [r0, #36]
 2934 007a 4385     		strh	r3, [r0, #42]	@ movhi
 2935 007c 438D     		ldrh	r3, [r0, #42]
 2936 007e 0385     		strh	r3, [r0, #40]	@ movhi
 2937 0080 134B     		ldr	r3, .L386+8
 2938 0082 C362     		str	r3, [r0, #44]
 2939 0084 4164     		str	r1, [r0, #68]
 2940 0086 80F83C40 		strb	r4, [r0, #60]
 2941 008a 0268     		ldr	r2, [r0]
 2942 008c 5368     		ldr	r3, [r2, #4]
 2943 008e 43F4E063 		orr	r3, r3, #1792
 2944 0092 5360     		str	r3, [r2, #4]
 2945 0094 0268     		ldr	r2, [r0]
 2946 0096 1368     		ldr	r3, [r2]
 2947 0098 43F48073 		orr	r3, r3, #256
 2948 009c 1360     		str	r3, [r2]
 2949 009e 2046     		mov	r0, r4
 2950 00a0 0CE0     		b	.L378
 2951              	.L385:
 2952 00a2 0023     		movs	r3, #0
 2953 00a4 0363     		str	r3, [r0, #48]
 2954 00a6 2022     		movs	r2, #32
 2955 00a8 80F83D20 		strb	r2, [r0, #61]
 2956 00ac 80F83E30 		strb	r3, [r0, #62]
 2957 00b0 036C     		ldr	r3, [r0, #64]
 2958 00b2 1343     		orrs	r3, r3, r2
ARM GAS  C:\Temp\ccVzAG2n.s 			page 52


 2959 00b4 0364     		str	r3, [r0, #64]
 2960 00b6 0220     		movs	r0, #2
 2961 00b8 00E0     		b	.L378
 2962              	.L382:
 2963 00ba 0220     		movs	r0, #2
 2964              	.L378:
 2965 00bc 02B0     		add	sp, sp, #8
 2966              		@ sp needed
 2967 00be 30BC     		pop	{r4, r5}
 2968 00c0 7047     		bx	lr
 2969              	.L383:
 2970 00c2 0220     		movs	r0, #2
 2971 00c4 FAE7     		b	.L378
 2972              	.L387:
 2973 00c6 00BF     		.align	2
 2974              	.L386:
 2975 00c8 00000000 		.word	SystemCoreClock
 2976 00cc 89B5F814 		.word	351843721
 2977 00d0 0000FFFF 		.word	-65536
 2979              		.section	.text.HAL_I2C_Master_Receive_IT,"ax",%progbits
 2980              		.align	1
 2981              		.global	HAL_I2C_Master_Receive_IT
 2982              		.syntax unified
 2983              		.thumb
 2984              		.thumb_func
 2986              	HAL_I2C_Master_Receive_IT:
 2987              		@ args = 0, pretend = 0, frame = 8
 2988              		@ frame_needed = 0, uses_anonymous_args = 0
 2989              		@ link register save eliminated.
 2990 0000 30B4     		push	{r4, r5}
 2991 0002 82B0     		sub	sp, sp, #8
 2992 0004 0024     		movs	r4, #0
 2993 0006 0194     		str	r4, [sp, #4]
 2994 0008 90F83D40 		ldrb	r4, [r0, #61]	@ zero_extendqisi2
 2995 000c E4B2     		uxtb	r4, r4
 2996 000e 202C     		cmp	r4, #32
 2997 0010 58D1     		bne	.L393
 2998 0012 2F4C     		ldr	r4, .L397
 2999 0014 2468     		ldr	r4, [r4]
 3000 0016 E408     		lsrs	r4, r4, #3
 3001 0018 2E4D     		ldr	r5, .L397+4
 3002 001a A5FB0454 		umull	r5, r4, r5, r4
 3003 001e 240A     		lsrs	r4, r4, #8
 3004 0020 04EB8404 		add	r4, r4, r4, lsl #2
 3005 0024 04EB8404 		add	r4, r4, r4, lsl #2
 3006 0028 0194     		str	r4, [sp, #4]
 3007              	.L391:
 3008 002a 019C     		ldr	r4, [sp, #4]
 3009 002c 013C     		subs	r4, r4, #1
 3010 002e 0194     		str	r4, [sp, #4]
 3011 0030 019C     		ldr	r4, [sp, #4]
 3012 0032 002C     		cmp	r4, #0
 3013 0034 3AD0     		beq	.L396
 3014 0036 0468     		ldr	r4, [r0]
 3015 0038 A569     		ldr	r5, [r4, #24]
 3016 003a 15F0020F 		tst	r5, #2
 3017 003e F4D1     		bne	.L391
ARM GAS  C:\Temp\ccVzAG2n.s 			page 53


 3018 0040 90F83C50 		ldrb	r5, [r0, #60]	@ zero_extendqisi2
 3019 0044 012D     		cmp	r5, #1
 3020 0046 41D0     		beq	.L394
 3021 0048 0125     		movs	r5, #1
 3022 004a 80F83C50 		strb	r5, [r0, #60]
 3023 004e 2568     		ldr	r5, [r4]
 3024 0050 15F0010F 		tst	r5, #1
 3025 0054 03D1     		bne	.L392
 3026 0056 2568     		ldr	r5, [r4]
 3027 0058 45F00105 		orr	r5, r5, #1
 3028 005c 2560     		str	r5, [r4]
 3029              	.L392:
 3030 005e 0568     		ldr	r5, [r0]
 3031 0060 2C68     		ldr	r4, [r5]
 3032 0062 24F40064 		bic	r4, r4, #2048
 3033 0066 2C60     		str	r4, [r5]
 3034 0068 2224     		movs	r4, #34
 3035 006a 80F83D40 		strb	r4, [r0, #61]
 3036 006e 1024     		movs	r4, #16
 3037 0070 80F83E40 		strb	r4, [r0, #62]
 3038 0074 0024     		movs	r4, #0
 3039 0076 0464     		str	r4, [r0, #64]
 3040 0078 4262     		str	r2, [r0, #36]
 3041 007a 4385     		strh	r3, [r0, #42]	@ movhi
 3042 007c 438D     		ldrh	r3, [r0, #42]
 3043 007e 0385     		strh	r3, [r0, #40]	@ movhi
 3044 0080 154B     		ldr	r3, .L397+8
 3045 0082 C362     		str	r3, [r0, #44]
 3046 0084 4164     		str	r1, [r0, #68]
 3047 0086 80F83C40 		strb	r4, [r0, #60]
 3048 008a 0268     		ldr	r2, [r0]
 3049 008c 5368     		ldr	r3, [r2, #4]
 3050 008e 43F4E063 		orr	r3, r3, #1792
 3051 0092 5360     		str	r3, [r2, #4]
 3052 0094 0268     		ldr	r2, [r0]
 3053 0096 1368     		ldr	r3, [r2]
 3054 0098 43F48063 		orr	r3, r3, #1024
 3055 009c 1360     		str	r3, [r2]
 3056 009e 0268     		ldr	r2, [r0]
 3057 00a0 1368     		ldr	r3, [r2]
 3058 00a2 43F48073 		orr	r3, r3, #256
 3059 00a6 1360     		str	r3, [r2]
 3060 00a8 2046     		mov	r0, r4
 3061 00aa 0CE0     		b	.L389
 3062              	.L396:
 3063 00ac 0023     		movs	r3, #0
 3064 00ae 0363     		str	r3, [r0, #48]
 3065 00b0 2022     		movs	r2, #32
 3066 00b2 80F83D20 		strb	r2, [r0, #61]
 3067 00b6 80F83E30 		strb	r3, [r0, #62]
 3068 00ba 036C     		ldr	r3, [r0, #64]
 3069 00bc 1343     		orrs	r3, r3, r2
 3070 00be 0364     		str	r3, [r0, #64]
 3071 00c0 0220     		movs	r0, #2
 3072 00c2 00E0     		b	.L389
 3073              	.L393:
 3074 00c4 0220     		movs	r0, #2
ARM GAS  C:\Temp\ccVzAG2n.s 			page 54


 3075              	.L389:
 3076 00c6 02B0     		add	sp, sp, #8
 3077              		@ sp needed
 3078 00c8 30BC     		pop	{r4, r5}
 3079 00ca 7047     		bx	lr
 3080              	.L394:
 3081 00cc 0220     		movs	r0, #2
 3082 00ce FAE7     		b	.L389
 3083              	.L398:
 3084              		.align	2
 3085              	.L397:
 3086 00d0 00000000 		.word	SystemCoreClock
 3087 00d4 89B5F814 		.word	351843721
 3088 00d8 0000FFFF 		.word	-65536
 3090              		.section	.text.HAL_I2C_Slave_Transmit_IT,"ax",%progbits
 3091              		.align	1
 3092              		.global	HAL_I2C_Slave_Transmit_IT
 3093              		.syntax unified
 3094              		.thumb
 3095              		.thumb_func
 3097              	HAL_I2C_Slave_Transmit_IT:
 3098              		@ args = 0, pretend = 0, frame = 0
 3099              		@ frame_needed = 0, uses_anonymous_args = 0
 3100              		@ link register save eliminated.
 3101 0000 90F83D30 		ldrb	r3, [r0, #61]	@ zero_extendqisi2
 3102 0004 DBB2     		uxtb	r3, r3
 3103 0006 202B     		cmp	r3, #32
 3104 0008 37D1     		bne	.L402
 3105 000a 0029     		cmp	r1, #0
 3106 000c 37D0     		beq	.L403
 3107 000e 002A     		cmp	r2, #0
 3108 0010 37D0     		beq	.L404
 3109 0012 90F83C30 		ldrb	r3, [r0, #60]	@ zero_extendqisi2
 3110 0016 012B     		cmp	r3, #1
 3111 0018 35D0     		beq	.L405
 3112 001a 10B4     		push	{r4}
 3113 001c 0123     		movs	r3, #1
 3114 001e 80F83C30 		strb	r3, [r0, #60]
 3115 0022 0368     		ldr	r3, [r0]
 3116 0024 1C68     		ldr	r4, [r3]
 3117 0026 14F0010F 		tst	r4, #1
 3118 002a 03D1     		bne	.L401
 3119 002c 1C68     		ldr	r4, [r3]
 3120 002e 44F00104 		orr	r4, r4, #1
 3121 0032 1C60     		str	r4, [r3]
 3122              	.L401:
 3123 0034 0468     		ldr	r4, [r0]
 3124 0036 2368     		ldr	r3, [r4]
 3125 0038 23F40063 		bic	r3, r3, #2048
 3126 003c 2360     		str	r3, [r4]
 3127 003e 2123     		movs	r3, #33
 3128 0040 80F83D30 		strb	r3, [r0, #61]
 3129 0044 2023     		movs	r3, #32
 3130 0046 80F83E30 		strb	r3, [r0, #62]
 3131 004a 0023     		movs	r3, #0
 3132 004c 0364     		str	r3, [r0, #64]
 3133 004e 4162     		str	r1, [r0, #36]
ARM GAS  C:\Temp\ccVzAG2n.s 			page 55


 3134 0050 4285     		strh	r2, [r0, #42]	@ movhi
 3135 0052 428D     		ldrh	r2, [r0, #42]
 3136 0054 0285     		strh	r2, [r0, #40]	@ movhi
 3137 0056 0D4A     		ldr	r2, .L410
 3138 0058 C262     		str	r2, [r0, #44]
 3139 005a 0168     		ldr	r1, [r0]
 3140 005c 0A68     		ldr	r2, [r1]
 3141 005e 42F48062 		orr	r2, r2, #1024
 3142 0062 0A60     		str	r2, [r1]
 3143 0064 80F83C30 		strb	r3, [r0, #60]
 3144 0068 0168     		ldr	r1, [r0]
 3145 006a 4A68     		ldr	r2, [r1, #4]
 3146 006c 42F4E062 		orr	r2, r2, #1792
 3147 0070 4A60     		str	r2, [r1, #4]
 3148 0072 1846     		mov	r0, r3
 3149 0074 5DF8044B 		ldr	r4, [sp], #4
 3150 0078 7047     		bx	lr
 3151              	.L402:
 3152 007a 0220     		movs	r0, #2
 3153 007c 7047     		bx	lr
 3154              	.L403:
 3155 007e 0120     		movs	r0, #1
 3156 0080 7047     		bx	lr
 3157              	.L404:
 3158 0082 0120     		movs	r0, #1
 3159 0084 7047     		bx	lr
 3160              	.L405:
 3161 0086 0220     		movs	r0, #2
 3162 0088 7047     		bx	lr
 3163              	.L411:
 3164 008a 00BF     		.align	2
 3165              	.L410:
 3166 008c 0000FFFF 		.word	-65536
 3168              		.section	.text.HAL_I2C_Slave_Receive_IT,"ax",%progbits
 3169              		.align	1
 3170              		.global	HAL_I2C_Slave_Receive_IT
 3171              		.syntax unified
 3172              		.thumb
 3173              		.thumb_func
 3175              	HAL_I2C_Slave_Receive_IT:
 3176              		@ args = 0, pretend = 0, frame = 0
 3177              		@ frame_needed = 0, uses_anonymous_args = 0
 3178              		@ link register save eliminated.
 3179 0000 90F83D30 		ldrb	r3, [r0, #61]	@ zero_extendqisi2
 3180 0004 DBB2     		uxtb	r3, r3
 3181 0006 202B     		cmp	r3, #32
 3182 0008 37D1     		bne	.L415
 3183 000a 0029     		cmp	r1, #0
 3184 000c 37D0     		beq	.L416
 3185 000e 002A     		cmp	r2, #0
 3186 0010 37D0     		beq	.L417
 3187 0012 90F83C30 		ldrb	r3, [r0, #60]	@ zero_extendqisi2
 3188 0016 012B     		cmp	r3, #1
 3189 0018 35D0     		beq	.L418
 3190 001a 10B4     		push	{r4}
 3191 001c 0123     		movs	r3, #1
 3192 001e 80F83C30 		strb	r3, [r0, #60]
ARM GAS  C:\Temp\ccVzAG2n.s 			page 56


 3193 0022 0368     		ldr	r3, [r0]
 3194 0024 1C68     		ldr	r4, [r3]
 3195 0026 14F0010F 		tst	r4, #1
 3196 002a 03D1     		bne	.L414
 3197 002c 1C68     		ldr	r4, [r3]
 3198 002e 44F00104 		orr	r4, r4, #1
 3199 0032 1C60     		str	r4, [r3]
 3200              	.L414:
 3201 0034 0468     		ldr	r4, [r0]
 3202 0036 2368     		ldr	r3, [r4]
 3203 0038 23F40063 		bic	r3, r3, #2048
 3204 003c 2360     		str	r3, [r4]
 3205 003e 2223     		movs	r3, #34
 3206 0040 80F83D30 		strb	r3, [r0, #61]
 3207 0044 2023     		movs	r3, #32
 3208 0046 80F83E30 		strb	r3, [r0, #62]
 3209 004a 0023     		movs	r3, #0
 3210 004c 0364     		str	r3, [r0, #64]
 3211 004e 4162     		str	r1, [r0, #36]
 3212 0050 4285     		strh	r2, [r0, #42]	@ movhi
 3213 0052 428D     		ldrh	r2, [r0, #42]
 3214 0054 0285     		strh	r2, [r0, #40]	@ movhi
 3215 0056 0D4A     		ldr	r2, .L423
 3216 0058 C262     		str	r2, [r0, #44]
 3217 005a 0168     		ldr	r1, [r0]
 3218 005c 0A68     		ldr	r2, [r1]
 3219 005e 42F48062 		orr	r2, r2, #1024
 3220 0062 0A60     		str	r2, [r1]
 3221 0064 80F83C30 		strb	r3, [r0, #60]
 3222 0068 0168     		ldr	r1, [r0]
 3223 006a 4A68     		ldr	r2, [r1, #4]
 3224 006c 42F4E062 		orr	r2, r2, #1792
 3225 0070 4A60     		str	r2, [r1, #4]
 3226 0072 1846     		mov	r0, r3
 3227 0074 5DF8044B 		ldr	r4, [sp], #4
 3228 0078 7047     		bx	lr
 3229              	.L415:
 3230 007a 0220     		movs	r0, #2
 3231 007c 7047     		bx	lr
 3232              	.L416:
 3233 007e 0120     		movs	r0, #1
 3234 0080 7047     		bx	lr
 3235              	.L417:
 3236 0082 0120     		movs	r0, #1
 3237 0084 7047     		bx	lr
 3238              	.L418:
 3239 0086 0220     		movs	r0, #2
 3240 0088 7047     		bx	lr
 3241              	.L424:
 3242 008a 00BF     		.align	2
 3243              	.L423:
 3244 008c 0000FFFF 		.word	-65536
 3246              		.section	.text.HAL_I2C_Master_Transmit_DMA,"ax",%progbits
 3247              		.align	1
 3248              		.global	HAL_I2C_Master_Transmit_DMA
 3249              		.syntax unified
 3250              		.thumb
ARM GAS  C:\Temp\ccVzAG2n.s 			page 57


 3251              		.thumb_func
 3253              	HAL_I2C_Master_Transmit_DMA:
 3254              		@ args = 0, pretend = 0, frame = 8
 3255              		@ frame_needed = 0, uses_anonymous_args = 0
 3256 0000 30B5     		push	{r4, r5, lr}
 3257 0002 83B0     		sub	sp, sp, #12
 3258 0004 0546     		mov	r5, r0
 3259 0006 0020     		movs	r0, #0
 3260 0008 0190     		str	r0, [sp, #4]
 3261 000a 95F83D00 		ldrb	r0, [r5, #61]	@ zero_extendqisi2
 3262 000e C0B2     		uxtb	r0, r0
 3263 0010 2028     		cmp	r0, #32
 3264 0012 40F0AA80 		bne	.L435
 3265 0016 5748     		ldr	r0, .L440
 3266 0018 0068     		ldr	r0, [r0]
 3267 001a C008     		lsrs	r0, r0, #3
 3268 001c 564C     		ldr	r4, .L440+4
 3269 001e A4FB0040 		umull	r4, r0, r4, r0
 3270 0022 000A     		lsrs	r0, r0, #8
 3271 0024 00EB8000 		add	r0, r0, r0, lsl #2
 3272 0028 00EB8000 		add	r0, r0, r0, lsl #2
 3273 002c 0190     		str	r0, [sp, #4]
 3274              	.L428:
 3275 002e 019C     		ldr	r4, [sp, #4]
 3276 0030 013C     		subs	r4, r4, #1
 3277 0032 0194     		str	r4, [sp, #4]
 3278 0034 0198     		ldr	r0, [sp, #4]
 3279 0036 0028     		cmp	r0, #0
 3280 0038 51D0     		beq	.L439
 3281 003a 2868     		ldr	r0, [r5]
 3282 003c 8469     		ldr	r4, [r0, #24]
 3283 003e 14F0020F 		tst	r4, #2
 3284 0042 F4D1     		bne	.L428
 3285 0044 95F83C40 		ldrb	r4, [r5, #60]	@ zero_extendqisi2
 3286 0048 012C     		cmp	r4, #1
 3287 004a 00F09180 		beq	.L436
 3288 004e 0124     		movs	r4, #1
 3289 0050 85F83C40 		strb	r4, [r5, #60]
 3290 0054 0468     		ldr	r4, [r0]
 3291 0056 14F0010F 		tst	r4, #1
 3292 005a 03D1     		bne	.L429
 3293 005c 0468     		ldr	r4, [r0]
 3294 005e 44F00104 		orr	r4, r4, #1
 3295 0062 0460     		str	r4, [r0]
 3296              	.L429:
 3297 0064 2C68     		ldr	r4, [r5]
 3298 0066 2068     		ldr	r0, [r4]
 3299 0068 20F40060 		bic	r0, r0, #2048
 3300 006c 2060     		str	r0, [r4]
 3301 006e 2120     		movs	r0, #33
 3302 0070 85F83D00 		strb	r0, [r5, #61]
 3303 0074 1020     		movs	r0, #16
 3304 0076 85F83E00 		strb	r0, [r5, #62]
 3305 007a 0020     		movs	r0, #0
 3306 007c 2864     		str	r0, [r5, #64]
 3307 007e 6A62     		str	r2, [r5, #36]
 3308 0080 6B85     		strh	r3, [r5, #42]	@ movhi
ARM GAS  C:\Temp\ccVzAG2n.s 			page 58


 3309 0082 6B8D     		ldrh	r3, [r5, #42]
 3310 0084 9BB2     		uxth	r3, r3
 3311 0086 2B85     		strh	r3, [r5, #40]	@ movhi
 3312 0088 3C4A     		ldr	r2, .L440+8
 3313 008a EA62     		str	r2, [r5, #44]
 3314 008c 6964     		str	r1, [r5, #68]
 3315 008e 002B     		cmp	r3, #0
 3316 0090 57D0     		beq	.L430
 3317 0092 6B6B     		ldr	r3, [r5, #52]
 3318 0094 002B     		cmp	r3, #0
 3319 0096 2ED0     		beq	.L431
 3320 0098 394A     		ldr	r2, .L440+12
 3321 009a DA63     		str	r2, [r3, #60]
 3322 009c 6B6B     		ldr	r3, [r5, #52]
 3323 009e 394A     		ldr	r2, .L440+16
 3324 00a0 DA64     		str	r2, [r3, #76]
 3325 00a2 6A6B     		ldr	r2, [r5, #52]
 3326 00a4 1064     		str	r0, [r2, #64]
 3327 00a6 6A6B     		ldr	r2, [r5, #52]
 3328 00a8 5064     		str	r0, [r2, #68]
 3329 00aa 6A6B     		ldr	r2, [r5, #52]
 3330 00ac 9064     		str	r0, [r2, #72]
 3331 00ae 6A6B     		ldr	r2, [r5, #52]
 3332 00b0 1065     		str	r0, [r2, #80]
 3333 00b2 2A68     		ldr	r2, [r5]
 3334 00b4 2B8D     		ldrh	r3, [r5, #40]
 3335 00b6 1032     		adds	r2, r2, #16
 3336 00b8 696A     		ldr	r1, [r5, #36]
 3337 00ba 686B     		ldr	r0, [r5, #52]
 3338 00bc FFF7FEFF 		bl	HAL_DMA_Start_IT
 3339 00c0 38B3     		cbz	r0, .L432
 3340 00c2 2023     		movs	r3, #32
 3341 00c4 85F83D30 		strb	r3, [r5, #61]
 3342 00c8 0022     		movs	r2, #0
 3343 00ca 85F83E20 		strb	r2, [r5, #62]
 3344 00ce 2B6C     		ldr	r3, [r5, #64]
 3345 00d0 43F01003 		orr	r3, r3, #16
 3346 00d4 2B64     		str	r3, [r5, #64]
 3347 00d6 85F83C20 		strb	r2, [r5, #60]
 3348 00da 0120     		movs	r0, #1
 3349 00dc 46E0     		b	.L426
 3350              	.L439:
 3351 00de 0023     		movs	r3, #0
 3352 00e0 2B63     		str	r3, [r5, #48]
 3353 00e2 2022     		movs	r2, #32
 3354 00e4 85F83D20 		strb	r2, [r5, #61]
 3355 00e8 85F83E30 		strb	r3, [r5, #62]
 3356 00ec 2B6C     		ldr	r3, [r5, #64]
 3357 00ee 1343     		orrs	r3, r3, r2
 3358 00f0 2B64     		str	r3, [r5, #64]
 3359 00f2 0220     		movs	r0, #2
 3360 00f4 3AE0     		b	.L426
 3361              	.L431:
 3362 00f6 2023     		movs	r3, #32
 3363 00f8 85F83D30 		strb	r3, [r5, #61]
 3364 00fc 0022     		movs	r2, #0
 3365 00fe 85F83E20 		strb	r2, [r5, #62]
ARM GAS  C:\Temp\ccVzAG2n.s 			page 59


 3366 0102 2B6C     		ldr	r3, [r5, #64]
 3367 0104 43F08003 		orr	r3, r3, #128
 3368 0108 2B64     		str	r3, [r5, #64]
 3369 010a 85F83C20 		strb	r2, [r5, #60]
 3370 010e 0120     		movs	r0, #1
 3371 0110 2CE0     		b	.L426
 3372              	.L432:
 3373 0112 0023     		movs	r3, #0
 3374 0114 85F83C30 		strb	r3, [r5, #60]
 3375 0118 2A68     		ldr	r2, [r5]
 3376 011a 5368     		ldr	r3, [r2, #4]
 3377 011c 43F44073 		orr	r3, r3, #768
 3378 0120 5360     		str	r3, [r2, #4]
 3379 0122 2A68     		ldr	r2, [r5]
 3380 0124 5368     		ldr	r3, [r2, #4]
 3381 0126 43F40063 		orr	r3, r3, #2048
 3382 012a 5360     		str	r3, [r2, #4]
 3383 012c 2A68     		ldr	r2, [r5]
 3384 012e 1368     		ldr	r3, [r2]
 3385 0130 43F48063 		orr	r3, r3, #1024
 3386 0134 1360     		str	r3, [r2]
 3387 0136 2A68     		ldr	r2, [r5]
 3388 0138 1368     		ldr	r3, [r2]
 3389 013a 43F48073 		orr	r3, r3, #256
 3390 013e 1360     		str	r3, [r2]
 3391 0140 11E0     		b	.L434
 3392              	.L430:
 3393 0142 2A68     		ldr	r2, [r5]
 3394 0144 1368     		ldr	r3, [r2]
 3395 0146 43F48063 		orr	r3, r3, #1024
 3396 014a 1360     		str	r3, [r2]
 3397 014c 2A68     		ldr	r2, [r5]
 3398 014e 1368     		ldr	r3, [r2]
 3399 0150 43F48073 		orr	r3, r3, #256
 3400 0154 1360     		str	r3, [r2]
 3401 0156 0023     		movs	r3, #0
 3402 0158 85F83C30 		strb	r3, [r5, #60]
 3403 015c 2A68     		ldr	r2, [r5]
 3404 015e 5368     		ldr	r3, [r2, #4]
 3405 0160 43F4E063 		orr	r3, r3, #1792
 3406 0164 5360     		str	r3, [r2, #4]
 3407              	.L434:
 3408 0166 0020     		movs	r0, #0
 3409 0168 00E0     		b	.L426
 3410              	.L435:
 3411 016a 0220     		movs	r0, #2
 3412              	.L426:
 3413 016c 03B0     		add	sp, sp, #12
 3414              		@ sp needed
 3415 016e 30BD     		pop	{r4, r5, pc}
 3416              	.L436:
 3417 0170 0220     		movs	r0, #2
 3418 0172 FBE7     		b	.L426
 3419              	.L441:
 3420              		.align	2
 3421              	.L440:
 3422 0174 00000000 		.word	SystemCoreClock
ARM GAS  C:\Temp\ccVzAG2n.s 			page 60


 3423 0178 89B5F814 		.word	351843721
 3424 017c 0000FFFF 		.word	-65536
 3425 0180 00000000 		.word	I2C_DMAXferCplt
 3426 0184 00000000 		.word	I2C_DMAError
 3428              		.section	.text.HAL_I2C_Master_Receive_DMA,"ax",%progbits
 3429              		.align	1
 3430              		.global	HAL_I2C_Master_Receive_DMA
 3431              		.syntax unified
 3432              		.thumb
 3433              		.thumb_func
 3435              	HAL_I2C_Master_Receive_DMA:
 3436              		@ args = 0, pretend = 0, frame = 8
 3437              		@ frame_needed = 0, uses_anonymous_args = 0
 3438 0000 30B5     		push	{r4, r5, lr}
 3439 0002 83B0     		sub	sp, sp, #12
 3440 0004 0546     		mov	r5, r0
 3441 0006 0020     		movs	r0, #0
 3442 0008 0190     		str	r0, [sp, #4]
 3443 000a 95F83D00 		ldrb	r0, [r5, #61]	@ zero_extendqisi2
 3444 000e C0B2     		uxtb	r0, r0
 3445 0010 2028     		cmp	r0, #32
 3446 0012 40F0AA80 		bne	.L452
 3447 0016 5748     		ldr	r0, .L457
 3448 0018 0068     		ldr	r0, [r0]
 3449 001a C008     		lsrs	r0, r0, #3
 3450 001c 564C     		ldr	r4, .L457+4
 3451 001e A4FB0040 		umull	r4, r0, r4, r0
 3452 0022 000A     		lsrs	r0, r0, #8
 3453 0024 00EB8000 		add	r0, r0, r0, lsl #2
 3454 0028 00EB8000 		add	r0, r0, r0, lsl #2
 3455 002c 0190     		str	r0, [sp, #4]
 3456              	.L445:
 3457 002e 019C     		ldr	r4, [sp, #4]
 3458 0030 013C     		subs	r4, r4, #1
 3459 0032 0194     		str	r4, [sp, #4]
 3460 0034 0198     		ldr	r0, [sp, #4]
 3461 0036 0028     		cmp	r0, #0
 3462 0038 51D0     		beq	.L456
 3463 003a 2868     		ldr	r0, [r5]
 3464 003c 8469     		ldr	r4, [r0, #24]
 3465 003e 14F0020F 		tst	r4, #2
 3466 0042 F4D1     		bne	.L445
 3467 0044 95F83C40 		ldrb	r4, [r5, #60]	@ zero_extendqisi2
 3468 0048 012C     		cmp	r4, #1
 3469 004a 00F09180 		beq	.L453
 3470 004e 0124     		movs	r4, #1
 3471 0050 85F83C40 		strb	r4, [r5, #60]
 3472 0054 0468     		ldr	r4, [r0]
 3473 0056 14F0010F 		tst	r4, #1
 3474 005a 03D1     		bne	.L446
 3475 005c 0468     		ldr	r4, [r0]
 3476 005e 44F00104 		orr	r4, r4, #1
 3477 0062 0460     		str	r4, [r0]
 3478              	.L446:
 3479 0064 2C68     		ldr	r4, [r5]
 3480 0066 2068     		ldr	r0, [r4]
 3481 0068 20F40060 		bic	r0, r0, #2048
ARM GAS  C:\Temp\ccVzAG2n.s 			page 61


 3482 006c 2060     		str	r0, [r4]
 3483 006e 2220     		movs	r0, #34
 3484 0070 85F83D00 		strb	r0, [r5, #61]
 3485 0074 1020     		movs	r0, #16
 3486 0076 85F83E00 		strb	r0, [r5, #62]
 3487 007a 0020     		movs	r0, #0
 3488 007c 2864     		str	r0, [r5, #64]
 3489 007e 6A62     		str	r2, [r5, #36]
 3490 0080 6B85     		strh	r3, [r5, #42]	@ movhi
 3491 0082 6B8D     		ldrh	r3, [r5, #42]
 3492 0084 9BB2     		uxth	r3, r3
 3493 0086 2B85     		strh	r3, [r5, #40]	@ movhi
 3494 0088 3C4A     		ldr	r2, .L457+8
 3495 008a EA62     		str	r2, [r5, #44]
 3496 008c 6964     		str	r1, [r5, #68]
 3497 008e 002B     		cmp	r3, #0
 3498 0090 57D0     		beq	.L447
 3499 0092 AB6B     		ldr	r3, [r5, #56]
 3500 0094 002B     		cmp	r3, #0
 3501 0096 2ED0     		beq	.L448
 3502 0098 394A     		ldr	r2, .L457+12
 3503 009a DA63     		str	r2, [r3, #60]
 3504 009c AB6B     		ldr	r3, [r5, #56]
 3505 009e 394A     		ldr	r2, .L457+16
 3506 00a0 DA64     		str	r2, [r3, #76]
 3507 00a2 AA6B     		ldr	r2, [r5, #56]
 3508 00a4 1064     		str	r0, [r2, #64]
 3509 00a6 AA6B     		ldr	r2, [r5, #56]
 3510 00a8 5064     		str	r0, [r2, #68]
 3511 00aa AA6B     		ldr	r2, [r5, #56]
 3512 00ac 9064     		str	r0, [r2, #72]
 3513 00ae AA6B     		ldr	r2, [r5, #56]
 3514 00b0 1065     		str	r0, [r2, #80]
 3515 00b2 2968     		ldr	r1, [r5]
 3516 00b4 2B8D     		ldrh	r3, [r5, #40]
 3517 00b6 6A6A     		ldr	r2, [r5, #36]
 3518 00b8 1031     		adds	r1, r1, #16
 3519 00ba A86B     		ldr	r0, [r5, #56]
 3520 00bc FFF7FEFF 		bl	HAL_DMA_Start_IT
 3521 00c0 38B3     		cbz	r0, .L449
 3522 00c2 2023     		movs	r3, #32
 3523 00c4 85F83D30 		strb	r3, [r5, #61]
 3524 00c8 0022     		movs	r2, #0
 3525 00ca 85F83E20 		strb	r2, [r5, #62]
 3526 00ce 2B6C     		ldr	r3, [r5, #64]
 3527 00d0 43F01003 		orr	r3, r3, #16
 3528 00d4 2B64     		str	r3, [r5, #64]
 3529 00d6 85F83C20 		strb	r2, [r5, #60]
 3530 00da 0120     		movs	r0, #1
 3531 00dc 46E0     		b	.L443
 3532              	.L456:
 3533 00de 0023     		movs	r3, #0
 3534 00e0 2B63     		str	r3, [r5, #48]
 3535 00e2 2022     		movs	r2, #32
 3536 00e4 85F83D20 		strb	r2, [r5, #61]
 3537 00e8 85F83E30 		strb	r3, [r5, #62]
 3538 00ec 2B6C     		ldr	r3, [r5, #64]
ARM GAS  C:\Temp\ccVzAG2n.s 			page 62


 3539 00ee 1343     		orrs	r3, r3, r2
 3540 00f0 2B64     		str	r3, [r5, #64]
 3541 00f2 0220     		movs	r0, #2
 3542 00f4 3AE0     		b	.L443
 3543              	.L448:
 3544 00f6 2023     		movs	r3, #32
 3545 00f8 85F83D30 		strb	r3, [r5, #61]
 3546 00fc 0022     		movs	r2, #0
 3547 00fe 85F83E20 		strb	r2, [r5, #62]
 3548 0102 2B6C     		ldr	r3, [r5, #64]
 3549 0104 43F08003 		orr	r3, r3, #128
 3550 0108 2B64     		str	r3, [r5, #64]
 3551 010a 85F83C20 		strb	r2, [r5, #60]
 3552 010e 0120     		movs	r0, #1
 3553 0110 2CE0     		b	.L443
 3554              	.L449:
 3555 0112 2A68     		ldr	r2, [r5]
 3556 0114 1368     		ldr	r3, [r2]
 3557 0116 43F48063 		orr	r3, r3, #1024
 3558 011a 1360     		str	r3, [r2]
 3559 011c 2A68     		ldr	r2, [r5]
 3560 011e 1368     		ldr	r3, [r2]
 3561 0120 43F48073 		orr	r3, r3, #256
 3562 0124 1360     		str	r3, [r2]
 3563 0126 0023     		movs	r3, #0
 3564 0128 85F83C30 		strb	r3, [r5, #60]
 3565 012c 2A68     		ldr	r2, [r5]
 3566 012e 5368     		ldr	r3, [r2, #4]
 3567 0130 43F44073 		orr	r3, r3, #768
 3568 0134 5360     		str	r3, [r2, #4]
 3569 0136 2A68     		ldr	r2, [r5]
 3570 0138 5368     		ldr	r3, [r2, #4]
 3571 013a 43F40063 		orr	r3, r3, #2048
 3572 013e 5360     		str	r3, [r2, #4]
 3573 0140 11E0     		b	.L451
 3574              	.L447:
 3575 0142 0023     		movs	r3, #0
 3576 0144 85F83C30 		strb	r3, [r5, #60]
 3577 0148 2A68     		ldr	r2, [r5]
 3578 014a 5368     		ldr	r3, [r2, #4]
 3579 014c 43F4E063 		orr	r3, r3, #1792
 3580 0150 5360     		str	r3, [r2, #4]
 3581 0152 2A68     		ldr	r2, [r5]
 3582 0154 1368     		ldr	r3, [r2]
 3583 0156 43F48063 		orr	r3, r3, #1024
 3584 015a 1360     		str	r3, [r2]
 3585 015c 2A68     		ldr	r2, [r5]
 3586 015e 1368     		ldr	r3, [r2]
 3587 0160 43F48073 		orr	r3, r3, #256
 3588 0164 1360     		str	r3, [r2]
 3589              	.L451:
 3590 0166 0020     		movs	r0, #0
 3591 0168 00E0     		b	.L443
 3592              	.L452:
 3593 016a 0220     		movs	r0, #2
 3594              	.L443:
 3595 016c 03B0     		add	sp, sp, #12
ARM GAS  C:\Temp\ccVzAG2n.s 			page 63


 3596              		@ sp needed
 3597 016e 30BD     		pop	{r4, r5, pc}
 3598              	.L453:
 3599 0170 0220     		movs	r0, #2
 3600 0172 FBE7     		b	.L443
 3601              	.L458:
 3602              		.align	2
 3603              	.L457:
 3604 0174 00000000 		.word	SystemCoreClock
 3605 0178 89B5F814 		.word	351843721
 3606 017c 0000FFFF 		.word	-65536
 3607 0180 00000000 		.word	I2C_DMAXferCplt
 3608 0184 00000000 		.word	I2C_DMAError
 3610              		.section	.text.HAL_I2C_Slave_Transmit_DMA,"ax",%progbits
 3611              		.align	1
 3612              		.global	HAL_I2C_Slave_Transmit_DMA
 3613              		.syntax unified
 3614              		.thumb
 3615              		.thumb_func
 3617              	HAL_I2C_Slave_Transmit_DMA:
 3618              		@ args = 0, pretend = 0, frame = 0
 3619              		@ frame_needed = 0, uses_anonymous_args = 0
 3620 0000 90F83D30 		ldrb	r3, [r0, #61]	@ zero_extendqisi2
 3621 0004 DBB2     		uxtb	r3, r3
 3622 0006 202B     		cmp	r3, #32
 3623 0008 6FD1     		bne	.L465
 3624 000a 10B5     		push	{r4, lr}
 3625 000c 0446     		mov	r4, r0
 3626 000e 0029     		cmp	r1, #0
 3627 0010 6DD0     		beq	.L466
 3628 0012 002A     		cmp	r2, #0
 3629 0014 6DD0     		beq	.L467
 3630 0016 90F83C30 		ldrb	r3, [r0, #60]	@ zero_extendqisi2
 3631 001a 012B     		cmp	r3, #1
 3632 001c 6BD0     		beq	.L468
 3633 001e 0123     		movs	r3, #1
 3634 0020 80F83C30 		strb	r3, [r0, #60]
 3635 0024 0368     		ldr	r3, [r0]
 3636 0026 1868     		ldr	r0, [r3]
 3637 0028 10F0010F 		tst	r0, #1
 3638 002c 03D1     		bne	.L461
 3639 002e 1868     		ldr	r0, [r3]
 3640 0030 40F00100 		orr	r0, r0, #1
 3641 0034 1860     		str	r0, [r3]
 3642              	.L461:
 3643 0036 2068     		ldr	r0, [r4]
 3644 0038 0368     		ldr	r3, [r0]
 3645 003a 23F40063 		bic	r3, r3, #2048
 3646 003e 0360     		str	r3, [r0]
 3647 0040 2123     		movs	r3, #33
 3648 0042 84F83D30 		strb	r3, [r4, #61]
 3649 0046 2023     		movs	r3, #32
 3650 0048 84F83E30 		strb	r3, [r4, #62]
 3651 004c 0023     		movs	r3, #0
 3652 004e 2364     		str	r3, [r4, #64]
 3653 0050 6162     		str	r1, [r4, #36]
 3654 0052 6285     		strh	r2, [r4, #42]	@ movhi
ARM GAS  C:\Temp\ccVzAG2n.s 			page 64


 3655 0054 638D     		ldrh	r3, [r4, #42]
 3656 0056 2385     		strh	r3, [r4, #40]	@ movhi
 3657 0058 284B     		ldr	r3, .L474
 3658 005a E362     		str	r3, [r4, #44]
 3659 005c 636B     		ldr	r3, [r4, #52]
 3660 005e 1BB3     		cbz	r3, .L462
 3661 0060 274A     		ldr	r2, .L474+4
 3662 0062 DA63     		str	r2, [r3, #60]
 3663 0064 636B     		ldr	r3, [r4, #52]
 3664 0066 274A     		ldr	r2, .L474+8
 3665 0068 DA64     		str	r2, [r3, #76]
 3666 006a 626B     		ldr	r2, [r4, #52]
 3667 006c 0023     		movs	r3, #0
 3668 006e 1364     		str	r3, [r2, #64]
 3669 0070 626B     		ldr	r2, [r4, #52]
 3670 0072 5364     		str	r3, [r2, #68]
 3671 0074 626B     		ldr	r2, [r4, #52]
 3672 0076 9364     		str	r3, [r2, #72]
 3673 0078 626B     		ldr	r2, [r4, #52]
 3674 007a 1365     		str	r3, [r2, #80]
 3675 007c 2268     		ldr	r2, [r4]
 3676 007e 238D     		ldrh	r3, [r4, #40]
 3677 0080 1032     		adds	r2, r2, #16
 3678 0082 616A     		ldr	r1, [r4, #36]
 3679 0084 606B     		ldr	r0, [r4, #52]
 3680 0086 FFF7FEFF 		bl	HAL_DMA_Start_IT
 3681 008a D8B1     		cbz	r0, .L463
 3682 008c 2023     		movs	r3, #32
 3683 008e 84F83D30 		strb	r3, [r4, #61]
 3684 0092 0022     		movs	r2, #0
 3685 0094 84F83E20 		strb	r2, [r4, #62]
 3686 0098 236C     		ldr	r3, [r4, #64]
 3687 009a 43F01003 		orr	r3, r3, #16
 3688 009e 2364     		str	r3, [r4, #64]
 3689 00a0 84F83C20 		strb	r2, [r4, #60]
 3690 00a4 0120     		movs	r0, #1
 3691 00a6 25E0     		b	.L460
 3692              	.L462:
 3693 00a8 2823     		movs	r3, #40
 3694 00aa 84F83D30 		strb	r3, [r4, #61]
 3695 00ae 0022     		movs	r2, #0
 3696 00b0 84F83E20 		strb	r2, [r4, #62]
 3697 00b4 236C     		ldr	r3, [r4, #64]
 3698 00b6 43F08003 		orr	r3, r3, #128
 3699 00ba 2364     		str	r3, [r4, #64]
 3700 00bc 84F83C20 		strb	r2, [r4, #60]
 3701 00c0 0120     		movs	r0, #1
 3702 00c2 17E0     		b	.L460
 3703              	.L463:
 3704 00c4 2268     		ldr	r2, [r4]
 3705 00c6 1368     		ldr	r3, [r2]
 3706 00c8 43F48063 		orr	r3, r3, #1024
 3707 00cc 1360     		str	r3, [r2]
 3708 00ce 0023     		movs	r3, #0
 3709 00d0 84F83C30 		strb	r3, [r4, #60]
 3710 00d4 2268     		ldr	r2, [r4]
 3711 00d6 5368     		ldr	r3, [r2, #4]
ARM GAS  C:\Temp\ccVzAG2n.s 			page 65


 3712 00d8 43F44073 		orr	r3, r3, #768
 3713 00dc 5360     		str	r3, [r2, #4]
 3714 00de 2268     		ldr	r2, [r4]
 3715 00e0 5368     		ldr	r3, [r2, #4]
 3716 00e2 43F40063 		orr	r3, r3, #2048
 3717 00e6 5360     		str	r3, [r2, #4]
 3718 00e8 04E0     		b	.L460
 3719              	.L465:
 3720 00ea 0220     		movs	r0, #2
 3721 00ec 7047     		bx	lr
 3722              	.L466:
 3723 00ee 0120     		movs	r0, #1
 3724 00f0 00E0     		b	.L460
 3725              	.L467:
 3726 00f2 0120     		movs	r0, #1
 3727              	.L460:
 3728 00f4 10BD     		pop	{r4, pc}
 3729              	.L468:
 3730 00f6 0220     		movs	r0, #2
 3731 00f8 FCE7     		b	.L460
 3732              	.L475:
 3733 00fa 00BF     		.align	2
 3734              	.L474:
 3735 00fc 0000FFFF 		.word	-65536
 3736 0100 00000000 		.word	I2C_DMAXferCplt
 3737 0104 00000000 		.word	I2C_DMAError
 3739              		.section	.text.HAL_I2C_Slave_Receive_DMA,"ax",%progbits
 3740              		.align	1
 3741              		.global	HAL_I2C_Slave_Receive_DMA
 3742              		.syntax unified
 3743              		.thumb
 3744              		.thumb_func
 3746              	HAL_I2C_Slave_Receive_DMA:
 3747              		@ args = 0, pretend = 0, frame = 0
 3748              		@ frame_needed = 0, uses_anonymous_args = 0
 3749 0000 90F83D30 		ldrb	r3, [r0, #61]	@ zero_extendqisi2
 3750 0004 DBB2     		uxtb	r3, r3
 3751 0006 202B     		cmp	r3, #32
 3752 0008 6FD1     		bne	.L482
 3753 000a 10B5     		push	{r4, lr}
 3754 000c 0446     		mov	r4, r0
 3755 000e 0029     		cmp	r1, #0
 3756 0010 6DD0     		beq	.L483
 3757 0012 002A     		cmp	r2, #0
 3758 0014 6DD0     		beq	.L484
 3759 0016 90F83C30 		ldrb	r3, [r0, #60]	@ zero_extendqisi2
 3760 001a 012B     		cmp	r3, #1
 3761 001c 6BD0     		beq	.L485
 3762 001e 0123     		movs	r3, #1
 3763 0020 80F83C30 		strb	r3, [r0, #60]
 3764 0024 0368     		ldr	r3, [r0]
 3765 0026 1868     		ldr	r0, [r3]
 3766 0028 10F0010F 		tst	r0, #1
 3767 002c 03D1     		bne	.L478
 3768 002e 1868     		ldr	r0, [r3]
 3769 0030 40F00100 		orr	r0, r0, #1
 3770 0034 1860     		str	r0, [r3]
ARM GAS  C:\Temp\ccVzAG2n.s 			page 66


 3771              	.L478:
 3772 0036 2068     		ldr	r0, [r4]
 3773 0038 0368     		ldr	r3, [r0]
 3774 003a 23F40063 		bic	r3, r3, #2048
 3775 003e 0360     		str	r3, [r0]
 3776 0040 2223     		movs	r3, #34
 3777 0042 84F83D30 		strb	r3, [r4, #61]
 3778 0046 2023     		movs	r3, #32
 3779 0048 84F83E30 		strb	r3, [r4, #62]
 3780 004c 0023     		movs	r3, #0
 3781 004e 2364     		str	r3, [r4, #64]
 3782 0050 6162     		str	r1, [r4, #36]
 3783 0052 6285     		strh	r2, [r4, #42]	@ movhi
 3784 0054 638D     		ldrh	r3, [r4, #42]
 3785 0056 2385     		strh	r3, [r4, #40]	@ movhi
 3786 0058 284B     		ldr	r3, .L491
 3787 005a E362     		str	r3, [r4, #44]
 3788 005c A36B     		ldr	r3, [r4, #56]
 3789 005e 1BB3     		cbz	r3, .L479
 3790 0060 274A     		ldr	r2, .L491+4
 3791 0062 DA63     		str	r2, [r3, #60]
 3792 0064 A36B     		ldr	r3, [r4, #56]
 3793 0066 274A     		ldr	r2, .L491+8
 3794 0068 DA64     		str	r2, [r3, #76]
 3795 006a A26B     		ldr	r2, [r4, #56]
 3796 006c 0023     		movs	r3, #0
 3797 006e 1364     		str	r3, [r2, #64]
 3798 0070 A26B     		ldr	r2, [r4, #56]
 3799 0072 5364     		str	r3, [r2, #68]
 3800 0074 A26B     		ldr	r2, [r4, #56]
 3801 0076 9364     		str	r3, [r2, #72]
 3802 0078 A26B     		ldr	r2, [r4, #56]
 3803 007a 1365     		str	r3, [r2, #80]
 3804 007c 2168     		ldr	r1, [r4]
 3805 007e 238D     		ldrh	r3, [r4, #40]
 3806 0080 626A     		ldr	r2, [r4, #36]
 3807 0082 1031     		adds	r1, r1, #16
 3808 0084 A06B     		ldr	r0, [r4, #56]
 3809 0086 FFF7FEFF 		bl	HAL_DMA_Start_IT
 3810 008a D8B1     		cbz	r0, .L480
 3811 008c 2023     		movs	r3, #32
 3812 008e 84F83D30 		strb	r3, [r4, #61]
 3813 0092 0022     		movs	r2, #0
 3814 0094 84F83E20 		strb	r2, [r4, #62]
 3815 0098 236C     		ldr	r3, [r4, #64]
 3816 009a 43F01003 		orr	r3, r3, #16
 3817 009e 2364     		str	r3, [r4, #64]
 3818 00a0 84F83C20 		strb	r2, [r4, #60]
 3819 00a4 0120     		movs	r0, #1
 3820 00a6 25E0     		b	.L477
 3821              	.L479:
 3822 00a8 2823     		movs	r3, #40
 3823 00aa 84F83D30 		strb	r3, [r4, #61]
 3824 00ae 0022     		movs	r2, #0
 3825 00b0 84F83E20 		strb	r2, [r4, #62]
 3826 00b4 236C     		ldr	r3, [r4, #64]
 3827 00b6 43F08003 		orr	r3, r3, #128
ARM GAS  C:\Temp\ccVzAG2n.s 			page 67


 3828 00ba 2364     		str	r3, [r4, #64]
 3829 00bc 84F83C20 		strb	r2, [r4, #60]
 3830 00c0 0120     		movs	r0, #1
 3831 00c2 17E0     		b	.L477
 3832              	.L480:
 3833 00c4 2268     		ldr	r2, [r4]
 3834 00c6 1368     		ldr	r3, [r2]
 3835 00c8 43F48063 		orr	r3, r3, #1024
 3836 00cc 1360     		str	r3, [r2]
 3837 00ce 0023     		movs	r3, #0
 3838 00d0 84F83C30 		strb	r3, [r4, #60]
 3839 00d4 2268     		ldr	r2, [r4]
 3840 00d6 5368     		ldr	r3, [r2, #4]
 3841 00d8 43F44073 		orr	r3, r3, #768
 3842 00dc 5360     		str	r3, [r2, #4]
 3843 00de 2268     		ldr	r2, [r4]
 3844 00e0 5368     		ldr	r3, [r2, #4]
 3845 00e2 43F40063 		orr	r3, r3, #2048
 3846 00e6 5360     		str	r3, [r2, #4]
 3847 00e8 04E0     		b	.L477
 3848              	.L482:
 3849 00ea 0220     		movs	r0, #2
 3850 00ec 7047     		bx	lr
 3851              	.L483:
 3852 00ee 0120     		movs	r0, #1
 3853 00f0 00E0     		b	.L477
 3854              	.L484:
 3855 00f2 0120     		movs	r0, #1
 3856              	.L477:
 3857 00f4 10BD     		pop	{r4, pc}
 3858              	.L485:
 3859 00f6 0220     		movs	r0, #2
 3860 00f8 FCE7     		b	.L477
 3861              	.L492:
 3862 00fa 00BF     		.align	2
 3863              	.L491:
 3864 00fc 0000FFFF 		.word	-65536
 3865 0100 00000000 		.word	I2C_DMAXferCplt
 3866 0104 00000000 		.word	I2C_DMAError
 3868              		.section	.text.HAL_I2C_Mem_Write,"ax",%progbits
 3869              		.align	1
 3870              		.global	HAL_I2C_Mem_Write
 3871              		.syntax unified
 3872              		.thumb
 3873              		.thumb_func
 3875              	HAL_I2C_Mem_Write:
 3876              		@ args = 12, pretend = 0, frame = 0
 3877              		@ frame_needed = 0, uses_anonymous_args = 0
 3878 0000 2DE9F043 		push	{r4, r5, r6, r7, r8, r9, lr}
 3879 0004 83B0     		sub	sp, sp, #12
 3880 0006 0446     		mov	r4, r0
 3881 0008 8846     		mov	r8, r1
 3882 000a 9146     		mov	r9, r2
 3883 000c 1F46     		mov	r7, r3
 3884 000e 0C9E     		ldr	r6, [sp, #48]
 3885 0010 FFF7FEFF 		bl	HAL_GetTick
 3886 0014 0546     		mov	r5, r0
ARM GAS  C:\Temp\ccVzAG2n.s 			page 68


 3887 0016 012F     		cmp	r7, #1
 3888 0018 01D0     		beq	.L494
 3889 001a 102F     		cmp	r7, #16
 3890 001c 08D1     		bne	.L509
 3891              	.L494:
 3892 001e 94F83D30 		ldrb	r3, [r4, #61]	@ zero_extendqisi2
 3893 0022 DBB2     		uxtb	r3, r3
 3894 0024 202B     		cmp	r3, #32
 3895 0026 09D0     		beq	.L510
 3896 0028 0220     		movs	r0, #2
 3897              	.L495:
 3898 002a 03B0     		add	sp, sp, #12
 3899              		@ sp needed
 3900 002c BDE8F083 		pop	{r4, r5, r6, r7, r8, r9, pc}
 3901              	.L509:
 3902 0030 40F6CD11 		movw	r1, #2509
 3903 0034 4E48     		ldr	r0, .L516
 3904 0036 FFF7FEFF 		bl	assert_failed
 3905 003a F0E7     		b	.L494
 3906              	.L510:
 3907 003c 0095     		str	r5, [sp]
 3908 003e 1923     		movs	r3, #25
 3909 0040 0122     		movs	r2, #1
 3910 0042 4C49     		ldr	r1, .L516+4
 3911 0044 2046     		mov	r0, r4
 3912 0046 FFF7FEFF 		bl	I2C_WaitOnFlagUntilTimeout
 3913 004a 0028     		cmp	r0, #0
 3914 004c 40F08980 		bne	.L505
 3915 0050 94F83C30 		ldrb	r3, [r4, #60]	@ zero_extendqisi2
 3916 0054 012B     		cmp	r3, #1
 3917 0056 00F08680 		beq	.L506
 3918 005a 0123     		movs	r3, #1
 3919 005c 84F83C30 		strb	r3, [r4, #60]
 3920 0060 2368     		ldr	r3, [r4]
 3921 0062 1A68     		ldr	r2, [r3]
 3922 0064 12F0010F 		tst	r2, #1
 3923 0068 03D1     		bne	.L496
 3924 006a 1A68     		ldr	r2, [r3]
 3925 006c 42F00102 		orr	r2, r2, #1
 3926 0070 1A60     		str	r2, [r3]
 3927              	.L496:
 3928 0072 2268     		ldr	r2, [r4]
 3929 0074 1368     		ldr	r3, [r2]
 3930 0076 23F40063 		bic	r3, r3, #2048
 3931 007a 1360     		str	r3, [r2]
 3932 007c 2123     		movs	r3, #33
 3933 007e 84F83D30 		strb	r3, [r4, #61]
 3934 0082 4023     		movs	r3, #64
 3935 0084 84F83E30 		strb	r3, [r4, #62]
 3936 0088 0023     		movs	r3, #0
 3937 008a 2364     		str	r3, [r4, #64]
 3938 008c 0A9B     		ldr	r3, [sp, #40]
 3939 008e 6362     		str	r3, [r4, #36]
 3940 0090 BDF82C30 		ldrh	r3, [sp, #44]
 3941 0094 6385     		strh	r3, [r4, #42]	@ movhi
 3942 0096 638D     		ldrh	r3, [r4, #42]
 3943 0098 2385     		strh	r3, [r4, #40]	@ movhi
ARM GAS  C:\Temp\ccVzAG2n.s 			page 69


 3944 009a 374B     		ldr	r3, .L516+8
 3945 009c E362     		str	r3, [r4, #44]
 3946 009e 0195     		str	r5, [sp, #4]
 3947 00a0 0096     		str	r6, [sp]
 3948 00a2 3B46     		mov	r3, r7
 3949 00a4 4A46     		mov	r2, r9
 3950 00a6 4146     		mov	r1, r8
 3951 00a8 2046     		mov	r0, r4
 3952 00aa FFF7FEFF 		bl	I2C_RequestMemoryWrite
 3953 00ae 0028     		cmp	r0, #0
 3954 00b0 5BD1     		bne	.L511
 3955              	.L497:
 3956 00b2 238D     		ldrh	r3, [r4, #40]
 3957 00b4 002B     		cmp	r3, #0
 3958 00b6 35D0     		beq	.L512
 3959 00b8 2A46     		mov	r2, r5
 3960 00ba 3146     		mov	r1, r6
 3961 00bc 2046     		mov	r0, r4
 3962 00be FFF7FEFF 		bl	I2C_WaitOnTXEFlagUntilTimeout
 3963 00c2 20BB     		cbnz	r0, .L513
 3964 00c4 626A     		ldr	r2, [r4, #36]
 3965 00c6 2368     		ldr	r3, [r4]
 3966 00c8 1278     		ldrb	r2, [r2]	@ zero_extendqisi2
 3967 00ca 1A61     		str	r2, [r3, #16]
 3968 00cc 626A     		ldr	r2, [r4, #36]
 3969 00ce 531C     		adds	r3, r2, #1
 3970 00d0 6362     		str	r3, [r4, #36]
 3971 00d2 218D     		ldrh	r1, [r4, #40]
 3972 00d4 0139     		subs	r1, r1, #1
 3973 00d6 89B2     		uxth	r1, r1
 3974 00d8 2185     		strh	r1, [r4, #40]	@ movhi
 3975 00da 638D     		ldrh	r3, [r4, #42]
 3976 00dc 9BB2     		uxth	r3, r3
 3977 00de 013B     		subs	r3, r3, #1
 3978 00e0 9BB2     		uxth	r3, r3
 3979 00e2 6385     		strh	r3, [r4, #42]	@ movhi
 3980 00e4 2368     		ldr	r3, [r4]
 3981 00e6 5869     		ldr	r0, [r3, #20]
 3982 00e8 10F0040F 		tst	r0, #4
 3983 00ec E1D0     		beq	.L497
 3984 00ee 0029     		cmp	r1, #0
 3985 00f0 DFD0     		beq	.L497
 3986 00f2 5278     		ldrb	r2, [r2, #1]	@ zero_extendqisi2
 3987 00f4 1A61     		str	r2, [r3, #16]
 3988 00f6 636A     		ldr	r3, [r4, #36]
 3989 00f8 0133     		adds	r3, r3, #1
 3990 00fa 6362     		str	r3, [r4, #36]
 3991 00fc 238D     		ldrh	r3, [r4, #40]
 3992 00fe 013B     		subs	r3, r3, #1
 3993 0100 2385     		strh	r3, [r4, #40]	@ movhi
 3994 0102 638D     		ldrh	r3, [r4, #42]
 3995 0104 9BB2     		uxth	r3, r3
 3996 0106 013B     		subs	r3, r3, #1
 3997 0108 9BB2     		uxth	r3, r3
 3998 010a 6385     		strh	r3, [r4, #42]	@ movhi
 3999 010c D1E7     		b	.L497
 4000              	.L513:
ARM GAS  C:\Temp\ccVzAG2n.s 			page 70


 4001 010e 236C     		ldr	r3, [r4, #64]
 4002 0110 042B     		cmp	r3, #4
 4003 0112 01D0     		beq	.L514
 4004              	.L499:
 4005 0114 0120     		movs	r0, #1
 4006 0116 88E7     		b	.L495
 4007              	.L514:
 4008 0118 2268     		ldr	r2, [r4]
 4009 011a 1368     		ldr	r3, [r2]
 4010 011c 43F40073 		orr	r3, r3, #512
 4011 0120 1360     		str	r3, [r2]
 4012 0122 F7E7     		b	.L499
 4013              	.L512:
 4014 0124 2A46     		mov	r2, r5
 4015 0126 3146     		mov	r1, r6
 4016 0128 2046     		mov	r0, r4
 4017 012a FFF7FEFF 		bl	I2C_WaitOnBTFFlagUntilTimeout
 4018 012e 50B1     		cbz	r0, .L502
 4019 0130 236C     		ldr	r3, [r4, #64]
 4020 0132 042B     		cmp	r3, #4
 4021 0134 01D0     		beq	.L515
 4022              	.L503:
 4023 0136 0120     		movs	r0, #1
 4024 0138 77E7     		b	.L495
 4025              	.L515:
 4026 013a 2268     		ldr	r2, [r4]
 4027 013c 1368     		ldr	r3, [r2]
 4028 013e 43F40073 		orr	r3, r3, #512
 4029 0142 1360     		str	r3, [r2]
 4030 0144 F7E7     		b	.L503
 4031              	.L502:
 4032 0146 2268     		ldr	r2, [r4]
 4033 0148 1368     		ldr	r3, [r2]
 4034 014a 43F40073 		orr	r3, r3, #512
 4035 014e 1360     		str	r3, [r2]
 4036 0150 2023     		movs	r3, #32
 4037 0152 84F83D30 		strb	r3, [r4, #61]
 4038 0156 0023     		movs	r3, #0
 4039 0158 84F83E30 		strb	r3, [r4, #62]
 4040 015c 84F83C30 		strb	r3, [r4, #60]
 4041 0160 63E7     		b	.L495
 4042              	.L505:
 4043 0162 0220     		movs	r0, #2
 4044 0164 61E7     		b	.L495
 4045              	.L506:
 4046 0166 0220     		movs	r0, #2
 4047 0168 5FE7     		b	.L495
 4048              	.L511:
 4049 016a 0120     		movs	r0, #1
 4050 016c 5DE7     		b	.L495
 4051              	.L517:
 4052 016e 00BF     		.align	2
 4053              	.L516:
 4054 0170 00000000 		.word	.LC0
 4055 0174 02001000 		.word	1048578
 4056 0178 0000FFFF 		.word	-65536
 4058              		.section	.text.HAL_I2C_Mem_Read,"ax",%progbits
ARM GAS  C:\Temp\ccVzAG2n.s 			page 71


 4059              		.align	1
 4060              		.global	HAL_I2C_Mem_Read
 4061              		.syntax unified
 4062              		.thumb
 4063              		.thumb_func
 4065              	HAL_I2C_Mem_Read:
 4066              		@ args = 12, pretend = 0, frame = 16
 4067              		@ frame_needed = 0, uses_anonymous_args = 0
 4068 0000 2DE9F043 		push	{r4, r5, r6, r7, r8, r9, lr}
 4069 0004 87B0     		sub	sp, sp, #28
 4070 0006 0446     		mov	r4, r0
 4071 0008 8846     		mov	r8, r1
 4072 000a 9146     		mov	r9, r2
 4073 000c 1F46     		mov	r7, r3
 4074 000e 109E     		ldr	r6, [sp, #64]
 4075 0010 FFF7FEFF 		bl	HAL_GetTick
 4076 0014 0546     		mov	r5, r0
 4077 0016 012F     		cmp	r7, #1
 4078 0018 01D0     		beq	.L519
 4079 001a 102F     		cmp	r7, #16
 4080 001c 09D1     		bne	.L543
 4081              	.L519:
 4082 001e 94F83D30 		ldrb	r3, [r4, #61]	@ zero_extendqisi2
 4083 0022 DBB2     		uxtb	r3, r3
 4084 0024 202B     		cmp	r3, #32
 4085 0026 0AD0     		beq	.L544
 4086 0028 0227     		movs	r7, #2
 4087              	.L520:
 4088 002a 3846     		mov	r0, r7
 4089 002c 07B0     		add	sp, sp, #28
 4090              		@ sp needed
 4091 002e BDE8F083 		pop	{r4, r5, r6, r7, r8, r9, pc}
 4092              	.L543:
 4093 0032 40F64821 		movw	r1, #2632
 4094 0036 8C48     		ldr	r0, .L551
 4095 0038 FFF7FEFF 		bl	assert_failed
 4096 003c EFE7     		b	.L519
 4097              	.L544:
 4098 003e 0095     		str	r5, [sp]
 4099 0040 1923     		movs	r3, #25
 4100 0042 0122     		movs	r2, #1
 4101 0044 8949     		ldr	r1, .L551+4
 4102 0046 2046     		mov	r0, r4
 4103 0048 FFF7FEFF 		bl	I2C_WaitOnFlagUntilTimeout
 4104 004c 0028     		cmp	r0, #0
 4105 004e 40F04F81 		bne	.L534
 4106 0052 94F83C30 		ldrb	r3, [r4, #60]	@ zero_extendqisi2
 4107 0056 012B     		cmp	r3, #1
 4108 0058 00F04C81 		beq	.L535
 4109 005c 0123     		movs	r3, #1
 4110 005e 84F83C30 		strb	r3, [r4, #60]
 4111 0062 2368     		ldr	r3, [r4]
 4112 0064 1A68     		ldr	r2, [r3]
 4113 0066 12F0010F 		tst	r2, #1
 4114 006a 03D1     		bne	.L521
 4115 006c 1A68     		ldr	r2, [r3]
 4116 006e 42F00102 		orr	r2, r2, #1
ARM GAS  C:\Temp\ccVzAG2n.s 			page 72


 4117 0072 1A60     		str	r2, [r3]
 4118              	.L521:
 4119 0074 2268     		ldr	r2, [r4]
 4120 0076 1368     		ldr	r3, [r2]
 4121 0078 23F40063 		bic	r3, r3, #2048
 4122 007c 1360     		str	r3, [r2]
 4123 007e 2223     		movs	r3, #34
 4124 0080 84F83D30 		strb	r3, [r4, #61]
 4125 0084 4023     		movs	r3, #64
 4126 0086 84F83E30 		strb	r3, [r4, #62]
 4127 008a 0023     		movs	r3, #0
 4128 008c 2364     		str	r3, [r4, #64]
 4129 008e 0E9B     		ldr	r3, [sp, #56]
 4130 0090 6362     		str	r3, [r4, #36]
 4131 0092 BDF83C30 		ldrh	r3, [sp, #60]
 4132 0096 6385     		strh	r3, [r4, #42]	@ movhi
 4133 0098 638D     		ldrh	r3, [r4, #42]
 4134 009a 2385     		strh	r3, [r4, #40]	@ movhi
 4135 009c 744B     		ldr	r3, .L551+8
 4136 009e E362     		str	r3, [r4, #44]
 4137 00a0 0195     		str	r5, [sp, #4]
 4138 00a2 0096     		str	r6, [sp]
 4139 00a4 3B46     		mov	r3, r7
 4140 00a6 4A46     		mov	r2, r9
 4141 00a8 4146     		mov	r1, r8
 4142 00aa 2046     		mov	r0, r4
 4143 00ac FFF7FEFF 		bl	I2C_RequestMemoryRead
 4144 00b0 0746     		mov	r7, r0
 4145 00b2 0028     		cmp	r0, #0
 4146 00b4 40F02081 		bne	.L536
 4147 00b8 238D     		ldrh	r3, [r4, #40]
 4148 00ba 5BB9     		cbnz	r3, .L522
 4149 00bc 0293     		str	r3, [sp, #8]
 4150 00be 2368     		ldr	r3, [r4]
 4151 00c0 5A69     		ldr	r2, [r3, #20]
 4152 00c2 0292     		str	r2, [sp, #8]
 4153 00c4 9A69     		ldr	r2, [r3, #24]
 4154 00c6 0292     		str	r2, [sp, #8]
 4155 00c8 029A     		ldr	r2, [sp, #8]
 4156 00ca 1A68     		ldr	r2, [r3]
 4157 00cc 42F40072 		orr	r2, r2, #512
 4158 00d0 1A60     		str	r2, [r3]
 4159 00d2 75E0     		b	.L525
 4160              	.L522:
 4161 00d4 012B     		cmp	r3, #1
 4162 00d6 0AD0     		beq	.L545
 4163 00d8 022B     		cmp	r3, #2
 4164 00da 1AD0     		beq	.L546
 4165 00dc 0023     		movs	r3, #0
 4166 00de 0593     		str	r3, [sp, #20]
 4167 00e0 2368     		ldr	r3, [r4]
 4168 00e2 5A69     		ldr	r2, [r3, #20]
 4169 00e4 0592     		str	r2, [sp, #20]
 4170 00e6 9B69     		ldr	r3, [r3, #24]
 4171 00e8 0593     		str	r3, [sp, #20]
 4172 00ea 059B     		ldr	r3, [sp, #20]
 4173 00ec 68E0     		b	.L525
ARM GAS  C:\Temp\ccVzAG2n.s 			page 73


 4174              	.L545:
 4175 00ee 2268     		ldr	r2, [r4]
 4176 00f0 1368     		ldr	r3, [r2]
 4177 00f2 23F48063 		bic	r3, r3, #1024
 4178 00f6 1360     		str	r3, [r2]
 4179 00f8 0023     		movs	r3, #0
 4180 00fa 0393     		str	r3, [sp, #12]
 4181 00fc 2368     		ldr	r3, [r4]
 4182 00fe 5A69     		ldr	r2, [r3, #20]
 4183 0100 0392     		str	r2, [sp, #12]
 4184 0102 9A69     		ldr	r2, [r3, #24]
 4185 0104 0392     		str	r2, [sp, #12]
 4186 0106 039A     		ldr	r2, [sp, #12]
 4187 0108 1A68     		ldr	r2, [r3]
 4188 010a 42F40072 		orr	r2, r2, #512
 4189 010e 1A60     		str	r2, [r3]
 4190 0110 56E0     		b	.L525
 4191              	.L546:
 4192 0112 2268     		ldr	r2, [r4]
 4193 0114 1368     		ldr	r3, [r2]
 4194 0116 23F48063 		bic	r3, r3, #1024
 4195 011a 1360     		str	r3, [r2]
 4196 011c 2268     		ldr	r2, [r4]
 4197 011e 1368     		ldr	r3, [r2]
 4198 0120 43F40063 		orr	r3, r3, #2048
 4199 0124 1360     		str	r3, [r2]
 4200 0126 0023     		movs	r3, #0
 4201 0128 0493     		str	r3, [sp, #16]
 4202 012a 2368     		ldr	r3, [r4]
 4203 012c 5A69     		ldr	r2, [r3, #20]
 4204 012e 0492     		str	r2, [sp, #16]
 4205 0130 9B69     		ldr	r3, [r3, #24]
 4206 0132 0493     		str	r3, [sp, #16]
 4207 0134 049B     		ldr	r3, [sp, #16]
 4208 0136 43E0     		b	.L525
 4209              	.L548:
 4210 0138 2A46     		mov	r2, r5
 4211 013a 3146     		mov	r1, r6
 4212 013c 2046     		mov	r0, r4
 4213 013e FFF7FEFF 		bl	I2C_WaitOnRXNEFlagUntilTimeout
 4214 0142 0028     		cmp	r0, #0
 4215 0144 40F0DA80 		bne	.L537
 4216 0148 2368     		ldr	r3, [r4]
 4217 014a 1A69     		ldr	r2, [r3, #16]
 4218 014c 636A     		ldr	r3, [r4, #36]
 4219 014e 1A70     		strb	r2, [r3]
 4220 0150 636A     		ldr	r3, [r4, #36]
 4221 0152 0133     		adds	r3, r3, #1
 4222 0154 6362     		str	r3, [r4, #36]
 4223 0156 238D     		ldrh	r3, [r4, #40]
 4224 0158 013B     		subs	r3, r3, #1
 4225 015a 2385     		strh	r3, [r4, #40]	@ movhi
 4226 015c 638D     		ldrh	r3, [r4, #42]
 4227 015e 9BB2     		uxth	r3, r3
 4228 0160 013B     		subs	r3, r3, #1
 4229 0162 9BB2     		uxth	r3, r3
 4230 0164 6385     		strh	r3, [r4, #42]	@ movhi
ARM GAS  C:\Temp\ccVzAG2n.s 			page 74


 4231 0166 2BE0     		b	.L525
 4232              	.L549:
 4233 0168 0095     		str	r5, [sp]
 4234 016a 3346     		mov	r3, r6
 4235 016c 0022     		movs	r2, #0
 4236 016e 4149     		ldr	r1, .L551+12
 4237 0170 2046     		mov	r0, r4
 4238 0172 FFF7FEFF 		bl	I2C_WaitOnFlagUntilTimeout
 4239 0176 0028     		cmp	r0, #0
 4240 0178 40F0C280 		bne	.L538
 4241 017c 2268     		ldr	r2, [r4]
 4242 017e 1368     		ldr	r3, [r2]
 4243 0180 43F40073 		orr	r3, r3, #512
 4244 0184 1360     		str	r3, [r2]
 4245 0186 2368     		ldr	r3, [r4]
 4246 0188 1A69     		ldr	r2, [r3, #16]
 4247 018a 636A     		ldr	r3, [r4, #36]
 4248 018c 1A70     		strb	r2, [r3]
 4249 018e 626A     		ldr	r2, [r4, #36]
 4250 0190 531C     		adds	r3, r2, #1
 4251 0192 6362     		str	r3, [r4, #36]
 4252 0194 238D     		ldrh	r3, [r4, #40]
 4253 0196 013B     		subs	r3, r3, #1
 4254 0198 2385     		strh	r3, [r4, #40]	@ movhi
 4255 019a 638D     		ldrh	r3, [r4, #42]
 4256 019c 9BB2     		uxth	r3, r3
 4257 019e 013B     		subs	r3, r3, #1
 4258 01a0 9BB2     		uxth	r3, r3
 4259 01a2 6385     		strh	r3, [r4, #42]	@ movhi
 4260 01a4 2368     		ldr	r3, [r4]
 4261 01a6 1B69     		ldr	r3, [r3, #16]
 4262 01a8 5370     		strb	r3, [r2, #1]
 4263 01aa 636A     		ldr	r3, [r4, #36]
 4264 01ac 0133     		adds	r3, r3, #1
 4265 01ae 6362     		str	r3, [r4, #36]
 4266 01b0 238D     		ldrh	r3, [r4, #40]
 4267 01b2 013B     		subs	r3, r3, #1
 4268 01b4 2385     		strh	r3, [r4, #40]	@ movhi
 4269 01b6 638D     		ldrh	r3, [r4, #42]
 4270 01b8 9BB2     		uxth	r3, r3
 4271 01ba 013B     		subs	r3, r3, #1
 4272 01bc 9BB2     		uxth	r3, r3
 4273 01be 6385     		strh	r3, [r4, #42]	@ movhi
 4274              	.L525:
 4275 01c0 238D     		ldrh	r3, [r4, #40]
 4276 01c2 002B     		cmp	r3, #0
 4277 01c4 00F08B80 		beq	.L547
 4278 01c8 032B     		cmp	r3, #3
 4279 01ca 55D8     		bhi	.L527
 4280 01cc 012B     		cmp	r3, #1
 4281 01ce B3D0     		beq	.L548
 4282 01d0 022B     		cmp	r3, #2
 4283 01d2 C9D0     		beq	.L549
 4284 01d4 0095     		str	r5, [sp]
 4285 01d6 3346     		mov	r3, r6
 4286 01d8 0022     		movs	r2, #0
 4287 01da 2649     		ldr	r1, .L551+12
ARM GAS  C:\Temp\ccVzAG2n.s 			page 75


 4288 01dc 2046     		mov	r0, r4
 4289 01de FFF7FEFF 		bl	I2C_WaitOnFlagUntilTimeout
 4290 01e2 0028     		cmp	r0, #0
 4291 01e4 40F08E80 		bne	.L539
 4292 01e8 2268     		ldr	r2, [r4]
 4293 01ea 1368     		ldr	r3, [r2]
 4294 01ec 23F48063 		bic	r3, r3, #1024
 4295 01f0 1360     		str	r3, [r2]
 4296 01f2 2368     		ldr	r3, [r4]
 4297 01f4 1A69     		ldr	r2, [r3, #16]
 4298 01f6 636A     		ldr	r3, [r4, #36]
 4299 01f8 1A70     		strb	r2, [r3]
 4300 01fa 636A     		ldr	r3, [r4, #36]
 4301 01fc 0133     		adds	r3, r3, #1
 4302 01fe 6362     		str	r3, [r4, #36]
 4303 0200 238D     		ldrh	r3, [r4, #40]
 4304 0202 013B     		subs	r3, r3, #1
 4305 0204 2385     		strh	r3, [r4, #40]	@ movhi
 4306 0206 638D     		ldrh	r3, [r4, #42]
 4307 0208 9BB2     		uxth	r3, r3
 4308 020a 013B     		subs	r3, r3, #1
 4309 020c 9BB2     		uxth	r3, r3
 4310 020e 6385     		strh	r3, [r4, #42]	@ movhi
 4311 0210 0095     		str	r5, [sp]
 4312 0212 3346     		mov	r3, r6
 4313 0214 0022     		movs	r2, #0
 4314 0216 1749     		ldr	r1, .L551+12
 4315 0218 2046     		mov	r0, r4
 4316 021a FFF7FEFF 		bl	I2C_WaitOnFlagUntilTimeout
 4317 021e 0028     		cmp	r0, #0
 4318 0220 72D1     		bne	.L540
 4319 0222 2268     		ldr	r2, [r4]
 4320 0224 1368     		ldr	r3, [r2]
 4321 0226 43F40073 		orr	r3, r3, #512
 4322 022a 1360     		str	r3, [r2]
 4323 022c 2368     		ldr	r3, [r4]
 4324 022e 1A69     		ldr	r2, [r3, #16]
 4325 0230 636A     		ldr	r3, [r4, #36]
 4326 0232 1A70     		strb	r2, [r3]
 4327 0234 626A     		ldr	r2, [r4, #36]
 4328 0236 531C     		adds	r3, r2, #1
 4329 0238 6362     		str	r3, [r4, #36]
 4330 023a 238D     		ldrh	r3, [r4, #40]
 4331 023c 013B     		subs	r3, r3, #1
 4332 023e 2385     		strh	r3, [r4, #40]	@ movhi
 4333 0240 638D     		ldrh	r3, [r4, #42]
 4334 0242 9BB2     		uxth	r3, r3
 4335 0244 013B     		subs	r3, r3, #1
 4336 0246 9BB2     		uxth	r3, r3
 4337 0248 6385     		strh	r3, [r4, #42]	@ movhi
 4338 024a 2368     		ldr	r3, [r4]
 4339 024c 1B69     		ldr	r3, [r3, #16]
 4340 024e 5370     		strb	r3, [r2, #1]
 4341 0250 636A     		ldr	r3, [r4, #36]
 4342 0252 0133     		adds	r3, r3, #1
 4343 0254 6362     		str	r3, [r4, #36]
 4344 0256 238D     		ldrh	r3, [r4, #40]
ARM GAS  C:\Temp\ccVzAG2n.s 			page 76


 4345 0258 013B     		subs	r3, r3, #1
 4346 025a 2385     		strh	r3, [r4, #40]	@ movhi
 4347 025c 638D     		ldrh	r3, [r4, #42]
 4348 025e 9BB2     		uxth	r3, r3
 4349 0260 013B     		subs	r3, r3, #1
 4350 0262 9BB2     		uxth	r3, r3
 4351 0264 6385     		strh	r3, [r4, #42]	@ movhi
 4352 0266 ABE7     		b	.L525
 4353              	.L552:
 4354              		.align	2
 4355              	.L551:
 4356 0268 00000000 		.word	.LC0
 4357 026c 02001000 		.word	1048578
 4358 0270 0000FFFF 		.word	-65536
 4359 0274 04000100 		.word	65540
 4360              	.L527:
 4361 0278 2A46     		mov	r2, r5
 4362 027a 3146     		mov	r1, r6
 4363 027c 2046     		mov	r0, r4
 4364 027e FFF7FEFF 		bl	I2C_WaitOnRXNEFlagUntilTimeout
 4365 0282 0028     		cmp	r0, #0
 4366 0284 42D1     		bne	.L541
 4367 0286 2368     		ldr	r3, [r4]
 4368 0288 1A69     		ldr	r2, [r3, #16]
 4369 028a 636A     		ldr	r3, [r4, #36]
 4370 028c 1A70     		strb	r2, [r3]
 4371 028e 636A     		ldr	r3, [r4, #36]
 4372 0290 0133     		adds	r3, r3, #1
 4373 0292 6362     		str	r3, [r4, #36]
 4374 0294 228D     		ldrh	r2, [r4, #40]
 4375 0296 013A     		subs	r2, r2, #1
 4376 0298 92B2     		uxth	r2, r2
 4377 029a 2285     		strh	r2, [r4, #40]	@ movhi
 4378 029c 638D     		ldrh	r3, [r4, #42]
 4379 029e 9BB2     		uxth	r3, r3
 4380 02a0 013B     		subs	r3, r3, #1
 4381 02a2 9BB2     		uxth	r3, r3
 4382 02a4 6385     		strh	r3, [r4, #42]	@ movhi
 4383 02a6 2368     		ldr	r3, [r4]
 4384 02a8 5969     		ldr	r1, [r3, #20]
 4385 02aa 11F0040F 		tst	r1, #4
 4386 02ae 87D0     		beq	.L525
 4387 02b0 032A     		cmp	r2, #3
 4388 02b2 0FD0     		beq	.L550
 4389              	.L531:
 4390 02b4 2368     		ldr	r3, [r4]
 4391 02b6 1A69     		ldr	r2, [r3, #16]
 4392 02b8 636A     		ldr	r3, [r4, #36]
 4393 02ba 1A70     		strb	r2, [r3]
 4394 02bc 636A     		ldr	r3, [r4, #36]
 4395 02be 0133     		adds	r3, r3, #1
 4396 02c0 6362     		str	r3, [r4, #36]
 4397 02c2 238D     		ldrh	r3, [r4, #40]
 4398 02c4 013B     		subs	r3, r3, #1
 4399 02c6 2385     		strh	r3, [r4, #40]	@ movhi
 4400 02c8 638D     		ldrh	r3, [r4, #42]
 4401 02ca 9BB2     		uxth	r3, r3
ARM GAS  C:\Temp\ccVzAG2n.s 			page 77


 4402 02cc 013B     		subs	r3, r3, #1
 4403 02ce 9BB2     		uxth	r3, r3
 4404 02d0 6385     		strh	r3, [r4, #42]	@ movhi
 4405 02d2 75E7     		b	.L525
 4406              	.L550:
 4407 02d4 1A68     		ldr	r2, [r3]
 4408 02d6 22F48062 		bic	r2, r2, #1024
 4409 02da 1A60     		str	r2, [r3]
 4410 02dc EAE7     		b	.L531
 4411              	.L547:
 4412 02de 2023     		movs	r3, #32
 4413 02e0 84F83D30 		strb	r3, [r4, #61]
 4414 02e4 0023     		movs	r3, #0
 4415 02e6 84F83E30 		strb	r3, [r4, #62]
 4416 02ea 84F83C30 		strb	r3, [r4, #60]
 4417 02ee 9CE6     		b	.L520
 4418              	.L534:
 4419 02f0 0227     		movs	r7, #2
 4420 02f2 9AE6     		b	.L520
 4421              	.L535:
 4422 02f4 0227     		movs	r7, #2
 4423 02f6 98E6     		b	.L520
 4424              	.L536:
 4425 02f8 0127     		movs	r7, #1
 4426 02fa 96E6     		b	.L520
 4427              	.L537:
 4428 02fc 0127     		movs	r7, #1
 4429 02fe 94E6     		b	.L520
 4430              	.L538:
 4431 0300 0127     		movs	r7, #1
 4432 0302 92E6     		b	.L520
 4433              	.L539:
 4434 0304 0127     		movs	r7, #1
 4435 0306 90E6     		b	.L520
 4436              	.L540:
 4437 0308 0127     		movs	r7, #1
 4438 030a 8EE6     		b	.L520
 4439              	.L541:
 4440 030c 0127     		movs	r7, #1
 4441 030e 8CE6     		b	.L520
 4443              		.section	.text.HAL_I2C_Mem_Write_IT,"ax",%progbits
 4444              		.align	1
 4445              		.global	HAL_I2C_Mem_Write_IT
 4446              		.syntax unified
 4447              		.thumb
 4448              		.thumb_func
 4450              	HAL_I2C_Mem_Write_IT:
 4451              		@ args = 8, pretend = 0, frame = 8
 4452              		@ frame_needed = 0, uses_anonymous_args = 0
 4453 0000 2DE9F041 		push	{r4, r5, r6, r7, r8, lr}
 4454 0004 82B0     		sub	sp, sp, #8
 4455 0006 0546     		mov	r5, r0
 4456 0008 8846     		mov	r8, r1
 4457 000a 1746     		mov	r7, r2
 4458 000c 1E46     		mov	r6, r3
 4459 000e 0023     		movs	r3, #0
 4460 0010 0193     		str	r3, [sp, #4]
ARM GAS  C:\Temp\ccVzAG2n.s 			page 78


 4461 0012 012E     		cmp	r6, #1
 4462 0014 01D0     		beq	.L554
 4463 0016 102E     		cmp	r6, #16
 4464 0018 52D1     		bne	.L562
 4465              	.L554:
 4466 001a 95F83D30 		ldrb	r3, [r5, #61]	@ zero_extendqisi2
 4467 001e DBB2     		uxtb	r3, r3
 4468 0020 202B     		cmp	r3, #32
 4469 0022 5FD1     		bne	.L559
 4470 0024 324B     		ldr	r3, .L564
 4471 0026 1B68     		ldr	r3, [r3]
 4472 0028 DB08     		lsrs	r3, r3, #3
 4473 002a 324A     		ldr	r2, .L564+4
 4474 002c A2FB0323 		umull	r2, r3, r2, r3
 4475 0030 1B0A     		lsrs	r3, r3, #8
 4476 0032 03EB8303 		add	r3, r3, r3, lsl #2
 4477 0036 03EB8303 		add	r3, r3, r3, lsl #2
 4478 003a 0193     		str	r3, [sp, #4]
 4479              	.L557:
 4480 003c 019C     		ldr	r4, [sp, #4]
 4481 003e 013C     		subs	r4, r4, #1
 4482 0040 0194     		str	r4, [sp, #4]
 4483 0042 0198     		ldr	r0, [sp, #4]
 4484 0044 0028     		cmp	r0, #0
 4485 0046 41D0     		beq	.L563
 4486 0048 2868     		ldr	r0, [r5]
 4487 004a 8369     		ldr	r3, [r0, #24]
 4488 004c 13F0020F 		tst	r3, #2
 4489 0050 F4D1     		bne	.L557
 4490 0052 95F83C30 		ldrb	r3, [r5, #60]	@ zero_extendqisi2
 4491 0056 012B     		cmp	r3, #1
 4492 0058 48D0     		beq	.L560
 4493 005a 0123     		movs	r3, #1
 4494 005c 85F83C30 		strb	r3, [r5, #60]
 4495 0060 0368     		ldr	r3, [r0]
 4496 0062 13F0010F 		tst	r3, #1
 4497 0066 03D1     		bne	.L558
 4498 0068 0368     		ldr	r3, [r0]
 4499 006a 43F00103 		orr	r3, r3, #1
 4500 006e 0360     		str	r3, [r0]
 4501              	.L558:
 4502 0070 2A68     		ldr	r2, [r5]
 4503 0072 1368     		ldr	r3, [r2]
 4504 0074 23F40063 		bic	r3, r3, #2048
 4505 0078 1360     		str	r3, [r2]
 4506 007a 2123     		movs	r3, #33
 4507 007c 85F83D30 		strb	r3, [r5, #61]
 4508 0080 4023     		movs	r3, #64
 4509 0082 85F83E30 		strb	r3, [r5, #62]
 4510 0086 0020     		movs	r0, #0
 4511 0088 2864     		str	r0, [r5, #64]
 4512 008a 089B     		ldr	r3, [sp, #32]
 4513 008c 6B62     		str	r3, [r5, #36]
 4514 008e BDF82430 		ldrh	r3, [sp, #36]
 4515 0092 6B85     		strh	r3, [r5, #42]	@ movhi
 4516 0094 6B8D     		ldrh	r3, [r5, #42]
 4517 0096 2B85     		strh	r3, [r5, #40]	@ movhi
ARM GAS  C:\Temp\ccVzAG2n.s 			page 79


 4518 0098 174B     		ldr	r3, .L564+8
 4519 009a EB62     		str	r3, [r5, #44]
 4520 009c C5F84480 		str	r8, [r5, #68]
 4521 00a0 AF64     		str	r7, [r5, #72]
 4522 00a2 EE64     		str	r6, [r5, #76]
 4523 00a4 2865     		str	r0, [r5, #80]
 4524 00a6 2A68     		ldr	r2, [r5]
 4525 00a8 1368     		ldr	r3, [r2]
 4526 00aa 43F48073 		orr	r3, r3, #256
 4527 00ae 1360     		str	r3, [r2]
 4528 00b0 85F83C00 		strb	r0, [r5, #60]
 4529 00b4 2A68     		ldr	r2, [r5]
 4530 00b6 5368     		ldr	r3, [r2, #4]
 4531 00b8 43F4E063 		orr	r3, r3, #1792
 4532 00bc 5360     		str	r3, [r2, #4]
 4533 00be 12E0     		b	.L555
 4534              	.L562:
 4535 00c0 40F64331 		movw	r1, #2883
 4536 00c4 0D48     		ldr	r0, .L564+12
 4537 00c6 FFF7FEFF 		bl	assert_failed
 4538 00ca A6E7     		b	.L554
 4539              	.L563:
 4540 00cc 0023     		movs	r3, #0
 4541 00ce 2B63     		str	r3, [r5, #48]
 4542 00d0 2022     		movs	r2, #32
 4543 00d2 85F83D20 		strb	r2, [r5, #61]
 4544 00d6 85F83E30 		strb	r3, [r5, #62]
 4545 00da 2B6C     		ldr	r3, [r5, #64]
 4546 00dc 1343     		orrs	r3, r3, r2
 4547 00de 2B64     		str	r3, [r5, #64]
 4548 00e0 0220     		movs	r0, #2
 4549 00e2 00E0     		b	.L555
 4550              	.L559:
 4551 00e4 0220     		movs	r0, #2
 4552              	.L555:
 4553 00e6 02B0     		add	sp, sp, #8
 4554              		@ sp needed
 4555 00e8 BDE8F081 		pop	{r4, r5, r6, r7, r8, pc}
 4556              	.L560:
 4557 00ec 0220     		movs	r0, #2
 4558 00ee FAE7     		b	.L555
 4559              	.L565:
 4560              		.align	2
 4561              	.L564:
 4562 00f0 00000000 		.word	SystemCoreClock
 4563 00f4 89B5F814 		.word	351843721
 4564 00f8 0000FFFF 		.word	-65536
 4565 00fc 00000000 		.word	.LC0
 4567              		.section	.text.HAL_I2C_Mem_Read_IT,"ax",%progbits
 4568              		.align	1
 4569              		.global	HAL_I2C_Mem_Read_IT
 4570              		.syntax unified
 4571              		.thumb
 4572              		.thumb_func
 4574              	HAL_I2C_Mem_Read_IT:
 4575              		@ args = 8, pretend = 0, frame = 8
 4576              		@ frame_needed = 0, uses_anonymous_args = 0
ARM GAS  C:\Temp\ccVzAG2n.s 			page 80


 4577 0000 2DE9F041 		push	{r4, r5, r6, r7, r8, lr}
 4578 0004 82B0     		sub	sp, sp, #8
 4579 0006 0546     		mov	r5, r0
 4580 0008 8846     		mov	r8, r1
 4581 000a 1746     		mov	r7, r2
 4582 000c 1E46     		mov	r6, r3
 4583 000e 0023     		movs	r3, #0
 4584 0010 0193     		str	r3, [sp, #4]
 4585 0012 012E     		cmp	r6, #1
 4586 0014 01D0     		beq	.L567
 4587 0016 102E     		cmp	r6, #16
 4588 0018 5AD1     		bne	.L576
 4589              	.L567:
 4590 001a 95F83D30 		ldrb	r3, [r5, #61]	@ zero_extendqisi2
 4591 001e DBB2     		uxtb	r3, r3
 4592 0020 202B     		cmp	r3, #32
 4593 0022 67D1     		bne	.L573
 4594 0024 364B     		ldr	r3, .L578
 4595 0026 1B68     		ldr	r3, [r3]
 4596 0028 DB08     		lsrs	r3, r3, #3
 4597 002a 364A     		ldr	r2, .L578+4
 4598 002c A2FB0323 		umull	r2, r3, r2, r3
 4599 0030 1B0A     		lsrs	r3, r3, #8
 4600 0032 03EB8303 		add	r3, r3, r3, lsl #2
 4601 0036 03EB8303 		add	r3, r3, r3, lsl #2
 4602 003a 0193     		str	r3, [sp, #4]
 4603              	.L570:
 4604 003c 019C     		ldr	r4, [sp, #4]
 4605 003e 013C     		subs	r4, r4, #1
 4606 0040 0194     		str	r4, [sp, #4]
 4607 0042 0198     		ldr	r0, [sp, #4]
 4608 0044 0028     		cmp	r0, #0
 4609 0046 49D0     		beq	.L577
 4610 0048 2868     		ldr	r0, [r5]
 4611 004a 8369     		ldr	r3, [r0, #24]
 4612 004c 13F0020F 		tst	r3, #2
 4613 0050 F4D1     		bne	.L570
 4614 0052 95F83C30 		ldrb	r3, [r5, #60]	@ zero_extendqisi2
 4615 0056 012B     		cmp	r3, #1
 4616 0058 50D0     		beq	.L574
 4617 005a 0123     		movs	r3, #1
 4618 005c 85F83C30 		strb	r3, [r5, #60]
 4619 0060 0368     		ldr	r3, [r0]
 4620 0062 13F0010F 		tst	r3, #1
 4621 0066 03D1     		bne	.L571
 4622 0068 0368     		ldr	r3, [r0]
 4623 006a 43F00103 		orr	r3, r3, #1
 4624 006e 0360     		str	r3, [r0]
 4625              	.L571:
 4626 0070 2A68     		ldr	r2, [r5]
 4627 0072 1368     		ldr	r3, [r2]
 4628 0074 23F40063 		bic	r3, r3, #2048
 4629 0078 1360     		str	r3, [r2]
 4630 007a 2223     		movs	r3, #34
 4631 007c 85F83D30 		strb	r3, [r5, #61]
 4632 0080 4023     		movs	r3, #64
 4633 0082 85F83E30 		strb	r3, [r5, #62]
ARM GAS  C:\Temp\ccVzAG2n.s 			page 81


 4634 0086 0023     		movs	r3, #0
 4635 0088 2B64     		str	r3, [r5, #64]
 4636 008a 089A     		ldr	r2, [sp, #32]
 4637 008c 6A62     		str	r2, [r5, #36]
 4638 008e BDF82420 		ldrh	r2, [sp, #36]
 4639 0092 6A85     		strh	r2, [r5, #42]	@ movhi
 4640 0094 6A8D     		ldrh	r2, [r5, #42]
 4641 0096 2A85     		strh	r2, [r5, #40]	@ movhi
 4642 0098 1B4A     		ldr	r2, .L578+8
 4643 009a EA62     		str	r2, [r5, #44]
 4644 009c C5F84480 		str	r8, [r5, #68]
 4645 00a0 AF64     		str	r7, [r5, #72]
 4646 00a2 EE64     		str	r6, [r5, #76]
 4647 00a4 2B65     		str	r3, [r5, #80]
 4648 00a6 2968     		ldr	r1, [r5]
 4649 00a8 0A68     		ldr	r2, [r1]
 4650 00aa 42F48062 		orr	r2, r2, #1024
 4651 00ae 0A60     		str	r2, [r1]
 4652 00b0 2968     		ldr	r1, [r5]
 4653 00b2 0A68     		ldr	r2, [r1]
 4654 00b4 42F48072 		orr	r2, r2, #256
 4655 00b8 0A60     		str	r2, [r1]
 4656 00ba 85F83C30 		strb	r3, [r5, #60]
 4657 00be 2B8D     		ldrh	r3, [r5, #40]
 4658 00c0 23B1     		cbz	r3, .L572
 4659 00c2 2A68     		ldr	r2, [r5]
 4660 00c4 5368     		ldr	r3, [r2, #4]
 4661 00c6 43F4E063 		orr	r3, r3, #1792
 4662 00ca 5360     		str	r3, [r2, #4]
 4663              	.L572:
 4664 00cc 0020     		movs	r0, #0
 4665 00ce 12E0     		b	.L568
 4666              	.L576:
 4667 00d0 40F69831 		movw	r1, #2968
 4668 00d4 0D48     		ldr	r0, .L578+12
 4669 00d6 FFF7FEFF 		bl	assert_failed
 4670 00da 9EE7     		b	.L567
 4671              	.L577:
 4672 00dc 0023     		movs	r3, #0
 4673 00de 2B63     		str	r3, [r5, #48]
 4674 00e0 2022     		movs	r2, #32
 4675 00e2 85F83D20 		strb	r2, [r5, #61]
 4676 00e6 85F83E30 		strb	r3, [r5, #62]
 4677 00ea 2B6C     		ldr	r3, [r5, #64]
 4678 00ec 1343     		orrs	r3, r3, r2
 4679 00ee 2B64     		str	r3, [r5, #64]
 4680 00f0 0220     		movs	r0, #2
 4681 00f2 00E0     		b	.L568
 4682              	.L573:
 4683 00f4 0220     		movs	r0, #2
 4684              	.L568:
 4685 00f6 02B0     		add	sp, sp, #8
 4686              		@ sp needed
 4687 00f8 BDE8F081 		pop	{r4, r5, r6, r7, r8, pc}
 4688              	.L574:
 4689 00fc 0220     		movs	r0, #2
 4690 00fe FAE7     		b	.L568
ARM GAS  C:\Temp\ccVzAG2n.s 			page 82


 4691              	.L579:
 4692              		.align	2
 4693              	.L578:
 4694 0100 00000000 		.word	SystemCoreClock
 4695 0104 89B5F814 		.word	351843721
 4696 0108 0000FFFF 		.word	-65536
 4697 010c 00000000 		.word	.LC0
 4699              		.section	.text.HAL_I2C_Mem_Write_DMA,"ax",%progbits
 4700              		.align	1
 4701              		.global	HAL_I2C_Mem_Write_DMA
 4702              		.syntax unified
 4703              		.thumb
 4704              		.thumb_func
 4706              	HAL_I2C_Mem_Write_DMA:
 4707              		@ args = 8, pretend = 0, frame = 8
 4708              		@ frame_needed = 0, uses_anonymous_args = 0
 4709 0000 2DE9F043 		push	{r4, r5, r6, r7, r8, r9, lr}
 4710 0004 85B0     		sub	sp, sp, #20
 4711 0006 0546     		mov	r5, r0
 4712 0008 0F46     		mov	r7, r1
 4713 000a 9046     		mov	r8, r2
 4714 000c 1E46     		mov	r6, r3
 4715 000e 0023     		movs	r3, #0
 4716 0010 0393     		str	r3, [sp, #12]
 4717 0012 FFF7FEFF 		bl	HAL_GetTick
 4718 0016 8146     		mov	r9, r0
 4719 0018 012E     		cmp	r6, #1
 4720 001a 01D0     		beq	.L581
 4721 001c 102E     		cmp	r6, #16
 4722 001e 71D1     		bne	.L595
 4723              	.L581:
 4724 0020 95F83D30 		ldrb	r3, [r5, #61]	@ zero_extendqisi2
 4725 0024 DBB2     		uxtb	r3, r3
 4726 0026 202B     		cmp	r3, #32
 4727 0028 40F0CD80 		bne	.L591
 4728 002c 694B     		ldr	r3, .L599
 4729 002e 1B68     		ldr	r3, [r3]
 4730 0030 DB08     		lsrs	r3, r3, #3
 4731 0032 694A     		ldr	r2, .L599+4
 4732 0034 A2FB0323 		umull	r2, r3, r2, r3
 4733 0038 1B0A     		lsrs	r3, r3, #8
 4734 003a 03EB8303 		add	r3, r3, r3, lsl #2
 4735 003e 03EB8303 		add	r3, r3, r3, lsl #2
 4736 0042 0393     		str	r3, [sp, #12]
 4737              	.L584:
 4738 0044 039C     		ldr	r4, [sp, #12]
 4739 0046 013C     		subs	r4, r4, #1
 4740 0048 0394     		str	r4, [sp, #12]
 4741 004a 039C     		ldr	r4, [sp, #12]
 4742 004c 002C     		cmp	r4, #0
 4743 004e 5FD0     		beq	.L596
 4744 0050 2B68     		ldr	r3, [r5]
 4745 0052 9A69     		ldr	r2, [r3, #24]
 4746 0054 12F0020F 		tst	r2, #2
 4747 0058 F4D1     		bne	.L584
 4748 005a 95F83C20 		ldrb	r2, [r5, #60]	@ zero_extendqisi2
 4749 005e 012A     		cmp	r2, #1
ARM GAS  C:\Temp\ccVzAG2n.s 			page 83


 4750 0060 00F0B580 		beq	.L592
 4751 0064 0122     		movs	r2, #1
 4752 0066 85F83C20 		strb	r2, [r5, #60]
 4753 006a 1A68     		ldr	r2, [r3]
 4754 006c 12F0010F 		tst	r2, #1
 4755 0070 03D1     		bne	.L585
 4756 0072 1A68     		ldr	r2, [r3]
 4757 0074 42F00102 		orr	r2, r2, #1
 4758 0078 1A60     		str	r2, [r3]
 4759              	.L585:
 4760 007a 2A68     		ldr	r2, [r5]
 4761 007c 1368     		ldr	r3, [r2]
 4762 007e 23F40063 		bic	r3, r3, #2048
 4763 0082 1360     		str	r3, [r2]
 4764 0084 2123     		movs	r3, #33
 4765 0086 85F83D30 		strb	r3, [r5, #61]
 4766 008a 4023     		movs	r3, #64
 4767 008c 85F83E30 		strb	r3, [r5, #62]
 4768 0090 0022     		movs	r2, #0
 4769 0092 2A64     		str	r2, [r5, #64]
 4770 0094 0C9B     		ldr	r3, [sp, #48]
 4771 0096 6B62     		str	r3, [r5, #36]
 4772 0098 BDF83430 		ldrh	r3, [sp, #52]
 4773 009c 6B85     		strh	r3, [r5, #42]	@ movhi
 4774 009e 6B8D     		ldrh	r3, [r5, #42]
 4775 00a0 9BB2     		uxth	r3, r3
 4776 00a2 2B85     		strh	r3, [r5, #40]	@ movhi
 4777 00a4 4D49     		ldr	r1, .L599+8
 4778 00a6 E962     		str	r1, [r5, #44]
 4779 00a8 6F64     		str	r7, [r5, #68]
 4780 00aa C5F84880 		str	r8, [r5, #72]
 4781 00ae EE64     		str	r6, [r5, #76]
 4782 00b0 2A65     		str	r2, [r5, #80]
 4783 00b2 002B     		cmp	r3, #0
 4784 00b4 79D0     		beq	.L586
 4785 00b6 6B6B     		ldr	r3, [r5, #52]
 4786 00b8 002B     		cmp	r3, #0
 4787 00ba 35D0     		beq	.L587
 4788 00bc 484A     		ldr	r2, .L599+12
 4789 00be DA63     		str	r2, [r3, #60]
 4790 00c0 6B6B     		ldr	r3, [r5, #52]
 4791 00c2 484A     		ldr	r2, .L599+16
 4792 00c4 DA64     		str	r2, [r3, #76]
 4793 00c6 6A6B     		ldr	r2, [r5, #52]
 4794 00c8 0023     		movs	r3, #0
 4795 00ca 1364     		str	r3, [r2, #64]
 4796 00cc 6A6B     		ldr	r2, [r5, #52]
 4797 00ce 5364     		str	r3, [r2, #68]
 4798 00d0 6A6B     		ldr	r2, [r5, #52]
 4799 00d2 9364     		str	r3, [r2, #72]
 4800 00d4 6A6B     		ldr	r2, [r5, #52]
 4801 00d6 1365     		str	r3, [r2, #80]
 4802 00d8 2A68     		ldr	r2, [r5]
 4803 00da 2B8D     		ldrh	r3, [r5, #40]
 4804 00dc 1032     		adds	r2, r2, #16
 4805 00de 696A     		ldr	r1, [r5, #36]
 4806 00e0 686B     		ldr	r0, [r5, #52]
ARM GAS  C:\Temp\ccVzAG2n.s 			page 84


 4807 00e2 FFF7FEFF 		bl	HAL_DMA_Start_IT
 4808 00e6 68B3     		cbz	r0, .L597
 4809 00e8 2023     		movs	r3, #32
 4810 00ea 85F83D30 		strb	r3, [r5, #61]
 4811 00ee 0022     		movs	r2, #0
 4812 00f0 85F83E20 		strb	r2, [r5, #62]
 4813 00f4 2B6C     		ldr	r3, [r5, #64]
 4814 00f6 43F01003 		orr	r3, r3, #16
 4815 00fa 2B64     		str	r3, [r5, #64]
 4816 00fc 85F83C20 		strb	r2, [r5, #60]
 4817 0100 0120     		movs	r0, #1
 4818 0102 61E0     		b	.L582
 4819              	.L595:
 4820 0104 40F6F731 		movw	r1, #3063
 4821 0108 3748     		ldr	r0, .L599+20
 4822 010a FFF7FEFF 		bl	assert_failed
 4823 010e 87E7     		b	.L581
 4824              	.L596:
 4825 0110 0023     		movs	r3, #0
 4826 0112 2B63     		str	r3, [r5, #48]
 4827 0114 2022     		movs	r2, #32
 4828 0116 85F83D20 		strb	r2, [r5, #61]
 4829 011a 85F83E30 		strb	r3, [r5, #62]
 4830 011e 2B6C     		ldr	r3, [r5, #64]
 4831 0120 1343     		orrs	r3, r3, r2
 4832 0122 2B64     		str	r3, [r5, #64]
 4833 0124 0220     		movs	r0, #2
 4834 0126 4FE0     		b	.L582
 4835              	.L587:
 4836 0128 2023     		movs	r3, #32
 4837 012a 85F83D30 		strb	r3, [r5, #61]
 4838 012e 0022     		movs	r2, #0
 4839 0130 85F83E20 		strb	r2, [r5, #62]
 4840 0134 2B6C     		ldr	r3, [r5, #64]
 4841 0136 43F08003 		orr	r3, r3, #128
 4842 013a 2B64     		str	r3, [r5, #64]
 4843 013c 85F83C20 		strb	r2, [r5, #60]
 4844 0140 0120     		movs	r0, #1
 4845 0142 41E0     		b	.L582
 4846              	.L597:
 4847 0144 CDF80490 		str	r9, [sp, #4]
 4848 0148 2323     		movs	r3, #35
 4849 014a 0093     		str	r3, [sp]
 4850 014c 3346     		mov	r3, r6
 4851 014e 4246     		mov	r2, r8
 4852 0150 3946     		mov	r1, r7
 4853 0152 2846     		mov	r0, r5
 4854 0154 FFF7FEFF 		bl	I2C_RequestMemoryWrite
 4855 0158 98B9     		cbnz	r0, .L598
 4856 015a 0022     		movs	r2, #0
 4857 015c 0292     		str	r2, [sp, #8]
 4858 015e 2B68     		ldr	r3, [r5]
 4859 0160 5969     		ldr	r1, [r3, #20]
 4860 0162 0291     		str	r1, [sp, #8]
 4861 0164 9969     		ldr	r1, [r3, #24]
 4862 0166 0291     		str	r1, [sp, #8]
 4863 0168 0299     		ldr	r1, [sp, #8]
ARM GAS  C:\Temp\ccVzAG2n.s 			page 85


 4864 016a 85F83C20 		strb	r2, [r5, #60]
 4865 016e 5A68     		ldr	r2, [r3, #4]
 4866 0170 42F48072 		orr	r2, r2, #256
 4867 0174 5A60     		str	r2, [r3, #4]
 4868 0176 2A68     		ldr	r2, [r5]
 4869 0178 5368     		ldr	r3, [r2, #4]
 4870 017a 43F40063 		orr	r3, r3, #2048
 4871 017e 5360     		str	r3, [r2, #4]
 4872 0180 22E0     		b	.L582
 4873              	.L598:
 4874 0182 686B     		ldr	r0, [r5, #52]
 4875 0184 FFF7FEFF 		bl	HAL_DMA_Abort_IT
 4876 0188 6A6B     		ldr	r2, [r5, #52]
 4877 018a 0023     		movs	r3, #0
 4878 018c D363     		str	r3, [r2, #60]
 4879 018e 2968     		ldr	r1, [r5]
 4880 0190 0A68     		ldr	r2, [r1]
 4881 0192 22F48062 		bic	r2, r2, #1024
 4882 0196 0A60     		str	r2, [r1]
 4883 0198 2B85     		strh	r3, [r5, #40]	@ movhi
 4884 019a 6B85     		strh	r3, [r5, #42]	@ movhi
 4885 019c 2A68     		ldr	r2, [r5]
 4886 019e 1368     		ldr	r3, [r2]
 4887 01a0 23F00103 		bic	r3, r3, #1
 4888 01a4 1360     		str	r3, [r2]
 4889 01a6 0120     		movs	r0, #1
 4890 01a8 0EE0     		b	.L582
 4891              	.L586:
 4892 01aa 2023     		movs	r3, #32
 4893 01ac 85F83D30 		strb	r3, [r5, #61]
 4894 01b0 0022     		movs	r2, #0
 4895 01b2 85F83E20 		strb	r2, [r5, #62]
 4896 01b6 2B6C     		ldr	r3, [r5, #64]
 4897 01b8 43F04003 		orr	r3, r3, #64
 4898 01bc 2B64     		str	r3, [r5, #64]
 4899 01be 85F83C20 		strb	r2, [r5, #60]
 4900 01c2 0120     		movs	r0, #1
 4901 01c4 00E0     		b	.L582
 4902              	.L591:
 4903 01c6 0220     		movs	r0, #2
 4904              	.L582:
 4905 01c8 05B0     		add	sp, sp, #20
 4906              		@ sp needed
 4907 01ca BDE8F083 		pop	{r4, r5, r6, r7, r8, r9, pc}
 4908              	.L592:
 4909 01ce 0220     		movs	r0, #2
 4910 01d0 FAE7     		b	.L582
 4911              	.L600:
 4912 01d2 00BF     		.align	2
 4913              	.L599:
 4914 01d4 00000000 		.word	SystemCoreClock
 4915 01d8 89B5F814 		.word	351843721
 4916 01dc 0000FFFF 		.word	-65536
 4917 01e0 00000000 		.word	I2C_DMAXferCplt
 4918 01e4 00000000 		.word	I2C_DMAError
 4919 01e8 00000000 		.word	.LC0
 4921              		.section	.text.HAL_I2C_Mem_Read_DMA,"ax",%progbits
ARM GAS  C:\Temp\ccVzAG2n.s 			page 86


 4922              		.align	1
 4923              		.global	HAL_I2C_Mem_Read_DMA
 4924              		.syntax unified
 4925              		.thumb
 4926              		.thumb_func
 4928              	HAL_I2C_Mem_Read_DMA:
 4929              		@ args = 8, pretend = 0, frame = 16
 4930              		@ frame_needed = 0, uses_anonymous_args = 0
 4931 0000 2DE9F043 		push	{r4, r5, r6, r7, r8, r9, lr}
 4932 0004 87B0     		sub	sp, sp, #28
 4933 0006 0546     		mov	r5, r0
 4934 0008 0F46     		mov	r7, r1
 4935 000a 9046     		mov	r8, r2
 4936 000c 1E46     		mov	r6, r3
 4937 000e FFF7FEFF 		bl	HAL_GetTick
 4938 0012 8146     		mov	r9, r0
 4939 0014 0023     		movs	r3, #0
 4940 0016 0593     		str	r3, [sp, #20]
 4941 0018 012E     		cmp	r6, #1
 4942 001a 01D0     		beq	.L602
 4943 001c 102E     		cmp	r6, #16
 4944 001e 72D1     		bne	.L620
 4945              	.L602:
 4946 0020 95F83D30 		ldrb	r3, [r5, #61]	@ zero_extendqisi2
 4947 0024 DBB2     		uxtb	r3, r3
 4948 0026 202B     		cmp	r3, #32
 4949 0028 40F0EC80 		bne	.L615
 4950 002c 794B     		ldr	r3, .L625
 4951 002e 1B68     		ldr	r3, [r3]
 4952 0030 DB08     		lsrs	r3, r3, #3
 4953 0032 794A     		ldr	r2, .L625+4
 4954 0034 A2FB0323 		umull	r2, r3, r2, r3
 4955 0038 1B0A     		lsrs	r3, r3, #8
 4956 003a 03EB8303 		add	r3, r3, r3, lsl #2
 4957 003e 03EB8303 		add	r3, r3, r3, lsl #2
 4958 0042 0593     		str	r3, [sp, #20]
 4959              	.L605:
 4960 0044 059C     		ldr	r4, [sp, #20]
 4961 0046 013C     		subs	r4, r4, #1
 4962 0048 0594     		str	r4, [sp, #20]
 4963 004a 059C     		ldr	r4, [sp, #20]
 4964 004c 002C     		cmp	r4, #0
 4965 004e 60D0     		beq	.L621
 4966 0050 2B68     		ldr	r3, [r5]
 4967 0052 9A69     		ldr	r2, [r3, #24]
 4968 0054 12F0020F 		tst	r2, #2
 4969 0058 F4D1     		bne	.L605
 4970 005a 95F83C20 		ldrb	r2, [r5, #60]	@ zero_extendqisi2
 4971 005e 012A     		cmp	r2, #1
 4972 0060 00F0D480 		beq	.L616
 4973 0064 0122     		movs	r2, #1
 4974 0066 85F83C20 		strb	r2, [r5, #60]
 4975 006a 1A68     		ldr	r2, [r3]
 4976 006c 12F0010F 		tst	r2, #1
 4977 0070 03D1     		bne	.L606
 4978 0072 1A68     		ldr	r2, [r3]
 4979 0074 42F00102 		orr	r2, r2, #1
ARM GAS  C:\Temp\ccVzAG2n.s 			page 87


 4980 0078 1A60     		str	r2, [r3]
 4981              	.L606:
 4982 007a 2A68     		ldr	r2, [r5]
 4983 007c 1368     		ldr	r3, [r2]
 4984 007e 23F40063 		bic	r3, r3, #2048
 4985 0082 1360     		str	r3, [r2]
 4986 0084 2223     		movs	r3, #34
 4987 0086 85F83D30 		strb	r3, [r5, #61]
 4988 008a 4023     		movs	r3, #64
 4989 008c 85F83E30 		strb	r3, [r5, #62]
 4990 0090 0022     		movs	r2, #0
 4991 0092 2A64     		str	r2, [r5, #64]
 4992 0094 0E9B     		ldr	r3, [sp, #56]
 4993 0096 6B62     		str	r3, [r5, #36]
 4994 0098 BDF83C30 		ldrh	r3, [sp, #60]
 4995 009c 6B85     		strh	r3, [r5, #42]	@ movhi
 4996 009e 6B8D     		ldrh	r3, [r5, #42]
 4997 00a0 9BB2     		uxth	r3, r3
 4998 00a2 2B85     		strh	r3, [r5, #40]	@ movhi
 4999 00a4 5D49     		ldr	r1, .L625+8
 5000 00a6 E962     		str	r1, [r5, #44]
 5001 00a8 6F64     		str	r7, [r5, #68]
 5002 00aa C5F84880 		str	r8, [r5, #72]
 5003 00ae EE64     		str	r6, [r5, #76]
 5004 00b0 2A65     		str	r2, [r5, #80]
 5005 00b2 002B     		cmp	r3, #0
 5006 00b4 00F08880 		beq	.L607
 5007 00b8 AB6B     		ldr	r3, [r5, #56]
 5008 00ba 002B     		cmp	r3, #0
 5009 00bc 35D0     		beq	.L608
 5010 00be 584A     		ldr	r2, .L625+12
 5011 00c0 DA63     		str	r2, [r3, #60]
 5012 00c2 AB6B     		ldr	r3, [r5, #56]
 5013 00c4 574A     		ldr	r2, .L625+16
 5014 00c6 DA64     		str	r2, [r3, #76]
 5015 00c8 AA6B     		ldr	r2, [r5, #56]
 5016 00ca 0023     		movs	r3, #0
 5017 00cc 1364     		str	r3, [r2, #64]
 5018 00ce AA6B     		ldr	r2, [r5, #56]
 5019 00d0 5364     		str	r3, [r2, #68]
 5020 00d2 AA6B     		ldr	r2, [r5, #56]
 5021 00d4 9364     		str	r3, [r2, #72]
 5022 00d6 AA6B     		ldr	r2, [r5, #56]
 5023 00d8 1365     		str	r3, [r2, #80]
 5024 00da 2968     		ldr	r1, [r5]
 5025 00dc 2B8D     		ldrh	r3, [r5, #40]
 5026 00de 6A6A     		ldr	r2, [r5, #36]
 5027 00e0 1031     		adds	r1, r1, #16
 5028 00e2 A86B     		ldr	r0, [r5, #56]
 5029 00e4 FFF7FEFF 		bl	HAL_DMA_Start_IT
 5030 00e8 68B3     		cbz	r0, .L622
 5031 00ea 2023     		movs	r3, #32
 5032 00ec 85F83D30 		strb	r3, [r5, #61]
 5033 00f0 0022     		movs	r2, #0
 5034 00f2 85F83E20 		strb	r2, [r5, #62]
 5035 00f6 2B6C     		ldr	r3, [r5, #64]
 5036 00f8 43F01003 		orr	r3, r3, #16
ARM GAS  C:\Temp\ccVzAG2n.s 			page 88


 5037 00fc 2B64     		str	r3, [r5, #64]
 5038 00fe 85F83C20 		strb	r2, [r5, #60]
 5039 0102 0120     		movs	r0, #1
 5040 0104 7FE0     		b	.L603
 5041              	.L620:
 5042 0106 40F6AC41 		movw	r1, #3244
 5043 010a 4748     		ldr	r0, .L625+20
 5044 010c FFF7FEFF 		bl	assert_failed
 5045 0110 86E7     		b	.L602
 5046              	.L621:
 5047 0112 0023     		movs	r3, #0
 5048 0114 2B63     		str	r3, [r5, #48]
 5049 0116 2022     		movs	r2, #32
 5050 0118 85F83D20 		strb	r2, [r5, #61]
 5051 011c 85F83E30 		strb	r3, [r5, #62]
 5052 0120 2B6C     		ldr	r3, [r5, #64]
 5053 0122 1343     		orrs	r3, r3, r2
 5054 0124 2B64     		str	r3, [r5, #64]
 5055 0126 0220     		movs	r0, #2
 5056 0128 6DE0     		b	.L603
 5057              	.L608:
 5058 012a 2023     		movs	r3, #32
 5059 012c 85F83D30 		strb	r3, [r5, #61]
 5060 0130 0022     		movs	r2, #0
 5061 0132 85F83E20 		strb	r2, [r5, #62]
 5062 0136 2B6C     		ldr	r3, [r5, #64]
 5063 0138 43F08003 		orr	r3, r3, #128
 5064 013c 2B64     		str	r3, [r5, #64]
 5065 013e 85F83C20 		strb	r2, [r5, #60]
 5066 0142 0120     		movs	r0, #1
 5067 0144 5FE0     		b	.L603
 5068              	.L622:
 5069 0146 CDF80490 		str	r9, [sp, #4]
 5070 014a 2323     		movs	r3, #35
 5071 014c 0093     		str	r3, [sp]
 5072 014e 3346     		mov	r3, r6
 5073 0150 4246     		mov	r2, r8
 5074 0152 3946     		mov	r1, r7
 5075 0154 2846     		mov	r0, r5
 5076 0156 FFF7FEFF 		bl	I2C_RequestMemoryRead
 5077 015a D8B9     		cbnz	r0, .L623
 5078 015c 2B8D     		ldrh	r3, [r5, #40]
 5079 015e 012B     		cmp	r3, #1
 5080 0160 2CD0     		beq	.L624
 5081 0162 2A68     		ldr	r2, [r5]
 5082 0164 5368     		ldr	r3, [r2, #4]
 5083 0166 43F48053 		orr	r3, r3, #4096
 5084 016a 5360     		str	r3, [r2, #4]
 5085              	.L613:
 5086 016c 0022     		movs	r2, #0
 5087 016e 0392     		str	r2, [sp, #12]
 5088 0170 2B68     		ldr	r3, [r5]
 5089 0172 5969     		ldr	r1, [r3, #20]
 5090 0174 0391     		str	r1, [sp, #12]
 5091 0176 9969     		ldr	r1, [r3, #24]
 5092 0178 0391     		str	r1, [sp, #12]
 5093 017a 0399     		ldr	r1, [sp, #12]
ARM GAS  C:\Temp\ccVzAG2n.s 			page 89


 5094 017c 85F83C20 		strb	r2, [r5, #60]
 5095 0180 5A68     		ldr	r2, [r3, #4]
 5096 0182 42F48072 		orr	r2, r2, #256
 5097 0186 5A60     		str	r2, [r3, #4]
 5098 0188 2A68     		ldr	r2, [r5]
 5099 018a 5368     		ldr	r3, [r2, #4]
 5100 018c 43F40063 		orr	r3, r3, #2048
 5101 0190 5360     		str	r3, [r2, #4]
 5102 0192 35E0     		b	.L614
 5103              	.L623:
 5104 0194 A86B     		ldr	r0, [r5, #56]
 5105 0196 FFF7FEFF 		bl	HAL_DMA_Abort_IT
 5106 019a AA6B     		ldr	r2, [r5, #56]
 5107 019c 0023     		movs	r3, #0
 5108 019e D363     		str	r3, [r2, #60]
 5109 01a0 2968     		ldr	r1, [r5]
 5110 01a2 0A68     		ldr	r2, [r1]
 5111 01a4 22F48062 		bic	r2, r2, #1024
 5112 01a8 0A60     		str	r2, [r1]
 5113 01aa 2B85     		strh	r3, [r5, #40]	@ movhi
 5114 01ac 6B85     		strh	r3, [r5, #42]	@ movhi
 5115 01ae 2A68     		ldr	r2, [r5]
 5116 01b0 1368     		ldr	r3, [r2]
 5117 01b2 23F00103 		bic	r3, r3, #1
 5118 01b6 1360     		str	r3, [r2]
 5119 01b8 0120     		movs	r0, #1
 5120 01ba 24E0     		b	.L603
 5121              	.L624:
 5122 01bc 2A68     		ldr	r2, [r5]
 5123 01be 1368     		ldr	r3, [r2]
 5124 01c0 23F48063 		bic	r3, r3, #1024
 5125 01c4 1360     		str	r3, [r2]
 5126 01c6 D1E7     		b	.L613
 5127              	.L607:
 5128 01c8 CDF80490 		str	r9, [sp, #4]
 5129 01cc 2323     		movs	r3, #35
 5130 01ce 0093     		str	r3, [sp]
 5131 01d0 3346     		mov	r3, r6
 5132 01d2 4246     		mov	r2, r8
 5133 01d4 3946     		mov	r1, r7
 5134 01d6 2846     		mov	r0, r5
 5135 01d8 FFF7FEFF 		bl	I2C_RequestMemoryRead
 5136 01dc C0B9     		cbnz	r0, .L617
 5137 01de 0021     		movs	r1, #0
 5138 01e0 0491     		str	r1, [sp, #16]
 5139 01e2 2B68     		ldr	r3, [r5]
 5140 01e4 5A69     		ldr	r2, [r3, #20]
 5141 01e6 0492     		str	r2, [sp, #16]
 5142 01e8 9A69     		ldr	r2, [r3, #24]
 5143 01ea 0492     		str	r2, [sp, #16]
 5144 01ec 049A     		ldr	r2, [sp, #16]
 5145 01ee 1A68     		ldr	r2, [r3]
 5146 01f0 42F40072 		orr	r2, r2, #512
 5147 01f4 1A60     		str	r2, [r3]
 5148 01f6 2023     		movs	r3, #32
 5149 01f8 85F83D30 		strb	r3, [r5, #61]
 5150 01fc 85F83C10 		strb	r1, [r5, #60]
ARM GAS  C:\Temp\ccVzAG2n.s 			page 90


 5151              	.L614:
 5152 0200 0020     		movs	r0, #0
 5153 0202 00E0     		b	.L603
 5154              	.L615:
 5155 0204 0220     		movs	r0, #2
 5156              	.L603:
 5157 0206 07B0     		add	sp, sp, #28
 5158              		@ sp needed
 5159 0208 BDE8F083 		pop	{r4, r5, r6, r7, r8, r9, pc}
 5160              	.L616:
 5161 020c 0220     		movs	r0, #2
 5162 020e FAE7     		b	.L603
 5163              	.L617:
 5164 0210 0120     		movs	r0, #1
 5165 0212 F8E7     		b	.L603
 5166              	.L626:
 5167              		.align	2
 5168              	.L625:
 5169 0214 00000000 		.word	SystemCoreClock
 5170 0218 89B5F814 		.word	351843721
 5171 021c 0000FFFF 		.word	-65536
 5172 0220 00000000 		.word	I2C_DMAXferCplt
 5173 0224 00000000 		.word	I2C_DMAError
 5174 0228 00000000 		.word	.LC0
 5176              		.section	.text.HAL_I2C_IsDeviceReady,"ax",%progbits
 5177              		.align	1
 5178              		.global	HAL_I2C_IsDeviceReady
 5179              		.syntax unified
 5180              		.thumb
 5181              		.thumb_func
 5183              	HAL_I2C_IsDeviceReady:
 5184              		@ args = 0, pretend = 0, frame = 8
 5185              		@ frame_needed = 0, uses_anonymous_args = 0
 5186 0000 2DE9F043 		push	{r4, r5, r6, r7, r8, r9, lr}
 5187 0004 85B0     		sub	sp, sp, #20
 5188 0006 0446     		mov	r4, r0
 5189 0008 8846     		mov	r8, r1
 5190 000a 9146     		mov	r9, r2
 5191 000c 1D46     		mov	r5, r3
 5192 000e FFF7FEFF 		bl	HAL_GetTick
 5193 0012 94F83D30 		ldrb	r3, [r4, #61]	@ zero_extendqisi2
 5194 0016 DBB2     		uxtb	r3, r3
 5195 0018 202B     		cmp	r3, #32
 5196 001a 03D0     		beq	.L645
 5197 001c 0220     		movs	r0, #2
 5198              	.L628:
 5199 001e 05B0     		add	sp, sp, #20
 5200              		@ sp needed
 5201 0020 BDE8F083 		pop	{r4, r5, r6, r7, r8, r9, pc}
 5202              	.L645:
 5203 0024 0646     		mov	r6, r0
 5204 0026 0090     		str	r0, [sp]
 5205 0028 1923     		movs	r3, #25
 5206 002a 0122     		movs	r2, #1
 5207 002c 5749     		ldr	r1, .L649
 5208 002e 2046     		mov	r0, r4
 5209 0030 FFF7FEFF 		bl	I2C_WaitOnFlagUntilTimeout
ARM GAS  C:\Temp\ccVzAG2n.s 			page 91


 5210 0034 0028     		cmp	r0, #0
 5211 0036 40F0A080 		bne	.L640
 5212 003a 94F83C30 		ldrb	r3, [r4, #60]	@ zero_extendqisi2
 5213 003e 012B     		cmp	r3, #1
 5214 0040 00F09D80 		beq	.L641
 5215 0044 0123     		movs	r3, #1
 5216 0046 84F83C30 		strb	r3, [r4, #60]
 5217 004a 2368     		ldr	r3, [r4]
 5218 004c 1A68     		ldr	r2, [r3]
 5219 004e 12F0010F 		tst	r2, #1
 5220 0052 03D1     		bne	.L629
 5221 0054 1A68     		ldr	r2, [r3]
 5222 0056 42F00102 		orr	r2, r2, #1
 5223 005a 1A60     		str	r2, [r3]
 5224              	.L629:
 5225 005c 2268     		ldr	r2, [r4]
 5226 005e 1368     		ldr	r3, [r2]
 5227 0060 23F40063 		bic	r3, r3, #2048
 5228 0064 1360     		str	r3, [r2]
 5229 0066 2423     		movs	r3, #36
 5230 0068 84F83D30 		strb	r3, [r4, #61]
 5231 006c 0027     		movs	r7, #0
 5232 006e 2764     		str	r7, [r4, #64]
 5233 0070 474B     		ldr	r3, .L649+4
 5234 0072 E362     		str	r3, [r4, #44]
 5235 0074 40E0     		b	.L638
 5236              	.L648:
 5237 0076 2368     		ldr	r3, [r4]
 5238 0078 1B68     		ldr	r3, [r3]
 5239 007a 13F4807F 		tst	r3, #256
 5240 007e 02D0     		beq	.L631
 5241 0080 4FF40073 		mov	r3, #512
 5242 0084 2364     		str	r3, [r4, #64]
 5243              	.L631:
 5244 0086 0320     		movs	r0, #3
 5245 0088 C9E7     		b	.L628
 5246              	.L633:
 5247 008a A023     		movs	r3, #160
 5248 008c 84F83D30 		strb	r3, [r4, #61]
 5249              	.L634:
 5250 0090 2268     		ldr	r2, [r4]
 5251 0092 5369     		ldr	r3, [r2, #20]
 5252 0094 C3F34003 		ubfx	r3, r3, #1, #1
 5253 0098 5269     		ldr	r2, [r2, #20]
 5254 009a C2F38022 		ubfx	r2, r2, #10, #1
 5255              	.L632:
 5256 009e 94F83DC0 		ldrb	ip, [r4, #61]	@ zero_extendqisi2
 5257 00a2 5FFA8CFC 		uxtb	ip, ip
 5258 00a6 BCF1A00F 		cmp	ip, #160
 5259 00aa 09D0     		beq	.L635
 5260 00ac 43B9     		cbnz	r3, .L635
 5261 00ae 3AB9     		cbnz	r2, .L635
 5262 00b0 FFF7FEFF 		bl	HAL_GetTick
 5263 00b4 801B     		subs	r0, r0, r6
 5264 00b6 A842     		cmp	r0, r5
 5265 00b8 E7D8     		bhi	.L633
 5266 00ba 002D     		cmp	r5, #0
ARM GAS  C:\Temp\ccVzAG2n.s 			page 92


 5267 00bc E8D1     		bne	.L634
 5268 00be E4E7     		b	.L633
 5269              	.L635:
 5270 00c0 2023     		movs	r3, #32
 5271 00c2 84F83D30 		strb	r3, [r4, #61]
 5272 00c6 2368     		ldr	r3, [r4]
 5273 00c8 5A69     		ldr	r2, [r3, #20]
 5274 00ca 12F0020F 		tst	r2, #2
 5275 00ce 31D1     		bne	.L646
 5276 00d0 1A68     		ldr	r2, [r3]
 5277 00d2 42F40072 		orr	r2, r2, #512
 5278 00d6 1A60     		str	r2, [r3]
 5279 00d8 2368     		ldr	r3, [r4]
 5280 00da 6FF48062 		mvn	r2, #1024
 5281 00de 5A61     		str	r2, [r3, #20]
 5282 00e0 0096     		str	r6, [sp]
 5283 00e2 1923     		movs	r3, #25
 5284 00e4 0122     		movs	r2, #1
 5285 00e6 2949     		ldr	r1, .L649
 5286 00e8 2046     		mov	r0, r4
 5287 00ea FFF7FEFF 		bl	I2C_WaitOnFlagUntilTimeout
 5288 00ee 0028     		cmp	r0, #0
 5289 00f0 49D1     		bne	.L643
 5290 00f2 0137     		adds	r7, r7, #1
 5291 00f4 4F45     		cmp	r7, r9
 5292 00f6 38D2     		bcs	.L647
 5293              	.L638:
 5294 00f8 2268     		ldr	r2, [r4]
 5295 00fa 1368     		ldr	r3, [r2]
 5296 00fc 43F48073 		orr	r3, r3, #256
 5297 0100 1360     		str	r3, [r2]
 5298 0102 0096     		str	r6, [sp]
 5299 0104 2B46     		mov	r3, r5
 5300 0106 0022     		movs	r2, #0
 5301 0108 4FF00111 		mov	r1, #65537
 5302 010c 2046     		mov	r0, r4
 5303 010e FFF7FEFF 		bl	I2C_WaitOnFlagUntilTimeout
 5304 0112 0028     		cmp	r0, #0
 5305 0114 AFD1     		bne	.L648
 5306 0116 2368     		ldr	r3, [r4]
 5307 0118 08F0FE02 		and	r2, r8, #254
 5308 011c 1A61     		str	r2, [r3, #16]
 5309 011e FFF7FEFF 		bl	HAL_GetTick
 5310 0122 0646     		mov	r6, r0
 5311 0124 2268     		ldr	r2, [r4]
 5312 0126 5369     		ldr	r3, [r2, #20]
 5313 0128 C3F34003 		ubfx	r3, r3, #1, #1
 5314 012c 5269     		ldr	r2, [r2, #20]
 5315 012e C2F38022 		ubfx	r2, r2, #10, #1
 5316 0132 B4E7     		b	.L632
 5317              	.L646:
 5318 0134 1A68     		ldr	r2, [r3]
 5319 0136 42F40072 		orr	r2, r2, #512
 5320 013a 1A60     		str	r2, [r3]
 5321 013c 0023     		movs	r3, #0
 5322 013e 0393     		str	r3, [sp, #12]
 5323 0140 2368     		ldr	r3, [r4]
ARM GAS  C:\Temp\ccVzAG2n.s 			page 93


 5324 0142 5A69     		ldr	r2, [r3, #20]
 5325 0144 0392     		str	r2, [sp, #12]
 5326 0146 9B69     		ldr	r3, [r3, #24]
 5327 0148 0393     		str	r3, [sp, #12]
 5328 014a 039B     		ldr	r3, [sp, #12]
 5329 014c 0096     		str	r6, [sp]
 5330 014e 1923     		movs	r3, #25
 5331 0150 0122     		movs	r2, #1
 5332 0152 0E49     		ldr	r1, .L649
 5333 0154 2046     		mov	r0, r4
 5334 0156 FFF7FEFF 		bl	I2C_WaitOnFlagUntilTimeout
 5335 015a 90B9     		cbnz	r0, .L642
 5336 015c 2023     		movs	r3, #32
 5337 015e 84F83D30 		strb	r3, [r4, #61]
 5338 0162 0023     		movs	r3, #0
 5339 0164 84F83C30 		strb	r3, [r4, #60]
 5340 0168 59E7     		b	.L628
 5341              	.L647:
 5342 016a 2023     		movs	r3, #32
 5343 016c 84F83D30 		strb	r3, [r4, #61]
 5344 0170 0023     		movs	r3, #0
 5345 0172 84F83C30 		strb	r3, [r4, #60]
 5346 0176 0120     		movs	r0, #1
 5347 0178 51E7     		b	.L628
 5348              	.L640:
 5349 017a 0220     		movs	r0, #2
 5350 017c 4FE7     		b	.L628
 5351              	.L641:
 5352 017e 0220     		movs	r0, #2
 5353 0180 4DE7     		b	.L628
 5354              	.L642:
 5355 0182 0120     		movs	r0, #1
 5356 0184 4BE7     		b	.L628
 5357              	.L643:
 5358 0186 0120     		movs	r0, #1
 5359 0188 49E7     		b	.L628
 5360              	.L650:
 5361 018a 00BF     		.align	2
 5362              	.L649:
 5363 018c 02001000 		.word	1048578
 5364 0190 0000FFFF 		.word	-65536
 5366              		.section	.text.HAL_I2C_Master_Seq_Transmit_IT,"ax",%progbits
 5367              		.align	1
 5368              		.global	HAL_I2C_Master_Seq_Transmit_IT
 5369              		.syntax unified
 5370              		.thumb
 5371              		.thumb_func
 5373              	HAL_I2C_Master_Seq_Transmit_IT:
 5374              		@ args = 4, pretend = 0, frame = 8
 5375              		@ frame_needed = 0, uses_anonymous_args = 0
 5376 0000 2DE9F043 		push	{r4, r5, r6, r7, r8, r9, lr}
 5377 0004 83B0     		sub	sp, sp, #12
 5378 0006 0546     		mov	r5, r0
 5379 0008 0F46     		mov	r7, r1
 5380 000a 9146     		mov	r9, r2
 5381 000c 9846     		mov	r8, r3
 5382 000e 0A9E     		ldr	r6, [sp, #40]
ARM GAS  C:\Temp\ccVzAG2n.s 			page 94


 5383 0010 0023     		movs	r3, #0
 5384 0012 0193     		str	r3, [sp, #4]
 5385 0014 0093     		str	r3, [sp]
 5386 0016 731E     		subs	r3, r6, #1
 5387 0018 012B     		cmp	r3, #1
 5388 001a 15D9     		bls	.L652
 5389 001c 202E     		cmp	r6, #32
 5390 001e 0DD8     		bhi	.L653
 5391 0020 042E     		cmp	r6, #4
 5392 0022 05D3     		bcc	.L654
 5393 0024 321F     		subs	r2, r6, #4
 5394 0026 424B     		ldr	r3, .L668
 5395 0028 D340     		lsrs	r3, r3, r2
 5396 002a 13F0010F 		tst	r3, #1
 5397 002e 0BD1     		bne	.L652
 5398              	.L654:
 5399 0030 40F6F651 		movw	r1, #3574
 5400 0034 3F48     		ldr	r0, .L668+4
 5401 0036 FFF7FEFF 		bl	assert_failed
 5402 003a 05E0     		b	.L652
 5403              	.L653:
 5404 003c B6F52A0F 		cmp	r6, #11141120
 5405 0040 02D0     		beq	.L652
 5406 0042 B6F12A4F 		cmp	r6, #-1442840576
 5407 0046 F3D1     		bne	.L654
 5408              	.L652:
 5409 0048 95F83D30 		ldrb	r3, [r5, #61]	@ zero_extendqisi2
 5410 004c DBB2     		uxtb	r3, r3
 5411 004e 202B     		cmp	r3, #32
 5412 0050 68D1     		bne	.L663
 5413 0052 2A68     		ldr	r2, [r5]
 5414 0054 1368     		ldr	r3, [r2]
 5415 0056 13F4007F 		tst	r3, #512
 5416 005a 03D1     		bne	.L656
 5417 005c 082E     		cmp	r6, #8
 5418 005e 01D0     		beq	.L656
 5419 0060 012E     		cmp	r6, #1
 5420 0062 15D1     		bne	.L657
 5421              	.L656:
 5422 0064 344B     		ldr	r3, .L668+8
 5423 0066 1B68     		ldr	r3, [r3]
 5424 0068 DB08     		lsrs	r3, r3, #3
 5425 006a 3449     		ldr	r1, .L668+12
 5426 006c A1FB0313 		umull	r1, r3, r1, r3
 5427 0070 1B0A     		lsrs	r3, r3, #8
 5428 0072 03EB8303 		add	r3, r3, r3, lsl #2
 5429 0076 03EB8303 		add	r3, r3, r3, lsl #2
 5430 007a 0093     		str	r3, [sp]
 5431              	.L659:
 5432 007c 009C     		ldr	r4, [sp]
 5433 007e 013C     		subs	r4, r4, #1
 5434 0080 0094     		str	r4, [sp]
 5435 0082 0098     		ldr	r0, [sp]
 5436 0084 0028     		cmp	r0, #0
 5437 0086 3AD0     		beq	.L666
 5438 0088 9369     		ldr	r3, [r2, #24]
 5439 008a 13F0020F 		tst	r3, #2
ARM GAS  C:\Temp\ccVzAG2n.s 			page 95


 5440 008e F5D1     		bne	.L659
 5441              	.L657:
 5442 0090 95F83C30 		ldrb	r3, [r5, #60]	@ zero_extendqisi2
 5443 0094 012B     		cmp	r3, #1
 5444 0096 49D0     		beq	.L664
 5445 0098 0123     		movs	r3, #1
 5446 009a 85F83C30 		strb	r3, [r5, #60]
 5447 009e 1368     		ldr	r3, [r2]
 5448 00a0 13F0010F 		tst	r3, #1
 5449 00a4 03D1     		bne	.L660
 5450 00a6 1368     		ldr	r3, [r2]
 5451 00a8 43F00103 		orr	r3, r3, #1
 5452 00ac 1360     		str	r3, [r2]
 5453              	.L660:
 5454 00ae 2A68     		ldr	r2, [r5]
 5455 00b0 1368     		ldr	r3, [r2]
 5456 00b2 23F40063 		bic	r3, r3, #2048
 5457 00b6 1360     		str	r3, [r2]
 5458 00b8 2123     		movs	r3, #33
 5459 00ba 85F83D30 		strb	r3, [r5, #61]
 5460 00be 1023     		movs	r3, #16
 5461 00c0 85F83E30 		strb	r3, [r5, #62]
 5462 00c4 0023     		movs	r3, #0
 5463 00c6 2B64     		str	r3, [r5, #64]
 5464 00c8 C5F82490 		str	r9, [r5, #36]
 5465 00cc A5F82A80 		strh	r8, [r5, #42]	@ movhi
 5466 00d0 6B8D     		ldrh	r3, [r5, #42]
 5467 00d2 2B85     		strh	r3, [r5, #40]	@ movhi
 5468 00d4 EE62     		str	r6, [r5, #44]
 5469 00d6 6F64     		str	r7, [r5, #68]
 5470 00d8 2B6B     		ldr	r3, [r5, #48]
 5471 00da 0193     		str	r3, [sp, #4]
 5472 00dc 019B     		ldr	r3, [sp, #4]
 5473 00de 112B     		cmp	r3, #17
 5474 00e0 19D0     		beq	.L667
 5475              	.L661:
 5476 00e2 2A68     		ldr	r2, [r5]
 5477 00e4 1368     		ldr	r3, [r2]
 5478 00e6 43F48073 		orr	r3, r3, #256
 5479 00ea 1360     		str	r3, [r2]
 5480              	.L662:
 5481 00ec 0020     		movs	r0, #0
 5482 00ee 85F83C00 		strb	r0, [r5, #60]
 5483 00f2 2A68     		ldr	r2, [r5]
 5484 00f4 5368     		ldr	r3, [r2, #4]
 5485 00f6 43F4E063 		orr	r3, r3, #1792
 5486 00fa 5360     		str	r3, [r2, #4]
 5487 00fc 13E0     		b	.L655
 5488              	.L666:
 5489 00fe 0023     		movs	r3, #0
 5490 0100 2B63     		str	r3, [r5, #48]
 5491 0102 2022     		movs	r2, #32
 5492 0104 85F83D20 		strb	r2, [r5, #61]
 5493 0108 85F83E30 		strb	r3, [r5, #62]
 5494 010c 2B6C     		ldr	r3, [r5, #64]
 5495 010e 1343     		orrs	r3, r3, r2
 5496 0110 2B64     		str	r3, [r5, #64]
ARM GAS  C:\Temp\ccVzAG2n.s 			page 96


 5497 0112 0220     		movs	r0, #2
 5498 0114 07E0     		b	.L655
 5499              	.L667:
 5500 0116 B6F52A0F 		cmp	r6, #11141120
 5501 011a E2D0     		beq	.L661
 5502 011c B6F12A4F 		cmp	r6, #-1442840576
 5503 0120 E4D1     		bne	.L662
 5504 0122 DEE7     		b	.L661
 5505              	.L663:
 5506 0124 0220     		movs	r0, #2
 5507              	.L655:
 5508 0126 03B0     		add	sp, sp, #12
 5509              		@ sp needed
 5510 0128 BDE8F083 		pop	{r4, r5, r6, r7, r8, r9, pc}
 5511              	.L664:
 5512 012c 0220     		movs	r0, #2
 5513 012e FAE7     		b	.L655
 5514              	.L669:
 5515              		.align	2
 5516              	.L668:
 5517 0130 11100010 		.word	268439569
 5518 0134 00000000 		.word	.LC0
 5519 0138 00000000 		.word	SystemCoreClock
 5520 013c 89B5F814 		.word	351843721
 5522              		.section	.text.HAL_I2C_Master_Seq_Transmit_DMA,"ax",%progbits
 5523              		.align	1
 5524              		.global	HAL_I2C_Master_Seq_Transmit_DMA
 5525              		.syntax unified
 5526              		.thumb
 5527              		.thumb_func
 5529              	HAL_I2C_Master_Seq_Transmit_DMA:
 5530              		@ args = 4, pretend = 0, frame = 8
 5531              		@ frame_needed = 0, uses_anonymous_args = 0
 5532 0000 2DE9F043 		push	{r4, r5, r6, r7, r8, r9, lr}
 5533 0004 83B0     		sub	sp, sp, #12
 5534 0006 0546     		mov	r5, r0
 5535 0008 0F46     		mov	r7, r1
 5536 000a 9146     		mov	r9, r2
 5537 000c 9846     		mov	r8, r3
 5538 000e 0A9E     		ldr	r6, [sp, #40]
 5539 0010 0023     		movs	r3, #0
 5540 0012 0193     		str	r3, [sp, #4]
 5541 0014 0093     		str	r3, [sp]
 5542 0016 731E     		subs	r3, r6, #1
 5543 0018 012B     		cmp	r3, #1
 5544 001a 15D9     		bls	.L671
 5545 001c 202E     		cmp	r6, #32
 5546 001e 0DD8     		bhi	.L672
 5547 0020 042E     		cmp	r6, #4
 5548 0022 05D3     		bcc	.L673
 5549 0024 321F     		subs	r2, r6, #4
 5550 0026 744B     		ldr	r3, .L698
 5551 0028 D340     		lsrs	r3, r3, r2
 5552 002a 13F0010F 		tst	r3, #1
 5553 002e 0BD1     		bne	.L671
 5554              	.L673:
 5555 0030 40F65661 		movw	r1, #3670
ARM GAS  C:\Temp\ccVzAG2n.s 			page 97


 5556 0034 7148     		ldr	r0, .L698+4
 5557 0036 FFF7FEFF 		bl	assert_failed
 5558 003a 05E0     		b	.L671
 5559              	.L672:
 5560 003c B6F52A0F 		cmp	r6, #11141120
 5561 0040 02D0     		beq	.L671
 5562 0042 B6F12A4F 		cmp	r6, #-1442840576
 5563 0046 F3D1     		bne	.L673
 5564              	.L671:
 5565 0048 95F83D30 		ldrb	r3, [r5, #61]	@ zero_extendqisi2
 5566 004c DBB2     		uxtb	r3, r3
 5567 004e 202B     		cmp	r3, #32
 5568 0050 40F0CB80 		bne	.L691
 5569 0054 2A68     		ldr	r2, [r5]
 5570 0056 1368     		ldr	r3, [r2]
 5571 0058 13F4007F 		tst	r3, #512
 5572 005c 03D1     		bne	.L675
 5573 005e 082E     		cmp	r6, #8
 5574 0060 01D0     		beq	.L675
 5575 0062 012E     		cmp	r6, #1
 5576 0064 15D1     		bne	.L676
 5577              	.L675:
 5578 0066 664B     		ldr	r3, .L698+8
 5579 0068 1B68     		ldr	r3, [r3]
 5580 006a DB08     		lsrs	r3, r3, #3
 5581 006c 6549     		ldr	r1, .L698+12
 5582 006e A1FB0313 		umull	r1, r3, r1, r3
 5583 0072 1B0A     		lsrs	r3, r3, #8
 5584 0074 03EB8303 		add	r3, r3, r3, lsl #2
 5585 0078 03EB8303 		add	r3, r3, r3, lsl #2
 5586 007c 0093     		str	r3, [sp]
 5587              	.L678:
 5588 007e 009C     		ldr	r4, [sp]
 5589 0080 013C     		subs	r4, r4, #1
 5590 0082 0094     		str	r4, [sp]
 5591 0084 0098     		ldr	r0, [sp]
 5592 0086 0028     		cmp	r0, #0
 5593 0088 4FD0     		beq	.L695
 5594 008a 9369     		ldr	r3, [r2, #24]
 5595 008c 13F0020F 		tst	r3, #2
 5596 0090 F5D1     		bne	.L678
 5597              	.L676:
 5598 0092 95F83C30 		ldrb	r3, [r5, #60]	@ zero_extendqisi2
 5599 0096 012B     		cmp	r3, #1
 5600 0098 00F0AB80 		beq	.L692
 5601 009c 0123     		movs	r3, #1
 5602 009e 85F83C30 		strb	r3, [r5, #60]
 5603 00a2 1368     		ldr	r3, [r2]
 5604 00a4 13F0010F 		tst	r3, #1
 5605 00a8 03D1     		bne	.L679
 5606 00aa 1368     		ldr	r3, [r2]
 5607 00ac 43F00103 		orr	r3, r3, #1
 5608 00b0 1360     		str	r3, [r2]
 5609              	.L679:
 5610 00b2 2A68     		ldr	r2, [r5]
 5611 00b4 1368     		ldr	r3, [r2]
 5612 00b6 23F40063 		bic	r3, r3, #2048
ARM GAS  C:\Temp\ccVzAG2n.s 			page 98


 5613 00ba 1360     		str	r3, [r2]
 5614 00bc 2123     		movs	r3, #33
 5615 00be 85F83D30 		strb	r3, [r5, #61]
 5616 00c2 1023     		movs	r3, #16
 5617 00c4 85F83E30 		strb	r3, [r5, #62]
 5618 00c8 0023     		movs	r3, #0
 5619 00ca 2B64     		str	r3, [r5, #64]
 5620 00cc C5F82490 		str	r9, [r5, #36]
 5621 00d0 A5F82A80 		strh	r8, [r5, #42]	@ movhi
 5622 00d4 6B8D     		ldrh	r3, [r5, #42]
 5623 00d6 9BB2     		uxth	r3, r3
 5624 00d8 2B85     		strh	r3, [r5, #40]	@ movhi
 5625 00da EE62     		str	r6, [r5, #44]
 5626 00dc 6F64     		str	r7, [r5, #68]
 5627 00de 2A6B     		ldr	r2, [r5, #48]
 5628 00e0 0192     		str	r2, [sp, #4]
 5629 00e2 002B     		cmp	r3, #0
 5630 00e4 63D0     		beq	.L680
 5631 00e6 6B6B     		ldr	r3, [r5, #52]
 5632 00e8 5BB3     		cbz	r3, .L681
 5633 00ea 474A     		ldr	r2, .L698+16
 5634 00ec DA63     		str	r2, [r3, #60]
 5635 00ee 6B6B     		ldr	r3, [r5, #52]
 5636 00f0 464A     		ldr	r2, .L698+20
 5637 00f2 DA64     		str	r2, [r3, #76]
 5638 00f4 6A6B     		ldr	r2, [r5, #52]
 5639 00f6 0023     		movs	r3, #0
 5640 00f8 1364     		str	r3, [r2, #64]
 5641 00fa 6A6B     		ldr	r2, [r5, #52]
 5642 00fc 1365     		str	r3, [r2, #80]
 5643 00fe 2A68     		ldr	r2, [r5]
 5644 0100 2B8D     		ldrh	r3, [r5, #40]
 5645 0102 1032     		adds	r2, r2, #16
 5646 0104 696A     		ldr	r1, [r5, #36]
 5647 0106 686B     		ldr	r0, [r5, #52]
 5648 0108 FFF7FEFF 		bl	HAL_DMA_Start_IT
 5649 010c 38B3     		cbz	r0, .L682
 5650 010e 2023     		movs	r3, #32
 5651 0110 85F83D30 		strb	r3, [r5, #61]
 5652 0114 0022     		movs	r2, #0
 5653 0116 85F83E20 		strb	r2, [r5, #62]
 5654 011a 2B6C     		ldr	r3, [r5, #64]
 5655 011c 43F01003 		orr	r3, r3, #16
 5656 0120 2B64     		str	r3, [r5, #64]
 5657 0122 85F83C20 		strb	r2, [r5, #60]
 5658 0126 0120     		movs	r0, #1
 5659 0128 60E0     		b	.L674
 5660              	.L695:
 5661 012a 0023     		movs	r3, #0
 5662 012c 2B63     		str	r3, [r5, #48]
 5663 012e 2022     		movs	r2, #32
 5664 0130 85F83D20 		strb	r2, [r5, #61]
 5665 0134 85F83E30 		strb	r3, [r5, #62]
 5666 0138 2B6C     		ldr	r3, [r5, #64]
 5667 013a 1343     		orrs	r3, r3, r2
 5668 013c 2B64     		str	r3, [r5, #64]
 5669 013e 0220     		movs	r0, #2
ARM GAS  C:\Temp\ccVzAG2n.s 			page 99


 5670 0140 54E0     		b	.L674
 5671              	.L681:
 5672 0142 2023     		movs	r3, #32
 5673 0144 85F83D30 		strb	r3, [r5, #61]
 5674 0148 0022     		movs	r2, #0
 5675 014a 85F83E20 		strb	r2, [r5, #62]
 5676 014e 2B6C     		ldr	r3, [r5, #64]
 5677 0150 43F08003 		orr	r3, r3, #128
 5678 0154 2B64     		str	r3, [r5, #64]
 5679 0156 85F83C20 		strb	r2, [r5, #60]
 5680 015a 0120     		movs	r0, #1
 5681 015c 46E0     		b	.L674
 5682              	.L682:
 5683 015e 2A68     		ldr	r2, [r5]
 5684 0160 1368     		ldr	r3, [r2]
 5685 0162 43F48063 		orr	r3, r3, #1024
 5686 0166 1360     		str	r3, [r2]
 5687 0168 019B     		ldr	r3, [sp, #4]
 5688 016a 112B     		cmp	r3, #17
 5689 016c 18D0     		beq	.L696
 5690              	.L684:
 5691 016e 2A68     		ldr	r2, [r5]
 5692 0170 1368     		ldr	r3, [r2]
 5693 0172 43F48073 		orr	r3, r3, #256
 5694 0176 1360     		str	r3, [r2]
 5695              	.L685:
 5696 0178 0023     		movs	r3, #0
 5697 017a 85F83C30 		strb	r3, [r5, #60]
 5698 017e 042E     		cmp	r6, #4
 5699 0180 03D0     		beq	.L686
 5700 0182 202E     		cmp	r6, #32
 5701 0184 01D0     		beq	.L686
 5702 0186 102E     		cmp	r6, #16
 5703 0188 04D1     		bne	.L687
 5704              	.L686:
 5705 018a 2A68     		ldr	r2, [r5]
 5706 018c 5368     		ldr	r3, [r2, #4]
 5707 018e 43F40063 		orr	r3, r3, #2048
 5708 0192 5360     		str	r3, [r2, #4]
 5709              	.L687:
 5710 0194 2A68     		ldr	r2, [r5]
 5711 0196 5368     		ldr	r3, [r2, #4]
 5712 0198 43F44073 		orr	r3, r3, #768
 5713 019c 5360     		str	r3, [r2, #4]
 5714 019e 1BE0     		b	.L688
 5715              	.L696:
 5716 01a0 B6F52A0F 		cmp	r6, #11141120
 5717 01a4 E3D0     		beq	.L684
 5718 01a6 B6F12A4F 		cmp	r6, #-1442840576
 5719 01aa E5D1     		bne	.L685
 5720 01ac DFE7     		b	.L684
 5721              	.L680:
 5722 01ae 2A68     		ldr	r2, [r5]
 5723 01b0 1368     		ldr	r3, [r2]
 5724 01b2 43F48063 		orr	r3, r3, #1024
 5725 01b6 1360     		str	r3, [r2]
 5726 01b8 019B     		ldr	r3, [sp, #4]
ARM GAS  C:\Temp\ccVzAG2n.s 			page 100


 5727 01ba 112B     		cmp	r3, #17
 5728 01bc 0ED0     		beq	.L697
 5729              	.L689:
 5730 01be 2A68     		ldr	r2, [r5]
 5731 01c0 1368     		ldr	r3, [r2]
 5732 01c2 43F48073 		orr	r3, r3, #256
 5733 01c6 1360     		str	r3, [r2]
 5734              	.L690:
 5735 01c8 0023     		movs	r3, #0
 5736 01ca 85F83C30 		strb	r3, [r5, #60]
 5737 01ce 2A68     		ldr	r2, [r5]
 5738 01d0 5368     		ldr	r3, [r2, #4]
 5739 01d2 43F4E063 		orr	r3, r3, #1792
 5740 01d6 5360     		str	r3, [r2, #4]
 5741              	.L688:
 5742 01d8 0020     		movs	r0, #0
 5743 01da 07E0     		b	.L674
 5744              	.L697:
 5745 01dc B6F52A0F 		cmp	r6, #11141120
 5746 01e0 EDD0     		beq	.L689
 5747 01e2 B6F12A4F 		cmp	r6, #-1442840576
 5748 01e6 EFD1     		bne	.L690
 5749 01e8 E9E7     		b	.L689
 5750              	.L691:
 5751 01ea 0220     		movs	r0, #2
 5752              	.L674:
 5753 01ec 03B0     		add	sp, sp, #12
 5754              		@ sp needed
 5755 01ee BDE8F083 		pop	{r4, r5, r6, r7, r8, r9, pc}
 5756              	.L692:
 5757 01f2 0220     		movs	r0, #2
 5758 01f4 FAE7     		b	.L674
 5759              	.L699:
 5760 01f6 00BF     		.align	2
 5761              	.L698:
 5762 01f8 11100010 		.word	268439569
 5763 01fc 00000000 		.word	.LC0
 5764 0200 00000000 		.word	SystemCoreClock
 5765 0204 89B5F814 		.word	351843721
 5766 0208 00000000 		.word	I2C_DMAXferCplt
 5767 020c 00000000 		.word	I2C_DMAError
 5769              		.section	.text.HAL_I2C_Master_Seq_Receive_IT,"ax",%progbits
 5770              		.align	1
 5771              		.global	HAL_I2C_Master_Seq_Receive_IT
 5772              		.syntax unified
 5773              		.thumb
 5774              		.thumb_func
 5776              	HAL_I2C_Master_Seq_Receive_IT:
 5777              		@ args = 4, pretend = 0, frame = 8
 5778              		@ frame_needed = 0, uses_anonymous_args = 0
 5779 0000 2DE9F043 		push	{r4, r5, r6, r7, r8, r9, lr}
 5780 0004 83B0     		sub	sp, sp, #12
 5781 0006 0546     		mov	r5, r0
 5782 0008 0F46     		mov	r7, r1
 5783 000a 9146     		mov	r9, r2
 5784 000c 9846     		mov	r8, r3
 5785 000e 0A9E     		ldr	r6, [sp, #40]
ARM GAS  C:\Temp\ccVzAG2n.s 			page 101


 5786 0010 0023     		movs	r3, #0
 5787 0012 0193     		str	r3, [sp, #4]
 5788 0014 0093     		str	r3, [sp]
 5789 0016 731E     		subs	r3, r6, #1
 5790 0018 012B     		cmp	r3, #1
 5791 001a 15D9     		bls	.L701
 5792 001c 202E     		cmp	r6, #32
 5793 001e 0DD8     		bhi	.L702
 5794 0020 042E     		cmp	r6, #4
 5795 0022 05D3     		bcc	.L703
 5796 0024 321F     		subs	r2, r6, #4
 5797 0026 564B     		ldr	r3, .L723
 5798 0028 D340     		lsrs	r3, r3, r2
 5799 002a 13F0010F 		tst	r3, #1
 5800 002e 0BD1     		bne	.L701
 5801              	.L703:
 5802 0030 40F60A71 		movw	r1, #3850
 5803 0034 5348     		ldr	r0, .L723+4
 5804 0036 FFF7FEFF 		bl	assert_failed
 5805 003a 05E0     		b	.L701
 5806              	.L702:
 5807 003c B6F52A0F 		cmp	r6, #11141120
 5808 0040 02D0     		beq	.L701
 5809 0042 B6F12A4F 		cmp	r6, #-1442840576
 5810 0046 F3D1     		bne	.L703
 5811              	.L701:
 5812 0048 95F83D30 		ldrb	r3, [r5, #61]	@ zero_extendqisi2
 5813 004c DBB2     		uxtb	r3, r3
 5814 004e 202B     		cmp	r3, #32
 5815 0050 40F08F80 		bne	.L716
 5816 0054 2A68     		ldr	r2, [r5]
 5817 0056 1368     		ldr	r3, [r2]
 5818 0058 13F4007F 		tst	r3, #512
 5819 005c 03D1     		bne	.L705
 5820 005e 082E     		cmp	r6, #8
 5821 0060 01D0     		beq	.L705
 5822 0062 012E     		cmp	r6, #1
 5823 0064 15D1     		bne	.L706
 5824              	.L705:
 5825 0066 484B     		ldr	r3, .L723+8
 5826 0068 1B68     		ldr	r3, [r3]
 5827 006a DB08     		lsrs	r3, r3, #3
 5828 006c 4749     		ldr	r1, .L723+12
 5829 006e A1FB0313 		umull	r1, r3, r1, r3
 5830 0072 1B0A     		lsrs	r3, r3, #8
 5831 0074 03EB8303 		add	r3, r3, r3, lsl #2
 5832 0078 03EB8303 		add	r3, r3, r3, lsl #2
 5833 007c 0093     		str	r3, [sp]
 5834              	.L708:
 5835 007e 009C     		ldr	r4, [sp]
 5836 0080 013C     		subs	r4, r4, #1
 5837 0082 0094     		str	r4, [sp]
 5838 0084 0098     		ldr	r0, [sp]
 5839 0086 0028     		cmp	r0, #0
 5840 0088 44D0     		beq	.L719
 5841 008a 9369     		ldr	r3, [r2, #24]
 5842 008c 13F0020F 		tst	r3, #2
ARM GAS  C:\Temp\ccVzAG2n.s 			page 102


 5843 0090 F5D1     		bne	.L708
 5844              	.L706:
 5845 0092 95F83C30 		ldrb	r3, [r5, #60]	@ zero_extendqisi2
 5846 0096 012B     		cmp	r3, #1
 5847 0098 6FD0     		beq	.L717
 5848 009a 0123     		movs	r3, #1
 5849 009c 85F83C30 		strb	r3, [r5, #60]
 5850 00a0 1368     		ldr	r3, [r2]
 5851 00a2 13F0010F 		tst	r3, #1
 5852 00a6 03D1     		bne	.L709
 5853 00a8 1368     		ldr	r3, [r2]
 5854 00aa 43F00103 		orr	r3, r3, #1
 5855 00ae 1360     		str	r3, [r2]
 5856              	.L709:
 5857 00b0 2A68     		ldr	r2, [r5]
 5858 00b2 1368     		ldr	r3, [r2]
 5859 00b4 23F40063 		bic	r3, r3, #2048
 5860 00b8 1360     		str	r3, [r2]
 5861 00ba 2223     		movs	r3, #34
 5862 00bc 85F83D30 		strb	r3, [r5, #61]
 5863 00c0 1023     		movs	r3, #16
 5864 00c2 85F83E30 		strb	r3, [r5, #62]
 5865 00c6 0023     		movs	r3, #0
 5866 00c8 2B64     		str	r3, [r5, #64]
 5867 00ca C5F82490 		str	r9, [r5, #36]
 5868 00ce A5F82A80 		strh	r8, [r5, #42]	@ movhi
 5869 00d2 6B8D     		ldrh	r3, [r5, #42]
 5870 00d4 2B85     		strh	r3, [r5, #40]	@ movhi
 5871 00d6 EE62     		str	r6, [r5, #44]
 5872 00d8 6F64     		str	r7, [r5, #68]
 5873 00da 2B6B     		ldr	r3, [r5, #48]
 5874 00dc 0193     		str	r3, [sp, #4]
 5875 00de 6B8D     		ldrh	r3, [r5, #42]
 5876 00e0 9BB2     		uxth	r3, r3
 5877 00e2 022B     		cmp	r3, #2
 5878 00e4 22D0     		beq	.L720
 5879              	.L710:
 5880 00e6 2A68     		ldr	r2, [r5]
 5881 00e8 1368     		ldr	r3, [r2]
 5882 00ea 43F48063 		orr	r3, r3, #1024
 5883 00ee 1360     		str	r3, [r2]
 5884 00f0 4FF4E061 		mov	r1, #1792
 5885              	.L713:
 5886 00f4 019B     		ldr	r3, [sp, #4]
 5887 00f6 122B     		cmp	r3, #18
 5888 00f8 34D0     		beq	.L721
 5889              	.L714:
 5890 00fa 2A68     		ldr	r2, [r5]
 5891 00fc 1368     		ldr	r3, [r2]
 5892 00fe 43F48073 		orr	r3, r3, #256
 5893 0102 1360     		str	r3, [r2]
 5894              	.L715:
 5895 0104 0020     		movs	r0, #0
 5896 0106 85F83C00 		strb	r0, [r5, #60]
 5897 010a 2A68     		ldr	r2, [r5]
 5898 010c 5368     		ldr	r3, [r2, #4]
 5899 010e 0B43     		orrs	r3, r3, r1
ARM GAS  C:\Temp\ccVzAG2n.s 			page 103


 5900 0110 5360     		str	r3, [r2, #4]
 5901 0112 2FE0     		b	.L704
 5902              	.L719:
 5903 0114 0023     		movs	r3, #0
 5904 0116 2B63     		str	r3, [r5, #48]
 5905 0118 2022     		movs	r2, #32
 5906 011a 85F83D20 		strb	r2, [r5, #61]
 5907 011e 85F83E30 		strb	r3, [r5, #62]
 5908 0122 2B6C     		ldr	r3, [r5, #64]
 5909 0124 1343     		orrs	r3, r3, r2
 5910 0126 2B64     		str	r3, [r5, #64]
 5911 0128 0220     		movs	r0, #2
 5912 012a 23E0     		b	.L704
 5913              	.L720:
 5914 012c 202E     		cmp	r6, #32
 5915 012e 01D0     		beq	.L711
 5916 0130 102E     		cmp	r6, #16
 5917 0132 D8D1     		bne	.L710
 5918              	.L711:
 5919 0134 019B     		ldr	r3, [sp, #4]
 5920 0136 122B     		cmp	r3, #18
 5921 0138 07D0     		beq	.L722
 5922 013a 2A68     		ldr	r2, [r5]
 5923 013c 1368     		ldr	r3, [r2]
 5924 013e 43F48063 		orr	r3, r3, #1024
 5925 0142 1360     		str	r3, [r2]
 5926 0144 4FF4E061 		mov	r1, #1792
 5927 0148 D4E7     		b	.L713
 5928              	.L722:
 5929 014a 2A68     		ldr	r2, [r5]
 5930 014c 1368     		ldr	r3, [r2]
 5931 014e 23F48063 		bic	r3, r3, #1024
 5932 0152 1360     		str	r3, [r2]
 5933 0154 2A68     		ldr	r2, [r5]
 5934 0156 1368     		ldr	r3, [r2]
 5935 0158 43F40063 		orr	r3, r3, #2048
 5936 015c 1360     		str	r3, [r2]
 5937 015e 4FF44071 		mov	r1, #768
 5938 0162 C7E7     		b	.L713
 5939              	.L721:
 5940 0164 B6F52A0F 		cmp	r6, #11141120
 5941 0168 C7D0     		beq	.L714
 5942 016a B6F12A4F 		cmp	r6, #-1442840576
 5943 016e C9D1     		bne	.L715
 5944 0170 C3E7     		b	.L714
 5945              	.L716:
 5946 0172 0220     		movs	r0, #2
 5947              	.L704:
 5948 0174 03B0     		add	sp, sp, #12
 5949              		@ sp needed
 5950 0176 BDE8F083 		pop	{r4, r5, r6, r7, r8, r9, pc}
 5951              	.L717:
 5952 017a 0220     		movs	r0, #2
 5953 017c FAE7     		b	.L704
 5954              	.L724:
 5955 017e 00BF     		.align	2
 5956              	.L723:
ARM GAS  C:\Temp\ccVzAG2n.s 			page 104


 5957 0180 11100010 		.word	268439569
 5958 0184 00000000 		.word	.LC0
 5959 0188 00000000 		.word	SystemCoreClock
 5960 018c 89B5F814 		.word	351843721
 5962              		.section	.text.HAL_I2C_Master_Seq_Receive_DMA,"ax",%progbits
 5963              		.align	1
 5964              		.global	HAL_I2C_Master_Seq_Receive_DMA
 5965              		.syntax unified
 5966              		.thumb
 5967              		.thumb_func
 5969              	HAL_I2C_Master_Seq_Receive_DMA:
 5970              		@ args = 4, pretend = 0, frame = 8
 5971              		@ frame_needed = 0, uses_anonymous_args = 0
 5972 0000 2DE9F043 		push	{r4, r5, r6, r7, r8, r9, lr}
 5973 0004 83B0     		sub	sp, sp, #12
 5974 0006 0546     		mov	r5, r0
 5975 0008 0F46     		mov	r7, r1
 5976 000a 9146     		mov	r9, r2
 5977 000c 9846     		mov	r8, r3
 5978 000e 0A9E     		ldr	r6, [sp, #40]
 5979 0010 0023     		movs	r3, #0
 5980 0012 0193     		str	r3, [sp, #4]
 5981 0014 0093     		str	r3, [sp]
 5982 0016 731E     		subs	r3, r6, #1
 5983 0018 012B     		cmp	r3, #1
 5984 001a 15D9     		bls	.L726
 5985 001c 202E     		cmp	r6, #32
 5986 001e 0DD8     		bhi	.L727
 5987 0020 042E     		cmp	r6, #4
 5988 0022 05D3     		bcc	.L728
 5989 0024 321F     		subs	r2, r6, #4
 5990 0026 904B     		ldr	r3, .L761
 5991 0028 D340     		lsrs	r3, r3, r2
 5992 002a 13F0010F 		tst	r3, #1
 5993 002e 0BD1     		bne	.L726
 5994              	.L728:
 5995 0030 40F68471 		movw	r1, #3972
 5996 0034 8D48     		ldr	r0, .L761+4
 5997 0036 FFF7FEFF 		bl	assert_failed
 5998 003a 05E0     		b	.L726
 5999              	.L727:
 6000 003c B6F52A0F 		cmp	r6, #11141120
 6001 0040 02D0     		beq	.L726
 6002 0042 B6F12A4F 		cmp	r6, #-1442840576
 6003 0046 F3D1     		bne	.L728
 6004              	.L726:
 6005 0048 95F83D30 		ldrb	r3, [r5, #61]	@ zero_extendqisi2
 6006 004c DBB2     		uxtb	r3, r3
 6007 004e 202B     		cmp	r3, #32
 6008 0050 40F00381 		bne	.L751
 6009 0054 2A68     		ldr	r2, [r5]
 6010 0056 1368     		ldr	r3, [r2]
 6011 0058 13F4007F 		tst	r3, #512
 6012 005c 03D1     		bne	.L730
 6013 005e 082E     		cmp	r6, #8
 6014 0060 01D0     		beq	.L730
 6015 0062 012E     		cmp	r6, #1
ARM GAS  C:\Temp\ccVzAG2n.s 			page 105


 6016 0064 15D1     		bne	.L731
 6017              	.L730:
 6018 0066 824B     		ldr	r3, .L761+8
 6019 0068 1B68     		ldr	r3, [r3]
 6020 006a DB08     		lsrs	r3, r3, #3
 6021 006c 8149     		ldr	r1, .L761+12
 6022 006e A1FB0313 		umull	r1, r3, r1, r3
 6023 0072 1B0A     		lsrs	r3, r3, #8
 6024 0074 03EB8303 		add	r3, r3, r3, lsl #2
 6025 0078 03EB8303 		add	r3, r3, r3, lsl #2
 6026 007c 0093     		str	r3, [sp]
 6027              	.L733:
 6028 007e 009C     		ldr	r4, [sp]
 6029 0080 013C     		subs	r4, r4, #1
 6030 0082 0094     		str	r4, [sp]
 6031 0084 0098     		ldr	r0, [sp]
 6032 0086 0028     		cmp	r0, #0
 6033 0088 6CD0     		beq	.L756
 6034 008a 9369     		ldr	r3, [r2, #24]
 6035 008c 13F0020F 		tst	r3, #2
 6036 0090 F5D1     		bne	.L733
 6037              	.L731:
 6038 0092 95F83C30 		ldrb	r3, [r5, #60]	@ zero_extendqisi2
 6039 0096 012B     		cmp	r3, #1
 6040 0098 00F0E380 		beq	.L752
 6041 009c 0123     		movs	r3, #1
 6042 009e 85F83C30 		strb	r3, [r5, #60]
 6043 00a2 1368     		ldr	r3, [r2]
 6044 00a4 13F0010F 		tst	r3, #1
 6045 00a8 03D1     		bne	.L734
 6046 00aa 1368     		ldr	r3, [r2]
 6047 00ac 43F00103 		orr	r3, r3, #1
 6048 00b0 1360     		str	r3, [r2]
 6049              	.L734:
 6050 00b2 2A68     		ldr	r2, [r5]
 6051 00b4 1368     		ldr	r3, [r2]
 6052 00b6 23F40063 		bic	r3, r3, #2048
 6053 00ba 1360     		str	r3, [r2]
 6054 00bc 2A68     		ldr	r2, [r5]
 6055 00be 5368     		ldr	r3, [r2, #4]
 6056 00c0 23F48053 		bic	r3, r3, #4096
 6057 00c4 5360     		str	r3, [r2, #4]
 6058 00c6 2223     		movs	r3, #34
 6059 00c8 85F83D30 		strb	r3, [r5, #61]
 6060 00cc 1023     		movs	r3, #16
 6061 00ce 85F83E30 		strb	r3, [r5, #62]
 6062 00d2 0023     		movs	r3, #0
 6063 00d4 2B64     		str	r3, [r5, #64]
 6064 00d6 C5F82490 		str	r9, [r5, #36]
 6065 00da A5F82A80 		strh	r8, [r5, #42]	@ movhi
 6066 00de 6B8D     		ldrh	r3, [r5, #42]
 6067 00e0 9BB2     		uxth	r3, r3
 6068 00e2 2B85     		strh	r3, [r5, #40]	@ movhi
 6069 00e4 EE62     		str	r6, [r5, #44]
 6070 00e6 6F64     		str	r7, [r5, #68]
 6071 00e8 2A6B     		ldr	r2, [r5, #48]
 6072 00ea 0192     		str	r2, [sp, #4]
ARM GAS  C:\Temp\ccVzAG2n.s 			page 106


 6073 00ec 002B     		cmp	r3, #0
 6074 00ee 00F09680 		beq	.L735
 6075 00f2 6B8D     		ldrh	r3, [r5, #42]
 6076 00f4 9BB2     		uxth	r3, r3
 6077 00f6 022B     		cmp	r3, #2
 6078 00f8 40D0     		beq	.L757
 6079              	.L736:
 6080 00fa 2A68     		ldr	r2, [r5]
 6081 00fc 1368     		ldr	r3, [r2]
 6082 00fe 43F48063 		orr	r3, r3, #1024
 6083 0102 1360     		str	r3, [r2]
 6084 0104 202E     		cmp	r6, #32
 6085 0106 04D0     		beq	.L740
 6086 0108 B6F12A4F 		cmp	r6, #-1442840576
 6087 010c 01D0     		beq	.L740
 6088 010e 102E     		cmp	r6, #16
 6089 0110 04D1     		bne	.L739
 6090              	.L740:
 6091 0112 2A68     		ldr	r2, [r5]
 6092 0114 5368     		ldr	r3, [r2, #4]
 6093 0116 43F48053 		orr	r3, r3, #4096
 6094 011a 5360     		str	r3, [r2, #4]
 6095              	.L739:
 6096 011c AB6B     		ldr	r3, [r5, #56]
 6097 011e 002B     		cmp	r3, #0
 6098 0120 49D0     		beq	.L741
 6099 0122 554A     		ldr	r2, .L761+16
 6100 0124 DA63     		str	r2, [r3, #60]
 6101 0126 AB6B     		ldr	r3, [r5, #56]
 6102 0128 544A     		ldr	r2, .L761+20
 6103 012a DA64     		str	r2, [r3, #76]
 6104 012c AA6B     		ldr	r2, [r5, #56]
 6105 012e 0023     		movs	r3, #0
 6106 0130 1364     		str	r3, [r2, #64]
 6107 0132 AA6B     		ldr	r2, [r5, #56]
 6108 0134 1365     		str	r3, [r2, #80]
 6109 0136 2968     		ldr	r1, [r5]
 6110 0138 2B8D     		ldrh	r3, [r5, #40]
 6111 013a 6A6A     		ldr	r2, [r5, #36]
 6112 013c 1031     		adds	r1, r1, #16
 6113 013e A86B     		ldr	r0, [r5, #56]
 6114 0140 FFF7FEFF 		bl	HAL_DMA_Start_IT
 6115 0144 0028     		cmp	r0, #0
 6116 0146 44D0     		beq	.L742
 6117 0148 2023     		movs	r3, #32
 6118 014a 85F83D30 		strb	r3, [r5, #61]
 6119 014e 0022     		movs	r2, #0
 6120 0150 85F83E20 		strb	r2, [r5, #62]
 6121 0154 2B6C     		ldr	r3, [r5, #64]
 6122 0156 43F01003 		orr	r3, r3, #16
 6123 015a 2B64     		str	r3, [r5, #64]
 6124 015c 85F83C20 		strb	r2, [r5, #60]
 6125 0160 0120     		movs	r0, #1
 6126 0162 7BE0     		b	.L729
 6127              	.L756:
 6128 0164 0023     		movs	r3, #0
 6129 0166 2B63     		str	r3, [r5, #48]
ARM GAS  C:\Temp\ccVzAG2n.s 			page 107


 6130 0168 2022     		movs	r2, #32
 6131 016a 85F83D20 		strb	r2, [r5, #61]
 6132 016e 85F83E30 		strb	r3, [r5, #62]
 6133 0172 2B6C     		ldr	r3, [r5, #64]
 6134 0174 1343     		orrs	r3, r3, r2
 6135 0176 2B64     		str	r3, [r5, #64]
 6136 0178 0220     		movs	r0, #2
 6137 017a 6FE0     		b	.L729
 6138              	.L757:
 6139 017c 202E     		cmp	r6, #32
 6140 017e 01D0     		beq	.L737
 6141 0180 102E     		cmp	r6, #16
 6142 0182 BAD1     		bne	.L736
 6143              	.L737:
 6144 0184 019B     		ldr	r3, [sp, #4]
 6145 0186 122B     		cmp	r3, #18
 6146 0188 05D0     		beq	.L758
 6147 018a 2A68     		ldr	r2, [r5]
 6148 018c 1368     		ldr	r3, [r2]
 6149 018e 43F48063 		orr	r3, r3, #1024
 6150 0192 1360     		str	r3, [r2]
 6151 0194 C2E7     		b	.L739
 6152              	.L758:
 6153 0196 2A68     		ldr	r2, [r5]
 6154 0198 1368     		ldr	r3, [r2]
 6155 019a 23F48063 		bic	r3, r3, #1024
 6156 019e 1360     		str	r3, [r2]
 6157 01a0 2A68     		ldr	r2, [r5]
 6158 01a2 1368     		ldr	r3, [r2]
 6159 01a4 43F40063 		orr	r3, r3, #2048
 6160 01a8 1360     		str	r3, [r2]
 6161 01aa 2A68     		ldr	r2, [r5]
 6162 01ac 5368     		ldr	r3, [r2, #4]
 6163 01ae 43F48053 		orr	r3, r3, #4096
 6164 01b2 5360     		str	r3, [r2, #4]
 6165 01b4 B2E7     		b	.L739
 6166              	.L741:
 6167 01b6 2023     		movs	r3, #32
 6168 01b8 85F83D30 		strb	r3, [r5, #61]
 6169 01bc 0022     		movs	r2, #0
 6170 01be 85F83E20 		strb	r2, [r5, #62]
 6171 01c2 2B6C     		ldr	r3, [r5, #64]
 6172 01c4 43F08003 		orr	r3, r3, #128
 6173 01c8 2B64     		str	r3, [r5, #64]
 6174 01ca 85F83C20 		strb	r2, [r5, #60]
 6175 01ce 0120     		movs	r0, #1
 6176 01d0 44E0     		b	.L729
 6177              	.L742:
 6178 01d2 019B     		ldr	r3, [sp, #4]
 6179 01d4 122B     		cmp	r3, #18
 6180 01d6 19D0     		beq	.L759
 6181              	.L744:
 6182 01d8 2A68     		ldr	r2, [r5]
 6183 01da 1368     		ldr	r3, [r2]
 6184 01dc 43F48073 		orr	r3, r3, #256
 6185 01e0 1360     		str	r3, [r2]
 6186 01e2 4FF44071 		mov	r1, #768
ARM GAS  C:\Temp\ccVzAG2n.s 			page 108


 6187              	.L745:
 6188 01e6 0023     		movs	r3, #0
 6189 01e8 85F83C30 		strb	r3, [r5, #60]
 6190 01ec 042E     		cmp	r6, #4
 6191 01ee 03D0     		beq	.L746
 6192 01f0 202E     		cmp	r6, #32
 6193 01f2 01D0     		beq	.L746
 6194 01f4 102E     		cmp	r6, #16
 6195 01f6 04D1     		bne	.L747
 6196              	.L746:
 6197 01f8 2A68     		ldr	r2, [r5]
 6198 01fa 5368     		ldr	r3, [r2, #4]
 6199 01fc 43F40063 		orr	r3, r3, #2048
 6200 0200 5360     		str	r3, [r2, #4]
 6201              	.L747:
 6202 0202 2A68     		ldr	r2, [r5]
 6203 0204 5368     		ldr	r3, [r2, #4]
 6204 0206 0B43     		orrs	r3, r3, r1
 6205 0208 5360     		str	r3, [r2, #4]
 6206 020a 1DE0     		b	.L748
 6207              	.L759:
 6208 020c B6F52A0F 		cmp	r6, #11141120
 6209 0210 E2D0     		beq	.L744
 6210 0212 B6F12A4F 		cmp	r6, #-1442840576
 6211 0216 DFD0     		beq	.L744
 6212 0218 4FF48071 		mov	r1, #256
 6213 021c E3E7     		b	.L745
 6214              	.L735:
 6215 021e 2A68     		ldr	r2, [r5]
 6216 0220 1368     		ldr	r3, [r2]
 6217 0222 43F48063 		orr	r3, r3, #1024
 6218 0226 1360     		str	r3, [r2]
 6219 0228 019B     		ldr	r3, [sp, #4]
 6220 022a 122B     		cmp	r3, #18
 6221 022c 0ED0     		beq	.L760
 6222              	.L749:
 6223 022e 2A68     		ldr	r2, [r5]
 6224 0230 1368     		ldr	r3, [r2]
 6225 0232 43F48073 		orr	r3, r3, #256
 6226 0236 1360     		str	r3, [r2]
 6227              	.L750:
 6228 0238 0023     		movs	r3, #0
 6229 023a 85F83C30 		strb	r3, [r5, #60]
 6230 023e 2A68     		ldr	r2, [r5]
 6231 0240 5368     		ldr	r3, [r2, #4]
 6232 0242 43F4E063 		orr	r3, r3, #1792
 6233 0246 5360     		str	r3, [r2, #4]
 6234              	.L748:
 6235 0248 0020     		movs	r0, #0
 6236 024a 07E0     		b	.L729
 6237              	.L760:
 6238 024c B6F52A0F 		cmp	r6, #11141120
 6239 0250 EDD0     		beq	.L749
 6240 0252 B6F12A4F 		cmp	r6, #-1442840576
 6241 0256 EFD1     		bne	.L750
 6242 0258 E9E7     		b	.L749
 6243              	.L751:
ARM GAS  C:\Temp\ccVzAG2n.s 			page 109


 6244 025a 0220     		movs	r0, #2
 6245              	.L729:
 6246 025c 03B0     		add	sp, sp, #12
 6247              		@ sp needed
 6248 025e BDE8F083 		pop	{r4, r5, r6, r7, r8, r9, pc}
 6249              	.L752:
 6250 0262 0220     		movs	r0, #2
 6251 0264 FAE7     		b	.L729
 6252              	.L762:
 6253 0266 00BF     		.align	2
 6254              	.L761:
 6255 0268 11100010 		.word	268439569
 6256 026c 00000000 		.word	.LC0
 6257 0270 00000000 		.word	SystemCoreClock
 6258 0274 89B5F814 		.word	351843721
 6259 0278 00000000 		.word	I2C_DMAXferCplt
 6260 027c 00000000 		.word	I2C_DMAError
 6262              		.section	.text.HAL_I2C_Slave_Seq_Transmit_IT,"ax",%progbits
 6263              		.align	1
 6264              		.global	HAL_I2C_Slave_Seq_Transmit_IT
 6265              		.syntax unified
 6266              		.thumb
 6267              		.thumb_func
 6269              	HAL_I2C_Slave_Seq_Transmit_IT:
 6270              		@ args = 0, pretend = 0, frame = 8
 6271              		@ frame_needed = 0, uses_anonymous_args = 0
 6272 0000 F0B5     		push	{r4, r5, r6, r7, lr}
 6273 0002 83B0     		sub	sp, sp, #12
 6274 0004 0546     		mov	r5, r0
 6275 0006 0E46     		mov	r6, r1
 6276 0008 1746     		mov	r7, r2
 6277 000a 1C46     		mov	r4, r3
 6278 000c 202B     		cmp	r3, #32
 6279 000e 11D8     		bhi	.L764
 6280 0010 042B     		cmp	r3, #4
 6281 0012 03D2     		bcs	.L765
 6282 0014 013B     		subs	r3, r3, #1
 6283 0016 012B     		cmp	r3, #1
 6284 0018 06D8     		bhi	.L766
 6285 001a 11E0     		b	.L767
 6286              	.L765:
 6287 001c 1A1F     		subs	r2, r3, #4
 6288 001e 2A4B     		ldr	r3, .L775
 6289 0020 D340     		lsrs	r3, r3, r2
 6290 0022 13F0010F 		tst	r3, #1
 6291 0026 0BD1     		bne	.L767
 6292              	.L766:
 6293 0028 41F25601 		movw	r1, #4182
 6294 002c 2748     		ldr	r0, .L775+4
 6295 002e FFF7FEFF 		bl	assert_failed
 6296 0032 05E0     		b	.L767
 6297              	.L764:
 6298 0034 B3F52A0F 		cmp	r3, #11141120
 6299 0038 02D0     		beq	.L767
 6300 003a B3F12A4F 		cmp	r3, #-1442840576
 6301 003e F3D1     		bne	.L766
 6302              	.L767:
ARM GAS  C:\Temp\ccVzAG2n.s 			page 110


 6303 0040 95F83D30 		ldrb	r3, [r5, #61]	@ zero_extendqisi2
 6304 0044 03F02803 		and	r3, r3, #40
 6305 0048 282B     		cmp	r3, #40
 6306 004a 33D1     		bne	.L770
 6307 004c 002E     		cmp	r6, #0
 6308 004e 34D0     		beq	.L771
 6309 0050 002F     		cmp	r7, #0
 6310 0052 34D0     		beq	.L772
 6311 0054 95F83C30 		ldrb	r3, [r5, #60]	@ zero_extendqisi2
 6312 0058 012B     		cmp	r3, #1
 6313 005a 32D0     		beq	.L773
 6314 005c 0123     		movs	r3, #1
 6315 005e 85F83C30 		strb	r3, [r5, #60]
 6316 0062 2B68     		ldr	r3, [r5]
 6317 0064 1A68     		ldr	r2, [r3]
 6318 0066 12F0010F 		tst	r2, #1
 6319 006a 03D1     		bne	.L769
 6320 006c 1A68     		ldr	r2, [r3]
 6321 006e 42F00102 		orr	r2, r2, #1
 6322 0072 1A60     		str	r2, [r3]
 6323              	.L769:
 6324 0074 2A68     		ldr	r2, [r5]
 6325 0076 1368     		ldr	r3, [r2]
 6326 0078 23F40063 		bic	r3, r3, #2048
 6327 007c 1360     		str	r3, [r2]
 6328 007e 2923     		movs	r3, #41
 6329 0080 85F83D30 		strb	r3, [r5, #61]
 6330 0084 2023     		movs	r3, #32
 6331 0086 85F83E30 		strb	r3, [r5, #62]
 6332 008a 0020     		movs	r0, #0
 6333 008c 2864     		str	r0, [r5, #64]
 6334 008e 6E62     		str	r6, [r5, #36]
 6335 0090 6F85     		strh	r7, [r5, #42]	@ movhi
 6336 0092 6B8D     		ldrh	r3, [r5, #42]
 6337 0094 2B85     		strh	r3, [r5, #40]	@ movhi
 6338 0096 EC62     		str	r4, [r5, #44]
 6339 0098 0190     		str	r0, [sp, #4]
 6340 009a 2B68     		ldr	r3, [r5]
 6341 009c 5A69     		ldr	r2, [r3, #20]
 6342 009e 0192     		str	r2, [sp, #4]
 6343 00a0 9A69     		ldr	r2, [r3, #24]
 6344 00a2 0192     		str	r2, [sp, #4]
 6345 00a4 019A     		ldr	r2, [sp, #4]
 6346 00a6 85F83C00 		strb	r0, [r5, #60]
 6347 00aa 5A68     		ldr	r2, [r3, #4]
 6348 00ac 42F4E062 		orr	r2, r2, #1792
 6349 00b0 5A60     		str	r2, [r3, #4]
 6350 00b2 00E0     		b	.L768
 6351              	.L770:
 6352 00b4 0220     		movs	r0, #2
 6353              	.L768:
 6354 00b6 03B0     		add	sp, sp, #12
 6355              		@ sp needed
 6356 00b8 F0BD     		pop	{r4, r5, r6, r7, pc}
 6357              	.L771:
 6358 00ba 0120     		movs	r0, #1
 6359 00bc FBE7     		b	.L768
ARM GAS  C:\Temp\ccVzAG2n.s 			page 111


 6360              	.L772:
 6361 00be 0120     		movs	r0, #1
 6362 00c0 F9E7     		b	.L768
 6363              	.L773:
 6364 00c2 0220     		movs	r0, #2
 6365 00c4 F7E7     		b	.L768
 6366              	.L776:
 6367 00c6 00BF     		.align	2
 6368              	.L775:
 6369 00c8 11100010 		.word	268439569
 6370 00cc 00000000 		.word	.LC0
 6372              		.section	.text.HAL_I2C_Slave_Seq_Transmit_DMA,"ax",%progbits
 6373              		.align	1
 6374              		.global	HAL_I2C_Slave_Seq_Transmit_DMA
 6375              		.syntax unified
 6376              		.thumb
 6377              		.thumb_func
 6379              	HAL_I2C_Slave_Seq_Transmit_DMA:
 6380              		@ args = 0, pretend = 0, frame = 8
 6381              		@ frame_needed = 0, uses_anonymous_args = 0
 6382 0000 F0B5     		push	{r4, r5, r6, r7, lr}
 6383 0002 83B0     		sub	sp, sp, #12
 6384 0004 0446     		mov	r4, r0
 6385 0006 0E46     		mov	r6, r1
 6386 0008 1746     		mov	r7, r2
 6387 000a 1D46     		mov	r5, r3
 6388 000c 202B     		cmp	r3, #32
 6389 000e 11D8     		bhi	.L778
 6390 0010 042B     		cmp	r3, #4
 6391 0012 03D2     		bcs	.L779
 6392 0014 013B     		subs	r3, r3, #1
 6393 0016 012B     		cmp	r3, #1
 6394 0018 06D8     		bhi	.L780
 6395 001a 11E0     		b	.L781
 6396              	.L779:
 6397 001c 1A1F     		subs	r2, r3, #4
 6398 001e 694B     		ldr	r3, .L797
 6399 0020 D340     		lsrs	r3, r3, r2
 6400 0022 13F0010F 		tst	r3, #1
 6401 0026 0BD1     		bne	.L781
 6402              	.L780:
 6403 0028 41F29A01 		movw	r1, #4250
 6404 002c 6648     		ldr	r0, .L797+4
 6405 002e FFF7FEFF 		bl	assert_failed
 6406 0032 05E0     		b	.L781
 6407              	.L778:
 6408 0034 B3F52A0F 		cmp	r3, #11141120
 6409 0038 02D0     		beq	.L781
 6410 003a B3F12A4F 		cmp	r3, #-1442840576
 6411 003e F3D1     		bne	.L780
 6412              	.L781:
 6413 0040 94F83D30 		ldrb	r3, [r4, #61]	@ zero_extendqisi2
 6414 0044 03F02803 		and	r3, r3, #40
 6415 0048 282B     		cmp	r3, #40
 6416 004a 40F0B280 		bne	.L789
 6417 004e 002E     		cmp	r6, #0
 6418 0050 00F0B280 		beq	.L790
ARM GAS  C:\Temp\ccVzAG2n.s 			page 112


 6419 0054 002F     		cmp	r7, #0
 6420 0056 00F0B180 		beq	.L791
 6421 005a 94F83C30 		ldrb	r3, [r4, #60]	@ zero_extendqisi2
 6422 005e 012B     		cmp	r3, #1
 6423 0060 00F0AE80 		beq	.L792
 6424 0064 0123     		movs	r3, #1
 6425 0066 84F83C30 		strb	r3, [r4, #60]
 6426 006a 2268     		ldr	r2, [r4]
 6427 006c 5368     		ldr	r3, [r2, #4]
 6428 006e 23F44073 		bic	r3, r3, #768
 6429 0072 5360     		str	r3, [r2, #4]
 6430 0074 94F83D30 		ldrb	r3, [r4, #61]	@ zero_extendqisi2
 6431 0078 DBB2     		uxtb	r3, r3
 6432 007a 2A2B     		cmp	r3, #42
 6433 007c 43D0     		beq	.L795
 6434 007e 94F83D30 		ldrb	r3, [r4, #61]	@ zero_extendqisi2
 6435 0082 DBB2     		uxtb	r3, r3
 6436 0084 292B     		cmp	r3, #41
 6437 0086 56D0     		beq	.L796
 6438              	.L784:
 6439 0088 2368     		ldr	r3, [r4]
 6440 008a 1A68     		ldr	r2, [r3]
 6441 008c 12F0010F 		tst	r2, #1
 6442 0090 03D1     		bne	.L785
 6443 0092 1A68     		ldr	r2, [r3]
 6444 0094 42F00102 		orr	r2, r2, #1
 6445 0098 1A60     		str	r2, [r3]
 6446              	.L785:
 6447 009a 2268     		ldr	r2, [r4]
 6448 009c 1368     		ldr	r3, [r2]
 6449 009e 23F40063 		bic	r3, r3, #2048
 6450 00a2 1360     		str	r3, [r2]
 6451 00a4 2923     		movs	r3, #41
 6452 00a6 84F83D30 		strb	r3, [r4, #61]
 6453 00aa 2023     		movs	r3, #32
 6454 00ac 84F83E30 		strb	r3, [r4, #62]
 6455 00b0 0023     		movs	r3, #0
 6456 00b2 2364     		str	r3, [r4, #64]
 6457 00b4 6662     		str	r6, [r4, #36]
 6458 00b6 6785     		strh	r7, [r4, #42]	@ movhi
 6459 00b8 638D     		ldrh	r3, [r4, #42]
 6460 00ba 2385     		strh	r3, [r4, #40]	@ movhi
 6461 00bc E562     		str	r5, [r4, #44]
 6462 00be 636B     		ldr	r3, [r4, #52]
 6463 00c0 002B     		cmp	r3, #0
 6464 00c2 4FD0     		beq	.L786
 6465 00c4 414A     		ldr	r2, .L797+8
 6466 00c6 DA63     		str	r2, [r3, #60]
 6467 00c8 636B     		ldr	r3, [r4, #52]
 6468 00ca 414A     		ldr	r2, .L797+12
 6469 00cc DA64     		str	r2, [r3, #76]
 6470 00ce 626B     		ldr	r2, [r4, #52]
 6471 00d0 0023     		movs	r3, #0
 6472 00d2 1364     		str	r3, [r2, #64]
 6473 00d4 626B     		ldr	r2, [r4, #52]
 6474 00d6 1365     		str	r3, [r2, #80]
 6475 00d8 2268     		ldr	r2, [r4]
ARM GAS  C:\Temp\ccVzAG2n.s 			page 113


 6476 00da 238D     		ldrh	r3, [r4, #40]
 6477 00dc 1032     		adds	r2, r2, #16
 6478 00de 616A     		ldr	r1, [r4, #36]
 6479 00e0 606B     		ldr	r0, [r4, #52]
 6480 00e2 FFF7FEFF 		bl	HAL_DMA_Start_IT
 6481 00e6 0028     		cmp	r0, #0
 6482 00e8 4AD0     		beq	.L787
 6483 00ea 2023     		movs	r3, #32
 6484 00ec 84F83D30 		strb	r3, [r4, #61]
 6485 00f0 0022     		movs	r2, #0
 6486 00f2 84F83E20 		strb	r2, [r4, #62]
 6487 00f6 236C     		ldr	r3, [r4, #64]
 6488 00f8 43F01003 		orr	r3, r3, #16
 6489 00fc 2364     		str	r3, [r4, #64]
 6490 00fe 84F83C20 		strb	r2, [r4, #60]
 6491 0102 0120     		movs	r0, #1
 6492 0104 56E0     		b	.L782
 6493              	.L795:
 6494 0106 2368     		ldr	r3, [r4]
 6495 0108 5A68     		ldr	r2, [r3, #4]
 6496 010a 12F4006F 		tst	r2, #2048
 6497 010e BBD0     		beq	.L784
 6498 0110 A26B     		ldr	r2, [r4, #56]
 6499 0112 002A     		cmp	r2, #0
 6500 0114 B8D0     		beq	.L784
 6501 0116 5A68     		ldr	r2, [r3, #4]
 6502 0118 22F40062 		bic	r2, r2, #2048
 6503 011c 5A60     		str	r2, [r3, #4]
 6504 011e A36B     		ldr	r3, [r4, #56]
 6505 0120 2C4A     		ldr	r2, .L797+16
 6506 0122 1A65     		str	r2, [r3, #80]
 6507 0124 A06B     		ldr	r0, [r4, #56]
 6508 0126 FFF7FEFF 		bl	HAL_DMA_Abort_IT
 6509 012a 0028     		cmp	r0, #0
 6510 012c ACD0     		beq	.L784
 6511 012e A06B     		ldr	r0, [r4, #56]
 6512 0130 036D     		ldr	r3, [r0, #80]
 6513 0132 9847     		blx	r3
 6514 0134 A8E7     		b	.L784
 6515              	.L796:
 6516 0136 2368     		ldr	r3, [r4]
 6517 0138 5A68     		ldr	r2, [r3, #4]
 6518 013a 12F4006F 		tst	r2, #2048
 6519 013e A3D0     		beq	.L784
 6520 0140 5A68     		ldr	r2, [r3, #4]
 6521 0142 22F40062 		bic	r2, r2, #2048
 6522 0146 5A60     		str	r2, [r3, #4]
 6523 0148 636B     		ldr	r3, [r4, #52]
 6524 014a 002B     		cmp	r3, #0
 6525 014c 9CD0     		beq	.L784
 6526 014e 214A     		ldr	r2, .L797+16
 6527 0150 1A65     		str	r2, [r3, #80]
 6528 0152 606B     		ldr	r0, [r4, #52]
 6529 0154 FFF7FEFF 		bl	HAL_DMA_Abort_IT
 6530 0158 0028     		cmp	r0, #0
 6531 015a 95D0     		beq	.L784
 6532 015c 606B     		ldr	r0, [r4, #52]
ARM GAS  C:\Temp\ccVzAG2n.s 			page 114


 6533 015e 036D     		ldr	r3, [r0, #80]
 6534 0160 9847     		blx	r3
 6535 0162 91E7     		b	.L784
 6536              	.L786:
 6537 0164 2823     		movs	r3, #40
 6538 0166 84F83D30 		strb	r3, [r4, #61]
 6539 016a 0022     		movs	r2, #0
 6540 016c 84F83E20 		strb	r2, [r4, #62]
 6541 0170 236C     		ldr	r3, [r4, #64]
 6542 0172 43F08003 		orr	r3, r3, #128
 6543 0176 2364     		str	r3, [r4, #64]
 6544 0178 84F83C20 		strb	r2, [r4, #60]
 6545 017c 0120     		movs	r0, #1
 6546 017e 19E0     		b	.L782
 6547              	.L787:
 6548 0180 2268     		ldr	r2, [r4]
 6549 0182 1368     		ldr	r3, [r2]
 6550 0184 43F48063 		orr	r3, r3, #1024
 6551 0188 1360     		str	r3, [r2]
 6552 018a 0022     		movs	r2, #0
 6553 018c 0192     		str	r2, [sp, #4]
 6554 018e 2368     		ldr	r3, [r4]
 6555 0190 5969     		ldr	r1, [r3, #20]
 6556 0192 0191     		str	r1, [sp, #4]
 6557 0194 9969     		ldr	r1, [r3, #24]
 6558 0196 0191     		str	r1, [sp, #4]
 6559 0198 0199     		ldr	r1, [sp, #4]
 6560 019a 84F83C20 		strb	r2, [r4, #60]
 6561 019e 5A68     		ldr	r2, [r3, #4]
 6562 01a0 42F44072 		orr	r2, r2, #768
 6563 01a4 5A60     		str	r2, [r3, #4]
 6564 01a6 2268     		ldr	r2, [r4]
 6565 01a8 5368     		ldr	r3, [r2, #4]
 6566 01aa 43F40063 		orr	r3, r3, #2048
 6567 01ae 5360     		str	r3, [r2, #4]
 6568 01b0 00E0     		b	.L782
 6569              	.L789:
 6570 01b2 0220     		movs	r0, #2
 6571              	.L782:
 6572 01b4 03B0     		add	sp, sp, #12
 6573              		@ sp needed
 6574 01b6 F0BD     		pop	{r4, r5, r6, r7, pc}
 6575              	.L790:
 6576 01b8 0120     		movs	r0, #1
 6577 01ba FBE7     		b	.L782
 6578              	.L791:
 6579 01bc 0120     		movs	r0, #1
 6580 01be F9E7     		b	.L782
 6581              	.L792:
 6582 01c0 0220     		movs	r0, #2
 6583 01c2 F7E7     		b	.L782
 6584              	.L798:
 6585              		.align	2
 6586              	.L797:
 6587 01c4 11100010 		.word	268439569
 6588 01c8 00000000 		.word	.LC0
 6589 01cc 00000000 		.word	I2C_DMAXferCplt
ARM GAS  C:\Temp\ccVzAG2n.s 			page 115


 6590 01d0 00000000 		.word	I2C_DMAError
 6591 01d4 00000000 		.word	I2C_DMAAbort
 6593              		.section	.text.HAL_I2C_Slave_Seq_Receive_IT,"ax",%progbits
 6594              		.align	1
 6595              		.global	HAL_I2C_Slave_Seq_Receive_IT
 6596              		.syntax unified
 6597              		.thumb
 6598              		.thumb_func
 6600              	HAL_I2C_Slave_Seq_Receive_IT:
 6601              		@ args = 0, pretend = 0, frame = 8
 6602              		@ frame_needed = 0, uses_anonymous_args = 0
 6603 0000 F0B5     		push	{r4, r5, r6, r7, lr}
 6604 0002 83B0     		sub	sp, sp, #12
 6605 0004 0546     		mov	r5, r0
 6606 0006 0E46     		mov	r6, r1
 6607 0008 1746     		mov	r7, r2
 6608 000a 1C46     		mov	r4, r3
 6609 000c 202B     		cmp	r3, #32
 6610 000e 11D8     		bhi	.L800
 6611 0010 042B     		cmp	r3, #4
 6612 0012 03D2     		bcs	.L801
 6613 0014 013B     		subs	r3, r3, #1
 6614 0016 012B     		cmp	r3, #1
 6615 0018 06D8     		bhi	.L802
 6616 001a 11E0     		b	.L803
 6617              	.L801:
 6618 001c 1A1F     		subs	r2, r3, #4
 6619 001e 2A4B     		ldr	r3, .L811
 6620 0020 D340     		lsrs	r3, r3, r2
 6621 0022 13F0010F 		tst	r3, #1
 6622 0026 0BD1     		bne	.L803
 6623              	.L802:
 6624 0028 41F24611 		movw	r1, #4422
 6625 002c 2748     		ldr	r0, .L811+4
 6626 002e FFF7FEFF 		bl	assert_failed
 6627 0032 05E0     		b	.L803
 6628              	.L800:
 6629 0034 B3F52A0F 		cmp	r3, #11141120
 6630 0038 02D0     		beq	.L803
 6631 003a B3F12A4F 		cmp	r3, #-1442840576
 6632 003e F3D1     		bne	.L802
 6633              	.L803:
 6634 0040 95F83D30 		ldrb	r3, [r5, #61]	@ zero_extendqisi2
 6635 0044 03F02803 		and	r3, r3, #40
 6636 0048 282B     		cmp	r3, #40
 6637 004a 33D1     		bne	.L806
 6638 004c 002E     		cmp	r6, #0
 6639 004e 34D0     		beq	.L807
 6640 0050 002F     		cmp	r7, #0
 6641 0052 34D0     		beq	.L808
 6642 0054 95F83C30 		ldrb	r3, [r5, #60]	@ zero_extendqisi2
 6643 0058 012B     		cmp	r3, #1
 6644 005a 32D0     		beq	.L809
 6645 005c 0123     		movs	r3, #1
 6646 005e 85F83C30 		strb	r3, [r5, #60]
 6647 0062 2B68     		ldr	r3, [r5]
 6648 0064 1A68     		ldr	r2, [r3]
ARM GAS  C:\Temp\ccVzAG2n.s 			page 116


 6649 0066 12F0010F 		tst	r2, #1
 6650 006a 03D1     		bne	.L805
 6651 006c 1A68     		ldr	r2, [r3]
 6652 006e 42F00102 		orr	r2, r2, #1
 6653 0072 1A60     		str	r2, [r3]
 6654              	.L805:
 6655 0074 2A68     		ldr	r2, [r5]
 6656 0076 1368     		ldr	r3, [r2]
 6657 0078 23F40063 		bic	r3, r3, #2048
 6658 007c 1360     		str	r3, [r2]
 6659 007e 2A23     		movs	r3, #42
 6660 0080 85F83D30 		strb	r3, [r5, #61]
 6661 0084 2023     		movs	r3, #32
 6662 0086 85F83E30 		strb	r3, [r5, #62]
 6663 008a 0020     		movs	r0, #0
 6664 008c 2864     		str	r0, [r5, #64]
 6665 008e 6E62     		str	r6, [r5, #36]
 6666 0090 6F85     		strh	r7, [r5, #42]	@ movhi
 6667 0092 6B8D     		ldrh	r3, [r5, #42]
 6668 0094 2B85     		strh	r3, [r5, #40]	@ movhi
 6669 0096 EC62     		str	r4, [r5, #44]
 6670 0098 0190     		str	r0, [sp, #4]
 6671 009a 2B68     		ldr	r3, [r5]
 6672 009c 5A69     		ldr	r2, [r3, #20]
 6673 009e 0192     		str	r2, [sp, #4]
 6674 00a0 9A69     		ldr	r2, [r3, #24]
 6675 00a2 0192     		str	r2, [sp, #4]
 6676 00a4 019A     		ldr	r2, [sp, #4]
 6677 00a6 85F83C00 		strb	r0, [r5, #60]
 6678 00aa 5A68     		ldr	r2, [r3, #4]
 6679 00ac 42F4E062 		orr	r2, r2, #1792
 6680 00b0 5A60     		str	r2, [r3, #4]
 6681 00b2 00E0     		b	.L804
 6682              	.L806:
 6683 00b4 0220     		movs	r0, #2
 6684              	.L804:
 6685 00b6 03B0     		add	sp, sp, #12
 6686              		@ sp needed
 6687 00b8 F0BD     		pop	{r4, r5, r6, r7, pc}
 6688              	.L807:
 6689 00ba 0120     		movs	r0, #1
 6690 00bc FBE7     		b	.L804
 6691              	.L808:
 6692 00be 0120     		movs	r0, #1
 6693 00c0 F9E7     		b	.L804
 6694              	.L809:
 6695 00c2 0220     		movs	r0, #2
 6696 00c4 F7E7     		b	.L804
 6697              	.L812:
 6698 00c6 00BF     		.align	2
 6699              	.L811:
 6700 00c8 11100010 		.word	268439569
 6701 00cc 00000000 		.word	.LC0
 6703              		.section	.text.HAL_I2C_Slave_Seq_Receive_DMA,"ax",%progbits
 6704              		.align	1
 6705              		.global	HAL_I2C_Slave_Seq_Receive_DMA
 6706              		.syntax unified
ARM GAS  C:\Temp\ccVzAG2n.s 			page 117


 6707              		.thumb
 6708              		.thumb_func
 6710              	HAL_I2C_Slave_Seq_Receive_DMA:
 6711              		@ args = 0, pretend = 0, frame = 8
 6712              		@ frame_needed = 0, uses_anonymous_args = 0
 6713 0000 F0B5     		push	{r4, r5, r6, r7, lr}
 6714 0002 83B0     		sub	sp, sp, #12
 6715 0004 0446     		mov	r4, r0
 6716 0006 0E46     		mov	r6, r1
 6717 0008 1746     		mov	r7, r2
 6718 000a 1D46     		mov	r5, r3
 6719 000c 202B     		cmp	r3, #32
 6720 000e 11D8     		bhi	.L814
 6721 0010 042B     		cmp	r3, #4
 6722 0012 03D2     		bcs	.L815
 6723 0014 013B     		subs	r3, r3, #1
 6724 0016 012B     		cmp	r3, #1
 6725 0018 06D8     		bhi	.L816
 6726 001a 11E0     		b	.L817
 6727              	.L815:
 6728 001c 1A1F     		subs	r2, r3, #4
 6729 001e 694B     		ldr	r3, .L833
 6730 0020 D340     		lsrs	r3, r3, r2
 6731 0022 13F0010F 		tst	r3, #1
 6732 0026 0BD1     		bne	.L817
 6733              	.L816:
 6734 0028 41F28A11 		movw	r1, #4490
 6735 002c 6648     		ldr	r0, .L833+4
 6736 002e FFF7FEFF 		bl	assert_failed
 6737 0032 05E0     		b	.L817
 6738              	.L814:
 6739 0034 B3F52A0F 		cmp	r3, #11141120
 6740 0038 02D0     		beq	.L817
 6741 003a B3F12A4F 		cmp	r3, #-1442840576
 6742 003e F3D1     		bne	.L816
 6743              	.L817:
 6744 0040 94F83D30 		ldrb	r3, [r4, #61]	@ zero_extendqisi2
 6745 0044 03F02803 		and	r3, r3, #40
 6746 0048 282B     		cmp	r3, #40
 6747 004a 40F0B280 		bne	.L825
 6748 004e 002E     		cmp	r6, #0
 6749 0050 00F0B280 		beq	.L826
 6750 0054 002F     		cmp	r7, #0
 6751 0056 00F0B180 		beq	.L827
 6752 005a 94F83C30 		ldrb	r3, [r4, #60]	@ zero_extendqisi2
 6753 005e 012B     		cmp	r3, #1
 6754 0060 00F0AE80 		beq	.L828
 6755 0064 0123     		movs	r3, #1
 6756 0066 84F83C30 		strb	r3, [r4, #60]
 6757 006a 2268     		ldr	r2, [r4]
 6758 006c 5368     		ldr	r3, [r2, #4]
 6759 006e 23F44073 		bic	r3, r3, #768
 6760 0072 5360     		str	r3, [r2, #4]
 6761 0074 94F83D30 		ldrb	r3, [r4, #61]	@ zero_extendqisi2
 6762 0078 DBB2     		uxtb	r3, r3
 6763 007a 2A2B     		cmp	r3, #42
 6764 007c 43D0     		beq	.L831
ARM GAS  C:\Temp\ccVzAG2n.s 			page 118


 6765 007e 94F83D30 		ldrb	r3, [r4, #61]	@ zero_extendqisi2
 6766 0082 DBB2     		uxtb	r3, r3
 6767 0084 292B     		cmp	r3, #41
 6768 0086 56D0     		beq	.L832
 6769              	.L820:
 6770 0088 2368     		ldr	r3, [r4]
 6771 008a 1A68     		ldr	r2, [r3]
 6772 008c 12F0010F 		tst	r2, #1
 6773 0090 03D1     		bne	.L821
 6774 0092 1A68     		ldr	r2, [r3]
 6775 0094 42F00102 		orr	r2, r2, #1
 6776 0098 1A60     		str	r2, [r3]
 6777              	.L821:
 6778 009a 2268     		ldr	r2, [r4]
 6779 009c 1368     		ldr	r3, [r2]
 6780 009e 23F40063 		bic	r3, r3, #2048
 6781 00a2 1360     		str	r3, [r2]
 6782 00a4 2A23     		movs	r3, #42
 6783 00a6 84F83D30 		strb	r3, [r4, #61]
 6784 00aa 2023     		movs	r3, #32
 6785 00ac 84F83E30 		strb	r3, [r4, #62]
 6786 00b0 0023     		movs	r3, #0
 6787 00b2 2364     		str	r3, [r4, #64]
 6788 00b4 6662     		str	r6, [r4, #36]
 6789 00b6 6785     		strh	r7, [r4, #42]	@ movhi
 6790 00b8 638D     		ldrh	r3, [r4, #42]
 6791 00ba 2385     		strh	r3, [r4, #40]	@ movhi
 6792 00bc E562     		str	r5, [r4, #44]
 6793 00be A36B     		ldr	r3, [r4, #56]
