ARM GAS  C:\Temp\cc7YSiYL.s 			page 1


   1              		.cpu cortex-m4
   2              		.arch armv7e-m
   3              		.fpu fpv4-sp-d16
   4              		.eabi_attribute 27, 1
   5              		.eabi_attribute 28, 1
   6              		.eabi_attribute 20, 1
   7              		.eabi_attribute 21, 1
   8              		.eabi_attribute 23, 3
   9              		.eabi_attribute 24, 1
  10              		.eabi_attribute 25, 1
  11              		.eabi_attribute 26, 1
  12              		.eabi_attribute 30, 1
  13              		.eabi_attribute 34, 1
  14              		.eabi_attribute 18, 4
  15              		.file	"system_stm32f4xx.c"
  16              		.text
  17              		.section	.text.SystemInit,"ax",%progbits
  18              		.align	1
  19              		.global	SystemInit
  20              		.syntax unified
  21              		.thumb
  22              		.thumb_func
  24              	SystemInit:
  25              		@ args = 0, pretend = 0, frame = 0
  26              		@ frame_needed = 0, uses_anonymous_args = 0
  27              		@ link register save eliminated.
  28 0000 034A     		ldr	r2, .L2
  29 0002 D2F88830 		ldr	r3, [r2, #136]
  30 0006 43F47003 		orr	r3, r3, #15728640
  31 000a C2F88830 		str	r3, [r2, #136]
  32 000e 7047     		bx	lr
  33              	.L3:
  34              		.align	2
  35              	.L2:
  36 0010 00ED00E0 		.word	-536810240
  38              		.section	.text.SystemCoreClockUpdate,"ax",%progbits
  39              		.align	1
  40              		.global	SystemCoreClockUpdate
  41              		.syntax unified
  42              		.thumb
  43              		.thumb_func
  45              	SystemCoreClockUpdate:
  46              		@ args = 0, pretend = 0, frame = 0
  47              		@ frame_needed = 0, uses_anonymous_args = 0
  48              		@ link register save eliminated.
  49 0000 224B     		ldr	r3, .L12
  50 0002 9B68     		ldr	r3, [r3, #8]
  51 0004 03F00C03 		and	r3, r3, #12
  52 0008 042B     		cmp	r3, #4
  53 000a 14D0     		beq	.L5
  54 000c 082B     		cmp	r3, #8
  55 000e 16D0     		beq	.L6
  56 0010 1BB1     		cbz	r3, .L11
  57 0012 1F4B     		ldr	r3, .L12+4
  58 0014 1F4A     		ldr	r2, .L12+8
  59 0016 1A60     		str	r2, [r3]
  60 0018 02E0     		b	.L8
ARM GAS  C:\Temp\cc7YSiYL.s 			page 2


  61              	.L11:
  62 001a 1D4B     		ldr	r3, .L12+4
  63 001c 1D4A     		ldr	r2, .L12+8
  64 001e 1A60     		str	r2, [r3]
  65              	.L8:
  66 0020 1A4B     		ldr	r3, .L12
  67 0022 9B68     		ldr	r3, [r3, #8]
  68 0024 C3F30313 		ubfx	r3, r3, #4, #4
  69 0028 1B4A     		ldr	r2, .L12+12
  70 002a D15C     		ldrb	r1, [r2, r3]	@ zero_extendqisi2
  71 002c 184A     		ldr	r2, .L12+4
  72 002e 1368     		ldr	r3, [r2]
  73 0030 CB40     		lsrs	r3, r3, r1
  74 0032 1360     		str	r3, [r2]
  75 0034 7047     		bx	lr
  76              	.L5:
  77 0036 164B     		ldr	r3, .L12+4
  78 0038 184A     		ldr	r2, .L12+16
  79 003a 1A60     		str	r2, [r3]
  80 003c F0E7     		b	.L8
  81              	.L6:
  82 003e 134B     		ldr	r3, .L12
  83 0040 5968     		ldr	r1, [r3, #4]
  84 0042 5A68     		ldr	r2, [r3, #4]
  85 0044 02F03F02 		and	r2, r2, #63
  86 0048 11F4800F 		tst	r1, #4194304
  87 004c 13D0     		beq	.L9
  88 004e 134B     		ldr	r3, .L12+16
  89 0050 B3FBF2F3 		udiv	r3, r3, r2
  90 0054 0D4A     		ldr	r2, .L12
  91 0056 5268     		ldr	r2, [r2, #4]
  92 0058 C2F38812 		ubfx	r2, r2, #6, #9
  93 005c 02FB03F3 		mul	r3, r2, r3
  94              	.L10:
  95 0060 0A4A     		ldr	r2, .L12
  96 0062 5268     		ldr	r2, [r2, #4]
  97 0064 C2F30142 		ubfx	r2, r2, #16, #2
  98 0068 0132     		adds	r2, r2, #1
  99 006a 5200     		lsls	r2, r2, #1
 100 006c B3FBF2F3 		udiv	r3, r3, r2
 101 0070 074A     		ldr	r2, .L12+4
 102 0072 1360     		str	r3, [r2]
 103 0074 D4E7     		b	.L8
 104              	.L9:
 105 0076 074B     		ldr	r3, .L12+8
 106 0078 B3FBF2F3 		udiv	r3, r3, r2
 107 007c 034A     		ldr	r2, .L12
 108 007e 5268     		ldr	r2, [r2, #4]
 109 0080 C2F38812 		ubfx	r2, r2, #6, #9
 110 0084 02FB03F3 		mul	r3, r2, r3
 111 0088 EAE7     		b	.L10
 112              	.L13:
 113 008a 00BF     		.align	2
 114              	.L12:
 115 008c 00380240 		.word	1073887232
 116 0090 00000000 		.word	SystemCoreClock
 117 0094 0024F400 		.word	16000000
ARM GAS  C:\Temp\cc7YSiYL.s 			page 3


 118 0098 00000000 		.word	AHBPrescTable
 119 009c 00127A00 		.word	8000000
 121              		.global	APBPrescTable
 122              		.section	.rodata.APBPrescTable,"a"
 123              		.align	2
 126              	APBPrescTable:
 127 0000 00000000 		.ascii	"\000\000\000\000\001\002\003\004"
 127      01020304 
 128              		.global	AHBPrescTable
 129              		.section	.rodata.AHBPrescTable,"a"
 130              		.align	2
 133              	AHBPrescTable:
 134 0000 00000000 		.ascii	"\000\000\000\000\000\000\000\000\001\002\003\004\006"
 134      00000000 
 134      01020304 
 134      06
 135 000d 070809   		.ascii	"\007\010\011"
 136              		.global	SystemCoreClock
 137              		.section	.data.SystemCoreClock,"aw"
 138              		.align	2
 141              	SystemCoreClock:
 142 0000 0024F400 		.word	16000000
 143              		.ident	"GCC: (xPack GNU Arm Embedded GCC x86_64) 12.3.1 20230626"
ARM GAS  C:\Temp\cc7YSiYL.s 			page 4


DEFINED SYMBOLS
                            *ABS*:00000000 system_stm32f4xx.c
  C:\Temp\cc7YSiYL.s:18     .text.SystemInit:00000000 $t
  C:\Temp\cc7YSiYL.s:24     .text.SystemInit:00000000 SystemInit
  C:\Temp\cc7YSiYL.s:36     .text.SystemInit:00000010 $d
  C:\Temp\cc7YSiYL.s:39     .text.SystemCoreClockUpdate:00000000 $t
  C:\Temp\cc7YSiYL.s:45     .text.SystemCoreClockUpdate:00000000 SystemCoreClockUpdate
  C:\Temp\cc7YSiYL.s:115    .text.SystemCoreClockUpdate:0000008c $d
  C:\Temp\cc7YSiYL.s:141    .data.SystemCoreClock:00000000 SystemCoreClock
  C:\Temp\cc7YSiYL.s:133    .rodata.AHBPrescTable:00000000 AHBPrescTable
  C:\Temp\cc7YSiYL.s:126    .rodata.APBPrescTable:00000000 APBPrescTable
  C:\Temp\cc7YSiYL.s:123    .rodata.APBPrescTable:00000000 $d
  C:\Temp\cc7YSiYL.s:130    .rodata.AHBPrescTable:00000000 $d
  C:\Temp\cc7YSiYL.s:138    .data.SystemCoreClock:00000000 $d

NO UNDEFINED SYMBOLS
