ARM GAS  C:\Temp\ccVQrAGa.s 			page 1


   1              		.cpu cortex-m4
   2              		.arch armv7e-m
   3              		.fpu fpv4-sp-d16
   4              		.eabi_attribute 27, 1
   5              		.eabi_attribute 28, 1
   6              		.eabi_attribute 20, 1
   7              		.eabi_attribute 21, 1
   8              		.eabi_attribute 23, 3
   9              		.eabi_attribute 24, 1
  10              		.eabi_attribute 25, 1
  11              		.eabi_attribute 26, 1
  12              		.eabi_attribute 30, 1
  13              		.eabi_attribute 34, 1
  14              		.eabi_attribute 18, 4
  15              		.file	"vl53l8cx_api.c"
  16              		.text
  17              		.section	.text._vl53l8cx_poll_for_mcu_boot,"ax",%progbits
  18              		.align	1
  19              		.syntax unified
  20              		.thumb
  21              		.thumb_func
  23              	_vl53l8cx_poll_for_mcu_boot:
  24              		@ args = 0, pretend = 0, frame = 8
  25              		@ frame_needed = 0, uses_anonymous_args = 0
  26 0000 70B5     		push	{r4, r5, r6, lr}
  27 0002 82B0     		sub	sp, sp, #8
  28 0004 0646     		mov	r6, r0
  29 0006 0024     		movs	r4, #0
  30 0008 2546     		mov	r5, r4
  31 000a 0DE0     		b	.L4
  32              	.L2:
  33 000c 0121     		movs	r1, #1
  34 000e 3046     		mov	r0, r6
  35 0010 FFF7FEFF 		bl	VL53L8CX_WaitMs
  36 0014 0134     		adds	r4, r4, #1
  37 0016 A4B2     		uxth	r4, r4
  38 0018 9DF80730 		ldrb	r3, [sp, #7]	@ zero_extendqisi2
  39 001c 13F0010F 		tst	r3, #1
  40 0020 1BD1     		bne	.L3
  41 0022 B4F5FA7F 		cmp	r4, #500
  42 0026 18D2     		bcs	.L3
  43              	.L4:
  44 0028 0DF10702 		add	r2, sp, #7
  45 002c 0621     		movs	r1, #6
  46 002e 3046     		mov	r0, r6
  47 0030 FFF7FEFF 		bl	VL53L8CX_RdByte
  48 0034 2843     		orrs	r0, r0, r5
  49 0036 C5B2     		uxtb	r5, r0
  50 0038 9DF90730 		ldrsb	r3, [sp, #7]
  51 003c 002B     		cmp	r3, #0
  52 003e E5DA     		bge	.L2
  53 0040 0DF10602 		add	r2, sp, #6
  54 0044 0721     		movs	r1, #7
  55 0046 3046     		mov	r0, r6
  56 0048 FFF7FEFF 		bl	VL53L8CX_RdByte
  57 004c 2843     		orrs	r0, r0, r5
  58 004e C5B2     		uxtb	r5, r0
ARM GAS  C:\Temp\ccVQrAGa.s 			page 2


  59 0050 9DF80630 		ldrb	r3, [sp, #6]	@ zero_extendqisi2
  60 0054 13F0010F 		tst	r3, #1
  61 0058 D8D0     		beq	.L2
  62              	.L3:
  63 005a 2846     		mov	r0, r5
  64 005c 02B0     		add	sp, sp, #8
  65              		@ sp needed
  66 005e 70BD     		pop	{r4, r5, r6, pc}
  68              		.section	.text._vl53l8cx_poll_for_answer,"ax",%progbits
  69              		.align	1
  70              		.syntax unified
  71              		.thumb
  72              		.thumb_func
  74              	_vl53l8cx_poll_for_answer:
  75              		@ args = 8, pretend = 0, frame = 0
  76              		@ frame_needed = 0, uses_anonymous_args = 0
  77 0000 2DE9F84F 		push	{r3, r4, r5, r6, r7, r8, r9, r10, fp, lr}
  78 0004 0646     		mov	r6, r0
  79 0006 0F46     		mov	r7, r1
  80 0008 9146     		mov	r9, r2
  81 000a 9846     		mov	r8, r3
  82 000c 9DF828B0 		ldrb	fp, [sp, #40]	@ zero_extendqisi2
  83 0010 9DF82CA0 		ldrb	r10, [sp, #44]	@ zero_extendqisi2
  84 0014 0025     		movs	r5, #0
  85 0016 2C46     		mov	r4, r5
  86 0018 0CE0     		b	.L10
  87              	.L12:
  88 001a 44F00104 		orr	r4, r4, #1
  89 001e 22E0     		b	.L8
  90              	.L9:
  91 0020 0135     		adds	r5, r5, #1
  92 0022 EDB2     		uxtb	r5, r5
  93 0024 06EB0903 		add	r3, r6, r9
  94 0028 93F81035 		ldrb	r3, [r3, #1296]	@ zero_extendqisi2
  95 002c 03EA0B03 		and	r3, r3, fp
  96 0030 5345     		cmp	r3, r10
  97 0032 18D0     		beq	.L8
  98              	.L10:
  99 0034 3B46     		mov	r3, r7
 100 0036 06F5A262 		add	r2, r6, #1296
 101 003a 4146     		mov	r1, r8
 102 003c 3046     		mov	r0, r6
 103 003e FFF7FEFF 		bl	VL53L8CX_RdMulti
 104 0042 0443     		orrs	r4, r4, r0
 105 0044 E4B2     		uxtb	r4, r4
 106 0046 0A21     		movs	r1, #10
 107 0048 3046     		mov	r0, r6
 108 004a FFF7FEFF 		bl	VL53L8CX_WaitMs
 109 004e 0443     		orrs	r4, r4, r0
 110 0050 E4B2     		uxtb	r4, r4
 111 0052 C72D     		cmp	r5, #199
 112 0054 E1D8     		bhi	.L12
 113 0056 032F     		cmp	r7, #3
 114 0058 E2D9     		bls	.L9
 115 005a 96F81235 		ldrb	r3, [r6, #1298]	@ zero_extendqisi2
 116 005e 7E2B     		cmp	r3, #126
 117 0060 DED9     		bls	.L9
ARM GAS  C:\Temp\ccVQrAGa.s 			page 3


 118 0062 44F04204 		orr	r4, r4, #66
 119              	.L8:
 120 0066 2046     		mov	r0, r4
 121 0068 BDE8F88F 		pop	{r3, r4, r5, r6, r7, r8, r9, r10, fp, pc}
 123              		.section	.text._vl53l8cx_send_offset_data,"ax",%progbits
 124              		.align	1
 125              		.syntax unified
 126              		.thumb
 127              		.thumb_func
 129              	_vl53l8cx_send_offset_data:
 130              		@ args = 0, pretend = 0, frame = 400
 131              		@ frame_needed = 0, uses_anonymous_args = 0
 132 0000 2DE9F04F 		push	{r4, r5, r6, r7, r8, r9, r10, fp, lr}
 133 0004 E7B0     		sub	sp, sp, #412
 134 0006 0446     		mov	r4, r0
 135 0008 0E46     		mov	r6, r1
 136 000a 04AA     		add	r2, sp, #16
 137 000c 5A4B     		ldr	r3, .L26
 138 000e 93E80300 		ldm	r3, {r0, r1}
 139 0012 82E80300 		stm	r2, {r0, r1}
 140 0016 02AA     		add	r2, sp, #8
 141 0018 0833     		adds	r3, r3, #8
 142 001a 93E80300 		ldm	r3, {r0, r1}
 143 001e 82E80300 		stm	r2, {r0, r1}
 144 0022 04F5A265 		add	r5, r4, #1296
 145 0026 4FF4F472 		mov	r2, #488
 146 002a 04F12001 		add	r1, r4, #32
 147 002e 2846     		mov	r0, r5
 148 0030 FFF7FEFF 		bl	memcpy
 149 0034 102E     		cmp	r6, #16
 150 0036 01D0     		beq	.L23
 151              	.L14:
 152 0038 0023     		movs	r3, #0
 153 003a 7AE0     		b	.L19
 154              	.L23:
 155 003c 04AB     		add	r3, sp, #16
 156 003e 03CB     		ldmia	r3!, {r0, r1}
 157 0040 C4F82005 		str	r0, [r4, #1312]	@ unaligned
 158 0044 C4F82415 		str	r1, [r4, #1316]	@ unaligned
 159 0048 4FF4F471 		mov	r1, #488
 160 004c 2846     		mov	r0, r5
 161 004e FFF7FEFF 		bl	VL53L8CX_SwapBuffer
 162 0052 04F24C57 		addw	r7, r4, #1356
 163 0056 4FF48072 		mov	r2, #256
 164 005a 3946     		mov	r1, r7
 165 005c 26A8     		add	r0, sp, #152
 166 005e FFF7FEFF 		bl	memcpy
 167 0062 04F5CA6B 		add	fp, r4, #1616
 168 0066 8022     		movs	r2, #128
 169 0068 5946     		mov	r1, fp
 170 006a 06A8     		add	r0, sp, #24
 171 006c FFF7FEFF 		bl	memcpy
 172 0070 0020     		movs	r0, #0
 173 0072 35E0     		b	.L15
 174              	.L16:
 175 0074 9B10     		asrs	r3, r3, #2
 176 0076 06AA     		add	r2, sp, #24
ARM GAS  C:\Temp\ccVQrAGa.s 			page 4


 177 0078 22F81930 		strh	r3, [r2, r9, lsl #1]	@ movhi
 178 007c 0131     		adds	r1, r1, #1
 179 007e 49B2     		sxtb	r1, r1
 180              	.L18:
 181 0080 0329     		cmp	r1, #3
 182 0082 2BDC     		bgt	.L24
 183 0084 01EBC002 		add	r2, r1, r0, lsl #3
 184 0088 4FEA420E 		lsl	lr, r2, #1
 185 008c 0DF1980C 		add	ip, sp, #152
 186 0090 5CF82E30 		ldr	r3, [ip, lr, lsl #2]
 187 0094 0EF10108 		add	r8, lr, #1
 188 0098 5CF82860 		ldr	r6, [ip, r8, lsl #2]
 189 009c 3344     		add	r3, r3, r6
 190 009e 0432     		adds	r2, r2, #4
 191 00a0 5200     		lsls	r2, r2, #1
 192 00a2 5CF82260 		ldr	r6, [ip, r2, lsl #2]
 193 00a6 3344     		add	r3, r3, r6
 194 00a8 0EF1090A 		add	r10, lr, #9
 195 00ac 5CF82A60 		ldr	r6, [ip, r10, lsl #2]
 196 00b0 3344     		add	r3, r3, r6
 197 00b2 01EB8009 		add	r9, r1, r0, lsl #2
 198 00b6 9B08     		lsrs	r3, r3, #2
 199 00b8 4CF82930 		str	r3, [ip, r9, lsl #2]
 200 00bc 0DF1180C 		add	ip, sp, #24
 201 00c0 3CF91E30 		ldrsh	r3, [ip, lr, lsl #1]
 202 00c4 3CF918E0 		ldrsh	lr, [ip, r8, lsl #1]
 203 00c8 7344     		add	r3, r3, lr
 204 00ca 3CF91220 		ldrsh	r2, [ip, r2, lsl #1]
 205 00ce 1344     		add	r3, r3, r2
 206 00d0 3CF91A20 		ldrsh	r2, [ip, r10, lsl #1]
 207 00d4 9B18     		adds	r3, r3, r2
 208 00d6 CDD5     		bpl	.L16
 209 00d8 0333     		adds	r3, r3, #3
 210 00da CBE7     		b	.L16
 211              	.L24:
 212 00dc 0130     		adds	r0, r0, #1
 213 00de 40B2     		sxtb	r0, r0
 214              	.L15:
 215 00e0 0328     		cmp	r0, #3
 216 00e2 01DC     		bgt	.L25
 217 00e4 0021     		movs	r1, #0
 218 00e6 CBE7     		b	.L18
 219              	.L25:
 220 00e8 6022     		movs	r2, #96
 221 00ea 0021     		movs	r1, #0
 222 00ec 0EA8     		add	r0, sp, #56
 223 00ee FFF7FEFF 		bl	memset
 224 00f2 C022     		movs	r2, #192
 225 00f4 0021     		movs	r1, #0
 226 00f6 36A8     		add	r0, sp, #216
 227 00f8 FFF7FEFF 		bl	memset
 228 00fc 4FF48072 		mov	r2, #256
 229 0100 26A9     		add	r1, sp, #152
 230 0102 3846     		mov	r0, r7
 231 0104 FFF7FEFF 		bl	memcpy
 232 0108 8022     		movs	r2, #128
 233 010a 06A9     		add	r1, sp, #24
ARM GAS  C:\Temp\ccVQrAGa.s 			page 5


 234 010c 5846     		mov	r0, fp
 235 010e FFF7FEFF 		bl	memcpy
 236 0112 4FF4F471 		mov	r1, #488
 237 0116 2846     		mov	r0, r5
 238 0118 FFF7FEFF 		bl	VL53L8CX_SwapBuffer
 239 011c 8CE7     		b	.L14
 240              	.L20:
 241 011e 03F10802 		add	r2, r3, #8
 242 0122 2244     		add	r2, r2, r4
 243 0124 92F81015 		ldrb	r1, [r2, #1296]	@ zero_extendqisi2
 244 0128 E218     		adds	r2, r4, r3
 245 012a 82F81015 		strb	r1, [r2, #1296]
 246 012e 0133     		adds	r3, r3, #1
 247 0130 9BB2     		uxth	r3, r3
 248              	.L19:
 249 0132 B3F5F27F 		cmp	r3, #484
 250 0136 F2D3     		bcc	.L20
 251 0138 02AB     		add	r3, sp, #8
 252 013a 03CB     		ldmia	r3!, {r0, r1}
 253 013c C4F8F006 		str	r0, [r4, #1776]	@ unaligned
 254 0140 C4F8F416 		str	r1, [r4, #1780]	@ unaligned
 255 0144 4FF4F473 		mov	r3, #488
 256 0148 2A46     		mov	r2, r5
 257 014a 42F61861 		movw	r1, #11800
 258 014e 2046     		mov	r0, r4
 259 0150 FFF7FEFF 		bl	VL53L8CX_WrMulti
 260 0154 0546     		mov	r5, r0
 261 0156 0323     		movs	r3, #3
 262 0158 0193     		str	r3, [sp, #4]
 263 015a FF23     		movs	r3, #255
 264 015c 0093     		str	r3, [sp]
 265 015e 4FF43053 		mov	r3, #11264
 266 0162 0122     		movs	r2, #1
 267 0164 0421     		movs	r1, #4
 268 0166 2046     		mov	r0, r4
 269 0168 FFF7FEFF 		bl	_vl53l8cx_poll_for_answer
 270 016c 2843     		orrs	r0, r0, r5
 271 016e C0B2     		uxtb	r0, r0
 272 0170 67B0     		add	sp, sp, #412
 273              		@ sp needed
 274 0172 BDE8F08F 		pop	{r4, r5, r6, r7, r8, r9, r10, fp, pc}
 275              	.L27:
 276 0176 00BF     		.align	2
 277              	.L26:
 278 0178 00000000 		.word	.LANCHOR0
 280              		.section	.rodata._vl53l8cx_send_xtalk_data.str1.4,"aMS",%progbits,1
 281              		.align	2
 282              	.LC4:
 283 0000 0F040417 		.ascii	"\017\004\004\027\010\020\020\007\000"
 283      08101007 
 283      00
 284              		.section	.text._vl53l8cx_send_xtalk_data,"ax",%progbits
 285              		.align	1
 286              		.syntax unified
 287              		.thumb
 288              		.thumb_func
 290              	_vl53l8cx_send_xtalk_data:
ARM GAS  C:\Temp\ccVQrAGa.s 			page 6


 291              		@ args = 0, pretend = 0, frame = 280
 292              		@ frame_needed = 0, uses_anonymous_args = 0
 293 0000 F0B5     		push	{r4, r5, r6, r7, lr}
 294 0002 C9B0     		sub	sp, sp, #292
 295 0004 0446     		mov	r4, r0
 296 0006 0E46     		mov	r6, r1
 297 0008 444B     		ldr	r3, .L37
 298 000a 93E80300 		ldm	r3, {r0, r1}
 299 000e 48AB     		add	r3, sp, #288
 300 0010 03E90300 		stmdb	r3, {r0, r1}
 301 0014 44AB     		add	r3, sp, #272
 302 0016 424A     		ldr	r2, .L37+4
 303 0018 92E80300 		ldm	r2, {r0, r1}
 304 001c 83E80300 		stm	r3, {r0, r1}
 305 0020 404B     		ldr	r3, .L37+8
 306 0022 4393     		str	r3, [sp, #268]
 307 0024 04F5A265 		add	r5, r4, #1296
 308 0028 4FF44272 		mov	r2, #776
 309 002c 04F50271 		add	r1, r4, #520
 310 0030 2846     		mov	r0, r5
 311 0032 FFF7FEFF 		bl	memcpy
 312 0036 102E     		cmp	r6, #16
 313 0038 17D0     		beq	.L35
 314              	.L29:
 315 003a 4FF44273 		mov	r3, #776
 316 003e 2A46     		mov	r2, r5
 317 0040 42F6F841 		movw	r1, #11512
 318 0044 2046     		mov	r0, r4
 319 0046 FFF7FEFF 		bl	VL53L8CX_WrMulti
 320 004a 0546     		mov	r5, r0
 321 004c 0323     		movs	r3, #3
 322 004e 0193     		str	r3, [sp, #4]
 323 0050 FF23     		movs	r3, #255
 324 0052 0093     		str	r3, [sp]
 325 0054 4FF43053 		mov	r3, #11264
 326 0058 0122     		movs	r2, #1
 327 005a 0421     		movs	r1, #4
 328 005c 2046     		mov	r0, r4
 329 005e FFF7FEFF 		bl	_vl53l8cx_poll_for_answer
 330 0062 2843     		orrs	r0, r0, r5
 331 0064 C0B2     		uxtb	r0, r0
 332 0066 49B0     		add	sp, sp, #292
 333              		@ sp needed
 334 0068 F0BD     		pop	{r4, r5, r6, r7, pc}
 335              	.L35:
 336 006a 46AB     		add	r3, sp, #280
 337 006c 03CB     		ldmia	r3!, {r0, r1}
 338 006e C4F81805 		str	r0, [r4, #1304]	@ unaligned
 339 0072 C4F81C15 		str	r1, [r4, #1308]	@ unaligned
 340 0076 44AB     		add	r3, sp, #272
 341 0078 03CB     		ldmia	r3!, {r0, r1}
 342 007a C4F83005 		str	r0, [r4, #1328]	@ unaligned
 343 007e C4F83415 		str	r1, [r4, #1332]	@ unaligned
 344 0082 4FF44271 		mov	r1, #776
 345 0086 2846     		mov	r0, r5
 346 0088 FFF7FEFF 		bl	VL53L8CX_SwapBuffer
 347 008c 04F24456 		addw	r6, r4, #1348
ARM GAS  C:\Temp\ccVQrAGa.s 			page 7


 348 0090 4FF48072 		mov	r2, #256
 349 0094 3146     		mov	r1, r6
 350 0096 03A8     		add	r0, sp, #12
 351 0098 FFF7FEFF 		bl	memcpy
 352 009c 4FF0000E 		mov	lr, #0
 353 00a0 20E0     		b	.L30
 354              	.L31:
 355 00a2 02EBCE0C 		add	ip, r2, lr, lsl #3
 356 00a6 4FEA4C00 		lsl	r0, ip, #1
 357 00aa 03A9     		add	r1, sp, #12
 358 00ac 51F82030 		ldr	r3, [r1, r0, lsl #2]
 359 00b0 471C     		adds	r7, r0, #1
 360 00b2 51F82770 		ldr	r7, [r1, r7, lsl #2]
 361 00b6 3B44     		add	r3, r3, r7
 362 00b8 0CF1040C 		add	ip, ip, #4
 363 00bc 51F83C70 		ldr	r7, [r1, ip, lsl #3]
 364 00c0 3B44     		add	r3, r3, r7
 365 00c2 0930     		adds	r0, r0, #9
 366 00c4 51F82000 		ldr	r0, [r1, r0, lsl #2]
 367 00c8 0344     		add	r3, r3, r0
 368 00ca 02EB8E00 		add	r0, r2, lr, lsl #2
 369 00ce 9B08     		lsrs	r3, r3, #2
 370 00d0 41F82030 		str	r3, [r1, r0, lsl #2]
 371 00d4 0132     		adds	r2, r2, #1
 372 00d6 52B2     		sxtb	r2, r2
 373              	.L32:
 374 00d8 032A     		cmp	r2, #3
 375 00da E2DD     		ble	.L31
 376 00dc 0EF1010E 		add	lr, lr, #1
 377 00e0 4FFA8EFE 		sxtb	lr, lr
 378              	.L30:
 379 00e4 BEF1030F 		cmp	lr, #3
 380 00e8 01DC     		bgt	.L36
 381 00ea 0022     		movs	r2, #0
 382 00ec F4E7     		b	.L32
 383              	.L36:
 384 00ee C022     		movs	r2, #192
 385 00f0 0021     		movs	r1, #0
 386 00f2 13A8     		add	r0, sp, #76
 387 00f4 FFF7FEFF 		bl	memset
 388 00f8 4FF48072 		mov	r2, #256
 389 00fc 03A9     		add	r1, sp, #12
 390 00fe 3046     		mov	r0, r6
 391 0100 FFF7FEFF 		bl	memcpy
 392 0104 4FF44271 		mov	r1, #776
 393 0108 2846     		mov	r0, r5
 394 010a FFF7FEFF 		bl	VL53L8CX_SwapBuffer
 395 010e 439B     		ldr	r3, [sp, #268]
 396 0110 C4F84436 		str	r3, [r4, #1604]	@ unaligned
 397 0114 0023     		movs	r3, #0
 398 0116 C4F88835 		str	r3, [r4, #1416]	@ unaligned
 399 011a 8EE7     		b	.L29
 400              	.L38:
 401              		.align	2
 402              	.L37:
 403 011c 00000000 		.word	.LC4
 404 0120 10000000 		.word	.LANCHOR0+16
ARM GAS  C:\Temp\ccVQrAGa.s 			page 8


 405 0124 A0FC0100 		.word	130208
 407              		.section	.text.vl53l8cx_is_alive,"ax",%progbits
 408              		.align	1
 409              		.global	vl53l8cx_is_alive
 410              		.syntax unified
 411              		.thumb
 412              		.thumb_func
 414              	vl53l8cx_is_alive:
 415              		@ args = 0, pretend = 0, frame = 8
 416              		@ frame_needed = 0, uses_anonymous_args = 0
 417 0000 70B5     		push	{r4, r5, r6, lr}
 418 0002 82B0     		sub	sp, sp, #8
 419 0004 0646     		mov	r6, r0
 420 0006 0D46     		mov	r5, r1
 421 0008 0022     		movs	r2, #0
 422 000a 47F6FF71 		movw	r1, #32767
 423 000e FFF7FEFF 		bl	VL53L8CX_WrByte
 424 0012 0446     		mov	r4, r0
 425 0014 0DF10702 		add	r2, sp, #7
 426 0018 0021     		movs	r1, #0
 427 001a 3046     		mov	r0, r6
 428 001c FFF7FEFF 		bl	VL53L8CX_RdByte
 429 0020 0443     		orrs	r4, r4, r0
 430 0022 E4B2     		uxtb	r4, r4
 431 0024 0DF10602 		add	r2, sp, #6
 432 0028 0121     		movs	r1, #1
 433 002a 3046     		mov	r0, r6
 434 002c FFF7FEFF 		bl	VL53L8CX_RdByte
 435 0030 0443     		orrs	r4, r4, r0
 436 0032 E4B2     		uxtb	r4, r4
 437 0034 0222     		movs	r2, #2
 438 0036 47F6FF71 		movw	r1, #32767
 439 003a 3046     		mov	r0, r6
 440 003c FFF7FEFF 		bl	VL53L8CX_WrByte
 441 0040 2043     		orrs	r0, r0, r4
 442 0042 C0B2     		uxtb	r0, r0
 443 0044 9DF80730 		ldrb	r3, [sp, #7]	@ zero_extendqisi2
 444 0048 F02B     		cmp	r3, #240
 445 004a 03D0     		beq	.L43
 446              	.L40:
 447 004c 0023     		movs	r3, #0
 448 004e 2B70     		strb	r3, [r5]
 449              	.L41:
 450 0050 02B0     		add	sp, sp, #8
 451              		@ sp needed
 452 0052 70BD     		pop	{r4, r5, r6, pc}
 453              	.L43:
 454 0054 9DF80630 		ldrb	r3, [sp, #6]	@ zero_extendqisi2
 455 0058 0C2B     		cmp	r3, #12
 456 005a F7D1     		bne	.L40
 457 005c 0123     		movs	r3, #1
 458 005e 2B70     		strb	r3, [r5]
 459 0060 F6E7     		b	.L41
 461              		.section	.text.vl53l8cx_set_i2c_address,"ax",%progbits
 462              		.align	1
 463              		.global	vl53l8cx_set_i2c_address
 464              		.syntax unified
ARM GAS  C:\Temp\ccVQrAGa.s 			page 9


 465              		.thumb
 466              		.thumb_func
 468              	vl53l8cx_set_i2c_address:
 469              		@ args = 0, pretend = 0, frame = 0
 470              		@ frame_needed = 0, uses_anonymous_args = 0
 471 0000 70B5     		push	{r4, r5, r6, lr}
 472 0002 0546     		mov	r5, r0
 473 0004 0E46     		mov	r6, r1
 474 0006 0022     		movs	r2, #0
 475 0008 47F6FF71 		movw	r1, #32767
 476 000c FFF7FEFF 		bl	VL53L8CX_WrByte
 477 0010 0446     		mov	r4, r0
 478 0012 C6F34702 		ubfx	r2, r6, #1, #8
 479 0016 0421     		movs	r1, #4
 480 0018 2846     		mov	r0, r5
 481 001a FFF7FEFF 		bl	VL53L8CX_WrByte
 482 001e 0443     		orrs	r4, r4, r0
 483 0020 E4B2     		uxtb	r4, r4
 484 0022 2E80     		strh	r6, [r5]	@ movhi
 485 0024 0222     		movs	r2, #2
 486 0026 47F6FF71 		movw	r1, #32767
 487 002a 2846     		mov	r0, r5
 488 002c FFF7FEFF 		bl	VL53L8CX_WrByte
 489 0030 2043     		orrs	r0, r0, r4
 490 0032 C0B2     		uxtb	r0, r0
 491 0034 70BD     		pop	{r4, r5, r6, pc}
 493              		.section	.text.vl53l8cx_get_power_mode,"ax",%progbits
 494              		.align	1
 495              		.global	vl53l8cx_get_power_mode
 496              		.syntax unified
 497              		.thumb
 498              		.thumb_func
 500              	vl53l8cx_get_power_mode:
 501              		@ args = 0, pretend = 0, frame = 8
 502              		@ frame_needed = 0, uses_anonymous_args = 0
 503 0000 70B5     		push	{r4, r5, r6, lr}
 504 0002 82B0     		sub	sp, sp, #8
 505 0004 0546     		mov	r5, r0
 506 0006 0E46     		mov	r6, r1
 507 0008 0022     		movs	r2, #0
 508 000a 47F6FF71 		movw	r1, #32767
 509 000e FFF7FEFF 		bl	VL53L8CX_WrByte
 510 0012 0446     		mov	r4, r0
 511 0014 0DF10702 		add	r2, sp, #7
 512 0018 0921     		movs	r1, #9
 513 001a 2846     		mov	r0, r5
 514 001c FFF7FEFF 		bl	VL53L8CX_RdByte
 515 0020 0443     		orrs	r4, r4, r0
 516 0022 E4B2     		uxtb	r4, r4
 517 0024 9DF80730 		ldrb	r3, [sp, #7]	@ zero_extendqisi2
 518 0028 022B     		cmp	r3, #2
 519 002a 0DD0     		beq	.L47
 520 002c 042B     		cmp	r3, #4
 521 002e 1DD1     		bne	.L48
 522 0030 0123     		movs	r3, #1
 523 0032 3370     		strb	r3, [r6]
 524              	.L49:
ARM GAS  C:\Temp\ccVQrAGa.s 			page 10


 525 0034 0222     		movs	r2, #2
 526 0036 47F6FF71 		movw	r1, #32767
 527 003a 2846     		mov	r0, r5
 528 003c FFF7FEFF 		bl	VL53L8CX_WrByte
 529 0040 2043     		orrs	r0, r0, r4
 530 0042 C0B2     		uxtb	r0, r0
 531 0044 02B0     		add	sp, sp, #8
 532              		@ sp needed
 533 0046 70BD     		pop	{r4, r5, r6, pc}
 534              	.L47:
 535 0048 0DF10702 		add	r2, sp, #7
 536 004c 0F21     		movs	r1, #15
 537 004e 2846     		mov	r0, r5
 538 0050 FFF7FEFF 		bl	VL53L8CX_RdByte
 539 0054 2043     		orrs	r0, r0, r4
 540 0056 C4B2     		uxtb	r4, r0
 541 0058 9DF80730 		ldrb	r3, [sp, #7]	@ zero_extendqisi2
 542 005c 432B     		cmp	r3, #67
 543 005e 02D0     		beq	.L52
 544 0060 0023     		movs	r3, #0
 545 0062 3370     		strb	r3, [r6]
 546 0064 E6E7     		b	.L49
 547              	.L52:
 548 0066 0223     		movs	r3, #2
 549 0068 3370     		strb	r3, [r6]
 550 006a E3E7     		b	.L49
 551              	.L48:
 552 006c 0023     		movs	r3, #0
 553 006e 3370     		strb	r3, [r6]
 554 0070 FF24     		movs	r4, #255
 555 0072 DFE7     		b	.L49
 557              		.section	.text.vl53l8cx_stop_ranging,"ax",%progbits
 558              		.align	1
 559              		.global	vl53l8cx_stop_ranging
 560              		.syntax unified
 561              		.thumb
 562              		.thumb_func
 564              	vl53l8cx_stop_ranging:
 565              		@ args = 0, pretend = 0, frame = 8
 566              		@ frame_needed = 0, uses_anonymous_args = 0
 567 0000 70B5     		push	{r4, r5, r6, lr}
 568 0002 82B0     		sub	sp, sp, #8
 569 0004 0546     		mov	r5, r0
 570 0006 0023     		movs	r3, #0
 571 0008 8DF80730 		strb	r3, [sp, #7]
 572 000c 0093     		str	r3, [sp]
 573 000e 0423     		movs	r3, #4
 574 0010 6A46     		mov	r2, sp
 575 0012 42F6FC71 		movw	r1, #12284
 576 0016 FFF7FEFF 		bl	VL53L8CX_RdMulti
 577 001a 0446     		mov	r4, r0
 578 001c 009A     		ldr	r2, [sp]
 579 001e 40F2FF43 		movw	r3, #1279
 580 0022 9A42     		cmp	r2, r3
 581 0024 02D0     		beq	.L54
 582 0026 95F81039 		ldrb	r3, [r5, #2320]	@ zero_extendqisi2
 583 002a 93B3     		cbz	r3, .L59
ARM GAS  C:\Temp\ccVQrAGa.s 			page 11


 584              	.L54:
 585 002c 0DF10702 		add	r2, sp, #7
 586 0030 0621     		movs	r1, #6
 587 0032 2846     		mov	r0, r5
 588 0034 FFF7FEFF 		bl	VL53L8CX_RdByte
 589 0038 0443     		orrs	r4, r4, r0
 590 003a E4B2     		uxtb	r4, r4
 591 003c 9DF90730 		ldrsb	r3, [sp, #7]
 592 0040 002B     		cmp	r3, #0
 593 0042 58DB     		blt	.L60
 594              	.L57:
 595 0044 0022     		movs	r2, #0
 596 0046 47F6FF71 		movw	r1, #32767
 597 004a 2846     		mov	r0, r5
 598 004c FFF7FEFF 		bl	VL53L8CX_WrByte
 599 0050 0443     		orrs	r4, r4, r0
 600 0052 E4B2     		uxtb	r4, r4
 601 0054 0022     		movs	r2, #0
 602 0056 1421     		movs	r1, #20
 603 0058 2846     		mov	r0, r5
 604 005a FFF7FEFF 		bl	VL53L8CX_WrByte
 605 005e 0443     		orrs	r4, r4, r0
 606 0060 E4B2     		uxtb	r4, r4
 607 0062 0022     		movs	r2, #0
 608 0064 1521     		movs	r1, #21
 609 0066 2846     		mov	r0, r5
 610 0068 FFF7FEFF 		bl	VL53L8CX_WrByte
 611 006c 0443     		orrs	r4, r4, r0
 612 006e E4B2     		uxtb	r4, r4
 613 0070 0422     		movs	r2, #4
 614 0072 0921     		movs	r1, #9
 615 0074 2846     		mov	r0, r5
 616 0076 FFF7FEFF 		bl	VL53L8CX_WrByte
 617 007a 0443     		orrs	r4, r4, r0
 618 007c E4B2     		uxtb	r4, r4
 619 007e 0222     		movs	r2, #2
 620 0080 47F6FF71 		movw	r1, #32767
 621 0084 2846     		mov	r0, r5
 622 0086 FFF7FEFF 		bl	VL53L8CX_WrByte
 623 008a 2043     		orrs	r0, r0, r4
 624 008c C0B2     		uxtb	r0, r0
 625 008e 02B0     		add	sp, sp, #8
 626              		@ sp needed
 627 0090 70BD     		pop	{r4, r5, r6, pc}
 628              	.L59:
 629 0092 0022     		movs	r2, #0
 630 0094 47F6FF71 		movw	r1, #32767
 631 0098 2846     		mov	r0, r5
 632 009a FFF7FEFF 		bl	VL53L8CX_WrByte
 633 009e 0443     		orrs	r4, r4, r0
 634 00a0 E4B2     		uxtb	r4, r4
 635 00a2 1622     		movs	r2, #22
 636 00a4 1521     		movs	r1, #21
 637 00a6 2846     		mov	r0, r5
 638 00a8 FFF7FEFF 		bl	VL53L8CX_WrByte
 639 00ac 0443     		orrs	r4, r4, r0
 640 00ae E4B2     		uxtb	r4, r4
ARM GAS  C:\Temp\ccVQrAGa.s 			page 12


 641 00b0 0122     		movs	r2, #1
 642 00b2 1421     		movs	r1, #20
 643 00b4 2846     		mov	r0, r5
 644 00b6 FFF7FEFF 		bl	VL53L8CX_WrByte
 645 00ba 0443     		orrs	r4, r4, r0
 646 00bc E4B2     		uxtb	r4, r4
 647 00be 0026     		movs	r6, #0
 648              	.L55:
 649 00c0 9DF90730 		ldrsb	r3, [sp, #7]
 650 00c4 002B     		cmp	r3, #0
 651 00c6 B1DB     		blt	.L54
 652 00c8 0DF10702 		add	r2, sp, #7
 653 00cc 0621     		movs	r1, #6
 654 00ce 2846     		mov	r0, r5
 655 00d0 FFF7FEFF 		bl	VL53L8CX_RdByte
 656 00d4 0443     		orrs	r4, r4, r0
 657 00d6 E4B2     		uxtb	r4, r4
 658 00d8 0A21     		movs	r1, #10
 659 00da 2846     		mov	r0, r5
 660 00dc FFF7FEFF 		bl	VL53L8CX_WaitMs
 661 00e0 0443     		orrs	r4, r4, r0
 662 00e2 E4B2     		uxtb	r4, r4
 663 00e4 0136     		adds	r6, r6, #1
 664 00e6 B6B2     		uxth	r6, r6
 665 00e8 B6F5FA7F 		cmp	r6, #500
 666 00ec E8D9     		bls	.L55
 667 00ee 9DF80730 		ldrb	r3, [sp, #7]	@ zero_extendqisi2
 668 00f2 1C43     		orrs	r4, r4, r3
 669 00f4 9AE7     		b	.L54
 670              	.L60:
 671 00f6 0DF10702 		add	r2, sp, #7
 672 00fa 0721     		movs	r1, #7
 673 00fc 2846     		mov	r0, r5
 674 00fe FFF7FEFF 		bl	VL53L8CX_RdByte
 675 0102 0443     		orrs	r4, r4, r0
 676 0104 E4B2     		uxtb	r4, r4
 677 0106 9DF80720 		ldrb	r2, [sp, #7]	@ zero_extendqisi2
 678 010a 02F17C03 		add	r3, r2, #124
 679 010e DBB2     		uxtb	r3, r3
 680 0110 012B     		cmp	r3, #1
 681 0112 97D9     		bls	.L57
 682 0114 1443     		orrs	r4, r4, r2
 683 0116 95E7     		b	.L57
 685              		.section	.text.vl53l8cx_check_data_ready,"ax",%progbits
 686              		.align	1
 687              		.global	vl53l8cx_check_data_ready
 688              		.syntax unified
 689              		.thumb
 690              		.thumb_func
 692              	vl53l8cx_check_data_ready:
 693              		@ args = 0, pretend = 0, frame = 0
 694              		@ frame_needed = 0, uses_anonymous_args = 0
 695 0000 38B5     		push	{r3, r4, r5, lr}
 696 0002 0446     		mov	r4, r0
 697 0004 0D46     		mov	r5, r1
 698 0006 0423     		movs	r3, #4
 699 0008 00F5A262 		add	r2, r0, #1296
ARM GAS  C:\Temp\ccVQrAGa.s 			page 13


 700 000c 0021     		movs	r1, #0
 701 000e FFF7FEFF 		bl	VL53L8CX_RdMulti
 702 0012 94F81035 		ldrb	r3, [r4, #1296]	@ zero_extendqisi2
 703 0016 227C     		ldrb	r2, [r4, #16]	@ zero_extendqisi2
 704 0018 9342     		cmp	r3, r2
 705 001a 05D0     		beq	.L62
 706 001c FF2B     		cmp	r3, #255
 707 001e 03D0     		beq	.L62
 708 0020 94F81135 		ldrb	r3, [r4, #1297]	@ zero_extendqisi2
 709 0024 052B     		cmp	r3, #5
 710 0026 06D0     		beq	.L66
 711              	.L62:
 712 0028 94F91335 		ldrsb	r3, [r4, #1299]
 713 002c 002B     		cmp	r3, #0
 714 002e 13DB     		blt	.L67
 715              	.L64:
 716 0030 0023     		movs	r3, #0
 717 0032 2B70     		strb	r3, [r5]
 718              	.L63:
 719 0034 38BD     		pop	{r3, r4, r5, pc}
 720              	.L66:
 721 0036 94F81235 		ldrb	r3, [r4, #1298]	@ zero_extendqisi2
 722 003a 03F00503 		and	r3, r3, #5
 723 003e 052B     		cmp	r3, #5
 724 0040 F2D1     		bne	.L62
 725 0042 94F81335 		ldrb	r3, [r4, #1299]	@ zero_extendqisi2
 726 0046 13F0100F 		tst	r3, #16
 727 004a EDD0     		beq	.L62
 728 004c 0123     		movs	r3, #1
 729 004e 2B70     		strb	r3, [r5]
 730 0050 94F81035 		ldrb	r3, [r4, #1296]	@ zero_extendqisi2
 731 0054 2374     		strb	r3, [r4, #16]
 732 0056 EDE7     		b	.L63
 733              	.L67:
 734 0058 94F81235 		ldrb	r3, [r4, #1298]	@ zero_extendqisi2
 735 005c 1843     		orrs	r0, r0, r3
 736 005e C0B2     		uxtb	r0, r0
 737 0060 E6E7     		b	.L64
 739              		.section	.text.vl53l8cx_get_ranging_data,"ax",%progbits
 740              		.align	1
 741              		.global	vl53l8cx_get_ranging_data
 742              		.syntax unified
 743              		.thumb
 744              		.thumb_func
 746              	vl53l8cx_get_ranging_data:
 747              		@ args = 0, pretend = 0, frame = 0
 748              		@ frame_needed = 0, uses_anonymous_args = 0
 749 0000 2DE9F041 		push	{r4, r5, r6, r7, r8, lr}
 750 0004 0546     		mov	r5, r0
 751 0006 0C46     		mov	r4, r1
 752 0008 00F5A267 		add	r7, r0, #1296
 753 000c 4369     		ldr	r3, [r0, #20]
 754 000e 3A46     		mov	r2, r7
 755 0010 0021     		movs	r1, #0
 756 0012 FFF7FEFF 		bl	VL53L8CX_RdMulti
 757 0016 0646     		mov	r6, r0
 758 0018 95F81035 		ldrb	r3, [r5, #1296]	@ zero_extendqisi2
ARM GAS  C:\Temp\ccVQrAGa.s 			page 14


 759 001c 2B74     		strb	r3, [r5, #16]
 760 001e A98A     		ldrh	r1, [r5, #20]
 761 0020 3846     		mov	r0, r7
 762 0022 FFF7FEFF 		bl	VL53L8CX_SwapBuffer
 763 0026 4FF01008 		mov	r8, #16
 764 002a 19E0     		b	.L69
 765              	.L70:
 766 002c EF5A     		ldrh	r7, [r5, r3]
 767 002e C7F30B17 		ubfx	r7, r7, #4, #12
 768 0032 29E0     		b	.L71
 769              	.L73:
 770 0034 4EF28402 		movw	r2, #57476
 771 0038 9342     		cmp	r3, r2
 772 003a 0ED1     		bne	.L76
 773 003c 08F21451 		addw	r1, r8, #1300
 774 0040 3A46     		mov	r2, r7
 775 0042 2944     		add	r1, r1, r5
 776 0044 04F1C200 		add	r0, r4, #194
 777 0048 FFF7FEFF 		bl	memcpy
 778 004c 05E0     		b	.L76
 779              	.L74:
 780 004e 08F10C03 		add	r3, r8, #12
 781 0052 2B44     		add	r3, r3, r5
 782 0054 93F91035 		ldrsb	r3, [r3, #1296]
 783 0058 2370     		strb	r3, [r4]
 784              	.L76:
 785 005a 4744     		add	r7, r7, r8
 786 005c 07F10408 		add	r8, r7, #4
 787              	.L69:
 788 0060 6B69     		ldr	r3, [r5, #20]
 789 0062 4345     		cmp	r3, r8
 790 0064 2FD9     		bls	.L90
 791 0066 08F5A263 		add	r3, r8, #1296
 792 006a E918     		adds	r1, r5, r3
 793 006c EF5C     		ldrb	r7, [r5, r3]	@ zero_extendqisi2
 794 006e 07F00F07 		and	r7, r7, #15
 795 0072 07F10E02 		add	r2, r7, #14
 796 0076 02F00F02 		and	r2, r2, #15
 797 007a 0A2A     		cmp	r2, #10
 798 007c D6D8     		bhi	.L70
 799 007e EB5A     		ldrh	r3, [r5, r3]
 800 0080 C3F30B13 		ubfx	r3, r3, #4, #12
 801 0084 03FB07F7 		mul	r7, r3, r7
 802              	.L71:
 803 0088 4B88     		ldrh	r3, [r1, #2]
 804 008a 4DF64472 		movw	r2, #57156
 805 008e 9342     		cmp	r3, r2
 806 0090 10D0     		beq	.L72
 807 0092 CFD8     		bhi	.L73
 808 0094 45F2B442 		movw	r2, #21684
 809 0098 9342     		cmp	r3, r2
 810 009a D8D0     		beq	.L74
 811 009c 4DF68432 		movw	r2, #56196
 812 00a0 9342     		cmp	r3, r2
 813 00a2 DAD1     		bne	.L76
 814 00a4 08F21451 		addw	r1, r8, #1300
 815 00a8 3A46     		mov	r2, r7
ARM GAS  C:\Temp\ccVQrAGa.s 			page 15


 816 00aa 2944     		add	r1, r1, r5
 817 00ac 601C     		adds	r0, r4, #1
 818 00ae FFF7FEFF 		bl	memcpy
 819 00b2 D2E7     		b	.L76
 820              	.L72:
 821 00b4 08F21451 		addw	r1, r8, #1300
 822 00b8 3A46     		mov	r2, r7
 823 00ba 2944     		add	r1, r1, r5
 824 00bc 04F14200 		add	r0, r4, #66
 825 00c0 FFF7FEFF 		bl	memcpy
 826 00c4 C9E7     		b	.L76
 827              	.L90:
 828 00c6 0021     		movs	r1, #0
 829 00c8 02E0     		b	.L79
 830              	.L80:
 831 00ca 9210     		asrs	r2, r2, #2
 832 00cc 5A80     		strh	r2, [r3, #2]	@ movhi
 833 00ce 0131     		adds	r1, r1, #1
 834              	.L79:
 835 00d0 3F29     		cmp	r1, #63
 836 00d2 0AD8     		bhi	.L91
 837 00d4 01F12003 		add	r3, r1, #32
 838 00d8 04EB4303 		add	r3, r4, r3, lsl #1
 839 00dc B3F90200 		ldrsh	r0, [r3, #2]
 840 00e0 0246     		mov	r2, r0
 841 00e2 0028     		cmp	r0, #0
 842 00e4 F1DA     		bge	.L80
 843 00e6 C21C     		adds	r2, r0, #3
 844 00e8 EFE7     		b	.L80
 845              	.L91:
 846 00ea 0023     		movs	r3, #0
 847 00ec 08E0     		b	.L82
 848              	.L85:
 849 00ee 9918     		adds	r1, r3, r2
 850 00f0 2144     		add	r1, r1, r4
 851 00f2 FF20     		movs	r0, #255
 852 00f4 81F8C200 		strb	r0, [r1, #194]
 853 00f8 0132     		adds	r2, r2, #1
 854              	.L83:
 855 00fa 002A     		cmp	r2, #0
 856 00fc F7D0     		beq	.L85
 857              	.L84:
 858 00fe 0133     		adds	r3, r3, #1
 859              	.L82:
 860 0100 3F2B     		cmp	r3, #63
 861 0102 05D8     		bhi	.L92
 862 0104 E218     		adds	r2, r4, r3
 863 0106 5278     		ldrb	r2, [r2, #1]	@ zero_extendqisi2
 864 0108 002A     		cmp	r2, #0
 865 010a F8D1     		bne	.L84
 866 010c 0022     		movs	r2, #0
 867 010e F4E7     		b	.L83
 868              	.L92:
 869 0110 95F81835 		ldrb	r3, [r5, #1304]	@ zero_extendqisi2
 870 0114 95F81925 		ldrb	r2, [r5, #1305]	@ zero_extendqisi2
 871 0118 42EA0322 		orr	r2, r2, r3, lsl #8
 872 011c 6B69     		ldr	r3, [r5, #20]
ARM GAS  C:\Temp\ccVQrAGa.s 			page 16


 873 011e 191F     		subs	r1, r3, #4
 874 0120 2944     		add	r1, r1, r5
 875 0122 91F81015 		ldrb	r1, [r1, #1296]	@ zero_extendqisi2
 876 0126 033B     		subs	r3, r3, #3
 877 0128 1D44     		add	r5, r5, r3
 878 012a 95F81035 		ldrb	r3, [r5, #1296]	@ zero_extendqisi2
 879 012e 43EA0123 		orr	r3, r3, r1, lsl #8
 880 0132 9A42     		cmp	r2, r3
 881 0134 02D0     		beq	.L87
 882 0136 46F00206 		orr	r6, r6, #2
 883 013a F6B2     		uxtb	r6, r6
 884              	.L87:
 885 013c 3046     		mov	r0, r6
 886 013e BDE8F081 		pop	{r4, r5, r6, r7, r8, pc}
 888              		.section	.text.vl53l8cx_dci_read_data,"ax",%progbits
 889              		.align	1
 890              		.global	vl53l8cx_dci_read_data
 891              		.syntax unified
 892              		.thumb
 893              		.thumb_func
 895              	vl53l8cx_dci_read_data:
 896              		@ args = 0, pretend = 0, frame = 16
 897              		@ frame_needed = 0, uses_anonymous_args = 0
 898 0000 2DE9F041 		push	{r4, r5, r6, r7, r8, lr}
 899 0004 86B0     		sub	sp, sp, #24
 900 0006 0546     		mov	r5, r0
 901 0008 0E46     		mov	r6, r1
 902 000a 1746     		mov	r7, r2
 903 000c 1C46     		mov	r4, r3
 904 000e 03F10C08 		add	r8, r3, #12
 905 0012 284B     		ldr	r3, .L100
 906 0014 93E80700 		ldm	r3, {r0, r1, r2}
 907 0018 06AB     		add	r3, sp, #24
 908 001a 03E90700 		stmdb	r3, {r0, r1, r2}
 909 001e B4F57D7F 		cmp	r4, #1012
 910 0022 04D9     		bls	.L99
 911 0024 FF27     		movs	r7, #255
 912              	.L94:
 913 0026 3846     		mov	r0, r7
 914 0028 06B0     		add	sp, sp, #24
 915              		@ sp needed
 916 002a BDE8F081 		pop	{r4, r5, r6, r7, r8, pc}
 917              	.L99:
 918 002e C7F30723 		ubfx	r3, r7, #8, #8
 919 0032 8DF80C30 		strb	r3, [sp, #12]
 920 0036 8DF80D70 		strb	r7, [sp, #13]
 921 003a C4F30713 		ubfx	r3, r4, #4, #8
 922 003e 8DF80E30 		strb	r3, [sp, #14]
 923 0042 E3B2     		uxtb	r3, r4
 924 0044 1B01     		lsls	r3, r3, #4
 925 0046 8DF80F30 		strb	r3, [sp, #15]
 926 004a 0C23     		movs	r3, #12
 927 004c 0DEB0302 		add	r2, sp, r3
 928 0050 42F6F471 		movw	r1, #12276
 929 0054 2846     		mov	r0, r5
 930 0056 FFF7FEFF 		bl	VL53L8CX_WrMulti
 931 005a 0746     		mov	r7, r0
ARM GAS  C:\Temp\ccVQrAGa.s 			page 17


 932 005c 0323     		movs	r3, #3
 933 005e 0193     		str	r3, [sp, #4]
 934 0060 FF23     		movs	r3, #255
 935 0062 0093     		str	r3, [sp]
 936 0064 4FF43053 		mov	r3, #11264
 937 0068 0122     		movs	r2, #1
 938 006a 0421     		movs	r1, #4
 939 006c 2846     		mov	r0, r5
 940 006e FFF7FEFF 		bl	_vl53l8cx_poll_for_answer
 941 0072 0743     		orrs	r7, r7, r0
 942 0074 FFB2     		uxtb	r7, r7
 943 0076 05F5A262 		add	r2, r5, #1296
 944 007a 4346     		mov	r3, r8
 945 007c 9046     		mov	r8, r2
 946 007e 42F60441 		movw	r1, #11268
 947 0082 2846     		mov	r0, r5
 948 0084 FFF7FEFF 		bl	VL53L8CX_RdMulti
 949 0088 0743     		orrs	r7, r7, r0
 950 008a FFB2     		uxtb	r7, r7
 951 008c 04F10C01 		add	r1, r4, #12
 952 0090 89B2     		uxth	r1, r1
 953 0092 4046     		mov	r0, r8
 954 0094 FFF7FEFF 		bl	VL53L8CX_SwapBuffer
 955 0098 0022     		movs	r2, #0
 956 009a 07E0     		b	.L95
 957              	.L96:
 958 009c 02F1040C 		add	ip, r2, #4
 959 00a0 AC44     		add	ip, ip, r5
 960 00a2 9CF81035 		ldrb	r3, [ip, #1296]	@ zero_extendqisi2
 961 00a6 B354     		strb	r3, [r6, r2]
 962 00a8 0132     		adds	r2, r2, #1
 963 00aa 12B2     		sxth	r2, r2
 964              	.L95:
 965 00ac 23B2     		sxth	r3, r4
 966 00ae 9342     		cmp	r3, r2
 967 00b0 F4DC     		bgt	.L96
 968 00b2 B8E7     		b	.L94
 969              	.L101:
 970              		.align	2
 971              	.L100:
 972 00b4 18000000 		.word	.LANCHOR0+24
 974              		.section	.text.vl53l8cx_get_resolution,"ax",%progbits
 975              		.align	1
 976              		.global	vl53l8cx_get_resolution
 977              		.syntax unified
 978              		.thumb
 979              		.thumb_func
 981              	vl53l8cx_get_resolution:
 982              		@ args = 0, pretend = 0, frame = 0
 983              		@ frame_needed = 0, uses_anonymous_args = 0
 984 0000 38B5     		push	{r3, r4, r5, lr}
 985 0002 0446     		mov	r4, r0
 986 0004 0D46     		mov	r5, r1
 987 0006 0823     		movs	r3, #8
 988 0008 45F25042 		movw	r2, #21584
 989 000c 00F5A261 		add	r1, r0, #1296
 990 0010 FFF7FEFF 		bl	vl53l8cx_dci_read_data
ARM GAS  C:\Temp\ccVQrAGa.s 			page 18


 991 0014 94F81035 		ldrb	r3, [r4, #1296]	@ zero_extendqisi2
 992 0018 94F81125 		ldrb	r2, [r4, #1297]	@ zero_extendqisi2
 993 001c 13FB02F3 		smulbb	r3, r3, r2
 994 0020 2B70     		strb	r3, [r5]
 995 0022 38BD     		pop	{r3, r4, r5, pc}
 997              		.section	.text.vl53l8cx_get_ranging_frequency_hz,"ax",%progbits
 998              		.align	1
 999              		.global	vl53l8cx_get_ranging_frequency_hz
 1000              		.syntax unified
 1001              		.thumb
 1002              		.thumb_func
 1004              	vl53l8cx_get_ranging_frequency_hz:
 1005              		@ args = 0, pretend = 0, frame = 0
 1006              		@ frame_needed = 0, uses_anonymous_args = 0
 1007 0000 38B5     		push	{r3, r4, r5, lr}
 1008 0002 0446     		mov	r4, r0
 1009 0004 0D46     		mov	r5, r1
 1010 0006 0423     		movs	r3, #4
 1011 0008 45F25842 		movw	r2, #21592
 1012 000c 00F5A261 		add	r1, r0, #1296
 1013 0010 FFF7FEFF 		bl	vl53l8cx_dci_read_data
 1014 0014 94F81135 		ldrb	r3, [r4, #1297]	@ zero_extendqisi2
 1015 0018 2B70     		strb	r3, [r5]
 1016 001a 38BD     		pop	{r3, r4, r5, pc}
 1018              		.section	.text.vl53l8cx_get_integration_time_ms,"ax",%progbits
 1019              		.align	1
 1020              		.global	vl53l8cx_get_integration_time_ms
 1021              		.syntax unified
 1022              		.thumb
 1023              		.thumb_func
 1025              	vl53l8cx_get_integration_time_ms:
 1026              		@ args = 0, pretend = 0, frame = 0
 1027              		@ frame_needed = 0, uses_anonymous_args = 0
 1028 0000 38B5     		push	{r3, r4, r5, lr}
 1029 0002 0546     		mov	r5, r0
 1030 0004 0C46     		mov	r4, r1
 1031 0006 1423     		movs	r3, #20
 1032 0008 45F25C42 		movw	r2, #21596
 1033 000c 00F5A261 		add	r1, r0, #1296
 1034 0010 FFF7FEFF 		bl	vl53l8cx_dci_read_data
 1035 0014 D5F81035 		ldr	r3, [r5, #1296]	@ unaligned
 1036 0018 2360     		str	r3, [r4]	@ unaligned
 1037 001a 034A     		ldr	r2, .L108
 1038 001c A2FB0323 		umull	r2, r3, r2, r3
 1039 0020 9B09     		lsrs	r3, r3, #6
 1040 0022 2360     		str	r3, [r4]
 1041 0024 38BD     		pop	{r3, r4, r5, pc}
 1042              	.L109:
 1043 0026 00BF     		.align	2
 1044              	.L108:
 1045 0028 D34D6210 		.word	274877907
 1047              		.section	.text.vl53l8cx_get_sharpener_percent,"ax",%progbits
 1048              		.align	1
 1049              		.global	vl53l8cx_get_sharpener_percent
 1050              		.syntax unified
 1051              		.thumb
 1052              		.thumb_func
ARM GAS  C:\Temp\ccVQrAGa.s 			page 19


 1054              	vl53l8cx_get_sharpener_percent:
 1055              		@ args = 0, pretend = 0, frame = 0
 1056              		@ frame_needed = 0, uses_anonymous_args = 0
 1057 0000 38B5     		push	{r3, r4, r5, lr}
 1058 0002 0446     		mov	r4, r0
 1059 0004 0D46     		mov	r5, r1
 1060 0006 1023     		movs	r3, #16
 1061 0008 4AF6D862 		movw	r2, #44760
 1062 000c 00F5A261 		add	r1, r0, #1296
 1063 0010 FFF7FEFF 		bl	vl53l8cx_dci_read_data
 1064 0014 94F81D25 		ldrb	r2, [r4, #1309]	@ zero_extendqisi2
 1065 0018 6423     		movs	r3, #100
 1066 001a 03FB02F2 		mul	r2, r3, r2
 1067 001e 034B     		ldr	r3, .L112
 1068 0020 83FB0213 		smull	r1, r3, r3, r2
 1069 0024 1344     		add	r3, r3, r2
 1070 0026 DB11     		asrs	r3, r3, #7
 1071 0028 2B70     		strb	r3, [r5]
 1072 002a 38BD     		pop	{r3, r4, r5, pc}
 1073              	.L113:
 1074              		.align	2
 1075              	.L112:
 1076 002c 81808080 		.word	-2139062143
 1078              		.section	.text.vl53l8cx_get_target_order,"ax",%progbits
 1079              		.align	1
 1080              		.global	vl53l8cx_get_target_order
 1081              		.syntax unified
 1082              		.thumb
 1083              		.thumb_func
 1085              	vl53l8cx_get_target_order:
 1086              		@ args = 0, pretend = 0, frame = 0
 1087              		@ frame_needed = 0, uses_anonymous_args = 0
 1088 0000 38B5     		push	{r3, r4, r5, lr}
 1089 0002 0446     		mov	r4, r0
 1090 0004 0D46     		mov	r5, r1
 1091 0006 0423     		movs	r3, #4
 1092 0008 4AF66462 		movw	r2, #44644
 1093 000c 00F5A261 		add	r1, r0, #1296
 1094 0010 FFF7FEFF 		bl	vl53l8cx_dci_read_data
 1095 0014 94F81035 		ldrb	r3, [r4, #1296]	@ zero_extendqisi2
 1096 0018 2B70     		strb	r3, [r5]
 1097 001a 38BD     		pop	{r3, r4, r5, pc}
 1099              		.section	.text.vl53l8cx_get_ranging_mode,"ax",%progbits
 1100              		.align	1
 1101              		.global	vl53l8cx_get_ranging_mode
 1102              		.syntax unified
 1103              		.thumb
 1104              		.thumb_func
 1106              	vl53l8cx_get_ranging_mode:
 1107              		@ args = 0, pretend = 0, frame = 0
 1108              		@ frame_needed = 0, uses_anonymous_args = 0
 1109 0000 38B5     		push	{r3, r4, r5, lr}
 1110 0002 0446     		mov	r4, r0
 1111 0004 0D46     		mov	r5, r1
 1112 0006 0823     		movs	r3, #8
 1113 0008 4AF63052 		movw	r2, #44336
 1114 000c 00F5A261 		add	r1, r0, #1296
ARM GAS  C:\Temp\ccVQrAGa.s 			page 20


 1115 0010 FFF7FEFF 		bl	vl53l8cx_dci_read_data
 1116 0014 94F81135 		ldrb	r3, [r4, #1297]	@ zero_extendqisi2
 1117 0018 012B     		cmp	r3, #1
 1118 001a 02D0     		beq	.L120
 1119 001c 0323     		movs	r3, #3
 1120 001e 2B70     		strb	r3, [r5]
 1121              	.L118:
 1122 0020 38BD     		pop	{r3, r4, r5, pc}
 1123              	.L120:
 1124 0022 2B70     		strb	r3, [r5]
 1125 0024 FCE7     		b	.L118
 1127              		.section	.text.vl53l8cx_get_external_sync_pin_enable,"ax",%progbits
 1128              		.align	1
 1129              		.global	vl53l8cx_get_external_sync_pin_enable
 1130              		.syntax unified
 1131              		.thumb
 1132              		.thumb_func
 1134              	vl53l8cx_get_external_sync_pin_enable:
 1135              		@ args = 0, pretend = 0, frame = 0
 1136              		@ frame_needed = 0, uses_anonymous_args = 0
 1137 0000 38B5     		push	{r3, r4, r5, lr}
 1138 0002 0446     		mov	r4, r0
 1139 0004 0D46     		mov	r5, r1
 1140 0006 0423     		movs	r3, #4
 1141 0008 4BF2F052 		movw	r2, #46576
 1142 000c 00F5A261 		add	r1, r0, #1296
 1143 0010 FFF7FEFF 		bl	vl53l8cx_dci_read_data
 1144 0014 94F81335 		ldrb	r3, [r4, #1299]	@ zero_extendqisi2
 1145 0018 13F0020F 		tst	r3, #2
 1146 001c 02D0     		beq	.L122
 1147 001e 0123     		movs	r3, #1
 1148 0020 2B70     		strb	r3, [r5]
 1149              	.L123:
 1150 0022 38BD     		pop	{r3, r4, r5, pc}
 1151              	.L122:
 1152 0024 0023     		movs	r3, #0
 1153 0026 2B70     		strb	r3, [r5]
 1154 0028 FBE7     		b	.L123
 1156              		.section	.text.vl53l8cx_get_VHV_repeat_count,"ax",%progbits
 1157              		.align	1
 1158              		.global	vl53l8cx_get_VHV_repeat_count
 1159              		.syntax unified
 1160              		.thumb
 1161              		.thumb_func
 1163              	vl53l8cx_get_VHV_repeat_count:
 1164              		@ args = 0, pretend = 0, frame = 0
 1165              		@ frame_needed = 0, uses_anonymous_args = 0
 1166 0000 38B5     		push	{r3, r4, r5, lr}
 1167 0002 0446     		mov	r4, r0
 1168 0004 0D46     		mov	r5, r1
 1169 0006 1023     		movs	r3, #16
 1170 0008 4AF66052 		movw	r2, #44384
 1171 000c 00F5A261 		add	r1, r0, #1296
 1172 0010 FFF7FEFF 		bl	vl53l8cx_dci_read_data
 1173 0014 94F81725 		ldrb	r2, [r4, #1303]	@ zero_extendqisi2
 1174 0018 94F81635 		ldrb	r3, [r4, #1302]	@ zero_extendqisi2
 1175 001c 1B04     		lsls	r3, r3, #16
ARM GAS  C:\Temp\ccVQrAGa.s 			page 21


 1176 001e 43EA0263 		orr	r3, r3, r2, lsl #24
 1177 0022 94F81525 		ldrb	r2, [r4, #1301]	@ zero_extendqisi2
 1178 0026 43EA0223 		orr	r3, r3, r2, lsl #8
 1179 002a 94F81425 		ldrb	r2, [r4, #1300]	@ zero_extendqisi2
 1180 002e 1343     		orrs	r3, r3, r2
 1181 0030 2B60     		str	r3, [r5]
 1182 0032 38BD     		pop	{r3, r4, r5, pc}
 1184              		.section	.text.vl53l8cx_dci_write_data,"ax",%progbits
 1185              		.align	1
 1186              		.global	vl53l8cx_dci_write_data
 1187              		.syntax unified
 1188              		.thumb
 1189              		.thumb_func
 1191              	vl53l8cx_dci_write_data:
 1192              		@ args = 0, pretend = 0, frame = 16
 1193              		@ frame_needed = 0, uses_anonymous_args = 0
 1194 0000 F0B5     		push	{r4, r5, r6, r7, lr}
 1195 0002 87B0     		sub	sp, sp, #28
 1196 0004 0E46     		mov	r6, r1
 1197 0006 1C46     		mov	r4, r3
 1198 0008 0023     		movs	r3, #0
 1199 000a 0593     		str	r3, [sp, #20]
 1200 000c 8DF80C30 		strb	r3, [sp, #12]
 1201 0010 8DF80D30 		strb	r3, [sp, #13]
 1202 0014 8DF80E30 		strb	r3, [sp, #14]
 1203 0018 0F23     		movs	r3, #15
 1204 001a 8DF80F30 		strb	r3, [sp, #15]
 1205 001e 0523     		movs	r3, #5
 1206 0020 8DF81030 		strb	r3, [sp, #16]
 1207 0024 0123     		movs	r3, #1
 1208 0026 8DF81130 		strb	r3, [sp, #17]
 1209 002a 04F10803 		add	r3, r4, #8
 1210 002e C3F30723 		ubfx	r3, r3, #8, #8
 1211 0032 8DF81230 		strb	r3, [sp, #18]
 1212 0036 E3B2     		uxtb	r3, r4
 1213 0038 03F10801 		add	r1, r3, #8
 1214 003c 8DF81310 		strb	r1, [sp, #19]
 1215 0040 B4F57D7F 		cmp	r4, #1012
 1216 0044 03D9     		bls	.L133
 1217 0046 FF25     		movs	r5, #255
 1218              	.L128:
 1219 0048 2846     		mov	r0, r5
 1220 004a 07B0     		add	sp, sp, #28
 1221              		@ sp needed
 1222 004c F0BD     		pop	{r4, r5, r6, r7, pc}
 1223              	.L133:
 1224 004e 0546     		mov	r5, r0
 1225 0050 C4F53F57 		rsb	r7, r4, #12224
 1226 0054 3437     		adds	r7, r7, #52
 1227 0056 BFB2     		uxth	r7, r7
 1228 0058 C2F30721 		ubfx	r1, r2, #8, #8
 1229 005c 8DF81410 		strb	r1, [sp, #20]
 1230 0060 8DF81520 		strb	r2, [sp, #21]
 1231 0064 C4F30712 		ubfx	r2, r4, #4, #8
 1232 0068 8DF81620 		strb	r2, [sp, #22]
 1233 006c 1B01     		lsls	r3, r3, #4
 1234 006e 8DF81730 		strb	r3, [sp, #23]
ARM GAS  C:\Temp\ccVQrAGa.s 			page 22


 1235 0072 2146     		mov	r1, r4
 1236 0074 3046     		mov	r0, r6
 1237 0076 FFF7FEFF 		bl	VL53L8CX_SwapBuffer
 1238 007a 621E     		subs	r2, r4, #1
 1239 007c 12B2     		sxth	r2, r2
 1240 007e 07E0     		b	.L129
 1241              	.L130:
 1242 0080 02F1040C 		add	ip, r2, #4
 1243 0084 B35C     		ldrb	r3, [r6, r2]	@ zero_extendqisi2
 1244 0086 AC44     		add	ip, ip, r5
 1245 0088 8CF81035 		strb	r3, [ip, #1296]
 1246 008c 013A     		subs	r2, r2, #1
 1247 008e 12B2     		sxth	r2, r2
 1248              	.L129:
 1249 0090 002A     		cmp	r2, #0
 1250 0092 F5DA     		bge	.L130
 1251 0094 059B     		ldr	r3, [sp, #20]
 1252 0096 C5F81035 		str	r3, [r5, #1296]	@ unaligned
 1253 009a 04F21452 		addw	r2, r4, #1300
 1254 009e 05EB020C 		add	ip, r5, r2
 1255 00a2 03AB     		add	r3, sp, #12
 1256 00a4 03CB     		ldmia	r3!, {r0, r1}
 1257 00a6 A850     		str	r0, [r5, r2]	@ unaligned
 1258 00a8 CCF80410 		str	r1, [ip, #4]	@ unaligned
 1259 00ac 04F10C03 		add	r3, r4, #12
 1260 00b0 05F5A262 		add	r2, r5, #1296
 1261 00b4 3946     		mov	r1, r7
 1262 00b6 2846     		mov	r0, r5
 1263 00b8 FFF7FEFF 		bl	VL53L8CX_WrMulti
 1264 00bc 0746     		mov	r7, r0
 1265 00be 0323     		movs	r3, #3
 1266 00c0 0193     		str	r3, [sp, #4]
 1267 00c2 FF23     		movs	r3, #255
 1268 00c4 0093     		str	r3, [sp]
 1269 00c6 4FF43053 		mov	r3, #11264
 1270 00ca 0122     		movs	r2, #1
 1271 00cc 0421     		movs	r1, #4
 1272 00ce 2846     		mov	r0, r5
 1273 00d0 FFF7FEFF 		bl	_vl53l8cx_poll_for_answer
 1274 00d4 47EA0005 		orr	r5, r7, r0
 1275 00d8 EDB2     		uxtb	r5, r5
 1276 00da 2146     		mov	r1, r4
 1277 00dc 3046     		mov	r0, r6
 1278 00de FFF7FEFF 		bl	VL53L8CX_SwapBuffer
 1279 00e2 B1E7     		b	.L128
 1281              		.section	.text.vl53l8cx_init,"ax",%progbits
 1282              		.align	1
 1283              		.global	vl53l8cx_init
 1284              		.syntax unified
 1285              		.thumb
 1286              		.thumb_func
 1288              	vl53l8cx_init:
 1289              		@ args = 0, pretend = 0, frame = 16
 1290              		@ frame_needed = 0, uses_anonymous_args = 0
 1291 0000 F0B5     		push	{r4, r5, r6, r7, lr}
 1292 0002 87B0     		sub	sp, sp, #28
 1293 0004 0546     		mov	r5, r0
ARM GAS  C:\Temp\ccVQrAGa.s 			page 23


 1294 0006 4FF00113 		mov	r3, #65537
 1295 000a 0493     		str	r3, [sp, #16]
 1296 000c 0126     		movs	r6, #1
 1297 000e 0396     		str	r6, [sp, #12]
 1298 0010 544B     		ldr	r3, .L139
 1299 0012 C361     		str	r3, [r0, #28]
 1300 0014 544B     		ldr	r3, .L139+4
 1301 0016 8361     		str	r3, [r0, #24]
 1302 0018 0027     		movs	r7, #0
 1303 001a 80F81079 		strb	r7, [r0, #2320]
 1304 001e 3A46     		mov	r2, r7
 1305 0020 47F6FF71 		movw	r1, #32767
 1306 0024 FFF7FEFF 		bl	VL53L8CX_WrByte
 1307 0028 0446     		mov	r4, r0
 1308 002a 0422     		movs	r2, #4
 1309 002c 0921     		movs	r1, #9
 1310 002e 2846     		mov	r0, r5
 1311 0030 FFF7FEFF 		bl	VL53L8CX_WrByte
 1312 0034 0443     		orrs	r4, r4, r0
 1313 0036 E4B2     		uxtb	r4, r4
 1314 0038 4022     		movs	r2, #64
 1315 003a 0F21     		movs	r1, #15
 1316 003c 2846     		mov	r0, r5
 1317 003e FFF7FEFF 		bl	VL53L8CX_WrByte
 1318 0042 0443     		orrs	r4, r4, r0
 1319 0044 E4B2     		uxtb	r4, r4
 1320 0046 0322     		movs	r2, #3
 1321 0048 0A21     		movs	r1, #10
 1322 004a 2846     		mov	r0, r5
 1323 004c FFF7FEFF 		bl	VL53L8CX_WrByte
 1324 0050 0443     		orrs	r4, r4, r0
 1325 0052 E4B2     		uxtb	r4, r4
 1326 0054 0DF11702 		add	r2, sp, #23
 1327 0058 47F6FF71 		movw	r1, #32767
 1328 005c 2846     		mov	r0, r5
 1329 005e FFF7FEFF 		bl	VL53L8CX_RdByte
 1330 0062 0443     		orrs	r4, r4, r0
 1331 0064 E4B2     		uxtb	r4, r4
 1332 0066 3246     		mov	r2, r6
 1333 0068 0C21     		movs	r1, #12
 1334 006a 2846     		mov	r0, r5
 1335 006c FFF7FEFF 		bl	VL53L8CX_WrByte
 1336 0070 0443     		orrs	r4, r4, r0
 1337 0072 E4B2     		uxtb	r4, r4
 1338 0074 3A46     		mov	r2, r7
 1339 0076 40F20111 		movw	r1, #257
 1340 007a 2846     		mov	r0, r5
 1341 007c FFF7FEFF 		bl	VL53L8CX_WrByte
 1342 0080 0443     		orrs	r4, r4, r0
 1343 0082 E4B2     		uxtb	r4, r4
 1344 0084 3A46     		mov	r2, r7
 1345 0086 4FF48171 		mov	r1, #258
 1346 008a 2846     		mov	r0, r5
 1347 008c FFF7FEFF 		bl	VL53L8CX_WrByte
 1348 0090 0443     		orrs	r4, r4, r0
 1349 0092 E4B2     		uxtb	r4, r4
 1350 0094 3246     		mov	r2, r6
ARM GAS  C:\Temp\ccVQrAGa.s 			page 24


 1351 0096 4FF48571 		mov	r1, #266
 1352 009a 2846     		mov	r0, r5
 1353 009c FFF7FEFF 		bl	VL53L8CX_WrByte
 1354 00a0 0443     		orrs	r4, r4, r0
 1355 00a2 E4B2     		uxtb	r4, r4
 1356 00a4 3246     		mov	r2, r6
 1357 00a6 44F20201 		movw	r1, #16386
 1358 00aa 2846     		mov	r0, r5
 1359 00ac FFF7FEFF 		bl	VL53L8CX_WrByte
 1360 00b0 0443     		orrs	r4, r4, r0
 1361 00b2 E4B2     		uxtb	r4, r4
 1362 00b4 3A46     		mov	r2, r7
 1363 00b6 44F20201 		movw	r1, #16386
 1364 00ba 2846     		mov	r0, r5
 1365 00bc FFF7FEFF 		bl	VL53L8CX_WrByte
 1366 00c0 0443     		orrs	r4, r4, r0
 1367 00c2 E4B2     		uxtb	r4, r4
 1368 00c4 0322     		movs	r2, #3
 1369 00c6 4FF48571 		mov	r1, #266
 1370 00ca 2846     		mov	r0, r5
 1371 00cc FFF7FEFF 		bl	VL53L8CX_WrByte
 1372 00d0 0443     		orrs	r4, r4, r0
 1373 00d2 E4B2     		uxtb	r4, r4
 1374 00d4 3246     		mov	r2, r6
 1375 00d6 40F20311 		movw	r1, #259
 1376 00da 2846     		mov	r0, r5
 1377 00dc FFF7FEFF 		bl	VL53L8CX_WrByte
 1378 00e0 0443     		orrs	r4, r4, r0
 1379 00e2 E4B2     		uxtb	r4, r4
 1380 00e4 3A46     		mov	r2, r7
 1381 00e6 0C21     		movs	r1, #12
 1382 00e8 2846     		mov	r0, r5
 1383 00ea FFF7FEFF 		bl	VL53L8CX_WrByte
 1384 00ee 0443     		orrs	r4, r4, r0
 1385 00f0 E4B2     		uxtb	r4, r4
 1386 00f2 4322     		movs	r2, #67
 1387 00f4 0F21     		movs	r1, #15
 1388 00f6 2846     		mov	r0, r5
 1389 00f8 FFF7FEFF 		bl	VL53L8CX_WrByte
 1390 00fc 0443     		orrs	r4, r4, r0
 1391 00fe E4B2     		uxtb	r4, r4
 1392 0100 3146     		mov	r1, r6
 1393 0102 2846     		mov	r0, r5
 1394 0104 FFF7FEFF 		bl	VL53L8CX_WaitMs
 1395 0108 0443     		orrs	r4, r4, r0
 1396 010a E4B2     		uxtb	r4, r4
 1397 010c 4022     		movs	r2, #64
 1398 010e 0F21     		movs	r1, #15
 1399 0110 2846     		mov	r0, r5
 1400 0112 FFF7FEFF 		bl	VL53L8CX_WrByte
 1401 0116 0443     		orrs	r4, r4, r0
 1402 0118 E4B2     		uxtb	r4, r4
 1403 011a 3246     		mov	r2, r6
 1404 011c 0A21     		movs	r1, #10
 1405 011e 2846     		mov	r0, r5
 1406 0120 FFF7FEFF 		bl	VL53L8CX_WrByte
 1407 0124 0443     		orrs	r4, r4, r0
ARM GAS  C:\Temp\ccVQrAGa.s 			page 25


 1408 0126 E4B2     		uxtb	r4, r4
 1409 0128 6421     		movs	r1, #100
 1410 012a 2846     		mov	r0, r5
 1411 012c FFF7FEFF 		bl	VL53L8CX_WaitMs
 1412 0130 0443     		orrs	r4, r4, r0
 1413 0132 E4B2     		uxtb	r4, r4
 1414 0134 3A46     		mov	r2, r7
 1415 0136 47F6FF71 		movw	r1, #32767
 1416 013a 2846     		mov	r0, r5
 1417 013c FFF7FEFF 		bl	VL53L8CX_WrByte
 1418 0140 0443     		orrs	r4, r4, r0
 1419 0142 E4B2     		uxtb	r4, r4
 1420 0144 0196     		str	r6, [sp, #4]
 1421 0146 FF23     		movs	r3, #255
 1422 0148 0093     		str	r3, [sp]
 1423 014a 0623     		movs	r3, #6
 1424 014c 3A46     		mov	r2, r7
 1425 014e 3146     		mov	r1, r6
 1426 0150 2846     		mov	r0, r5
 1427 0152 FFF7FEFF 		bl	_vl53l8cx_poll_for_answer
 1428 0156 0443     		orrs	r4, r4, r0
 1429 0158 14F0FF04 		ands	r4, r4, #255
 1430 015c 06D0     		beq	.L138
 1431              	.L135:
 1432 015e 2046     		mov	r0, r4
 1433 0160 07B0     		add	sp, sp, #28
 1434              		@ sp needed
 1435 0162 F0BD     		pop	{r4, r5, r6, r7, pc}
 1436              	.L140:
 1437              		.align	2
 1438              	.L139:
 1439 0164 00000000 		.word	VL53L8CX_DEFAULT_XTALK
 1440 0168 00000000 		.word	VL53L8CX_DEFAULT_CONFIGURATION
 1441              	.L138:
 1442 016c 3246     		mov	r2, r6
 1443 016e 0E21     		movs	r1, #14
 1444 0170 2846     		mov	r0, r5
 1445 0172 FFF7FEFF 		bl	VL53L8CX_WrByte
 1446 0176 0443     		orrs	r4, r4, r0
 1447 0178 E4B2     		uxtb	r4, r4
 1448 017a 0222     		movs	r2, #2
 1449 017c 47F6FF71 		movw	r1, #32767
 1450 0180 2846     		mov	r0, r5
 1451 0182 FFF7FEFF 		bl	VL53L8CX_WrByte
 1452 0186 0443     		orrs	r4, r4, r0
 1453 0188 E4B2     		uxtb	r4, r4
 1454 018a 3246     		mov	r2, r6
 1455 018c 47F6FF71 		movw	r1, #32767
 1456 0190 2846     		mov	r0, r5
 1457 0192 FFF7FEFF 		bl	VL53L8CX_WrByte
 1458 0196 0443     		orrs	r4, r4, r0
 1459 0198 E4B2     		uxtb	r4, r4
 1460 019a 3246     		mov	r2, r6
 1461 019c 0621     		movs	r1, #6
 1462 019e 2846     		mov	r0, r5
 1463 01a0 FFF7FEFF 		bl	VL53L8CX_WrByte
 1464 01a4 0443     		orrs	r4, r4, r0
ARM GAS  C:\Temp\ccVQrAGa.s 			page 26


 1465 01a6 E4B2     		uxtb	r4, r4
 1466 01a8 0423     		movs	r3, #4
 1467 01aa 0193     		str	r3, [sp, #4]
 1468 01ac FF23     		movs	r3, #255
 1469 01ae 0093     		str	r3, [sp]
 1470 01b0 2123     		movs	r3, #33
 1471 01b2 3A46     		mov	r2, r7
 1472 01b4 3146     		mov	r1, r6
 1473 01b6 2846     		mov	r0, r5
 1474 01b8 FFF7FEFF 		bl	_vl53l8cx_poll_for_answer
 1475 01bc 0443     		orrs	r4, r4, r0
 1476 01be E4B2     		uxtb	r4, r4
 1477 01c0 3A46     		mov	r2, r7
 1478 01c2 47F6FF71 		movw	r1, #32767
 1479 01c6 2846     		mov	r0, r5
 1480 01c8 FFF7FEFF 		bl	VL53L8CX_WrByte
 1481 01cc 0443     		orrs	r4, r4, r0
 1482 01ce E4B2     		uxtb	r4, r4
 1483 01d0 0DF11702 		add	r2, sp, #23
 1484 01d4 47F6FF71 		movw	r1, #32767
 1485 01d8 2846     		mov	r0, r5
 1486 01da FFF7FEFF 		bl	VL53L8CX_RdByte
 1487 01de 0443     		orrs	r4, r4, r0
 1488 01e0 E4B2     		uxtb	r4, r4
 1489 01e2 3246     		mov	r2, r6
 1490 01e4 0C21     		movs	r1, #12
 1491 01e6 2846     		mov	r0, r5
 1492 01e8 FFF7FEFF 		bl	VL53L8CX_WrByte
 1493 01ec 0443     		orrs	r4, r4, r0
 1494 01ee E4B2     		uxtb	r4, r4
 1495 01f0 3A46     		mov	r2, r7
 1496 01f2 47F6FF71 		movw	r1, #32767
 1497 01f6 2846     		mov	r0, r5
 1498 01f8 FFF7FEFF 		bl	VL53L8CX_WrByte
 1499 01fc 0443     		orrs	r4, r4, r0
 1500 01fe E4B2     		uxtb	r4, r4
 1501 0200 3A46     		mov	r2, r7
 1502 0202 40F20111 		movw	r1, #257
 1503 0206 2846     		mov	r0, r5
 1504 0208 FFF7FEFF 		bl	VL53L8CX_WrByte
 1505 020c 0443     		orrs	r4, r4, r0
 1506 020e E4B2     		uxtb	r4, r4
 1507 0210 3A46     		mov	r2, r7
 1508 0212 4FF48171 		mov	r1, #258
 1509 0216 2846     		mov	r0, r5
 1510 0218 FFF7FEFF 		bl	VL53L8CX_WrByte
 1511 021c 0443     		orrs	r4, r4, r0
 1512 021e E4B2     		uxtb	r4, r4
 1513 0220 3246     		mov	r2, r6
 1514 0222 4FF48571 		mov	r1, #266
 1515 0226 2846     		mov	r0, r5
 1516 0228 FFF7FEFF 		bl	VL53L8CX_WrByte
 1517 022c 0443     		orrs	r4, r4, r0
 1518 022e E4B2     		uxtb	r4, r4
 1519 0230 3246     		mov	r2, r6
 1520 0232 44F20201 		movw	r1, #16386
 1521 0236 2846     		mov	r0, r5
ARM GAS  C:\Temp\ccVQrAGa.s 			page 27


 1522 0238 FFF7FEFF 		bl	VL53L8CX_WrByte
 1523 023c 0443     		orrs	r4, r4, r0
 1524 023e E4B2     		uxtb	r4, r4
 1525 0240 3A46     		mov	r2, r7
 1526 0242 44F20201 		movw	r1, #16386
 1527 0246 2846     		mov	r0, r5
 1528 0248 FFF7FEFF 		bl	VL53L8CX_WrByte
 1529 024c 0443     		orrs	r4, r4, r0
 1530 024e E4B2     		uxtb	r4, r4
 1531 0250 0322     		movs	r2, #3
 1532 0252 4FF48571 		mov	r1, #266
 1533 0256 2846     		mov	r0, r5
 1534 0258 FFF7FEFF 		bl	VL53L8CX_WrByte
 1535 025c 0443     		orrs	r4, r4, r0
 1536 025e E4B2     		uxtb	r4, r4
 1537 0260 3246     		mov	r2, r6
 1538 0262 40F20311 		movw	r1, #259
 1539 0266 2846     		mov	r0, r5
 1540 0268 FFF7FEFF 		bl	VL53L8CX_WrByte
 1541 026c 0443     		orrs	r4, r4, r0
 1542 026e E4B2     		uxtb	r4, r4
 1543 0270 3A46     		mov	r2, r7
 1544 0272 44F20F01 		movw	r1, #16399
 1545 0276 2846     		mov	r0, r5
 1546 0278 FFF7FEFF 		bl	VL53L8CX_WrByte
 1547 027c 0443     		orrs	r4, r4, r0
 1548 027e E4B2     		uxtb	r4, r4
 1549 0280 4322     		movs	r2, #67
 1550 0282 40F21A21 		movw	r1, #538
 1551 0286 2846     		mov	r0, r5
 1552 0288 FFF7FEFF 		bl	VL53L8CX_WrByte
 1553 028c 0443     		orrs	r4, r4, r0
 1554 028e E4B2     		uxtb	r4, r4
 1555 0290 0322     		movs	r2, #3
 1556 0292 40F21A21 		movw	r1, #538
 1557 0296 2846     		mov	r0, r5
 1558 0298 FFF7FEFF 		bl	VL53L8CX_WrByte
 1559 029c 0443     		orrs	r4, r4, r0
 1560 029e E4B2     		uxtb	r4, r4
 1561 02a0 3246     		mov	r2, r6
 1562 02a2 40F21A21 		movw	r1, #538
 1563 02a6 2846     		mov	r0, r5
 1564 02a8 FFF7FEFF 		bl	VL53L8CX_WrByte
 1565 02ac 0443     		orrs	r4, r4, r0
 1566 02ae E4B2     		uxtb	r4, r4
 1567 02b0 3A46     		mov	r2, r7
 1568 02b2 40F21A21 		movw	r1, #538
 1569 02b6 2846     		mov	r0, r5
 1570 02b8 FFF7FEFF 		bl	VL53L8CX_WrByte
 1571 02bc 0443     		orrs	r4, r4, r0
 1572 02be E4B2     		uxtb	r4, r4
 1573 02c0 3A46     		mov	r2, r7
 1574 02c2 40F21921 		movw	r1, #537
 1575 02c6 2846     		mov	r0, r5
 1576 02c8 FFF7FEFF 		bl	VL53L8CX_WrByte
 1577 02cc 0443     		orrs	r4, r4, r0
 1578 02ce E4B2     		uxtb	r4, r4
ARM GAS  C:\Temp\ccVQrAGa.s 			page 28


 1579 02d0 3A46     		mov	r2, r7
 1580 02d2 40F21B21 		movw	r1, #539
 1581 02d6 2846     		mov	r0, r5
 1582 02d8 FFF7FEFF 		bl	VL53L8CX_WrByte
 1583 02dc 0443     		orrs	r4, r4, r0
 1584 02de E4B2     		uxtb	r4, r4
 1585 02e0 3A46     		mov	r2, r7
 1586 02e2 47F6FF71 		movw	r1, #32767
 1587 02e6 2846     		mov	r0, r5
 1588 02e8 FFF7FEFF 		bl	VL53L8CX_WrByte
 1589 02ec 0443     		orrs	r4, r4, r0
 1590 02ee E4B2     		uxtb	r4, r4
 1591 02f0 0DF11702 		add	r2, sp, #23
 1592 02f4 47F6FF71 		movw	r1, #32767
 1593 02f8 2846     		mov	r0, r5
 1594 02fa FFF7FEFF 		bl	VL53L8CX_RdByte
 1595 02fe 0443     		orrs	r4, r4, r0
 1596 0300 E4B2     		uxtb	r4, r4
 1597 0302 3246     		mov	r2, r6
 1598 0304 47F6FF71 		movw	r1, #32767
 1599 0308 2846     		mov	r0, r5
 1600 030a FFF7FEFF 		bl	VL53L8CX_WrByte
 1601 030e 0443     		orrs	r4, r4, r0
 1602 0310 E4B2     		uxtb	r4, r4
 1603 0312 0922     		movs	r2, #9
 1604 0314 47F6FF71 		movw	r1, #32767
 1605 0318 2846     		mov	r0, r5
 1606 031a FFF7FEFF 		bl	VL53L8CX_WrByte
 1607 031e 0443     		orrs	r4, r4, r0
 1608 0320 E4B2     		uxtb	r4, r4
 1609 0322 994E     		ldr	r6, .L141
 1610 0324 4FF40043 		mov	r3, #32768
 1611 0328 3246     		mov	r2, r6
 1612 032a 3946     		mov	r1, r7
 1613 032c 2846     		mov	r0, r5
 1614 032e FFF7FEFF 		bl	VL53L8CX_WrMulti
 1615 0332 0443     		orrs	r4, r4, r0
 1616 0334 E4B2     		uxtb	r4, r4
 1617 0336 0A22     		movs	r2, #10
 1618 0338 47F6FF71 		movw	r1, #32767
 1619 033c 2846     		mov	r0, r5
 1620 033e FFF7FEFF 		bl	VL53L8CX_WrByte
 1621 0342 0443     		orrs	r4, r4, r0
 1622 0344 E4B2     		uxtb	r4, r4
 1623 0346 4FF40043 		mov	r3, #32768
 1624 034a F218     		adds	r2, r6, r3
 1625 034c 3946     		mov	r1, r7
 1626 034e 2846     		mov	r0, r5
 1627 0350 FFF7FEFF 		bl	VL53L8CX_WrMulti
 1628 0354 0443     		orrs	r4, r4, r0
 1629 0356 E4B2     		uxtb	r4, r4
 1630 0358 0B22     		movs	r2, #11
 1631 035a 47F6FF71 		movw	r1, #32767
 1632 035e 2846     		mov	r0, r5
 1633 0360 FFF7FEFF 		bl	VL53L8CX_WrByte
 1634 0364 0443     		orrs	r4, r4, r0
 1635 0366 E4B2     		uxtb	r4, r4
ARM GAS  C:\Temp\ccVQrAGa.s 			page 29


 1636 0368 4FF4A043 		mov	r3, #20480
 1637 036c 06F58032 		add	r2, r6, #65536
 1638 0370 3946     		mov	r1, r7
 1639 0372 2846     		mov	r0, r5
 1640 0374 FFF7FEFF 		bl	VL53L8CX_WrMulti
 1641 0378 0443     		orrs	r4, r4, r0
 1642 037a E4B2     		uxtb	r4, r4
 1643 037c 0122     		movs	r2, #1
 1644 037e 47F6FF71 		movw	r1, #32767
 1645 0382 2846     		mov	r0, r5
 1646 0384 FFF7FEFF 		bl	VL53L8CX_WrByte
 1647 0388 0443     		orrs	r4, r4, r0
 1648 038a E4B2     		uxtb	r4, r4
 1649 038c 0122     		movs	r2, #1
 1650 038e 47F6FF71 		movw	r1, #32767
 1651 0392 2846     		mov	r0, r5
 1652 0394 FFF7FEFF 		bl	VL53L8CX_WrByte
 1653 0398 0443     		orrs	r4, r4, r0
 1654 039a E4B2     		uxtb	r4, r4
 1655 039c 0322     		movs	r2, #3
 1656 039e 0621     		movs	r1, #6
 1657 03a0 2846     		mov	r0, r5
 1658 03a2 FFF7FEFF 		bl	VL53L8CX_WrByte
 1659 03a6 0443     		orrs	r4, r4, r0
 1660 03a8 E4B2     		uxtb	r4, r4
 1661 03aa 0521     		movs	r1, #5
 1662 03ac 2846     		mov	r0, r5
 1663 03ae FFF7FEFF 		bl	VL53L8CX_WaitMs
 1664 03b2 0443     		orrs	r4, r4, r0
 1665 03b4 E4B2     		uxtb	r4, r4
 1666 03b6 3A46     		mov	r2, r7
 1667 03b8 47F6FF71 		movw	r1, #32767
 1668 03bc 2846     		mov	r0, r5
 1669 03be FFF7FEFF 		bl	VL53L8CX_WrByte
 1670 03c2 0443     		orrs	r4, r4, r0
 1671 03c4 E4B2     		uxtb	r4, r4
 1672 03c6 0DF11702 		add	r2, sp, #23
 1673 03ca 47F6FF71 		movw	r1, #32767
 1674 03ce 2846     		mov	r0, r5
 1675 03d0 FFF7FEFF 		bl	VL53L8CX_RdByte
 1676 03d4 0443     		orrs	r4, r4, r0
 1677 03d6 E4B2     		uxtb	r4, r4
 1678 03d8 0122     		movs	r2, #1
 1679 03da 0C21     		movs	r1, #12
 1680 03dc 2846     		mov	r0, r5
 1681 03de FFF7FEFF 		bl	VL53L8CX_WrByte
 1682 03e2 0443     		orrs	r4, r4, r0
 1683 03e4 E4B2     		uxtb	r4, r4
 1684 03e6 3A46     		mov	r2, r7
 1685 03e8 47F6FF71 		movw	r1, #32767
 1686 03ec 2846     		mov	r0, r5
 1687 03ee FFF7FEFF 		bl	VL53L8CX_WrByte
 1688 03f2 0443     		orrs	r4, r4, r0
 1689 03f4 E4B2     		uxtb	r4, r4
 1690 03f6 3A46     		mov	r2, r7
 1691 03f8 4FF48A71 		mov	r1, #276
 1692 03fc 2846     		mov	r0, r5
ARM GAS  C:\Temp\ccVQrAGa.s 			page 30


 1693 03fe FFF7FEFF 		bl	VL53L8CX_WrByte
 1694 0402 0443     		orrs	r4, r4, r0
 1695 0404 E4B2     		uxtb	r4, r4
 1696 0406 3A46     		mov	r2, r7
 1697 0408 40F21511 		movw	r1, #277
 1698 040c 2846     		mov	r0, r5
 1699 040e FFF7FEFF 		bl	VL53L8CX_WrByte
 1700 0412 0443     		orrs	r4, r4, r0
 1701 0414 E4B2     		uxtb	r4, r4
 1702 0416 4222     		movs	r2, #66
 1703 0418 4FF48B71 		mov	r1, #278
 1704 041c 2846     		mov	r0, r5
 1705 041e FFF7FEFF 		bl	VL53L8CX_WrByte
 1706 0422 0443     		orrs	r4, r4, r0
 1707 0424 E4B2     		uxtb	r4, r4
 1708 0426 3A46     		mov	r2, r7
 1709 0428 40F21711 		movw	r1, #279
 1710 042c 2846     		mov	r0, r5
 1711 042e FFF7FEFF 		bl	VL53L8CX_WrByte
 1712 0432 0443     		orrs	r4, r4, r0
 1713 0434 E4B2     		uxtb	r4, r4
 1714 0436 3A46     		mov	r2, r7
 1715 0438 0B21     		movs	r1, #11
 1716 043a 2846     		mov	r0, r5
 1717 043c FFF7FEFF 		bl	VL53L8CX_WrByte
 1718 0440 0443     		orrs	r4, r4, r0
 1719 0442 E4B2     		uxtb	r4, r4
 1720 0444 0DF11702 		add	r2, sp, #23
 1721 0448 47F6FF71 		movw	r1, #32767
 1722 044c 2846     		mov	r0, r5
 1723 044e FFF7FEFF 		bl	VL53L8CX_RdByte
 1724 0452 0443     		orrs	r4, r4, r0
 1725 0454 E4B2     		uxtb	r4, r4
 1726 0456 3A46     		mov	r2, r7
 1727 0458 0C21     		movs	r1, #12
 1728 045a 2846     		mov	r0, r5
 1729 045c FFF7FEFF 		bl	VL53L8CX_WrByte
 1730 0460 0443     		orrs	r4, r4, r0
 1731 0462 E4B2     		uxtb	r4, r4
 1732 0464 0122     		movs	r2, #1
 1733 0466 0B21     		movs	r1, #11
 1734 0468 2846     		mov	r0, r5
 1735 046a FFF7FEFF 		bl	VL53L8CX_WrByte
 1736 046e 0443     		orrs	r4, r4, r0
 1737 0470 E4B2     		uxtb	r4, r4
 1738 0472 2846     		mov	r0, r5
 1739 0474 FFF7FEFF 		bl	_vl53l8cx_poll_for_mcu_boot
 1740 0478 0443     		orrs	r4, r4, r0
 1741 047a 14F0FF04 		ands	r4, r4, #255
 1742 047e 7FF46EAE 		bne	.L135
 1743 0482 0222     		movs	r2, #2
 1744 0484 47F6FF71 		movw	r1, #32767
 1745 0488 2846     		mov	r0, r5
 1746 048a FFF7FEFF 		bl	VL53L8CX_WrByte
 1747 048e 0443     		orrs	r4, r4, r0
 1748 0490 E4B2     		uxtb	r4, r4
 1749 0492 05F5A266 		add	r6, r5, #1296
ARM GAS  C:\Temp\ccVQrAGa.s 			page 31


 1750 0496 0423     		movs	r3, #4
 1751 0498 3246     		mov	r2, r6
 1752 049a 42F6FC71 		movw	r1, #12284
 1753 049e 2846     		mov	r0, r5
 1754 04a0 FFF7FEFF 		bl	VL53L8CX_RdMulti
 1755 04a4 0443     		orrs	r4, r4, r0
 1756 04a6 E4B2     		uxtb	r4, r4
 1757 04a8 0421     		movs	r1, #4
 1758 04aa 3046     		mov	r0, r6
 1759 04ac FFF7FEFF 		bl	VL53L8CX_SwapBuffer
 1760 04b0 D5F81025 		ldr	r2, [r5, #1296]	@ unaligned
 1761 04b4 354B     		ldr	r3, .L141+4
 1762 04b6 9A42     		cmp	r2, r3
 1763 04b8 02D0     		beq	.L136
 1764 04ba 44F00504 		orr	r4, r4, #5
 1765 04be 4EE6     		b	.L135
 1766              	.L136:
 1767 04c0 2823     		movs	r3, #40
 1768 04c2 334A     		ldr	r2, .L141+8
 1769 04c4 42F6D871 		movw	r1, #12248
 1770 04c8 2846     		mov	r0, r5
 1771 04ca FFF7FEFF 		bl	VL53L8CX_WrMulti
 1772 04ce 0443     		orrs	r4, r4, r0
 1773 04d0 E4B2     		uxtb	r4, r4
 1774 04d2 0223     		movs	r3, #2
 1775 04d4 0193     		str	r3, [sp, #4]
 1776 04d6 FF27     		movs	r7, #255
 1777 04d8 0097     		str	r7, [sp]
 1778 04da 4FF43053 		mov	r3, #11264
 1779 04de 0022     		movs	r2, #0
 1780 04e0 0421     		movs	r1, #4
 1781 04e2 2846     		mov	r0, r5
 1782 04e4 FFF7FEFF 		bl	_vl53l8cx_poll_for_answer
 1783 04e8 0443     		orrs	r4, r4, r0
 1784 04ea E4B2     		uxtb	r4, r4
 1785 04ec 4FF4F673 		mov	r3, #492
 1786 04f0 3246     		mov	r2, r6
 1787 04f2 42F60441 		movw	r1, #11268
 1788 04f6 2846     		mov	r0, r5
 1789 04f8 FFF7FEFF 		bl	VL53L8CX_RdMulti
 1790 04fc 0443     		orrs	r4, r4, r0
 1791 04fe E4B2     		uxtb	r4, r4
 1792 0500 4FF4F472 		mov	r2, #488
 1793 0504 3146     		mov	r1, r6
 1794 0506 05F12000 		add	r0, r5, #32
 1795 050a FFF7FEFF 		bl	memcpy
 1796 050e 1021     		movs	r1, #16
 1797 0510 2846     		mov	r0, r5
 1798 0512 FFF7FEFF 		bl	_vl53l8cx_send_offset_data
 1799 0516 0443     		orrs	r4, r4, r0
 1800 0518 E4B2     		uxtb	r4, r4
 1801 051a 4FF44272 		mov	r2, #776
 1802 051e 1D49     		ldr	r1, .L141+12
 1803 0520 05F50270 		add	r0, r5, #520
 1804 0524 FFF7FEFF 		bl	memcpy
 1805 0528 1021     		movs	r1, #16
 1806 052a 2846     		mov	r0, r5
ARM GAS  C:\Temp\ccVQrAGa.s 			page 32


 1807 052c FFF7FEFF 		bl	_vl53l8cx_send_xtalk_data
 1808 0530 0443     		orrs	r4, r4, r0
 1809 0532 E4B2     		uxtb	r4, r4
 1810 0534 4FF47373 		mov	r3, #972
 1811 0538 AA69     		ldr	r2, [r5, #24]
 1812 053a 42F63441 		movw	r1, #11316
 1813 053e 2846     		mov	r0, r5
 1814 0540 FFF7FEFF 		bl	VL53L8CX_WrMulti
 1815 0544 0443     		orrs	r4, r4, r0
 1816 0546 E4B2     		uxtb	r4, r4
 1817 0548 0323     		movs	r3, #3
 1818 054a 0193     		str	r3, [sp, #4]
 1819 054c 0097     		str	r7, [sp]
 1820 054e 4FF43053 		mov	r3, #11264
 1821 0552 0122     		movs	r2, #1
 1822 0554 0421     		movs	r1, #4
 1823 0556 2846     		mov	r0, r5
 1824 0558 FFF7FEFF 		bl	_vl53l8cx_poll_for_answer
 1825 055c 0443     		orrs	r4, r4, r0
 1826 055e E4B2     		uxtb	r4, r4
 1827 0560 0423     		movs	r3, #4
 1828 0562 4DF68032 		movw	r2, #56192
 1829 0566 04A9     		add	r1, sp, #16
 1830 0568 2846     		mov	r0, r5
 1831 056a FFF7FEFF 		bl	vl53l8cx_dci_write_data
 1832 056e 0443     		orrs	r4, r4, r0
 1833 0570 E4B2     		uxtb	r4, r4
 1834 0572 0423     		movs	r3, #4
 1835 0574 4DF66412 		movw	r2, #55652
 1836 0578 03A9     		add	r1, sp, #12
 1837 057a 2846     		mov	r0, r5
 1838 057c FFF7FEFF 		bl	vl53l8cx_dci_write_data
 1839 0580 0443     		orrs	r4, r4, r0
 1840 0582 E4B2     		uxtb	r4, r4
 1841 0584 EBE5     		b	.L135
 1842              	.L142:
 1843 0586 00BF     		.align	2
 1844              	.L141:
 1845 0588 00000000 		.word	VL53L8CX_FIRMWARE
 1846 058c 9E6C0B0C 		.word	202075294
 1847 0590 00000000 		.word	VL53L8CX_GET_NVM_CMD
 1848 0594 24000000 		.word	.LANCHOR0+36
 1850              		.section	.text.vl53l8cx_set_power_mode,"ax",%progbits
 1851              		.align	1
 1852              		.global	vl53l8cx_set_power_mode
 1853              		.syntax unified
 1854              		.thumb
 1855              		.thumb_func
 1857              	vl53l8cx_set_power_mode:
 1858              		@ args = 0, pretend = 0, frame = 8
 1859              		@ frame_needed = 0, uses_anonymous_args = 0
 1860 0000 70B5     		push	{r4, r5, r6, lr}
 1861 0002 84B0     		sub	sp, sp, #16
 1862 0004 0546     		mov	r5, r0
 1863 0006 0E46     		mov	r6, r1
 1864 0008 0DF10F01 		add	r1, sp, #15
 1865 000c FFF7FEFF 		bl	vl53l8cx_get_power_mode
ARM GAS  C:\Temp\ccVQrAGa.s 			page 33


 1866 0010 0446     		mov	r4, r0
 1867 0012 9DF80F30 		ldrb	r3, [sp, #15]	@ zero_extendqisi2
 1868 0016 B342     		cmp	r3, r6
 1869 0018 0ED0     		beq	.L144
 1870 001a 012E     		cmp	r6, #1
 1871 001c 0FD0     		beq	.L145
 1872 001e 022E     		cmp	r6, #2
 1873 0020 5ED0     		beq	.L146
 1874 0022 002E     		cmp	r6, #0
 1875 0024 42D0     		beq	.L147
 1876 0026 FF24     		movs	r4, #255
 1877              	.L148:
 1878 0028 0222     		movs	r2, #2
 1879 002a 47F6FF71 		movw	r1, #32767
 1880 002e 2846     		mov	r0, r5
 1881 0030 FFF7FEFF 		bl	VL53L8CX_WrByte
 1882 0034 0443     		orrs	r4, r4, r0
 1883 0036 E4B2     		uxtb	r4, r4
 1884              	.L144:
 1885 0038 2046     		mov	r0, r4
 1886 003a 04B0     		add	sp, sp, #16
 1887              		@ sp needed
 1888 003c 70BD     		pop	{r4, r5, r6, pc}
 1889              	.L145:
 1890 003e 0022     		movs	r2, #0
 1891 0040 47F6FF71 		movw	r1, #32767
 1892 0044 2846     		mov	r0, r5
 1893 0046 FFF7FEFF 		bl	VL53L8CX_WrByte
 1894 004a 0443     		orrs	r4, r4, r0
 1895 004c E4B2     		uxtb	r4, r4
 1896 004e 0422     		movs	r2, #4
 1897 0050 0921     		movs	r1, #9
 1898 0052 2846     		mov	r0, r5
 1899 0054 FFF7FEFF 		bl	VL53L8CX_WrByte
 1900 0058 0443     		orrs	r4, r4, r0
 1901 005a E4B2     		uxtb	r4, r4
 1902 005c 0DF10E02 		add	r2, sp, #14
 1903 0060 0F21     		movs	r1, #15
 1904 0062 2846     		mov	r0, r5
 1905 0064 FFF7FEFF 		bl	VL53L8CX_RdByte
 1906 0068 0443     		orrs	r4, r4, r0
 1907 006a E4B2     		uxtb	r4, r4
 1908 006c 9DF80E30 		ldrb	r3, [sp, #14]	@ zero_extendqisi2
 1909 0070 432B     		cmp	r3, #67
 1910 0072 13D0     		beq	.L151
 1911              	.L149:
 1912 0074 0121     		movs	r1, #1
 1913 0076 0191     		str	r1, [sp, #4]
 1914 0078 0091     		str	r1, [sp]
 1915 007a 0623     		movs	r3, #6
 1916 007c 0022     		movs	r2, #0
 1917 007e 2846     		mov	r0, r5
 1918 0080 FFF7FEFF 		bl	_vl53l8cx_poll_for_answer
 1919 0084 0443     		orrs	r4, r4, r0
 1920 0086 E4B2     		uxtb	r4, r4
 1921 0088 9DF80E30 		ldrb	r3, [sp, #14]	@ zero_extendqisi2
 1922 008c 432B     		cmp	r3, #67
ARM GAS  C:\Temp\ccVQrAGa.s 			page 34


 1923 008e CBD1     		bne	.L148
 1924 0090 2846     		mov	r0, r5
 1925 0092 FFF7FEFF 		bl	vl53l8cx_init
 1926 0096 0443     		orrs	r4, r4, r0
 1927 0098 E4B2     		uxtb	r4, r4
 1928 009a C5E7     		b	.L148
 1929              	.L151:
 1930 009c 4022     		movs	r2, #64
 1931 009e 0F21     		movs	r1, #15
 1932 00a0 2846     		mov	r0, r5
 1933 00a2 FFF7FEFF 		bl	VL53L8CX_WrByte
 1934 00a6 0443     		orrs	r4, r4, r0
 1935 00a8 E4B2     		uxtb	r4, r4
 1936 00aa E3E7     		b	.L149
 1937              	.L147:
 1938 00ac 0022     		movs	r2, #0
 1939 00ae 47F6FF71 		movw	r1, #32767
 1940 00b2 2846     		mov	r0, r5
 1941 00b4 FFF7FEFF 		bl	VL53L8CX_WrByte
 1942 00b8 0443     		orrs	r4, r4, r0
 1943 00ba E4B2     		uxtb	r4, r4
 1944 00bc 0222     		movs	r2, #2
 1945 00be 0921     		movs	r1, #9
 1946 00c0 2846     		mov	r0, r5
 1947 00c2 FFF7FEFF 		bl	VL53L8CX_WrByte
 1948 00c6 0443     		orrs	r4, r4, r0
 1949 00c8 E4B2     		uxtb	r4, r4
 1950 00ca 0022     		movs	r2, #0
 1951 00cc 0192     		str	r2, [sp, #4]
 1952 00ce 0121     		movs	r1, #1
 1953 00d0 0091     		str	r1, [sp]
 1954 00d2 0623     		movs	r3, #6
 1955 00d4 2846     		mov	r0, r5
 1956 00d6 FFF7FEFF 		bl	_vl53l8cx_poll_for_answer
 1957 00da 0443     		orrs	r4, r4, r0
 1958 00dc E4B2     		uxtb	r4, r4
 1959 00de A3E7     		b	.L148
 1960              	.L146:
 1961 00e0 0022     		movs	r2, #0
 1962 00e2 47F6FF71 		movw	r1, #32767
 1963 00e6 2846     		mov	r0, r5
 1964 00e8 FFF7FEFF 		bl	VL53L8CX_WrByte
 1965 00ec 0443     		orrs	r4, r4, r0
 1966 00ee E4B2     		uxtb	r4, r4
 1967 00f0 0222     		movs	r2, #2
 1968 00f2 0921     		movs	r1, #9
 1969 00f4 2846     		mov	r0, r5
 1970 00f6 FFF7FEFF 		bl	VL53L8CX_WrByte
 1971 00fa 0443     		orrs	r4, r4, r0
 1972 00fc E4B2     		uxtb	r4, r4
 1973 00fe 0022     		movs	r2, #0
 1974 0100 0192     		str	r2, [sp, #4]
 1975 0102 0121     		movs	r1, #1
 1976 0104 0091     		str	r1, [sp]
 1977 0106 0623     		movs	r3, #6
 1978 0108 2846     		mov	r0, r5
 1979 010a FFF7FEFF 		bl	_vl53l8cx_poll_for_answer
ARM GAS  C:\Temp\ccVQrAGa.s 			page 35


 1980 010e 0443     		orrs	r4, r4, r0
 1981 0110 E4B2     		uxtb	r4, r4
 1982 0112 4322     		movs	r2, #67
 1983 0114 0F21     		movs	r1, #15
 1984 0116 2846     		mov	r0, r5
 1985 0118 FFF7FEFF 		bl	VL53L8CX_WrByte
 1986 011c 0443     		orrs	r4, r4, r0
 1987 011e E4B2     		uxtb	r4, r4
 1988 0120 82E7     		b	.L148
 1990              		.section	.text.vl53l8cx_start_ranging,"ax",%progbits
 1991              		.align	1
 1992              		.global	vl53l8cx_start_ranging
 1993              		.syntax unified
 1994              		.thumb
 1995              		.thumb_func
 1997              	vl53l8cx_start_ranging:
 1998              		@ args = 0, pretend = 0, frame = 80
 1999              		@ frame_needed = 0, uses_anonymous_args = 0
 2000 0000 F0B5     		push	{r4, r5, r6, r7, lr}
 2001 0002 97B0     		sub	sp, sp, #92
 2002 0004 0546     		mov	r5, r0
 2003 0006 0024     		movs	r4, #0
 2004 0008 1394     		str	r4, [sp, #76]
 2005 000a 1494     		str	r4, [sp, #80]
 2006 000c 4FF44073 		mov	r3, #768
 2007 0010 1293     		str	r3, [sp, #72]
 2008 0012 0DF15701 		add	r1, sp, #87
 2009 0016 FFF7FEFF 		bl	vl53l8cx_get_resolution
 2010 001a 0646     		mov	r6, r0
 2011 001c 6C61     		str	r4, [r5, #20]
 2012 001e FF23     		movs	r3, #255
 2013 0020 2B74     		strb	r3, [r5, #16]
 2014 0022 6D4F     		ldr	r7, .L165
 2015 0024 0DF1380C 		add	ip, sp, #56
 2016 0028 07F54B73 		add	r3, r7, #812
 2017 002c 0FCB     		ldm	r3, {r0, r1, r2, r3}
 2018 002e 8CE80F00 		stm	ip, {r0, r1, r2, r3}
 2019 0032 0DF1080E 		add	lr, sp, #8
 2020 0036 07F54F7C 		add	ip, r7, #828
 2021 003a BCE80F00 		ldmia	ip!, {r0, r1, r2, r3}
 2022 003e AEE80F00 		stmia	lr!, {r0, r1, r2, r3}
 2023 0042 BCE80F00 		ldmia	ip!, {r0, r1, r2, r3}
 2024 0046 AEE80F00 		stmia	lr!, {r0, r1, r2, r3}
 2025 004a 9CE80F00 		ldm	ip, {r0, r1, r2, r3}
 2026 004e 8EE80F00 		stm	lr, {r0, r1, r2, r3}
 2027 0052 2723     		movs	r3, #39
 2028 0054 0E93     		str	r3, [sp, #56]
 2029 0056 40F22713 		movw	r3, #295
 2030 005a 0E93     		str	r3, [sp, #56]
 2031 005c 40F22753 		movw	r3, #1319
 2032 0060 0E93     		str	r3, [sp, #56]
 2033 0062 10E0     		b	.L153
 2034              	.L156:
 2035 0064 9DF85770 		ldrb	r7, [sp, #87]	@ zero_extendqisi2
 2036 0068 585A     		ldrh	r0, [r3, r1]
 2037 006a 67F30F10 		bfi	r0, r7, #4, #12
 2038 006e 5852     		strh	r0, [r3, r1]	@ movhi
ARM GAS  C:\Temp\ccVQrAGa.s 			page 36


 2039 0070 39E0     		b	.L157
 2040              	.L155:
 2041 0072 6A69     		ldr	r2, [r5, #20]
 2042 0074 5B5A     		ldrh	r3, [r3, r1]
 2043 0076 C3F30B13 		ubfx	r3, r3, #4, #12
 2044 007a 1A44     		add	r2, r2, r3
 2045 007c 6A61     		str	r2, [r5, #20]
 2046              	.L158:
 2047 007e 6B69     		ldr	r3, [r5, #20]
 2048 0080 0433     		adds	r3, r3, #4
 2049 0082 6B61     		str	r3, [r5, #20]
 2050              	.L154:
 2051 0084 0134     		adds	r4, r4, #1
 2052              	.L153:
 2053 0086 0B2C     		cmp	r4, #11
 2054 0088 35D8     		bhi	.L164
 2055 008a 16AB     		add	r3, sp, #88
 2056 008c 03EB8403 		add	r3, r3, r4, lsl #2
 2057 0090 53F8503C 		ldr	r3, [r3, #-80]
 2058 0094 002B     		cmp	r3, #0
 2059 0096 F5D0     		beq	.L154
 2060 0098 6309     		lsrs	r3, r4, #5
 2061 009a 16AA     		add	r2, sp, #88
 2062 009c 02EB8303 		add	r3, r2, r3, lsl #2
 2063 00a0 53F8203C 		ldr	r3, [r3, #-32]
 2064 00a4 04F01F02 		and	r2, r4, #31
 2065 00a8 D340     		lsrs	r3, r3, r2
 2066 00aa 13F0010F 		tst	r3, #1
 2067 00ae E9D0     		beq	.L154
 2068 00b0 02AB     		add	r3, sp, #8
 2069 00b2 A100     		lsls	r1, r4, #2
 2070 00b4 03EB8400 		add	r0, r3, r4, lsl #2
 2071 00b8 13F82420 		ldrb	r2, [r3, r4, lsl #2]	@ zero_extendqisi2
 2072 00bc 12F00F0F 		tst	r2, #15
 2073 00c0 D7D0     		beq	.L155
 2074 00c2 02F00F02 		and	r2, r2, #15
 2075 00c6 0C2A     		cmp	r2, #12
 2076 00c8 D3D8     		bhi	.L155
 2077 00ca 4088     		ldrh	r0, [r0, #2]
 2078 00cc A0F5A940 		sub	r0, r0, #21632
 2079 00d0 5038     		subs	r0, r0, #80
 2080 00d2 80B2     		uxth	r0, r0
 2081 00d4 B0F5707F 		cmp	r0, #960
 2082 00d8 C4D2     		bcs	.L156
 2083 00da 9DF85770 		ldrb	r7, [sp, #87]	@ zero_extendqisi2
 2084 00de 585A     		ldrh	r0, [r3, r1]
 2085 00e0 67F30F10 		bfi	r0, r7, #4, #12
 2086 00e4 5852     		strh	r0, [r3, r1]	@ movhi
 2087              	.L157:
 2088 00e6 6869     		ldr	r0, [r5, #20]
 2089 00e8 5B5A     		ldrh	r3, [r3, r1]
 2090 00ea C3F30B13 		ubfx	r3, r3, #4, #12
 2091 00ee 03FB0200 		mla	r0, r3, r2, r0
 2092 00f2 6861     		str	r0, [r5, #20]
 2093 00f4 C3E7     		b	.L158
 2094              	.L164:
 2095 00f6 6B69     		ldr	r3, [r5, #20]
ARM GAS  C:\Temp\ccVQrAGa.s 			page 37


 2096 00f8 1833     		adds	r3, r3, #24
 2097 00fa 6B61     		str	r3, [r5, #20]
 2098 00fc 3023     		movs	r3, #48
 2099 00fe 4DF68012 		movw	r2, #55680
 2100 0102 02A9     		add	r1, sp, #8
 2101 0104 2846     		mov	r0, r5
 2102 0106 FFF7FEFF 		bl	vl53l8cx_dci_write_data
 2103 010a 0643     		orrs	r6, r6, r0
 2104 010c F6B2     		uxtb	r6, r6
 2105 010e 6B69     		ldr	r3, [r5, #20]
 2106 0110 1393     		str	r3, [sp, #76]
 2107 0112 0134     		adds	r4, r4, #1
 2108 0114 1494     		str	r4, [sp, #80]
 2109 0116 0823     		movs	r3, #8
 2110 0118 4DF66812 		movw	r2, #55656
 2111 011c 13A9     		add	r1, sp, #76
 2112 011e 2846     		mov	r0, r5
 2113 0120 FFF7FEFF 		bl	vl53l8cx_dci_write_data
 2114 0124 46EA0004 		orr	r4, r6, r0
 2115 0128 E4B2     		uxtb	r4, r4
 2116 012a 1023     		movs	r3, #16
 2117 012c 4DF67012 		movw	r2, #55664
 2118 0130 0EA9     		add	r1, sp, #56
 2119 0132 2846     		mov	r0, r5
 2120 0134 FFF7FEFF 		bl	vl53l8cx_dci_write_data
 2121 0138 0443     		orrs	r4, r4, r0
 2122 013a E4B2     		uxtb	r4, r4
 2123 013c 0022     		movs	r2, #0
 2124 013e 47F6FF71 		movw	r1, #32767
 2125 0142 2846     		mov	r0, r5
 2126 0144 FFF7FEFF 		bl	VL53L8CX_WrByte
 2127 0148 0443     		orrs	r4, r4, r0
 2128 014a E4B2     		uxtb	r4, r4
 2129 014c 0522     		movs	r2, #5
 2130 014e 0921     		movs	r1, #9
 2131 0150 2846     		mov	r0, r5
 2132 0152 FFF7FEFF 		bl	VL53L8CX_WrByte
 2133 0156 0443     		orrs	r4, r4, r0
 2134 0158 E4B2     		uxtb	r4, r4
 2135 015a 0222     		movs	r2, #2
 2136 015c 47F6FF71 		movw	r1, #32767
 2137 0160 2846     		mov	r0, r5
 2138 0162 FFF7FEFF 		bl	VL53L8CX_WrByte
 2139 0166 0443     		orrs	r4, r4, r0
 2140 0168 E4B2     		uxtb	r4, r4
 2141 016a 0423     		movs	r3, #4
 2142 016c 12AA     		add	r2, sp, #72
 2143 016e 42F6FC71 		movw	r1, #12284
 2144 0172 2846     		mov	r0, r5
 2145 0174 FFF7FEFF 		bl	VL53L8CX_WrMulti
 2146 0178 0443     		orrs	r4, r4, r0
 2147 017a E4B2     		uxtb	r4, r4
 2148 017c 0323     		movs	r3, #3
 2149 017e 0193     		str	r3, [sp, #4]
 2150 0180 FF23     		movs	r3, #255
 2151 0182 0093     		str	r3, [sp]
 2152 0184 4FF43053 		mov	r3, #11264
ARM GAS  C:\Temp\ccVQrAGa.s 			page 38


 2153 0188 0122     		movs	r2, #1
 2154 018a 0421     		movs	r1, #4
 2155 018c 2846     		mov	r0, r5
 2156 018e FFF7FEFF 		bl	_vl53l8cx_poll_for_answer
 2157 0192 0443     		orrs	r4, r4, r0
 2158 0194 E4B2     		uxtb	r4, r4
 2159 0196 05F5A266 		add	r6, r5, #1296
 2160 019a 0C23     		movs	r3, #12
 2161 019c 45F24042 		movw	r2, #21568
 2162 01a0 3146     		mov	r1, r6
 2163 01a2 2846     		mov	r0, r5
 2164 01a4 FFF7FEFF 		bl	vl53l8cx_dci_read_data
 2165 01a8 0443     		orrs	r4, r4, r0
 2166 01aa E4B2     		uxtb	r4, r4
 2167 01ac B5F81825 		ldrh	r2, [r5, #1304]	@ unaligned
 2168 01b0 6B69     		ldr	r3, [r5, #20]
 2169 01b2 9A42     		cmp	r2, r3
 2170 01b4 00D0     		beq	.L160
 2171 01b6 FF24     		movs	r4, #255
 2172              	.L160:
 2173 01b8 0823     		movs	r3, #8
 2174 01ba 4EF2C402 		movw	r2, #57540
 2175 01be 3146     		mov	r1, r6
 2176 01c0 2846     		mov	r0, r5
 2177 01c2 FFF7FEFF 		bl	vl53l8cx_dci_read_data
 2178 01c6 2043     		orrs	r0, r0, r4
 2179 01c8 C0B2     		uxtb	r0, r0
 2180 01ca 95F81635 		ldrb	r3, [r5, #1302]	@ zero_extendqisi2
 2181 01ce 0BB1     		cbz	r3, .L161
 2182 01d0 40F00300 		orr	r0, r0, #3
 2183              	.L161:
 2184 01d4 17B0     		add	sp, sp, #92
 2185              		@ sp needed
 2186 01d6 F0BD     		pop	{r4, r5, r6, r7, pc}
 2187              	.L166:
 2188              		.align	2
 2189              	.L165:
 2190 01d8 00000000 		.word	.LANCHOR0
 2192              		.section	.text.vl53l8cx_set_resolution,"ax",%progbits
 2193              		.align	1
 2194              		.global	vl53l8cx_set_resolution
 2195              		.syntax unified
 2196              		.thumb
 2197              		.thumb_func
 2199              	vl53l8cx_set_resolution:
 2200              		@ args = 0, pretend = 0, frame = 0
 2201              		@ frame_needed = 0, uses_anonymous_args = 0
 2202 0000 2DE9F041 		push	{r4, r5, r6, r7, r8, lr}
 2203 0004 0546     		mov	r5, r0
 2204 0006 0E46     		mov	r6, r1
 2205 0008 1029     		cmp	r1, #16
 2206 000a 10D0     		beq	.L168
 2207 000c 4029     		cmp	r1, #64
 2208 000e 44D0     		beq	.L169
 2209 0010 7F24     		movs	r4, #127
 2210              	.L170:
 2211 0012 3146     		mov	r1, r6
ARM GAS  C:\Temp\ccVQrAGa.s 			page 39


 2212 0014 2846     		mov	r0, r5
 2213 0016 FFF7FEFF 		bl	_vl53l8cx_send_offset_data
 2214 001a 0443     		orrs	r4, r4, r0
 2215 001c E4B2     		uxtb	r4, r4
 2216 001e 3146     		mov	r1, r6
 2217 0020 2846     		mov	r0, r5
 2218 0022 FFF7FEFF 		bl	_vl53l8cx_send_xtalk_data
 2219 0026 2043     		orrs	r0, r0, r4
 2220 0028 C0B2     		uxtb	r0, r0
 2221 002a BDE8F081 		pop	{r4, r5, r6, r7, r8, pc}
 2222              	.L168:
 2223 002e 00F5A267 		add	r7, r0, #1296
 2224 0032 1023     		movs	r3, #16
 2225 0034 4AF63852 		movw	r2, #44344
 2226 0038 3946     		mov	r1, r7
 2227 003a FFF7FEFF 		bl	vl53l8cx_dci_read_data
 2228 003e 0446     		mov	r4, r0
 2229 0040 4023     		movs	r3, #64
 2230 0042 85F81435 		strb	r3, [r5, #1300]
 2231 0046 85F81635 		strb	r3, [r5, #1302]
 2232 004a 4FF00408 		mov	r8, #4
 2233 004e 85F81985 		strb	r8, [r5, #1305]
 2234 0052 1023     		movs	r3, #16
 2235 0054 4AF63852 		movw	r2, #44344
 2236 0058 3946     		mov	r1, r7
 2237 005a 2846     		mov	r0, r5
 2238 005c FFF7FEFF 		bl	vl53l8cx_dci_write_data
 2239 0060 0443     		orrs	r4, r4, r0
 2240 0062 E4B2     		uxtb	r4, r4
 2241 0064 0823     		movs	r3, #8
 2242 0066 45F25042 		movw	r2, #21584
 2243 006a 3946     		mov	r1, r7
 2244 006c 2846     		mov	r0, r5
 2245 006e FFF7FEFF 		bl	vl53l8cx_dci_read_data
 2246 0072 0443     		orrs	r4, r4, r0
 2247 0074 E4B2     		uxtb	r4, r4
 2248 0076 85F81085 		strb	r8, [r5, #1296]
 2249 007a 85F81185 		strb	r8, [r5, #1297]
 2250 007e 0823     		movs	r3, #8
 2251 0080 85F81435 		strb	r3, [r5, #1300]
 2252 0084 85F81535 		strb	r3, [r5, #1301]
 2253 0088 45F25042 		movw	r2, #21584
 2254 008c 3946     		mov	r1, r7
 2255 008e 2846     		mov	r0, r5
 2256 0090 FFF7FEFF 		bl	vl53l8cx_dci_write_data
 2257 0094 0443     		orrs	r4, r4, r0
 2258 0096 E4B2     		uxtb	r4, r4
 2259 0098 BBE7     		b	.L170
 2260              	.L169:
 2261 009a 00F5A267 		add	r7, r0, #1296
 2262 009e 1023     		movs	r3, #16
 2263 00a0 4AF63852 		movw	r2, #44344
 2264 00a4 3946     		mov	r1, r7
 2265 00a6 FFF7FEFF 		bl	vl53l8cx_dci_read_data
 2266 00aa 0446     		mov	r4, r0
 2267 00ac 1023     		movs	r3, #16
 2268 00ae 85F81435 		strb	r3, [r5, #1300]
ARM GAS  C:\Temp\ccVQrAGa.s 			page 40


 2269 00b2 85F81635 		strb	r3, [r5, #1302]
 2270 00b6 0122     		movs	r2, #1
 2271 00b8 85F81925 		strb	r2, [r5, #1305]
 2272 00bc 4AF63852 		movw	r2, #44344
 2273 00c0 3946     		mov	r1, r7
 2274 00c2 2846     		mov	r0, r5
 2275 00c4 FFF7FEFF 		bl	vl53l8cx_dci_write_data
 2276 00c8 0443     		orrs	r4, r4, r0
 2277 00ca E4B2     		uxtb	r4, r4
 2278 00cc 0823     		movs	r3, #8
 2279 00ce 45F25042 		movw	r2, #21584
 2280 00d2 3946     		mov	r1, r7
 2281 00d4 2846     		mov	r0, r5
 2282 00d6 FFF7FEFF 		bl	vl53l8cx_dci_read_data
 2283 00da 0443     		orrs	r4, r4, r0
 2284 00dc E4B2     		uxtb	r4, r4
 2285 00de 0823     		movs	r3, #8
 2286 00e0 85F81035 		strb	r3, [r5, #1296]
 2287 00e4 85F81135 		strb	r3, [r5, #1297]
 2288 00e8 0422     		movs	r2, #4
 2289 00ea 85F81425 		strb	r2, [r5, #1300]
 2290 00ee 85F81525 		strb	r2, [r5, #1301]
 2291 00f2 45F25042 		movw	r2, #21584
 2292 00f6 3946     		mov	r1, r7
 2293 00f8 2846     		mov	r0, r5
 2294 00fa FFF7FEFF 		bl	vl53l8cx_dci_write_data
 2295 00fe 0443     		orrs	r4, r4, r0
 2296 0100 E4B2     		uxtb	r4, r4
 2297 0102 86E7     		b	.L170
 2299              		.section	.text.vl53l8cx_set_ranging_mode,"ax",%progbits
 2300              		.align	1
 2301              		.global	vl53l8cx_set_ranging_mode
 2302              		.syntax unified
 2303              		.thumb
 2304              		.thumb_func
 2306              	vl53l8cx_set_ranging_mode:
 2307              		@ args = 0, pretend = 0, frame = 8
 2308              		@ frame_needed = 0, uses_anonymous_args = 0
 2309 0000 F0B5     		push	{r4, r5, r6, r7, lr}
 2310 0002 83B0     		sub	sp, sp, #12
 2311 0004 0646     		mov	r6, r0
 2312 0006 0D46     		mov	r5, r1
 2313 0008 0023     		movs	r3, #0
 2314 000a 0193     		str	r3, [sp, #4]
 2315 000c 00F5A267 		add	r7, r0, #1296
 2316 0010 0823     		movs	r3, #8
 2317 0012 4AF63052 		movw	r2, #44336
 2318 0016 3946     		mov	r1, r7
 2319 0018 FFF7FEFF 		bl	vl53l8cx_dci_read_data
 2320 001c 0446     		mov	r4, r0
 2321 001e 012D     		cmp	r5, #1
 2322 0020 17D0     		beq	.L173
 2323 0022 032D     		cmp	r5, #3
 2324 0024 1ED0     		beq	.L174
 2325 0026 7F24     		movs	r4, #127
 2326              	.L175:
 2327 0028 0823     		movs	r3, #8
ARM GAS  C:\Temp\ccVQrAGa.s 			page 41


 2328 002a 4AF63052 		movw	r2, #44336
 2329 002e 3946     		mov	r1, r7
 2330 0030 3046     		mov	r0, r6
 2331 0032 FFF7FEFF 		bl	vl53l8cx_dci_write_data
 2332 0036 0443     		orrs	r4, r4, r0
 2333 0038 E4B2     		uxtb	r4, r4
 2334 003a 0423     		movs	r3, #4
 2335 003c 4DF66412 		movw	r2, #55652
 2336 0040 0DEB0301 		add	r1, sp, r3
 2337 0044 3046     		mov	r0, r6
 2338 0046 FFF7FEFF 		bl	vl53l8cx_dci_write_data
 2339 004a 2043     		orrs	r0, r0, r4
 2340 004c C0B2     		uxtb	r0, r0
 2341 004e 03B0     		add	sp, sp, #12
 2342              		@ sp needed
 2343 0050 F0BD     		pop	{r4, r5, r6, r7, pc}
 2344              	.L173:
 2345 0052 0123     		movs	r3, #1
 2346 0054 86F81135 		strb	r3, [r6, #1297]
 2347 0058 0323     		movs	r3, #3
 2348 005a 86F81335 		strb	r3, [r6, #1299]
 2349 005e 0023     		movs	r3, #0
 2350 0060 0193     		str	r3, [sp, #4]
 2351 0062 E1E7     		b	.L175
 2352              	.L174:
 2353 0064 0323     		movs	r3, #3
 2354 0066 86F81135 		strb	r3, [r6, #1297]
 2355 006a 0223     		movs	r3, #2
 2356 006c 86F81335 		strb	r3, [r6, #1299]
 2357 0070 0123     		movs	r3, #1
 2358 0072 0193     		str	r3, [sp, #4]
 2359 0074 D8E7     		b	.L175
 2361              		.section	.text.vl53l8cx_set_external_sync_pin_enable,"ax",%progbits
 2362              		.align	1
 2363              		.global	vl53l8cx_set_external_sync_pin_enable
 2364              		.syntax unified
 2365              		.thumb
 2366              		.thumb_func
 2368              	vl53l8cx_set_external_sync_pin_enable:
 2369              		@ args = 0, pretend = 0, frame = 0
 2370              		@ frame_needed = 0, uses_anonymous_args = 0
 2371 0000 F8B5     		push	{r3, r4, r5, r6, r7, lr}
 2372 0002 0446     		mov	r4, r0
 2373 0004 0E46     		mov	r6, r1
 2374 0006 00F5A267 		add	r7, r0, #1296
 2375 000a 0423     		movs	r3, #4
 2376 000c 4BF2F052 		movw	r2, #46576
 2377 0010 3946     		mov	r1, r7
 2378 0012 FFF7FEFF 		bl	vl53l8cx_dci_read_data
 2379 0016 0546     		mov	r5, r0
 2380 0018 94F81335 		ldrb	r3, [r4, #1299]	@ zero_extendqisi2
 2381 001c 6EB9     		cbnz	r6, .L178
 2382 001e 23F00203 		bic	r3, r3, #2
 2383              	.L179:
 2384 0022 84F81335 		strb	r3, [r4, #1299]
 2385 0026 0423     		movs	r3, #4
 2386 0028 4BF2F052 		movw	r2, #46576
ARM GAS  C:\Temp\ccVQrAGa.s 			page 42


 2387 002c 3946     		mov	r1, r7
 2388 002e 2046     		mov	r0, r4
 2389 0030 FFF7FEFF 		bl	vl53l8cx_dci_write_data
 2390 0034 2843     		orrs	r0, r0, r5
 2391 0036 C0B2     		uxtb	r0, r0
 2392 0038 F8BD     		pop	{r3, r4, r5, r6, r7, pc}
 2393              	.L178:
 2394 003a 43F00203 		orr	r3, r3, #2
 2395 003e F0E7     		b	.L179
 2397              		.section	.text.vl53l8cx_dci_replace_data,"ax",%progbits
 2398              		.align	1
 2399              		.global	vl53l8cx_dci_replace_data
 2400              		.syntax unified
 2401              		.thumb
 2402              		.thumb_func
 2404              	vl53l8cx_dci_replace_data:
 2405              		@ args = 12, pretend = 0, frame = 0
 2406              		@ frame_needed = 0, uses_anonymous_args = 0
 2407 0000 2DE9F041 		push	{r4, r5, r6, r7, r8, lr}
 2408 0004 0646     		mov	r6, r0
 2409 0006 0D46     		mov	r5, r1
 2410 0008 1746     		mov	r7, r2
 2411 000a 9846     		mov	r8, r3
 2412 000c FFF7FEFF 		bl	vl53l8cx_dci_read_data
 2413 0010 0446     		mov	r4, r0
 2414 0012 BDF81C20 		ldrh	r2, [sp, #28]
 2415 0016 0699     		ldr	r1, [sp, #24]
 2416 0018 BDF82000 		ldrh	r0, [sp, #32]
 2417 001c 2844     		add	r0, r0, r5
 2418 001e FFF7FEFF 		bl	memcpy
 2419 0022 4346     		mov	r3, r8
 2420 0024 3A46     		mov	r2, r7
 2421 0026 2946     		mov	r1, r5
 2422 0028 3046     		mov	r0, r6
 2423 002a FFF7FEFF 		bl	vl53l8cx_dci_write_data
 2424 002e 2043     		orrs	r0, r0, r4
 2425 0030 C0B2     		uxtb	r0, r0
 2426 0032 BDE8F081 		pop	{r4, r5, r6, r7, r8, pc}
 2428              		.section	.text.vl53l8cx_set_ranging_frequency_hz,"ax",%progbits
 2429              		.align	1
 2430              		.global	vl53l8cx_set_ranging_frequency_hz
 2431              		.syntax unified
 2432              		.thumb
 2433              		.thumb_func
 2435              	vl53l8cx_set_ranging_frequency_hz:
 2436              		@ args = 0, pretend = 0, frame = 8
 2437              		@ frame_needed = 0, uses_anonymous_args = 0
 2438 0000 00B5     		push	{lr}
 2439 0002 87B0     		sub	sp, sp, #28
 2440 0004 8DF81710 		strb	r1, [sp, #23]
 2441 0008 0123     		movs	r3, #1
 2442 000a 0293     		str	r3, [sp, #8]
 2443 000c 0193     		str	r3, [sp, #4]
 2444 000e 0DF11703 		add	r3, sp, #23
 2445 0012 0093     		str	r3, [sp]
 2446 0014 0423     		movs	r3, #4
 2447 0016 45F25842 		movw	r2, #21592
ARM GAS  C:\Temp\ccVQrAGa.s 			page 43


 2448 001a 00F5A261 		add	r1, r0, #1296
 2449 001e FFF7FEFF 		bl	vl53l8cx_dci_replace_data
 2450 0022 07B0     		add	sp, sp, #28
 2451              		@ sp needed
 2452 0024 5DF804FB 		ldr	pc, [sp], #4
 2454              		.section	.text.vl53l8cx_set_integration_time_ms,"ax",%progbits
 2455              		.align	1
 2456              		.global	vl53l8cx_set_integration_time_ms
 2457              		.syntax unified
 2458              		.thumb
 2459              		.thumb_func
 2461              	vl53l8cx_set_integration_time_ms:
 2462              		@ args = 0, pretend = 0, frame = 8
 2463              		@ frame_needed = 0, uses_anonymous_args = 0
 2464 0000 00B5     		push	{lr}
 2465 0002 87B0     		sub	sp, sp, #28
 2466 0004 0591     		str	r1, [sp, #20]
 2467 0006 8A1E     		subs	r2, r1, #2
 2468 0008 40F2E633 		movw	r3, #998
 2469 000c 9A42     		cmp	r2, r3
 2470 000e 03D9     		bls	.L189
 2471 0010 7F20     		movs	r0, #127
 2472              	.L186:
 2473 0012 07B0     		add	sp, sp, #28
 2474              		@ sp needed
 2475 0014 5DF804FB 		ldr	pc, [sp], #4
 2476              	.L189:
 2477 0018 4FF47A73 		mov	r3, #1000
 2478 001c 03FB01F1 		mul	r1, r3, r1
 2479 0020 0591     		str	r1, [sp, #20]
 2480 0022 0023     		movs	r3, #0
 2481 0024 0293     		str	r3, [sp, #8]
 2482 0026 0423     		movs	r3, #4
 2483 0028 0193     		str	r3, [sp, #4]
 2484 002a 05AB     		add	r3, sp, #20
 2485 002c 0093     		str	r3, [sp]
 2486 002e 1423     		movs	r3, #20
 2487 0030 45F25C42 		movw	r2, #21596
 2488 0034 00F5A261 		add	r1, r0, #1296
 2489 0038 FFF7FEFF 		bl	vl53l8cx_dci_replace_data
 2490 003c E9E7     		b	.L186
 2492              		.section	.text.vl53l8cx_set_sharpener_percent,"ax",%progbits
 2493              		.align	1
 2494              		.global	vl53l8cx_set_sharpener_percent
 2495              		.syntax unified
 2496              		.thumb
 2497              		.thumb_func
 2499              	vl53l8cx_set_sharpener_percent:
 2500              		@ args = 0, pretend = 0, frame = 8
 2501              		@ frame_needed = 0, uses_anonymous_args = 0
 2502 0000 6329     		cmp	r1, #99
 2503 0002 01D9     		bls	.L197
 2504 0004 7F20     		movs	r0, #127
 2505 0006 7047     		bx	lr
 2506              	.L197:
 2507 0008 00B5     		push	{lr}
 2508 000a 87B0     		sub	sp, sp, #28
ARM GAS  C:\Temp\ccVQrAGa.s 			page 44


 2509 000c C1EB0121 		rsb	r1, r1, r1, lsl #8
 2510 0010 0C4B     		ldr	r3, .L198
 2511 0012 83FB0123 		smull	r2, r3, r3, r1
 2512 0016 C917     		asrs	r1, r1, #31
 2513 0018 C1EB6311 		rsb	r1, r1, r3, asr #5
 2514 001c 8DF81710 		strb	r1, [sp, #23]
 2515 0020 0D23     		movs	r3, #13
 2516 0022 0293     		str	r3, [sp, #8]
 2517 0024 0123     		movs	r3, #1
 2518 0026 0193     		str	r3, [sp, #4]
 2519 0028 0DF11703 		add	r3, sp, #23
 2520 002c 0093     		str	r3, [sp]
 2521 002e 1023     		movs	r3, #16
 2522 0030 4AF6D862 		movw	r2, #44760
 2523 0034 00F5A261 		add	r1, r0, #1296
 2524 0038 FFF7FEFF 		bl	vl53l8cx_dci_replace_data
 2525 003c 07B0     		add	sp, sp, #28
 2526              		@ sp needed
 2527 003e 5DF804FB 		ldr	pc, [sp], #4
 2528              	.L199:
 2529 0042 00BF     		.align	2
 2530              	.L198:
 2531 0044 1F85EB51 		.word	1374389535
 2533              		.section	.text.vl53l8cx_set_target_order,"ax",%progbits
 2534              		.align	1
 2535              		.global	vl53l8cx_set_target_order
 2536              		.syntax unified
 2537              		.thumb
 2538              		.thumb_func
 2540              	vl53l8cx_set_target_order:
 2541              		@ args = 0, pretend = 0, frame = 8
 2542              		@ frame_needed = 0, uses_anonymous_args = 0
 2543 0000 00B5     		push	{lr}
 2544 0002 87B0     		sub	sp, sp, #28
 2545 0004 8DF81710 		strb	r1, [sp, #23]
 2546 0008 CBB2     		uxtb	r3, r1
 2547 000a 013B     		subs	r3, r3, #1
 2548 000c DBB2     		uxtb	r3, r3
 2549 000e 012B     		cmp	r3, #1
 2550 0010 03D9     		bls	.L204
 2551 0012 7F20     		movs	r0, #127
 2552              	.L201:
 2553 0014 07B0     		add	sp, sp, #28
 2554              		@ sp needed
 2555 0016 5DF804FB 		ldr	pc, [sp], #4
 2556              	.L204:
 2557 001a 0023     		movs	r3, #0
 2558 001c 0293     		str	r3, [sp, #8]
 2559 001e 0123     		movs	r3, #1
 2560 0020 0193     		str	r3, [sp, #4]
 2561 0022 0DF11703 		add	r3, sp, #23
 2562 0026 0093     		str	r3, [sp]
 2563 0028 0423     		movs	r3, #4
 2564 002a 4AF66462 		movw	r2, #44644
 2565 002e 00F5A261 		add	r1, r0, #1296
 2566 0032 FFF7FEFF 		bl	vl53l8cx_dci_replace_data
 2567 0036 EDE7     		b	.L201
ARM GAS  C:\Temp\ccVQrAGa.s 			page 45


 2569              		.section	.text.vl53l8cx_set_VHV_repeat_count,"ax",%progbits
 2570              		.align	1
 2571              		.global	vl53l8cx_set_VHV_repeat_count
 2572              		.syntax unified
 2573              		.thumb
 2574              		.thumb_func
 2576              	vl53l8cx_set_VHV_repeat_count:
 2577              		@ args = 0, pretend = 0, frame = 8
 2578              		@ frame_needed = 0, uses_anonymous_args = 0
 2579 0000 00B5     		push	{lr}
 2580 0002 87B0     		sub	sp, sp, #28
 2581 0004 0591     		str	r1, [sp, #20]
 2582 0006 0423     		movs	r3, #4
 2583 0008 0293     		str	r3, [sp, #8]
 2584 000a 0193     		str	r3, [sp, #4]
 2585 000c 05AB     		add	r3, sp, #20
 2586 000e 0093     		str	r3, [sp]
 2587 0010 1023     		movs	r3, #16
 2588 0012 4AF66052 		movw	r2, #44384
 2589 0016 00F5A261 		add	r1, r0, #1296
 2590 001a FFF7FEFF 		bl	vl53l8cx_dci_replace_data
 2591 001e 07B0     		add	sp, sp, #28
 2592              		@ sp needed
 2593 0020 5DF804FB 		ldr	pc, [sp], #4
 2595              		.global	VL53L8CX_GET_NVM_CMD
 2596              		.section	.rodata.VL53L8CX_GET_NVM_CMD,"a"
 2597              		.align	2
 2600              	VL53L8CX_GET_NVM_CMD:
 2601 0000 54000040 		.ascii	"T\000\000@\236\024\000\300\236 \001@\2364\000@\2368"
 2601      9E1400C0 
 2601      9E200140 
 2601      9E340040 
 2601      9E38
 2602 0012 04049F38 		.ascii	"\004\004\2378\004\002\237\270\001\000\237\310\001\000"
 2602      04029FB8 
 2602      01009FC8 
 2602      0100
 2603 0020 0000000F 		.ascii	"\000\000\000\017\002\002\000$"
 2603      02020024 
 2604              		.global	VL53L8CX_DEFAULT_XTALK
 2605              		.section	.rodata.VL53L8CX_DEFAULT_XTALK,"a"
 2606              		.align	2
 2609              	VL53L8CX_DEFAULT_XTALK:
 2610 0000 9FD800C0 		.ascii	"\237\330\000\300\003 \011`\013\010\010\027\010\010\010"
 2610      03200960 
 2610      0B080817 
 2610      080808
 2611 000f 039FE401 		.ascii	"\003\237\344\001@\000\000\000\000\000\000\000\000\000"
 2611      40000000 
 2611      00000000 
 2611      0000
 2612 001d 00000001 		.ascii	"\000\000\000\001\340\000 \000\000\000 \237\370\000@"
 2612      E0002000 
 2612      0000209F 
 2612      F80040
 2613 002c 17171717 		.ascii	"\027\027\027\027\237\374\004\004\000\000F\244\000\000"
 2613      9FFC0404 
ARM GAS  C:\Temp\ccVQrAGa.s 			page 46


 2613      000046A4 
 2613      0000
 2614 003a 37660000 		.ascii	"7f\000\000&`\000\000\034\274\000\000\027s\000\000\021"
 2614      26600000 
 2614      1CBC0000 
 2614      17730000 
 2614      11
 2615 004b 25000011 		.ascii	"%\000\000\021\007\000\000\016c\000\000\213L\000\000"
 2615      0700000E 
 2615      6300008B 
 2615      4C0000
 2616 005a 60A20000 		.ascii	"`\242\000\000=\300\000\000&\252\000\000\033\302\000"
 2616      3DC00000 
 2616      26AA0000 
 2616      1BC200
 2617 0069 00180400 		.ascii	"\000\030\004\000\000\024\227\000\000\020\355\000\001"
 2617      00149700 
 2617      0010ED00 
 2617      01
 2618 0076 281B0000 		.ascii	"(\033\000\000\223\360\000\000Wa\000\0000+\000\000 \252"
 2618      93F00000 
 2618      57610000 
 2618      302B0000 
 2618      20AA
 2619 0088 00001AB6 		.ascii	"\000\000\032\266\000\000\025\303\000\000\026\016\000"
 2619      000015C3 
 2619      0000160E 
 2619      00
 2620 0095 017FBB00 		.ascii	"\001\177\273\000\000\255X\000\000q\257\000\0006\331"
 2620      00AD5800 
 2620      0071AF00 
 2620      0036D9
 2621 00a4 000022FB 		.ascii	"\000\000\"\373\000\000\034\226\000\000\030\203\000\000"
 2621      00001C96 
 2621      00001883 
 2621      0000
 2622 00b2 17960001 		.ascii	"\027\226\000\001\220\000\000\000\227\326\000\000f;\000"
 2622      90000000 
 2622      97D60000 
 2622      663B00
 2623 00c1 00330A00 		.ascii	"\0003\012\000\000 \315\000\000\0318\000\000\026\245"
 2623      0020CD00 
 2623      00193800 
 2623      0016A5
 2624 00d0 000014BB 		.ascii	"\000\000\024\273\000\000\257\317\000\000e}\000\000="
 2624      0000AFCF 
 2624      0000657D 
 2624      00003D
 2625 00df 93000029 		.ascii	"\223\000\000)\321\000\000\031N\000\000\025\272\000\000"
 2625      D1000019 
 2625      4E000015 
 2625      BA0000
 2626 00ee 11C60000 		.ascii	"\021\306\000\000\022\177\000\000s\035\000\000B,\000"
 2626      127F0000 
 2626      731D0000 
 2626      422C00
 2627 00fd 002E8200 		.ascii	"\000.\202\000\000\036\200\000\000\030\034\000\000\023"
ARM GAS  C:\Temp\ccVQrAGa.s 			page 47


 2627      001E8000 
 2627      00181C00 
 2627      0013
 2628 010b 2D00000F 		.ascii	"-\000\000\017\306\000\000\017\205\000\000O\004\000\000"
 2628      C600000F 
 2628      8500004F 
 2628      040000
 2629 011a 33E90000 		.ascii	"3\351\000\000\037\006\000\000\030@\000\000\023,\000"
 2629      1F060000 
 2629      18400000 
 2629      132C00
 2630 0129 00129700 		.ascii	"\000\022\227\000\000\016\001\000\000\015\254\240\374"
 2630      000E0100 
 2630      000DACA0 
 2630      FC
 2631 0136 01000000 		.ascii	"\001\000\000\000\000\000\000\000\000\003\000\000\000"
 2631      00000000 
 2631      00030000 
 2631      00
 2632 0143 00000000 		.ascii	"\000\000\000\000\000\241\014\001\000\000\000\000\200"
 2632      00A10C01 
 2632      00000000 
 2632      80
 2633 0150 00000003 		.ascii	"\000\000\000\003\000\000\000\000\000\000\000\000\241"
 2633      00000000 
 2633      00000000 
 2633      A1
 2634 015d 1C00C000 		.ascii	"\034\000\300\000\000p\353\014\200\001\340\000\000\000"
 2634      0070EB0C 
 2634      8001E000 
 2634      0000
 2635 016b 26A12809 		.ascii	"&\241(\011\002\000\000\000\000\000\000\000\000\000\000"
 2635      02000000 
 2635      00000000 
 2635      000000
 2636 017a 00000001 		.ascii	"\000\000\000\001\000\000\0006\000\003\001\331\001C\002"
 2636      00000036 
 2636      000301D9 
 2636      014302
 2637 0189 33021702 		.ascii	"3\002\027\002K\002A\001\027\002\"\000'\000]\000\005"
 2637      4B024101 
 2637      17022200 
 2637      27005D00 
 2637      05
 2638 019a 00110000 		.ascii	"\000\021\000\000\000\001\000\000\000\000\000\000\000"
 2638      00010000 
 2638      00000000 
 2638      00
 2639 01a7 00000000 		.ascii	"\000\000\000\000\000\000\000\000\000\000\000\000\000"
 2639      00000000 
 2639      00000000 
 2639      00
 2640 01b4 00000000 		.ascii	"\000\000\000\000\000\000\000\000\000\000\000\000\000"
 2640      00000000 
 2640      00000000 
 2640      00
 2641 01c1 00000000 		.ascii	"\000\000\000\000\000\000\000\000\000\000\000\000\000"
ARM GAS  C:\Temp\ccVQrAGa.s 			page 48


 2641      00000000 
 2641      00000000 
 2641      00
 2642 01ce 00000000 		.ascii	"\000\000\000\000\000\000\000\000\000\000\000\000\000"
 2642      00000000 
 2642      00000000 
 2642      00
 2643 01db 00000000 		.ascii	"\000\000\000\000\000\000\000\000\000\000\000\000\000"
 2643      00000000 
 2643      00000000 
 2643      00
 2644 01e8 00000000 		.ascii	"\000\000\000\000\000\000\000\000\000\000\000\000\000"
 2644      00000000 
 2644      00000000 
 2644      00
 2645 01f5 00000000 		.ascii	"\000\000\000\000\000\000\000\000\000\000\000\000\000"
 2645      00000000 
 2645      00000000 
 2645      00
 2646 0202 00000000 		.ascii	"\000\000\000\000\000\000\000\000\000\000\000\000\000"
 2646      00000000 
 2646      00000000 
 2646      00
 2647 020f 00000000 		.ascii	"\000\000\000\000\000\000\000\000\000\000\000\000\000"
 2647      00000000 
 2647      00000000 
 2647      00
 2648 021c 00000000 		.ascii	"\000\000\000\000\000\000\000\000\000\000\000\000\000"
 2648      00000000 
 2648      00000000 
 2648      00
 2649 0229 00000000 		.ascii	"\000\000\000\000\000\000\000\000\000\000\000\000\000"
 2649      00000000 
 2649      00000000 
 2649      00
 2650 0236 00000000 		.ascii	"\000\000\000\000\000\000\000\000\000\000\000\000\000"
 2650      00000000 
 2650      00000000 
 2650      00
 2651 0243 00000000 		.ascii	"\000\000\000\000\000\000\000\000\000\000\000\000\000"
 2651      00000000 
 2651      00000000 
 2651      00
 2652 0250 00000000 		.ascii	"\000\000\000\000\000\000\000\000\000\000\000\000\000"
 2652      00000000 
 2652      00000000 
 2652      00
 2653 025d 00000000 		.ascii	"\000\000\000\000\000\000\000\000\000\000\000\000\000"
 2653      00000000 
 2653      00000000 
 2653      00
 2654 026a 00000000 		.ascii	"\000\000\000\000\000\000\000\000\000\000\000\000\000"
 2654      00000000 
 2654      00000000 
 2654      00
 2655 0277 00000000 		.ascii	"\000\000\000\000\000\000\000\000\000\000\000\000\000"
 2655      00000000 
ARM GAS  C:\Temp\ccVQrAGa.s 			page 49


 2655      00000000 
 2655      00
 2656 0284 00000000 		.ascii	"\000\000\000\000\000\000\000\000\000\000\000\000\242"
 2656      00000000 
 2656      00000000 
 2656      A2
 2657 0291 48004000 		.ascii	"H\000@\000\000\000\000\242L\000\201\000\000\000\000"
 2657      000000A2 
 2657      4C008100 
 2657      000000
 2658 02a0 00000000 		.ascii	"\000\000\000\000\242T\000\201\000\000\000\000\000\000"
 2658      A2540081 
 2658      00000000 
 2658      0000
 2659 02ae 0000A25C 		.ascii	"\000\000\242\\\000\201\000\000\000\000\000\000\000\000"
 2659      00810000 
 2659      00000000 
 2659      0000
 2660 02bc A2640081 		.ascii	"\242d\000\201\000\000\000\000\000\000\000\000\242l\000"
 2660      00000000 
 2660      00000000 
 2660      A26C00
 2661 02cb 84000000 		.ascii	"\204\000\000\000\000\000\000\000\000\000\000\000\000"
 2661      00000000 
 2661      00000000 
 2661      00
 2662 02d8 00000000 		.ascii	"\000\000\000\000\000\000\000\000\000\000\000\000\000"
 2662      00000000 
 2662      00000000 
 2662      00
 2663 02e5 00000000 		.ascii	"\000\000\000\000\000\000\000\242\214\000\202\000\000"
 2663      000000A2 
 2663      8C008200 
 2663      00
 2664 02f2 00000000 		.ascii	"\000\000\000\000\000\000\000\000\000\000\000\000\000"
 2664      00000000 
 2664      00000000 
 2664      00
 2665 02ff 00000000 		.ascii	"\000\000\000\000\017\005\001\003\004"
 2665      0F050103 
 2665      04
 2666              		.global	VL53L8CX_DEFAULT_CONFIGURATION
 2667              		.section	.rodata.VL53L8CX_DEFAULT_CONFIGURATION,"a"
 2668              		.align	2
 2671              	VL53L8CX_DEFAULT_CONFIGURATION:
 2672 0000 54500080 		.ascii	"TP\000\200\000\004\004\004\000\000\010\010\2550\000"
 2672      00040404 
 2672      00000808 
 2672      AD3000
 2673 000f 80020103 		.ascii	"\200\002\001\003\003\000\000\003\000\2558\001\000\001"
 2673      03000003 
 2673      00AD3801 
 2673      0001
 2674 001d E0014000 		.ascii	"\340\001@\000@\000@\001\000\004\000\000\000\000\001"
 2674      40004001 
 2674      00040000 
 2674      000001
ARM GAS  C:\Temp\ccVQrAGa.s 			page 50


 2675 002c 54580040 		.ascii	"TX\000@\004\032\001\000T\\\001@\000\000'\020\000\000"
 2675      041A0100 
 2675      545C0140 
 2675      00002710 
 2675      0000
 2676 003e 0FA00FA0 		.ascii	"\017\240\017\240\003\350\002\200\037@\000\000\005\000"
 2676      03E80280 
 2676      1F400000 
 2676      0500
 2677 004c 54700080 		.ascii	"Tp\000\200\003 \003 \000\000\000\010Tx\001\000\001\023"
 2677      03200320 
 2677      00000008 
 2677      54780100 
 2677      0113
 2678 005e 00290033 		.ascii	"\000)\0003\000\000\002\000\000\001\004\001\010\002T"
 2678      00000200 
 2678      00010401 
 2678      080254
 2679 006d 88014000 		.ascii	"\210\001@\000\000\000\000\000\000\000\000\000\000\000"
 2679      00000000 
 2679      00000000 
 2679      0000
 2680 007b 00000000 		.ascii	"\000\000\000\000\000\000\000\014\000\255H\001\000\001"
 2680      0000000C 
 2680      00AD4801 
 2680      0001
 2681 0089 F4000003 		.ascii	"\364\000\000\003\006\000\020\010\007\010\007\000\000"
 2681      06001008 
 2681      07080700 
 2681      00
 2682 0096 0008AD60 		.ascii	"\000\010\255`\001\000\000\000\000\200\000\000\000\000"
 2682      01000000 
 2682      00800000 
 2682      0000
 2683 00a4 201F01F4 		.ascii	" \037\001\364\000\000\035\012\255p\000\200\010\000\037"
 2683      00001D0A 
 2683      AD700080 
 2683      08001F
 2684 00b3 40000000 		.ascii	"@\000\000\000\001\255x\000\200\000\240\003 \000\001"
 2684      01AD7800 
 2684      8000A003 
 2684      200001
 2685 00c2 0190AD80 		.ascii	"\001\220\255\200\000@\000\000(\000\255\204\000\200\000"
 2685      00400000 
 2685      2800AD84 
 2685      008000
 2686 00d1 00320003 		.ascii	"\0002\000\003 \000\000\255\214\000\200\002X\3778\000"
 2686      200000AD 
 2686      8C008002 
 2686      58FF3800 
 2687 00e1 00000CAD 		.ascii	"\000\000\014\255\224\001\000\000\001\220\000\377\377"
 2687      94010000 
 2687      019000FF 
 2687      FF
 2688 00ee FC000000 		.ascii	"\374\000\000\000\004\000\000\000\001\001\255\244\000"
 2688      04000000 
 2688      0101ADA4 
ARM GAS  C:\Temp\ccVQrAGa.s 			page 51


 2688      00
 2689 00fb C0048006 		.ascii	"\300\004\200\006\032\000@\005\200\000\000\001\006\255"
 2689      1A004005 
 2689      80000001 
 2689      06AD
 2690 0109 B000C004 		.ascii	"\260\000\300\004\200\006\032\031\000\005\200\000\000"
 2690      80061A19 
 2690      00058000 
 2690      00
 2691 0116 0190ADBC 		.ascii	"\001\220\255\274\004@\000\000\000\000\000\000\000\000"
 2691      04400000 
 2691      00000000 
 2691      0000
 2692 0124 00120025 		.ascii	"\000\022\000%\000\000\000\006\000\000\000\005\000\000"
 2692      00000006 
 2692      00000005 
 2692      0000
 2693 0132 00050000 		.ascii	"\000\005\000\000\000\006\000\000\000\004\000\000\000"
 2693      00060000 
 2693      00040000 
 2693      00
 2694 013f 0F000000 		.ascii	"\017\000\000\000Z\000\000\000\000\000\000\000\011\013"
 2694      5A000000 
 2694      00000000 
 2694      090B
 2695 014d 0C0B0B03 		.ascii	"\014\013\013\003\003\021\005\001\001\001\001\000\000"
 2695      03110501 
 2695      01010100 
 2695      00
 2696 015a 0000000D 		.ascii	"\000\000\000\015\000\000\256\000\001\004\000\000\000"
 2696      0000AE00 
 2696      01040000 
 2696      00
 2697 0167 04000000 		.ascii	"\004\000\000\000\010\000\000\000\012\000\000\000\014"
 2697      08000000 
 2697      0A000000 
 2697      0C
 2698 0174 0000000D 		.ascii	"\000\000\000\015\000\000\000\016\000\000\000\010\000"
 2698      0000000E 
 2698      00000008 
 2698      00
 2699 0181 00000800 		.ascii	"\000\000\010\000\000\000\020\000\000\000\020\000\000"
 2699      00001000 
 2699      00001000 
 2699      00
 2700 018e 00200000 		.ascii	"\000 \000\000\000 \000\000\000\006\000\000\005\012\002"
 2700      00200000 
 2700      00060000 
 2700      050A02
 2701 019d 000C0800 		.ascii	"\000\014\010\000\000\000\000\256@\000@\000\000\001\377"
 2701      000000AE 
 2701      40004000 
 2701      0001FF
 2702 01ac AE440040 		.ascii	"\256D\000@\000\020\004\001\256H\000@\000\000\020\000"
 2702      00100401 
 2702      AE480040 
 2702      00001000 
ARM GAS  C:\Temp\ccVQrAGa.s 			page 52


 2703 01bc AE4C0040 		.ascii	"\256L\000@\000\000\000\001\256P\001@\000\000\000\024"
 2703      00000001 
 2703      AE500140 
 2703      00000014 
 2704 01cc 04002800 		.ascii	"\004\000(\000\003 l\000\000\000\000\000\000\000%\200"
 2704      03206C00 
 2704      00000000 
 2704      00002580 
 2705 01dc AE640040 		.ascii	"\256d\000@\000\000\000\002\256\330\001\000\000\310\005"
 2705      00000002 
 2705      AED80100 
 2705      00C805
 2706 01eb DC000007 		.ascii	"\334\000\000\007\256\001\004\000\000\000\000\003\001"
 2706      AE010400 
 2706      00000003 
 2706      01
 2707 01f8 B5500282 		.ascii	"\265P\002\202\000\000\000\000\000\000\000\000\000\000"
 2707      00000000 
 2707      00000000 
 2707      0000
 2708 0206 00000000 		.ascii	"\000\000\000\000\000\000\000\000\000\000\000\000\000"
 2708      00000000 
 2708      00000000 
 2708      00
 2709 0213 00000000 		.ascii	"\000\000\000\000\000\000\000\000\000\000\000\000\000"
 2709      00000000 
 2709      00000000 
 2709      00
 2710 0220 00000000 		.ascii	"\000\000\000\000\000\000\000\000\000\000\000\000\000"
 2710      00000000 
 2710      00000000 
 2710      00
 2711 022d 00000000 		.ascii	"\000\000\000\000\000\000\000\000\000\000\000\000\000"
 2711      00000000 
 2711      00000000 
 2711      00
 2712 023a 00000000 		.ascii	"\000\000\000\000\000\000\000\000\000\000\000\000\000"
 2712      00000000 
 2712      00000000 
 2712      00
 2713 0247 00000000 		.ascii	"\000\000\000\000\000\265\240\002\202\000\000\000\000"
 2713      00B5A002 
 2713      82000000 
 2713      00
 2714 0254 00000000 		.ascii	"\000\000\000\000\000\000\000\000\000\000\000\000\000"
 2714      00000000 
 2714      00000000 
 2714      00
 2715 0261 00000000 		.ascii	"\000\000\000\000\000\000\000\000\000\000\000\000\000"
 2715      00000000 
 2715      00000000 
 2715      00
 2716 026e 00000000 		.ascii	"\000\000\000\000\000\000\000\000\000\000\000\000\000"
 2716      00000000 
 2716      00000000 
 2716      00
 2717 027b 00000000 		.ascii	"\000\000\000\000\000\000\000\000\000\000\000\000\000"
ARM GAS  C:\Temp\ccVQrAGa.s 			page 53


 2717      00000000 
 2717      00000000 
 2717      00
 2718 0288 00000000 		.ascii	"\000\000\000\000\000\000\000\000\000\000\000\000\000"
 2718      00000000 
 2718      00000000 
 2718      00
 2719 0295 00000000 		.ascii	"\000\000\000\000\000\000\000\000\000\000\000\265\360"
 2719      00000000 
 2719      000000B5 
 2719      F0
 2720 02a2 004000FF 		.ascii	"\000@\000\377\000\000\263\234\001\0004\233\0045\002"
 2720      0000B39C 
 2720      0100349B 
 2720      043502
 2721 02b1 1B087C80 		.ascii	"\033\010|\200\000\022\001\000\001\010\000\266\300\000"
 2721      00120100 
 2721      010800B6 
 2721      C000
 2722 02bf C0000060 		.ascii	"\300\000\000`\000\000\000 \000\000\000\000\000\256\250"
 2722      00000020 
 2722      00000000 
 2722      00AEA8
 2723 02ce 00400000 		.ascii	"\000@\000\000\004\005\256\254\000\200\001\000\001\000"
 2723      0405AEAC 
 2723      00800100 
 2723      0100
 2724 02dc 00020000 		.ascii	"\000\002\000\000\256\264\000@\000\000\000\000\256\270"
 2724      AEB40040 
 2724      00000000 
 2724      AEB8
 2725 02ea 00810000 		.ascii	"\000\201\000\000\000\000\000\000\000\000\256\300\000"
 2725      00000000 
 2725      0000AEC0 
 2725      00
 2726 02f7 81000000 		.ascii	"\201\000\000\000\000\000\000\000\000\256\310\000\201"
 2726      00000000 
 2726      00AEC800 
 2726      81
 2727 0304 08010108 		.ascii	"\010\001\001\010\000\000\000\010\256\320\000\201\001"
 2727      00000008 
 2727      AED00081 
 2727      01
 2728 0311 08080800 		.ascii	"\010\010\010\000\000\000\001\265\364\000\200\000\000"
 2728      000001B5 
 2728      F4008000 
 2728      00
 2729 031e 00000000 		.ascii	"\000\000\000\000\000\000\265\374\000\200\000\000\000"
 2729      0000B5FC 
 2729      00800000 
 2729      00
 2730 032b 00000000 		.ascii	"\000\000\000\000\000\266\004\000@\000\000\000\000\266"
 2730      00B60400 
 2730      40000000 
 2730      00B6
 2731 0339 08004400 		.ascii	"\010\000D\000\000\000\000\000\000\000\000\000\000\000"
 2731      00000000 
ARM GAS  C:\Temp\ccVQrAGa.s 			page 54


 2731      00000000 
 2731      0000
 2732 0347 00000000 		.ascii	"\000\000\000\000\000\266\030\000D\000\000\000\000\000"
 2732      00B61800 
 2732      44000000 
 2732      0000
 2733 0355 00000000 		.ascii	"\000\000\000\000\000\000\000\000\000\000\000\266(\000"
 2733      00000000 
 2733      000000B6 
 2733      2800
 2734 0363 44000000 		.ascii	"D\000\000\000\000\000\000\000\000\000\000\000\000\000"
 2734      00000000 
 2734      00000000 
 2734      0000
 2735 0371 000000B6 		.ascii	"\000\000\000\2668\000D\000\000\000\000\000\000\000\000"
 2735      38004400 
 2735      00000000 
 2735      000000
 2736 0380 00000000 		.ascii	"\000\000\000\000\000\000\000\000\266H\001\000\000\000"
 2736      00000000 
 2736      B6480100 
 2736      0000
 2737 038e 00000000 		.ascii	"\000\000\000\000\000\000\000\000\000\000\000\000\000"
 2737      00000000 
 2737      00000000 
 2737      00
 2738 039b 00B65801 		.ascii	"\000\266X\001\000\000\000\000\000\000\000\000\000\000"
 2738      00000000 
 2738      00000000 
 2738      0000
 2739 03a9 00000000 		.ascii	"\000\000\000\000\000\000\000\266h\001\000\000\000\000"
 2739      000000B6 
 2739      68010000 
 2739      0000
 2740 03b7 00000000 		.ascii	"\000\000\000\000\000\000\000\000\000\000\000\000\000"
 2740      00000000 
 2740      00000000 
 2740      00
 2741 03c4 0000000F 		.ascii	"\000\000\000\017\000\001\003\310"
 2741      000103C8 
 2742              		.global	VL53L8CX_FIRMWARE
 2743              		.section	.rodata.VL53L8CX_FIRMWARE,"a"
 2744              		.align	2
 2747              	VL53L8CX_FIRMWARE:
 2748 0000 E0000308 		.ascii	"\340\000\003\010\340\000\012\310\340\000\005\010\340"
 2748      E0000AC8 
 2748      E0000508 
 2748      E0
 2749 000d 640848E0 		.ascii	"d\010H\340\000\012\210\340\000\012\210\340\000\012\210"
 2749      000A88E0 
 2749      000A88E0 
 2749      000A88
 2750 001c E0000A88 		.ascii	"\340\000\012\210\340d.(\340d1\350\340d5H\340d;\210\340"
 2750      E0642E28 
 2750      E06431E8 
 2750      E0643548 
 2750      E0643B88 
ARM GAS  C:\Temp\ccVQrAGa.s 			page 55


 2751 0031 680468E0 		.ascii	"h\004h\340h\027h\340h\033H\340h\036\310\340h%(\340h"
 2751      681768E0 
 2751      681B48E0 
 2751      681EC8E0 
 2751      682528E0 
 2752 0046 2848E000 		.ascii	"(H\340\000\011\350\340\000\011\310\340\000\011\250\340"
 2752      09E8E000 
 2752      09C8E000 
 2752      09A8E0
 2753 0055 000988E0 		.ascii	"\000\011\210\340\000\011h\340\000\011H\370\002\000\006"
 2753      000968E0 
 2753      000948F8 
 2753      020006
 2754 0064 C1C38101 		.ascii	"\301\303\201\001\036\006\241\013\032\006\201\000\231"
 2754      1E06A10B 
 2754      1A068100 
 2754      99
 2755 0071 23E10097 		.ascii	"#\341\000\227\263\227\343\006,\227s\0064\342\300\006"
 2755      B397E306 
 2755      2C977306 
 2755      34E2C006 
 2756 0081 2CFC80C1 		.ascii	",\374\200\301\203\343@\342\300\006\034\374\230\0064"
 2756      83E340E2 
 2756      C0061CFC 
 2756      980634
 2757 0090 FC9C0634 		.ascii	"\374\234\0064\343@\006\034i8\301\203\301C\350\000\301"
 2757      E340061C 
 2757      6938C183 
 2757      C143E800 
 2757      C1
 2758 00a1 C38105E1 		.ascii	"\303\201\005\341\000\000\014\372\004^e\354\020\014\360"
 2758      00000CFA 
 2758      045E65EC 
 2758      100CF0
 2759 00b0 F41C5E60 		.ascii	"\364\034^`\274n\210a\377\204\007\374\232\024\330\004"
 2759      BC6E8861 
 2759      FF8407FC 
 2759      9A14D804 
 2760 00c0 E4300460 		.ascii	"\3440\004`\374\022L\006\340\320LJ\301\303\202\025\301"
 2760      FC124C06 
 2760      E0D04C4A 
 2760      C1C38215 
 2760      C1
 2761 00d1 C3C1C3F8 		.ascii	"\303\301\303\370\004\027\014\201\223\201\203\342\300"
 2761      04170C81 
 2761      938183E2 
 2761      C0
 2762 00de 0C2C1C8C 		.ascii	"\014,\034\214\321g\343k\344\004\345k\216\005\200d\003"
 2762      D167E36B 
 2762      E404E56B 
 2762      8E058064 
 2762      03
 2763 00ef 8804D8E7 		.ascii	"\210\004\330\347k\351k\200d\353k\212\305\200d\006\010"
 2763      6BE96B80 
 2763      64EB6B8A 
 2763      C5806406 
 2763      08
ARM GAS  C:\Temp\ccVQrAGa.s 			page 56


 2764 0100 0A58ED6B 		.ascii	"\012X\355k\361k\200d\200d\007(\010x\363k\365k\200d\367"
 2764      F16B8064 
 2764      80640728 
 2764      0878F36B 
 2764      F56B8064 
 2765 0115 6B8AC5F9 		.ascii	"k\212\305\371k\214\005\373k\214E\014\012\212E\212e\344"
 2765      6B8C05FB 
 2765      6B8C450C 
 2765      0A8A458A 
 2765      65E4
 2766 0127 B4E4B80C 		.ascii	"\264\344\270\014\012\012x\204E@\006\340d@J\374\022\200"
 2766      0A0A7884 
 2766      454006E0 
 2766      64404AFC 
 2766      1280
 2767 0139 D5E0D0C1 		.ascii	"\325\340\320\301\303\301\303\037\014\301\303\017\374"
 2767      C3C1C31F 
 2767      0CC1C30F 
 2767      FC
 2768 0146 F004BCF4 		.ascii	"\360\004\274\364\367\204\301S\375d\340\200\000\014\340"
 2768      F784C153 
 2768      FD64E080 
 2768      000CE0
 2769 0155 80000CE0 		.ascii	"\200\000\014\340\200\000\014\340\200\000\014\340\200"
 2769      80000CE0 
 2769      80000CE0 
 2769      80
 2770 0162 000CE080 		.ascii	"\000\014\340\200\000\014\340\200\000\014\340\200\000"
 2770      000CE080 
 2770      000CE080 
 2770      00
 2771 016f 0CE08000 		.ascii	"\014\340\200\000\014\340\200\000\014\340\200\000\014"
 2771      0CE08000 
 2771      0CE08000 
 2771      0C
 2772 017c E080000C 		.ascii	"\340\200\000\014\301\303\301C\301\303\301S\372\374\004"
 2772      C1C3C143 
 2772      C1C3C153 
 2772      FAFC04
 2773 018b 0C600006 		.ascii	"\014`\000\006\332\012 \241\013\0300d\000\016$\344\000"
 2773      DA0A20A1 
 2773      0B183064 
 2773      000E24E4 
 2773      00
 2774 019c 020A3780 		.ascii	"\002\0127\200\014\006\200\000\0104 \000\012p\267\200"
 2774      0C068000 
 2774      08342000 
 2774      0A70B780 
 2775 01ac 5842A404 		.ascii	"XB\244\004\201a2\230!+\252E\006\012\214\273\014\020"
 2775      81613298 
 2775      212BAA45 
 2775      060A8CBB 
 2775      0C10
 2776 01be 00000400 		.ascii	"\000\000\004\000\344\000\030\032d\000\250%\340\000\010"
 2776      E400181A 
 2776      6400A825 
 2776      E00008
ARM GAS  C:\Temp\ccVQrAGa.s 			page 57


 2777 01cd 04A11D0E 		.ascii	"\004\241\035\016\024W\200\020\006\327\200\004@@\000"
 2777      14578010 
 2777      06D78004 
 2777      404000
 2778 01dc 0854C404 		.ascii	"\010T\304\004Lrv\200\020\304\322\240\024@v\200\016d"
 2778      4C727680 
 2778      10C4D2A0 
 2778      14407680 
 2778      0E64
 2779 01ee A4801224 		.ascii	"\244\200\022$\366\200\241kv\200<\001T\200\214\213@\000"
 2779      F680A16B 
 2779      76803C01 
 2779      54808C8B 
 2779      4000
 2780 0200 04800890 		.ascii	"\004\200\010\220\334\000Hp\204\233(\243\354\004\016"
 2780      DC004870 
 2780      849B28A3 
 2780      EC040E
 2781 020f A09EE5A0 		.ascii	"\240\236\345\240}\226K!{\016\212\206E\016\232\345\000"
 2781      7D964B21 
 2781      7B0E8A86 
 2781      450E9AE5 
 2781      00
 2782 0220 00064480 		.ascii	"\000\006D\200\026\240\200\000\010T,\204\300\000(\234"
 2782      16A08000 
 2782      08542C84 
 2782      C000289C 
 2783 0230 20010E4A 		.ascii	" \001\016J\000T@\000\000\304\250\254\300\000(\235\017"
 2783      00544000 
 2783      00C4A8AC 
 2783      C000289D 
 2783      0F
 2784 0241 9C145440 		.ascii	"\234\024T@\002\210[\200\313\231\250a\204\000\204\341"
 2784      02885B80 
 2784      CB99A861 
 2784      840084E1 
 2785 0251 84089412 		.ascii	"\204\010\224\022\204\001\3132O\340\374\344\004\034p"
 2785      8401CB32 
 2785      4FE0FCE4 
 2785      041C70
 2786 0260 4B0A01A1 		.ascii	"K\012\001\241X\332\204\020\224\273d\000m\204@\032\034"
 2786      58DA8410 
 2786      94BB6400 
 2786      6D84401A 
 2786      1C
 2787 0271 70C61F00 		.ascii	"p\306\037\000\304$\010\016T\240\204\010T!\374@\002\240"
 2787      C424080E 
 2787      54A08408 
 2787      5421FC40 
 2787      02A0
 2788 0283 84A1EB39 		.ascii	"\204\241\3539\234<\000X\000\274\000J@\035Z\010\305\016"
 2788      9C3C0058 
 2788      00BC004A 
 2788      401D5A08 
 2788      C50E
 2789 0295 E0E0040D 		.ascii	"\340\340\004\015\313\354\004\341\374\000\244K\012B\267"
 2789      CBEC04E1 
ARM GAS  C:\Temp\ccVQrAGa.s 			page 58


 2789      FC00A44B 
 2789      0A42B7
 2790 02a4 58FA8408 		.ascii	"X\372\204\010\010\304d\030\020\244\340\374@\012`\204"
 2790      08C46418 
 2790      10A4E0FC 
 2790      400A6084 
 2791 02b4 20BFED8C 		.ascii	" \277\355\214\000T\220\253\024\204a\204(\017\234\200"
 2791      005490AB 
 2791      14846184 
 2791      280F9C80 
 2792 02c4 91944822 		.ascii	"\221\224H\"\023\260JbLP\303\307\200[\034\000'\360N\330"
 2792      13B04A62 
 2792      4C50C3C7 
 2792      805B1C00 
 2792      27F04ED8 
 2793 02d8 9C004440 		.ascii	"\234\000D@\226\013!\035W\200\004\244\327\200\002\264"
 2793      960B211D 
 2793      578004A4 
 2793      D78002B4 
 2794 02e8 40000606 		.ascii	"@\000\006\006\304\004\004 R\214B\022@\020\224kL \\\000"
 2794      C4040420 
 2794      528C4212 
 2794      4010946B 
 2794      4C205C00 
 2795 02fc 801BDC00 		.ascii	"\200\033\334\000\014\014\214\013\335\223\362\374\214"
 2795      0C0C8C0B 
 2795      DD93F2FC 
 2795      8C
 2796 0309 1B7FC580 		.ascii	"\033\177\305\200k\177\245\226{s\345\372<\004\014\201"
 2796      6B7FA596 
 2796      7B73E5FA 
 2796      3C040C81 
 2797 0319 C1210B00 		.ascii	"\301!\013\000\000\002\012\240\205\230kv\200\012\024"
 2797      00020AA0 
 2797      85986B76 
 2797      800A14
 2798 0328 0824A12B 		.ascii	"\010$\241+\006\012v\200\014\004\200\000\230\213v\200"
 2798      060A7680 
 2798      0C048000 
 2798      988B7680 
 2799 0338 061A1EC5 		.ascii	"\006\032\036\305\0304\340\000\241\033v\200\244\200\016"
 2799      1834E000 
 2799      A11B7680 
 2799      A4800E
 2800 0347 403C014E 		.ascii	"@<\001N\300\010`\300\000HP\004\200\250s\334\000\354"
 2800      C00860C0 
 2800      00485004 
 2800      80A873DC 
 2800      00EC
 2801 0359 040A709A 		.ascii	"\004\012p\232\305\240]\220\313![\012\212\206E\012\232"
 2801      C5A05D90 
 2801      CB215B0A 
 2801      8A86450A 
 2801      9A
 2802 036a E5000806 		.ascii	"\345\000\010\006D\200\020p\200\000\012J,\204\300\000"
 2802      44801070 
 2802      80000A4A 
ARM GAS  C:\Temp\ccVQrAGa.s 			page 59


 2802      2C84C000 
 2803 037a 20002895 		.ascii	" \000(\225\0104\014$@\000\010$\217\224\030$(\240\300"
 2803      08340C24 
 2803      40000824 
 2803      8F941824 
 2803      28A0C0
 2804 038d 00289419 		.ascii	"\000(\224\031\230HB\210;\230+a\204\010\024\340\374\014"
 2804      98484288 
 2804      3B982B61 
 2804      840814E0 
 2804      FC0C
 2805 039f 14618418 		.ascii	"\024a\204\030\004,\317\211;\344\020F\332\0040E\012\344"
 2805      042CCF89 
 2805      3BE41046 
 2805      DA043045 
 2805      0AE4
 2806 03b1 0412506D 		.ascii	"\004\022Pm\204@\032\022P\201\301\014$$\010\0104\241"
 2806      84401A12 
 2806      5081C10C 
 2806      24240808 
 2806      34A1
 2807 03c3 FC0A2420 		.ascii	"\374\012$ \204HB\240\204\241\2339\230<\000F@\274\000"
 2807      844842A0 
 2807      84A19B39 
 2807      983C0046 
 2807      40BC00
 2808 03d6 4450135A 		.ascii	"DP\023Z\030k\210\305\340\004\354\004\016\220F\372\003"
 2808      186B88C5 
 2808      E004EC04 
 2808      0E9046FA 
 2808      03
 2809 03e7 3B450AE4 		.ascii	";E\012\344\004\012$\004\000\0204\341\204\302g`\374`"
 2809      040A2404 
 2809      001034E1 
 2809      84C26760 
 2809      FC60
 2810 03f9 841CC4ED 		.ascii	"\204\034\304\355\214@\012a\204\0104\020\304\260_\234"
 2810      8C400A61 
 2810      84083410 
 2810      C4B05F9C 
 2811 0409 CB61FC50 		.ascii	"\313a\374P\0020oD\022\221\210\210;\023\214\034\000B"
 2811      02306F44 
 2811      12918888 
 2811      3B138C1C 
 2811      0042
 2812 041b 2040808A 		.ascii	" @\200\212+\030\344\034\000O\330\234\200\030\013\247"
 2812      2B18E41C 
 2812      004FD89C 
 2812      80180BA7 
 2813 042b EC0C0C8C 		.ascii	"\354\014\014\214\033\335\223\362<\202k\000\313u\365"
 2813      1BDD93F2 
 2813      3C826B00 
 2813      CB75F5
 2814 043a FF95C1C3 		.ascii	"\377\225\301\303\220[\372\374\004\014\200\213!\013\000"
 2814      905BFAFC 
 2814      040C808B 
 2814      210B00
ARM GAS  C:\Temp\ccVQrAGa.s 			page 60


 2815 0449 00020A04 		.ascii	"\000\002\012\004k\202\233\200\345\206{\006\012\241+"
 2815      6B829B80 
 2815      E5867B06 
 2815      0AA12B
 2816 0458 400A8000 		.ascii	"@\012\200\000\200\345\345\234\204\033\201!\014\014\204"
 2816      80E5E59C 
 2816      841B8121 
 2816      0C0C84
 2817 0467 0BDD93F2 		.ascii	"\013\335\223\362\374h\000A\210\000\273\204\033\002\253"
 2817      FC680041 
 2817      8800BB84 
 2817      1B02AB
 2818 0476 900B4118 		.ascii	"\220\013A\030\216\033\000{\350\000@\330\222\013\214"
 2818      8E1B007B 
 2818      E80040D8 
 2818      920B8C
 2819 0485 1B680044 		.ascii	"\033h\000D\262\2011B\242\360\214\206#\362\234B\022}"
 2819      B2813142 
 2819      A2F08C86 
 2819      23F29C42 
 2819      127D
 2820 0497 85C1C3F2 		.ascii	"\205\301\303\362\200\346\206J\016\347\006X\016f\006"
 2820      80E6864A 
 2820      0EE70658 
 2820      0E6606
 2821 04a6 460EE1C0 		.ascii	"F\016\341\300\010Tg\206D\016\340\300\000\304\002\304"
 2821      08546786 
 2821      440EE0C0 
 2821      00C402C4 
 2822 04b6 60578A03 		.ascii	"`W\212\003\341\300\362\220B\022]\223\206\003\362\210"
 2822      E1C0F290 
 2822      42125D93 
 2822      8603F288 
 2823 04c6 4212E500 		.ascii	"B\022\345\000\004\312\301|\002\024\334\000@\020\204"
 2823      04CAC17C 
 2823      0214DC00 
 2823      401084
 2824 04d5 8004CACC 		.ascii	"\200\004\312\314\200\004 \311\010\000\024\301|\002\024"
 2824      800420C9 
 2824      080014C1 
 2824      7C0214
 2825 04e4 8000045A 		.ascii	"\200\000\004Z\255\210\006\024 \001\006\006\000\004\300"
 2825      AD880614 
 2825      20010606 
 2825      0004C0
 2826 04f3 00021489 		.ascii	"\000\002\024\211\210@\002\211\010\335\223\231\214\345"
 2826      88400289 
 2826      08DD9399 
 2826      8CE5
 2827 0501 0004CAC0 		.ascii	"\000\004\312\300\000\002\006\300\000\000\006\204\200"
 2827      000206C0 
 2827      00000684 
 2827      80
 2828 050e 04CACC80 		.ascii	"\004\312\314\200\004 \311\210\000\024\300\000\002\006"
 2828      0420C988 
 2828      0014C000 
 2828      0206
ARM GAS  C:\Temp\ccVQrAGa.s 			page 61


 2829 051c 8000045A 		.ascii	"\200\000\004Z\255\210\006\024 \001\006\006\000\004\300"
 2829      AD880614 
 2829      20010606 
 2829      0004C0
 2830 052b 00021489 		.ascii	"\000\002\024\211\210@\002\211\210\335\223\231\214\201"
 2830      88400289 
 2830      88DD9399 
 2830      8C81
 2831 0539 41610B06 		.ascii	"Aa\013\006\024\212%\341\033v\200v\200\004\004\010\205"
 2831      148A25E1 
 2831      1B768076 
 2831      80040408 
 2831      85
 2832 054a 81410630 		.ascii	"\201A\0060\2443\004\004l\004\240=\341\204\241;\206\345"
 2832      A4330404 
 2832      6C04A03D 
 2832      E184A13B 
 2832      86E5
 2833 055c C88C0214 		.ascii	"\310\214\002\024d\004\0300\344\010C\032$\010\0300\240"
 2833      64041830 
 2833      E408431A 
 2833      24081830 
 2833      A0
 2834 056d 8402140A 		.ascii	"\204\002\024\012\300!\313\031Z\354\004\202E\340\004"
 2834      C021CB19 
 2834      5AEC0482 
 2834      45E004
 2835 057c C247401D 		.ascii	"\302G@\035\034\200\010D\221\204@\002'\374J\230]\223"
 2835      1C800844 
 2835      91844002 
 2835      27FC4A98 
 2835      5D93
 2836 058e C3177FE5 		.ascii	"\303\027\177\345\210\013}U\200K\301\303\210;\372\000"
 2836      880B7D55 
 2836      804BC1C3 
 2836      883BFA00 
 2837 059e 040C8111 		.ascii	"\004\014\201\021\000k\350\004PH\341\240@\206\000\025"
 2837      006BE804 
 2837      5048E1A0 
 2837      40860015 
 2838 05ae 8004A11B 		.ascii	"\200\004\241\033\340<\3348B\010h\004W\310\301\303\214"
 2838      E03CDC38 
 2838      42086804 
 2838      57C8C1C3 
 2838      8C
 2839 05bf 0BFA0404 		.ascii	"\013\372\004\004|t\251FNI\016\300\020\300\020t\251\210"
 2839      7C74A946 
 2839      4E490EC0 
 2839      10C01074 
 2839      A988
 2840 05d1 25893DCD 		.ascii	"%\211=\315\024\315\004\005\012\315$J\000\340\200\204"
 2840      14CD0405 
 2840      0ACD244A 
 2840      00E08084 
 2841 05e1 25F00CE4 		.ascii	"%\360\014\344\000\012:`\001\000\230\004 \200\000\301"
 2841      000A3A60 
 2841      01009804 
ARM GAS  C:\Temp\ccVQrAGa.s 			page 62


 2841      208000C1 
 2842 05f1 16EC04F8 		.ascii	"\026\354\004\370\014\000J\004 \376e\351-\354\020\376"
 2842      0C004A04 
 2842      20FE65E9 
 2842      2DEC10FE 
 2843 0601 85C11EE0 		.ascii	"\205\301\036\340\004\004\312\200\000EHE\310\301\026"
 2843      0404CA80 
 2843      00454845 
 2843      C8C116
 2844 0610 FBF587FC 		.ascii	"\373\365\207\374\341\230AFa\221C\006\200\036\300\000"
 2844      E1984146 
 2844      61914306 
 2844      801EC000 
 2845 0620 81119B01 		.ascii	"\201\021\233\001\2011\201!\350\004J\210\214E\241\013"
 2845      81318121 
 2845      E8044A88 
 2845      8C45A10B 
 2846 0630 74A906CE 		.ascii	"t\251\006\316HN\300\020\300\020t\251\212E\211=\315\024"
 2846      484EC010 
 2846      C01074A9 
 2846      8A45893D 
 2846      CD14
 2847 0642 CD04050A 		.ascii	"\315\004\005\012\315$J\000\340\200\206%\360\014\360"
 2847      CD244A00 
 2847      E0808625 
 2847      F00CF0
 2848 0651 0C4C10E4 		.ascii	"\014L\020\344\030JZ\344\000\012:\240\000\001(`\001\000"
 2848      184A5AE4 
 2848      000A3AA0 
 2848      00012860 
 2848      0100
 2849 0663 A8C55080 		.ascii	"\250\305P\200\000\354\004\004 \000J\301V\376E\370\014"
 2849      00EC0404 
 2849      20004AC1 
 2849      56FE45F8 
 2849      0C
 2850 0674 0420C554 		.ascii	"\004 \305T\351-\354\020\376e\301^\340\004\004\312\200"
 2850      E92DEC10 
 2850      FE65C15E 
 2850      E00404CA 
 2850      80
 2851 0685 004588C1 		.ascii	"\000E\210\301V\305P\207\374E\210G\206\373e\010\360\341"
 2851      56C55087 
 2851      FC458847 
 2851      86FB6508 
 2851      F0E1
 2852 0697 908C4EE4 		.ascii	"\220\214N\3440\341\244\014F\341\244\016F\202E\217m\002"
 2852      30E1A40C 
 2852      46E1A40E 
 2852      4682458F 
 2852      6D02
 2853 06a9 3AD91400 		.ascii	":\331\024\000h\344\000\200\000`\001\3748B\010\201a\377"
 2853      68E40080 
 2853      006001FC 
 2853      38420881 
 2853      61FF
 2854 06bb 650046E1 		.ascii	"e\000F\341kL\010\341\244\213\004\3348\376$\211\024\350"
ARM GAS  C:\Temp\ccVQrAGa.s 			page 63


 2854      6B4C08E1 
 2854      A48B04DC 
 2854      38FE2489 
 2854      14E8
 2855 06cd 6C6568E1 		.ascii	"leh\341\244\014F\341\244\016F\202E\217m\002:\331\024"
 2855      A40C46E1 
 2855      A40E4682 
 2855      458F6D02 
 2855      3AD914
 2856 06e0 0068E400 		.ascii	"\000h\344\000\200\000`\001\3748B\010ux\377e\014|\357"
 2856      80006001 
 2856      FC384208 
 2856      7578FF65 
 2856      0C7CEF
 2857 06f3 FCDD93F2 		.ascii	"\374\335\223\362\004\200U\241\033\012\000\203\021@\006"
 2857      048055A1 
 2857      1B0A0083 
 2857      114006
 2858 0702 E550404A 		.ascii	"\345P@J\374\022\327\364\340\320\301\303\202\265\301"
 2858      FC12D7F4 
 2858      E0D0C1C3 
 2858      82B5C1
 2859 0711 C3C1C3F4 		.ascii	"\303\301\303\364\004\013?\364\004\013/\364\004\013\037"
 2859      040B3FF4 
 2859      040B2FF4 
 2859      040B1F
 2860 0720 F4040B0F 		.ascii	"\364\004\013\017\012P\2015@Z\354@D\006\340\274Dj\274"
 2860      0A508135 
 2860      405AEC40 
 2860      4406E0BC 
 2860      446ABC
 2861 0733 22404AA0 		.ascii	"\"@J\240\220\300\000 \211\355\210@\032 \001\001\230"
 2861      90C00020 
 2861      89ED8840 
 2861      1A200101 
 2861      98
 2862 0744 0AFFC000 		.ascii	"\012\377\300\000\301\303\364\004\301\303\301\303\364"
 2862      C1C3F404 
 2862      C1C3C1C3 
 2862      F4
 2863 0751 040BF5F4 		.ascii	"\004\013\365\364\004\013\345\364\004\013\325\364\004"
 2863      040BE5F4 
 2863      040BD5F4 
 2863      04
 2864 075e 0BC5F404 		.ascii	"\013\305\364\004\013\265\364\004\013\245\364\004\013"
 2864      0BB5F404 
 2864      0BA5F404 
 2864      0B
 2865 076b 95F4040B 		.ascii	"\225\364\004\013\205\012\377\201U\012P\364\004\327\344"
 2865      850AFF81 
 2865      550A50F4 
 2865      04D7E4
 2866 077a EC80D7B4 		.ascii	"\354\200\327\264\327\324\327\224\327\244\327t\327\204"
 2866      D7D4D794 
 2866      D7A4D774 
 2866      D784
 2867 0788 820B9464 		.ascii	"\202\013\224d\372\000\\\010\370<\004L\344@\004\212!"
ARM GAS  C:\Temp\ccVQrAGa.s 			page 64


 2867      FA005C08 
 2867      F83C044C 
 2867      E440048A 
 2867      21
 2868 0799 2B80A582 		.ascii	"+\200\245\202\025\200;F\022\201\365\006J\371\200\202"
 2868      15803B46 
 2868      1281F506 
 2868      4AF98082 
 2869 07a9 B5F80C04 		.ascii	"\265\370\014\004 \200;\004J\354\004\305H\344\000E\210"
 2869      20803B04 
 2869      4AEC04C5 
 2869      48E40045 
 2869      88
 2870 07ba CD460C4C 		.ascii	"\315F\014L\207\374\335\223\360<l@\012 I'\341\301\004"
 2870      87FCDD93 
 2870      F03C6C40 
 2870      0A204927 
 2870      E1C104
 2871 07cd 208ACF   		.ascii	" \212\317"
 2872 07d0 06C06C04 		.ascii	"\006\300l\004\004J\344@H\022d\000\0003\360\214\002u"
 2872      044AE440 
 2872      48126400 
 2872      0033F08C 
 2872      0275
 2873 07e2 806B0285 		.ascii	"\200k\002\205\360\020\002\225\370\014\002\245\370\010"
 2873      F0100295 
 2873      F80C02A5 
 2873      F808
 2874 07f0 4C75F804 		.ascii	"Lu\370\004L\205\360\020L\225\370\014L\245\370\010D\010"
 2874      4C85F010 
 2874      4C95F80C 
 2874      4CA5F808 
 2874      4408
 2875 0802 F8044452 		.ascii	"\370\004DR\207\370\351-\361\260\012 \206\225\305'l\020"
 2875      87F8E92D 
 2875      F1B00A20 
 2875      8695C527 
 2875      6C10
 2876 0814 61880E54 		.ascii	"a\210\016T\354\004\014 d\004\030p\344\000\014J\004t"
 2876      EC040C20 
 2876      64041870 
 2876      E4000C4A 
 2876      0474
 2877 0826 44C74242 		.ascii	"D\307BB\340\210\206{p\260\335\216\321\204\207\374M\210"
 2877      E088867B 
 2877      70B0DD8E 
 2877      D18487FC 
 2877      4D88
 2878 0838 71884452 		.ascii	"q\210DR\241+\2303\367\345\354\365\210\033!+\367\245"
 2878      A12B9833 
 2878      F7E5ECF5 
 2878      881B212B 
 2878      F7A5
 2879 084a EC75E100 		.ascii	"\354u\341\000\000\014\370\004\004\014x\014\000\012\202"
 2879      000CF804 
 2879      040C780C 
 2879      000A82
ARM GAS  C:\Temp\ccVQrAGa.s 			page 65


 2880 0859 25803B94 		.ascii	"%\200;\224\245\241+\004 M\026\006J\354\004\376%\370"
 2880      A5A12B04 
 2880      204D1606 
 2880      4AEC04FE 
 2880      25F8
 2881 086b 0C9095E9 		.ascii	"\014\220\225\351-z\200\010\024\344@\004\212\340\240"
 2881      2D7A8008 
 2881      14E44004 
 2881      8AE0A0
 2882 087a 0A440854 		.ascii	"\012D\010T\250_\006\365\340\300\014$\252O\012 a\220"
 2882      A85F06F5 
 2882      E0C00C24 
 2882      AA4F0A20 
 2882      6190
 2883 088c 61C1EC40 		.ascii	"a\301\354@\354\004\014`\014J\012\317N2\344\000\206+"
 2883      EC040C60 
 2883      0C4A0ACF 
 2883      4E32E400 
 2883      862B
 2884 089e 70B0E440 		.ascii	"p\260\344@\006p\360\020DE\370\014DE\370\010DE\370\004"
 2884      0670F010 
 2884      4445F80C 
 2884      4445F808 
 2884      4445F804 
 2885 08b2 444587FC 		.ascii	"DE\207\374L\010\361\260DR\206\225\351-\371\301\007Q"
 2885      4C08F1B0 
 2885      44528695 
 2885      E92DF9C1 
 2885      0751
 2886 08c4 4A52A453 		.ascii	"JR\244S\004S\372\260\354\020\004 \016$\010QEW\341\210"
 2886      0453FAB0 
 2886      EC100420 
 2886      0E240851 
 2886      4557E188 
 2887 08d8 E4041870 		.ascii	"\344\004\030pl\004\014P\340\210\012td\000\014J\335N"
 2887      6C040C50 
 2887      E0880A74 
 2887      64000C4A 
 2887      DD4E
 2888 08ea 867B87FC 		.ascii	"\206{\207\374M\310\252#D\307\241+\2303\004 \202\005"
 2888      4DC8AA23 
 2888      44C7A12B 
 2888      98330420 
 2888      8205
 2889 08fc 044AEC04 		.ascii	"\004J\354\004\315\026\344\000\207\374E\310\360\004\014"
 2889      CD16E400 
 2889      87FC45C8 
 2889      F0040C
 2890 090b 0CC1C3DD 		.ascii	"\014\301\303\335\223\376|\004\014\004J\000{@r\340\020"
 2890      93FE7C04 
 2890      0C044A00 
 2890      7B4072E0 
 2890      10
 2891 091c 1EF07988 		.ascii	"\036\360y\210\000\014\355 \000\032b\000\021\016\370"
 2891      000CED20 
 2891      001A6200 
 2891      110EF8
ARM GAS  C:\Temp\ccVQrAGa.s 			page 66


 2892 092b 0C1B0E82 		.ascii	"\014\033\016\202\213 \001\000&^\005\300\000@\000 5#"
 2892      8B200100 
 2892      265E05C0 
 2892      00400020 
 2892      3523
 2893 093d 3EEF8D5E 		.ascii	">\357\215^\027\244\013\235.\340\374#\210\241\016\000"
 2893      17A40B9D 
 2893      2EE0FC23 
 2893      88A10E00 
 2894 094d 24C000C4 		.ascii	"$\300\000\304\033a\210\300;}Az\020B\022\372\020F2\204"
 2894      1B6188C0 
 2894      3B7D417A 
 2894      104212FA 
 2894      10463284 
 2895 0961 13003382 		.ascii	"\023\0003\202\021>\036\2021|>\000 \031\036\227>\354"
 2895      113E1E82 
 2895      317C3E00 
 2895      20191E97 
 2895      3EEC
 2896 0973 040084FE 		.ascii	"\004\000\204\376\016\257\213a\204T\012\025\216.\245"
 2896      0EAF8B61 
 2896      84540A15 
 2896      8E2EA5
 2897 0982 E68A0080 		.ascii	"\346\212\000\200\216\243\020\212l\004@\012\344\244V"
 2897      8EA3108A 
 2897      6C04400A 
 2897      E4A456
 2898 0991 72E68A40 		.ascii	"r\346\212@pp\200\242\265\334\000\000\204\017\276#\264"
 2898      707080A2 
 2898      B5DC0000 
 2898      840FBE23 
 2898      B4
 2899 09a2 E18CE68A 		.ascii	"\341\214\346\212L\012`\204\000d\360\230Pr\216\003\015"
 2899      4C0A6084 
 2899      0064F098 
 2899      50728E03 
 2899      0D
 2900 09b3 0E8E0B0B 		.ascii	"\016\216\013\013\016V\010\220\033\023\216\3748\013\204"
 2900      0E560890 
 2900      1B138EFC 
 2900      380B84
 2901 09c2 809B901B 		.ascii	"\200\233\220\033\220\013\3748V\010\202\235\377\021\240"
 2901      900BFC38 
 2901      5608829D 
 2901      FF11A0
 2902 09d1 0D82850E 		.ascii	"\015\202\205\016\013\204\325\243$\220\033\3748D\010"
 2902      0B84D5A3 
 2902      24901BFC 
 2902      384408
 2903 09e0 8E0B210D 		.ascii	"\216\013!\015\201\305\202\205\202u\241\015\220\033\016"
 2903      81C58285 
 2903      8275A10D 
 2903      901B0E
 2904 09ef 0B4408A3 		.ascii	"\013D\010\243$!\015\3748\200E\216\013\223\016\220\013"
 2904      24210DFC 
 2904      3880458E 
 2904      0B930E90 
ARM GAS  C:\Temp\ccVQrAGa.s 			page 67


 2904      0B
 2905 0a00 50A22C0B 		.ascii	"P\242,\013#d\361\230\360\230V\242\220\013\013\016L\010"
 2905      2364F198 
 2905      F09856A2 
 2905      900B0B0E 
 2905      4C08
 2906 0a12 941B009B 		.ascii	"\224\033\000\233\3748\011\276\224\013L\010\226\033\377"
 2906      FC3809BE 
 2906      940B4C08 
 2906      961BFF
 2907 0a21 11FC3882 		.ascii	"\021\3748\202\245\202\235\204\325\240\015\220\013\011"
 2907      A5829D84 
 2907      D5A00D90 
 2907      0B09
 2908 0a2f 648C1BA3 		.ascii	"d\214\033\243$\3748D\010\001\325\241\015\234\000P`\202"
 2908      24FC3844 
 2908      0801D5A1 
 2908      0D9C0050 
 2908      6082
 2909 0a41 55A10D90 		.ascii	"U\241\015\220\013\011\244\224\033\243$\3748D\010\200"
 2909      0B09A494 
 2909      1BA324FC 
 2909      38440880 
 2910 0a51 55A10D8F 		.ascii	"U\241\015\217\264\220\253\215\024\213\224\226\223\243"
 2910      B490AB8D 
 2910      148B9496 
 2910      93A3
 2911 0a5f 64718440 		.ascii	"dq\204@\262\215\016\222\033\3748L\010\222\013\000\213"
 2911      B28D0E92 
 2911      1BFC384C 
 2911      08920B00 
 2911      8B
 2912 0a70 4C08961B 		.ascii	"L\010\226\033\377\021\3748\202\305\202\215\240\015\025"
 2912      FF11FC38 
 2912      82C5828D 
 2912      A00D15
 2913 0a7f 840D6486 		.ascii	"\204\015d\206\025\243$\226\033D\010\214\013\241\015"
 2913      15A32496 
 2913      1B44088C 
 2913      0BA10D
 2914 0a8e FC384CB0 		.ascii	"\3748L\260\001\345\025\204\234\000\202u\241\015\226"
 2914      01E51584 
 2914      9C008275 
 2914      A10D96
 2915 0a9d 1B0D648C 		.ascii	"\033\015d\214\013\243$\3748D\010\200\225\241\015\214"
 2915      0BA324FC 
 2915      38440880 
 2915      95A10D8C 
 2916 0aad BB013593 		.ascii	"\273\0015\223\004\222\273\224\033#dL\010\223\016\000"
 2916      0492BB94 
 2916      1B23644C 
 2916      08930E00 
 2917 0abd 9BFC3896 		.ascii	"\233\3748\226\033\224\013\3748L\010\202\235\377\021"
 2917      1B940BFC 
 2917      384C0882 
 2917      9DFF11
 2918 0acc A00D8285 		.ascii	"\240\015\202\205\023\244\204\325\243$\226\033D\010\224"
ARM GAS  C:\Temp\ccVQrAGa.s 			page 68


 2918      13A484D5 
 2918      A324961B 
 2918      440894
 2919 0adb 0BA10DFC 		.ascii	"\013\241\015\3748\201\325\202\245\202u\241\015\226\033"
 2919      3881D582 
 2919      A58275A1 
 2919      0D961B
 2920 0aea 13648C0B 		.ascii	"\023d\214\013\243$\3748D\010V`\241\015\226\253\234\000"
 2920      A324FC38 
 2920      44085660 
 2920      A10D96AB 
 2920      9C00
 2921 0afc 002A9B04 		.ascii	"\000*\233\004\001\030\340\000\200\000@\001\340\374\036"
 2921      0118E000 
 2921      80004001 
 2921      E0FC1E
 2922 0b0b 07171484 		.ascii	"\007\027\024\2045\002J\216\013\200$\344\000\301>\250"
 2922      35024A8E 
 2922      0B8024E4 
 2922      00C13EA8 
 2923 0b1b 344308E9 		.ascii	"4C\010\351.\203\005\207\374\250\024\234\004\250\016"
 2923      2E830587 
 2923      FCA8149C 
 2923      04A80E
 2924 0b2a 9C1E1914 		.ascii	"\234\036\031\024\201\265\002J\216\013\200(\344\000\301"
 2924      81B5024A 
 2924      8E0B8028 
 2924      E400C1
 2925 0b39 36A83843 		.ascii	"6\2508C\010\351&\035\024\207\374\354\004\000\200P\012"
 2925      08E9261D 
 2925      1487FCEC 
 2925      04008050 
 2925      0A
 2926 0b4a 81614072 		.ascii	"\201a@rf\206\033\016\360\204\016\203\200\253\220\273"
 2926      66861B0E 
 2926      F0840E83 
 2926      80AB90BB 
 2927 0b5a 809B8CD5 		.ascii	"\200\233\214\325\326\255\216\033\024\013D\010\243$\240"
 2927      D6AD8E1B 
 2927      140B4408 
 2927      A324A0
 2928 0b69 0DFC38A1 		.ascii	"\015\3748\241\013\212\365\235\004\222\005\241\013\215"
 2928      0B8AF59D 
 2928      049205A1 
 2928      0B8D
 2929 0b77 B5C0401E 		.ascii	"\265\300@\036\005\001(\210\325\200\000@\001\340\374"
 2929      05012888 
 2929      D5800040 
 2929      01E0FC
 2930 0b86 1E071724 		.ascii	"\036\007\027$\204U\226\033\220\013\344\000\004J\200"
 2930      8455961B 
 2930      900BE400 
 2930      044A80
 2931 0b95 448434C1 		.ascii	"D\2044\301>\305N\207\374E\010\254\004\203\025\254\036"
 2931      3EC54E87 
 2931      FC4508AC 
 2931      048315AC 
ARM GAS  C:\Temp\ccVQrAGa.s 			page 69


 2931      1E
 2932 0ba6 A01481C5 		.ascii	"\240\024\201\305\240\016\226\013\031$\004J\220\033\200"
 2932      A00E960B 
 2932      1924044A 
 2932      901B80
 2933 0bb5 38E400C1 		.ascii	"8\344\000\301F\204HE\010\3056!\004\207\374\200\203\203"
 2933      46844845 
 2933      08C53621 
 2933      0487FC80 
 2933      8383
 2934 0bc7 61D6AD80 		.ascii	"a\326\255\200\263\026\013\224\365\243$\216\033\3748"
 2934      B3160B94 
 2934      F5A3248E 
 2934      1BFC38
 2935 0bd6 4408F2C5 		.ascii	"D\010\362\305\241\015@\001\003\230\036\007\200\000\216"
 2935      A10D4001 
 2935      03981E07 
 2935      80008E
 2936 0be5 35E0FC96 		.ascii	"5\340\374\226\013\027$\004J\224\033\2044\344\000\305"
 2936      0B172404 
 2936      4A941B84 
 2936      34E400C5 
 2937 0bf5 4E804445 		.ascii	"N\200DE\010\301>\207\205\207\374@\001\001(\036\007\200"
 2937      08C13E87 
 2937      8587FC40 
 2937      0101281E 
 2937      0780
 2938 0c07 008455E0 		.ascii	"\000\204U\340\374\224\013\027$\004J\222\033\2044\344"
 2938      FC940B17 
 2938      24044A92 
 2938      1B8434E4 
 2939 0c17 00C54E80 		.ascii	"\000\305N\200DE\010\301>\203\025\207\374\250\024\244"
 2939      444508C1 
 2939      3E831587 
 2939      FCA814A4 
 2940 0c27 04A80EA4 		.ascii	"\004\250\016\244\036\031$\201\305\224\033\222\013\344"
 2940      1E192481 
 2940      C5941B92 
 2940      0BE4
 2941 0c35 00044A84 		.ascii	"\000\004J\204H\2008\3056\301F\207\374E\010\203a\035"
 2941      488038C5 
 2941      36C14687 
 2941      FC450883 
 2941      611D
 2942 0c47 04719580 		.ascii	"\004q\225\200\223\250\004\200\243\250\036\254\024\201"
 2942      93A80480 
 2942      A3A81EAC 
 2942      1481
 2943 0c55 C5AC0E94 		.ascii	"\305\254\016\224\013\031$\004J\226\033\2008\344\000"
 2943      0B192404 
 2943      4A961B80 
 2943      38E400
 2944 0c64 C1468448 		.ascii	"\301F\204HE\010\3056\035\004\207\374!\004\203ao5\200"
 2944      4508C536 
 2944      1D0487FC 
 2944      21048361 
 2944      6F3580
ARM GAS  C:\Temp\ccVQrAGa.s 			page 70


 2945 0c77 A31D1480 		.ascii	"\243\035\024\200\263\225\004\241k\346\206@\012\000\000"
 2945      B39504A1 
 2945      6BE68640 
 2945      0A0000
 2946 0c86 0E88F080 		.ascii	"\016\210\360\200Xrq\234B\222\361\244@\242\222+\001\035"
 2946      5872719C 
 2946      4292F1A4 
 2946      40A2922B 
 2946      011D
 2947 0c98 44A00E3B 		.ascii	"D\240\016;F\220\234\000H\"\234\000\241K\361\214\036"
 2947      46909C00 
 2947      48229C00 
 2947      A14BF18C 
 2947      1E
 2948 0ca9 078A2542 		.ascii	"\007\212%B\242`\374\204U\361\220\3751EGD\"\310+\216"
 2948      A260FC84 
 2948      55F190FD 
 2948      31454744 
 2948      22C82B8E 
 2949 0cbd 3B7A0C82 		.ascii	";z\014\202!\210#\344\000\004J\204T\214D\305N\315^\207"
 2949      218823E4 
 2949      00044A84 
 2949      548C44C5 
 2949      4ECD5E87 
 2950 0cd1 FC450808 		.ascii	"\374E\010\0100\2035\375Ql\004\202!$C\372\024HB&#\210"
 2950      308335FD 
 2950      516C0482 
 2950      212443FA 
 2950      14484226 
 2951 0ce7 23044A8E 		.ascii	"#\004J\216;\214H\344\000\315V\204XE\010\305F\035$\207"
 2951      3B8C48E4 
 2951      00CD5684 
 2951      584508C5 
 2951      461D2487 
 2952 0cfb FCF1A042 		.ascii	"\374\361\240B\302\361\254R\202D\222\244\023\241+\373"
 2952      C2F1AC52 
 2952      824492A4 
 2952      13A12BFB 
 2953 0d0b 841E078C 		.ascii	"\204\036\007\214E\204\265\340\374a\210\002$B;\375A\361"
 2953      4584B5E0 
 2953      FC618802 
 2953      24423BFD 
 2953      41F1
 2954 0d1d 8844C2FA 		.ascii	"\210D\302\372\020F2\0020\2023\002J\344\004\2504\344"
 2954      10463202 
 2954      30823302 
 2954      4AE404A8 
 2954      34E4
 2955 0d2f 00E94E88 		.ascii	"\000\351N\210DC\010\311>\203\265\207\374\006\260~\024"
 2955      444308C9 
 2955      3E83B587 
 2955      FC06B07E 
 2955      14
 2956 0d40 3033EC04 		.ascii	"03\354\004\220\023\202!B\022\270\023\3751z\214\372\014"
 2956      90138221 
 2956      4212B813 
 2956      FD317A8C 
ARM GAS  C:\Temp\ccVQrAGa.s 			page 71


 2956      FA0C
 2957 0d52 4612F184 		.ascii	"F\022\361\204B2\344\000\002JF\302(X\016H\361\210\354"
 2957      4232E400 
 2957      024A46C2 
 2957      28580E48 
 2957      F188EC
 2958 0d65 0404208E 		.ascii	"\004\004 \216V\351F\207\374B\010\230k\035\024\202E\302"
 2958      56E94687 
 2958      FC420898 
 2958      6B1D1482 
 2958      45C2
 2959 0d77 0DEFF87E 		.ascii	"\015\357\370~\010\216\013\000\033\2434\235$\357\374"
 2959      088E0B00 
 2959      1BA3349D 
 2959      24EFFC
 2960 0d86 5C68C29D 		.ascii	"\\h\302\235\235\024}X\250\005\222\013o\370\361\244N"
 2960      9D147D58 
 2960      A805920B 
 2960      6FF8F1A4 
 2960      4E
 2961 0d97 62808B1D 		.ascii	"b\200\213\035$\371\210@r\000\012\021\004^\007\370\014"
 2961      24F98840 
 2961      72000A11 
 2961      045E07F8 
 2961      0C
 2962 0da8 1B0EE0FC 		.ascii	"\033\016\340\374\300\000\000&@4^\005\036\010\357\215"
 2962      C0000026 
 2962      40345E05 
 2962      1E08EF8D 
 2963 0db8 408A9FFC 		.ascii	"@\212\237\374\204\015\346\212\016\003\240\305\360\210"
 2963      840DE68A 
 2963      0E03A0C5 
 2963      F088
 2964 0dc6 50720024 		.ascii	"Pr\000$\031\016D\033\341\210@;\375!\372\010B\022D2\035"
 2964      190E441B 
 2964      E188403B 
 2964      FD21FA08 
 2964      42124432 
 2965 0ddb 348023FA 		.ascii	"4\200#\372\010\344\004\026 \014\020\206\023\316\215"
 2965      08E40416 
 2965      200C1086 
 2965      13CE8D
 2966 0dea E404909B 		.ascii	"\344\004\220\233\212\305\222\253!\224\224\033#$\222"
 2966      8AC592AB 
 2966      2194941B 
 2966      232492
 2967 0df9 0B9493FC 		.ascii	"\013\224\223\3748D\010\210u\243\015\241\013\233\004"
 2967      38440888 
 2967      75A30DA1 
 2967      0B9B04
 2968 0e08 1E0782E5 		.ascii	"\036\007\202\345\2045\340\374d\000\026J\226\033\222"
 2968      8435E0FC 
 2968      6400164A 
 2968      961B92
 2969 0e17 0B8034A8 		.ascii	"\013\2004\250$\301.\351>\207\374C\010\250\004\203\005"
 2969      24C12EE9 
 2969      3E87FC43 
ARM GAS  C:\Temp\ccVQrAGa.s 			page 72


 2969      08A80483 
 2969      05
 2970 0e28 A81EA414 		.ascii	"\250\036\244\024\201\265\244\016d\000\014J\214\033\222"
 2970      81B5A40E 
 2970      64000C4A 
 2970      8C1B92
 2971 0e37 0B8038A8 		.ascii	"\013\2008\250(\301&\3516\207\374C\010\364\265\316\235"
 2971      28C126E9 
 2971      3687FC43 
 2971      08F4B5CE 
 2971      9D
 2972 0e48 19049D04 		.ascii	"\031\004\235\004\301\215\200\203\207\325\362\265\202"
 2972      C18D8083 
 2972      87D5F2B5 
 2972      82
 2973 0e55 0D1BB48E 		.ascii	"\015\033\264\216%\231\316\374\204\276d\202\201\202a"
 2973      2599CEFC 
 2973      84BE6482 
 2973      818261
 2974 0e64 8AC5CEBD 		.ascii	"\212\305\316\275!\224\226\233#$\222\253\224\223\224"
 2974      2194969B 
 2974      232492AB 
 2974      949394
 2975 0e73 1B440892 		.ascii	"\033D\010\222\013\243\015\3748\001\030\210u\200\000"
 2975      0BA30DFC 
 2975      38011888 
 2975      758000
 2976 0e82 4001E0FC 		.ascii	"@\001\340\374\036\007\020J\2045\222\013d\000\250$\220"
 2976      1E07104A 
 2976      8435920B 
 2976      6400A824 
 2976      90
 2977 0e93 1BE93E80 		.ascii	"\033\351>\2004C\010\301.\203\005\207\374\244\024\250"
 2977      344308C1 
 2977      2E830587 
 2977      FCA414A8 
 2978 0ea3 04A40EA8 		.ascii	"\004\244\016\250\036\014J\201\265\222\013d\000\250("
 2978      1E0C4A81 
 2978      B5920B64 
 2978      00A828
 2979 0eb2 8C1BE936 		.ascii	"\214\033\3516\2008C\010\301&\316\235\207\374\235\004"
 2979      80384308 
 2979      C126CE9D 
 2979      87FC9D04 
 2980 0ec2 F4B580B3 		.ascii	"\364\265\200\263\031\004\362\265\301\275\345 \036\360"
 2980      1904F2B5 
 2980      C1BDE520 
 2980      1EF0
 2981 0ed0 F67C0C0C 		.ascii	"\366|\014\014\301\303\335\223\004\374\200[@\006\342"
 2981      C1C3DD93 
 2981      04FC805B 
 2981      4006E2
 2982 0edf C0D56EFC 		.ascii	"\300\325n\374\022\325\216\325~@Z\325\236B\006\340\274"
 2982      12D58ED5 
 2982      7E405AD5 
 2982      9E4206E0 
 2982      BC
ARM GAS  C:\Temp\ccVQrAGa.s 			page 73


 2983 0ef0 D5AEBC22 		.ascii	"\325\256\274\"\325\336\325\276Bj\325\356@J\240\220\300"
 2983      D5DED5BE 
 2983      426AD5EE 
 2983      404AA090 
 2983      C0
 2984 0f01 002089ED 		.ascii	"\000 \211\355\210@\032 \001\001x\301\303\300\000\301"
 2984      88401A20 
 2984      010178C1 
 2984      C3C000C1 
 2985 0f11 C3C1C3F0 		.ascii	"\303\301\303\360\004K\205\360\004K\225\360\004K\245"
 2985      044B85F0 
 2985      044B95F0 
 2985      044BA5
 2986 0f20 F0044BB5 		.ascii	"\360\004K\265\360\004K\305\360\004K\325\360\004K\345"
 2986      F0044BC5 
 2986      F0044BD5 
 2986      F0044BE5 
 2987 0f30 F0044BF5 		.ascii	"\360\004K\365\302\037\201\245\325\036\325\036\325\036"
 2987      C21F81A5 
 2987      D51ED51E 
 2987      D51E
 2988 0f3e D51ED51E 		.ascii	"\325\036\325\036\325\036\325\036\325\036\340\320@J\202"
 2988      D51ED51E 
 2988      D51EE0D0 
 2988      404A82
 2989 0f4d B5D52EC1 		.ascii	"\265\325.\301\303\301\303K\017\301\303K\037\360\004"
 2989      C3C1C34B 
 2989      0FC1C34B 
 2989      1FF004
 2990 0f5c 4B2FF004 		.ascii	"K/\360\004K?\360\004\201e\360\004\325\036\302\037\325"
 2990      4B3FF004 
 2990      8165F004 
 2990      D51EC21F 
 2990      D5
 2991 0f6d 1ED51E94 		.ascii	"\036\325\036\224\376\325\036\335\223\201\001\340\004"
 2991      FED51EDD 
 2991      938101E0 
 2991      04
 2992 0f7a 1986A3CD 		.ascii	"\031\206\243\315\301\303\030J\202\245CF\340\000\002"
 2992      C1C3184A 
 2992      82A54346 
 2992      E00002
 2993 0f89 15E19842 		.ascii	"\025\341\230B\005\200\000A\376\200\000\277\377\037\375"
 2993      05800041 
 2993      FE8000BF 
 2993      FF1FFD
 2994 0f98 4346DD93 		.ascii	"CF\335\223\204\024\341\230"
 2994      8414E198 
 2995 0fa0 41FE84CE 		.ascii	"A\376\204\316\377\377\177\375\301\303\335\223\376|\004"
 2995      FFFF7FFD 
 2995      C1C3DD93 
 2995      FE7C04
 2996 0faf 0C6C401E 		.ascii	"\014l@\036\360|\016\202k\341\240@\206\002\005\200\024"
 2996      F07C0E82 
 2996      6BE1A040 
 2996      86020580 
 2996      14
ARM GAS  C:\Temp\ccVQrAGa.s 			page 74


 2997 0fc0 A10BE148 		.ascii	"\241\013\341H\002\020\232\345\300\001e!\276\024\276"
 2997      02109AE5 
 2997      C0016521 
 2997      BE14BE
 2998 0fcf 1E808BFE 		.ascii	"\036\200\213\376\036\243\015\242\004@\033\222U\024\000"
 2998      1EA30DA2 
 2998      04401B92 
 2998      551400
 2999 0fde FD214E12 		.ascii	"\375!N\022d\004D\007\372\010\020\003\224s\344\000\016"
 2999      64044407 
 2999      FA081003 
 2999      9473E400 
 2999      0E
 3000 0fef 6AE61016 		.ascii	"j\346\020\026\000\241k\024\013\024\000\000\345\026\025"
 3000      00A16B14 
 3000      0B140000 
 3000      E51615
 3001 0ffe EC048D1B 		.ascii	"\354\004\215\033\340\200\"\024\212\365\354\010\000\000"
 3001      E0802214 
 3001      8AF5EC08 
 3001      0000
 3002 100c F8801625 		.ascii	"\370\200\026%P\005\203\253\002\006\000\004V\025\300"
 3002      500583AB 
 3002      02060004 
 3002      5615C0
 3003 101b 00A12B58 		.ascii	"\000\241+X\200\020\025\210%\2031a\210\0004\"\224\200"
 3003      80101588 
 3003      25833161 
 3003      88003422 
 3003      9480
 3004 102d 1FE88082 		.ascii	"\037\350\200\202e\241\033\341\214\020\025,\024\200\037"
 3004      65A11BE1 
 3004      8C10152C 
 3004      14801F
 3005 103c 8205A11B 		.ascii	"\202\005\241\033D\010\202\013\201u\3748\3748D\010\374"
 3005      4408820B 
 3005      8175FC38 
 3005      FC384408 
 3005      FC
 3006 104d 048145FC 		.ascii	"\004\201E\3748D\010\201\233\242\004\376\004\2105\221"
 3006      38440881 
 3006      9BA204FE 
 3006      04883591 
 3007 105d 0B80044E 		.ascii	"\013\200\004Nh\206\265?\377G\345\354\020\026\260\241"
 3007      6886B53F 
 3007      FF47E5EC 
 3007      1016B0A1 
 3008 106d 0B8101A2 		.ascii	"\013\201\001\242\004\206%\241\013 \004\241\013\202\265"
 3008      048625A1 
 3008      0B2004A1 
 3008      0B82B5
 3009 107c FE748465 		.ascii	"\376t\204e\220\013\034\016h\001@\010\234\204\300\000"
 3009      900B1C0E 
 3009      68014008 
 3009      9C84C000 
 3010 108c E875A18B 		.ascii	"\350u\241\213~\216\201\225\346\325\241\013\276\004\201"
 3010      7E8E8195 
ARM GAS  C:\Temp\ccVQrAGa.s 			page 75


 3010      E6D5A10B 
 3010      BE0481
 3011 109b 55A10B80 		.ascii	"U\241\013\200\004\240\361\344\365\366|\014\014\301\303"
 3011      04A0F1E4 
 3011      F5F67C0C 
 3011      0CC1C3
 3012 10aa DD93E100 		.ascii	"\335\223\341\000\000\014\372\000\000L\203\001\000\033"
 3012      000CFA00 
 3012      004C8301 
 3012      001B
 3013 10b8 EFFC7608 		.ascii	"\357\374v\010\201\005\301C\372\200\002\024\000\006\341"
 3013      8105C143 
 3013      FA800214 
 3013      0006E1
 3014 10c7 1B000694 		.ascii	"\033\000\006\224\"\335\223\324b\370\000\004\014lP\036"
 3014      22DD93D4 
 3014      62F80004 
 3014      0C6C501E 
 3015 10d7 F0E47C03 		.ascii	"\360\344|\003J\202k<^\374\036\276^Bf\216\005\014J\360"
 3015      4A826B3C 
 3015      5EFC1EBE 
 3015      5E42668E 
 3015      050C4AF0 
 3016 10eb 02063464 		.ascii	"\002\0064d|^\025\372\200J\016\000\004^%\237\374\006"
 3016      7C5E15FA 
 3016      804A0E00 
 3016      045E259F 
 3016      FC06
 3017 10fd 1A00081E 		.ascii	"\032\000\010\036%\344\000D\"\200\004^%\230\024\036%"
 3017      25E40044 
 3017      2280045E 
 3017      2598141E 
 3017      25
 3018 110e 80001E55 		.ascii	"\200\000\036U\200\000JP\200\010D\"\220|^%\231\224\036"
 3018      80004A50 
 3018      80084422 
 3018      907C5E25 
 3018      99941E
 3019 1121 25800442 		.ascii	"%\200\004B \200\004\030\024\234\000@\000<\265\2744\030"
 3019      20800418 
 3019      149C0040 
 3019      003CB5BC 
 3019      3418
 3020 1133 14024400 		.ascii	"\024\002D\000\325\341\033\372\200\334<\030\304\3422"
 3020      D5E11BFA 
 3020      80DC3C18 
 3020      C4E232
 3021 1142 0066420E 		.ascii	"\000fB\016(\361\300\020`\001\014\014\214+\207u\360\000"
 3021      28F1C010 
 3021      60010C0C 
 3021      8C2B8775 
 3021      F000
 3022 1154 017E28F1 		.ascii	"\001~(\361\014\014\377\370\335\223\360\000l@\036\360"
 3022      0C0CFFF8 
 3022      DD93F000 
 3022      6C401EF0 
 3023 1164 E47C014A 		.ascii	"\344|\001J\276.\274.\206\205\374.\344|\000\012D\006"
ARM GAS  C:\Temp\ccVQrAGa.s 			page 76


 3023      BE2EBC2E 
 3023      8685FC2E 
 3023      E47C000A 
 3023      4406
 3024 1176 84453E2E 		.ascii	"\204E>.\360\002\374\036\301!\204\037\276\024\274\024"
 3024      F002FC1E 
 3024      C121841F 
 3024      BE14BC14 
 3025 1186 BC1EBE29 		.ascii	"\274\036\276)\374$\276\036\244\037\000\006\276\024\201"
 3025      FC24BE1E 
 3025      A41F0006 
 3025      BE1481
 3026 1195 55E206F8 		.ascii	"U\342\006\370~@\006\360\376\000\006]\223\201\001\177"
 3026      7E4006F0 
 3026      FE00065D 
 3026      9381017F 
 3027 11a5 E5A0F1FF 		.ascii	"\345\240\361\377\370\001\256\342\300\004\034\004\037"
 3027      F801AEE2 
 3027      C0041C04 
 3027      1F
 3028 11b2 C111F07C 		.ascii	"\301\021\360|D\000\002\034\244\037\335\223\343@\344"
 3028      4400021C 
 3028      A41FDD93 
 3028      E340E4
 3029 11c1 7C040A40 		.ascii	"|\004\012@\210\004$\000\000\006\016\0100\200\020H\022"
 3029      88042400 
 3029      00060E08 
 3029      30801048 
 3029      12
 3030 11d2 04105802 		.ascii	"\004\020X\002\320\210\002\006q\220\377\374`\000\000"
 3030      D0880206 
 3030      7190FFFC 
 3030      600000
 3031 11e1 C483C702 		.ascii	"\304\203\307\002\017\360\200p\001B\300a\013\337\374"
 3031      0FF08070 
 3031      0142C061 
 3031      0BDFFC
 3032 11f0 73FD40C0 		.ascii	"s\375@\300H\007\300\003\000\245\320\027]\223\242\017"
 3032      4807C003 
 3032      00A5D017 
 3032      5D93A20F 
 3033 1200 FFF8018E 		.ascii	"\377\370\001\216`\001\002\206\242\017\370\000@\006\220"
 3033      60010286 
 3033      A20FF800 
 3033      400690
 3034 120f 0EA10DFC 		.ascii	"\016\241\015\374\022@\006\202\305\241\015\374\032@\006"
 3034      12400682 
 3034      C5A10DFC 
 3034      1A4006
 3035 121e 82150206 		.ascii	"\202\025\002\006\374\012\300 `\001\200u\203\015\363"
 3035      FC0AC020 
 3035      60018075 
 3035      830DF3
 3036 122d 72004681 		.ascii	"r\000F\201\001]\223\372|\004\014\3540\036\360\206K\010"
 3036      015D93FA 
 3036      7C040CEC 
 3036      301EF086 
ARM GAS  C:\Temp\ccVQrAGa.s 			page 77


 3036      4B08
 3037 123f 8B81713E 		.ascii	"\213\201q>.@Z\000k|~\345\006BZ\2011\210+e\206\357\370"
 3037      2E405A00 
 3037      6B7C7EE5 
 3037      06425A81 
 3037      31882B65 
 3038 1256 4F6867D1 		.ascii	"Ohg\321\000\000D\206@\001B\022\340<\2011r\234\357\370"
 3038      00004486 
 3038      40014212 
 3038      E03C8131 
 3038      729CEFF8 
 3039 126a 45680000 		.ascii	"Eh\000\000\027\244\300\004d\001r\234B\022\031t\327\007"
 3039      17A4C004 
 3039      6401729C 
 3039      42121974 
 3039      D707
 3040 127c E0D41614 		.ascii	"\340\324\026\024\377\001 \277\000\024\001\273W\376\341"
 3040      FF0120BF 
 3040      001401BB 
 3040      57FEE1
 3041 128b ACA10B1F 		.ascii	"\254\241\013\037\374`8\024\011\337\374W\376\201\021"
 3041      FC603814 
 3041      09DFFC57 
 3041      FE8111
 3042 129a 1B940AF0 		.ascii	"\033\224\012\360\034$\025\004\344 \276D\241\013\200"
 3042      1C241504 
 3042      E420BE44 
 3042      A10B80
 3043 12a9 08001B06 		.ascii	"\010\000\033\006\024\200\004\220\033{\000\350\000C\310"
 3043      14800490 
 3043      1B7B00E8 
 3043      0043C8
 3044 12b8 FC04BC0E 		.ascii	"\374\004\274\016\340\030\016Ih4\252$P\202\240\033\216"
 3044      E0180E49 
 3044      6834AA24 
 3044      5082A01B 
 3044      8E
 3045 12c9 0B7B9068 		.ascii	"\013{\220h8Jh>\016\214K\205\005\201\241\016)\331\012"
 3045      384A683E 
 3045      0E8C4B85 
 3045      0581A10E 
 3045      29D90A
 3046 12dc 42BAE01C 		.ascii	"B\272\340\034H\272\345\002\006 e\202\203\001\344\034"
 3046      48BAE502 
 3046      06206582 
 3046      8301E41C 
 3047 12ec 0203A70F 		.ascii	"\002\003\247\017BB\201\021\220!r\204\357\370PH\177\375"
 3047      42428111 
 3047      90217284 
 3047      EFF85048 
 3047      7FFD
 3048 12fe 45FE82A1 		.ascii	"E\376\202\241@?A\376\305\015\000?\037\375A\376\241\033"
 3048      403F41FE 
 3048      C50D003F 
 3048      1FFD41FE 
 3048      A11B
 3049 1310 C03F1FFD 		.ascii	"\300?\037\375\221\255\345\016\276\004\370\025\036\005"
ARM GAS  C:\Temp\ccVQrAGa.s 			page 78


 3049      91ADE50E 
 3049      BE04F815 
 3049      1E05
 3050 131e A10B98F1 		.ascii	"\241\013\230\361\000\000\362|\014\014\301\303\335\223"
 3050      0000F27C 
 3050      0C0CC1C3 
 3050      DD93
 3051 132c 5896211B 		.ascii	"X\226!\033\002\024\340\010\030\006@\254D*\300\000\241"
 3051      0214E008 
 3051      180640AC 
 3051      442AC000 
 3051      A1
 3052 133d 4B410600 		.ascii	"KA\006\000\000\002\006\200\010X\226\377\021\202e\002"
 3052      00020680 
 3052      085896FF 
 3052      11826502 
 3053 134d 44023D60 		.ascii	"D\002=`7\341\004\221\200\002\024B\032\206\023 #\340"
 3053      37E10491 
 3053      80021442 
 3053      1A861320 
 3053      23E0
 3054 135f 92822398 		.ascii	"\222\202#\230\013\335\223\224.\372\004\004L\201\021"
 3054      0BDD9394 
 3054      2EFA0404 
 3054      4C8111
 3055 136e 026B6000 		.ascii	"\002k`\000E\006f\330\214\013\201qo\370f\000\000`\344"
 3055      450666D8 
 3055      8C0B8171 
 3055      6FF86600 
 3055      0060E4
 3056 1381 C0026091 		.ascii	"\300\002`\221!\001\245\004 \006~@s\354\004Bu\370 \301"
 3056      2101A504 
 3056      20067E40 
 3056      73EC0442 
 3056      75F820C1 
 3057 1395 7CF008FC 		.ascii	"|\360\010\374\365\241+\177\364A\016\3408\003\006`(\005"
 3057      F5A12B7F 
 3057      F4410EE0 
 3057      38030660 
 3057      2805
 3058 13a7 06FFD447 		.ascii	"\006\377\324G\016Hb\201\365\000\000q\200\222~\354 H"
 3058      0E486281 
 3058      F5000071 
 3058      80927EEC 
 3058      2048
 3059 13b9 62107E10 		.ascii	"b\020~\020~\360\210\360\204Hb\202\021\020v\207\013\210"
 3059      7EF088F0 
 3059      84486282 
 3059      11107687 
 3059      0B88
 3060 13cb 2141F6FC 		.ascii	"!A\366\3745\201\021`\014o@L\001gD\000`c\230\300\003"
 3060      35811160 
 3060      0C6F404C 
 3060      01674400 
 3060      606398C0 
 3061 13e0 8F216FF8 		.ascii	"\217!o\370ea\000`\002`@\010\300\003ga\005\006\001\225"
 3061      65610060 
ARM GAS  C:\Temp\ccVQrAGa.s 			page 79


 3061      02604008 
 3061      C0036761 
 3061      05060195 
 3062 13f4 067EE008 		.ascii	"\006~\340\010\354\004\004 \360\010Bu\241+\301|\014L"
 3062      EC040420 
 3062      F0084275 
 3062      A12BC17C 
 3062      0C4C
 3063 1406 FE35DD93 		.ascii	"\3765\335\223\362\004o\321\000\031\241\033\300\005\000"
 3063      F2046FD1 
 3063      0019A11B 
 3063      C00500
 3064 1415 098245C0 		.ascii	"\011\202E\300\006`-\363\360@\000\000\014\251\013\335"
 3064      06602DF3 
 3064      F0400000 
 3064      0CA90BDD 
 3065 1425 93E20081 		.ascii	"\223\342\000\201\001]\223\360\200D\022\354p\004)\204"
 3065      015D93F0 
 3065      804412EC 
 3065      70042984 
 3066 1435 05A12BE0 		.ascii	"\005\241+\340<\002)\346\202@*\002\011\200\023\300\005"
 3066      3C0229E6 
 3066      82402A02 
 3066      098013C0 
 3066      05
 3067 1446 6B71EC14 		.ascii	"kq\354\024\000\000\344\010\000\312\342\000\000\014]"
 3067      0000E408 
 3067      00CAE200 
 3067      000C5D
 3068 1455 93DD93C1 		.ascii	"\223\335\223\301\303\201\001\370\004\004\014`<\0029"
 3068      C38101F8 
 3068      04040C60 
 3068      3C0239
 3069 1464 67700210 		.ascii	"gp\002\020\012\004\300\003\004 `\214\004U\346@X\"|\024"
 3069      0A04C003 
 3069      0420608C 
 3069      0455E640 
 3069      58227C14 
 3070 1478 463AF094 		.ascii	"F:\360\224\201qf\202\0104\262d\3027`\210\374\020\002"
 3070      81716682 
 3070      0834B264 
 3070      C2376088 
 3070      FC1002
 3071 148b 45486288 		.ascii	"EHb\210S\206\023r\234\010\0042N0^\340\210\002\023\204"
 3071      53861372 
 3071      9C080432 
 3071      4E305EE0 
 3071      88021384 
 3072 149f 4340016C 		.ascii	"C@\001l\001\0105\200#\2023\342\000\342\000H5\354\000"
 3072      01083580 
 3072      238233E2 
 3072      00E20048 
 3072      35EC00
 3073 14b2 04094401 		.ascii	"\004\011D\001\202\001\014\014\354\000\335\223\360\004"
 3073      82010C0C 
 3073      EC00DD93 
 3073      F004
ARM GAS  C:\Temp\ccVQrAGa.s 			page 80


 3074 14c0 FE04040C 		.ascii	"\376\004\004\014H\"\010k!K\371\214\010e\212{\340\010"
 3074      4822086B 
 3074      214BF98C 
 3074      08658A7B 
 3074      E008
 3075 14d2 48966184 		.ascii	"H\226a\204\010$\340\374\0124\0124*O\210\003\341\204"
 3075      0824E0FC 
 3075      0A340A34 
 3075      2A4F8803 
 3075      E184
 3076 14e4 6FF47188 		.ascii	"o\364q\210\362\204BRd\034CJB\032\201AAj\340\034B\012"
 3076      F2844252 
 3076      641C434A 
 3076      421A8141 
 3076      416AE01C 
 3077 14fa E418421A 		.ascii	"\344\030B\032\345\200B\012\341\210\011\004\355\200\334"
 3077      E580420A 
 3077      E1880904 
 3077      ED80DC
 3078 1509 004C00DC 		.ascii	"\000L\000\334\000N\020\200n\202~\014\014\210\013\335"
 3078      004E1080 
 3078      6E827E0C 
 3078      0C880BDD 
 3079 1519 93F604F8 		.ascii	"\223\366\004\370\000\004Lg\375\000%\201Q@\001\206D\204"
 3079      00044C67 
 3079      FD002581 
 3079      51400186 
 3079      4484
 3080 152b 34E01802 		.ascii	"4\340\030\002\305o\311\000!\2043@\005`P\002k\362\224"
 3080      C56FC900 
 3080      21843340 
 3080      05605002 
 3080      6BF294
 3081 153e 48426FCD 		.ascii	"HBo\315\000\001\002U\300\005\204\303`\034\202a\006N"
 3081      00010255 
 3081      C00584C3 
 3081      601C8261 
 3081      064E
 3082 1550 42C5843E 		.ascii	"B\305\204>\200S`\030\340\034BU\340PBc\360\000\014L\301"
 3082      80536018 
 3082      E01C4255 
 3082      E0504263 
 3082      F0000C4C 
 3083 1565 C3DD9360 		.ascii	"\303\335\223`<\0029\310D\201\301F:\312T\3047\346\202"
 3083      3C0239C8 
 3083      4481C146 
 3083      3ACA54C4 
 3083      37E682
 3084 1578 06358233 		.ascii	"\0065\2023\206C\347\334r\260FR\312>\200\023\002\001"
 3084      8643E7DC 
 3084      72B04652 
 3084      CA3E8013 
 3084      0201
 3085 158a C84E0435 		.ascii	"\310N\0045\352p\2003\340 \340 D5\340T\004;\353p\002"
 3085      EA708033 
 3085      E020E020 
 3085      4435E054 
ARM GAS  C:\Temp\ccVQrAGa.s 			page 81


 3085      043BEB70 
 3086 159f 01E02404 		.ascii	"\001\340$\004\025D3\2021\200\023\340T\340$D\025\301"
 3086      15443382 
 3086      318013E0 
 3086      54E02444 
 3086      15C1
 3087 15b1 C3DD93E0 		.ascii	"\303\335\223\340<\0029\340X\004K\346\202@:\340\024\004"
 3087      3C0239E0 
 3087      58044BE6 
 3087      82403AE0 
 3087      1404
 3088 15c3 358013C4 		.ascii	"5\200\023\304\007\347\334\002\005\340\020\004\025\201"
 3088      07E7DC02 
 3088      05E01004 
 3088      1581
 3089 15d1 01001372 		.ascii	"\001\000\023r\200@2D\005\202AD\025\340\024DC\340\020"
 3089      80403244 
 3089      05824144 
 3089      15E01444 
 3089      43E010
 3090 15e4 DD93E058 		.ascii	"\335\223\340X`X\000)\0129\204[\012I\357@\0029\357D@"
 3090      60580029 
 3090      0A39845B 
 3090      0A49EF40 
 3090      0239EF44 
 3091 15f9 0160514A 		.ascii	"\001`QJ!\307-\310-O@oHJ!\344\240\010\000ODJ!\0005\302"
 3091      21C72DC8 
 3091      2D4F406F 
 3091      484A21E4 
 3091      A008004F 
 3092 1613 37861360 		.ascii	"7\206\023` `0\002\303g`\012P\002\023\300\003\230\013"
 3092      20603002 
 3092      C367600A 
 3092      500213C0 
 3092      03980B
 3093 1626 E0C0E000 		.ascii	"\340\300\340\000$h\372<\004\014\204k\002{`P\016+\016"
 3093      2468FA3C 
 3093      040C846B 
 3093      027B6050 
 3093      0E2B0E
 3094 1639 AB81810E 		.ascii	"\253\201\201\016\233\340T\030\216\340X\232\216\241+"
 3094      9BE05418 
 3094      8EE0589A 
 3094      8EA12B
 3095 1648 4C23D88E 		.ascii	"L#\330\216L\243\340\030L\223\340\034\204\305\340 \006"
 3095      4CA3E018 
 3095      4C93E01C 
 3095      84C5E020 
 3095      06
 3096 1659 241C049E 		.ascii	"$\034\004\236\024\341\204\2011\006\003o\364e\210\362"
 3096      14E18481 
 3096      3106036F 
 3096      F46588F2 
 3097 1669 A0421267 		.ascii	"\240B\022g\375\000\212A\376\307\377\000\001\037\375"
 3097      FD008A41 
 3097      FEC7FF00 
 3097      011FFD
ARM GAS  C:\Temp\ccVQrAGa.s 			page 82


 3098 1678 41FEA11B 		.ascii	"A\376\241\033\300\001\037\375\024\012\230\016\004\244"
 3098      C0011FFD 
 3098      140A980E 
 3098      04A4
 3099 1686 680084C5 		.ascii	"h\000\204\305\373\200\006$\\\004\336\024\341\204\201"
 3099      FB800624 
 3099      5C04DE14 
 3099      E18481
 3100 1695 3106036F 		.ascii	"1\006\003o\364c\350\362\240B\022g\375\000\212A\376\307"
 3100      F463E8F2 
 3100      A0421267 
 3100      FD008A41 
 3100      FEC7
 3101 16a7 FF00011F 		.ascii	"\377\000\001\037\375A\376\241\033\300\001\037\375\022"
 3101      FD41FEA1 
 3101      1BC0011F 
 3101      FD12
 3102 16b5 0A9A0E04 		.ascii	"\012\232\016\004\224h\000\206\005\373\200`\020\016\005"
 3102      94680086 
 3102      05FB8060 
 3102      100E05
 3103 16c4 E1840624 		.ascii	"\341\204\006$\340\024\016\025\2011\006\003o\364b(\362"
 3103      E0140E15 
 3103      81310603 
 3103      6FF46228 
 3103      F2
 3104 16d5 A0421267 		.ascii	"\240B\022g\375\000\212A\376\307\377\000\001\037\375"
 3104      FD008A41 
 3104      FEC7FF00 
 3104      011FFD
 3105 16e4 41FEA11B 		.ascii	"A\376\241\033\300\001\037\375\014\014\330\016\335\223"
 3105      C0011FFD 
 3105      0C0CD80E 
 3105      DD93
 3106 16f2 F23CF804 		.ascii	"\362<\370\004\004\014\204;\001\001F\001\212\006\216"
 3106      040C843B 
 3106      01014601 
 3106      8A068E
 3107 1701 06F00802 		.ascii	"\006\360\010\002\013\214\006\241\013\340P\002\305\210"
 3107      0B8C06A1 
 3107      0BE05002 
 3107      C588
 3108 170f 45060460 		.ascii	"E\006\004`\030\177Q\341\204\206k\246KL@\212\315\030"
 3108      187F51E1 
 3108      84866BA6 
 3108      4B4C408A 
 3108      CD18
 3109 1721 639C00FF 		.ascii	"c\234\000\377\370\030\016\340\202Nj\340\034\002eJr\012"
 3109      F8180EE0 
 3109      824E6AE0 
 3109      1C02654A 
 3109      720A
 3110 1733 6D4640FA 		.ascii	"mF@\3720\012R\034\000\010V\351\374@:\2143@\002\340\202"
 3110      300A521C 
 3110      000856E9 
 3110      FC403A8C 
 3110      334002E0 
ARM GAS  C:\Temp\ccVQrAGa.s 			page 83


 3111 1748 0002FA30 		.ascii	"\000\002\3720\212\006\351\374\340T\002\013\210E\241"
 3111      8A06E9FC 
 3111      E054020B 
 3111      8845A1
 3112 1757 0B602002 		.ascii	"\013` \002\305\341\204\006\004\246K\177Q\212\315\206"
 3112      C5E18406 
 3112      04A64B7F 
 3112      518ACD86 
 3113 1767 6B9C004C 		.ascii	"k\234\000L@`$\002\305"
 3113      40602402 
 3113      C5
 3114 1770 4C6A9863 		.ascii	"Lj\230c\002\016`\202\212\315\377\370\034\000F@\372\004"
 3114      020E6082 
 3114      8ACDFFF8 
 3114      1C004640 
 3114      FA04
 3115 1782 4C620A62 		.ascii	"Lb\012b\0303@:\351\374\310V\340\202\372\004@\002\351"
 3115      1833403A 
 3115      E9FCC856 
 3115      E082FA04 
 3115      4002E9
 3116 1795 FC00020C 		.ascii	"\374\000\002\014\014\312\006\335\223\360\004\370\034"
 3116      0CCA06DD 
 3116      93F004F8 
 3116      1C
 3117 17a2 040C8904 		.ascii	"\004\014\211\004\204z\004\211\206\032\326X\340\020\200"
 3117      847A0489 
 3117      861AD658 
 3117      E01080
 3118 17b1 7C8898C8 		.ascii	"|\210\230\310\310\212x\004)\312h\002\034\340\024\341"
 3118      C88A7804 
 3118      29CA6802 
 3118      1CE014E1 
 3119 17c1 84028460 		.ascii	"\204\002\204`\020@Q\012$\230\023\302\027a\204\002\020"
 3119      1040510A 
 3119      249813C2 
 3119      17618402 
 3119      10
 3120 17d2 0C534011 		.ascii	"\014S@\021\354\004\302W`\034l\004\002P@\021\302\207"
 3120      EC04C257 
 3120      601C6C04 
 3120      02504011 
 3120      C287
 3121 17e4 C2276020 		.ascii	"\302'` `(@!f@\004@\006\031\300\003\2011`8\340\024@\221"
 3121      60284021 
 3121      66400440 
 3121      0619C003 
 3121      81316038 
 3122 17fc E0184071 		.ascii	"\340\030@q\340$@\201IH\201\225\354\004\0120\354\004"
 3122      E0244081 
 3122      49488195 
 3122      EC040A30 
 3122      EC04
 3123 180e 02104640 		.ascii	"\002\020F@\311]\241\033\234\000@1\374\365\201\001`,"
 3123      C95DA11B 
 3123      9C004031 
 3123      FCF58101 
ARM GAS  C:\Temp\ccVQrAGa.s 			page 84


 3123      602C
 3124 1820 F01C0C0C 		.ascii	"\360\034\014\014\301\303\335\223\360\200F\"\354p\006"
 3124      C1C3DD93 
 3124      F0804622 
 3124      EC7006
 3125 182f 3986A5A1 		.ascii	"9\206\245\241;\340<\0049\346\202@:\360\200F\"kq\006"
 3125      3BE03C04 
 3125      39E68240 
 3125      3AF08046 
 3125      226B7106 
 3126 1843 390630C0 		.ascii	"9\0060\300\005\342=\354\024\302\007\204\025\004\003"
 3126      05E23DEC 
 3126      14C20784 
 3126      150403
 3127 1852 8023C002 		.ascii	"\200#\300\002c\271\206\022\204\"A\032\205\015@\012\340"
 3127      63B98612 
 3127      8422411A 
 3127      850D400A 
 3127      E0
 3128 1863 04000CE1 		.ascii	"\004\000\014\341\204\335\223\342\000\201\001]\223\372"
 3128      84DD93E2 
 3128      0081015D 
 3128      93FA
 3129 1871 7C040CEC 		.ascii	"|\004\014\354p\036\360\201a\035\004\210\213|^\220\033"
 3129      701EF081 
 3129      611D0488 
 3129      8B7C5E90 
 3129      1B
 3130 1882 7E1E0006 		.ascii	"~\036\000\006>\016\213n\340\004\3408\004\271\201E\211"
 3130      3E0E8B6E 
 3130      E004E038 
 3130      04B98145 
 3130      89
 3131 1893 6E000045 		.ascii	"n\000\000En\241\013\354\004|\004\376\225\022 \207A@"
 3131      6EA10BEC 
 3131      047C04FE 
 3131      95122087 
 3131      4140
 3132 18a5 036571E6 		.ascii	"\003eq\346@\0240fA\0160\200n\300\003\302n\202N\000\006"
 3132      40143066 
 3132      410E3080 
 3132      6EC003C2 
 3132      6E824E00 
 3133 18ba 406EBE14 		.ascii	"@n\276\024\340\010\206N\204\016\304n\306n\234(\205\345"
 3133      E008864E 
 3133      840EC46E 
 3133      C66E9C28 
 3133      85E5
 3134 18cc 86A5A12B 		.ascii	"\206\245\241+\000\011\376\004\301-\340\020>\024\202"
 3134      0009FE04 
 3134      C12DE010 
 3134      3E1482
 3135 18db 45E00800 		.ascii	"E\340\010\000F\207\001\004\016\244\010\206\016\306\016"
 3135      46870104 
 3135      0EA40886 
 3135      0EC60E
 3136 18ea C46E06F0 		.ascii	"\304n\006\360*\024(\004\344@\177\375I\376<>\317\377"
ARM GAS  C:\Temp\ccVQrAGa.s 			page 85


 3136      2A142804 
 3136      E4407FFD 
 3136      49FE3C3E 
 3136      CFFF
 3137 18fc 5E188131 		.ascii	"^\030\2011\201Qo\374\201\225\211\004\203\001|$\210\016"
 3137      81516FFC 
 3137      81958904 
 3137      83017C24 
 3137      880E
 3138 190e 8711A418 		.ascii	"\207\021\244\030\212\036\312\036\310n\026\260a\016\002"
 3138      8A1ECA1E 
 3138      C86E16B0 
 3138      610E02
 3139 191d 91EC0482 		.ascii	"\221\354\004\202q\220\241\364U\241\273\270\361|\004"
 3139      7190A1F4 
 3139      55A1BBB8 
 3139      F17C04
 3140 192c A10B8004 		.ascii	"\241\013\200\004\300\010L\226\014\014\214\013\335\223"
 3140      C0084C96 
 3140      0C0C8C0B 
 3140      DD93
 3141 193a F27CFA7C 		.ascii	"\362|\372|\004\014\3540\036\360\210k\012\233\200\273"
 3141      040CEC30 
 3141      1EF0886B 
 3141      0A9B80BB 
 3142 194a 067B64D1 		.ascii	"\006{d\321\000\220\204\213@\001\010\220\002\253<\016"
 3142      0090848B 
 3142      40010890 
 3142      02AB3C0E 
 3143 195a E4906491 		.ascii	"\344\220d\221\012\220\016+\300\001xX\214;\241\013\357"
 3143      0A900E2B 
 3143      C0017858 
 3143      8C3BA10B 
 3143      EF
 3144 196b FC98F180 		.ascii	"\374\230\361\200\245\362|\014\014\004\220\335\223\226"
 3144      A5F27C0C 
 3144      0C0490DD 
 3144      9396
 3145 1979 0B64306F 		.ascii	"\013d0o\374e\210|\216\214\033\344\200\020\220\214\033"
 3145      FC65887C 
 3145      8E8C1BE4 
 3145      8010908C 
 3145      1B
 3146 198a 160B6FFC 		.ascii	"\026\013o\374kH<\236\220+|$\226\013\016;\224\033p\030"
 3146      6B483C9E 
 3146      902B7C24 
 3146      960B0E3B 
 3146      941B7018 
 3147 199e 8C4B905B 		.ascii	"\214K\220[o\374\014\014\230\361\335\223\362|\372\034"
 3147      6FFC0C0C 
 3147      98F1DD93 
 3147      F27CFA1C 
 3148 19ae 044C829B 		.ascii	"\004L\202\233\004\213\206{\010koH\020\031g`\004\200"
 3148      048B867B 
 3148      086B6F48 
 3148      10196760 
 3148      0480
ARM GAS  C:\Temp\ccVQrAGa.s 			page 86


 3149 19c0 1209C003 		.ascii	"\022\011\300\003\214;`\020\350\004Yh\340\020\016\005"
 3149      8C3B6010 
 3149      E8045968 
 3149      E0100E05 
 3150 19d0 E0340E1B 		.ascii	"\3404\016\033\357H\020)\340\020\0229\340\214\016I\201"
 3150      EF481029 
 3150      E0101239 
 3150      E08C0E49 
 3150      81
 3151 19e1 01180E4C 		.ascii	"\001\030\016L!\330\034L1\340\030LA\340\034\014L\340"
 3151      21D81C4C 
 3151      31E0184C 
 3151      41E01C0C 
 3151      4CE0
 3152 19f3 20DD93F2 		.ascii	" \335\223\362\034\372|\004L\201\261\023\244n@\002\""
 3152      1CFA7C04 
 3152      4C81B113 
 3152      A46E4002 
 3152      22
 3153 1a04 1174888B 		.ascii	"\021t\210\213(^\206k\017\276\201\221\201U\201!\202!"
 3153      285E866B 
 3153      0FBE8191 
 3153      81558121 
 3153      8221
 3154 1a16 4134FA24 		.ascii	"A4\372$R2\376u\303-A\376\240\235\200?\037\375\200\000"
 3154      5232FE75 
 3154      C32D41FE 
 3154      A09D803F 
 3154      1FFD8000 
 3155 1a2a 540506F0 		.ascii	"T\005\006\360\220\005\222\013dp\220+\012\033\3504^H"
 3155      9005920B 
 3155      6470902B 
 3155      0A1BE834 
 3155      5E48
 3156 1a3c 8E15A10B 		.ascii	"\216\025\241\013\220\033\022\013h4aH\241\013\216+\217"
 3156      901B120B 
 3156      68346148 
 3156      A10B8E2B 
 3156      8F
 3157 1a4d 848C3554 		.ascii	"\204\2145T\265\241\213@\226\000\000\212E\200\010\230"
 3157      B5A18B40 
 3157      9600008A 
 3157      45800898 
 3158 1a5d 1A9C04C7 		.ascii	"\032\234\004\307\007\232*\200\225\303\015\201\001D\015"
 3158      079A2A80 
 3158      95C30D81 
 3158      01440D
 3159 1a6c 40128825 		.ascii	"@\022\210%\004\006p\210B\262\377@\2011r\254\357\364"
 3159      04067088 
 3159      42B2FF40 
 3159      813172AC 
 3159      EFF4
 3160 1a7e 4E2860FC 		.ascii	"N(`\374\004\024$\017\303\007\0011\303\027D8\220+\004"
 3160      0414240F 
 3160      C3070131 
 3160      C3174438 
 3160      902B04
ARM GAS  C:\Temp\ccVQrAGa.s 			page 87


 3161 1a91 04EFF4FF 		.ascii	"\004\357\364\3771`\240\320\027q\007\242\017\007+\037"
 3161      3160A0D0 
 3161      177107A2 
 3161      0F072B1F 
 3162 1aa1 FC45FE45 		.ascii	"\374E\376E\376\241\013\250.\337\374\014L\201\001\335"
 3162      FEA10BA8 
 3162      2EDFFC0C 
 3162      4C8101DD 
 3163 1ab1 93F27CF8 		.ascii	"\223\362|\370\034\004\014\204\003\004\023a\212@\012"
 3163      1C040C84 
 3163      03041361 
 3163      8A400A
 3164 1ac0 421A8211 		.ascii	"B\032\202\021\004 a\212\030\004\354\004\014\004`\210"
 3164      0420618A 
 3164      1804EC04 
 3164      0C046088 
 3165 1ad0 08C5E08C 		.ascii	"\010\305\340\214NR|0\012e\360\230\205\015|\030\312\307"
 3165      4E527C30 
 3165      0A65F098 
 3165      850D7C18 
 3165      CAC7
 3166 1ae2 9E8412C4 		.ascii	"\236\204\022\304\246\303\214\303a|\362\240L\222\014"
 3166      A6C38CC3 
 3166      617CF2A0 
 3166      4C920C
 3167 1af1 041E6E1C 		.ascii	"\004\036n\034\316\340\204\014\313\212c\000\006i\000"
 3167      CEE0840C 
 3167      CB8A6300 
 3167      066900
 3168 1b00 00008000 		.ascii	"\000\000\200\000\203\013\304\004L\303\202\301\366\325"
 3168      830BC404 
 3168      4CC382C1 
 3168      F6D5
 3169 1b0e E900F01C 		.ascii	"\351\000\360\034\014\014\301\303\335\223\370\034\004"
 3169      0C0CC1C3 
 3169      DD93F81C 
 3169      04
 3170 1b1b 0C61FC18 		.ascii	"\014a\374\030$\004\303\242\003\003\307\206\003\013\304"
 3170      2404C3A2 
 3170      0303C786 
 3170      030BC4
 3171 1b2a 81814C0A 		.ascii	"\201\201L\012\270\003\0004a\216\011\004\340\210\360"
 3171      B8030034 
 3171      618E0904 
 3171      E088F0
 3172 1b39 804E420C 		.ascii	"\200NB\014\023\224\216B\032\304g\210ca\216\260\216\200"
 3172      13948E42 
 3172      1AC46788 
 3172      63618EB0 
 3172      8E80
 3173 1b4b 8EC41702 		.ascii	"\216\304\027\002#a\216F*\360\204DBBB\3047\006pp\214"
 3173      23618E46 
 3173      2AF08444 
 3173      424242C4 
 3173      37067070 
 3174 1b60 827BEC10 		.ascii	"\202{\354\020\024\224\331\204\020\223\306m\334\000L"
 3174      1494D984 
ARM GAS  C:\Temp\ccVQrAGa.s 			page 88


 3174      1093C66D 
 3174      DC004C
 3175 1b6f 40DD8494 		.ascii	"@\335\204\224\236\306}0\224N@\020\2230\236\334\000\374"
 3175      9EC67D30 
 3175      944E4010 
 3175      93309EDC 
 3175      00FC
 3176 1b81 35856BC9 		.ascii	"5\205k\311\304\200T\230S\306-D@\000^\203+\334\000\014"
 3176      C4805498 
 3176      53C62D44 
 3176      40005E83 
 3176      2BDC000C 
 3177 1b95 0CFE35DD 		.ascii	"\014\3765\335\223\360\034\376|\004\014\354@\036\360"
 3177      93F01CFE 
 3177      7C040CEC 
 3177      401EF0
 3178 1ba4 4C420813 		.ascii	"LB\010\023Lj\360\200\202\021a\222a\222B\032\340\210"
 3178      4C6AF080 
 3178      82116192 
 3178      6192421A 
 3178      E088
 3179 1bb6 1844D607 		.ascii	"\030D\326\007~>\304g\0314O\376D\027\300\001\177\375"
 3179      7E3EC467 
 3179      19344FFE 
 3179      4417C001 
 3179      7FFD
 3180 1bc8 52520AC3 		.ascii	"RR\012\303>>\360\204\360\230TR\006\300\014~|^\354\020"
 3180      3E3EF084 
 3180      F0985452 
 3180      06C00C7E 
 3180      7C5EEC10 
 3181 1bdc FCA81604 		.ascii	"\374\250\026\004\201\301\001A\201\021\001\201\351d\203"
 3181      81C10141 
 3181      81110181 
 3181      E96483
 3182 1beb F5C6AD7E 		.ascii	"\365\306\255~\004\036\245\312gNb@\010!}\361\200\014"
 3182      041EA5CA 
 3182      674E6240 
 3182      08217DF1 
 3182      800C
 3183 1bfd 068E6BA0 		.ascii	"\006\216k\240-@\000\234\000Lpa|\016d@j\214CXrd.Lj\362"
 3183      2D40009C 
 3183      004C7061 
 3183      7C0E6440 
 3183      6A8C4358 
 3184 1c17 B08083E4 		.ascii	"\260\200\203\344\256r\204Bbd\000\026\260\223\253\300"
 3184      AE728442 
 3184      62640016 
 3184      B093ABC0 
 3185 1c27 0818CAF8 		.ascii	"\010\030\312\3705\030\032\340\000\010*\340\000B\012"
 3185      35181AE0 
 3185      00082AE0 
 3185      00420A
 3186 1c36 E000421A 		.ascii	"\340\000B\032\345\200B\012\341\210\010E\355\200\200"
 3186      E580420A 
 3186      E1880845 
 3186      ED8080
ARM GAS  C:\Temp\ccVQrAGa.s 			page 89


 3187 1c45 08409661 		.ascii	"\010@\226a\204\000D\340\374\004\304\004\304$\017\020"
 3187      840044E0 
 3187      FC04C404 
 3187      C4240F10 
 3188 1c55 03E18442 		.ascii	"\003\341\204B\022\230;\210+r\210\357\360iH\340\000\003"
 3188      12983B88 
 3188      2B7288EF 
 3188      F06948E0 
 3188      0003
 3189 1c67 4A021A3E 		.ascii	"J\002\032>\024\000j\340\000B\012\340\000B\032\345\200"
 3189      14006AE0 
 3189      00420AE0 
 3189      00421AE5 
 3189      80
 3190 1c78 420AE188 		.ascii	"B\012\341\210\000\006\355\200\004\016\300\000\240\361"
 3190      0006ED80 
 3190      040EC000 
 3190      A0F1
 3191 1c86 8101F67C 		.ascii	"\201\001\366|\014\014\301\303\335\223\370|\004\014L"
 3191      0C0CC1C3 
 3191      DD93F87C 
 3191      040C4C
 3192 1c95 520D040C 		.ascii	"R\015\004\014#\360\200\360\224N\022a\226X*\354\004\020"
 3192      23F080F0 
 3192      944E1261 
 3192      96582AEC 
 3192      0410
 3193 1ca7 50C48702 		.ascii	"P\304\207\002q\0303\217$F:\304\307B\002a\226Lj\360\260"
 3193      7118338F 
 3193      24463AC4 
 3193      C7420261 
 3193      964C6AF0 
 3194 1cbc 829B6196 		.ascii	"\202\233a\226a\226Nz\3047\201Qp\214X\002\360\240F\002"
 3194      61964E7A 
 3194      C4378151 
 3194      708C5802 
 3194      F0A04602 
 3195 1cd0 E5A48165 		.ascii	"\345\244\201e\224S\306\235\334\000R\000\376U\231\233"
 3195      9453C69D 
 3195      DC005200 
 3195      FE55999B 
 3196 1ce0 A34D4467 		.ascii	"\243MDg\304w\004c\200\000\014\225R\222\002e\377\221"
 3196      C4770463 
 3196      80000C95 
 3196      52920265 
 3196      FF91
 3197 1cf2 90946024 		.ascii	"\220\224`$I\032\014\225\212\233R\222\240\000\030\236"
 3197      491A0C95 
 3197      8A9B5292 
 3197      A000189E 
 3198 1d02 B1940483 		.ascii	"\261\224\004\203\204s\203\325\377\221\305\264\361\244"
 3198      847383D5 
 3198      FF91C5B4 
 3198      F1A4
 3199 1d10 4AA28AA3 		.ascii	"J\242\212\243\014\245\361\254\002E\200\000\220\224T"
 3199      0CA5F1AC 
 3199      02458000 
ARM GAS  C:\Temp\ccVQrAGa.s 			page 90


 3199      909454
 3200 1d1f A2602449 		.ascii	"\242`$I\032\014\245\212\253T\242\240\000\030\256\261"
 3200      1A0CA58A 
 3200      AB54A2A0 
 3200      0018AEB1 
 3201 1d2f 94E40C59 		.ascii	"\224\344\014Y\032<\001X\000C\032@\000B\000\344\014\300"
 3201      1A3C0158 
 3201      00431A40 
 3201      004200E4 
 3201      0CC0
 3202 1d41 003C0164 		.ascii	"\000<\001d\020\024`U\032\204kL\240\344 L\032\274\000"
 3202      10146055 
 3202      1A846B4C 
 3202      A0E4204C 
 3202      1ABC00
 3203 1d54 3DB8E01C 		.ascii	"=\270\340\034\303\377?\375\014\014\201\001\335\223\360"
 3203      C3FF3FFD 
 3203      0C0C8101 
 3203      DD93F0
 3204 1d63 7CFA7C04 		.ascii	"|\372|\004\014\3540\036\360\3127\000\213\341\374\024"
 3204      0CEC301E 
 3204      F0CA3700 
 3204      8BE1FC14 
 3205 1d73 8400A490 		.ascii	"\204\000\244\220\243\2003\341\004`\242@:\341|\006Ta"
 3205      A38033E1 
 3205      0460A240 
 3205      3AE17C06 
 3205      5461
 3206 1d85 7C180456 		.ascii	"|\030\004V\302\252\003F\002\363\214\0274\371\254A\376"
 3206      C2AA0346 
 3206      02F38C17 
 3206      34F9AC41 
 3206      FE
 3207 1d96 A13B0001 		.ascii	"\241;\000\001\037\375\200\010N\226\012D\220\005\244"
 3207      1FFD8008 
 3207      4E960A44 
 3207      9005A4
 3208 1da5 43617C61 		.ascii	"Ca|a|\030$JR\377!\201qs\260Dr\004]>\036\361\200\022"
 3208      7C18244A 
 3208      52FF2181 
 3208      7173B044 
 3208      72045D3E 
 3209 1dbd 4480CBE0 		.ascii	"D\200\313\340Wa\300\034\000X \363\254Br\340G|>`\204"
 3209      5761C01C 
 3209      005820F3 
 3209      AC4272E0 
 3209      477C3E60 
 3210 1dd2 06B4E1FC 		.ascii	"\006\264\341\374\014\004`\204\004\004V\020\262_@\302"
 3210      0C046084 
 3210      04045610 
 3210      B25F40C2 
 3211 1de2 1C0042B2 		.ascii	"\034\000B\262\360\220\254?r\224\357\360\\\350\002\244"
 3211      F090AC3F 
 3211      7294EFF0 
 3211      5CE802A4 
 3212 1df2 95B4D6B7 		.ascii	"\225\264\326\267|\000\242\203>\024\243\213|4\004\001"
 3212      7C00A283 
ARM GAS  C:\Temp\ccVQrAGa.s 			page 91


 3212      3E14A38B 
 3212      7C340401 
 3213 1e02 0000D617 		.ascii	"\000\000\326\027\200\004\002\004\202\003\226\037\341"
 3213      80040204 
 3213      8203961F 
 3213      E1
 3214 1e0f 7C401A80 		.ascii	"|@\032\200\023\000\002\341\256\000\002\340\000\307\377"
 3214      130002E1 
 3214      AE0002E0 
 3214      00C7FF
 3215 1e1e 6BFD8E0B 		.ascii	"k\375\216\013\014\016\014\014\230\361\335\223\362|\372"
 3215      0C0E0C0C 
 3215      98F1DD93 
 3215      F27CFA
 3216 1e2d 7C040CEC 		.ascii	"|\004\014\354P\036\360\244\023\033t\244\003\011>\212"
 3216      501EF0A4 
 3216      131B74A4 
 3216      03093E8A 
 3217 1e3d 9B1F6446 		.ascii	"\233\037dFr\035\204V:\360\210\210+a\236|N\231\244\026"
 3217      721D8456 
 3217      3AF08888 
 3217      2B619E7C 
 3217      4E99A416 
 3218 1e51 138E4B7E 		.ascii	"\023\216K~\036\226\003!\264\240\023<n\223\035\304\004"
 3218      1E960321 
 3218      B4A0133C 
 3218      6E931DC4 
 3218      04
 3219 1e62 121070A4 		.ascii	"\022\020p\244B\002\002\020\224;\220[l\004\357\374ih"
 3219      42020210 
 3219      943B905B 
 3219      6C04EFFC 
 3219      6968
 3220 1e74 8615A10B 		.ascii	"\206\025\241\013\224;~\024\216K<\276\220[|$\344\004"
 3220      943B7E14 
 3220      8E4B3CBE 
 3220      905B7C24 
 3220      E404
 3221 1e86 00106FFC 		.ascii	"\000\020o\374h\250\241\013\262\003\030\004\202u@\012"
 3221      68A8A10B 
 3221      B2031804 
 3221      8275400A 
 3222 1e96 D677980E 		.ascii	"\326w\230\016\341\036@\012\254\004,\016\341\036\230"
 3222      E11E400A 
 3222      AC042C0E 
 3222      E11E98
 3223 1ea5 248101C2 		.ascii	"$\201\001\302-\254\024@\000L\025\334\000B \300\000V"
 3223      2DAC1440 
 3223      004C15DC 
 3223      004220C0 
 3223      0056
 3224 1eb7 25C0000C 		.ascii	"%\300\000\0145D0\0114\250\361\334\000L5\306-\026\025"
 3224      35443009 
 3224      34A8F1DC 
 3224      004C35C6 
 3224      2D1615
 3225 1eca C000C71D 		.ascii	"\300\000\307\035\300\000\300\000V5\362|\014\014\000"
ARM GAS  C:\Temp\ccVQrAGa.s 			page 92


 3225      C000C000 
 3225      5635F27C 
 3225      0C0C00
 3226 1ed9 0CDD93C0 		.ascii	"\014\335\223\300\000a\001\372|\004\014\354\360\036\360"
 3226      006101FA 
 3226      7C040CEC 
 3226      F01EF0
 3227 1ee8 849B111E 		.ascii	"\204\233\021\036\223N\225^\227>\217\016\263\024\214"
 3227      934E955E 
 3227      973E8F0E 
 3227      B3148C
 3228 1ef7 08191EA1 		.ascii	"\010\031\036\241\013\235\036\201\021\204E\233\036\340"
 3228      0B9D1E81 
 3228      1184459B 
 3228      1EE0
 3229 1f05 04000285 		.ascii	"\004\000\002\205\263\201\023\213\363\231\004\345\200"
 3229      B381138B 
 3229      F39904E5 
 3229      80
 3230 1f12 0000F860 		.ascii	"\000\000\370`@\025\3700@\025@\025\301\036@\025\340,"
 3230      4015F830 
 3230      40154015 
 3230      C11E4015 
 3230      E02C
 3231 1f24 9704E05C 		.ascii	"\227\004\340\\\241\013\202\0101\264\242%\257\204\201"
 3231      A10B8208 
 3231      31B4A225 
 3231      AF8481
 3232 1f33 711324AD 		.ascii	"q\023$\255\244\340\204\000t|\000\004C"
 3232      A4E08400 
 3232      747C0004 
 3232      43
 3233 1f40 F0804222 		.ascii	"\360\200B\"\340\220\002#\202E\204M\006t\031\004\200"
 3233      E0900223 
 3233      8245844D 
 3233      06741904 
 3233      80
 3234 1f51 33E08802 		.ascii	"3\340\210\002U\206\033\204\004\3600\031\004\205\365"
 3234      55861B84 
 3234      04F03019 
 3234      0485F5
 3235 1f60 E0880674 		.ascii	"\340\210\006tDB\011.\015~\372\010\0003\202!\006\033"
 3235      4442092E 
 3235      0D7EFA08 
 3235      00338221 
 3235      061B
 3236 1f72 A823E640 		.ascii	"\250#\346@\0140\3600\002U\002\305\204\004\005\023\340"
 3236      0C30F030 
 3236      025502C5 
 3236      84040513 
 3236      E0
 3237 1f83 60EC0404 		.ascii	"`\354\004\004@\213N\2053\350\0001<p\210N\242\202q\202"
 3237      408B4E85 
 3237      33E80031 
 3237      3C70884E 
 3237      A2827182 
 3238 1f97 21E1AA4E 		.ascii	"!\341\252Nz\020E\304w\210\003\374\034\344D\204\016\214"
ARM GAS  C:\Temp\ccVQrAGa.s 			page 93


 3238      7A1045C4 
 3238      778803FC 
 3238      1CE44484 
 3238      0E8C
 3239 1fa9 5E8853FC 		.ascii	"^\210S\374\034\026E\230\316\210\303\213D\215t Q\211"
 3239      1C164598 
 3239      CE88C38B 
 3239      448D7420 
 3239      5189
 3240 1fbb 24E0880C 		.ascii	"$\340\210\014t\010DKW\014^\373\200\036U\312\015@\002"
 3240      7408444B 
 3240      570C5EFB 
 3240      801E55CA 
 3240      0D4002
 3241 1fce 40300674 		.ascii	"@0\006t\321\224\202!@\210\372\200\030\244\320\224F2"
 3241      D1948221 
 3241      4088FA80 
 3241      18A4D094 
 3241      4632
 3242 1fe0 40604605 		.ascii	"@`F\005\361\220F\"\0064\017\004\000\011\373\000\031"
 3242      F1904622 
 3242      06340F04 
 3242      0009FB00 
 3242      19
 3243 1ff1 04E03080 		.ascii	"\004\3400\200c\241\013\346@\000`\300\000\000%\200\000"
 3243      63A10BE6 
 3243      400060C0 
 3243      00002580 
 3243      00
 3244 2002 04060000 		.ascii	"\004\006\000\000@%\200\000\004\006\246\004\221DPX\204"
 3244      40258000 
 3244      0406A604 
 3244      91445058 
 3244      84
 3245 2013 14E4D008 		.ascii	"\024\344\320\010\360\010\360|N\276N\344\340\225D\274"
 3245      F008F07C 
 3245      4EBE4EE4 
 3245      E09544BC 
 3246 2023 CEE80062 		.ascii	"\316\350\000b\010\202q!\013\2004\036\025\200\300L\025"
 3246      08827121 
 3246      0B80341E 
 3246      1580C04C 
 3246      15
 3247 2034 86189714 		.ascii	"\206\030\227\024\336\325\203}\002\013\200\033\014\014"
 3247      DED5837D 
 3247      020B801B 
 3247      0C0C
 3248 2042 F8F1DD93 		.ascii	"\370\361\335\223\362|\372|\004\014\355\360\036\360\036"
 3248      F27CFA7C 
 3248      040CEDF0 
 3248      1EF01E
 3249 2051 05A90E97 		.ascii	"\005\251\016\227.\340\254\340\264\036%\036\005\235\016"
 3249      2EE0ACE0 
 3249      B41E251E 
 3249      059D0E
 3250 2060 195EE0A0 		.ascii	"\031^\340\240\346@\030 \231Q\025\036\036\005\243\016"
 3250      E6401820 
ARM GAS  C:\Temp\ccVQrAGa.s 			page 94


 3250      9951151E 
 3250      1E05A30E 
 3251 2070 1E15E09C 		.ascii	"\036\025\340\234\036e\340\260\023\016\340\250\036\265"
 3251      1E65E0B0 
 3251      130EE0A8 
 3251      1EB5
 3252 207e 81011E75 		.ascii	"\201\001\036u\340\244\275\016\340\230\271\016\273\016"
 3252      E0A4BD0E 
 3252      E098B90E 
 3252      BB0E
 3253 208c B50EB70E 		.ascii	"\265\016\267\016\261\016\263\016\201E\257\016\012Pq"
 3253      B10EB30E 
 3253      8145AF0E 
 3253      0A5071
 3254 209b 0CA15BEC 		.ascii	"\014\241[\354\004)T\376\225\346@\024 \022\020\033~%"
 3254      042954FE 
 3254      95E64014 
 3254      2012101B 
 3254      7E25
 3255 20ad 6EE4C0E5 		.ascii	"n\344\300\345\200\014@e\001\030P\012P@\002\300\004f"
 3255      800C4065 
 3255      0118500A 
 3255      504002C0 
 3255      0466
 3256 20bf 01101021 		.ascii	"\001\020\020!\316\037^\346@\340\010D\226\201q'>\223"
 3256      CE1F5EE6 
 3256      40E00844 
 3256      96817127 
 3256      3E93
 3257 20d1 95ABBE02 		.ascii	"\225\253\276\002\012\244\024\307\377c\375\241\013\212"
 3257      0AA414C7 
 3257      FF63FDA1 
 3257      0B8A
 3258 20df 0525B486 		.ascii	"\005%\264\206\325\255.\226;\370\300\014\003x0\014\023"
 3258      D5AD2E96 
 3258      3BF8C00C 
 3258      0378300C 
 3258      13
 3259 20f0 A324964B 		.ascii	"\243$\226KkX\251T\241\013\350\000\014\003\202\265\201"
 3259      6B58A954 
 3259      A10BE800 
 3259      0C0382B5 
 3259      81
 3260 2101 2178C078 		.ascii	"!x\300x0\014\023\2534\226Kj\230\241T\241\013\350\000"
 3260      300C13AB 
 3260      34964B6A 
 3260      98A154A1 
 3260      0BE800
 3261 2114 A7348445 		.ascii	"\2474\204E\255$\253\264\342\244\004\012\017\374C\366"
 3261      AD24ABB4 
 3261      E2A4040A 
 3261      0FFC43F6 
 3262 2124 80084496 		.ascii	"\200\010D\226\200\000T\023\210\221\002q\204a\004\241"
 3262      80005413 
 3262      88910271 
 3262      846104A1 
 3263 2134 84810D85 		.ascii	"\204\201\015\205\201!+\264\370\300\014\003\3700\014"
ARM GAS  C:\Temp\ccVQrAGa.s 			page 95


 3263      81212BB4 
 3263      F8C00C03 
 3263      F8300C
 3264 2143 13963B1D 		.ascii	"\023\226;\035Dh\270\237T'4\350\000\255$\241\013 \002"
 3264      4468B89F 
 3264      542734E8 
 3264      00AD24A1 
 3264      0B2002
 3265 2156 F895E5A0 		.ascii	"\370\225\345\240\004\360\006\360\030\022>.\345\320\345"
 3265      04F006F0 
 3265      18123E2E 
 3265      E5D0E5
 3266 2165 B00AF096 		.ascii	"\260\012\360\226\003\021>\341\256@\012\274>\233\264"
 3266      03113EE1 
 3266      AE400ABC 
 3266      3E9BB4
 3267 2174 2B34AD0E 		.ascii	"+4\255\016\241D\226+\357\374L\350\000\360\030\022>\016"
 3267      A144962B 
 3267      EFFC4CE8 
 3267      00F01812 
 3267      3E0E
 3268 2186 E5C0E5E0 		.ascii	"\345\300\345\340\012\360\226+\021\004\251D\2534-\004"
 3268      0AF0962B 
 3268      1104A944 
 3268      AB342D04 
 3269 2196 BC0E4BF8 		.ascii	"\274\016K\370\206\273\227\004\357\374\3400\000\011\204"
 3269      86BB9704 
 3269      EFFCE030 
 3269      000984
 3270 21a5 05A10B65 		.ascii	"\005\241\013ep\000\360\345\200\004\360\012\360\030\022"
 3270      7000F0E5 
 3270      8004F00A 
 3270      F01812
 3271 21b4 3E0EE590 		.ascii	">\016\345\220\274.\226;\233$\255\004J\270\237D\275\004"
 3271      BC2E963B 
 3271      9B24AD04 
 3271      4AB89F44 
 3271      BD04
 3272 21c6 EFFC9924 		.ascii	"\357\374\231$\225\024\273\004\255\016\2654\263\264\204"
 3272      9514BB04 
 3272      AD0EB534 
 3272      B3B484
 3273 21d5 1A910E8B 		.ascii	"\032\221\016\213.\215\256\257\004\223$\211.\261\304"
 3273      2E8DAEAF 
 3273      04932489 
 3273      2EB1C4
 3274 21e4 FCBEFE0E 		.ascii	"\374\276\376\016\276\316\253\264\271D\274>\233\004\267"
 3274      BECEABB4 
 3274      B944BC3E 
 3274      9B04B7
 3275 21f3 549134AD 		.ascii	"T\2214\255$\350\030uh\201\001\000+\361\325\2474\203"
 3275      24E81875 
 3275      68810100 
 3275      2BF1D5A7 
 3275      3483
 3276 2205 7D8E181E 		.ascii	"}\216\030\036\360\330\325\014\014\345\360\335\223\362"
 3276      F0D8D50C 
ARM GAS  C:\Temp\ccVQrAGa.s 			page 96


 3276      0CE5F0DD 
 3276      93F2
 3277 2213 7CFA7C04 		.ascii	"|\372|\004\014\354P\036\360\202\213>.\000P\000\233\031"
 3277      0CEC501E 
 3277      F0828B3E 
 3277      2E005000 
 3277      9B19
 3278 2225 11E76081 		.ascii	"\021\347`\201\205\201!x`@#\354\004\002\020\3700@#\241"
 3278      85812178 
 3278      604023EC 
 3278      040210F8 
 3278      304023A1 
 3279 2239 1BC12C0C 		.ascii	"\033\301,\014P\376\025\016@g`|>\344\300\276\264\201"
 3279      50FE150E 
 3279      4067607C 
 3279      3EE4C0BE 
 3279      B481
 3280 224b A19C0485 		.ascii	"\241\234\004\205\325c\375\000\012\210\245\307\377x0"
 3280      D563FD00 
 3280      0A88A5C7 
 3280      FF7830
 3281 225a 0E15A024 		.ascii	"\016\025\240$\226\013\340B\244:B\230\344X\011\016\350"
 3281      960BE042 
 3281      A43A4298 
 3281      E458090E 
 3281      E8
 3282 226b 009C1496 		.ascii	"\000\234\024\226\013\244:\240$\344X\340B\350\000B\010"
 3282      0BA43AA0 
 3282      24E458E0 
 3282      42E80042 
 3282      08
 3283 227c 960B7E0E 		.ascii	"\226\013~\016\3400\016\025\244:\240$\344X\340B\350\000"
 3283      E0300E15 
 3283      A43AA024 
 3283      E458E042 
 3283      E800
 3284 228e 4168FC34 		.ascii	"Ah\3744\376\024\370`L\023\230\014\211\024\3700L\023"
 3284      FE14F860 
 3284      4C13980C 
 3284      8914F830 
 3284      4C13
 3285 22a0 846102A1 		.ascii	"\204a\002\241\216\010\210q\364U\201\255\250\361\001"
 3285      8E088871 
 3285      F45581AD 
 3285      A8F101
 3286 22af 01F27C0C 		.ascii	"\001\362|\014\014\301\303\335\223\030\016$\023D\032"
 3286      0CC1C3DD 
 3286      93180E24 
 3286      13441A
 3287 22be F000401A 		.ascii	"\360\000@\032\344\202\002$\344\002\202\317\341|\201"
 3287      E4820224 
 3287      E40282CF 
 3287      E17C81
 3288 22cd 0100C3F2 		.ascii	"\001\000\303\362\204B\"d\001\004\300B\022\300\200\030"
 3288      84422264 
 3288      0104C042 
 3288      12C08018 
ARM GAS  C:\Temp\ccVQrAGa.s 			page 97


 3289 22dd 14F280E1 		.ascii	"\024\362\200\341\307\341|B\022\230#\341'r\200\242/\340"
 3289      C7E17C42 
 3289      129823E1 
 3289      277280A2 
 3289      2FE0
 3290 22ef 17080E08 		.ascii	"\027\010\016\010#B*\377\000D*\344\216\006\024\344\016"
 3290      23422AFF 
 3290      00442AE4 
 3290      8E0614E4 
 3290      0E
 3291 2300 864FE17C 		.ascii	"\206O\341|B\022\210#\004 \362\214\300\010d\001\362\200"
 3291      42128823 
 3291      0420F28C 
 3291      C0086401 
 3291      F280
 3292 2312 4212E17C 		.ascii	"B\022\341|\006\024\206#\3517r\200B\022\350\027\331'"
 3292      06148623 
 3292      E9377280 
 3292      4212E817 
 3292      D927
 3293 2324 020E222F 		.ascii	"\002\016\"/B\"\370\000\002\022\372\004\300\177k\375"
 3293      4222F800 
 3293      0212FA04 
 3293      C07F6BFD 
 3294 2334 4010A11D 		.ascii	"@\020\241\035\240]\034\000@\020]\223\301\303\234\000"
 3294      A05D1C00 
 3294      40105D93 
 3294      C1C39C00 
 3295 2344 FA3C04CC 		.ascii	"\372<\004\314\210k\000\213`,\020\011\001\241\203A 4"
 3295      886B008B 
 3295      602C1009 
 3295      01A18341 
 3295      2034
 3296 2356 C827214F 		.ascii	"\310'!O\206{\017\256\202\013\015\256\204\033R\230\210"
 3296      867B0FAE 
 3296      820B0DAE 
 3296      841B5298 
 3296      88
 3297 2367 2B58AEE8 		.ascii	"+X\256\3500\032\256\200\233\344p\004\360\222\033\016"
 3297      301AAE80 
 3297      9BE47004 
 3297      F0921B0E 
 3298 2377 0BE83057 		.ascii	"\013\3500W\250\2045\241\013\006\360\017\004\"\024\344"
 3298      A88435A1 
 3298      0B06F00F 
 3298      042214E4 
 3299 2387 60580E92 		.ascii	"`X\016\222+S\230\216\013\241\013\3500\200\030\036\005"
 3299      2B53988E 
 3299      0BA10BE8 
 3299      3080181E 
 3299      05
 3300 2398 00044C05 		.ascii	"\000\004L\005\200\000\000\006\362<\014\314\301\303\335"
 3300      80000006 
 3300      F23C0CCC 
 3300      C1C3DD
 3301 23a7 93FA7C04 		.ascii	"\223\372|\004\014\3540\036\360\210\233\000{`,\016\011"
 3301      0CEC301E 
ARM GAS  C:\Temp\ccVQrAGa.s 			page 98


 3301      F0889B00 
 3301      7B602C0E 
 3301      09
 3302 23b8 0E29846B 		.ascii	"\016)\204k\203Q`0`\020\016K!_\201\261\0344\206\253|"
 3302      83516030 
 3302      60100E4B 
 3302      215F81B1 
 3302      1C3486AB 
 3303 23cd BE820BE8 		.ascii	"\276\202\013\350\210\004T\210\033>\276\3500O\010\000"
 3303      88045488 
 3303      1B3EBEE8 
 3303      304F0800 
 3304 23dd 90008B01 		.ascii	"\220\000\213\001\225\344\300A\276\231\021\354\004\002"
 3304      95E4C041 
 3304      BE9911EC 
 3304      0402
 3305 23eb 10F83440 		.ascii	"\020\3704@\265\340,@\265\376\025\241\033e\200\024\240"
 3305      B5E02C40 
 3305      B5FE15A1 
 3305      1B658014 
 3305      A0
 3306 23fc 05C5E091 		.ascii	"\005\305\340\221\241\013\201\001(\004\210\325\344 \004"
 3306      A10B8101 
 3306      280488D5 
 3306      E42004
 3307 240b F0683053 		.ascii	"\360h0S\010\241\013\220\033|\004\206\325\344\020\006"
 3307      08A10B90 
 3307      1B7C0486 
 3307      D5E41006 
 3308 241b F0A40E90 		.ascii	"\360\244\016\220+\236\024\250\004\3500N\350\204u\241"
 3308      2B9E14A8 
 3308      04E8304E 
 3308      E88475A1 
 3309 242b 0B06F03E 		.ascii	"\013\006\360>\004\220+\344\020\3700R\005\340`\024\005"
 3309      04902BE4 
 3309      10F83052 
 3309      05E06014 
 3309      05
 3310 243c 4E189E14 		.ascii	"N\030\236\024\241\013\3500\200\004\036\005\0000R\005"
 3310      A10BE830 
 3310      80041E05 
 3310      00305205 
 3311 244c 80000006 		.ascii	"\200\000\000\006\210\241\002\261\232\030\210\221\364"
 3311      88A102B1 
 3311      9A188891 
 3311      F4
 3312 2459 9583BD0C 		.ascii	"\225\203\275\014\014\230\361\335\223\362|\372|\004L"
 3312      0C98F1DD 
 3312      93F27CFA 
 3312      7C044C
 3313 2468 847B1124 		.ascii	"\204{\021$\210\233\025\244\377\201\023\264A\366\241"
 3313      889B15A4 
 3313      FF8113B4 
 3313      41F6A1
 3314 2477 2B4C960F 		.ascii	"+L\226\017\374\212\005\200\010D*+?F:\346\212\201af\216"
 3314      FC8A0580 
 3314      08442A2B 
ARM GAS  C:\Temp\ccVQrAGa.s 			page 99


 3314      3F463AE6 
 3314      8A816166 
 3315 248c 423A8F1E 		.ascii	"B:\217\036F:\345\002\000$e\202\202\003\341\204r\230"
 3315      463AE502 
 3315      00246582 
 3315      8203E184 
 3315      7298
 3316 249e 42327398 		.ascii	"B2s\230\2011\017$\357\354A\376\221\013\241\033\037\374"
 3316      81310F24 
 3316      EFEC41FE 
 3316      910BA11B 
 3316      1FFC
 3317 24b0 5FFC41FE 		.ascii	"_\374A\376\002\224\241\233\201\201A\204P\234B\022P\032"
 3317      0294A19B 
 3317      81814184 
 3317      509C4212 
 3317      501A
 3318 24c2 84738073 		.ascii	"\204s\200s@&@\212\216\203\254\216\360\012\214\013(\016"
 3318      4026408A 
 3318      8E83AC8E 
 3318      F00A8C0B 
 3318      280E
 3319 24d4 F27C0C4C 		.ascii	"\362|\014L\301\303\335\223\346\202@\032d\001\000\000"
 3319      C1C3DD93 
 3319      E682401A 
 3319      64010000 
 3320 24e4 DF07C040 		.ascii	"\337\007\300@o\375\000\002]\223\300?\373\200\000\004"
 3320      6FFD0002 
 3320      5D93C03F 
 3320      FB800004 
 3321 24f4 FE7C040C 		.ascii	"\376|\004\014\354`\036\360\202{\004\233\201a\000[\201"
 3321      EC601EF0 
 3321      827B049B 
 3321      8161005B 
 3321      81
 3322 2505 11120B81 		.ascii	"\021\022\013\201\261\001\241\003\012\201\305\202u\342"
 3322      B101A103 
 3322      0A81C582 
 3322      75E2
 3323 2513 3CF00800 		.ascii	"<\360\010\000%\370\004\000EVB\204\243\202\021r\254\374"
 3323      25F80400 
 3323      45564284 
 3323      A3821172 
 3323      ACFC
 3324 2525 958F1D60 		.ascii	"\225\217\035`\000\027J\341\204\000\244`\000\026\032"
 3324      00174AE1 
 3324      8400A460 
 3324      00161A
 3325 2534 E0FC02B4 		.ascii	"\340\374\002\264`\000\024j~\016\242\017\345\200B\012"
 3325      6000146A 
 3325      7E0EA20F 
 3325      E580420A 
 3326 2544 6188421A 		.ascii	"a\210B\032\341\204\000\264B*|\016>>\355\200\3440\020"
 3326      E18400B4 
 3326      422A7C0E 
 3326      3E3EED80 
 3326      E43010
ARM GAS  C:\Temp\ccVQrAGa.s 			page 100


 3327 2557 305E2789 		.ascii	"0^'\211^\211\245\340\\`\034L\312D\012\201\001@\012\341"
 3327      5E89A5E0 
 3327      5C601C4C 
 3327      CA440A81 
 3327      01400AE1 
 3328 256b 808EE5E9 		.ascii	"\200\216\345\351\234\201\001&$\004\312\244\024\004\032"
 3328      9C810126 
 3328      2404CAA4 
 3328      14041A
 3329 257a E000022A 		.ascii	"\340\000\002*\340\000B\012\340\000B\032\345\200\036"
 3329      E000420A 
 3329      E000421A 
 3329      E5801E
 3330 2589 27E18842 		.ascii	"'\341\210B\012\340\\\212\245\355\200d|\013\012\000P"
 3330      0AE05C8A 
 3330      A5ED8064 
 3330      7C0B0A00 
 3330      50
 3331 259a 823B4620 		.ascii	"\202;F l\200DR\234\000\002\006{\200\000\"\300\000 #"
 3331      6C804452 
 3331      9C000206 
 3331      7B800022 
 3331      C0002023 
 3332 25ae EC7CEF80 		.ascii	"\354|\357\200\010\024l\000\012\004~\004\241?HR\241\037"
 3332      08146C00 
 3332      0A047E04 
 3332      A13F4852 
 3332      A11F
 3333 25c0 04227890 		.ascii	"\004\"x\220\250?\354\004\202\003|\024\224+%?r\204B2"
 3333      A83FEC04 
 3333      82037C14 
 3333      942B253F 
 3333      72844232 
 3334 25d4 69F8963B 		.ascii	"i\370\226;\011T\357\354g\375\000\212A\366\300\377\241"
 3334      0954EFEC 
 3334      67FD008A 
 3334      41F6C0FF 
 3334      A1
 3335 25e5 1B0FFCCF 		.ascii	"\033\017\374\317\374A\366\202aa\014\014\012\220\221"
 3335      FC41F682 
 3335      61610C0C 
 3335      0A9091
 3336 25f4 ECB5E240 		.ascii	"\354\265\342@\260\361>\004\340\030@q\340\034@Q\366|"
 3336      B0F13E04 
 3336      E0184071 
 3336      E01C4051 
 3336      F67C
 3337 2606 0C0CC1C3 		.ascii	"\014\014\301\303\335\223\370\000\004L\002\020\012(\010"
 3337      DD93F800 
 3337      044C0210 
 3337      0A2808
 3338 2615 14EC04E0 		.ascii	"\024\354\004\3401a\374\203A\010\023\203\027\003\245"
 3338      3161FC83 
 3338      41081383 
 3338      1703A5
 3339 2624 7830065B 		.ascii	"x0\006[\354\004\004 \202`\200\300F\303\212\303\315Z"
 3339      EC040420 
ARM GAS  C:\Temp\ccVQrAGa.s 			page 101


 3339      826080C0 
 3339      46C38AC3 
 3339      CD5A
 3340 2636 F8600AC4 		.ascii	"\370`\012\304\012c\030d\373\000JB{\000Fc\361\224\230"
 3340      0A631864 
 3340      FB004A42 
 3340      7B004663 
 3340      F19498
 3341 2649 53602CFB 		.ascii	"S`,\373\024J\022\340\\FS\370\365\241+\014L\201\001\335"
 3341      144A12E0 
 3341      5C4653F8 
 3341      F5A12B0C 
 3341      4C8101DD 
 3342 265d 93F000F8 		.ascii	"\223\360\000\370\004\004\014`\210\0144\001E\212{\360"
 3342      04040C60 
 3342      880C3401 
 3342      458A7BF0 
 3343 266d 985852D9 		.ascii	"\230XR\331}\335.\006\023\376\325D\012\206\003\202\021"
 3343      7DDD2E06 
 3343      13FED544 
 3343      0A860382 
 3343      11
 3344 267e 618E618E 		.ascii	"a\216a\216F\032\360\230@B\0144\304'BB`\210FR\360\210"
 3344      461AF098 
 3344      40420C34 
 3344      C4274242 
 3344      60884652 
 3345 2694 44427088 		.ascii	"DBp\210\201\225\360\230\301\035\305dB@\315n\331=\034"
 3345      8195F098 
 3345      C11DC564 
 3345      4240CD6E 
 3345      D93D1C
 3346 26a7 009C0046 		.ascii	"\000\234\000FP\374\365\205\033\014\014\201\001\335\223"
 3346      50FCF585 
 3346      1B0C0C81 
 3346      01DD93
 3347 26b6 F004FA7C 		.ascii	"\360\004\372|\004\014\354p\036\360\0004\000\213\006"
 3347      040CEC70 
 3347      1EF00034 
 3347      008B06
 3348 26c5 03E1FC1F 		.ascii	"\003\341\374\037\024\202\273\015>\203\007\0354\212k"
 3348      1482BB0D 
 3348      3E83071D 
 3348      348A6B
 3349 26d4 2374845B 		.ascii	"#t\204[!\244\240+>\036\202\233\013N\220\013~.\201A\011"
 3349      21A4A02B 
 3349      3E1E829B 
 3349      0B4E900B 
 3349      7E2E8141 
 3350 26e9 3EAA233C 		.ascii	">\252#<>\226\033|^\212;l\330\214[\241\013\357\370\011"
 3350      3E961B7C 
 3350      5E8A3B6C 
 3350      D88C5BA1 
 3350      0BEFF809 
 3351 26fd 0486753E 		.ascii	"\004\206u>\256\201A~$\226\033<\016\214[\2154\220\013"
 3351      AE81417E 
 3351      24961B3C 
ARM GAS  C:\Temp\ccVQrAGa.s 			page 102


 3351      0E8C5B8D 
 3351      34900B
 3352 2710 EFF86C08 		.ascii	"\357\370l\010\202\325\241\013\201A\015$\226\033~\004"
 3352      82D5A10B 
 3352      81410D24 
 3352      961B7E04 
 3353 2720 8C5B3E7E 		.ascii	"\214[>~\011\004\3744<\016\200#k\030\220\013\026\033"
 3353      0904FC34 
 3353      3C0E8023 
 3353      6B18900B 
 3353      161B
 3354 2732 EFF80B64 		.ascii	"\357\370\013d\226\215\011\016\214\273\012U\224K%\224"
 3354      968D090E 
 3354      8CBB0A55 
 3354      944B2594 
 3355 2742 920BFA20 		.ascii	"\222\013\372 B\022\260\023\202\021\247\024\203\023\203"
 3355      4212B013 
 3355      8211A714 
 3355      831383
 3356 2751 B38D1EE8 		.ascii	"\263\215\036\350\0001\354p\240F\262F:\200\033\202\201"
 3356      0031EC70 
 3356      A046B246 
 3356      3A801B82 
 3356      81
 3357 2762 61AE00A5 		.ascii	"a\256\000\245\3047\210\013|\014|\014\010U\360\214D\222"
 3357      C437880B 
 3357      7C0C7C0C 
 3357      0855F08C 
 3357      4492
 3358 2774 FC0C0EC5 		.ascii	"\374\014\016\305q\230H\242\012C\214\2438C\264S\010N"
 3358      719848A2 
 3358      0A438CA3 
 3358      3843B453 
 3358      084E
 3359 2786 98530D14 		.ascii	"\230S\015\024\200K\2023\202\013\011\004\214^\014\014"
 3359      804B8233 
 3359      820B0904 
 3359      8C5E0C0C 
 3360 2796 B8F1DD93 		.ascii	"\270\361\335\223\362|\372|\004\014\354\320\036\360\200"
 3360      F27CFA7C 
 3360      040CECD0 
 3360      1EF080
 3361 27a5 BB290482 		.ascii	"\273)\004\202\213/tC\376\023N\300\001\177\375\212k\017"
 3361      8B2F7443 
 3361      FE134EC0 
 3361      017FFD8A 
 3361      6B0F
 3362 27b7 2EB144B3 		.ascii	".\261D\263$\201\001~\016\234\016\221>\227\016\231\016"
 3362      2481017E 
 3362      0E9C0E91 
 3362      3E970E99 
 3362      0E
 3363 27c8 41F6150E 		.ascii	"A\366\025\016\213N\340\014\215.\220\014\255\224\210"
 3363      8B4EE00C 
 3363      8D2E900C 
 3363      AD9488
 3364 27d7 1E91A4AB 		.ascii	"\036\221\244\253T@b\211~B\012\360\254\304\027\341\232"
ARM GAS  C:\Temp\ccVQrAGa.s 			page 103


 3364      54406289 
 3364      7E420AF0 
 3364      ACC417E1 
 3364      9A
 3365 27e8 FC040A25 		.ascii	"\374\004\012%\204\245\241+\204\345\241-\374\004\022"
 3365      84A5A12B 
 3365      84E5A12D 
 3365      FC0412
 3366 27f7 158E95A1 		.ascii	"\025\216\225\241\035@\012\202\001\304\007\341\232\374"
 3366      1D400A82 
 3366      01C407E1 
 3366      9AFC
 3367 2805 000A158C 		.ascii	"\000\012\025\214\225\241\035|\000\022\005\202\015\377"
 3367      95A11D7C 
 3367      00120582 
 3367      0DFF
 3368 2813 1181A58A 		.ascii	"\021\201\245\212\365\374\004\022\005\212E\241\013|\004"
 3368      F5FC0412 
 3368      058A45A1 
 3368      0B7C04
 3369 2822 1205820D 		.ascii	"\022\005\202\015\377\021\003\001\210\245\344\260\002"
 3369      FF110301 
 3369      88A5E4B0 
 3369      02
 3370 282f F08A7B1C 		.ascii	"\360\212{\034\016\012\360\013\004\024+\344\300\000\274"
 3370      0E0AF00B 
 3370      04142BE4 
 3370      C000BC
 3371 283e 8C3BE4A0 		.ascii	"\214;\344\240\000\360\226\013>\016\217\024\274\036V"
 3371      00F0960B 
 3371      3E0E8F14 
 3371      BC1E56
 3372 284d 58FE440D 		.ascii	"X\376D\015\004\357\370\231$\226\033>\016\2274\225D\224"
 3372      04EFF899 
 3372      24961B3E 
 3372      0E973495 
 3372      4494
 3373 285f 0B9354BC 		.ascii	"\013\223T\274n\357\370h\010\216[\011t\342\244\000\012"
 3373      6EEFF868 
 3373      088E5B09 
 3373      74E2A400 
 3373      0A
 3374 2870 81018075 		.ascii	"\201\001\200u\202\261\234\016\200\205\221\275\241\013"
 3374      82B19C0E 
 3374      808591BD 
 3374      A10B
 3375 287e 9C040101 		.ascii	"\234\004\001\001\352\345\014\014\350\361\335\223\362"
 3375      EAE50C0C 
 3375      E8F1DD93 
 3375      F2
 3376 288b 7CFA7C04 		.ascii	"|\372|\004L\202{\000k`\024\014\031\340\000@\306\224"
 3376      4C827B00 
 3376      6B60140C 
 3376      19E00040 
 3376      C694
 3377 289d 75F41DE0 		.ascii	"u\364\035\340\030\014)\222\365\360-\346\206P*\345\000"
 3377      180C2992 
ARM GAS  C:\Temp\ccVQrAGa.s 			page 104


 3377      F5F02DE6 
 3377      86502AE5 
 3377      00
 3378 28ae 110A1921 		.ascii	"\021\012\031!\222Uv\330\216\013\214\033o\354d0\000p"
 3378      925576D8 
 3378      8E0B8C1B 
 3378      6FEC6430 
 3378      0070
 3379 28c0 E0040206 		.ascii	"\340\004\002\006\201\221\001U\002\020A\234\241\033\354"
 3379      81910155 
 3379      0210419C 
 3379      A11BEC
 3380 28cf 040060FE 		.ascii	"\004\000`\376\225\201\261d\220\201\021\001\225\345\000"
 3380      9581B164 
 3380      90811101 
 3380      95E500
 3381 28de 028A4124 		.ascii	"\002\212A$\200\345V\"\202\021\321\035\372\254\000\264"
 3381      80E55622 
 3381      8211D11D 
 3381      FAAC00B4 
 3382 28ee FE15D8B7 		.ascii	"\376\025\330\267a\320\230q\017\016\201\241Ha\201\001"
 3382      61D09871 
 3382      0F0E81A1 
 3382      48618101 
 3383 28fe 03D54096 		.ascii	"\003\325@\226\030$\241+\340\010\017\024\204\205\341"
 3383      1824A12B 
 3383      E0080F14 
 3383      8485E1
 3384 290d 84002481 		.ascii	"\204\000$\2011\026\003o\354P\010\362\244B\022g\375\000"
 3384      3116036F 
 3384      EC5008F2 
 3384      A4421267 
 3384      FD00
 3385 291f 8A41F6C0 		.ascii	"\212A\366\300\377\241\033\017\374\317\374A\366\201\001"
 3385      FFA11B0F 
 3385      FCCFFC41 
 3385      F68101
 3386 292e 1C0C8471 		.ascii	"\034\014\204q\002\241\321\255\210a\025\012\200\305\200"
 3386      02A1D1AD 
 3386      8861150A 
 3386      80C580
 3387 293d 75E4FCF6 		.ascii	"u\344\374\366\345\241\013\362|\014L\301\303\335\223"
 3387      E5A10BF2 
 3387      7C0C4CC1 
 3387      C3DD93
 3388 294c FA7C040C 		.ascii	"\372|\004\014\354\360\036\360\206k\004\210`\020\002"
 3388      ECF01EF0 
 3388      866B0488 
 3388      601002
 3389 295b 1900A981 		.ascii	"\031\000\251\201\221\006\016`\020\300\000r\300\210\273"
 3389      91060E60 
 3389      10C00072 
 3389      C088BB
 3390 296a 1D9E4296 		.ascii	"\035\236B\226~\036\300\001g\271\213\036\200\004\021"
 3390      7E1EC001 
 3390      67B98B1E 
 3390      800411
ARM GAS  C:\Temp\ccVQrAGa.s 			page 105


 3391 2979 0E8D1E63 		.ascii	"\016\215\036c!AV\025\016\300\001n\241\000\006\033\016"
 3391      21415615 
 3391      0EC0016E 
 3391      A100061B 
 3391      0E
 3392 298a C0018F1E 		.ascii	"\300\001\217\036\204\013\031\036\223\036\227>\214\033"
 3392      840B191E 
 3392      931E973E 
 3392      8C1B
 3393 2998 E80048C8 		.ascii	"\350\000H\310l\004\000\240\340\010B\306t\034\001\012"
 3393      6C0400A0 
 3393      E00842C6 
 3393      741C010A 
 3394 29a8 090E8101 		.ascii	"\011\016\201\001\200\210\000\244\004P\002\360\340\020"
 3394      808800A4 
 3394      045002F0 
 3394      E010
 3395 29b6 101A1C00 		.ascii	"\020\032\034\000\002\005\200\000\002\006\000\020^\005"
 3395      02058000 
 3395      02060010 
 3395      5E05
 3396 29c4 0904B18B 		.ascii	"\011\004\261\213\355\200B\012\300\010B\306B\306\241"
 3396      ED80420A 
 3396      C00842C6 
 3396      42C6A1
 3397 29d3 0BE5AD00 		.ascii	"\013\345\255\000\010\212\225\374\036\241\013\374\004"
 3397      088A95FC 
 3397      1EA10BFC 
 3397      04
 3398 29e0 7E148A35 		.ascii	"~\024\2125\016\013\220{I\230\226+\030\261\350\000\004"
 3398      0E0B907B 
 3398      4998962B 
 3398      18B1E800 
 3398      04
 3399 29f1 06811196 		.ascii	"\006\201\021\226\013`\010\357\354r\310\346\236Nz\000"
 3399      0B6008EF 
 3399      EC72C8E6 
 3399      9E4E7A00 
 3400 2a01 068375E7 		.ascii	"\006\203u\347\255a\000\204\025\235\016\000\360\0304"
 3400      AD610084 
 3400      159D0E00 
 3400      F01834
 3401 2a10 1A44E4E0 		.ascii	"\032D\344\340\341\354\013v\220\033>\016\376$\211\004"
 3401      E1EC0B76 
 3401      901B3E0E 
 3401      FE248904 
 3402 2a20 920B3C0E 		.ascii	"\222\013<\016\350\000@\310m\014\235\004\223{\202\221"
 3402      E80040C8 
 3402      6D0C9D04 
 3402      937B8291 
 3403 2a30 7C04FA35 		.ascii	"|\004\3725\014\014\370\361\335\223\362|\370|\004\014"
 3403      0C0CF8F1 
 3403      DD93F27C 
 3403      F87C040C 
 3404 2a40 61064E0A 		.ascii	"a\006N\012\340\210\022$`\006P\012\017D\210\313N\232"
 3404      E0881224 
 3404      6006500A 
ARM GAS  C:\Temp\ccVQrAGa.s 			page 106


 3404      0F4488CB 
 3404      4E9A
 3405 2a52 866B8111 		.ascii	"\206k\201\021f\236\346\242P\232\216c\0154@*\020\303"
 3405      669EE6A2 
 3405      509A8E63 
 3405      0D34402A 
 3405      10C3
 3406 2a64 101EE68A 		.ascii	"\020\036\346\212\360\244Nbe\016D:\360\244P\302\345\216"
 3406      F0A44E62 
 3406      650E443A 
 3406      F0A450C2 
 3406      E58E
 3407 2a76 463A8FAD 		.ascii	"F:\217\255\201\305F\252V\252\304\020\024\240\320\244"
 3407      81C546AA 
 3407      56AAC410 
 3407      14A0D0A4 
 3408 2a86 56B24212 		.ascii	"V\262B\022~5\210\301\320\254R\312\221\315T`F\262\374"
 3408      7E3588C1 
 3408      D0AC52CA 
 3408      91CD5460 
 3408      46B2FC
 3409 2a99 15DC00E1 		.ascii	"\025\334\000\341\204\030\004BZ\002\303@\312\346\226"
 3409      84180442 
 3409      5A02C340 
 3409      CAE696
 3410 2aa8 0C0CE002 		.ascii	"\014\014\340\002\2015\360|\301\303\213E\372\000\004"
 3410      8135F07C 
 3410      C1C38B45 
 3410      FA0004
 3411 2ab7 0C480A08 		.ascii	"\014H\012\010k@\012\345\006\012$e\206\002D\341\204\350"
 3411      6B400AE5 
 3411      060A2465 
 3411      860244E1 
 3411      84E8
 3412 2ac9 4761B018 		.ascii	"Ga\260\0304h\007 \037\341\204\340\374\0004@B\240_A\270"
 3412      34680720 
 3412      1FE184E0 
 3412      FC003440 
 3412      42A05F41 
 3413 2ade F0944212 		.ascii	"\360\224B\022o\354\004\006\362\260@@`\001\204\003\377"
 3413      6FEC0406 
 3413      F2B04040 
 3413      60018403 
 3413      FF
 3414 2aef 31813107 		.ascii	"1\2011\007\013r\214B\022\237\374A\376A\376\241\033@"
 3414      0B728C42 
 3414      129FFC41 
 3414      FE41FEA1 
 3414      1B40
 3415 2b01 0ADFFC02 		.ascii	"\012\337\374\002\004\360\012\204\023\341\204\340\002"
 3415      04F00A84 
 3415      13E184E0 
 3415      02
 3416 2b0e 401A8101 		.ascii	"@\032\201\001\030\016\362\000\014\014\301\303\335\223"
 3416      180EF200 
 3416      0C0CC1C3 
 3416      DD93
ARM GAS  C:\Temp\ccVQrAGa.s 			page 107


 3417 2b1c 60144401 		.ascii	"`\024D\001\010<\2011\012<\257A\374\000\006\024`\030"
 3417      083C8131 
 3417      0A3CAF41 
 3417      FC000614 
 3417      6018
 3418 2b2e 4401E41C 		.ascii	"D\001\344\034\0000`\034D\001\354\004\0000` D\001DA\302"
 3418      0030601C 
 3418      4401EC04 
 3418      00306020 
 3418      44014441 
 3419 2b43 17830160 		.ascii	"\027\203\001`\020\340$D\021\340(D\021\340,D\001\301"
 3419      10E02444 
 3419      11E02844 
 3419      11E02C44 
 3419      01C1
 3420 2b55 C3DD9304 		.ascii	"\303\335\223\004.\0008\241;\377\374\202\010\204E\202"
 3420      2E0038A1 
 3420      3BFFFC82 
 3420      08844582 
 3421 2b65 E5A10B71 		.ascii	"\345\241\013q\200H\"&#\220\001@\000\2201@\001s\301s"
 3421      80482226 
 3421      23900140 
 3421      00903140 
 3421      0173C173 
 3422 2b79 C1463006 		.ascii	"\301F0\006#\300\001\2015\210\003\377\374\000.\206\016"
 3422      23C00181 
 3422      358803FF 
 3422      FC002E86 
 3422      0E
 3423 2b8a 842EC1C3 		.ascii	"\204.\301\303\335\223\372|\004\014\354P\036\360\206"
 3423      DD93FA7C 
 3423      040CEC50 
 3423      1EF086
 3424 2b99 7B090E61 		.ascii	"{\011\016a\204\000\024\340\254\006t\210k #\204\023\206"
 3424      840014E0 
 3424      AC067488 
 3424      6B202384 
 3424      1386
 3425 2bab 23E10E40 		.ascii	"#\341\016@\032\341\016B*\341\254\004\004a\036V*\341"
 3425      1AE10E42 
 3425      2AE1AC04 
 3425      04611E56 
 3425      2AE1
 3426 2bbd AC0414E1 		.ascii	"\254\004\024\341\036P*\344\004\004\260a\036T*\340\200"
 3426      1E502AE4 
 3426      0404B061 
 3426      1E542AE0 
 3426      80
 3427 2bce 04060684 		.ascii	"\004\006\006\204\"#\006#\340\254\361\204B\002\004\264"
 3427      22230623 
 3427      E0ACF184 
 3427      420204B4 
 3428 2bde 7C2E7E1E 		.ascii	"|.~\036\340\254>\016\244\003\205\265\220\233\2025\221"
 3428      E0AC3E0E 
 3428      A40385B5 
 3428      909B8235 
 3428      91
ARM GAS  C:\Temp\ccVQrAGa.s 			page 108


 3429 2bef 9BE02C52 		.ascii	"\233\340,R\032\240\020\036\005\240\014\036\025\240\000"
 3429      1AA0101E 
 3429      05A00C1E 
 3429      15A000
 3430 2bfe 0168E020 		.ascii	"\001h\340 R\032\240\000\000\210R\032\011\004\000\370"
 3430      521AA000 
 3430      0088521A 
 3430      090400F8 
 3431 2c0e E02CC000 		.ascii	"\340,\300\000 \001\200\020\036\005\200\010\036\025\027"
 3431      20018010 
 3431      1E058008 
 3431      1E1517
 3432 2c1d 9B80C580 		.ascii	"\233\200\305\200\265\201\001\276\024\211\004\350\000"
 3432      B58101BE 
 3432      148904E8 
 3432      00
 3433 2c2a 4B086088 		.ascii	"K\010`\210\002\224\014%\202\221\214\023|\004\341\036"
 3433      02940C25 
 3433      82918C13 
 3433      7C04E11E 
 3434 2c3a 529A842E 		.ascii	"R\232\204.\200#\364\265\225\233\250\361\001\001\362"
 3434      8023F4B5 
 3434      959BA8F1 
 3434      0101F2
 3435 2c49 7C0C0CC1 		.ascii	"|\014\014\301\303\335\223\372\034\004L\204{\002\213"
 3435      C3DD93FA 
 3435      1C044C84 
 3435      7B028B
 3436 2c58 866B009B 		.ascii	"\206k\000\233\000\006\034\024\340$\340\200C8\2444\240"
 3436      00061C14 
 3436      E024E080 
 3436      4338A434 
 3436      A0
 3437 2c69 44E8009E 		.ascii	"D\350\000\236\024\230\016\210\013`$B\270\2444\232\016"
 3437      14980E88 
 3437      0B602442 
 3437      B8A4349A 
 3437      0E
 3438 2c7a E800F21C 		.ascii	"\350\000\362\034\014L\301\303\335\223\372<\004\014\202"
 3438      0C4CC1C3 
 3438      DD93FA3C 
 3438      040C82
 3439 2c89 8B047B60 		.ascii	"\213\004{`$\016\031\020I\203!\206k`$`(\016Y\034\004"
 3439      240E1910 
 3439      49832186 
 3439      6B602460 
 3439      280E591C 
 3440 2c9e 809B2234 		.ascii	"\200\233\"4\243/\340\220\002Dh,H\210\350\224\024$\234"
 3440      A32FE090 
 3440      0244682C 
 3440      4888E894 
 3440      14249C
 3441 2cb1 24A41422 		.ascii	"$\244\024\"4\230\016\004\013\317\027G\330\224+\032\016"
 3441      34980E04 
 3441      0BCF1747 
 3441      D8942B1A 
 3441      0E
ARM GAS  C:\Temp\ccVQrAGa.s 			page 109


 3442 2cc2 E82C0C0C 		.ascii	"\350,\014\014\201\001\335\223\362<\372\014\004\014@"
 3442      8101DD93 
 3442      F23CFA0C 
 3442      040C40
 3443 2cd1 3A006B02 		.ascii	":\000k\002{\345\012\345\212B:\000\000\001\201\300\001"
 3443      7BE50AE5 
 3443      8A423A00 
 3443      000181C0 
 3443      01
 3444 2ce2 67D172A0 		.ascii	"g\321r\240B\022\340<D\206o\350qH\177!\2011\205\013\201"
 3444      4212E03C 
 3444      44866FE8 
 3444      71487F21 
 3444      8131850B 
 3445 2cf7 311FFC41 		.ascii	"1\037\374A\376A\376\241\033Bz\337\374Dz\345\002\000"
 3445      FE41FEA1 
 3445      1B427ADF 
 3445      FC447AE5 
 3445      0200
 3446 2d09 64658282 		.ascii	"de\202\202\003\340\234r\240B\"\340\240\004d\357\350"
 3446      03E09C72 
 3446      A04222E0 
 3446      A00464EF 
 3446      E8
 3447 2d1a 6FE87FFD 		.ascii	"o\350\177\375E\376\305\015\300?\037\375A\376\241\033"
 3447      45FEC50D 
 3447      C03F1FFD 
 3447      41FEA11B 
 3448 2d2a 003F1FFD 		.ascii	"\000?\037\375A\376\014\014\300?\335\223\362\014\241"
 3448      41FE0C0C 
 3448      C03FDD93 
 3448      F20CA1
 3449 2d39 1B005B60 		.ascii	"\033\000[`\010@\226d\000\030P\000\006\300\200\007\012"
 3449      08409664 
 3449      00185000 
 3449      06C08007 
 3449      0A
 3450 2d4a 400040C6 		.ascii	"@\000@\306\346@\031\012@\000\300\377g\374\300\000@\306"
 3450      E640190A 
 3450      4000C0FF 
 3450      67FCC000 
 3450      40C6
 3451 2d5c 5C08A10B 		.ascii	"\\\010\241\013\030\024\332\000\241]a\374\340W\002\303"
 3451      1814DA00 
 3451      A15D61FC 
 3451      E05702C3 
 3452 2d6c D63703C7 		.ascii	"\3267\003\307\321\200\030\304B\312\212\303\204\023\340"
 3452      D18018C4 
 3452      42CA8AC3 
 3452      8413E0
 3453 2d7b 86E00002 		.ascii	"\206\340\000\002\022\341\016B\032\335\223\220\036e\006"
 3453      12E10E42 
 3453      1ADD9390 
 3453      1E6506
 3454 2d8a 440A420A 		.ascii	"D\012B\012\2011\000 \345\206\300\004d\001\362\214B\022"
 3454      81310020 
 3454      E586C004 
ARM GAS  C:\Temp\ccVQrAGa.s 			page 110


 3454      6401F28C 
 3454      4212
 3455 2d9c 5C08EE1D 		.ascii	"\\\010\356\035A\376Z\000\300?\037\374\327\007j\027\242"
 3455      41FE5A00 
 3455      C03F1FFC 
 3455      D7076A17 
 3455      A2
 3456 2dad 0F5D93FA 		.ascii	"\017]\223\372|\004\014\354p\036\360\201a~>\210\273\011"
 3456      7C040CEC 
 3456      701EF081 
 3456      617E3E88 
 3456      BB09
 3457 2dbf 2EE03404 		.ascii	".\3404\004\011\215n\374\036\350\015>\016`$\002\251\340"
 3457      098D6EFC 
 3457      1EE80D3E 
 3457      0E602402 
 3457      A9E0
 3458 2dd1 0040C615 		.ascii	"\000@\306\025\012\230\025\226\265\346@\211\004\374\024"
 3458      0A981596 
 3458      B5E64089 
 3458      04FC14
 3459 2de0 7518FE34 		.ascii	"u\030\3764\004\020o\374\241\013\3440|\004\224\225\211"
 3459      04106FFC 
 3459      A10BE430 
 3459      7C049495 
 3459      89
 3460 2df1 14963B72 		.ascii	"\024\226;r\330\376$\000\260\357\374\201\021d U\035\201"
 3460      D8FE2400 
 3460      B0EFFC81 
 3460      11642055 
 3460      1D81
 3461 2e03 75162581 		.ascii	"u\026%\201!\202\021@\004\002\012\301.\376\025\342@\211"
 3461      21821140 
 3461      04020AC1 
 3461      2EFE15E2 
 3461      4089
 3462 2e15 117E04B0 		.ascii	"\021~\004\260\001\001ux\020@e\354\004\002\020\241\033"
 3462      01017578 
 3462      104065EC 
 3462      040210A1 
 3462      1B
 3463 2e26 C16E0974 		.ascii	"\301n\011t\376U~\204\220\261\274\276\201\001\300q|\224"
 3463      FE557E84 
 3463      90B1BCBE 
 3463      8101C071 
 3463      7C94
 3464 2e38 B08105B5 		.ascii	"\260\201\005\265\212u\241\013\220k\013n\211\204\376"
 3464      8A75A10B 
 3464      906B0B6E 
 3464      8984FE
 3465 2e47 14F8100E 		.ascii	"\024\370\020\016%\240\004\206\024s\330\2444\"$\357\374"
 3465      25A00486 
 3465      1473D8A4 
 3465      342224EF 
 3465      FC
 3466 2e58 1C0480BB 		.ascii	"\034\004\200\273\344`\010\360`\020\022\025v\230\224"
 3466      E46008F0 
ARM GAS  C:\Temp\ccVQrAGa.s 			page 111


 3466      60101215 
 3466      769894
 3467 2e67 3B8C8B6F 		.ascii	";\214\213o\374\202\225\241\013x\020P\265\215$\224;\211"
 3467      FC8295A1 
 3467      0B781050 
 3467      B58D2494 
 3467      3B89
 3468 2e79 04A02E00 		.ascii	"\004\240.\000\024\274Dhx\226\013\013d\357\374\210\201"
 3468      14BC4468 
 3468      78960B0B 
 3468      64EFFC88 
 3468      81
 3469 2e8a 8871BE14 		.ascii	"\210q\276\024\202a\364\265\303m\014\014\270\361\335"
 3469      8261F4B5 
 3469      C36D0C0C 
 3469      B8F1DD
 3470 2e99 93F27CFA 		.ascii	"\223\362|\372|\004\014\3540\036\360\200k\006J\004\311"
 3470      7C040CEC 
 3470      301EF080 
 3470      6B064A04 
 3470      C9
 3471 2eaa 840A4C45 		.ascii	"\204\012LE\340\300\002I\355\254L\005\340 \304\012\355"
 3471      E0C00249 
 3471      EDAC4C05 
 3471      E020C40A 
 3471      ED
 3472 2ebb A8EE244C 		.ascii	"\250\356$LE\340\314\004I\355\260L\005\340\310\004\011"
 3472      45E0CC04 
 3472      49EDB04C 
 3472      05E0C804 
 3472      09
 3473 2ecc E0C40479 		.ascii	"\340\304\004y\355\300LE\340\320\004A\355\274L\005\340"
 3473      EDC04C45 
 3473      E0D00441 
 3473      EDBC4C05 
 3473      E0
 3474 2edd 2C0405   		.ascii	",\004\005"
 3475 2ee0 EDB44CC5 		.ascii	"\355\264L\305\355\270Lu\340\324\004\301\340\330\004"
 3475      EDB84C75 
 3475      E0D404C1 
 3475      E0D804
 3476 2eef 71EDC44C 		.ascii	"q\355\304LE\340\340\004I\356(L\005\340\334\004\001\355"
 3476      45E0E004 
 3476      49EE284C 
 3476      05E0DC04 
 3476      01ED
 3477 2f01 C84CC5ED 		.ascii	"\310L\305\355\314Lu\355\324LE\340\360\004I\340\344\004"
 3477      CC4C75ED 
 3477      D44C45E0 
 3477      F00449E0 
 3477      E404
 3478 2f13 C9E0EC04 		.ascii	"\311\340\354\004y\355\320L\005\340\350\004\011\355\344"
 3478      79EDD04C 
 3478      05E0E804 
 3478      09EDE4
 3479 2f22 4C45EDD8 		.ascii	"LE\355\330L\305\355\340Lu\212\304\210D\312\204\310t"
 3479      4CC5EDE0 
ARM GAS  C:\Temp\ccVQrAGa.s 			page 112


 3479      4C758AC4 
 3479      8844CA84 
 3479      C874
 3480 2f34 E0F80491 		.ascii	"\340\370\004\221\340\374\004\241m\334L\005L\305\201"
 3480      E0FC04A1 
 3480      6DDC4C05 
 3480      4CC581
 3481 2f43 014C75ED 		.ascii	"\001Lu\355\360L\205\355\364L\225\355\370L\245\356HL"
 3481      F04C85ED 
 3481      F44C95ED 
 3481      F84CA5EE 
 3481      484C
 3482 2f55 05EE4C4C 		.ascii	"\005\356LLE\355\350\006E\355\354\004\305\3404\004u\340"
 3482      45EDE806 
 3482      45EDEC04 
 3482      C5E03404 
 3482      75E0
 3483 2f67 104C45E0 		.ascii	"\020LE\340\024\006E\356P\004\205\3408\004\225\340\030"
 3483      140645EE 
 3483      500485E0 
 3483      380495E0 
 3483      18
 3484 2f78 04A5E01C 		.ascii	"\004\245\340\034L\305\340 Lu\356pL\225\356tL\245\356"
 3484      4CC5E020 
 3484      4C75EE70 
 3484      4C95EE74 
 3484      4CA5EE
 3485 2f8b 7C83A16E 		.ascii	"|\203\241n\200\356TLE\356xL\205\004\305\214D\241\224"
 3485      80EE544C 
 3485      45EE784C 
 3485      8504C58C 
 3485      44A194
 3486 2f9e E024EE84 		.ascii	"\340$\356\204LE\244\210\216DLE\233t\314D\356\210LE\247"
 3486      4C45A488 
 3486      8E444C45 
 3486      9B74CC44 
 3486      EE884C45 
 3487 2fb3 B4CE44EE 		.ascii	"\264\316D\356\214\356\220LE\340\020\006E\356\224LE\340"
 3487      8CEE904C 
 3487      45E01006 
 3487      45EE944C 
 3487      45E0
 3488 2fc5 140645EE 		.ascii	"\024\006E\356\230LE\340\030\006E\356\234LE\340\034\006"
 3488      984C45E0 
 3488      180645EE 
 3488      9C4C45E0 
 3488      1C06
 3489 2fd7 45EEA04C 		.ascii	"E\356\240LE\340 \006E\356\244LE\340$\006E\356\250LE"
 3489      45E02006 
 3489      45EEA44C 
 3489      45E02406 
 3489      45EEA84C 
 3490 2fec E0280645 		.ascii	"\340(\006E\356\254LE\340,\006E\356\260LE\3400\0065\356"
 3490      EEAC4C45 
 3490      E02C0645 
 3490      EEB04C45 
 3490      E0300635 
ARM GAS  C:\Temp\ccVQrAGa.s 			page 113


 3491 3001 B84CC54C 		.ascii	"\270L\305L5\231\304\2274\356\264m\210L\305\177\374Y"
 3491      3599C497 
 3491      34EEB46D 
 3491      884CC57F 
 3491      FC59
 3492 3013 E69F44C0 		.ascii	"\346\237D\300 \355\204L5L\205\3104\235\204\355\200m"
 3492      20ED844C 
 3492      354C85C8 
 3492      349D84ED 
 3492      806D
 3493 3025 8C4C4567 		.ascii	"\214LEg\374\0040X-\300\377\340\010\030\006\001|\030"
 3493      FC043058 
 3493      2DC0FFE0 
 3493      08180601 
 3493      7C18
 3494 3037 342344FF 		.ascii	"4#D\377!\201\300\030\304m\224Lu\220\260F2\0304%4L\205"
 3494      2181C018 
 3494      C46D944C 
 3494      7590B046 
 3494      32183425 
 3495 304e 81400E60 		.ascii	"\201@\016`m\220\300\015f\000\3564LU\356\004L%\2254\374"
 3495      6D90C00D 
 3495      6600EE34 
 3495      4C55EE04 
 3495      4C259534 
 3496 3063 3E6DA44C 		.ascii	">m\244L\305\377\364Y\316m\234LE\377\370\010\216\014"
 3496      C5FFF459 
 3496      CE6D9C4C 
 3496      45FFF808 
 3496      8E0C
 3497 3075 85994B50 		.ascii	"\205\231KP\202\315\234\010@Q\220P\241\314\004\374\365"
 3497      82CD9C08 
 3497      40519050 
 3497      A1CC04FC 
 3497      F5
 3498 3086 C0006E3C 		.ascii	"\300\000n<L\005g\000\000`L\005\300\006\000`m\230\300"
 3498      4C056700 
 3498      00604C05 
 3498      C0060060 
 3498      6D98C0
 3499 3099 0265006E 		.ascii	"\002e\000n L5\340\200\006\212f\001\006`P\306@\004Le"
 3499      204C35E0 
 3499      80068A66 
 3499      01066050 
 3499      C640044C 
 3500 30ae E0004C05 		.ascii	"\340\000L\005\355\240L5\356,L%\3560\210u\356\024\355"
 3500      EDA04C35 
 3500      EE2C4C25 
 3500      EE308875 
 3500      EE14ED
 3501 30c1 F80C35EE 		.ascii	"\370\0145\356(\014E\206\265\207M\355\264\014%\344\010"
 3501      280C4586 
 3501      B5874DED 
 3501      B40C25E4 
 3501      08
 3502 30d2 0020E17C 		.ascii	"\000 \341|\030\004\230\003\375\307a\010\030\004X\002"
 3502      18049803 
ARM GAS  C:\Temp\ccVQrAGa.s 			page 114


 3502      FDC76108 
 3502      18045802 
 3503 30e2 A101A9CD 		.ascii	"\241\001\251\315\361\260\276\276\202\325\355\304\014"
 3503      F1B0BEBE 
 3503      82D5EDC4 
 3503      0C
 3504 30ef C5EDC80C 		.ascii	"\305\355\310\014\265\200\365\226\315\356|\014\305\356"
 3504      B580F596 
 3504      CDEE7C0C 
 3504      C5EE
 3505 30fd 800CB580 		.ascii	"\200\014\265\200\305\226\315\230\361\020\013\362|\014"
 3505      C596CD98 
 3505      F1100BF2 
 3505      7C0C
 3506 310b 0C0CC5DD 		.ascii	"\014\014\305\335\223\252\315\355\314 A\376\025\246C"
 3506      93AACDED 
 3506      CC2041FE 
 3506      15A643
 3507 311a 9833FC75 		.ascii	"\2303\374u\251M\355\320\0145\372\365\254=\344\004\006"
 3507      A94DEDD0 
 3507      0C35FAF5 
 3507      AC3DE404 
 3507      06
 3508 312b 20E1FC08 		.ascii	" \341\374\0104F\002\006C\203G\361\260\370\265\211=\355"
 3508      34460206 
 3508      438347F1 
 3508      B0F8B589 
 3508      3DED
 3509 313d B80C45EE 		.ascii	"\270\014E\356$\014\305\230C\206C\366\265\205Mm\330\014"
 3509      240CC598 
 3509      438643F6 
 3509      B5854D6D 
 3509      D80C
 3510 314f 4551F691 		.ascii	"EQ\366\2211\242M\340\014>\264\202\365\011\006\241K\030"
 3510      31A24DE0 
 3510      0C3EB482 
 3510      F50906A1 
 3510      4B18
 3511 3161 86000086 		.ascii	"\206\000\000\206\005\200\000I\366#K\021\301\340\014"
 3511      05800049 
 3511      F6234B11 
 3511      C1E00C
 3512 3170 84658921 		.ascii	"\204e\211!>\264\203\205I\366\245KY\366\000\014\202E"
 3512      3EB48385 
 3512      49F6A54B 
 3512      59F6000C 
 3512      8245
 3513 3182 800C82F5 		.ascii	"\200\014\202\365\247K`\014I\366\340\014Y\366E\366\001"
 3513      A74B600C 
 3513      49F6E00C 
 3513      59F645F6 
 3513      01
 3514 3193 458921E0 		.ascii	"E\211!\340\014\356XLE\356\\L\305\356`L%\355\340\014"
 3514      0CEE584C 
 3514      45EE5C4C 
 3514      C5EE604C 
 3514      25EDE00C 
ARM GAS  C:\Temp\ccVQrAGa.s 			page 115


 3515 31a7 458235A2 		.ascii	"E\2025\242M\204\305\241KA\366#K\004e\340\014\203u\211"
 3515      4D84C5A1 
 3515      4B41F623 
 3515      4B0465E0 
 3515      0C837589 
 3516 31bb 2141F6A5 		.ascii	"!A\366\245KG\366\000\014\202E\200\014\202\365\247K`"
 3516      4B47F600 
 3516      0C824580 
 3516      0C82F5A7 
 3516      4B60
 3517 31cd 0C41F6E0 		.ascii	"\014A\366\340\014G\366E\366\001E\211!\340\014\356dL"
 3517      0C47F645 
 3517      F6014589 
 3517      21E00CEE 
 3517      644C
 3518 31df 05EE684C 		.ascii	"\005\356hL5\356lL%LU\306\012@\002\3564L\005\372\024"
 3518      35EE6C4C 
 3518      254C55C6 
 3518      0A4002EE 
 3518      344C05FA 
 3519 31f4 8E0B6E34 		.ascii	"\216\013n4\350\014THh\014F\350S\270\216\013\216\013"
 3519      E80C5448 
 3519      680C46E8 
 3519      53B88E0B 
 3519      8E0B
 3520 3206 68046808 		.ascii	"h\004h\010r(\014\005\216\013\014\025\3568L\245\356 "
 3520      72280C05 
 3520      8E0B0C15 
 3520      EE384CA5 
 3520      EE20
 3521 3218 4C05EE18 		.ascii	"L\005\356\030\276\015n<n\034L\245\220\204@\002\016<"
 3521      BE0D6E3C 
 3521      6E1C4CA5 
 3521      90844002 
 3521      0E3C
 3522 322a 4C050000 		.ascii	"L\005\000\000\202\003\201\021l\004\356@L\005nDL\005"
 3522      82038111 
 3522      6C04EE40 
 3522      4C056E44 
 3522      4C05
 3523 323c BE1E8101 		.ascii	"\276\036\201\001\276\004\217U\343\034\001\012\241\253"
 3523      BE048F55 
 3523      E31C010A 
 3523      A1AB
 3524 324a D6D50C05 		.ascii	"\326\325\014\005\204\325\247\013\356\034\245\013\202"
 3524      84D5A70B 
 3524      EE1CA50B 
 3524      82
 3525 3257 25A30B82 		.ascii	"%\243\013\202eJ\370\202\225\216\013h\000l\030\201\205"
 3525      654AF882 
 3525      958E0B68 
 3525      006C1881 
 3525      85
 3526 3268 8E0B6800 		.ascii	"\216\013h\000U\030\201E\216\013h\000\356\030\014\245"
 3526      55188145 
 3526      8E0B6800 
 3526      EE180CA5 
ARM GAS  C:\Temp\ccVQrAGa.s 			page 116


 3527 3278 80F5A3AB 		.ascii	"\200\365\243\253\216\013|\024\3748B\010\356\030\014"
 3527      8E0B7C14 
 3527      FC384208 
 3527      EE180C
 3528 3287 A58A35A5 		.ascii	"\245\2125\245\253n\010\014\025\014\005\207!\204\021"
 3528      AB6E080C 
 3528      150C0587 
 3528      218411
 3529 3296 EE404C15 		.ascii	"\356@L\025\203\015@\020N@\014\025\334\000\001\012n("
 3529      830D4010 
 3529      4E400C15 
 3529      DC00010A 
 3529      6E28
 3530 32a8 0116E040 		.ascii	"\001\026\340@L\005\200\000\014\005\216@\202\015n \204"
 3530      4C058000 
 3530      0C058E40 
 3530      820D6E20 
 3530      84
 3531 32b9 0402108E 		.ascii	"\004\002\020\216@L\025\346\212@\012\356<\014\025\354"
 3531      404C15E6 
 3531      8A400AEE 
 3531      3C0C15EC 
 3532 32c9 3800004C 		.ascii	"8\000\000L\005\200\035\216\013N<\3748V\010\356\030\014"
 3532      05801D8E 
 3532      0B4E3CFC 
 3532      385608EE 
 3532      180C
 3533 32db A58815A7 		.ascii	"\245\210\025\247\253n@\014\005\014\025\207!\001\012"
 3533      AB6E400C 
 3533      050C1587 
 3533      21010A
 3534 32ea EE080116 		.ascii	"\356\010\001\026\340@\204\021\000\000\016@L\005\014"
 3534      E0408411 
 3534      00000E40 
 3534      4C050C
 3535 32f9 05830D4C 		.ascii	"\005\203\015L\025\356 \014\025\316@@\012\356<\000\000"
 3535      15EE200C 
 3535      15CE4040 
 3535      0AEE3C00 
 3535      00
 3536 330a E68A801D 		.ascii	"\346\212\200\035\354\030N<L\005P8\216\013\014\245\350"
 3536      EC184E3C 
 3536      4C055038 
 3536      8E0B0CA5 
 3536      E8
 3537 331b 083E04EE 		.ascii	"\010>\004\356\030\202\001\257\253\000\014\276\016\241"
 3537      188201AF 
 3537      AB000CBE 
 3537      0EA1
 3538 3329 0BE2000C 		.ascii	"\013\342\000\014\005\342e\201\021n\004&\006\202\001"
 3538      05E26581 
 3538      116E0426 
 3538      068201
 3539 3338 FA800004 		.ascii	"\372\200\000\004\014%\203\225\000\000m\234\014E\354"
 3539      0C258395 
 3539      00006D9C 
 3539      0C45EC
ARM GAS  C:\Temp\ccVQrAGa.s 			page 117


 3540 3347 040223EE 		.ascii	"\004\002#\356 \0043\204\021\004S\3400X:\340`FZ\341\222"
 3540      20043384 
 3540      110453E0 
 3540      30583AE0 
 3540      60465AE1 
 3541 335c 44C3E192 		.ascii	"D\303\341\222F\212\3400F2\3500D3\320\220\241\013\340"
 3541      468AE030 
 3541      4632E830 
 3541      4433D090 
 3541      A10BE0
 3542 336f 605995F8 		.ascii	"`Y\225\370\365\301\303\201\201\372<\004\014\354\240"
 3542      F5C1C381 
 3542      81FA3C04 
 3542      0CECA0
 3543 337e 1EF0548E 		.ascii	"\036\360T\216-\204\300\020d\021\023\256\257\224c\321"
 3543      2D84C010 
 3543      641113AE 
 3543      AF9463D1 
 3544 338e 144E91AE 		.ascii	"\024N\221\256\300\020\215\216\217\236\241\304\253\244"
 3544      C0108D8E 
 3544      8F9EA1C4 
 3544      ABA4
 3545 339c A974A564 		.ascii	"\251t\245d\243\204\247\224\211~\213\256\374n\376\236"
 3545      A384A794 
 3545      897E8BAE 
 3545      FC6EFE9E 
 3546 33ac BCCEBE8E 		.ascii	"\274\316\276\216\357\374Wh\014\014\320\361\335\223\362"
 3546      EFFC5768 
 3546      0C0CD0F1 
 3546      DD93F2
 3547 33bb 3CFA1C04 		.ascii	"<\372\034\004L\014\005\200k\241\015\340\210\014\025"
 3547      4C0C0580 
 3547      6BA10DE0 
 3547      880C15
 3548 33ca 80B5830D 		.ascii	"\200\265\203\015\340\274\217\001\200\245\340\230L\005"
 3548      E0BC8F01 
 3548      80A5E098 
 3548      4C05
 3549 33d8 0C158BC5 		.ascii	"\014\025\213\305\014%\341@\014u\340\250F\"\340\030\207"
 3549      0C25E140 
 3549      0C75E0A8 
 3549      4622E018 
 3549      87
 3550 33e9 0BF0840C 		.ascii	"\013\360\204\0145\202U\241;\340|\0145\200\325F\012\340"
 3550      358255A1 
 3550      3BE07C0C 
 3550      3580D546 
 3550      0AE0
 3551 33fb 749295E0 		.ascii	"t\222\225\340\200\341\320\014\031\340\210B\012\003!"
 3551      80E1D00C 
 3551      19E08842 
 3551      0A0321
 3552 340a 82256338 		.ascii	"\202%c8\214\033\014%\350\010L\005\340\250\014\025\340"
 3552      8C1B0C25 
 3552      E8084C05 
 3552      E0A80C15 
 3552      E0
ARM GAS  C:\Temp\ccVQrAGa.s 			page 118


 3553 341b 88875160 		.ascii	"\210\207Q`\304\3404\0145\340\240\014E\340\274L\025H"
 3553      C4E0340C 
 3553      35E0A00C 
 3553      45E0BC4C 
 3553      1548
 3554 342d 4A82334A 		.ascii	"J\2023J2f\226\011]\361\210LU\205QHB`\230LU\220\210\006"
 3554      32669609 
 3554      5DF1884C 
 3554      55855148 
 3554      4260984C 
 3555 3445 40609C48 		.ascii	"@`\234H2\214\004\304+q\210\030$DG\016U\340\210\230s"
 3555      328C04C4 
 3555      2B718818 
 3555      2444470E 
 3555      55E08898 
 3556 345a 7C10E0AC 		.ascii	"|\020\340\254\014E\010%\304W\0124\374\024\216S\340\210"
 3556      0C450825 
 3556      C4570A34 
 3556      FC148E53 
 3556      E088
 3557 346c 0000823D 		.ascii	"\000\000\202=L\005\204\010\202\245\200\300\0060W\304"
 3557      4C058408 
 3557      82A580C0 
 3557      063057C4 
 3558 347c C4C7EC04 		.ascii	"\304\307\354\004\3740\010\305\374u\204\315`\274L5\375"
 3558      FC3008C5 
 3558      FC7584CD 
 3558      60BC4C35 
 3558      FD
 3559 348d C5982BF2 		.ascii	"\305\230+\362\034\014L\014%\335\223\006\024`\204\014"
 3559      1C0C4C0C 
 3559      25DD9306 
 3559      1460840C 
 3560 349d 45E08886 		.ascii	"E\340\210\206s`x\202;\001QL%\202!\202C`\204\016\305"
 3560      73607882 
 3560      3B01514C 
 3560      25822182 
 3560      4360840E 
 3561 34b2 8345DD84 		.ascii	"\203E\335\204\370\020\340 \014\225\304\207\304\307\374"
 3561      F810E020 
 3561      0C95C487 
 3561      C4C7FC
 3562 34c1 3012C5FC 		.ascii	"0\022\305\374 \022\205\361\260X\202J\302\012\315F\020"
 3562      201285F1 
 3562      B058824A 
 3562      C20ACD46 
 3562      10
 3563 34d2 FA148211 		.ascii	"\372\024\202\021\\\000\372\205\210\035\014U\230\024"
 3563      5C00FA85 
 3563      881D0C55 
 3563      9814
 3564 34e0 0C45E03C 		.ascii	"\014E\340<\002\020\340\034\003-\354\004\004C\302'H3"
 3564      0210E01C 
 3564      032DEC04 
 3564      0443C227 
 3564      4833
 3565 34f2 86534853 		.ascii	"\206SHS\3400\332\205\340`\202\001\003\021\340\230L\025"
ARM GAS  C:\Temp\ccVQrAGa.s 			page 119


 3565      E030DA85 
 3565      E0608201 
 3565      0311E098 
 3565      4C15
 3566 3504 E09C4C15 		.ascii	"\340\234L\025\340\274L\005\301\303\371%\372\374\004"
 3566      E0BC4C05 
 3566      C1C3F925 
 3566      FAFC04
 3567 3513 0C0C1580 		.ascii	"\014\014\025\200k\241\035\340\214\014\005\2025\200\035"
 3567      6BA11DE0 
 3567      8C0C0582 
 3567      35801D
 3568 3522 E0880C05 		.ascii	"\340\210\014\005\200\245\203\015\340\274\217\001\200"
 3568      80A5830D 
 3568      E0BC8F01 
 3568      80
 3569 352f E5E0984C 		.ascii	"\345\340\230L\005\362\374\014\014\014U\335\223\014%"
 3569      05F2FC0C 
 3569      0C0C55DD 
 3569      930C25
 3570 353e E1440CC5 		.ascii	"\341D\014\305\340\250\0145\340\030\014K\340\264DR`H"
 3570      E0A80C35 
 3570      E0180C4B 
 3570      E0B44452 
 3570      6048
 3571 3550 0C2BF188 		.ascii	"\014+\361\210\205\033`P\340\310\014\205\340\314\014"
 3571      851B6050 
 3571      E0C80C85 
 3571      E0CC0C
 3572 355f 750C9582 		.ascii	"u\014\225\202u\241\233\340\200\014\225\200\365R\012"
 3572      75A19BE0 
 3572      800C9580 
 3572      F5520A
 3573 356e E0740FB8 		.ascii	"\340t\017\270\340\200\014U\300\000T\206`pR\002\340<"
 3573      E0800C55 
 3573      C0005486 
 3573      60705202 
 3573      E03C
 3574 3580 AAA3F184 		.ascii	"\252\243\361\204\226E\224\235`\224\014U\225[\375\241"
 3574      9645949D 
 3574      60940C55 
 3574      955BFDA1 
 3575 3590 0C5594A5 		.ascii	"\014U\224\245\024P\3404\026\244\344\004\226\243\341"
 3575      1450E034 
 3575      16A4E404 
 3575      96A3E1
 3576 359f FC8AA383 		.ascii	"\374\212\243\203\247\222E\225\235p\204R\002\002\221"
 3576      A7924595 
 3576      9D708452 
 3576      020291
 3577 35ae C6371494 		.ascii	"\3067\024\224\2401\3137a\374\371\241\024\223\014\245"
 3577      A031CB37 
 3577      61FCF9A1 
 3577      14930CA5 
 3578 35be C297949F 		.ascii	"\302\227\224\237`\020\030\225\222\303\262\304\370\014"
 3578      60101895 
 3578      92C3B2C4 
ARM GAS  C:\Temp\ccVQrAGa.s 			page 120


 3578      F80C
 3579 35cc 14A5C497 		.ascii	"\024\245\304\227\304\307|$d\020\026\240\307\267\206"
 3579      C4C77C24 
 3579      641016A0 
 3579      C7B786
 3580 35db A3669248 		.ascii	"\243f\222H\272\177\374W\216\010@\303\377\311G\345\000"
 3580      BA7FFC57 
 3580      8E0840C3 
 3580      FFC947E5 
 3580      00
 3581 35ec 60200CB5 		.ascii	"` \014\265\210\243\226O\360\012H\252\374$\026\225\374"
 3581      88A3964F 
 3581      F00A48AA 
 3581      FC241695 
 3581      FC
 3582 35fd 3016C5E6 		.ascii	"0\026\305\346\212DJ\004 \246\223\230\223f\000\204\235"
 3582      8A444A04 
 3582      20A69398 
 3582      93660084 
 3582      9D
 3583 360e D1270C25 		.ascii	"\321'\014%\204\245\2304\340\204\340\034\014EL%\202!"
 3583      84A59834 
 3583      E084E01C 
 3583      0C454C25 
 3583      8221
 3584 3620 06306084 		.ascii	"\0060`\204\007-\354\004\004C\302'\361\224F\002\3400"
 3584      072DEC04 
 3584      0443C227 
 3584      F1944602 
 3584      E030
 3585 3632 4833E060 		.ascii	"H3\340`H\003\014\005\336e\377\221a4`\224L\225sX\214"
 3585      48030C05 
 3585      DE65FF91 
 3585      61346094 
 3585      4C957358 
 3586 3647 2B0C35E8 		.ascii	"+\0145\350\010\014%\340\214H2\340\210\206\033q\200a"
 3586      080C25E0 
 3586      8C4832E0 
 3586      88861B71 
 3586      8061
 3587 3659 3C4C4542 		.ascii	"<LEB@\205M\253\015\034\000\341<L\025\014\011\202\325"
 3587      40854DAB 
 3587      0D1C00E1 
 3587      3C4C150C 
 3587      0982D5
 3588 366c 400AE1D0 		.ascii	"@\012\341\320\000&\340\220L\005\300\000L\005\300\230"
 3588      0026E090 
 3588      4C05C000 
 3588      4C05C098 
 3589 367c 0030409C 		.ascii	"\0000@\234\2245\314\020`4\014\005\361\210H2\206\345"
 3589      9435CC10 
 3589      60340C05 
 3589      F1884832 
 3589      86E5
 3590 368e 880DE404 		.ascii	"\210\015\344\004\002\000\006\024\250\023\0145\341\374"
 3590      02000614 
 3590      A8130C35 
ARM GAS  C:\Temp\ccVQrAGa.s 			page 121


 3590      E1FC
 3591 369c 86136084 		.ascii	"\206\023`\204\014\025\203\027\242#`\034\204\003\002"
 3591      0C158317 
 3591      A223601C 
 3591      840302
 3592 36ab 3160844C 		.ascii	"1`\204L5"
 3592      35
 3593 36b0 4C25C237 		.ascii	"L%\3027\206\023`\210`0B#L\005\217!B\003\340\214L%\340"
 3593      86136088 
 3593      60304223 
 3593      4C058F21 
 3593      4203E08C 
 3594 36c7 60E755E0 		.ascii	"`\347U\340\230`8\014\005\361\210J\022\340\244\014E\211"
 3594      9860380C 
 3594      05F1884A 
 3594      12E0A40C 
 3594      4589
 3595 36d9 5D804330 		.ascii	"]\200C0#\212E\360\234@2`\210L%L\005\214\033h\270\340"
 3595      238A45F0 
