ARM GAS  C:\Temp\ccVQrAGa.s 			page 1


   1              		.cpu cortex-m4
   2              		.arch armv7e-m
   3              		.fpu fpv4-sp-d16
   4              		.eabi_attribute 27, 1
   5              		.eabi_attribute 28, 1
   6              		.eabi_attribute 20, 1
   7              		.eabi_attribute 21, 1
   8              		.eabi_attribute 23, 3
   9              		.eabi_attribute 24, 1
  10              		.eabi_attribute 25, 1
  11              		.eabi_attribute 26, 1
  12              		.eabi_attribute 30, 1
  13              		.eabi_attribute 34, 1
  14              		.eabi_attribute 18, 4
  15              		.file	"vl53l8cx_api.c"
  16              		.text
  17              		.section	.text._vl53l8cx_poll_for_mcu_boot,"ax",%progbits
  18              		.align	1
  19              		.syntax unified
  20              		.thumb
  21              		.thumb_func
  23              	_vl53l8cx_poll_for_mcu_boot:
  24              		@ args = 0, pretend = 0, frame = 8
  25              		@ frame_needed = 0, uses_anonymous_args = 0
  26 0000 70B5     		push	{r4, r5, r6, lr}
  27 0002 82B0     		sub	sp, sp, #8
  28 0004 0646     		mov	r6, r0
  29 0006 0024     		movs	r4, #0
  30 0008 2546     		mov	r5, r4
  31 000a 0DE0     		b	.L4
  32              	.L2:
  33 000c 0121     		movs	r1, #1
  34 000e 3046     		mov	r0, r6
  35 0010 FFF7FEFF 		bl	VL53L8CX_WaitMs
  36 0014 0134     		adds	r4, r4, #1
  37 0016 A4B2     		uxth	r4, r4
  38 0018 9DF80730 		ldrb	r3, [sp, #7]	@ zero_extendqisi2
  39 001c 13F0010F 		tst	r3, #1
  40 0020 1BD1     		bne	.L3
  41 0022 B4F5FA7F 		cmp	r4, #500
  42 0026 18D2     		bcs	.L3
  43              	.L4:
  44 0028 0DF10702 		add	r2, sp, #7
  45 002c 0621     		movs	r1, #6
  46 002e 3046     		mov	r0, r6
  47 0030 FFF7FEFF 		bl	VL53L8CX_RdByte
  48 0034 2843     		orrs	r0, r0, r5
  49 0036 C5B2     		uxtb	r5, r0
  50 0038 9DF90730 		ldrsb	r3, [sp, #7]
  51 003c 002B     		cmp	r3, #0
  52 003e E5DA     		bge	.L2
  53 0040 0DF10602 		add	r2, sp, #6
  54 0044 0721     		movs	r1, #7
  55 0046 3046     		mov	r0, r6
  56 0048 FFF7FEFF 		bl	VL53L8CX_RdByte
  57 004c 2843     		orrs	r0, r0, r5
  58 004e C5B2     		uxtb	r5, r0
ARM GAS  C:\Temp\ccVQrAGa.s 			page 2


  59 0050 9DF80630 		ldrb	r3, [sp, #6]	@ zero_extendqisi2
  60 0054 13F0010F 		tst	r3, #1
  61 0058 D8D0     		beq	.L2
  62              	.L3:
  63 005a 2846     		mov	r0, r5
  64 005c 02B0     		add	sp, sp, #8
  65              		@ sp needed
  66 005e 70BD     		pop	{r4, r5, r6, pc}
  68              		.section	.text._vl53l8cx_poll_for_answer,"ax",%progbits
  69              		.align	1
  70              		.syntax unified
  71              		.thumb
  72              		.thumb_func
  74              	_vl53l8cx_poll_for_answer:
  75              		@ args = 8, pretend = 0, frame = 0
  76              		@ frame_needed = 0, uses_anonymous_args = 0
  77 0000 2DE9F84F 		push	{r3, r4, r5, r6, r7, r8, r9, r10, fp, lr}
  78 0004 0646     		mov	r6, r0
  79 0006 0F46     		mov	r7, r1
  80 0008 9146     		mov	r9, r2
  81 000a 9846     		mov	r8, r3
  82 000c 9DF828B0 		ldrb	fp, [sp, #40]	@ zero_extendqisi2
  83 0010 9DF82CA0 		ldrb	r10, [sp, #44]	@ zero_extendqisi2
  84 0014 0025     		movs	r5, #0
  85 0016 2C46     		mov	r4, r5
  86 0018 0CE0     		b	.L10
  87              	.L12:
  88 001a 44F00104 		orr	r4, r4, #1
  89 001e 22E0     		b	.L8
  90              	.L9:
  91 0020 0135     		adds	r5, r5, #1
  92 0022 EDB2     		uxtb	r5, r5
  93 0024 06EB0903 		add	r3, r6, r9
  94 0028 93F81035 		ldrb	r3, [r3, #1296]	@ zero_extendqisi2
  95 002c 03EA0B03 		and	r3, r3, fp
  96 0030 5345     		cmp	r3, r10
  97 0032 18D0     		beq	.L8
  98              	.L10:
  99 0034 3B46     		mov	r3, r7
 100 0036 06F5A262 		add	r2, r6, #1296
 101 003a 4146     		mov	r1, r8
 102 003c 3046     		mov	r0, r6
 103 003e FFF7FEFF 		bl	VL53L8CX_RdMulti
 104 0042 0443     		orrs	r4, r4, r0
 105 0044 E4B2     		uxtb	r4, r4
 106 0046 0A21     		movs	r1, #10
 107 0048 3046     		mov	r0, r6
 108 004a FFF7FEFF 		bl	VL53L8CX_WaitMs
 109 004e 0443     		orrs	r4, r4, r0
 110 0050 E4B2     		uxtb	r4, r4
 111 0052 C72D     		cmp	r5, #199
 112 0054 E1D8     		bhi	.L12
 113 0056 032F     		cmp	r7, #3
 114 0058 E2D9     		bls	.L9
 115 005a 96F81235 		ldrb	r3, [r6, #1298]	@ zero_extendqisi2
 116 005e 7E2B     		cmp	r3, #126
 117 0060 DED9     		bls	.L9
ARM GAS  C:\Temp\ccVQrAGa.s 			page 3


 118 0062 44F04204 		orr	r4, r4, #66
 119              	.L8:
 120 0066 2046     		mov	r0, r4
 121 0068 BDE8F88F 		pop	{r3, r4, r5, r6, r7, r8, r9, r10, fp, pc}
 123              		.section	.text._vl53l8cx_send_offset_data,"ax",%progbits
 124              		.align	1
 125              		.syntax unified
 126              		.thumb
 127              		.thumb_func
 129              	_vl53l8cx_send_offset_data:
 130              		@ args = 0, pretend = 0, frame = 400
 131              		@ frame_needed = 0, uses_anonymous_args = 0
 132 0000 2DE9F04F 		push	{r4, r5, r6, r7, r8, r9, r10, fp, lr}
 133 0004 E7B0     		sub	sp, sp, #412
 134 0006 0446     		mov	r4, r0
 135 0008 0E46     		mov	r6, r1
 136 000a 04AA     		add	r2, sp, #16
 137 000c 5A4B     		ldr	r3, .L26
 138 000e 93E80300 		ldm	r3, {r0, r1}
 139 0012 82E80300 		stm	r2, {r0, r1}
 140 0016 02AA     		add	r2, sp, #8
 141 0018 0833     		adds	r3, r3, #8
 142 001a 93E80300 		ldm	r3, {r0, r1}
 143 001e 82E80300 		stm	r2, {r0, r1}
 144 0022 04F5A265 		add	r5, r4, #1296
 145 0026 4FF4F472 		mov	r2, #488
 146 002a 04F12001 		add	r1, r4, #32
 147 002e 2846     		mov	r0, r5
 148 0030 FFF7FEFF 		bl	memcpy
 149 0034 102E     		cmp	r6, #16
 150 0036 01D0     		beq	.L23
 151              	.L14:
 152 0038 0023     		movs	r3, #0
 153 003a 7AE0     		b	.L19
 154              	.L23:
 155 003c 04AB     		add	r3, sp, #16
 156 003e 03CB     		ldmia	r3!, {r0, r1}
 157 0040 C4F82005 		str	r0, [r4, #1312]	@ unaligned
 158 0044 C4F82415 		str	r1, [r4, #1316]	@ unaligned
 159 0048 4FF4F471 		mov	r1, #488
 160 004c 2846     		mov	r0, r5
 161 004e FFF7FEFF 		bl	VL53L8CX_SwapBuffer
 162 0052 04F24C57 		addw	r7, r4, #1356
 163 0056 4FF48072 		mov	r2, #256
 164 005a 3946     		mov	r1, r7
 165 005c 26A8     		add	r0, sp, #152
 166 005e FFF7FEFF 		bl	memcpy
 167 0062 04F5CA6B 		add	fp, r4, #1616
 168 0066 8022     		movs	r2, #128
 169 0068 5946     		mov	r1, fp
 170 006a 06A8     		add	r0, sp, #24
 171 006c FFF7FEFF 		bl	memcpy
 172 0070 0020     		movs	r0, #0
 173 0072 35E0     		b	.L15
 174              	.L16:
 175 0074 9B10     		asrs	r3, r3, #2
 176 0076 06AA     		add	r2, sp, #24
ARM GAS  C:\Temp\ccVQrAGa.s 			page 4


 177 0078 22F81930 		strh	r3, [r2, r9, lsl #1]	@ movhi
 178 007c 0131     		adds	r1, r1, #1
 179 007e 49B2     		sxtb	r1, r1
 180              	.L18:
 181 0080 0329     		cmp	r1, #3
 182 0082 2BDC     		bgt	.L24
 183 0084 01EBC002 		add	r2, r1, r0, lsl #3
 184 0088 4FEA420E 		lsl	lr, r2, #1
 185 008c 0DF1980C 		add	ip, sp, #152
 186 0090 5CF82E30 		ldr	r3, [ip, lr, lsl #2]
 187 0094 0EF10108 		add	r8, lr, #1
 188 0098 5CF82860 		ldr	r6, [ip, r8, lsl #2]
 189 009c 3344     		add	r3, r3, r6
 190 009e 0432     		adds	r2, r2, #4
 191 00a0 5200     		lsls	r2, r2, #1
 192 00a2 5CF82260 		ldr	r6, [ip, r2, lsl #2]
 193 00a6 3344     		add	r3, r3, r6
 194 00a8 0EF1090A 		add	r10, lr, #9
 195 00ac 5CF82A60 		ldr	r6, [ip, r10, lsl #2]
 196 00b0 3344     		add	r3, r3, r6
 197 00b2 01EB8009 		add	r9, r1, r0, lsl #2
 198 00b6 9B08     		lsrs	r3, r3, #2
 199 00b8 4CF82930 		str	r3, [ip, r9, lsl #2]
 200 00bc 0DF1180C 		add	ip, sp, #24
 201 00c0 3CF91E30 		ldrsh	r3, [ip, lr, lsl #1]
 202 00c4 3CF918E0 		ldrsh	lr, [ip, r8, lsl #1]
 203 00c8 7344     		add	r3, r3, lr
 204 00ca 3CF91220 		ldrsh	r2, [ip, r2, lsl #1]
 205 00ce 1344     		add	r3, r3, r2
 206 00d0 3CF91A20 		ldrsh	r2, [ip, r10, lsl #1]
 207 00d4 9B18     		adds	r3, r3, r2
 208 00d6 CDD5     		bpl	.L16
 209 00d8 0333     		adds	r3, r3, #3
 210 00da CBE7     		b	.L16
 211              	.L24:
 212 00dc 0130     		adds	r0, r0, #1
 213 00de 40B2     		sxtb	r0, r0
 214              	.L15:
 215 00e0 0328     		cmp	r0, #3
 216 00e2 01DC     		bgt	.L25
 217 00e4 0021     		movs	r1, #0
 218 00e6 CBE7     		b	.L18
 219              	.L25:
 220 00e8 6022     		movs	r2, #96
 221 00ea 0021     		movs	r1, #0
 222 00ec 0EA8     		add	r0, sp, #56
 223 00ee FFF7FEFF 		bl	memset
 224 00f2 C022     		movs	r2, #192
 225 00f4 0021     		movs	r1, #0
 226 00f6 36A8     		add	r0, sp, #216
 227 00f8 FFF7FEFF 		bl	memset
 228 00fc 4FF48072 		mov	r2, #256
 229 0100 26A9     		add	r1, sp, #152
 230 0102 3846     		mov	r0, r7
 231 0104 FFF7FEFF 		bl	memcpy
 232 0108 8022     		movs	r2, #128
 233 010a 06A9     		add	r1, sp, #24
ARM GAS  C:\Temp\ccVQrAGa.s 			page 5


 234 010c 5846     		mov	r0, fp
 235 010e FFF7FEFF 		bl	memcpy
 236 0112 4FF4F471 		mov	r1, #488
 237 0116 2846     		mov	r0, r5
 238 0118 FFF7FEFF 		bl	VL53L8CX_SwapBuffer
 239 011c 8CE7     		b	.L14
 240              	.L20:
 241 011e 03F10802 		add	r2, r3, #8
 242 0122 2244     		add	r2, r2, r4
 243 0124 92F81015 		ldrb	r1, [r2, #1296]	@ zero_extendqisi2
 244 0128 E218     		adds	r2, r4, r3
 245 012a 82F81015 		strb	r1, [r2, #1296]
 246 012e 0133     		adds	r3, r3, #1
 247 0130 9BB2     		uxth	r3, r3
 248              	.L19:
 249 0132 B3F5F27F 		cmp	r3, #484
 250 0136 F2D3     		bcc	.L20
 251 0138 02AB     		add	r3, sp, #8
 252 013a 03CB     		ldmia	r3!, {r0, r1}
 253 013c C4F8F006 		str	r0, [r4, #1776]	@ unaligned
 254 0140 C4F8F416 		str	r1, [r4, #1780]	@ unaligned
 255 0144 4FF4F473 		mov	r3, #488
 256 0148 2A46     		mov	r2, r5
 257 014a 42F61861 		movw	r1, #11800
 258 014e 2046     		mov	r0, r4
 259 0150 FFF7FEFF 		bl	VL53L8CX_WrMulti
 260 0154 0546     		mov	r5, r0
 261 0156 0323     		movs	r3, #3
 262 0158 0193     		str	r3, [sp, #4]
 263 015a FF23     		movs	r3, #255
 264 015c 0093     		str	r3, [sp]
 265 015e 4FF43053 		mov	r3, #11264
 266 0162 0122     		movs	r2, #1
 267 0164 0421     		movs	r1, #4
 268 0166 2046     		mov	r0, r4
 269 0168 FFF7FEFF 		bl	_vl53l8cx_poll_for_answer
 270 016c 2843     		orrs	r0, r0, r5
 271 016e C0B2     		uxtb	r0, r0
 272 0170 67B0     		add	sp, sp, #412
 273              		@ sp needed
 274 0172 BDE8F08F 		pop	{r4, r5, r6, r7, r8, r9, r10, fp, pc}
 275              	.L27:
 276 0176 00BF     		.align	2
 277              	.L26:
 278 0178 00000000 		.word	.LANCHOR0
 280              		.section	.rodata._vl53l8cx_send_xtalk_data.str1.4,"aMS",%progbits,1
 281              		.align	2
 282              	.LC4:
 283 0000 0F040417 		.ascii	"\017\004\004\027\010\020\020\007\000"
 283      08101007 
 283      00
 284              		.section	.text._vl53l8cx_send_xtalk_data,"ax",%progbits
 285              		.align	1
 286              		.syntax unified
 287              		.thumb
 288              		.thumb_func
 290              	_vl53l8cx_send_xtalk_data:
ARM GAS  C:\Temp\ccVQrAGa.s 			page 6


 291              		@ args = 0, pretend = 0, frame = 280
 292              		@ frame_needed = 0, uses_anonymous_args = 0
 293 0000 F0B5     		push	{r4, r5, r6, r7, lr}
 294 0002 C9B0     		sub	sp, sp, #292
 295 0004 0446     		mov	r4, r0
 296 0006 0E46     		mov	r6, r1
 297 0008 444B     		ldr	r3, .L37
 298 000a 93E80300 		ldm	r3, {r0, r1}
 299 000e 48AB     		add	r3, sp, #288
 300 0010 03E90300 		stmdb	r3, {r0, r1}
 301 0014 44AB     		add	r3, sp, #272
 302 0016 424A     		ldr	r2, .L37+4
 303 0018 92E80300 		ldm	r2, {r0, r1}
 304 001c 83E80300 		stm	r3, {r0, r1}
 305 0020 404B     		ldr	r3, .L37+8
 306 0022 4393     		str	r3, [sp, #268]
 307 0024 04F5A265 		add	r5, r4, #1296
 308 0028 4FF44272 		mov	r2, #776
 309 002c 04F50271 		add	r1, r4, #520
 310 0030 2846     		mov	r0, r5
 311 0032 FFF7FEFF 		bl	memcpy
 312 0036 102E     		cmp	r6, #16
 313 0038 17D0     		beq	.L35
 314              	.L29:
 315 003a 4FF44273 		mov	r3, #776
 316 003e 2A46     		mov	r2, r5
 317 0040 42F6F841 		movw	r1, #11512
 318 0044 2046     		mov	r0, r4
 319 0046 FFF7FEFF 		bl	VL53L8CX_WrMulti
 320 004a 0546     		mov	r5, r0
 321 004c 0323     		movs	r3, #3
 322 004e 0193     		str	r3, [sp, #4]
 323 0050 FF23     		movs	r3, #255
 324 0052 0093     		str	r3, [sp]
 325 0054 4FF43053 		mov	r3, #11264
 326 0058 0122     		movs	r2, #1
 327 005a 0421     		movs	r1, #4
 328 005c 2046     		mov	r0, r4
 329 005e FFF7FEFF 		bl	_vl53l8cx_poll_for_answer
 330 0062 2843     		orrs	r0, r0, r5
 331 0064 C0B2     		uxtb	r0, r0
 332 0066 49B0     		add	sp, sp, #292
 333              		@ sp needed
 334 0068 F0BD     		pop	{r4, r5, r6, r7, pc}
 335              	.L35:
 336 006a 46AB     		add	r3, sp, #280
 337 006c 03CB     		ldmia	r3!, {r0, r1}
 338 006e C4F81805 		str	r0, [r4, #1304]	@ unaligned
 339 0072 C4F81C15 		str	r1, [r4, #1308]	@ unaligned
 340 0076 44AB     		add	r3, sp, #272
 341 0078 03CB     		ldmia	r3!, {r0, r1}
 342 007a C4F83005 		str	r0, [r4, #1328]	@ unaligned
 343 007e C4F83415 		str	r1, [r4, #1332]	@ unaligned
 344 0082 4FF44271 		mov	r1, #776
 345 0086 2846     		mov	r0, r5
 346 0088 FFF7FEFF 		bl	VL53L8CX_SwapBuffer
 347 008c 04F24456 		addw	r6, r4, #1348
ARM GAS  C:\Temp\ccVQrAGa.s 			page 7


 348 0090 4FF48072 		mov	r2, #256
 349 0094 3146     		mov	r1, r6
 350 0096 03A8     		add	r0, sp, #12
 351 0098 FFF7FEFF 		bl	memcpy
 352 009c 4FF0000E 		mov	lr, #0
 353 00a0 20E0     		b	.L30
 354              	.L31:
 355 00a2 02EBCE0C 		add	ip, r2, lr, lsl #3
 356 00a6 4FEA4C00 		lsl	r0, ip, #1
 357 00aa 03A9     		add	r1, sp, #12
 358 00ac 51F82030 		ldr	r3, [r1, r0, lsl #2]
 359 00b0 471C     		adds	r7, r0, #1
 360 00b2 51F82770 		ldr	r7, [r1, r7, lsl #2]
 361 00b6 3B44     		add	r3, r3, r7
 362 00b8 0CF1040C 		add	ip, ip, #4
 363 00bc 51F83C70 		ldr	r7, [r1, ip, lsl #3]
 364 00c0 3B44     		add	r3, r3, r7
 365 00c2 0930     		adds	r0, r0, #9
 366 00c4 51F82000 		ldr	r0, [r1, r0, lsl #2]
 367 00c8 0344     		add	r3, r3, r0
 368 00ca 02EB8E00 		add	r0, r2, lr, lsl #2
 369 00ce 9B08     		lsrs	r3, r3, #2
 370 00d0 41F82030 		str	r3, [r1, r0, lsl #2]
 371 00d4 0132     		adds	r2, r2, #1
 372 00d6 52B2     		sxtb	r2, r2
 373              	.L32:
 374 00d8 032A     		cmp	r2, #3
 375 00da E2DD     		ble	.L31
 376 00dc 0EF1010E 		add	lr, lr, #1
 377 00e0 4FFA8EFE 		sxtb	lr, lr
 378              	.L30:
 379 00e4 BEF1030F 		cmp	lr, #3
 380 00e8 01DC     		bgt	.L36
 381 00ea 0022     		movs	r2, #0
 382 00ec F4E7     		b	.L32
 383              	.L36:
 384 00ee C022     		movs	r2, #192
 385 00f0 0021     		movs	r1, #0
 386 00f2 13A8     		add	r0, sp, #76
 387 00f4 FFF7FEFF 		bl	memset
 388 00f8 4FF48072 		mov	r2, #256
 389 00fc 03A9     		add	r1, sp, #12
 390 00fe 3046     		mov	r0, r6
 391 0100 FFF7FEFF 		bl	memcpy
 392 0104 4FF44271 		mov	r1, #776
 393 0108 2846     		mov	r0, r5
 394 010a FFF7FEFF 		bl	VL53L8CX_SwapBuffer
 395 010e 439B     		ldr	r3, [sp, #268]
 396 0110 C4F84436 		str	r3, [r4, #1604]	@ unaligned
 397 0114 0023     		movs	r3, #0
 398 0116 C4F88835 		str	r3, [r4, #1416]	@ unaligned
 399 011a 8EE7     		b	.L29
 400              	.L38:
 401              		.align	2
 402              	.L37:
 403 011c 00000000 		.word	.LC4
 404 0120 10000000 		.word	.LANCHOR0+16
ARM GAS  C:\Temp\ccVQrAGa.s 			page 8


 405 0124 A0FC0100 		.word	130208
 407              		.section	.text.vl53l8cx_is_alive,"ax",%progbits
 408              		.align	1
 409              		.global	vl53l8cx_is_alive
 410              		.syntax unified
 411              		.thumb
 412              		.thumb_func
 414              	vl53l8cx_is_alive:
 415              		@ args = 0, pretend = 0, frame = 8
 416              		@ frame_needed = 0, uses_anonymous_args = 0
 417 0000 70B5     		push	{r4, r5, r6, lr}
 418 0002 82B0     		sub	sp, sp, #8
 419 0004 0646     		mov	r6, r0
 420 0006 0D46     		mov	r5, r1
 421 0008 0022     		movs	r2, #0
 422 000a 47F6FF71 		movw	r1, #32767
 423 000e FFF7FEFF 		bl	VL53L8CX_WrByte
 424 0012 0446     		mov	r4, r0
 425 0014 0DF10702 		add	r2, sp, #7
 426 0018 0021     		movs	r1, #0
 427 001a 3046     		mov	r0, r6
 428 001c FFF7FEFF 		bl	VL53L8CX_RdByte
 429 0020 0443     		orrs	r4, r4, r0
 430 0022 E4B2     		uxtb	r4, r4
 431 0024 0DF10602 		add	r2, sp, #6
 432 0028 0121     		movs	r1, #1
 433 002a 3046     		mov	r0, r6
 434 002c FFF7FEFF 		bl	VL53L8CX_RdByte
 435 0030 0443     		orrs	r4, r4, r0
 436 0032 E4B2     		uxtb	r4, r4
 437 0034 0222     		movs	r2, #2
 438 0036 47F6FF71 		movw	r1, #32767
 439 003a 3046     		mov	r0, r6
 440 003c FFF7FEFF 		bl	VL53L8CX_WrByte
 441 0040 2043     		orrs	r0, r0, r4
 442 0042 C0B2     		uxtb	r0, r0
 443 0044 9DF80730 		ldrb	r3, [sp, #7]	@ zero_extendqisi2
 444 0048 F02B     		cmp	r3, #240
 445 004a 03D0     		beq	.L43
 446              	.L40:
 447 004c 0023     		movs	r3, #0
 448 004e 2B70     		strb	r3, [r5]
 449              	.L41:
 450 0050 02B0     		add	sp, sp, #8
 451              		@ sp needed
 452 0052 70BD     		pop	{r4, r5, r6, pc}
 453              	.L43:
 454 0054 9DF80630 		ldrb	r3, [sp, #6]	@ zero_extendqisi2
 455 0058 0C2B     		cmp	r3, #12
 456 005a F7D1     		bne	.L40
 457 005c 0123     		movs	r3, #1
 458 005e 2B70     		strb	r3, [r5]
 459 0060 F6E7     		b	.L41
 461              		.section	.text.vl53l8cx_set_i2c_address,"ax",%progbits
 462              		.align	1
 463              		.global	vl53l8cx_set_i2c_address
 464              		.syntax unified
ARM GAS  C:\Temp\ccVQrAGa.s 			page 9


 465              		.thumb
 466              		.thumb_func
 468              	vl53l8cx_set_i2c_address:
 469              		@ args = 0, pretend = 0, frame = 0
 470              		@ frame_needed = 0, uses_anonymous_args = 0
 471 0000 70B5     		push	{r4, r5, r6, lr}
 472 0002 0546     		mov	r5, r0
 473 0004 0E46     		mov	r6, r1
 474 0006 0022     		movs	r2, #0
 475 0008 47F6FF71 		movw	r1, #32767
 476 000c FFF7FEFF 		bl	VL53L8CX_WrByte
 477 0010 0446     		mov	r4, r0
 478 0012 C6F34702 		ubfx	r2, r6, #1, #8
 479 0016 0421     		movs	r1, #4
 480 0018 2846     		mov	r0, r5
 481 001a FFF7FEFF 		bl	VL53L8CX_WrByte
 482 001e 0443     		orrs	r4, r4, r0
 483 0020 E4B2     		uxtb	r4, r4
 484 0022 2E80     		strh	r6, [r5]	@ movhi
 485 0024 0222     		movs	r2, #2
 486 0026 47F6FF71 		movw	r1, #32767
 487 002a 2846     		mov	r0, r5
 488 002c FFF7FEFF 		bl	VL53L8CX_WrByte
 489 0030 2043     		orrs	r0, r0, r4
 490 0032 C0B2     		uxtb	r0, r0
 491 0034 70BD     		pop	{r4, r5, r6, pc}
 493              		.section	.text.vl53l8cx_get_power_mode,"ax",%progbits
 494              		.align	1
 495              		.global	vl53l8cx_get_power_mode
 496              		.syntax unified
 497              		.thumb
 498              		.thumb_func
 500              	vl53l8cx_get_power_mode:
 501              		@ args = 0, pretend = 0, frame = 8
 502              		@ frame_needed = 0, uses_anonymous_args = 0
 503 0000 70B5     		push	{r4, r5, r6, lr}
 504 0002 82B0     		sub	sp, sp, #8
 505 0004 0546     		mov	r5, r0
 506 0006 0E46     		mov	r6, r1
 507 0008 0022     		movs	r2, #0
 508 000a 47F6FF71 		movw	r1, #32767
 509 000e FFF7FEFF 		bl	VL53L8CX_WrByte
 510 0012 0446     		mov	r4, r0
 511 0014 0DF10702 		add	r2, sp, #7
 512 0018 0921     		movs	r1, #9
 513 001a 2846     		mov	r0, r5
 514 001c FFF7FEFF 		bl	VL53L8CX_RdByte
 515 0020 0443     		orrs	r4, r4, r0
 516 0022 E4B2     		uxtb	r4, r4
 517 0024 9DF80730 		ldrb	r3, [sp, #7]	@ zero_extendqisi2
 518 0028 022B     		cmp	r3, #2
 519 002a 0DD0     		beq	.L47
 520 002c 042B     		cmp	r3, #4
 521 002e 1DD1     		bne	.L48
 522 0030 0123     		movs	r3, #1
 523 0032 3370     		strb	r3, [r6]
 524              	.L49:
ARM GAS  C:\Temp\ccVQrAGa.s 			page 10


 525 0034 0222     		movs	r2, #2
 526 0036 47F6FF71 		movw	r1, #32767
 527 003a 2846     		mov	r0, r5
 528 003c FFF7FEFF 		bl	VL53L8CX_WrByte
 529 0040 2043     		orrs	r0, r0, r4
 530 0042 C0B2     		uxtb	r0, r0
 531 0044 02B0     		add	sp, sp, #8
 532              		@ sp needed
 533 0046 70BD     		pop	{r4, r5, r6, pc}
 534              	.L47:
 535 0048 0DF10702 		add	r2, sp, #7
 536 004c 0F21     		movs	r1, #15
 537 004e 2846     		mov	r0, r5
 538 0050 FFF7FEFF 		bl	VL53L8CX_RdByte
 539 0054 2043     		orrs	r0, r0, r4
 540 0056 C4B2     		uxtb	r4, r0
 541 0058 9DF80730 		ldrb	r3, [sp, #7]	@ zero_extendqisi2
 542 005c 432B     		cmp	r3, #67
 543 005e 02D0     		beq	.L52
 544 0060 0023     		movs	r3, #0
 545 0062 3370     		strb	r3, [r6]
 546 0064 E6E7     		b	.L49
 547              	.L52:
 548 0066 0223     		movs	r3, #2
 549 0068 3370     		strb	r3, [r6]
 550 006a E3E7     		b	.L49
 551              	.L48:
 552 006c 0023     		movs	r3, #0
 553 006e 3370     		strb	r3, [r6]
 554 0070 FF24     		movs	r4, #255
 555 0072 DFE7     		b	.L49
 557              		.section	.text.vl53l8cx_stop_ranging,"ax",%progbits
 558              		.align	1
 559              		.global	vl53l8cx_stop_ranging
 560              		.syntax unified
 561              		.thumb
 562              		.thumb_func
 564              	vl53l8cx_stop_ranging:
 565              		@ args = 0, pretend = 0, frame = 8
 566              		@ frame_needed = 0, uses_anonymous_args = 0
 567 0000 70B5     		push	{r4, r5, r6, lr}
 568 0002 82B0     		sub	sp, sp, #8
 569 0004 0546     		mov	r5, r0
 570 0006 0023     		movs	r3, #0
 571 0008 8DF80730 		strb	r3, [sp, #7]
 572 000c 0093     		str	r3, [sp]
 573 000e 0423     		movs	r3, #4
 574 0010 6A46     		mov	r2, sp
 575 0012 42F6FC71 		movw	r1, #12284
 576 0016 FFF7FEFF 		bl	VL53L8CX_RdMulti
 577 001a 0446     		mov	r4, r0
 578 001c 009A     		ldr	r2, [sp]
 579 001e 40F2FF43 		movw	r3, #1279
 580 0022 9A42     		cmp	r2, r3
 581 0024 02D0     		beq	.L54
 582 0026 95F81039 		ldrb	r3, [r5, #2320]	@ zero_extendqisi2
 583 002a 93B3     		cbz	r3, .L59
ARM GAS  C:\Temp\ccVQrAGa.s 			page 11


 584              	.L54:
 585 002c 0DF10702 		add	r2, sp, #7
 586 0030 0621     		movs	r1, #6
 587 0032 2846     		mov	r0, r5
 588 0034 FFF7FEFF 		bl	VL53L8CX_RdByte
 589 0038 0443     		orrs	r4, r4, r0
 590 003a E4B2     		uxtb	r4, r4
 591 003c 9DF90730 		ldrsb	r3, [sp, #7]
 592 0040 002B     		cmp	r3, #0
 593 0042 58DB     		blt	.L60
 594              	.L57:
 595 0044 0022     		movs	r2, #0
 596 0046 47F6FF71 		movw	r1, #32767
 597 004a 2846     		mov	r0, r5
 598 004c FFF7FEFF 		bl	VL53L8CX_WrByte
 599 0050 0443     		orrs	r4, r4, r0
 600 0052 E4B2     		uxtb	r4, r4
 601 0054 0022     		movs	r2, #0
 602 0056 1421     		movs	r1, #20
 603 0058 2846     		mov	r0, r5
 604 005a FFF7FEFF 		bl	VL53L8CX_WrByte
 605 005e 0443     		orrs	r4, r4, r0
 606 0060 E4B2     		uxtb	r4, r4
 607 0062 0022     		movs	r2, #0
 608 0064 1521     		movs	r1, #21
 609 0066 2846     		mov	r0, r5
 610 0068 FFF7FEFF 		bl	VL53L8CX_WrByte
 611 006c 0443     		orrs	r4, r4, r0
 612 006e E4B2     		uxtb	r4, r4
 613 0070 0422     		movs	r2, #4
 614 0072 0921     		movs	r1, #9
 615 0074 2846     		mov	r0, r5
 616 0076 FFF7FEFF 		bl	VL53L8CX_WrByte
 617 007a 0443     		orrs	r4, r4, r0
 618 007c E4B2     		uxtb	r4, r4
 619 007e 0222     		movs	r2, #2
 620 0080 47F6FF71 		movw	r1, #32767
 621 0084 2846     		mov	r0, r5
 622 0086 FFF7FEFF 		bl	VL53L8CX_WrByte
 623 008a 2043     		orrs	r0, r0, r4
 624 008c C0B2     		uxtb	r0, r0
 625 008e 02B0     		add	sp, sp, #8
 626              		@ sp needed
 627 0090 70BD     		pop	{r4, r5, r6, pc}
 628              	.L59:
 629 0092 0022     		movs	r2, #0
 630 0094 47F6FF71 		movw	r1, #32767
 631 0098 2846     		mov	r0, r5
 632 009a FFF7FEFF 		bl	VL53L8CX_WrByte
 633 009e 0443     		orrs	r4, r4, r0
 634 00a0 E4B2     		uxtb	r4, r4
 635 00a2 1622     		movs	r2, #22
 636 00a4 1521     		movs	r1, #21
 637 00a6 2846     		mov	r0, r5
 638 00a8 FFF7FEFF 		bl	VL53L8CX_WrByte
 639 00ac 0443     		orrs	r4, r4, r0
 640 00ae E4B2     		uxtb	r4, r4
ARM GAS  C:\Temp\ccVQrAGa.s 			page 12


 641 00b0 0122     		movs	r2, #1
 642 00b2 1421     		movs	r1, #20
 643 00b4 2846     		mov	r0, r5
 644 00b6 FFF7FEFF 		bl	VL53L8CX_WrByte
 645 00ba 0443     		orrs	r4, r4, r0
 646 00bc E4B2     		uxtb	r4, r4
 647 00be 0026     		movs	r6, #0
 648              	.L55:
 649 00c0 9DF90730 		ldrsb	r3, [sp, #7]
 650 00c4 002B     		cmp	r3, #0
 651 00c6 B1DB     		blt	.L54
 652 00c8 0DF10702 		add	r2, sp, #7
 653 00cc 0621     		movs	r1, #6
 654 00ce 2846     		mov	r0, r5
 655 00d0 FFF7FEFF 		bl	VL53L8CX_RdByte
 656 00d4 0443     		orrs	r4, r4, r0
 657 00d6 E4B2     		uxtb	r4, r4
 658 00d8 0A21     		movs	r1, #10
 659 00da 2846     		mov	r0, r5
 660 00dc FFF7FEFF 		bl	VL53L8CX_WaitMs
 661 00e0 0443     		orrs	r4, r4, r0
 662 00e2 E4B2     		uxtb	r4, r4
 663 00e4 0136     		adds	r6, r6, #1
 664 00e6 B6B2     		uxth	r6, r6
 665 00e8 B6F5FA7F 		cmp	r6, #500
 666 00ec E8D9     		bls	.L55
 667 00ee 9DF80730 		ldrb	r3, [sp, #7]	@ zero_extendqisi2
 668 00f2 1C43     		orrs	r4, r4, r3
 669 00f4 9AE7     		b	.L54
 670              	.L60:
 671 00f6 0DF10702 		add	r2, sp, #7
 672 00fa 0721     		movs	r1, #7
 673 00fc 2846     		mov	r0, r5
 674 00fe FFF7FEFF 		bl	VL53L8CX_RdByte
 675 0102 0443     		orrs	r4, r4, r0
 676 0104 E4B2     		uxtb	r4, r4
 677 0106 9DF80720 		ldrb	r2, [sp, #7]	@ zero_extendqisi2
 678 010a 02F17C03 		add	r3, r2, #124
 679 010e DBB2     		uxtb	r3, r3
 680 0110 012B     		cmp	r3, #1
 681 0112 97D9     		bls	.L57
 682 0114 1443     		orrs	r4, r4, r2
 683 0116 95E7     		b	.L57
 685              		.section	.text.vl53l8cx_check_data_ready,"ax",%progbits
 686              		.align	1
 687              		.global	vl53l8cx_check_data_ready
 688              		.syntax unified
 689              		.thumb
 690              		.thumb_func
 692              	vl53l8cx_check_data_ready:
 693              		@ args = 0, pretend = 0, frame = 0
 694              		@ frame_needed = 0, uses_anonymous_args = 0
 695 0000 38B5     		push	{r3, r4, r5, lr}
 696 0002 0446     		mov	r4, r0
 697 0004 0D46     		mov	r5, r1
 698 0006 0423     		movs	r3, #4
 699 0008 00F5A262 		add	r2, r0, #1296
ARM GAS  C:\Temp\ccVQrAGa.s 			page 13


 700 000c 0021     		movs	r1, #0
 701 000e FFF7FEFF 		bl	VL53L8CX_RdMulti
 702 0012 94F81035 		ldrb	r3, [r4, #1296]	@ zero_extendqisi2
 703 0016 227C     		ldrb	r2, [r4, #16]	@ zero_extendqisi2
 704 0018 9342     		cmp	r3, r2
 705 001a 05D0     		beq	.L62
 706 001c FF2B     		cmp	r3, #255
 707 001e 03D0     		beq	.L62
 708 0020 94F81135 		ldrb	r3, [r4, #1297]	@ zero_extendqisi2
 709 0024 052B     		cmp	r3, #5
 710 0026 06D0     		beq	.L66
 711              	.L62:
 712 0028 94F91335 		ldrsb	r3, [r4, #1299]
 713 002c 002B     		cmp	r3, #0
 714 002e 13DB     		blt	.L67
 715              	.L64:
 716 0030 0023     		movs	r3, #0
 717 0032 2B70     		strb	r3, [r5]
 718              	.L63:
 719 0034 38BD     		pop	{r3, r4, r5, pc}
 720              	.L66:
 721 0036 94F81235 		ldrb	r3, [r4, #1298]	@ zero_extendqisi2
 722 003a 03F00503 		and	r3, r3, #5
 723 003e 052B     		cmp	r3, #5
 724 0040 F2D1     		bne	.L62
 725 0042 94F81335 		ldrb	r3, [r4, #1299]	@ zero_extendqisi2
 726 0046 13F0100F 		tst	r3, #16
 727 004a EDD0     		beq	.L62
 728 004c 0123     		movs	r3, #1
 729 004e 2B70     		strb	r3, [r5]
 730 0050 94F81035 		ldrb	r3, [r4, #1296]	@ zero_extendqisi2
 731 0054 2374     		strb	r3, [r4, #16]
 732 0056 EDE7     		b	.L63
 733              	.L67:
 734 0058 94F81235 		ldrb	r3, [r4, #1298]	@ zero_extendqisi2
 735 005c 1843     		orrs	r0, r0, r3
 736 005e C0B2     		uxtb	r0, r0
 737 0060 E6E7     		b	.L64
 739              		.section	.text.vl53l8cx_get_ranging_data,"ax",%progbits
 740              		.align	1
 741              		.global	vl53l8cx_get_ranging_data
 742              		.syntax unified
 743              		.thumb
 744              		.thumb_func
 746              	vl53l8cx_get_ranging_data:
 747              		@ args = 0, pretend = 0, frame = 0
 748              		@ frame_needed = 0, uses_anonymous_args = 0
 749 0000 2DE9F041 		push	{r4, r5, r6, r7, r8, lr}
 750 0004 0546     		mov	r5, r0
 751 0006 0C46     		mov	r4, r1
 752 0008 00F5A267 		add	r7, r0, #1296
 753 000c 4369     		ldr	r3, [r0, #20]
 754 000e 3A46     		mov	r2, r7
 755 0010 0021     		movs	r1, #0
 756 0012 FFF7FEFF 		bl	VL53L8CX_RdMulti
 757 0016 0646     		mov	r6, r0
 758 0018 95F81035 		ldrb	r3, [r5, #1296]	@ zero_extendqisi2
ARM GAS  C:\Temp\ccVQrAGa.s 			page 14


 759 001c 2B74     		strb	r3, [r5, #16]
 760 001e A98A     		ldrh	r1, [r5, #20]
 761 0020 3846     		mov	r0, r7
 762 0022 FFF7FEFF 		bl	VL53L8CX_SwapBuffer
 763 0026 4FF01008 		mov	r8, #16
 764 002a 19E0     		b	.L69
 765              	.L70:
 766 002c EF5A     		ldrh	r7, [r5, r3]
 767 002e C7F30B17 		ubfx	r7, r7, #4, #12
 768 0032 29E0     		b	.L71
 769              	.L73:
 770 0034 4EF28402 		movw	r2, #57476
 771 0038 9342     		cmp	r3, r2
 772 003a 0ED1     		bne	.L76
 773 003c 08F21451 		addw	r1, r8, #1300
 774 0040 3A46     		mov	r2, r7
 775 0042 2944     		add	r1, r1, r5
 776 0044 04F1C200 		add	r0, r4, #194
 777 0048 FFF7FEFF 		bl	memcpy
 778 004c 05E0     		b	.L76
 779              	.L74:
 780 004e 08F10C03 		add	r3, r8, #12
 781 0052 2B44     		add	r3, r3, r5
 782 0054 93F91035 		ldrsb	r3, [r3, #1296]
 783 0058 2370     		strb	r3, [r4]
 784              	.L76:
 785 005a 4744     		add	r7, r7, r8
 786 005c 07F10408 		add	r8, r7, #4
 787              	.L69:
 788 0060 6B69     		ldr	r3, [r5, #20]
 789 0062 4345     		cmp	r3, r8
 790 0064 2FD9     		bls	.L90
 791 0066 08F5A263 		add	r3, r8, #1296
 792 006a E918     		adds	r1, r5, r3
 793 006c EF5C     		ldrb	r7, [r5, r3]	@ zero_extendqisi2
 794 006e 07F00F07 		and	r7, r7, #15
 795 0072 07F10E02 		add	r2, r7, #14
 796 0076 02F00F02 		and	r2, r2, #15
 797 007a 0A2A     		cmp	r2, #10
 798 007c D6D8     		bhi	.L70
 799 007e EB5A     		ldrh	r3, [r5, r3]
 800 0080 C3F30B13 		ubfx	r3, r3, #4, #12
 801 0084 03FB07F7 		mul	r7, r3, r7
 802              	.L71:
 803 0088 4B88     		ldrh	r3, [r1, #2]
 804 008a 4DF64472 		movw	r2, #57156
 805 008e 9342     		cmp	r3, r2
 806 0090 10D0     		beq	.L72
 807 0092 CFD8     		bhi	.L73
 808 0094 45F2B442 		movw	r2, #21684
 809 0098 9342     		cmp	r3, r2
 810 009a D8D0     		beq	.L74
 811 009c 4DF68432 		movw	r2, #56196
 812 00a0 9342     		cmp	r3, r2
 813 00a2 DAD1     		bne	.L76
 814 00a4 08F21451 		addw	r1, r8, #1300
 815 00a8 3A46     		mov	r2, r7
ARM GAS  C:\Temp\ccVQrAGa.s 			page 15


 816 00aa 2944     		add	r1, r1, r5
 817 00ac 601C     		adds	r0, r4, #1
 818 00ae FFF7FEFF 		bl	memcpy
 819 00b2 D2E7     		b	.L76
 820              	.L72:
 821 00b4 08F21451 		addw	r1, r8, #1300
 822 00b8 3A46     		mov	r2, r7
 823 00ba 2944     		add	r1, r1, r5
 824 00bc 04F14200 		add	r0, r4, #66
 825 00c0 FFF7FEFF 		bl	memcpy
 826 00c4 C9E7     		b	.L76
 827              	.L90:
 828 00c6 0021     		movs	r1, #0
 829 00c8 02E0     		b	.L79
 830              	.L80:
 831 00ca 9210     		asrs	r2, r2, #2
 832 00cc 5A80     		strh	r2, [r3, #2]	@ movhi
 833 00ce 0131     		adds	r1, r1, #1
 834              	.L79:
 835 00d0 3F29     		cmp	r1, #63
 836 00d2 0AD8     		bhi	.L91
 837 00d4 01F12003 		add	r3, r1, #32
 838 00d8 04EB4303 		add	r3, r4, r3, lsl #1
 839 00dc B3F90200 		ldrsh	r0, [r3, #2]
 840 00e0 0246     		mov	r2, r0
 841 00e2 0028     		cmp	r0, #0
 842 00e4 F1DA     		bge	.L80
 843 00e6 C21C     		adds	r2, r0, #3
 844 00e8 EFE7     		b	.L80
 845              	.L91:
 846 00ea 0023     		movs	r3, #0
 847 00ec 08E0     		b	.L82
 848              	.L85:
 849 00ee 9918     		adds	r1, r3, r2
 850 00f0 2144     		add	r1, r1, r4
 851 00f2 FF20     		movs	r0, #255
 852 00f4 81F8C200 		strb	r0, [r1, #194]
 853 00f8 0132     		adds	r2, r2, #1
 854              	.L83:
 855 00fa 002A     		cmp	r2, #0
 856 00fc F7D0     		beq	.L85
 857              	.L84:
 858 00fe 0133     		adds	r3, r3, #1
 859              	.L82:
 860 0100 3F2B     		cmp	r3, #63
 861 0102 05D8     		bhi	.L92
 862 0104 E218     		adds	r2, r4, r3
 863 0106 5278     		ldrb	r2, [r2, #1]	@ zero_extendqisi2
 864 0108 002A     		cmp	r2, #0
 865 010a F8D1     		bne	.L84
 866 010c 0022     		movs	r2, #0
 867 010e F4E7     		b	.L83
 868              	.L92:
 869 0110 95F81835 		ldrb	r3, [r5, #1304]	@ zero_extendqisi2
 870 0114 95F81925 		ldrb	r2, [r5, #1305]	@ zero_extendqisi2
 871 0118 42EA0322 		orr	r2, r2, r3, lsl #8
 872 011c 6B69     		ldr	r3, [r5, #20]
ARM GAS  C:\Temp\ccVQrAGa.s 			page 16


 873 011e 191F     		subs	r1, r3, #4
 874 0120 2944     		add	r1, r1, r5
 875 0122 91F81015 		ldrb	r1, [r1, #1296]	@ zero_extendqisi2
 876 0126 033B     		subs	r3, r3, #3
 877 0128 1D44     		add	r5, r5, r3
 878 012a 95F81035 		ldrb	r3, [r5, #1296]	@ zero_extendqisi2
 879 012e 43EA0123 		orr	r3, r3, r1, lsl #8
 880 0132 9A42     		cmp	r2, r3
 881 0134 02D0     		beq	.L87
 882 0136 46F00206 		orr	r6, r6, #2
 883 013a F6B2     		uxtb	r6, r6
 884              	.L87:
 885 013c 3046     		mov	r0, r6
 886 013e BDE8F081 		pop	{r4, r5, r6, r7, r8, pc}
 888              		.section	.text.vl53l8cx_dci_read_data,"ax",%progbits
 889              		.align	1
 890              		.global	vl53l8cx_dci_read_data
 891              		.syntax unified
 892              		.thumb
 893              		.thumb_func
 895              	vl53l8cx_dci_read_data:
 896              		@ args = 0, pretend = 0, frame = 16
 897              		@ frame_needed = 0, uses_anonymous_args = 0
 898 0000 2DE9F041 		push	{r4, r5, r6, r7, r8, lr}
 899 0004 86B0     		sub	sp, sp, #24
 900 0006 0546     		mov	r5, r0
 901 0008 0E46     		mov	r6, r1
 902 000a 1746     		mov	r7, r2
 903 000c 1C46     		mov	r4, r3
 904 000e 03F10C08 		add	r8, r3, #12
 905 0012 284B     		ldr	r3, .L100
 906 0014 93E80700 		ldm	r3, {r0, r1, r2}
 907 0018 06AB     		add	r3, sp, #24
 908 001a 03E90700 		stmdb	r3, {r0, r1, r2}
 909 001e B4F57D7F 		cmp	r4, #1012
 910 0022 04D9     		bls	.L99
 911 0024 FF27     		movs	r7, #255
 912              	.L94:
 913 0026 3846     		mov	r0, r7
 914 0028 06B0     		add	sp, sp, #24
 915              		@ sp needed
 916 002a BDE8F081 		pop	{r4, r5, r6, r7, r8, pc}
 917              	.L99:
 918 002e C7F30723 		ubfx	r3, r7, #8, #8
 919 0032 8DF80C30 		strb	r3, [sp, #12]
 920 0036 8DF80D70 		strb	r7, [sp, #13]
 921 003a C4F30713 		ubfx	r3, r4, #4, #8
 922 003e 8DF80E30 		strb	r3, [sp, #14]
 923 0042 E3B2     		uxtb	r3, r4
 924 0044 1B01     		lsls	r3, r3, #4
 925 0046 8DF80F30 		strb	r3, [sp, #15]
 926 004a 0C23     		movs	r3, #12
 927 004c 0DEB0302 		add	r2, sp, r3
 928 0050 42F6F471 		movw	r1, #12276
 929 0054 2846     		mov	r0, r5
 930 0056 FFF7FEFF 		bl	VL53L8CX_WrMulti
 931 005a 0746     		mov	r7, r0
ARM GAS  C:\Temp\ccVQrAGa.s 			page 17


 932 005c 0323     		movs	r3, #3
 933 005e 0193     		str	r3, [sp, #4]
 934 0060 FF23     		movs	r3, #255
 935 0062 0093     		str	r3, [sp]
 936 0064 4FF43053 		mov	r3, #11264
 937 0068 0122     		movs	r2, #1
 938 006a 0421     		movs	r1, #4
 939 006c 2846     		mov	r0, r5
 940 006e FFF7FEFF 		bl	_vl53l8cx_poll_for_answer
 941 0072 0743     		orrs	r7, r7, r0
 942 0074 FFB2     		uxtb	r7, r7
 943 0076 05F5A262 		add	r2, r5, #1296
 944 007a 4346     		mov	r3, r8
 945 007c 9046     		mov	r8, r2
 946 007e 42F60441 		movw	r1, #11268
 947 0082 2846     		mov	r0, r5
 948 0084 FFF7FEFF 		bl	VL53L8CX_RdMulti
 949 0088 0743     		orrs	r7, r7, r0
 950 008a FFB2     		uxtb	r7, r7
 951 008c 04F10C01 		add	r1, r4, #12
 952 0090 89B2     		uxth	r1, r1
 953 0092 4046     		mov	r0, r8
 954 0094 FFF7FEFF 		bl	VL53L8CX_SwapBuffer
 955 0098 0022     		movs	r2, #0
 956 009a 07E0     		b	.L95
 957              	.L96:
 958 009c 02F1040C 		add	ip, r2, #4
 959 00a0 AC44     		add	ip, ip, r5
 960 00a2 9CF81035 		ldrb	r3, [ip, #1296]	@ zero_extendqisi2
 961 00a6 B354     		strb	r3, [r6, r2]
 962 00a8 0132     		adds	r2, r2, #1
 963 00aa 12B2     		sxth	r2, r2
 964              	.L95:
 965 00ac 23B2     		sxth	r3, r4
 966 00ae 9342     		cmp	r3, r2
 967 00b0 F4DC     		bgt	.L96
 968 00b2 B8E7     		b	.L94
 969              	.L101:
 970              		.align	2
 971              	.L100:
 972 00b4 18000000 		.word	.LANCHOR0+24
 974              		.section	.text.vl53l8cx_get_resolution,"ax",%progbits
 975              		.align	1
 976              		.global	vl53l8cx_get_resolution
 977              		.syntax unified
 978              		.thumb
 979              		.thumb_func
 981              	vl53l8cx_get_resolution:
 982              		@ args = 0, pretend = 0, frame = 0
 983              		@ frame_needed = 0, uses_anonymous_args = 0
 984 0000 38B5     		push	{r3, r4, r5, lr}
 985 0002 0446     		mov	r4, r0
 986 0004 0D46     		mov	r5, r1
 987 0006 0823     		movs	r3, #8
 988 0008 45F25042 		movw	r2, #21584
 989 000c 00F5A261 		add	r1, r0, #1296
 990 0010 FFF7FEFF 		bl	vl53l8cx_dci_read_data
ARM GAS  C:\Temp\ccVQrAGa.s 			page 18


 991 0014 94F81035 		ldrb	r3, [r4, #1296]	@ zero_extendqisi2
 992 0018 94F81125 		ldrb	r2, [r4, #1297]	@ zero_extendqisi2
 993 001c 13FB02F3 		smulbb	r3, r3, r2
 994 0020 2B70     		strb	r3, [r5]
 995 0022 38BD     		pop	{r3, r4, r5, pc}
 997              		.section	.text.vl53l8cx_get_ranging_frequency_hz,"ax",%progbits
 998              		.align	1
 999              		.global	vl53l8cx_get_ranging_frequency_hz
 1000              		.syntax unified
 1001              		.thumb
 1002              		.thumb_func
 1004              	vl53l8cx_get_ranging_frequency_hz:
 1005              		@ args = 0, pretend = 0, frame = 0
 1006              		@ frame_needed = 0, uses_anonymous_args = 0
 1007 0000 38B5     		push	{r3, r4, r5, lr}
 1008 0002 0446     		mov	r4, r0
 1009 0004 0D46     		mov	r5, r1
 1010 0006 0423     		movs	r3, #4
 1011 0008 45F25842 		movw	r2, #21592
 1012 000c 00F5A261 		add	r1, r0, #1296
 1013 0010 FFF7FEFF 		bl	vl53l8cx_dci_read_data
 1014 0014 94F81135 		ldrb	r3, [r4, #1297]	@ zero_extendqisi2
 1015 0018 2B70     		strb	r3, [r5]
 1016 001a 38BD     		pop	{r3, r4, r5, pc}
 1018              		.section	.text.vl53l8cx_get_integration_time_ms,"ax",%progbits
 1019              		.align	1
 1020              		.global	vl53l8cx_get_integration_time_ms
 1021              		.syntax unified
 1022              		.thumb
 1023              		.thumb_func
 1025              	vl53l8cx_get_integration_time_ms:
 1026              		@ args = 0, pretend = 0, frame = 0
 1027              		@ frame_needed = 0, uses_anonymous_args = 0
 1028 0000 38B5     		push	{r3, r4, r5, lr}
 1029 0002 0546     		mov	r5, r0
 1030 0004 0C46     		mov	r4, r1
 1031 0006 1423     		movs	r3, #20
 1032 0008 45F25C42 		movw	r2, #21596
 1033 000c 00F5A261 		add	r1, r0, #1296
 1034 0010 FFF7FEFF 		bl	vl53l8cx_dci_read_data
 1035 0014 D5F81035 		ldr	r3, [r5, #1296]	@ unaligned
 1036 0018 2360     		str	r3, [r4]	@ unaligned
 1037 001a 034A     		ldr	r2, .L108
 1038 001c A2FB0323 		umull	r2, r3, r2, r3
 1039 0020 9B09     		lsrs	r3, r3, #6
 1040 0022 2360     		str	r3, [r4]
 1041 0024 38BD     		pop	{r3, r4, r5, pc}
 1042              	.L109:
 1043 0026 00BF     		.align	2
 1044              	.L108:
 1045 0028 D34D6210 		.word	274877907
 1047              		.section	.text.vl53l8cx_get_sharpener_percent,"ax",%progbits
 1048              		.align	1
 1049              		.global	vl53l8cx_get_sharpener_percent
 1050              		.syntax unified
 1051              		.thumb
 1052              		.thumb_func
ARM GAS  C:\Temp\ccVQrAGa.s 			page 19


 1054              	vl53l8cx_get_sharpener_percent:
 1055              		@ args = 0, pretend = 0, frame = 0
 1056              		@ frame_needed = 0, uses_anonymous_args = 0
 1057 0000 38B5     		push	{r3, r4, r5, lr}
 1058 0002 0446     		mov	r4, r0
 1059 0004 0D46     		mov	r5, r1
 1060 0006 1023     		movs	r3, #16
 1061 0008 4AF6D862 		movw	r2, #44760
 1062 000c 00F5A261 		add	r1, r0, #1296
 1063 0010 FFF7FEFF 		bl	vl53l8cx_dci_read_data
 1064 0014 94F81D25 		ldrb	r2, [r4, #1309]	@ zero_extendqisi2
 1065 0018 6423     		movs	r3, #100
 1066 001a 03FB02F2 		mul	r2, r3, r2
 1067 001e 034B     		ldr	r3, .L112
 1068 0020 83FB0213 		smull	r1, r3, r3, r2
 1069 0024 1344     		add	r3, r3, r2
 1070 0026 DB11     		asrs	r3, r3, #7
 1071 0028 2B70     		strb	r3, [r5]
 1072 002a 38BD     		pop	{r3, r4, r5, pc}
 1073              	.L113:
 1074              		.align	2
 1075              	.L112:
 1076 002c 81808080 		.word	-2139062143
 1078              		.section	.text.vl53l8cx_get_target_order,"ax",%progbits
 1079              		.align	1
 1080              		.global	vl53l8cx_get_target_order
 1081              		.syntax unified
 1082              		.thumb
 1083              		.thumb_func
 1085              	vl53l8cx_get_target_order:
 1086              		@ args = 0, pretend = 0, frame = 0
 1087              		@ frame_needed = 0, uses_anonymous_args = 0
 1088 0000 38B5     		push	{r3, r4, r5, lr}
 1089 0002 0446     		mov	r4, r0
 1090 0004 0D46     		mov	r5, r1
 1091 0006 0423     		movs	r3, #4
 1092 0008 4AF66462 		movw	r2, #44644
 1093 000c 00F5A261 		add	r1, r0, #1296
 1094 0010 FFF7FEFF 		bl	vl53l8cx_dci_read_data
 1095 0014 94F81035 		ldrb	r3, [r4, #1296]	@ zero_extendqisi2
 1096 0018 2B70     		strb	r3, [r5]
 1097 001a 38BD     		pop	{r3, r4, r5, pc}
 1099              		.section	.text.vl53l8cx_get_ranging_mode,"ax",%progbits
 1100              		.align	1
 1101              		.global	vl53l8cx_get_ranging_mode
 1102              		.syntax unified
 1103              		.thumb
 1104              		.thumb_func
 1106              	vl53l8cx_get_ranging_mode:
 1107              		@ args = 0, pretend = 0, frame = 0
 1108              		@ frame_needed = 0, uses_anonymous_args = 0
 1109 0000 38B5     		push	{r3, r4, r5, lr}
 1110 0002 0446     		mov	r4, r0
 1111 0004 0D46     		mov	r5, r1
 1112 0006 0823     		movs	r3, #8
 1113 0008 4AF63052 		movw	r2, #44336
 1114 000c 00F5A261 		add	r1, r0, #1296
ARM GAS  C:\Temp\ccVQrAGa.s 			page 20


 1115 0010 FFF7FEFF 		bl	vl53l8cx_dci_read_data
 1116 0014 94F81135 		ldrb	r3, [r4, #1297]	@ zero_extendqisi2
 1117 0018 012B     		cmp	r3, #1
 1118 001a 02D0     		beq	.L120
 1119 001c 0323     		movs	r3, #3
 1120 001e 2B70     		strb	r3, [r5]
 1121              	.L118:
 1122 0020 38BD     		pop	{r3, r4, r5, pc}
 1123              	.L120:
 1124 0022 2B70     		strb	r3, [r5]
 1125 0024 FCE7     		b	.L118
 1127              		.section	.text.vl53l8cx_get_external_sync_pin_enable,"ax",%progbits
 1128              		.align	1
 1129              		.global	vl53l8cx_get_external_sync_pin_enable
 1130              		.syntax unified
 1131              		.thumb
 1132              		.thumb_func
 1134              	vl53l8cx_get_external_sync_pin_enable:
 1135              		@ args = 0, pretend = 0, frame = 0
 1136              		@ frame_needed = 0, uses_anonymous_args = 0
 1137 0000 38B5     		push	{r3, r4, r5, lr}
 1138 0002 0446     		mov	r4, r0
 1139 0004 0D46     		mov	r5, r1
 1140 0006 0423     		movs	r3, #4
 1141 0008 4BF2F052 		movw	r2, #46576
 1142 000c 00F5A261 		add	r1, r0, #1296
 1143 0010 FFF7FEFF 		bl	vl53l8cx_dci_read_data
 1144 0014 94F81335 		ldrb	r3, [r4, #1299]	@ zero_extendqisi2
 1145 0018 13F0020F 		tst	r3, #2
 1146 001c 02D0     		beq	.L122
 1147 001e 0123     		movs	r3, #1
 1148 0020 2B70     		strb	r3, [r5]
 1149              	.L123:
 1150 0022 38BD     		pop	{r3, r4, r5, pc}
 1151              	.L122:
 1152 0024 0023     		movs	r3, #0
 1153 0026 2B70     		strb	r3, [r5]
 1154 0028 FBE7     		b	.L123
 1156              		.section	.text.vl53l8cx_get_VHV_repeat_count,"ax",%progbits
 1157              		.align	1
 1158              		.global	vl53l8cx_get_VHV_repeat_count
 1159              		.syntax unified
 1160              		.thumb
 1161              		.thumb_func
 1163              	vl53l8cx_get_VHV_repeat_count:
 1164              		@ args = 0, pretend = 0, frame = 0
 1165              		@ frame_needed = 0, uses_anonymous_args = 0
 1166 0000 38B5     		push	{r3, r4, r5, lr}
 1167 0002 0446     		mov	r4, r0
 1168 0004 0D46     		mov	r5, r1
 1169 0006 1023     		movs	r3, #16
 1170 0008 4AF66052 		movw	r2, #44384
 1171 000c 00F5A261 		add	r1, r0, #1296
 1172 0010 FFF7FEFF 		bl	vl53l8cx_dci_read_data
 1173 0014 94F81725 		ldrb	r2, [r4, #1303]	@ zero_extendqisi2
 1174 0018 94F81635 		ldrb	r3, [r4, #1302]	@ zero_extendqisi2
 1175 001c 1B04     		lsls	r3, r3, #16
ARM GAS  C:\Temp\ccVQrAGa.s 			page 21


 1176 001e 43EA0263 		orr	r3, r3, r2, lsl #24
 1177 0022 94F81525 		ldrb	r2, [r4, #1301]	@ zero_extendqisi2
 1178 0026 43EA0223 		orr	r3, r3, r2, lsl #8
 1179 002a 94F81425 		ldrb	r2, [r4, #1300]	@ zero_extendqisi2
 1180 002e 1343     		orrs	r3, r3, r2
 1181 0030 2B60     		str	r3, [r5]
 1182 0032 38BD     		pop	{r3, r4, r5, pc}
 1184              		.section	.text.vl53l8cx_dci_write_data,"ax",%progbits
 1185              		.align	1
 1186              		.global	vl53l8cx_dci_write_data
 1187              		.syntax unified
 1188              		.thumb
 1189              		.thumb_func
 1191              	vl53l8cx_dci_write_data:
 1192              		@ args = 0, pretend = 0, frame = 16
 1193              		@ frame_needed = 0, uses_anonymous_args = 0
 1194 0000 F0B5     		push	{r4, r5, r6, r7, lr}
 1195 0002 87B0     		sub	sp, sp, #28
 1196 0004 0E46     		mov	r6, r1
 1197 0006 1C46     		mov	r4, r3
 1198 0008 0023     		movs	r3, #0
 1199 000a 0593     		str	r3, [sp, #20]
 1200 000c 8DF80C30 		strb	r3, [sp, #12]
 1201 0010 8DF80D30 		strb	r3, [sp, #13]
 1202 0014 8DF80E30 		strb	r3, [sp, #14]
 1203 0018 0F23     		movs	r3, #15
 1204 001a 8DF80F30 		strb	r3, [sp, #15]
 1205 001e 0523     		movs	r3, #5
 1206 0020 8DF81030 		strb	r3, [sp, #16]
 1207 0024 0123     		movs	r3, #1
 1208 0026 8DF81130 		strb	r3, [sp, #17]
 1209 002a 04F10803 		add	r3, r4, #8
 1210 002e C3F30723 		ubfx	r3, r3, #8, #8
 1211 0032 8DF81230 		strb	r3, [sp, #18]
 1212 0036 E3B2     		uxtb	r3, r4
 1213 0038 03F10801 		add	r1, r3, #8
 1214 003c 8DF81310 		strb	r1, [sp, #19]
 1215 0040 B4F57D7F 		cmp	r4, #1012
 1216 0044 03D9     		bls	.L133
 1217 0046 FF25     		movs	r5, #255
 1218              	.L128:
 1219 0048 2846     		mov	r0, r5
 1220 004a 07B0     		add	sp, sp, #28
 1221              		@ sp needed
 1222 004c F0BD     		pop	{r4, r5, r6, r7, pc}
 1223              	.L133:
 1224 004e 0546     		mov	r5, r0
 1225 0050 C4F53F57 		rsb	r7, r4, #12224
 1226 0054 3437     		adds	r7, r7, #52
 1227 0056 BFB2     		uxth	r7, r7
 1228 0058 C2F30721 		ubfx	r1, r2, #8, #8
 1229 005c 8DF81410 		strb	r1, [sp, #20]
 1230 0060 8DF81520 		strb	r2, [sp, #21]
 1231 0064 C4F30712 		ubfx	r2, r4, #4, #8
 1232 0068 8DF81620 		strb	r2, [sp, #22]
 1233 006c 1B01     		lsls	r3, r3, #4
 1234 006e 8DF81730 		strb	r3, [sp, #23]
ARM GAS  C:\Temp\ccVQrAGa.s 			page 22


 1235 0072 2146     		mov	r1, r4
 1236 0074 3046     		mov	r0, r6
 1237 0076 FFF7FEFF 		bl	VL53L8CX_SwapBuffer
 1238 007a 621E     		subs	r2, r4, #1
 1239 007c 12B2     		sxth	r2, r2
 1240 007e 07E0     		b	.L129
 1241              	.L130:
 1242 0080 02F1040C 		add	ip, r2, #4
 1243 0084 B35C     		ldrb	r3, [r6, r2]	@ zero_extendqisi2
 1244 0086 AC44     		add	ip, ip, r5
 1245 0088 8CF81035 		strb	r3, [ip, #1296]
 1246 008c 013A     		subs	r2, r2, #1
 1247 008e 12B2     		sxth	r2, r2
 1248              	.L129:
 1249 0090 002A     		cmp	r2, #0
 1250 0092 F5DA     		bge	.L130
 1251 0094 059B     		ldr	r3, [sp, #20]
 1252 0096 C5F81035 		str	r3, [r5, #1296]	@ unaligned
 1253 009a 04F21452 		addw	r2, r4, #1300
 1254 009e 05EB020C 		add	ip, r5, r2
 1255 00a2 03AB     		add	r3, sp, #12
 1256 00a4 03CB     		ldmia	r3!, {r0, r1}
 1257 00a6 A850     		str	r0, [r5, r2]	@ unaligned
 1258 00a8 CCF80410 		str	r1, [ip, #4]	@ unaligned
 1259 00ac 04F10C03 		add	r3, r4, #12
 1260 00b0 05F5A262 		add	r2, r5, #1296
 1261 00b4 3946     		mov	r1, r7
 1262 00b6 2846     		mov	r0, r5
 1263 00b8 FFF7FEFF 		bl	VL53L8CX_WrMulti
 1264 00bc 0746     		mov	r7, r0
 1265 00be 0323     		movs	r3, #3
 1266 00c0 0193     		str	r3, [sp, #4]
 1267 00c2 FF23     		movs	r3, #255
 1268 00c4 0093     		str	r3, [sp]
 1269 00c6 4FF43053 		mov	r3, #11264
 1270 00ca 0122     		movs	r2, #1
 1271 00cc 0421     		movs	r1, #4
 1272 00ce 2846     		mov	r0, r5
 1273 00d0 FFF7FEFF 		bl	_vl53l8cx_poll_for_answer
 1274 00d4 47EA0005 		orr	r5, r7, r0
 1275 00d8 EDB2     		uxtb	r5, r5
 1276 00da 2146     		mov	r1, r4
 1277 00dc 3046     		mov	r0, r6
 1278 00de FFF7FEFF 		bl	VL53L8CX_SwapBuffer
 1279 00e2 B1E7     		b	.L128
 1281              		.section	.text.vl53l8cx_init,"ax",%progbits
 1282              		.align	1
 1283              		.global	vl53l8cx_init
 1284              		.syntax unified
 1285              		.thumb
 1286              		.thumb_func
 1288              	vl53l8cx_init:
 1289              		@ args = 0, pretend = 0, frame = 16
 1290              		@ frame_needed = 0, uses_anonymous_args = 0
 1291 0000 F0B5     		push	{r4, r5, r6, r7, lr}
 1292 0002 87B0     		sub	sp, sp, #28
 1293 0004 0546     		mov	r5, r0
ARM GAS  C:\Temp\ccVQrAGa.s 			page 23


 1294 0006 4FF00113 		mov	r3, #65537
 1295 000a 0493     		str	r3, [sp, #16]
 1296 000c 0126     		movs	r6, #1
 1297 000e 0396     		str	r6, [sp, #12]
 1298 0010 544B     		ldr	r3, .L139
 1299 0012 C361     		str	r3, [r0, #28]
 1300 0014 544B     		ldr	r3, .L139+4
 1301 0016 8361     		str	r3, [r0, #24]
 1302 0018 0027     		movs	r7, #0
 1303 001a 80F81079 		strb	r7, [r0, #2320]
 1304 001e 3A46     		mov	r2, r7
 1305 0020 47F6FF71 		movw	r1, #32767
 1306 0024 FFF7FEFF 		bl	VL53L8CX_WrByte
 1307 0028 0446     		mov	r4, r0
 1308 002a 0422     		movs	r2, #4
 1309 002c 0921     		movs	r1, #9
 1310 002e 2846     		mov	r0, r5
 1311 0030 FFF7FEFF 		bl	VL53L8CX_WrByte
 1312 0034 0443     		orrs	r4, r4, r0
 1313 0036 E4B2     		uxtb	r4, r4
 1314 0038 4022     		movs	r2, #64
 1315 003a 0F21     		movs	r1, #15
 1316 003c 2846     		mov	r0, r5
 1317 003e FFF7FEFF 		bl	VL53L8CX_WrByte
 1318 0042 0443     		orrs	r4, r4, r0
 1319 0044 E4B2     		uxtb	r4, r4
 1320 0046 0322     		movs	r2, #3
 1321 0048 0A21     		movs	r1, #10
 1322 004a 2846     		mov	r0, r5
 1323 004c FFF7FEFF 		bl	VL53L8CX_WrByte
 1324 0050 0443     		orrs	r4, r4, r0
 1325 0052 E4B2     		uxtb	r4, r4
 1326 0054 0DF11702 		add	r2, sp, #23
 1327 0058 47F6FF71 		movw	r1, #32767
 1328 005c 2846     		mov	r0, r5
 1329 005e FFF7FEFF 		bl	VL53L8CX_RdByte
 1330 0062 0443     		orrs	r4, r4, r0
 1331 0064 E4B2     		uxtb	r4, r4
 1332 0066 3246     		mov	r2, r6
 1333 0068 0C21     		movs	r1, #12
 1334 006a 2846     		mov	r0, r5
 1335 006c FFF7FEFF 		bl	VL53L8CX_WrByte
 1336 0070 0443     		orrs	r4, r4, r0
 1337 0072 E4B2     		uxtb	r4, r4
 1338 0074 3A46     		mov	r2, r7
 1339 0076 40F20111 		movw	r1, #257
 1340 007a 2846     		mov	r0, r5
 1341 007c FFF7FEFF 		bl	VL53L8CX_WrByte
 1342 0080 0443     		orrs	r4, r4, r0
 1343 0082 E4B2     		uxtb	r4, r4
 1344 0084 3A46     		mov	r2, r7
 1345 0086 4FF48171 		mov	r1, #258
 1346 008a 2846     		mov	r0, r5
 1347 008c FFF7FEFF 		bl	VL53L8CX_WrByte
 1348 0090 0443     		orrs	r4, r4, r0
 1349 0092 E4B2     		uxtb	r4, r4
 1350 0094 3246     		mov	r2, r6
ARM GAS  C:\Temp\ccVQrAGa.s 			page 24


 1351 0096 4FF48571 		mov	r1, #266
 1352 009a 2846     		mov	r0, r5
 1353 009c FFF7FEFF 		bl	VL53L8CX_WrByte
 1354 00a0 0443     		orrs	r4, r4, r0
 1355 00a2 E4B2     		uxtb	r4, r4
 1356 00a4 3246     		mov	r2, r6
 1357 00a6 44F20201 		movw	r1, #16386
 1358 00aa 2846     		mov	r0, r5
 1359 00ac FFF7FEFF 		bl	VL53L8CX_WrByte
 1360 00b0 0443     		orrs	r4, r4, r0
 1361 00b2 E4B2     		uxtb	r4, r4
 1362 00b4 3A46     		mov	r2, r7
 1363 00b6 44F20201 		movw	r1, #16386
 1364 00ba 2846     		mov	r0, r5
 1365 00bc FFF7FEFF 		bl	VL53L8CX_WrByte
 1366 00c0 0443     		orrs	r4, r4, r0
 1367 00c2 E4B2     		uxtb	r4, r4
 1368 00c4 0322     		movs	r2, #3
 1369 00c6 4FF48571 		mov	r1, #266
 1370 00ca 2846     		mov	r0, r5
 1371 00cc FFF7FEFF 		bl	VL53L8CX_WrByte
 1372 00d0 0443     		orrs	r4, r4, r0
 1373 00d2 E4B2     		uxtb	r4, r4
 1374 00d4 3246     		mov	r2, r6
 1375 00d6 40F20311 		movw	r1, #259
 1376 00da 2846     		mov	r0, r5
 1377 00dc FFF7FEFF 		bl	VL53L8CX_WrByte
 1378 00e0 0443     		orrs	r4, r4, r0
 1379 00e2 E4B2     		uxtb	r4, r4
 1380 00e4 3A46     		mov	r2, r7
 1381 00e6 0C21     		movs	r1, #12
 1382 00e8 2846     		mov	r0, r5
 1383 00ea FFF7FEFF 		bl	VL53L8CX_WrByte
 1384 00ee 0443     		orrs	r4, r4, r0
 1385 00f0 E4B2     		uxtb	r4, r4
 1386 00f2 4322     		movs	r2, #67
 1387 00f4 0F21     		movs	r1, #15
 1388 00f6 2846     		mov	r0, r5
 1389 00f8 FFF7FEFF 		bl	VL53L8CX_WrByte
 1390 00fc 0443     		orrs	r4, r4, r0
 1391 00fe E4B2     		uxtb	r4, r4
 1392 0100 3146     		mov	r1, r6
 1393 0102 2846     		mov	r0, r5
 1394 0104 FFF7FEFF 		bl	VL53L8CX_WaitMs
 1395 0108 0443     		orrs	r4, r4, r0
 1396 010a E4B2     		uxtb	r4, r4
 1397 010c 4022     		movs	r2, #64
 1398 010e 0F21     		movs	r1, #15
 1399 0110 2846     		mov	r0, r5
 1400 0112 FFF7FEFF 		bl	VL53L8CX_WrByte
 1401 0116 0443     		orrs	r4, r4, r0
 1402 0118 E4B2     		uxtb	r4, r4
 1403 011a 3246     		mov	r2, r6
 1404 011c 0A21     		movs	r1, #10
 1405 011e 2846     		mov	r0, r5
 1406 0120 FFF7FEFF 		bl	VL53L8CX_WrByte
 1407 0124 0443     		orrs	r4, r4, r0
ARM GAS  C:\Temp\ccVQrAGa.s 			page 25


 1408 0126 E4B2     		uxtb	r4, r4
 1409 0128 6421     		movs	r1, #100
 1410 012a 2846     		mov	r0, r5
 1411 012c FFF7FEFF 		bl	VL53L8CX_WaitMs
 1412 0130 0443     		orrs	r4, r4, r0
 1413 0132 E4B2     		uxtb	r4, r4
 1414 0134 3A46     		mov	r2, r7
 1415 0136 47F6FF71 		movw	r1, #32767
 1416 013a 2846     		mov	r0, r5
 1417 013c FFF7FEFF 		bl	VL53L8CX_WrByte
 1418 0140 0443     		orrs	r4, r4, r0
 1419 0142 E4B2     		uxtb	r4, r4
 1420 0144 0196     		str	r6, [sp, #4]
 1421 0146 FF23     		movs	r3, #255
 1422 0148 0093     		str	r3, [sp]
 1423 014a 0623     		movs	r3, #6
 1424 014c 3A46     		mov	r2, r7
 1425 014e 3146     		mov	r1, r6
 1426 0150 2846     		mov	r0, r5
 1427 0152 FFF7FEFF 		bl	_vl53l8cx_poll_for_answer
 1428 0156 0443     		orrs	r4, r4, r0
 1429 0158 14F0FF04 		ands	r4, r4, #255
 1430 015c 06D0     		beq	.L138
 1431              	.L135:
 1432 015e 2046     		mov	r0, r4
 1433 0160 07B0     		add	sp, sp, #28
 1434              		@ sp needed
 1435 0162 F0BD     		pop	{r4, r5, r6, r7, pc}
 1436              	.L140:
 1437              		.align	2
 1438              	.L139:
 1439 0164 00000000 		.word	VL53L8CX_DEFAULT_XTALK
 1440 0168 00000000 		.word	VL53L8CX_DEFAULT_CONFIGURATION
 1441              	.L138:
 1442 016c 3246     		mov	r2, r6
 1443 016e 0E21     		movs	r1, #14
 1444 0170 2846     		mov	r0, r5
 1445 0172 FFF7FEFF 		bl	VL53L8CX_WrByte
 1446 0176 0443     		orrs	r4, r4, r0
 1447 0178 E4B2     		uxtb	r4, r4
 1448 017a 0222     		movs	r2, #2
 1449 017c 47F6FF71 		movw	r1, #32767
 1450 0180 2846     		mov	r0, r5
 1451 0182 FFF7FEFF 		bl	VL53L8CX_WrByte
 1452 0186 0443     		orrs	r4, r4, r0
 1453 0188 E4B2     		uxtb	r4, r4
 1454 018a 3246     		mov	r2, r6
 1455 018c 47F6FF71 		movw	r1, #32767
 1456 0190 2846     		mov	r0, r5
 1457 0192 FFF7FEFF 		bl	VL53L8CX_WrByte
 1458 0196 0443     		orrs	r4, r4, r0
 1459 0198 E4B2     		uxtb	r4, r4
 1460 019a 3246     		mov	r2, r6
 1461 019c 0621     		movs	r1, #6
 1462 019e 2846     		mov	r0, r5
 1463 01a0 FFF7FEFF 		bl	VL53L8CX_WrByte
 1464 01a4 0443     		orrs	r4, r4, r0
ARM GAS  C:\Temp\ccVQrAGa.s 			page 26


 1465 01a6 E4B2     		uxtb	r4, r4
 1466 01a8 0423     		movs	r3, #4
 1467 01aa 0193     		str	r3, [sp, #4]
 1468 01ac FF23     		movs	r3, #255
 1469 01ae 0093     		str	r3, [sp]
 1470 01b0 2123     		movs	r3, #33
 1471 01b2 3A46     		mov	r2, r7
 1472 01b4 3146     		mov	r1, r6
 1473 01b6 2846     		mov	r0, r5
 1474 01b8 FFF7FEFF 		bl	_vl53l8cx_poll_for_answer
 1475 01bc 0443     		orrs	r4, r4, r0
 1476 01be E4B2     		uxtb	r4, r4
 1477 01c0 3A46     		mov	r2, r7
 1478 01c2 47F6FF71 		movw	r1, #32767
 1479 01c6 2846     		mov	r0, r5
 1480 01c8 FFF7FEFF 		bl	VL53L8CX_WrByte
 1481 01cc 0443     		orrs	r4, r4, r0
 1482 01ce E4B2     		uxtb	r4, r4
 1483 01d0 0DF11702 		add	r2, sp, #23
 1484 01d4 47F6FF71 		movw	r1, #32767
 1485 01d8 2846     		mov	r0, r5
 1486 01da FFF7FEFF 		bl	VL53L8CX_RdByte
 1487 01de 0443     		orrs	r4, r4, r0
 1488 01e0 E4B2     		uxtb	r4, r4
 1489 01e2 3246     		mov	r2, r6
 1490 01e4 0C21     		movs	r1, #12
 1491 01e6 2846     		mov	r0, r5
 1492 01e8 FFF7FEFF 		bl	VL53L8CX_WrByte
 1493 01ec 0443     		orrs	r4, r4, r0
 1494 01ee E4B2     		uxtb	r4, r4
 1495 01f0 3A46     		mov	r2, r7
 1496 01f2 47F6FF71 		movw	r1, #32767
 1497 01f6 2846     		mov	r0, r5
 1498 01f8 FFF7FEFF 		bl	VL53L8CX_WrByte
 1499 01fc 0443     		orrs	r4, r4, r0
 1500 01fe E4B2     		uxtb	r4, r4
 1501 0200 3A46     		mov	r2, r7
 1502 0202 40F20111 		movw	r1, #257
 1503 0206 2846     		mov	r0, r5
 1504 0208 FFF7FEFF 		bl	VL53L8CX_WrByte
 1505 020c 0443     		orrs	r4, r4, r0
 1506 020e E4B2     		uxtb	r4, r4
 1507 0210 3A46     		mov	r2, r7
 1508 0212 4FF48171 		mov	r1, #258
 1509 0216 2846     		mov	r0, r5
 1510 0218 FFF7FEFF 		bl	VL53L8CX_WrByte
 1511 021c 0443     		orrs	r4, r4, r0
 1512 021e E4B2     		uxtb	r4, r4
 1513 0220 3246     		mov	r2, r6
 1514 0222 4FF48571 		mov	r1, #266
 1515 0226 2846     		mov	r0, r5
 1516 0228 FFF7FEFF 		bl	VL53L8CX_WrByte
 1517 022c 0443     		orrs	r4, r4, r0
 1518 022e E4B2     		uxtb	r4, r4
 1519 0230 3246     		mov	r2, r6
 1520 0232 44F20201 		movw	r1, #16386
 1521 0236 2846     		mov	r0, r5
ARM GAS  C:\Temp\ccVQrAGa.s 			page 27


 1522 0238 FFF7FEFF 		bl	VL53L8CX_WrByte
 1523 023c 0443     		orrs	r4, r4, r0
 1524 023e E4B2     		uxtb	r4, r4
 1525 0240 3A46     		mov	r2, r7
 1526 0242 44F20201 		movw	r1, #16386
 1527 0246 2846     		mov	r0, r5
 1528 0248 FFF7FEFF 		bl	VL53L8CX_WrByte
 1529 024c 0443     		orrs	r4, r4, r0
 1530 024e E4B2     		uxtb	r4, r4
 1531 0250 0322     		movs	r2, #3
 1532 0252 4FF48571 		mov	r1, #266
 1533 0256 2846     		mov	r0, r5
 1534 0258 FFF7FEFF 		bl	VL53L8CX_WrByte
 1535 025c 0443     		orrs	r4, r4, r0
 1536 025e E4B2     		uxtb	r4, r4
 1537 0260 3246     		mov	r2, r6
 1538 0262 40F20311 		movw	r1, #259
 1539 0266 2846     		mov	r0, r5
 1540 0268 FFF7FEFF 		bl	VL53L8CX_WrByte
 1541 026c 0443     		orrs	r4, r4, r0
 1542 026e E4B2     		uxtb	r4, r4
 1543 0270 3A46     		mov	r2, r7
 1544 0272 44F20F01 		movw	r1, #16399
 1545 0276 2846     		mov	r0, r5
 1546 0278 FFF7FEFF 		bl	VL53L8CX_WrByte
 1547 027c 0443     		orrs	r4, r4, r0
 1548 027e E4B2     		uxtb	r4, r4
 1549 0280 4322     		movs	r2, #67
 1550 0282 40F21A21 		movw	r1, #538
 1551 0286 2846     		mov	r0, r5
 1552 0288 FFF7FEFF 		bl	VL53L8CX_WrByte
 1553 028c 0443     		orrs	r4, r4, r0
 1554 028e E4B2     		uxtb	r4, r4
 1555 0290 0322     		movs	r2, #3
 1556 0292 40F21A21 		movw	r1, #538
 1557 0296 2846     		mov	r0, r5
 1558 0298 FFF7FEFF 		bl	VL53L8CX_WrByte
 1559 029c 0443     		orrs	r4, r4, r0
 1560 029e E4B2     		uxtb	r4, r4
 1561 02a0 3246     		mov	r2, r6
 1562 02a2 40F21A21 		movw	r1, #538
 1563 02a6 2846     		mov	r0, r5
 1564 02a8 FFF7FEFF 		bl	VL53L8CX_WrByte
 1565 02ac 0443     		orrs	r4, r4, r0
 1566 02ae E4B2     		uxtb	r4, r4
 1567 02b0 3A46     		mov	r2, r7
 1568 02b2 40F21A21 		movw	r1, #538
 1569 02b6 2846     		mov	r0, r5
 1570 02b8 FFF7FEFF 		bl	VL53L8CX_WrByte
 1571 02bc 0443     		orrs	r4, r4, r0
 1572 02be E4B2     		uxtb	r4, r4
 1573 02c0 3A46     		mov	r2, r7
 1574 02c2 40F21921 		movw	r1, #537
 1575 02c6 2846     		mov	r0, r5
 1576 02c8 FFF7FEFF 		bl	VL53L8CX_WrByte
 1577 02cc 0443     		orrs	r4, r4, r0
 1578 02ce E4B2     		uxtb	r4, r4
ARM GAS  C:\Temp\ccVQrAGa.s 			page 28


 1579 02d0 3A46     		mov	r2, r7
 1580 02d2 40F21B21 		movw	r1, #539
 1581 02d6 2846     		mov	r0, r5
 1582 02d8 FFF7FEFF 		bl	VL53L8CX_WrByte
 1583 02dc 0443     		orrs	r4, r4, r0
 1584 02de E4B2     		uxtb	r4, r4
 1585 02e0 3A46     		mov	r2, r7
 1586 02e2 47F6FF71 		movw	r1, #32767
 1587 02e6 2846     		mov	r0, r5
 1588 02e8 FFF7FEFF 		bl	VL53L8CX_WrByte
 1589 02ec 0443     		orrs	r4, r4, r0
 1590 02ee E4B2     		uxtb	r4, r4
 1591 02f0 0DF11702 		add	r2, sp, #23
 1592 02f4 47F6FF71 		movw	r1, #32767
 1593 02f8 2846     		mov	r0, r5
 1594 02fa FFF7FEFF 		bl	VL53L8CX_RdByte
 1595 02fe 0443     		orrs	r4, r4, r0
 1596 0300 E4B2     		uxtb	r4, r4
 1597 0302 3246     		mov	r2, r6
 1598 0304 47F6FF71 		movw	r1, #32767
 1599 0308 2846     		mov	r0, r5
 1600 030a FFF7FEFF 		bl	VL53L8CX_WrByte
 1601 030e 0443     		orrs	r4, r4, r0
 1602 0310 E4B2     		uxtb	r4, r4
 1603 0312 0922     		movs	r2, #9
 1604 0314 47F6FF71 		movw	r1, #32767
 1605 0318 2846     		mov	r0, r5
 1606 031a FFF7FEFF 		bl	VL53L8CX_WrByte
 1607 031e 0443     		orrs	r4, r4, r0
 1608 0320 E4B2     		uxtb	r4, r4
 1609 0322 994E     		ldr	r6, .L141
 1610 0324 4FF40043 		mov	r3, #32768
 1611 0328 3246     		mov	r2, r6
 1612 032a 3946     		mov	r1, r7
 1613 032c 2846     		mov	r0, r5
 1614 032e FFF7FEFF 		bl	VL53L8CX_WrMulti
 1615 0332 0443     		orrs	r4, r4, r0
 1616 0334 E4B2     		uxtb	r4, r4
 1617 0336 0A22     		movs	r2, #10
 1618 0338 47F6FF71 		movw	r1, #32767
 1619 033c 2846     		mov	r0, r5
 1620 033e FFF7FEFF 		bl	VL53L8CX_WrByte
 1621 0342 0443     		orrs	r4, r4, r0
 1622 0344 E4B2     		uxtb	r4, r4
 1623 0346 4FF40043 		mov	r3, #32768
 1624 034a F218     		adds	r2, r6, r3
 1625 034c 3946     		mov	r1, r7
 1626 034e 2846     		mov	r0, r5
 1627 0350 FFF7FEFF 		bl	VL53L8CX_WrMulti
 1628 0354 0443     		orrs	r4, r4, r0
 1629 0356 E4B2     		uxtb	r4, r4
 1630 0358 0B22     		movs	r2, #11
 1631 035a 47F6FF71 		movw	r1, #32767
 1632 035e 2846     		mov	r0, r5
 1633 0360 FFF7FEFF 		bl	VL53L8CX_WrByte
 1634 0364 0443     		orrs	r4, r4, r0
 1635 0366 E4B2     		uxtb	r4, r4
ARM GAS  C:\Temp\ccVQrAGa.s 			page 29


 1636 0368 4FF4A043 		mov	r3, #20480
 1637 036c 06F58032 		add	r2, r6, #65536
 1638 0370 3946     		mov	r1, r7
 1639 0372 2846     		mov	r0, r5
 1640 0374 FFF7FEFF 		bl	VL53L8CX_WrMulti
 1641 0378 0443     		orrs	r4, r4, r0
 1642 037a E4B2     		uxtb	r4, r4
 1643 037c 0122     		movs	r2, #1
 1644 037e 47F6FF71 		movw	r1, #32767
 1645 0382 2846     		mov	r0, r5
 1646 0384 FFF7FEFF 		bl	VL53L8CX_WrByte
 1647 0388 0443     		orrs	r4, r4, r0
 1648 038a E4B2     		uxtb	r4, r4
 1649 038c 0122     		movs	r2, #1
 1650 038e 47F6FF71 		movw	r1, #32767
 1651 0392 2846     		mov	r0, r5
 1652 0394 FFF7FEFF 		bl	VL53L8CX_WrByte
 1653 0398 0443     		orrs	r4, r4, r0
 1654 039a E4B2     		uxtb	r4, r4
 1655 039c 0322     		movs	r2, #3
 1656 039e 0621     		movs	r1, #6
 1657 03a0 2846     		mov	r0, r5
 1658 03a2 FFF7FEFF 		bl	VL53L8CX_WrByte
 1659 03a6 0443     		orrs	r4, r4, r0
 1660 03a8 E4B2     		uxtb	r4, r4
 1661 03aa 0521     		movs	r1, #5
 1662 03ac 2846     		mov	r0, r5
 1663 03ae FFF7FEFF 		bl	VL53L8CX_WaitMs
 1664 03b2 0443     		orrs	r4, r4, r0
 1665 03b4 E4B2     		uxtb	r4, r4
 1666 03b6 3A46     		mov	r2, r7
 1667 03b8 47F6FF71 		movw	r1, #32767
 1668 03bc 2846     		mov	r0, r5
 1669 03be FFF7FEFF 		bl	VL53L8CX_WrByte
 1670 03c2 0443     		orrs	r4, r4, r0
 1671 03c4 E4B2     		uxtb	r4, r4
 1672 03c6 0DF11702 		add	r2, sp, #23
 1673 03ca 47F6FF71 		movw	r1, #32767
 1674 03ce 2846     		mov	r0, r5
 1675 03d0 FFF7FEFF 		bl	VL53L8CX_RdByte
 1676 03d4 0443     		orrs	r4, r4, r0
 1677 03d6 E4B2     		uxtb	r4, r4
 1678 03d8 0122     		movs	r2, #1
 1679 03da 0C21     		movs	r1, #12
 1680 03dc 2846     		mov	r0, r5
 1681 03de FFF7FEFF 		bl	VL53L8CX_WrByte
 1682 03e2 0443     		orrs	r4, r4, r0
 1683 03e4 E4B2     		uxtb	r4, r4
 1684 03e6 3A46     		mov	r2, r7
 1685 03e8 47F6FF71 		movw	r1, #32767
 1686 03ec 2846     		mov	r0, r5
 1687 03ee FFF7FEFF 		bl	VL53L8CX_WrByte
 1688 03f2 0443     		orrs	r4, r4, r0
 1689 03f4 E4B2     		uxtb	r4, r4
 1690 03f6 3A46     		mov	r2, r7
 1691 03f8 4FF48A71 		mov	r1, #276
 1692 03fc 2846     		mov	r0, r5
ARM GAS  C:\Temp\ccVQrAGa.s 			page 30


 1693 03fe FFF7FEFF 		bl	VL53L8CX_WrByte
 1694 0402 0443     		orrs	r4, r4, r0
 1695 0404 E4B2     		uxtb	r4, r4
 1696 0406 3A46     		mov	r2, r7
 1697 0408 40F21511 		movw	r1, #277
 1698 040c 2846     		mov	r0, r5
 1699 040e FFF7FEFF 		bl	VL53L8CX_WrByte
 1700 0412 0443     		orrs	r4, r4, r0
 1701 0414 E4B2     		uxtb	r4, r4
 1702 0416 4222     		movs	r2, #66
 1703 0418 4FF48B71 		mov	r1, #278
 1704 041c 2846     		mov	r0, r5
 1705 041e FFF7FEFF 		bl	VL53L8CX_WrByte
 1706 0422 0443     		orrs	r4, r4, r0
 1707 0424 E4B2     		uxtb	r4, r4
 1708 0426 3A46     		mov	r2, r7
 1709 0428 40F21711 		movw	r1, #279
 1710 042c 2846     		mov	r0, r5
 1711 042e FFF7FEFF 		bl	VL53L8CX_WrByte
 1712 0432 0443     		orrs	r4, r4, r0
 1713 0434 E4B2     		uxtb	r4, r4
 1714 0436 3A46     		mov	r2, r7
 1715 0438 0B21     		movs	r1, #11
 1716 043a 2846     		mov	r0, r5
 1717 043c FFF7FEFF 		bl	VL53L8CX_WrByte
 1718 0440 0443     		orrs	r4, r4, r0
 1719 0442 E4B2     		uxtb	r4, r4
 1720 0444 0DF11702 		add	r2, sp, #23
 1721 0448 47F6FF71 		movw	r1, #32767
 1722 044c 2846     		mov	r0, r5
 1723 044e FFF7FEFF 		bl	VL53L8CX_RdByte
 1724 0452 0443     		orrs	r4, r4, r0
 1725 0454 E4B2     		uxtb	r4, r4
 1726 0456 3A46     		mov	r2, r7
 1727 0458 0C21     		movs	r1, #12
 1728 045a 2846     		mov	r0, r5
 1729 045c FFF7FEFF 		bl	VL53L8CX_WrByte
 1730 0460 0443     		orrs	r4, r4, r0
 1731 0462 E4B2     		uxtb	r4, r4
 1732 0464 0122     		movs	r2, #1
 1733 0466 0B21     		movs	r1, #11
 1734 0468 2846     		mov	r0, r5
 1735 046a FFF7FEFF 		bl	VL53L8CX_WrByte
 1736 046e 0443     		orrs	r4, r4, r0
 1737 0470 E4B2     		uxtb	r4, r4
 1738 0472 2846     		mov	r0, r5
 1739 0474 FFF7FEFF 		bl	_vl53l8cx_poll_for_mcu_boot
 1740 0478 0443     		orrs	r4, r4, r0
 1741 047a 14F0FF04 		ands	r4, r4, #255
 1742 047e 7FF46EAE 		bne	.L135
 1743 0482 0222     		movs	r2, #2
 1744 0484 47F6FF71 		movw	r1, #32767
 1745 0488 2846     		mov	r0, r5
 1746 048a FFF7FEFF 		bl	VL53L8CX_WrByte
 1747 048e 0443     		orrs	r4, r4, r0
 1748 0490 E4B2     		uxtb	r4, r4
 1749 0492 05F5A266 		add	r6, r5, #1296
ARM GAS  C:\Temp\ccVQrAGa.s 			page 31


 1750 0496 0423     		movs	r3, #4
 1751 0498 3246     		mov	r2, r6
 1752 049a 42F6FC71 		movw	r1, #12284
 1753 049e 2846     		mov	r0, r5
 1754 04a0 FFF7FEFF 		bl	VL53L8CX_RdMulti
 1755 04a4 0443     		orrs	r4, r4, r0
 1756 04a6 E4B2     		uxtb	r4, r4
 1757 04a8 0421     		movs	r1, #4
 1758 04aa 3046     		mov	r0, r6
 1759 04ac FFF7FEFF 		bl	VL53L8CX_SwapBuffer
 1760 04b0 D5F81025 		ldr	r2, [r5, #1296]	@ unaligned
 1761 04b4 354B     		ldr	r3, .L141+4
 1762 04b6 9A42     		cmp	r2, r3
 1763 04b8 02D0     		beq	.L136
 1764 04ba 44F00504 		orr	r4, r4, #5
 1765 04be 4EE6     		b	.L135
 1766              	.L136:
 1767 04c0 2823     		movs	r3, #40
 1768 04c2 334A     		ldr	r2, .L141+8
 1769 04c4 42F6D871 		movw	r1, #12248
 1770 04c8 2846     		mov	r0, r5
 1771 04ca FFF7FEFF 		bl	VL53L8CX_WrMulti
 1772 04ce 0443     		orrs	r4, r4, r0
 1773 04d0 E4B2     		uxtb	r4, r4
 1774 04d2 0223     		movs	r3, #2
 1775 04d4 0193     		str	r3, [sp, #4]
 1776 04d6 FF27     		movs	r7, #255
 1777 04d8 0097     		str	r7, [sp]
 1778 04da 4FF43053 		mov	r3, #11264
 1779 04de 0022     		movs	r2, #0
 1780 04e0 0421     		movs	r1, #4
 1781 04e2 2846     		mov	r0, r5
 1782 04e4 FFF7FEFF 		bl	_vl53l8cx_poll_for_answer
 1783 04e8 0443     		orrs	r4, r4, r0
 1784 04ea E4B2     		uxtb	r4, r4
 1785 04ec 4FF4F673 		mov	r3, #492
 1786 04f0 3246     		mov	r2, r6
 1787 04f2 42F60441 		movw	r1, #11268
 1788 04f6 2846     		mov	r0, r5
 1789 04f8 FFF7FEFF 		bl	VL53L8CX_RdMulti
 1790 04fc 0443     		orrs	r4, r4, r0
 1791 04fe E4B2     		uxtb	r4, r4
 1792 0500 4FF4F472 		mov	r2, #488
 1793 0504 3146     		mov	r1, r6
 1794 0506 05F12000 		add	r0, r5, #32
 1795 050a FFF7FEFF 		bl	memcpy
 1796 050e 1021     		movs	r1, #16
 1797 0510 2846     		mov	r0, r5
 1798 0512 FFF7FEFF 		bl	_vl53l8cx_send_offset_data
 1799 0516 0443     		orrs	r4, r4, r0
 1800 0518 E4B2     		uxtb	r4, r4
 1801 051a 4FF44272 		mov	r2, #776
 1802 051e 1D49     		ldr	r1, .L141+12
 1803 0520 05F50270 		add	r0, r5, #520
 1804 0524 FFF7FEFF 		bl	memcpy
 1805 0528 1021     		movs	r1, #16
 1806 052a 2846     		mov	r0, r5
ARM GAS  C:\Temp\ccVQrAGa.s 			page 32


 1807 052c FFF7FEFF 		bl	_vl53l8cx_send_xtalk_data
 1808 0530 0443     		orrs	r4, r4, r0
 1809 0532 E4B2     		uxtb	r4, r4
 1810 0534 4FF47373 		mov	r3, #972
 1811 0538 AA69     		ldr	r2, [r5, #24]
 1812 053a 42F63441 		movw	r1, #11316
 1813 053e 2846     		mov	r0, r5
 1814 0540 FFF7FEFF 		bl	VL53L8CX_WrMulti
 1815 0544 0443     		orrs	r4, r4, r0
 1816 0546 E4B2     		uxtb	r4, r4
 1817 0548 0323     		movs	r3, #3
 1818 054a 0193     		str	r3, [sp, #4]
 1819 054c 0097     		str	r7, [sp]
 1820 054e 4FF43053 		mov	r3, #11264
 1821 0552 0122     		movs	r2, #1
 1822 0554 0421     		movs	r1, #4
 1823 0556 2846     		mov	r0, r5
 1824 0558 FFF7FEFF 		bl	_vl53l8cx_poll_for_answer
 1825 055c 0443     		orrs	r4, r4, r0
 1826 055e E4B2     		uxtb	r4, r4
 1827 0560 0423     		movs	r3, #4
 1828 0562 4DF68032 		movw	r2, #56192
 1829 0566 04A9     		add	r1, sp, #16
 1830 0568 2846     		mov	r0, r5
 1831 056a FFF7FEFF 		bl	vl53l8cx_dci_write_data
 1832 056e 0443     		orrs	r4, r4, r0
 1833 0570 E4B2     		uxtb	r4, r4
 1834 0572 0423     		movs	r3, #4
 1835 0574 4DF66412 		movw	r2, #55652
 1836 0578 03A9     		add	r1, sp, #12
 1837 057a 2846     		mov	r0, r5
 1838 057c FFF7FEFF 		bl	vl53l8cx_dci_write_data
 1839 0580 0443     		orrs	r4, r4, r0
 1840 0582 E4B2     		uxtb	r4, r4
 1841 0584 EBE5     		b	.L135
 1842              	.L142:
 1843 0586 00BF     		.align	2
 1844              	.L141:
 1845 0588 00000000 		.word	VL53L8CX_FIRMWARE
 1846 058c 9E6C0B0C 		.word	202075294
 1847 0590 00000000 		.word	VL53L8CX_GET_NVM_CMD
 1848 0594 24000000 		.word	.LANCHOR0+36
 1850              		.section	.text.vl53l8cx_set_power_mode,"ax",%progbits
 1851              		.align	1
 1852              		.global	vl53l8cx_set_power_mode
 1853              		.syntax unified
 1854              		.thumb
 1855              		.thumb_func
 1857              	vl53l8cx_set_power_mode:
 1858              		@ args = 0, pretend = 0, frame = 8
 1859              		@ frame_needed = 0, uses_anonymous_args = 0
 1860 0000 70B5     		push	{r4, r5, r6, lr}
 1861 0002 84B0     		sub	sp, sp, #16
 1862 0004 0546     		mov	r5, r0
 1863 0006 0E46     		mov	r6, r1
 1864 0008 0DF10F01 		add	r1, sp, #15
 1865 000c FFF7FEFF 		bl	vl53l8cx_get_power_mode
ARM GAS  C:\Temp\ccVQrAGa.s 			page 33


 1866 0010 0446     		mov	r4, r0
 1867 0012 9DF80F30 		ldrb	r3, [sp, #15]	@ zero_extendqisi2
 1868 0016 B342     		cmp	r3, r6
 1869 0018 0ED0     		beq	.L144
 1870 001a 012E     		cmp	r6, #1
 1871 001c 0FD0     		beq	.L145
 1872 001e 022E     		cmp	r6, #2
 1873 0020 5ED0     		beq	.L146
 1874 0022 002E     		cmp	r6, #0
 1875 0024 42D0     		beq	.L147
 1876 0026 FF24     		movs	r4, #255
 1877              	.L148:
 1878 0028 0222     		movs	r2, #2
 1879 002a 47F6FF71 		movw	r1, #32767
 1880 002e 2846     		mov	r0, r5
 1881 0030 FFF7FEFF 		bl	VL53L8CX_WrByte
 1882 0034 0443     		orrs	r4, r4, r0
 1883 0036 E4B2     		uxtb	r4, r4
 1884              	.L144:
 1885 0038 2046     		mov	r0, r4
 1886 003a 04B0     		add	sp, sp, #16
 1887              		@ sp needed
 1888 003c 70BD     		pop	{r4, r5, r6, pc}
 1889              	.L145:
 1890 003e 0022     		movs	r2, #0
 1891 0040 47F6FF71 		movw	r1, #32767
 1892 0044 2846     		mov	r0, r5
 1893 0046 FFF7FEFF 		bl	VL53L8CX_WrByte
 1894 004a 0443     		orrs	r4, r4, r0
 1895 004c E4B2     		uxtb	r4, r4
 1896 004e 0422     		movs	r2, #4
 1897 0050 0921     		movs	r1, #9
 1898 0052 2846     		mov	r0, r5
 1899 0054 FFF7FEFF 		bl	VL53L8CX_WrByte
 1900 0058 0443     		orrs	r4, r4, r0
 1901 005a E4B2     		uxtb	r4, r4
 1902 005c 0DF10E02 		add	r2, sp, #14
 1903 0060 0F21     		movs	r1, #15
 1904 0062 2846     		mov	r0, r5
 1905 0064 FFF7FEFF 		bl	VL53L8CX_RdByte
 1906 0068 0443     		orrs	r4, r4, r0
 1907 006a E4B2     		uxtb	r4, r4
 1908 006c 9DF80E30 		ldrb	r3, [sp, #14]	@ zero_extendqisi2
 1909 0070 432B     		cmp	r3, #67
 1910 0072 13D0     		beq	.L151
 1911              	.L149:
 1912 0074 0121     		movs	r1, #1
 1913 0076 0191     		str	r1, [sp, #4]
 1914 0078 0091     		str	r1, [sp]
 1915 007a 0623     		movs	r3, #6
 1916 007c 0022     		movs	r2, #0
 1917 007e 2846     		mov	r0, r5
 1918 0080 FFF7FEFF 		bl	_vl53l8cx_poll_for_answer
 1919 0084 0443     		orrs	r4, r4, r0
 1920 0086 E4B2     		uxtb	r4, r4
 1921 0088 9DF80E30 		ldrb	r3, [sp, #14]	@ zero_extendqisi2
 1922 008c 432B     		cmp	r3, #67
ARM GAS  C:\Temp\ccVQrAGa.s 			page 34


 1923 008e CBD1     		bne	.L148
 1924 0090 2846     		mov	r0, r5
 1925 0092 FFF7FEFF 		bl	vl53l8cx_init
 1926 0096 0443     		orrs	r4, r4, r0
 1927 0098 E4B2     		uxtb	r4, r4
 1928 009a C5E7     		b	.L148
 1929              	.L151:
 1930 009c 4022     		movs	r2, #64
 1931 009e 0F21     		movs	r1, #15
 1932 00a0 2846     		mov	r0, r5
 1933 00a2 FFF7FEFF 		bl	VL53L8CX_WrByte
 1934 00a6 0443     		orrs	r4, r4, r0
 1935 00a8 E4B2     		uxtb	r4, r4
 1936 00aa E3E7     		b	.L149
 1937              	.L147:
 1938 00ac 0022     		movs	r2, #0
 1939 00ae 47F6FF71 		movw	r1, #32767
 1940 00b2 2846     		mov	r0, r5
 1941 00b4 FFF7FEFF 		bl	VL53L8CX_WrByte
 1942 00b8 0443     		orrs	r4, r4, r0
 1943 00ba E4B2     		uxtb	r4, r4
 1944 00bc 0222     		movs	r2, #2
 1945 00be 0921     		movs	r1, #9
 1946 00c0 2846     		mov	r0, r5
 1947 00c2 FFF7FEFF 		bl	VL53L8CX_WrByte
 1948 00c6 0443     		orrs	r4, r4, r0
 1949 00c8 E4B2     		uxtb	r4, r4
 1950 00ca 0022     		movs	r2, #0
 1951 00cc 0192     		str	r2, [sp, #4]
 1952 00ce 0121     		movs	r1, #1
 1953 00d0 0091     		str	r1, [sp]
 1954 00d2 0623     		movs	r3, #6
 1955 00d4 2846     		mov	r0, r5
 1956 00d6 FFF7FEFF 		bl	_vl53l8cx_poll_for_answer
 1957 00da 0443     		orrs	r4, r4, r0
 1958 00dc E4B2     		uxtb	r4, r4
 1959 00de A3E7     		b	.L148
 1960              	.L146:
 1961 00e0 0022     		movs	r2, #0
 1962 00e2 47F6FF71 		movw	r1, #32767
 1963 00e6 2846     		mov	r0, r5
 1964 00e8 FFF7FEFF 		bl	VL53L8CX_WrByte
 1965 00ec 0443     		orrs	r4, r4, r0
 1966 00ee E4B2     		uxtb	r4, r4
 1967 00f0 0222     		movs	r2, #2
 1968 00f2 0921     		movs	r1, #9
 1969 00f4 2846     		mov	r0, r5
 1970 00f6 FFF7FEFF 		bl	VL53L8CX_WrByte
 1971 00fa 0443     		orrs	r4, r4, r0
 1972 00fc E4B2     		uxtb	r4, r4
 1973 00fe 0022     		movs	r2, #0
 1974 0100 0192     		str	r2, [sp, #4]
 1975 0102 0121     		movs	r1, #1
 1976 0104 0091     		str	r1, [sp]
 1977 0106 0623     		movs	r3, #6
 1978 0108 2846     		mov	r0, r5
 1979 010a FFF7FEFF 		bl	_vl53l8cx_poll_for_answer
ARM GAS  C:\Temp\ccVQrAGa.s 			page 35


 1980 010e 0443     		orrs	r4, r4, r0
 1981 0110 E4B2     		uxtb	r4, r4
 1982 0112 4322     		movs	r2, #67
 1983 0114 0F21     		movs	r1, #15
 1984 0116 2846     		mov	r0, r5
 1985 0118 FFF7FEFF 		bl	VL53L8CX_WrByte
 1986 011c 0443     		orrs	r4, r4, r0
 1987 011e E4B2     		uxtb	r4, r4
 1988 0120 82E7     		b	.L148
 1990              		.section	.text.vl53l8cx_start_ranging,"ax",%progbits
 1991              		.align	1
 1992              		.global	vl53l8cx_start_ranging
 1993              		.syntax unified
 1994              		.thumb
 1995              		.thumb_func
 1997              	vl53l8cx_start_ranging:
 1998              		@ args = 0, pretend = 0, frame = 80
 1999              		@ frame_needed = 0, uses_anonymous_args = 0
 2000 0000 F0B5     		push	{r4, r5, r6, r7, lr}
 2001 0002 97B0     		sub	sp, sp, #92
 2002 0004 0546     		mov	r5, r0
 2003 0006 0024     		movs	r4, #0
 2004 0008 1394     		str	r4, [sp, #76]
 2005 000a 1494     		str	r4, [sp, #80]
 2006 000c 4FF44073 		mov	r3, #768
 2007 0010 1293     		str	r3, [sp, #72]
 2008 0012 0DF15701 		add	r1, sp, #87
 2009 0016 FFF7FEFF 		bl	vl53l8cx_get_resolution
 2010 001a 0646     		mov	r6, r0
 2011 001c 6C61     		str	r4, [r5, #20]
 2012 001e FF23     		movs	r3, #255
 2013 0020 2B74     		strb	r3, [r5, #16]
 2014 0022 6D4F     		ldr	r7, .L165
 2015 0024 0DF1380C 		add	ip, sp, #56
 2016 0028 07F54B73 		add	r3, r7, #812
 2017 002c 0FCB     		ldm	r3, {r0, r1, r2, r3}
 2018 002e 8CE80F00 		stm	ip, {r0, r1, r2, r3}
 2019 0032 0DF1080E 		add	lr, sp, #8
 2020 0036 07F54F7C 		add	ip, r7, #828
 2021 003a BCE80F00 		ldmia	ip!, {r0, r1, r2, r3}
 2022 003e AEE80F00 		stmia	lr!, {r0, r1, r2, r3}
 2023 0042 BCE80F00 		ldmia	ip!, {r0, r1, r2, r3}
 2024 0046 AEE80F00 		stmia	lr!, {r0, r1, r2, r3}
 2025 004a 9CE80F00 		ldm	ip, {r0, r1, r2, r3}
 2026 004e 8EE80F00 		stm	lr, {r0, r1, r2, r3}
 2027 0052 2723     		movs	r3, #39
 2028 0054 0E93     		str	r3, [sp, #56]
 2029 0056 40F22713 		movw	r3, #295
 2030 005a 0E93     		str	r3, [sp, #56]
 2031 005c 40F22753 		movw	r3, #1319
 2032 0060 0E93     		str	r3, [sp, #56]
 2033 0062 10E0     		b	.L153
 2034              	.L156:
 2035 0064 9DF85770 		ldrb	r7, [sp, #87]	@ zero_extendqisi2
 2036 0068 585A     		ldrh	r0, [r3, r1]
 2037 006a 67F30F10 		bfi	r0, r7, #4, #12
 2038 006e 5852     		strh	r0, [r3, r1]	@ movhi
ARM GAS  C:\Temp\ccVQrAGa.s 			page 36


 2039 0070 39E0     		b	.L157
 2040              	.L155:
 2041 0072 6A69     		ldr	r2, [r5, #20]
 2042 0074 5B5A     		ldrh	r3, [r3, r1]
 2043 0076 C3F30B13 		ubfx	r3, r3, #4, #12
 2044 007a 1A44     		add	r2, r2, r3
 2045 007c 6A61     		str	r2, [r5, #20]
 2046              	.L158:
 2047 007e 6B69     		ldr	r3, [r5, #20]
 2048 0080 0433     		adds	r3, r3, #4
 2049 0082 6B61     		str	r3, [r5, #20]
 2050              	.L154:
 2051 0084 0134     		adds	r4, r4, #1
 2052              	.L153:
 2053 0086 0B2C     		cmp	r4, #11
 2054 0088 35D8     		bhi	.L164
 2055 008a 16AB     		add	r3, sp, #88
 2056 008c 03EB8403 		add	r3, r3, r4, lsl #2
 2057 0090 53F8503C 		ldr	r3, [r3, #-80]
 2058 0094 002B     		cmp	r3, #0
 2059 0096 F5D0     		beq	.L154
 2060 0098 6309     		lsrs	r3, r4, #5
 2061 009a 16AA     		add	r2, sp, #88
 2062 009c 02EB8303 		add	r3, r2, r3, lsl #2
 2063 00a0 53F8203C 		ldr	r3, [r3, #-32]
 2064 00a4 04F01F02 		and	r2, r4, #31
 2065 00a8 D340     		lsrs	r3, r3, r2
 2066 00aa 13F0010F 		tst	r3, #1
 2067 00ae E9D0     		beq	.L154
 2068 00b0 02AB     		add	r3, sp, #8
 2069 00b2 A100     		lsls	r1, r4, #2
 2070 00b4 03EB8400 		add	r0, r3, r4, lsl #2
 2071 00b8 13F82420 		ldrb	r2, [r3, r4, lsl #2]	@ zero_extendqisi2
 2072 00bc 12F00F0F 		tst	r2, #15
 2073 00c0 D7D0     		beq	.L155
 2074 00c2 02F00F02 		and	r2, r2, #15
 2075 00c6 0C2A     		cmp	r2, #12
 2076 00c8 D3D8     		bhi	.L155
 2077 00ca 4088     		ldrh	r0, [r0, #2]
 2078 00cc A0F5A940 		sub	r0, r0, #21632
 2079 00d0 5038     		subs	r0, r0, #80
 2080 00d2 80B2     		uxth	r0, r0
 2081 00d4 B0F5707F 		cmp	r0, #960
 2082 00d8 C4D2     		bcs	.L156
 2083 00da 9DF85770 		ldrb	r7, [sp, #87]	@ zero_extendqisi2
 2084 00de 585A     		ldrh	r0, [r3, r1]
 2085 00e0 67F30F10 		bfi	r0, r7, #4, #12
 2086 00e4 5852     		strh	r0, [r3, r1]	@ movhi
 2087              	.L157:
 2088 00e6 6869     		ldr	r0, [r5, #20]
 2089 00e8 5B5A     		ldrh	r3, [r3, r1]
 2090 00ea C3F30B13 		ubfx	r3, r3, #4, #12
 2091 00ee 03FB0200 		mla	r0, r3, r2, r0
 2092 00f2 6861     		str	r0, [r5, #20]
 2093 00f4 C3E7     		b	.L158
 2094              	.L164:
 2095 00f6 6B69     		ldr	r3, [r5, #20]
ARM GAS  C:\Temp\ccVQrAGa.s 			page 37


 2096 00f8 1833     		adds	r3, r3, #24
 2097 00fa 6B61     		str	r3, [r5, #20]
 2098 00fc 3023     		movs	r3, #48
 2099 00fe 4DF68012 		movw	r2, #55680
 2100 0102 02A9     		add	r1, sp, #8
 2101 0104 2846     		mov	r0, r5
 2102 0106 FFF7FEFF 		bl	vl53l8cx_dci_write_data
 2103 010a 0643     		orrs	r6, r6, r0
 2104 010c F6B2     		uxtb	r6, r6
 2105 010e 6B69     		ldr	r3, [r5, #20]
 2106 0110 1393     		str	r3, [sp, #76]
 2107 0112 0134     		adds	r4, r4, #1
 2108 0114 1494     		str	r4, [sp, #80]
 2109 0116 0823     		movs	r3, #8
 2110 0118 4DF66812 		movw	r2, #55656
 2111 011c 13A9     		add	r1, sp, #76
 2112 011e 2846     		mov	r0, r5
 2113 0120 FFF7FEFF 		bl	vl53l8cx_dci_write_data
 2114 0124 46EA0004 		orr	r4, r6, r0
 2115 0128 E4B2     		uxtb	r4, r4
 2116 012a 1023     		movs	r3, #16
 2117 012c 4DF67012 		movw	r2, #55664
 2118 0130 0EA9     		add	r1, sp, #56
 2119 0132 2846     		mov	r0, r5
 2120 0134 FFF7FEFF 		bl	vl53l8cx_dci_write_data
 2121 0138 0443     		orrs	r4, r4, r0
 2122 013a E4B2     		uxtb	r4, r4
 2123 013c 0022     		movs	r2, #0
 2124 013e 47F6FF71 		movw	r1, #32767
 2125 0142 2846     		mov	r0, r5
 2126 0144 FFF7FEFF 		bl	VL53L8CX_WrByte
 2127 0148 0443     		orrs	r4, r4, r0
 2128 014a E4B2     		uxtb	r4, r4
 2129 014c 0522     		movs	r2, #5
 2130 014e 0921     		movs	r1, #9
 2131 0150 2846     		mov	r0, r5
 2132 0152 FFF7FEFF 		bl	VL53L8CX_WrByte
 2133 0156 0443     		orrs	r4, r4, r0
 2134 0158 E4B2     		uxtb	r4, r4
 2135 015a 0222     		movs	r2, #2
 2136 015c 47F6FF71 		movw	r1, #32767
 2137 0160 2846     		mov	r0, r5
 2138 0162 FFF7FEFF 		bl	VL53L8CX_WrByte
 2139 0166 0443     		orrs	r4, r4, r0
 2140 0168 E4B2     		uxtb	r4, r4
 2141 016a 0423     		movs	r3, #4
 2142 016c 12AA     		add	r2, sp, #72
 2143 016e 42F6FC71 		movw	r1, #12284
 2144 0172 2846     		mov	r0, r5
 2145 0174 FFF7FEFF 		bl	VL53L8CX_WrMulti
 2146 0178 0443     		orrs	r4, r4, r0
 2147 017a E4B2     		uxtb	r4, r4
 2148 017c 0323     		movs	r3, #3
 2149 017e 0193     		str	r3, [sp, #4]
 2150 0180 FF23     		movs	r3, #255
 2151 0182 0093     		str	r3, [sp]
 2152 0184 4FF43053 		mov	r3, #11264
ARM GAS  C:\Temp\ccVQrAGa.s 			page 38


 2153 0188 0122     		movs	r2, #1
 2154 018a 0421     		movs	r1, #4
 2155 018c 2846     		mov	r0, r5
 2156 018e FFF7FEFF 		bl	_vl53l8cx_poll_for_answer
 2157 0192 0443     		orrs	r4, r4, r0
 2158 0194 E4B2     		uxtb	r4, r4
 2159 0196 05F5A266 		add	r6, r5, #1296
 2160 019a 0C23     		movs	r3, #12
 2161 019c 45F24042 		movw	r2, #21568
 2162 01a0 3146     		mov	r1, r6
 2163 01a2 2846     		mov	r0, r5
 2164 01a4 FFF7FEFF 		bl	vl53l8cx_dci_read_data
 2165 01a8 0443     		orrs	r4, r4, r0
 2166 01aa E4B2     		uxtb	r4, r4
 2167 01ac B5F81825 		ldrh	r2, [r5, #1304]	@ unaligned
 2168 01b0 6B69     		ldr	r3, [r5, #20]
 2169 01b2 9A42     		cmp	r2, r3
 2170 01b4 00D0     		beq	.L160
 2171 01b6 FF24     		movs	r4, #255
 2172              	.L160:
 2173 01b8 0823     		movs	r3, #8
 2174 01ba 4EF2C402 		movw	r2, #57540
 2175 01be 3146     		mov	r1, r6
 2176 01c0 2846     		mov	r0, r5
 2177 01c2 FFF7FEFF 		bl	vl53l8cx_dci_read_data
 2178 01c6 2043     		orrs	r0, r0, r4
 2179 01c8 C0B2     		uxtb	r0, r0
 2180 01ca 95F81635 		ldrb	r3, [r5, #1302]	@ zero_extendqisi2
 2181 01ce 0BB1     		cbz	r3, .L161
 2182 01d0 40F00300 		orr	r0, r0, #3
 2183              	.L161:
 2184 01d4 17B0     		add	sp, sp, #92
 2185              		@ sp needed
 2186 01d6 F0BD     		pop	{r4, r5, r6, r7, pc}
 2187              	.L166:
 2188              		.align	2
 2189              	.L165:
 2190 01d8 00000000 		.word	.LANCHOR0
 2192              		.section	.text.vl53l8cx_set_resolution,"ax",%progbits
 2193              		.align	1
 2194              		.global	vl53l8cx_set_resolution
 2195              		.syntax unified
 2196              		.thumb
 2197              		.thumb_func
 2199              	vl53l8cx_set_resolution:
 2200              		@ args = 0, pretend = 0, frame = 0
 2201              		@ frame_needed = 0, uses_anonymous_args = 0
 2202 0000 2DE9F041 		push	{r4, r5, r6, r7, r8, lr}
 2203 0004 0546     		mov	r5, r0
 2204 0006 0E46     		mov	r6, r1
 2205 0008 1029     		cmp	r1, #16
 2206 000a 10D0     		beq	.L168
 2207 000c 4029     		cmp	r1, #64
 2208 000e 44D0     		beq	.L169
 2209 0010 7F24     		movs	r4, #127
 2210              	.L170:
 2211 0012 3146     		mov	r1, r6
ARM GAS  C:\Temp\ccVQrAGa.s 			page 39


 2212 0014 2846     		mov	r0, r5
 2213 0016 FFF7FEFF 		bl	_vl53l8cx_send_offset_data
 2214 001a 0443     		orrs	r4, r4, r0
 2215 001c E4B2     		uxtb	r4, r4
 2216 001e 3146     		mov	r1, r6
 2217 0020 2846     		mov	r0, r5
 2218 0022 FFF7FEFF 		bl	_vl53l8cx_send_xtalk_data
 2219 0026 2043     		orrs	r0, r0, r4
 2220 0028 C0B2     		uxtb	r0, r0
 2221 002a BDE8F081 		pop	{r4, r5, r6, r7, r8, pc}
 2222              	.L168:
 2223 002e 00F5A267 		add	r7, r0, #1296
 2224 0032 1023     		movs	r3, #16
 2225 0034 4AF63852 		movw	r2, #44344
 2226 0038 3946     		mov	r1, r7
 2227 003a FFF7FEFF 		bl	vl53l8cx_dci_read_data
 2228 003e 0446     		mov	r4, r0
 2229 0040 4023     		movs	r3, #64
 2230 0042 85F81435 		strb	r3, [r5, #1300]
 2231 0046 85F81635 		strb	r3, [r5, #1302]
 2232 004a 4FF00408 		mov	r8, #4
 2233 004e 85F81985 		strb	r8, [r5, #1305]
 2234 0052 1023     		movs	r3, #16
 2235 0054 4AF63852 		movw	r2, #44344
 2236 0058 3946     		mov	r1, r7
 2237 005a 2846     		mov	r0, r5
 2238 005c FFF7FEFF 		bl	vl53l8cx_dci_write_data
 2239 0060 0443     		orrs	r4, r4, r0
 2240 0062 E4B2     		uxtb	r4, r4
 2241 0064 0823     		movs	r3, #8
 2242 0066 45F25042 		movw	r2, #21584
 2243 006a 3946     		mov	r1, r7
 2244 006c 2846     		mov	r0, r5
 2245 006e FFF7FEFF 		bl	vl53l8cx_dci_read_data
 2246 0072 0443     		orrs	r4, r4, r0
 2247 0074 E4B2     		uxtb	r4, r4
 2248 0076 85F81085 		strb	r8, [r5, #1296]
 2249 007a 85F81185 		strb	r8, [r5, #1297]
 2250 007e 0823     		movs	r3, #8
 2251 0080 85F81435 		strb	r3, [r5, #1300]
 2252 0084 85F81535 		strb	r3, [r5, #1301]
 2253 0088 45F25042 		movw	r2, #21584
 2254 008c 3946     		mov	r1, r7
 2255 008e 2846     		mov	r0, r5
 2256 0090 FFF7FEFF 		bl	vl53l8cx_dci_write_data
 2257 0094 0443     		orrs	r4, r4, r0
 2258 0096 E4B2     		uxtb	r4, r4
 2259 0098 BBE7     		b	.L170
 2260              	.L169:
 2261 009a 00F5A267 		add	r7, r0, #1296
 2262 009e 1023     		movs	r3, #16
 2263 00a0 4AF63852 		movw	r2, #44344
 2264 00a4 3946     		mov	r1, r7
 2265 00a6 FFF7FEFF 		bl	vl53l8cx_dci_read_data
 2266 00aa 0446     		mov	r4, r0
 2267 00ac 1023     		movs	r3, #16
 2268 00ae 85F81435 		strb	r3, [r5, #1300]
ARM GAS  C:\Temp\ccVQrAGa.s 			page 40


 2269 00b2 85F81635 		strb	r3, [r5, #1302]
 2270 00b6 0122     		movs	r2, #1
 2271 00b8 85F81925 		strb	r2, [r5, #1305]
 2272 00bc 4AF63852 		movw	r2, #44344
 2273 00c0 3946     		mov	r1, r7
 2274 00c2 2846     		mov	r0, r5
 2275 00c4 FFF7FEFF 		bl	vl53l8cx_dci_write_data
 2276 00c8 0443     		orrs	r4, r4, r0
 2277 00ca E4B2     		uxtb	r4, r4
 2278 00cc 0823     		movs	r3, #8
 2279 00ce 45F25042 		movw	r2, #21584
 2280 00d2 3946     		mov	r1, r7
 2281 00d4 2846     		mov	r0, r5
 2282 00d6 FFF7FEFF 		bl	vl53l8cx_dci_read_data
 2283 00da 0443     		orrs	r4, r4, r0
 2284 00dc E4B2     		uxtb	r4, r4
 2285 00de 0823     		movs	r3, #8
 2286 00e0 85F81035 		strb	r3, [r5, #1296]
 2287 00e4 85F81135 		strb	r3, [r5, #1297]
 2288 00e8 0422     		movs	r2, #4
 2289 00ea 85F81425 		strb	r2, [r5, #1300]
 2290 00ee 85F81525 		strb	r2, [r5, #1301]
 2291 00f2 45F25042 		movw	r2, #21584
 2292 00f6 3946     		mov	r1, r7
 2293 00f8 2846     		mov	r0, r5
 2294 00fa FFF7FEFF 		bl	vl53l8cx_dci_write_data
 2295 00fe 0443     		orrs	r4, r4, r0
 2296 0100 E4B2     		uxtb	r4, r4
 2297 0102 86E7     		b	.L170
 2299              		.section	.text.vl53l8cx_set_ranging_mode,"ax",%progbits
 2300              		.align	1
 2301              		.global	vl53l8cx_set_ranging_mode
 2302              		.syntax unified
 2303              		.thumb
 2304              		.thumb_func
 2306              	vl53l8cx_set_ranging_mode:
 2307              		@ args = 0, pretend = 0, frame = 8
 2308              		@ frame_needed = 0, uses_anonymous_args = 0
 2309 0000 F0B5     		push	{r4, r5, r6, r7, lr}
 2310 0002 83B0     		sub	sp, sp, #12
 2311 0004 0646     		mov	r6, r0
 2312 0006 0D46     		mov	r5, r1
 2313 0008 0023     		movs	r3, #0
 2314 000a 0193     		str	r3, [sp, #4]
 2315 000c 00F5A267 		add	r7, r0, #1296
 2316 0010 0823     		movs	r3, #8
 2317 0012 4AF63052 		movw	r2, #44336
 2318 0016 3946     		mov	r1, r7
 2319 0018 FFF7FEFF 		bl	vl53l8cx_dci_read_data
 2320 001c 0446     		mov	r4, r0
 2321 001e 012D     		cmp	r5, #1
 2322 0020 17D0     		beq	.L173
 2323 0022 032D     		cmp	r5, #3
 2324 0024 1ED0     		beq	.L174
 2325 0026 7F24     		movs	r4, #127
 2326              	.L175:
 2327 0028 0823     		movs	r3, #8
ARM GAS  C:\Temp\ccVQrAGa.s 			page 41


 2328 002a 4AF63052 		movw	r2, #44336
 2329 002e 3946     		mov	r1, r7
 2330 0030 3046     		mov	r0, r6
 2331 0032 FFF7FEFF 		bl	vl53l8cx_dci_write_data
 2332 0036 0443     		orrs	r4, r4, r0
 2333 0038 E4B2     		uxtb	r4, r4
 2334 003a 0423     		movs	r3, #4
 2335 003c 4DF66412 		movw	r2, #55652
 2336 0040 0DEB0301 		add	r1, sp, r3
 2337 0044 3046     		mov	r0, r6
 2338 0046 FFF7FEFF 		bl	vl53l8cx_dci_write_data
 2339 004a 2043     		orrs	r0, r0, r4
 2340 004c C0B2     		uxtb	r0, r0
 2341 004e 03B0     		add	sp, sp, #12
 2342              		@ sp needed
 2343 0050 F0BD     		pop	{r4, r5, r6, r7, pc}
 2344              	.L173:
 2345 0052 0123     		movs	r3, #1
 2346 0054 86F81135 		strb	r3, [r6, #1297]
 2347 0058 0323     		movs	r3, #3
 2348 005a 86F81335 		strb	r3, [r6, #1299]
 2349 005e 0023     		movs	r3, #0
 2350 0060 0193     		str	r3, [sp, #4]
 2351 0062 E1E7     		b	.L175
 2352              	.L174:
 2353 0064 0323     		movs	r3, #3
 2354 0066 86F81135 		strb	r3, [r6, #1297]
 2355 006a 0223     		movs	r3, #2
 2356 006c 86F81335 		strb	r3, [r6, #1299]
 2357 0070 0123     		movs	r3, #1
 2358 0072 0193     		str	r3, [sp, #4]
 2359 0074 D8E7     		b	.L175
 2361              		.section	.text.vl53l8cx_set_external_sync_pin_enable,"ax",%progbits
 2362              		.align	1
 2363              		.global	vl53l8cx_set_external_sync_pin_enable
 2364              		.syntax unified
 2365              		.thumb
 2366              		.thumb_func
 2368              	vl53l8cx_set_external_sync_pin_enable:
 2369              		@ args = 0, pretend = 0, frame = 0
 2370              		@ frame_needed = 0, uses_anonymous_args = 0
 2371 0000 F8B5     		push	{r3, r4, r5, r6, r7, lr}
 2372 0002 0446     		mov	r4, r0
 2373 0004 0E46     		mov	r6, r1
 2374 0006 00F5A267 		add	r7, r0, #1296
 2375 000a 0423     		movs	r3, #4
 2376 000c 4BF2F052 		movw	r2, #46576
 2377 0010 3946     		mov	r1, r7
 2378 0012 FFF7FEFF 		bl	vl53l8cx_dci_read_data
 2379 0016 0546     		mov	r5, r0
 2380 0018 94F81335 		ldrb	r3, [r4, #1299]	@ zero_extendqisi2
 2381 001c 6EB9     		cbnz	r6, .L178
 2382 001e 23F00203 		bic	r3, r3, #2
 2383              	.L179:
 2384 0022 84F81335 		strb	r3, [r4, #1299]
 2385 0026 0423     		movs	r3, #4
 2386 0028 4BF2F052 		movw	r2, #46576
ARM GAS  C:\Temp\ccVQrAGa.s 			page 42


 2387 002c 3946     		mov	r1, r7
 2388 002e 2046     		mov	r0, r4
 2389 0030 FFF7FEFF 		bl	vl53l8cx_dci_write_data
 2390 0034 2843     		orrs	r0, r0, r5
 2391 0036 C0B2     		uxtb	r0, r0
 2392 0038 F8BD     		pop	{r3, r4, r5, r6, r7, pc}
 2393              	.L178:
 2394 003a 43F00203 		orr	r3, r3, #2
 2395 003e F0E7     		b	.L179
 2397              		.section	.text.vl53l8cx_dci_replace_data,"ax",%progbits
 2398              		.align	1
 2399              		.global	vl53l8cx_dci_replace_data
 2400              		.syntax unified
 2401              		.thumb
 2402              		.thumb_func
 2404              	vl53l8cx_dci_replace_data:
 2405              		@ args = 12, pretend = 0, frame = 0
 2406              		@ frame_needed = 0, uses_anonymous_args = 0
 2407 0000 2DE9F041 		push	{r4, r5, r6, r7, r8, lr}
 2408 0004 0646     		mov	r6, r0
 2409 0006 0D46     		mov	r5, r1
 2410 0008 1746     		mov	r7, r2
 2411 000a 9846     		mov	r8, r3
 2412 000c FFF7FEFF 		bl	vl53l8cx_dci_read_data
 2413 0010 0446     		mov	r4, r0
 2414 0012 BDF81C20 		ldrh	r2, [sp, #28]
 2415 0016 0699     		ldr	r1, [sp, #24]
 2416 0018 BDF82000 		ldrh	r0, [sp, #32]
 2417 001c 2844     		add	r0, r0, r5
 2418 001e FFF7FEFF 		bl	memcpy
 2419 0022 4346     		mov	r3, r8
 2420 0024 3A46     		mov	r2, r7
 2421 0026 2946     		mov	r1, r5
 2422 0028 3046     		mov	r0, r6
 2423 002a FFF7FEFF 		bl	vl53l8cx_dci_write_data
 2424 002e 2043     		orrs	r0, r0, r4
 2425 0030 C0B2     		uxtb	r0, r0
 2426 0032 BDE8F081 		pop	{r4, r5, r6, r7, r8, pc}
 2428              		.section	.text.vl53l8cx_set_ranging_frequency_hz,"ax",%progbits
 2429              		.align	1
 2430              		.global	vl53l8cx_set_ranging_frequency_hz
 2431              		.syntax unified
 2432              		.thumb
 2433              		.thumb_func
 2435              	vl53l8cx_set_ranging_frequency_hz:
 2436              		@ args = 0, pretend = 0, frame = 8
 2437              		@ frame_needed = 0, uses_anonymous_args = 0
 2438 0000 00B5     		push	{lr}
 2439 0002 87B0     		sub	sp, sp, #28
 2440 0004 8DF81710 		strb	r1, [sp, #23]
 2441 0008 0123     		movs	r3, #1
 2442 000a 0293     		str	r3, [sp, #8]
 2443 000c 0193     		str	r3, [sp, #4]
 2444 000e 0DF11703 		add	r3, sp, #23
 2445 0012 0093     		str	r3, [sp]
 2446 0014 0423     		movs	r3, #4
 2447 0016 45F25842 		movw	r2, #21592
ARM GAS  C:\Temp\ccVQrAGa.s 			page 43


 2448 001a 00F5A261 		add	r1, r0, #1296
 2449 001e FFF7FEFF 		bl	vl53l8cx_dci_replace_data
 2450 0022 07B0     		add	sp, sp, #28
 2451              		@ sp needed
 2452 0024 5DF804FB 		ldr	pc, [sp], #4
 2454              		.section	.text.vl53l8cx_set_integration_time_ms,"ax",%progbits
 2455              		.align	1
 2456              		.global	vl53l8cx_set_integration_time_ms
 2457              		.syntax unified
 2458              		.thumb
 2459              		.thumb_func
 2461              	vl53l8cx_set_integration_time_ms:
 2462              		@ args = 0, pretend = 0, frame = 8
 2463              		@ frame_needed = 0, uses_anonymous_args = 0
 2464 0000 00B5     		push	{lr}
 2465 0002 87B0     		sub	sp, sp, #28
 2466 0004 0591     		str	r1, [sp, #20]
 2467 0006 8A1E     		subs	r2, r1, #2
 2468 0008 40F2E633 		movw	r3, #998
 2469 000c 9A42     		cmp	r2, r3
 2470 000e 03D9     		bls	.L189
 2471 0010 7F20     		movs	r0, #127
 2472              	.L186:
 2473 0012 07B0     		add	sp, sp, #28
 2474              		@ sp needed
 2475 0014 5DF804FB 		ldr	pc, [sp], #4
 2476              	.L189:
 2477 0018 4FF47A73 		mov	r3, #1000
 2478 001c 03FB01F1 		mul	r1, r3, r1
 2479 0020 0591     		str	r1, [sp, #20]
 2480 0022 0023     		movs	r3, #0
 2481 0024 0293     		str	r3, [sp, #8]
 2482 0026 0423     		movs	r3, #4
 2483 0028 0193     		str	r3, [sp, #4]
 2484 002a 05AB     		add	r3, sp, #20
 2485 002c 0093     		str	r3, [sp]
 2486 002e 1423     		movs	r3, #20
 2487 0030 45F25C42 		movw	r2, #21596
 2488 0034 00F5A261 		add	r1, r0, #1296
 2489 0038 FFF7FEFF 		bl	vl53l8cx_dci_replace_data
 2490 003c E9E7     		b	.L186
 2492              		.section	.text.vl53l8cx_set_sharpener_percent,"ax",%progbits
 2493              		.align	1
 2494              		.global	vl53l8cx_set_sharpener_percent
 2495              		.syntax unified
 2496              		.thumb
 2497              		.thumb_func
 2499              	vl53l8cx_set_sharpener_percent:
 2500              		@ args = 0, pretend = 0, frame = 8
 2501              		@ frame_needed = 0, uses_anonymous_args = 0
 2502 0000 6329     		cmp	r1, #99
 2503 0002 01D9     		bls	.L197
 2504 0004 7F20     		movs	r0, #127
 2505 0006 7047     		bx	lr
 2506              	.L197:
 2507 0008 00B5     		push	{lr}
 2508 000a 87B0     		sub	sp, sp, #28
ARM GAS  C:\Temp\ccVQrAGa.s 			page 44


 2509 000c C1EB0121 		rsb	r1, r1, r1, lsl #8
 2510 0010 0C4B     		ldr	r3, .L198
 2511 0012 83FB0123 		smull	r2, r3, r3, r1
 2512 0016 C917     		asrs	r1, r1, #31
 2513 0018 C1EB6311 		rsb	r1, r1, r3, asr #5
 2514 001c 8DF81710 		strb	r1, [sp, #23]
 2515 0020 0D23     		movs	r3, #13
 2516 0022 0293     		str	r3, [sp, #8]
 2517 0024 0123     		movs	r3, #1
 2518 0026 0193     		str	r3, [sp, #4]
 2519 0028 0DF11703 		add	r3, sp, #23
 2520 002c 0093     		str	r3, [sp]
 2521 002e 1023     		movs	r3, #16
 2522 0030 4AF6D862 		movw	r2, #44760
 2523 0034 00F5A261 		add	r1, r0, #1296
 2524 0038 FFF7FEFF 		bl	vl53l8cx_dci_replace_data
 2525 003c 07B0     		add	sp, sp, #28
 2526              		@ sp needed
 2527 003e 5DF804FB 		ldr	pc, [sp], #4
 2528              	.L199:
 2529 0042 00BF     		.align	2
 2530              	.L198:
 2531 0044 1F85EB51 		.word	1374389535
 2533              		.section	.text.vl53l8cx_set_target_order,"ax",%progbits
 2534              		.align	1
 2535              		.global	vl53l8cx_set_target_order
 2536              		.syntax unified
 2537              		.thumb
 2538              		.thumb_func
 2540              	vl53l8cx_set_target_order:
 2541              		@ args = 0, pretend = 0, frame = 8
 2542              		@ frame_needed = 0, uses_anonymous_args = 0
 2543 0000 00B5     		push	{lr}
 2544 0002 87B0     		sub	sp, sp, #28
 2545 0004 8DF81710 		strb	r1, [sp, #23]
 2546 0008 CBB2     		uxtb	r3, r1
 2547 000a 013B     		subs	r3, r3, #1
 2548 000c DBB2     		uxtb	r3, r3
 2549 000e 012B     		cmp	r3, #1
 2550 0010 03D9     		bls	.L204
 2551 0012 7F20     		movs	r0, #127
 2552              	.L201:
 2553 0014 07B0     		add	sp, sp, #28
 2554              		@ sp needed
 2555 0016 5DF804FB 		ldr	pc, [sp], #4
 2556              	.L204:
 2557 001a 0023     		movs	r3, #0
 2558 001c 0293     		str	r3, [sp, #8]
 2559 001e 0123     		movs	r3, #1
 2560 0020 0193     		str	r3, [sp, #4]
 2561 0022 0DF11703 		add	r3, sp, #23
 2562 0026 0093     		str	r3, [sp]
 2563 0028 0423     		movs	r3, #4
 2564 002a 4AF66462 		movw	r2, #44644
 2565 002e 00F5A261 		add	r1, r0, #1296
 2566 0032 FFF7FEFF 		bl	vl53l8cx_dci_replace_data
 2567 0036 EDE7     		b	.L201
ARM GAS  C:\Temp\ccVQrAGa.s 			page 45


 2569              		.section	.text.vl53l8cx_set_VHV_repeat_count,"ax",%progbits
 2570              		.align	1
 2571              		.global	vl53l8cx_set_VHV_repeat_count
 2572              		.syntax unified
 2573              		.thumb
 2574              		.thumb_func
 2576              	vl53l8cx_set_VHV_repeat_count:
 2577              		@ args = 0, pretend = 0, frame = 8
 2578              		@ frame_needed = 0, uses_anonymous_args = 0
 2579 0000 00B5     		push	{lr}
 2580 0002 87B0     		sub	sp, sp, #28
 2581 0004 0591     		str	r1, [sp, #20]
 2582 0006 0423     		movs	r3, #4
 2583 0008 0293     		str	r3, [sp, #8]
 2584 000a 0193     		str	r3, [sp, #4]
 2585 000c 05AB     		add	r3, sp, #20
 2586 000e 0093     		str	r3, [sp]
 2587 0010 1023     		movs	r3, #16
 2588 0012 4AF66052 		movw	r2, #44384
 2589 0016 00F5A261 		add	r1, r0, #1296
 2590 001a FFF7FEFF 		bl	vl53l8cx_dci_replace_data
 2591 001e 07B0     		add	sp, sp, #28
 2592              		@ sp needed
 2593 0020 5DF804FB 		ldr	pc, [sp], #4
 2595              		.global	VL53L8CX_GET_NVM_CMD
 2596              		.section	.rodata.VL53L8CX_GET_NVM_CMD,"a"
 2597              		.align	2
 2600              	VL53L8CX_GET_NVM_CMD:
 2601 0000 54000040 		.ascii	"T\000\000@\236\024\000\300\236 \001@\2364\000@\2368"
 2601      9E1400C0 
 2601      9E200140 
 2601      9E340040 
 2601      9E38
 2602 0012 04049F38 		.ascii	"\004\004\2378\004\002\237\270\001\000\237\310\001\000"
 2602      04029FB8 
 2602      01009FC8 
 2602      0100
 2603 0020 0000000F 		.ascii	"\000\000\000\017\002\002\000$"
 2603      02020024 
 2604              		.global	VL53L8CX_DEFAULT_XTALK
 2605              		.section	.rodata.VL53L8CX_DEFAULT_XTALK,"a"
 2606              		.align	2
 2609              	VL53L8CX_DEFAULT_XTALK:
 2610 0000 9FD800C0 		.ascii	"\237\330\000\300\003 \011`\013\010\010\027\010\010\010"
 2610      03200960 
 2610      0B080817 
 2610      080808
 2611 000f 039FE401 		.ascii	"\003\237\344\001@\000\000\000\000\000\000\000\000\000"
 2611      40000000 
 2611      00000000 
 2611      0000
 2612 001d 00000001 		.ascii	"\000\000\000\001\340\000 \000\000\000 \237\370\000@"
 2612      E0002000 
 2612      0000209F 
 2612      F80040
 2613 002c 17171717 		.ascii	"\027\027\027\027\237\374\004\004\000\000F\244\000\000"
 2613      9FFC0404 
ARM GAS  C:\Temp\ccVQrAGa.s 			page 46


 2613      000046A4 
 2613      0000
 2614 003a 37660000 		.ascii	"7f\000\000&`\000\000\034\274\000\000\027s\000\000\021"
 2614      26600000 
 2614      1CBC0000 
 2614      17730000 
 2614      11
 2615 004b 25000011 		.ascii	"%\000\000\021\007\000\000\016c\000\000\213L\000\000"
 2615      0700000E 
 2615      6300008B 
 2615      4C0000
 2616 005a 60A20000 		.ascii	"`\242\000\000=\300\000\000&\252\000\000\033\302\000"
 2616      3DC00000 
 2616      26AA0000 
 2616      1BC200
 2617 0069 00180400 		.ascii	"\000\030\004\000\000\024\227\000\000\020\355\000\001"
 2617      00149700 
 2617      0010ED00 
 2617      01
 2618 0076 281B0000 		.ascii	"(\033\000\000\223\360\000\000Wa\000\0000+\000\000 \252"
 2618      93F00000 
 2618      57610000 
 2618      302B0000 
 2618      20AA
 2619 0088 00001AB6 		.ascii	"\000\000\032\266\000\000\025\303\000\000\026\016\000"
 2619      000015C3 
 2619      0000160E 
 2619      00
 2620 0095 017FBB00 		.ascii	"\001\177\273\000\000\255X\000\000q\257\000\0006\331"
 2620      00AD5800 
 2620      0071AF00 
 2620      0036D9
 2621 00a4 000022FB 		.ascii	"\000\000\"\373\000\000\034\226\000\000\030\203\000\000"
 2621      00001C96 
 2621      00001883 
 2621      0000
 2622 00b2 17960001 		.ascii	"\027\226\000\001\220\000\000\000\227\326\000\000f;\000"
 2622      90000000 
 2622      97D60000 
 2622      663B00
 2623 00c1 00330A00 		.ascii	"\0003\012\000\000 \315\000\000\0318\000\000\026\245"
 2623      0020CD00 
 2623      00193800 
 2623      0016A5
 2624 00d0 000014BB 		.ascii	"\000\000\024\273\000\000\257\317\000\000e}\000\000="
 2624      0000AFCF 
 2624      0000657D 
 2624      00003D
 2625 00df 93000029 		.ascii	"\223\000\000)\321\000\000\031N\000\000\025\272\000\000"
 2625      D1000019 
 2625      4E000015 
 2625      BA0000
 2626 00ee 11C60000 		.ascii	"\021\306\000\000\022\177\000\000s\035\000\000B,\000"
 2626      127F0000 
 2626      731D0000 
 2626      422C00
 2627 00fd 002E8200 		.ascii	"\000.\202\000\000\036\200\000\000\030\034\000\000\023"
ARM GAS  C:\Temp\ccVQrAGa.s 			page 47


 2627      001E8000 
 2627      00181C00 
 2627      0013
 2628 010b 2D00000F 		.ascii	"-\000\000\017\306\000\000\017\205\000\000O\004\000\000"
 2628      C600000F 
 2628      8500004F 
 2628      040000
 2629 011a 33E90000 		.ascii	"3\351\000\000\037\006\000\000\030@\000\000\023,\000"
 2629      1F060000 
 2629      18400000 
 2629      132C00
 2630 0129 00129700 		.ascii	"\000\022\227\000\000\016\001\000\000\015\254\240\374"
 2630      000E0100 
 2630      000DACA0 
 2630      FC
 2631 0136 01000000 		.ascii	"\001\000\000\000\000\000\000\000\000\003\000\000\000"
 2631      00000000 
 2631      00030000 
 2631      00
 2632 0143 00000000 		.ascii	"\000\000\000\000\000\241\014\001\000\000\000\000\200"
 2632      00A10C01 
 2632      00000000 
 2632      80
 2633 0150 00000003 		.ascii	"\000\000\000\003\000\000\000\000\000\000\000\000\241"
 2633      00000000 
 2633      00000000 
 2633      A1
 2634 015d 1C00C000 		.ascii	"\034\000\300\000\000p\353\014\200\001\340\000\000\000"
 2634      0070EB0C 
 2634      8001E000 
 2634      0000
 2635 016b 26A12809 		.ascii	"&\241(\011\002\000\000\000\000\000\000\000\000\000\000"
 2635      02000000 
 2635      00000000 
 2635      000000
 2636 017a 00000001 		.ascii	"\000\000\000\001\000\000\0006\000\003\001\331\001C\002"
 2636      00000036 
 2636      000301D9 
 2636      014302
 2637 0189 33021702 		.ascii	"3\002\027\002K\002A\001\027\002\"\000'\000]\000\005"
 2637      4B024101 
 2637      17022200 
 2637      27005D00 
 2637      05
 2638 019a 00110000 		.ascii	"\000\021\000\000\000\001\000\000\000\000\000\000\000"
 2638      00010000 
 2638      00000000 
 2638      00
 2639 01a7 00000000 		.ascii	"\000\000\000\000\000\000\000\000\000\000\000\000\000"
 2639      00000000 
 2639      00000000 
 2639      00
 2640 01b4 00000000 		.ascii	"\000\000\000\000\000\000\000\000\000\000\000\000\000"
 2640      00000000 
 2640      00000000 
 2640      00
 2641 01c1 00000000 		.ascii	"\000\000\000\000\000\000\000\000\000\000\000\000\000"
ARM GAS  C:\Temp\ccVQrAGa.s 			page 48


 2641      00000000 
 2641      00000000 
 2641      00
 2642 01ce 00000000 		.ascii	"\000\000\000\000\000\000\000\000\000\000\000\000\000"
 2642      00000000 
 2642      00000000 
 2642      00
 2643 01db 00000000 		.ascii	"\000\000\000\000\000\000\000\000\000\000\000\000\000"
 2643      00000000 
 2643      00000000 
 2643      00
 2644 01e8 00000000 		.ascii	"\000\000\000\000\000\000\000\000\000\000\000\000\000"
 2644      00000000 
 2644      00000000 
 2644      00
 2645 01f5 00000000 		.ascii	"\000\000\000\000\000\000\000\000\000\000\000\000\000"
 2645      00000000 
 2645      00000000 
 2645      00
 2646 0202 00000000 		.ascii	"\000\000\000\000\000\000\000\000\000\000\000\000\000"
 2646      00000000 
 2646      00000000 
 2646      00
 2647 020f 00000000 		.ascii	"\000\000\000\000\000\000\000\000\000\000\000\000\000"
 2647      00000000 
 2647      00000000 
 2647      00
 2648 021c 00000000 		.ascii	"\000\000\000\000\000\000\000\000\000\000\000\000\000"
 2648      00000000 
 2648      00000000 
 2648      00
 2649 0229 00000000 		.ascii	"\000\000\000\000\000\000\000\000\000\000\000\000\000"
 2649      00000000 
 2649      00000000 
 2649      00
 2650 0236 00000000 		.ascii	"\000\000\000\000\000\000\000\000\000\000\000\000\000"
 2650      00000000 
 2650      00000000 
 2650      00
 2651 0243 00000000 		.ascii	"\000\000\000\000\000\000\000\000\000\000\000\000\000"
 2651      00000000 
 2651      00000000 
 2651      00
 2652 0250 00000000 		.ascii	"\000\000\000\000\000\000\000\000\000\000\000\000\000"
 2652      00000000 
 2652      00000000 
 2652      00
 2653 025d 00000000 		.ascii	"\000\000\000\000\000\000\000\000\000\000\000\000\000"
 2653      00000000 
 2653      00000000 
 2653      00
 2654 026a 00000000 		.ascii	"\000\000\000\000\000\000\000\000\000\000\000\000\000"
 2654      00000000 
 2654      00000000 
 2654      00
 2655 0277 00000000 		.ascii	"\000\000\000\000\000\000\000\000\000\000\000\000\000"
 2655      00000000 
ARM GAS  C:\Temp\ccVQrAGa.s 			page 49


 2655      00000000 
 2655      00
 2656 0284 00000000 		.ascii	"\000\000\000\000\000\000\000\000\000\000\000\000\242"
 2656      00000000 
 2656      00000000 
 2656      A2
 2657 0291 48004000 		.ascii	"H\000@\000\000\000\000\242L\000\201\000\000\000\000"
 2657      000000A2 
 2657      4C008100 
 2657      000000
 2658 02a0 00000000 		.ascii	"\000\000\000\000\242T\000\201\000\000\000\000\000\000"
 2658      A2540081 
 2658      00000000 
 2658      0000
 2659 02ae 0000A25C 		.ascii	"\000\000\242\\\000\201\000\000\000\000\000\000\000\000"
 2659      00810000 
 2659      00000000 
 2659      0000
 2660 02bc A2640081 		.ascii	"\242d\000\201\000\000\000\000\000\000\000\000\242l\000"
 2660      00000000 
 2660      00000000 
 2660      A26C00
 2661 02cb 84000000 		.ascii	"\204\000\000\000\000\000\000\000\000\000\000\000\000"
 2661      00000000 
 2661      00000000 
 2661      00
 2662 02d8 00000000 		.ascii	"\000\000\000\000\000\000\000\000\000\000\000\000\000"
 2662      00000000 
 2662      00000000 
 2662      00
 2663 02e5 00000000 		.ascii	"\000\000\000\000\000\000\000\242\214\000\202\000\000"
 2663      000000A2 
 2663      8C008200 
 2663      00
 2664 02f2 00000000 		.ascii	"\000\000\000\000\000\000\000\000\000\000\000\000\000"
 2664      00000000 
 2664      00000000 
 2664      00
 2665 02ff 00000000 		.ascii	"\000\000\000\000\017\005\001\003\004"
 2665      0F050103 
 2665      04
 2666              		.global	VL53L8CX_DEFAULT_CONFIGURATION
 2667              		.section	.rodata.VL53L8CX_DEFAULT_CONFIGURATION,"a"
 2668              		.align	2
 2671              	VL53L8CX_DEFAULT_CONFIGURATION:
 2672 0000 54500080 		.ascii	"TP\000\200\000\004\004\004\000\000\010\010\2550\000"
 2672      00040404 
 2672      00000808 
 2672      AD3000
 2673 000f 80020103 		.ascii	"\200\002\001\003\003\000\000\003\000\2558\001\000\001"
 2673      03000003 
 2673      00AD3801 
 2673      0001
 2674 001d E0014000 		.ascii	"\340\001@\000@\000@\001\000\004\000\000\000\000\001"
 2674      40004001 
 2674      00040000 
 2674      000001
ARM GAS  C:\Temp\ccVQrAGa.s 			page 50


 2675 002c 54580040 		.ascii	"TX\000@\004\032\001\000T\\\001@\000\000'\020\000\000"
 2675      041A0100 
 2675      545C0140 
 2675      00002710 
 2675      0000
 2676 003e 0FA00FA0 		.ascii	"\017\240\017\240\003\350\002\200\037@\000\000\005\000"
 2676      03E80280 
 2676      1F400000 
 2676      0500
 2677 004c 54700080 		.ascii	"Tp\000\200\003 \003 \000\000\000\010Tx\001\000\001\023"
 2677      03200320 
 2677      00000008 
 2677      54780100 
 2677      0113
 2678 005e 00290033 		.ascii	"\000)\0003\000\000\002\000\000\001\004\001\010\002T"
 2678      00000200 
 2678      00010401 
 2678      080254
 2679 006d 88014000 		.ascii	"\210\001@\000\000\000\000\000\000\000\000\000\000\000"
 2679      00000000 
 2679      00000000 
 2679      0000
 2680 007b 00000000 		.ascii	"\000\000\000\000\000\000\000\014\000\255H\001\000\001"
 2680      0000000C 
 2680      00AD4801 
 2680      0001
 2681 0089 F4000003 		.ascii	"\364\000\000\003\006\000\020\010\007\010\007\000\000"
 2681      06001008 
 2681      07080700 
 2681      00
 2682 0096 0008AD60 		.ascii	"\000\010\255`\001\000\000\000\000\200\000\000\000\000"
 2682      01000000 
 2682      00800000 
 2682      0000
 2683 00a4 201F01F4 		.ascii	" \037\001\364\000\000\035\012\255p\000\200\010\000\037"
 2683      00001D0A 
 2683      AD700080 
 2683      08001F
 2684 00b3 40000000 		.ascii	"@\000\000\000\001\255x\000\200\000\240\003 \000\001"
 2684      01AD7800 
 2684      8000A003 
 2684      200001
 2685 00c2 0190AD80 		.ascii	"\001\220\255\200\000@\000\000(\000\255\204\000\200\000"
 2685      00400000 
 2685      2800AD84 
 2685      008000
 2686 00d1 00320003 		.ascii	"\0002\000\003 \000\000\255\214\000\200\002X\3778\000"
 2686      200000AD 
 2686      8C008002 
 2686      58FF3800 
 2687 00e1 00000CAD 		.ascii	"\000\000\014\255\224\001\000\000\001\220\000\377\377"
 2687      94010000 
 2687      019000FF 
 2687      FF
 2688 00ee FC000000 		.ascii	"\374\000\000\000\004\000\000\000\001\001\255\244\000"
 2688      04000000 
 2688      0101ADA4 
ARM GAS  C:\Temp\ccVQrAGa.s 			page 51


 2688      00
 2689 00fb C0048006 		.ascii	"\300\004\200\006\032\000@\005\200\000\000\001\006\255"
 2689      1A004005 
 2689      80000001 
 2689      06AD
 2690 0109 B000C004 		.ascii	"\260\000\300\004\200\006\032\031\000\005\200\000\000"
 2690      80061A19 
 2690      00058000 
 2690      00
 2691 0116 0190ADBC 		.ascii	"\001\220\255\274\004@\000\000\000\000\000\000\000\000"
 2691      04400000 
 2691      00000000 
 2691      0000
 2692 0124 00120025 		.ascii	"\000\022\000%\000\000\000\006\000\000\000\005\000\000"
 2692      00000006 
 2692      00000005 
 2692      0000
 2693 0132 00050000 		.ascii	"\000\005\000\000\000\006\000\000\000\004\000\000\000"
 2693      00060000 
 2693      00040000 
 2693      00
 2694 013f 0F000000 		.ascii	"\017\000\000\000Z\000\000\000\000\000\000\000\011\013"
 2694      5A000000 
 2694      00000000 
 2694      090B
 2695 014d 0C0B0B03 		.ascii	"\014\013\013\003\003\021\005\001\001\001\001\000\000"
 2695      03110501 
 2695      01010100 
 2695      00
 2696 015a 0000000D 		.ascii	"\000\000\000\015\000\000\256\000\001\004\000\000\000"
 2696      0000AE00 
 2696      01040000 
 2696      00
 2697 0167 04000000 		.ascii	"\004\000\000\000\010\000\000\000\012\000\000\000\014"
 2697      08000000 
 2697      0A000000 
 2697      0C
 2698 0174 0000000D 		.ascii	"\000\000\000\015\000\000\000\016\000\000\000\010\000"
 2698      0000000E 
 2698      00000008 
 2698      00
 2699 0181 00000800 		.ascii	"\000\000\010\000\000\000\020\000\000\000\020\000\000"
 2699      00001000 
 2699      00001000 
 2699      00
 2700 018e 00200000 		.ascii	"\000 \000\000\000 \000\000\000\006\000\000\005\012\002"
 2700      00200000 
 2700      00060000 
 2700      050A02
 2701 019d 000C0800 		.ascii	"\000\014\010\000\000\000\000\256@\000@\000\000\001\377"
 2701      000000AE 
 2701      40004000 
 2701      0001FF
 2702 01ac AE440040 		.ascii	"\256D\000@\000\020\004\001\256H\000@\000\000\020\000"
 2702      00100401 
 2702      AE480040 
 2702      00001000 
ARM GAS  C:\Temp\ccVQrAGa.s 			page 52


 2703 01bc AE4C0040 		.ascii	"\256L\000@\000\000\000\001\256P\001@\000\000\000\024"
 2703      00000001 
 2703      AE500140 
 2703      00000014 
 2704 01cc 04002800 		.ascii	"\004\000(\000\003 l\000\000\000\000\000\000\000%\200"
 2704      03206C00 
 2704      00000000 
 2704      00002580 
 2705 01dc AE640040 		.ascii	"\256d\000@\000\000\000\002\256\330\001\000\000\310\005"
 2705      00000002 
 2705      AED80100 
 2705      00C805
 2706 01eb DC000007 		.ascii	"\334\000\000\007\256\001\004\000\000\000\000\003\001"
 2706      AE010400 
 2706      00000003 
 2706      01
 2707 01f8 B5500282 		.ascii	"\265P\002\202\000\000\000\000\000\000\000\000\000\000"
 2707      00000000 
 2707      00000000 
 2707      0000
 2708 0206 00000000 		.ascii	"\000\000\000\000\000\000\000\000\000\000\000\000\000"
 2708      00000000 
 2708      00000000 
 2708      00
 2709 0213 00000000 		.ascii	"\000\000\000\000\000\000\000\000\000\000\000\000\000"
 2709      00000000 
 2709      00000000 
 2709      00
 2710 0220 00000000 		.ascii	"\000\000\000\000\000\000\000\000\000\000\000\000\000"
 2710      00000000 
 2710      00000000 
 2710      00
 2711 022d 00000000 		.ascii	"\000\000\000\000\000\000\000\000\000\000\000\000\000"
 2711      00000000 
 2711      00000000 
 2711      00
 2712 023a 00000000 		.ascii	"\000\000\000\000\000\000\000\000\000\000\000\000\000"
 2712      00000000 
 2712      00000000 
 2712      00
 2713 0247 00000000 		.ascii	"\000\000\000\000\000\265\240\002\202\000\000\000\000"
 2713      00B5A002 
 2713      82000000 
 2713      00
 2714 0254 00000000 		.ascii	"\000\000\000\000\000\000\000\000\000\000\000\000\000"
 2714      00000000 
 2714      00000000 
 2714      00
 2715 0261 00000000 		.ascii	"\000\000\000\000\000\000\000\000\000\000\000\000\000"
 2715      00000000 
 2715      00000000 
 2715      00
 2716 026e 00000000 		.ascii	"\000\000\000\000\000\000\000\000\000\000\000\000\000"
 2716      00000000 
 2716      00000000 
 2716      00
 2717 027b 00000000 		.ascii	"\000\000\000\000\000\000\000\000\000\000\000\000\000"
ARM GAS  C:\Temp\ccVQrAGa.s 			page 53


 2717      00000000 
 2717      00000000 
 2717      00
 2718 0288 00000000 		.ascii	"\000\000\000\000\000\000\000\000\000\000\000\000\000"
 2718      00000000 
 2718      00000000 
 2718      00
 2719 0295 00000000 		.ascii	"\000\000\000\000\000\000\000\000\000\000\000\265\360"
 2719      00000000 
 2719      000000B5 
 2719      F0
 2720 02a2 004000FF 		.ascii	"\000@\000\377\000\000\263\234\001\0004\233\0045\002"
 2720      0000B39C 
 2720      0100349B 
 2720      043502
 2721 02b1 1B087C80 		.ascii	"\033\010|\200\000\022\001\000\001\010\000\266\300\000"
 2721      00120100 
 2721      010800B6 
 2721      C000
 2722 02bf C0000060 		.ascii	"\300\000\000`\000\000\000 \000\000\000\000\000\256\250"
 2722      00000020 
 2722      00000000 
 2722      00AEA8
 2723 02ce 00400000 		.ascii	"\000@\000\000\004\005\256\254\000\200\001\000\001\000"
 2723      0405AEAC 
 2723      00800100 
 2723      0100
 2724 02dc 00020000 		.ascii	"\000\002\000\000\256\264\000@\000\000\000\000\256\270"
 2724      AEB40040 
 2724      00000000 
 2724      AEB8
 2725 02ea 00810000 		.ascii	"\000\201\000\000\000\000\000\000\000\000\256\300\000"
 2725      00000000 
 2725      0000AEC0 
 2725      00
 2726 02f7 81000000 		.ascii	"\201\000\000\000\000\000\000\000\000\256\310\000\201"
 2726      00000000 
 2726      00AEC800 
 2726      81
 2727 0304 08010108 		.ascii	"\010\001\001\010\000\000\000\010\256\320\000\201\001"
 2727      00000008 
 2727      AED00081 
 2727      01
 2728 0311 08080800 		.ascii	"\010\010\010\000\000\000\001\265\364\000\200\000\000"
 2728      000001B5 
 2728      F4008000 
 2728      00
 2729 031e 00000000 		.ascii	"\000\000\000\000\000\000\265\374\000\200\000\000\000"
 2729      0000B5FC 
 2729      00800000 
 2729      00
 2730 032b 00000000 		.ascii	"\000\000\000\000\000\266\004\000@\000\000\000\000\266"
 2730      00B60400 
 2730      40000000 
 2730      00B6
 2731 0339 08004400 		.ascii	"\010\000D\000\000\000\000\000\000\000\000\000\000\000"
 2731      00000000 
ARM GAS  C:\Temp\ccVQrAGa.s 			page 54


 2731      00000000 
 2731      0000
 2732 0347 00000000 		.ascii	"\000\000\000\000\000\266\030\000D\000\000\000\000\000"
 2732      00B61800 
 2732      44000000 
 2732      0000
 2733 0355 00000000 		.ascii	"\000\000\000\000\000\000\000\000\000\000\000\266(\000"
 2733      00000000 
 2733      000000B6 
 2733      2800
 2734 0363 44000000 		.ascii	"D\000\000\000\000\000\000\000\000\000\000\000\000\000"
 2734      00000000 
 2734      00000000 
 2734      0000
 2735 0371 000000B6 		.ascii	"\000\000\000\2668\000D\000\000\000\000\000\000\000\000"
 2735      38004400 
 2735      00000000 
 2735      000000
 2736 0380 00000000 		.ascii	"\000\000\000\000\000\000\000\000\266H\001\000\000\000"
 2736      00000000 
 2736      B6480100 
 2736      0000
 2737 038e 00000000 		.ascii	"\000\000\000\000\000\000\000\000\000\000\000\000\000"
 2737      00000000 
 2737      00000000 
 2737      00
 2738 039b 00B65801 		.ascii	"\000\266X\001\000\000\000\000\000\000\000\000\000\000"
 2738      00000000 
 2738      00000000 
 2738      0000
 2739 03a9 00000000 		.ascii	"\000\000\000\000\000\000\000\266h\001\000\000\000\000"
 2739      000000B6 
 2739      68010000 
 2739      0000
 2740 03b7 00000000 		.ascii	"\000\000\000\000\000\000\000\000\000\000\000\000\000"
 2740      00000000 
 2740      00000000 
 2740      00
 2741 03c4 0000000F 		.ascii	"\000\000\000\017\000\001\003\310"
 2741      000103C8 
 2742              		.global	VL53L8CX_FIRMWARE
 2743              		.section	.rodata.VL53L8CX_FIRMWARE,"a"
 2744              		.align	2
 2747              	VL53L8CX_FIRMWARE:
 2748 0000 E0000308 		.ascii	"\340\000\003\010\340\000\012\310\340\000\005\010\340"
 2748      E0000AC8 
 2748      E0000508 
 2748      E0
 2749 000d 640848E0 		.ascii	"d\010H\340\000\012\210\340\000\012\210\340\000\012\210"
 2749      000A88E0 
 2749      000A88E0 
 2749      000A88
 2750 001c E0000A88 		.ascii	"\340\000\012\210\340d.(\340d1\350\340d5H\340d;\210\340"
 2750      E0642E28 
 2750      E06431E8 
 2750      E0643548 
 2750      E0643B88 
ARM GAS  C:\Temp\ccVQrAGa.s 			page 55


 2751 0031 680468E0 		.ascii	"h\004h\340h\027h\340h\033H\340h\036\310\340h%(\340h"
 2751      681768E0 
 2751      681B48E0 
 2751      681EC8E0 
 2751      682528E0 
 2752 0046 2848E000 		.ascii	"(H\340\000\011\350\340\000\011\310\340\000\011\250\340"
 2752      09E8E000 
 2752      09C8E000 
 2752      09A8E0
 2753 0055 000988E0 		.ascii	"\000\011\210\340\000\011h\340\000\011H\370\002\000\006"
 2753      000968E0 
 2753      000948F8 
 2753      020006
 2754 0064 C1C38101 		.ascii	"\301\303\201\001\036\006\241\013\032\006\201\000\231"
 2754      1E06A10B 
 2754      1A068100 
 2754      99
 2755 0071 23E10097 		.ascii	"#\341\000\227\263\227\343\006,\227s\0064\342\300\006"
 2755      B397E306 
 2755      2C977306 
 2755      34E2C006 
 2756 0081 2CFC80C1 		.ascii	",\374\200\301\203\343@\342\300\006\034\374\230\0064"
 2756      83E340E2 
 2756      C0061CFC 
 2756      980634
 2757 0090 FC9C0634 		.ascii	"\374\234\0064\343@\006\034i8\301\203\301C\350\000\301"
 2757      E340061C 
 2757      6938C183 
 2757      C143E800 
 2757      C1
 2758 00a1 C38105E1 		.ascii	"\303\201\005\341\000\000\014\372\004^e\354\020\014\360"
 2758      00000CFA 
 2758      045E65EC 
 2758      100CF0
 2759 00b0 F41C5E60 		.ascii	"\364\034^`\274n\210a\377\204\007\374\232\024\330\004"
 2759      BC6E8861 
 2759      FF8407FC 
 2759      9A14D804 
 2760 00c0 E4300460 		.ascii	"\3440\004`\374\022L\006\340\320LJ\301\303\202\025\301"
 2760      FC124C06 
 2760      E0D04C4A 
 2760      C1C38215 
 2760      C1
 2761 00d1 C3C1C3F8 		.ascii	"\303\301\303\370\004\027\014\201\223\201\203\342\300"
 2761      04170C81 
 2761      938183E2 
 2761      C0
 2762 00de 0C2C1C8C 		.ascii	"\014,\034\214\321g\343k\344\004\345k\216\005\200d\003"
 2762      D167E36B 
 2762      E404E56B 
 2762      8E058064 
 2762      03
 2763 00ef 8804D8E7 		.ascii	"\210\004\330\347k\351k\200d\353k\212\305\200d\006\010"
 2763      6BE96B80 
 2763      64EB6B8A 
 2763      C5806406 
 2763      08
ARM GAS  C:\Temp\ccVQrAGa.s 			page 56


 2764 0100 0A58ED6B 		.ascii	"\012X\355k\361k\200d\200d\007(\010x\363k\365k\200d\367"
 2764      F16B8064 
 2764      80640728 
 2764      0878F36B 
 2764      F56B8064 
 2765 0115 6B8AC5F9 		.ascii	"k\212\305\371k\214\005\373k\214E\014\012\212E\212e\344"
 2765      6B8C05FB 
 2765      6B8C450C 
 2765      0A8A458A 
 2765      65E4
 2766 0127 B4E4B80C 		.ascii	"\264\344\270\014\012\012x\204E@\006\340d@J\374\022\200"
 2766      0A0A7884 
 2766      454006E0 
 2766      64404AFC 
 2766      1280
 2767 0139 D5E0D0C1 		.ascii	"\325\340\320\301\303\301\303\037\014\301\303\017\374"
 2767      C3C1C31F 
 2767      0CC1C30F 
 2767      FC
 2768 0146 F004BCF4 		.ascii	"\360\004\274\364\367\204\301S\375d\340\200\000\014\340"
 2768      F784C153 
 2768      FD64E080 
 2768      000CE0
 2769 0155 80000CE0 		.ascii	"\200\000\014\340\200\000\014\340\200\000\014\340\200"
 2769      80000CE0 
 2769      80000CE0 
 2769      80
 2770 0162 000CE080 		.ascii	"\000\014\340\200\000\014\340\200\000\014\340\200\000"
 2770      000CE080 
 2770      000CE080 
 2770      00
 2771 016f 0CE08000 		.ascii	"\014\340\200\000\014\340\200\000\014\340\200\000\014"
 2771      0CE08000 
 2771      0CE08000 
 2771      0C
 2772 017c E080000C 		.ascii	"\340\200\000\014\301\303\301C\301\303\301S\372\374\004"
 2772      C1C3C143 
 2772      C1C3C153 
 2772      FAFC04
 2773 018b 0C600006 		.ascii	"\014`\000\006\332\012 \241\013\0300d\000\016$\344\000"
 2773      DA0A20A1 
 2773      0B183064 
 2773      000E24E4 
 2773      00
 2774 019c 020A3780 		.ascii	"\002\0127\200\014\006\200\000\0104 \000\012p\267\200"
 2774      0C068000 
 2774      08342000 
 2774      0A70B780 
 2775 01ac 5842A404 		.ascii	"XB\244\004\201a2\230!+\252E\006\012\214\273\014\020"
 2775      81613298 
 2775      212BAA45 
 2775      060A8CBB 
 2775      0C10
 2776 01be 00000400 		.ascii	"\000\000\004\000\344\000\030\032d\000\250%\340\000\010"
 2776      E400181A 
 2776      6400A825 
 2776      E00008
ARM GAS  C:\Temp\ccVQrAGa.s 			page 57


 2777 01cd 04A11D0E 		.ascii	"\004\241\035\016\024W\200\020\006\327\200\004@@\000"
 2777      14578010 
 2777      06D78004 
 2777      404000
 2778 01dc 0854C404 		.ascii	"\010T\304\004Lrv\200\020\304\322\240\024@v\200\016d"
 2778      4C727680 
 2778      10C4D2A0 
 2778      14407680 
 2778      0E64
 2779 01ee A4801224 		.ascii	"\244\200\022$\366\200\241kv\200<\001T\200\214\213@\000"
 2779      F680A16B 
 2779      76803C01 
 2779      54808C8B 
 2779      4000
 2780 0200 04800890 		.ascii	"\004\200\010\220\334\000Hp\204\233(\243\354\004\016"
 2780      DC004870 
 2780      849B28A3 
 2780      EC040E
 2781 020f A09EE5A0 		.ascii	"\240\236\345\240}\226K!{\016\212\206E\016\232\345\000"
 2781      7D964B21 
 2781      7B0E8A86 
 2781      450E9AE5 
 2781      00
 2782 0220 00064480 		.ascii	"\000\006D\200\026\240\200\000\010T,\204\300\000(\234"
 2782      16A08000 
 2782      08542C84 
 2782      C000289C 
 2783 0230 20010E4A 		.ascii	" \001\016J\000T@\000\000\304\250\254\300\000(\235\017"
 2783      00544000 
 2783      00C4A8AC 
 2783      C000289D 
 2783      0F
 2784 0241 9C145440 		.ascii	"\234\024T@\002\210[\200\313\231\250a\204\000\204\341"
 2784      02885B80 
 2784      CB99A861 
 2784      840084E1 
 2785 0251 84089412 		.ascii	"\204\010\224\022\204\001\3132O\340\374\344\004\034p"
 2785      8401CB32 
 2785      4FE0FCE4 
 2785      041C70
 2786 0260 4B0A01A1 		.ascii	"K\012\001\241X\332\204\020\224\273d\000m\204@\032\034"
 2786      58DA8410 
 2786      94BB6400 
 2786      6D84401A 
 2786      1C
 2787 0271 70C61F00 		.ascii	"p\306\037\000\304$\010\016T\240\204\010T!\374@\002\240"
 2787      C424080E 
 2787      54A08408 
 2787      5421FC40 
 2787      02A0
 2788 0283 84A1EB39 		.ascii	"\204\241\3539\234<\000X\000\274\000J@\035Z\010\305\016"
 2788      9C3C0058 
 2788      00BC004A 
 2788      401D5A08 
 2788      C50E
 2789 0295 E0E0040D 		.ascii	"\340\340\004\015\313\354\004\341\374\000\244K\012B\267"
 2789      CBEC04E1 
ARM GAS  C:\Temp\ccVQrAGa.s 			page 58


 2789      FC00A44B 
 2789      0A42B7
 2790 02a4 58FA8408 		.ascii	"X\372\204\010\010\304d\030\020\244\340\374@\012`\204"
 2790      08C46418 
 2790      10A4E0FC 
 2790      400A6084 
 2791 02b4 20BFED8C 		.ascii	" \277\355\214\000T\220\253\024\204a\204(\017\234\200"
 2791      005490AB 
 2791      14846184 
 2791      280F9C80 
 2792 02c4 91944822 		.ascii	"\221\224H\"\023\260JbLP\303\307\200[\034\000'\360N\330"
 2792      13B04A62 
 2792      4C50C3C7 
 2792      805B1C00 
 2792      27F04ED8 
 2793 02d8 9C004440 		.ascii	"\234\000D@\226\013!\035W\200\004\244\327\200\002\264"
 2793      960B211D 
 2793      578004A4 
 2793      D78002B4 
 2794 02e8 40000606 		.ascii	"@\000\006\006\304\004\004 R\214B\022@\020\224kL \\\000"
 2794      C4040420 
 2794      528C4212 
 2794      4010946B 
 2794      4C205C00 
 2795 02fc 801BDC00 		.ascii	"\200\033\334\000\014\014\214\013\335\223\362\374\214"
 2795      0C0C8C0B 
 2795      DD93F2FC 
 2795      8C
 2796 0309 1B7FC580 		.ascii	"\033\177\305\200k\177\245\226{s\345\372<\004\014\201"
 2796      6B7FA596 
 2796      7B73E5FA 
 2796      3C040C81 
 2797 0319 C1210B00 		.ascii	"\301!\013\000\000\002\012\240\205\230kv\200\012\024"
 2797      00020AA0 
 2797      85986B76 
 2797      800A14
 2798 0328 0824A12B 		.ascii	"\010$\241+\006\012v\200\014\004\200\000\230\213v\200"
 2798      060A7680 
 2798      0C048000 
 2798      988B7680 
 2799 0338 061A1EC5 		.ascii	"\006\032\036\305\0304\340\000\241\033v\200\244\200\016"
 2799      1834E000 
 2799      A11B7680 
 2799      A4800E
 2800 0347 403C014E 		.ascii	"@<\001N\300\010`\300\000HP\004\200\250s\334\000\354"
 2800      C00860C0 
 2800      00485004 
 2800      80A873DC 
 2800      00EC
 2801 0359 040A709A 		.ascii	"\004\012p\232\305\240]\220\313![\012\212\206E\012\232"
 2801      C5A05D90 
 2801      CB215B0A 
 2801      8A86450A 
 2801      9A
 2802 036a E5000806 		.ascii	"\345\000\010\006D\200\020p\200\000\012J,\204\300\000"
 2802      44801070 
 2802      80000A4A 
ARM GAS  C:\Temp\ccVQrAGa.s 			page 59


 2802      2C84C000 
 2803 037a 20002895 		.ascii	" \000(\225\0104\014$@\000\010$\217\224\030$(\240\300"
 2803      08340C24 
 2803      40000824 
 2803      8F941824 
 2803      28A0C0
 2804 038d 00289419 		.ascii	"\000(\224\031\230HB\210;\230+a\204\010\024\340\374\014"
 2804      98484288 
 2804      3B982B61 
 2804      840814E0 
 2804      FC0C
 2805 039f 14618418 		.ascii	"\024a\204\030\004,\317\211;\344\020F\332\0040E\012\344"
 2805      042CCF89 
 2805      3BE41046 
 2805      DA043045 
 2805      0AE4
 2806 03b1 0412506D 		.ascii	"\004\022Pm\204@\032\022P\201\301\014$$\010\0104\241"
 2806      84401A12 
 2806      5081C10C 
 2806      24240808 
 2806      34A1
 2807 03c3 FC0A2420 		.ascii	"\374\012$ \204HB\240\204\241\2339\230<\000F@\274\000"
 2807      844842A0 
 2807      84A19B39 
 2807      983C0046 
 2807      40BC00
 2808 03d6 4450135A 		.ascii	"DP\023Z\030k\210\305\340\004\354\004\016\220F\372\003"
 2808      186B88C5 
 2808      E004EC04 
 2808      0E9046FA 
 2808      03
 2809 03e7 3B450AE4 		.ascii	";E\012\344\004\012$\004\000\0204\341\204\302g`\374`"
 2809      040A2404 
 2809      001034E1 
 2809      84C26760 
 2809      FC60
 2810 03f9 841CC4ED 		.ascii	"\204\034\304\355\214@\012a\204\0104\020\304\260_\234"
 2810      8C400A61 
 2810      84083410 
 2810      C4B05F9C 
 2811 0409 CB61FC50 		.ascii	"\313a\374P\0020oD\022\221\210\210;\023\214\034\000B"
 2811      02306F44 
 2811      12918888 
 2811      3B138C1C 
 2811      0042
 2812 041b 2040808A 		.ascii	" @\200\212+\030\344\034\000O\330\234\200\030\013\247"
 2812      2B18E41C 
 2812      004FD89C 
 2812      80180BA7 
 2813 042b EC0C0C8C 		.ascii	"\354\014\014\214\033\335\223\362<\202k\000\313u\365"
 2813      1BDD93F2 
 2813      3C826B00 
 2813      CB75F5
 2814 043a FF95C1C3 		.ascii	"\377\225\301\303\220[\372\374\004\014\200\213!\013\000"
 2814      905BFAFC 
 2814      040C808B 
 2814      210B00
ARM GAS  C:\Temp\ccVQrAGa.s 			page 60


 2815 0449 00020A04 		.ascii	"\000\002\012\004k\202\233\200\345\206{\006\012\241+"
 2815      6B829B80 
 2815      E5867B06 
 2815      0AA12B
 2816 0458 400A8000 		.ascii	"@\012\200\000\200\345\345\234\204\033\201!\014\014\204"
 2816      80E5E59C 
 2816      841B8121 
 2816      0C0C84
 2817 0467 0BDD93F2 		.ascii	"\013\335\223\362\374h\000A\210\000\273\204\033\002\253"
 2817      FC680041 
 2817      8800BB84 
 2817      1B02AB
 2818 0476 900B4118 		.ascii	"\220\013A\030\216\033\000{\350\000@\330\222\013\214"
 2818      8E1B007B 
 2818      E80040D8 
 2818      920B8C
 2819 0485 1B680044 		.ascii	"\033h\000D\262\2011B\242\360\214\206#\362\234B\022}"
 2819      B2813142 
 2819      A2F08C86 
 2819      23F29C42 
 2819      127D
 2820 0497 85C1C3F2 		.ascii	"\205\301\303\362\200\346\206J\016\347\006X\016f\006"
 2820      80E6864A 
 2820      0EE70658 
 2820      0E6606
 2821 04a6 460EE1C0 		.ascii	"F\016\341\300\010Tg\206D\016\340\300\000\304\002\304"
 2821      08546786 
 2821      440EE0C0 
 2821      00C402C4 
 2822 04b6 60578A03 		.ascii	"`W\212\003\341\300\362\220B\022]\223\206\003\362\210"
 2822      E1C0F290 
 2822      42125D93 
 2822      8603F288 
 2823 04c6 4212E500 		.ascii	"B\022\345\000\004\312\301|\002\024\334\000@\020\204"
 2823      04CAC17C 
 2823      0214DC00 
 2823      401084
 2824 04d5 8004CACC 		.ascii	"\200\004\312\314\200\004 \311\010\000\024\301|\002\024"
 2824      800420C9 
 2824      080014C1 
 2824      7C0214
 2825 04e4 8000045A 		.ascii	"\200\000\004Z\255\210\006\024 \001\006\006\000\004\300"
 2825      AD880614 
 2825      20010606 
 2825      0004C0
 2826 04f3 00021489 		.ascii	"\000\002\024\211\210@\002\211\010\335\223\231\214\345"
 2826      88400289 
 2826      08DD9399 
 2826      8CE5
 2827 0501 0004CAC0 		.ascii	"\000\004\312\300\000\002\006\300\000\000\006\204\200"
 2827      000206C0 
 2827      00000684 
 2827      80
 2828 050e 04CACC80 		.ascii	"\004\312\314\200\004 \311\210\000\024\300\000\002\006"
 2828      0420C988 
 2828      0014C000 
 2828      0206
ARM GAS  C:\Temp\ccVQrAGa.s 			page 61


 2829 051c 8000045A 		.ascii	"\200\000\004Z\255\210\006\024 \001\006\006\000\004\300"
 2829      AD880614 
 2829      20010606 
 2829      0004C0
 2830 052b 00021489 		.ascii	"\000\002\024\211\210@\002\211\210\335\223\231\214\201"
 2830      88400289 
 2830      88DD9399 
 2830      8C81
 2831 0539 41610B06 		.ascii	"Aa\013\006\024\212%\341\033v\200v\200\004\004\010\205"
 2831      148A25E1 
 2831      1B768076 
 2831      80040408 
 2831      85
 2832 054a 81410630 		.ascii	"\201A\0060\2443\004\004l\004\240=\341\204\241;\206\345"
 2832      A4330404 
 2832      6C04A03D 
 2832      E184A13B 
 2832      86E5
 2833 055c C88C0214 		.ascii	"\310\214\002\024d\004\0300\344\010C\032$\010\0300\240"
 2833      64041830 
 2833      E408431A 
 2833      24081830 
 2833      A0
 2834 056d 8402140A 		.ascii	"\204\002\024\012\300!\313\031Z\354\004\202E\340\004"
 2834      C021CB19 
 2834      5AEC0482 
 2834      45E004
 2835 057c C247401D 		.ascii	"\302G@\035\034\200\010D\221\204@\002'\374J\230]\223"
 2835      1C800844 
 2835      91844002 
 2835      27FC4A98 
 2835      5D93
 2836 058e C3177FE5 		.ascii	"\303\027\177\345\210\013}U\200K\301\303\210;\372\000"
 2836      880B7D55 
 2836      804BC1C3 
 2836      883BFA00 
 2837 059e 040C8111 		.ascii	"\004\014\201\021\000k\350\004PH\341\240@\206\000\025"
 2837      006BE804 
 2837      5048E1A0 
 2837      40860015 
 2838 05ae 8004A11B 		.ascii	"\200\004\241\033\340<\3348B\010h\004W\310\301\303\214"
 2838      E03CDC38 
 2838      42086804 
 2838      57C8C1C3 
 2838      8C
 2839 05bf 0BFA0404 		.ascii	"\013\372\004\004|t\251FNI\016\300\020\300\020t\251\210"
 2839      7C74A946 
 2839      4E490EC0 
 2839      10C01074 
 2839      A988
 2840 05d1 25893DCD 		.ascii	"%\211=\315\024\315\004\005\012\315$J\000\340\200\204"
 2840      14CD0405 
 2840      0ACD244A 
 2840      00E08084 
 2841 05e1 25F00CE4 		.ascii	"%\360\014\344\000\012:`\001\000\230\004 \200\000\301"
 2841      000A3A60 
 2841      01009804 
ARM GAS  C:\Temp\ccVQrAGa.s 			page 62


 2841      208000C1 
 2842 05f1 16EC04F8 		.ascii	"\026\354\004\370\014\000J\004 \376e\351-\354\020\376"
 2842      0C004A04 
 2842      20FE65E9 
 2842      2DEC10FE 
 2843 0601 85C11EE0 		.ascii	"\205\301\036\340\004\004\312\200\000EHE\310\301\026"
 2843      0404CA80 
 2843      00454845 
 2843      C8C116
 2844 0610 FBF587FC 		.ascii	"\373\365\207\374\341\230AFa\221C\006\200\036\300\000"
 2844      E1984146 
 2844      61914306 
 2844      801EC000 
 2845 0620 81119B01 		.ascii	"\201\021\233\001\2011\201!\350\004J\210\214E\241\013"
 2845      81318121 
 2845      E8044A88 
 2845      8C45A10B 
 2846 0630 74A906CE 		.ascii	"t\251\006\316HN\300\020\300\020t\251\212E\211=\315\024"
 2846      484EC010 
 2846      C01074A9 
 2846      8A45893D 
 2846      CD14
 2847 0642 CD04050A 		.ascii	"\315\004\005\012\315$J\000\340\200\206%\360\014\360"
 2847      CD244A00 
 2847      E0808625 
 2847      F00CF0
 2848 0651 0C4C10E4 		.ascii	"\014L\020\344\030JZ\344\000\012:\240\000\001(`\001\000"
 2848      184A5AE4 
 2848      000A3AA0 
 2848      00012860 
 2848      0100
 2849 0663 A8C55080 		.ascii	"\250\305P\200\000\354\004\004 \000J\301V\376E\370\014"
 2849      00EC0404 
 2849      20004AC1 
 2849      56FE45F8 
 2849      0C
 2850 0674 0420C554 		.ascii	"\004 \305T\351-\354\020\376e\301^\340\004\004\312\200"
 2850      E92DEC10 
 2850      FE65C15E 
 2850      E00404CA 
 2850      80
 2851 0685 004588C1 		.ascii	"\000E\210\301V\305P\207\374E\210G\206\373e\010\360\341"
 2851      56C55087 
 2851      FC458847 
 2851      86FB6508 
 2851      F0E1
 2852 0697 908C4EE4 		.ascii	"\220\214N\3440\341\244\014F\341\244\016F\202E\217m\002"
 2852      30E1A40C 
 2852      46E1A40E 
 2852      4682458F 
 2852      6D02
 2853 06a9 3AD91400 		.ascii	":\331\024\000h\344\000\200\000`\001\3748B\010\201a\377"
 2853      68E40080 
 2853      006001FC 
 2853      38420881 
 2853      61FF
 2854 06bb 650046E1 		.ascii	"e\000F\341kL\010\341\244\213\004\3348\376$\211\024\350"
ARM GAS  C:\Temp\ccVQrAGa.s 			page 63


 2854      6B4C08E1 
 2854      A48B04DC 
 2854      38FE2489 
 2854      14E8
 2855 06cd 6C6568E1 		.ascii	"leh\341\244\014F\341\244\016F\202E\217m\002:\331\024"
 2855      A40C46E1 
 2855      A40E4682 
 2855      458F6D02 
 2855      3AD914
 2856 06e0 0068E400 		.ascii	"\000h\344\000\200\000`\001\3748B\010ux\377e\014|\357"
 2856      80006001 
 2856      FC384208 
 2856      7578FF65 
 2856      0C7CEF
 2857 06f3 FCDD93F2 		.ascii	"\374\335\223\362\004\200U\241\033\012\000\203\021@\006"
 2857      048055A1 
 2857      1B0A0083 
 2857      114006
 2858 0702 E550404A 		.ascii	"\345P@J\374\022\327\364\340\320\301\303\202\265\301"
 2858      FC12D7F4 
 2858      E0D0C1C3 
 2858      82B5C1
 2859 0711 C3C1C3F4 		.ascii	"\303\301\303\364\004\013?\364\004\013/\364\004\013\037"
 2859      040B3FF4 
 2859      040B2FF4 
 2859      040B1F
 2860 0720 F4040B0F 		.ascii	"\364\004\013\017\012P\2015@Z\354@D\006\340\274Dj\274"
 2860      0A508135 
 2860      405AEC40 
 2860      4406E0BC 
 2860      446ABC
 2861 0733 22404AA0 		.ascii	"\"@J\240\220\300\000 \211\355\210@\032 \001\001\230"
 2861      90C00020 
 2861      89ED8840 
 2861      1A200101 
 2861      98
 2862 0744 0AFFC000 		.ascii	"\012\377\300\000\301\303\364\004\301\303\301\303\364"
 2862      C1C3F404 
 2862      C1C3C1C3 
 2862      F4
 2863 0751 040BF5F4 		.ascii	"\004\013\365\364\004\013\345\364\004\013\325\364\004"
 2863      040BE5F4 
 2863      040BD5F4 
 2863      04
 2864 075e 0BC5F404 		.ascii	"\013\305\364\004\013\265\364\004\013\245\364\004\013"
 2864      0BB5F404 
 2864      0BA5F404 
 2864      0B
 2865 076b 95F4040B 		.ascii	"\225\364\004\013\205\012\377\201U\012P\364\004\327\344"
 2865      850AFF81 
 2865      550A50F4 
 2865      04D7E4
 2866 077a EC80D7B4 		.ascii	"\354\200\327\264\327\324\327\224\327\244\327t\327\204"
 2866      D7D4D794 
 2866      D7A4D774 
 2866      D784
 2867 0788 820B9464 		.ascii	"\202\013\224d\372\000\\\010\370<\004L\344@\004\212!"
ARM GAS  C:\Temp\ccVQrAGa.s 			page 64


 2867      FA005C08 
 2867      F83C044C 
 2867      E440048A 
 2867      21
 2868 0799 2B80A582 		.ascii	"+\200\245\202\025\200;F\022\201\365\006J\371\200\202"
 2868      15803B46 
 2868      1281F506 
 2868      4AF98082 
 2869 07a9 B5F80C04 		.ascii	"\265\370\014\004 \200;\004J\354\004\305H\344\000E\210"
 2869      20803B04 
 2869      4AEC04C5 
 2869      48E40045 
 2869      88
 2870 07ba CD460C4C 		.ascii	"\315F\014L\207\374\335\223\360<l@\012 I'\341\301\004"
 2870      87FCDD93 
 2870      F03C6C40 
 2870      0A204927 
 2870      E1C104
 2871 07cd 208ACF   		.ascii	" \212\317"
 2872 07d0 06C06C04 		.ascii	"\006\300l\004\004J\344@H\022d\000\0003\360\214\002u"
 2872      044AE440 
 2872      48126400 
 2872      0033F08C 
 2872      0275
 2873 07e2 806B0285 		.ascii	"\200k\002\205\360\020\002\225\370\014\002\245\370\010"
 2873      F0100295 
 2873      F80C02A5 
 2873      F808
 2874 07f0 4C75F804 		.ascii	"Lu\370\004L\205\360\020L\225\370\014L\245\370\010D\010"
 2874      4C85F010 
 2874      4C95F80C 
 2874      4CA5F808 
 2874      4408
 2875 0802 F8044452 		.ascii	"\370\004DR\207\370\351-\361\260\012 \206\225\305'l\020"
 2875      87F8E92D 
 2875      F1B00A20 
 2875      8695C527 
 2875      6C10
 2876 0814 61880E54 		.ascii	"a\210\016T\354\004\014 d\004\030p\344\000\014J\004t"
 2876      EC040C20 
 2876      64041870 
 2876      E4000C4A 
 2876      0474
 2877 0826 44C74242 		.ascii	"D\307BB\340\210\206{p\260\335\216\321\204\207\374M\210"
 2877      E088867B 
 2877      70B0DD8E 
 2877      D18487FC 
 2877      4D88
 2878 0838 71884452 		.ascii	"q\210DR\241+\2303\367\345\354\365\210\033!+\367\245"
 2878      A12B9833 
 2878      F7E5ECF5 
 2878      881B212B 
 2878      F7A5
 2879 084a EC75E100 		.ascii	"\354u\341\000\000\014\370\004\004\014x\014\000\012\202"
 2879      000CF804 
 2879      040C780C 
 2879      000A82
ARM GAS  C:\Temp\ccVQrAGa.s 			page 65


 2880 0859 25803B94 		.ascii	"%\200;\224\245\241+\004 M\026\006J\354\004\376%\370"
 2880      A5A12B04 
 2880      204D1606 
 2880      4AEC04FE 
 2880      25F8
 2881 086b 0C9095E9 		.ascii	"\014\220\225\351-z\200\010\024\344@\004\212\340\240"
 2881      2D7A8008 
 2881      14E44004 
 2881      8AE0A0
 2882 087a 0A440854 		.ascii	"\012D\010T\250_\006\365\340\300\014$\252O\012 a\220"
 2882      A85F06F5 
 2882      E0C00C24 
 2882      AA4F0A20 
 2882      6190
 2883 088c 61C1EC40 		.ascii	"a\301\354@\354\004\014`\014J\012\317N2\344\000\206+"
 2883      EC040C60 
 2883      0C4A0ACF 
 2883      4E32E400 
 2883      862B
 2884 089e 70B0E440 		.ascii	"p\260\344@\006p\360\020DE\370\014DE\370\010DE\370\004"
 2884      0670F010 
 2884      4445F80C 
 2884      4445F808 
 2884      4445F804 
 2885 08b2 444587FC 		.ascii	"DE\207\374L\010\361\260DR\206\225\351-\371\301\007Q"
 2885      4C08F1B0 
 2885      44528695 
 2885      E92DF9C1 
 2885      0751
 2886 08c4 4A52A453 		.ascii	"JR\244S\004S\372\260\354\020\004 \016$\010QEW\341\210"
 2886      0453FAB0 
 2886      EC100420 
 2886      0E240851 
 2886      4557E188 
 2887 08d8 E4041870 		.ascii	"\344\004\030pl\004\014P\340\210\012td\000\014J\335N"
 2887      6C040C50 
 2887      E0880A74 
 2887      64000C4A 
 2887      DD4E
 2888 08ea 867B87FC 		.ascii	"\206{\207\374M\310\252#D\307\241+\2303\004 \202\005"
 2888      4DC8AA23 
 2888      44C7A12B 
 2888      98330420 
 2888      8205
 2889 08fc 044AEC04 		.ascii	"\004J\354\004\315\026\344\000\207\374E\310\360\004\014"
 2889      CD16E400 
 2889      87FC45C8 
 2889      F0040C
 2890 090b 0CC1C3DD 		.ascii	"\014\301\303\335\223\376|\004\014\004J\000{@r\340\020"
 2890      93FE7C04 
 2890      0C044A00 
 2890      7B4072E0 
 2890      10
 2891 091c 1EF07988 		.ascii	"\036\360y\210\000\014\355 \000\032b\000\021\016\370"
 2891      000CED20 
 2891      001A6200 
 2891      110EF8
ARM GAS  C:\Temp\ccVQrAGa.s 			page 66


 2892 092b 0C1B0E82 		.ascii	"\014\033\016\202\213 \001\000&^\005\300\000@\000 5#"
 2892      8B200100 
 2892      265E05C0 
 2892      00400020 
 2892      3523
 2893 093d 3EEF8D5E 		.ascii	">\357\215^\027\244\013\235.\340\374#\210\241\016\000"
 2893      17A40B9D 
 2893      2EE0FC23 
 2893      88A10E00 
 2894 094d 24C000C4 		.ascii	"$\300\000\304\033a\210\300;}Az\020B\022\372\020F2\204"
 2894      1B6188C0 
 2894      3B7D417A 
 2894      104212FA 
 2894      10463284 
 2895 0961 13003382 		.ascii	"\023\0003\202\021>\036\2021|>\000 \031\036\227>\354"
 2895      113E1E82 
 2895      317C3E00 
 2895      20191E97 
 2895      3EEC
 2896 0973 040084FE 		.ascii	"\004\000\204\376\016\257\213a\204T\012\025\216.\245"
 2896      0EAF8B61 
 2896      84540A15 
 2896      8E2EA5
 2897 0982 E68A0080 		.ascii	"\346\212\000\200\216\243\020\212l\004@\012\344\244V"
 2897      8EA3108A 
 2897      6C04400A 
 2897      E4A456
 2898 0991 72E68A40 		.ascii	"r\346\212@pp\200\242\265\334\000\000\204\017\276#\264"
 2898      707080A2 
 2898      B5DC0000 
 2898      840FBE23 
 2898      B4
 2899 09a2 E18CE68A 		.ascii	"\341\214\346\212L\012`\204\000d\360\230Pr\216\003\015"
 2899      4C0A6084 
 2899      0064F098 
 2899      50728E03 
 2899      0D
 2900 09b3 0E8E0B0B 		.ascii	"\016\216\013\013\016V\010\220\033\023\216\3748\013\204"
 2900      0E560890 
 2900      1B138EFC 
 2900      380B84
 2901 09c2 809B901B 		.ascii	"\200\233\220\033\220\013\3748V\010\202\235\377\021\240"
 2901      900BFC38 
 2901      5608829D 
 2901      FF11A0
 2902 09d1 0D82850E 		.ascii	"\015\202\205\016\013\204\325\243$\220\033\3748D\010"
 2902      0B84D5A3 
 2902      24901BFC 
 2902      384408
 2903 09e0 8E0B210D 		.ascii	"\216\013!\015\201\305\202\205\202u\241\015\220\033\016"
 2903      81C58285 
 2903      8275A10D 
 2903      901B0E
 2904 09ef 0B4408A3 		.ascii	"\013D\010\243$!\015\3748\200E\216\013\223\016\220\013"
 2904      24210DFC 
 2904      3880458E 
 2904      0B930E90 
ARM GAS  C:\Temp\ccVQrAGa.s 			page 67


 2904      0B
 2905 0a00 50A22C0B 		.ascii	"P\242,\013#d\361\230\360\230V\242\220\013\013\016L\010"
 2905      2364F198 
 2905      F09856A2 
 2905      900B0B0E 
 2905      4C08
 2906 0a12 941B009B 		.ascii	"\224\033\000\233\3748\011\276\224\013L\010\226\033\377"
 2906      FC3809BE 
 2906      940B4C08 
 2906      961BFF
 2907 0a21 11FC3882 		.ascii	"\021\3748\202\245\202\235\204\325\240\015\220\013\011"
 2907      A5829D84 
 2907      D5A00D90 
 2907      0B09
 2908 0a2f 648C1BA3 		.ascii	"d\214\033\243$\3748D\010\001\325\241\015\234\000P`\202"
 2908      24FC3844 
 2908      0801D5A1 
 2908      0D9C0050 
 2908      6082
 2909 0a41 55A10D90 		.ascii	"U\241\015\220\013\011\244\224\033\243$\3748D\010\200"
 2909      0B09A494 
 2909      1BA324FC 
 2909      38440880 
 2910 0a51 55A10D8F 		.ascii	"U\241\015\217\264\220\253\215\024\213\224\226\223\243"
 2910      B490AB8D 
 2910      148B9496 
 2910      93A3
 2911 0a5f 64718440 		.ascii	"dq\204@\262\215\016\222\033\3748L\010\222\013\000\213"
 2911      B28D0E92 
 2911      1BFC384C 
 2911      08920B00 
 2911      8B
 2912 0a70 4C08961B 		.ascii	"L\010\226\033\377\021\3748\202\305\202\215\240\015\025"
 2912      FF11FC38 
 2912      82C5828D 
 2912      A00D15
 2913 0a7f 840D6486 		.ascii	"\204\015d\206\025\243$\226\033D\010\214\013\241\015"
 2913      15A32496 
 2913      1B44088C 
 2913      0BA10D
 2914 0a8e FC384CB0 		.ascii	"\3748L\260\001\345\025\204\234\000\202u\241\015\226"
 2914      01E51584 
 2914      9C008275 
 2914      A10D96
 2915 0a9d 1B0D648C 		.ascii	"\033\015d\214\013\243$\3748D\010\200\225\241\015\214"
 2915      0BA324FC 
 2915      38440880 
 2915      95A10D8C 
 2916 0aad BB013593 		.ascii	"\273\0015\223\004\222\273\224\033#dL\010\223\016\000"
 2916      0492BB94 
 2916      1B23644C 
 2916      08930E00 
 2917 0abd 9BFC3896 		.ascii	"\233\3748\226\033\224\013\3748L\010\202\235\377\021"
 2917      1B940BFC 
 2917      384C0882 
 2917      9DFF11
 2918 0acc A00D8285 		.ascii	"\240\015\202\205\023\244\204\325\243$\226\033D\010\224"
ARM GAS  C:\Temp\ccVQrAGa.s 			page 68


 2918      13A484D5 
 2918      A324961B 
 2918      440894
 2919 0adb 0BA10DFC 		.ascii	"\013\241\015\3748\201\325\202\245\202u\241\015\226\033"
 2919      3881D582 
 2919      A58275A1 
 2919      0D961B
 2920 0aea 13648C0B 		.ascii	"\023d\214\013\243$\3748D\010V`\241\015\226\253\234\000"
 2920      A324FC38 
 2920      44085660 
 2920      A10D96AB 
 2920      9C00
 2921 0afc 002A9B04 		.ascii	"\000*\233\004\001\030\340\000\200\000@\001\340\374\036"
 2921      0118E000 
 2921      80004001 
 2921      E0FC1E
 2922 0b0b 07171484 		.ascii	"\007\027\024\2045\002J\216\013\200$\344\000\301>\250"
 2922      35024A8E 
 2922      0B8024E4 
 2922      00C13EA8 
 2923 0b1b 344308E9 		.ascii	"4C\010\351.\203\005\207\374\250\024\234\004\250\016"
 2923      2E830587 
 2923      FCA8149C 
 2923      04A80E
 2924 0b2a 9C1E1914 		.ascii	"\234\036\031\024\201\265\002J\216\013\200(\344\000\301"
 2924      81B5024A 
 2924      8E0B8028 
 2924      E400C1
 2925 0b39 36A83843 		.ascii	"6\2508C\010\351&\035\024\207\374\354\004\000\200P\012"
 2925      08E9261D 
 2925      1487FCEC 
 2925      04008050 
 2925      0A
 2926 0b4a 81614072 		.ascii	"\201a@rf\206\033\016\360\204\016\203\200\253\220\273"
 2926      66861B0E 
 2926      F0840E83 
 2926      80AB90BB 
 2927 0b5a 809B8CD5 		.ascii	"\200\233\214\325\326\255\216\033\024\013D\010\243$\240"
 2927      D6AD8E1B 
 2927      140B4408 
 2927      A324A0
 2928 0b69 0DFC38A1 		.ascii	"\015\3748\241\013\212\365\235\004\222\005\241\013\215"
 2928      0B8AF59D 
 2928      049205A1 
 2928      0B8D
 2929 0b77 B5C0401E 		.ascii	"\265\300@\036\005\001(\210\325\200\000@\001\340\374"
 2929      05012888 
 2929      D5800040 
 2929      01E0FC
 2930 0b86 1E071724 		.ascii	"\036\007\027$\204U\226\033\220\013\344\000\004J\200"
 2930      8455961B 
 2930      900BE400 
 2930      044A80
 2931 0b95 448434C1 		.ascii	"D\2044\301>\305N\207\374E\010\254\004\203\025\254\036"
 2931      3EC54E87 
 2931      FC4508AC 
 2931      048315AC 
ARM GAS  C:\Temp\ccVQrAGa.s 			page 69


 2931      1E
 2932 0ba6 A01481C5 		.ascii	"\240\024\201\305\240\016\226\013\031$\004J\220\033\200"
 2932      A00E960B 
 2932      1924044A 
 2932      901B80
 2933 0bb5 38E400C1 		.ascii	"8\344\000\301F\204HE\010\3056!\004\207\374\200\203\203"
 2933      46844845 
 2933      08C53621 
 2933      0487FC80 
 2933      8383
 2934 0bc7 61D6AD80 		.ascii	"a\326\255\200\263\026\013\224\365\243$\216\033\3748"
 2934      B3160B94 
 2934      F5A3248E 
 2934      1BFC38
 2935 0bd6 4408F2C5 		.ascii	"D\010\362\305\241\015@\001\003\230\036\007\200\000\216"
 2935      A10D4001 
 2935      03981E07 
 2935      80008E
 2936 0be5 35E0FC96 		.ascii	"5\340\374\226\013\027$\004J\224\033\2044\344\000\305"
 2936      0B172404 
 2936      4A941B84 
 2936      34E400C5 
 2937 0bf5 4E804445 		.ascii	"N\200DE\010\301>\207\205\207\374@\001\001(\036\007\200"
 2937      08C13E87 
 2937      8587FC40 
 2937      0101281E 
 2937      0780
 2938 0c07 008455E0 		.ascii	"\000\204U\340\374\224\013\027$\004J\222\033\2044\344"
 2938      FC940B17 
 2938      24044A92 
 2938      1B8434E4 
 2939 0c17 00C54E80 		.ascii	"\000\305N\200DE\010\301>\203\025\207\374\250\024\244"
 2939      444508C1 
 2939      3E831587 
 2939      FCA814A4 
 2940 0c27 04A80EA4 		.ascii	"\004\250\016\244\036\031$\201\305\224\033\222\013\344"
 2940      1E192481 
 2940      C5941B92 
 2940      0BE4
 2941 0c35 00044A84 		.ascii	"\000\004J\204H\2008\3056\301F\207\374E\010\203a\035"
 2941      488038C5 
 2941      36C14687 
 2941      FC450883 
 2941      611D
 2942 0c47 04719580 		.ascii	"\004q\225\200\223\250\004\200\243\250\036\254\024\201"
 2942      93A80480 
 2942      A3A81EAC 
 2942      1481
 2943 0c55 C5AC0E94 		.ascii	"\305\254\016\224\013\031$\004J\226\033\2008\344\000"
 2943      0B192404 
 2943      4A961B80 
 2943      38E400
 2944 0c64 C1468448 		.ascii	"\301F\204HE\010\3056\035\004\207\374!\004\203ao5\200"
 2944      4508C536 
 2944      1D0487FC 
 2944      21048361 
 2944      6F3580
ARM GAS  C:\Temp\ccVQrAGa.s 			page 70


 2945 0c77 A31D1480 		.ascii	"\243\035\024\200\263\225\004\241k\346\206@\012\000\000"
 2945      B39504A1 
 2945      6BE68640 
 2945      0A0000
 2946 0c86 0E88F080 		.ascii	"\016\210\360\200Xrq\234B\222\361\244@\242\222+\001\035"
 2946      5872719C 
 2946      4292F1A4 
 2946      40A2922B 
 2946      011D
 2947 0c98 44A00E3B 		.ascii	"D\240\016;F\220\234\000H\"\234\000\241K\361\214\036"
 2947      46909C00 
 2947      48229C00 
 2947      A14BF18C 
 2947      1E
 2948 0ca9 078A2542 		.ascii	"\007\212%B\242`\374\204U\361\220\3751EGD\"\310+\216"
 2948      A260FC84 
 2948      55F190FD 
 2948      31454744 
 2948      22C82B8E 
 2949 0cbd 3B7A0C82 		.ascii	";z\014\202!\210#\344\000\004J\204T\214D\305N\315^\207"
 2949      218823E4 
 2949      00044A84 
 2949      548C44C5 
 2949      4ECD5E87 
 2950 0cd1 FC450808 		.ascii	"\374E\010\0100\2035\375Ql\004\202!$C\372\024HB&#\210"
 2950      308335FD 
 2950      516C0482 
 2950      212443FA 
 2950      14484226 
 2951 0ce7 23044A8E 		.ascii	"#\004J\216;\214H\344\000\315V\204XE\010\305F\035$\207"
 2951      3B8C48E4 
 2951      00CD5684 
 2951      584508C5 
 2951      461D2487 
 2952 0cfb FCF1A042 		.ascii	"\374\361\240B\302\361\254R\202D\222\244\023\241+\373"
 2952      C2F1AC52 
 2952      824492A4 
 2952      13A12BFB 
 2953 0d0b 841E078C 		.ascii	"\204\036\007\214E\204\265\340\374a\210\002$B;\375A\361"
 2953      4584B5E0 
 2953      FC618802 
 2953      24423BFD 
 2953      41F1
 2954 0d1d 8844C2FA 		.ascii	"\210D\302\372\020F2\0020\2023\002J\344\004\2504\344"
 2954      10463202 
 2954      30823302 
 2954      4AE404A8 
 2954      34E4
 2955 0d2f 00E94E88 		.ascii	"\000\351N\210DC\010\311>\203\265\207\374\006\260~\024"
 2955      444308C9 
 2955      3E83B587 
 2955      FC06B07E 
 2955      14
 2956 0d40 3033EC04 		.ascii	"03\354\004\220\023\202!B\022\270\023\3751z\214\372\014"
 2956      90138221 
 2956      4212B813 
 2956      FD317A8C 
ARM GAS  C:\Temp\ccVQrAGa.s 			page 71


 2956      FA0C
 2957 0d52 4612F184 		.ascii	"F\022\361\204B2\344\000\002JF\302(X\016H\361\210\354"
 2957      4232E400 
 2957      024A46C2 
 2957      28580E48 
 2957      F188EC
 2958 0d65 0404208E 		.ascii	"\004\004 \216V\351F\207\374B\010\230k\035\024\202E\302"
 2958      56E94687 
 2958      FC420898 
 2958      6B1D1482 
 2958      45C2
 2959 0d77 0DEFF87E 		.ascii	"\015\357\370~\010\216\013\000\033\2434\235$\357\374"
 2959      088E0B00 
 2959      1BA3349D 
 2959      24EFFC
 2960 0d86 5C68C29D 		.ascii	"\\h\302\235\235\024}X\250\005\222\013o\370\361\244N"
 2960      9D147D58 
 2960      A805920B 
 2960      6FF8F1A4 
 2960      4E
 2961 0d97 62808B1D 		.ascii	"b\200\213\035$\371\210@r\000\012\021\004^\007\370\014"
 2961      24F98840 
 2961      72000A11 
 2961      045E07F8 
 2961      0C
 2962 0da8 1B0EE0FC 		.ascii	"\033\016\340\374\300\000\000&@4^\005\036\010\357\215"
 2962      C0000026 
 2962      40345E05 
 2962      1E08EF8D 
 2963 0db8 408A9FFC 		.ascii	"@\212\237\374\204\015\346\212\016\003\240\305\360\210"
 2963      840DE68A 
 2963      0E03A0C5 
 2963      F088
 2964 0dc6 50720024 		.ascii	"Pr\000$\031\016D\033\341\210@;\375!\372\010B\022D2\035"
 2964      190E441B 
 2964      E188403B 
 2964      FD21FA08 
 2964      42124432 
 2965 0ddb 348023FA 		.ascii	"4\200#\372\010\344\004\026 \014\020\206\023\316\215"
 2965      08E40416 
 2965      200C1086 
 2965      13CE8D
 2966 0dea E404909B 		.ascii	"\344\004\220\233\212\305\222\253!\224\224\033#$\222"
 2966      8AC592AB 
 2966      2194941B 
 2966      232492
 2967 0df9 0B9493FC 		.ascii	"\013\224\223\3748D\010\210u\243\015\241\013\233\004"
 2967      38440888 
 2967      75A30DA1 
 2967      0B9B04
 2968 0e08 1E0782E5 		.ascii	"\036\007\202\345\2045\340\374d\000\026J\226\033\222"
 2968      8435E0FC 
 2968      6400164A 
 2968      961B92
 2969 0e17 0B8034A8 		.ascii	"\013\2004\250$\301.\351>\207\374C\010\250\004\203\005"
 2969      24C12EE9 
 2969      3E87FC43 
ARM GAS  C:\Temp\ccVQrAGa.s 			page 72


 2969      08A80483 
 2969      05
 2970 0e28 A81EA414 		.ascii	"\250\036\244\024\201\265\244\016d\000\014J\214\033\222"
 2970      81B5A40E 
 2970      64000C4A 
 2970      8C1B92
 2971 0e37 0B8038A8 		.ascii	"\013\2008\250(\301&\3516\207\374C\010\364\265\316\235"
 2971      28C126E9 
 2971      3687FC43 
 2971      08F4B5CE 
 2971      9D
 2972 0e48 19049D04 		.ascii	"\031\004\235\004\301\215\200\203\207\325\362\265\202"
 2972      C18D8083 
 2972      87D5F2B5 
 2972      82
 2973 0e55 0D1BB48E 		.ascii	"\015\033\264\216%\231\316\374\204\276d\202\201\202a"
 2973      2599CEFC 
 2973      84BE6482 
 2973      818261
 2974 0e64 8AC5CEBD 		.ascii	"\212\305\316\275!\224\226\233#$\222\253\224\223\224"
 2974      2194969B 
 2974      232492AB 
 2974      949394
 2975 0e73 1B440892 		.ascii	"\033D\010\222\013\243\015\3748\001\030\210u\200\000"
 2975      0BA30DFC 
 2975      38011888 
 2975      758000
 2976 0e82 4001E0FC 		.ascii	"@\001\340\374\036\007\020J\2045\222\013d\000\250$\220"
 2976      1E07104A 
 2976      8435920B 
 2976      6400A824 
 2976      90
 2977 0e93 1BE93E80 		.ascii	"\033\351>\2004C\010\301.\203\005\207\374\244\024\250"
 2977      344308C1 
 2977      2E830587 
 2977      FCA414A8 
 2978 0ea3 04A40EA8 		.ascii	"\004\244\016\250\036\014J\201\265\222\013d\000\250("
 2978      1E0C4A81 
 2978      B5920B64 
 2978      00A828
 2979 0eb2 8C1BE936 		.ascii	"\214\033\3516\2008C\010\301&\316\235\207\374\235\004"
 2979      80384308 
 2979      C126CE9D 
 2979      87FC9D04 
 2980 0ec2 F4B580B3 		.ascii	"\364\265\200\263\031\004\362\265\301\275\345 \036\360"
 2980      1904F2B5 
 2980      C1BDE520 
 2980      1EF0
 2981 0ed0 F67C0C0C 		.ascii	"\366|\014\014\301\303\335\223\004\374\200[@\006\342"
 2981      C1C3DD93 
 2981      04FC805B 
 2981      4006E2
 2982 0edf C0D56EFC 		.ascii	"\300\325n\374\022\325\216\325~@Z\325\236B\006\340\274"
 2982      12D58ED5 
 2982      7E405AD5 
 2982      9E4206E0 
 2982      BC
ARM GAS  C:\Temp\ccVQrAGa.s 			page 73


 2983 0ef0 D5AEBC22 		.ascii	"\325\256\274\"\325\336\325\276Bj\325\356@J\240\220\300"
 2983      D5DED5BE 
 2983      426AD5EE 
 2983      404AA090 
 2983      C0
 2984 0f01 002089ED 		.ascii	"\000 \211\355\210@\032 \001\001x\301\303\300\000\301"
 2984      88401A20 
 2984      010178C1 
 2984      C3C000C1 
 2985 0f11 C3C1C3F0 		.ascii	"\303\301\303\360\004K\205\360\004K\225\360\004K\245"
 2985      044B85F0 
 2985      044B95F0 
 2985      044BA5
 2986 0f20 F0044BB5 		.ascii	"\360\004K\265\360\004K\305\360\004K\325\360\004K\345"
 2986      F0044BC5 
 2986      F0044BD5 
 2986      F0044BE5 
 2987 0f30 F0044BF5 		.ascii	"\360\004K\365\302\037\201\245\325\036\325\036\325\036"
 2987      C21F81A5 
 2987      D51ED51E 
 2987      D51E
 2988 0f3e D51ED51E 		.ascii	"\325\036\325\036\325\036\325\036\325\036\340\320@J\202"
 2988      D51ED51E 
 2988      D51EE0D0 
 2988      404A82
 2989 0f4d B5D52EC1 		.ascii	"\265\325.\301\303\301\303K\017\301\303K\037\360\004"
 2989      C3C1C34B 
 2989      0FC1C34B 
 2989      1FF004
 2990 0f5c 4B2FF004 		.ascii	"K/\360\004K?\360\004\201e\360\004\325\036\302\037\325"
 2990      4B3FF004 
 2990      8165F004 
 2990      D51EC21F 
 2990      D5
 2991 0f6d 1ED51E94 		.ascii	"\036\325\036\224\376\325\036\335\223\201\001\340\004"
 2991      FED51EDD 
 2991      938101E0 
 2991      04
 2992 0f7a 1986A3CD 		.ascii	"\031\206\243\315\301\303\030J\202\245CF\340\000\002"
 2992      C1C3184A 
 2992      82A54346 
 2992      E00002
 2993 0f89 15E19842 		.ascii	"\025\341\230B\005\200\000A\376\200\000\277\377\037\375"
 2993      05800041 
 2993      FE8000BF 
 2993      FF1FFD
 2994 0f98 4346DD93 		.ascii	"CF\335\223\204\024\341\230"
 2994      8414E198 
 2995 0fa0 41FE84CE 		.ascii	"A\376\204\316\377\377\177\375\301\303\335\223\376|\004"
 2995      FFFF7FFD 
 2995      C1C3DD93 
 2995      FE7C04
 2996 0faf 0C6C401E 		.ascii	"\014l@\036\360|\016\202k\341\240@\206\002\005\200\024"
 2996      F07C0E82 
 2996      6BE1A040 
 2996      86020580 
 2996      14
ARM GAS  C:\Temp\ccVQrAGa.s 			page 74


 2997 0fc0 A10BE148 		.ascii	"\241\013\341H\002\020\232\345\300\001e!\276\024\276"
 2997      02109AE5 
 2997      C0016521 
 2997      BE14BE
 2998 0fcf 1E808BFE 		.ascii	"\036\200\213\376\036\243\015\242\004@\033\222U\024\000"
 2998      1EA30DA2 
 2998      04401B92 
 2998      551400
 2999 0fde FD214E12 		.ascii	"\375!N\022d\004D\007\372\010\020\003\224s\344\000\016"
 2999      64044407 
 2999      FA081003 
 2999      9473E400 
 2999      0E
 3000 0fef 6AE61016 		.ascii	"j\346\020\026\000\241k\024\013\024\000\000\345\026\025"
 3000      00A16B14 
 3000      0B140000 
 3000      E51615
 3001 0ffe EC048D1B 		.ascii	"\354\004\215\033\340\200\"\024\212\365\354\010\000\000"
 3001      E0802214 
 3001      8AF5EC08 
 3001      0000
 3002 100c F8801625 		.ascii	"\370\200\026%P\005\203\253\002\006\000\004V\025\300"
 3002      500583AB 
 3002      02060004 
 3002      5615C0
 3003 101b 00A12B58 		.ascii	"\000\241+X\200\020\025\210%\2031a\210\0004\"\224\200"
 3003      80101588 
 3003      25833161 
 3003      88003422 
 3003      9480
 3004 102d 1FE88082 		.ascii	"\037\350\200\202e\241\033\341\214\020\025,\024\200\037"
 3004      65A11BE1 
 3004      8C10152C 
 3004      14801F
 3005 103c 8205A11B 		.ascii	"\202\005\241\033D\010\202\013\201u\3748\3748D\010\374"
 3005      4408820B 
 3005      8175FC38 
 3005      FC384408 
 3005      FC
 3006 104d 048145FC 		.ascii	"\004\201E\3748D\010\201\233\242\004\376\004\2105\221"
 3006      38440881 
 3006      9BA204FE 
 3006      04883591 
 3007 105d 0B80044E 		.ascii	"\013\200\004Nh\206\265?\377G\345\354\020\026\260\241"
 3007      6886B53F 
 3007      FF47E5EC 
 3007      1016B0A1 
 3008 106d 0B8101A2 		.ascii	"\013\201\001\242\004\206%\241\013 \004\241\013\202\265"
 3008      048625A1 
 3008      0B2004A1 
 3008      0B82B5
 3009 107c FE748465 		.ascii	"\376t\204e\220\013\034\016h\001@\010\234\204\300\000"
 3009      900B1C0E 
 3009      68014008 
 3009      9C84C000 
 3010 108c E875A18B 		.ascii	"\350u\241\213~\216\201\225\346\325\241\013\276\004\201"
 3010      7E8E8195 
ARM GAS  C:\Temp\ccVQrAGa.s 			page 75


 3010      E6D5A10B 
 3010      BE0481
 3011 109b 55A10B80 		.ascii	"U\241\013\200\004\240\361\344\365\366|\014\014\301\303"
 3011      04A0F1E4 
 3011      F5F67C0C 
 3011      0CC1C3
 3012 10aa DD93E100 		.ascii	"\335\223\341\000\000\014\372\000\000L\203\001\000\033"
 3012      000CFA00 
 3012      004C8301 
 3012      001B
 3013 10b8 EFFC7608 		.ascii	"\357\374v\010\201\005\301C\372\200\002\024\000\006\341"
 3013      8105C143 
 3013      FA800214 
 3013      0006E1
 3014 10c7 1B000694 		.ascii	"\033\000\006\224\"\335\223\324b\370\000\004\014lP\036"
 3014      22DD93D4 
 3014      62F80004 
 3014      0C6C501E 
 3015 10d7 F0E47C03 		.ascii	"\360\344|\003J\202k<^\374\036\276^Bf\216\005\014J\360"
 3015      4A826B3C 
 3015      5EFC1EBE 
 3015      5E42668E 
 3015      050C4AF0 
 3016 10eb 02063464 		.ascii	"\002\0064d|^\025\372\200J\016\000\004^%\237\374\006"
 3016      7C5E15FA 
 3016      804A0E00 
 3016      045E259F 
 3016      FC06
 3017 10fd 1A00081E 		.ascii	"\032\000\010\036%\344\000D\"\200\004^%\230\024\036%"
 3017      25E40044 
 3017      2280045E 
 3017      2598141E 
 3017      25
 3018 110e 80001E55 		.ascii	"\200\000\036U\200\000JP\200\010D\"\220|^%\231\224\036"
 3018      80004A50 
 3018      80084422 
 3018      907C5E25 
 3018      99941E
 3019 1121 25800442 		.ascii	"%\200\004B \200\004\030\024\234\000@\000<\265\2744\030"
 3019      20800418 
 3019      149C0040 
 3019      003CB5BC 
 3019      3418
 3020 1133 14024400 		.ascii	"\024\002D\000\325\341\033\372\200\334<\030\304\3422"
 3020      D5E11BFA 
 3020      80DC3C18 
 3020      C4E232
 3021 1142 0066420E 		.ascii	"\000fB\016(\361\300\020`\001\014\014\214+\207u\360\000"
 3021      28F1C010 
 3021      60010C0C 
 3021      8C2B8775 
 3021      F000
 3022 1154 017E28F1 		.ascii	"\001~(\361\014\014\377\370\335\223\360\000l@\036\360"
 3022      0C0CFFF8 
 3022      DD93F000 
 3022      6C401EF0 
 3023 1164 E47C014A 		.ascii	"\344|\001J\276.\274.\206\205\374.\344|\000\012D\006"
ARM GAS  C:\Temp\ccVQrAGa.s 			page 76


 3023      BE2EBC2E 
 3023      8685FC2E 
 3023      E47C000A 
 3023      4406
 3024 1176 84453E2E 		.ascii	"\204E>.\360\002\374\036\301!\204\037\276\024\274\024"
 3024      F002FC1E 
 3024      C121841F 
 3024      BE14BC14 
 3025 1186 BC1EBE29 		.ascii	"\274\036\276)\374$\276\036\244\037\000\006\276\024\201"
 3025      FC24BE1E 
 3025      A41F0006 
 3025      BE1481
 3026 1195 55E206F8 		.ascii	"U\342\006\370~@\006\360\376\000\006]\223\201\001\177"
 3026      7E4006F0 
 3026      FE00065D 
 3026      9381017F 
 3027 11a5 E5A0F1FF 		.ascii	"\345\240\361\377\370\001\256\342\300\004\034\004\037"
 3027      F801AEE2 
 3027      C0041C04 
 3027      1F
 3028 11b2 C111F07C 		.ascii	"\301\021\360|D\000\002\034\244\037\335\223\343@\344"
 3028      4400021C 
 3028      A41FDD93 
 3028      E340E4
 3029 11c1 7C040A40 		.ascii	"|\004\012@\210\004$\000\000\006\016\0100\200\020H\022"
 3029      88042400 
 3029      00060E08 
 3029      30801048 
 3029      12
 3030 11d2 04105802 		.ascii	"\004\020X\002\320\210\002\006q\220\377\374`\000\000"
 3030      D0880206 
 3030      7190FFFC 
 3030      600000
 3031 11e1 C483C702 		.ascii	"\304\203\307\002\017\360\200p\001B\300a\013\337\374"
 3031      0FF08070 
 3031      0142C061 
 3031      0BDFFC
 3032 11f0 73FD40C0 		.ascii	"s\375@\300H\007\300\003\000\245\320\027]\223\242\017"
 3032      4807C003 
 3032      00A5D017 
 3032      5D93A20F 
 3033 1200 FFF8018E 		.ascii	"\377\370\001\216`\001\002\206\242\017\370\000@\006\220"
 3033      60010286 
 3033      A20FF800 
 3033      400690
 3034 120f 0EA10DFC 		.ascii	"\016\241\015\374\022@\006\202\305\241\015\374\032@\006"
 3034      12400682 
 3034      C5A10DFC 
 3034      1A4006
 3035 121e 82150206 		.ascii	"\202\025\002\006\374\012\300 `\001\200u\203\015\363"
 3035      FC0AC020 
 3035      60018075 
 3035      830DF3
 3036 122d 72004681 		.ascii	"r\000F\201\001]\223\372|\004\014\3540\036\360\206K\010"
 3036      015D93FA 
 3036      7C040CEC 
 3036      301EF086 
ARM GAS  C:\Temp\ccVQrAGa.s 			page 77


 3036      4B08
 3037 123f 8B81713E 		.ascii	"\213\201q>.@Z\000k|~\345\006BZ\2011\210+e\206\357\370"
 3037      2E405A00 
 3037      6B7C7EE5 
 3037      06425A81 
 3037      31882B65 
 3038 1256 4F6867D1 		.ascii	"Ohg\321\000\000D\206@\001B\022\340<\2011r\234\357\370"
 3038      00004486 
 3038      40014212 
 3038      E03C8131 
 3038      729CEFF8 
 3039 126a 45680000 		.ascii	"Eh\000\000\027\244\300\004d\001r\234B\022\031t\327\007"
 3039      17A4C004 
 3039      6401729C 
 3039      42121974 
 3039      D707
 3040 127c E0D41614 		.ascii	"\340\324\026\024\377\001 \277\000\024\001\273W\376\341"
 3040      FF0120BF 
 3040      001401BB 
 3040      57FEE1
 3041 128b ACA10B1F 		.ascii	"\254\241\013\037\374`8\024\011\337\374W\376\201\021"
 3041      FC603814 
 3041      09DFFC57 
 3041      FE8111
 3042 129a 1B940AF0 		.ascii	"\033\224\012\360\034$\025\004\344 \276D\241\013\200"
 3042      1C241504 
 3042      E420BE44 
 3042      A10B80
 3043 12a9 08001B06 		.ascii	"\010\000\033\006\024\200\004\220\033{\000\350\000C\310"
 3043      14800490 
 3043      1B7B00E8 
 3043      0043C8
 3044 12b8 FC04BC0E 		.ascii	"\374\004\274\016\340\030\016Ih4\252$P\202\240\033\216"
 3044      E0180E49 
 3044      6834AA24 
 3044      5082A01B 
 3044      8E
 3045 12c9 0B7B9068 		.ascii	"\013{\220h8Jh>\016\214K\205\005\201\241\016)\331\012"
 3045      384A683E 
 3045      0E8C4B85 
 3045      0581A10E 
 3045      29D90A
 3046 12dc 42BAE01C 		.ascii	"B\272\340\034H\272\345\002\006 e\202\203\001\344\034"
 3046      48BAE502 
 3046      06206582 
 3046      8301E41C 
 3047 12ec 0203A70F 		.ascii	"\002\003\247\017BB\201\021\220!r\204\357\370PH\177\375"
 3047      42428111 
 3047      90217284 
 3047      EFF85048 
 3047      7FFD
 3048 12fe 45FE82A1 		.ascii	"E\376\202\241@?A\376\305\015\000?\037\375A\376\241\033"
 3048      403F41FE 
 3048      C50D003F 
 3048      1FFD41FE 
 3048      A11B
 3049 1310 C03F1FFD 		.ascii	"\300?\037\375\221\255\345\016\276\004\370\025\036\005"
ARM GAS  C:\Temp\ccVQrAGa.s 			page 78


 3049      91ADE50E 
 3049      BE04F815 
 3049      1E05
 3050 131e A10B98F1 		.ascii	"\241\013\230\361\000\000\362|\014\014\301\303\335\223"
 3050      0000F27C 
 3050      0C0CC1C3 
 3050      DD93
 3051 132c 5896211B 		.ascii	"X\226!\033\002\024\340\010\030\006@\254D*\300\000\241"
 3051      0214E008 
 3051      180640AC 
 3051      442AC000 
 3051      A1
 3052 133d 4B410600 		.ascii	"KA\006\000\000\002\006\200\010X\226\377\021\202e\002"
 3052      00020680 
 3052      085896FF 
 3052      11826502 
 3053 134d 44023D60 		.ascii	"D\002=`7\341\004\221\200\002\024B\032\206\023 #\340"
 3053      37E10491 
 3053      80021442 
 3053      1A861320 
 3053      23E0
 3054 135f 92822398 		.ascii	"\222\202#\230\013\335\223\224.\372\004\004L\201\021"
 3054      0BDD9394 
 3054      2EFA0404 
 3054      4C8111
 3055 136e 026B6000 		.ascii	"\002k`\000E\006f\330\214\013\201qo\370f\000\000`\344"
 3055      450666D8 
 3055      8C0B8171 
 3055      6FF86600 
 3055      0060E4
 3056 1381 C0026091 		.ascii	"\300\002`\221!\001\245\004 \006~@s\354\004Bu\370 \301"
 3056      2101A504 
 3056      20067E40 
 3056      73EC0442 
 3056      75F820C1 
 3057 1395 7CF008FC 		.ascii	"|\360\010\374\365\241+\177\364A\016\3408\003\006`(\005"
 3057      F5A12B7F 
 3057      F4410EE0 
 3057      38030660 
 3057      2805
 3058 13a7 06FFD447 		.ascii	"\006\377\324G\016Hb\201\365\000\000q\200\222~\354 H"
 3058      0E486281 
 3058      F5000071 
 3058      80927EEC 
 3058      2048
 3059 13b9 62107E10 		.ascii	"b\020~\020~\360\210\360\204Hb\202\021\020v\207\013\210"
 3059      7EF088F0 
 3059      84486282 
 3059      11107687 
 3059      0B88
 3060 13cb 2141F6FC 		.ascii	"!A\366\3745\201\021`\014o@L\001gD\000`c\230\300\003"
 3060      35811160 
 3060      0C6F404C 
 3060      01674400 
 3060      606398C0 
 3061 13e0 8F216FF8 		.ascii	"\217!o\370ea\000`\002`@\010\300\003ga\005\006\001\225"
 3061      65610060 
ARM GAS  C:\Temp\ccVQrAGa.s 			page 79


 3061      02604008 
 3061      C0036761 
 3061      05060195 
 3062 13f4 067EE008 		.ascii	"\006~\340\010\354\004\004 \360\010Bu\241+\301|\014L"
 3062      EC040420 
 3062      F0084275 
 3062      A12BC17C 
 3062      0C4C
 3063 1406 FE35DD93 		.ascii	"\3765\335\223\362\004o\321\000\031\241\033\300\005\000"
 3063      F2046FD1 
 3063      0019A11B 
 3063      C00500
 3064 1415 098245C0 		.ascii	"\011\202E\300\006`-\363\360@\000\000\014\251\013\335"
 3064      06602DF3 
 3064      F0400000 
 3064      0CA90BDD 
 3065 1425 93E20081 		.ascii	"\223\342\000\201\001]\223\360\200D\022\354p\004)\204"
 3065      015D93F0 
 3065      804412EC 
 3065      70042984 
 3066 1435 05A12BE0 		.ascii	"\005\241+\340<\002)\346\202@*\002\011\200\023\300\005"
 3066      3C0229E6 
 3066      82402A02 
 3066      098013C0 
 3066      05
 3067 1446 6B71EC14 		.ascii	"kq\354\024\000\000\344\010\000\312\342\000\000\014]"
 3067      0000E408 
 3067      00CAE200 
 3067      000C5D
 3068 1455 93DD93C1 		.ascii	"\223\335\223\301\303\201\001\370\004\004\014`<\0029"
 3068      C38101F8 
 3068      04040C60 
 3068      3C0239
 3069 1464 67700210 		.ascii	"gp\002\020\012\004\300\003\004 `\214\004U\346@X\"|\024"
 3069      0A04C003 
 3069      0420608C 
 3069      0455E640 
 3069      58227C14 
 3070 1478 463AF094 		.ascii	"F:\360\224\201qf\202\0104\262d\3027`\210\374\020\002"
 3070      81716682 
 3070      0834B264 
 3070      C2376088 
 3070      FC1002
 3071 148b 45486288 		.ascii	"EHb\210S\206\023r\234\010\0042N0^\340\210\002\023\204"
 3071      53861372 
 3071      9C080432 
 3071      4E305EE0 
 3071      88021384 
 3072 149f 4340016C 		.ascii	"C@\001l\001\0105\200#\2023\342\000\342\000H5\354\000"
 3072      01083580 
 3072      238233E2 
 3072      00E20048 
 3072      35EC00
 3073 14b2 04094401 		.ascii	"\004\011D\001\202\001\014\014\354\000\335\223\360\004"
 3073      82010C0C 
 3073      EC00DD93 
 3073      F004
ARM GAS  C:\Temp\ccVQrAGa.s 			page 80


 3074 14c0 FE04040C 		.ascii	"\376\004\004\014H\"\010k!K\371\214\010e\212{\340\010"
 3074      4822086B 
 3074      214BF98C 
 3074      08658A7B 
 3074      E008
 3075 14d2 48966184 		.ascii	"H\226a\204\010$\340\374\0124\0124*O\210\003\341\204"
 3075      0824E0FC 
 3075      0A340A34 
 3075      2A4F8803 
 3075      E184
 3076 14e4 6FF47188 		.ascii	"o\364q\210\362\204BRd\034CJB\032\201AAj\340\034B\012"
 3076      F2844252 
 3076      641C434A 
 3076      421A8141 
 3076      416AE01C 
 3077 14fa E418421A 		.ascii	"\344\030B\032\345\200B\012\341\210\011\004\355\200\334"
 3077      E580420A 
 3077      E1880904 
 3077      ED80DC
 3078 1509 004C00DC 		.ascii	"\000L\000\334\000N\020\200n\202~\014\014\210\013\335"
 3078      004E1080 
 3078      6E827E0C 
 3078      0C880BDD 
 3079 1519 93F604F8 		.ascii	"\223\366\004\370\000\004Lg\375\000%\201Q@\001\206D\204"
 3079      00044C67 
 3079      FD002581 
 3079      51400186 
 3079      4484
 3080 152b 34E01802 		.ascii	"4\340\030\002\305o\311\000!\2043@\005`P\002k\362\224"
 3080      C56FC900 
 3080      21843340 
 3080      05605002 
 3080      6BF294
 3081 153e 48426FCD 		.ascii	"HBo\315\000\001\002U\300\005\204\303`\034\202a\006N"
 3081      00010255 
 3081      C00584C3 
 3081      601C8261 
 3081      064E
 3082 1550 42C5843E 		.ascii	"B\305\204>\200S`\030\340\034BU\340PBc\360\000\014L\301"
 3082      80536018 
 3082      E01C4255 
 3082      E0504263 
 3082      F0000C4C 
 3083 1565 C3DD9360 		.ascii	"\303\335\223`<\0029\310D\201\301F:\312T\3047\346\202"
 3083      3C0239C8 
 3083      4481C146 
 3083      3ACA54C4 
 3083      37E682
 3084 1578 06358233 		.ascii	"\0065\2023\206C\347\334r\260FR\312>\200\023\002\001"
 3084      8643E7DC 
 3084      72B04652 
 3084      CA3E8013 
 3084      0201
 3085 158a C84E0435 		.ascii	"\310N\0045\352p\2003\340 \340 D5\340T\004;\353p\002"
 3085      EA708033 
 3085      E020E020 
 3085      4435E054 
ARM GAS  C:\Temp\ccVQrAGa.s 			page 81


 3085      043BEB70 
 3086 159f 01E02404 		.ascii	"\001\340$\004\025D3\2021\200\023\340T\340$D\025\301"
 3086      15443382 
 3086      318013E0 
 3086      54E02444 
 3086      15C1
 3087 15b1 C3DD93E0 		.ascii	"\303\335\223\340<\0029\340X\004K\346\202@:\340\024\004"
 3087      3C0239E0 
 3087      58044BE6 
 3087      82403AE0 
 3087      1404
 3088 15c3 358013C4 		.ascii	"5\200\023\304\007\347\334\002\005\340\020\004\025\201"
 3088      07E7DC02 
 3088      05E01004 
 3088      1581
 3089 15d1 01001372 		.ascii	"\001\000\023r\200@2D\005\202AD\025\340\024DC\340\020"
 3089      80403244 
 3089      05824144 
 3089      15E01444 
 3089      43E010
 3090 15e4 DD93E058 		.ascii	"\335\223\340X`X\000)\0129\204[\012I\357@\0029\357D@"
 3090      60580029 
 3090      0A39845B 
 3090      0A49EF40 
 3090      0239EF44 
 3091 15f9 0160514A 		.ascii	"\001`QJ!\307-\310-O@oHJ!\344\240\010\000ODJ!\0005\302"
 3091      21C72DC8 
 3091      2D4F406F 
 3091      484A21E4 
 3091      A008004F 
 3092 1613 37861360 		.ascii	"7\206\023` `0\002\303g`\012P\002\023\300\003\230\013"
 3092      20603002 
 3092      C367600A 
 3092      500213C0 
 3092      03980B
 3093 1626 E0C0E000 		.ascii	"\340\300\340\000$h\372<\004\014\204k\002{`P\016+\016"
 3093      2468FA3C 
 3093      040C846B 
 3093      027B6050 
 3093      0E2B0E
 3094 1639 AB81810E 		.ascii	"\253\201\201\016\233\340T\030\216\340X\232\216\241+"
 3094      9BE05418 
 3094      8EE0589A 
 3094      8EA12B
 3095 1648 4C23D88E 		.ascii	"L#\330\216L\243\340\030L\223\340\034\204\305\340 \006"
 3095      4CA3E018 
 3095      4C93E01C 
 3095      84C5E020 
 3095      06
 3096 1659 241C049E 		.ascii	"$\034\004\236\024\341\204\2011\006\003o\364e\210\362"
 3096      14E18481 
 3096      3106036F 
 3096      F46588F2 
 3097 1669 A0421267 		.ascii	"\240B\022g\375\000\212A\376\307\377\000\001\037\375"
 3097      FD008A41 
 3097      FEC7FF00 
 3097      011FFD
ARM GAS  C:\Temp\ccVQrAGa.s 			page 82


 3098 1678 41FEA11B 		.ascii	"A\376\241\033\300\001\037\375\024\012\230\016\004\244"
 3098      C0011FFD 
 3098      140A980E 
 3098      04A4
 3099 1686 680084C5 		.ascii	"h\000\204\305\373\200\006$\\\004\336\024\341\204\201"
 3099      FB800624 
 3099      5C04DE14 
 3099      E18481
 3100 1695 3106036F 		.ascii	"1\006\003o\364c\350\362\240B\022g\375\000\212A\376\307"
 3100      F463E8F2 
 3100      A0421267 
 3100      FD008A41 
 3100      FEC7
 3101 16a7 FF00011F 		.ascii	"\377\000\001\037\375A\376\241\033\300\001\037\375\022"
 3101      FD41FEA1 
 3101      1BC0011F 
 3101      FD12
 3102 16b5 0A9A0E04 		.ascii	"\012\232\016\004\224h\000\206\005\373\200`\020\016\005"
 3102      94680086 
 3102      05FB8060 
 3102      100E05
 3103 16c4 E1840624 		.ascii	"\341\204\006$\340\024\016\025\2011\006\003o\364b(\362"
 3103      E0140E15 
 3103      81310603 
 3103      6FF46228 
 3103      F2
 3104 16d5 A0421267 		.ascii	"\240B\022g\375\000\212A\376\307\377\000\001\037\375"
 3104      FD008A41 
 3104      FEC7FF00 
 3104      011FFD
 3105 16e4 41FEA11B 		.ascii	"A\376\241\033\300\001\037\375\014\014\330\016\335\223"
 3105      C0011FFD 
 3105      0C0CD80E 
 3105      DD93
 3106 16f2 F23CF804 		.ascii	"\362<\370\004\004\014\204;\001\001F\001\212\006\216"
 3106      040C843B 
 3106      01014601 
 3106      8A068E
 3107 1701 06F00802 		.ascii	"\006\360\010\002\013\214\006\241\013\340P\002\305\210"
 3107      0B8C06A1 
 3107      0BE05002 
 3107      C588
 3108 170f 45060460 		.ascii	"E\006\004`\030\177Q\341\204\206k\246KL@\212\315\030"
 3108      187F51E1 
 3108      84866BA6 
 3108      4B4C408A 
 3108      CD18
 3109 1721 639C00FF 		.ascii	"c\234\000\377\370\030\016\340\202Nj\340\034\002eJr\012"
 3109      F8180EE0 
 3109      824E6AE0 
 3109      1C02654A 
 3109      720A
 3110 1733 6D4640FA 		.ascii	"mF@\3720\012R\034\000\010V\351\374@:\2143@\002\340\202"
 3110      300A521C 
 3110      000856E9 
 3110      FC403A8C 
 3110      334002E0 
ARM GAS  C:\Temp\ccVQrAGa.s 			page 83


 3111 1748 0002FA30 		.ascii	"\000\002\3720\212\006\351\374\340T\002\013\210E\241"
 3111      8A06E9FC 
 3111      E054020B 
 3111      8845A1
 3112 1757 0B602002 		.ascii	"\013` \002\305\341\204\006\004\246K\177Q\212\315\206"
 3112      C5E18406 
 3112      04A64B7F 
 3112      518ACD86 
 3113 1767 6B9C004C 		.ascii	"k\234\000L@`$\002\305"
 3113      40602402 
 3113      C5
 3114 1770 4C6A9863 		.ascii	"Lj\230c\002\016`\202\212\315\377\370\034\000F@\372\004"
 3114      020E6082 
 3114      8ACDFFF8 
 3114      1C004640 
 3114      FA04
 3115 1782 4C620A62 		.ascii	"Lb\012b\0303@:\351\374\310V\340\202\372\004@\002\351"
 3115      1833403A 
 3115      E9FCC856 
 3115      E082FA04 
 3115      4002E9
 3116 1795 FC00020C 		.ascii	"\374\000\002\014\014\312\006\335\223\360\004\370\034"
 3116      0CCA06DD 
 3116      93F004F8 
 3116      1C
 3117 17a2 040C8904 		.ascii	"\004\014\211\004\204z\004\211\206\032\326X\340\020\200"
 3117      847A0489 
 3117      861AD658 
 3117      E01080
 3118 17b1 7C8898C8 		.ascii	"|\210\230\310\310\212x\004)\312h\002\034\340\024\341"
 3118      C88A7804 
 3118      29CA6802 
 3118      1CE014E1 
 3119 17c1 84028460 		.ascii	"\204\002\204`\020@Q\012$\230\023\302\027a\204\002\020"
 3119      1040510A 
 3119      249813C2 
 3119      17618402 
 3119      10
 3120 17d2 0C534011 		.ascii	"\014S@\021\354\004\302W`\034l\004\002P@\021\302\207"
 3120      EC04C257 
 3120      601C6C04 
 3120      02504011 
 3120      C287
 3121 17e4 C2276020 		.ascii	"\302'` `(@!f@\004@\006\031\300\003\2011`8\340\024@\221"
 3121      60284021 
 3121      66400440 
 3121      0619C003 
 3121      81316038 
 3122 17fc E0184071 		.ascii	"\340\030@q\340$@\201IH\201\225\354\004\0120\354\004"
 3122      E0244081 
 3122      49488195 
 3122      EC040A30 
 3122      EC04
 3123 180e 02104640 		.ascii	"\002\020F@\311]\241\033\234\000@1\374\365\201\001`,"
 3123      C95DA11B 
 3123      9C004031 
 3123      FCF58101 
ARM GAS  C:\Temp\ccVQrAGa.s 			page 84


 3123      602C
 3124 1820 F01C0C0C 		.ascii	"\360\034\014\014\301\303\335\223\360\200F\"\354p\006"
 3124      C1C3DD93 
 3124      F0804622 
 3124      EC7006
 3125 182f 3986A5A1 		.ascii	"9\206\245\241;\340<\0049\346\202@:\360\200F\"kq\006"
 3125      3BE03C04 
 3125      39E68240 
 3125      3AF08046 
 3125      226B7106 
 3126 1843 390630C0 		.ascii	"9\0060\300\005\342=\354\024\302\007\204\025\004\003"
 3126      05E23DEC 
 3126      14C20784 
 3126      150403
 3127 1852 8023C002 		.ascii	"\200#\300\002c\271\206\022\204\"A\032\205\015@\012\340"
 3127      63B98612 
 3127      8422411A 
 3127      850D400A 
 3127      E0
 3128 1863 04000CE1 		.ascii	"\004\000\014\341\204\335\223\342\000\201\001]\223\372"
 3128      84DD93E2 
 3128      0081015D 
 3128      93FA
 3129 1871 7C040CEC 		.ascii	"|\004\014\354p\036\360\201a\035\004\210\213|^\220\033"
 3129      701EF081 
 3129      611D0488 
 3129      8B7C5E90 
 3129      1B
 3130 1882 7E1E0006 		.ascii	"~\036\000\006>\016\213n\340\004\3408\004\271\201E\211"
 3130      3E0E8B6E 
 3130      E004E038 
 3130      04B98145 
 3130      89
 3131 1893 6E000045 		.ascii	"n\000\000En\241\013\354\004|\004\376\225\022 \207A@"
 3131      6EA10BEC 
 3131      047C04FE 
 3131      95122087 
 3131      4140
 3132 18a5 036571E6 		.ascii	"\003eq\346@\0240fA\0160\200n\300\003\302n\202N\000\006"
 3132      40143066 
 3132      410E3080 
 3132      6EC003C2 
 3132      6E824E00 
 3133 18ba 406EBE14 		.ascii	"@n\276\024\340\010\206N\204\016\304n\306n\234(\205\345"
 3133      E008864E 
 3133      840EC46E 
 3133      C66E9C28 
 3133      85E5
 3134 18cc 86A5A12B 		.ascii	"\206\245\241+\000\011\376\004\301-\340\020>\024\202"
 3134      0009FE04 
 3134      C12DE010 
 3134      3E1482
 3135 18db 45E00800 		.ascii	"E\340\010\000F\207\001\004\016\244\010\206\016\306\016"
 3135      46870104 
 3135      0EA40886 
 3135      0EC60E
 3136 18ea C46E06F0 		.ascii	"\304n\006\360*\024(\004\344@\177\375I\376<>\317\377"
ARM GAS  C:\Temp\ccVQrAGa.s 			page 85


 3136      2A142804 
 3136      E4407FFD 
 3136      49FE3C3E 
 3136      CFFF
 3137 18fc 5E188131 		.ascii	"^\030\2011\201Qo\374\201\225\211\004\203\001|$\210\016"
 3137      81516FFC 
 3137      81958904 
 3137      83017C24 
 3137      880E
 3138 190e 8711A418 		.ascii	"\207\021\244\030\212\036\312\036\310n\026\260a\016\002"
 3138      8A1ECA1E 
 3138      C86E16B0 
 3138      610E02
 3139 191d 91EC0482 		.ascii	"\221\354\004\202q\220\241\364U\241\273\270\361|\004"
 3139      7190A1F4 
 3139      55A1BBB8 
 3139      F17C04
 3140 192c A10B8004 		.ascii	"\241\013\200\004\300\010L\226\014\014\214\013\335\223"
 3140      C0084C96 
 3140      0C0C8C0B 
 3140      DD93
 3141 193a F27CFA7C 		.ascii	"\362|\372|\004\014\3540\036\360\210k\012\233\200\273"
 3141      040CEC30 
 3141      1EF0886B 
 3141      0A9B80BB 
 3142 194a 067B64D1 		.ascii	"\006{d\321\000\220\204\213@\001\010\220\002\253<\016"
 3142      0090848B 
 3142      40010890 
 3142      02AB3C0E 
 3143 195a E4906491 		.ascii	"\344\220d\221\012\220\016+\300\001xX\214;\241\013\357"
 3143      0A900E2B 
 3143      C0017858 
 3143      8C3BA10B 
 3143      EF
 3144 196b FC98F180 		.ascii	"\374\230\361\200\245\362|\014\014\004\220\335\223\226"
 3144      A5F27C0C 
 3144      0C0490DD 
 3144      9396
 3145 1979 0B64306F 		.ascii	"\013d0o\374e\210|\216\214\033\344\200\020\220\214\033"
 3145      FC65887C 
 3145      8E8C1BE4 
 3145      8010908C 
 3145      1B
 3146 198a 160B6FFC 		.ascii	"\026\013o\374kH<\236\220+|$\226\013\016;\224\033p\030"
 3146      6B483C9E 
 3146      902B7C24 
 3146      960B0E3B 
 3146      941B7018 
 3147 199e 8C4B905B 		.ascii	"\214K\220[o\374\014\014\230\361\335\223\362|\372\034"
 3147      6FFC0C0C 
 3147      98F1DD93 
 3147      F27CFA1C 
 3148 19ae 044C829B 		.ascii	"\004L\202\233\004\213\206{\010koH\020\031g`\004\200"
 3148      048B867B 
 3148      086B6F48 
 3148      10196760 
 3148      0480
ARM GAS  C:\Temp\ccVQrAGa.s 			page 86


 3149 19c0 1209C003 		.ascii	"\022\011\300\003\214;`\020\350\004Yh\340\020\016\005"
 3149      8C3B6010 
 3149      E8045968 
 3149      E0100E05 
 3150 19d0 E0340E1B 		.ascii	"\3404\016\033\357H\020)\340\020\0229\340\214\016I\201"
 3150      EF481029 
 3150      E0101239 
 3150      E08C0E49 
 3150      81
 3151 19e1 01180E4C 		.ascii	"\001\030\016L!\330\034L1\340\030LA\340\034\014L\340"
 3151      21D81C4C 
 3151      31E0184C 
 3151      41E01C0C 
 3151      4CE0
 3152 19f3 20DD93F2 		.ascii	" \335\223\362\034\372|\004L\201\261\023\244n@\002\""
 3152      1CFA7C04 
 3152      4C81B113 
 3152      A46E4002 
 3152      22
 3153 1a04 1174888B 		.ascii	"\021t\210\213(^\206k\017\276\201\221\201U\201!\202!"
 3153      285E866B 
 3153      0FBE8191 
 3153      81558121 
 3153      8221
 3154 1a16 4134FA24 		.ascii	"A4\372$R2\376u\303-A\376\240\235\200?\037\375\200\000"
 3154      5232FE75 
 3154      C32D41FE 
 3154      A09D803F 
 3154      1FFD8000 
 3155 1a2a 540506F0 		.ascii	"T\005\006\360\220\005\222\013dp\220+\012\033\3504^H"
 3155      9005920B 
 3155      6470902B 
 3155      0A1BE834 
 3155      5E48
 3156 1a3c 8E15A10B 		.ascii	"\216\025\241\013\220\033\022\013h4aH\241\013\216+\217"
 3156      901B120B 
 3156      68346148 
 3156      A10B8E2B 
 3156      8F
 3157 1a4d 848C3554 		.ascii	"\204\2145T\265\241\213@\226\000\000\212E\200\010\230"
 3157      B5A18B40 
 3157      9600008A 
 3157      45800898 
 3158 1a5d 1A9C04C7 		.ascii	"\032\234\004\307\007\232*\200\225\303\015\201\001D\015"
 3158      079A2A80 
 3158      95C30D81 
 3158      01440D
 3159 1a6c 40128825 		.ascii	"@\022\210%\004\006p\210B\262\377@\2011r\254\357\364"
 3159      04067088 
 3159      42B2FF40 
 3159      813172AC 
 3159      EFF4
 3160 1a7e 4E2860FC 		.ascii	"N(`\374\004\024$\017\303\007\0011\303\027D8\220+\004"
 3160      0414240F 
 3160      C3070131 
 3160      C3174438 
 3160      902B04
ARM GAS  C:\Temp\ccVQrAGa.s 			page 87


 3161 1a91 04EFF4FF 		.ascii	"\004\357\364\3771`\240\320\027q\007\242\017\007+\037"
 3161      3160A0D0 
 3161      177107A2 
 3161      0F072B1F 
 3162 1aa1 FC45FE45 		.ascii	"\374E\376E\376\241\013\250.\337\374\014L\201\001\335"
 3162      FEA10BA8 
 3162      2EDFFC0C 
 3162      4C8101DD 
 3163 1ab1 93F27CF8 		.ascii	"\223\362|\370\034\004\014\204\003\004\023a\212@\012"
 3163      1C040C84 
 3163      03041361 
 3163      8A400A
 3164 1ac0 421A8211 		.ascii	"B\032\202\021\004 a\212\030\004\354\004\014\004`\210"
 3164      0420618A 
 3164      1804EC04 
 3164      0C046088 
 3165 1ad0 08C5E08C 		.ascii	"\010\305\340\214NR|0\012e\360\230\205\015|\030\312\307"
 3165      4E527C30 
 3165      0A65F098 
 3165      850D7C18 
 3165      CAC7
 3166 1ae2 9E8412C4 		.ascii	"\236\204\022\304\246\303\214\303a|\362\240L\222\014"
 3166      A6C38CC3 
 3166      617CF2A0 
 3166      4C920C
 3167 1af1 041E6E1C 		.ascii	"\004\036n\034\316\340\204\014\313\212c\000\006i\000"
 3167      CEE0840C 
 3167      CB8A6300 
 3167      066900
 3168 1b00 00008000 		.ascii	"\000\000\200\000\203\013\304\004L\303\202\301\366\325"
 3168      830BC404 
 3168      4CC382C1 
 3168      F6D5
 3169 1b0e E900F01C 		.ascii	"\351\000\360\034\014\014\301\303\335\223\370\034\004"
 3169      0C0CC1C3 
 3169      DD93F81C 
 3169      04
 3170 1b1b 0C61FC18 		.ascii	"\014a\374\030$\004\303\242\003\003\307\206\003\013\304"
 3170      2404C3A2 
 3170      0303C786 
 3170      030BC4
 3171 1b2a 81814C0A 		.ascii	"\201\201L\012\270\003\0004a\216\011\004\340\210\360"
 3171      B8030034 
 3171      618E0904 
 3171      E088F0
 3172 1b39 804E420C 		.ascii	"\200NB\014\023\224\216B\032\304g\210ca\216\260\216\200"
 3172      13948E42 
 3172      1AC46788 
 3172      63618EB0 
 3172      8E80
 3173 1b4b 8EC41702 		.ascii	"\216\304\027\002#a\216F*\360\204DBBB\3047\006pp\214"
 3173      23618E46 
 3173      2AF08444 
 3173      424242C4 
 3173      37067070 
 3174 1b60 827BEC10 		.ascii	"\202{\354\020\024\224\331\204\020\223\306m\334\000L"
 3174      1494D984 
ARM GAS  C:\Temp\ccVQrAGa.s 			page 88


 3174      1093C66D 
 3174      DC004C
 3175 1b6f 40DD8494 		.ascii	"@\335\204\224\236\306}0\224N@\020\2230\236\334\000\374"
 3175      9EC67D30 
 3175      944E4010 
 3175      93309EDC 
 3175      00FC
 3176 1b81 35856BC9 		.ascii	"5\205k\311\304\200T\230S\306-D@\000^\203+\334\000\014"
 3176      C4805498 
 3176      53C62D44 
 3176      40005E83 
 3176      2BDC000C 
 3177 1b95 0CFE35DD 		.ascii	"\014\3765\335\223\360\034\376|\004\014\354@\036\360"
 3177      93F01CFE 
 3177      7C040CEC 
 3177      401EF0
 3178 1ba4 4C420813 		.ascii	"LB\010\023Lj\360\200\202\021a\222a\222B\032\340\210"
 3178      4C6AF080 
 3178      82116192 
 3178      6192421A 
 3178      E088
 3179 1bb6 1844D607 		.ascii	"\030D\326\007~>\304g\0314O\376D\027\300\001\177\375"
 3179      7E3EC467 
 3179      19344FFE 
 3179      4417C001 
 3179      7FFD
 3180 1bc8 52520AC3 		.ascii	"RR\012\303>>\360\204\360\230TR\006\300\014~|^\354\020"
 3180      3E3EF084 
 3180      F0985452 
 3180      06C00C7E 
 3180      7C5EEC10 
 3181 1bdc FCA81604 		.ascii	"\374\250\026\004\201\301\001A\201\021\001\201\351d\203"
 3181      81C10141 
 3181      81110181 
 3181      E96483
 3182 1beb F5C6AD7E 		.ascii	"\365\306\255~\004\036\245\312gNb@\010!}\361\200\014"
 3182      041EA5CA 
 3182      674E6240 
 3182      08217DF1 
 3182      800C
 3183 1bfd 068E6BA0 		.ascii	"\006\216k\240-@\000\234\000Lpa|\016d@j\214CXrd.Lj\362"
 3183      2D40009C 
 3183      004C7061 
 3183      7C0E6440 
 3183      6A8C4358 
 3184 1c17 B08083E4 		.ascii	"\260\200\203\344\256r\204Bbd\000\026\260\223\253\300"
 3184      AE728442 
 3184      62640016 
 3184      B093ABC0 
 3185 1c27 0818CAF8 		.ascii	"\010\030\312\3705\030\032\340\000\010*\340\000B\012"
 3185      35181AE0 
 3185      00082AE0 
 3185      00420A
 3186 1c36 E000421A 		.ascii	"\340\000B\032\345\200B\012\341\210\010E\355\200\200"
 3186      E580420A 
 3186      E1880845 
 3186      ED8080
ARM GAS  C:\Temp\ccVQrAGa.s 			page 89


 3187 1c45 08409661 		.ascii	"\010@\226a\204\000D\340\374\004\304\004\304$\017\020"
 3187      840044E0 
 3187      FC04C404 
 3187      C4240F10 
 3188 1c55 03E18442 		.ascii	"\003\341\204B\022\230;\210+r\210\357\360iH\340\000\003"
 3188      12983B88 
 3188      2B7288EF 
 3188      F06948E0 
 3188      0003
 3189 1c67 4A021A3E 		.ascii	"J\002\032>\024\000j\340\000B\012\340\000B\032\345\200"
 3189      14006AE0 
 3189      00420AE0 
 3189      00421AE5 
 3189      80
 3190 1c78 420AE188 		.ascii	"B\012\341\210\000\006\355\200\004\016\300\000\240\361"
 3190      0006ED80 
 3190      040EC000 
 3190      A0F1
 3191 1c86 8101F67C 		.ascii	"\201\001\366|\014\014\301\303\335\223\370|\004\014L"
 3191      0C0CC1C3 
 3191      DD93F87C 
 3191      040C4C
 3192 1c95 520D040C 		.ascii	"R\015\004\014#\360\200\360\224N\022a\226X*\354\004\020"
 3192      23F080F0 
 3192      944E1261 
 3192      96582AEC 
 3192      0410
 3193 1ca7 50C48702 		.ascii	"P\304\207\002q\0303\217$F:\304\307B\002a\226Lj\360\260"
 3193      7118338F 
 3193      24463AC4 
 3193      C7420261 
 3193      964C6AF0 
 3194 1cbc 829B6196 		.ascii	"\202\233a\226a\226Nz\3047\201Qp\214X\002\360\240F\002"
 3194      61964E7A 
 3194      C4378151 
 3194      708C5802 
 3194      F0A04602 
 3195 1cd0 E5A48165 		.ascii	"\345\244\201e\224S\306\235\334\000R\000\376U\231\233"
 3195      9453C69D 
 3195      DC005200 
 3195      FE55999B 
 3196 1ce0 A34D4467 		.ascii	"\243MDg\304w\004c\200\000\014\225R\222\002e\377\221"
 3196      C4770463 
 3196      80000C95 
 3196      52920265 
 3196      FF91
 3197 1cf2 90946024 		.ascii	"\220\224`$I\032\014\225\212\233R\222\240\000\030\236"
 3197      491A0C95 
 3197      8A9B5292 
 3197      A000189E 
 3198 1d02 B1940483 		.ascii	"\261\224\004\203\204s\203\325\377\221\305\264\361\244"
 3198      847383D5 
 3198      FF91C5B4 
 3198      F1A4
 3199 1d10 4AA28AA3 		.ascii	"J\242\212\243\014\245\361\254\002E\200\000\220\224T"
 3199      0CA5F1AC 
 3199      02458000 
ARM GAS  C:\Temp\ccVQrAGa.s 			page 90


 3199      909454
 3200 1d1f A2602449 		.ascii	"\242`$I\032\014\245\212\253T\242\240\000\030\256\261"
 3200      1A0CA58A 
 3200      AB54A2A0 
 3200      0018AEB1 
 3201 1d2f 94E40C59 		.ascii	"\224\344\014Y\032<\001X\000C\032@\000B\000\344\014\300"
 3201      1A3C0158 
 3201      00431A40 
 3201      004200E4 
 3201      0CC0
 3202 1d41 003C0164 		.ascii	"\000<\001d\020\024`U\032\204kL\240\344 L\032\274\000"
 3202      10146055 
 3202      1A846B4C 
 3202      A0E4204C 
 3202      1ABC00
 3203 1d54 3DB8E01C 		.ascii	"=\270\340\034\303\377?\375\014\014\201\001\335\223\360"
 3203      C3FF3FFD 
 3203      0C0C8101 
 3203      DD93F0
 3204 1d63 7CFA7C04 		.ascii	"|\372|\004\014\3540\036\360\3127\000\213\341\374\024"
 3204      0CEC301E 
 3204      F0CA3700 
 3204      8BE1FC14 
 3205 1d73 8400A490 		.ascii	"\204\000\244\220\243\2003\341\004`\242@:\341|\006Ta"
 3205      A38033E1 
 3205      0460A240 
 3205      3AE17C06 
 3205      5461
 3206 1d85 7C180456 		.ascii	"|\030\004V\302\252\003F\002\363\214\0274\371\254A\376"
 3206      C2AA0346 
 3206      02F38C17 
 3206      34F9AC41 
 3206      FE
 3207 1d96 A13B0001 		.ascii	"\241;\000\001\037\375\200\010N\226\012D\220\005\244"
 3207      1FFD8008 
 3207      4E960A44 
 3207      9005A4
 3208 1da5 43617C61 		.ascii	"Ca|a|\030$JR\377!\201qs\260Dr\004]>\036\361\200\022"
 3208      7C18244A 
 3208      52FF2181 
 3208      7173B044 
 3208      72045D3E 
 3209 1dbd 4480CBE0 		.ascii	"D\200\313\340Wa\300\034\000X \363\254Br\340G|>`\204"
 3209      5761C01C 
 3209      005820F3 
 3209      AC4272E0 
 3209      477C3E60 
 3210 1dd2 06B4E1FC 		.ascii	"\006\264\341\374\014\004`\204\004\004V\020\262_@\302"
 3210      0C046084 
 3210      04045610 
 3210      B25F40C2 
 3211 1de2 1C0042B2 		.ascii	"\034\000B\262\360\220\254?r\224\357\360\\\350\002\244"
 3211      F090AC3F 
 3211      7294EFF0 
 3211      5CE802A4 
 3212 1df2 95B4D6B7 		.ascii	"\225\264\326\267|\000\242\203>\024\243\213|4\004\001"
 3212      7C00A283 
ARM GAS  C:\Temp\ccVQrAGa.s 			page 91


 3212      3E14A38B 
 3212      7C340401 
 3213 1e02 0000D617 		.ascii	"\000\000\326\027\200\004\002\004\202\003\226\037\341"
 3213      80040204 
 3213      8203961F 
 3213      E1
 3214 1e0f 7C401A80 		.ascii	"|@\032\200\023\000\002\341\256\000\002\340\000\307\377"
 3214      130002E1 
 3214      AE0002E0 
 3214      00C7FF
 3215 1e1e 6BFD8E0B 		.ascii	"k\375\216\013\014\016\014\014\230\361\335\223\362|\372"
 3215      0C0E0C0C 
 3215      98F1DD93 
 3215      F27CFA
 3216 1e2d 7C040CEC 		.ascii	"|\004\014\354P\036\360\244\023\033t\244\003\011>\212"
 3216      501EF0A4 
 3216      131B74A4 
 3216      03093E8A 
 3217 1e3d 9B1F6446 		.ascii	"\233\037dFr\035\204V:\360\210\210+a\236|N\231\244\026"
 3217      721D8456 
 3217      3AF08888 
 3217      2B619E7C 
 3217      4E99A416 
 3218 1e51 138E4B7E 		.ascii	"\023\216K~\036\226\003!\264\240\023<n\223\035\304\004"
 3218      1E960321 
 3218      B4A0133C 
 3218      6E931DC4 
 3218      04
 3219 1e62 121070A4 		.ascii	"\022\020p\244B\002\002\020\224;\220[l\004\357\374ih"
 3219      42020210 
 3219      943B905B 
 3219      6C04EFFC 
 3219      6968
 3220 1e74 8615A10B 		.ascii	"\206\025\241\013\224;~\024\216K<\276\220[|$\344\004"
 3220      943B7E14 
 3220      8E4B3CBE 
 3220      905B7C24 
 3220      E404
 3221 1e86 00106FFC 		.ascii	"\000\020o\374h\250\241\013\262\003\030\004\202u@\012"
 3221      68A8A10B 
 3221      B2031804 
 3221      8275400A 
 3222 1e96 D677980E 		.ascii	"\326w\230\016\341\036@\012\254\004,\016\341\036\230"
 3222      E11E400A 
 3222      AC042C0E 
 3222      E11E98
 3223 1ea5 248101C2 		.ascii	"$\201\001\302-\254\024@\000L\025\334\000B \300\000V"
 3223      2DAC1440 
 3223      004C15DC 
 3223      004220C0 
 3223      0056
 3224 1eb7 25C0000C 		.ascii	"%\300\000\0145D0\0114\250\361\334\000L5\306-\026\025"
 3224      35443009 
 3224      34A8F1DC 
 3224      004C35C6 
 3224      2D1615
 3225 1eca C000C71D 		.ascii	"\300\000\307\035\300\000\300\000V5\362|\014\014\000"
ARM GAS  C:\Temp\ccVQrAGa.s 			page 92


 3225      C000C000 
 3225      5635F27C 
 3225      0C0C00
 3226 1ed9 0CDD93C0 		.ascii	"\014\335\223\300\000a\001\372|\004\014\354\360\036\360"
 3226      006101FA 
 3226      7C040CEC 
 3226      F01EF0
 3227 1ee8 849B111E 		.ascii	"\204\233\021\036\223N\225^\227>\217\016\263\024\214"
 3227      934E955E 
 3227      973E8F0E 
 3227      B3148C
 3228 1ef7 08191EA1 		.ascii	"\010\031\036\241\013\235\036\201\021\204E\233\036\340"
 3228      0B9D1E81 
 3228      1184459B 
 3228      1EE0
 3229 1f05 04000285 		.ascii	"\004\000\002\205\263\201\023\213\363\231\004\345\200"
 3229      B381138B 
 3229      F39904E5 
 3229      80
 3230 1f12 0000F860 		.ascii	"\000\000\370`@\025\3700@\025@\025\301\036@\025\340,"
 3230      4015F830 
 3230      40154015 
 3230      C11E4015 
 3230      E02C
 3231 1f24 9704E05C 		.ascii	"\227\004\340\\\241\013\202\0101\264\242%\257\204\201"
 3231      A10B8208 
 3231      31B4A225 
 3231      AF8481
 3232 1f33 711324AD 		.ascii	"q\023$\255\244\340\204\000t|\000\004C"
 3232      A4E08400 
 3232      747C0004 
 3232      43
 3233 1f40 F0804222 		.ascii	"\360\200B\"\340\220\002#\202E\204M\006t\031\004\200"
 3233      E0900223 
 3233      8245844D 
 3233      06741904 
 3233      80
 3234 1f51 33E08802 		.ascii	"3\340\210\002U\206\033\204\004\3600\031\004\205\365"
 3234      55861B84 
 3234      04F03019 
 3234      0485F5
 3235 1f60 E0880674 		.ascii	"\340\210\006tDB\011.\015~\372\010\0003\202!\006\033"
 3235      4442092E 
 3235      0D7EFA08 
 3235      00338221 
 3235      061B
 3236 1f72 A823E640 		.ascii	"\250#\346@\0140\3600\002U\002\305\204\004\005\023\340"
 3236      0C30F030 
 3236      025502C5 
 3236      84040513 
 3236      E0
 3237 1f83 60EC0404 		.ascii	"`\354\004\004@\213N\2053\350\0001<p\210N\242\202q\202"
 3237      408B4E85 
 3237      33E80031 
 3237      3C70884E 
 3237      A2827182 
 3238 1f97 21E1AA4E 		.ascii	"!\341\252Nz\020E\304w\210\003\374\034\344D\204\016\214"
ARM GAS  C:\Temp\ccVQrAGa.s 			page 93


 3238      7A1045C4 
 3238      778803FC 
 3238      1CE44484 
 3238      0E8C
 3239 1fa9 5E8853FC 		.ascii	"^\210S\374\034\026E\230\316\210\303\213D\215t Q\211"
 3239      1C164598 
 3239      CE88C38B 
 3239      448D7420 
 3239      5189
 3240 1fbb 24E0880C 		.ascii	"$\340\210\014t\010DKW\014^\373\200\036U\312\015@\002"
 3240      7408444B 
 3240      570C5EFB 
 3240      801E55CA 
 3240      0D4002
 3241 1fce 40300674 		.ascii	"@0\006t\321\224\202!@\210\372\200\030\244\320\224F2"
 3241      D1948221 
 3241      4088FA80 
 3241      18A4D094 
 3241      4632
 3242 1fe0 40604605 		.ascii	"@`F\005\361\220F\"\0064\017\004\000\011\373\000\031"
 3242      F1904622 
 3242      06340F04 
 3242      0009FB00 
 3242      19
 3243 1ff1 04E03080 		.ascii	"\004\3400\200c\241\013\346@\000`\300\000\000%\200\000"
 3243      63A10BE6 
 3243      400060C0 
 3243      00002580 
 3243      00
 3244 2002 04060000 		.ascii	"\004\006\000\000@%\200\000\004\006\246\004\221DPX\204"
 3244      40258000 
 3244      0406A604 
 3244      91445058 
 3244      84
 3245 2013 14E4D008 		.ascii	"\024\344\320\010\360\010\360|N\276N\344\340\225D\274"
 3245      F008F07C 
 3245      4EBE4EE4 
 3245      E09544BC 
 3246 2023 CEE80062 		.ascii	"\316\350\000b\010\202q!\013\2004\036\025\200\300L\025"
 3246      08827121 
 3246      0B80341E 
 3246      1580C04C 
 3246      15
 3247 2034 86189714 		.ascii	"\206\030\227\024\336\325\203}\002\013\200\033\014\014"
 3247      DED5837D 
 3247      020B801B 
 3247      0C0C
 3248 2042 F8F1DD93 		.ascii	"\370\361\335\223\362|\372|\004\014\355\360\036\360\036"
 3248      F27CFA7C 
 3248      040CEDF0 
 3248      1EF01E
 3249 2051 05A90E97 		.ascii	"\005\251\016\227.\340\254\340\264\036%\036\005\235\016"
 3249      2EE0ACE0 
 3249      B41E251E 
 3249      059D0E
 3250 2060 195EE0A0 		.ascii	"\031^\340\240\346@\030 \231Q\025\036\036\005\243\016"
 3250      E6401820 
ARM GAS  C:\Temp\ccVQrAGa.s 			page 94


 3250      9951151E 
 3250      1E05A30E 
 3251 2070 1E15E09C 		.ascii	"\036\025\340\234\036e\340\260\023\016\340\250\036\265"
 3251      1E65E0B0 
 3251      130EE0A8 
 3251      1EB5
 3252 207e 81011E75 		.ascii	"\201\001\036u\340\244\275\016\340\230\271\016\273\016"
 3252      E0A4BD0E 
 3252      E098B90E 
 3252      BB0E
 3253 208c B50EB70E 		.ascii	"\265\016\267\016\261\016\263\016\201E\257\016\012Pq"
 3253      B10EB30E 
 3253      8145AF0E 
 3253      0A5071
 3254 209b 0CA15BEC 		.ascii	"\014\241[\354\004)T\376\225\346@\024 \022\020\033~%"
 3254      042954FE 
 3254      95E64014 
 3254      2012101B 
 3254      7E25
 3255 20ad 6EE4C0E5 		.ascii	"n\344\300\345\200\014@e\001\030P\012P@\002\300\004f"
 3255      800C4065 
 3255      0118500A 
 3255      504002C0 
 3255      0466
 3256 20bf 01101021 		.ascii	"\001\020\020!\316\037^\346@\340\010D\226\201q'>\223"
 3256      CE1F5EE6 
 3256      40E00844 
 3256      96817127 
 3256      3E93
 3257 20d1 95ABBE02 		.ascii	"\225\253\276\002\012\244\024\307\377c\375\241\013\212"
 3257      0AA414C7 
 3257      FF63FDA1 
 3257      0B8A
 3258 20df 0525B486 		.ascii	"\005%\264\206\325\255.\226;\370\300\014\003x0\014\023"
 3258      D5AD2E96 
 3258      3BF8C00C 
 3258      0378300C 
 3258      13
 3259 20f0 A324964B 		.ascii	"\243$\226KkX\251T\241\013\350\000\014\003\202\265\201"
 3259      6B58A954 
 3259      A10BE800 
 3259      0C0382B5 
 3259      81
 3260 2101 2178C078 		.ascii	"!x\300x0\014\023\2534\226Kj\230\241T\241\013\350\000"
 3260      300C13AB 
 3260      34964B6A 
 3260      98A154A1 
 3260      0BE800
 3261 2114 A7348445 		.ascii	"\2474\204E\255$\253\264\342\244\004\012\017\374C\366"
 3261      AD24ABB4 
 3261      E2A4040A 
 3261      0FFC43F6 
 3262 2124 80084496 		.ascii	"\200\010D\226\200\000T\023\210\221\002q\204a\004\241"
 3262      80005413 
 3262      88910271 
 3262      846104A1 
 3263 2134 84810D85 		.ascii	"\204\201\015\205\201!+\264\370\300\014\003\3700\014"
ARM GAS  C:\Temp\ccVQrAGa.s 			page 95


 3263      81212BB4 
 3263      F8C00C03 
 3263      F8300C
 3264 2143 13963B1D 		.ascii	"\023\226;\035Dh\270\237T'4\350\000\255$\241\013 \002"
 3264      4468B89F 
 3264      542734E8 
 3264      00AD24A1 
 3264      0B2002
 3265 2156 F895E5A0 		.ascii	"\370\225\345\240\004\360\006\360\030\022>.\345\320\345"
 3265      04F006F0 
 3265      18123E2E 
 3265      E5D0E5
 3266 2165 B00AF096 		.ascii	"\260\012\360\226\003\021>\341\256@\012\274>\233\264"
 3266      03113EE1 
 3266      AE400ABC 
 3266      3E9BB4
 3267 2174 2B34AD0E 		.ascii	"+4\255\016\241D\226+\357\374L\350\000\360\030\022>\016"
 3267      A144962B 
 3267      EFFC4CE8 
 3267      00F01812 
 3267      3E0E
 3268 2186 E5C0E5E0 		.ascii	"\345\300\345\340\012\360\226+\021\004\251D\2534-\004"
 3268      0AF0962B 
 3268      1104A944 
 3268      AB342D04 
 3269 2196 BC0E4BF8 		.ascii	"\274\016K\370\206\273\227\004\357\374\3400\000\011\204"
 3269      86BB9704 
 3269      EFFCE030 
 3269      000984
 3270 21a5 05A10B65 		.ascii	"\005\241\013ep\000\360\345\200\004\360\012\360\030\022"
 3270      7000F0E5 
 3270      8004F00A 
 3270      F01812
 3271 21b4 3E0EE590 		.ascii	">\016\345\220\274.\226;\233$\255\004J\270\237D\275\004"
 3271      BC2E963B 
 3271      9B24AD04 
 3271      4AB89F44 
 3271      BD04
 3272 21c6 EFFC9924 		.ascii	"\357\374\231$\225\024\273\004\255\016\2654\263\264\204"
 3272      9514BB04 
 3272      AD0EB534 
 3272      B3B484
 3273 21d5 1A910E8B 		.ascii	"\032\221\016\213.\215\256\257\004\223$\211.\261\304"
 3273      2E8DAEAF 
 3273      04932489 
 3273      2EB1C4
 3274 21e4 FCBEFE0E 		.ascii	"\374\276\376\016\276\316\253\264\271D\274>\233\004\267"
 3274      BECEABB4 
 3274      B944BC3E 
 3274      9B04B7
 3275 21f3 549134AD 		.ascii	"T\2214\255$\350\030uh\201\001\000+\361\325\2474\203"
 3275      24E81875 
 3275      68810100 
 3275      2BF1D5A7 
 3275      3483
 3276 2205 7D8E181E 		.ascii	"}\216\030\036\360\330\325\014\014\345\360\335\223\362"
 3276      F0D8D50C 
ARM GAS  C:\Temp\ccVQrAGa.s 			page 96


 3276      0CE5F0DD 
 3276      93F2
 3277 2213 7CFA7C04 		.ascii	"|\372|\004\014\354P\036\360\202\213>.\000P\000\233\031"
 3277      0CEC501E 
 3277      F0828B3E 
 3277      2E005000 
 3277      9B19
 3278 2225 11E76081 		.ascii	"\021\347`\201\205\201!x`@#\354\004\002\020\3700@#\241"
 3278      85812178 
 3278      604023EC 
 3278      040210F8 
 3278      304023A1 
 3279 2239 1BC12C0C 		.ascii	"\033\301,\014P\376\025\016@g`|>\344\300\276\264\201"
 3279      50FE150E 
 3279      4067607C 
 3279      3EE4C0BE 
 3279      B481
 3280 224b A19C0485 		.ascii	"\241\234\004\205\325c\375\000\012\210\245\307\377x0"
 3280      D563FD00 
 3280      0A88A5C7 
 3280      FF7830
 3281 225a 0E15A024 		.ascii	"\016\025\240$\226\013\340B\244:B\230\344X\011\016\350"
 3281      960BE042 
 3281      A43A4298 
 3281      E458090E 
 3281      E8
 3282 226b 009C1496 		.ascii	"\000\234\024\226\013\244:\240$\344X\340B\350\000B\010"
 3282      0BA43AA0 
 3282      24E458E0 
 3282      42E80042 
 3282      08
 3283 227c 960B7E0E 		.ascii	"\226\013~\016\3400\016\025\244:\240$\344X\340B\350\000"
 3283      E0300E15 
 3283      A43AA024 
 3283      E458E042 
 3283      E800
 3284 228e 4168FC34 		.ascii	"Ah\3744\376\024\370`L\023\230\014\211\024\3700L\023"
 3284      FE14F860 
 3284      4C13980C 
 3284      8914F830 
 3284      4C13
 3285 22a0 846102A1 		.ascii	"\204a\002\241\216\010\210q\364U\201\255\250\361\001"
 3285      8E088871 
 3285      F45581AD 
 3285      A8F101
 3286 22af 01F27C0C 		.ascii	"\001\362|\014\014\301\303\335\223\030\016$\023D\032"
 3286      0CC1C3DD 
 3286      93180E24 
 3286      13441A
 3287 22be F000401A 		.ascii	"\360\000@\032\344\202\002$\344\002\202\317\341|\201"
 3287      E4820224 
 3287      E40282CF 
 3287      E17C81
 3288 22cd 0100C3F2 		.ascii	"\001\000\303\362\204B\"d\001\004\300B\022\300\200\030"
 3288      84422264 
 3288      0104C042 
 3288      12C08018 
ARM GAS  C:\Temp\ccVQrAGa.s 			page 97


 3289 22dd 14F280E1 		.ascii	"\024\362\200\341\307\341|B\022\230#\341'r\200\242/\340"
 3289      C7E17C42 
 3289      129823E1 
 3289      277280A2 
 3289      2FE0
 3290 22ef 17080E08 		.ascii	"\027\010\016\010#B*\377\000D*\344\216\006\024\344\016"
 3290      23422AFF 
 3290      00442AE4 
 3290      8E0614E4 
 3290      0E
 3291 2300 864FE17C 		.ascii	"\206O\341|B\022\210#\004 \362\214\300\010d\001\362\200"
 3291      42128823 
 3291      0420F28C 
 3291      C0086401 
 3291      F280
 3292 2312 4212E17C 		.ascii	"B\022\341|\006\024\206#\3517r\200B\022\350\027\331'"
 3292      06148623 
 3292      E9377280 
 3292      4212E817 
 3292      D927
 3293 2324 020E222F 		.ascii	"\002\016\"/B\"\370\000\002\022\372\004\300\177k\375"
 3293      4222F800 
 3293      0212FA04 
 3293      C07F6BFD 
 3294 2334 4010A11D 		.ascii	"@\020\241\035\240]\034\000@\020]\223\301\303\234\000"
 3294      A05D1C00 
 3294      40105D93 
 3294      C1C39C00 
 3295 2344 FA3C04CC 		.ascii	"\372<\004\314\210k\000\213`,\020\011\001\241\203A 4"
 3295      886B008B 
 3295      602C1009 
 3295      01A18341 
 3295      2034
 3296 2356 C827214F 		.ascii	"\310'!O\206{\017\256\202\013\015\256\204\033R\230\210"
 3296      867B0FAE 
 3296      820B0DAE 
 3296      841B5298 
 3296      88
 3297 2367 2B58AEE8 		.ascii	"+X\256\3500\032\256\200\233\344p\004\360\222\033\016"
 3297      301AAE80 
 3297      9BE47004 
 3297      F0921B0E 
 3298 2377 0BE83057 		.ascii	"\013\3500W\250\2045\241\013\006\360\017\004\"\024\344"
 3298      A88435A1 
 3298      0B06F00F 
 3298      042214E4 
 3299 2387 60580E92 		.ascii	"`X\016\222+S\230\216\013\241\013\3500\200\030\036\005"
 3299      2B53988E 
 3299      0BA10BE8 
 3299      3080181E 
 3299      05
 3300 2398 00044C05 		.ascii	"\000\004L\005\200\000\000\006\362<\014\314\301\303\335"
 3300      80000006 
 3300      F23C0CCC 
 3300      C1C3DD
 3301 23a7 93FA7C04 		.ascii	"\223\372|\004\014\3540\036\360\210\233\000{`,\016\011"
 3301      0CEC301E 
ARM GAS  C:\Temp\ccVQrAGa.s 			page 98


 3301      F0889B00 
 3301      7B602C0E 
 3301      09
 3302 23b8 0E29846B 		.ascii	"\016)\204k\203Q`0`\020\016K!_\201\261\0344\206\253|"
 3302      83516030 
 3302      60100E4B 
 3302      215F81B1 
 3302      1C3486AB 
 3303 23cd BE820BE8 		.ascii	"\276\202\013\350\210\004T\210\033>\276\3500O\010\000"
 3303      88045488 
 3303      1B3EBEE8 
 3303      304F0800 
 3304 23dd 90008B01 		.ascii	"\220\000\213\001\225\344\300A\276\231\021\354\004\002"
 3304      95E4C041 
 3304      BE9911EC 
 3304      0402
 3305 23eb 10F83440 		.ascii	"\020\3704@\265\340,@\265\376\025\241\033e\200\024\240"
 3305      B5E02C40 
 3305      B5FE15A1 
 3305      1B658014 
 3305      A0
 3306 23fc 05C5E091 		.ascii	"\005\305\340\221\241\013\201\001(\004\210\325\344 \004"
 3306      A10B8101 
 3306      280488D5 
 3306      E42004
 3307 240b F0683053 		.ascii	"\360h0S\010\241\013\220\033|\004\206\325\344\020\006"
 3307      08A10B90 
 3307      1B7C0486 
 3307      D5E41006 
 3308 241b F0A40E90 		.ascii	"\360\244\016\220+\236\024\250\004\3500N\350\204u\241"
 3308      2B9E14A8 
 3308      04E8304E 
 3308      E88475A1 
 3309 242b 0B06F03E 		.ascii	"\013\006\360>\004\220+\344\020\3700R\005\340`\024\005"
 3309      04902BE4 
 3309      10F83052 
 3309      05E06014 
 3309      05
 3310 243c 4E189E14 		.ascii	"N\030\236\024\241\013\3500\200\004\036\005\0000R\005"
 3310      A10BE830 
 3310      80041E05 
 3310      00305205 
 3311 244c 80000006 		.ascii	"\200\000\000\006\210\241\002\261\232\030\210\221\364"
 3311      88A102B1 
 3311      9A188891 
 3311      F4
 3312 2459 9583BD0C 		.ascii	"\225\203\275\014\014\230\361\335\223\362|\372|\004L"
 3312      0C98F1DD 
 3312      93F27CFA 
 3312      7C044C
 3313 2468 847B1124 		.ascii	"\204{\021$\210\233\025\244\377\201\023\264A\366\241"
 3313      889B15A4 
 3313      FF8113B4 
 3313      41F6A1
 3314 2477 2B4C960F 		.ascii	"+L\226\017\374\212\005\200\010D*+?F:\346\212\201af\216"
 3314      FC8A0580 
 3314      08442A2B 
ARM GAS  C:\Temp\ccVQrAGa.s 			page 99


 3314      3F463AE6 
 3314      8A816166 
 3315 248c 423A8F1E 		.ascii	"B:\217\036F:\345\002\000$e\202\202\003\341\204r\230"
 3315      463AE502 
 3315      00246582 
 3315      8203E184 
 3315      7298
 3316 249e 42327398 		.ascii	"B2s\230\2011\017$\357\354A\376\221\013\241\033\037\374"
 3316      81310F24 
 3316      EFEC41FE 
 3316      910BA11B 
 3316      1FFC
 3317 24b0 5FFC41FE 		.ascii	"_\374A\376\002\224\241\233\201\201A\204P\234B\022P\032"
 3317      0294A19B 
 3317      81814184 
 3317      509C4212 
 3317      501A
 3318 24c2 84738073 		.ascii	"\204s\200s@&@\212\216\203\254\216\360\012\214\013(\016"
 3318      4026408A 
 3318      8E83AC8E 
 3318      F00A8C0B 
 3318      280E
 3319 24d4 F27C0C4C 		.ascii	"\362|\014L\301\303\335\223\346\202@\032d\001\000\000"
 3319      C1C3DD93 
 3319      E682401A 
 3319      64010000 
 3320 24e4 DF07C040 		.ascii	"\337\007\300@o\375\000\002]\223\300?\373\200\000\004"
 3320      6FFD0002 
 3320      5D93C03F 
 3320      FB800004 
 3321 24f4 FE7C040C 		.ascii	"\376|\004\014\354`\036\360\202{\004\233\201a\000[\201"
 3321      EC601EF0 
 3321      827B049B 
 3321      8161005B 
 3321      81
 3322 2505 11120B81 		.ascii	"\021\022\013\201\261\001\241\003\012\201\305\202u\342"
 3322      B101A103 
 3322      0A81C582 
 3322      75E2
 3323 2513 3CF00800 		.ascii	"<\360\010\000%\370\004\000EVB\204\243\202\021r\254\374"
 3323      25F80400 
 3323      45564284 
 3323      A3821172 
 3323      ACFC
 3324 2525 958F1D60 		.ascii	"\225\217\035`\000\027J\341\204\000\244`\000\026\032"
 3324      00174AE1 
 3324      8400A460 
 3324      00161A
 3325 2534 E0FC02B4 		.ascii	"\340\374\002\264`\000\024j~\016\242\017\345\200B\012"
 3325      6000146A 
 3325      7E0EA20F 
 3325      E580420A 
 3326 2544 6188421A 		.ascii	"a\210B\032\341\204\000\264B*|\016>>\355\200\3440\020"
 3326      E18400B4 
 3326      422A7C0E 
 3326      3E3EED80 
 3326      E43010
ARM GAS  C:\Temp\ccVQrAGa.s 			page 100


 3327 2557 305E2789 		.ascii	"0^'\211^\211\245\340\\`\034L\312D\012\201\001@\012\341"
 3327      5E89A5E0 
 3327      5C601C4C 
 3327      CA440A81 
 3327      01400AE1 
 3328 256b 808EE5E9 		.ascii	"\200\216\345\351\234\201\001&$\004\312\244\024\004\032"
 3328      9C810126 
 3328      2404CAA4 
 3328      14041A
 3329 257a E000022A 		.ascii	"\340\000\002*\340\000B\012\340\000B\032\345\200\036"
 3329      E000420A 
 3329      E000421A 
 3329      E5801E
 3330 2589 27E18842 		.ascii	"'\341\210B\012\340\\\212\245\355\200d|\013\012\000P"
 3330      0AE05C8A 
 3330      A5ED8064 
 3330      7C0B0A00 
 3330      50
 3331 259a 823B4620 		.ascii	"\202;F l\200DR\234\000\002\006{\200\000\"\300\000 #"
 3331      6C804452 
 3331      9C000206 
 3331      7B800022 
 3331      C0002023 
 3332 25ae EC7CEF80 		.ascii	"\354|\357\200\010\024l\000\012\004~\004\241?HR\241\037"
 3332      08146C00 
 3332      0A047E04 
 3332      A13F4852 
 3332      A11F
 3333 25c0 04227890 		.ascii	"\004\"x\220\250?\354\004\202\003|\024\224+%?r\204B2"
 3333      A83FEC04 
 3333      82037C14 
 3333      942B253F 
 3333      72844232 
 3334 25d4 69F8963B 		.ascii	"i\370\226;\011T\357\354g\375\000\212A\366\300\377\241"
 3334      0954EFEC 
 3334      67FD008A 
 3334      41F6C0FF 
 3334      A1
 3335 25e5 1B0FFCCF 		.ascii	"\033\017\374\317\374A\366\202aa\014\014\012\220\221"
 3335      FC41F682 
 3335      61610C0C 
 3335      0A9091
 3336 25f4 ECB5E240 		.ascii	"\354\265\342@\260\361>\004\340\030@q\340\034@Q\366|"
 3336      B0F13E04 
 3336      E0184071 
 3336      E01C4051 
 3336      F67C
 3337 2606 0C0CC1C3 		.ascii	"\014\014\301\303\335\223\370\000\004L\002\020\012(\010"
 3337      DD93F800 
 3337      044C0210 
 3337      0A2808
 3338 2615 14EC04E0 		.ascii	"\024\354\004\3401a\374\203A\010\023\203\027\003\245"
 3338      3161FC83 
 3338      41081383 
 3338      1703A5
 3339 2624 7830065B 		.ascii	"x0\006[\354\004\004 \202`\200\300F\303\212\303\315Z"
 3339      EC040420 
ARM GAS  C:\Temp\ccVQrAGa.s 			page 101


 3339      826080C0 
 3339      46C38AC3 
 3339      CD5A
 3340 2636 F8600AC4 		.ascii	"\370`\012\304\012c\030d\373\000JB{\000Fc\361\224\230"
 3340      0A631864 
 3340      FB004A42 
 3340      7B004663 
 3340      F19498
 3341 2649 53602CFB 		.ascii	"S`,\373\024J\022\340\\FS\370\365\241+\014L\201\001\335"
 3341      144A12E0 
 3341      5C4653F8 
 3341      F5A12B0C 
 3341      4C8101DD 
 3342 265d 93F000F8 		.ascii	"\223\360\000\370\004\004\014`\210\0144\001E\212{\360"
 3342      04040C60 
 3342      880C3401 
 3342      458A7BF0 
 3343 266d 985852D9 		.ascii	"\230XR\331}\335.\006\023\376\325D\012\206\003\202\021"
 3343      7DDD2E06 
 3343      13FED544 
 3343      0A860382 
 3343      11
 3344 267e 618E618E 		.ascii	"a\216a\216F\032\360\230@B\0144\304'BB`\210FR\360\210"
 3344      461AF098 
 3344      40420C34 
 3344      C4274242 
 3344      60884652 
 3345 2694 44427088 		.ascii	"DBp\210\201\225\360\230\301\035\305dB@\315n\331=\034"
 3345      8195F098 
 3345      C11DC564 
 3345      4240CD6E 
 3345      D93D1C
 3346 26a7 009C0046 		.ascii	"\000\234\000FP\374\365\205\033\014\014\201\001\335\223"
 3346      50FCF585 
 3346      1B0C0C81 
 3346      01DD93
 3347 26b6 F004FA7C 		.ascii	"\360\004\372|\004\014\354p\036\360\0004\000\213\006"
 3347      040CEC70 
 3347      1EF00034 
 3347      008B06
 3348 26c5 03E1FC1F 		.ascii	"\003\341\374\037\024\202\273\015>\203\007\0354\212k"
 3348      1482BB0D 
 3348      3E83071D 
 3348      348A6B
 3349 26d4 2374845B 		.ascii	"#t\204[!\244\240+>\036\202\233\013N\220\013~.\201A\011"
 3349      21A4A02B 
 3349      3E1E829B 
 3349      0B4E900B 
 3349      7E2E8141 
 3350 26e9 3EAA233C 		.ascii	">\252#<>\226\033|^\212;l\330\214[\241\013\357\370\011"
 3350      3E961B7C 
 3350      5E8A3B6C 
 3350      D88C5BA1 
 3350      0BEFF809 
 3351 26fd 0486753E 		.ascii	"\004\206u>\256\201A~$\226\033<\016\214[\2154\220\013"
 3351      AE81417E 
 3351      24961B3C 
ARM GAS  C:\Temp\ccVQrAGa.s 			page 102


 3351      0E8C5B8D 
 3351      34900B
 3352 2710 EFF86C08 		.ascii	"\357\370l\010\202\325\241\013\201A\015$\226\033~\004"
 3352      82D5A10B 
 3352      81410D24 
 3352      961B7E04 
 3353 2720 8C5B3E7E 		.ascii	"\214[>~\011\004\3744<\016\200#k\030\220\013\026\033"
 3353      0904FC34 
 3353      3C0E8023 
 3353      6B18900B 
 3353      161B
 3354 2732 EFF80B64 		.ascii	"\357\370\013d\226\215\011\016\214\273\012U\224K%\224"
 3354      968D090E 
 3354      8CBB0A55 
 3354      944B2594 
 3355 2742 920BFA20 		.ascii	"\222\013\372 B\022\260\023\202\021\247\024\203\023\203"
 3355      4212B013 
 3355      8211A714 
 3355      831383
 3356 2751 B38D1EE8 		.ascii	"\263\215\036\350\0001\354p\240F\262F:\200\033\202\201"
 3356      0031EC70 
 3356      A046B246 
 3356      3A801B82 
 3356      81
 3357 2762 61AE00A5 		.ascii	"a\256\000\245\3047\210\013|\014|\014\010U\360\214D\222"
 3357      C437880B 
 3357      7C0C7C0C 
 3357      0855F08C 
 3357      4492
 3358 2774 FC0C0EC5 		.ascii	"\374\014\016\305q\230H\242\012C\214\2438C\264S\010N"
 3358      719848A2 
 3358      0A438CA3 
 3358      3843B453 
 3358      084E
 3359 2786 98530D14 		.ascii	"\230S\015\024\200K\2023\202\013\011\004\214^\014\014"
 3359      804B8233 
 3359      820B0904 
 3359      8C5E0C0C 
 3360 2796 B8F1DD93 		.ascii	"\270\361\335\223\362|\372|\004\014\354\320\036\360\200"
 3360      F27CFA7C 
 3360      040CECD0 
 3360      1EF080
 3361 27a5 BB290482 		.ascii	"\273)\004\202\213/tC\376\023N\300\001\177\375\212k\017"
 3361      8B2F7443 
 3361      FE134EC0 
 3361      017FFD8A 
 3361      6B0F
 3362 27b7 2EB144B3 		.ascii	".\261D\263$\201\001~\016\234\016\221>\227\016\231\016"
 3362      2481017E 
 3362      0E9C0E91 
 3362      3E970E99 
 3362      0E
 3363 27c8 41F6150E 		.ascii	"A\366\025\016\213N\340\014\215.\220\014\255\224\210"
 3363      8B4EE00C 
 3363      8D2E900C 
 3363      AD9488
 3364 27d7 1E91A4AB 		.ascii	"\036\221\244\253T@b\211~B\012\360\254\304\027\341\232"
ARM GAS  C:\Temp\ccVQrAGa.s 			page 103


 3364      54406289 
 3364      7E420AF0 
 3364      ACC417E1 
 3364      9A
 3365 27e8 FC040A25 		.ascii	"\374\004\012%\204\245\241+\204\345\241-\374\004\022"
 3365      84A5A12B 
 3365      84E5A12D 
 3365      FC0412
 3366 27f7 158E95A1 		.ascii	"\025\216\225\241\035@\012\202\001\304\007\341\232\374"
 3366      1D400A82 
 3366      01C407E1 
 3366      9AFC
 3367 2805 000A158C 		.ascii	"\000\012\025\214\225\241\035|\000\022\005\202\015\377"
 3367      95A11D7C 
 3367      00120582 
 3367      0DFF
 3368 2813 1181A58A 		.ascii	"\021\201\245\212\365\374\004\022\005\212E\241\013|\004"
 3368      F5FC0412 
 3368      058A45A1 
 3368      0B7C04
 3369 2822 1205820D 		.ascii	"\022\005\202\015\377\021\003\001\210\245\344\260\002"
 3369      FF110301 
 3369      88A5E4B0 
 3369      02
 3370 282f F08A7B1C 		.ascii	"\360\212{\034\016\012\360\013\004\024+\344\300\000\274"
 3370      0E0AF00B 
 3370      04142BE4 
 3370      C000BC
 3371 283e 8C3BE4A0 		.ascii	"\214;\344\240\000\360\226\013>\016\217\024\274\036V"
 3371      00F0960B 
 3371      3E0E8F14 
 3371      BC1E56
 3372 284d 58FE440D 		.ascii	"X\376D\015\004\357\370\231$\226\033>\016\2274\225D\224"
 3372      04EFF899 
 3372      24961B3E 
 3372      0E973495 
 3372      4494
 3373 285f 0B9354BC 		.ascii	"\013\223T\274n\357\370h\010\216[\011t\342\244\000\012"
 3373      6EEFF868 
 3373      088E5B09 
 3373      74E2A400 
 3373      0A
 3374 2870 81018075 		.ascii	"\201\001\200u\202\261\234\016\200\205\221\275\241\013"
 3374      82B19C0E 
 3374      808591BD 
 3374      A10B
 3375 287e 9C040101 		.ascii	"\234\004\001\001\352\345\014\014\350\361\335\223\362"
 3375      EAE50C0C 
 3375      E8F1DD93 
 3375      F2
 3376 288b 7CFA7C04 		.ascii	"|\372|\004L\202{\000k`\024\014\031\340\000@\306\224"
 3376      4C827B00 
 3376      6B60140C 
 3376      19E00040 
 3376      C694
 3377 289d 75F41DE0 		.ascii	"u\364\035\340\030\014)\222\365\360-\346\206P*\345\000"
 3377      180C2992 
ARM GAS  C:\Temp\ccVQrAGa.s 			page 104


 3377      F5F02DE6 
 3377      86502AE5 
 3377      00
 3378 28ae 110A1921 		.ascii	"\021\012\031!\222Uv\330\216\013\214\033o\354d0\000p"
 3378      925576D8 
 3378      8E0B8C1B 
 3378      6FEC6430 
 3378      0070
 3379 28c0 E0040206 		.ascii	"\340\004\002\006\201\221\001U\002\020A\234\241\033\354"
 3379      81910155 
 3379      0210419C 
 3379      A11BEC
 3380 28cf 040060FE 		.ascii	"\004\000`\376\225\201\261d\220\201\021\001\225\345\000"
 3380      9581B164 
 3380      90811101 
 3380      95E500
 3381 28de 028A4124 		.ascii	"\002\212A$\200\345V\"\202\021\321\035\372\254\000\264"
 3381      80E55622 
 3381      8211D11D 
 3381      FAAC00B4 
 3382 28ee FE15D8B7 		.ascii	"\376\025\330\267a\320\230q\017\016\201\241Ha\201\001"
 3382      61D09871 
 3382      0F0E81A1 
 3382      48618101 
 3383 28fe 03D54096 		.ascii	"\003\325@\226\030$\241+\340\010\017\024\204\205\341"
 3383      1824A12B 
 3383      E0080F14 
 3383      8485E1
 3384 290d 84002481 		.ascii	"\204\000$\2011\026\003o\354P\010\362\244B\022g\375\000"
 3384      3116036F 
 3384      EC5008F2 
 3384      A4421267 
 3384      FD00
 3385 291f 8A41F6C0 		.ascii	"\212A\366\300\377\241\033\017\374\317\374A\366\201\001"
 3385      FFA11B0F 
 3385      FCCFFC41 
 3385      F68101
 3386 292e 1C0C8471 		.ascii	"\034\014\204q\002\241\321\255\210a\025\012\200\305\200"
 3386      02A1D1AD 
 3386      8861150A 
 3386      80C580
 3387 293d 75E4FCF6 		.ascii	"u\344\374\366\345\241\013\362|\014L\301\303\335\223"
 3387      E5A10BF2 
 3387      7C0C4CC1 
 3387      C3DD93
 3388 294c FA7C040C 		.ascii	"\372|\004\014\354\360\036\360\206k\004\210`\020\002"
 3388      ECF01EF0 
 3388      866B0488 
 3388      601002
 3389 295b 1900A981 		.ascii	"\031\000\251\201\221\006\016`\020\300\000r\300\210\273"
 3389      91060E60 
 3389      10C00072 
 3389      C088BB
 3390 296a 1D9E4296 		.ascii	"\035\236B\226~\036\300\001g\271\213\036\200\004\021"
 3390      7E1EC001 
 3390      67B98B1E 
 3390      800411
ARM GAS  C:\Temp\ccVQrAGa.s 			page 105


 3391 2979 0E8D1E63 		.ascii	"\016\215\036c!AV\025\016\300\001n\241\000\006\033\016"
 3391      21415615 
 3391      0EC0016E 
 3391      A100061B 
 3391      0E
 3392 298a C0018F1E 		.ascii	"\300\001\217\036\204\013\031\036\223\036\227>\214\033"
 3392      840B191E 
 3392      931E973E 
 3392      8C1B
 3393 2998 E80048C8 		.ascii	"\350\000H\310l\004\000\240\340\010B\306t\034\001\012"
 3393      6C0400A0 
 3393      E00842C6 
 3393      741C010A 
 3394 29a8 090E8101 		.ascii	"\011\016\201\001\200\210\000\244\004P\002\360\340\020"
 3394      808800A4 
 3394      045002F0 
 3394      E010
 3395 29b6 101A1C00 		.ascii	"\020\032\034\000\002\005\200\000\002\006\000\020^\005"
 3395      02058000 
 3395      02060010 
 3395      5E05
 3396 29c4 0904B18B 		.ascii	"\011\004\261\213\355\200B\012\300\010B\306B\306\241"
 3396      ED80420A 
 3396      C00842C6 
 3396      42C6A1
 3397 29d3 0BE5AD00 		.ascii	"\013\345\255\000\010\212\225\374\036\241\013\374\004"
 3397      088A95FC 
 3397      1EA10BFC 
 3397      04
 3398 29e0 7E148A35 		.ascii	"~\024\2125\016\013\220{I\230\226+\030\261\350\000\004"
 3398      0E0B907B 
 3398      4998962B 
 3398      18B1E800 
 3398      04
 3399 29f1 06811196 		.ascii	"\006\201\021\226\013`\010\357\354r\310\346\236Nz\000"
 3399      0B6008EF 
 3399      EC72C8E6 
 3399      9E4E7A00 
 3400 2a01 068375E7 		.ascii	"\006\203u\347\255a\000\204\025\235\016\000\360\0304"
 3400      AD610084 
 3400      159D0E00 
 3400      F01834
 3401 2a10 1A44E4E0 		.ascii	"\032D\344\340\341\354\013v\220\033>\016\376$\211\004"
 3401      E1EC0B76 
 3401      901B3E0E 
 3401      FE248904 
 3402 2a20 920B3C0E 		.ascii	"\222\013<\016\350\000@\310m\014\235\004\223{\202\221"
 3402      E80040C8 
 3402      6D0C9D04 
 3402      937B8291 
 3403 2a30 7C04FA35 		.ascii	"|\004\3725\014\014\370\361\335\223\362|\370|\004\014"
 3403      0C0CF8F1 
 3403      DD93F27C 
 3403      F87C040C 
 3404 2a40 61064E0A 		.ascii	"a\006N\012\340\210\022$`\006P\012\017D\210\313N\232"
 3404      E0881224 
 3404      6006500A 
ARM GAS  C:\Temp\ccVQrAGa.s 			page 106


 3404      0F4488CB 
 3404      4E9A
 3405 2a52 866B8111 		.ascii	"\206k\201\021f\236\346\242P\232\216c\0154@*\020\303"
 3405      669EE6A2 
 3405      509A8E63 
 3405      0D34402A 
 3405      10C3
 3406 2a64 101EE68A 		.ascii	"\020\036\346\212\360\244Nbe\016D:\360\244P\302\345\216"
 3406      F0A44E62 
 3406      650E443A 
 3406      F0A450C2 
 3406      E58E
 3407 2a76 463A8FAD 		.ascii	"F:\217\255\201\305F\252V\252\304\020\024\240\320\244"
 3407      81C546AA 
 3407      56AAC410 
 3407      14A0D0A4 
 3408 2a86 56B24212 		.ascii	"V\262B\022~5\210\301\320\254R\312\221\315T`F\262\374"
 3408      7E3588C1 
 3408      D0AC52CA 
 3408      91CD5460 
 3408      46B2FC
 3409 2a99 15DC00E1 		.ascii	"\025\334\000\341\204\030\004BZ\002\303@\312\346\226"
 3409      84180442 
 3409      5A02C340 
 3409      CAE696
 3410 2aa8 0C0CE002 		.ascii	"\014\014\340\002\2015\360|\301\303\213E\372\000\004"
 3410      8135F07C 
 3410      C1C38B45 
 3410      FA0004
 3411 2ab7 0C480A08 		.ascii	"\014H\012\010k@\012\345\006\012$e\206\002D\341\204\350"
 3411      6B400AE5 
 3411      060A2465 
 3411      860244E1 
 3411      84E8
 3412 2ac9 4761B018 		.ascii	"Ga\260\0304h\007 \037\341\204\340\374\0004@B\240_A\270"
 3412      34680720 
 3412      1FE184E0 
 3412      FC003440 
 3412      42A05F41 
 3413 2ade F0944212 		.ascii	"\360\224B\022o\354\004\006\362\260@@`\001\204\003\377"
 3413      6FEC0406 
 3413      F2B04040 
 3413      60018403 
 3413      FF
 3414 2aef 31813107 		.ascii	"1\2011\007\013r\214B\022\237\374A\376A\376\241\033@"
 3414      0B728C42 
 3414      129FFC41 
 3414      FE41FEA1 
 3414      1B40
 3415 2b01 0ADFFC02 		.ascii	"\012\337\374\002\004\360\012\204\023\341\204\340\002"
 3415      04F00A84 
 3415      13E184E0 
 3415      02
 3416 2b0e 401A8101 		.ascii	"@\032\201\001\030\016\362\000\014\014\301\303\335\223"
 3416      180EF200 
 3416      0C0CC1C3 
 3416      DD93
ARM GAS  C:\Temp\ccVQrAGa.s 			page 107


 3417 2b1c 60144401 		.ascii	"`\024D\001\010<\2011\012<\257A\374\000\006\024`\030"
 3417      083C8131 
 3417      0A3CAF41 
 3417      FC000614 
 3417      6018
 3418 2b2e 4401E41C 		.ascii	"D\001\344\034\0000`\034D\001\354\004\0000` D\001DA\302"
 3418      0030601C 
 3418      4401EC04 
 3418      00306020 
 3418      44014441 
 3419 2b43 17830160 		.ascii	"\027\203\001`\020\340$D\021\340(D\021\340,D\001\301"
 3419      10E02444 
 3419      11E02844 
 3419      11E02C44 
 3419      01C1
 3420 2b55 C3DD9304 		.ascii	"\303\335\223\004.\0008\241;\377\374\202\010\204E\202"
 3420      2E0038A1 
 3420      3BFFFC82 
 3420      08844582 
 3421 2b65 E5A10B71 		.ascii	"\345\241\013q\200H\"&#\220\001@\000\2201@\001s\301s"
 3421      80482226 
 3421      23900140 
 3421      00903140 
 3421      0173C173 
 3422 2b79 C1463006 		.ascii	"\301F0\006#\300\001\2015\210\003\377\374\000.\206\016"
 3422      23C00181 
 3422      358803FF 
 3422      FC002E86 
 3422      0E
 3423 2b8a 842EC1C3 		.ascii	"\204.\301\303\335\223\372|\004\014\354P\036\360\206"
 3423      DD93FA7C 
 3423      040CEC50 
 3423      1EF086
 3424 2b99 7B090E61 		.ascii	"{\011\016a\204\000\024\340\254\006t\210k #\204\023\206"
 3424      840014E0 
 3424      AC067488 
 3424      6B202384 
 3424      1386
 3425 2bab 23E10E40 		.ascii	"#\341\016@\032\341\016B*\341\254\004\004a\036V*\341"
 3425      1AE10E42 
 3425      2AE1AC04 
 3425      04611E56 
 3425      2AE1
 3426 2bbd AC0414E1 		.ascii	"\254\004\024\341\036P*\344\004\004\260a\036T*\340\200"
 3426      1E502AE4 
 3426      0404B061 
 3426      1E542AE0 
 3426      80
 3427 2bce 04060684 		.ascii	"\004\006\006\204\"#\006#\340\254\361\204B\002\004\264"
 3427      22230623 
 3427      E0ACF184 
 3427      420204B4 
 3428 2bde 7C2E7E1E 		.ascii	"|.~\036\340\254>\016\244\003\205\265\220\233\2025\221"
 3428      E0AC3E0E 
 3428      A40385B5 
 3428      909B8235 
 3428      91
ARM GAS  C:\Temp\ccVQrAGa.s 			page 108


 3429 2bef 9BE02C52 		.ascii	"\233\340,R\032\240\020\036\005\240\014\036\025\240\000"
 3429      1AA0101E 
 3429      05A00C1E 
 3429      15A000
 3430 2bfe 0168E020 		.ascii	"\001h\340 R\032\240\000\000\210R\032\011\004\000\370"
 3430      521AA000 
 3430      0088521A 
 3430      090400F8 
 3431 2c0e E02CC000 		.ascii	"\340,\300\000 \001\200\020\036\005\200\010\036\025\027"
 3431      20018010 
 3431      1E058008 
 3431      1E1517
 3432 2c1d 9B80C580 		.ascii	"\233\200\305\200\265\201\001\276\024\211\004\350\000"
 3432      B58101BE 
 3432      148904E8 
 3432      00
 3433 2c2a 4B086088 		.ascii	"K\010`\210\002\224\014%\202\221\214\023|\004\341\036"
 3433      02940C25 
 3433      82918C13 
 3433      7C04E11E 
 3434 2c3a 529A842E 		.ascii	"R\232\204.\200#\364\265\225\233\250\361\001\001\362"
 3434      8023F4B5 
 3434      959BA8F1 
 3434      0101F2
 3435 2c49 7C0C0CC1 		.ascii	"|\014\014\301\303\335\223\372\034\004L\204{\002\213"
 3435      C3DD93FA 
 3435      1C044C84 
 3435      7B028B
 3436 2c58 866B009B 		.ascii	"\206k\000\233\000\006\034\024\340$\340\200C8\2444\240"
 3436      00061C14 
 3436      E024E080 
 3436      4338A434 
 3436      A0
 3437 2c69 44E8009E 		.ascii	"D\350\000\236\024\230\016\210\013`$B\270\2444\232\016"
 3437      14980E88 
 3437      0B602442 
 3437      B8A4349A 
 3437      0E
 3438 2c7a E800F21C 		.ascii	"\350\000\362\034\014L\301\303\335\223\372<\004\014\202"
 3438      0C4CC1C3 
 3438      DD93FA3C 
 3438      040C82
 3439 2c89 8B047B60 		.ascii	"\213\004{`$\016\031\020I\203!\206k`$`(\016Y\034\004"
 3439      240E1910 
 3439      49832186 
 3439      6B602460 
 3439      280E591C 
 3440 2c9e 809B2234 		.ascii	"\200\233\"4\243/\340\220\002Dh,H\210\350\224\024$\234"
 3440      A32FE090 
 3440      0244682C 
 3440      4888E894 
 3440      14249C
 3441 2cb1 24A41422 		.ascii	"$\244\024\"4\230\016\004\013\317\027G\330\224+\032\016"
 3441      34980E04 
 3441      0BCF1747 
 3441      D8942B1A 
 3441      0E
ARM GAS  C:\Temp\ccVQrAGa.s 			page 109


 3442 2cc2 E82C0C0C 		.ascii	"\350,\014\014\201\001\335\223\362<\372\014\004\014@"
 3442      8101DD93 
 3442      F23CFA0C 
 3442      040C40
 3443 2cd1 3A006B02 		.ascii	":\000k\002{\345\012\345\212B:\000\000\001\201\300\001"
 3443      7BE50AE5 
 3443      8A423A00 
 3443      000181C0 
 3443      01
 3444 2ce2 67D172A0 		.ascii	"g\321r\240B\022\340<D\206o\350qH\177!\2011\205\013\201"
 3444      4212E03C 
 3444      44866FE8 
 3444      71487F21 
 3444      8131850B 
 3445 2cf7 311FFC41 		.ascii	"1\037\374A\376A\376\241\033Bz\337\374Dz\345\002\000"
 3445      FE41FEA1 
 3445      1B427ADF 
 3445      FC447AE5 
 3445      0200
 3446 2d09 64658282 		.ascii	"de\202\202\003\340\234r\240B\"\340\240\004d\357\350"
 3446      03E09C72 
 3446      A04222E0 
 3446      A00464EF 
 3446      E8
 3447 2d1a 6FE87FFD 		.ascii	"o\350\177\375E\376\305\015\300?\037\375A\376\241\033"
 3447      45FEC50D 
 3447      C03F1FFD 
 3447      41FEA11B 
 3448 2d2a 003F1FFD 		.ascii	"\000?\037\375A\376\014\014\300?\335\223\362\014\241"
 3448      41FE0C0C 
 3448      C03FDD93 
 3448      F20CA1
 3449 2d39 1B005B60 		.ascii	"\033\000[`\010@\226d\000\030P\000\006\300\200\007\012"
 3449      08409664 
 3449      00185000 
 3449      06C08007 
 3449      0A
 3450 2d4a 400040C6 		.ascii	"@\000@\306\346@\031\012@\000\300\377g\374\300\000@\306"
 3450      E640190A 
 3450      4000C0FF 
 3450      67FCC000 
 3450      40C6
 3451 2d5c 5C08A10B 		.ascii	"\\\010\241\013\030\024\332\000\241]a\374\340W\002\303"
 3451      1814DA00 
 3451      A15D61FC 
 3451      E05702C3 
 3452 2d6c D63703C7 		.ascii	"\3267\003\307\321\200\030\304B\312\212\303\204\023\340"
 3452      D18018C4 
 3452      42CA8AC3 
 3452      8413E0
 3453 2d7b 86E00002 		.ascii	"\206\340\000\002\022\341\016B\032\335\223\220\036e\006"
 3453      12E10E42 
 3453      1ADD9390 
 3453      1E6506
 3454 2d8a 440A420A 		.ascii	"D\012B\012\2011\000 \345\206\300\004d\001\362\214B\022"
 3454      81310020 
 3454      E586C004 
ARM GAS  C:\Temp\ccVQrAGa.s 			page 110


 3454      6401F28C 
 3454      4212
 3455 2d9c 5C08EE1D 		.ascii	"\\\010\356\035A\376Z\000\300?\037\374\327\007j\027\242"
 3455      41FE5A00 
 3455      C03F1FFC 
 3455      D7076A17 
 3455      A2
 3456 2dad 0F5D93FA 		.ascii	"\017]\223\372|\004\014\354p\036\360\201a~>\210\273\011"
 3456      7C040CEC 
 3456      701EF081 
 3456      617E3E88 
 3456      BB09
 3457 2dbf 2EE03404 		.ascii	".\3404\004\011\215n\374\036\350\015>\016`$\002\251\340"
 3457      098D6EFC 
 3457      1EE80D3E 
 3457      0E602402 
 3457      A9E0
 3458 2dd1 0040C615 		.ascii	"\000@\306\025\012\230\025\226\265\346@\211\004\374\024"
 3458      0A981596 
 3458      B5E64089 
 3458      04FC14
 3459 2de0 7518FE34 		.ascii	"u\030\3764\004\020o\374\241\013\3440|\004\224\225\211"
 3459      04106FFC 
 3459      A10BE430 
 3459      7C049495 
 3459      89
 3460 2df1 14963B72 		.ascii	"\024\226;r\330\376$\000\260\357\374\201\021d U\035\201"
 3460      D8FE2400 
 3460      B0EFFC81 
 3460      11642055 
 3460      1D81
 3461 2e03 75162581 		.ascii	"u\026%\201!\202\021@\004\002\012\301.\376\025\342@\211"
 3461      21821140 
 3461      04020AC1 
 3461      2EFE15E2 
 3461      4089
 3462 2e15 117E04B0 		.ascii	"\021~\004\260\001\001ux\020@e\354\004\002\020\241\033"
 3462      01017578 
 3462      104065EC 
 3462      040210A1 
 3462      1B
 3463 2e26 C16E0974 		.ascii	"\301n\011t\376U~\204\220\261\274\276\201\001\300q|\224"
 3463      FE557E84 
 3463      90B1BCBE 
 3463      8101C071 
 3463      7C94
 3464 2e38 B08105B5 		.ascii	"\260\201\005\265\212u\241\013\220k\013n\211\204\376"
 3464      8A75A10B 
 3464      906B0B6E 
 3464      8984FE
 3465 2e47 14F8100E 		.ascii	"\024\370\020\016%\240\004\206\024s\330\2444\"$\357\374"
 3465      25A00486 
 3465      1473D8A4 
 3465      342224EF 
 3465      FC
 3466 2e58 1C0480BB 		.ascii	"\034\004\200\273\344`\010\360`\020\022\025v\230\224"
 3466      E46008F0 
ARM GAS  C:\Temp\ccVQrAGa.s 			page 111


 3466      60101215 
 3466      769894
 3467 2e67 3B8C8B6F 		.ascii	";\214\213o\374\202\225\241\013x\020P\265\215$\224;\211"
 3467      FC8295A1 
 3467      0B781050 
 3467      B58D2494 
 3467      3B89
 3468 2e79 04A02E00 		.ascii	"\004\240.\000\024\274Dhx\226\013\013d\357\374\210\201"
 3468      14BC4468 
 3468      78960B0B 
 3468      64EFFC88 
 3468      81
 3469 2e8a 8871BE14 		.ascii	"\210q\276\024\202a\364\265\303m\014\014\270\361\335"
 3469      8261F4B5 
 3469      C36D0C0C 
 3469      B8F1DD
 3470 2e99 93F27CFA 		.ascii	"\223\362|\372|\004\014\3540\036\360\200k\006J\004\311"
 3470      7C040CEC 
 3470      301EF080 
 3470      6B064A04 
 3470      C9
 3471 2eaa 840A4C45 		.ascii	"\204\012LE\340\300\002I\355\254L\005\340 \304\012\355"
 3471      E0C00249 
 3471      EDAC4C05 
 3471      E020C40A 
 3471      ED
 3472 2ebb A8EE244C 		.ascii	"\250\356$LE\340\314\004I\355\260L\005\340\310\004\011"
 3472      45E0CC04 
 3472      49EDB04C 
 3472      05E0C804 
 3472      09
 3473 2ecc E0C40479 		.ascii	"\340\304\004y\355\300LE\340\320\004A\355\274L\005\340"
 3473      EDC04C45 
 3473      E0D00441 
 3473      EDBC4C05 
 3473      E0
 3474 2edd 2C0405   		.ascii	",\004\005"
 3475 2ee0 EDB44CC5 		.ascii	"\355\264L\305\355\270Lu\340\324\004\301\340\330\004"
 3475      EDB84C75 
 3475      E0D404C1 
 3475      E0D804
 3476 2eef 71EDC44C 		.ascii	"q\355\304LE\340\340\004I\356(L\005\340\334\004\001\355"
 3476      45E0E004 
 3476      49EE284C 
 3476      05E0DC04 
 3476      01ED
 3477 2f01 C84CC5ED 		.ascii	"\310L\305\355\314Lu\355\324LE\340\360\004I\340\344\004"
 3477      CC4C75ED 
 3477      D44C45E0 
 3477      F00449E0 
 3477      E404
 3478 2f13 C9E0EC04 		.ascii	"\311\340\354\004y\355\320L\005\340\350\004\011\355\344"
 3478      79EDD04C 
 3478      05E0E804 
 3478      09EDE4
 3479 2f22 4C45EDD8 		.ascii	"LE\355\330L\305\355\340Lu\212\304\210D\312\204\310t"
 3479      4CC5EDE0 
ARM GAS  C:\Temp\ccVQrAGa.s 			page 112


 3479      4C758AC4 
 3479      8844CA84 
 3479      C874
 3480 2f34 E0F80491 		.ascii	"\340\370\004\221\340\374\004\241m\334L\005L\305\201"
 3480      E0FC04A1 
 3480      6DDC4C05 
 3480      4CC581
 3481 2f43 014C75ED 		.ascii	"\001Lu\355\360L\205\355\364L\225\355\370L\245\356HL"
 3481      F04C85ED 
 3481      F44C95ED 
 3481      F84CA5EE 
 3481      484C
 3482 2f55 05EE4C4C 		.ascii	"\005\356LLE\355\350\006E\355\354\004\305\3404\004u\340"
 3482      45EDE806 
 3482      45EDEC04 
 3482      C5E03404 
 3482      75E0
 3483 2f67 104C45E0 		.ascii	"\020LE\340\024\006E\356P\004\205\3408\004\225\340\030"
 3483      140645EE 
 3483      500485E0 
 3483      380495E0 
 3483      18
 3484 2f78 04A5E01C 		.ascii	"\004\245\340\034L\305\340 Lu\356pL\225\356tL\245\356"
 3484      4CC5E020 
 3484      4C75EE70 
 3484      4C95EE74 
 3484      4CA5EE
 3485 2f8b 7C83A16E 		.ascii	"|\203\241n\200\356TLE\356xL\205\004\305\214D\241\224"
 3485      80EE544C 
 3485      45EE784C 
 3485      8504C58C 
 3485      44A194
 3486 2f9e E024EE84 		.ascii	"\340$\356\204LE\244\210\216DLE\233t\314D\356\210LE\247"
 3486      4C45A488 
 3486      8E444C45 
 3486      9B74CC44 
 3486      EE884C45 
 3487 2fb3 B4CE44EE 		.ascii	"\264\316D\356\214\356\220LE\340\020\006E\356\224LE\340"
 3487      8CEE904C 
 3487      45E01006 
 3487      45EE944C 
 3487      45E0
 3488 2fc5 140645EE 		.ascii	"\024\006E\356\230LE\340\030\006E\356\234LE\340\034\006"
 3488      984C45E0 
 3488      180645EE 
 3488      9C4C45E0 
 3488      1C06
 3489 2fd7 45EEA04C 		.ascii	"E\356\240LE\340 \006E\356\244LE\340$\006E\356\250LE"
 3489      45E02006 
 3489      45EEA44C 
 3489      45E02406 
 3489      45EEA84C 
 3490 2fec E0280645 		.ascii	"\340(\006E\356\254LE\340,\006E\356\260LE\3400\0065\356"
 3490      EEAC4C45 
 3490      E02C0645 
 3490      EEB04C45 
 3490      E0300635 
ARM GAS  C:\Temp\ccVQrAGa.s 			page 113


 3491 3001 B84CC54C 		.ascii	"\270L\305L5\231\304\2274\356\264m\210L\305\177\374Y"
 3491      3599C497 
 3491      34EEB46D 
 3491      884CC57F 
 3491      FC59
 3492 3013 E69F44C0 		.ascii	"\346\237D\300 \355\204L5L\205\3104\235\204\355\200m"
 3492      20ED844C 
 3492      354C85C8 
 3492      349D84ED 
 3492      806D
 3493 3025 8C4C4567 		.ascii	"\214LEg\374\0040X-\300\377\340\010\030\006\001|\030"
 3493      FC043058 
 3493      2DC0FFE0 
 3493      08180601 
 3493      7C18
 3494 3037 342344FF 		.ascii	"4#D\377!\201\300\030\304m\224Lu\220\260F2\0304%4L\205"
 3494      2181C018 
 3494      C46D944C 
 3494      7590B046 
 3494      32183425 
 3495 304e 81400E60 		.ascii	"\201@\016`m\220\300\015f\000\3564LU\356\004L%\2254\374"
 3495      6D90C00D 
 3495      6600EE34 
 3495      4C55EE04 
 3495      4C259534 
 3496 3063 3E6DA44C 		.ascii	">m\244L\305\377\364Y\316m\234LE\377\370\010\216\014"
 3496      C5FFF459 
 3496      CE6D9C4C 
 3496      45FFF808 
 3496      8E0C
 3497 3075 85994B50 		.ascii	"\205\231KP\202\315\234\010@Q\220P\241\314\004\374\365"
 3497      82CD9C08 
 3497      40519050 
 3497      A1CC04FC 
 3497      F5
 3498 3086 C0006E3C 		.ascii	"\300\000n<L\005g\000\000`L\005\300\006\000`m\230\300"
 3498      4C056700 
 3498      00604C05 
 3498      C0060060 
 3498      6D98C0
 3499 3099 0265006E 		.ascii	"\002e\000n L5\340\200\006\212f\001\006`P\306@\004Le"
 3499      204C35E0 
 3499      80068A66 
 3499      01066050 
 3499      C640044C 
 3500 30ae E0004C05 		.ascii	"\340\000L\005\355\240L5\356,L%\3560\210u\356\024\355"
 3500      EDA04C35 
 3500      EE2C4C25 
 3500      EE308875 
 3500      EE14ED
 3501 30c1 F80C35EE 		.ascii	"\370\0145\356(\014E\206\265\207M\355\264\014%\344\010"
 3501      280C4586 
 3501      B5874DED 
 3501      B40C25E4 
 3501      08
 3502 30d2 0020E17C 		.ascii	"\000 \341|\030\004\230\003\375\307a\010\030\004X\002"
 3502      18049803 
ARM GAS  C:\Temp\ccVQrAGa.s 			page 114


 3502      FDC76108 
 3502      18045802 
 3503 30e2 A101A9CD 		.ascii	"\241\001\251\315\361\260\276\276\202\325\355\304\014"
 3503      F1B0BEBE 
 3503      82D5EDC4 
 3503      0C
 3504 30ef C5EDC80C 		.ascii	"\305\355\310\014\265\200\365\226\315\356|\014\305\356"
 3504      B580F596 
 3504      CDEE7C0C 
 3504      C5EE
 3505 30fd 800CB580 		.ascii	"\200\014\265\200\305\226\315\230\361\020\013\362|\014"
 3505      C596CD98 
 3505      F1100BF2 
 3505      7C0C
 3506 310b 0C0CC5DD 		.ascii	"\014\014\305\335\223\252\315\355\314 A\376\025\246C"
 3506      93AACDED 
 3506      CC2041FE 
 3506      15A643
 3507 311a 9833FC75 		.ascii	"\2303\374u\251M\355\320\0145\372\365\254=\344\004\006"
 3507      A94DEDD0 
 3507      0C35FAF5 
 3507      AC3DE404 
 3507      06
 3508 312b 20E1FC08 		.ascii	" \341\374\0104F\002\006C\203G\361\260\370\265\211=\355"
 3508      34460206 
 3508      438347F1 
 3508      B0F8B589 
 3508      3DED
 3509 313d B80C45EE 		.ascii	"\270\014E\356$\014\305\230C\206C\366\265\205Mm\330\014"
 3509      240CC598 
 3509      438643F6 
 3509      B5854D6D 
 3509      D80C
 3510 314f 4551F691 		.ascii	"EQ\366\2211\242M\340\014>\264\202\365\011\006\241K\030"
 3510      31A24DE0 
 3510      0C3EB482 
 3510      F50906A1 
 3510      4B18
 3511 3161 86000086 		.ascii	"\206\000\000\206\005\200\000I\366#K\021\301\340\014"
 3511      05800049 
 3511      F6234B11 
 3511      C1E00C
 3512 3170 84658921 		.ascii	"\204e\211!>\264\203\205I\366\245KY\366\000\014\202E"
 3512      3EB48385 
 3512      49F6A54B 
 3512      59F6000C 
 3512      8245
 3513 3182 800C82F5 		.ascii	"\200\014\202\365\247K`\014I\366\340\014Y\366E\366\001"
 3513      A74B600C 
 3513      49F6E00C 
 3513      59F645F6 
 3513      01
 3514 3193 458921E0 		.ascii	"E\211!\340\014\356XLE\356\\L\305\356`L%\355\340\014"
 3514      0CEE584C 
 3514      45EE5C4C 
 3514      C5EE604C 
 3514      25EDE00C 
ARM GAS  C:\Temp\ccVQrAGa.s 			page 115


 3515 31a7 458235A2 		.ascii	"E\2025\242M\204\305\241KA\366#K\004e\340\014\203u\211"
 3515      4D84C5A1 
 3515      4B41F623 
 3515      4B0465E0 
 3515      0C837589 
 3516 31bb 2141F6A5 		.ascii	"!A\366\245KG\366\000\014\202E\200\014\202\365\247K`"
 3516      4B47F600 
 3516      0C824580 
 3516      0C82F5A7 
 3516      4B60
 3517 31cd 0C41F6E0 		.ascii	"\014A\366\340\014G\366E\366\001E\211!\340\014\356dL"
 3517      0C47F645 
 3517      F6014589 
 3517      21E00CEE 
 3517      644C
 3518 31df 05EE684C 		.ascii	"\005\356hL5\356lL%LU\306\012@\002\3564L\005\372\024"
 3518      35EE6C4C 
 3518      254C55C6 
 3518      0A4002EE 
 3518      344C05FA 
 3519 31f4 8E0B6E34 		.ascii	"\216\013n4\350\014THh\014F\350S\270\216\013\216\013"
 3519      E80C5448 
 3519      680C46E8 
 3519      53B88E0B 
 3519      8E0B
 3520 3206 68046808 		.ascii	"h\004h\010r(\014\005\216\013\014\025\3568L\245\356 "
 3520      72280C05 
 3520      8E0B0C15 
 3520      EE384CA5 
 3520      EE20
 3521 3218 4C05EE18 		.ascii	"L\005\356\030\276\015n<n\034L\245\220\204@\002\016<"
 3521      BE0D6E3C 
 3521      6E1C4CA5 
 3521      90844002 
 3521      0E3C
 3522 322a 4C050000 		.ascii	"L\005\000\000\202\003\201\021l\004\356@L\005nDL\005"
 3522      82038111 
 3522      6C04EE40 
 3522      4C056E44 
 3522      4C05
 3523 323c BE1E8101 		.ascii	"\276\036\201\001\276\004\217U\343\034\001\012\241\253"
 3523      BE048F55 
 3523      E31C010A 
 3523      A1AB
 3524 324a D6D50C05 		.ascii	"\326\325\014\005\204\325\247\013\356\034\245\013\202"
 3524      84D5A70B 
 3524      EE1CA50B 
 3524      82
 3525 3257 25A30B82 		.ascii	"%\243\013\202eJ\370\202\225\216\013h\000l\030\201\205"
 3525      654AF882 
 3525      958E0B68 
 3525      006C1881 
 3525      85
 3526 3268 8E0B6800 		.ascii	"\216\013h\000U\030\201E\216\013h\000\356\030\014\245"
 3526      55188145 
 3526      8E0B6800 
 3526      EE180CA5 
ARM GAS  C:\Temp\ccVQrAGa.s 			page 116


 3527 3278 80F5A3AB 		.ascii	"\200\365\243\253\216\013|\024\3748B\010\356\030\014"
 3527      8E0B7C14 
 3527      FC384208 
 3527      EE180C
 3528 3287 A58A35A5 		.ascii	"\245\2125\245\253n\010\014\025\014\005\207!\204\021"
 3528      AB6E080C 
 3528      150C0587 
 3528      218411
 3529 3296 EE404C15 		.ascii	"\356@L\025\203\015@\020N@\014\025\334\000\001\012n("
 3529      830D4010 
 3529      4E400C15 
 3529      DC00010A 
 3529      6E28
 3530 32a8 0116E040 		.ascii	"\001\026\340@L\005\200\000\014\005\216@\202\015n \204"
 3530      4C058000 
 3530      0C058E40 
 3530      820D6E20 
 3530      84
 3531 32b9 0402108E 		.ascii	"\004\002\020\216@L\025\346\212@\012\356<\014\025\354"
 3531      404C15E6 
 3531      8A400AEE 
 3531      3C0C15EC 
 3532 32c9 3800004C 		.ascii	"8\000\000L\005\200\035\216\013N<\3748V\010\356\030\014"
 3532      05801D8E 
 3532      0B4E3CFC 
 3532      385608EE 
 3532      180C
 3533 32db A58815A7 		.ascii	"\245\210\025\247\253n@\014\005\014\025\207!\001\012"
 3533      AB6E400C 
 3533      050C1587 
 3533      21010A
 3534 32ea EE080116 		.ascii	"\356\010\001\026\340@\204\021\000\000\016@L\005\014"
 3534      E0408411 
 3534      00000E40 
 3534      4C050C
 3535 32f9 05830D4C 		.ascii	"\005\203\015L\025\356 \014\025\316@@\012\356<\000\000"
 3535      15EE200C 
 3535      15CE4040 
 3535      0AEE3C00 
 3535      00
 3536 330a E68A801D 		.ascii	"\346\212\200\035\354\030N<L\005P8\216\013\014\245\350"
 3536      EC184E3C 
 3536      4C055038 
 3536      8E0B0CA5 
 3536      E8
 3537 331b 083E04EE 		.ascii	"\010>\004\356\030\202\001\257\253\000\014\276\016\241"
 3537      188201AF 
 3537      AB000CBE 
 3537      0EA1
 3538 3329 0BE2000C 		.ascii	"\013\342\000\014\005\342e\201\021n\004&\006\202\001"
 3538      05E26581 
 3538      116E0426 
 3538      068201
 3539 3338 FA800004 		.ascii	"\372\200\000\004\014%\203\225\000\000m\234\014E\354"
 3539      0C258395 
 3539      00006D9C 
 3539      0C45EC
ARM GAS  C:\Temp\ccVQrAGa.s 			page 117


 3540 3347 040223EE 		.ascii	"\004\002#\356 \0043\204\021\004S\3400X:\340`FZ\341\222"
 3540      20043384 
 3540      110453E0 
 3540      30583AE0 
 3540      60465AE1 
 3541 335c 44C3E192 		.ascii	"D\303\341\222F\212\3400F2\3500D3\320\220\241\013\340"
 3541      468AE030 
 3541      4632E830 
 3541      4433D090 
 3541      A10BE0
 3542 336f 605995F8 		.ascii	"`Y\225\370\365\301\303\201\201\372<\004\014\354\240"
 3542      F5C1C381 
 3542      81FA3C04 
 3542      0CECA0
 3543 337e 1EF0548E 		.ascii	"\036\360T\216-\204\300\020d\021\023\256\257\224c\321"
 3543      2D84C010 
 3543      641113AE 
 3543      AF9463D1 
 3544 338e 144E91AE 		.ascii	"\024N\221\256\300\020\215\216\217\236\241\304\253\244"
 3544      C0108D8E 
 3544      8F9EA1C4 
 3544      ABA4
 3545 339c A974A564 		.ascii	"\251t\245d\243\204\247\224\211~\213\256\374n\376\236"
 3545      A384A794 
 3545      897E8BAE 
 3545      FC6EFE9E 
 3546 33ac BCCEBE8E 		.ascii	"\274\316\276\216\357\374Wh\014\014\320\361\335\223\362"
 3546      EFFC5768 
 3546      0C0CD0F1 
 3546      DD93F2
 3547 33bb 3CFA1C04 		.ascii	"<\372\034\004L\014\005\200k\241\015\340\210\014\025"
 3547      4C0C0580 
 3547      6BA10DE0 
 3547      880C15
 3548 33ca 80B5830D 		.ascii	"\200\265\203\015\340\274\217\001\200\245\340\230L\005"
 3548      E0BC8F01 
 3548      80A5E098 
 3548      4C05
 3549 33d8 0C158BC5 		.ascii	"\014\025\213\305\014%\341@\014u\340\250F\"\340\030\207"
 3549      0C25E140 
 3549      0C75E0A8 
 3549      4622E018 
 3549      87
 3550 33e9 0BF0840C 		.ascii	"\013\360\204\0145\202U\241;\340|\0145\200\325F\012\340"
 3550      358255A1 
 3550      3BE07C0C 
 3550      3580D546 
 3550      0AE0
 3551 33fb 749295E0 		.ascii	"t\222\225\340\200\341\320\014\031\340\210B\012\003!"
 3551      80E1D00C 
 3551      19E08842 
 3551      0A0321
 3552 340a 82256338 		.ascii	"\202%c8\214\033\014%\350\010L\005\340\250\014\025\340"
 3552      8C1B0C25 
 3552      E8084C05 
 3552      E0A80C15 
 3552      E0
ARM GAS  C:\Temp\ccVQrAGa.s 			page 118


 3553 341b 88875160 		.ascii	"\210\207Q`\304\3404\0145\340\240\014E\340\274L\025H"
 3553      C4E0340C 
 3553      35E0A00C 
 3553      45E0BC4C 
 3553      1548
 3554 342d 4A82334A 		.ascii	"J\2023J2f\226\011]\361\210LU\205QHB`\230LU\220\210\006"
 3554      32669609 
 3554      5DF1884C 
 3554      55855148 
 3554      4260984C 
 3555 3445 40609C48 		.ascii	"@`\234H2\214\004\304+q\210\030$DG\016U\340\210\230s"
 3555      328C04C4 
 3555      2B718818 
 3555      2444470E 
 3555      55E08898 
 3556 345a 7C10E0AC 		.ascii	"|\020\340\254\014E\010%\304W\0124\374\024\216S\340\210"
 3556      0C450825 
 3556      C4570A34 
 3556      FC148E53 
 3556      E088
 3557 346c 0000823D 		.ascii	"\000\000\202=L\005\204\010\202\245\200\300\0060W\304"
 3557      4C058408 
 3557      82A580C0 
 3557      063057C4 
 3558 347c C4C7EC04 		.ascii	"\304\307\354\004\3740\010\305\374u\204\315`\274L5\375"
 3558      FC3008C5 
 3558      FC7584CD 
 3558      60BC4C35 
 3558      FD
 3559 348d C5982BF2 		.ascii	"\305\230+\362\034\014L\014%\335\223\006\024`\204\014"
 3559      1C0C4C0C 
 3559      25DD9306 
 3559      1460840C 
 3560 349d 45E08886 		.ascii	"E\340\210\206s`x\202;\001QL%\202!\202C`\204\016\305"
 3560      73607882 
 3560      3B01514C 
 3560      25822182 
 3560      4360840E 
 3561 34b2 8345DD84 		.ascii	"\203E\335\204\370\020\340 \014\225\304\207\304\307\374"
 3561      F810E020 
 3561      0C95C487 
 3561      C4C7FC
 3562 34c1 3012C5FC 		.ascii	"0\022\305\374 \022\205\361\260X\202J\302\012\315F\020"
 3562      201285F1 
 3562      B058824A 
 3562      C20ACD46 
 3562      10
 3563 34d2 FA148211 		.ascii	"\372\024\202\021\\\000\372\205\210\035\014U\230\024"
 3563      5C00FA85 
 3563      881D0C55 
 3563      9814
 3564 34e0 0C45E03C 		.ascii	"\014E\340<\002\020\340\034\003-\354\004\004C\302'H3"
 3564      0210E01C 
 3564      032DEC04 
 3564      0443C227 
 3564      4833
 3565 34f2 86534853 		.ascii	"\206SHS\3400\332\205\340`\202\001\003\021\340\230L\025"
ARM GAS  C:\Temp\ccVQrAGa.s 			page 119


 3565      E030DA85 
 3565      E0608201 
 3565      0311E098 
 3565      4C15
 3566 3504 E09C4C15 		.ascii	"\340\234L\025\340\274L\005\301\303\371%\372\374\004"
 3566      E0BC4C05 
 3566      C1C3F925 
 3566      FAFC04
 3567 3513 0C0C1580 		.ascii	"\014\014\025\200k\241\035\340\214\014\005\2025\200\035"
 3567      6BA11DE0 
 3567      8C0C0582 
 3567      35801D
 3568 3522 E0880C05 		.ascii	"\340\210\014\005\200\245\203\015\340\274\217\001\200"
 3568      80A5830D 
 3568      E0BC8F01 
 3568      80
 3569 352f E5E0984C 		.ascii	"\345\340\230L\005\362\374\014\014\014U\335\223\014%"
 3569      05F2FC0C 
 3569      0C0C55DD 
 3569      930C25
 3570 353e E1440CC5 		.ascii	"\341D\014\305\340\250\0145\340\030\014K\340\264DR`H"
 3570      E0A80C35 
 3570      E0180C4B 
 3570      E0B44452 
 3570      6048
 3571 3550 0C2BF188 		.ascii	"\014+\361\210\205\033`P\340\310\014\205\340\314\014"
 3571      851B6050 
 3571      E0C80C85 
 3571      E0CC0C
 3572 355f 750C9582 		.ascii	"u\014\225\202u\241\233\340\200\014\225\200\365R\012"
 3572      75A19BE0 
 3572      800C9580 
 3572      F5520A
 3573 356e E0740FB8 		.ascii	"\340t\017\270\340\200\014U\300\000T\206`pR\002\340<"
 3573      E0800C55 
 3573      C0005486 
 3573      60705202 
 3573      E03C
 3574 3580 AAA3F184 		.ascii	"\252\243\361\204\226E\224\235`\224\014U\225[\375\241"
 3574      9645949D 
 3574      60940C55 
 3574      955BFDA1 
 3575 3590 0C5594A5 		.ascii	"\014U\224\245\024P\3404\026\244\344\004\226\243\341"
 3575      1450E034 
 3575      16A4E404 
 3575      96A3E1
 3576 359f FC8AA383 		.ascii	"\374\212\243\203\247\222E\225\235p\204R\002\002\221"
 3576      A7924595 
 3576      9D708452 
 3576      020291
 3577 35ae C6371494 		.ascii	"\3067\024\224\2401\3137a\374\371\241\024\223\014\245"
 3577      A031CB37 
 3577      61FCF9A1 
 3577      14930CA5 
 3578 35be C297949F 		.ascii	"\302\227\224\237`\020\030\225\222\303\262\304\370\014"
 3578      60101895 
 3578      92C3B2C4 
ARM GAS  C:\Temp\ccVQrAGa.s 			page 120


 3578      F80C
 3579 35cc 14A5C497 		.ascii	"\024\245\304\227\304\307|$d\020\026\240\307\267\206"
 3579      C4C77C24 
 3579      641016A0 
 3579      C7B786
 3580 35db A3669248 		.ascii	"\243f\222H\272\177\374W\216\010@\303\377\311G\345\000"
 3580      BA7FFC57 
 3580      8E0840C3 
 3580      FFC947E5 
 3580      00
 3581 35ec 60200CB5 		.ascii	"` \014\265\210\243\226O\360\012H\252\374$\026\225\374"
 3581      88A3964F 
 3581      F00A48AA 
 3581      FC241695 
 3581      FC
 3582 35fd 3016C5E6 		.ascii	"0\026\305\346\212DJ\004 \246\223\230\223f\000\204\235"
 3582      8A444A04 
 3582      20A69398 
 3582      93660084 
 3582      9D
 3583 360e D1270C25 		.ascii	"\321'\014%\204\245\2304\340\204\340\034\014EL%\202!"
 3583      84A59834 
 3583      E084E01C 
 3583      0C454C25 
 3583      8221
 3584 3620 06306084 		.ascii	"\0060`\204\007-\354\004\004C\302'\361\224F\002\3400"
 3584      072DEC04 
 3584      0443C227 
 3584      F1944602 
 3584      E030
 3585 3632 4833E060 		.ascii	"H3\340`H\003\014\005\336e\377\221a4`\224L\225sX\214"
 3585      48030C05 
 3585      DE65FF91 
 3585      61346094 
 3585      4C957358 
 3586 3647 2B0C35E8 		.ascii	"+\0145\350\010\014%\340\214H2\340\210\206\033q\200a"
 3586      080C25E0 
 3586      8C4832E0 
 3586      88861B71 
 3586      8061
 3587 3659 3C4C4542 		.ascii	"<LEB@\205M\253\015\034\000\341<L\025\014\011\202\325"
 3587      40854DAB 
 3587      0D1C00E1 
 3587      3C4C150C 
 3587      0982D5
 3588 366c 400AE1D0 		.ascii	"@\012\341\320\000&\340\220L\005\300\000L\005\300\230"
 3588      0026E090 
 3588      4C05C000 
 3588      4C05C098 
 3589 367c 0030409C 		.ascii	"\0000@\234\2245\314\020`4\014\005\361\210H2\206\345"
 3589      9435CC10 
 3589      60340C05 
 3589      F1884832 
 3589      86E5
 3590 368e 880DE404 		.ascii	"\210\015\344\004\002\000\006\024\250\023\0145\341\374"
 3590      02000614 
 3590      A8130C35 
ARM GAS  C:\Temp\ccVQrAGa.s 			page 121


 3590      E1FC
 3591 369c 86136084 		.ascii	"\206\023`\204\014\025\203\027\242#`\034\204\003\002"
 3591      0C158317 
 3591      A223601C 
 3591      840302
 3592 36ab 3160844C 		.ascii	"1`\204L5"
 3592      35
 3593 36b0 4C25C237 		.ascii	"L%\3027\206\023`\210`0B#L\005\217!B\003\340\214L%\340"
 3593      86136088 
 3593      60304223 
 3593      4C058F21 
 3593      4203E08C 
 3594 36c7 60E755E0 		.ascii	"`\347U\340\230`8\014\005\361\210J\022\340\244\014E\211"
 3594      9860380C 
 3594      05F1884A 
 3594      12E0A40C 
 3594      4589
 3595 36d9 5D804330 		.ascii	"]\200C0#\212E\360\234@2`\210L%L\005\214\033h\270\340"
 3595      238A45F0 
 3595      9C403260 
 3595      884C254C 
 3595      058C1B68 
 3596 36ef 8C0C15E8 		.ascii	"\214\014\025\350\010\014%\340\204\0145\340\034L\005"
 3596      080C25E0 
 3596      840C35E0 
 3596      1C4C05
 3597 36fe E0888211 		.ascii	"\340\210\202\021`\214`\204L\025\002#\302\027D\003\217"
 3597      608C6084 
 3597      4C150223 
 3597      C2174403 
 3597      8F
 3598 370f 118C0B60 		.ascii	"\021\214\013``\3400D3\340\230L\025\362\374\014\014\340"
 3598      60E03044 
 3598      33E0984C 
 3598      15F2FC0C 
 3598      0CE0
 3599 3721 0810A860 		.ascii	"\010\020\250`\274L\005L\025\375\021\3415\340\224`\240"
 3599      BC4C054C 
 3599      15FD11E1 
 3599      35E09460 
 3599      A0
 3600 3732 0C050C35 		.ascii	"\014\005\0145\207!\014E\340D@\012\340HL%\346\212F\022"
 3600      87210C45 
 3600      E044400A 
 3600      E0484C25 
 3600      E68A4612 
 3601 3746 60980000 		.ascii	"`\230\000\000\361\214\250\023l\030`\274L5L%\200=L\225"
 3601      F18CA813 
 3601      6C1860BC 
 3601      4C354C25 
 3601      803D4C95 
 3602 375a E09C4C15 		.ascii	"\340\234L\025\340\224L\005\340\300\335u\300\274`x\014"
 3602      E0944C05 
 3602      E0C0DD75 
 3602      C0BC6078 
 3602      0C
 3603 376b 05445281 		.ascii	"\005DR\2011\000Tq\200\000\303\340\210\203U\212\013\030"
ARM GAS  C:\Temp\ccVQrAGa.s 			page 122


 3603      31005471 
 3603      8000C3E0 
 3603      8883558A 
 3603      0B18
 3604 377d 75F3440C 		.ascii	"u\363D\014\205\370\014\304G\340 \020E\304w\020u\374"
 3604      85F80CC4 
 3604      47E02010 
 3604      45C47710 
 3604      75FC
 3605 378f 104872FC 		.ascii	"\020Hr\374\034\006M\361\220\372\014FB\\\000@P\354\004"
 3605      1C064DF1 
 3605      90FA0C46 
 3605      425C0040 
 3605      50EC04
 3606 37a2 0A50FA65 		.ascii	"\012P\372e\205]\340\204\014%\014E\2304\014U\340<\202"
 3606      855DE084 
 3606      0C250C45 
 3606      98340C55 
 3606      E03C82
 3607 37b5 21601C60 		.ascii	"!`\034`\204L%\354\004\0060\302'\007-F\002\004SJ3\361"
 3607      844C25EC 
 3607      040630C2 
 3607      27072D46 
 3607      0204534A 
 3608 37cb 904A03E0 		.ascii	"\220J\003\3400*\350\340`\205\001\237\374\340\230L\005"
 3608      302AE8E0 
 3608      6085019F 
 3608      FCE0984C 
 3608      05
 3609 37dc 609C4C05 		.ascii	"`\234L\005\354\004\000\020\301\303\365\005\372\374\004"
 3609      EC040010 
 3609      C1C3F505 
 3609      FAFC04
 3610 37eb 0C878100 		.ascii	"\014\207\201\000k\340\220\014\005\340\030\014\025\340"
 3610      6BE0900C 
 3610      05E0180C 
 3610      15E0
 3611 37f9 840C7560 		.ascii	"\204\014u`\230L\205\254\325\241\015\340\214\014%\254"
 3611      984C85AC 
 3611      D5A10DE0 
 3611      8C0C25AC 
 3612 3809 45850D60 		.ascii	"E\205\015` \014U\340\210\004\004|\010\002%\360\210F"
 3612      200C55E0 
 3612      8804047C 
 3612      080225F0 
 3612      8846
 3613 381b 12F81006 		.ascii	"\022\370\020\006E\370\010\006\305x\030\0065\012%\304"
 3613      45F80806 
 3613      C5781806 
 3613      350A25C4 
 3614 382b 27C4477C 		.ascii	"'\304G|\010|\020\012E\012\305\304\307\3047|0\374\014"
 3614      087C100A 
 3614      450AC5C4 
 3614      C7C4377C 
 3614      30FC0C
 3615 383e 0A35A6C3 		.ascii	"\0125\246\303\250#\220e\204\315\3404\014%\006$\204!"
 3615      A8239065 
ARM GAS  C:\Temp\ccVQrAGa.s 			page 123


 3615      84CDE034 
 3615      0C250624 
 3615      8421
 3616 3850 FD37E17C 		.ascii	"\3757\341|\205'\206#L\005\244\003\004\004`\220\002E"
 3616      85278623 
 3616      4C05A403 
 3616      04046090 
 3616      0245
 3617 3862 E0884612 		.ascii	"\340\210F\022|\010\2164\360\210\304G\232$\0045\3047"
 3617      7C088E34 
 3617      F088C447 
 3617      9A240435 
 3617      C437
 3618 3874 0445FC0C 		.ascii	"\004E\374\014H2\374\020\2111q\220\012\000\205E\030\004"
 3618      4832FC10 
 3618      89317190 
 3618      0A008545 
 3618      1804
 3619 3886 6C0402C5 		.ascii	"l\004\002\305\340\210\022T|0\002\225\340\210\304\307"
 3619      E0881254 
 3619      7C300295 
 3619      E088C4C7 
 3620 3896 FC247C30 		.ascii	"\374$|0\004\305\004\225\304\227\262\303\374$\202\365"
 3620      04C50495 
 3620      C497B2C3 
 3620      FC2482F5 
 3621 38a6 A3CDE408 		.ascii	"\243\315\344\010\022@\341|\024\224\224\223\375\247\223"
 3621      1240E17C 
 3621      14949493 
 3621      FDA793
 3622 38b5 CD859700 		.ascii	"\315\205\227\000\220LU\234\000@P\234\000H\300\354\004"
 3622      904C559C 
 3622      0040509C 
 3622      0048C0EC 
 3622      04
 3623 38c6 0630F695 		.ascii	"\0060\366\225\241;\214\033\003!\350\004}(a<\014E\014"
 3623      A13B8C1B 
 3623      0321E804 
 3623      7D28613C 
 3623      0C450C
 3624 38d9 35FFC112 		.ascii	"5\377\301\022``4\014\025\346 \014%\340\224JB\340\210"
 3624      6060340C 
 3624      15E6200C 
 3624      25E0944A 
 3624      42E088
 3625 38ec 4052F18C 		.ascii	"@R\361\214\231\033{\000\372\000D\"\340\220L%\014\025"
 3625      991B7B00 
 3625      FA004422 
 3625      E0904C25 
 3625      0C15
 3626 38fe B045981D 		.ascii	"\260E\230\035\340\204\014\005\256\005\024\024`\034\014"
 3626      E0840C05 
 3626      AE051414 
 3626      601C0C
 3627 390d C5E08480 		.ascii	"\305\340\204\200\243\340\244\3400\024S\361\260VR\017"
 3627      A3E0A4E0 
 3627      301453F1 
ARM GAS  C:\Temp\ccVQrAGa.s 			page 124


 3627      B056520F 
 3628 391d 38972D02 		.ascii	"8\227-\002\021\200\000L\025\2043\010\024`\204\010\003"
 3628      1180004C 
 3628      15843308 
 3628      14608408 
 3628      03
 3629 392e E0840CA5 		.ascii	"\340\204\014\245\221\021L\025\340P\214\033`P\3400@#"
 3629      91114C15 
 3629      E0508C1B 
 3629      6050E030 
 3629      4023
 3630 3940 60604033 		.ascii	"``@3\373\000\0004\350\010U\350\014\025\230$\0145\340"
 3630      FB000034 
 3630      E80855E8 
 3630      0C159824 
 3630      0C35E0
 3631 3953 844CA5E0 		.ascii	"\204L\245\340\034\004 `P\005\035\354\004\340\204\004"
 3631      1C042060 
 3631      50051DEC 
 3631      04E08404 
 3632 3963 14460384 		.ascii	"\024F\003\2043\240\245\340`\014%\2455\377\021`\224\206"
 3632      33A0A5E0 
 3632      600C25A5 
 3632      35FF1160 
 3632      9486
 3633 3975 B5832B61 		.ascii	"\265\203+a<\014%\014\005\202q\012t`4\230D\340\204\340"
 3633      3C0C250C 
 3633      0582710A 
 3633      74603498 
 3633      44E084E0 
 3634 3989 1C0C3560 		.ascii	"\034\0145`\214\014\005L%\240#\010@`\220\0123\354\004"
 3634      8C0C054C 
 3634      25A02308 
 3634      4060900A 
 3634      33EC04
 3635 399c 4C25897D 		.ascii	"L%\211}Lu\340\224F#\340\204F\003\3400\230e\340`\340"
 3635      4C75E094 
 3635      4623E084 
 3635      4603E030 
 3635      9865E060 
 3636 39b1 880C05E0 		.ascii	"\210\014\005\340\244\0145\340\220L%\361\200H\"\216%"
 3636      A40C35E0 
 3636      904C25F1 
 3636      8048228E 
 3636      25
 3637 39c2 864D6034 		.ascii	"\206M`4\0145\354\004\004 `\274L%LE\205ALE\340\230\200"
 3637      0C35EC04 
 3637      042060BC 
 3637      4C254C45 
 3637      85414C45 
 3638 39d9 33609C60 		.ascii	"3`\234`\224L\025\354\014\0060`\300L5\222\025\206-`<"
 3638      944C15EC 
 3638      0C063060 
 3638      C04C3592 
 3638      15862D60 
 3639 39ee 0C150C25 		.ascii	"\014\025\014%\202q\006t`\034Lu\340\204\200\023\340\204"
 3639      82710674 
ARM GAS  C:\Temp\ccVQrAGa.s 			page 125


 3639      601C4C75 
 3639      E0848013 
 3639      E084
 3640 3a00 608C4C15 		.ascii	"`\214L\025D\003\206#D\023\3400\014\011\340`@\012\341"
 3640      44038623 
 3640      4413E030 
 3640      0C09E060 
 3640      400AE1
 3641 3a13 D08AE5E0 		.ascii	"\320\212\345\340\204{\000\000\024O8\214\033\014\025"
 3641      847B0000 
 3641      144F388C 
 3641      1B0C15
 3642 3a22 E8080C25 		.ascii	"\350\010\014%\340\204\302\027\340\034D\003\202#\205"
 3642      E084C217 
 3642      E01C4403 
 3642      822385
 3643 3a31 15E06086 		.ascii	"\025\340`\206\365\241}`\034\014\025\340\204\004t\340"
 3643      F5A17D60 
 3643      1C0C15E0 
 3643      840474E0 
 3644 3a41 400C3504 		.ascii	"@\0145\004#\202#F:\3400\240#\340\242\202\245\206-\002"
 3644      23822346 
 3644      3AE030A0 
 3644      23E0A282 
 3644      A5862D02 
 3645 3a55 098E1382 		.ascii	"\011\216\023\202\001\341\340\341\340B\001\340\210\014"
 3645      01E1E0E1 
 3645      E04201E0 
 3645      880C
 3646 3a63 05E01C0C 		.ascii	"\005\340\034\014\025\340\204\014u\216\023\302w\3400"
 3646      15E0840C 
 3646      758E13C2 
 3646      77E030
 3647 3a72 42034C05 		.ascii	"B\003L\005\217\001\014\014\340\230\335\223\362\374\340"
 3647      8F010C0C 
 3647      E098DD93 
 3647      F2FCE0
 3648 3a81 A40C05E0 		.ascii	"\244\014\005\340\204\014\025\361\200@R\201-\002\021"
 3648      840C15F1 
 3648      80405281 
 3648      2D0211
 3649 3a90 E0844C15 		.ascii	"\340\204L\025\230D\224%\340\034\0145\340\214\014\005"
 3649      98449425 
 3649      E01C0C35 
 3649      E08C0C05 
 3650 3aa0 EC041840 		.ascii	"\354\004\030@\030\024\031\035\206\303\340\204\3400X"
 3650      1814191D 
 3650      86C3E084 
 3650      E03058
 3651 3aaf 53E06058 		.ascii	"S\340`X\003\014\011\370\005\014U\341\320@\012\340<\002"
 3651      030C09F8 
 3651      050C55E1 
 3651      D0400AE0 
 3651      3C02
 3652 3ac1 A5E084F0 		.ascii	"\245\340\204\360\210@Rh\010I\350\014\025\214\033\014"
 3652      88405268 
 3652      0849E80C 
ARM GAS  C:\Temp\ccVQrAGa.s 			page 126


 3652      158C1B0C 
 3653 3ad1 25E0840C 		.ascii	"%\340\204\0145\340\220\230D\340\034\010@\002\021\012"
 3653      35E09098 
 3653      44E01C08 
 3653      4002110A 
 3654 3ae1 14EC0489 		.ascii	"\024\354\004\211\035`\204`\204L\025F\003\2123\207\001"
 3654      1D608460 
 3654      844C1546 
 3654      038A3387 
 3654      01
 3655 3af2 60606030 		.ascii	"```0F#\200\000\000v\340\230L\005\213\245\356\245``\024"
 3655      46238000 
 3655      0076E098 
 3655      4C058BA5 
 3655      EEA56060 
 3656 3b07 A348A286 		.ascii	"\243H\242\206\303\244C\373\020\216\005\230M\202\021"
 3656      C3A443FB 
 3656      108E0598 
 3656      4D8211
 3657 3b16 18446084 		.ascii	"\030D`\204L\025\010@\2043\011\035\354\004\340\204\010"
 3657      4C150840 
 3657      8433091D 
 3657      EC04E084 
 3657      08
 3658 3b27 14402388 		.ascii	"\024@#\210\003@3\3400\350%\340`\0145\207\365\010\024"
 3658      034033E0 
 3658      30E825E0 
 3658      600C3587 
 3658      F50814
 3659 3b3a 601C0C05 		.ascii	"`\034\014\005\340\204\2103\340\214\3400F#\340`F\003"
 3659      E0848833 
 3659      E08CE030 
 3659      4623E060 
 3659      4603
 3660 3b4c E1D00C29 		.ascii	"\341\320\014)\340\204D\012\000\004\202\345\214\033{"
 3660      E084440A 
 3660      000482E5 
 3660      8C1B7B
 3661 3b5b 00E80845 		.ascii	"\000\350\010EH\340\204\014\025\340\034\014%\340\204"
 3661      48E0840C 
 3661      15E01C0C 
 3661      25E084
 3662 3b6a 06144403 		.ascii	"\006\024D\003\206#\230\004\340`\340\230L\205\354\004"
 3662      86239804 
 3662      E060E098 
 3662      4C85EC04 
 3663 3b7a 0000DE65 		.ascii	"\000\000\336e\201\035\0145\203\265\244S`@\340\242F:"
 3663      811D0C35 
 3663      83B5A453 
 3663      6040E0A2 
 3663      463A
 3664 3b8c 82A5865D 		.ascii	"\202\245\206]\000\031\202\003\202\021\341\340\341\340"
 3664      00198203 
 3664      8211E1E0 
 3664      E1E0
 3665 3b9a 4011E090 		.ascii	"@\021\340\220\014%\340\034\014\005\340\204\014\025\340"
 3665      0C25E01C 
ARM GAS  C:\Temp\ccVQrAGa.s 			page 127


 3665      0C05E084 
 3665      0C15E0
 3666 3ba9 84061440 		.ascii	"\204\006\024@#\206\003L\205\3400\244\004\340\230\340"
 3666      2386034C 
 3666      85E030A4 
 3666      04E098E0 
 3667 3bb9 A40C35E0 		.ascii	"\244\0145\340\220\014%\206-\2003\0145\206\305\2003\340"
 3667      900C2586 
 3667      2D80330C 
 3667      3586C580 
 3667      33E0
 3668 3bcb 3490A587 		.ascii	"4\220\245\207-`\034\014%\344\004\010\020`<\0145\340"
 3668      2D601C0C 
 3668      25E40408 
 3668      10603C0C 
 3668      35E0
 3669 3bdd 840244E0 		.ascii	"\204\002D\340\204LED\003\202#B2`0D\023\360\200\014\011"
 3669      844C4544 
 3669      03822342 
 3669      32603044 
 3669      13F0800C 
 3670 3bf2 E060400A 		.ascii	"\340`@\012\341\3200\370\340\204\347\265\337\374\206"
 3670      E1D030F8 
 3670      E084E7B5 
 3670      DFFC86
 3671 3c01 F5A11D60 		.ascii	"\365\241\035`\034\014%\340\204\006\024\340@\014E\006"
 3671      1C0C25E0 
 3671      840614E0 
 3671      400C4506 
 3672 3c11 33843348 		.ascii	"3\2043HJ\3400\2403\340\242\202\205\210=\004\011\202"
 3672      4AE030A0 
 3672      33E0A282 
 3672      85883D04 
 3672      0982
 3673 3c23 238201E1 		.ascii	"#\202\001\341\340\341\340D\001\014%\244\004\014\025"
 3673      E0E1E044 
 3673      010C25A4 
 3673      040C15
 3674 3c32 E01C0614 		.ascii	"\340\034\006\024\340\204\206#\340\204\3400D\003\217"
 3674      E0848623 
 3674      E084E030 
 3674      44038F
 3675 3c41 01027160 		.ascii	"\001\002q`\230L\0051\210\217\033\214\013\337\374\362"
 3675      984C0531 
 3675      888F1B8C 
 3675      0BDFFCF2 
 3676 3c51 FC0C0CE0 		.ascii	"\374\014\014\340\004'\010\340\374\014\005\341\000\014"
 3676      042708E0 
 3676      FC0C05E1 
 3676      000C
 3677 3c5f 15E0944C 		.ascii	"\025\340\224L%`\230L\205\361\200@\"`\274L\005L%\242"
 3677      2560984C 
 3677      85F18040 
 3677      2260BC4C 
 3677      054C25A2 
 3678 3c73 23E125E0 		.ascii	"#\341%\340\300\370\034\004\014\201a\002$` \000\025\000"
 3678      C0F81C04 
ARM GAS  C:\Temp\ccVQrAGa.s 			page 128


 3678      0C816102 
 3678      24602000 
 3678      1500
 3679 3c85 45817188 		.ascii	"E\201q\2104\340\240\310\304\212T\0005\312$\206S`\030"
 3679      34E0A0C8 
 3679      C48A5400 
 3679      35CA2486 
 3679      536018
 3680 3c98 58529853 		.ascii	"XR\230S\202[p\210\004@U\316\201\325\354\020\202q\002"
 3680      825B7088 
 3680      044055CE 
 3680      81D5EC10 
 3680      827102
 3681 3cab 847C1810 		.ascii	"\204|\030\020\205\360\230R\202`\020\022\225\260\303"
 3681      85F09852 
 3681      82601012 
 3681      95B0C3
 3682 3cba 8861D5CE 		.ascii	"\210a\325\316\222\303\374u\205}`\210\030D\354\004\010"
 3682      92C3FC75 
 3682      857D6088 
 3682      1844EC04 
 3682      08
 3683 3ccb 4070B04A 		.ascii	"@p\260J\022\012P\2303\030\300l0\201\365\354@\202!Mt"
 3683      120A5098 
 3683      3318C06C 
 3683      3081F5EC 
 3683      4082214D 
 3684 3ce0 02858264 		.ascii	"\002\205\202d\304w\3740|0\014\225\014e\210\301\262\203"
 3684      C477FC30 
 3684      7C300C95 
 3684      0C6588C1 
 3684      B283
 3685 3cf2 FC1CD58E 		.ascii	"\374\034\325\216\214\203\3745\211-\360\034\014\014\301"
 3685      8C83FC35 
 3685      892DF01C 
 3685      0C0CC1
 3686 3d01 C3DD93F8 		.ascii	"\303\335\223\370|\004\014\355\200\036\360`\274\000u"
 3686      7C040CED 
 3686      801EF060 
 3686      BC0075
 3687 3d10 0035FF61 		.ascii	"\0005\377a\201\021`\300`\030\000%@\025\201\201@e\340"
 3687      811160C0 
 3687      60180025 
 3687      40158181 
 3687      4065E0
 3688 3d23 7C0015E0 		.ascii	"|\000\025\340\210\000\305\340\264@e\340\250%>\341@\340"
 3688      8800C5E0 
 3688      B44065E0 
 3688      A8253EE1 
 3688      40E0
 3689 3d35 88067460 		.ascii	"\210\006t`\330\0005\000E\206#\026 `lJ\312\354@\201!"
 3689      D8003500 
 3689      45862316 
 3689      20606C4A 
 3689      CAEC4081 
 3690 3d4a 66864686 		.ascii	"f\206F\206!>(3\340<\033>\240Q\344@\006\020\010\020\013"
 3690      213E2833 
ARM GAS  C:\Temp\ccVQrAGa.s 			page 129


 3690      E03C1B3E 
 3690      A051E440 
 3690      06100810 
 3691 3d5f 377C3EE4 		.ascii	"7|>\344\020\344\010\006\020\313W\002\021\2057\007G\203"
 3691      10E40806 
 3691      10CB5702 
 3691      11853707 
 3691      4783
 3692 3d71 17195E81 		.ascii	"\027\031^\201Q>N\201A\011>\000\025\225\036\223\036\340"
 3692      513E4E81 
 3692      41093E00 
 3692      15951E93 
 3692      1EE0
 3693 3d83 DCE0E000 		.ascii	"\334\340\340\000\025\000\025\376\036\215\036\340(\340"
 3693      150015FE 
 3693      1E8D1EE0 
 3693      28E0
 3694 3d91 2C001500 		.ascii	",\000\025\000\025\221\036\217\316\340$\035\036\243~"
 3694      15911E8F 
 3694      CEE0241D 
 3694      1EA37E
 3695 3da0 E08402C4 		.ascii	"\340\204\002\304\201\021\013\036\216\303+\036\201\021"
 3695      81110B1E 
 3695      8EC32B1E 
 3695      8111
 3696 3dae 3CCE1A38 		.ascii	"<\316\0328\227\036\012\240\340\000\013\012\344\004\032"
 3696      971E0AA0 
 3696      E0000B0A 
 3696      E4041A
 3697 3dbd 48E72016 		.ascii	"H\347 \026\025\300\000\242M`\020^E\255n^%\300\\\230"
 3697      15C000A2 
 3697      4D60105E 
 3697      45AD6E5E 
 3697      25C05C98 
 3698 3dd1 F5C04CC4 		.ascii	"\365\300L\304\027'\276`\254\0005\031t\214\273\006\305"
 3698      1727BE60 
 3698      AC003519 
 3698      748CBB06 
 3698      C5
 3699 3de2 8E6BAB34 		.ascii	"\216k\2534\374\004\004\315\256\303+>\2103\234\000X "
 3699      FC0404CD 
 3699      AEC32B3E 
 3699      88339C00 
 3699      5820
 3700 3df4 4E600E05 		.ascii	"N`\016\005)\216\234\000\257N\230\213\340\260\0005\213"
 3700      298E9C00 
 3700      AF4E988B 
 3700      E0B00035 
 3700      8B
 3701 3e05 C48F44FC 		.ascii	"\304\217D\374\004\006\025`\204\006\024\2103\216\023"
 3701      04061560 
 3701      84061488 
 3701      338E13
 3702 3e14 E032463A 		.ascii	"\3402F:F:\235\304\220\313f\262\345\000\0060F:\3177\015"
 3702      463A9DC4 
 3702      90CB66B2 
 3702      E5000630 
ARM GAS  C:\Temp\ccVQrAGa.s 			page 130


 3702      463ACF37 
 3703 3e29 34E69242 		.ascii	"4\346\222B\032\206\023B\032\360\012\002\020\346\216"
 3703      1A861342 
 3703      1AF00A02 
 3703      10E68E
 3704 3e38 D117E600 		.ascii	"\321\027\346\000\036E\202\315X \000\\\036\205\234\000"
 3704      1E4582CD 
 3704      5820005C 
 3704      1E859C00 
 3705 3e48 1E758050 		.ascii	"\036u\200P\202e\200D\226k/D\340\210@\225\241K\251\204"
 3705      82658044 
 3705      966B2F44 
 3705      E0884095 
 3705      A14BA984 
 3706 3e5c 811180C5 		.ascii	"\201\021\200\305\201\345\253\036\226k\001\345\203A<"
 3706      81E5AB1E 
 3706      966B01E5 
 3706      83413C
 3707 3e6b 14E14040 		.ascii	"\024\341@@\225\224\023\245${\010D\022\245.\201\021\243"
 3707      959413A5 
 3707      247B0844 
 3707      12A52E81 
 3707      11A3
 3708 3e7d 74AB1E   		.ascii	"t\253\036"
 3709 3e80 AB249B14 		.ascii	"\253$\233\024\202-\247\264\300\000\023\370\022x\243"
 3709      822DA7B4 
 3709      C00013F8 
 3709      1278A3
 3710 3e8f 4D4C8040 		.ascii	"ML\200@\000'\316\334\000\026\025\203!\257.\340\020`"
 3710      0027CEDC 
 3710      00161583 
 3710      21AF2EE0 
 3710      1060
 3711 3ea1 201625E0 		.ascii	" \026%\340\210\010\024\340 \0005\340\020\000\025\304"
 3711      880814E0 
 3711      200035E0 
 3711      100015C4 
 3712 3eb1 2721C4FC 		.ascii	"'!\304\374\020\006e\374\010\006%|\020\002E\020\005\231"
 3712      100665FC 
 3712      0806257C 
 3712      10024510 
 3712      0599
 3713 3ec3 AD93C48C 		.ascii	"\255\223\304\214#\236e\231\255\203\255\376\024\3564"
 3713      239E6599 
 3713      AD83ADFE 
 3713      14EE34
 3714 3ed2 AA85FCC4 		.ascii	"\252\205\374\304\202\024\002\025\3047B\302\374\014\030"
 3714      82140215 
 3714      C43742C2 
 3714      FC0C18
 3715 3ee1 14FA044C 		.ascii	"\024\372\004L\"\340\214\302g\361\260\036\225\220mL\200"
 3715      22E08CC2 
 3715      67F1B01E 
 3715      95906D4C 
 3715      80
 3716 3ef2 00580FB8 		.ascii	"\000X\017\270\234\000)\216\200\000\344\020\016@\307"
 3716      9C00298E 
ARM GAS  C:\Temp\ccVQrAGa.s 			page 131


 3716      8000E410 
 3716      0E40C7
 3717 3f01 7740C4B3 		.ascii	"w@\304\263\021\037\036\346\206D*\030%\235\024\020 |"
 3717      111F1EE6 
 3717      86442A18 
 3717      259D1410 
 3717      207C
 3718 3f13 0C1F34E4 		.ascii	"\014\0374\344\010Nz\305\207\202\313f\206\255\021\010"
 3718      084E7AC5 
 3718      8782CB66 
 3718      86AD1108 
 3719 3f23 83483A10 		.ascii	"\203H:\020qIw\346\206\340\230\002$\006\006\016\203\002"
 3719      714977E6 
 3719      86E09802 
 3719      2406060E 
 3719      8302
 3720 3f35 83E00410 		.ascii	"\203\340\004\020C\203\021\023\345\217\201\037^\203q"
 3720      43831113 
 3720      E58F811F 
 3720      5E8371
 3721 3f44 1615805B 		.ascii	"\026\025\200[\026e\3700\026u\370 )\216\370\020,\204"
 3721      1665F830 
 3721      1675F820 
 3721      298EF810 
 3721      2C84
 3722 3f56 C41706C5 		.ascii	"\304\027\006\305\304g\304w|\004\374\030\006e|\034\006"
 3722      C467C477 
 3722      7C04FC18 
 3722      06657C1C 
 3722      06
 3723 3f67 750635C4 		.ascii	"u\0065\304\207)\004\374 \216c\230c\206c\0254z\030F2"
 3723      872904FC 
 3723      208E6398 
 3723      63866315 
 3723      347A1846 
 3724 3f7c E0840C24 		.ascii	"\340\204\014$\200m\246c\035\204\222E\344\020\016@\307"
 3724      806DA663 
 3724      1D849245 
 3724      E4100E40 
 3724      C7
 3725 3f8d 770A0B84 		.ascii	"w\012\013\204CB\304f\242Nz\237T\304G|\004\030\025Ew"
 3725      4342C466 
 3725      A24E7A9F 
 3725      54C4477C 
 3725      04181545 
 3726 3fa2 84710873 		.ascii	"\204q\010s\220\313\002s\221\201Hr\220\021\004\024p\214"
 3726      90CB0273 
 3726      91814872 
 3726      90110414 
 3726      708C
 3727 3fb4 0606E190 		.ascii	"\006\006\341\220\211\021`\010\207q\013\365\370\020\026"
 3727      89116008 
 3727      87710BF5 
 3727      F81016
 3728 3fc3 75C477AC 		.ascii	"u\304w\254\304|\034\006e\0065\304\307\211\304\3740F"
 3728      C47C1C06 
 3728      650635C4 
ARM GAS  C:\Temp\ccVQrAGa.s 			page 132


 3728      C789C4FC 
 3728      3046
 3729 3fd5 C28C334C 		.ascii	"\302\2143L\"\372\014\302g\361\214\236\345\220m\030@"
 3729      22FA0CC2 
 3729      67F18C9E 
 3729      E5906D18 
 3729      40
 3730 3fe6 298E0215 		.ascii	")\216\002\025\344\020\307\307|\034\204C\035t\002C\221"
 3730      E410C7C7 
 3730      7C1C8443 
 3730      1D740243 
 3730      91
 3731 3ff7 8144CA88 		.ascii	"\201D\312\210\021\206Cf\236\216\313DG\006\006\004!E"
 3731      11864366 
 3731      9E8ECB44 
 3731      47060604 
 3731      2145
 3732 4009 27E00804 		.ascii	"'\340\010\004C\205q\341\214\004\024\205\021\0075\212"
 3732      438571E1 
 3732      8C041485 
 3732      1107358A 
 3733 4019 0B006BA3 		.ascii	"\013\000k\243t\255\224\247\304\257D\215U\237T\304w\254"
 3733      74AD94A7 
 3733      C4AF448D 
 3733      559F54C4 
 3733      77AC
 3734 402b 74FC1C06 		.ascii	"t\374\034\006\025B2\2764\006\024\372\004L\"\340\204"
 3734      154232BE 
 3734      340614FA 
 3734      044C22E0 
 3734      84
 3735 403c C267F18C 		.ascii	"\302g\361\214\222\345\220m\030@)\216\0005\344\020\307"
 3735      92E5906D 
 3735      1840298E 
 3735      0035E410 
 3735      C7
 3736 404d C7601484 		.ascii	"\307`\024\204C\035\204|\034\0065X\312\207q\020\301\346"
 3736      431D847C 
 3736      1C063558 
 3736      CA877110 
 3736      C1E6
 3737 405f A249C786 		.ascii	"\242I\307\206\023\030C\2041\020\313\304\027\0044\202"
 3737      13184384 
 3737      3110CBC4 
 3737      17043482 
 3738 406f 438F8161 		.ascii	"C\217\201a\210`\004\006\006D*\211\021\202#\346\262\021"
 3738      88600406 
 3738      06442A89 
 3738      118223E6 
 3738      B211
 3739 4081 24EF2F42 		.ascii	"$\357/BJ\204CB\032\360\012\206\023\346\212\202m\361"
 3739      4A844342 
 3739      1AF00A86 
 3739      13E68A82 
 3739      6DF1
 3740 4093 1F80501E 		.ascii	"\037\200P\036e\200X\036\225\200D\036u\257D\210\305\340"
 3740      6580581E 
ARM GAS  C:\Temp\ccVQrAGa.s 			page 133


 3740      9580441E 
 3740      75AF4488 
 3740      C5E0
 3741 40a5 88409523 		.ascii	"\210@\225#t\227\024\247\304\243K\227\036\202\021\000"
 3741      749714A7 
 3741      C4A34B97 
 3741      1E821100 
 3742 40b5 1584958E 		.ascii	"\025\204\225\216\243`\360`\240\000%\205A\2071D*\224"
 3742      A360F060 
 3742      A0002585 
 3742      41873144 
 3742      2A94
 3743 40c7 13061066 		.ascii	"\023\006\020f\216\205=\344\020@H^\025@\025\203\021\201"
 3743      8E853DE4 
 3743      1040485E 
 3743      15401583 
 3743      1181
 3744 40d9 B5E07C81 		.ascii	"\265\340|\201\225\255\224\220k-\224\247\304\257D\201"
 3744      95AD9490 
 3744      6B2D94A7 
 3744      C4AF4481 
 3745 40e9 35A374A7 		.ascii	"5\243t\247\304\257D\210\261\014\213\222k\030+\212\253"
 3745      C4AF4488 
 3745      B10C8B92 
 3745      6B182B8A 
 3745      AB
 3746 40fa 2514F0A8 		.ascii	"%\024\360\250Rr%\250\202\235\241m\237\374\227$\202\025"
 3746      527225A8 
 3746      829DA16D 
 3746      9FFC9724 
 3746      8215
 3747 410c E0F00015 		.ascii	"\340\360\000\025\203-\202!\300\210@e\036\360\001\021"
 3747      832D8221 
 3747      C0884065 
 3747      1EF00111 
 3748 411c 4015E580 		.ascii	"@\025\345\200\014\014\340\230\335\223\360|\370|\004"
 3748      0C0CE098 
 3748      DD93F07C 
 3748      F87C04
 3749 412b 0CED801E 		.ascii	"\014\355\200\036\360\3771\001!`\200@%\340<J\206`l\000"
 3749      F0FF3101 
 3749      21608040 
 3749      25E03C4A 
 3749      86606C00 
 3750 413f 25001581 		.ascii	"%\000\025\201\261\201a`\264`\214@5@5\201\221\244SaD"
 3750      B1816160 
 3750      B4608C40 
 3750      35403581 
 3750      91A45361 
 3751 4154 60C00035 		.ascii	"`\300\0005\344@\004\020`\250\000\305\000E\213'\251>"
 3751      E4400410 
 3751      60A800C5 
 3751      00458B27 
 3751      A93E
 3752 4166 E0BCE018 		.ascii	"\340\274\340\030\000\245\004\020\011.\007'\344\020\346"
 3752      00A50410 
 3752      092E0727 
ARM GAS  C:\Temp\ccVQrAGa.s 			page 134


 3752      E410E6
 3753 4175 8646CA44 		.ascii	"\206F\312DB~.D'\361\260P\242\2401\004\020p\210\002\021"
 3753      427E2E44 
 3753      27F1B050 
 3753      A2A03104 
 3753      10708802 
 3754 418a E4080527 		.ascii	"\344\010\005'\3137\037>\203\027\340\210\006D\206\243"
 3754      CB371F3E 
 3754      8317E088 
 3754      064486A3 
 3755 419a 215E8131 		.ascii	"!^\2011\017.\000\025\233\036\245\036\340\344\340\350"
 3755      0F2E0015 
 3755      9B1EA51E 
 3755      E0E4E0E8 
 3756 41aa 00150015 		.ascii	"\000\025\000\025\231\036\215\036\340\354\340(\000\025"
 3756      991E8D1E 
 3756      E0ECE028 
 3756      0015
 3757 41b8 0015931E 		.ascii	"\000\025\223\036\227\036\340,\340$\000\025#\036\225"
 3757      971EE02C 
 3757      E0240015 
 3757      231E95
 3758 41c7 CEE08402 		.ascii	"\316\340\204\002\304\270\033\021\036\377\021|\036\201"
 3758      C4B81B11 
 3758      1EFF117C 
 3758      1E81
 3759 41d5 110B1E81 		.ascii	"\021\013\036\201\301\035\036\015\012\261\245\030\270"
 3759      C11D1E0D 
 3759      0AB1A518 
 3759      B8
 3760 41e2 E31CA2CD 		.ascii	"\343\034\242\315\300\000\\\000N0\334\000F\300-\256\226"
 3760      C0005C00 
 3760      4E30DC00 
 3760      46C02DAE 
 3760      96
 3761 41f3 5520248C 		.ascii	"U $\214\253\000\025\210k\230\263`\254\304'\237D\374"
 3761      AB001588 
 3761      6B98B360 
 3761      ACC4279F 
 3761      44FC
 3762 4205 080215F1 		.ascii	"\010\002\025\361\220N\022\014\005\206}\234\000N0\216"
 3762      904E120C 
 3762      05867D9C 
 3762      004E308E 
 3763 4215 9B2F9EE0 		.ascii	"\233/\236\340\260\000U\221t\225\024\374\010\012%`\204"
 3763      B0005591 
 3763      749514FC 
 3763      080A2560 
 3763      84
 3764 4226 0A248253 		.ascii	"\012$\202S\210#\340\036JZJZ\243t\222{f\236\345\000\012"
 3764      8823E01E 
 3764      4A5A4A5A 
 3764      A374927B 
 3764      669EE500 
 3765 423b 504A5ACF 		.ascii	"PJZ\317W\223\024\346\206D*\212#D*\360\012\004 \346\206"
 3765      579314E6 
 3765      86442A8A 
ARM GAS  C:\Temp\ccVQrAGa.s 			page 135


 3765      23442AF0 
 3765      0A0420E6 
 3766 4250 D127E600 		.ascii	"\321'\346\000\036\225\204}N0\000\\\202\005\234\000\241"
 3766      1E95847D 
 3766      4E30005C 
 3766      82059C00 
 3766      A1
 3767 4261 CB0C4BE0 		.ascii	"\313\014K\340\214@E\001\345\200\245\001\325\201\261"
 3767      8C404501 
 3767      E580A501 
 3767      D581B1
 3768 4270 7C248C4B 		.ascii	"|$\214K@E\201\261\203\301aD\210#\251\024\372\004B\""
 3768      404581B1 
 3768      83C16144 
 3768      8823A914 
 3768      FA044222 
 3769 4284 AF94A91E 		.ascii	"\257\224\251\036\224k!\024\202\275\255\244\300\000\023"
 3769      946B2114 
 3769      82BDADA4 
 3769      C00013
 3770 4293 48833123 		.ascii	"H\2031#\315\\\000F\300\334\000J\220\300\000\021\270"
 3770      CD5C0046 
 3770      C0DC004A 
 3770      90C00011 
 3770      B8
 3771 42a4 ADBEAB7E 		.ascii	"\255\276\253~\370\020\024%\340 \000U\370 \024\305\304"
 3771      F8101425 
 3771      E0200055 
 3771      F82014C5 
 3771      C4
 3772 42b5 272514FC 		.ascii	"'%\024\374\010\012\265`\020\000%\012u\304\307\203m|"
 3772      080AB560 
 3772      1000250A 
 3772      75C4C783 
 3772      6D7C
 3773 42c7 30FC3004 		.ascii	"0\3740\004\305\216\263\016e\203m\231\024\215\024\234"
 3773      C58EB30E 
 3773      65836D99 
 3773      148D149C 
 3774 42d7 25836DA8 		.ascii	"%\203m\250t\002\024\246\205\211$\304w\374\034\002\025"
 3774      740214A6 
 3774      858924C4 
 3774      77FC1C02 
 3774      15
 3775 42e8 FA044422 		.ascii	"\372\004D\"\340\214\002$\361\204J\262\222]\302W\200"
 3775      E08C0224 
 3775      F1844AB2 
 3775      925DC257 
 3775      80
 3776 42f9 000FA812 		.ascii	"\000\017\250\022\300/\236'\216\344\020\300\024\307\227"
 3776      C02F9E27 
 3776      8EE410C0 
 3776      14C797
 3777 4308 B3113E1E 		.ascii	"\263\021>\036\346\206P\272>\264\243\024\305\207\204"
 3777      E68650BA 
 3777      3EB4A314 
 3777      C58784
ARM GAS  C:\Temp\ccVQrAGa.s 			page 136


 3778 4317 81668652 		.ascii	"\201f\206R\232\026\265\230\203\255\301|\034X*\020\221"
 3778      9A16B598 
 3778      83ADC17C 
 3778      1C582A10 
 3778      91
 3779 4328 4997E6B2 		.ascii	"I\227\346\262\340\004\016\006\004\264\022\203\004\203"
 3779      E0040E06 
 3779      04B41283 
 3779      0483
 3780 4336 E09810C3 		.ascii	"\340\230\020\303\203\221\023E\217\201\247\216\203!\024"
 3780      83911345 
 3780      8F81A78E 
 3780      832114
 3781 4345 75A82414 		.ascii	"u\250$\024\205\340\020/\236\340 \024\225\304'\304w`"
 3781      85E0102F 
 3781      9EE02014 
 3781      95C427C4 
 3781      7760
 3782 4357 307C080A 		.ascii	"0|\010\012\025\012u\304\207\012\205\374\034\304\227"
 3782      150A75C4 
 3782      870A85FC 
 3782      1CC497
 3783 4366 7C20FC24 		.ascii	"| \374$\012U\202s\033\024\220s/\224\012\264\012sN\022"
 3783      0A558273 
 3783      1B149073 
 3783      2F940AB4 
 3783      0A734E12 
 3784 437a E084AE53 		.ascii	"\340\204\256S\372\034\220\345\222]\020\300#\224B\024"
 3784      FA1C90E5 
 3784      925D10C0 
 3784      23944214 
 3785 438a E41096C3 		.ascii	"\344\020\226\303\307\207f\246P\212\002\025\304\307\204"
 3785      C78766A6 
 3785      508A0215 
 3785      C4C784
 3786 4399 81FC0898 		.ascii	"\201\374\010\230\203\305\207\220\021\002\203p\234X\202"
 3786      83C58790 
 3786      11028370 
 3786      9C5882
 3787 43a8 E1901614 		.ascii	"\341\220\026\024\221\201\022\033\016\006\013\225\247"
 3787      9181121B 
 3787      0E060B95 
 3787      A7
 3788 43b5 8EE00814 		.ascii	"\216\340\010\024\025\250\204\304\207\340\020| \012u"
 3788      15A884C4 
 3788      87E0107C 
 3788      200A75
 3789 43c4 0A15C417 		.ascii	"\012\025\304\027\217T\374\004NR\216\023J\262\372\004"
 3789      8F54FC04 
 3789      4E528E13 
 3789      4AB2FA04 
 3790 43d4 C257F19C 		.ascii	"\302W\361\234\206e\222]\205\221/\236| \004\025\344\020"
 3790      8665925D 
 3790      85912F9E 
 3790      7C200415 
 3790      E410
 3791 43e6 04C0C727 		.ascii	"\004\300\307'#\204\002\303\226\303D*\210\021\216\303"
ARM GAS  C:\Temp\ccVQrAGa.s 			page 137


 3791      238402C3 
 3791      96C3442A 
 3791      88118EC3 
 3792 43f6 66A21614 		.ascii	"f\242\026\024D\307\004!\341\214E'\220\033\004\303\221"
 3792      44C70421 
 3792      E18C4527 
 3792      901B04C3 
 3792      91
 3793 4407 81E0080E 		.ascii	"\201\340\010\016\006\205!\005\325\222[\015\005\304w"
 3793      06852105 
 3793      D5925B0D 
 3793      05C477
 3794 4416 7E24FC1C 		.ascii	"~$\374\034\012\025\372\004D\"\340\204\002$\361\204J"
 3794      0A15FA04 
 3794      4422E084 
 3794      0224F184 
 3794      4A
 3795 4427 B2925DC2 		.ascii	"\262\222]\302W\257\236\230\005\020\300'\216\000\025"
 3795      57AF9E98 
 3795      0510C027 
 3795      8E0015
 3796 4436 E410C787 		.ascii	"\344\020\307\207`\024\226\303#\224|\034\002\025\340"
 3796      601496C3 
 3796      23947C1C 
 3796      0215E0
 3797 4445 040E06E6 		.ascii	"\004\016\006\346\246P\212\202#\020\201\204\021I\207"
 3797      A6508A82 
 3797      23108184 
 3797      114987
 3798 4454 C42710C3 		.ascii	"\304'\020\303a\210\026\024\022\033\204\303\007!\217"
 3798      61881614 
 3798      121B84C3 
 3798      07218F
 3799 4463 8142BA89 		.ascii	"\201B\272\211\221\222\023\346\206\345\037\027$B\312"
 3799      919213E6 
 3799      86E51F17 
 3799      2442CA
 3800 4472 82C3421A 		.ascii	"\202\303B\032\360\012\216\023\346\212\202]\361\037\200"
 3800      F00A8E13 
 3800      E68A825D 
 3800      F11F80
 3801 4481 5C1E5540 		.ascii	"\\\036U@E\210\305\243;`\214\210+\035\024H '\204\255"
 3801      4588C5A3 
 3801      3B608C88 
 3801      2B1D1448 
 3801      202784AD 
 3802 4495 B4DC0082 		.ascii	"\264\334\000\202\021+t\206\225\235\036`\364\000\025"
 3802      112B7486 
 3802      959D1E60 
 3802      F40015
 3803 44a4 984B84CB 		.ascii	"\230K\204\313q\204F\"\0020\377!)$\354@\225\024\204\035"
 3803      71844622 
 3803      0230FF21 
 3803      2924EC40 
 3803      9514841D 
 3804 44b8 5C004430 		.ascii	"\\\000D0\036%\203=\203\021@P`\200@\025\213N\2051\201"
 3804      1E25833D 
ARM GAS  C:\Temp\ccVQrAGa.s 			page 138


 3804      83114050 
 3804      60804015 
 3804      8B4E8531 
 3805 44cd 45A92EAD 		.ascii	"E\251.\255\264\247\204\006\313\253t\010@\202a\020\200"
 3805      B4A78406 
 3805      CBAB7408 
 3805      40826110 
 3805      80
 3806 44de 6C0414A0 		.ascii	"l\004\024\240\354\020\212\233l\020\216;\001E\222[\177"
 3806      EC108A9B 
 3806      6C108E3B 
 3806      0145925B 
 3806      7F
 3807 44ef 35834DA9 		.ascii	"5\203M\251\024\237\374'X\241=\2134\235$\202\025\340"
 3807      149FFC27 
 3807      58A13D8B 
 3807      349D2482 
 3807      15E0
 3808 4501 F4001583 		.ascii	"\364\000\025\203-\202!\300\214@5\036\360\001\021@\025"
 3808      2D8221C0 
 3808      8C40351E 
 3808      F0011140 
 3808      15
 3809 4512 E5800C0C 		.ascii	"\345\200\014\014\340\230\335\223\360|\370|\004\014\354"
 3809      E098DD93 
 3809      F07CF87C 
 3809      040CEC
 3810 4521 A01EF060 		.ascii	"\240\036\360`\274\000\205@\025\377\021\000\025\340\220"
 3810      BC008540 
 3810      15FF1100 
 3810      15E090
 3811 4530 911EE0C0 		.ascii	"\221\036\340\300\3400\000\025\340\030\000\265\000\025"
 3811      E0300015 
 3811      E01800B5 
 3811      0015
 3812 453e 8D1E8B1E 		.ascii	"\215\036\213\036\340$\340d\000\025\211\276\376\216\201"
 3812      E024E064 
 3812      001589BE 
 3812      FE8E81
 3813 454d 110F1E81 		.ascii	"\021\017\036\201\021\023\036\201\021>\036\255\265\374"
 3813      11131E81 
 3813      113E1EAD 
 3813      B5FC
 3814 455b 1EE31C05 		.ascii	"\036\343\034\005\012\300\000\026\350` \000u\340\210"
 3814      0AC00016 
 3814      E8602000 
 3814      75E088
 3815 456a 06A47C0C 		.ascii	"\006\244|\014\026\205\217\024\202!\016\225\304\207\241"
 3815      16858F14 
 3815      82210E95 
 3815      C487A1
 3816 4579 1B7C2096 		.ascii	"\033| \226\305\223.\264\023\376\024\226E\260\035`\264"
 3816      C5932EB4 
 3816      13FE1496 
 3816      45B01D60 
 3816      B4
 3817 458a 00150655 		.ascii	"\000\025\006U\2263\006%\372\020\304W\340 |\024\016E"
ARM GAS  C:\Temp\ccVQrAGa.s 			page 139


 3817      96330625 
 3817      FA10C457 
 3817      E0207C14 
 3817      0E45
 3818 459c 0EC5C427 		.ascii	"\016\305\304'\004\020|\010\207'\344\020\372\020D\"`"
 3818      04107C08 
 3818      8727E410 
 3818      FA104422 
 3818      60
 3819 45ad 10009508 		.ascii	"\020\000\225\010$\222\303L\302\340\204\022\205\361\220"
 3819      2492C34C 
 3819      C2E08412 
 3819      85F190
 3820 45bc A36D7C20 		.ascii	"\243m| \244\265\274\216`\024\000E\213\224\302g|\024"
 3820      A4B5BC8E 
 3820      60140045 
 3820      8B94C267 
 3820      7C14
 3821 45ce 0845E410 		.ascii	"\010E\344\020\012\200\230\203GW\346\246JZd\010\026@"
 3821      0A809883 
 3821      4757E6A6 
 3821      4A5A6408 
 3821      1640
 3822 45e0 45B78823 		.ascii	"E\267\210#V\272\220Q\311Wf\246\304'\012\203\204\203"
 3822      56BA9051 
 3822      C95766A6 
 3822      C4270A83 
 3822      8483
 3823 45f2 08B1C7B7 		.ascii	"\010\261\307\267\015DD\212\226\203D*\360\012\004 \346"
 3823      0D44448A 
 3823      9683442A 
 3823      F00A0420 
 3823      E6
 3824 4603 92CF27E5 		.ascii	"\222\317'\345\000\036\265\204m\232\345\200\020\204m"
 3824      001EB584 
 3824      6D9AE580 
 3824      10846D
 3825 4612 FC24C090 		.ascii	"\374$\300\220@\245\211\264\276$\300\010^e\230\265\241"
 3825      40A589B4 
 3825      BE24C008 
 3825      5E6598B5 
 3825      A1
 3826 4623 2BE0F800 		.ascii	"+\340\370\000%D\242\221DH\"\361\210\203!z\020\276.\221"
 3826      2544A291 
 3826      444822F1 
 3826      8883217A 
 3826      10BE2E91 
 3827 4637 4E00658B 		.ascii	"N\000e\213\245B\262`\264\002E\360\214\000\265\372\020"
 3827      A542B260 
 3827      B40245F0 
 3827      8C00B5FA 
 3827      10
 3828 4648 0660E014 		.ascii	"\006`\340\024DG\344\020"
 3828      4447E410 
 3829 4650 0E258737 		.ascii	"\016%\2077\026\305\374\020J2\374 \004\224z\010\006T"
 3829      16C5FC10 
 3829      4A32FC20 
ARM GAS  C:\Temp\ccVQrAGa.s 			page 140


 3829      04947A08 
 3829      0654
 3830 4662 E0844622 		.ascii	"\340\204F\"\340\204\243=\361\214\300\020\036\265\026"
 3830      E084A33D 
 3830      F18CC010 
 3830      1EB516
 3831 4671 45A25550 		.ascii	"E\242UP\302|\020<\316\360\244\344\010\026\300\305\267"
 3831      C27C103C 
 3831      CEF0A4E4 
 3831      0816C0C5 
 3831      B7
 3832 4682 0BC48441 		.ascii	"\013\304\204A\010\203\212\203EGf\262V\272HJ\304\207"
 3832      08838A83 
 3832      454766B2 
 3832      56BA484A 
 3832      C487
 3833 4694 C23766B2 		.ascii	"\3027f\262\210\261\015T\307\267\010A\226C\307GHJ\220"
 3833      88B10D54 
 3833      C7B70841 
 3833      9643C747 
 3833      484A90
 3834 46a7 43484AF0 		.ascii	"CHJ\360\012\010@\346\226\317G\345\000\036\265\210=\036"
 3834      0A0840E6 
 3834      96CF47E5 
 3834      001EB588 
 3834      3D1E
 3835 46b9 C5801098 		.ascii	"\305\200\020\230e\200\000\211\264\374D@\245\210=^5\300"
 3835      65800089 
 3835      B4FC4440 
 3835      A5883D5E 
 3835      35C0
 3836 46cb 90BE34C0 		.ascii	"\220\2764\300\010\241;\274\304\0005\226\025\221D\340"
 3836      08A13BBC 
 3836      C4003596 
 3836      159144E0 
 3837 46db F8F18C46 		.ascii	"\370\361\214F\242z\020H2\221N\2031\211\325\276>\020"
 3837      A27A1048 
 3837      32914E83 
 3837      3189D5BE 
 3837      3E10
 3838 46ed A00C3404 		.ascii	"\240\0144\004\204\354\004\240\021`\210|\010\026e\002"
 3838      84EC04A0 
 3838      1160887C 
 3838      08166502 
 3839 46fd 248B170E 		.ascii	"$\213\027\016E\3047\304g\374\014\374\030\004%\372\010"
 3839      45C437C4 
 3839      67FC0CFC 
 3839      180425FA 
 3839      08
 3840 470e 4612E088 		.ascii	"F\022\340\210\0024\242\245\211\035\340\214\0024\361"
 3840      0234A2A5 
 3840      891DE08C 
 3840      0234F1
 3841 471d 8442C2A0 		.ascii	"\204B\302\240\365\243\035\263A@$f\222H\312\213\304\302"
 3841      F5A31DB3 
 3841      41402466 
 3841      9248CA8B 
ARM GAS  C:\Temp\ccVQrAGa.s 			page 141


 3841      C4C2
 3842 472f 177C1804 		.ascii	"\027|\030\004%<d\204A\012`\305G\214Cd\020\255aGW\346"
 3842      253C6484 
 3842      410A60C5 
 3842      478C4364 
 3842      10AD6147 
 3843 4745 B24A5A66 		.ascii	"\262JZf\262X*\020Q\314'\346\232F:\202\301IW\303\307"
 3843      B2582A10 
 3843      51CC27E6 
 3843      9A463A82 
 3843      C14957C3 
 3844 475a 0A438643 		.ascii	"\012C\206C\0154\230C\204C\360\012DJ\346\216D*\345\000"
 3844      0D349843 
 3844      8443F00A 
 3844      444AE68E 
 3844      442AE500 
 3845 476e 0420841D 		.ascii	"\004 \204\035\317'\374$\226\305@\245\204\035^\025\300"
 3845      CF27FC24 
 3845      96C540A5 
 3845      841D5E15 
 3845      C0
 3846 477f 9089B5C0 		.ascii	"\220\211\265\300\010\020\240\002D\004T\354\004\340\210"
 3846      0810A002 
 3846      440454EC 
 3846      04E088
 3847 478e 06847C0C 		.ascii	"\006\204|\014\0265\213g\240a\0024\304W\0105\340\210"
 3847      16358B67 
 3847      A0610234 
 3847      C4570835 
 3847      E088
 3848 47a0 0E45FC04 		.ascii	"\016E\374\004Lb\374\024\006d\372\014\211=\340\210\006"
 3848      4C62FC14 
 3848      0664FA0C 
 3848      893DE088 
 3848      06
 3849 47b1 64900546 		.ascii	"d\220\005F\"\340\214\243=\361\214@$\216U\344\010\010"
 3849      22E08CA3 
 3849      3DF18C40 
 3849      248E55E4 
 3849      0808
 3850 47c3 C0C5470B 		.ascii	"\300\305G\013t\304\3079Q|\004\004\025HJ\233!\3027f\236"
 3850      74C4C739 
 3850      517C0404 
 3850      15484A9B 
 3850      21C23766 
 3851 47d8 E68A449A 		.ascii	"\346\212D\232Jj\010A\004\303\346\226\346\236D\032\314"
 3851      4A6A0841 
 3851      04C3E696 
 3851      E69E441A 
 3851      CC
 3852 47e9 17474782 		.ascii	"\027GG\202!\010\303\303'\012\303\015$\202\303B\312\204"
 3852      2108C3C3 
 3852      270AC30D 
 3852      2482C342 
 3852      CA84
 3853 47fb C3421AF0 		.ascii	"\303B\032\360\012\002\020\346\212\317\027\345\000\204"
 3853      0A0210E6 
ARM GAS  C:\Temp\ccVQrAGa.s 			page 142


 3853      8ACF17E5 
 3853      0084
 3854 4809 65823D82 		.ascii	"e\202=\202=\374\024\300\220@\245\300\010^5\241\033\276"
 3854      3DFC14C0 
 3854      9040A5C0 
 3854      085E35A1 
 3854      1BBE
 3855 481b 14001582 		.ascii	"\024\000\025\202U\021\024\340\370B\242\242\243\021\036"
 3855      551114E0 
 3855      F842A2A2 
 3855      A3111E
 3856 482a FA04BE1E 		.ascii	"\372\004\276\036\203\021\220\253\021\024\203\255\223"
 3856      831190AB 
 3856      111483AD 
 3856      93
 3857 4837 249FFC29 		.ascii	"$\237\374)(\320\361\001\021\340\230@\025\360|\014\014"
 3857      28D0F101 
 3857      11E09840 
 3857      15F07C0C 
 3857      0C
 3858 4848 C1C3DD93 		.ascii	"\301\303\335\223`\254\000\025\000%\201A\201Q`\240\201"
 3858      60AC0015 
 3858      00258141 
 3858      815160A0 
 3858      81
 3859 4859 85843406 		.ascii	"\205\2044\006\315\305\304\3730F2\034\000HP\205]\202"
 3859      CDC5C4FB 
 3859      3046321C 
 3859      00485085 
 3859      5D82
 3860 486b 514045FE 		.ascii	"Q@E\376\025\335\223\340\270\370|\004\014`\030\002e\216"
 3860      15DD93E0 
 3860      B8F87C04 
 3860      0C601802 
 3860      658E
 3861 487d 35A32BE0 		.ascii	"5\243+\340L\002U\224e\201]\010\004\006\304\014%\340"
 3861      4C025594 
 3861      65815D08 
 3861      0406C40C 
 3861      25E0
 3862 488f 8888637C 		.ascii	"\210\210c|\020l\004\016\000\200K\203\201\340\210\006"
 3862      106C040E 
 3862      00804B83 
 3862      81E08806 
 3863 489f 24FC0C18 		.ascii	"$\374\014\0305\206\253\003\365\370\004\014\225\030\225"
 3863      3586AB03 
 3863      F5F8040C 
 3863      951895
 3864 48ae C497959D 		.ascii	"\304\227\225\235\374$\207\235\202\245\002\245\202e\026"
 3864      FC24879D 
 3864      82A502A5 
 3864      826516
 3865 48bd A4E0B4F7 		.ascii	"\244\340\264\367\267\341|\216\273\026\243\224\235\213"
 3865      B7E17C8E 
 3865      BB16A394 
 3865      9D8B
 3866 48cb A7A38B80 		.ascii	"\247\243\213\200\225\210\273\202u\014`\002\201\016p"
ARM GAS  C:\Temp\ccVQrAGa.s 			page 143


 3866      9588BB82 
 3866      750C6002 
 3866      810E70
 3867 48da EC1092AB 		.ascii	"\354\020\222\253l\004\212\215\226K\230T\370E\030U\304"
 3867      6C048A8D 
 3867      964B9854 
 3867      F8451855 
 3867      C4
 3868 48eb 5781C5FC 		.ascii	"W\201\305\374\024\004\004\0064\014%\340\210\010$\374"
 3868      14040406 
 3868      340C25E0 
 3868      880824FC 
 3869 48fb 080655E0 		.ascii	"\010\006U\340\210\200K|\020\002\305\212;\304'` \343"
 3869      88804B7C 
 3869      1002C58A 
 3869      3BC42760 
 3869      20E3
 3870 490d 400219FC 		.ascii	"@\002\031\374\010\030%\346\206F:\346\206BZ\206S\004"
 3870      081825E6 
 3870      86463AE6 
 3870      86425A86 
 3870      5304
 3871 491f 21822385 		.ascii	"!\202#\205'H\000\205]\210\013\334\000\360|\014\014\301"
 3871      27480085 
 3871      5D880BDC 
 3871      00F07C0C 
 3871      0CC1
 3872 4931 C3DD93F8 		.ascii	"\303\335\223\370|\004\014\354\200\036\360\340\204\000"
 3872      7C040CEC 
 3872      801EF0E0 
 3872      8400
 3873 493f 15B0F5A1 		.ascii	"\025\260\365\241\035`\034\000%\340\204\022\024\022s"
 3873      1D601C00 
 3873      25E08412 
 3873      141273
 3874 494e 8493A17D 		.ascii	"\204\223\241}\3400\000E\256\325\207Q`\240\340`\0223"
 3874      E0300045 
 3874      AED58751 
 3874      60A0E060 
 3874      1233
 3875 4960 E696504A 		.ascii	"\346\226PJ\254\245\221=\254u\241=\254%\221}\014p\011"
 3875      ACA5913D 
 3875      AC75A13D 
 3875      AC25917D 
 3875      0C7009
 3876 4973 2E0045E4 		.ascii	".\000E\344\014\000\245\340\264\240A\340\324a|\012D\372"
 3876      0C00A5E0 
 3876      B4A041E0 
 3876      D4617C0A 
 3876      44FA
 3877 4985 8004A4F7 		.ascii	"\200\004\244\367W\017.\004\244\012C\013G\341\240\015"
 3877      570F2E04 
 3877      A40A430B 
 3877      47E1A00D 
 3878 4995 4EE1A7E0 		.ascii	"N\341\247\340\210\010d`\030\000U\372\200\026$\376.\374"
 3878      88086460 
 3878      180055FA 
ARM GAS  C:\Temp\ccVQrAGa.s 			page 144


 3878      801624FE 
 3878      2EFC
 3879 49a7 AE54520B 		.ascii	"\256TR\013^\001Q\360\220\201\305\201A\202ai$\340 \000"
 3879      5E0151F0 
 3879      9081C581 
 3879      41826169 
 3879      24E02000 
 3880 49bb C51825C4 		.ascii	"\305\030%\304'\204!\374\010H\"\205'\206m\372\020\017"
 3880      278421FC 
 3880      08482285 
 3880      27866DFA 
 3880      100F
 3881 49cd C4FC8512 		.ascii	"\304\374\205\022#\240\035\216\303\300,\360\254N\302"
 3881      23A01D8E 
 3881      C3C02CF0 
 3881      AC4EC2
 3882 49dc 5B1C4E22 		.ascii	"[\034N\"\234\365\243\315\211-\215$\004\260\234\205\372"
 3882      9CF5A3CD 
 3882      892D8D24 
 3882      04B09C85 
 3882      FA
 3883 49ed 2DEC0491 		.ascii	"-\354\004\221}\234\025\015$\232\305\341\204\006\264"
 3883      7D9C150D 
 3883      249AC5E1 
 3883      8406B4
 3884 49fc 0CC00BA4 		.ascii	"\014\300\013\244>\036\344\004\340\210\002d\250#\017"
 3884      3E1EE404 
 3884      E0880264 
 3884      A8230F
 3885 4a0b 1E82A344 		.ascii	"\036\202\243D'\201\221&#`\256F*\340\210\004D\214\213"
 3885      27819126 
 3885      2360AE46 
 3885      2AE08804 
 3885      448C8B
 3886 4a1e 01B10315 		.ascii	"\001\261\003\025\246\313i$\244\303\202\024\202\201\002"
 3886      A6CB6924 
 3886      A4C38214 
 3886      828102
 3887 4a2d 15C427C4 		.ascii	"\025\304'\304\027\374\010\246\303\030\023`\000\004\022"
 3887      17FC08A6 
 3887      C3181360 
 3887      000412
 3888 4a3c E8000212 		.ascii	"\350\000\002\022\242\223\004\263\374\005\216\215\030"
 3888      A29304B3 
 3888      FC058E8D 
 3888      18
 3889 4a49 900B840F 		.ascii	"\220\013\204\017\024\344\010\344\010\006\260\003%\211"
 3889      14E408E4 
 3889      0806B003 
 3889      2589
 3890 4a57 94611482 		.ascii	"\224a\024\202\203\300$\202a\004\025\304\027\000%\374"
 3890      83C02482 
 3890      610415C4 
 3890      170025FC 
 3891 4a67 04442AE0 		.ascii	"\004D*\340$\212\023f\206\345\000\004 J\022\317'\216"
 3891      248A1366 
 3891      86E50004 
ARM GAS  C:\Temp\ccVQrAGa.s 			page 145


 3891      204A12CF 
 3891      278E
 3892 4a79 6DF088FE 		.ascii	"m\360\210\376\024\372\345\364 \002\212\0144\210\325"
 3892      14FAE5F4 
 3892      20028A0C 
 3892      3488D5
 3893 4a88 85C76108 		.ascii	"\205\307a\010\361\260Fb\206\345\240=`\320\000\005|$"
 3893      F1B04662 
 3893      86E5A03D 
 3893      60D00005 
 3893      7C24
 3894 4a9a 8CC342CA 		.ascii	"\214\303B\312\212\303\321\007\360\012\372\200\000\004"
 3894      8AC3D107 
 3894      F00AFA80 
 3894      0004
 3895 4aa8 E692400A 		.ascii	"\346\222@\012\346\212B\032\005\007\204\001\346\000\002"
 3895      E68A421A 
 3895      05078401 
 3895      E60002
 3896 4ab7 10911706 		.ascii	"\020\221\027\006\003\202\015>\004\320\244@\002\301\340"
 3896      03820D3E 
 3896      04D0A440 
 3896      02C1E0
 3897 4ac6 0019C404 		.ascii	"\000\031\304\004\002\020\301\340@\021\014\014\300\361"
 3897      0210C1E0 
 3897      40110C0C 
 3897      C0F1
 3898 4ad4 DD93F07C 		.ascii	"\335\223\360|\370|\004\014\354@\036\360`\250\000\025"
 3898      F87C040C 
 3898      EC401EF0 
 3898      60A80015 
 3899 4ae4 00758141 		.ascii	"\000u\201A\000%\340\254\000\245\340\260\243\035`\240"
 3899      0025E0AC 
 3899      00A5E0B0 
 3899      A31D60A0 
 3900 4af4 884E9C4E 		.ascii	"\210N\234N\203\023\2045\215\363\2033\234\304\202T\374"
 3900      83138435 
 3900      8DF38333 
 3900      9CC48254 
 3900      FC
 3901 4b05 100A559C 		.ascii	"\020\012U\234^\230S\210\304\300T|\020\012U\230S\210"
 3901      5E985388 
 3901      C4C0547C 
 3901      100A5598 
 3901      5388
 3902 4b17 41025488 		.ascii	"A\002T\210^\361\204H\242\030p#MLp\344\020\010U\334\000"
 3902      5EF18448 
 3902      A2187023 
 3902      4D4C70E4 
 3902      100855DC 
 3903 4b2c DC005050 		.ascii	"\334\000PP`\210\006D|>\216k\340\210\026\024\376\014"
 3903      60880644 
 3903      7C3E8E6B 
 3903      E0881614 
 3903      FE0C
 3904 4b3e 0C9582A1 		.ascii	"\014\225\202\241~\256\242\243\011\023\212\253>\256\211"
 3904      7EAEA2A3 
ARM GAS  C:\Temp\ccVQrAGa.s 			page 146


 3904      09138AAB 
 3904      3EAE89
 3905 4b4d 7383337C 		.ascii	"s\2033|,\024\245\315\204\224;\024\223\260\223\361\236"
 3905      2C14A5CD 
 3905      84943B14 
 3905      93B093F1 
 3905      9E
 3906 4b5e 86ABBEC4 		.ascii	"\206\253\276\304\374\204\002T\376\244\304\307\212\203"
 3906      FC840254 
 3906      FEA4C4C7 
 3906      8A83
 3907 4b6c 0EA08EC3 		.ascii	"\016\240\216\303H\232\354\004\000\330\340\034\016\020"
 3907      489AEC04 
 3907      00D8E01C 
 3907      0E10
 3908 4b7a A0008F13 		.ascii	"\240\000\217\023\354\004\207s\2033\341t\3314\2563\325"
 3908      EC048773 
 3908      8333E174 
 3908      D934AE33 
 3908      D5
 3909 4b8b 94F13E92 		.ascii	"\224\361>\2223\030 @T\210u\344\020`\210\016D\014\205"
 3909      33182040 
 3909      548875E4 
 3909      1060880E 
 3909      440C85
 3910 4b9e 846B06A0 		.ascii	"\204k\006\240~\034\011\023\344\004\361\204H2\006\024"
 3910      7E1C0913 
 3910      E404F184 
 3910      48320614 
 3911 4bae 073330AC 		.ascii	"\00730\254\340\210\212\233h\000|\014\022\225\351\264"
 3911      E0888A9B 
 3911      68007C0C 
 3911      1295E9B4 
 3912 4bbe 92AB1283 		.ascii	"\222\253\022\203\266\203\361\216\224\233FR@T\304G\360"
 3912      B683F18E 
 3912      949B4652 
 3912      4054C447 
 3912      F0
 3913 4bcf 9C200100 		.ascii	"\234 \001\000\250X\"@\000\203\005\360\220\212;\004k"
 3913      A8582240 
 3913      008305F0 
 3913      908A3B04 
 3913      6B
 3914 4be0 A00000D8 		.ascii	"\240\000\000\330\354\004\000\020\2033\201\023\331\004"
 3914      EC040010 
 3914      83338113 
 3914      D904
 3915 4bee 8773D524 		.ascii	"\207s\325$\315\024\204\003\242\003\240\361\361\016\360"
 3915      CD148403 
 3915      A203A0F1 
 3915      F10EF0
 3916 4bfd 7C0C0CC1 		.ascii	"|\014\014\301\303\335\223\370\034\004\014`\240\0025"
 3916      C3DD93F8 
 3916      1C040C60 
 3916      A00235
 3917 4c0c 02258741 		.ascii	"\002%\207AF:\340PH\"\346\222\0060\360\200\207M\354\004"
 3917      463AE050 
ARM GAS  C:\Temp\ccVQrAGa.s 			page 147


 3917      4822E692 
 3917      0630F080 
 3917      874DEC04 
 3918 4c20 02358AA5 		.ascii	"\0025\212\245\010\004`\030\203\301\340\210\374\020\006"
 3918      08046018 
 3918      83C1E088 
 3918      FC1006
 3919 4c2f 55C45786 		.ascii	"U\304W\206D\374\024\010U\014\000\203\365\016\004d\004"
 3919      44FC1408 
 3919      550C0083 
 3919      F50E0464 
 3919      04
 3920 4c40 0675E088 		.ascii	"\006u\340\210\020d|\034\006\205\340\210\304w\374 |\034"
 3920      10647C1C 
 3920      0685E088 
 3920      C477FC20 
 3920      7C1C
 3921 4c52 08950875 		.ascii	"\010\225\010u\304\207\223}\374 \213}\202\005\002\205"
 3921      C487937D 
 3921      FC208B7D 
 3921      82050285 
 3922 4c62 80C5CA77 		.ascii	"\200\305\312w`\264\200\225\220}\200k#\313\002\301\200"
 3922      60B48095 
 3922      907D806B 
 3922      23CB02C1 
 3922      80
 3923 4c73 B584CD8C 		.ascii	"\265\204\315\214\013\014\014\370%\335\223\360\034`\240"
 3923      0B0C0CF8 
 3923      25DD93F0 
 3923      1C60A0
 3924 4c82 00550045 		.ascii	"\000U\000E\2011\002T\340\030\004T`\210\201\305\340\214"
 3924      81310254 
 3924      E0180454 
 3924      608881C5 
 3924      E08C
 3925 4c94 4A4208CB 		.ascii	"JB\010\313q>\360\204\224>\204C\2021\020>`\240\000U\213"
 3925      713EF084 
 3925      943E8443 
 3925      8231103E 
 3925      60A00055 
 3926 4ca9 3D984BDD 		.ascii	"=\230K\335\223\374\225\370|\004\014\354\240\036\360"
 3926      93FC95F8 
 3926      7C040CEC 
 3926      A01EF0
 3927 4cb8 81312D0D 		.ascii	"\2011-\015\004U\2545\004E\341\004\004\245\341\010\023"
 3927      0455AC35 
 3927      0445E104 
 3927      04A5E108 
 3927      13
 3928 4cc9 5EE10CF1 		.ascii	"^\341\014\361\224V\022J\022\021N\004\225\361\220@\022"
 3928      9456124A 
 3928      12114E04 
 3928      95F19040 
 3928      12
 3929 4cda 61100485 		.ascii	"a\020\004\205\361\250XRa\024\004E\371\254L\302a\030"
 3929      F1A85852 
 3929      61140445 
ARM GAS  C:\Temp\ccVQrAGa.s 			page 148


 3929      F9AC4CC2 
 3929      6118
 3930 4cec 0F1EF980 		.ascii	"\017\036\371\200\361\244N\022X\022\015~,\177\361\240"
 3930      F1A44E12 
 3930      58120D7E 
 3930      2C7FF1A0 
 3931 4cfc F1904812 		.ascii	"\361\220H\022\270\177\013\316\241}\250\177|N\242u\340"
 3931      B87F0BCE 
 3931      A17DA87F 
 3931      7C4EA275 
 3931      E0
 3932 4d0d 8802B4C4 		.ascii	"\210\002\264\304W\011\256\376\216\276\236\340\030\004"
 3932      5709AEFE 
 3932      8EBE9EE0 
 3932      1804
 3933 4d1b 95E11C04 		.ascii	"\225\341\034\004\205\340\264\004\245\374\024\022u\374"
 3933      85E0B404 
 3933      A5FC1412 
 3933      75FC
 3934 4d29 041215E0 		.ascii	"\004\022\025\340 \004U\304\027\304w\374\004\012E\374"
 3934      200455C4 
 3934      17C477FC 
 3934      040A45FC 
 3935 4d39 1C0A15E1 		.ascii	"\034\012\025\341 \004u\346\242PJ\361\220H\022f\236N"
 3935      200475E6 
 3935      A2504AF1 
 3935      90481266 
 3935      9E4E
 3936 4d4b 4A907DB4 		.ascii	"J\220}\264\203\004E\230\345\014\004a$\0225\340\210\223"
 3936      83044598 
 3936      E50C0461 
 3936      241235E0 
 3936      8893
 3937 4d5d 04FC180A 		.ascii	"\004\374\030\0125\3047B2\374\014B\032\361\204\222Kf"
 3937      35C43742 
 3937      32FC0C42 
 3937      1AF18492 
 3937      4B66
 3938 4d6f 928C258E 		.ascii	"\222\214%\216\035\304\267\215\264\374,\010\005\012e"
 3938      1DC4B78D 
 3938      B4FC2C08 
 3938      050A65
 3939 4d7e C4070405 		.ascii	"\304\007\004\005\374\000Fb\341(F:\361\214\221\004\346"
 3939      FC004662 
 3939      E128463A 
 3939      F18C9104 
 3939      E6
 3940 4d8f 82882582 		.ascii	"\202\210%\202=\304\247\213\244\374(\010\005\012\225"
 3940      3DC4A78B 
 3940      A4FC2808 
 3940      050A95
 3941 4d9e C4070405 		.ascii	"\304\007\004\005\374\000B\222\341,B\032\361\230\211"
 3941      FC004292 
 3941      E12C421A 
 3941      F19889
 3942 4dad 04E68284 		.ascii	"\004\346\202\204%\206\035\0045\374\004\304\007\3410"
 3942      25861D04 
ARM GAS  C:\Temp\ccVQrAGa.s 			page 149


 3942      35FC04C4 
 3942      07E130
 3943 4dbc FC000805 		.ascii	"\374\000\010\005\012\005\304\007\262\003\374\000\346"
 3943      0A05C407 
 3943      B203FC00 
 3943      E6
 3944 4dc9 8E400A82 		.ascii	"\216@\012\202\015~\004\200\004\036\005\210u\251\015"
 3944      0D7E0480 
 3944      041E0588 
 3944      75A90D
 3945 4dd8 E0740415 		.ascii	"\340t\004\025\340\224B\012\217\304\206\305\257\315\240"
 3945      E094420A 
 3945      8FC486C5 
 3945      AFCDA0
 3946 4de7 C3C4C786 		.ascii	"\303\304\307\206U\030\025\210\303\030%\370\030\3604"
 3946      55181588 
 3946      C31825F8 
 3946      18F034
 3947 4df6 F8080A15 		.ascii	"\370\010\012\025\304\027\304'|\004|\010\012%\0125\304"
 3947      C417C427 
 3947      7C047C08 
 3947      0A250A35 
 3947      C4
 3948 4e07 37A413FC 		.ascii	"7\244\023\374\014\204\035\246#\214\020\000\000\014\014"
 3948      0C841DA6 
 3948      238C1000 
 3948      000C0C
 3949 4e16 D0F1DD93 		.ascii	"\320\361\335\223\360|\006\013\200;"
 3949      F07C060B 
 3949      803B
 3950 4e20 0C0CD0F1 		.ascii	"\014\014\320\361\335\223\360|\372|\004\014\354\220\036"
 3950      DD93F07C 
 3950      FA7C040C 
 3950      EC901E
 3951 4e2f F0827B0B 		.ascii	"\360\202{\013.\002@\011\016\000\010\344\300\347\000"
 3951      2E024009 
 3951      0E0008E4 
 3951      C0E700
 3952 4e3e 04406640 		.ascii	"\004@f@\012@\001\365\231\301Be\201a\030\300x0\305n\354"
 3952      0A4001F5 
 3952      99C14265 
 3952      816118C0 
 3952      7830C56E 
 3953 4e53 044265D5 		.ascii	"\004Be\325lJc\340,\311f\340,\340,Da\374U\241\313`\210"
 3953      6C4A63E0 
 3953      2CC966E0 
 3953      2CE02C44 
 3953      61FC55A1 
 3954 4e6a 02047C0E 		.ascii	"\002\004|\016\302\007\347\000\000@\000@>\016~\036\346"
 3954      C207E700 
 3954      00400040 
 3954      3E0E7E1E 
 3954      E6
 3955 4e7b 40E4C012 		.ascii	"@\344\300\0220d\300\024@\346@\0140\201\201\021\016\022"
 3955      3064C014 
 3955      40E6400C 
 3955      30818111 
ARM GAS  C:\Temp\ccVQrAGa.s 			page 150


 3955      0E12
 3956 4e8d 058D4599 		.ascii	"\005\215E\231!x0C8\234\032\034\032\350\034\177\375W"
 3956      21783043 
 3956      389C1A1C 
 3956      1AE81C7F 
 3956      FD57
 3957 4e9f FE4002CF 		.ascii	"\376@\002\317\377\231!{\254\3700T\005Bx\345\004i\016"
 3957      FF99217B 
 3957      ACF83054 
 3957      054278E5 
 3957      04690E
 3958 4eb2 E81C8F9E 		.ascii	"\350\034\217\236\231!\340,\022\005A\370\234\032Y:\350"
 3958      9921E02C 
 3958      120541F8 
 3958      9C1A593A 
 3958      E8
 3959 4ec3 1CFBAC40 		.ascii	"\034\373\254@\002\231!\036\032T\005\215\256\206\013"
 3959      0299211E 
 3959      1A54058D 
 3959      AE860B
 3960 4ed2 602CE81C 		.ascii	"`,\350\034AH\231!\021\264\014\003\355\014\236\032\340"
 3960      41489921 
 3960      11B40C03 
 3960      ED0C9E1A 
 3960      E0
 3961 4ee3 5CE81C42 		.ascii	"\\\350\034B\250`,\014\003\036\032\200\253B8\231!\014"
 3961      A8602C0C 
 3961      031E1A80 
 3961      AB423899 
 3961      210C
 3962 4ef5 03E81C80 		.ascii	"\003\350\034\200\233`\214\231!\036\032\350\034A\310"
 3962      9B608C99 
 3962      211E1AE8 
 3962      1C41C8
 3963 4f04 8934FC24 		.ascii	"\2114\374$B\"\376D\264#q\244\222#\000\023@*\2168D\032"
 3963      4222FE44 
 3963      B42371A4 
 3963      92230013 
 3963      402A8E38 
 3964 4f1a E0921144 		.ascii	"\340\222\021D\340\222\002\002\241;\222\013`\000`\000"
 3964      E0920202 
 3964      A13B920B 
 3964      60006000 
 3965 4f2a 0622EBFC 		.ascii	"\006\"\353\374\004\022\0022>4\000\006\353\374\241\235"
 3965      04120232 
 3965      3E340006 
 3965      EBFCA19D 
 3966 4f3a 40009C00 		.ascii	"@\000\234\000@\220`0H\003\014&\2203F\021\202\201\217"
 3966      40906030 
 3966      48030C26 
 3966      90334611 
 3966      82818F
 3967 4f4d 94E03091 		.ascii	"\224\3400\221\276\215\244\202\010\213\004\346U\201\215"
 3967      BE8DA482 
 3967      088B04E6 
 3967      55818D
 3968 4f5c C8F10101 		.ascii	"\310\361\001\001\362|\014\014\301\303\335\223\340\204"
ARM GAS  C:\Temp\ccVQrAGa.s 			page 151


 3968      F27C0C0C 
 3968      C1C3DD93 
 3968      E084
 3969 4f6a 00447C00 		.ascii	"\000D|\000\012\003\360\200XR\340\220\030\303\375\001"
 3969      0A03F080 
 3969      5852E090 
 3969      18C3FD01 
 3970 4f7a 20C380CD 		.ascii	" \303\200\315<\004\227\200\030\304D\004\030\300\206"
 3970      3C049780 
 3970      18C44404 
 3970      18C086
 3971 4f89 15A31DE6 		.ascii	"\025\243\035\346\212D\312\345\016X*e\216D*\030\300\201"
 3971      8A44CAE5 
 3971      0E582A65 
 3971      8E442A18 
 3971      C081
 3972 4f9b 31C10064 		.ascii	"1\301\000d\001r\214D\"\336'\343\307\002\315\244\317"
 3972      01728C44 
 3972      22DE27E3 
 3972      C702CDA4 
 3972      CF
 3973 4fac 80F59311 		.ascii	"\200\365\223\021\012)\210S\342-\341\340\213\021\200"
 3973      0A298853 
 3973      E22DE1E0 
 3973      8B1180
 3974 4fbb 55401188 		.ascii	"U@\021\210\003\335\223\343\220\030$BZ\2303\340\210\340"
 3974      03DD93E3 
 3974      90182442 
 3974      5A9833E0 
 3974      88E0
 3975 4fcd 300635C3 		.ascii	"0\0065\303]\306W\200\000\012\006\321\224J\022\202\025"
 3975      5DC65780 
 3975      000A06D1 
 3975      944A1282 
 3975      15
 3976 4fde CB3DE010 		.ascii	"\313=\340\020\000\013\202\003\306\007\\\010\300=\004"
 3976      000B8203 
 3976      C6075C08 
 3976      C03D04
 3977 4fed 439A0048 		.ascii	"C\232\000H\001\205\001\335\223\343\220\372|\004\014"
 3977      018501DD 
 3977      93E390FA 
 3977      7C040C
 3978 4ffc ED301EF0 		.ascii	"\3550\036\360\036%\233.\267\304\340\210\231A\035N\036"
 3978      1E259B2E 
 3978      B7C4E088 
 3978      99411D4E 
 3978      1E
 3979 500d 25952E0C 		.ascii	"%\225.\014\300`\204\265\264\347\220\036%\227.\231.\340"
 3979      C06084B5 
 3979      B4E7901E 
 3979      25972E99 
 3979      2EE0
 3980 501f 80A32EBF 		.ascii	"\200\243.\277$\221.\275$\223.\273$\017.\271$\201E\201"
 3980      24912EBD 
 3980      24932EBB 
 3980      240F2EB9 
ARM GAS  C:\Temp\ccVQrAGa.s 			page 152


 3980      24814581 
 3981 5033 21084059 		.ascii	"!\010@Y&\241K\354\004\037\036\376\225\345\200\012P`"
 3981      26A14BEC 
 3981      041F1EFE 
 3981      95E5800A 
 3981      5060
 3982 5045 004F06E0 		.ascii	"\000O\006\340\010\021\006\201\221!>\026\025\207\325"
 3982      08110681 
 3982      91213E16 
 3982      1587D5
 3983 5054 020AFC1C 		.ascii	"\002\012\374\034\307\377c\375H\302\214e\215\021p\244"
 3983      C7FF63FD 
 3983      48C28C65 
 3983      8D1170A4 
 3984 5064 E3904811 		.ascii	"\343\220H\021\241\033\200\032\224$\200\345\002\206\303"
 3984      A11B801A 
 3984      942480E5 
 3984      0286C3
 3985 5073 2D4811C0 		.ascii	"-H\021\300\000\202\032\303\220\202e\241\033p\234D\302"
 3985      00821AC3 
 3985      908265A1 
 3985      1B709C44 
 3985      C2
 3986 5084 0425CE17 		.ascii	"\004%\316\027\302-\3400\300\000\0026\303\220H\021\300"
 3986      C22DE030 
 3986      C0000236 
 3986      C3904811 
 3986      C0
 3987 5095 1AA55E82 		.ascii	"\032\245^\202\005\241\033\374 \030+\0026\302-H\021\300"
 3987      05A11BFC 
 3987      20182B02 
 3987      36C22D48 
 3987      11C0
 3988 50a7 002314C3 		.ascii	"\000#\024\303\220\026;\222+\000k\230Kxx\230\253!4\357"
 3988      90163B92 
 3988      2B006B98 
 3988      4B787898 
 3988      AB2134EF 
 3989 50bb FC255494 		.ascii	"\374%T\224\313\002\221\214\013\010q\210Q\216\030\204"
 3989      CB02918C 
 3989      0B087188 
 3989      518E1884 
 3990 50cb 81F05583 		.ascii	"\201\360U\203\235\002)\237\024\004\012\3404\204\205"
 3990      9D02299F 
 3990      14040AE0 
 3990      348485
 3991 50da E3FC985B 		.ascii	"\343\374\230[\025$\015.\235D\213.\211!\211.\227$\376"
 3991      15240D2E 
 3991      9D448B2E 
 3991      8921892E 
 3991      9724FE
 3992 50ed 2E8F24FC 		.ascii	".\217$\374.\231$\276.\221$\274.\223$@\230\233$\001\001"
 3992      2E9924BE 
 3992      2E9124BC 
 3992      2E932440 
 3992      989B2401 
 3993 5102 E800E530 		.ascii	"\350\000\3450\036\360\362|\014\014\301\303\335\223\376"
ARM GAS  C:\Temp\ccVQrAGa.s 			page 153


 3993      1EF0F27C 
 3993      0C0CC1C3 
 3993      DD93FE
 3994 5111 7C040CED 		.ascii	"|\004\014\355\000\036\360\204\213|\016\225^\273\004"
 3994      001EF084 
 3994      8B7C0E95 
 3994      5EBB04
 3995 5120 110EFE4E 		.ascii	"\021\016\376N\267\004\243\013\263\004\276\016\261\004"
 3995      B704A30B 
 3995      B304BE0E 
 3995      B104
 3996 512e 8B0E8E28 		.ascii	"\213\016\216(\211\016\206u\227.\201q\003e\216\003\225"
 3996      890E8675 
 3996      972E8171 
 3996      03658E03 
 3996      95
 3997 513f 04E39000 		.ascii	"\004\343\220\000\011\202\325\255\013\216K|\004\2134"
 3997      0982D5AD 
 3997      0B8E4B7C 
 3997      048B34
 3998 514e 8924E020 		.ascii	"\211$\340 \000\023\376T\225\004\276\004\274\016\357"
 3998      0013FE54 
 3998      9504BE04 
 3998      BC0EEF
 3999 515d FC706882 		.ascii	"\374ph\202q\227$\372u\217+\340\0009\230\3400\002\011"
 3999      719724FA 
 3999      758F2BE0 
 3999      003998E0 
 3999      300209
 4000 5170 B5B49514 		.ascii	"\265\264\225\024\241\013\037\016\002\020\025\001\035"
 4000      A10B1F0E 
 4000      02101501 
 4000      1D
 4001 517d 0EE790C0 		.ascii	"\016\347\220\300\000\000F\3008^\005\233\016\275\004"
 4001      000046C0 
 4001      385E059B 
 4001      0EBD04
 4002 518c 81A5B904 		.ascii	"\201\245\271\004\004 \0048\255;\354\004\2008\0365\000"
 4002      04200438 
 4002      AD3BEC04 
 4002      80381E35 
 4002      00
 4003 519d 004231A1 		.ascii	"\000B1\241+\202\021\011\224\374\325\342\000\000*\201"
 4003      2B821109 
 4003      94FCD5E2 
 4003      00002A81 
 4004 51ad A10B7460 		.ascii	"\241\013t`\010\015\006@\012\2011\226+f\246@\011\014"
 4004      080D0640 
 4004      0A813196 
 4004      2B66A640 
 4004      090C
 4005 51bf 06420AC0 		.ascii	"\006B\012\300\000@\012\345\036\002\020\345\236\300\010"
 4005      00400AE5 
 4005      1E0210E5 
 4005      9EC008
 4006 51ce 640172A8 		.ascii	"d\001r\250@\002\350\007\331\027\201\021\"\017\357\330"
 4006      4002E807 
ARM GAS  C:\Temp\ccVQrAGa.s 			page 154


 4006      D9178111 
 4006      220FEFD8 
 4007 51de 532866A6 		.ascii	"S(f\246Djd\000\000\000B\022\301\000\343\007r\250e\036"
 4007      446A6400 
 4007      00004212 
 4007      C100E307 
 4007      72A8651E 
 4008 51f2 462A442A 		.ascii	"F*D*\336\027L\002e\236\0060\371\204@\010d\001@\"\201"
 4008      DE174C02 
 4008      659E0630 
 4008      F9844008 
 4008      64014022 
 4009 5207 11D93772 		.ascii	"\021\3317r\250\226+h\007\2011&\017\357\330Qh\000\000"
 4009      A8962B68 
 4009      07813126 
 4009      0FEFD851 
 4009      680000
 4010 521a 1734C100 		.ascii	"\0274\301\000d\001B\022\033D^\027\362\250\0044\343\007"
 4010      64014212 
 4010      1B445E17 
 4010      F2A80434 
 4010      E307
 4011 522c A20F6088 		.ascii	"\242\017`\210\246\033\010#d\001\006@\004 @\011\300\011"
 4011      A61B0823 
 4011      64010640 
 4011      04204009 
 4011      C009
 4012 523e 64016008 		.ascii	"d\001`\010H\206\021\264\201Q\205%\201\301\251\273\025"
 4012      488611B4 
 4012      81518525 
 4012      81C1A9BB 
 4012      15
 4013 524f A4FC1014 		.ascii	"\244\374\020\024s\024\225\214~F\225\374\024R\242`\300"
 4013      7314958C 
 4013      7E4695FC 
 4013      1452A260 
 4013      C0
 4014 5260 12A9F1B0 		.ascii	"\022\251\361\260F\245\343\220\202\225\341\200\210~\214"
 4014      46A5E390 
 4014      8295E180 
 4014      887E8C
 4015 526f 730E7595 		.ascii	"s\016u\225tDu\374\024\022y\340\300Du\343\220\030\300"
 4015      744475FC 
 4015      141279E0 
 4015      C04475E3 
 4015      9018C0
 4016 5282 E1808441 		.ascii	"\341\200\204Al\004\2101\010!\231\033\210Q\037$\366\325"
 4016      6C048831 
 4016      0821991B 
 4016      88511F24 
 4016      F6D5
 4017 5294 1B448151 		.ascii	"\033D\201Q\221\264\201\301`\210\006$\031>\244\033\017"
 4017      91B481C1 
 4017      60880624 
 4017      193EA41B 
 4017      0F
 4018 52a5 3E8833E5 		.ascii	">\2103\345\340\004\200e\201\0060\010@@\011\300\012g"
ARM GAS  C:\Temp\ccVQrAGa.s 			page 155


 4018      E0048065 
 4018      81063008 
 4018      404009C0 
 4018      0A67
 4019 52b7 81086285 		.ascii	"\201\010b\205\025\360\224RBRe\251\273\020u\371\200R"
 4019      15F09452 
 4019      425265A9 
 4019      BB1075F9 
 4019      8052
 4020 52c9 75FC144E 		.ascii	"u\374\024N\202x\300\016\251\361\260\244\256\342@\000"
 4020      8278C00E 
 4020      A9F1B0A4 
 4020      AEE24000 
 4021 52d9 6382B5F0 		.ascii	"c\202\265\360\224R2\020e\244nRe\374\024\016i\340\300"
 4021      94523210 
 4021      65A46E52 
 4021      65FC140E 
 4021      69E0C0
 4022 52ec 5265E240 		.ascii	"Re\342@\030\300\341\200\204!l\004\231\033\210Q\021\004"
 4022      18C0E180 
 4022      84216C04 
 4022      991B8851 
 4022      1104
 4023 52fe F6F51754 		.ascii	"\366\365\027T\377\201\237\024\201A\000J\0334\000\014"
 4023      FF819F14 
 4023      8141004A 
 4023      1B34000C 
 4024 530e E00C0454 		.ascii	"\340\014\004T\342\000\000\024h\200B\012\350\200\201"
 4024      E2000014 
 4024      6880420A 
 4024      E88081
 4025 531d 35E68A82 		.ascii	"5\346\212\202AM\216\376\265\203M\016\004\033\024\201"
 4025      414D8EFE 
 4025      B5834D0E 
 4025      041B1481 
 4026 532d 41E08865 		.ascii	"A\340\210e\201\006\020\223>\300\011\033\304\205\225"
 4026      81061093 
 4026      3EC0091B 
 4026      C48595
 4027 533c E0880A44 		.ascii	"\340\210\012D\202\233\023d\212\303\237\244f\001\012"
 4027      829B1364 
 4027      8AC39FA4 
 4027      66010A
 4028 534b C018C040 		.ascii	"\300\030\300@\012\300\011d\001\224\264\203e\202\345"
 4028      0AC00964 
 4028      0194B483 
 4028      6582E5
 4029 535a A1BBE180 		.ascii	"\241\273\341\200\014\265\202e\241\273\2304\260\264\026"
 4029      0CB58265 
 4029      A1BB9834 
 4029      B0B416
 4030 5369 B4A6B317 		.ascii	"\264\246\263\027\012\360\200\300\003`\201\200\000R\265"
 4030      0AF080C0 
 4030      03608180 
 4030      0052B5
 4031 5378 6C0414A0 		.ascii	"l\004\024\240\210a\210\221\372U\241\253\202A\027T\213"
 4031      88618891 
ARM GAS  C:\Temp\ccVQrAGa.s 			page 156


 4031      FA55A1AB 
 4031      82411754 
 4031      8B
 4032 5389 4B8E1391 		.ascii	"K\216\023\221\024\364\365\012H\251\033\003h\300\000"
 4032      14F4F50A 
 4032      48A91B03 
 4032      68C000
 4033 5398 C0004001 		.ascii	"\300\000@\001f\226B\012\2334\201A\005\265\304\027\033"
 4033      6696420A 
 4033      9B348141 
 4033      05B5C417 
 4033      1B
 4034 53a9 548613F0 		.ascii	"T\206\023\360\224FB\3047\023d\202\233\037\244\0120\212"
 4034      944642C4 
 4034      37136482 
 4034      9B1FA40A 
 4034      308A
 4035 53bb 33400A66 		.ascii	"3@\012f\001d\001\0300\203e\300\011\241;\2244\0145\202"
 4035      01640118 
 4035      308365C0 
 4035      09A13B94 
 4035      340C3582 
 4036 53cf E5A13BE1 		.ascii	"\345\241;\341\200\2604\202e\2663\230\264\360\200\026"
 4036      80B03482 
 4036      65B63398 
 4036      B4F08016 
 4037 53df 34608117 		.ascii	"4`\201\027\012R\265\300\003\024\240\200\000\210\221"
 4037      0A52B5C0 
 4037      0314A080 
 4037      008891
 4038 53ee 6C04A1AB 		.ascii	"l\004\241\253\210a\027T\372U\216\023\202A\364\325\213"
 4038      88611754 
 4038      FA558E13 
 4038      8241F4D5 
 4038      8B
 4039 53ff 4B1B1487 		.ascii	"K\033\024\207E\2314\201A\006\020\206\023\300\011e\201"
 4039      45993481 
 4039      41061086 
 4039      13C00965 
 4039      81
 4040 5410 8595933E 		.ascii	"\205\225\223>\012D\033\304\023d\340\210\237\244\202"
 4040      0A441BC4 
 4040      1364E088 
 4040      9FA482
 4041 541f 9B0AC08A 		.ascii	"\233\012\300\212\303@\012f\001d\001\030\300\203e\300"
 4041      C3400A66 
 4041      01640118 
 4041      C08365C0 
 4042 542f 09A1BB94 		.ascii	"\011\241\273\224\264\014\265\202\345\241\273\341\200"
 4042      B40CB582 
 4042      E5A1BBE1 
 4042      80
 4043 543c B0B48265 		.ascii	"\260\264\202e\246\263\2304\360\200\026\264`\201\027"
 4043      A6B39834 
 4043      F08016B4 
 4043      608117
 4044 544b 0A52B5C0 		.ascii	"\012R\265\300\003\024\240\200\000\210\221l\004\241\253"
ARM GAS  C:\Temp\ccVQrAGa.s 			page 157


 4044      0314A080 
 4044      0088916C 
 4044      04A1AB
 4045 545a 88611754 		.ascii	"\210a\027T\372U\216\023\202A\364\365\213KB\012\2374"
 4045      FA558E13 
 4045      8241F4F5 
 4045      8B4B420A 
 4045      9F34
 4046 546c 9944E696 		.ascii	"\231D\346\226\206\023\0334\006\023\304\027\0060\210"
 4046      86131B34 
 4046      0613C417 
 4046      063088
 4047 547b 33400965 		.ascii	"3@\011e\201\223>\201A\033\304\205\225\023d\210S\037"
 4047      81933E81 
 4047      411BC485 
 4047      95136488 
 4047      531F
 4048 548d A4C4578A 		.ascii	"\244\304W\212\303\202\233f\001\012\300\030\300@\012"
 4048      C3829B66 
 4048      010AC018 
 4048      C0400A
 4049 549c C0096401 		.ascii	"\300\011d\001\224\264\203e\202\345\241\273\341\200\014"
 4049      94B48365 
 4049      82E5A1BB 
 4049      E1800C
 4050 54ab B58265A1 		.ascii	"\265\202e\241\273\2304\260\264\026\264\246\263\027\012"
 4050      BB9834B0 
 4050      B416B4A6 
 4050      B3170A
 4051 54ba F080C003 		.ascii	"\360\200\300\003`\201\200\000R\265l\004\024\240\210"
 4051      60818000 
 4051      52B56C04 
 4051      14A088
 4052 54c9 618891FA 		.ascii	"a\210\221\372U\241\253\202A\027T\213K\216\023\033\224"
 4052      55A1AB82 
 4052      4117548B 
 4052      4B8E131B 
 4052      94
 4053 54da F4F58D05 		.ascii	"\364\365\215\005\201Af\202BJ\177\374U\376\023\236\337"
 4053      81416682 
 4053      424A7FFC 
 4053      55FE139E 
 4053      DF
 4054 54eb FF0D1E92 		.ascii	"\377\015\036\222;Y\376\377Q_\377\177\375\003\205\377"
 4054      3B59FEFF 
 4054      515FFF7F 
 4054      FD0385FF 
 4055 54fb 618C1481 		.ascii	"a\214\024\201\221\204\005\221\033J`\225\035X\240\\\000"
 4055      91840591 
 4055      1B4A6095 
 4055      1D58A05C 
 4055      00
 4056 550c 0275DC00 		.ascii	"\002u\334\000\334\000L\220\222\273\031\035\034\000V"
 4056      DC004C90 
 4056      92BB191D 
 4056      1C0056
 4057 551b 50FB3058 		.ascii	"P\3730X\022\224\033\226[\2101\002\221\201\235\202\253"
ARM GAS  C:\Temp\ccVQrAGa.s 			page 158


 4057      12941B96 
 4057      5B883102 
 4057      91819D82 
 4057      AB
 4058 552c 1394FA35 		.ascii	"\023\224\3725\214\205\221[\361\250B\302\341\334\003"
 4058      8C85915B 
 4058      F1A842C2 
 4058      E1DC03
 4059 553b 0A58A008 		.ascii	"\012X\240\010U\033\224\334\000\340\210\002D`\210\006"
 4059      551B94DC 
 4059      00E08802 
 4059      44608806 
 4060 554b 64E08816 		.ascii	"d\340\210\026T\022\220\022\023\300\012d\201\374\014"
 4060      54129012 
 4060      13C00A64 
 4060      81FC0C
 4061 555a 1235E9C0 		.ascii	"\0225\351\300\002\025\374,\022\225\361\214F\022\006"
 4061      0215FC2C 
 4061      1295F18C 
 4061      461206
 4062 5569 34321313 		.ascii	"42\023\023\224\360\200\360\200\002\024J`\207\035X\240"
 4062      94F080F0 
 4062      8002144A 
 4062      60871D58 
 4062      A0
 4063 557a 1C008A6B 		.ascii	"\034\000\212k\234\000\2011\022\033E\216\2015\201=\202"
 4063      9C008131 
 4063      121B458E 
 4063      8135813D 
 4063      82
 4064 558b 318D14FE 		.ascii	"1\215\024\376\265\202c\033\024\202c\304g\002A\230\316"
 4064      B582631B 
 4064      148263C4 
 4064      67024198 
 4064      CE
 4065 559c 854D8E93 		.ascii	"\205M\216\223\0334\350\025\2155\201\221C\376\023\236"
 4065      1B34E815 
 4065      8D358191 
 4065      43FE139E 
 4066 55ac DFFF7FFD 		.ascii	"\337\377\177\375\377A\006\273\177\375K\376\377\301_"
 4066      FF4106BB 
 4066      7FFD4BFE 
 4066      FFC15F
 4067 55bb FF819103 		.ascii	"\377\201\221\003\205\221\253\254\244\203\255\204\005"
 4067      8591ABAC 
 4067      A483AD84 
 4067      05
 4068 55c8 5C0048C0 		.ascii	"\\\000H\300\334\000J\020X\220\002u\013\255\334\000L"
 4068      DC004A10 
 4068      58900275 
 4068      0BADDC00 
 4068      4C
 4069 55d9 40926B4A 		.ascii	"@\222kJ\242\034\000\214K\373\024\002\221\202\253\224"
 4069      A21C008C 
 4069      4BFB1402 
 4069      9182AB94 
 4070 55e9 1B8EB3FA 		.ascii	"\033\216\263\3725\205\235"
ARM GAS  C:\Temp\ccVQrAGa.s 			page 159


 4070      35859D
 4071 55f0 914B1394 		.ascii	"\221K\023\224LR\216E\015\012\361\204\010U\341\334\334"
 4071      4C528E45 
 4071      0D0AF184 
 4071      0855E1DC 
 4071      DC
 4072 5601 004A100C 		.ascii	"\000J\020\014\224\033\244\022\304\340\210\026D`\210"
 4072      941BA412 
 4072      C4E08816 
 4072      446088
 4073 5610 1463E088 		.ascii	"\024c\340\210g\001\024\240\024\225\300\011\014e\374"
 4073      670114A0 
 4073      1495C009 
 4073      0C65FC
 4074 561f 2414A5EA 		.ascii	"$\024\245\352 Rb\374,4c\361\244\360\200\022\224\360"
 4074      205262FC 
 4074      2C3463F1 
 4074      A4F08012 
 4074      94F0
 4075 5631 800C6493 		.ascii	"\200\014d\223m\023\224\034\000H\300\234\000J\020\001"
 4075      6D13941C 
 4075      0048C09C 
 4075      004A1001 
 4076 5641 1188CB85 		.ascii	"\021\210\313\205m\201aP\204H2\304\004\014`@\000H\205"
 4076      6D816150 
 4076      844832C4 
 4076      040C6040 
 4076      004885
 4077 5654 D09C4212 		.ascii	"\320\234B\022B\312\374\365\233D\346\202\304\027\222"
 4077      42CAFCF5 
 4077      9B44E682 
 4077      C41792
 4078 5663 13845E88 		.ascii	"\023\204^\210\023\2101\002\221\346\265\201\235\002*"
 4078      13883102 
 4078      91E6B581 
 4078      9D022A
 4079 5672 91140C28 		.ascii	"\221\024\014(\340\020\300\000@\001\3771\033d\201\301"
 4079      E010C000 
 4079      4001FF31 
 4079      1B6481C1 
 4080 5682 7F41136E 		.ascii	"\177A\023n\213u\177\261\214[\003E\377a\212\233\201\021"
 4080      8B757FB1 
 4080      8C5B0345 
 4080      FF618A9B 
 4080      8111
 4081 5694 FE1C12A5 		.ascii	"\376\034\022\245\031\244\221\253\334\000F\240\334\000"
 4081      19A491AB 
 4081      DC0046A0 
 4081      DC00
 4082 56a2 5610FC28 		.ascii	"V\020\374(\012UHP\221[L\020\\\000\002\021\334\000\205"
 4082      0A554850 
 4082      915B4C10 
 4082      5C000211 
 4082      DC0085
 4083 56b5 1D925B91 		.ascii	"\035\222[\221\273\200\245\221k\372e\221\273\372%\221"
 4083      BB80A591 
 4083      6BFA6591 
ARM GAS  C:\Temp\ccVQrAGa.s 			page 160


 4083      BBFA2591 
 4084 56c5 6B8C8542 		.ascii	"k\214\205B2\214E\002\024\361\220\003\012\360\200\206"
 4084      328C4502 
 4084      14F19003 
 4084      0AF08086 
 4085 56d5 95E1DC02 		.ascii	"\225\341\334\002\304\033\224\012\264\340\210\024d`\210"
 4085      C41B940A 
 4085      B4E08814 
 4085      646088
 4086 56e4 1213E088 		.ascii	"\022\023\340\210g\001\022\220\022U\300\011\002\025\374"
 4086      67011290 
 4086      1255C009 
 4086      0215FC
 4087 56f3 141295EA 		.ascii	"\024\022\225\352 J\022\374(2\023\361\224\360\200\012"
 4087      204A12FC 
 4087      283213F1 
 4087      94F0800A 
 4088 5703 54F08002 		.ascii	"T\360\200\002\024\200\225\203]\211=\201\205\237\024"
 4088      14809583 
 4088      5D893D81 
 4088      859F14
 4089 5712 80C5E682 		.ascii	"\200\305\346\202Jj\230\023\001Uf\202B\272\033T\230["
 4089      4A6A9813 
 4089      01556682 
 4089      42BA1B54 
 4089      985B
 4090 5724 C4178A13 		.ascii	"\304\027\212\023\204\216\212\023\202\301\023d\237T\210"
 4090      848E8A13 
 4090      82C11364 
 4090      9F5488
 4091 5733 618BCB97 		.ascii	"a\213\313\227\024B\012\350\365\201Qf\206\304\027\233"
 4091      14420AE8 
 4091      F5815166 
 4091      86C4179B 
 4092 5743 2454220B 		.ascii	"$T\"\013\205\031.\360\204\024\033\204\273\177\301\377"
 4092      85192EF0 
 4092      84141B84 
 4092      BB7FC1FF 
 4093 5753 2181E581 		.ascii	"!\201\345\201a\221\233\355\224F\220E\224D`\334\000\221"
 4093      61919BED 
 4093      94469045 
 4093      944460DC 
 4093      0091
 4094 5765 9BDC005C 		.ascii	"\233\334\000\\\000X`\334\000H\220\201m\202a\221+\200"
 4094      005860DC 
 4094      00489081 
 4094      6D826191 
 4094      2B80
 4095 5777 A591CBFC 		.ascii	"\245\221\313\374\005\221+\372\305\221\313\214\305B2"
 4095      05912BFA 
 4095      C591CB8C 
 4095      C54232
 4096 5786 8C850214 		.ascii	"\214\205\002\024\361\220\003\012\360\200\206\325\341"
 4096      F190030A 
 4096      F08086D5 
 4096      E1
 4097 5793 DC02541B 		.ascii	"\334\002T\033\224\024\273\340\210\340\210\014$\340\210"
ARM GAS  C:\Temp\ccVQrAGa.s 			page 161


 4097      9414BBE0 
 4097      88E0880C 
 4097      24E088
 4098 57a2 14C41290 		.ascii	"\024\304\022\220\022\023\300\012d\201\374\030\022e\351"
 4098      1213C00A 
 4098      6481FC18 
 4098      1265E9
 4099 57b1 C002157C 		.ascii	"\300\002\025|(\022\225L\022\226\2532\023\361\230\360"
 4099      2812954C 
 4099      1296AB32 
 4099      13F198F0 
 4100 57c1 800C64F0 		.ascii	"\200\014d\360\200\002\024L\312\001UF\312\340\004\027"
 4100      8002144C 
 4100      CA015546 
 4100      CAE00417 
 4101 57d1 14E010DC 		.ascii	"\024\340\020\334\000X \002\006\233$\212\023\300\000"
 4101      00582002 
 4101      069B248A 
 4101      13C000
 4102 57e0 E682421A 		.ascii	"\346\202B\032\304\027\230\023\204\216\204\023\202Q\031"
 4102      C4179813 
 4102      848E8413 
 4102      825119
 4103 57ef 248E238E 		.ascii	"$\216#\216\243\203[\227\024\227$\3525\233\264\237\024"
 4103      A3835B97 
 4103      149724EA 
 4103      359BB49F 
 4103      14
 4104 5800 E68A400A 		.ascii	"\346\212@\012\000\023\2174\035\224\304\007L\262\304"
 4104      00138F34 
 4104      1D94C407 
 4104      4CB2C4
 4105 580f 1780B370 		.ascii	"\027\200\263p\204\201\021\011\025\202\253\025\004\206"
 4105      84811109 
 4105      1582AB15 
 4105      0486
 4106 581d 2B0F3E8C 		.ascii	"+\017>\214K\026;\202\003\033\024g\220\000\000\201e\201"
 4106      4B163B82 
 4106      031B1467 
 4106      90000081 
 4106      6581
 4107 582f 51884102 		.ascii	"Q\210A\002Q\210!\0101\237\304\210\021\210E\231]\223"
 4107      51882108 
 4107      319FC488 
 4107      11884599 
 4107      5D93
 4108 5841 CB80C884 		.ascii	"\313\200\310\204\304\374\325\204\025\221\313_\375?("
 4108      C4FCD584 
 4108      1591CB5F 
 4108      FD3F28
 4109 5850 88C4C3FF 		.ascii	"\210\304\303\377\200\365\221\313\221\313\214\304\220"
 4109      80F591CB 
 4109      91CB8CC4 
 4109      90
 4110 585d C48095F8 		.ascii	"\304\200\225\370\345\221\313\200\026\211\021|\004\201"
 4110      E591CB80 
 4110      1689117C 
ARM GAS  C:\Temp\ccVQrAGa.s 			page 162


 4110      0481
 4111 586b D5892494 		.ascii	"\325\211$\224K\000\023\2134\225\004\340 \274\016\376"
 4111      4B00138B 
 4111      349504E0 
 4111      20BC0EFE 
 4112 587b 547758BE 		.ascii	"TwX\276\004\033\004\357\370\0174\224\033\027$\202\021"
 4112      041B04EF 
 4112      F80F3494 
 4112      1B172482 
 4112      11
 4113 588c 0E038E63 		.ascii	"\016\003\216c\033\016\216\263\205\033\2163\036\360\360"
 4113      1B0E8EB3 
 4113      851B8E33 
 4113      1EF0F0
 4114 589b 150C0CE5 		.ascii	"\025\014\014\345\000\335\223\366|\376|\004\014\354`"
 4114      00DD93F6 
 4114      7CFE7C04 
 4114      0CEC60
 4115 58aa 1EF0829B 		.ascii	"\036\360\202\233\000\253`\224\0004\341\204\002\244\202"
 4115      00AB6094 
 4115      0034E184 
 4115      02A482
 4116 58b9 0325C460 		.ascii	"\003%\304`*@\012)\204\241qB\002\201a@\302{\260\242s"
 4116      2A400A29 
 4116      84A17142 
 4116      02816140 
 4116      C27BB0A2 
 4117 58ce FA80F398 		.ascii	"\372\200\363\230Bb@\022\200s\313wr\230\340\354\002\004"
 4117      42624012 
 4117      8073CB77 
 4117      7298E0EC 
 4117      0204
 4118 58e0 0E042E1F 		.ascii	"\016\004.\037\013\036\341\224\372\220@\"DB.\037!\033"
 4118      0B1EE194 
 4118      FA904022 
 4118      44422E1F 
 4118      211B
 4119 58f2 FB88EFFC 		.ascii	"\373\210\357\374C\366\244\003 \034s\230Bb\200\010L\226"
 4119      43F6A403 
 4119      201C7398 
 4119      42628008 
 4119      4C96
 4120 5904 80001018 		.ascii	"\200\000\020\030H\252\237$\211~\346\252\006D\006#>^"
 4120      48AA9F24 
 4120      897EE6AA 
 4120      06440623 
 4120      3E5E
 4121 5916 E1840623 		.ascii	"\341\204\006#\312'D*\202;\204\303\340\022\362\230Db"
 4121      CA27442A 
 4121      823B84C3 
 4121      E012F298 
 4121      4462
 4122 5928 4E22A0C1 		.ascii	"N\"\240\301\313\307r\230`\354\026t8\277\313w\177\375"
 4122      CBC77298 
 4122      60EC1674 
 4122      38BFCB77 
 4122      7FFD
ARM GAS  C:\Temp\ccVQrAGa.s 			page 163


 4123 593a 45FE56CA 		.ascii	"E\376V\312\300?\200+d\010\340\000\016\032\341\200B\012"
 4123      C03F802B 
 4123      6408E000 
 4123      0E1AE180 
 4123      420A
 4124 594c 1FFD57FE 		.ascii	"\037\375W\376\016\006@?WX\300\000\004\004\357\324\320"
 4124      0E06403F 
 4124      5758C000 
 4124      0404EFD4 
 4124      D0
 4125 595d 1761E045 		.ascii	"\027a\340E\376$\037\300?\177\375\377\241P\007B\312|"
 4125      FE241FC0 
 4125      3F7FFDFF 
 4125      A1500742 
 4125      CA7C
 4126 596f 9E7E8EE4 		.ascii	"\236~\216\344\010\340\010B\032@j\013\224\011\204\340"
 4126      08E00842 
 4126      1A406A0B 
 4126      940984E0 
 4127 597f 28E58042 		.ascii	"(\345\200B\012\341\210B\032m\200B\012A\376\222+C\376"
 4127      0AE18842 
 4127      1A6D8042 
 4127      0A41FE92 
 4127      2B43FE
 4128 5992 5FFCC03F 		.ascii	"_\374\300?\037\374o\324K\350\022+\220;K\230\220;\002"
 4128      1FFC6FD4 
 4128      4BE8122B 
 4128      903B4B98 
 4128      903B02
 4129 59a5 3BEFD423 		.ascii	";\357\324#\244\200+\340(Dj\006\312!\204\035\224\345"
 4129      A4802BE0 
 4129      28446A06 
 4129      CA21841D 
 4129      94E5
 4130 59b7 FCE1FC06 		.ascii	"\374\341\374\006\032e\200B\012B\032\226\013\216\033"
 4130      1A658042 
 4130      0A421A96 
 4130      0B8E1B
 4131 59c6 6188ED80 		.ascii	"a\210\355\200B\012_\374E\376\300\004G\366\357\324Sh"
 4131      420A5FFC 
 4131      45FEC004 
 4131      47F6EFD4 
 4131      5368
 4132 59d8 47FE3E24 		.ascii	"G\376>$\300?\177\375\211\264\247tDb\204\223~\204\362"
 4132      C03F7FFD 
 4132      89B4A774 
 4132      44628493 
 4132      7E84F2
 4133 59eb 98442290 		.ascii	"\230D\"\220\223|\224\362\230D\"\222\243T\312r\230\004"
 4133      937C94F2 
 4133      98442292 
 4133      A354CA72 
 4133      9804
 4134 59fd 1AE40C42 		.ascii	"\032\344\014B\012\340\000\004\006\341\200U\376@\000"
 4134      0AE00004 
 4134      06E18055 
 4134      FE4000
ARM GAS  C:\Temp\ccVQrAGa.s 			page 164


 4135 5a0c C03F1FFC 		.ascii	"\300?\037\374a\340\006\244P\247\320'\024\003\246/B\022"
 4135      61E006A4 
 4135      50A7D027 
 4135      1403A62F 
 4135      4212
 4136 5a1e FFA145FE 		.ascii	"\377\241E\376r\210\337\377\177\374d\010B\312B\032\204"
 4136      7288DFFF 
 4136      7FFC6408 
 4136      42CA421A 
 4136      84
 4137 5a2f 71C77760 		.ascii	"q\307w`\010\340(@j\345\200B\012\341\210B\032\355\200"
 4137      08E02840 
 4137      6AE58042 
 4137      0AE18842 
 4137      1AED80
 4138 5a42 420A1FFD 		.ascii	"B\012\037\375C\376A\376_\377\241\033\337\374\013$\202"
 4138      43FE41FE 
 4138      5FFFA11B 
 4138      DFFC0B24 
 4138      82
 4139 5a53 4545F896 		.ascii	"EE\370\226;\0011\357\324O\030\216+\201\225\357\324\216"
 4139      3B0131EF 
 4139      D44F188E 
 4139      2B8195EF 
 4139      D48E
 4140 5a65 2B0131EF 		.ascii	"+\0011\357\324N\310\226;\013$\357\324E(C\376\241\035"
 4140      D44EC896 
 4140      3B0B24EF 
 4140      D4452843 
 4140      FEA11D
 4141 5a78 5FFF1FFD 		.ascii	"_\377\037\375\337\374A\376\202\345\241\033\226;\013"
 4141      DFFC41FE 
 4141      82E5A11B 
 4141      963B0B
 4142 5a87 24EFD444 		.ascii	"$\357\324Dh`\370\004\024$\017\305\007\0011\305\027M"
 4142      6860F804 
 4142      14240FC5 
 4142      070131C5 
 4142      174D
 4143 5a99 388E2B81 		.ascii	"8\216+\201\345\357\324\216+\0011\357\324L\350\226;\013"
 4143      E5EFD48E 
 4143      2B0131EF 
 4143      D44CE896 
 4143      3B0B
 4144 5aab 24EFD443 		.ascii	"$\357\324CH`\370\004\024$\017\305\007!\035\305\027\177"
 4144      4860F804 
 4144      14240FC5 
 4144      07211DC5 
 4144      177F
 4145 5abd FD45FE04 		.ascii	"\375E\376\004\024\307\377\3771\001\210\001\210\000\004"
 4145      14C7FFFF 
 4145      31018801 
 4145      880004
 4146 5acc 80F80214 		.ascii	"\200\370\002\024\031\204F\002FZ\241+@\232`(@\012\345"
 4146      19844602 
 4146      465AA12B 
 4146      409A6028 
ARM GAS  C:\Temp\ccVQrAGa.s 			page 165


 4146      400AE5
 4147 5adf 2647FEE1 		.ascii	"&G\376\341\204\004\006_\374\0003\300\000\345\246@\232"
 4147      8404065F 
 4147      FC0033C0 
 4147      00E5A640 
 4147      9A
 4148 5af0 4022953B 		.ascii	"@\"\225;G\376r\200\241\013\237\374\337\374G\376\360"
 4148      47FE7280 
 4148      A10B9FFC 
 4148      DFFC47FE 
 4148      F0
 4149 5b01 0A403A0C 		.ascii	"\012@:\014\013\240\014\014\014\260\361\335\223\366|"
 4149      0BA00C0C 
 4149      0CB0F1DD 
 4149      93F67C
 4150 5b10 814101B5 		.ascii	"\201A\001\265\202AIT\230]\305\304\200\000\012\006\321"
 4150      82414954 
 4150      985DC5C4 
 4150      80000A06 
 4150      D1
 4151 5b21 B04A5281 		.ascii	"\260JR\201M\315^]\223\374\325\301\303\201\001\370|\004"
 4151      4DCD5E5D 
 4151      93FCD5C1 
 4151      C38101F8 
 4151      7C04
 4152 5b33 CC67900A 		.ascii	"\314g\220\0120\346\240\0300\201a\017NH\006\010\213\003"
 4152      30E6A018 
 4152      3081610F 
 4152      4E480608 
 4152      8B03
 4153 5b45 A5E02420 		.ascii	"\245\340$ f\200\233\030\243\245\033\026\016@\000\024"
 4153      66809B18 
 4153      A3A51B16 
 4153      0E400014 
 4154 5b55 78D00000 		.ascii	"x\320\000\000\001\026\006\006\245\220\000\362}\000\000"
 4154      01160606 
 4154      A59000F2 
 4154      7D0000
 4155 5b64 484A80B5 		.ascii	"HJ\200\265T\242\344\234e\256\220\254\0101\202a\004\301"
 4155      54A2E49C 
 4155      65AE90AC 
 4155      08318261 
 4155      04C1
 4156 5b76 82518AA8 		.ascii	"\202Q\212\250\202\201\370\325\225m\210\325\345\255\202"
 4156      8281F8D5 
 4156      956D88D5 
 4156      E5AD82
 4157 5b85 418F4488 		.ascii	"A\217D\210[\0031\201\301\003\265x\004\012i\224x\245"
 4157      5B033181 
 4157      C103B578 
 4157      040A6994 
 4157      78A5
 4158 5b97 1BE08810 		.ascii	"\033\340\210\020d| \000\205\340\210\022t\374$\000\225"
 4158      647C2000 
 4158      85E08812 
 4158      74FC2400 
 4158      95
ARM GAS  C:\Temp\ccVQrAGa.s 			page 166


 4159 5ba8 938D8095 		.ascii	"\223\215\200\225\201u\200\225\200\245\222\215x\004J"
 4159      81758095 
 4159      80A5928D 
 4159      78044A
 4160 5bb7 71946683 		.ascii	"q\224f\203\301\2021\012\250\014\244\202Q\215=\372\200"
 4160      C182310A 
 4160      A80CA482 
 4160      518D3DFA 
 4160      80
 4161 5bc8 A3CDF895 		.ascii	"\243\315\370\225\201\001\366\305\360|\014\314\301\303"
 4161      8101F6C5 
 4161      F07C0CCC 
 4161      C1C3
 4162 5bd6 DD93FA7C 		.ascii	"\335\223\372|\004\014\355\220\036\360\340\204\036u\247"
 4162      040CED90 
 4162      1EF0E084 
 4162      1E75A7
 4163 5be5 4E9D5EAF 		.ascii	"N\235^\257.\241>\236\024\251\036\340 \016\005\340\214"
 4163      2EA13E9E 
 4163      14A91EE0 
 4163      200E05E0 
 4163      8C
 4164 5bf6 1E85E088 		.ascii	"\036\205\340\210\036e\340\200\036\245\202\013%\016G"
 4164      1E65E080 
 4164      1EA5820B 
 4164      250E47
 4165 5c05 F8AD1E1F 		.ascii	"\370\255\036\037\016\350\024\016\005\203\301L\005\340"
 4165      0EE8140E 
 4165      0583C14C 
 4165      05E0
 4166 5c13 180E09EB 		.ascii	"\030\016\011\353T\3344\340X\000`1\016\300\013eA\236"
 4166      54DC34E0 
 4166      58006031 
 4166      0EC00B65 
 4166      419E
 4167 5c25 48AB0EE0 		.ascii	"H\253\016\340 \016\033\\X\234(L5\251\317L!\353P\300"
 4167      200E1B5C 
 4167      589C284C 
 4167      35A9CF4C 
 4167      21EB50C0 
 4168 5c39 026D6904 		.ascii	"\002mi\004\304\036\004L\023\350\224\300\001f\261mmL"
 4168      C41E044C 
 4168      13E894C0 
 4168      0166B16D 
 4168      6D4C
 4169 5c4b 414C51C0 		.ascii	"ALQ\300\002\300\002mq\350\024K(`\030\016\005\016)\200"
 4169      02C0026D 
 4169      71E8144B 
 4169      2860180E 
 4169      050E2980 
 4170 5c5f 9B90BB60 		.ascii	"\233\220\273`L\360\024V\005\340H\016\011\024\031\233"
 4170      4CF01456 
 4170      05E0480E 
 4170      0914199B 
 4171 5c6f AE81A160 		.ascii	"\256\201\241`4\340\220\0169\340\224\016Ix\030V\001\347"
 4171      34E0900E 
 4171      39E0940E 
ARM GAS  C:\Temp\ccVQrAGa.s 			page 167


 4171      49781856 
 4171      01E7
 4172 5c81 F4030A78 		.ascii	"\364\003\012x\020V1\000\020\201\001\002p\004\004VA\344"
 4172      10563100 
 4172      10810102 
 4172      70040456 
 4172      41E4
 4173 5c93 60904B78 		.ascii	"`\220Kx\014\370\024V!\340\034\0165P\001\243\036\231"
 4173      0CF81456 
 4173      21E01C0E 
 4173      355001A3 
 4173      1E99
 4174 5ca5 01604850 		.ascii	"\001`HP\241\254\006P\241\340T\253\004\340X\261$\255"
 4174      A1AC0650 
 4174      A1E054AB 
 4174      04E058B1 
 4174      24AD
 4175 5cb7 14EFE074 		.ascii	"\024\357\340th\215Q!\013/\304\220\245\261\024\200\253"
 4175      688D5121 
 4175      0B2FC490 
 4175      A5B11480 
 4175      AB
 4176 5cc8 64010060 		.ascii	"d\001\000`\004p@\011\001e\344\240ID\202;\354\004\006"
 4176      04704009 
 4176      0165E4A0 
 4176      4944823B 
 4176      EC0406
 4177 5cdb 30A13BC1 		.ascii	"0\241;\301N\036\005\376u\241\253`\220\235\016\226\325"
 4177      4E1E05FE 
 4177      75A1AB60 
 4177      909D0E96 
 4177      D5
 4178 5cec E0A41809 		.ascii	"\340\244\030\011\022\305\241\013\204`\022\200d`\022"
 4178      12C5A10B 
 4178      84601280 
 4178      646012
 4179 5cfb 80E48002 		.ascii	"\200\344\200\002\300d\340\004\300\345\360\006\300d\001"
 4179      C064E004 
 4179      C0E5F006 
 4179      C06401
 4180 5d0a 00600860 		.ascii	"\000`\010`@\011\300\002e\001f\001\012`\030`@\004\300"
 4180      4009C002 
 4180      65016601 
 4180      0A601860 
 4180      4004C0
 4181 5d1d 0667018D 		.ascii	"\006g\001\215\276\217\236\211^\213\316\374n\376N\261"
 4181      BE8F9E89 
 4181      5E8BCEFC 
 4181      6EFE4EB1 
 4182 5d2d 04BE0EA5 		.ascii	"\004\276\016\245T\247D\251\004\274\016\357\350r\010"
 4182      54A744A9 
 4182      04BC0EEF 
 4182      E87208
 4183 5d3c 80AB3114 		.ascii	"\200\2531\024\241\253/\304\005\345\210\245\257\304\225"
 4183      A1AB2FC4 
 4183      05E588A5 
 4183      AFC495
ARM GAS  C:\Temp\ccVQrAGa.s 			page 168


 4184 5d4b 51E07018 		.ascii	"Q\340p\030\011\356E\241\013\340t\030\011\226\365\243"
 4184      09EE45A1 
 4184      0BE07418 
 4184      0996F5A3 
 4185 5d5b 0BA114A3 		.ascii	"\013\241\024\243\004\0004\235$\344@\000\300\240\021"
 4185      0400349D 
 4185      24E44000 
 4185      C0A011
 4186 5d6a 4654FC2E 		.ascii	"FT\374.\376n<\036\276\016)\004\222\033\237$\230\233"
 4186      FE6E3C1E 
 4186      BE0E2904 
 4186      921B9F24 
 4186      989B
 4187 5d7c 65B8B144 		.ascii	"e\270\261D!\013\357\330\220\205\217Q\222\313\000\253"
 4187      210BEFD8 
 4187      90858F51 
 4187      92CB00AB 
 4188 5d8c 00C0F3D5 		.ascii	"\000\300\363\325\226+f\360o\344C\310\200\253\222;\202"
 4188      962B66F0 
 4188      6FE443C8 
 4188      80AB923B 
 4188      82
 4189 5d9d 65A1AB9D 		.ascii	"e\241\253\235\004\227Q\036\360\000\256\002^\345\220"
 4189      0497511E 
 4189      F000AE02 
 4189      5EE590
 4190 5dac 0C0C940B 		.ascii	"\014\014\224\013\335\223\362|\002\200'\004\004`\346"
 4190      DD93F27C 
 4190      02802704 
 4190      0460E6
 4191 5dbb 70400964 		.ascii	"p@\011d\001"
 4191      01
 4192 5dc0 924B963B 		.ascii	"\222K\226;\340,\000Y\376\036\257\0041\024\247\036\374"
 4192      E02C0059 
 4192      FE1EAF04 
 4192      3114A71E 
 4192      FC
 4193 5dd1 6EA00199 		.ascii	"n\240\001\231.\276.\216\033<\036\243$\227\016\357\340"
 4193      2EBE2E8E 
 4193      1B3C1EA3 
 4193      24970EEF 
 4193      E0
 4194 5de2 480880AB 		.ascii	"H\010\200\253\035\004\231Q!\253#\236\366\225d\321\016"
 4194      1D049951 
 4194      21AB239E 
 4194      F69564D1 
 4194      0E
 4195 5df3 802B04C0 		.ascii	"\200+\004\300\002-\024\226+\2474\216K\357\340mH\241"
 4195      022D1496 
 4195      2BA7348E 
 4195      4BEFE06D 
 4195      48A1
 4196 5e05 AB80AB79 		.ascii	"\253\200\253y\305\212\245\022\011\235Q\222\313`p\326"
 4196      C58AA512 
 4196      099D5192 
 4196      CB6070D6 
 4197 5e15 05A10B60 		.ascii	"\005\241\013`X\016\011e\000\004`\006`\300\002@\004f"
ARM GAS  C:\Temp\ccVQrAGa.s 			page 169


 4197      580E0965 
 4197      00046006 
 4197      60C00240 
 4197      0466
 4198 5e27 01670108 		.ascii	"\001g\001\010`[x\300\006\214\033h\020\221Q!\013\257"
 4198      605B78C0 
 4198      068C1B68 
 4198      10915121 
 4198      0BAF
 4199 5e39 C4D0B518 		.ascii	"\304\320\265\030\011\261\024\241\013\340p\002\013\320"
 4199      09B114A1 
 4199      0BE07002 
 4199      0BD0
 4200 5e47 45E4A004 		.ascii	"E\344\240\004pd\001\006`\214\033@\011\357\374e\350\200"
 4200      70640106 
 4200      608C1B40 
 4200      09EFFC65 
 4200      E880
 4201 5e59 AB311493 		.ascii	"\2531\024\223Q/\304-~\351\025f1\004\200\245t\300\001"
 4201      512FC42D 
 4201      7EE91566 
 4201      310480A5 
 4201      74C001
 4202 5e6c FC2E9994 		.ascii	"\374.\231\224\000p+.>\236\344@\341|\002\004\226+w\027"
 4202      00702B2E 
 4202      3E9EE440 
 4202      E17C0204 
 4202      962B7717 
 4203 5e80 82032334 		.ascii	"\202\003#4\012\004/\004\025^\341\0241\004\216K\347\000"
 4203      0A042F04 
 4203      155EE114 
 4203      31048E4B 
 4203      E700
 4204 5e92 0200A904 		.ascii	"\002\000\251\004\274\016\350\004H\010\241\253\200\253"
 4204      BC0EE804 
 4204      4808A1AB 
 4204      80AB
 4205 5ea0 0AF66035 		.ascii	"\012\366`5/\004\300\000\255$\226;\000\011\241\024\217"
 4205      2F04C000 
 4205      AD24963B 
 4205      0009A114 
 4205      8F
 4206 5eb1 2EE304B0 		.ascii	".\343\004\260\021+$\215.\243D\213n\261$\376.\211\236"
 4206      112B248D 
 4206      2EA3448B 
 4206      6EB124FE 
 4206      2E899E
 4207 5ec4 9F649524 		.ascii	"\237d\225$>~\374.\274\016\214[\227$\251\004\357\340"
 4207      3E7EFC2E 
 4207      BC0E8C5B 
 4207      9724A904 
 4207      EFE0
 4208 5ed6 4BA8A1AB 		.ascii	"K\250\241\253\200\253\013FXu/\004\300\000!t\214+\253"
 4208      80AB0B46 
 4208      58752F04 
 4208      C0002174 
 4208      8C2BAB
ARM GAS  C:\Temp\ccVQrAGa.s 			page 170


 4209 5ee9 64963B00 		.ascii	"d\226;\000\000-\224\002p\347\020\214K\344@o\340X\350"
 4209      002D9402 
 4209      70E7108C 
 4209      4BE4406F 
 4209      E058E8
 4210 5efc 00AB925B 		.ascii	"\000\253\222[!\253\216+R\325\222{\300\000\013\306\010"
 4210      21AB8E2B 
 4210      52D5927B 
 4210      C0000BC6 
 4210      08
 4211 5f0d 802F04C0 		.ascii	"\200/\004\300\003d\221dp\002 \026+\204\233%N\216;\347"
 4211      03649164 
 4211      70022016 
 4211      2B849B25 
 4211      4E8E3BE7 
 4212 5f21 200000EF 		.ascii	" \000\000\357\364x(\241\253\200\253\013\326Nu\022\013"
 4212      F47828A1 
 4212      AB80AB0B 
 4212      D64E7512 
 4212      0B
 4213 5f32 C0002534 		.ascii	"\300\000%4\226\033L\270\216+\200\253\350\004L\025\241"
 4213      961B4CB8 
 4213      8E2B80AB 
 4213      E8044C15 
 4213      A1
 4214 5f43 ABC0000B 		.ascii	"\253\300\000\013\346\022\025\257t\022+\340\020\251\224"
 4214      E61215AF 
 4214      74122BE0 
 4214      10A994
 4215 5f52 E03C0E0B 		.ascii	"\340<\016\013\261D\0169\341\210\221\236\343 \215.\217"
 4215      B1440E39 
 4215      E188919E 
 4215      E3208D2E 
 4215      8F
 4216 5f63 4E9F148B 		.ascii	"N\237\024\213\036\000p\011\016\243D\3470\233\024\376"
 4216      1E007009 
 4216      0EA344E7 
 4216      309B14FE 
 4217 5f73 1EA534FC 		.ascii	"\036\2454\374>\004\020'T>>\344@\274n\226;\357\370C\250"
 4217      3E041027 
 4217      543E3EE4 
 4217      40BC6E96 
 4217      3BEFF843 
 4218 5f88 A1AB80AB 		.ascii	"\241\253\200\253_\3740\270\300\000\013\366c\200\016"
 4218      5FFC30B8 
 4218      C0000BF6 
 4218      63800E
 4219 5f97 19645008 		.ascii	"\031dP\010\200\022\013\300\004\2454\226+\357\374\\h"
 4219      80120BC0 
 4219      04A53496 
 4219      2BEFFC5C 
 4219      68
 4220 5fa8 4A0600AB 		.ascii	"J\006\000\253\337\245\340\000\372|\004\014\3540\036"
 4220      DFA5E000 
 4220      FA7C040C 
 4220      EC301E
 4221 5fb7 F082AB19 		.ascii	"\360\202\253\031\024\204\233\025t\206k>^\210\273|\036"
ARM GAS  C:\Temp\ccVQrAGa.s 			page 171


 4221      14849B15 
 4221      74866B3E 
 4221      5E88BB7C 
 4221      1E
 4222 5fc8 60401289 		.ascii	"`@\022\211G\370\224\033\216;h\000\340D\022\011\202\345"
 4222      47F8941B 
 4222      8E3B6800 
 4222      E0441209 
 4222      82E5
 4223 5fda A60D8665 		.ascii	"\246\015\206e\251\013\214%\255\013\257\013|\264\020"
 4223      A90B8C25 
 4223      AD0BAF0B 
 4223      7CB410
 4224 5fe9 0B9A1561 		.ascii	"\013\232\025a\370\216\033\243\015\357\330\215\025\214"
 4224      F88E1BA3 
 4224      0DEFD88D 
 4224      158C
 4225 5ff7 258E45A5 		.ascii	"%\216E\245\013\247\013|\264\002`\226\225\220\013d o"
 4225      0BA70B7C 
 4225      B4026096 
 4225      95900B64 
 4225      206F
 4226 6009 DC4108A3 		.ascii	"\334A\010\243\015\216+\2135\202%\216\033\020\013\357"
 4226      0D8E2B8B 
 4226      3582258E 
 4226      1B100BEF 
 4227 6019 D860A8A3 		.ascii	"\330`\250\243\015|\264>d\222\225\216\033\220\013o\330"
 4227      0D7CB43E 
 4227      6492958E 
 4227      1B900B6F 
 4227      D8
 4228 602a 61A8100B 		.ascii	"a\250\020\013\214+i\270\216\033\214+o\330\222\033\024"
 4228      8C2B69B8 
 4228      8E1B8C2B 
 4228      6FD8921B 
 4228      14
 4229 603b 0B6FD86D 		.ascii	"\013o\330mh\207\265\214+d \002`~\370\220\013\216+o\330"
 4229      6887B58C 
 4229      2B642002 
 4229      607EF890 
 4229      0B8E2B6F 
 4230 6050 A30D7CB4 		.ascii	"\243\015|\264>d\214U\216\033\220\013o\330`\010\020\013"
 4230      3E648C55 
 4230      8E1B900B 
 4230      6FD86008 
 4230      100B
 4231 6062 8C2B6A78 		.ascii	"\214+jx\216\033\214+o\330\016\011\205e\300\005o\321"
 4231      8E1B8C2B 
 4231      6FD80E09 
 4231      8565C005 
 4231      6FD1
 4232 6074 84E5A10B 		.ascii	"\204\345\241\013g\375\016\025\227\004\300\001o\311\016"
 4232      67FD0E15 
 4232      9704C001 
 4232      6FC90E
 4233 6083 290E39C0 		.ascii	")\0169\300\005\300\005o\315`\011\016K\302\036\300\003"
 4233      05C0056F 
ARM GAS  C:\Temp\ccVQrAGa.s 			page 172


 4233      CD60090E 
 4233      4BC21EC0 
 4233      03
 4234 6094 E0105615 		.ascii	"\340\020V\025\340XV!\340\\V1\3400VCo\330[H|\264\216"
 4234      E0585621 
 4234      E05C5631 
 4234      E0305643 
 4234      6FD85B48 
 4235 60ab 0B80B5A3 		.ascii	"\013\200\265\243\015\216\013>\024\357\330cH\230\361"
 4235      0D8E0B3E 
 4235      14EFD863 
 4235      4898F1
 4236 60ba 01014016 		.ascii	"\001\001@\026,\016.\016\340\000\014\014\201\001\335"
 4236      2C0E2E0E 
 4236      E0000C0C 
 4236      8101DD
 4237 60c9 93F27CFA 		.ascii	"\223\362|\372|\004L\204k\002\213\206{`(\240\010\242"
 4237      7C044C84 
 4237      6B028B86 
 4237      7B6028A0 
 4237      08A2
 4238 60db 18E81062 		.ascii	"\030\350\020bh`X\020\031\242\004\200+fx\3404\310\027"
 4238      68605810 
 4238      19A20480 
 4238      2B6678E0 
 4238      34C817
 4239 60ee 6810E044 		.ascii	"h\020\340D\014\031\234U\245\033N\005\340\024\300\001"
 4239      0C199C55 
 4239      A51B4E05 
 4239      E014C001 
 4240 60fe 67DDE018 		.ascii	"g\335\340\030\014\013\2304\232$g\341N\025\014\031\300"
 4240      0C0B9834 
 4240      9A2467E1 
 4240      4E150C19 
 4240      C0
 4241 610f 014E03E0 		.ascii	"\001N\003\3408\300\002o\341\340T\014\011g\351N%N5\300"
 4241      38C0026F 
 4241      E1E0540C 
 4241      0967E94E 
 4241      254E35C0 
 4242 6123 01C00167 		.ascii	"\001\300\001g\355o\311N\021\241\013@\005`<\014\031\014"
 4242      ED6FC94E 
 4242      11A10B40 
 4242      05603C0C 
 4242      190C
 4243 6135 2981010C 		.ascii	")\201\001\0149\340@N\021\340H\300\005o\315o\321N\001"
 4243      39E0404E 
 4243      11E048C0 
 4243      056FCD6F 
 4243      D14E01
 4244 6148 4E21C005 		.ascii	"N!\300\005\300\005o\325o\331N1\260\245\300\005`Q\014"
 4244      C0056FD5 
 4244      6FD94E31 
 4244      B0A5C005 
 4244      60510C
 4245 615b 09026040 		.ascii	"\011\002`@\001\300\003d\221\340\210\004\004|\010\002"
 4245      01C00364 
ARM GAS  C:\Temp\ccVQrAGa.s 			page 173


 4245      91E08804 
 4245      047C0802 
 4246 616b 35F08848 		.ascii	"5\360\210H\022N5\204c@\001g\371\340\204\006\004``\010"
 4246      124E3584 
 4246      63400167 
 4246      F9E08406 
 4246      04606008 
 4247 617f 45065B82 		.ascii	"E\006[\2023\200\023a h\001NE\203A@\001`\011NS\014%\300"
 4247      33801361 
 4247      2068014E 
 4247      45834140 
 4247      0160094E 
 4248 6197 03063BE1 		.ascii	"\003\006;\341\274NA\341P\300\005o\321g\375N%N3\300\001"
 4248      BC4E41E1 
 4248      50C0056F 
 4248      D167FD4E 
 4248      254E33C0 
 4249 61ac C003600D 		.ascii	"\300\003`\015\343\000\002\011`!N\001\002\011\300\006"
 4249      E3000209 
 4249      60214E01 
 4249      0209C006 
 4250 61bc 4E01E330 		.ascii	"N\001\3430\300\006`%\343`\002\011`)N\001\002\011\300"
 4250      C0066025 
 4250      E3600209 
 4250      60294E01 
 4250      0209C0
 4251 61cf 064E01E3 		.ascii	"\006N\001\343\220\300\006`-\014)\221E\006p`@\340\024"
 4251      90C00660 
 4251      2D0C2991 
 4251      45067060 
 4251      40E014
 4252 61e2 E470E010 		.ascii	"\344p\340\020N\005\010$\032\004N\025\340\210\206C`\024"
 4252      4E050824 
 4252      1A044E15 
 4252      E0888643 
 4252      6014
 4253 61f4 603C0E59 		.ascii	"`<\016Y\340\204\020$\214\013\020\016p\025\000\025\206"
 4253      E0841024 
 4253      8C0B100E 
 4253      70150015 
 4253      86
 4254 6205 83400260 		.ascii	"\203@\002`T\014\311DZ\2043H\025\346\212\000\033\341"
 4254      540CC944 
 4254      5A843348 
 4254      15E68A00 
 4254      1BE1
 4255 6217 00C00478 		.ascii	"\000\300\004x\021x\031\000IP\023\300\010BRd\000FA\373"
 4255      11781900 
 4255      495013C0 
 4255      08425264 
 4255      004641FB 
 4256 622b B058726A 		.ascii	"\260Xrj\000\000I\360\210\300\010x\025\354\000F\021\353"
 4256      000049F0 
 4256      88C00878 
 4256      15EC0046 
 4256      11EB
 4257 623d 00464178 		.ascii	"\000FAx\021\000IFA\300\010\010$m\000\000Y\340\204@\010"
ARM GAS  C:\Temp\ccVQrAGa.s 			page 174


 4257      11004946 
 4257      41C00808 
 4257      246D0000 
 4257      59E08440 
 4258 6252 78090E43 		.ascii	"x\011\016C\304'\004p\204s@\007gqgq\010@FQ\300\021\006"
 4258      C4270470 
 4258      84734007 
 4258      67716771 
 4258      08404651 
 4259 6269 C06E00C0 		.ascii	"\300n\000\300\023gp\201Q\007e|\024\000\311d\220\020"
 4259      13677081 
 4259      5107657C 
 4259      1400C964 
 4259      9010
 4260 627b 600EC4C0 		.ascii	"`\016\304\300\003\020\225\340\210T\202|\034\214s\360"
 4260      031095E0 
 4260      8854827C 
 4260      1C8C73F0 
 4261 628b 9C780144 		.ascii	"\234x\001D\225\022\304@\002\024\245\340\204\220\223"
 4261      9512C440 
 4261      0214A5E0 
 4261      849093
 4262 629a 60606120 		.ascii	"``a \022\273D\245\230\203H\263\344\000\300\002x\001"
 4262      12BB44A5 
 4262      988348B3 
 4262      E400C002 
 4262      7801
 4263 62ac E1BC0E75 		.ascii	"\341\274\016u\341P\022\233N2I~Q\234\360\224\020\311"
 4263      E150129B 
 4263      4E32497E 
 4263      519CF094 
 4263      10C9
 4264 62be 82519CC6 		.ascii	"\202Q\234\306\343\000\3430\020\311\344\000N\301\343"
 4264      E300E330 
 4264      10C9E400 
 4264      4EC1E3
 4265 62cd 6010C9E8 		.ascii	"`\020\311\350\000N\301\343\220\020\311\354\000N\301"
 4265      004EC1E3 
 4265      9010C9EC 
 4265      004EC1
 4266 62dc F275835D 		.ascii	"\362u\203]\362|\014L\301\303\335\223\372|\004\014\354"
 4266      F27C0C4C 
 4266      C1C3DD93 
 4266      FA7C040C 
 4266      EC
 4267 62ed 901EF084 		.ascii	"\220\036\360\204\273\013\036\200\253+\024\201\201<^"
 4267      BB0B1E80 
 4267      AB2B1481 
 4267      813C5E
 4268 62fc 866B3E4E 		.ascii	"\206k>N\215\036\256\004\257t\245\024\376\036\247\224"
 4268      8D1EAE04 
 4268      AF74A514 
 4268      FE1EA794 
 4269 630c 4FB88F8E 		.ascii	"O\270\217\216\0269\350\020\230\032\340\224\245;\232"
 4269      1639E810 
 4269      981AE094 
 4269      A53B9A
ARM GAS  C:\Temp\ccVQrAGa.s 			page 175


 4270 631b 2AE01052 		.ascii	"*\340\020R\023\340\024R#\011\016\212Ut\001\000\016\276"
 4270      13E01452 
 4270      23090E8A 
 4270      55740100 
 4270      0EBE
 4271 632d 7EC00783 		.ascii	"~\300\007\203\001&\016\205\001|\016-d\241\214\372\200"
 4271      01260E85 
 4271      017C0E2D 
 4271      64A18CFA 
 4271      80
 4272 633e 0204940B 		.ascii	"\002\004\224\013)t\2154\376$\350\000M(`\224\026\031"
 4272      29748D34 
 4272      FE24E800 
 4272      4D286094 
 4272      1619
 4273 6350 122B940B 		.ascii	"\022+\224\013I\230\214;\013d\350\000\026)\224\013\216"
 4273      49988C3B 
 4273      0B64E800 
 4273      1629940B 
 4273      8E
 4274 6361 4B6090E0 		.ascii	"K`\220\340\224\026\031h\000N\210\215\024\214;\211\004"
 4274      94161968 
 4274      004E888D 
 4274      148C3B89 
 4274      04
 4275 6372 BE748F05 		.ascii	"\276t\217\005\374\224\026\031\2434\314(\340\220\202"
 4275      FC941619 
 4275      A334CC28 
 4275      E09082
 4276 6381 95C51DC5 		.ascii	"\225\305\035\305\035\316(\000\024\036e\200\000\022&"
 4276      1DCE2800 
 4276      141E6580 
 4276      001226
 4277 6390 00181E15 		.ascii	"\000\030\036\025\200\000P\306\011\016\226\345\360\204"
 4277      800050C6 
 4277      090E96E5 
 4277      F084
 4278 639e 40326020 		.ascii	"@2` \000\031\344p\004\360\341 \000\011`\200^\021\344"
 4278      0019E470 
 4278      04F0E120 
 4278      00096080 
 4278      5E11E4
 4279 63b1 8002F060 		.ascii	"\200\002\360`\204^\001Yx\214\013\241\013\350\000\000"
 4279      845E0159 
 4279      788C0BA1 
 4279      0BE80000 
 4280 63c1 8B80E58B 		.ascii	"\213\200\345\213d\207\221\211\004\215\024\017\004\211"
 4280      64879189 
 4280      048D140F 
 4280      0489
 4281 63cf 55E47004 		.ascii	"U\344p\004\360`\204\002\004\014\023\304\007\002\033"
 4281      F0608402 
 4281      040C13C4 
 4281      07021B
 4282 63de 80630C05 		.ascii	"\200c\014\005\342HR\023\340$\002\360`(\246\016\344\200"
 4282      E2485213 
 4282      E02402F0 
ARM GAS  C:\Temp\ccVQrAGa.s 			page 176


 4282      6028A60E 
 4282      E480
 4283 63f0 57B8BE64 		.ascii	"W\270\276d\214\013h\000\213\021!\013\210\365\374\036"
 4283      8C0B6800 
 4283      8B11210B 
 4283      88F5FC1E 
 4284 6400 04F00F04 		.ascii	"\004\360\017\004\376\024\344p\002\025\304\007\214\003"
 4284      FE14E470 
 4284      0215C407 
 4284      8C03
 4285 640e 6010E024 		.ascii	"`\020\340$\000\005\002\360\002\003\346\016\344\200V"
 4285      000502F0 
 4285      0203E60E 
 4285      E48056
 4286 641d 58BC648C 		.ascii	"X\274d\214\013h\000\204u\241\013\214\033\017\004\004"
 4286      0B680084 
 4286      75A10B8C 
 4286      1B0F0404 
 4287 642d F02164C2 		.ascii	"\360!d\302\007\344p\002\360\002\003\000\013\344\200"
 4287      07E47002 
 4287      F0020300 
 4287      0BE480
 4288 643c 5203E018 		.ascii	"R\003\340\030\214\013`<\350\000U(\204e\241\013\200\213"
 4288      8C0B603C 
 4288      E8005528 
 4288      8465A10B 
 4288      808B
 4289 644e 0B648B91 		.ascii	"\013d\213\221\015\024\002\033\211\004D\030\341\250L"
 4289      0D14021B 
 4289      89044418 
 4289      E1A84C
 4290 645d 03EFE090 		.ascii	"\003\357\340\220\013`\030\310\361\034\216\014\014\236"
 4290      0B6018C8 
 4290      F11C8E0C 
 4290      0C9E
 4291 646b 9EDD93F2 		.ascii	"\236\335\223\362|\276~\217\004\200c\302\007\340\030"
 4291      7CBE7E8F 
 4291      048063C2 
 4291      07E018
 4292 647a 0C0BE038 		.ascii	"\014\013\3408R\003\340\224\026\011\301\303\353\265\372"
 4292      5203E094 
 4292      1609C1C3 
 4292      EBB5FA
 4293 6489 04044C84 		.ascii	"\004\004L\204;\006kD\006\002{\014\013\340\000W\270\206"
 4293      3B066B44 
 4293      06027B0C 
 4293      0BE00057 
 4293      B886
 4294 649b 1BA67DEF 		.ascii	"\033\246}\357\320\251{\202%\255{\200\245\257{\202%\001"
 4294      D0A97B82 
 4294      25AD7B80 
 4294      A5AF7B82 
 4294      2501
 4295 64ad 858695A5 		.ascii	"\205\206\225\245{\201\001\247{\202\205\201\001\204\325"
 4295      7B8101A7 
 4295      7B828581 
 4295      0184D5
ARM GAS  C:\Temp\ccVQrAGa.s 			page 177


 4296 64bc 4C03DA0E 		.ascii	"L\003\332\016\002\006`(L\023\341\000\201\325\3408\332"
 4296      02066028 
 4296      4C13E100 
 4296      81D5E038 
 4296      DA
 4297 64cd 0E8101E0 		.ascii	"\016\201\001\340(L\003`0L\003\341\000\000\006\3408L"
 4297      284C0360 
 4297      304C03E1 
 4297      000006E0 
 4297      384C
 4298 64df 03E03C4C 		.ascii	"\003\340<L\003\362\004\014L\301\303\335\223\372\014"
 4298      03F2040C 
 4298      4CC1C3DD 
 4298      93FA0C
 4299 64ee 040C847B 		.ascii	"\004\014\204{\006kDF\002\213\014\013\340\014T\230\216"
 4299      066B4446 
 4299      028B0C0B 
 4299      E00C5498 
 4299      8E
 4300 64ff 1BAD8BEF 		.ascii	"\033\255\213\357\320\340\014\020\032\355\200B\012\200"
 4300      D0E00C10 
 4300      1AED8042 
 4300      0A80
 4301 650d 00000680 		.ascii	"\000\000\006\200pL\001\245\213\202\345\001!\202\265"
 4301      704C01A5 
 4301      8B82E501 
 4301      2182B5
 4302 651c E4800060 		.ascii	"\344\200\000``pL!\344\260\002p\014\014\231!\023\030"
 4302      60704C21 
 4302      E4B00270 
 4302      0C0C9921 
 4302      1318
 4303 652e F20C0C0C 		.ascii	"\362\014\014\014\377\320\335\223\362\014\370<\004L\214"
 4303      FFD0DD93 
 4303      F20CF83C 
 4303      044C8C
 4304 653d 35A51B6F 		.ascii	"5\245\033o\321\006\011\006\031\300\005\300\005o\331"
 4304      D1060906 
 4304      19C005C0 
 4304      056FD9
 4305 654c 6FC90629 		.ascii	"o\311\006)\006Y\300\005@\005o\315H\021\241\013H!\340"
 4305      0659C005 
 4305      40056FCD 
 4305      4811A10B 
 4305      4821E0
 4306 655f 344851E0 		.ascii	"4HQ\340 H\001\340$\232\305\3400g\371\006\005\006\033"
 4306      204801E0 
 4306      249AC5E0 
 4306      3067F906 
 4306      05061B
 4307 6572 C001C003 		.ascii	"\300\001\300\003`\011`-\006)H\005\300\006H\023\340\020"
 4307      6009602D 
 4307      06294805 
 4307      C0064813 
 4307      E010
 4308 6584 0605E0E0 		.ascii	"\006\005\340\340\300\001h\001`\015\006\033"
 4308      C0016801 
ARM GAS  C:\Temp\ccVQrAGa.s 			page 178


 4308      600D061B 
 4309 6590 4821C003 		.ascii	"H!\300\003H\005\342\200H\023\340@\213E\341\020`<\006"
 4309      4805E280 
 4309      4813E040 
 4309      8B45E110 
 4309      603C06
 4310 65a3 59F08840 		.ascii	"Y\360\210@2np\000\031\346\200\030@\201q\001a\3404H\021"
 4310      326E7000 
 4310      19E68018 
 4310      40817101 
 4310      61E03448 
 4311 65b8 EA700019 		.ascii	"\352p\000\031\340 H\021\353p\000\031\340$H\021\346\212"
 4311      E0204811 
 4311      EB700019 
 4311      E0244811 
 4311      E68A
 4312 65ca 425AEC70 		.ascii	"BZ\354p\000\011`\204\004\024\340\210\012\024\020\002"
 4312      00096084 
 4312      0414E088 
 4312      0A141002 
 4313 65da 86230010 		.ascii	"\206#\000\020l0\300\026gpgq\002 \004P@\017\300\013g"
 4313      6C30C016 
 4313      67706771 
 4313      02200450 
 4313      400FC00B 
 4314 65ef 71603048 		.ascii	"q`0H\201\345\000\012@\002\233\2055P2|\030\020\205\360"
 4314      81E5000A 
 4314      40029B85 
 4314      3550327C 
 4314      181085F0 
 4315 6603 88400478 		.ascii	"\210@\004x\001\360\230T\302x`T\223\360\230R\022x0J\205"
 4315      01F09854 
 4315      C2786054 
 4315      93F09852 
 4315      1278304A 
 4316 6618 06858461 		.ascii	"\006\205\204a\210!|\010\344\000\022\233P2U\216T\223"
 4316      88217C08 
 4316      E400129B 
 4316      5032558E 
 4316      5493
 4317 662a F09C52C2 		.ascii	"\360\234R\302x0\020\211\360\234\202q|\000\010\211\244"
 4317      78301089 
 4317      F09C8271 
 4317      7C000889 
 4317      A4
 4318 663b 861084E0 		.ascii	"\206\020\204\3400\221}\372\200\014L\366u\335\223\360"
 4318      30917DFA 
 4318      800C4CF6 
 4318      75DD93F0 
 4319 664b 3CF88C04 		.ascii	"<\370\214\004\014`8F\021F!\201Q\0040`<\300\001dp`\030"
 4319      0C603846 
 4319      11462181 
 4319      51043060 
 4319      3CC00164 
 4320 6662 46536470 		.ascii	"FSdp\0300\0140\300\002@\002fq\340\014C\366\201q\003"
 4320      18300C30 
 4320      C0024002 
ARM GAS  C:\Temp\ccVQrAGa.s 			page 179


 4320      6671E00C 
 4320      43F68171 
 4321 6677 25790044 		.ascii	"%y\000DU\360\234Pb\361\\\311^c\000Pq\240V\202q\341\000"
 4321      55F09C50 
 4321      62F15CC9 
 4321      5E630050 
 4321      71A05682 
 4322 668e 5051E200 		.ascii	"PQ\342\000PQ\344\000P\021\341\000\016\012\0040\372\325"
 4322      5051E400 
 4322      5011E100 
 4322      0E0A0430 
 4322      FAD5
 4323 66a0 40166771 		.ascii	"@\026gq\340\020\030\006IV\201E\354\004\030\300\376\225"
 4323      E0101806 
 4323      49568145 
 4323      EC0418C0 
 4323      FE95
 4324 66b2 A1CB67F1 		.ascii	"\241\313g\361FU\004\006@\001FU\357\360\300\001g\355"
 4324      46550406 
 4324      40014655 
 4324      EFF0C001 
 4324      67ED
 4325 66c4 67E94655 		.ascii	"g\351FUF\021\300\001@\005o\331F#\210\033\300\002o\351"
 4325      4611C001 
 4325      40056FD9 
 4325      4623881B 
 4325      C0026FE9 
 4326 66d8 602D4651 		.ascii	"`-FQ\014\014\300\006$8\360\214\301\303\377\324\370\034"
 4326      0C0CC006 
 4326      2438F08C 
 4326      C1C3FFD4 
 4326      F81C
 4327 66ea 040CE018 		.ascii	"\004\014\340\030\000y\340(\0009\340 \000\311\010p\006"
 4327      0079E028 
 4327      0039E020 
 4327      00C90870 
 4327      06
 4328 66fb 684A3AEC 		.ascii	"hJ:\354\004\000I\346\222\000\211\340\024RR`\034\000"
 4328      040049E6 
 4328      920089E0 
 4328      14525260 
 4328      1C00
 4329 670d 59F0B081 		.ascii	"Y\360\260\201\001`$\322m\004\030@\306\010\016\216U\340"
 4329      016024D2 
 4329      6D041840 
 4329      C6080E8E 
 4329      55E0
 4330 671f 00EC0412 		.ascii	"\000\354\004\022@\346\246RZ\322\035\220\223\331m\214"
 4330      40E6A652 
 4330      5AD21D90 
 4330      93D96D8C 
 4331 672f 75D11D8C 		.ascii	"u\321\035\2145\241;\212\365\241[\212\245R\302\212e\022"
 4331      35A13B8A 
 4331      F5A15B8A 
 4331      A552C28A 
 4331      6512
 4332 6741 8AF9A088 		.ascii	"\212\371\240\210\325\360\000\210\225\360}\210U\364M"
ARM GAS  C:\Temp\ccVQrAGa.s 			page 180


 4332      D5F00088 
 4332      95F07D88 
 4332      55F44D
 4333 6750 EC081240 		.ascii	"\354\010\022@\364\364\023\012\345}\206\265N2\206u\242"
 4333      F4F4130A 
 4333      E57D86B5 
 4333      4E328675 
 4333      A2
 4334 6761 7FF9940E 		.ascii	"\177\371\224\016\212\254\177\204\225\360\000N\032\260"
 4334      8AAC7F84 
 4334      95F0004E 
 4334      1AB0
 4335 676f 13A17BE1 		.ascii	"\023\241{\341\026\270c\202\365\341\016Xj\202U\241\313"
 4335      16B86382 
 4335      F5E10E58 
 4335      6A8255A1 
 4335      CB
 4336 6780 E00E406A 		.ascii	"\340\016@j\340\026B\032\346\222@\012\010\016\202\003"
 4336      E016421A 
 4336      E692400A 
 4336      080E8203 
 4337 6790 0C0C8101 		.ascii	"\014\014\201\001\335\223\360\034\372|\004\014\355P\036"
 4337      DD93F01C 
 4337      FA7C040C 
 4337      ED501E
 4338 679f F080AB3D 		.ascii	"\360\200\253=\004\201\221%^\204\213\025N\0260\023\016"
 4338      04819125 
 4338      5E848B15 
 4338      4E163013 
 4338      0E
 4339 67b0 3B04E520 		.ascii	";\004\345 \340\010\015\006\201q!\036\243\016\251\236"
 4339      E0080D06 
 4339      8171211E 
 4339      A30EA99E 
 4340 67c0 270EB904 		.ascii	"'\016\271\004e\001\000\240\033\016\300\002f\001\000"
 4340      650100A0 
 4340      1B0EC002 
 4340      660100
 4341 67cf A0190EC0 		.ascii	"\240\031\016\300\004g\001\000\240\027\016\300\006d\001"
 4341      04670100 
 4341      A0170EC0 
 4341      066401
 4342 67de 00A01F0E 		.ascii	"\000\240\037\016\300\011e\001\000\240\035\016\300\013"
 4342      C0096501 
 4342      00A01D0E 
 4342      C00B
 4343 67ec 8D858101 		.ascii	"\215\205\201\001\230U\241\013x\220\026\003\254\022\224"
 4343      9855A10B 
 4343      78901603 
 4343      AC1294
 4344 67fb 5BA734A5 		.ascii	"[\2474\245$r\370\243D\241\013\357\334\2414\224\365\026"
 4344      2472F8A3 
 4344      44A10BEF 
 4344      DCA13494 
 4344      F516
 4345 680d 039D44AC 		.ascii	"\003\235D\254\022\370\220\3400\026#\213N\2148\247T\237"
 4345      12F890E0 
ARM GAS  C:\Temp\ccVQrAGa.s 			page 181


 4345      3016238B 
 4345      4E8C38A7 
 4345      549F
 4346 681f 44974489 		.ascii	"D\227D\211N\231D\376N\233D\374N\274\256\276Nt8\245D"
 4346      4E9944FE 
 4346      4E9B44FC 
 4346      4EBCAEBE 
 4346      4E7438A5 
 4347 6834 A10BEFDC 		.ascii	"\241\013\357\334\223D\216\365\026\003\2414,\022\370"
 4347      93448EF5 
 4347      1603A134 
 4347      2C12F8
 4348 6843 90F0A44A 		.ascii	"\220\360\244JB`0\026#\2168\214C\340Q\017^\011N\213^"
 4348      42603016 
 4348      238E388C 
 4348      43E0510F 
 4348      5E094E8B 
 4349 6858 E54008F0 		.ascii	"\345@\010\360\235D\376N\247T\221^\237D\374N\274\256"
 4349      9D44FE4E 
 4349      A754915E 
 4349      9F44FC4E 
 4349      BCAE
 4350 686a BE4E7978 		.ascii	"\276Nyx\225D\241\013\357\334\251\004\2105\021\004\217"
 4350      9544A10B 
 4350      EFDCA904 
 4350      88351104 
 4350      8F
 4351 687b C40034A3 		.ascii	"\304\0004\243\013\300\000\000\006\300\000X5\300`X5\241"
 4351      0BC00000 
 4351      06C00058 
 4351      35C06058 
 4351      35A1
 4352 688d 4484B516 		.ascii	"D\204\265\026\003\223$PX\370\220\345\200\010\300\004"
 4352      03932450 
 4352      58F890E5 
 4352      8008C004 
 4353 689d 23AC1289 		.ascii	"#\254\022\211N\374\030\376\316\247D\276N\374\256<N\225"
 4353      4EFC18FE 
 4353      CEA744BE 
 4353      4EFCAE3C 
 4353      4E95
 4354 68af 446BD883 		.ascii	"Dk\330\203A\002q\357\330\004\261\210\221\242\030\204"
 4354      410271EF 
 4354      D804B188 
 4354      91A21884 
 4355 68bf 61E4F583 		.ascii	"a\344\365\203}\345P\036\360\362|\014\014\301\303\335"
 4355      7DE5501E 
 4355      F0F27C0C 
 4355      0CC1C3DD 
 4356 68cf 93FE7C04 		.ascii	"\223\376|\004\014\354`\036\360\204\253\006\270`\020"
 4356      0CEC601E 
 4356      F084AB06 
 4356      B86010
 4357 68de 00230214 		.ascii	"\000#\002\024\231A\000\013\201Q>\016\340\024\347`\000"
 4357      9941000B 
 4357      81513E0E 
 4357      E014E760 
ARM GAS  C:\Temp\ccVQrAGa.s 			page 182


 4357      00
 4358 68ef 30415681 		.ascii	"0AV\201E\354\004\010@\376\225\241Kl\004\000\020\177"
 4358      45EC0408 
 4358      40FE95A1 
 4358      4B6C0400 
 4358      107F
 4359 6901 FC49EE3E 		.ascii	"\374I\356>\004\317\377\344\020AJ\340\004\004\332\355"
 4359      04CFFFE4 
 4359      10414AE0 
 4359      0404DAED 
 4360 6911 80420AEC 		.ascii	"\200B\012\354\004\000\000o\371\001Z@\306@\017B\012\340"
 4360      0400006F 
 4360      F9015A40 
 4360      C6400F42 
 4360      0AE0
 4361 6923 00175AED 		.ascii	"\000\027Z\355\200B\012\3440\000\006\355\200\274\016"
 4361      80420AE4 
 4361      300006ED 
 4361      80BC0E
 4362 6932 C0008000 		.ascii	"\300\000\200\000\023\310`\012@.\347`\0220\346\240\020"
 4362      13C8600A 
 4362      402EE760 
 4362      1230E6A0 
 4362      10
 4363 6943 30E50244 		.ascii	"0\345\002D\032\345\202H\032\002$\011.~N\341\204\340"
 4363      1AE58248 
 4363      1A022409 
 4363      2E7E4EE1 
 4363      84E0
 4364 6955 FC0044C3 		.ascii	"\374\000D\303G \037\213N\374\036 \022\2455\2504\201"
 4364      47201F8B 
 4364      4EFC1E20 
 4364      12A535A8 
 4364      3481
 4365 6967 01401AA0 		.ascii	"\001@\032\240\035B:\306\206@:\345\202\004\024\345\002"
 4365      1D423AC6 
 4365      86403AE5 
 4365      820414E5 
 4365      02
 4366 6978 0620F680 		.ascii	"\006 \366\200\005\012l\200\000[\344|\373\214H\"l|\006"
 4366      050A6C80 
 4366      005BE47C 
 4366      FB8C4822 
 4366      6C7C06
 4367 698b 429C004A 		.ascii	"B\234\000J\020h\214\030TJ\000\201Q\0144\034\000\016"
 4367      10688C18 
 4367      544A0081 
 4367      510C341C 
 4367      000E
 4368 699d 54EC00A6 		.ascii	"T\354\000\246Co\214x\234Lb\354\004\010B\254\317\013"
 4368      436F8C78 
 4368      9C4C62EC 
 4368      040842AC 
 4368      CF0B
 4369 69af 64689008 		.ascii	"dh\220\010\304H;\247_MJ\312\313L\032\344\014\214;`\014"
 4369      C4483BA7 
 4369      5F4D4ACA 
ARM GAS  C:\Temp\ccVQrAGa.s 			page 183


 4369      CB4C1AE4 
 4369      0C8C3B60 
 4370 69c4 420A7C64 		.ascii	"B\012|dMj\345\200B\032\3440B\012\341\210@R\355\200N"
 4370      4D6AE580 
 4370      421AE430 
 4370      420AE188 
 4370      4052ED80 
 4371 69d9 20509808 		.ascii	" P\230\010\365\334\000\322\214BB\010e\241+\200\000\016"
 4371      F5DC00D2 
 4371      8C424208 
 4371      65A12B80 
 4371      000E
 4372 69eb 066C040E 		.ascii	"\006l\004\016 \017\012\200;F\020\344|\002 \034\000D"
 4372      200F0A80 
 4372      3B4610E4 
 4372      7C02201C 
 4372      0044
 4373 69fd 72EC8400 		.ascii	"r\354\204\000\006{\204\002\"\300\000\010\004\354|\012"
 4373      067B8402 
 4373      22C00008 
 4373      04EC7C0A 
 4374 6a0d 146F8422 		.ascii	"\024o\204\"#\354\000#?\243\017\370\220HR\250?\013\024"
 4374      23EC0023 
 4374      3FA30FF8 
 4374      904852A8 
 4374      3F0B14
 4375 6a20 6C040422 		.ascii	"l\004\004\"\245?\214\003\362\204B2\3764\211$\357\314"
 4375      A53F8C03 
 4375      F2844232 
 4375      FE348924 
 4375      EFCC
 4376 6a32 47280070 		.ascii	"G(\000p\000+\010p\344,\001\012lT\0031\344|\373\220H"
 4376      002B0870 
 4376      E42C010A 
 4376      6C540331 
 4376      E47CFB90 
 4377 6a47 02000006 		.ascii	"\002\000\000\006\006\344\200\000\312b\000\000\014\354"
 4377      06E48000 
 4377      CA620000 
 4377      0CEC
 4378 6a55 7C0A426F 		.ascii	"|\012Bo\224\030\004\354\000\014T\253?*Cx\260Xb\354\004"
 4378      941804EC 
 4378      000C54AB 
 4378      3F2A4378 
 4378      B05862EC 
 4379 6a6a 0842AB0F 		.ascii	"\010B\253\0178?D\252)?G\035\344\000\340\014A\366\340"
 4379      383F44AA 
 4379      293F471D 
 4379      E400E00C 
 4379      41F6E0
 4380 6a7d 0C421AE5 		.ascii	"\014B\032\345\200B\012\341\210B\032\355\200B\012\241"
 4380      80420AE1 
 4380      88421AED 
 4380      80420AA1 
 4381 6a8d 1B9EC5BE 		.ascii	"\033\236\305\276D\216\365\366\200\000$\366\200\002D"
 4381      448EF5F6 
 4381      800024F6 
ARM GAS  C:\Temp\ccVQrAGa.s 			page 184


 4381      800244
 4382 6a9c 028A8013 		.ascii	"\002\212\200\023\220u\344\200dt\017\012\234\025\203"
 4382      9075E480 
 4382      64740F0A 
 4382      9C1583
 4383 6aab 41BD113E 		.ascii	"A\275\021>\004@*\256\023\004Df\202\002p\350\204\004"
 4383      04402AAE 
 4383      13044466 
 4383      820270E8 
 4383      8404
 4384 6abd 206408A3 		.ascii	" d\010\243/\354\004\370\010F\002\230\325\205;l\200\006"
 4384      2FEC04F8 
 4384      08460298 
 4384      D5853B6C 
 4384      8006
 4385 6acf 10E47C03 		.ascii	"\020\344|\003\012F\022\001!\004\026\373\214\002\312"
 4385      0A461201 
 4385      210416FB 
 4385      8C02CA
 4386 6ade 4000080C 		.ascii	"@\000\010\014\344\200\0022b\000\012D\354|\030\024o\204"
 4386      E4800232 
 4386      62000A44 
 4386      EC7C1814 
 4386      6F84
 4387 6af0 2233EC00 		.ascii	"\"3\354\000J\302\243/\243Ox\224\0062*/'/\354\004\201"
 4387      4AC2A32F 
 4387      A34F7894 
 4387      06322A2F 
 4387      272FEC04 
 4388 6b05 11880342 		.ascii	"\021\210\003B\"\007U\004\013\362\204\276$\2011\357\314"
 4388      22075504 
 4388      0BF284BE 
 4388      248131EF 
 4388      CC
 4389 6b16 49686408 		.ascii	"Ihd\010\006p\007\012\201!\001\345\344|\300\000\004\026"
 4389      0670070A 
 4389      812101E5 
 4389      E47CC000 
 4389      0416
 4390 6b28 64080670 		.ascii	"d\010\006p\345\022@*e\222B*\344|\007\012\004\006\203"
 4390      E512402A 
 4390      6592422A 
 4390      E47C070A 
 4390      040683
 4391 6b3b 21087080 		.ascii	"!\010p\200\000\006\312lx\012\014\344\200H2b\000\006"
 4391      0006CA6C 
 4391      780A0CE4 
 4391      80483262 
 4391      0006
 4392 6b4d 42FB9018 		.ascii	"B\373\220\030T\354|\0144o\214&C\354\000Xb\247/\247_"
 4392      54EC7C0C 
 4392      346F8C26 
 4392      43EC0058 
 4392      62A72FA7 
 4393 6b62 78B00842 		.ascii	"x\260\010B8/)/\354\004B\022\212\003Lx\362\210\004po"
 4393      382F292F 
 4393      EC044212 
ARM GAS  C:\Temp\ccVQrAGa.s 			page 185


 4393      8A034C78 
 4393      F2880470 
 4394 6b77 CC008AE4 		.ascii	"\314\000\212\344\014A\366\347\374\241\033\000\014\300"
 4394      0C41F6E7 
 4394      FCA11B00 
 4394      0CC0
 4395 6b85 0C41F616 		.ascii	"\014A\366\026\260\244\006\202\221l\004\204\201\010\241"
 4395      B0A40682 
 4395      916C0484 
 4395      8108A1
 4396 6b94 02448195 		.ascii	"\002D\201\225\206qh\204\357\017\202\003\000\002\177"
 4396      86716884 
 4396      EF0F8203 
 4396      00027F
 4397 6ba3 45A1BBEF 		.ascii	"E\241\273\357\374\337\374-\330\260\361<\004\366|\014"
 4397      FCDFFC2D 
 4397      D8B0F13C 
 4397      04F67C0C 
 4398 6bb3 0CC1C3DD 		.ascii	"\014\301\303\335\223\370\004\004\014\200\313\006\035"
 4398      93F80404 
 4398      0C80CB06 
 4398      1D
 4399 6bc0 7A0C4C12 		.ascii	"z\014L\022\373\004B2\034\000X \361\204Fb\034\000D\000"
 4399      FB044232 
 4399      1C005820 
 4399      F1844662 
 4399      1C004400 
 4400 6bd4 670FFF01 		.ascii	"g\017\377\001\341|\014\304i\214\016\304\370\230@\002"
 4400      E17C0CC4 
 4400      698C0EC4 
 4400      F8984002 
 4401 6be4 8403AE0F 		.ascii	"\204\003\256\017y\010L\002\3710N\002\241m\216o\004\004"
 4401      79084C02 
 4401      F9304E02 
 4401      A16D8E6F 
 4401      0404
 4402 6bf6 84F5BF61 		.ascii	"\204\365\277ap\200Fbc/B)\361\214\004$\247\317\006\304"
 4402      70804662 
 4402      632F4229 
 4402      F18C0424 
 4402      A7CF06C4 
 4403 6c0a 76800420 		.ascii	"v\200\004 \374|B\"\354\004\"c\361\204m?\243\017\003"
 4403      FC7C4222 
 4403      EC042263 
 4403      F1846D3F 
 4403      A30F03
 4404 6c1d 35841BA3 		.ascii	"5\204\033\243\035\206\003A\374\004$\037\374A\376\002"
 4404      1D860341 
 4404      FC04241F 
 4404      FC41FE02 
 4405 6c2d 75DFFFD0 		.ascii	"u\337\377\320\210@\002`\001\006\006\303\007`\000\002"
 4405      88400260 
 4405      010606C3 
 4405      07600002 
 4406 6c3d 10062FA4 		.ascii	"\020\006/\244\017\354\004\224\036\220\016\360\004\014"
 4406      0FEC0494 
 4406      1E900EF0 
ARM GAS  C:\Temp\ccVQrAGa.s 			page 186


 4406      040C
 4407 6c4b 0CC1C3DD 		.ascii	"\014\301\303\335\223\372|\004\014\354p\036\360\210\233"
 4407      93FA7C04 
 4407      0CEC701E 
 4407      F0889B
 4408 6c5a 1D34826B 		.ascii	"\0354\202k\000\313P\"\006-X\220\372\014R\000\034\000"
 4408      00CB5022 
 4408      062D5890 
 4408      FA0C5200 
 4408      1C00
 4409 6c6c 21049C00 		.ascii	"!\004\234\000\373\010F2q\214T\202\234\000LPJ\020~\316"
 4409      FB084632 
 4409      718C5482 
 4409      9C004C50 
 4409      4A107ECE 
 4410 6c80 0D0E9C00 		.ascii	"\015\016\234\000\037\004\214\033\011^\224+\013\016\206"
 4410      1F048C1B 
 4410      095E942B 
 4410      0B0E86
 4411 6c8f 8B437898 		.ascii	"\213Cx\230\013\000{\357\314\177\001\202\273|\256\377"
 4411      0B007BEF 
 4411      CC7F0182 
 4411      BB7CAEFF 
 4412 6c9f 1142F894 		.ascii	"\021B\370\224+\011\244\357\314\341|\004dx\210@\002\370"
 4412      2B09A4EF 
 4412      CCE17C04 
 4412      64788840 
 4412      02F8
 4413 6cb1 884212B6 		.ascii	"\210B\022\266\037.\017V\002>nN\022\360\244@r\362\250"
 4413      1F2E0F56 
 4413      023E6E4E 
 4413      12F0A440 
 4413      72F2A8
 4414 6cc4 42727928 		.ascii	"Bry(\202\017\371\030\2305\241\015\341|\002t\360\204"
 4414      820FF918 
 4414      9835A10D 
 4414      E17C0274 
 4414      F084
 4415 6cd6 40B27284 		.ascii	"@\262r\204DrD\037\302\017@\370\220+!\033\357\314\000"
 4415      4472441F 
 4415      C20F40F8 
 4415      902B211B 
 4415      EFCC00
 4416 6ce9 14BFC181 		.ascii	"\024\277\301\201\021V\200\234\004@\000\226\200\000\004"
 4416      1156809C 
 4416      04400096 
 4416      800004
 4417 6cf8 84800000 		.ascii	"\204\200\000\000\354\004\014\000Db|\204\000 \361\240"
 4417      EC040C00 
 4417      44627C84 
 4417      0020F1A0 
 4418 6d08 050A6C80 		.ascii	"\005\012l\200H\"\344|B\260{\200\000B\234\000Vpl|\006"
 4418      4822E47C 
 4418      42B07B80 
 4418      00429C00 
 4418      56706C7C 
 4419 6d1d 149C000A 		.ascii	"\024\234\000\012\004o\200FR\354\000\241\277x\214N\262"
ARM GAS  C:\Temp\ccVQrAGa.s 			page 187


 4419      046F8046 
 4419      52EC00A1 
 4419      BF788C4E 
 4419      B2
 4420 6d2e 7EB447F6 		.ascii	"~\264G\366\371\214\260\303`\000q\240J2\013\012\240C"
 4420      F98CB0C3 
 4420      600071A0 
 4420      4A320B0A 
 4420      A043
 4421 6d40 5852647C 		.ascii	"XRd|\036\265\373\260\226[\000\004l\004\020B\354|\010"
 4421      1EB5FBB0 
 4421      965B0004 
 4421      6C041042 
 4421      EC7C08
 4422 6d53 C240000A 		.ascii	"\302@\000\012\006\354\000\024Do\220\022T"
 4422      06EC0014 
 4422      446F9012 
 4422      54
 4423 6d60 1014B17F 		.ascii	"\020\024\261\177@\242h\200\002\264\370\244\250\303h"
 4423      40A26880 
 4423      02B4F8A4 
 4423      A8C368
 4424 6d6f 9000C220 		.ascii	"\220\000\302 \037!\037\354\004\350\220\000T||\002\024"
 4424      1F211FEC 
 4424      04E89000 
 4424      547C7C02 
 4424      14
 4425 6d80 F1884432 		.ascii	"\361\210D2\357\310{\350\003\325\220\003\362\234B\022"
 4425      EFC87BE8 
 4425      03D59003 
 4425      F29C4212 
 4426 6d90 FF01238D 		.ascii	"\377\001#\215\002\006\202\365`\000`\001\340\374\000"
 4426      020682F5 
 4426      60006001 
 4426      E0FC00
 4427 6d9f 74C37743 		.ascii	"t\303wC\267\266\017\002\257y\250Br\354\004\014\200\177"
 4427      B7B60F02 
 4427      AF79A842 
 4427      72EC040C 
 4427      807F
 4428 6db1 A781A57F 		.ascii	"\247\201\245\177\375C\376\001!\337\377B\"\224\003\220"
 4428      FD43FE01 
 4428      21DFFF42 
 4428      22940390 
 4429 6dc1 6B728488 		.ascii	"kr\204\210\016\213$\015\004\212\036\200n\270\361\362"
 4429      0E8B240D 
 4429      048A1E80 
 4429      6EB8F1F2 
 4430 6dd1 7C0C0CC1 		.ascii	"|\014\014\301\303\335\223\372|\004L\210{\012kv\200\024"
 4430      C3DD93FA 
 4430      7C044C88 
 4430      7B0A6B76 
 4430      8014
 4431 6de3 24E00048 		.ascii	"$\340\000H\306\264C\031Q\011\0124SJB\344|\201\301{\224"
 4431      C6B44319 
 4431      51090A34 
 4431      534A42E4 
ARM GAS  C:\Temp\ccVQrAGa.s 			page 188


 4431      7C81C17B 
 4432 6df8 6C7C0852 		.ascii	"l|\010R\234\000X\000\000\000\000\006\344\260\022\020"
 4432      9C005800 
 4432      00000006 
 4432      E4B01210 
 4433 6e08 6F9002C4 		.ascii	"o\220\002\304\354\000\026Dx\204B\262(S\251\017\002R"
 4433      EC001644 
 4433      788442B2 
 4433      2853A90F 
 4433      0252
 4434 6e1a A20F86A3 		.ascii	"\242\017\206\243l\004h\204\002\004\350\220\000\304o"
 4434      6C046884 
 4434      0204E890 
 4434      00C46F
 4435 6e29 C85B0881 		.ascii	"\310[\010\201\201\2011\377!4\223\204\235\036\036\202"
 4435      818131FF 
 4435      21349384 
 4435      9D1E1E82 
 4436 6e39 859C0E12 		.ascii	"\205\234\016\022\212\030\236\212U\340\374o\310t(\354"
 4436      8A189E8A 
 4436      55E0FC6F 
 4436      C87428EC 
 4437 6e49 F8049051 		.ascii	"\370\004\220Q\346\005%2+\340\000\005\012\200;F\020\344"
 4437      E6052532 
 4437      2BE00005 
 4437      0A803B46 
 4437      10E4
 4438 6e5b 7CC1111C 		.ascii	"|\301\021\034\000B\"\262\023\004\022\373\204\0104\354"
 4438      004222B2 
 4438      130412FB 
 4438      840834EC 
 4439 6e6b 7C813168 		.ascii	"|\2011h\210\034\000F\000\354\000\012$o\210\0004@R\244"
 4439      881C0046 
 4439      00EC000A 
 4439      246F8800 
 4439      344052A4 
 4440 6e7f 13204FF8 		.ascii	"\023 O\370\200\354\004\000\022h\200\002D\350\210\000"
 4440      80EC0400 
 4440      12688002 
 4440      44E88800 
 4441 6e8f 349E1E9C 		.ascii	"4\236\036\234\016\014L\230\216\335\223\362|\370|\004"
 4441      0E0C4C98 
 4441      8EDD93F2 
 4441      7CF87C04 
 4442 6e9f 0C887B52 		.ascii	"\014\210{R\304\360\024\016e\346\202R\032`\220X\012\004"
 4442      C4F0140E 
 4442      65E68252 
 4442      1A609058 
 4442      0A04
 4443 6eb1 1683C1A1 		.ascii	"\026\203\301\241k@\000D\302\015\264\022$\221\210B:\243"
 4443      6B400044 
 4443      C20DB412 
 4443      24918842 
 4443      3AA3
 4444 6ec3 2B8FA4E6 		.ascii	"+\217\244\346\206\010$\021\204\031\304\233\200\200\210"
 4444      86082411 
 4444      8419C49B 
ARM GAS  C:\Temp\ccVQrAGa.s 			page 189


 4444      808088
 4445 6ed2 08441090 		.ascii	"\010D\020\220Nr\340\210\010\024\012p\024~,^\344\020"
 4445      4E72E088 
 4445      08140A70 
 4445      147E2C5E 
 4445      E410
 4446 6ee4 17649071 		.ascii	"\027d\220q\360\220Jr\024\220(^\012\224\344\014\022\244"
 4446      F0904A72 
 4446      1490285E 
 4446      0A94E40C 
 4446      12A4
 4447 6ef6 60887D97 		.ascii	"`\210}\227\341|\360\224Vr\371q\022\243p\204R\262 \236"
 4447      E17CF094 
 4447      5672F971 
 4447      12A37084 
 4447      52B2209E 
 4448 6f0a 8EAF1034 		.ascii	"\216\257\0204\224\263\022\004`\210T\262\340\210P\262"
 4448      94B31204 
 4448      608854B2 
 4448      E08850B2 
 4449 6f1a 70A018AE 		.ascii	"p\240\030\256\360\2440>\2203\340\340D\012\002\006\023"
 4449      F0A4303E 
 4449      9033E0E0 
 4449      440A0206 
 4449      13
 4450 6f2b 349524C0 		.ascii	"4\225$\300\000\300\000F\025\206\001\202\225\341|\030"
 4450      00C00046 
 4450      15860182 
 4450      95E17C18 
 4451 6f3b 049803FD 		.ascii	"\004\230\003\375\307\200\203\216\017\212\203\020C\220"
 4451      C780838E 
 4451      0F8A8310 
 4451      4390
 4452 6f49 130C4E0C 		.ascii	"\023\014N\014\014\210\036\335\223\360|\372|\004L\210"
 4452      0C881EDD 
 4452      93F07CFA 
 4452      7C044C88 
 4453 6f59 AB027B61 		.ascii	"\253\002{a|\020t\020\003\206kRr\204\273P\237\362\240"
 4453      7C107410 
 4453      03866B52 
 4453      7284BB50 
 4453      9FF2A0
 4454 6f6c 100BC08F 		.ascii	"\020\013\300\217lx\222\033\241\033\357\310\326\200\000"
 4454      6C78921B 
 4454      A11BEFC8 
 4454      D68000
 4455 6f7b 149C0440 		.ascii	"\024\234\004@\000\226\200\000\004\204\200\000\000`\200"
 4455      00968000 
 4455      04848000 
 4455      006080
 4456 6f8a 010AEC84 		.ascii	"\001\012\354\204\002\000\202U\250\036A\376\177w\337"
 4456      02008255 
 4456      A81E41FE 
 4456      7F77DF
 4457 6f99 FF7FFD81 		.ascii	"\377\177\375\201\001\000s\250\016\230~V\033\205\025"
 4457      010073A8 
 4457      0E987E56 
ARM GAS  C:\Temp\ccVQrAGa.s 			page 190


 4457      1B8515
 4458 6fa8 8203902B 		.ascii	"\202\003\220+l\200\002\000\344|\001\012{\204@\002\300"
 4458      6C800200 
 4458      E47C010A 
 4458      7B844002 
 4458      C0
 4459 6fb9 0004066C 		.ascii	"\000\004\006l|\002\002\234\000P\220o\204\004$\354\000"
 4459      7C02029C 
 4459      0050906F 
 4459      840424EC 
 4459      00
 4460 6fca 06144432 		.ascii	"\006\024D2\"\003#\217\370\210\354\004\000\002\241}$"
 4460      2203238F 
 4460      F888EC04 
 4460      0002A17D 
 4460      24
 4461 6fdb 8FE88000 		.ascii	"\217\350\200\000\204\321\200\000\004\014L\230\016\335"
 4461      84D18000 
 4461      040C4C98 
 4461      0EDD
 4462 6fe9 93F27CFA 		.ascii	"\223\362|\372|\004L\202{\012ka|\002d\341|\006t\201\241"
 4462      7C044C82 
 4462      7B0A6B61 
 4462      7C0264E1 
 4462      7C067481 
 4463 6ffe 02435862 		.ascii	"\002CXb\021\264\006\003\362\204\371\004P\302r\214Jr"
 4463      11B40603 
 4463      F284F904 
 4463      50C2728C 
 4463      4A72
 4464 7010 5842C60F 		.ascii	"XB\306\017\306_y\004\345\262B\012\3452FZ\345\262HZB"
 4464      C65F7904 
 4464      E5B2420A 
 4464      E532465A 
 4464      E5B2485A 
 4465 7025 8A023348 		.ascii	"\212\0023HB\345\002R\212r\250\006\023\345\202\345\""
 4465      42E50252 
 4465      8A72A806 
 4465      13E582E5 
 4465      22
 4466 7036 465A72A4 		.ascii	"FZr\244HB\345\242JZp\214PB\3452@\012\362\250HR\371\220"
 4466      4842E5A2 
 4466      4A5A708C 
 4466      5042E532 
 4466      400AF2A8 
 4467 704e 46828E85 		.ascii	"F\202\216\205\241;\006D\017.J\202\341|XB\360\214\007"
 4467      A13B0644 
 4467      0F2E4A82 
 4467      E17C5842 
 4467      F08C07
 4468 7061 CBF28C06 		.ascii	"\313\362\214\006\304\306\317\220\313V\200\231\014JR"
 4468      C4C6CF90 
 4468      CB568099 
 4468      0C4A52
 4469 7070 96800654 		.ascii	"\226\200\006T\204\200\0060\354\004\0120\344|\013\012"
 4469      84800630 
 4469      EC040A30 
ARM GAS  C:\Temp\ccVQrAGa.s 			page 191


 4469      E47C0B0A 
 4470 7080 1C005840 		.ascii	"\034\000X@\354\204\0100{\220JR\300\000\020\006\354|"
 4470      EC840830 
 4470      7B904A52 
 4470      C0001006 
 4470      EC7C
 4471 7092 08526F90 		.ascii	"\010Ro\220\022\204\354\000\024DR\242)\317(S\370\244"
 4471      1284EC00 
 4471      144452A2 
 4471      29CF2853 
 4471      F8A4
 4472 70a4 1216B2CF 		.ascii	"\022\026\262\317\012R`\004&\223\354\004\350\224\024"
 4472      0A526004 
 4472      2693EC04 
 4472      E89414
 4473 70b3 C4922B29 		.ascii	"\304\222+)\217\357\310bH\264\037\017$\201\2410\017\001"
 4473      8FEFC862 
 4473      48B41F0F 
 4473      2481A130 
 4473      0F01
 4474 70c5 E584B3A1 		.ascii	"\345\204\263\241\035\262\263V\262\002e\004\263\220\210"
 4474      1DB2B356 
 4474      B2026504 
 4474      B39088
 4475 70d4 E0FC0614 		.ascii	"\340\374\006\024\303\027C\007\026\260&\017!\275\354"
 4475      C3174307 
 4475      16B0260F 
 4475      21BDEC
 4476 70e3 04E00004 		.ascii	"\004\340\000\004\262\037\375C\376A\376_\377\004\212"
 4476      B21FFD43 
 4476      FE41FE5F 
 4476      FF048A
 4477 70f2 DFFCFF81 		.ascii	"\337\374\377\201`\374`8\200\365\004 o\310E\346\354\370"
 4477      60FC6038 
 4477      80F50420 
 4477      6FC845E6 
 4477      ECF8
 4478 7104 4E6FE000 		.ascii	"No\340\000\361\200H\242\220m\023T@@\025DF\242\234\000"
 4478      F18048A2 
 4478      906D1354 
 4478      40401544 
 4478      46A29C00 
 4479 7118 4230F384 		.ascii	"B0\363\204\226\036\234\000\220.\224\016\362|\014L\301"
 4479      961E9C00 
 4479      902E940E 
 4479      F27C0C4C 
 4479      C1
 4480 7129 C3DD93FA 		.ascii	"\303\335\223\372\004\004L\200{\002k\201\021X\004k\310"
 4480      04044C80 
 4480      7B026B81 
 4480      1158046B 
 4480      C8
 4481 713a 04F65818 		.ascii	"\004\366X\030\2011\004\004\357\310\302\027a\374||\000"
 4481      81310404 
 4481      EFC8C217 
 4481      61FC7C7C 
 4481      00
ARM GAS  C:\Temp\ccVQrAGa.s 			page 192


 4482 714b 048403A2 		.ascii	"\004\204\003\242/||\002\004\000\023\377\007p\001\000"
 4482      2F7C7C02 
 4482      040013FF 
 4482      07700100 
 4483 715b 0E411DCF 		.ascii	"\016A\035\317\377\341\300\000\024\000\000X\036\200?"
 4483      FFE1C000 
 4483      14000058 
 4483      1E803F
 4484 716a 0FFD45F6 		.ascii	"\017\375E\366\\\024@\"\303\374\000\232\321\200\300?"
 4484      5C144022 
 4484      C3FC009A 
 4484      D180C03F 
 4485 717a 634D2001 		.ascii	"cM \001\000\370\335\027@\000m\215\000\000@\032\300>"
 4485      00F8DD17 
 4485      40006D8D 
 4485      0000401A 
 4485      C03E
 4486 718c 87116682 		.ascii	"\207\021f\202f\206@\012\340\024C\006\000\232\217\245"
 4486      6686400A 
 4486      E0144306 
 4486      009A8FA5 
 4487 719c C03F61C9 		.ascii	"\300?a\311 \001\000\350\000\000\300\000\300<o-f\202"
 4487      200100E8 
 4487      0000C000 
 4487      C03C6F2D 
 4487      6682
 4488 71ae 401A400A 		.ascii	"@\032@\012\207\021\002\206f\206\215\225\3400a\275\000"
 4488      87110286 
 4488      66868D95 
 4488      E03061BD 
 4488      00
 4489 71bf 9A00E8C0 		.ascii	"\232\000\350\300>\300\000 \001mu\000\000@\032\3008\207"
 4489      3EC00020 
 4489      016D7500 
 4489      00401AC0 
 4489      3887
 4490 71d1 11668266 		.ascii	"\021f\202f\206@\012\340\200\003\206\000\232\213\205"
 4490      86400AE0 
 4490      80038600 
 4490      9A8B85
 4491 71e0 C03C6071 		.ascii	"\300<`q \001\000\350\000\000\300\000\3000m\365f\202"
 4491      200100E8 
 4491      0000C000 
 4491      C0306DF5 
 4491      6682
 4492 71f2 401A400A 		.ascii	"@\032@\012\207\021\003\206f\206\211u\341(a\311\000\232"
 4492      87110386 
 4492      66868975 
 4492      E12861C9 
 4492      009A
 4493 7204 00E8C037 		.ascii	"\000\350\3007\300\000 \001o)\000\000@\032\300$\207\021"
 4493      C0002001 
 4493      6F290000 
 4493      401AC024 
 4493      8711
 4494 7216 66826686 		.ascii	"f\202f\206@\012\342T\003\006\000\232\207e\300/aI \001"
 4494      400AE254 
ARM GAS  C:\Temp\ccVQrAGa.s 			page 193


 4494      0306009A 
 4494      8765C02F 
 4494      61492001 
 4495 722a 00E80000 		.ascii	"\000\350\000\000\300\000\300\026o\311f\202@\032@\012"
 4495      C000C016 
 4495      6FC96682 
 4495      401A400A 
 4496 723a 87110206 		.ascii	"\207\021\002\006f\206\205U\344\020c\371\000\232\000"
 4496      66868555 
 4496      E41063F9 
 4496      009A00
 4497 7249 E8C022C0 		.ascii	"\350\300\"\300\000 \001mY\000\000@\032\300\012\207\021"
 4497      0020016D 
 4497      59000040 
 4497      1AC00A87 
 4497      11
 4498 725a 66826686 		.ascii	"f\202f\206@\012\346(B\006\007!\203Eb\331\000\232B\032"
 4498      400AE628 
 4498      42060721 
 4498      834562D9 
 4498      009A421A 
 4499 726e C012400A 		.ascii	"\300\022@\012\346\212@\000&\207)YC\006\000\000\300\000"
 4499      E68A4000 
 4499      26872959 
 4499      43060000 
 4499      C000
 4500 7280 80022DB9 		.ascii	"\200\002-\271&\206@\012\250$\002\006\340\206@\012\321"
 4500      2686400A 
 4500      A8240206 
 4500      E086400A 
 4500      D1
 4501 7291 800004F2 		.ascii	"\200\000\004\362\004\014L\301\303\335\223\372\004\004"
 4501      040C4CC1 
 4501      C3DD93FA 
 4501      0404
 4502 729f 4CE03002 		.ascii	"L\3400\002)\340\220D\012\300\000\000\006\300\000B\005"
 4502      29E09044 
 4502      0AC00000 
 4502      06C00042 
 4502      05
 4503 72b0 842480F5 		.ascii	"\204$\200\365\004\026\241+@\"\200\000D*\221\200\344"
 4503      0416A12B 
 4503      40228000 
 4503      442A9180 
 4503      E4
 4504 72c1 500C1081 		.ascii	"P\014\020\201q#\013\304'\201\021\220\210Lbo\310l\010"
 4504      71230BC4 
 4504      27811190 
 4504      884C626F 
 4504      C86C08
 4505 72d4 987E8C0B 		.ascii	"\230~\214\013\362\004\014L\301\303\335\223\376|\004"
 4505      F2040C4C 
 4505      C1C3DD93 
 4505      FE7C04
 4506 72e3 0C6C611E 		.ascii	"\014la\036\360\023>\300\001\016\011\200{\201!`L`\274"
 4506      F0133EC0 
 4506      010E0980 
ARM GAS  C:\Temp\ccVQrAGa.s 			page 194


 4506      7B812160 
 4506      4C60BC
 4507 72f6 5E255E25 		.ascii	"^%^%\210k\201\241`\264\012\360\035\016\300\001dQ^%\334"
 4507      886B81A1 
 4507      60B40AF0 
 4507      1D0EC001 
 4507      64515E25 
 4508 730b 345E25E0 		.ascii	"4^%\340\254^%\340\234\241;`\214\0064?.^%\301T^%\341"
 4508      AC5E25E0 
 4508      9CA13B60 
 4508      8C06343F 
 4508      2E5E25C1 
 4509 7323 045E25E1 		.ascii	"\004^%\341\000^%\340\374^%\340\370^%\340\364^%\340\360"
 4509      005E25E0 
 4509      FC5E25E0 
 4509      F85E25E0 
 4509      F45E25E0 
 4510 7338 5E25E0EC 		.ascii	"^%\340\354^%\340\350^%\340\344^%\340\340^%\340\334^"
 4510      5E25E0E8 
 4510      5E25E0E4 
 4510      5E25E0E0 
 4510      5E25E0DC 
 4511 734d 25E0D85E 		.ascii	"%\340\330^%\340\324^%\340\320^%\340\314^%\340\310^%"
 4511      25E0D45E 
 4511      25E0D05E 
 4511      25E0CC5E 
 4511      25E0C85E 
 4512 7362 E0C45E25 		.ascii	"\340\304^%\340\300^%\340\270^%\340\260^%\340\250^%\340"
 4512      E0C05E25 
 4512      E0B85E25 
 4512      E0B05E25 
 4512      E0A85E25 
 4513 7377 A45E25E0 		.ascii	"\244^%\340\230^%\340\224^%\340\210\275.\340\204D:\273"
 4513      985E25E0 
 4513      945E25E0 
 4513      88BD2EE0 
 4513      84443ABB 
 4514 738b 2E873146 		.ascii	".\2071F\216\200\014\016%\340P\016\011\004$\227\036\243"
 4514      8E800C0E 
 4514      25E0500E 
 4514      09042497 
 4514      1EA3
 4515 739d 2D8138C4 		.ascii	"-\2018\304\000\004\006\201!\031.\223\024\230.` B1\004"
 4515      00040681 
 4515      21192E93 
 4515      14982E60 
 4515      20423104 
 4516 73b1 2E8131E7 		.ascii	".\2011\347\300\002\360\004\360\015\036\013.\347\320"
 4516      C002F004 
 4516      F00D1E0B 
 4516      2EE7D0
 4517 73c0 E7E002F0 		.ascii	"\347\340\002\360\004\360\011\036~.\347\360d\001\002"
 4517      04F0091E 
 4517      7E2EE7F0 
 4517      640102
 4518 73cf F07C1EC0 		.ascii	"\360|\036\300\001d\021\004\360>.\300\001d1\002\360<"
 4518      01641104 
ARM GAS  C:\Temp\ccVQrAGa.s 			page 195


 4518      F03E2EC0 
 4518      01643102 
 4518      F03C
 4519 73e1 1EC00191 		.ascii	"\036\300\001\221\016\203!\227D\235\024\357\374U\210"
 4519      0E832197 
 4519      449D14EF 
 4519      FC5588
 4520 73f0 E1141E05 		.ascii	"\341\024\036\005\253\013\200\004\340\010\000\032\355"
 4520      AB0B8004 
 4520      E008001A 
 4520      ED
 4521 73fd 80420AC0 		.ascii	"\200B\012\300\000<X\341\014\036\005\241\013\200\004"
 4521      003C58E1 
 4521      0C1E05A1 
 4521      0B8004
 4522 740c 800000B6 		.ascii	"\200\000\000\266\200\000L\005\200\000;\270g`\000\360"
 4522      80004C05 
 4522      80003BB8 
 4522      676000F0 
 4523 741c 64400AF0 		.ascii	"d@\012\360\015\016\300\001\347p\000\360\000\360\013"
 4523      0D0EC001 
 4523      E77000F0 
 4523      00F00B
 4524 742b 0E090EE7 		.ascii	"\016\011\016\347\200\347\220\000\360\000\360~\016|\016"
 4524      80E79000 
 4524      F000F07E 
 4524      0E7C0E
 4525 743a E7A0E7B0 		.ascii	"\347\240\347\260\000\360\000\360>\016\300\001d!\201"
 4525      00F000F0 
 4525      3E0EC001 
 4525      642181
 4526 7449 213C0E81 		.ascii	"!<\016\2011\021\004\227D\235\024\357\374RH\341\020\036"
 4526      31110497 
 4526      449D14EF 
 4526      FC5248E1 
 4526      101E
 4527 745b 05AB0B80 		.ascii	"\005\253\013\200\004\340\010\000\032\355\200B\012\301"
 4527      04E00800 
 4527      1AED8042 
 4527      0AC1
 4528 7469 141E05C0 		.ascii	"\024\036\005\300\000\000\005\300\0004(a\010\036\005"
 4528      000005C0 
 4528      00342861 
 4528      081E05
 4529 7478 E58008F0 		.ascii	"\345\200\010\360a\014\036\025\345p\012\360\200\004\201"
 4529      610C1E15 
 4529      E5700AF0 
 4529      800481
 4530 7487 31811104 		.ascii	"1\201\021\004$\357\374Jh\006\3603\024\261\004\3450|"
 4530      24EFFC4A 
 4530      6806F033 
 4530      14B104E5 
 4530      307C
 4531 7499 3EAF24E5 		.ascii	">\257$\345@\006\360\200K>>\202[<.\357\374Z(\201a\033"
 4531      4006F080 
 4531      4B3E3E82 
 4531      5B3C2EEF 
ARM GAS  C:\Temp\ccVQrAGa.s 			page 196


 4531      FC5A2881 
 4532 74af 7E2FB891 		.ascii	"~/\270\221T\016\011\340\000\201\021`@\340\234^\025\340"
 4532      540E09E0 
 4532      00811160 
 4532      40E09C5E 
 4532      15E0
 4533 74c1 885E1540 		.ascii	"\210^\025@\000=\036\036\005\363\370\255\013`\364\340"
 4533      003D1E1E 
 4533      05F3F8AD 
 4533      0B60F4E0 
 4534 74d1 985E15E0 		.ascii	"\230^\025\340\224^\025\340\214^\025\340\204^\025\273"
 4534      945E15E0 
 4534      8C5E15E0 
 4534      845E15BB 
 4535 74e1 1EBF1E88 		.ascii	"\036\277\036\210\365\225n`\360\0365\347\020\014\360"
 4535      F5956E60 
 4535      F01E35E7 
 4535      100CF0
 4536 74f0 18F00044 		.ascii	"\030\360\000D\253\024\346\300|n\2140\341|\012D\251\004"
 4536      AB14E6C0 
 4536      7C6E8C30 
 4536      E17C0A44 
 4536      A904
 4537 7502 BECEBC3E 		.ascii	"\276\316\274>\247$\357\374W(`\264\036\025\347\000\006"
 4537      A724EFFC 
 4537      572860B4 
 4537      1E15E700 
 4537      06
 4538 7513 F060B01E 		.ascii	"\360`\260\036\005\036%\214KQ\270\340\304\036%\357\374"
 4538      051E258C 
 4538      4B51B8E0 
 4538      C41E25EF 
 4538      FC
 4539 7524 1E35E0DC 		.ascii	"\0365\340\334\036\005\340\330\036\025\340\300"
 4539      1E05E0D8 
 4539      1E15E0C0 
 4540 7530 8195E0C4 		.ascii	"\201\225\340\304\340\360\036\025\340\334\036%\340\330"
 4540      E0F01E15 
 4540      E0DC1E25 
 4540      E0D8
 4541 753e 1E358410 		.ascii	"\0365\204\020\200\004\010\360\010$\0140\345\300\345"
 4541      800408F0 
 4541      08240C30 
 4541      E5C0E5
 4542 754d B00AF0EF 		.ascii	"\260\012\360\357\370sH\201\221\001\201\016\011\251\325"
 4542      F8734881 
 4542      9101810E 
 4542      09A9D5
 4543 755c 4000E040 		.ascii	"@\000\340@\255\013\363\370\0365\212u\014\360`\370\036"
 4543      AD0BF3F8 
 4543      1E358A75 
 4543      0CF060F8 
 4543      1E
 4544 756d 05E71018 		.ascii	"\005\347\020\030\360`\374\253\024\346\300\374$\0061"
 4544      F060FCAB 
 4544      14E6C0FC 
 4544      240631
ARM GAS  C:\Temp\ccVQrAGa.s 			page 197


 4545 757c FC200045 		.ascii	"\374 \000E\276\316\374n\012D)\004\247$\341|R\370\274"
 4545      BECEFC6E 
 4545      0A442904 
 4545      A724E17C 
 4545      52F8BC
 4546 758f 3E1E15EF 		.ascii	">\036\025\357\374\006\360`\264\036\005\347\000\214K"
 4546      FC06F060 
 4546      B41E05E7 
 4546      008C4B
 4547 759e 60B0E0C4 		.ascii	"`\260\340\304\036%\357\374M\210\340\344\036%\340\340"
 4547      1E25EFFC 
 4547      4D88E0E4 
 4547      1E25E0E0 
 4548 75ae 1E35E0C0 		.ascii	"\0365\340\300\036\005\340\304\036\025\036\005\201\325"
 4548      1E05E0C4 
 4548      1E151E05 
 4548      81D5
 4549 75bc 1E15E0FC 		.ascii	"\036\025\340\374\036%\340\370\0365\340\344\000\005\340"
 4549      1E25E0F8 
 4549      1E35E0E4 
 4549      0005E0
 4550 75cb E00211FC 		.ascii	"\340\002\021\374 \004%\374$\010\360| \0061\347P\012"
 4550      200425FC 
 4550      2408F07C 
 4550      200631E7 
 4550      500A
 4551 75dd F07C246E 		.ascii	"\360|$n\270\347@\036%\357\370\243-\340\324\334\004\200"
 4551      B8E7401E 
 4551      25EFF8A3 
 4551      2DE0D4DC 
 4551      0480
 4552 75ef 9582C5A1 		.ascii	"\225\202\305\241\013`\320\036\025\010\360\204\013\012"
 4552      0B60D01E 
 4552      1508F084 
 4552      0B0A
 4553 75fd F0675019 		.ascii	"\360gP\031$\347@m\230\2351\036%\357\370\0365\340\324"
 4553      24E7406D 
 4553      989D311E 
 4553      25EFF81E 
 4553      35E0D4
 4554 7610 08F060D0 		.ascii	"\010\360`\320\012\360\346\240\203\001f\220o\370}\350"
 4554      0AF0E6A0 
 4554      83016690 
 4554      6FF87DE8 
 4555 7620 0E098111 		.ascii	"\016\011\201\021@\000\340@\255\013\363\370\0365\212"
 4555      4000E040 
 4555      AD0BF3F8 
 4555      1E358A
 4556 762f F50CF061 		.ascii	"\365\014\360a\000\036\005\347\020\030\360a\004\263\024"
 4556      001E05E7 
 4556      1018F061 
 4556      04B314
 4557 763e E6C0FC24 		.ascii	"\346\300\374$\0061\374 \000E\276\316\374n\012D1\004"
 4557      0631FC20 
 4557      0045BECE 
 4557      FC6E0A44 
 4557      3104
ARM GAS  C:\Temp\ccVQrAGa.s 			page 198


 4558 7650 AF24E17C 		.ascii	"\257$\341|L\270\274>\036\025\357\374\006\360`\264\036"
 4558      4CB8BC3E 
 4558      1E15EFFC 
 4558      06F060B4 
 4558      1E
 4559 7661 05E7008C 		.ascii	"\005\347\000\214K`\260\340\304\036%\357\374GH\340\354"
 4559      4B60B0E0 
 4559      C41E25EF 
 4559      FC4748E0 
 4559      EC
 4560 7672 1E15E0E8 		.ascii	"\036\025\340\350\036%\340\300\036\005\374 \002E\340"
 4560      1E25E0C0 
 4560      1E05FC20 
 4560      0245E0
 4561 7681 C41E15FC 		.ascii	"\304\036\025\374$\0041\036\005\203\025\0365\341\004"
 4561      2404311E 
 4561      0583151E 
 4561      35E104
 4562 7690 1E15E0E8 		.ascii	"\036\025\340\350\036%\340\354\000\005\341\000\002E\374"
 4562      1E25E0EC 
 4562      0005E100 
 4562      0245FC
 4563 769f 200411FC 		.ascii	" \004\021\374 \0061\374$(+\374$\3470\010\360o\370hH"
 4563      200631FC 
 4563      24282BFC 
 4563      24E73008 
 4563      F06FF868 
 4564 76b4 E7200AF0 		.ascii	"\347 \012\360\245\216\243\236\241\013\334\004\027\024"
 4564      A58EA39E 
 4564      A10BDC04 
 4564      1714
 4565 76c2 84255338 		.ascii	"\204%S8\216\013\036\005\357\374\200+`\314`\310\036\025"
 4565      8E0B1E05 
 4565      EFFC802B 
 4565      60CC60C8 
 4565      1E15
 4566 76d4 E73008F0 		.ascii	"\3470\010\360g \012\360f\330\2351\036e\357\370\022\360"
 4566      67200AF0 
 4566      66D89D31 
 4566      1E65EFF8 
 4566      12F0
 4567 76e6 60CC1E35 		.ascii	"`\314\0365\347@\016\360`\310\374\236\346\340\012d>~"
 4567      E7400EF0 
 4567      60C8FC9E 
 4567      E6E00A64 
 4567      3E7E
 4568 76f8 1E15E17C 		.ascii	"\036\025\341|\214K`\254\340\250\036\005\340\244\036"
 4568      8C4B60AC 
 4568      E0A81E05 
 4568      E0A41E
 4569 7707 25BC3E9F 		.ascii	"%\274>\237>F\370\241^\036\265\357\374\036\205\340\274"
 4569      3E46F8A1 
 4569      5E1EB5EF 
 4569      FC1E85E0 
 4569      BC
 4570 7718 1EA5E0B8 		.ascii	"\036\245\340\270\226\033\340\320m8\220\013\224+o\304"
 4570      961BE0D0 
ARM GAS  C:\Temp\ccVQrAGa.s 			page 199


 4570      6D38900B 
 4570      942B6FC4 
 4571 7728 E00002CA 		.ascii	"\340\000\002\312\340\000\002\032g\005\000\352B\012\311"
 4571      E000021A 
 4571      670500EA 
 4571      420AC9
 4572 7737 27421AE5 		.ascii	"'B\032\345\200B\012\341\210\202\245\355\200r}\020\006"
 4572      80420AE1 
 4572      8882A5ED 
 4572      80727D10 
 4572      06
 4573 7748 81014002 		.ascii	"\201\001@\002`\270^\205^\005\201\241\201\261`\274\340"
 4573      60B85E85 
 4573      5E0581A1 
 4573      81B160BC 
 4573      E0
 4574 7759 D05E0560 		.ascii	"\320^\005`\234\036\025\346P\006\360\006\360|>>>\346"
 4574      9C1E15E6 
 4574      5006F006 
 4574      F07C3E3E 
 4574      3EE6
 4575 776b 601E0590 		.ascii	"`\036\005\220K\226[`\230\340\224\036%f\270\274\256\037"
 4575      4B965B60 
 4575      98E0941E 
 4575      2566B8BC 
 4575      AE1F
 4576 777d 34EFF8FC 		.ascii	"4\357\370\374\236\214K\036\025\276~\036\005\340\274"
 4576      9E8C4B1E 
 4576      15BE7E1E 
 4576      05E0BC
 4577 778c 1E25E0B8 		.ascii	"\036%\340\270\274>\340\320B\270\241T\0365\357\374\030"
 4577      BC3EE0D0 
 4577      42B8A154 
 4577      1E35EFFC 
 4577      18
 4578 779d F060D07C 		.ascii	"\360`\320|\316\346\020\346 \030\360\036\025\276\316"
 4578      CEE610E6 
 4578      2018F01E 
 4578      15BECE
 4579 77ac 1E05E08C 		.ascii	"\036\005\340\214\036%\340\210\036U\340\204\036E\340"
 4579      1E25E088 
 4579      1E55E084 
 4579      1E45E0
 4580 77bb BCBC3EE0 		.ascii	"\274\274>\340\270\357\370d\210`\244\0365\345\320\030"
 4580      B8EFF864 
 4580      8860A41E 
 4580      35E5D018 
 4581 77cb F018F07C 		.ascii	"\360\030\360|\316\276\316\345\340\275\004\277\024\036"
 4581      CEBECEE5 
 4581      E0BD04BF 
 4581      141E
 4582 77d9 55BB241E 		.ascii	"U\273$\036E\340\254\274>\340\250\357\370ch\245\204\243"
 4582      45E0ACBC 
 4582      3EE0A8EF 
 4582      F86368A5 
 4582      84A3
 4583 77eb 9482919B 		.ascii	"\224\202\221\233t\235\004\210\201+(\223\0139D\337\374"
ARM GAS  C:\Temp\ccVQrAGa.s 			page 200


 4583      749D0488 
 4583      812B2893 
 4583      0B3944DF 
 4583      FC
 4584 77fc E5D00CF0 		.ascii	"\345\320\014\360\016\36074\374n\345\340\012D>~\277\024"
 4584      0EF03734 
 4584      FC6EE5E0 
 4584      0A443E7E 
 4584      BF14
 4585 780e E17CBB24 		.ascii	"\341|\273$\275\004~\270\274>|n\357\370>~\2011?\024\203"
 4585      BD047EB8 
 4585      BC3E7C6E 
 4585      EFF83E7E 
 4585      81313F14 
 4586 7823 41BD0481 		.ascii	"A\275\004\201Q\274>\273$\357\370a(\201Q9\004\273\224"
 4586      51BC3EBB 
 4586      24EFF861 
 4586      28815139 
 4586      04BB94
 4587 7836 B7143D44 		.ascii	"\267\024=D\2774\351\204\004\004\366\200\014$7n\276a"
 4587      BF34E984 
 4587      0404F680 
 4587      0C24376E 
 4587      BE61
 4588 7848 F1844262 		.ascii	"\361\204Bbl\200\004\020\344|\003\012{\210P\022\234\000"
 4588      6C800410 
 4588      E47C030A 
 4588      7B885012 
 4588      9C00
 4589 785a 4A006C7C 		.ascii	"J\000l|\016\202\201|\000\004o\234\002T\354\000\004t"
 4589      0E82817C 
 4589      00046F9C 
 4589      0254EC00 
 4589      0474
 4590 786c 54220C9D 		.ascii	"T\"\014\235\026\004\370\204\256\203h\234\202\245\245"
 4590      1604F884 
 4590      AE83689C 
 4590      82A5A5
 4591 787b 5E719844 		.ascii	"^q\230D\222b8\210\013\206\033o\304\202;\000K\214\233"
 4591      92623888 
 4591      0B861B6F 
 4591      C4823B00 
 4591      4B8C9B
 4592 788e 3D4EBB6E 		.ascii	"=N\273n\277>\264\2777\235\024\202\002\365\004\220\354"
 4592      BF3EB4BF 
 4592      379D1482 
 4592      02F50490 
 4592      EC
 4593 789f 04880B6C 		.ascii	"\004\210\013l(o\304a(\000K\206\033=N\225\221\277>\202"
 4593      286FC461 
 4593      28004B86 
 4593      1B3D4E95 
 4593      91BF3E82 
 4594 78b3 3B2524BB 		.ascii	";%$\273\236\371\214@B\002\264!\013\0025\350\250\350"
 4594      9EF98C40 
 4594      4202B421 
 4594      0B0235E8 
ARM GAS  C:\Temp\ccVQrAGa.s 			page 201


 4594      A8E8
 4595 78c5 9C002483 		.ascii	"\234\000$\203A\001!\203!?.\2011=.o\304E\250?\036\210"
 4595      41012183 
 4595      213F2E81 
 4595      313D2E6F 
 4595      C445A83F 
 4596 78db 2B1E15B2 		.ascii	"+\036\025\262c\016\360`\234\0365\346`\036%\340\230;"
 4596      630EF060 
 4596      9C1E35E6 
 4596      601E25E0 
 4596      983B
 4597 78ed 6EE094E6 		.ascii	"n\340\224\346P\014\360\206\013=\016\206K|n\202[>~wX"
 4597      500CF086 
 4597      0B3D0E86 
 4597      4B7C6E82 
 4597      5B3E7E77 
 4598 7902 BC2EBB34 		.ascii	"\274.\2734\357\370\276~\374n\340\234\036\025\340\230"
 4598      EFF8BE7E 
 4598      FC6EE09C 
 4598      1E15E098 
 4599 7912 1E05E094 		.ascii	"\036\005\340\224\036%\275D\277Tvx\274>\0365\357\370"
 4599      1E25BD44 
 4599      BF547678 
 4599      BC3E1E35 
 4599      EFF8
 4600 7924 81716098 		.ascii	"\201q`\230\340\234\036U\340\214\036\025`\224\0365\361"
 4600      E09C1E55 
 4600      E08C1E15 
 4600      60941E35 
 4600      F1
 4601 7935 8C487273 		.ascii	"\214Hrs\224Jr\346\020\030\360\030\360|\316\276\316\346"
 4601      944A72E6 
 4601      1018F018 
 4601      F07CCEBE 
 4601      CEE6
 4602 7947 20E0881E 		.ascii	" \340\210\036\005\340\204\036%W\370\274>\036e\357\370"
 4602      05E0841E 
 4602      2557F8BC 
 4602      3E1E65EF 
 4602      F8
 4603 7958 FF01608C 		.ascii	"\377\001`\214\340\204\036\205\036\225\200m\014\006@"
 4603      E0841E85 
 4603      1E95806D 
 4603      0C0640
 4604 7967 885E7580 		.ascii	"\210^u\200\000\214\033\000\214\000\210^u\022\006\220"
 4604      008C1B00 
 4604      8C00885E 
 4604      75120690 
 4605 7977 2B5A7880 		.ascii	"+Zx\200\000\222\013o\304\340\000\002\312\340\000\002"
 4605      00920B6F 
 4605      C4E00002 
 4605      CAE00002 
 4606 7987 1A640100 		.ascii	"\032d\001\000\352B\012\301\000B\032\345\200B\012\341"
 4606      EA420AC1 
 4606      00421AE5 
 4606      80420AE1 
 4607 7997 888225ED 		.ascii	"\210\202%\355\200`\214^u^\005\377\001\201\241`\210\377"
ARM GAS  C:\Temp\ccVQrAGa.s 			page 202


 4607      80608C5E 
 4607      755E05FF 
 4607      0181A160 
 4607      88FF
 4608 79a9 010305E0 		.ascii	"\001\003\005\340D\020\212\004\200\202\365\222\013l@"
 4608      44108A04 
 4608      8082F592 
 4608      0B6C40
 4609 79b8 6FC45888 		.ascii	"o\304X\210\201\241\214\033\340\214^\025\340\210^\005"
 4609      81A18C1B 
 4609      E08C5E15 
 4609      E0885E05 
 4610 79c8 91549B74 		.ascii	"\221T\233t!\001\205U0\003\341\021D\002\260\023\001\012"
 4610      21018555 
 4610      3003E111 
 4610      4402B013 
 4610      010A
 4611 79da 7B84121B 		.ascii	"{\204\022\033\344|\354|\000\"@\000\002\006\234\000R"
 4611      E47CEC7C 
 4611      00224000 
 4611      02069C00 
 4611      52
 4612 79eb 606F8006 		.ascii	"`o\200\006\024\354\000\010\004\241\237 #FB\021T&\237"
 4612      14EC0008 
 4612      04A19F20 
 4612      23464211 
 4612      54269F
 4613 79fe F88CEC04 		.ascii	"\370\214\354\004\004\"\000\024\033t%\237\350\200^\005"
 4613      04220014 
 4613      1B74259F 
 4613      E8805E05 
 4614 7a0e 81A15E95 		.ascii	"\201\241^\225\340\210\225d\340\214\036%\2234\036E\341"
 4614      E0889564 
 4614      E08C1E25 
 4614      93341E45 
 4614      E1
 4615 7a1f 04026460 		.ascii	"\004\002d`\370\0365\340\210\206\023a\000\202aF\016\036"
 4615      F81E35E0 
 4615      88861361 
 4615      00826146 
 4615      0E1E
 4616 7a31 159DC400 		.ascii	"\025\235\304\000\304\340\374\2303`\210\200\023\000#"
 4616      C4E0FC98 
 4616      33608880 
 4616      130023
 4617 7a40 61045E25 		.ascii	"a\004^%\036%\230C^5\340\364\0365\341\000^\025\340\360"
 4617      1E259843 
 4617      5E35E0F4 
 4617      1E35E100 
 4617      5E15E0F0 
 4618 7a54 882160FC 		.ascii	"\210!`\374\340\354\036\025`\364^%\036%\2021^E\340\344"
 4618      E0EC1E15 
 4618      60F45E25 
 4618      1E258231 
 4618      5E45E0E4 
 4619 7a68 801360F8 		.ascii	"\200\023`\370\340\350\036E`\334\036\005^5\200#\0365"
 4619      E0E81E45 
ARM GAS  C:\Temp\ccVQrAGa.s 			page 203


 4619      60DC1E05 
 4619      5E358023 
 4619      1E35
 4620 7a7a E0F09843 		.ascii	"\340\360\230C`\340`\354^\025\036\025\210\001^%\340\330"
 4620      60E060EC 
 4620      5E151E15 
 4620      88015E25 
 4620      E0D8
 4621 7a8c 983360E4 		.ascii	"\2303`\344`\350^E^5\241!\202\021`\340\340\204^%\340"
 4621      60E85E45 
 4621      5E35A121 
 4621      821160E0 
 4621      E0845E25 
 4622 7aa1 DC5E05E0 		.ascii	"\334^\005\340\330^\025\020h\213k\023\004\337\374\001"
 4622      D85E1510 
 4622      688B6B13 
 4622      04DFFC01 
 4623 7ab1 B5811141 		.ascii	"\265\201\021A$\230\001\354\004\012PEJ\2364\004\014\344"
 4623      249801EC 
 4623      040A5045 
 4623      4A9E3404 
 4623      0CE4
 4624 7ac3 0C8413E2 		.ascii	"\014\204\023\342\000\374\325\241[\340X\016\011\036\005"
 4624      00FCD5A1 
 4624      5BE0580E 
 4624      091E05
 4625 7ad2 9334811D 		.ascii	"\2234\201\035a\024\342\000\004\014\216\256\214.F\021"
 4625      6114E200 
 4625      040C8EAE 
 4625      8C2E4611 
 4626 7ae2 80048911 		.ascii	"\200\004\211\021`$\245\013\223$\300\000\002f\340 D\021"
 4626      6024A50B 
 4626      9324C000 
 4626      0266E020 
 4626      4411
 4627 7af4 A50B1734 		.ascii	"\245\013\0274\223\024\206E\243\033\204\024\316\024\200"
 4627      93148645 
 4627      A31B8414 
 4627      CE1480
 4628 7b03 E5E09442 		.ascii	"\345\340\224BJ\0000\016%\016\031\2040\255\033\340@@"
 4628      4A00300E 
 4628      250E1984 
 4628      30AD1BE0 
 4628      4040
 4629 7b15 0C0615C4 		.ascii	"\014\006\025\3040\0000\253\013\212\365\200\014\006\005"
 4629      300030AB 
 4629      0B8AF580 
 4629      0C0605
 4630 7b24 9C940004 		.ascii	"\234\224\000\004\200\014F\005\341\020\036\005\245\033"
 4630      800C4605 
 4630      E1101E05 
 4630      A51B
 4631 7b32 80140E19 		.ascii	"\200\024\016\031\202u\004\020\340@\241\033l\030\344"
 4631      82750410 
 4631      E040A11B 
 4631      6C18E4
 4632 7b41 0804DAED 		.ascii	"\010\004\332\355\200B\012\316\024\210\365\340D\016)"
ARM GAS  C:\Temp\ccVQrAGa.s 			page 204


 4632      80420ACE 
 4632      1488F5E0 
 4632      440E29
 4633 7b50 F0C04210 		.ascii	"\360\300B\020D\020)+\316.\374\004\200\004\200\365B\020"
 4633      4410292B 
 4633      CE2EFC04 
 4633      800480F5 
 4633      4210
 4634 7b62 A50B4615 		.ascii	"\245\013F\025\234\014\316\024\200\014\340\224B\012\000"
 4634      9C0CCE14 
 4634      800CE094 
 4634      420A00
 4635 7b71 30820589 		.ascii	"0\202\005\211!d0\221!\201%\200\036\244\037\340P\016"
 4635      21643091 
 4635      21812580 
 4635      1EA41FE0 
 4635      500E
 4636 7b83 09420193 		.ascii	"\011B\001\223\024\036\360\340(\300\001da\366|\014\014"
 4636      141EF0E0 
 4636      28C00164 
 4636      61F67C0C 
 4636      0C
 4637 7b94 A31BDD93 		.ascii	"\243\033\335\223\223\024\3725\243\033\204\024\375E\364"
 4637      9314FA35 
 4637      A31B8414 
 4637      FD45F4
 4638 7ba3 A5FA7C04 		.ascii	"\245\372|\004\014\355\360\036\360\202\233#>\340\230"
 4638      0CEDF01E 
 4638      F0829B23 
 4638      3EE098
 4639 7bb2 1E35A50E 		.ascii	"\0365\245\016\253N\006\031\247>\036\265\340\220\000"
 4639      AB4E0619 
 4639      A73E1EB5 
 4639      E09000
 4640 7bc1 89E0A880 		.ascii	"\211\340\250\200\023\340H`p\002a\254\036\201\021\340"
 4640      13E04860 
 4640      700261AC 
 4640      1E8111E0 
 4641 7bd1 105615E0 		.ascii	"\020V\025\340L\000\031\251\036\346$`P\000\251\340\200"
 4641      4C0019A9 
 4641      1EE62460 
 4641      5000A9E0 
 4641      80
 4642 7be2 440A975E 		.ascii	"D\012\227^\316x$\024\202\345\340\204D\032\002\014\241"
 4642      CE782414 
 4642      82E5E084 
 4642      441A020C 
 4642      A1
 4643 7bf3 1BA41EE2 		.ascii	"\033\244\036\342\000\240\000\000x\222\033\001\001\357"
 4643      00A00000 
 4643      78921B01 
 4643      01EF
 4644 7c01 F874E844 		.ascii	"\370t\350D\012\346$\000\026\340\210B\220@\000tX\334"
 4644      0AE62400 
 4644      16E08842 
 4644      90400074 
 4644      58DC
ARM GAS  C:\Temp\ccVQrAGa.s 			page 205


 4645 7c13 0000F0CF 		.ascii	"\000\000\360\317\370\012\360e`\015\016\345\320\345\220"
 4645      F80AF065 
 4645      600D0EE5 
 4645      D0E590
 4646 7c22 00F000F0 		.ascii	"\000\360\000\360\013\016\011\016\345p\345\240\000\360"
 4646      0B0E090E 
 4646      E570E5A0 
 4646      00F0
 4647 7c30 00F07E0E 		.ascii	"\000\360~\016|\016\345\200\345\260\000\360\000\360>"
 4647      7C0EE580 
 4647      E5B000F0 
 4647      00F03E
 4648 7c3f 0E3C0EE5 		.ascii	"\016<\016\345\300)\024\203!\014;\224\013Rx\222Kf\004"
 4648      C0291483 
 4648      210C3B94 
 4648      0B527892 
 4648      4B6604
 4649 7c52 EFF8E131 		.ascii	"\357\370\3411\201\021\340\214@\012\300t\036\005\300"
 4649      8111E08C 
 4649      400AC074 
 4649      1E05C0
 4650 7c61 00401512 		.ascii	"\000@\025\022\005\247D\010\031\300\014\206\017\340\224"
 4650      05A74408 
 4650      19C00C86 
 4650      0FE094
 4651 7c70 2554E60E 		.ascii	"%T\346\016\374\020D\020\037\350\253+\025\236\300\000"
 4651      FC104410 
 4651      1FE8AB2B 
 4651      159EC000 
 4652 7c80 1C08A16D 		.ascii	"\034\010\241m\273\004\300\000\245\013\200\004\200\000"
 4652      BB04C000 
 4652      A50B8004 
 4652      8000
 4653 7c8e 1F5860A0 		.ascii	"\037X`\240\036\005\024p\310w\000%\344@\224\004\340\020"
 4653      1E051470 
 4653      C8770025 
 4653      E4409404 
 4653      E010
 4654 7ca0 FF010023 		.ascii	"\377\001\000#\000$\200-R\012\301\254\202\025\301*\327"
 4654      0024802D 
 4654      520AC1AC 
 4654      8215C12A 
 4654      D7
 4655 7cb1 07A40B40 		.ascii	"\007\244\013@\012\240\013\022\000\341\252\012\011\354"
 4655      0AA00B12 
 4655      00E1AA0A 
 4655      09EC
 4656 7cbf 04400AE0 		.ascii	"\004@\012\340dD \340\224@\007\023\375\300\300\006\224"
 4656      644420E0 
 4656      94400713 
 4656      FDC0C006 
 4656      94
 4657 7cd0 40281E25 		.ascii	"@(\036%\331\210F2@\010D5\012\031\253\033\010%\200h\253"
 4657      D9884632 
 4657      40084435 
 4657      0A19AB1B 
 4657      08258068 
ARM GAS  C:\Temp\ccVQrAGa.s 			page 206


 4658 7ce5 34E01852 		.ascii	"4\340\030R\222#\024\014$\220\204\204\030\341 \247\033"
 4658      9223140C 
 4658      24908484 
 4658      18E120A7 
 4658      1B
 4659 7cf6 52180629 		.ascii	"R\030\006)\202\025\205\033\340,"
 4659      8215851B 
 4659      E02C
 4660 7d00 06298415 		.ascii	"\006)\204\025\201u\340(\340$\006)\2025\205\033\340 "
 4660      8175E028 
 4660      E0240629 
 4660      8235851B 
 4660      E020
 4661 7d12 06298211 		.ascii	"\006)\202\021\002!L*\237\036\2015\346\232\237\036\203"
 4661      02214C2A 
 4661      9F1E8135 
 4661      E69A9F1E 
 4661      83
 4662 7d23 118825A1 		.ascii	"\021\210%\241k\002d\037$\203-\340\204\010\025\206\205"
 4662      6B02641F 
 4662      24832DE0 
 4662      84081586 
 4662      85
 4663 7d34 400A6020 		.ascii	"@\012` \235n\340\210\346\242F\032\204\325\233>@:\237"
 4663      9D6EE088 
 4663      E6A2461A 
 4663      84D59B3E 
 4663      403A9F
 4664 7d47 24813166 		.ascii	"$\2011f\242`\012D.\341|\002\004wX\223.\004\024\357\300"
 4664      A2600A44 
 4664      2EE17C02 
 4664      04775893 
 4664      2E0414EF 
 4665 7d5c A12BE194 		.ascii	"\241+\341\224\014$\216%\207\345\366\200\254\016\211"
 4665      0C248E25 
 4665      87E5F680 
 4665      AC0E89
 4666 7d6b 011F04B1 		.ascii	"\001\037\004\261U\341\224\0024v\200\002\024\340\000"
 4666      55E19402 
 4666      34768002 
 4666      14E000
 4667 7d7a 44068EBB 		.ascii	"D\006\216\273\037tv\200\000\004\345\340\012\360\000"
 4667      1F747680 
 4667      0004E5E0 
 4667      0AF000
 4668 7d89 10202319 		.ascii	"\020 #\031.\354\0303D\200-\221\210B\002\010\204\000"
 4668      2EEC1833 
 4668      44802D91 
 4668      88420208 
 4668      8400
 4669 7d9b 34841402 		.ascii	"4\204\024\002\020Q\200B\"\300\000\004V\0004-4@\012\311"
 4669      10518042 
 4669      22C00004 
 4669      5600342D 
 4669      34400AC9 
 4670 7daf 04422266 		.ascii	"\004B\"f\236\275\036\321\204\2140\220$\340\232@\012"
 4670      9EBD1ED1 
ARM GAS  C:\Temp\ccVQrAGa.s 			page 207


 4670      848C3090 
 4670      24E09A40 
 4670      0A
 4671 7dc0 EFF46FC8 		.ascii	"\357\364o\310\255\024\275\004@~\204\006\223\016\340"
 4671      AD14BD04 
 4671      407E8406 
 4671      930EE0
 4672 7dcf 1E04048D 		.ascii	"\036\004\004\215\245\006\024a\224\246/\340\354\366\200"
 4672      A5061461 
 4672      94A62FE0 
 4672      ECF680
 4673 7dde 0C240460 		.ascii	"\014$\004`\300a\200Kl\024d|\005\012H\020\216\273\002"
 4673      C061804B 
 4673      6C14647C 
 4673      050A4810 
 4673      8EBB02
 4674 7df1 601C001D 		.ascii	"`\034\000\035t\354\224\373\204B\"\354|\006\022h\214"
 4674      74EC94FB 
 4674      844222EC 
 4674      7C061268 
 4674      8C
 4675 7e02 0A444800 		.ascii	"\012DH\000\201A\0304\034\000\000D\354\000Dzo\214@\302"
 4675      81411834 
 4675      1C000044 
 4675      EC00447A 
 4675      6F8C40C2 
 4676 7e16 E6AAA613 		.ascii	"\346\252\246\023x\200\000\022 _\002T\354\004\000Dh\200"
 4676      78800012 
 4676      205F0254 
 4676      EC040044 
 4676      6880
 4677 7e28 442AE88C 		.ascii	"D*\350\214\2011f\236\357\300g(\200+'\004\253.\300\010"
 4677      8131669E 
 4677      EFC06728 
 4677      802B2704 
 4677      AB2EC008 
 4678 7e3c 4E62A31E 		.ascii	"Nb\243\036\204\013q\200o\300u\350\035d\216+\000\024"
 4678      840B7180 
 4678      6FC075E8 
 4678      1D648E2B 
 4678      0014
 4679 7e4e A11B0004 		.ascii	"\241\033\000\004\326\200\000\000\226\200\256\003\204"
 4679      D6800000 
 4679      9680AE03 
 4679      84
 4680 7e5b 80E08001 		.ascii	"\200\340\200\001\012\300T\036\005B\026\202\225+\004"
 4680      0AC0541E 
 4680      05421682 
 4680      952B04
 4681 7e6a E000F180 		.ascii	"\340\000\361\200D\022\243\024\241.\357\300th\242s\241"
 4681      4412A314 
 4681      A12EEFC0 
 4681      7468A273 
 4681      A1
 4682 7e7b 140AF033 		.ascii	"\024\012\3603D\255\024\345\340\220$\275~\216\033\004"
 4682      44AD14E5 
 4682      E09024BD 
ARM GAS  C:\Temp\ccVQrAGa.s 			page 208


 4682      7E8E1B04 
 4683 7e8b 30EFF469 		.ascii	"0\357\364ihF\006\037$\275\004\340\000\004$\255\024\244"
 4683      6846061F 
 4683      24BD04E0 
 4683      000424AD 
 4683      14A4
 4684 7e9d 33F68099 		.ascii	"3\366\200\231>\204\006`\234\036\005%T\236\261\247D\201"
 4684      3E840660 
 4684      9C1E0525 
 4684      549EB1A7 
 4684      4481
 4685 7eaf C1406AAB 		.ascii	"\301@j\253\016\222kf\232\223\265\221\016\360\204D\222"
 4685      0E926B66 
 4685      9A93B591 
 4685      0EF08444 
 4685      92
 4686 7ec0 040CD52D 		.ascii	"\004\014\325-\012)\342\000\244\017`d\373\374\000\012"
 4686      0A29E200 
 4686      A40F6064 
 4686      FBFC000A 
 4687 7ed0 444A8085 		.ascii	"DJ\200\205\206e\340\220\341|\006d\006c\226?\225m\224"
 4687      8665E090 
 4687      E17C0664 
 4687      0663963F 
 4687      956D94
 4688 7ee3 3B400006 		.ascii	";@\000\006\006\340\214D\012@T\0365\004d\246cD\"\340"
 4688      06E08C44 
 4688      0A40541E 
 4688      350464A6 
 4688      634422E0 
 4689 7ef7 880420D0 		.ascii	"\210\004 \320\214\300\011\004\001\220\220D\"\204\240"
 4689      8CC00904 
 4689      01909044 
 4689      2284A0
 4690 7f06 04208473 		.ascii	"\004 \204s\210$\202\021\002a\364\265\203\213\373\374"
 4690      88248211 
 4690      0261F4B5 
 4690      838BFBFC 
 4691 7f16 000A0A09 		.ascii	"\000\012\012\011\200\305@J\340d\230\245\340\220\000"
 4691      80C5404A 
 4691      E06498A5 
 4691      E09000
 4692 7f25 741B1419 		.ascii	"t\033\024\0314\340\224\340\210\012\304\242\003\267D"
 4692      34E094E0 
 4692      880AC4A2 
 4692      03B744
 4693 7f34 F0800404 		.ascii	"\360\200\004\004\341\224\002$\366\200\002\024\354\030"
 4693      E1940224 
 4693      F6800214 
 4693      EC18
 4694 7f42 02104212 		.ascii	"\002\020B\022\202=\004$\221\214\002\020\010\204B2\204"
 4694      823D0424 
 4694      918C0210 
 4694      08844232 
 4694      84
 4695 7f53 14065651 		.ascii	"\024\006VQ\204\004$\300\000B2I\004\0374\321\204\235"
 4695      840424C0 
ARM GAS  C:\Temp\ccVQrAGa.s 			page 209


 4695      00423249 
 4695      041F34D1 
 4695      849D
 4696 7f65 04A10D44 		.ascii	"\004\241\015D*\275\036\2614\346\216\340\202@*|\024\010"
 4696      2ABD1EB1 
 4696      34E68EE0 
 4696      82402A7C 
 4696      1408
 4697 7f77 2506318A 		.ascii	"%\0061\212C!^\3740\321\200\000\004\012\360#\316ax\345"
 4697      43215EFC 
 4697      30D18000 
 4697      040AF023 
 4697      CE6178E5 
 4698 7f8b E0A3C4EF 		.ascii	"\340\243\304\357\364\275\024\261\004\200\026\230\003"
 4698      F4BD14B1 
 4698      04801698 
 4698      03
 4699 7f98 A744A554 		.ascii	"\247D\245T\340d\012\011\340\204@J\223\004\210\205\265"
 4699      E0640A09 
 4699      E084404A 
 4699      93048885 
 4699      B5
 4700 7fa9 44A124E6 		.ascii	"D\241$\346\236@\012\204{/4\366\200\002\004\244\035\021"
 4700      9E400A84 
 4700      7B2F34F6 
 4700      800204A4 
 4700      1D11
 4701 7fbb 54800002 		.ascii	"T\200\000\002\006\314\010\002\020\243\017=\036|\034"
 4701      06CC0802 
 4701      10A30F3D 
 4701      1E7C1C
 4702 7fca 0825400A 		.ascii	"\010%@\012\216C\012\360`\026\0061\345\340^\370\3740"
 4702      8E430AF0 
 4702      60160631 
 4702      E5E05EF8 
 4702      FC30
 4703 7fdc A3C4EFF4 		.ascii	"\243\304\357\364\275\024\257\004\200\026\230\003\247"
 4703      BD14AF04 
 4703      80169803 
 4703      A7
 4704 7fe9 44A55490 		.ascii	"D\245T\220\223\002\301\201\313\251\004@\000\016\006"
 4704      9302C181 
 4704      CBA90440 
 4704      000E06
 4705 7ff8 C0000206 		.ascii	"\300\000\002\006\000\006bU\227\024\300\000\012I\271"
 4705      00066255 
 4705      9714C000 
 4705      0A49B9
 4706 8007 348408E0 		.ascii	"4\204\010\340T\214$\206\030\346\202@\032\344\004\002"
 4706      548C2486 
 4706      18E68240 
 4706      1AE40402 
 4707 8017 20E69248 		.ascii	" \346\222H\012\211\033\214\036;\004\200\325\200\036"
 4707      0A891B8C 
 4707      1E3B0480 
 4707      D5801E
 4708 8026 85118365 		.ascii	"\205\021\203e\2254\241-\0254\241\013\204u\012)\204%"
ARM GAS  C:\Temp\ccVQrAGa.s 			page 210


 4708      9534A12D 
 4708      1534A10B 
 4708      84750A29 
 4708      8425
 4709 8038 0424E040 		.ascii	"\004$\340@\004\012\374\000\202U\360\030\341\202@\032"
 4709      040AFC00 
 4709      8255F018 
 4709      E182401A 
 4710 8048 1E05A10B 		.ascii	"\036\005\241\013\002V\000t@\025\200\000\012\011\200"
 4710      02560074 
 4710      40158000 
 4710      0A0980
 4711 8057 00400AE0 		.ascii	"\000@\012\340d\202\205\340\200\200\024\273\004\006\025"
 4711      648285E0 
 4711      808014BB 
 4711      040615
 4712 8066 A51B4210 		.ascii	"\245\033B\020\200\014F\025\234\020\203\021\000\014\036"
 4712      800C4615 
 4712      9C108311 
 4712      000C1E
 4713 8075 F0801E0C 		.ascii	"\360\200\036\014\014\345\360\335\223\362|\372\234\004"
 4713      0CE5F0DD 
 4713      93F27CFA 
 4713      9C04
 4714 8083 0C605000 		.ascii	"\014`P\000\031\000)\202k\201\301`L\012\020\220\316\016"
 4714      19002982 
 4714      6B81C160 
 4714      4C0A1090 
 4714      CE0E
 4715 8095 14640C00 		.ascii	"\024d\014\000Y\340\210RP`d\300\001s\360f\206P*H\305"
 4715      59E08852 
 4715      506064C0 
 4715      0173F066 
 4715      86502A48 
 4716 80aa 92731280 		.ascii	"\222s\022\200\340\020\304\207d\014s\361R\220\220sA\377"
 4716      E010C487 
 4716      640C73F1 
 4716      52909073 
 4716      41FF
 4717 80bc 60844A0A 		.ascii	"`\204J\012\020\006\222s@@\000\001L\205\220qR\222@\004"
 4717      10069273 
 4717      40400001 
 4717      4C859071 
 4717      52924004 
 4718 80d0 4E7290A0 		.ascii	"Nr\220\240\020\006\020\244L\305\200\000\022t\000\004"
 4718      100610A4 
 4718      4CC58000 
 4718      12740004 
 4719 80e0 4A0AE188 		.ascii	"J\012\341\210\262\217`\200\016t\032\216\020\204\200"
 4719      B28F6080 
 4719      0E741A8E 
 4719      108480
 4720 80ef 84A8711C 		.ascii	"\204\250q\034\304\000\004L\205\334\300\020\204@\004"
 4720      C400044C 
 4720      85DCC010 
 4720      844004
 4721 80fe 4C856044 		.ascii	"L\205`D\016\212\010\245\300\030\200\000\000f\340@\000"
ARM GAS  C:\Temp\ccVQrAGa.s 			page 211


 4721      0E8A08A5 
 4721      C0188000 
 4721      0066E040 
 4721      00
 4722 810f 7986D5EE 		.ascii	"y\206\325\356}\340\014\0206\344\234PJ\000\211\2065\363"
 4722      7DE00C10 
 4722      36E49C50 
 4722      4A008986 
 4722      35F3
 4723 8121 8DE04800 		.ascii	"\215\340H\000v\004\305\006\211\200\000\374\215\340,"
 4723      7604C506 
 4723      898000FC 
 4723      8DE02C
 4724 8130 068982B5 		.ascii	"\006\211\202\265\374\215\340$\006\211\2025\374\215\340"
 4724      FC8DE024 
 4724      06898235 
 4724      FC8DE0
 4725 813f 28063980 		.ascii	"(\0069\200\265\377=\340 \0015\202\025\223\001\221\001"
 4725      B5FF3DE0 
 4725      20013582 
 4725      15930191 
 4725      01
 4726 8150 0C0C900E 		.ascii	"\014\014\220\016\335\223\362\234`D\000\011\030\316\340"
 4726      DD93F29C 
 4726      60440009 
 4726      18CEE0
 4727 815f 274C25A2 		.ascii	"'L%\242/+\013\340\020\376\254\001\366\201\001X\016\000"
 4727      2F2B0BE0 
 4727      10FEAC01 
 4727      F6810158 
 4727      0E00
 4728 8171 0001065A 		.ascii	"\000\001\006Z\016\255{\334\224\000\004@\014L\005\340"
 4728      0EAD7BDC 
 4728      94000440 
 4728      0C4C05E0 
 4729 8181 804A4A40 		.ascii	"\200JJ@\000\000\006\334\000B`\317\370H\210\214\033\003"
 4729      000006DC 
 4729      004260CF 
 4729      F848888C 
 4729      1B03
 4730 8193 01F29C0C 		.ascii	"\001\362\234\014\014\377\370\010(\372<\004\014\354 "
 4730      0CFFF808 
 4730      28FA3C04 
 4730      0CEC20
 4731 81a2 1EF0829B 		.ascii	"\036\360\202\233\000k\016`>.\010\213\354\004<\236\206"
 4731      006B0E60 
 4731      3E2E088B 
 4731      EC043C9E 
 4731      86
 4732 81b3 AB012181 		.ascii	"\253\001!\201\001\001A\2111V\230\216\033\214[o\314\202"
 4732      01014189 
 4732      3156988E 
 4732      1B8C5B6F 
 4732      CC82
 4733 81c5 B5A10B81 		.ascii	"\265\241\013\201\001>\256\201!<\236\201A\0211\214[\016"
 4733      013EAE81 
 4733      213C9E81 
ARM GAS  C:\Temp\ccVQrAGa.s 			page 212


 4733      4111318C 
 4733      5B0E
 4734 81d7 1BEFCC55 		.ascii	"\033\357\314U\310\200\245\241\013\014\014\220\361\335"
 4734      C880A5A1 
 4734      0B0C0C90 
 4734      F1DD
 4735 81e5 93F23C81 		.ascii	"\223\362<\201\001>\216\201!<\236\201A!1\214[\016\033"
 4735      013E8E81 
 4735      213C9E81 
 4735      4121318C 
 4735      5B0E1B
 4736 81f8 EFCC54C8 		.ascii	"\357\314T\310\014\014\220\361\335\223\362<\206\005\241"
 4736      0C0C90F1 
 4736      DD93F23C 
 4736      8605A1
 4737 8207 1B880DFF 		.ascii	"\033\210\015\377A\301\254\010\004\301\006HJ\321\220"
 4737      41C1AC08 
 4737      04C10648 
 4737      4AD190
 4738 8216 48121780 		.ascii	"H\022\027\200\010\004s\374@\000\010D\300\007\010@\201"
 4738      080473FC 
 4738      40000844 
 4738      C0070840 
 4738      81
 4739 8227 2C424A84 		.ascii	",BJ\204\004\210\026\341\206\201\001\014\016]\223\335"
 4739      048816E1 
 4739      8681010C 
 4739      0E5D93DD 
 4740 8237 93E00840 		.ascii	"\223\340\010@\226\376|\004\014\354\340\036\360\210k"
 4740      96FE7C04 
 4740      0CECE01E 
 4740      F0886B
 4741 8246 00BB6018 		.ascii	"\000\273`\030\026\211\006{\204K\004\360\202\253\006"
 4741      1689067B 
 4741      844B04F0 
 4741      82AB06
 4742 8255 F064D009 		.ascii	"\360d\320\011N\344\240}8\210\013\220\033o\374d\300\004"
 4742      4EE4A07D 
 4742      38880B90 
 4742      1B6FFC64 
 4742      C004
 4743 8267 F0E49006 		.ascii	"\360\344\220\006\360\220\033\024\013\357\374|\250d\260"
 4743      F0901B14 
 4743      0BEFFC7C 
 4743      A864B0
 4744 8276 04F0E480 		.ascii	"\004\360\344\200\006\360\216\013\013~o\374|(\036\011"
 4744      06F08E0B 
 4744      0B7E6FFC 
 4744      7C281E09 
 4745 8286 901B98B1 		.ascii	"\220\033\230\261`\320`\300\0369\340\204\004\204`\260"
 4745      60D060C0 
 4745      1E39E084 
 4745      048460B0 
 4746 8296 1E594207 		.ascii	"\036YB\007\226#\354\010\004 p\200B\262\000\020\3027"
 4746      9623EC08 
 4746      04207080 
 4746      42B20010 
ARM GAS  C:\Temp\ccVQrAGa.s 			page 213


 4746      C237
 4747 82a8 4EB26C08 		.ascii	"N\262l\010W\015\360\214BW\204\233\234\000R\000l\010"
 4747      570DF08C 
 4747      4257849B 
 4747      9C005200 
 4747      6C08
 4748 82ba 0070F094 		.ascii	"\000p\360\224F\262\204[W\015\034\000J\000\354\010\000"
 4748      46B2845B 
 4748      570D1C00 
 4748      4A00EC08 
 4748      00
 4749 82cb 3084CB57 		.ascii	"0\204\313W\015X\000\025\004\374\016\234\000\013\004"
 4749      0D580015 
 4749      04FC0E9C 
 4749      000B04
 4750 82da 89041304 		.ascii	"\211\004\023\004\201\253\340\000T\032\355\204@\012\221"
 4750      81ABE000 
 4750      541AED84 
 4750      400A91
 4751 82e9 04BE0E81 		.ascii	"\004\276\016\201\001<\016\221\225\376\016\212\253\017"
 4751      013C0E91 
 4751      95FE0E8A 
 4751      AB0F
 4752 82f7 8E8E5B04 		.ascii	"\216\216[\004\212\244\012\215\236\211\224\374t@\012"
 4752      8AA40A8D 
 4752      9E8994FC 
 4752      74400A
 4753 8306 B0030F2A 		.ascii	"\260\003\017*f\236\300\010d\000R\032\213t\016\000`\034"
 4753      669EC008 
 4753      6400521A 
 4753      8B740E00 
 4753      601C
 4754 8318 C0046400 		.ascii	"\300\004d\000@\015A&\327w@\000@\015^\005\214\233@\000"
 4754      400D4126 
 4754      D7774000 
 4754      400D5E05 
 4754      8C9B4000 
 4755 832c 20000188 		.ascii	" \000\001\210\240\000\014\006\260\012\214j\254\003\274"
 4755      A0000C06 
 4755      B00A8C6A 
 4755      AC03BC
 4756 833b 44669240 		.ascii	"Df\222@\012d\000\011\032I&\300\010\300\000 \015 \015"
 4756      0A640009 
 4756      1A4926C0 
 4756      08C00020 
 4756      0D200D
 4757 834e 5E450000 		.ascii	"^E\000\000@\000\300\004d\001\200c\327\007\006%\216\203"
 4757      4000C004 
 4757      64018063 
 4757      D7070625 
 4757      8E83
 4758 8360 80000E06 		.ascii	"\200\000\016\006\202K\024z\276\024\250\012@\012\256"
 4758      824B147A 
 4758      BE14A80A 
 4758      400AAE
 4759 836f 03031A66 		.ascii	"\003\003\032f\206\300\010d\000 \015C&^\025\300\000@"
 4759      86C00864 
ARM GAS  C:\Temp\ccVQrAGa.s 			page 214


 4759      00200D43 
 4759      265E15C0 
 4759      0040
 4760 8381 00200D64 		.ascii	"\000 \015d\001\000\000W\007\300\004\200s\210\033{\200"
 4760      01000057 
 4760      07C00480 
 4760      73881B7B 
 4760      80
 4761 8392 0064FB80 		.ascii	"\000d\373\200\014\204z\200Lb\344\010\000\020{\200\002"
 4761      0C847A80 
 4761      4C62E408 
 4761      00107B80 
 4761      02
 4762 83a3 74E40841 		.ascii	"t\344\010A\032z\230B\022Y\034\222kB\000\226\033\000"
 4762      1A7A9842 
 4762      12591C92 
 4762      6B420096 
 4762      1B00
 4763 83b5 503C0041 		.ascii	"P<\000A\032\344\010\226{d\010N\000\015D\0000\274\000"
 4763      1AE40896 
 4763      7B64084E 
 4763      000D4400 
 4763      30BC00
 4764 83c8 963B6408 		.ascii	"\226;d\010d\010A\032F\000\226\233\000@<\000\017\204"
 4764      6408411A 
 4764      4600969B 
 4764      00403C00 
 4764      0F84
 4765 83da E408E408 		.ascii	"\344\010\344\010A\032<\000R\000\344\010\000\240d\010"
 4765      411A3C00 
 4765      5200E408 
 4765      00A06408 
 4766 83ea 411A4A00 		.ascii	"A\032J\000\226[\000\300<\000A\032\344\010\226\313d\010"
 4766      965B00C0 
 4766      3C00411A 
 4766      E40896CB 
 4766      6408
 4767 83fc 3C005800 		.ascii	"<\000X\000\354\004\020\200\340\000\020\032?\3757h~\004"
 4767      EC041080 
 4767      E000101A 
 4767      3FFD3768 
 4767      7E04
 4768 840e C3FF0C0C 		.ascii	"\303\377\014\014\360\361\335\223\366|q\210D\022\341"
 4768      F0F1DD93 
 4768      F67C7188 
 4768      4412E1
 4769 841d F5823384 		.ascii	"\365\2023\204\001\302\007\000\004]\223\301\303\372\200"
 4769      01C20700 
 4769      045D93C1 
 4769      C3FA80
 4770 842c FA00004C 		.ascii	"\372\000\000L\345\006D\012e\206@\012\004 \201\021\302"
 4770      E506440A 
 4770      6586400A 
 4770      04208111 
 4770      C2
 4771 843d 00640172 		.ascii	"\000d\001r\204@\002\341\314\010$`\270\002\004\006$\332"
 4771      844002E1 
ARM GAS  C:\Temp\ccVQrAGa.s 			page 215


 4771      CC082460 
 4771      B8020406 
 4771      24DA
 4772 844f 07A04F61 		.ascii	"\007\240Oa\310y\204D2\374|\000D`\020\002\006u\230\201"
 4772      C8798444 
 4772      32FC7C00 
 4772      44601002 
 4772      06759881 
 4773 8463 31084CEF 		.ascii	"1\010L\357\274\335\223\362\000\372\004\004L\200+\004"
 4773      BCDD93F2 
 4773      00FA0404 
 4773      4C802B04 
 4774 8473 6B4E9621 		.ascii	"kN\226!+\202\305\340\010`\310\000\024\341\204\006$\335"
 4774      2B82C5E0 
 4774      0860C800 
 4774      14E18406 
 4774      24DD
 4775 8485 17060381 		.ascii	"\027\006\003\2011\001qo\274tH\362\234B\022\216\013\230"
 4775      3101716F 
 4775      BC7448F2 
 4775      9C42128E 
 4775      0B98
 4776 8497 0EF2040C 		.ascii	"\016\362\004\014L\301\303\335\223\345\006D\012e\206"
 4776      4CC1C3DD 
 4776      93E50644 
 4776      0A6586
 4777 84a6 400A0420 		.ascii	"@\012\004 \201\021\302\000d\001r\204@\002\334\007\345"
 4777      8111C200 
 4777      64017284 
 4777      4002DC07 
 4777      E5
 4778 84b7 27A40F5D 		.ascii	"'\244\017]\223\372\000\000L\202+B\007\201\021\004\001"
 4778      93FA0000 
 4778      4C822B42 
 4778      07811104 
 4778      01
 4779 84c8 7A800004 		.ascii	"z\200\000\004{\230\2011"
 4779      7B988131 
 4780 84d0 0404EFBC 		.ascii	"\004\004\357\274\242/\341\240A\376\241+\000\004\337"
 4780      A22FE1A0 
 4780      41FEA12B 
 4780      0004DF
 4781 84df FC084CFA 		.ascii	"\374\010L\372\200\335\223\362\000\372\000\004\014o\374"
 4781      80DD93F2 
 4781      00FA0004 
 4781      0C6FFC
 4782 84ee 7A080264 		.ascii	"z\010\002d\204k\202\003\341\204\340\032@\012\362\000"
 4782      846B8203 
 4782      E184E01A 
 4782      400AF200 
 4783 84fe 0C0CC1C3 		.ascii	"\014\014\301\303\335\223i)C\206D\032\300\001@\032\345"
 4783      DD936929 
 4783      4386441A 
 4783      C001401A 
 4783      E5
 4784 850f 02811165 		.ascii	"\002\201\021e\202d\001\004 @\002\302\000\345'r\204]"
 4784      82640104 
ARM GAS  C:\Temp\ccVQrAGa.s 			page 216


 4784      204002C2 
 4784      00E52772 
 4784      845D
 4785 8521 93DC07C1 		.ascii	"\223\334\007\301\303\244\017\0044\2031\243?h\210B*\202"
 4785      C3A40F04 
 4785      348331A3 
 4785      3F688842 
 4785      2A82
 4786 8533 218013E6 		.ascii	"!\200\023\346\216\000\024]\223\301\303\373\200\372\004"
 4786      8E00145D 
 4786      93C1C3FB 
 4786      80FA04
 4787 8542 044C847B 		.ascii	"\004L\204{\006k\357\374w(\204a\302g\372\200\002d\346"
 4787      066BEFFC 
 4787      77288461 
 4787      C267FA80 
 4787      0264E6
 4788 8555 9E421AE5 		.ascii	"\236B\032\345\002D\032e\202@\032\004 \201\021\300\010"
 4788      02441A65 
 4788      82401A04 
 4788      208111C0 
 4788      08
 4789 8566 64017284 		.ascii	"d\001r\204@\002\350\007\331'\014L\244\017\335\223\362"
 4789      4002E807 
 4789      D9270C4C 
 4789      A40FDD93 
 4789      F2
 4790 8577 04811121 		.ascii	"\004\201\021!\013\000\000\204e\004\016l\004F\002\377"
 4790      0B000084 
 4790      65040E6C 
 4790      044602FF 
 4791 8587 F0A13BF8 		.ascii	"\360\241;\370\010A\204\000\004\304\004\002\020\002\024"
 4791      08418400 
 4791      04C40402 
 4791      100214
 4792 8596 FE350004 		.ascii	"\3765\000\004{\200\320\027\372\200]\223\240\037\373"
 4792      7B80D017 
 4792      FA805D93 
 4792      A01FFB
 4793 85a5 8000147A 		.ascii	"\200\000\024z\200\002\004\241\037\321\007\000\020]\223"
 4793      800204A1 
 4793      1FD10700 
 4793      105D93
 4794 85b4 C1C3E404 		.ascii	"\301\303\344\004\372\000\000L\345\002H*\345\202J*e\006"
 4794      FA00004C 
 4794      E502482A 
 4794      E5824A2A 
 4794      6506
 4795 85c6 403A423A 		.ascii	"@:B:\210+\212;e\206\357\274s\210`\001\004\006\2011B"
 4795      882B8A3B 
 4795      6586EFBC 
 4795      73886001 
 4795      04068131 
 4796 85db 00421284 		.ascii	"\000B\022\204\003\371\007r\214`\220\004\024$\017\371"
 4796      03F90772 
 4796      8C609004 
 4796      14240FF9 
ARM GAS  C:\Temp\ccVQrAGa.s 			page 217


 4797 85eb 17850BFF 		.ascii	"\027\205\013\377!\037\374A\376A\376\241\033\010L\337"
 4797      211FFC41 
 4797      FE41FEA1 
 4797      1B084CDF 
 4798 85fb FCDD93F2 		.ascii	"\374\335\223\362\000\372\004\004L\206k!\033\201q\012"
 4798      00FA0404 
 4798      4C866B21 
 4798      1B81710A 
 4799 860b 4588E5A1 		.ascii	"E\210\345\241+~\201\006\016H\032@\000J\012\345\012@"
 4799      2B7E8106 
 4799      0E481A40 
 4799      004A0AE5 
 4799      0A40
 4800 861d 0AE50E46 		.ascii	"\012\345\016F\032\345\216\030Te\212V\007\341\324\341"
 4800      1AE58E18 
 4800      54658A56 
 4800      07E1D4E1 
 4801 862d 84024400 		.ascii	"\204\002D\0004 \317VW\340\374\0044\240\037@\022a\204"
 4801      3420CF56 
 4801      57E0FC04 
 4801      34A01F40 
 4801      126184
 4802 8640 4222F094 		.ascii	"B\"\360\224\210+r\260\357\274fh\205\013\377!\037\374"
 4802      882B72B0 
 4802      EFBC6668 
 4802      850BFF21 
 4802      1FFC
 4803 8652 41FE0165 		.ascii	"A\376\001e\241\033\337\374A\376N\226\001\001\030\016"
 4803      A11BDFFC 
 4803      41FE4E96 
 4803      0101180E 
 4804 8662 E0080C4C 		.ascii	"\340\010\014L\216\013\335\223\362\004\177\375G\376\206"
 4804      8E0BDD93 
 4804      F2047FFD 
 4804      47FE86
 4805 8671 0DC03F00 		.ascii	"\015\300?\000\000\006\002\010>\241\033\200\000\002\006"
 4805      00060208 
 4805      3EA11B80 
 4805      000206
 4806 8680 409C0634 		.ascii	"@\234\0064\301\204\010\024P\220F2B:\201\001@\226@\006"
 4806      C1840814 
 4806      50904632 
 4806      423A8101 
 4806      40964006 
 4807 8694 881E8008 		.ascii	"\210\036\200\010\301\303\335\223\372\000\004\014\212"
 4807      C1C3DD93 
 4807      FA00040C 
 4807      8A
 4808 86a1 25A12B0A 		.ascii	"%\241+\012\002\006\023\006\024\340\000\003\012z\200"
 4808      02061306 
 4808      14E00003 
 4808      0A7A80
 4809 86b0 0830F47C 		.ascii	"\0100\364|\201\021l\200{\220F2\0002\201AHPl|\012\006"
 4809      81116C80 
 4809      7B904632 
 4809      00328141 
 4809      48506C7C 
ARM GAS  C:\Temp\ccVQrAGa.s 			page 218


 4810 86c6 9C001844 		.ascii	"\234\000\030D\000\000\014\004\357\200\2403l\000x\260"
 4810      00000C04 
 4810      EF80A033 
 4810      6C0078B0 
 4811 86d6 5862214F 		.ascii	"Xb!O\241_\341\204\000$\00628_'_\354\004BR\210\003\201"
 4811      A15FE184 
 4811      00240632 
 4811      385F275F 
 4811      EC044252 
 4812 86ed 317284EF 		.ascii	"1r\204\357\274a(\362\000\014\014\301\303\335\223\372"
 4812      BC6128F2 
 4812      000C0CC1 
 4812      C3DD93FA 
 4813 86fd 00004CA1 		.ascii	"\000\000L\241+\000;\345\006@:\345\206B:\006 \202e\203"
 4813      2B003BE5 
 4813      06403AE5 
 4813      86423A06 
 4813      20826583 
 4814 8711 416C0481 		.ascii	"Al\004\2011'Oo8\210\003B\022o\274\377!\362\214A\376"
 4814      31274F6F 
 4814      38880342 
 4814      126FBCFF 
 4814      21F28C41 
 4815 8726 850BA11B 		.ascii	"\205\013\241\033\037\374\337\374A\376\362\000\010L\301"
 4815      1FFCDFFC 
 4815      41FEF200 
 4815      084CC1
 4816 8735 C3DD93FE 		.ascii	"\303\335\223\376\000\004L\243-\000;\344\006@:\344\206"
 4816      00044CA3 
 4816      2D003BE4 
 4816      06403AE4 
 4816      86
 4817 8746 423A0820 		.ascii	"B:\010 \206u\2031l\004h\220\0104!\035\201\301\341|\012"
 4817      86758331 
 4817      6C046890 
 4817      0834211D 
 4817      81C1E17C 
 4818 875b 4471904C 		.ascii	"Dq\220L\302\350\210\0044s\224X\302\334\000H`\\\000J"
 4818      C2E88804 
 4818      34739458 
 4818      C2DC0048 
 4818      605C004A 
 4819 876f C0425288 		.ascii	"\300BR\210\003\006$r\204Px\341|\003J\357\274\002\032"
 4819      03062472 
 4819      845078E1 
 4819      7C034AEF 
 4819      BC021A
 4820 8782 E00000EA 		.ascii	"\340\000\000\352\340\000B\012\340\000B\032\345\200B"
 4820      E000420A 
 4820      E000421A 
 4820      E58042
 4821 8791 0AE18880 		.ascii	"\012\341\210\200\365\355\200\177\375A\376\014L\337\377"
 4821      F5ED807F 
 4821      FD41FE0C 
 4821      4CDFFF
 4822 87a0 DD93F600 		.ascii	"\335\223\366\000\006\006\177!\340\000`\001\340\010C"
 4822      06067F21 
ARM GAS  C:\Temp\ccVQrAGa.s 			page 219


 4822      E0006001 
 4822      E00843
 4823 87af 4AE00842 		.ascii	"J\340\010B\032\344\014Aj\345\200B\012\341\210B\032\355"
 4823      1AE40C41 
 4823      6AE58042 
 4823      0AE18842 
 4823      1AED
 4824 87c1 80420A00 		.ascii	"\200B\012\000\001\000\006\014L\340\000\335\223\366\000"
 4824      0100060C 
 4824      4CE000DD 
 4824      93F600
 4825 87d0 FA7C044C 		.ascii	"\372|\004L\206k\004Kp\220\010\011\010)\201Q\022\020"
 4825      866B044B 
 4825      70900809 
 4825      08298151 
 4825      1210
 4826 87e2 788C0839 		.ascii	"x\214\0109\346\000\024\020x\204\030\006\344\300\377"
 4826      E6001410 
 4826      78841806 
 4826      E4C0FF
 4827 87f1 F857CE4E 		.ascii	"\370W\316NF\032&XV\340\000\3326\201\201\211\245\217"
 4827      461A2658 
 4827      56E000DA 
 4827      36818189 
 4827      A58F
 4828 8803 4EF0A040 		.ascii	"N\360\240@B\340@\000\031\212\245\241\033\340`\000\031"
 4828      42E04000 
 4828      198AA5A1 
 4828      1BE06000 
 4828      19
 4829 8814 8A25A11B 		.ascii	"\212%\241\033\241\033\244\032\010\031\210\305Db| D\021"
 4829      A11BA41A 
 4829      081988C5 
 4829      44627C20 
 4829      4411
 4830 8826 F0A00019 		.ascii	"\360\240\000\031\340\020D\021\340 \000\031\3400D\021"
 4830      E0104411 
 4830      E0200019 
 4830      E0304411 
 4831 8836 E0400009 		.ascii	"\340@\000\011\340PD\001\340`\244*\340p\252\024\250\004"
 4831      E0504401 
 4831      E060A42A 
 4831      E070AA14 
 4831      A804
 4832 8848 E1840624 		.ascii	"\341\204\006$\2011\006\003o\274V(\362\224B\022Bb\017"
 4832      81310603 
 4832      6FBC5628 
 4832      F2944212 
 4832      42620F
 4833 885b 44040EF0 		.ascii	"D\004\016\360\234\022\013\201Q\201\365\370 \360\240"
 4833      9C120B81 
 4833      5181F5F8 
 4833      20F0A0
 4834 886a 4062E010 		.ascii	"@b\340\020@Q\3400@Q\340P@Q`p@Q\360\234@b\201\001\000"
 4834      4051E030 
 4834      4051E050 
 4834      40516070 
ARM GAS  C:\Temp\ccVQrAGa.s 			page 220


 4834      4051F09C 
 4835 8883 5E71AC42 		.ascii	"^q\254Bb\004\014\202\201\354\010\026\260\210q\004\221"
 4835      62040C82 
 4835      81EC0816 
 4835      B0887104 
 4835      91
 4836 8894 B18B90A1 		.ascii	"\261\213\220\241\201\001\354\325\362|\014L\301\303\335"
 4836      8101ECD5 
 4836      F27C0C4C 
 4836      C1C3DD
 4837 88a3 93F87C04 		.ascii	"\223\370|\004\014\006\000\006(`\001\346\000\346\020"
 4837      0C060006 
 4837      286001E6 
 4837      00E610
 4838 88b2 08106510 		.ascii	"\010\020e\020\012\020Y\306\370\021\201a`\000\002y\203"
 4838      0A1059C6 
 4838      F8118161 
 4838      60000279 
 4838      83
 4839 88c3 F5A17BF8 		.ascii	"\365\241{\370 \204x\204\245\204E\241{\200\204\224t\006"
 4839      20847884 
 4839      A58445A1 
 4839      7B808494 
 4839      7406
 4840 88d5 AB829410 		.ascii	"\253\202\224\020z\370 \014\272\216\203\362\230R\222"
 4840      7AF8200C 
 4840      BA8E83F2 
 4840      985292
 4841 88e4 008E829E 		.ascii	"\000\216\202\236F\243\216\243\202\261x \002\301\214"
 4841      46A38EA3 
 4841      82B17820 
 4841      02C18C
 4842 88f3 BC044184 		.ascii	"\274\004A\2041\010Q\220\001\016\300\202\021\205}\354"
 4842      31085190 
 4842      010EC082 
 4842      11857DEC 
 4843 8903 F00C0CF6 		.ascii	"\360\014\014\366\365\335\223\360|\372<\004\014\204k"
 4843      F5DD93F0 
 4843      7CFA3C04 
 4843      0C846B
 4844 8912 06288381 		.ascii	"\006(\203\201D8\200{F\010\221\021%\217o\374\\\350\350"
 4844      4438807B 
 4844      46089111 
 4844      258F6FFC 
 4844      5CE8E8
 4845 8925 8C128414 		.ascii	"\214\022\204\024\004\034\024\0364\340\220\002\013\220"
 4845      041C141E 
 4845      34E09002 
 4845      0B90
 4846 8933 2B641894 		.ascii	"+d\030\224\033\034\024\357\374\230\016\222+\002\013"
 4846      1B1C14EF 
 4846      FC980E92 
 4846      2B020B
 4847 8942 9E346398 		.ascii	"\2364c\230\224\033\234$\357\374\016\033\232\016\036"
 4847      941B9C24 
 4847      EFFC0E1B 
 4847      9A0E1E
ARM GAS  C:\Temp\ccVQrAGa.s 			page 221


 4848 8951 34E01063 		.ascii	"4\340\020c\030\204\013\222+o\374\014\014\330\016\335"
 4848      18840B92 
 4848      2B6FFC0C 
 4848      0CD80EDD 
 4849 8961 93F23CFA 		.ascii	"\223\362<\372\034\004L\210{DH\201\001\000\233\204k\012"
 4849      1C044C88 
 4849      7B444881 
 4849      01009B84 
 4849      6B0A
 4850 8973 8B860B0B 		.ascii	"\213\206\013\013\016\220+\016\033h\000CH\253\233\210"
 4850      0E902B0E 
 4850      1B680043 
 4850      48AB9B88 
 4851 8983 3BA59B84 		.ascii	";\245\233\204\005\014`\002\345\247\233\204\020\251\233"
 4851      050C6002 
 4851      E5A79B84 
 4851      10A99B
 4852 8992 82454080 		.ascii	"\202E@\200\002%\243\233\234\000\010a\206u\201%\216\013"
 4852      0225A39B 
 4852      9C000861 
 4852      86758125 
 4852      8E0B
 4853 89a4 0D149061 		.ascii	"\015\024\220a\344P\006\360b\230\230$\013\024\357\374"
 4853      E45006F0 
 4853      62989824 
 4853      0B14EFFC 
 4854 89b4 E000001A 		.ascii	"\340\000\000\032a\234N\012\017$\201\001 \001\002\006"
 4854      619C4E0A 
 4854      0F248101 
 4854      20010206 
 4855 89c4 0206C000 		.ascii	"\002\006\300\000\210\036\300\000\362\034\014L@\306\335"
 4855      881EC000 
 4855      F21C0C4C 
 4855      40C6DD
 4856 89d3 934E0A60 		.ascii	"\223N\012`\010N\032\351\234\201\021a\234\301\303\375"
 4856      084E1AE9 
 4856      9C811161 
 4856      9CC1C3FD 
 4857 89e3 F58403A7 		.ascii	"\365\204\003\247/\\\010\303\015\000\006\032\000]\223"
 4857      2F5C08C3 
 4857      0D00061A 
 4857      005D93
 4858 89f2 8000F180 		.ascii	"\200\000\361\200@\022\372|\004\014\354P\036\360da\000"
 4858      4012FA7C 
 4858      040CEC50 
 4858      1EF06461 
 4858      00
 4859 8a03 00814140 		.ascii	"\000\201A@\003\374\036\276\016\006\010\213\365\001\261"
 4859      03FC1EBE 
 4859      0E06088B 
 4859      F501B1
 4860 8a12 81A1814D 		.ascii	"\201\241\201M\201q~N\222e\002\011\210\023\201\241`\260"
 4860      81717E4E 
 4860      92650209 
 4860      881381A1 
 4860      60B0
 4861 8a24 60F00239 		.ascii	"`\360\0029\002I\201\261\201a`\220`\320\002)B\012\235"
ARM GAS  C:\Temp\ccVQrAGa.s 			page 222


 4861      024981B1 
 4861      81616090 
 4861      60D00229 
 4861      420A9D
 4862 8a37 11803366 		.ascii	"\021\2003f\206\201q>T\210#\010\023\304\027\011N\201"
 4862      8681713E 
 4862      54882308 
 4862      13C41709 
 4862      4E81
 4863 8a49 41025318 		.ascii	"A\002S\030\205\203%\300\001x1\020\243\361\224HB\201"
 4863      858325C0 
 4863      01783110 
 4863      A3F19448 
 4863      4281
 4864 8a5b 8192B3F2 		.ascii	"\201\222\263\362\240r\240Lb\202\021\202q\374U\205\035"
 4864      A072A04C 
 4864      62821182 
 4864      71FC5585 
 4864      1D
 4865 8a6c F0510201 		.ascii	"\360Q\002\001\036\025\207\015XP@\020\374\365\334\000"
 4865      1E15870D 
 4865      58504010 
 4865      FCF5DC00 
 4866 8a7c 84D5E57D 		.ascii	"\204\325\345}a\204\020t@\202\201\221\2011p\250r\244"
 4866      61841074 
 4866      40828191 
 4866      813170A8 
 4866      72A4
 4867 8a8e 42424418 		.ascii	"BBD\030\216+\000\253\357\274\360\254@\202r\244BbC\230"
 4867      8E2B00AB 
 4867      EFBCF0AC 
 4867      408272A4 
 4867      42624398 
 4868 8aa2 81318E2B 		.ascii	"\2011\216+o\274\374\024\200\273\000D\376D\006\020`\210"
 4868      6FBCFC14 
 4868      80BB0044 
 4868      FE440610 
 4868      6088
 4869 8ab4 0444E510 		.ascii	"\004D\345\020\206\003`\204\202A\0043@\265\200\256Fs"
 4869      86036084 
 4869      82410433 
 4869      40B580AE 
 4869      4673
 4870 8ac6 E0208408 		.ascii	"\340 \204\010\340\200\350\025\201M\014\014\250\361\335"
 4870      E080E815 
 4870      814D0C0C 
 4870      A8F1DD
 4871 8ad5 93F27CFA 		.ascii	"\223\362|\372|\004\014\354p\036\360\201\3010\001\202"
 4871      7C040CEC 
 4871      701EF081 
 4871      C1300182 
 4872 8ae5 7B7C0E0C 		.ascii	"{|\016\014p\015\316\013\316\344\360\211\316\201\241"
 4872      700DCE0B 
 4872      CEE4F089 
 4872      CE81A1
 4873 8af4 FC94FECE 		.ascii	"\374\224\376\316\036\010\211U\215\316\201\021\001\255"
 4873      1E088955 
ARM GAS  C:\Temp\ccVQrAGa.s 			page 223


 4873      8DCE8111 
 4873      01AD
 4874 8b02 FECE89CE 		.ascii	"\376\316\211\316\201\001\214\005\213\316p\250Vb\360"
 4874      81018C05 
 4874      8BCE70A8 
 4874      5662F0
 4875 8b11 A8509278 		.ascii	"\250P\222x\340\026\011\3440\004\360x\240\026\031\344"
 4875      E01609E4 
 4875      3004F078 
 4875      A01619E4 
 4876 8b21 600AF0F8 		.ascii	"`\012\360\370 \0209\340 \020I\233!<.\350\000C\010x\300"
 4876      201039E0 
 4876      2010499B 
 4876      213C2EE8 
 4876      00430878 
 4877 8b36 1609E450 		.ascii	"\026\011\344P\004\360x\200\026\031\344@\012\360\374"
 4877      04F07880 
 4877      1619E440 
 4877      0AF0FC
 4878 8b45 281239E0 		.ascii	"(\0229\340@\020I\223!<.\350\000B\010\201\301~\004\200"
 4878      40104993 
 4878      213C2EE8 
 4878      00420881 
 4878      C17E0480 
 4879 8b59 85A10BA1 		.ascii	"\205\241\013\241\033\213\024~\316\200\265\013\316\201"
 4879      1B8B147E 
 4879      CE80B50B 
 4879      CE81
 4880 8b67 110D2481 		.ascii	"\021\015$\201\001\360\250Hb\202\241\0114\370 H\001\370"
 4880      01F0A848 
 4880      6282A109 
 4880      34F82048 
 4880      01F8
 4881 8b79 604821F8 		.ascii	"`H!\370@H1\234\010\220\026\356U\201\255\014\014\270"
 4881      4048319C 
 4881      089016EE 
 4881      5581AD0C 
 4881      0CB8
 4882 8b8b F1DD93F2 		.ascii	"\361\335\223\362|X\022\0003\024>\360\200\360\220@2\000"
 4882      7C581200 
 4882      33143EF0 
 4882      80F09040 
 4882      3200
 4883 8b9d 00190D00 		.ascii	"\000\031\015\000\033\354\004\002\300\201Q<\024\214\004"
 4883      1BEC0402 
 4883      C081513C 
 4883      148C04
 4884 8bac FB044422 		.ascii	"\373\004D\"\2025\204=\210[\004\015\300\000\000\026\321"
 4884      8235843D 
 4884      885B040D 
 4884      C0000016 
 4884      D1
 4885 8bbd 8C4002D0 		.ascii	"\214@\002\320\210J\002\335\223\204^\372<\004\014\354"
 4885      884A02DD 
 4885      93845EFA 
 4885      3C040CEC 
 4886 8bcd 201EF082 		.ascii	" \036\360\202\213\012k\204{\021\224\214\033\010\013"
ARM GAS  C:\Temp\ccVQrAGa.s 			page 224


 4886      8B0A6B84 
 4886      7B11948C 
 4886      1B080B
 4887 8bdc 6FFC6988 		.ascii	"o\374i\210\001\001\220+\205e\221\241\2105\241\013`\200"
 4887      0101902B 
 4887      856591A1 
 4887      8835A10B 
 4887      6080
 4888 8bee 12151245 		.ascii	"\022\025\022E\2011\220+`@\340`\022U\276\236\234\010"
 4888      8131902B 
 4888      6040E060 
 4888      1255BE9E 
 4888      9C08
 4889 8c00 8C1B3C1E 		.ascii	"\214\033<\036\357\374k\010\2045\241\013`\200\022\025"
 4889      EFFC6B08 
 4889      8435A10B 
 4889      60801215 
 4890 8c10 E4800490 		.ascii	"\344\200\004\220`@\022E\022U\2011\236\010\340`\220+"
 4890      60401245 
 4890      12558131 
 4890      9E08E060 
 4890      902B
 4891 8c22 3E2E8C1B 		.ascii	">.\214\033<\036\357\374i\350l\004\024\240\241\253\210"
 4891      3C1EEFFC 
 4891      69E86C04 
 4891      14A0A1AB 
 4891      88
 4892 8c33 9190F1F6 		.ascii	"\221\220\361\366U\362<\014\014\301\303\335\223\372<"
 4892      55F23C0C 
 4892      0CC1C3DD 
 4892      93FA3C
 4893 8c42 040CEC20 		.ascii	"\004\014\354 \036\360\202{\025\204\204k\027\224\216"
 4893      1EF0827B 
 4893      1584846B 
 4893      17948E
 4894 8c51 2B13046F 		.ascii	"+\023\004o\374e\310\001\001\220\033\340\010\024\306"
 4894      FC65C801 
 4894      01901BE0 
 4894      0814C6
 4895 8c60 A10B8575 		.ascii	"\241\013\205u\022\025\210U\2011h\300d`\022E\022U\216"
 4895      12158855 
 4895      813168C0 
 4895      64601245 
 4895      12558E
 4896 8c73 2B9808E6 		.ascii	"+\230\010\346\220<\036\276\236g8\220\033\241\013\357"
 4896      903C1EBE 
 4896      9E673890 
 4896      1BA10BEF 
 4897 8c83 FC121584 		.ascii	"\374\022\025\204U\004\220h\300\300\002d\300d`\022E\022"
 4897      55049068 
 4897      C0C00264 
 4897      C0646012 
 4897      4512
 4898 8c95 5581319A 		.ascii	"U\2011\232\010\346\220\216+>."
 4898      08E6908E 
 4898      2B3E2E
 4899 8ca0 901B3C1E 		.ascii	"\220\033<\036\357\374f\010l\004\024\240\241\253\210"
ARM GAS  C:\Temp\ccVQrAGa.s 			page 225


 4899      EFFC6608 
 4899      6C0414A0 
 4899      A1AB88
 4900 8caf 9190F1F6 		.ascii	"\221\220\361\3665\362<\014\014\301\303\335\223\372<"
 4900      35F23C0C 
 4900      0CC1C3DD 
 4900      93FA3C
 4901 8cbe 040CEC40 		.ascii	"\004\014\354@\036\360\200\233\025\204\204{\012k\000"
 4901      1EF0809B 
 4901      1584847B 
 4901      0A6B00
 4902 8ccd 8082AB08 		.ascii	"\200\202\253\010\200dP<\016\344\020\344@\012\200\357"
 4902      8064503C 
 4902      0EE410E4 
 4902      400A80EF 
 4903 8cdd FC776884 		.ascii	"\374wh\204\025\241\013g\240\002\200\347`\000\200\004"
 4903      15A10B67 
 4903      A00280E7 
 4903      60008004 
 4904 8ced 807E1E7C 		.ascii	"\200~\036|.\347\220>\016\224\033z8\216+\241\013\357"
 4904      2EE7903E 
 4904      0E941B7A 
 4904      388E2BA1 
 4904      0BEF
 4905 8cff FCA0F180 		.ascii	"\374\240\361\200\245\362<\014\014\027D\335\223\016\033"
 4905      A5F23C0C 
 4905      0C1744DD 
 4905      930E1B
 4906 8d0e 920B103B 		.ascii	"\222\013\020;\214+\014\014\240\361\201\025\362<\372"
 4906      8C2B0C0C 
 4906      A0F18115 
 4906      F23CFA
 4907 8d1d 0C040C86 		.ascii	"\014\004\014\206\213\010k\204{\002\013o\374m\210\020"
 4907      8B086B84 
 4907      7B020B6F 
 4907      FC6D8810 
 4908 8d2d 0B8C1B66 		.ascii	"\013\214\033f8\214\033\020\011\357\374\000\000\343X"
 4908      388C1B10 
 4908      09EFFC00 
 4908      00E358
 4909 8d3c E20DEC0C 		.ascii	"\342\015\354\014\034\000@p\234\000B`\217\374Z\350\014"
 4909      1C004070 
 4909      9C004260 
 4909      8FFC5AE8 
 4909      0C
 4910 8d4d 0C8101DD 		.ascii	"\014\201\001\335\223\362\014\370<\004Lb\001\002[\201"
 4910      93F20CF8 
 4910      3C044C62 
 4910      01025B81 
 4911 8d5d C140010C 		.ascii	"\301@\001\014\304\205\225\016d\373\200\202c`\204`\001"
 4911      C485950E 
 4911      64FB8082 
 4911      63608460 
 4911      01
 4912 8d6e 0C898273 		.ascii	"\014\211\202s@\002\350\000\016{\006\245\304\207\304"
 4912      4002E800 
 4912      0E7B06A5 
ARM GAS  C:\Temp\ccVQrAGa.s 			page 226


 4912      C487C4
 4913 8d7d 777C20FC 		.ascii	"w| \374\034\000\225P\202\323\255P\225\320\214\004\211"
 4913      1C009550 
 4913      82D3AD50 
 4913      95D08C04 
 4913      89
 4914 8d8e C000A18B 		.ascii	"\300\000\241\213\3400\014`\202\305@\010d\001\230h\200"
 4914      E0300C60 
 4914      82C54008 
 4914      64019868 
 4914      80
 4915 8d9f 73C4679C 		.ascii	"s\304g\234t|\030\010\205\210c\317w\230\216\216\203X"
 4915      747C1808 
 4915      858863CF 
 4915      77988E8E 
 4915      8358
 4916 8db1 8A82C1F4 		.ascii	"\212\202\301\364\325\354\024\014L\201\001\335\223\360"
 4916      D5EC140C 
 4916      4C8101DD 
 4916      93F0
 4917 8dbf 3CF87C04 		.ascii	"<\370|\004\314\201\301\017N\201a\015>d\011\0009\207"
 4917      CC81C10F 
 4917      4E81610D 
 4917      3E640900 
 4917      3987
 4918 8dd1 45C00260 		.ascii	"E\300\002`4\002\231\372\200\016\304`0\002\271\004\205"
 4918      340299FA 
 4918      800EC460 
 4918      3002B904 
 4918      85
 4919 8de2 C477A1BB 		.ascii	"\304w\241\273\374\034\345\246T\212e&P\212\360\234R\""
 4919      FC1CE5A6 
 4919      548A6526 
 4919      508AF09C 
 4919      5222
 4920 8df4 D187F0A7 		.ascii	"\321\207\360\247V\202\017\204\216\203\371\250\215\244"
 4920      56820F84 
 4920      8E83F9A8 
 4920      8DA4
 4921 8e02 A0BE8EA3 		.ascii	"\240\276\216\243\002\305\306Z\250d\345\026Hj\345\226"
 4921      02C5C65A 
 4921      A864E516 
 4921      486AE596 
 4922 8e12 4A6AEE57 		.ascii	"Jj\356W\323G\371\224LB\240\276\214\263\200s$DNE\202"
 4922      D347F994 
 4922      4C42A0BE 
 4922      8CB38073 
 4922      24444E45 
 4923 8e27 C1A844E9 		.ascii	"\301\250D\351\004\351DNENe\240DNE\351\304X\212\351\204"
 4923      04E9444E 
 4923      454E65A0 
 4923      444E45E9 
 4923      C4588AE9 
 4924 8e3c F275F40C 		.ascii	"\362u\364\014\014\314\201\001\335\223\360|\370\000\004"
 4924      0CCC8101 
 4924      DD93F07C 
 4924      F80004
ARM GAS  C:\Temp\ccVQrAGa.s 			page 227


 4925 8e4b 4C814119 		.ascii	"L\201A\0311\030T\203\225L\022`\204\002\303\360\224\030"
 4925      31185483 
 4925      954C1260 
 4925      8402C3F0 
 4925      9418
 4926 8e5d 5B82410C 		.ascii	"[\202A\014\311\350\000\300\002`\001\340\210\014T|\030"
 4926      C9E800C0 
 4926      026001E0 
 4926      880C547C 
 4926      18
 4927 8e6e 006504C5 		.ascii	"\000e\004\305\304\307\331m\3740\320\200JR\014\001J1"
 4927      C4C7D96D 
 4927      FC30D080 
 4927      4A520C01 
 4927      4A31
 4928 8e80 02CBC004 		.ascii	"\002\313\300\004@\001b\001\373\200\012D\370U\331]\014"
 4928      40016201 
 4928      FB800A44 
 4928      F855D95D 
 4928      0C
 4929 8e91 4C8101DD 		.ascii	"L\201\001\335\223\360\000\372|\004\014\357\020\036\360"
 4929      93F000FA 
 4929      7C040CEF 
 4929      101EF0
 4930 8ea0 848B026B 		.ascii	"\204\213\002kd\011\014\011\200{@\002e\020\002\360\346"
 4930      64090C09 
 4930      807B4002 
 4930      651002F0 
 4930      E6
 4931 8eb1 1004F081 		.ascii	"\020\004\360\2011\001e\000\000I>\305>\354\004\376u\241"
 4931      31016500 
 4931      00493EC5 
 4931      3EEC04FE 
 4931      75A1
 4932 8ec3 0B661012 		.ascii	"\013f\020\022\360\345\020\024\360\214\033\016\013\222"
 4932      F0E51014 
 4932      F08C1B0E 
 4932      0B92
 4933 8ed1 3B102B6F 		.ascii	";\020+o\374t\010\026\360\224K\214\013d\020\222+\020"
 4933      FC740816 
 4933      F0944B8C 
 4933      0B641092 
 4933      2B10
 4934 8ee3 1B964B14 		.ascii	"\033\226K\024;\357\374v\310\214\033\016\013o\374z\310"
 4934      3BEFFC76 
 4934      C88C1B0E 
 4934      0B6FFC7A 
 4934      C8
 4935 8ef4 0101962B 		.ascii	"\001\001\226+\347\020\036\360\362|\014\014\301\303\335"
 4935      E7101EF0 
 4935      F27C0C0C 
 4935      C1C3DD
 4936 8f03 93FF0100 		.ascii	"\223\377\001\000$\203-\204\024\000\000\000\006]\223"
 4936      24832D84 
 4936      14000000 
 4936      065D93
 4937 8f12 822DC000 		.ascii	"\202-\300\000\000\026\372|\004\014\354\220\036\360\202"
ARM GAS  C:\Temp\ccVQrAGa.s 			page 228


 4937      0016FA7C 
 4937      040CEC90 
 4937      1EF082
 4938 8f21 9B7E2E02 		.ascii	"\233~.\002\006>\016\011!\340\020h\361\006NN\370\300"
 4938      063E0E09 
 4938      21E01068 
 4938      F1064E4E 
 4938      F8C0
 4939 8f33 10920B6F 		.ascii	"\020\222\013o\274\201\021\001\001\201\001\011\016\203"
 4939      BC811101 
 4939      01810109 
 4939      0E83
 4940 8f41 81111E81 		.ascii	"\201\021\036\201\241\017\036\2011|\016\015>\221\245"
 4940      A10F1E81 
 4940      317C0E0D 
 4940      3E91A5
 4941 8f50 E0880074 		.ascii	"\340\210\000t\022\005\213\036Lx\374\000\014t\350\000"
 4941      12058B1E 
 4941      4C78FC00 
 4941      0C74E800 
 4942 8f60 010A6084 		.ascii	"\001\012`\204\300\001d\000L\003\222c\000\004h\000\036"
 4942      C0016400 
 4942      4C039263 
 4942      00046800 
 4942      1E
 4943 8f71 15808440 		.ascii	"\025\200\204@\002\200\004\000\263\220\204\000\001\014"
 4943      02800400 
 4943      B3908400 
 4943      010C
 4944 8f7f 01C00C41 		.ascii	"\001\300\014A&\300\010^\005G\374W\366\373\374\020\012"
 4944      26C0085E 
 4944      0547FC57 
 4944      F6FBFC10 
 4944      0A
 4945 8f90 7EA486C5 		.ascii	"~\244\206\305\344\200\004\360dp\006\360\024\031\226"
 4945      E48004F0 
 4945      647006F0 
 4945      141996
 4946 8f9f 0B47B8E0 		.ascii	"\013G\270\340(\024\011\350\000\200\213`,\241\013(\002"
 4946      281409E8 
 4946      00808B60 
 4946      2CA10B28 
 4946      02
 4947 8fb0 400E8245 		.ascii	"@\016\202EB\006`.@\012\340\370\252\022\340\206\372\004"
 4947      4206602E 
 4947      400AE0F8 
 4947      AA12E086 
 4947      FA04
 4948 8fc2 40028111 		.ascii	"@\002\201\021\011\016\201\241\011\005\000\212\213\004"
 4948      090E81A1 
 4948      0905008A 
 4948      8B04
 4949 8fd0 14A0F43C 		.ascii	"\024\240\364<\002\366\004\004\014\345\200\000\200\000"
 4949      02F60404 
 4949      0CE58000 
 4949      8000
 4950 8fde 10068914 		.ascii	"\020\006\211\024\217\004\361\200@\262\360\200\000\004"
ARM GAS  C:\Temp\ccVQrAGa.s 			page 229


 4950      8F04F180 
 4950      40B2F080 
 4950      0004
 4951 8fec 82C5830D 		.ascii	"\202\305\203\015\004\360~\004\006\360\344\200\000\031"
 4951      04F07E04 
 4951      06F0E480 
 4951      0019
 4952 8ffa E470960B 		.ascii	"\344p\226\013`(\350\000D(\201\201\002\241\013\004\203"
 4952      6028E800 
 4952      44288181 
 4952      02A10B04 
 4952      83
 4953 900b F5E48004 		.ascii	"\365\344\200\004\360\006\360~\244\202\001\344p\340("
 4953      F006F07E 
 4953      A48201E4 
 4953      70E028
 4954 901a 1419960B 		.ascii	"\024\031\226\013\013\016\350\000C\310`,\024\011(\002"
 4954      0B0EE800 
 4954      43C8602C 
 4954      14092802 
 4955 902a 808B8245 		.ascii	"\200\213\202E\241\013`.@\016\340\370B\006\340\206@\012"
 4955      A10B602E 
 4955      400EE0F8 
 4955      4206E086 
 4955      400A
 4956 903c 4002AA12 		.ascii	"@\002\252\022\011\016\372\004\213\024\201\241\222s\015"
 4956      090EFA04 
 4956      8B1481A1 
 4956      92730D
 4957 904b 344E118F 		.ascii	"4N\021\217\004\300\002`\001l\000L\243L\003\2021\300"
 4957      04C00260 
 4957      016C004C 
 4957      A34C0382 
 4957      31C0
 4958 905d 01640962 		.ascii	"\001d\011b\001\022\013\0164@\001\301}\373\200\000\020"
 4958      01120B0E 
 4958      344001C1 
 4958      7DFB8000 
 4958      10
 4959 906e DC355201 		.ascii	"\3345R\001\344\004\300\002d\011\310\361|\004\362|\014"
 4959      E404C002 
 4959      6409C8F1 
 4959      7C04F27C 
 4959      0C
 4960 907f 0CC1C3DD 		.ascii	"\014\301\303\335\223\012D\210D\252C\351\004\201\001"
 4960      930A4488 
 4960      44AA43E9 
 4960      048101
 4961 908e 0043C34F 		.ascii	"\000C\303O\010N\335\223\214N\243\017\014\016\201\001"
 4961      084EDD93 
 4961      8C4EA30F 
 4961      0C0E8101 
 4962 909e 080EC1C3 		.ascii	"\010\016\301\303\335\223`<\002\011\241\013\200;@\226"
 4962      DD93603C 
 4962      0209A10B 
 4962      803B4096 
 4963 90ae 0665483A 		.ascii	"\006eH:\200\010@:\340\002\010D\341\002\202C\372\200"
ARM GAS  C:\Temp\ccVQrAGa.s 			page 230


 4963      8008403A 
 4963      E0020844 
 4963      E1028243 
 4963      FA80
 4964 90c0 EC700849 		.ascii	"\354p\010I\201\001I\015\206\023\202\245kq\002\031\364"
 4964      8101490D 
 4964      861382A5 
 4964      6B710219 
 4964      F4
 4965 90d1 1DC00546 		.ascii	"\035\300\005F\006\200\365FJ\340d\203\021d\204\201\021"
 4965      0680F546 
 4965      4AE06483 
 4965      11648481 
 4965      11
 4966 90e2 8045DD93 		.ascii	"\200E\335\223\210\026\000\004]\223\301\303\372\200\372"
 4966      88160004 
 4966      5D93C1C3 
 4966      FA80FA
 4967 90f1 7C040CEC 		.ascii	"|\004\014\3540\036\360\202\273\000{gq\020p\022p@\021"
 4967      301EF082 
 4967      BB007B67 
 4967      71107012 
 4967      704011
 4968 9104 C0036771 		.ascii	"\300\003gq\201\241>\276\201\001\001a\000\244\205%\004"
 4968      81A13EBE 
 4968      81010161 
 4968      00A48525 
 4968      04
 4969 9115 F07B807C 		.ascii	"\360{\200|X\344 \216\033o\374\241\033\221\030\037\375"
 4969      58E4208E 
 4969      1B6FFCA1 
 4969      1B91181F 
 4969      FD
 4970 9126 43FE5615 		.ascii	"C\376V\025\237\377\202\345\200\000E\376 \032\317\377"
 4970      9FFF82E5 
 4970      800045FE 
 4970      201ACFFF 
 4971 9136 7FFDFB80 		.ascii	"\177\375\373\200\014d\340\027\202a\254\036\264\037\304"
 4971      0C64E017 
 4971      8261AC1E 
 4971      B41FC4
 4972 9145 1DA414C0 		.ascii	"\035\244\024\300\000@\306\210\261\002\241\210\221\004"
 4972      0040C688 
 4972      B102A188 
 4972      9104
 4973 9153 81600114 		.ascii	"\201`\001\024\012\366\225\300\001\230\361>\024b\001"
 4973      0AF695C0 
 4973      0198F13E 
 4973      146201
 4974 9162 42630C0C 		.ascii	"Bc\014\014\300\001\335\223\362|\201\001]\223`8\000\031"
 4974      C001DD93 
 4974      F27C8101 
 4974      5D936038 
 4974      0019
 4975 9174 A11B8121 		.ascii	"\241\033\201!\000\000\002\026\200\010@\226\314*\206"
 4975      00000216 
 4975      80084096 
ARM GAS  C:\Temp\ccVQrAGa.s 			page 231


 4975      CC2A86
 4976 9183 25E02806 		.ascii	"%\340(\006\011|\300\010$HJ\342'\002\020f\206\001\012"
 4976      097CC008 
 4976      24484AE2 
 4976      27021066 
 4976      86010A
 4977 9196 EC0440C6 		.ascii	"\354\004@\306d@D*\340\000\010\006`\022\000\006\360\000"
 4977      6440442A 
 4977      E0000806 
 4977      60120006 
 4977      F000
 4978 91a8 422A8000 		.ascii	"B*\200\000BB\346\206\316,\361\204\340\020F\023\301\303"
 4978      4242E686 
 4978      CE2CF184 
 4978      E0104613 
 4978      C1C3
 4979 91ba DD93FA3C 		.ascii	"\335\223\372<\004\014\200\213\006k`8\014\011!\013\204"
 4979      040C808B 
 4979      066B6038 
 4979      0C09210B 
 4979      84
 4980 91cb 7B869581 		.ascii	"{\206\225\201\001\216\033\020\013\357\374x\350@\226"
 4980      018E1B10 
 4980      0BEFFC78 
 4980      E84096
 4981 91da 00AB140A 		.ascii	"\000\253\024\012\340\010\204E\342\244gq\022\200\216"
 4981      E0088445 
 4981      E2A46771 
 4981      12808E
 4982 91e9 1B40038C 		.ascii	"\033@\003\214+\022\013\357\374iHA&\000\213\241\213\340"
 4982      2B120BEF 
 4982      FC694841 
 4982      26008BA1 
 4982      8BE0
 4983 91fb 0C9C0050 		.ascii	"\014\234\000P\240\343\310\020\012\014\014\200\225\335"
 4983      A0E3C810 
 4983      0A0C0C80 
 4983      95DD
 4984 9209 93F23C8E 		.ascii	"\223\362<\216\033\022\013o\374dH\241\013\214+\334\000"
 4984      1B120B6F 
 4984      FC6448A1 
 4984      0B8C2BDC 
 4984      00
 4985 921a 50000C0C 		.ascii	"P\000\014\014\220\013\335\223\362<\372\000\000L\341"
 4985      900BDD93 
 4985      F23CFA00 
 4985      004CE1
 4986 9229 001E0661 		.ascii	"\000\036\006a\234\000Ff8\203\021\301\303\357\270\372"
 4986      9C004666 
 4986      388311C1 
 4986      C3EFB8FA 
 4987 9239 0C040C80 		.ascii	"\014\004\014\200k\002{`<A\366s\330\201\021\201\201o"
 4987      6B027B60 
 4987      3C41F673 
 4987      D8811181 
 4987      816F
 4988 924b BC600042 		.ascii	"\274`\000Bvb\230\214\013~\330\350$\214\013h\014\341"
ARM GAS  C:\Temp\ccVQrAGa.s 			page 232


 4988      7662988C 
 4988      0B7ED8E8 
 4988      248C0B68 
 4988      0CE1
 4989 925d 3C008680 		.ascii	"<\000\206\200\030\200\004\361\374B\020\000\306\000\026"
 4989      188004F1 
 4989      FC421000 
 4989      C60016
 4990 926c 8004E144 		.ascii	"\200\004\341D\001\206\000\206\200\004\341D@F\000\206"
 4990      01860086 
 4990      8004E144 
 4990      40460086 
 4991 927c 8004E144 		.ascii	"\200\004\341D@F\000\206\014+\357\334\300\025n\011s\365"
 4991      40460086 
 4991      0C2BEFDC 
 4991      C0156E09 
 4991      73F5
 4992 928e 4220444A 		.ascii	"B DJ@\377L\023\340\230\300\025n\011\370p\0009\363\354"
 4992      40FF4C13 
 4992      E098C015 
 4992      6E09F870 
 4992      0039F3EC 
 4993 92a2 4430F870 		.ascii	"D0\370p@!L\201\204E@+l!s\371B\020L\023\300\377\300\025"
 4993      40214C81 
 4993      8445402B 
 4993      6C2173F9 
 4993      42104C13 
 4994 92ba 6E09F820 		.ascii	"n\011\370 @\201\370\020\000\031\363\370B\020\370\020"
 4994      4081F810 
 4994      0019F3F8 
 4994      4210F810 
 4995 92ca 40114210 		.ascii	"@\021B\020\200\030\200\026\363\370B\020\200\030\200"
 4995      80188016 
 4995      F3F84210 
 4995      801880
 4996 92d9 16F3F4F8 		.ascii	"\026\363\364\3700\000\031@\021\310\031@\201\3700\000"
 4996      30001940 
 4996      11C81940 
 4996      81F83000 
 4997 92e9 09E03040 		.ascii	"\011\3400@\012\3700\202\345\340\210C\366\034\004\377"
 4997      0AF83082 
 4997      E5E08843 
 4997      F61C04FF 
 4998 92f9 C06FFD02 		.ascii	"\300o\375\002\016\002\017@\000\360\000\303\000|\001"
 4998      0E020F40 
 4998      00F000C3 
 4998      007C01
 4999 9308 9C049C0E 		.ascii	"\234\004\234\016\234\016\202\017n\015\014\011\243\013"
 4999      9C0E820F 
 4999      6E0D0C09 
 4999      A30B
 5000 9316 C0360C09 		.ascii	"\3006\014\011\204\025\3008c\021A\306\243\013\000 \022"
 5000      8415C038 
 5000      631141C6 
 5000      A30B0020 
 5000      12
 5001 9327 FD000102 		.ascii	"\375\000\001\002\006L\201\277\301\2008\003\021\200\000"
ARM GAS  C:\Temp\ccVQrAGa.s 			page 233


 5001      064C81BF 
 5001      C1803803 
 5001      118000
 5002 9336 40156800 		.ascii	"@\025h\000_\250B\206\214\013\214\013`\000\350$[\010"
 5002      5FA84286 
 5002      8C0B8C0B 
 5002      6000E824 
 5002      5B08
 5003 9348 EFFC76E8 		.ascii	"\357\374v\350\372\000\004\014\213\021\000k\350(V\210"
 5003      FA00040C 
 5003      8B11006B 
 5003      E8285688 
 5004 9358 612400C6 		.ascii	"a$\000\306\340\000B\006L\021\200\004@+l\035\000\026"
 5004      E0004206 
 5004      4C118004 
 5004      402B6C1D 
 5004      0016
 5005 936a 8111E13C 		.ascii	"\201\021\341<\000\206\200\030\200\004\361\374B\020@"
 5005      00868018 
 5005      8004F1FC 
 5005      421040
 5006 9379 06001680 		.ascii	"\006\000\026\200\010\357\334\340\200@\012\016\011\014"
 5006      08EFDCE0 
 5006      80400A0E 
 5006      090C
 5007 9387 0B4000C0 		.ascii	"\013@\000\300\025\300\377\023}\016\011L\003\214\013"
 5007      15C0FF13 
 5007      7D0E094C 
 5007      038C0B
 5008 9396 4015E800 		.ascii	"@\025\350\000\\\250\350\000\\\010aD@F\200\004\205\021"
 5008      5CA8E800 
 5008      5C086144 
 5008      40468004 
 5008      8511
 5009 93a8 01860016 		.ascii	"\001\206\000\026\200\004\341D\000\306\000\026\200\004"
 5009      8004E144 
 5009      00C60016 
 5009      8004
 5010 93b6 E1440C09 		.ascii	"\341D\014\011\200\026\300+l!\354\004\002\000\204\225"
 5010      8016C02B 
 5010      6C21EC04 
 5010      02008495 
 5011 93c6 E71DEC2C 		.ascii	"\347\035\354,\002\000\204\265\347\035\354\020\002\000"
 5011      020084B5 
 5011      E71DEC10 
 5011      0200
 5012 93d4 84D5E51D 		.ascii	"\204\325\345\035\206%\255\013\206e\263\013\206\265\265"
 5012      8625AD0B 
 5012      8665B30B 
 5012      86B5B5
 5013 93e3 0B0C0C8C 		.ascii	"\013\014\014\214\013 X\362\000\214\013\340X\362\000"
 5013      0B2058F2 
 5013      008C0BE0 
 5013      58F200
 5014 93f2 0C0CE040 		.ascii	"\014\014\340@5H\014\014\214\013\0108\362\000\214\013"
 5014      35480C0C 
 5014      8C0B0838 
ARM GAS  C:\Temp\ccVQrAGa.s 			page 234


 5014      F2008C0B 
 5015 9402 E054F200 		.ascii	"\340T\362\000\014\014\340L\020\310\014\014\214\013\205"
 5015      0C0CE04C 
 5015      10C80C0C 
 5015      8C0B85
 5016 9411 B5F2000C 		.ascii	"\265\362\000\014\014\214\013\205u\362\000\014\014\201"
 5016      0C8C0B85 
 5016      75F2000C 
 5016      0C81
 5017 941f 01DD93F2 		.ascii	"\001\335\223\362\000\372\000\004\014\201\021\001\001"
 5017      00FA0004 
 5017      0C811101 
 5017      01
 5018 942c 68207DA8 		.ascii	"h }\250\003F\201a\2031aL\0106\204$\341\024D\306\220"
 5018      03468161 
 5018      8331614C 
 5018      08368424 
 5018      E11444C6 
 5019 9441 36884408 		.ascii	"6\210D\010f\210$\204\024\207!\203\021\004&\362\000\014"
 5019      66882484 
 5019      14872183 
 5019      110426F2 
 5019      000C
 5020 9453 0CE0203C 		.ascii	"\014\340 <ha\024@\306\200\004\203\021\301\203\200\026"
 5020      68611440 
 5020      C6800483 
 5020      11C18380 
 5020      16
 5021 9464 DD93C713 		.ascii	"\335\223\307\023\372<\004\014\014\011\200k"
 5021      FA3C040C 
 5021      0C09806B 
 5022 9470 C02B6C21 		.ascii	"\300+l!@\226\263\013L\001\200\000\200+\014\035@f\202"
 5022      4096B30B 
 5022      4C018000 
 5022      802B0C1D 
 5022      406682
 5023 9483 254C01E0 		.ascii	"%L\001\340\000@+l\035Ax\214\013@\370\350P\214\013h\030"
 5023      00402B6C 
 5023      1D41788C 
 5023      0B40F8E8 
 5023      508C0B68 
 5024 9498 61D10C09 		.ascii	"a\321\014\011\200{@\025ly\014\031@\012\300,\202\001"
 5024      807B4015 
 5024      6C790C19 
 5024      400AC02C 
 5024      8201
 5025 94aa E68667F9 		.ascii	"\346\206g\371\000\212A\326\300\003\016f\000<\000\004"
 5025      008A41D6 
 5025      C0030E66 
 5025      003C0004 
 5026 94ba 8004A17B 		.ascii	"\200\004\241{Z\200f1L\003\202E\300\026l\035\014)\214"
 5026      5A806631 
 5026      4C038245 
 5026      C0166C1D 
 5026      0C298C
 5027 94cd 0B402B68 		.ascii	"\013@+h\014pH\241\013\216\033G\270\230u\214\013hDl!"
 5027      0C7048A1 
ARM GAS  C:\Temp\ccVQrAGa.s 			page 235


 5027      0B8E1B47 
 5027      B898758C 
 5027      0B68446C 
 5028 94e2 0C09807B 		.ascii	"\014\011\200{@+\210U\263\013\222\325\241{h<r\310\000"
 5028      402B8855 
 5028      B30B92D5 
 5028      A17B683C 
 5028      72C800
 5029 94f5 7B8C0BE1 		.ascii	"{\214\013\3414A\006\002\226\000\004L\021\340\004\300"
 5029      34410602 
 5029      9600044C 
 5029      11E004C0 
 5030 9505 2B6C1D00 		.ascii	"+l\035\000\016\000\026\014\031\377\370\300,l\375\343"
 5030      0E00160C 
 5030      19FFF8C0 
 5030      2C6CFDE3 
 5031 9515 F0020AC4 		.ascii	"\360\002\012\304\004\000\020l\375L\001\214\013@,\350"
 5031      0400106C 
 5031      FD4C018C 
 5031      0B402CE8 
 5032 9525 044BE88C 		.ascii	"\004K\350\214\025\241{!{\207\205\340\000@fl\035L\001"
 5032      15A17B21 
 5032      7B8785E0 
 5032      0040666C 
 5032      1D4C01
 5033 9538 8A15C02B 		.ascii	"\212\025\300+aLUFf\340\020`(\004\300\243ga\022`\002"
 5033      614C5546 
 5033      66E01060 
 5033      2804C0A3 
 5033      67611260 
 5034 954d 60C09F40 		.ascii	"`\300\237@Te\301eA\004`\006`\300T@Tf\321^\330\220K\222"
 5034      5465C165 
 5034      41046006 
 5034      60C05440 
 5034      5466D15E 
 5035 9565 5B6FC0A1 		.ascii	"[o\300\241{\200{(\004\202\365f1\002`\010`\300\255@\241"
 5035      7B807B28 
 5035      0482F566 
 5035      31026008 
 5035      60C0AD40 
 5036 957a 64716178 		.ascii	"dqax\220+\222;o\300\241{\200{\014)\202\345@+l\035j8"
 5036      902B923B 
 5036      6FC0A17B 
 5036      807B0C29 
 5036      82E5402B 
 5037 9592 8C0B8E1B 		.ascii	"\214\013\216\033h\014\200U\241\013\216\013\201q\362"
 5037      680C8055 
 5037      A10B8E0B 
 5037      8171F2
 5038 95a1 3C0C0C28 		.ascii	"<\014\014(\004\335\223d\201\004`\006`\300\231@\242e"
 5038      04DD9364 
 5038      81046006 
 5038      60C09940 
 5038      A265
 5039 95b3 2150D890 		.ascii	"!P\330\220\033s\225\357\370\301\303\200{dQ\000\212\200"
 5039      1B7395EF 
 5039      F8C1C380 
ARM GAS  C:\Temp\ccVQrAGa.s 			page 236


 5039      7B645100 
 5039      8A80
 5040 95c5 F5C00361 		.ascii	"\365\300\003a\030\001F\200\004\207\021\335\223\200\026"
 5040      18014680 
 5040      048711DD 
 5040      938016
 5041 95d4 6439008A 		.ascii	"d9\000\212\200\365\300\002a\030\001F\200\004\205\021"
 5041      80F5C002 
 5041      61180146 
 5041      80048511 
 5042 95e4 DD938016 		.ascii	"\335\223\200\026a\030\003Fd\030\001J\204\024\300\001"
 5042      61180346 
 5042      6418014A 
 5042      8414C001 
 5043 95f4 E200000C 		.ascii	"\342\000\000\014\335\223\204\006fa\002\212\003\006\300"
 5043      DD938406 
 5043      6661028A 
 5043      0306C0
 5044 9603 03046601 		.ascii	"\003\004f\001\004\002\025\200\000\206\305\200\000d\231"
 5044      04021580 
 5044      0086C580 
 5044      006499
 5045 9612 028A0306 		.ascii	"\002\212\003\006\300\003\004V\001\004\002\025\200\000"
 5045      C0030456 
 5045      01040215 
 5045      8000
 5046 9620 84858000 		.ascii	"\204\205\200\000f\311\002\212\003\006\300\002\004F\001"
 5046      66C9028A 
 5046      0306C002 
 5046      044601
 5047 962f 04021580 		.ascii	"\004\002\025\200\000\202E\200\000d\225\003\012\003\006"
 5047      00824580 
 5047      00649503 
 5047      0A0306
 5048 963e 40020414 		.ascii	"@\002\004\024\341\004\004&\207!\004&\200\000\341\004"
 5048      E1040426 
 5048      87210426 
 5048      8000E104 
 5049 964e 03068418 		.ascii	"\003\006\204\030\204\024ey@\021\335\223\300+\003\012"
 5049      84146579 
 5049      4011DD93 
 5049      C02B030A 
 5050 965e C417C00F 		.ascii	"\304\027\300\017f\201\002\212\206\365\300\017d\365\001"
 5050      6681028A 
 5050      86F5C00F 
 5050      64F501
 5051 966d 0402C680 		.ascii	"\004\002\306\200\000\004\006\200\000\002\025\002\212"
 5051      00040680 
 5051      00021502 
 5051      8A
 5052 967a 8485C00C 		.ascii	"\204\205\300\014f\315\001\004\002\306\200\000\004\026"
 5052      66CD0104 
 5052      02C68000 
 5052      0416
 5053 9688 80000215 		.ascii	"\200\000\002\025\003\012\202E@\012d\241\341\004\002"
 5053      030A8245 
 5053      400A64A1 
ARM GAS  C:\Temp\ccVQrAGa.s 			page 237


 5053      E10402
 5054 9697 C6852104 		.ascii	"\306\205!\004\024\200\000\0046\002\306\204&\204\024"
 5054      14800004 
 5054      3602C684 
 5054      268414
 5055 96a6 E1044011 		.ascii	"\341\004@\021\204\030\300+eu\301\303\335\223\341\030"
 5055      8418C02B 
 5055      6575C1C3 
 5055      DD93E118 
 5056 96b6 05868828 		.ascii	"\005\206\210(\210$\000\025\241+\000\011\016\015\301"
 5056      88240015 
 5056      A12B0009 
 5056      0E0DC1
 5057 96c5 180546C0 		.ascii	"\030\005F\300\000\004%\201\260\002\024@\000\004)\204"
 5057      00042581 
 5057      B0021440 
 5057      00042984 
 5058 96d5 040210C4 		.ascii	"\004\002\020\304\004\004 \300\012B\032n\001@\023\335"
 5058      040420C0 
 5058      0A421A6E 
 5058      014013DD 
 5059 96e5 93C015E1 		.ascii	"\223\300\025\341$\001F\204(\200\024\363\370D C\006\004"
 5059      24014684 
 5059      288014F3 
 5059      F8442043 
 5059      0604
 5060 96f7 268414E1 		.ascii	"&\204\024\341\024\004$\204(\204&\374\224\204(\200\024"
 5060      14042484 
 5060      288426FC 
 5060      94842880 
 5060      14
 5061 9708 F3F44420 		.ascii	"\363\364D \200\004\204&B\020\200\030\200\026\363\314"
 5061      80048426 
 5061      42108018 
 5061      8016F3CC 
 5062 9718 C1C3DD93 		.ascii	"\301\303\335\223\341$\001F\200\030\200\004\200\026\302"
 5062      E1240146 
 5062      80188004 
 5062      8016C2
 5063 9727 19C1C3DD 		.ascii	"\031\301\303\335\223\372\374\004\014\000&\000kL\001"
 5063      93FAFC04 
 5063      0C002600 
 5063      6B4C01
 5064 9736 E00C402B 		.ascii	"\340\014@+l\035e\030\201\001\201\021h o\251\014\025"
 5064      6C1D6518 
 5064      81018111 
 5064      68206FA9 
 5064      0C15
 5065 9748 251BC00B 		.ascii	"%\033\300\013\341$\003F\202E\204$BJ\210\030\200\305"
 5065      E1240346 
 5065      82458424 
 5065      424A8818 
 5065      80C5
 5066 975a E0800C0C 		.ascii	"\340\200\014\014\203\021#\370\362\374>\016\340 \210"
 5066      831123F8 
 5066      F2FC3E0E 
 5066      E02088
ARM GAS  C:\Temp\ccVQrAGa.s 			page 238


 5067 9769 188C0BF3 		.ascii	"\030\214\013\363\370B\020\002\206\010\026ux\340\014"
 5067      F8421002 
 5067      86081675 
 5067      78E00C
 5068 9778 81216850 		.ascii	"\201!hPaD\020\306\341HS\206\377\241 \004\341$WF\307"
 5068      614410C6 
 5068      E1485386 
 5068      FFA12004 
 5068      E1245746 
 5069 978d 078008F0 		.ascii	"\007\200\010\360\004N\000\200\305\241{o\251\014\005"
 5069      044E0080 
 5069      C5A17B6F 
 5069      A90C05
 5070 979c A50BC00B 		.ascii	"\245\013\300\013\244\004\202\325\224\015\200\000\014"
 5070      A40482D5 
 5070      940D8000 
 5070      0C
 5071 97a9 29840540 		.ascii	")\204\005@+l\035\340\014\002\226h\014Y(\201\225\214"
 5071      2B6C1DE0 
 5071      0C029668 
 5071      0C592881 
 5071      958C
 5072 97bb 0B8008A0 		.ascii	"\013\200\010\240\004\001U\307\007\360\004N\000\357\374"
 5072      040155C7 
 5072      07F0044E 
 5072      00EFFC
 5073 97ca 52E88004 		.ascii	"R\350\200\004\254\004\3705\241\013\203\021>\004\362"
 5073      AC04F835 
 5073      A10B8311 
 5073      3E04F2
 5074 97d9 FC0C0CE0 		.ascii	"\374\014\014\340  (\372\374\004\014\0006\000{N\001\340"
 5074      202028FA 
 5074      FC040C00 
 5074      36007B4E 
 5074      01E0
 5075 97eb 0C402B6C 		.ascii	"\014@+l\035_x\201\001\201\021h >\016\201\201\341$\001"
 5075      1D5F7881 
 5075      01811168 
 5075      203E0E81 
 5075      81E12401 
 5076 97ff C6554600 		.ascii	"\306UF\000\004\200\206\341$\200d\250\004\216\013\000"
 5076      048086E1 
 5076      248064A8 
 5076      048E0B00 
 5077 980f 14E82074 		.ascii	"\024\350 t\250C\246\003\221\003!\340\014p8\216\013A"
 5077      A843A603 
 5077      910321E0 
 5077      0C70388E 
 5077      0B41
 5078 9821 86E85080 		.ascii	"\206\350P\200\024\341\024\003F\004\214\204\024\341$"
 5078      14E11403 
 5078      46048C84 
 5078      14E124
 5079 9830 C4298428 		.ascii	"\304)\204(CF\004&\004\024\341\030\204\270\203!\002\306"
 5079      43460426 
 5079      0414E118 
 5079      84B88321 
ARM GAS  C:\Temp\ccVQrAGa.s 			page 239


 5079      02C6
 5080 9842 04868414 		.ascii	"\004\206\204\024\341$\002\206\004\226\200\004\340\014"
 5080      E1240286 
 5080      04968004 
 5080      E00C
 5081 9850 8E0B009C 		.ascii	"\216\013\000\234\350Pn\210a$\001\306\200\004\251\021"
 5081      E8506E88 
 5081      612401C6 
 5081      8004A911 
 5082 9860 8E0B0096 		.ascii	"\216\013\000\226\350 r\010`\014\002\206m\270\201!\216"
 5082      E8207208 
 5082      600C0286 
 5082      6DB88121 
 5082      8E
 5083 9871 0B6850E1 		.ascii	"\013hP\341D\000\306\200\010\200\004R\000\307\007\022"
 5083      4400C680 
 5083      08800452 
 5083      00C70712 
 5084 9881 0AF00480 		.ascii	"\012\360\004\200\305\373\374o\251\016\005\243\013\300"
 5084      C5FBFC6F 
 5084      A90E05A3 
 5084      0BC0
 5085 988f 0B01C686 		.ascii	"\013\001\306\206\265\200\004\341$AF\000\206\200\004"
 5085      B58004E1 
 5085      24414600 
 5085      868004
 5086 989e E11800C6 		.ascii	"\341\030\000\306\000\266\200\004\341$\001F\000\206\200"
 5086      00B68004 
 5086      E1240146 
 5086      008680
 5087 98ad 04E12442 		.ascii	"\004\341$B\020\200\030\000\026\363\364\340\014\002\246"
 5087      10801800 
 5087      16F3F4E0 
 5087      0C02A6
 5088 98bc 6C1D0E29 		.ascii	"l\035\016)\216\013@+\350\014P\250\000\306\201\205\200"
 5088      8E0B402B 
 5088      E80C50A8 
 5088      00C68185 
 5088      80
 5089 98cd 04E144C7 		.ascii	"\004\341D\307\007\200\010\360\004R\000\200\004\250\004"
 5089      078008F0 
 5089      04520080 
 5089      04A804
 5090 98dc F445816B 		.ascii	"\364E\201k\216\013+\021\350 n\010\000\024\250\004m\270"
 5090      8E0B2B11 
 5090      E8206E08 
 5090      0014A804 
 5090      6DB8
 5091 98ee 8E0B01C6 		.ascii	"\216\013\001\306\350 \200\004\341$AF\000\206\200\004"
 5091      E8208004 
 5091      E1244146 
 5091      00868004 
 5092 98fe E11800C6 		.ascii	"\341\030\000\306\000\266\200\004\341$\001F\000\206\200"
 5092      00B68004 
 5092      E1240146 
 5092      008680
 5093 990d 04E12442 		.ascii	"\004\341$B\020\200\030\000\026\363\364\276\004\203\021"
ARM GAS  C:\Temp\ccVQrAGa.s 			page 240


 5093      10801800 
 5093      16F3F4BE 
 5093      048311
 5094 991c F2FC0C0C 		.ascii	"\362\374\014\014\340 \026\010p\001\000\006\002\006@"
 5094      E0201608 
 5094      70010006 
 5094      020640
 5095 992b 20FFC060 		.ascii	" \377\300`\001\335\223\200\036\372\014\004\014\200\213"
 5095      01DD9380 
 5095      1EFA0C04 
 5095      0C808B
 5096 993a 027B8101 		.ascii	"\002{\201\001\004kh U\010C\206\201\021I\306aH\004$\341"
 5096      046B6820 
 5096      55084386 
 5096      811149C6 
 5096      61480424 
 5097 994f 48700102 		.ascii	"Hp\001\002\006\0044\300 \210X\241\213\010H\220$`\001"
 5097      060434C0 
 5097      208858A1 
 5097      8B084890 
 5097      246001
 5098 9962 04060CC9 		.ascii	"\004\006\014\311\377\300@+l\031\246_\204?`\307\320G"
 5098      FFC0402B 
 5098      6C19A65F 
 5098      843F60C7 
 5098      D047
 5099 9974 4652A85F 		.ascii	"FR\250_\014I\371\260\300,\014\375\300\340\010DD\"\000"
 5099      0C49F9B0 
 5099      C02C0CFD 
 5099      C0E00844 
 5099      442200
 5100 9987 B5A17BD0 		.ascii	"\265\241{\320\220I\376\200\305\300?\177\375\244?\210"
 5100      9049FE80 
 5100      C5C03F7F 
 5100      FDA43F88 
 5101 9997 3F831104 		.ascii	"?\203\021\004>\362\014\014\014\340 \022\010\372\374"
 5101      3EF20C0C 
 5101      0CE02012 
 5101      08FAFC
 5102 99a6 040C5006 		.ascii	"\004\014P\006\000k\014\011\341\240@-g\315 \236\201\221"
 5102      006B0C09 
 5102      E1A0402D 
 5102      67CD209E 
 5102      8191
 5103 99b8 E14C05C6 		.ascii	"\341L\005\306\340\200@\012\300\000\000\026\014\365L"
 5103      E080400A 
 5103      C0000016 
 5103      0CF54C
 5104 99c7 01400640 		.ascii	"\001@\006@,\200\004\341L\210\004\200t\341\340\026t\340"
 5104      2C8004E1 
 5104      4C880480 
 5104      74E1E016 
 5104      74E0
 5105 99d9 E014B4FC 		.ascii	"\340\024\264\374\300\002\244\000t\000\036\010\024\341"
 5105      C002A400 
 5105      74001E08 
 5105      14E1
ARM GAS  C:\Temp\ccVQrAGa.s 			page 241


 5106 99e7 C0FCC404 		.ascii	"\300\374\304\004\244\360\020\000\012\224\005\204.\360"
 5106      A4F01000 
 5106      0A940584 
 5106      2EF0
 5107 99f5 08000A00 		.ascii	"\010\000\012\000\012\230\205\252e\360\014\360\004\000"
 5107      0A9885AA 
 5107      65F00CF0 
 5107      0400
 5108 9a03 0A400013 		.ascii	"\012@\000\023h\301L\027\306\002V\004\253n\330\340\020"
 5108      68C14C17 
 5108      C6025604 
 5108      AB6ED8E0 
 5108      10
 5109 9a14 8C0B6820 		.ascii	"\214\013h a\230\005F\373\200\000tr\375I\306\002\006"
 5109      61980546 
 5109      FB800074 
 5109      72FD49C6 
 5109      0206
 5110 9a26 4020C020 		.ascii	"@ \300 s\001@\022 C \024\361\200\341L\027\306\205U\210"
 5110      73014012 
 5110      20432014 
 5110      F180E14C 
 5110      17C68555 
 5111 9a3b 2A6C080A 		.ascii	"*l\010\012@w]\200{\341\220\0124s\375JP\010\026@\017"
 5111      40775D80 
 5111      7BE1900A 
 5111      3473FD4A 
 5111      50081640 
 5112 9a50 484A8000 		.ascii	"HJ\200\000\3417f\226J0\2043A\377s\361\006\000\305G\202"
 5112      E1376696 
 5112      4A308433 
 5112      41FF73F1 
 5112      0600C547 
 5113 9a65 53641088 		.ascii	"Sd\020\210\313\001e\030\300]\204\325\216\354\004\376"
 5113      CB016518 
 5113      C05D84D5 
 5113      8EEC04FE 
 5114 9a75 75A1CBE0 		.ascii	"u\241\313\340\210\012Dp\224H\002\360\224@2H0\2204\277"
 5114      880A4470 
 5114      944802F0 
 5114      94403248 
 5114      309034BF 
 5115 9a89 4BF03C1F 		.ascii	"K\360<\037\025\366\025\002V\224+\214\013`\200h j\250"
 5115      15F61502 
 5115      56942B8C 
 5115      0B608068 
 5115      206AA8
 5116 9a9c 0C0B847B 		.ascii	"\014\013\204{@\025n\011\341L\027\306@\000\254\024\300"
 5116      40156E09 
 5116      E14C17C6 
 5116      4000AC14 
 5116      C0
 5117 9aad FF72F16E 		.ascii	"\377r\361n\011L\003\214\013@\025\357\370|\010\216+\033"
 5117      094C038C 
 5117      0B4015EF 
 5117      F87C088E 
 5117      2B1B
ARM GAS  C:\Temp\ccVQrAGa.s 			page 242


 5118 9abf A502563E 		.ascii	"\245\002V>.i8\340 \214\013h {\200\000tr\374C\306@\022"
 5118      2E6938E0 
 5118      208C0B68 
 5118      207B8000 
 5118      7472FC43 
 5119 9ad6 C0200246 		.ascii	"\300 \002Fq\200\300 r\300\004\020\0004\011\221\344\000"
 5119      7180C020 
 5119      72C00410 
 5119      00340991 
 5119      E400
 5120 9ae8 17C68811 		.ascii	"\027\306\210\021\010>\341L\341\230\005F\010\312\205"
 5120      083EE14C 
 5120      E1980546 
 5120      08CA85
 5121 9af7 A5EC080A 		.ascii	"\245\354\010\012@\0124w]JP\341\220@\017s\375\200\000"
 5121      400A3477 
 5121      5D4A50E1 
 5121      90400F73 
 5121      FD8000
 5122 9b0a 08166696 		.ascii	"\010\026f\226HJ t\3417F\300\206\303A\377s\361\341\210"
 5122      484A2074 
 5122      E13746C0 
 5122      86C341FF 
 5122      73F1E188 
 5123 9b1e 0A448ACB 		.ascii	"\012D\212\313\010\001\202{\0163M\244\201U\354\004\030"
 5123      0801827B 
 5123      0E334DA4 
 5123      8155EC04 
 5123      18
 5124 9b2f C0A1CBDD 		.ascii	"\300\241\313\335\256\0004\376u\373\200\030\224\210\303"
 5124      AE0034FE 
 5124      75FB8018 
 5124      9488C3
 5125 9b3e 445712C0 		.ascii	"DW\022\300\012\023\305>\344\020\360<H0\364\225\277K"
 5125      0A13C53E 
 5125      E410F03C 
 5125      4830F495 
 5125      BF4B
 5126 9b50 91F5BE24 		.ascii	"\221\365\276$`@\002Vd\230\214\013L\221\350 @8d\305J"
 5126      60400256 
 5126      64988C0B 
 5126      4C91E820 
 5126      403864C5 
 5127 9b65 588C0B45 		.ascii	"X\214\013E\330\350\000\014\013\357\374@\025n\011\377"
 5127      D8E8000C 
 5127      0BEFFC40 
 5127      156E09FF 
 5128 9b75 FC03EEE8 		.ascii	"\374\003\356\350\000\016\012B\000\202\017@\000|\004"
 5128      000E0A42 
 5128      00820F40 
 5128      007C04
 5129 9b84 4C13FD04 		.ascii	"L\023\375\004@\025n\011\341\230\003\206L\003\204\236"
 5129      40156E09 
 5129      E1980386 
 5129      4C03849E 
 5130 9b94 40156E09 		.ascii	"@\025n\011\373\200\000tb\345L\261\027\306@\025\216\005"
 5130      FB800074 
ARM GAS  C:\Temp\ccVQrAGa.s 			page 243


 5130      62E54CB1 
 5130      17C64015 
 5130      8E05
 5131 9ba6 E14C72FD 		.ascii	"\341Lr\375I\306\005F@ \002\006\341\230@ s\001 \024\240"
 5131      49C60546 
 5131      40200206 
 5131      E1984020 
 5131      73012014 
 5132 9bbb 43F18040 		.ascii	"C\361\200@\022\205U\210*l\010\012@w]\200{\341\220\012"
 5132      12855588 
 5132      2A6C080A 
 5132      40775D80 
 5132      7BE1900A 
 5133 9bcf 3473FD4A 		.ascii	"4s\375JP\010\026@\017HJ\200\000\3417f\226J0\2043A\377"
 5133      50081640 
 5133      0F484A80 
 5133      00E13766 
 5133      964A3084 
 5134 9be6 73F10600 		.ascii	"s\361\006\000\305G\202Sd\020\210\313\001e\030\300]\224"
 5134      C5478253 
 5134      641088CB 
 5134      016518C0 
 5134      5D94
 5135 9bf8 D59EEC04 		.ascii	"\325\236\354\004\376u\241\313\340\210\012Dp\224H\002"
 5135      FE75A1CB 
 5135      E0880A44 
 5135      70944802 
 5136 9c08 F0944032 		.ascii	"\360\224@2H0\2204\277K\360<\014\031\366\025@\025be\341"
 5136      48309034 
 5136      BF4BF03C 
 5136      0C19F615 
 5136      40156265 
 5137 9c1d 4C004688 		.ascii	"L\000F\210\031\200\004D \200(\242/\363\354\014\011\200"
 5137      19800444 
 5137      208028A2 
 5137      2FF3EC0C 
 5137      0980
 5138 9c2f 26C02B64 		.ascii	"&\300+d\305l!L\001\214\013@+\350\000E\210"
 5138      C56C214C 
 5138      018C0B40 
 5138      2BE80045 
 5138      88
 5139 9c40 00602044 		.ascii	"\000` D\300Te\001{\200\004\004\031\021\201\001r\301"
 5139      C0546501 
 5139      7B800404 
 5139      19118101 
 5139      72C1
 5140 9c52 06464F58 		.ascii	"\006FOX\300 ,\024\350\000\000.\237!|QN\240\204~\303"
 5140      C0202C14 
 5140      E800002E 
 5140      9F217C51 
 5140      4EA0847E 
 5141 9c67 00EFF86D 		.ascii	"\000\357\370m\350\251\221\016+`\001\002\006\000\224"
 5141      E8A9910E 
 5141      2B600102 
 5141      060094
 5142 9c76 7FC02C24 		.ascii	"\177\300,$\373\200\240\037\204\037|\001@\020\210\016"
ARM GAS  C:\Temp\ccVQrAGa.s 			page 244


 5142      FB80A01F 
 5142      841F7C01 
 5142      4010880E 
 5143 9c86 C30067CD 		.ascii	"\303\000g\315\014\011@\012\300-\200\345\340\200l\021"
 5143      0C09400A 
 5143      C02D80E5 
 5143      E0806C11 
 5144 9c96 0C09400A 		.ascii	"\014\011@\012\300+\200\225\340\230\362\374\014\014\214"
 5144      C02B8095 
 5144      E098F2FC 
 5144      0C0C8C
 5145 9ca5 0BDD93F2 		.ascii	"\013\335\223\362\374\014\014\301\303\237\245\372\000"
 5145      FC0C0CC1 
 5145      C39FA5FA 
 5145      00
 5146 9cb2 040C4186 		.ascii	"\004\014A\206\000k\200\024\341HD \204(\204&\363\274"
 5146      006B8014 
 5146      E1484420 
 5146      84288426 
 5146      F3BC
 5147 9cc4 84288014 		.ascii	"\204(\200\024\363|D \200\004\204&B\020\200\030\200\026"
 5147      F37C4420 
 5147      80048426 
 5147      42108018 
 5147      8016
 5148 9cd6 F1FCEFF8 		.ascii	"\361\374\357\370zh\203\021\001\001\014\014\214+\"x\362"
 5148      7A688311 
 5148      01010C0C 
 5148      8C2B2278 
 5148      F2
 5149 9ce7 00C1C3FF 		.ascii	"\000\301\303\377\374\370\034\004\014aA\000\031\010\000"
 5149      FCF81C04 
 5149      0C614100 
 5149      190800
 5150 9cf6 4015C0D9 		.ascii	"@\025\300\331f\001aE\000)\012\000@\025\300\331e\301"
 5150      66016145 
 5150      00290A00 
 5150      4015C0D9 
 5150      65C1
 5151 9d08 62110039 		.ascii	"b\021\0009\221\301@\025\201q\001a\346\206D*b\035\000"
 5151      91C14015 
 5151      81710161 
 5151      E686442A 
 5151      621D00
 5152 9d1b 194021C0 		.ascii	"\031@!\300\025@\025c\011@1\201!\300\025c\015\006\020"
 5152      15401563 
 5152      09403181 
 5152      21C01563 
 5152      0D0610
 5153 9d2e 07C50C4A 		.ascii	"\007\305\014J\344@\014\032\340\000@\012\370|\012P\341"
 5153      E4400C1A 
 5153      E000400A 
 5153      F87C0A50 
 5153      E1
 5154 9d3f 840E0604 		.ascii	"\204\016\006\004\020\224\204\200\000P\012Q\204\202%"
 5154      10948480 
 5154      00500A51 
ARM GAS  C:\Temp\ccVQrAGa.s 			page 245


 5154      848225
 5155 9d4e E49C6C34 		.ascii	"\344\234l4\022\200\022\332\241\213B\012\344\010\200"
 5155      128012DA 
 5155      A18B420A 
 5155      E40880
 5156 9d5d 95ED8082 		.ascii	"\225\355\200\202a\002q\277\213\205\005\241k\210%\000"
 5156      610271BF 
 5156      8B8505A1 
 5156      6B882500 
 5157 9d6d 958245C0 		.ascii	"\225\202E\300\015im\022\300\223k@\223\204 \200\026\013"
 5157      0D696D12 
 5157      C0936B40 
 5157      93842080 
 5157      160B
 5158 9d7f E1F03C52 		.ascii	"\341\360<R\200\002\245\271\233\233\200\030\304\241\233"
 5158      8002A5B9 
 5158      9B9B8018 
 5158      C4A19B
 5159 9d8e 498773FD 		.ascii	"I\207s\375P\200\030\304@\017P\212\373\200\220\303\306"
 5159      508018C4 
 5159      400F508A 
 5159      FB8090C3 
 5159      C6
 5160 9d9f A688C17D 		.ascii	"\246\210\301}\005\345\374\015\012@#\360\245@\012h\225"
 5160      05E5FC0D 
 5160      0A4023F0 
 5160      A5400A68 
 5160      95
 5161 9db0 FB8008C4 		.ascii	"\373\200\010\304h\211@\023\2103@\012o\361\006\212\012"
 5161      68894013 
 5161      8833400A 
 5161      6FF1068A 
 5161      0A
 5162 9dc1 34402B00 		.ascii	"4@+\000I\373\200\000-\007\315@\023\210\021@\012h\215"
 5162      49FB8000 
 5162      2D07CD40 
 5162      13881140 
 5162      0A688D
 5163 9dd4 EC040230 		.ascii	"\354\004\0020h\221@3\006\006@\012\300 p\001h\205@\023"
 5163      68914033 
 5163      0606400A 
 5163      C0207001 
 5163      68854013 
 5164 9de8 0214400A 		.ascii	"\002\024@\012H@\373\200\246\037\034 \007\315@A\000E"
 5164      4840FB80 
 5164      A61F1C20 
 5164      07CD4041 
 5164      0045
 5165 9dfa 802DC00D 		.ascii	"\200-\300\015iid\371@\025@\025\300\013\300\013d\375"
 5165      696964F9 
 5165      40154015 
 5165      C00BC00B 
 5165      64FD
 5166 9e0c 8941095B 		.ascii	"\211A\011[\016\011\000+@C\300\025\300\012h\201\022\375"
 5166      0E09002B 
 5166      4043C015 
 5166      C00A6881 
ARM GAS  C:\Temp\ccVQrAGa.s 			page 246


 5166      12FD
 5167 9e1e 44204023 		.ascii	"D @#\300\377@\025\016\011\341@\004F\000\206\010$\210"
 5167      C0FF4015 
 5167      0E09E140 
 5167      04460086 
 5167      082488
 5168 9e31 1EE14080 		.ascii	"\036\341@\200\036\200\004\360\034\014\014\301\303\335"
 5168      1E8004F0 
 5168      1C0C0CC1 
 5168      C3DD
 5169 9e3f 93F80404 		.ascii	"\223\370\004\004\014a\230\013F\340\220\014\024N\000"
 5169      0C61980B 
 5169      46E0900C 
 5169      144E00
 5170 9e4e 14CA0C64 		.ascii	"\024\312\014d\360<\241\013{\200\000\026.oX\"\200\000"
 5170      F03CA10B 
 5170      7B800016 
 5170      2E6F5822 
 5170      8000
 5171 9e60 401A71B0 		.ascii	"@\032q\260\004\304\346\202\002\304`\300$o\373\200In"
 5171      04C4E682 
 5171      02C460C0 
 5171      246FFB80 
 5171      496E
 5172 9e72 862B945A 		.ascii	"\206+\224Z\305\007\002\000\002SJP\344\004\301\377s\361"
 5172      C5070200 
 5172      02534A50 
 5172      E404C1FF 
 5172      73F1
 5173 9e84 8A430165 		.ascii	"\212C\001e\000\000QT\311^\354\004\376u\241\013@2\304"
 5173      00005154 
 5173      C95EEC04 
 5173      FE75A10B 
 5173      4032C4
 5174 9e97 170C0CF0 		.ascii	"\027\014\014\360\204\335\223\360\004\372|\004\014\354"
 5174      84DD93F0 
 5174      04FA7C04 
 5174      0CEC
 5175 9ea5 501EF00C 		.ascii	"P\036\360\014\011\200k\3006n\001@`\243\013Ox\234\000"
 5175      09806BC0 
 5175      366E0140 
 5175      60A30B4F 
 5175      789C00
 5176 9eb8 41068800 		.ascii	"A\006\210\000\002\226a4\000\004\340\004\341\240P\006"
 5176      02966134 
 5176      0004E004 
 5176      E1A05006 
 5177 9ec8 6C1D4C11 		.ascii	"l\035L\021\201q@+\000\026\240~\014\013\201\021\300\025"
 5177      8171402B 
 5177      0016A07E 
 5177      0C0B8111 
 5177      C015
 5178 9eda 6E0973FD 		.ascii	"n\011s\375@\000L\003\300\375@\025n\011g\270\201\001"
 5178      40004C03 
 5178      C0FD4015 
 5178      6E0967B8 
 5178      8101
ARM GAS  C:\Temp\ccVQrAGa.s 			page 247


 5179 9eec 7E0EE81C 		.ascii	"~\016\350\034\341HA\206A\306\000\024\374\036\341H\200"
 5179      E1484186 
 5179      41C60014 
 5179      FC1EE148 
 5179      80
 5180 9efd 0484180C 		.ascii	"\004\204\030\014)\200\010\300-g\315h\211\014\013\006"
 5180      298008C0 
 5180      2D67CD68 
 5180      890C0B06 
 5181 9f0d 04400A02 		.ascii	"\004@\012\002)\340\240>>\246\037$\037\360'L\025\305"
 5181      29E0A03E 
 5181      3EA61F24 
 5181      1FF0274C 
 5181      15C5
 5182 9f1f 07400268 		.ascii	"\007@\002h\001d1\006`\203\021\300(Fu\301\035\002\020"
 5182      01643106 
 5182      608311C0 
 5182      284675C1 
 5182      1D0210
 5183 9f32 58047E75 		.ascii	"X\004~u\304\004\304\020\0060a\215\014\013\010`@\034"
 5183      C404C410 
 5183      0630618D 
 5183      0C0B0860 
 5183      401C
 5184 9f44 C0D96601 		.ascii	"\300\331f\001e\301\012`\201\261@\331\274\016\201\241"
 5184      65C10A60 
 5184      81B140D9 
 5184      BC0E81A1 
 5185 9f54 F8044605 		.ascii	"\370\004F\005\011\016\240\004\341\230\001F\201\001\000"
 5185      090EA004 
 5185      E1980146 
 5185      810100
 5186 9f63 9A144A8B 		.ascii	"\232\024J\213\205\024\032\340\000@\012\370|\012P\341"
 5186      85141AE0 
 5186      00400AF8 
 5186      7C0A50E1 
 5187 9f73 84160604 		.ascii	"\204\026\006\004\020\224\024\200\000B\012Q\024\220\345"
 5187      10941480 
 5187      00420A51 
 5187      1490E5
 5188 9f82 E4AC8425 		.ascii	"\344\254\204%\241\253im\014%\205\253\300\015\010\221"
 5188      A1AB696D 
 5188      0C2585AB 
 5188      C00D0891 
 5189 9f92 0C0B4000 		.ascii	"\014\013@\000\200\012\200\377\023\361\220\230@\002\006"
 5189      800A80FF 
 5189      13F19098 
 5189      400206
 5190 9fa1 000EA580 		.ascii	"\000\016\245\200(\004\001\3544\004\020\200\265\344-"
 5190      280401EC 
 5190      34041080 
 5190      B5E42D
 5191 9fb0 BF1B4D1E 		.ascii	"\277\033M\036\207%\212\325\212e\241\033p<X\020\341\300"
 5191      87258AD5 
 5191      8A65A11B 
 5191      703C5810 
 5191      E1C0
ARM GAS  C:\Temp\ccVQrAGa.s 			page 248


 5192 9fc2 0414B9CB 		.ascii	"\004\024\271\313\014\036\204\213\001qI\027\202EN\020"
 5192      0C1E848B 
 5192      01714917 
 5192      82454E10 
 5193 9fd2 A1CB400F 		.ascii	"\241\313@\017s\375Nz\200\213\305w\306\262\222#\011\024"
 5193      73FD4E7A 
 5193      808BC577 
 5193      C6B29223 
 5193      0914
 5194 9fe4 73F14020 		.ascii	"s\361@ \2101A\377\002\003\206+\201\245\216\033\002\020"
 5194      883141FF 
 5194      0203862B 
 5194      81A58E1B 
 5194      0210
 5195 9ff6 218B00C5 		.ascii	"!\213\000\305\354\004\210\001\000\000\000\000D\305\241"
 5195      EC048801 
 5195      00000000 
 5195      44C5A1
 5196 a005 1B882144 		.ascii	"\033\210!Dw\374\325\2163\220\013\202\241\002\261\345"
 5196      77FCD58E 
 5196      33900B82 
 5196      A102B1E5 
 5197 a015 FC150A9D 		.ascii	"\374\025\012\235\001\350\345\237\001\014\016\274\004"
 5197      01E8E59F 
 5197      010C0EBC 
 5197      04
 5198 a022 8E0EFC04 		.ascii	"\216\016\374\004\314\016\014\031\200\010\300\025b\355"
 5198      CC0E0C19 
 5198      8008C015 
 5198      62ED
 5199 a030 F017BE24 		.ascii	"\360\027\276$\242\017\244\017h\001L\005\214\013@\002"
 5199      A20FA40F 
 5199      68014C05 
 5199      8C0B4002 
 5200 a040 E8104AC8 		.ascii	"\350\020J\310\341HA\206\200\030\200\004\340\220B\012"
 5200      E1484186 
 5200      80188004 
 5200      E090420A 
 5201 a050 80188265 		.ascii	"\200\030\202eB\020\200(D \360\200\242/\363|\370\200"
 5201      42108028 
 5201      4420F080 
 5201      A22FF37C 
 5201      F880
 5202 a062 42207E04 		.ascii	"B ~\004\200\026[\270\203\021\001\206\350\034\200\004"
 5202      80165BB8 
 5202      83110186 
 5202      E81C8004 
 5203 a072 E1980C0B 		.ascii	"\341\230\014\013\243\013\200\025\016\011\234\244\000"
 5203      A30B8015 
 5203      0E099CA4 
 5203      00
 5204 a07f 040E094C 		.ascii	"\004\016\011L\003\200\205\200\025h\000I\310\003\001"
 5204      03808580 
 5204      15680049 
 5204      C80301
 5205 a08e 8C0B4518 		.ascii	"\214\013E\030\201\021\214+o\374\014\014\250\361\034"
 5205      81118C2B 
ARM GAS  C:\Temp\ccVQrAGa.s 			page 249


 5205      6FFC0C0C 
 5205      A8F11C
 5206 a09d 38F27CC1 		.ascii	"8\362|\301\303\377\370\370|\004\014c\011\000\031\201"
 5206      C3FFF8F8 
 5206      7C040C63 
 5206      09001981 
 5207 a0ad 21401500 		.ascii	"!@\025\000\311\221\025@6n\011\372\200\010$c\015\000"
 5207      C9911540 
 5207      366E09FA 
 5207      80082463 
 5207      0D00
 5208 a0bf 69460240 		.ascii	"iF\002@\025\006Y\360\220\300\025oAXj\241\313\0140f\222"
 5208      150659F0 
 5208      90C0156F 
 5208      41586AA1 
 5208      CB0C3066 
 5209 a0d4 C0DB6610 		.ascii	"\300\333f\020n\021FQ\206E\3006z\200\016\304\022\204"
 5209      6E114651 
 5209      8645C036 
 5209      7A800EC4 
 5209      1284
 5210 a0e6 8181CB9D 		.ascii	"\201\201\313\235\372\200T\222\204\005V\002\360\234\026"
 5210      FA805492 
 5210      84055602 
 5210      F09C16
 5211 a0f5 B9F0A8C0 		.ascii	"\271\360\250\300\032nA|\205\271\273\204\004\020\200"
 5211      1A6E417C 
 5211      85B9BB84 
 5211      041080
 5212 a104 94CB3253 		.ascii	"\224\3132S\201E\230V\201q\013\233\012\212\200\245\203"
 5212      81459856 
 5212      81710B9B 
 5212      0A8A80A5 
 5212      83
 5213 a115 71740818 		.ascii	"qt\010\030v\200u\030\304\216[\014\000z\200\300Xf@`\210"
 5213      76807518 
 5213      C48E5B0C 
 5213      007A80C0 
 5213      58664060 
 5214 a12a 0EC4E088 		.ascii	"\016\304\340\210\022D|\034\014\205f\020\024\000\024"
 5214      12447C1C 
 5214      0C856610 
 5214      140014
 5215 a139 93C0DB0A 		.ascii	"\223\300\333\012\012\214s\202!{\374\340@R\205\350\000"
 5215      0A8C7382 
 5215      217BFCE0 
 5215      405285E8 
 5215      00
 5216 a14a 0E856240 		.ascii	"\016\205b@R\205\340\204\020\304d\000\016u\030c\214\203"
 5216      5285E084 
 5216      10C46400 
 5216      0E751863 
 5216      8C83
 5217 a15c D08058C2 		.ascii	"\320\200X\302a@Ru\340\204\022Dh\001\020{\224\223@\001"
 5217      61405275 
 5217      E0841244 
 5217      6801107B 
ARM GAS  C:\Temp\ccVQrAGa.s 			page 250


 5217      94934001 
 5218 a170 527388A3 		.ascii	"Rs\210\243\020{\346\200\300\001l\001\347\200Rs`\001"
 5218      107BE680 
 5218      C0016C01 
 5218      E7805273 
 5218      6001
 5219 a182 0C795471 		.ascii	"\014yTq\300\004\300\001a\001d\001\014ITA\300\004\300"
 5219      C004C001 
 5219      61016401 
 5219      0C495441 
 5219      C004C0
 5220 a195 01620168 		.ascii	"\001b\001h\001\014ITA\300\004@\001c\001\030I\201A\300"
 5220      010C4954 
 5220      41C00440 
 5220      01630118 
 5220      498141C0 
 5221 a1a9 1A0E4162 		.ascii	"\032\016Ab\021FAD\212\3008\336\325\364\004\360|\014"
 5221      11464144 
 5221      8AC038DE 
 5221      D5F404F0 
 5221      7C0C
 5222 a1bb 0CC1C3DD 		.ascii	"\014\301\303\335\223\372\204\004\014\201\001\000kh\034"
 5222      93FA8404 
 5222      0C810100 
 5222      6B681C
 5223 a1ca 50C80C1B 		.ascii	"P\310\014\033\201\021@\012h\221\000`\200{@(d\001p\001"
 5223      8111400A 
 5223      68910060 
 5223      807B4028 
 5223      64017001 
 5224 a1de 04068811 		.ascii	"\004\006\210\021\300 \305\027\001e\002\020A4\311>\354"
 5224      C020C517 
 5224      01650210 
 5224      4134C93E 
 5224      EC
 5225 a1ef 04FE75A1 		.ascii	"\004\376u\241\033aHA\206\200\004\214+\340\031\200\030"
 5225      1B614841 
 5225      8680048C 
 5225      2BE01980 
 5225      18
 5226 a200 83010016 		.ascii	"\203\001\000\026o\370y\210P\330\201\021}\030\357\370"
 5226      6FF87988 
 5226      50D88111 
 5226      7D18EFF8 
 5227 a210 8C0B680C 		.ascii	"\214\013h\014a\215\014\013\203\021@\034L\003\202\001"
 5227      618D0C0B 
 5227      8311401C 
 5227      4C038201 
 5228 a220 401C618D 		.ascii	"@\034a\215\014\014\216\013\015\270\362\204\301\303\340"
 5228      0C0C8E0B 
 5228      0DB8F284 
 5228      C1C3E0
 5229 a22f 1CFA0004 		.ascii	"\034\372\000\004\014C\206\002k\004\024\341H\340\230"
 5229      0C438602 
 5229      6B0414E1 
 5229      48E098
 5230 a23e 0604F100 		.ascii	"\006\004\361\000F0D \204(&/\362\374\341\230\007\206"
ARM GAS  C:\Temp\ccVQrAGa.s 			page 251


 5230      46304420 
 5230      8428262F 
 5230      F2FCE198 
 5230      0786
 5231 a250 0C0E8426 		.ascii	"\014\016\204&\014\033\202\011@\025n\011B\020\320\007"
 5231      0C1B8209 
 5231      40156E09 
 5231      4210D007 
 5232 a260 C0FE73FD 		.ascii	"\300\376s\375L\023\240\037\300\025n\011\357\370M\310"
 5232      4C13A01F 
 5232      C0156E09 
 5232      EFF84DC8 
 5233 a270 81110101 		.ascii	"\201\021\001\001\014\014\214+5\330\362\000\301\303\377"
 5233      0C0C8C2B 
 5233      35D8F200 
 5233      C1C3FF
 5234 a27f F8E10001 		.ascii	"\370\341\000\001\206\200\010\200\004\202\011]\223\307"
 5234      86800880 
 5234      0482095D 
 5234      93C7
 5235 a28d 13C18300 		.ascii	"\023\301\203\000\014\335\223\300\000a\001\372\014\004"
 5235      0CDD93C0 
 5235      006101FA 
 5235      0C04
 5236 a29b 0C810100 		.ascii	"\014\201\001\000k\202\213\004{e9L\001\004`@,\300\261"
 5236      6B828B04 
 5236      7B65394C 
 5236      01046040 
 5236      2CC0B1
 5237 a2ae 65418C0B 		.ascii	"eA\214\013\003\021\350\000B\210\214\013\003\021\350"
 5237      0311E800 
 5237      42888C0B 
 5237      0311E8
 5238 a2bd 004E2880 		.ascii	"\000N(\200\325\241\013hHY\210\241\013\214\013\014\014"
 5238      D5A10B68 
 5238      485988A1 
 5238      0B8C0B0C 
 5238      0C
 5239 a2ce 8085DD93 		.ascii	"\200\205\335\223\362\014Ev\001\021\0111\340\000]X\214"
 5239      F20C4576 
 5239      01110931 
 5239      E0005D58 
 5239      8C
 5240 a2df 0BA38BE8 		.ascii	"\013\243\213\350H\241\013\374\265\014\013\374uR8\216"
 5240      48A10BFC 
 5240      B50C0BFC 
 5240      7552388E 
 5241 a2ef 1BA10BE8 		.ascii	"\033\241\013\350\000\001\021\372\265\214\013\201!\362"
 5241      000111FA 
 5241      B58C0B81 
 5241      21F2
 5242 a2fd 0C0C0CC1 		.ascii	"\014\014\014\301\303\261E\370|\004\014\354\300\036\360"
 5242      C3B145F8 
 5242      7C040CEC 
 5242      C01EF0
 5243 a30c 60044686 		.ascii	"`\004F\206@1\245\033@+l\035\340\004\016\006\241\201"
 5243      4031A51B 
ARM GAS  C:\Temp\ccVQrAGa.s 			page 252


 5243      402B6C1D 
 5243      E0040E06 
 5243      A181
 5244 a31e 0EA5AA35 		.ascii	"\016\245\2525\243\033`\014A\346\340\014Y\346\001\246"
 5244      A31B600C 
 5244      41E6E00C 
 5244      59E601A6 
 5245 a32e 170E110E 		.ascii	"\027\016\021\016\340\004\340\004\001&\001\206\017\016"
 5245      E004E004 
 5245      01260186 
 5245      0F0E
 5246 a33c 150EE004 		.ascii	"\025\016\340\004\340\004\000\006\241\001\013\016\000"
 5246      E0040006 
 5246      A1010B0E 
 5246      00
 5247 a349 06090E7E 		.ascii	"\006\011\016~\016\340\004|\016\241\001\340\004\001\206"
 5247      0EE0047C 
 5247      0EA101E0 
 5247      040186
 5248 a358 01860D0E 		.ascii	"\001\206\015\016>\016\340\004\340\004\001\246I\366<"
 5248      3E0EE004 
 5248      E00401A6 
 5248      49F63C
 5249 a367 0E4BA6E0 		.ascii	"\016K\246\340\014\003\246`\014\007\006\340\014\021\006"
 5249      0C03A660 
 5249      0C0706E0 
 5249      0C1106
 5250 a376 60040DA6 		.ascii	"`\004\015\246\340\004\023\246`\004\017\246\340\014U"
 5250      E00413A6 
 5250      60040FA6 
 5250      E00C55
 5251 a385 A6600C13 		.ascii	"\246`\014\023\316\340\014\340\014A\346W\366\005\225"
 5251      CEE00CE0 
 5251      0C41E657 
 5251      F60595
 5252 a394 0006E00C 		.ascii	"\000\006\340\014\211\021`\010\221\001\023\016@\006\027"
 5252      89116008 
 5252      9101130E 
 5252      400617
 5253 a3a3 0E0D0EE0 		.ascii	"\016\015\016\340\000\025\016\205\001\013\016\203\001"
 5253      00150E85 
 5253      010B0E83 
 5253      01
 5254 a3b0 090E8101 		.ascii	"\011\016\201\001~\016\241\001|\016\203\001\017\016\201"
 5254      7E0EA101 
 5254      7C0E8301 
 5254      0F0E81
 5255 a3bf 01110E85 		.ascii	"\001\021\016\205\001>\016\201\001\340\000@\006\2011"
 5255      013E0E81 
 5255      01E00040 
 5255      068131
 5256 a3ce 3C0E8191 		.ascii	"<\016\201\221\001a\024\006\001Q\001\001\340\004\026"
 5256      01611406 
 5256      01510101 
 5256      E00416
 5257 a3dd 06814181 		.ascii	"\006\201A\201\301\340\010\213\304\210\306\211\304\212"
 5257      C1E0088B 
ARM GAS  C:\Temp\ccVQrAGa.s 			page 253


 5257      C488C689 
 5257      C48A
 5258 a3eb C6FEC4C8 		.ascii	"\306\376\304\310\306\374\304\312\306\340\030D\201\340"
 5258      C6FCC4CA 
 5258      C6E01844 
 5258      81E0
 5259 a3f9 144431E0 		.ascii	"\024D1\340\020D\301\340\034D1\340 D1D1\2254\2174\340"
 5259      1044C1E0 
 5259      1C4431E0 
 5259      20443144 
 5259      3195348F 
 5260 a40f 24       		.ascii	"$"
 5261 a410 E0284431 		.ascii	"\340(D1D1\2154\2214\340,\3400D1D1\2764\2744\3404\340"
 5261      44318D34 
 5261      9134E02C 
 5261      E0304431 
 5261      4431BE34 
 5262 a429 3C4461E0 		.ascii	"<Da\340@Da\3408D1\340HD\221\340LDq\340DD\021\340PD\021"
 5262      404461E0 
 5262      384431E0 
 5262      484491E0 
 5262      4C4471E0 
 5263 a444 E05844A1 		.ascii	"\340XD\241\340TDQ\340\\DQ\340`DQ\340hD\001D\001\223"
 5263      E0544451 
 5263      E05C4451 
 5263      E0604451 
 5263      E0684401 
 5264 a45b 049704E0 		.ascii	"\004\227\004\340l\340xD\261\340tDA\340dD\001\340pD\001"
 5264      6CE07844 
 5264      B1E07444 
 5264      41E06444 
 5264      01E07044 
 5265 a470 E07C4441 		.ascii	"\340|DA\340\361\001\001\360|\014\014\301\303\335\223"
 5265      E0F10101 
 5265      F07C0C0C 
 5265      C1C3DD93 
 5266 a480 FA04040C 		.ascii	"\372\004\004\014\354\220\036\360\200k%\033\201\001\004"
 5266      EC901EF0 
 5266      806B251B 
 5266      810104
 5267 a48f 259295A3 		.ascii	"%\222\225\243\033eA\002`\214\013@\261\350Hb\350\220"
 5267      1B654102 
 5267      608C0B40 
 5267      B1E84862 
 5267      E890
 5268 a4a1 95A10B4C 		.ascii	"\225\241\013L\001\203\001\300,e9B\206\207\345\004\006"
 5268      018301C0 
 5268      2C653942 
 5268      8687E504 
 5268      06
 5269 a4b2 60044C11 		.ascii	"`\004L\021\340\004@+l\035`\021\002\006>\036\304\000"
 5269      E004402B 
 5269      6C1D6011 
 5269      02063E1E 
 5269      C400
 5270 a4c4 091C8311 		.ascii	"\011\034\203\021\025\026\241\021\340\000B\006\205q\037"
 5270      1516A111 
ARM GAS  C:\Temp\ccVQrAGa.s 			page 254


 5270      E0004206 
 5270      85711F
 5271 a4d3 16891125 		.ascii	"\026\211\021%\0261\026\253\026\257&\221\021\004\006"
 5271      163116AB 
 5271      16AF2691 
 5271      110406
 5272 a4e2 35269706 		.ascii	"5&\227\006\340\010\233v\231\006\241v\235\006\247\006"
 5272      E0089B76 
 5272      9906A176 
 5272      9D06A706 
 5273 a4f2 A306AD06 		.ascii	"\243\006\255\006\251\006\267\006\263\006\273\026\271"
 5273      A906B706 
 5273      B306BB16 
 5273      B9
 5274 a4ff 0660805E 		.ascii	"\006`\200^\021\344\020\002\360\277&\275\006\340\204"
 5274      11E41002 
 5274      F0BF26BD 
 5274      06E084
 5275 a50e 5E01608C 		.ascii	"^\001`\214^\001^!\214\013^\370\340\210\241\013\350H"
 5275      5E015E21 
 5275      8C0B5EF8 
 5275      E088A10B 
 5275      E848
 5276 a520 4C7180B5 		.ascii	"Lq\200\265\300,e9\310\361\201\001\362\004\014\014\301"
 5276      C02C6539 
 5276      C8F18101 
 5276      F2040C0C 
 5276      C1
 5277 a531 C3DD93FE 		.ascii	"\303\335\223\376|\004\314\200k\002{d\220\002\360\344"
 5277      7C04CC80 
 5277      6B027B64 
 5277      9002F0E4 
 5278 a541 8004F0E8 		.ascii	"\200\004\360\350\020Ih`\220\036\211\340\004\016*\340"
 5278      10496860 
 5278      901E89E0 
 5278      040E2AE0 
 5279 a551 801E7940 		.ascii	"\200\036y@\001\001\210\004`\300\000@\261e\301\001U\231"
 5279      01018804 
 5279      60C00040 
 5279      B165C101 
 5279      5599
 5280 a563 31491681 		.ascii	"1I\026\201\021\354\004\0060\376\225\241;e\361\004`\235"
 5280      11EC0406 
 5280      30FE95A1 
 5280      3B65F104 
 5280      609D
 5281 a575 3140B149 		.ascii	"1@\261I\034\201E\354\004\0060\376\225\241;\025\306\001"
 5281      1C8145EC 
 5281      040630FE 
 5281      95A13B15 
 5281      C601
 5282 a587 910785EA 		.ascii	"\221\007\205\352\360\241\013\201\261@b\216\025\004t"
 5282      F0A10B81 
 5282      B140628E 
 5282      150474
 5283 a596 70A8009C 		.ascii	"p\250\000\234\372\200\340\220\000\204y\234B\002\360"
 5283      FA80E090 
ARM GAS  C:\Temp\ccVQrAGa.s 			page 255


 5283      0084799C 
 5283      4202F0
 5284 a5a5 AC40626E 		.ascii	"\254@bn\361@\021C\366@+\200\000@\015`1@\221@\021\300"
 5284      F1401143 
 5284      F6402B80 
 5284      00400D60 
 5284      31409140 
 5285 a5bb 2C802C42 		.ascii	",\200,B\261C\361@\021\002\264\000,@\221\372\200\000"
 5285      B143F140 
 5285      1102B400 
 5285      2C4091FA 
 5285      8000
 5286 a5cd 2C41714F 		.ascii	",AqOX\214\013\036\211\350\000\000\200`\220\002\004\344"
 5286      588C0B1E 
 5286      89E80000 
 5286      80609002 
 5286      04E4
 5287 a5df 0482B17A 		.ascii	"\004\202\261z\200\004\200\204\241CJ\344$\002\014\344"
 5287      80048084 
 5287      A1434AE4 
 5287      24020CE4 
 5288 a5ef 08500062 		.ascii	"\010P\000b\000\002s\334\000\027\012\201\001\362\005"
 5288      000273DC 
 5288      00170A81 
 5288      01F205
 5289 a5fe E53CF67C 		.ascii	"\345<\366|\014\314\301\303\335\223\372|\004\014\356"
 5289      0CCCC1C3 
 5289      DD93FA7C 
 5289      040CEE
 5290 a60d 501EF0A1 		.ascii	"P\036\360\241\033\000ke9\014\011\204\213@,Bf\212%\245"
 5290      1B006B65 
 5290      390C0984 
 5290      8B402C42 
 5290      668A25A5 
 5291 a621 0B60046C 		.ascii	"\013`\004l\035L\021\201\221@+\201\261\002\305\214\013"
 5291      1D4C1181 
 5291      91402B81 
 5291      B102C58C 
 5291      0B
 5292 a632 0511EFFC 		.ascii	"\005\021\357\374rh\241\273\200\273\300\000\013\250h"
 5292      7268A1BB 
 5292      80BBC000 
 5292      0BA868
 5293 a641 04544880 		.ascii	"\004TH\200\273\214\013\344@\020\212\241\273\242u\014"
 5293      BB8C0BE4 
 5293      40108AA1 
 5293      BBA2750C 
 5294 a651 29A23540 		.ascii	")\2425@+l\035\340\000B\266h\004c\350V\266\214\013#\013"
 5294      2B6C1DE0 
 5294      0042B668 
 5294      0463E856 
 5294      B68C0B23 
 5295 a666 E0009ED5 		.ascii	"\340\000\236\325\201\201#\013\225%\340\004@\246l\035"
 5295      8181230B 
 5295      9525E004 
 5295      40A66C1D 
 5296 a676 4C018205 		.ascii	"L\001\202\005\300+\214\013\003\021\357\374p\010\241"
ARM GAS  C:\Temp\ccVQrAGa.s 			page 256


 5296      C02B8C0B 
 5296      0311EFFC 
 5296      7008A1
 5297 a685 BB80BB00 		.ascii	"\273\200\273\000\306\244\225\002\360`\010\001U\344 "
 5297      C6A49502 
 5297      F0600801 
 5297      55E420
 5298 a694 45B681B1 		.ascii	"E\266\201\261\354\004\000\000\376\225\241\013\020`\001"
 5298      EC040000 
 5298      FE95A10B 
 5298      106001
 5299 a6a3 01C0B065 		.ascii	"\001\300\260eq\201\001>\016\025\006<\016\211U\340\004"
 5299      7181013E 
 5299      0E15063C 
 5299      0E8955E0 
 5299      04
 5300 a6b4 78811009 		.ascii	"x\201\020\011\225\021@\001a\220\022\004B\232\236\011"
 5300      95114001 
 5300      61901204 
 5300      429A9E09 
 5301 a6c4 8203E686 		.ascii	"\202\003\346\206\3460\001\012\003F\200\365\204\024\341"
 5301      E630010A 
 5301      034680F5 
 5301      8414E1
 5302 a6d3 34B71B84 		.ascii	"4\267\033\204\024\014)\202\365@+l\035\340\010\0036h"
 5302      140C2982 
 5302      F5402B6C 
 5302      1DE00803 
 5302      3668
 5303 a6e5 045FA80F 		.ascii	"\004_\250\0176\214\013#\013\340\010\340\010\000\306"
 5303      368C0B23 
 5303      0BE008E0 
 5303      0800C6
 5304 a6f4 A1BB8805 		.ascii	"\241\273\210\005N\260\006\325 \030\334\000\344 \004"
 5304      4EB006D5 
 5304      2018DC00 
 5304      E42004
 5305 a703 F0614014 		.ascii	"\360a@\024\012\210\026\200#\000\004^\225\200\000\016"
 5305      0A881680 
 5305      2300045E 
 5305      9580000E 
 5306 a713 0680005E 		.ascii	"\006\200\000^\225>\004\202\305\000\004\201q@\222\372"
 5306      953E0482 
 5306      C5000481 
 5306      714092FA 
 5307 a723 80BE0EFB 		.ascii	"\200\276\016\373\200\000\004\274\004@\222\372\200\274"
 5307      800004BC 
 5307      044092FA 
 5307      80BC
 5308 a731 0EFA806C 		.ascii	"\016\372\200l\004\024\240\216\273\202\201\356u\241\253"
 5308      0414A08E 
 5308      BB8281EE 
 5308      75A1AB
 5309 a740 8CF5A1BB 		.ascii	"\214\365\241\273\000\004\274\004\304\007\372\200\016"
 5309      0004BC04 
 5309      C407FA80 
 5309      0E
ARM GAS  C:\Temp\ccVQrAGa.s 			page 257


 5310 a74d 003E0412 		.ascii	"\000>\004\022\004\344\020\214\013z\200h\000T\250\003"
 5310      04E4108C 
 5310      0B7A8068 
 5310      0054A803 
 5311 a75d D5C497A1 		.ascii	"\325\304\227\241\273\200\273@\366\210\325@\000a\241"
 5311      BB80BB40 
 5311      F688D540 
 5311      0061A1
 5312 a76c 81B58111 		.ascii	"\201\265\201\021`\200B\012\020)\220+\006\360\\\000\002"
 5312      6080420A 
 5312      1029902B 
 5312      06F05C00 
 5312      02
 5313 a77d 33E4208C 		.ascii	"3\344 \214&\202\021\3420\002\012\014\013\374\225KX\220"
 5313      268211E2 
 5313      30020A0C 
 5313      0BFC954B 
 5313      5890
 5314 a78f 1B00BBE8 		.ascii	"\033\000\273\350\004\340\000Ov\202u\241\273z\200\002"
 5314      04E0004F 
 5314      768275A1 
 5314      BB7A8002 
 5315 a79f 94FA8004 		.ascii	"\224\372\200\004td \006\360I\230\214\013\200\273\350"
 5315      74642006 
 5315      F049988C 
 5315      0B80BBE8 
 5316 a7af 481EF016 		.ascii	"H\036\360\026\013\014\014\346P\335\223\362|\372|\004"
 5316      0B0C0CE6 
 5316      50DD93F2 
 5316      7CFA7C04 
 5317 a7bf 0CEC301E 		.ascii	"\014\3540\036\360\202\213\000\233\014\220|.\300\257"
 5317      F0828B00 
 5317      9B0C907C 
 5317      2EC0AF
 5318 a7ce 6471F0A0 		.ascii	"dq\360\240Tb\342\200\024\031\350\000L\210\200{B\207"
 5318      5462E280 
 5318      1419E800 
 5318      4C88807B 
 5318      4287
 5319 a7e0 67C000A0 		.ascii	"g\300\000\240<n\220ceE\022\220>\016\300\261\001\241"
 5319      3C6E9063 
 5319      65451290 
 5319      3E0EC0B1 
 5319      01A1
 5320 a7f2 81B10555 		.ascii	"\201\261\005U\201\201\374$\201a\370\004\022\011D\012"
 5320      8181FC24 
 5320      8161F804 
 5320      1209440A 
 5321 a802 A418D007 		.ascii	"\244\030\320\007\340\200H\000M\010\016\017\242\017\373"
 5321      E0804800 
 5321      4D080E0F 
 5321      A20FFB
 5322 a811 80026482 		.ascii	"\200\002d\202E\203\013\020\204\003\021\024\244\372\200"
 5322      45830B10 
 5322      84031114 
 5322      A4FA80
 5323 a820 B71F7B80 		.ascii	"\267\037{\200\202\201\"\257?\273\200k\036\005\202\261"
ARM GAS  C:\Temp\ccVQrAGa.s 			page 258


 5323      828122AF 
 5323      3FBB806B 
 5323      1E0582B1 
 5324 a830 84910004 		.ascii	"\204\221\000\004\200\000@\201\200\000\036\005\200\000"
 5324      80004081 
 5324      80001E05 
 5324      8000
 5325 a83e 40A3E040 		.ascii	"@\243\340@\026\012\001\001\366u\014\014\230\361\335"
 5325      160A0101 
 5325      F6750C0C 
 5325      98F1DD
 5326 a84d 93F27CE5 		.ascii	"\223\362|\345|\003\012\004\024\202\265\216\031a\214"
 5326      7C030A04 
 5326      1482B58E 
 5326      19618C
 5327 a85c 00098403 		.ascii	"\000\011\204\003\300,e\301\344\204@J\342\000\000\014"
 5327      C02C65C1 
 5327      E484404A 
 5327      E200000C 
 5328 a86c 5D93DD93 		.ascii	"]\223\335\223\301\303\201\001\372\000\000Ldq\000\000"
 5328      C1C38101 
 5328      FA00004C 
 5328      64710000 
 5329 a87c 041440AF 		.ascii	"\004\024@\257\000\013\340\204\200\023|\010\345\000\002"
 5329      000BE084 
 5329      80137C08 
 5329      E50002
 5330 a88b 19684C68 		.ascii	"\031hLh(\320\007\202\021\362\000\010L\301\303\335\223"
 5330      28D00782 
 5330      11F20008 
 5330      4CC1C3DD 
 5330      93
 5331 a89c FA7C044C 		.ascii	"\372|\004LlY\000\031\202\233@+\210{\012k\204\253\006"
 5331      6C590019 
 5331      829B402B 
 5331      887B0A6B 
 5331      84AB06
 5332 a8af 8B811123 		.ascii	"\213\201\021#\033\241\233\210%\241\253\200\245\241\213"
 5332      1BA19B88 
 5332      25A1AB80 
 5332      A5A18B
 5333 a8be 80650029 		.ascii	"\200e\000)\202\225@+l\035\340\010B\226h\004Ph\340\010"
 5333      8295402B 
 5333      6C1DE008 
 5333      42966804 
 5333      5068E008 
 5334 a8d2 56968445 		.ascii	"V\226\204E\243\013\340\"@z\341\"Bz\340*@\012\340&B\032"
 5334      A30BE022 
 5334      407AE122 
 5334      427AE02A 
 5334      400AE026 
 5335 a8e8 E6A2400A 		.ascii	"\346\242@\012\340&@\012\002\002\202\003\030\026\357"
 5335      E026400A 
 5335      02028203 
 5335      1816EF
 5336 a8f7 FC960B81 		.ascii	"\374\226\013\201\261\362|\014L\301\303\335\223\372|"
 5336      B1F27C0C 
ARM GAS  C:\Temp\ccVQrAGa.s 			page 259


 5336      4CC1C3DD 
 5336      93FA7C
 5337 a906 044C6C59 		.ascii	"\004LlY\000\031\202\253@+\210{\012k\204\233\006\213"
 5337      001982AB 
 5337      402B887B 
 5337      0A6B849B 
 5337      068B
 5338 a918 8111231B 		.ascii	"\201\021#\033\241\253\206\345\241\233\200\245\241\213"
 5338      A1AB86E5 
 5338      A19B80A5 
 5338      A18B
 5339 a926 80650029 		.ascii	"\200e\000)\202\225@+l\035\340\010B\226h\004M(\340\010"
 5339      8295402B 
 5339      6C1DE008 
 5339      42966804 
 5339      4D28E008 
 5340 a93a 56968405 		.ascii	"V\226\204\005\243\013\340\"@z\341\"Bz\341&@\012\341"
 5340      A30BE022 
 5340      407AE122 
 5340      427AE126 
 5340      400AE1
 5341 a94d 2A421AE6 		.ascii	"*B\032\346\252@\012\002\002\202\003\030\026\357\374"
 5341      AA400A02 
 5341      02820318 
 5341      16EFFC
 5342 a95c 960B81B1 		.ascii	"\226\013\201\261\362|\014L\301\303\335\223a\220\004"
 5342      F27C0C4C 
 5342      C1C3DD93 
 5342      619004
 5343 a96b 14442AA9 		.ascii	"\024D*\2511\006\024f\216\2169\341\204\201!\004\003\201"
 5343      31061466 
 5343      8E8E39E1 
 5343      84812104 
 5343      0381
 5344 a97d 31060300 		.ascii	"1\006\003\000\000\001\345\300\234g\201p\024\000I\340"
 5344      0001E5C0 
 5344      9C678170 
 5344      140049E0 
 5345 a98d 80420AC1 		.ascii	"\200B\012\301\220\010D%O\236I\250?\210!\340@\004\012"
 5345      90084425 
 5345      4F9E49A8 
 5345      3F8821E0 
 5345      40040A
 5346 a9a0 5D93FC95 		.ascii	"]\223\374\225\373\200\0004\237!\001\021\2011\003\225"
 5346      FB800034 
 5346      9F210111 
 5346      81310395 
 5347 a9b0 68840824 		.ascii	"h\204\010$\373\200\0064\343O\200Oa\214\012D\341\204"
 5347      FB800634 
 5347      E34F804F 
 5347      618C0A44 
 5347      E184
 5348 a9c2 184484C9 		.ascii	"\030D\204\311\002Y\030D8_FG\340\2048_\210\311\250_\220"
 5348      02591844 
 5348      385F4647 
 5348      E084385F 
 5348      88C9A85F 
ARM GAS  C:\Temp\ccVQrAGa.s 			page 260


 5349 a9d7 49881123 		.ascii	"I\210\021#_\002\012\252?\370\365\340@\0004]\223\301"
 5349      5F020AAA 
 5349      3FF8F5E0 
 5349      4000345D 
 5349      93C1
 5350 a9e9 C3FB80FA 		.ascii	"\303\373\200\372|\004\014\354p\036\360\235\201\000\253"
 5350      7C040CEC 
 5350      701EF09D 
 5350      8100AB
 5351 a9f8 81911E0B 		.ascii	"\201\221\036\013\235\021\001U\002\020A\234\241\033\354"
 5351      9D110155 
 5351      0210419C 
 5351      A11BEC
 5352 aa07 0400A0FE 		.ascii	"\004\000\240\376\225@\261e\361\201E\235\021\002\020"
 5352      9540B165 
 5352      F181459D 
 5352      110210
 5353 aa16 419CA11B 		.ascii	"A\234\241\033\354\004\205\305\376\225p\244L\242\372"
 5353      EC0485C5 
 5353      FE9570A4 
 5353      4CA2FA
 5354 aa25 800E946E 		.ascii	"\200\016\224n\361\014\271\224\013@+o\374q\010\000\012"
 5354      F10CB994 
 5354      0B402B6F 
 5354      FC710800 
 5354      0A
 5355 aa36 8E1B86B5 		.ascii	"\216\033\206\265\360\004l\351\024\011\014\031\300,\300"
 5355      F0046CE9 
 5355      14090C19 
 5355      C02CC0
 5356 aa45 2C62B1FA 		.ascii	",b\261\372\200\000\004\372\200\002\024\2045\203\013"
 5356      800004FA 
 5356      80021484 
 5356      35830B
 5357 aa54 73C040B0 		.ascii	"s\300@\260G\007\236\033\002+\236\271\2031|\000\200\023"
 5357      47079E1B 
 5357      022B9EB9 
 5357      83317C00 
 5357      8013
 5358 aa66 373FA62F 		.ascii	"7?\246/\224\013\216\033\004,\350\000BH\022\012\202\221"
 5358      940B8E1B 
 5358      042CE800 
 5358      4248120A 
 5358      8291
 5359 aa78 F475E140 		.ascii	"\364u\341@d\215\000\346\236\033@ \235!\001e\004 E:\301"
 5359      648D00E6 
 5359      9E1B4020 
 5359      9D210165 
 5359      0420453A 
 5360 aa8d 3CEC04FE 		.ascii	"<\354\004\376u\241+d\215@\246\236\033@ E*\201U\354\004"
 5360      75A12B64 
 5360      8D40A69E 
 5360      1B402045 
 5360      2A8155EC 
 5361 aaa2 1080A18B 		.ascii	"\020\200\241\213\301,wX\376u\224\013hD\014\014\270\361"
 5361      C12C7758 
 5361      FE75940B 
ARM GAS  C:\Temp\ccVQrAGa.s 			page 261


 5361      68440C0C 
 5361      B8F1
 5362 aab4 DD93F27C 		.ascii	"\335\223\362|\2031\000\023n\361\002\031\004\024\300"
 5362      83310013 
 5362      6EF10219 
 5362      0414C0
 5363 aac3 2B9E1961 		.ascii	"+\236\031a\214\243?<)\000+\204\003\300\026b\371@3\244"
 5363      8CA33F3C 
 5363      29002B84 
 5363      03C01662 
 5363      F94033A4 
 5364 aad7 3FC01662 		.ascii	"?\300\026b\371\301\303\335\223\372|\004\014\354\320"
 5364      F9C1C3DD 
 5364      93FA7C04 
 5364      0CECD0
 5365 aae6 1EF002F0 		.ascii	"\036\360\002\360\000\233\\\030\344\300\004\360h\014"
 5365      009B5C18 
 5365      E4C004F0 
 5365      680C
 5366 aaf4 1239E4B0 		.ascii	"\0229\344\260\300+lIlA\022\011\022\031\300+\300+lEl"
 5366      C02B6C49 
 5366      6C411209 
 5366      1219C02B 
 5366      C02B6C45 
 5367 ab09 4D128912 		.ascii	"M\022\211\022)\300+\300+l9@:\215>\0229\346\202\300+"
 5367      29C02BC0 
 5367      2B6C3940 
 5367      3A8D3E12 
 5367      39E682C0 
 5368 ab1e 6C3D6686 		.ascii	"l=f\206T\212\341\210\002\004R\001\221\001@&d\201\017"
 5368      548AE188 
 5368      02045201 
 5368      91014026 
 5368      64810F
 5369 ab31 2EC5A752 		.ascii	".\305\247R!\222\013\300&d\221R1\211>\300&d\261\022\271"
 5369      21920BC0 
 5369      26649152 
 5369      31893EC0 
 5369      2664B112 
 5370 ab46 8B1EC02B 		.ascii	"\213\036\300+lQlU\022iR\021\300+@&d\321\344\240\002"
 5370      6C516C55 
 5370      12695211 
 5370      C02B4026 
 5370      64D1E4A0 
 5371 ab5b F064F152 		.ascii	"\360d\361R\241g\330\300&\200{\350\014\246U\241{\006"
 5371      A167D8C0 
 5371      26807BE8 
 5371      0CA655A1 
 5371      7B06
 5372 ab6d 6445B77C 		.ascii	"dE\267|\276\341\210\200e\241\273\202\365\241;l\035\022"
 5372      BEE18880 
 5372      65A1BB82 
 5372      F5A13B6C 
 5372      1D12
 5373 ab7f 29429640 		.ascii	")B\226@+\022\013\340\010zx\206kN\226h\000#\013\340\010"
 5373      2B120BE0 
 5373      087A7886 
ARM GAS  C:\Temp\ccVQrAGa.s 			page 262


 5373      6B4E9668 
 5373      00230BE0 
 5374 ab94 A0858C3B 		.ascii	"\240\205\214;\305\207\015\004K\366|\024H\212\340\014"
 5374      C5870D04 
 5374      4BF67C14 
 5374      488AE00C 
 5375 aba4 81B1600E 		.ascii	"\201\261`\016D\012\305\007\217\004\340\006\276.\213"
 5375      440AC507 
 5375      8F04E006 
 5375      BE2E8B
 5376 abb3 140203BC 		.ascii	"\024\002\003\274N\346\212BJ\000\000\011$\376\016\354"
 5376      4EE68A42 
 5376      4A000009 
 5376      24FE0EEC 
 5377 abc3 0400A084 		.ascii	"\004\000\240\204\243\201\241l\004R\021\215\016\300,"
 5377      A381A16C 
 5377      0452118D 
 5377      0EC02C
 5378 abd2 653D4C92 		.ascii	"e=L\222\213\345\014\011\360\254\300+n\361"
 5378      8BE50C09 
 5378      F0ACC02B 
 5378      6EF1
 5379 abe0 62B14C51 		.ascii	"b\261LQLQ\300,\300,c\361\360<B\000\222\325\305\035\310"
 5379      4C51C02C 
 5379      C02C63F1 
 5379      F03C4200 
 5379      92D5C51D 
 5380 abf5 1D8D447E 		.ascii	"\035\215D~\024\222u\302\015\311\007\217\024\220\365"
 5380      149275C2 
 5380      0DC9078F 
 5380      1490F5
 5381 ac04 9095C30D 		.ascii	"\220\225\303\015a\214\000\264\360\034D\260\203A>\011"
 5381      618C00B4 
 5381      F01C44B0 
 5381      83413E09 
 5382 ac14 04441203 		.ascii	"\004D\022\003\000\031\350\210@,e\301\010\244\206\213"
 5382      0019E888 
 5382      402C65C1 
 5382      08A4868B 
 5383 ac24 0AF07A80 		.ascii	"\012\360z\200|\024\344\220\371\210X\022\0044\0134@\301"
 5383      7C14E490 
 5383      F9885812 
 5383      04340B34 
 5383      40C1
 5384 ac36 FA80402C 		.ascii	"\372\200@,e\301\002\024\222\013b\330\372\200\0064o\374"
 5384      65C10214 
 5384      920B62D8 
 5384      FA800634 
 5384      6FFC
 5385 ac48 807BFA80 		.ascii	"\200{\372\200\212\025\241{\012\360>\004\036I\344\200"
 5385      8A15A17B 
 5385      0AF03E04 
 5385      1E49E480 
 5386 ac58 1E39E090 		.ascii	"\0369\340\220<\004\340\240\372\200\002\004c\361LA\004"
 5386      3C04E0A0 
 5386      FA800204 
 5386      63F14C41 
ARM GAS  C:\Temp\ccVQrAGa.s 			page 263


 5386      04
 5387 ac69 04C02C92 		.ascii	"\004\300,\222\013z\200\357\374d\250\241{\200{\036\011"
 5387      0B7A80EF 
 5387      FC64A8A1 
 5387      7B807B1E 
 5387      09
 5388 ac7a 847582A1 		.ascii	"\204u\202\241`\200K\366\020;L\001\340\014\300,b\261"
 5388      60804BF6 
 5388      103B4C01 
 5388      E00CC02C 
 5388      62B1
 5389 ac8c 82B18924 		.ascii	"\202\261\211$\345<\027\012@\230\350%\222\013h\000\016"
 5389      E53C170A 
 5389      4098E825 
 5389      920B6800 
 5389      0E
 5390 ac9d 0B807B0C 		.ascii	"\013\200{\014\014\350\361\335\223\362|\372\034\004\014"
 5390      0CE8F1DD 
 5390      93F27CFA 
 5390      1C040C
 5391 acac EC301EF0 		.ascii	"\3540\036\360\201\201\000klY\014\011\243\013\300+\002"
 5391      8181006B 
 5391      6C590C09 
 5391      A30BC02B 
 5391      02
 5392 acbd F08A858C 		.ascii	"\360\212\205\214\013d \350\014]\210\210\325\241\013"
 5392      0B6420E8 
 5392      0C5D8888 
 5392      D5A10B
 5393 accc 6FDC4006 		.ascii	"o\334@\006\200\010\201\221\340\200@J\004\361\000`\000"
 5393      80088191 
 5393      E080404A 
 5393      04F10060 
 5393      00
 5394 acdd 60C0AD80 		.ascii	"`\300\255\200\255\004\371\003\025\200\012\373\200\016"
 5394      AD04F903 
 5394      15800AFB 
 5394      800E
 5395 aceb 047A8002 		.ascii	"\004z\200\002\204\344\020\010\360\214\013\001!h\000"
 5395      84E41008 
 5395      F08C0B01 
 5395      216800
 5396 acfa 42887C0A 		.ascii	"B\210|\012\216;\373\200\022\224\200\223\202\201\301"
 5396      8E3BFB80 
 5396      12948093 
 5396      8281C1
 5397 ad09 8DFC044C 		.ascii	"\215\374\004L\223\374\025\300\026b\231\230\361\201\001"
 5397      93FC15C0 
 5397      16629998 
 5397      F18101
 5398 ad18 F21C0C0C 		.ascii	"\362\034\014\014\301\303\335\223\202\365\374\035\002"
 5398      C1C3DD93 
 5398      82F5FC1D 
 5398      02
 5399 ad25 14833182 		.ascii	"\024\2031\202\021\372\200\3648\003\012\010\024\202\025"
 5399      11FA80F4 
 5399      38030A08 
ARM GAS  C:\Temp\ccVQrAGa.s 			page 264


 5399      148215
 5400 ad34 0834FA80 		.ascii	"\0104\372\200\200O\350\220\374\205\241K\201\001\010"
 5400      804FE890 
 5400      FC85A14B 
 5400      810108
 5401 ad43 16C1C3DD 		.ascii	"\026\301\303\335\223\372|\004\014\370\000\020\374\354"
 5401      93FA7C04 
 5401      0CF80010 
 5401      FCEC
 5402 ad51 F01EF080 		.ascii	"\360\036\360\200[\002\233c\374\022\012\374.\201\001"
 5402      5B029B63 
 5402      FC120AFC 
 5402      2E8101
 5403 ad60 900CBE4E 		.ascii	"\220\014\276N\200\000\013\230\020PI7\300\260f\261\016"
 5403      80000B98 
 5403      10504937 
 5403      C0B066B1 
 5403      0E
 5404 ad71 503C3EC0 		.ascii	"P<>\300\260d1\201\241\001\261\201a~^\016\011\205\205"
 5404      B0643181 
 5404      A101B181 
 5404      617E5E0E 
 5404      098585
 5405 ad84 930BE3C0 		.ascii	"\223\013\343\300\374\004\2105\200\365\243\013l\351\012"
 5405      FC048835 
 5405      80F5A30B 
 5405      6CE90A
 5406 ad93 09A018C0 		.ascii	"\011\240\030\300,\206\025\203\013z\200\002\264Ux\212"
 5406      2C861583 
 5406      0B7A8002 
 5406      B455788A 
 5407 ada3 0B000AEF 		.ascii	"\013\000\012\357\374\036U\360\004\202\325\300\014\002"
 5407      FC1E55F0 
 5407      0482D5C0 
 5407      0C02
 5408 adb1 A41C0804 		.ascii	"\244\034\010\004\360\340\210\202\241dP\202#~T\200cp"
 5408      F0E08882 
 5408      A1645082 
 5408      237E5480 
 5408      6370
 5409 adc3 AD804588 		.ascii	"\255\200E\210\276\002\261\201\225\202q\202\201\345<"
 5409      BE02B181 
 5409      95827182 
 5409      81E53C
 5410 add2 170AA1AB 		.ascii	"\027\012\241\253\364\345\012\213\236\345\300\025j}\311"
 5410      F4E50A8B 
 5410      9EE5C015 
 5410      6A7DC9
 5411 ade1 87BC14FB 		.ascii	"\207\274\024\373\200\000\024j\201\012\013\321\015@\025"
 5411      8000146A 
 5411      810A0BD1 
 5411      0D4015
 5412 adf0 9C005010 		.ascii	"\234\000P\020\373\200\002\204\300\035\311\007\334\000"
 5412      FB800284 
 5412      C01DC907 
 5412      DC00
 5413 adfe 5000EC18 		.ascii	"P\000\354\030Q\012>\024\204e\340\220\000d\000\360\004"
ARM GAS  C:\Temp\ccVQrAGa.s 			page 265


 5413      510A3E14 
 5413      8465E090 
 5413      006400F0 
 5413      04
 5414 ae0f 0C0195E4 		.ascii	"\014\001\225\344PA$\237\021\354\004\024\240D\021\212"
 5414      5041249F 
 5414      11EC0414 
 5414      A044118A 
 5415 ae1f 23C02C61 		.ascii	"#\300,aq\376\025\241\253\2011\213u\0004\205\005\002"
 5415      71FE15A1 
 5415      AB81318B 
 5415      75003485 
 5415      0502
 5416 ae31 F0608802 		.ascii	"\360`\210\002\025\344P\000\024\374\000\212\003\340\204"
 5416      15E45000 
 5416      14FC008A 
 5416      03E084
 5417 ae40 6E39002B 		.ascii	"n9\000+\201\001@\025\202\205\241+DJ\201\001D \340\200"
 5417      81014015 
 5417      8285A12B 
 5417      444A8101 
 5417      4420E080 
 5418 ae54 40FF13F9 		.ascii	"@\377\023\371\304\004\000\000\004$~5\012\023\301\204"
 5418      C4040000 
 5418      04247E35 
 5418      0A13C184 
 5419 ae64 42018231 		.ascii	"B\001\2021\300,aq\370\025\225;\224{!\006\203#\241CN"
 5419      C02C6171 
 5419      F815953B 
 5419      947B2106 
 5419      8323A143 
 5420 ae79 8AABE38A 		.ascii	"\212\253\343\212%\354 dP\022\360\202\261\377\261\210"
 5420      25EC2064 
 5420      5012F082 
 5420      B1FFB188 
 5421 ae89 45D5BD00 		.ascii	"E\325\275\000P$d\300\257dq\344@\004\360`\204\002d\000"
 5421      502464C0 
 5421      AF6471E4 
 5421      4004F060 
 5421      84026400 
 5422 ae9d 0B80630C 		.ascii	"\013\200c\014\031\374\004s\330\345\000!\010\357\374"
 5422      19FC0473 
 5422      D8E50021 
 5422      08EFFC
 5423 aeac 0C198891 		.ascii	"\014\031\210\221\203\013\345\000\005\001\002`\016t@"
 5423      830BE500 
 5423      05010260 
 5423      0E7440
 5424 aebb 014201DB 		.ascii	"\001B\001\333\200\016p@\000~T\304\004\354 N\212\301"
 5424      800E7040 
 5424      007E54C4 
 5424      04EC204E 
 5424      8AC1
 5425 aecd C3F6B5C8 		.ascii	"\303\366\265\310w>\004\001\001\200|\030\374\370\361"
 5425      773E0401 
 5425      01807C18 
 5425      FCF8F1
ARM GAS  C:\Temp\ccVQrAGa.s 			page 266


 5426 aedc 0C0CF000 		.ascii	"\014\014\360\000\335\223\362|\372\000\004\014\002F\002"
 5426      DD93F27C 
 5426      FA00040C 
 5426      024602
 5427 aeeb 6B0414E1 		.ascii	"k\004\024\341(\2044\203!eu\000\031\000E\300\033\300"
 5427      28843483 
 5427      21657500 
 5427      190045C0 
 5427      1BC0
 5428 aefd 066D4965 		.ascii	"\006mIey\000\011\2021@\033\241\021#/\210\013!/\357\350"
 5428      79000982 
 5428      31401BA1 
 5428      11232F88 
 5428      0B212FEF 
 5429 af12 75488101 		.ascii	"uH\201\001\030\016\362\000\014\014\301\303\335\223\372"
 5429      180EF200 
 5429      0C0CC1C3 
 5429      DD93FA
 5430 af21 7C040CEC 		.ascii	"|\004\014\354P\036\360\210{\000\213e\015\020\011\202"
 5430      501EF088 
 5430      7B008B65 
 5430      0D100982 
 5431 af31 6B402B60 		.ascii	"k@+`\210\002t\020\023\204\253#\013\201!B%\206\233\300"
 5431      88027410 
 5431      1384AB23 
 5431      0B812142 
 5431      25869BC0 
 5432 af45 0B61A5A7 		.ascii	"\013a\245\247\013\202%\020\013\214u@\025jy\221\014\201"
 5432      0B822510 
 5432      0B8C7540 
 5432      156A7991 
 5432      0C81
 5433 af57 B13E5E85 		.ascii	"\261>^\205\005f\221\000\020|\016\300\261B\270\220\013"
 5433      05669100 
 5433      107C0EC0 
 5433      B142B890 
 5433      0B
 5434 af68 8E1B6800 		.ascii	"\216\033h\000\002\360I\007<\036\344@\373\200\026\004"
 5434      02F04907 
 5434      3C1EE440 
 5434      FB801604 
 5435 af78 64300AF0 		.ascii	"d0\012\360\014\033\220\013\022;\224+C\270\226K~\024"
 5435      0C1B900B 
 5435      123B942B 
 5435      43B8964B 
 5435      7E14
 5436 af8a E800FC24 		.ascii	"\350\000\374$\241\013\2045\210\036\276T\221\012\373"
 5436      A10B8435 
 5436      881EBE54 
 5436      910AFB
 5437 af99 80060404 		.ascii	"\200\006\004\004\026\227;@\200@\000Bp\334\000HP\\\000"
 5437      16973B40 
 5437      80400042 
 5437      70DC0048 
 5437      505C00
 5438 afac 6CD8DC00 		.ascii	"l\330\334\000\201\001\317\374\014\014\250\361\335\223"
 5438      8101CFFC 
ARM GAS  C:\Temp\ccVQrAGa.s 			page 267


 5438      0C0CA8F1 
 5438      DD93
 5439 afba F27CFA1C 		.ascii	"\362|\372\034\004L\200{\002k\201\201\001\221@r\203%"
 5439      044C807B 
 5439      026B8181 
 5439      01914072 
 5439      8325
 5440 afcc 0009F0A4 		.ascii	"\000\011\360\244\300,c\361\343\374\000\012\215\013\202"
 5440      C02C63F1 
 5440      E3FC000A 
 5440      8D0B82
 5441 afdb 25029480 		.ascii	"%\002\224\200\365\216\013z\200\357\374D\210\202\221"
 5441      F58E0B7A 
 5441      80EFFC44 
 5441      888291
 5442 afea 8083E140 		.ascii	"\200\203\341@\022\012\220\013\372\265\362\034\014L\301"
 5442      120A900B 
 5442      FAB5F21C 
 5442      0C4CC1
 5443 aff9 C3DD93FA 		.ascii	"\303\335\223\372|\004\014\354P\036\360@\006\000k\000"
 5443      7C040CEC 
 5443      501EF040 
 5443      06006B00 
 5444 b009 04E11819 		.ascii	"\004\341\030\031\024\202\273\010\213\212{\000\010\206"
 5444      1482BB08 
 5444      8B8A7B00 
 5444      0886
 5445 b017 9B7E1E84 		.ascii	"\233~\036\204\253d\370\221\021\000+\357\350\344@\000"
 5445      AB64F891 
 5445      11002BEF 
 5445      E8E44000 
 5446 b027 F00A843E 		.ascii	"\360\012\204>\016<~\340\220d\341\006`\026\013\300\255"
 5446      0E3C7EE0 
 5446      9064E106 
 5446      60160BC0 
 5446      AD
 5447 b038 4DF8941B 		.ascii	"M\370\224\033\222Ko\264\241{\200{\014)\202e@+l\035T"
 5447      924B6FB4 
 5447      A17B807B 
 5447      0C298265 
 5447      402B6C1D 
 5448 b04d 588C0B8E 		.ascii	"X\214\013\216\033h\000\201\001#\013\011\004\200\345"
 5448      1B680081 
 5448      01230B09 
 5448      0480E5
 5449 b05c C9078171 		.ascii	"\311\007\201qo\375\000\002~\024\300\377\004\014\250"
 5449      6FFD0002 
 5449      7E14C0FF 
 5449      040CA8
 5450 b06b F10C0C8E 		.ascii	"\361\014\014\216\013\335\223\362|\372<\004\014\016\000"
 5450      0BDD93F2 
 5450      7CFA3C04 
 5450      0C0E00
 5451 b07a 026BC0B0 		.ascii	"\002k\300\260eqdq\020\000\201\001@\257`\004\023\006"
 5451      65716471 
 5451      10008101 
 5451      40AF6004 
ARM GAS  C:\Temp\ccVQrAGa.s 			page 268


 5451      1306
 5452 b08c 83759DA1 		.ascii	"\203u\235\241x\201\016\031D\020\300\001\311\027p<\346"
 5452      78810E19 
 5452      4410C001 
 5452      C917703C 
 5452      E6
 5453 b09d AA442A8D 		.ascii	"\252D*\215+\202#\200\000\016\031\200\000\020\013\010"
 5453      2B822380 
 5453      000E1980 
 5453      00100B08 
 5454 b0ad 48672884 		.ascii	"Hg(\204\004\002\020l\004\022\220\204\201\202q\3725\241"
 5454      0402106C 
 5454      04129084 
 5454      818271FA 
 5454      35A1
 5455 b0bf 9B0C0CD0 		.ascii	"\233\014\014\320\007\335\223\362<\372\000\004\014\002"
 5455      07DD93F2 
 5455      3CFA0004 
 5455      0C02
 5456 b0cd 06006B5D 		.ascii	"\006\000k]\370\342\200C\366\350H\005\206`\014{\230\340"
 5456      F8E28043 
 5456      F6E84805 
 5456      86600C7B 
 5456      98E0
 5457 b0df 108C0B6F 		.ascii	"\020\214\013o\250Ev\001\021\014\013\340\000\014\014"
 5457      A8457601 
 5457      110C0BE0 
 5457      000C0C
 5458 b0ee 8C3B3E38 		.ascii	"\214;>8\362\000\301\303\340@\372\234\004\014@\226\000"
 5458      F200C1C3 
 5458      E040FA9C 
 5458      040C4096 
 5458      00
 5459 b0ff 6B4C01E0 		.ascii	"kL\001\340\004@+l\035\002\006\202{\214\013b\200\350"
 5459      04402B6C 
 5459      1D020682 
 5459      7B8C0B62 
 5459      80E8
 5460 b111 485C08E4 		.ascii	"H\\\010\344@\016\212\014)\202\325@+l\035\340\000B\266"
 5460      400E8A0C 
 5460      2982D540 
 5460      2B6C1DE0 
 5460      0042B6
 5461 b124 68004DA8 		.ascii	"h\000M\250P\266\214\013#\013\340\000\214\205\201qa\210"
 5461      50B68C0B 
 5461      230BE000 
 5461      8C858171 
 5461      6188
 5462 b136 00740609 		.ascii	"\000t\006\011\221\221\004\224\203\021\241\037i\200@"
 5462      91910494 
 5462      8311A11F 
 5462      698040
 5463 b145 22C82781 		.ascii	"\"\310'\201\021y\204D\022\201\245\004J\371\034Db\370"
 5463      11798444 
 5463      1281A504 
 5463      4AF91C44 
 5463      62F8
ARM GAS  C:\Temp\ccVQrAGa.s 			page 269


 5464 b157 0C821150 		.ascii	"\014\202\021P\204\300\000D\001\340@\002\012\001\021"
 5464      84C00044 
 5464      01E04002 
 5464      0A0111
 5465 b166 FCB50C0B 		.ascii	"\374\265\014\013\237!g\270\214;\200\213\350@\204U\241"
 5465      9F2167B8 
 5465      8C3B808B 
 5465      E8408455 
 5465      A1
 5466 b177 8B6AA90C 		.ascii	"\213j\251\014\011\243\013\300+\000`\2045@\213f\261\340"
 5466      09A30BC0 
 5466      2B006084 
 5466      35408B66 
 5466      B1E0
 5467 b189 10020641 		.ascii	"\020\002\006A\036\201E\354\004\022\220\376\225\241\233"
 5467      1E8145EC 
 5467      041290FE 
 5467      95A19B
 5468 b198 900B8181 		.ascii	"\220\013\201\201\362\234\014\014\014\013\335\223\014"
 5468      F29C0C0C 
 5468      0C0BDD93 
 5468      0C
 5469 b1a5 0C8C1B1C 		.ascii	"\014\214\033\034x\362\234\301\303\340<\372\000\004\014"
 5469      78F29CC1 
 5469      C3E03CFA 
 5469      00040C
 5470 b1b4 61004C46 		.ascii	"a\000LF\340\004E6@!\230\024\300+l\035D \204(\204&\363"
 5470      E0044536 
 5470      40219814 
 5470      C02B6C1D 
 5470      44208428 
 5471 b1cb EC842898 		.ascii	"\354\204(\230\024\363\370D CF\004&bX\340\034\203!hD"
 5471      14F3F844 
 5471      20434604 
 5471      266258E0 
 5471      1C832168 
 5472 b1e0 80189804 		.ascii	"\200\030\230\004\363\364B\020\014\014\200\026\335\223"
 5472      F3F44210 
 5472      0C0C8016 
 5472      DD93
 5473 b1ee F200FA80 		.ascii	"\362\000\372\200\000\014A\206\000;\000\004\341H\340"
 5473      000C4186 
 5473      003B0004 
 5473      E148E0
 5474 b1fd 0409466C 		.ascii	"\004\011Fl\035FA\200H\300+\374\234\010DA\306\000F\200"
 5474      1D464180 
 5474      48C02BFC 
 5474      9C084441 
 5474      C6004680 
 5475 b211 04E14883 		.ascii	"\004\341H\203\001\000\026l%F!\201\021@+o\360x\250\010"
 5475      0100166C 
 5475      25462181 
 5475      11402B6F 
 5475      F078A808 
 5476 b225 0C862B0F 		.ascii	"\014\206+\017\330\362\200\301\303\377\360\372<\004\014"
 5476      D8F280C1 
 5476      C3FFF0FA 
ARM GAS  C:\Temp\ccVQrAGa.s 			page 270


 5476      3C040C
 5477 b234 8101006B 		.ascii	"\201\001\000kh\024MH\201\201\201\021h(o\310\022\206"
 5477      68144D48 
 5477      81818111 
 5477      68286FC8 
 5477      1286
 5478 b246 807BA404 		.ascii	"\200{\244\004\341<B\020\200\030\200\026\363\274\350"
 5478      E13C4210 
 5478      80188016 
 5478      F3BCE8
 5479 b255 3072C895 		.ascii	"0r\310\225\021\003\241\214\013\003!\350D^(\341\020A"
 5479      1103A18C 
 5479      0B0321E8 
 5479      445E28E1 
 5479      1041
 5480 b267 46848680 		.ascii	"F\204\206\200\024\200\246\200\004\200\030\244\004\000"
 5480      1480A680 
 5480      048018A4 
 5480      0400
 5481 b275 16E01979 		.ascii	"\026\340\031y\270\214\013\000\306\357\374\200\004\341"
 5481      B88C0B00 
 5481      C6EFFC80 
 5481      04E1
 5482 b283 2C421080 		.ascii	",B\020\200\030\000\026\363\370\341\030A\006\000\206"
 5482      180016F3 
 5482      F8E11841 
 5482      060086
 5483 b292 8004E114 		.ascii	"\200\004\341\024A\006\200\030\200\004\362\374B\020A"
 5483      41068018 
 5483      8004F2FC 
 5483      421041
 5484 b2a1 46001600 		.ascii	"F\000\026\000\004\341\024\000\206\203\021\341\024A\206"
 5484      04E11400 
 5484      868311E1 
 5484      144186
 5485 b2b0 008C8004 		.ascii	"\000\214\200\004\341\030\000\006\000\206\200\004\341"
 5485      E1180006 
 5485      00868004 
 5485      E1
 5486 b2bd 18004600 		.ascii	"\030\000F\000\206\200\004\341\030\000\306\000\206\200"
 5486      868004E1 
 5486      1800C600 
 5486      8680
 5487 b2cb 040C0C8E 		.ascii	"\004\014\014\216\013\010x\362<\301\303\340\024\372<"
 5487      0B0878F2 
 5487      3CC1C3E0 
 5487      14FA3C
 5488 b2da 040C8161 		.ascii	"\004\014\201a\002\253\200{!\253A\234\014\244\340\004"
 5488      02AB807B 
 5488      21AB419C 
 5488      0CA4E004 
 5489 b2ea 01166C1D 		.ascii	"\001\026l\035N\001\204\233@+P\004L`G8\201\001\201\021"
 5489      4E01849B 
 5489      402B5004 
 5489      4C604738 
 5489      81018111 
 5490 b2fe 68144256 		.ascii	"h\024BV\000\213\\\370\340\000\216\013h\024\001\006!"
ARM GAS  C:\Temp\ccVQrAGa.s 			page 271


 5490      008B5CF8 
 5490      E0008E0B 
 5490      68140106 
 5490      21
 5491 b30f 6B4E01E0 		.ascii	"kN\001\340\004\300+l\035\001&\210\245\224\033`\004l"
 5491      04C02B6C 
 5491      1D012688 
 5491      A5941B60 
 5491      046C
 5492 b321 1D4E018E 		.ascii	"\035N\001\216\013@+o\374vHA\306\222+@ r\375`\001\002"
 5492      0B402B6F 
 5492      FC764841 
 5492      C6922B40 
 5492      2072FD60 
 5493 b337 068004FF 		.ascii	"\006\200\004\377\300\002\006\002\017\300 r\301\374\304"
 5493      C0020602 
 5493      0FC02072 
 5493      C1FCC4
 5494 b346 000401C6 		.ascii	"\000\004\001\306\004\016\200\004\341\230\204u\243\013"
 5494      040E8004 
 5494      E1988475 
 5494      A30B
 5495 b354 72C10206 		.ascii	"r\301\002\006\216\013@ \357\354v\350\0016\201\365\224"
 5495      8E0B4020 
 5495      EFEC76E8 
 5495      013681F5 
 5495      94
 5496 b365 1B60046C 		.ascii	"\033`\004l\035N\001\216\013@+o\374t\010\201\225\222"
 5496      1D4E018E 
 5496      0B402B6F 
 5496      FC740881 
 5496      9592
 5497 b377 2B680041 		.ascii	"+h\000AhB\226\216\013\216\013`\000\350\024Y\010`\000"
 5497      6842968E 
 5497      0B8E0B60 
 5497      00E81459 
 5497      086000
 5498 b38a 426658B8 		.ascii	"BfX\270\216\013\003\021\350\024BX\220\013\214\013\350"
 5498      8E0B0311 
 5498      E8144258 
 5498      900B8C0B 
 5498      E8
 5499 b39b 14F23C0C 		.ascii	"\024\362<\014\014\301\303\335\223\372\204\004\014\014"
 5499      0CC1C3DD 
 5499      93FA8404 
 5499      0C0C
 5500 b3a9 0B806BC0 		.ascii	"\013\200k\300\025n\011"
 5500      156E09
 5501 b3b0 72F94000 		.ascii	"r\371@\000L\003\300\377@\025n\011L\001\201\001\300+"
 5501      4C03C0FF 
 5501      40156E09 
 5501      4C018101 
 5501      C02B
 5502 b3c2 64D5E800 		.ascii	"d\325\350\000}h\214\013\000{\350\030^Hh\000|\210G\370"
 5502      7D688C0B 
 5502      007BE818 
 5502      5E486800 
ARM GAS  C:\Temp\ccVQrAGa.s 			page 272


 5502      7C8847F8 
 5503 b3d6 8C0BA17B 		.ascii	"\214\013\241{\350\014I\370\206%\214\013h\000h\000A\210"
 5503      E80C49F8 
 5503      86258C0B 
 5503      68006800 
 5503      4188
 5504 b3e8 01C68C0B 		.ascii	"\001\306\214\013BFo\334B\036\340\004\002\026\203\021"
 5504      42466FDC 
 5504      421EE004 
 5504      02168311 
 5505 b3f8 E01C4346 		.ascii	"\340\034CF\370\010@\025\357\360i(\014\014\214\013\012"
 5505      F8084015 
 5505      EFF06928 
 5505      0C0C8C0B 
 5505      0A
 5506 b409 78F2840C 		.ascii	"x\362\204\014\014\340\014\335\223\362\204cI\000\031"
 5506      0CE00CDD 
 5506      93F28463 
 5506      490019
 5507 b418 0656402D 		.ascii	"\006V@-\300\001`\001d\001@5\2031@\005h\025@3\201!@\012"
 5507      C0016001 
 5507      64014035 
 5507      83314005 
 5507      68154033 
 5508 b430 65454031 		.ascii	"eE@1\007\006@\"@1\340\010@\033em@1\340\031@\"eM@1\241"
 5508      07064022 
 5508      4031E008 
 5508      401B656D 
 5508      4031E019 
 5509 b44b 41402864 		.ascii	"A@(d\211@\021\2571@-cI`\021\002&@1\300\300@(d\221\340"
 5509      894011AF 
 5509      31402D63 
 5509      49601102 
 5509      264031C0 
 5510 b465 0C47F663 		.ascii	"\014G\366c)@\025\221\021@\013g\311@1\006\006@-@3\340"
 5510      29401591 
 5510      11400B67 
 5510      C9403106 
 5510      06402D40 
 5511 b47b 08401369 		.ascii	"\010@\023i\205\340\214\006\006h\021@\023@\021\300\012"
 5511      85E08C06 
 5511      06681140 
 5511      134011C0 
 5511      0A
 5512 b48c 40276315 		.ascii	"@'c\025\340\020\003\206i\221@\023C\206@\023@3\340\000"
 5512      E0100386 
 5512      69914013 
 5512      43864013 
 5512      4033E000 
 5513 b4a0 40136995 		.ascii	"@\023i\225\340\000F\206c1@\021\211\021@'c5@1\000;\300"
 5513      E0004686 
 5513      63314011 
 5513      89114027 
 5513      63354031 
 5514 b4b7 27C00A69 		.ascii	"'\300\012i1la@\021\205\021@\"le@\021\235\021@\"o\261"
 5514      316C6140 
 5514      11851140 
ARM GAS  C:\Temp\ccVQrAGa.s 			page 273


 5514      226C6540 
 5514      119D1140 
 5515 b4ce 40110234 		.ascii	"@\021\0024@\"@!\374\250\300,nQh\011@#@#\300\012\300"
 5515      40224021 
 5515      FCA8C02C 
 5515      6E516809 
 5515      40234023 
 5516 b4e5 0A680D61 		.ascii	"\012h\015a\035@%\225!@\012ee@A@C\300\033\300\024bAd"
 5516      1D402595 
 5516      21400A65 
 5516      65404140 
 5516      43C01BC0 
 5517 b4fd 8D402140 		.ascii	"\215@!@C\300(\300\023i\201c\021@A@!\300'\300\"o\265"
 5517      43C028C0 
 5517      13698163 
 5517      11404140 
 5517      21C027C0 
 5518 b514 69314013 		.ascii	"i1@\023\335\223\300\012\370|\004\014`\014\024\206c\300"
 5518      DD93C00A 
 5518      F87C040C 
 5518      600C1486 
 5518      63C0
 5519 b526 040E40A3 		.ascii	"\004\016@\243\300\273@\025m\265\357\374U\366m\301@\243"
 5519      C0BB4015 
 5519      6DB5EFFC 
 5519      55F66DC1 
 5519      40A3
 5520 b538 55F64015 		.ascii	"U\366@\025@\241\340\014@,l\375\340|\007\006ci@\241U"
 5520      40A1E00C 
 5520      402C6CFD 
 5520      E07C0706 
 5520      636940A1 
 5521 b54d F6402DC0 		.ascii	"\366@-\300 r\375dY@%\005\006@\005@\245\340\010@\013"
 5521      2072FD64 
 5521      59402505 
 5521      06400540 
 5521      A5E00840 
 5522 b562 64E1E004 		.ascii	"d\341\340\004W\306d\345@\245\275\241@\013n%@!\203!@"
 5522      57C664E5 
 5522      40A5BDA1 
 5522      400B6E25 
 5522      40218321 
 5523 b577 296E8140 		.ascii	")n\201@\261\267\261@,c\251@\241\024V@-\300 p\001j\341"
 5523      B1B7B140 
 5523      2C63A940 
 5523      A1145640 
 5523      2DC02070 
 5524 b58e 40331206 		.ascii	"@3\022\006@\025@3\340\010@\034bm\340\000F\206`$\015"
 5524      40154033 
 5524      E008401C 
 5524      626DE000 
 5524      46866024 
 5525 b5a3 86E05C11 		.ascii	"\206\340\\\021\306n\211@\261\253\261@,b%@3F\306@\034"
 5525      C66E8940 
 5525      B1ABB140 
 5525      2C622540 
 5525      3346C640 
ARM GAS  C:\Temp\ccVQrAGa.s 			page 274


 5526 b5b8 4021E000 		.ascii	"@!\340\000@+e\021@!\243Q@+e\321\340@\016\006f\201@!"
 5526      402B6511 
 5526      4021A351 
 5526      402B65D1 
 5526      E0400E06 
 5527 b5d0 8111402B 		.ascii	"\201\021@+f\205@!\221\301@+k\215@!\205A@+k\221@!@!\300"
 5527      66854021 
 5527      91C1402B 
 5527      6B8D4021 
 5527      8541402B 
 5528 b5eb 2BC02C6D 		.ascii	"+\300,man]@!@!\300,\300,nan\221@!@!\300,\300,n\231c"
 5528      616E5D40 
 5528      214021C0 
 5528      2CC02C6E 
 5528      616E9140 
 5529 b609 31402140 		.ascii	"1@!@\245\300-\300\013d\355d\361@\245\215\241@\013h\035"
 5529      A5C02DC0 
 5529      0B64ED64 
 5529      F140A58D 
 5529      A1400B68 
 5530 b61e 40214021 		.ascii	"@!@!\300-\300-i\331i\335@!@!\300-\300-j}d\325@!\251"
 5530      C02DC02D 
 5530      69D969DD 
 5530      40214021 
 5530      C02DC02D 
 5531 b639 2140386B 		.ascii	"!@8k\035@c\014\006@\025@\203\371\000@\025m\261\340\314"
 5531      1D40630C 
 5531      06401540 
 5531      83F90040 
 5531      156DB1E0 
 5532 b64e 10D66E95 		.ascii	"\020\326n\225@\261\026\306@,@\241\340\014@-c\321r\275"
 5532      40B116C6 
 5532      402C40A1 
 5532      E00C402D 
 5532      63D172BD 
 5533 b662 55F64023 		.ascii	"U\366@#\300 @\034b\021\340\020D\306b)@3\007\006@\034"
 5533      C020401C 
 5533      6211E010 
 5533      44C66229 
 5533      40330706 
 5534 b678 4091E018 		.ascii	"@\221\340\030\300)n!n)@\221@\221\300)@,n\235@Q\265\221"
 5534      C0296E21 
 5534      6E294091 
 5534      4091C029 
 5534      402C6E9D 
 5535 b690 402B65C9 		.ascii	"@+e\311\357\360K\206m\225@e\014\016@\012@\203\377\300"
 5535      EFF04B86 
 5535      6D954065 
 5535      0C0E400A 
 5535      4083FFC0 
 5536 b6a4 40156DB9 		.ascii	"@\025m\271\340\000PfcI@\261\027\206@-@#\340`@\034b\025"
 5536      E0005066 
 5536      634940B1 
 5536      1786402D 
 5536      4023E060 
 5537 b6bc 4033A121 		.ascii	"@3\241!@\034b-\340\370F\006c)@\221@\221\300-\300-c9"
 5537      401C622D 
ARM GAS  C:\Temp\ccVQrAGa.s 			page 275


 5537      E0F84606 
 5537      63294091 
 5537      4091C02D 
 5538 b6d4 63D94091 		.ascii	"c\331@\221@\221\300-@-d\011`\001\022\006@\245\300 \300"
 5538      4091C02D 
 5538      402D6409 
 5538      60011206 
 5538      40A5C020 
 5539 b6e9 0B64F964 		.ascii	"\013d\371d\375@\245\024f@\013\300 h\001k\031@S\231Q"
 5539      FD40A514 
 5539      66400BC0 
 5539      2068016B 
 5539      19405399 
 5540 b6fe 40156D99 		.ascii	"@\025m\231@e\211a@\012m\235@u\213q@\012k\225@\201\217"
 5540      40658961 
 5540      400A6D9D 
 5540      40758B71 
 5540      400A6B95 
 5541 b715 81402B69 		.ascii	"\201@+i\251@\263\207\261@\026b1@3FF@\034@\225\340\370"
 5541      A940B387 
 5541      B1401662 
 5541      31403346 
 5541      46401C40 
 5542 b72c C00B6505 		.ascii	"\300\013e\005e\011@\225\271\221@\013e\021@\245@\245"
 5542      65094095 
 5542      B991400B 
 5542      651140A5 
 5542      40A5
 5543 b73e C00B400B 		.ascii	"\300\013@\013e\025@#\223\241\300\034b!bA@#@#\300\034"
 5543      65154023 
 5543      93A1C01C 
 5543      62216241 
 5543      40234023 
 5544 b754 401C6245 		.ascii	"@\034bE\340\030\004\006b\005@\021@A\300\025\300+e1e"
 5544      E0180406 
 5544      62054011 
 5544      4041C015 
 5544      C02B6531 
 5545 b769 CD40C140 		.ascii	"\315@\301@Q\300+\300+fAj\241@q@a\300+\300+j\245k\211"
 5545      51C02BC0 
 5545      2B66416A 
 5545      A1407140 
 5545      61C02BC0 
 5546 b782 40614081 		.ascii	"@a@\201\300+\300,mQnY@\201@a\300,\300,neni@a@\301\300"
 5546      C02BC02C 
 5546      6D516E59 
 5546      40814061 
 5546      C02CC02C 
 5547 b79f 2CC02C6E 		.ascii	",\300,n\205n\215@A@\301\300,\300,n\245c%@q@q\300-\300"
 5547      856E8D40 
 5547      4140C1C0 
 5547      2CC02C6E 
 5547      A5632540 
 5548 b7b9 2D633563 		.ascii	"-c5cA@A@q\300-\300-cEcY@\261@q\300-\300-c]ca@a@q\300"
 5548      41404140 
 5548      71C02DC0 
 5548      2D634563 
ARM GAS  C:\Temp\ccVQrAGa.s 			page 276


 5548      5940B140 
 5549 b7db 2DC02D63 		.ascii	"-\300-cecm@\021@\261\300-\300-cqc\241@q@q\300-\300-"
 5549      65636D40 
 5549      1140B1C0 
 5549      2DC02D63 
 5549      7163A140 
 5550 b7f6 63A563D5 		.ascii	"c\245c\325@q@\201\300-\300-d\001d\005@q@\301\300-\300"
 5550      40714081 
 5550      C02DC02D 
 5550      64016405 
 5550      407140C1 
 5551 b80d 2D643164 		.ascii	"-d1d5@q@\221\300-\300-d9da@\241@q\300-\300-dedi@\221"
 5551      35407140 
 5551      91C02DC0 
 5551      2D643964 
 5551      6140A140 
 5552 b82c 4081C02D 		.ascii	"@\201\300-\300-e1e5@\201@a\300-\300-h\021j1@A@\301\300"
 5552      C02D6531 
 5552      65354081 
 5552      4061C02D 
 5552      C02D6811 
 5553 b847 2DC02D6A 		.ascii	"-\300-j5j9@\261@a\300-\300-jqd\321@\021@\023\3008\300"
 5553      356A3940 
 5553      B14061C0 
 5553      2DC02D6A 
 5553      7164D140 
 5554 b861 1C621962 		.ascii	"\034b\031b\035@S@3\300\034\300\034b5b9@\023@\023\300"
 5554      1D405340 
 5554      33C01CC0 
 5554      1C623562 
 5554      39401340 
 5555 b877 1CC01C62 		.ascii	"\034\300\034b=bI@#@#\300\034\300\034bMbQ@#@\023\300"
 5555      3D624940 
 5555      234023C0 
 5555      1CC01C62 
 5555      4D625140 
 5556 b88f 1CC01C62 		.ascii	"\034\300\034bU\360|\014\014\301\303\335\223\370<\004"
 5556      55F07C0C 
 5556      0CC1C3DD 
 5556      93F83C04 
 5557 b89f 4C614C44 		.ascii	"LaLDF\344P\012\000\221\301\012\024\014\206H4\300\000"
 5557      46E4500A 
 5557      0091C10A 
 5557      140C8648 
 5557      34C000
 5558 b8b2 61954E86 		.ascii	"a\225N\206\010D\300\000a\225\346\206D:a\220\006D\344"
 5558      0844C000 
 5558      6195E686 
 5558      443A6190 
 5558      0644E4
 5559 b8c5 10080055 		.ascii	"\020\010\000U\212\203U\354\004\030\300\311\207\321\222"
 5559      8A8355EC 
 5559      0418C0C9 
 5559      87D192
 5560 b8d4 66A2502A 		.ascii	"f\242P*\341\364\024\224P\212\206\251\224\223`\016\373"
 5560      E1F41494 
 5560      508A86A9 
ARM GAS  C:\Temp\ccVQrAGa.s 			page 277


 5560      9493600E 
 5560      FB
 5561 b8e5 00129450 		.ascii	"\000\022\224P\212\205\227\331\236\346\206\241\313\335"
 5561      8A8597D9 
 5561      9EE686A1 
 5561      CBDD
 5562 b8f3 8E0012FA 		.ascii	"\216\000\022\372ua\231\004\206\002\002\300\000a\231"
 5562      75619904 
 5562      860202C0 
 5562      006199
 5563 b902 06C6881E 		.ascii	"\006\306\210\036\300\000\014L\214\016\335\223\360<\004"
 5563      C0000C4C 
 5563      8C0EDD93 
 5563      F03C04
 5564 b911 C60002C0 		.ascii	"\306\000\002\300\000a\231\204\015\210$Z\000\\\010\300"
 5564      00619984 
 5564      0D88245A 
 5564      005C08C0 
 5565 b921 00000661 		.ascii	"\000\000\006a\225\004\206\2104\300\000D\206\207\015"
 5565      95048688 
 5565      34C00044 
 5565      86870D
 5566 b930 C0000195 		.ascii	"\300\000\001\225\300\000\004%\0045\216\265\207\015\340"
 5566      C0000425 
 5566      04358EB5 
 5566      870DE0
 5567 b93f 1C019904 		.ascii	"\034\001\231\004F\004%\200\000\214\205\200\000\2031"
 5567      46042580 
 5567      008C8580 
 5567      008331
 5568 b94e 01A5FA80 		.ascii	"\001\245\372\200\0104\010E\304G\200M\374\010\2021\200"
 5568      08340845 
 5568      C447804D 
 5568      FC088231 
 5568      80
 5569 b95f B5F41807 		.ascii	"\265\364\030\007\012\0060\374\305\0124\354\004\010P"
 5569      0A0630FC 
 5569      C50A34EC 
 5569      040850
 5570 b96e FA80C457 		.ascii	"\372\200\304Wd\004|\010\0125\010%\304G\246#\374\010"
 5570      64047C08 
 5570      0A350825 
 5570      C447A623 
 5570      FC08
 5571 b980 0605A12B 		.ascii	"\006\005\241+\200\000\004\006a\225X\206F\002@\000\012"
 5571      80000406 
 5571      61955886 
 5571      46024000 
 5571      0A
 5572 b991 55F18C08 		.ascii	"U\361\214\010E\3740\252C\3740\341|\030D\230C\365\307"
 5572      45FC30AA 
 5572      43FC30E1 
 5572      7C184498 
 5572      43F5C7
 5573 b9a4 463A8D47 		.ascii	"F:\215GD:\346\222\314'\340\212\004\024\212#a\231\006"
 5573      443AE692 
 5573      CC27E08A 
ARM GAS  C:\Temp\ccVQrAGa.s 			page 278


 5573      04148A23 
 5573      619906
 5574 b9b7 868C34C0 		.ascii	"\206\2144\300\000\372\000@2\346\202@\012\340\202@*\344"
 5574      00FA0040 
 5574      32E68240 
 5574      0AE08240 
 5574      2AE4
 5575 b9c9 0042CAE2 		.ascii	"\000B\312\342\000\000\014\301\303\335\223\372|\004\014"
 5575      00000CC1 
 5575      C3DD93FA 
 5575      7C040C
 5576 b9d8 EC501EF0 		.ascii	"\354P\036\360\202\213|.\206kb\030u\270\276\036`\010"
 5576      828B7C2E 
 5576      866B6218 
 5576      75B8BE1E 
 5576      6008
 5577 b9ea EFFC81A1 		.ascii	"\357\374\201\241\221\201\341\000\000\012\020F\011\025"
 5577      9181E100 
 5577      000A1046 
 5577      0915
 5578 b9f8 7C14C000 		.ascii	"|\024\300\000\000\004\226\003\200\023\372\200\354\000"
 5578      00049603 
 5578      8013FA80 
 5578      EC00
 5579 ba06 02198885 		.ascii	"\002\031\210\205\303\255@\012\276\024\224\003\346\206"
 5579      C3AD400A 
 5579      BE149403 
 5579      E686
 5580 ba14 FA800E04 		.ascii	"\372\200\016\004`\204\000t\340\210\002t|\004\014\025"
 5580      60840074 
 5580      E0880274 
 5580      7C040C15 
 5581 ba24 00038C03 		.ascii	"\000\003\214\003\300\001l\001a\234\004\024\3440\002"
 5581      C0016C01 
 5581      619C0414 
 5581      E43002
 5582 ba33 F0C5077E 		.ascii	"\360\305\007~.\000\360\021\014v\230\344@\241\013\357"
 5582      2E00F011 
 5582      0C7698E4 
 5582      40A10BEF 
 5583 ba43 FC50984E 		.ascii	"\374P\230Nr\300\000\000\346\014\001N\001\202\221\300"
 5583      72C00000 
 5583      E60C014E 
 5583      018291C0 
 5584 ba53 04FA8000 		.ascii	"\004\372\200\000\224\364\025\321\015\202\021\274\024"
 5584      94F415D1 
 5584      0D8211BC 
 5584      14
 5585 ba60 FA800014 		.ascii	"\372\200\000\024V\012\321\015\022\006F\242^\025\300"
 5585      560AD10D 
 5585      120646A2 
 5585      5E15C0
 5586 ba6f 00FC35C0 		.ascii	"\000\3745\300\000\276\004\202\241|u\201\253\300\000"
 5586      00BE0482 
 5586      A17C7581 
 5586      ABC000
 5587 ba7e 02060C0C 		.ascii	"\002\006\014\014\250\361\335\223\362|\370|\004\314\344"
ARM GAS  C:\Temp\ccVQrAGa.s 			page 279


 5587      A8F1DD93 
 5587      F27CF87C 
 5587      04CCE4
 5588 ba8d 5DC25840 		.ascii	"]\302X@\010\230\225\217^\201Aa\000\000\012\013\225\221"
 5588      0898958F 
 5588      5E814161 
 5588      00000A0B 
 5588      9591
 5589 ba9f 01C00000 		.ascii	"\001\300\000\000F\020t\230sN\022\372\200\016\231\360"
 5589      46107498 
 5589      734E12FA 
 5589      800E99F0 
 5590 baaf A0D34DEC 		.ascii	"\240\323M\354\000P\212\216\205\210\203\346\226\372\200"
 5590      00508A8E 
 5590      858883E6 
 5590      96FA80
 5591 babe 1084F0A0 		.ascii	"\020\204\360\240T\"l\001\024\271\275\273\300\004!K\214"
 5591      54226C01 
 5591      14B9BDBB 
 5591      C004214B 
 5591      8C
 5592 bacf 1564010E 		.ascii	"\025d\001\016p\212\025\300\003\210\325\245\233d\004"
 5592      708A15C0 
 5592      0388D5A5 
 5592      9B6404
 5593 bade 12806400 		.ascii	"\022\200d\000\024\240V\"\300\023\006\204p\244\026\271"
 5593      14A05622 
 5593      C0130684 
 5593      70A416B9 
 5594 baee E0844004 		.ascii	"\340\204@\004l\001\204\203\304\207\026\224(\266\024"
 5594      6C018483 
 5594      C4871694 
 5594      28B614
 5595 bafd 20E08440 		.ascii	" \340\204@\016d\001\024[\304\227\206\243|,\004U\250"
 5595      0E640114 
 5595      5BC49786 
 5595      A37C2C04 
 5595      55A8
 5596 bb0f 5C205EFC 		.ascii	"\\ ^\374$d\001\012 \012\213\300\014\206S|,\217T\224"
 5596      2464010A 
 5596      200A8BC0 
 5596      0C86537C 
 5596      2C8F5494 
 5597 bb23 8C06909C 		.ascii	"\214\006\220\234\230\2346\354\004\016d\202a\301}\372"
 5597      989C36EC 
 5597      040E6482 
 5597      61C17DFA 
 5598 bb33 808D34EE 		.ascii	"\200\2154\356\025\0304\2021\301\315\372\200F\202X\312"
 5598      15183482 
 5598      31C1CDFA 
 5598      80468258 
 5598      CA
 5599 bb44 C0000C06 		.ascii	"\300\000\014\006\300\030^5\202A\3745|\225\213K\300\000"
 5599      C0185E35 
 5599      8241FC35 
 5599      7C958B4B 
 5599      C000
ARM GAS  C:\Temp\ccVQrAGa.s 			page 280


 5600 bb56 0606F07C 		.ascii	"\006\006\360|\014\314\301\303\335\223\341\024BF\204"
 5600      0CCCC1C3 
 5600      DD93E114 
 5600      424684
 5601 bb65 1884146B 		.ascii	"\030\204\024k\361@\021\335\223\300+\341L\000\006\200"
 5601      F14011DD 
 5601      93C02BE1 
 5601      4C000680 
 5602 bb75 088004E0 		.ascii	"\010\200\004\340\000\000J\342\000\000\014"
 5602      00004AE2 
 5602      00000C
 5603 bb80 C1C3DD93 		.ascii	"\301\303\335\223aL\000\006\200\004\201\021\335\223\200"
 5603      614C0006 
 5603      80048111 
 5603      DD9380
 5604 bb8f 16614841 		.ascii	"\026aHA\206\341\230\005\306\2031\000\004\302\031\200"
 5604      86E19805 
 5604      C6833100 
 5604      04C21980 
 5605 bb9f 18883E80 		.ascii	"\030\210>\200\026\301\303\335\223aHA\206\341\230\005"
 5605      16C1C3DD 
 5605      93614841 
 5605      86E19805 
 5606 bbaf C6813100 		.ascii	"\306\2011\000\004B\020\200\030\200\026\363\370\335\223"
 5606      04421080 
 5606      188016F3 
 5606      F8DD93
 5607 bbbe 883EE148 		.ascii	"\210>\341HA\206\200\000\200\004A\306\241\015\000\005"
 5607      41868000 
 5607      800441C6 
 5607      A10D0005 
 5608 bbce 81480019 		.ascii	"\201H\000\031\200\000B\020\200\000@\021\234\004\335"
 5608      80004210 
 5608      80004011 
 5608      9C04DD
 5609 bbdd 938000E1 		.ascii	"\223\200\000\341HA\206\200\000\200\004A\306\241\015"
 5609      48418680 
 5609      00800441 
 5609      C6A10D
 5610 bbec 00058148 		.ascii	"\000\005\201H\000\031\200\000B\020\200\000@\021\234"
 5610      00198000 
 5610      42108000 
 5610      40119C
 5611 bbfb 08DD9380 		.ascii	"\010\335\223\200\000\341HA\206\200\000\200\004A\306"
 5611      00E14841 
 5611      86800080 
 5611      0441C6
 5612 bc0a A10D0005 		.ascii	"\241\015\000\005\201H\000\031\200\000B\020\200\000@"
 5612      81480019 
 5612      80004210 
 5612      800040
 5613 bc19 1193F4DD 		.ascii	"\021\223\364\335\223\200\000\341HA\206\200\000\200\004"
 5613      938000E1 
 5613      48418680 
 5613      008004
 5614 bc28 41C6A10D 		.ascii	"A\306\241\015\000\005\201H\000\031\200\000B\020\200"
 5614      00058148 
ARM GAS  C:\Temp\ccVQrAGa.s 			page 281


 5614      00198000 
 5614      421080
 5615 bc37 0040119C 		.ascii	"\000@\021\234\020\335\223\200\000\341HA\206\200\000"
 5615      10DD9380 
 5615      00E14841 
 5615      868000
 5616 bc46 800441C6 		.ascii	"\200\004A\306\241\015\000\005\201H\000\031\200\000B"
 5616      A10D0005 
 5616      81480019 
 5616      800042
 5617 bc55 10800040 		.ascii	"\020\200\000@\021\223\354\335\223\200\000\372\374\004"
 5617      1193ECDD 
 5617      938000FA 
 5617      FC04
 5618 bc63 0C810100 		.ascii	"\014\201\001\000kh\014{\310\201\201\201\021a4V\206,"
 5618      6B680C7B 
 5618      C8818181 
 5618      11613456 
 5618      862C
 5619 bc75 04807BE1 		.ascii	"\004\200{\341L\023\006\203!\003\241\244\004\200\206"
 5619      4C130683 
 5619      2103A1A4 
 5619      048086
 5620 bc84 A4048086 		.ascii	"\244\004\200\206\244\004\200\246\014\025\200\206\300"
 5620      A40480A6 
 5620      0C158086 
 5620      C0
 5621 bc91 0B69F940 		.ascii	"\013i\371@\206\241\033\000\025\217\334\214\013\000\000"
 5621      86A11B00 
 5621      158FDC8C 
 5621      0B0000
 5622 bca0 E8404DC8 		.ascii	"\350@M\310\203\021,\004@F\000\246\200\004\3414\244\004"
 5622      83112C04 
 5622      404600A6 
 5622      8004E134 
 5622      A404
 5623 bcb2 80A6A404 		.ascii	"\200\246\244\004\200\206\244\004\200\246\214\013\000"
 5623      8086A404 
 5623      80A68C0B 
 5623      00
 5624 bcbf 86E81067 		.ascii	"\206\350\020g\250\216\013\003\021\350\014x\310g\315"
 5624      A88E0B03 
 5624      11E80C78 
 5624      C867CD
 5625 bcce 0C09A409 		.ascii	"\014\011\244\011\300-\202u\245\013l!\014\011\247\013"
 5625      C02D8275 
 5625      A50B6C21 
 5625      0C09A70B 
 5626 bcde C02B8C0B 		.ascii	"\300+\214\013\200\325\362\374\014\014\340,\022(\362"
 5626      80D5F2FC 
 5626      0C0CE02C 
 5626      1228F2
 5627 bced FC0C0CC1 		.ascii	"\374\014\014\301\303\335\223\372|\004\014\355P\036\360"
 5627      C3DD93FA 
 5627      7C040CED 
 5627      501EF0
 5628 bcfc 9711006B 		.ascii	"\227\021\000k\350\020M(\357\334BF@\000\204\010\204\006"
ARM GAS  C:\Temp\ccVQrAGa.s 			page 282


 5628      E8104D28 
 5628      EFDC4246 
 5628      40008408 
 5628      8406
 5629 bd0e F3F86265 		.ascii	"\363\370be\014\011@J\300\025\"X\340\214\014\011\200"
 5629      0C09404A 
 5629      C0152258 
 5629      E08C0C09 
 5629      80
 5630 bd1f 00C02D6B 		.ascii	"\000\300-k\205!\370\241\013\006`\200\000@\266g\241\340"
 5630      8521F8A1 
 5630      0B066080 
 5630      0040B667 
 5630      A1E0
 5631 bd31 04000664 		.ascii	"\004\000\006dP\004\360\201E\201\021\000\000I\026\241"
 5631      5004F081 
 5631      45811100 
 5631      004916A1 
 5632 bd41 0BEC0419 		.ascii	"\013\354\004\031!\376\225>>\201Q\033H\201\001\000\012"
 5632      21FE953E 
 5632      3E81511B 
 5632      48810100 
 5632      0A
 5633 bd52 E0001B48 		.ascii	"\340\000\033H\360\000RZ\300\000\206\223\346\212\340"
 5633      F000525A 
 5633      C0008693 
 5633      E68AE0
 5634 bd61 2012A912 		.ascii	" \022\251\022I\241\253\025\370\200(\022\271\200\000"
 5634      49A1AB15 
 5634      F8802812 
 5634      B98000
 5635 bd70 B1AB602C 		.ascii	"\261\253`,\340(\022I\341\204\000\264@@|\016\211\016"
 5635      E0281249 
 5635      E18400B4 
 5635      40407C0E 
 5635      890E
 5636 bd82 F0FCAC05 		.ascii	"\360\374\254\005\376N\036\005\263\253@\002\200\020\000"
 5636      FE4E1E05 
 5636      B3AB4002 
 5636      801000
 5637 bd91 49909880 		.ascii	"I\220\230\200\025\017A\200\000\013\250\216\345\265\253"
 5637      150F4180 
 5637      000BA88E 
 5637      E5B5AB
 5638 bda0 1E05B7AB 		.ascii	"\036\005\267\253@\002\200\020\000A\220\230\200\025\016"
 5638      40028010 
 5638      00419098 
 5638      80150E
 5639 bdaf 410C09AA 		.ascii	"A\014\011\252\305@\025b\021\211\304\271\253\346\202"
 5639      C5401562 
 5639      1189C4B9 
 5639      ABE682
 5640 bdbe 40CA9A80 		.ascii	"@\312\232\200\000\004\220\230@\002\016A\000I\246\345"
 5640      00049098 
 5640      40020E41 
 5640      0049A6E5 
 5641 bdce 801AA425 		.ascii	"\200\032\244%\273\253\212E\275\253\201A?\253\024\012"
ARM GAS  C:\Temp\ccVQrAGa.s 			page 283


 5641      BBAB8A45 
 5641      BDAB8141 
 5641      3FAB140A 
 5642 bdde A6050C45 		.ascii	"\246\005\014E\340@\200\015\010Y\024\012\242\205\014"
 5642      E040800D 
 5642      0859140A 
 5642      A2850C
 5643 bded 45E04480 		.ascii	"E\340D\200\015\010]\024\012\240\305\014I\340H\2006\001"
 5643      0D085D14 
 5643      0AA0C50C 
 5643      49E04880 
 5643      3601
 5644 bdff 85140AA0 		.ascii	"\205\024\012\240\305\206\205\340L\340P\024\012\211\004"
 5644      C58685E0 
 5644      4CE05014 
 5644      0A8904
 5645 be0e 88158C03 		.ascii	"\210\025\214\003\304\007h\345\000E\2175\300\015\302"
 5645      C40768E5 
 5645      00458F35 
 5645      C00DC2
 5646 be1d 07890400 		.ascii	"\007\211\004\000K\214\003\300\012m\241\211\004\217%"
 5646      4B8C03C0 
 5646      0A6DA189 
 5646      048F25
 5647 be2c 00418C03 		.ascii	"\000A\214\003\300\025nAmA\000\001\0155\300\025\211\004"
 5647      C0156E41 
 5647      6D410001 
 5647      0D35C015 
 5647      8904
 5648 be3e A0438C03 		.ascii	"\240C\214\003\304\007he\000E\213\265\300\015\010\004"
 5648      C4076865 
 5648      00458BB5 
 5648      C00D0804 
 5649 be4e 09243C5E 		.ascii	"\011$<^\372\200\214#\211\001oA\0049\201!@\025\016$\205"
 5649      FA808C23 
 5649      89016F41 
 5649      04398121 
 5649      40150E24 
 5650 be63 458873FA 		.ascii	"E\210s\372\200\016p\214s\300kfA\021\012\230\213\006"
 5650      800E708C 
 5650      73C06B66 
 5650      41110A98 
 5650      8B06
 5651 be75 35F41CC4 		.ascii	"5\364\034\304\004\004 p\020\000\012\344\004\030\200"
 5651      04042070 
 5651      10000AE4 
 5651      041880
 5652 be84 1C58FCD5 		.ascii	"\034X\374\325\372\200\020\204\020\211\214\203\300.g"
 5652      FA801084 
 5652      10898C83 
 5652      C02E67
 5653 be93 C1FA800A 		.ascii	"\301\372\200\012T\372\200\020\204\3725\221[\223\301"
 5653      54FA8010 
 5653      84FA3591 
 5653      5B93C1
 5654 bea2 040B8921 		.ascii	"\004\013\211!{\365\364\014D\212\030\006vu\000\012\300"
 5654      7BF5F40C 
ARM GAS  C:\Temp\ccVQrAGa.s 			page 284


 5654      448A1806 
 5654      7675000A 
 5654      C0
 5655 beb3 00040470 		.ascii	"\000\004\004p\020\242\025\372\200\340\200V\032\240\000"
 5655      10A215FA 
 5655      80E08056 
 5655      1AA000
 5656 bec2 085806F0 		.ascii	"\010X\006\360|\004\011D\344P\274T\203!\340\200@\012"
 5656      7C040944 
 5656      E450BC54 
 5656      8321E080 
 5656      400A
 5657 bed4 5C100629 		.ascii	"\\\020\006)\360\220@2D \2764\200&\320\004\211\004\225"
 5657      F0904032 
 5657      4420BE34 
 5657      8026D004 
 5657      890495
 5658 bee7 058C03C4 		.ascii	"\005\214\003\304\007d\321\000E\201u\300\005\304\007"
 5658      0764D100 
 5658      458175C0 
 5658      05C407
 5659 bef6 89040045 		.ascii	"\211\004\000E\214\003\300\005e\321`\001\000\006\201"
 5659      8C03C005 
 5659      65D16001 
 5659      000681
 5660 bf05 4BFC0080 		.ascii	"K\374\000\200\000\010\370\340$\022\011\204E\253\013"
 5660      0008F8E0 
 5660      24120984 
 5660      45AB0B
 5661 bf14 8465A30B 		.ascii	"\204e\243\013\210e\245\013\210\205\247\013\212\205\251"
 5661      8865A50B 
 5661      8885A70B 
 5661      8A85A9
 5662 bf23 0BA015A1 		.ascii	"\013\240\025\241\013\201M\244\004\246\004\2205\202e"
 5662      0B814DA4 
 5662      04A60490 
 5662      358265
 5663 bf32 804DA404 		.ascii	"\200M\244\004\207\325\201K\003\225\201M\244\004\246"
 5663      87D5814B 
 5663      0395814D 
 5663      A404A6
 5664 bf41 0480958C 		.ascii	"\004\200\225\214\205\200M\004\360|\004\211D\344P`\200"
 5664      85804D04 
 5664      F07C0489 
 5664      44E45060 
 5664      80
 5665 bf52 400A0409 		.ascii	"@\012\004\011\203\001\0075\334\020\320\004@\000\001"
 5665      83010735 
 5665      DC10D004 
 5665      400001
 5666 bf61 E5A404A6 		.ascii	"\345\244\004\246\004\200M\011\304\200M\344P\000\360"
 5666      04804D09 
 5666      C4804DE4 
 5666      5000F0
 5667 bf70 0029FC34 		.ascii	"\000)\3744\202e\3740\244\004\203\025\011\304\201K\344"
 5667      8265FC30 
 5667      A4048315 
ARM GAS  C:\Temp\ccVQrAGa.s 			page 285


 5667      09C4814B 
 5667      E4
 5668 bf81 5000F000 		.ascii	"P\000\360\000)\3744\202\005\3740FJ~D\004\006\340\200"
 5668      29FC3482 
 5668      05FC3046 
 5668      4A7E4404 
 5668      06E080
 5669 bf94 01858000 		.ascii	"\001\205\200\000~D\204;\340\200F\012F \2031\230\003"
 5669      7E44843B 
 5669      E080460A 
 5669      46208331 
 5669      9803
 5670 bfa6 D004BE34 		.ascii	"\320\004\2764\2006|\004\201\325\344P\004\360@J\211D"
 5670      80367C04 
 5670      81D5E450 
 5670      04F0404A 
 5670      8944
 5671 bfb8 81016080 		.ascii	"\201\001`\200\334\020\004\011\210#~D\007\025\210\006"
 5671      DC100409 
 5671      88237E44 
 5671      07158806 
 5672 bfc8 BC549921 		.ascii	"\274T\231!VJ\204U\202\345\340\200\006\360|\004\011\304"
 5672      564A8455 
 5672      82E5E080 
 5672      06F07C04 
 5672      09C4
 5673 bfda E450FE44 		.ascii	"\344P\376D\201!\340\200@J\\0\006)\360\260@2\373\345"
 5673      8121E080 
 5673      404A5C30 
 5673      0629F0B0 
 5673      4032FBE5 
 5674 bfee 8026010A 		.ascii	"\200&\001\012>4\204\365\364\014\206\205\257\253\212"
 5674      3E3484F5 
 5674      F40C8685 
 5674      AFAB8A
 5675 bffd 85A5AB8C 		.ascii	"\205\245\253\214%\247\253\214\305\251\253\216\205\253"
 5675      25A7AB8C 
 5675      C5A9AB8E 
 5675      85AB
 5676 c00b AB9025AD 		.ascii	"\253\220%\255\253\2025\243\253\302'\210#\004C\214#@"
 5676      AB8235A3 
 5676      ABC22788 
 5676      2304438C 
 5676      2340
 5677 c01d 0C6D21EF 		.ascii	"\014m!\357U\231!\376D\231!r\000@@\011E\202Q\010#\317"
 5677      559921FE 
 5677      44992172 
 5677      00404009 
 5677      45825108 
 5678 c033 07664100 		.ascii	"\007fA\000`\006$\300X\200#`\204d\001\004)\206\003@\004"
 5678      600624C0 
 5678      58802360 
 5678      84640104 
 5678      29860340 
 5679 c048 6C010043 		.ascii	"l\001\000C\2764\300\001\007\005\310'\210#\204C\214#"
 5679      BE34C001 
 5679      0705C827 
ARM GAS  C:\Temp\ccVQrAGa.s 			page 286


 5679      88238443 
 5679      8C23
 5680 c05a C4276891 		.ascii	"\304'h\221\004E\205\205\300\005\304'\210#\004E\214#"
 5680      04458585 
 5680      C005C427 
 5680      88230445 
 5680      8C23
 5681 c06c C0066091 		.ascii	"\300\006`\221\210#\205\025\214#\302'i!\004K\231!@\014"
 5681      88238515 
 5681      8C23C227 
 5681      6921044B 
 5681      9921400C 
 5682 c080 8823E965 		.ascii	"\210#\351e\004I\214#@\032jA\347\365\231!\000`\010#\300"
 5682      04498C23 
 5682      401A6A41 
 5682      E7F59921 
 5682      00600823 
 5683 c095 58664160 		.ascii	"XfA`\204\006$\004)\200#@\004`\001\000C\206\003\300\001"
 5683      84062404 
 5683      29802340 
 5683      04600100 
 5683      438603C0 
 5684 c0aa 6C01C827 		.ascii	"l\001\310'\2764eu\244C\013\012\231!$\310\344\374L\025"
 5684      BE346575 
 5684      A4430B0A 
 5684      992124C8 
 5684      E4FC4C15 
 5685 c0be 9FFC400B 		.ascii	"\237\374@\013i\355L\025\201\001@\013i\351\205\245\201"
 5685      69ED4C15 
 5685      8101400B 
 5685      69E985A5 
 5685      81
 5686 c0cf 21645006 		.ascii	"!dP\006\360\354\200\010\020|\004\0069\373\220J\022d"
 5686      F0EC8008 
 5686      107C0406 
 5686      39FB904A 
 5686      1264
 5687 c0e1 7C030AEC 		.ascii	"|\003\012\354|\010Rl\000\020D\006\313\250S\030\006\202"
 5687      7C08526C 
 5687      00104406 
 5687      CBA85318 
 5687      0682
 5688 c0f3 110EC480 		.ascii	"\021\016\304\200\000\201\301h\220\234\000X0o\220\006"
 5688      0081C168 
 5688      909C0058 
 5688      306F9006 
 5689 c103 C44682A9 		.ascii	"\304F\202\251\317\270\017x\214\006R&\177L\005\354\004"
 5689      CFB80F78 
 5689      8C065226 
 5689      7F4C05EC 
 5689      04
 5690 c114 400B69E9 		.ascii	"@\013i\351\256/\247\177i\355L%\002\012\300\013\364\265"
 5690      AE2FA77F 
 5690      69ED4C25 
 5690      020AC00B 
 5690      F4B5
 5691 c126 E100A10B 		.ascii	"\341\000\241\013\244\017\014\011\210\005\3008d\305d"
ARM GAS  C:\Temp\ccVQrAGa.s 			page 287


 5691      A40F0C09 
 5691      8805C038 
 5691      64C564
 5692 c135 C10C1943 		.ascii	"\301\014\031C\015\3008d\305\000`\206\365\300\341\357"
 5692      0DC03864 
 5692      C5006086 
 5692      F5C0E1EF 
 5693 c145 DC424688 		.ascii	"\334BF\210\030\202+\210\026\302\031n\015\014\031\243"
 5693      18822B88 
 5693      16C2196E 
 5693      0D0C19A3 
 5694 c155 1BC03680 		.ascii	"\033\3006\200\000\002\026\003\021L\021\201\365\2008"
 5694      00021603 
 5694      114C1181 
 5694      F58038
 5695 c164 C2098408 		.ascii	"\302\011\204\010\203%\204\006\357\334@F\204\010\200"
 5695      83258406 
 5695      EFDC4046 
 5695      840880
 5696 c173 1BF3F840 		.ascii	"\033\363\370@\000\000`\004\006\300\341d\305\002\012"
 5696      00006004 
 5696      06C0E164 
 5696      C5020A
 5697 c182 80180210 		.ascii	"\200\030\002\020\343\374@\021\304\004\036\360\300\000"
 5697      E3FC4011 
 5697      C4041EF0 
 5697      C000
 5698 c190 0C0CE550 		.ascii	"\014\014\345P\335\223\362|\357\334@F\200(\200\030\004"
 5698      DD93F27C 
 5698      EFDC4046 
 5698      80288018 
 5698      04
 5699 c1a1 19C217F3 		.ascii	"\031\302\027\363\364D \200&\242/\301\303\335\223\357"
 5699      F4442080 
 5699      26A22FC1 
 5699      C3DD93EF 
 5700 c1b1 DC0286E0 		.ascii	"\334\002\206\340p\002)\340\204D\012\232\000\\\010d\325"
 5700      700229E0 
 5700      84440A9A 
 5700      005C0864 
 5700      D5
 5701 c1c2 0029A72B 		.ascii	"\000)\247+\300+\200\000\002)\234 D \200\000B!\377\374"
 5701      C02B8000 
 5701      02299C20 
 5701      44208000 
 5701      4221FFFC 
 5702 c1d6 1468FA00 		.ascii	"\024h\372\000\004\014lQ\000\031\000)\300+\300\025aA"
 5702      040C6C51 
 5702      00190029 
 5702      C02BC015 
 5702      6141
 5703 c1e8 E0840614 		.ascii	"\340\204\006\024f\206B*\372\200\0044lI@1\006\012@+B"
 5703      6686422A 
 5703      FA800434 
 5703      6C494031 
 5703      060A402B 
 5704 c1fd 1AF00040 		.ascii	"\032\360\000@\021\340\012\300+lA\201\001\200\245\362"
ARM GAS  C:\Temp\ccVQrAGa.s 			page 288


 5704      11E00AC0 
 5704      2B6C4181 
 5704      0180A5F2 
 5705 c20d 000C0C00 		.ascii	"\000\014\014\000)\335\223@+l\035\340\010B\226o\370E"
 5705      29DD9340 
 5705      2B6C1DE0 
 5705      0842966F 
 5705      F845
 5706 c21f E8E0084C 		.ascii	"\350\340\010L\226\014\006\243\013\214\013\300\000\362"
 5706      960C06A3 
 5706      0B8C0BC0 
 5706      00F2
 5707 c22d 000C0CC1 		.ascii	"\000\014\014\301\303\335\223\372\000\004\014lU\000\031"
 5707      C3DD93FA 
 5707      00040C6C 
 5707      550019
 5708 c23c 0029C02B 		.ascii	"\000)\300+\300\025aE\340\204\006\024f\206B*\372\200"
 5708      C0156145 
 5708      E0840614 
 5708      6686422A 
 5708      FA80
 5709 c24e 04346C4D 		.ascii	"\0044lM@1\006\012@+B\032\360\000@\021\340\012\300+l"
 5709      4031060A 
 5709      402B421A 
 5709      F0004011 
 5709      E00AC02B 
 5710 c263 45810180 		.ascii	"E\201\001\200\245\362\000\014\014\000)\335\223@+l\035"
 5710      A5F2000C 
 5710      0C0029DD 
 5710      93402B6C 
 5710      1D
 5711 c274 E0084296 		.ascii	"\340\010B\226o\370C\010\340\010L\226\014\006\243\013"
 5711      6FF84308 
 5711      E0084C96 
 5711      0C06A30B 
 5712 c284 8C0BC000 		.ascii	"\214\013\300\000\362\000\014\014\301\303\335\223\372"
 5712      F2000C0C 
 5712      C1C3DD93 
 5712      FA
 5713 c291 04044C0C 		.ascii	"\004\004L\014\011\200k\300\025aE\354\004\002\000\364"
 5713      09806BC0 
 5713      156145EC 
 5713      040200F4 
 5714 c2a1 1C030A0C 		.ascii	"\034\003\012\014\031\202\325\300\025aA\354\004\004\020"
 5714      1982D5C0 
 5714      156141EC 
 5714      040410
 5715 c2b0 F424050A 		.ascii	"\364$\005\012@\012\200\325\000\212\346\206\2045\345"
 5715      400A80D5 
 5715      008AE686 
 5715      8435E5
 5716 c2bf 446C1D0C 		.ascii	"Dl\035\014)\017\366@+\003\366\340\010\214\013`\010\357"
 5716      290FF640 
 5716      2B03F6E0 
 5716      088C0B60 
 5716      08EF
 5717 c2d1 F840480D 		.ascii	"\370@H\015x\243\013\014\031\200\000\300\025aAaQ\014"
ARM GAS  C:\Temp\ccVQrAGa.s 			page 289


 5717      78A30B0C 
 5717      198000C0 
 5717      15614161 
 5717      510C
 5718 c2e3 09041440 		.ascii	"\011\004\024@\025D\012\372\200\005\012\346\212\202\225"
 5718      15440AFA 
 5718      80050AE6 
 5718      8A8295
 5719 c2f2 E4A06145 		.ascii	"\344\240aE\014)\0149\300\025\300\025aU\346\212D:\344"
 5719      0C290C39 
 5719      C015C015 
 5719      6155E68A 
 5719      443AE4
 5720 c305 84048A0C 		.ascii	"\204\004\212\014)\204\225@+l\035\340\010Nv`\010Bv}\370"
 5720      29849540 
 5720      2B6C1DE0 
 5720      084E7660 
 5720      0842767D 
 5721 c31a 8C0BA30B 		.ascii	"\214\013\243\013\357\364\200\000\013(aA\014\031\014"
 5721      EFF48000 
 5721      0B286141 
 5721      0C190C
 5722 c329 09C015C0 		.ascii	"\011\300\025\300\025aQz\200\002\024\372\200\004\004"
 5722      1561517A 
 5722      800214FA 
 5722      800404
 5723 c338 61490C39 		.ascii	"aI\0149B*\300\025\206\023\346\206\344\240\003\012\014"
 5723      422AC015 
 5723      8613E686 
 5723      E4A0030A 
 5723      0C
 5724 c349 198415C0 		.ascii	"\031\204\025\300\025aE"
 5724      156145
 5725 c350 61550C29 		.ascii	"aU\014)\0149\300\025\300\025aM\346\206B*\002\212\206"
 5725      0C39C015 
 5725      C015614D 
 5725      E686422A 
 5725      028A86
 5726 c363 138415E4 		.ascii	"\023\204\025\344\204l\035\014)Nv@+Bv\340\010\214\013"
 5726      846C1D0C 
 5726      294E7640 
 5726      2B4276E0 
 5726      088C0B
 5727 c376 6008EFF4 		.ascii	"`\010\357\364{\010\240e\243\013aQ\014\011\000\012\300"
 5727      7B08A065 
 5727      A30B6151 
 5727      0C09000A 
 5727      C0
 5728 c387 1586D5F0 		.ascii	"\025\206\325\360\020aU\014\011\251\013\300\025\014\011"
 5728      1061550C 
 5728      09A90BC0 
 5728      150C09
 5729 c396 8635C015 		.ascii	"\2065\300\025aA\340\200@J\014\011\200\345\300\025aE"
 5729      6141E080 
 5729      404A0C09 
 5729      80E5C015 
 5729      6145
ARM GAS  C:\Temp\ccVQrAGa.s 			page 290


 5730 c3a8 E080400A 		.ascii	"\340\200@\012\014)\202\245@+l\035\340\010N\006`\010"
 5730      0C2982A5 
 5730      402B6C1D 
 5730      E0084E06 
 5730      6008
 5731 c3ba 420678D8 		.ascii	"B\006x\330\214\013\243\013\357\364\014\011\230\005\300"
 5731      8C0BA30B 
 5731      EFF40C09 
 5731      9805C0
 5732 c3c9 156149F8 		.ascii	"\025aI\370\014\000J\014\011\204e\300\025aM\370\014\000"
 5732      0C004A0C 
 5732      098465C0 
 5732      15614DF8 
 5732      0C00
 5733 c3db 4A0C0982 		.ascii	"J\014\011\202\245\300\025aQ\370\014\000J\014\011\200"
 5733      A5C01561 
 5733      51F80C00 
 5733      4A0C0980 
 5734 c3eb E5C01561 		.ascii	"\345\300\025aU\370\014\000\012\014)\202\245@+l\035\340"
 5734      55F80C00 
 5734      0A0C2982 
 5734      A5402B6C 
 5734      1DE0
 5735 c3fd 084E1660 		.ascii	"\010N\026`\010B\026v\230\214\013\243\013\357\364\014"
 5735      08421676 
 5735      988C0BA3 
 5735      0BEFF40C 
 5736 c40d 098E85C0 		.ascii	"\011\216\205\300\025aA\210\265\243\013aE\014\011\243"
 5736      15614188 
 5736      B5A30B61 
 5736      450C09A3 
 5737 c41d 0BC0150C 		.ascii	"\013\300\025\014\011\210\025\300\025aQ\354\020\000\000"
 5737      098815C0 
 5737      156151EC 
 5737      100000
 5738 c42c F430010A 		.ascii	"\3640\001\012\014\011\202U@\025aU\000\000\201q\000\212"
 5738      0C098255 
 5738      40156155 
 5738      00008171 
 5738      008A
 5739 c43e EC108835 		.ascii	"\354\020\2105\3644l\035\014)N6@+B6\340\010\214\013`"
 5739      F4346C1D 
 5739      0C294E36 
 5739      402B4236 
 5739      E0088C0B 
 5740 c453 08EFF474 		.ascii	"\010\357\364t(\003U\243\013\300\000\016\006aQ\014\011"
 5740      280355A3 
 5740      0BC0000E 
 5740      0661510C 
 5740      09
 5741 c464 B10BC015 		.ascii	"\261\013\300\025\251\013\202\005\014\011\204\025\300"
 5741      A90B8205 
 5741      0C098415 
 5741      C0
 5742 c471 156155A9 		.ascii	"\025aU\251\013\001eaU\014\011\261\013\300\025\201q\000"
 5742      0B016561 
 5742      550C09B1 
ARM GAS  C:\Temp\ccVQrAGa.s 			page 291


 5742      0BC01581 
 5742      7100
 5743 c483 D50C4C8E 		.ascii	"\325\014L\216\013\335\223\362\004l\035\014)N&@+B&\340"
 5743      0BDD93F2 
 5743      046C1D0C 
 5743      294E2640 
 5743      2B4226E0 
 5744 c497 088C0B60 		.ascii	"\010\214\013`\010\357\364q\350\016\006\243\013\216\013"
 5744      08EFF471 
 5744      E80E06A3 
 5744      0B8E0B
 5745 c4a6 C000F204 		.ascii	"\300\000\362\004\014L\301\303\335\223\372\000\004\314"
 5745      0C4CC1C3 
 5745      DD93FA00 
 5745      04CC
 5746 c4b4 8101006B 		.ascii	"\201\001\000kf5\014\033\231\006\300\026BJ\221\006B\006"
 5746      66350C1B 
 5746      9906C016 
 5746      424A9106 
 5746      4206
 5747 c4c6 60804C11 		.ascii	"`\200L\021\340\004\300+l\035\200\000\014Xo\374m\350"
 5747      E004C02B 
 5747      6C1D8000 
 5747      0C586FFC 
 5747      6DE8
 5748 c4d8 A10B8C0B 		.ascii	"\241\013\214\013\300\000\013\370aA\014\011\004\360@"
 5748      C0000BF8 
 5748      61410C09 
 5748      04F040
 5749 c4e7 150C19E4 		.ascii	"\025\014\031\344 \300\025aEf\202@\032\3440\002\360c"
 5749      20C01561 
 5749      45668240 
 5749      1AE43002 
 5749      F063
 5750 c4f9 094C018C 		.ascii	"\011L\001\214\013@\025\350\000K\210aI\014\011\231\030"
 5750      0B4015E8 
 5750      004B8861 
 5750      490C0999 
 5750      18
 5751 c50a C015614D 		.ascii	"\300\025aM\014)\0218\300\025\014\011\305\007@\025aA"
 5751      0C291138 
 5751      C0150C09 
 5751      C5074015 
 5751      6141
 5752 c51c 4C118013 		.ascii	"L\021\200\023@+l9\341\210\010$aQ\014\031\206C@\025a"
 5752      402B6C39 
 5752      E1880824 
 5752      61510C19 
 5752      86434015 
 5753 c531 550C29A3 		.ascii	"U\014)\243\013@\025aE\0149LA\300\025\300+l=lQL\021L"
 5753      0B401561 
 5753      450C394C 
 5753      41C015C0 
 5753      2B6C3D6C 
 5754 c549 21C02BC0 		.ascii	"!\300+\300+lU\006\012\200\225\234E\360\004\364\014\007"
 5754      2B6C5506 
 5754      0A80959C 
ARM GAS  C:\Temp\ccVQrAGa.s 			page 292


 5754      45F004F4 
 5754      0C07
 5755 c55b 0A4C2184 		.ascii	"\012L!\204U@+lML1\352\015\300+lEcX\214%\214\013o\374"
 5755      55402B6C 
 5755      4D4C31EA 
 5755      0DC02B6C 
 5755      4563588C 
 5756 c574 9C55A10B 		.ascii	"\234U\241\013lA\014\011\205\345\300+\360\020\006\012"
 5756      6C410C09 
 5756      85E5C02B 
 5756      F010060A 
 5757 c584 680D8615 		.ascii	"h\015\206\025L!\2111\300+lMlEL1\206\205\300+o\374b\010"
 5757      4C218931 
 5757      C02B6C4D 
 5757      6C454C31 
 5757      8685C02B 
 5758 c59c A10B8C0B 		.ascii	"\241\013\214\013\014\011\226\265\300+lA\206\025\253"
 5758      0C0996B5 
 5758      C02B6C41 
 5758      8615AB
 5759 c5ab 0B6FFC64 		.ascii	"\013o\374dH\375\025\214\013o\374d\010\241\013\214\013"
 5759      48FD158C 
 5759      0B6FFC64 
 5759      08A10B8C 
 5759      0B
 5760 c5bc 0C0992F5 		.ascii	"\014\011\222\365\300\025aA\364\225\350\015lQ\014\031"
 5760      C0156141 
 5760      F495E80D 
 5760      6C510C19 
 5761 c5cc 4C11C02B 		.ascii	"L\021\300+\300+lIlAL\001\014\031\300+@+lE\372\200\000"
 5761      C02B6C49 
 5761      6C414C01 
 5761      0C19C02B 
 5761      402B6C45 
 5762 c5e3 046C4D0C 		.ascii	"\004lM\0149@\032\300+\014\031\346\202\300+lUlQ\014\011"
 5762      39401AC0 
 5762      2B0C19E6 
 5762      82C02B6C 
 5762      556C510C 
 5763 c5f8 000A402B 		.ascii	"\000\012@+\004\026\340@L!\200\000\200,\014\201lI\014"
 5763      0416E040 
 5763      4C218000 
 5763      802C0C81 
 5763      6C490C
 5764 c60b 294C11C0 		.ascii	")L\021\300+\000+\014m\372\200\002\024\014iL\001D:\200"
 5764      2B002B0C 
 5764      6DFA8002 
 5764      140C694C 
 5764      01443A80 
 5765 c61f 2B401AE6 		.ascii	"+@\032\346\212@*\346\202L\001\340\002@,ly\372\200\002"
 5765      8A402AE6 
 5765      824C01E0 
 5765      02402C6C 
 5765      79FA8002 
 5766 c633 0466314C 		.ascii	"\004f1L\023D\230\300\026\214\013h\000\202\225\241\013"
 5766      134498C0 
 5766      168C0B68 
ARM GAS  C:\Temp\ccVQrAGa.s 			page 293


 5766      008295A1 
 5766      0B
 5767 c644 6FF064E8 		.ascii	"o\360d\350\241\013\214\013s\270\200\365\214\013h$h0"
 5767      A10B8C0B 
 5767      73B880F5 
 5767      8C0B6824 
 5767      6830
 5768 c656 4F082111 		.ascii	"O\010!\021\214\013L\021\203!\300\033eaeAL!\014\314\300"
 5768      8C0B4C11 
 5768      8321C01B 
 5768      65616541 
 5768      4C210CCC 
 5769 c66b 22DD93F2 		.ascii	"\"\335\223\362\000h\021\000I\0009\300'@'h\025\010\212"
 5769      00681100 
 5769      490039C0 
 5769      27402768 
 5769      15088A
 5770 c67e 81010844 		.ascii	"\201\001\010D\345@\000@\201\210\006\212\014P\004\006"
 5770      E5400040 
 5770      8188068A 
 5770      0C500406 
 5771 c68e E5000634 		.ascii	"\345\000\0064\201\001\0004\201\210\000\000\232\200\210"
 5771      81010034 
 5771      81880000 
 5771      9A8088
 5772 c69d 068C40A1 		.ascii	"\006\214@\241;\2048\304\010\0060\301\210\0064\300\000"
 5772      3B8438C4 
 5772      080630C1 
 5772      880634C0 
 5772      00
 5773 c6ae 4231C000 		.ascii	"B1\300\000\004\011\373\374\000\012\332\200\000\004\304"
 5773      0409FBFC 
 5773      000ADA80 
 5773      0004C4
 5774 c6bd 080000C1 		.ascii	"\010\000\000\301\210\000\004@\000D\001\335\223\201\001"
 5774      88000440 
 5774      004401DD 
 5774      938101
 5775 c6cc FA00040C 		.ascii	"\372\000\004\014h\000@\310\241\013\200k\014\014\200"
 5775      680040C8 
 5775      A10B806B 
 5775      0C0C80
 5776 c6db 85DD93F2 		.ascii	"\205\335\223\362\000\014\014\214\013\213U\362\000\372"
 5776      000C0C8C 
 5776      0B8B55F2 
 5776      00FA
 5777 c6e9 04044C0C 		.ascii	"\004\004L\014\031\200k\300+lQlU\014\011D\032\300+\241"
 5777      19806BC0 
 5777      2B6C516C 
 5777      550C0944 
 5777      1AC02BA1 
 5778 c6fd 2BE5020C 		.ascii	"+\345\002\0149\206\005\300+lMlI\014I\014Y\300+\300+"
 5778      398605C0 
 5778      2B6C4D6C 
 5778      490C490C 
 5778      59C02BC0 
 5779 c712 6C456C41 		.ascii	"lElA\014\311FJ\300+H\312\345\016FJ\345\026D:\345\016"
ARM GAS  C:\Temp\ccVQrAGa.s 			page 294


 5779      0CC9464A 
 5779      C02B48CA 
 5779      E50E464A 
 5779      E516443A 
 5780 c728 0365E00A 		.ascii	"\003e\340\012\357\374\004\"l\035\014)NV@+BV\340\010"
 5780      EFFC0422 
 5780      6C1D0C29 
 5780      4E56402B 
 5780      4256E008 
 5781 c73c 8C0B6008 		.ascii	"\214\013`\010\357\364\\\310\210\005\243\013lQ\014\031"
 5781      EFF45CC8 
 5781      8805A30B 
 5781      6C510C19 
 5782 c74c 8121402B 		.ascii	"\201!@+lU\014\011\004$\300+\302\007z\200\004\"\001q"
 5782      6C550C09 
 5782      0424C02B 
 5782      C2077A80 
 5782      04220171 
 5783 c760 4C01ED00 		.ascii	"L\001\355\000@\033c\005L\021\302\027@\033c\001\340\004"
 5783      401B6305 
 5783      4C11C217 
 5783      401B6301 
 5783      E004
 5784 c772 00066309 		.ascii	"\000\006c\011L\001L!\300\033\300\033c\015c\021Lq\216"
 5784      4C014C21 
 5784      C01BC01B 
 5784      630D6311 
 5784      4C718E
 5785 c785 0BC01BF2 		.ascii	"\013\300\033\362\004\014L\301\303\335\223\372|\004\014"
 5785      040C4CC1 
 5785      C3DD93FA 
 5785      7C040C
 5786 c794 EC301EF0 		.ascii	"\3540\036\360\201\001\000kc\015\014y\002\360@\033\014"
 5786      8101006B 
 5786      630D0C79 
 5786      02F0401B 
 5786      0C
 5787 c7a5 99E420C0 		.ascii	"\231\344 \300+lQlU\014\251\374\016\300+<\006\211\006"
 5787      2B6C516C 
 5787      550CA9FC 
 5787      0EC02B3C 
 5787      068906
 5788 c7b8 45188C0B 		.ascii	"E\030\214\013\241\013\350\000\300\000\020\006\000\010"
 5788      A10BE800 
 5788      C0001006 
 5788      0008
 5789 c7c6 1E859095 		.ascii	"\036\205\220\225\241\013d\020\002\360t\370\236+\214"
 5789      A10B6410 
 5789      02F074F8 
 5789      9E2B8C
 5790 c7d5 0B6FFC8E 		.ascii	"\013o\374\216e\241\213l=\0149\002\220@+<H\354\004\354"
 5790      65A18B6C 
 5790      3D0C3902 
 5790      90402B3C 
 5790      48EC04EC 
 5791 c7e9 0404A06C 		.ascii	"\004\004\240l9\014Y\201\301@+\2503\211\010`\214\010"
 5791      390C5981 
ARM GAS  C:\Temp\ccVQrAGa.s 			page 295


 5791      C1402BA8 
 5791      33890860 
 5791      8C08
 5792 c7fb 34642006 		.ascii	"4d \006`\240S\300m\306W\005E\022D\002\301Q\315\372\200"
 5792      60A053C0 
 5792      6DC65705 
 5792      45124402 
 5792      C151CDFA 
 5793 c810 F0945412 		.ascii	"\360\224T\022y\000F\241\360\244V\"\202%\214\266lQ\014"
 5793      790046A1 
 5793      F0A45622 
 5793      82258CB6 
 5793      6C510C
 5794 c823 990A5440 		.ascii	"\231\012T@+\302\227\372\200\222S\001\325lU\014I\201"
 5794      2BC297FA 
 5794      80925301 
 5794      D56C550C 
 5794      4981
 5795 c835 C1402B6C 		.ascii	"\301@+l9\014Y\302G\300+\222C S\016p\306W\2021l\004\366"
 5795      390C59C2 
 5795      47C02B92 
 5795      4320530E 
 5795      70C65782 
 5796 c84d B5A17B98 		.ascii	"\265\241{\230\361\201\001\362|\014\014\301\303\335\223"
 5796      F18101F2 
 5796      7C0C0CC1 
 5796      C3DD93
 5797 c85c 6C510039 		.ascii	"lQ\0009\202K@+lI\000)\000\031\300+\300+lA\301\303\207"
 5797      824B402B 
 5797      6C490029 
 5797      0019C02B 
 5797      C02B6C41 
 5798 c873 25FA0404 		.ascii	"%\372\004\004\014\3540\036\360\201\001\000{\202k|\016"
 5798      0CEC301E 
 5798      F0810100 
 5798      7B826B7C 
 5798      0E
 5799 c884 02F03E0E 		.ascii	"\002\360>\016~\230\344 \216\013o\374\204\025\241\013"
 5799      7E98E420 
 5799      8E0B6FFC 
 5799      8415A10B 
 5800 c894 641002F0 		.ascii	"d\020\002\360A\030\216\013\241\013\350\000\374\004\202"
 5800      41188E0B 
 5800      A10BE800 
 5800      FC0482
 5801 c8a3 35401ABE 		.ascii	"5@\032\276\024\000\002\346\202\030\016\357\374\230\361"
 5801      140002E6 
 5801      82180EEF 
 5801      FC98F1
 5802 c8b2 8101F204 		.ascii	"\201\001\362\004\014\014\301\303\335\223lU\0009\202"
 5802      0C0CC1C3 
 5802      DD936C55 
 5802      003982
 5803 c8c1 4B402B6C 		.ascii	"K@+lM\000)\000\031\300+\300+lE\301\303\201%\372\000"
 5803      4D002900 
 5803      19C02BC0 
 5803      2B6C45C1 
ARM GAS  C:\Temp\ccVQrAGa.s 			page 296


 5803      C38125FA 
 5804 c8d6 040C8285 		.ascii	"\004\014\202\205\241;\345\012@\032\340\016@\012\357"
 5804      A13BE50A 
 5804      401AE00E 
 5804      400AEF
 5805 c8e5 FC000281 		.ascii	"\374\000\002\201\001\020\016\362\000\014\014\000)\335"
 5805      01100EF2 
 5805      000C0C00 
 5805      29DD
 5806 c8f3 93402B6C 		.ascii	"\223@+l\035\340\010BVo\364N\350\340\010LV\014\006\243"
 5806      1DE00842 
 5806      566FF44E 
 5806      E8E0084C 
 5806      560C06A3 
 5807 c907 0B8C0BC0 		.ascii	"\013\214\013\300\000\362\000\014\014\301\303\335\223"
 5807      00F2000C 
 5807      0CC1C3DD 
 5807      93
 5808 c914 FA045E65 		.ascii	"\372\004^e\354\020\014\360t\034^`\274n\210a\376\200"
 5808      EC100CF0 
 5808      741C5E60 
 5808      BC6E8861 
 5808      FE80
 5809 c926 03FCF804 		.ascii	"\003\374\370\004\027\014\3540\036\360\201\223\201\203"
 5809      170CEC30 
 5809      1EF08193 
 5809      8183
 5810 c934 41C6C183 		.ascii	"A\306\301\203C&aH\200\004\340\014A\206\000\026\200\004"
 5810      43266148 
 5810      8004E00C 
 5810      41860016 
 5810      8004
 5811 c946 E1480214 		.ascii	"\341H\002\024\200\030\200\026\374\234\357\344V\250o"
 5811      80188016 
 5811      FC9CEFE4 
 5811      56A86F
 5812 c955 9C6248C1 		.ascii	"\234bH\301\303\201\001\372\000\000LaHA\306\340\014C"
 5812      C38101FA 
 5812      00004C61 
 5812      4841C6E0 
 5812      0C43
 5813 c967 36001680 		.ascii	"6\000\026\200\004`\021\000\006\000\004\300 \341HC\206"
 5813      04601100 
 5813      060004C0 
 5813      20E14843 
 5813      86
 5814 c978 80188404 		.ascii	"\200\030\204\004\374\234\002\024U\030\200\026`\270\357"
 5814      FC9C0214 
 5814      55188016 
 5814      60B8EF
 5815 c987 E481016F 		.ascii	"\344\201\001o\234\372\000\000LaHA\306\340\014CF\000"
 5815      9CFA0000 
 5815      4C614841 
 5815      C6E00C43 
 5815      4600
 5816 c999 16800460 		.ascii	"\026\200\004`\021\000\006\000\004\300 \341HC\206\200"
 5816      11000600 
ARM GAS  C:\Temp\ccVQrAGa.s 			page 297


 5816      04C020E1 
 5816      48438680 
 5817 c9a9 188404FC 		.ascii	"\030\204\004\374\234\002\024S\230\200\026_8\357\344"
 5817      9C021453 
 5817      9880165F 
 5817      38EFE4
 5818 c9b8 81016F9C 		.ascii	"\201\001o\234\372\000\000LaHA\306\340\014Cv\000\026"
 5818      FA00004C 
 5818      614841C6 
 5818      E00C4376 
 5818      0016
 5819 c9ca 80046011 		.ascii	"\200\004`\021\000\006\000\004\300 \341HC\206\200\030"
 5819      00060004 
 5819      C020E148 
 5819      43868018 
 5820 c9da 8404FC9C 		.ascii	"\204\004\374\234\002\024R\030\200\026]\270\357\344\201"
 5820      02145218 
 5820      80165DB8 
 5820      EFE481
 5821 c9e9 016F9CFA 		.ascii	"\001o\234\372\000\000LaHA\306\340\014C\226\000\026\200"
 5821      00004C61 
 5821      4841C6E0 
 5821      0C439600 
 5821      1680
 5822 c9fb 04601100 		.ascii	"\004`\021\000\006\000\004\300 \341HC\206\200\030\204"
 5822      060004C0 
 5822      20E14843 
 5822      86801884 
 5823 ca0b 04FC9C02 		.ascii	"\004\374\234\002\024P\230\200\026\\8\357\344\201\001"
 5823      14509880 
 5823      165C38EF 
 5823      E48101
 5824 ca1a 6F9CFA00 		.ascii	"o\234\372\000\000LaHA\306\340\014C\246\000\026\200\004"
 5824      004C6148 
 5824      41C6E00C 
 5824      43A60016 
 5824      8004
 5825 ca2c 60110006 		.ascii	"`\021\000\006\000\004\300 \341HC\206\200\030\204\004"
 5825      0004C020 
 5825      E1484386 
 5825      80188404 
 5826 ca3c FC9C0214 		.ascii	"\374\234\002\024O\030\200\026Z\270\357\344\201\001o"
 5826      4F188016 
 5826      5AB8EFE4 
 5826      81016F
 5827 ca4b 9CFA0000 		.ascii	"\234\372\000\000LaHA\306\340\014C\346\000\026\200\004"
 5827      4C614841 
 5827      C6E00C43 
 5827      E6001680 
 5827      04
 5828 ca5c 60110006 		.ascii	"`\021\000\006\000\004\300 \341HC\206\200\030\204\004"
 5828      0004C020 
 5828      E1484386 
 5828      80188404 
 5829 ca6c FC9C0214 		.ascii	"\374\234\002\024M\230\200\026Y8\357\344\201\001o\234"
 5829      4D988016 
 5829      5938EFE4 
ARM GAS  C:\Temp\ccVQrAGa.s 			page 298


 5829      81016F9C 
 5830 ca7c FA00004C 		.ascii	"\372\000\000L\342\300\000,aHA\306\340\014C\366\000\026"
 5830      E2C0002C 
 5830      614841C6 
 5830      E00C43F6 
 5830      0016
 5831 ca8e 8004E148 		.ascii	"\200\004\341HA\206\200\030\200\004\374\234\002\024L"
 5831      41868018 
 5831      8004FC9C 
 5831      02144C
 5832 ca9d 38801657 		.ascii	"8\200\026W\330\357\344\201\001o\234\376\034\004\314"
 5832      D8EFE481 
 5832      016F9CFE 
 5832      1C04CC
 5833 caac 6FF84628 		.ascii	"o\370F(\200{\200k\340\000\016*@\001\005\370\005\001"
 5833      807B806B 
 5833      E0000E2A 
 5833      400105F8 
 5833      0501
 5834 cabe 80004C01 		.ascii	"\200\000L\001\201\221@+l\035\341\224\000\006\020`\000"
 5834      8191402B 
 5834      6C1DE194 
 5834      00061060 
 5834      00
 5835 cacf 9EC0AF64 		.ascii	"\236\300\257d\035\357\350}h\202e\241\013\240\006\207"
 5835      1DEFE87D 
 5835      688265A1 
 5835      0BA00687 
 5836 cadf 01EFF845 		.ascii	"\001\357\370E(\357\370Eh\357\344I\350\357\350}\010E"
 5836      28EFF845 
 5836      68EFE449 
 5836      E8EFE87D 
 5836      0845
 5837 caf1 8601116A 		.ascii	"\206\001\021j\330\356\020\214\013o\234o\334\000\206"
 5837      D8EE108C 
 5837      0B6F9C6F 
 5837      DC0086
 5838 cb00 6A788111 		.ascii	"jx\201\021D\306o\234\000\206\340\000B\206`\014L\025"
 5838      44C66F9C 
 5838      0086E000 
 5838      4286600C 
 5838      4C15
 5839 cb12 E03C400E 		.ascii	"\340<@\016`\331`\001\002\006L\005\300}"
 5839      60D96001 
 5839      02064C05 
 5839      C07D
 5840 cb20 C00E60CD 		.ascii	"\300\016`\315`\321L\005L\005\300\016@\016`\325L\005"
 5840      60D14C05 
 5840      4C05C00E 
 5840      400E60D5 
 5840      4C05
 5841 cb32 8B01400E 		.ascii	"\213\001@\016`\335L\025\203\001@\012mI\340@CVn\221L"
 5841      60DD4C15 
 5841      8301400A 
 5841      6D49E040 
 5841      43566E91 
 5842 cb47 0101B640 		.ascii	"\001\001\266@,L\023\343H@\026g9\340\000B\026g=L\003"
ARM GAS  C:\Temp\ccVQrAGa.s 			page 299


 5842      2C4C13E3 
 5842      48401667 
 5842      39E00042 
 5842      16673D4C 
 5843 cb5c 00764016 		.ascii	"\000v@\026\300 `\011n\001L\023\207\021@\025L\021\200"
 5843      C0206009 
 5843      6E014C13 
 5843      87114015 
 5843      4C1180
 5844 cb6f 96C03864 		.ascii	"\226\3008d\301\000\006\203\005\020`a\224\300\257d\034"
 5844      C1000683 
 5844      05106061 
 5844      94C0AF64 
 5844      1C
 5845 cb80 231B8014 		.ascii	"#\033\200\024L\021\203\021@+l\035\300\000\002\006\300"
 5845      4C118311 
 5845      402B6C1D 
 5845      C0000206 
 5845      C0
 5846 cb91 004015EF 		.ascii	"\000@\025\357\344Z\250d`\030\360`\030\214\013\215\004"
 5846      E45AA864 
 5846      6018F060 
 5846      188C0B8D 
 5846      04
 5847 cba2 E8108255 		.ascii	"\350\020\202U\241\013\241\233\217\224\001F\200\345\200"
 5847      A10BA19B 
 5847      8F940146 
 5847      80E580
 5848 cbb1 04E134A3 		.ascii	"\004\3414\243\013\200\004^\330\210\225\214\013h\014"
 5848      0B80045E 
 5848      D888958C 
 5848      0B680C
 5849 cbc0 10B62028 		.ascii	"\020\266 (\002\266\340\010\214\013`\010\357\360xhh8"
 5849      02B6E008 
 5849      8C0B6008 
 5849      EFF07868 
 5849      6838
 5850 cbd2 4AC851F8 		.ascii	"J\310Q\370\214\013\214\013h\004}8\241\213P\000o\364"
 5850      8C0B8C0B 
 5850      68047D38 
 5850      A18B5000 
 5850      6FF4
 5851 cbe4 7D589C00 		.ascii	"}X\234\000A\330\357\364\001\001\357\344j\030\203\021"
 5851      41D8EFF4 
 5851      0101EFE4 
 5851      6A188311 
 5852 cbf4 8C2B6FE4 		.ascii	"\214+o\344\014\314\220\013\335\223\366\034h\014zH\000"
 5852      0CCC900B 
 5852      DD93F61C 
 5852      680C7A48 
 5852      00
 5853 cc05 8B8C0BA1 		.ascii	"\213\214\013\241\213\214\013Hx\200\205\373\365\357\364"
 5853      8B8C0B48 
 5853      788085FB 
 5853      F5EFF4
 5854 cc14 E81464E8 		.ascii	"\350\024d\350\241\213\200\213z\030\366U\214\013o\364"
 5854      A18B808B 
ARM GAS  C:\Temp\ccVQrAGa.s 			page 300


 5854      7A18F655 
 5854      8C0B6FF4 
 5855 cc24 E8004588 		.ascii	"\350\000E\210@\001\004H\214\013\000\000\357\364Gho\360"
 5855      40010448 
 5855      8C0B0000 
 5855      EFF44768 
 5855      6FF0
 5856 cc36 7F0801C6 		.ascii	"\177\010\001\306\214\013BFo\334B\036\340\004\002\026"
 5856      8C0B4246 
 5856      6FDC421E 
 5856      E0040216 
 5857 cc46 8311E01C 		.ascii	"\203\021\340\034CF\370\010@\025\357\344f\250h\000H("
 5857      4346F808 
 5857      4015EFE4 
 5857      66A86800 
 5857      4828
 5858 cc58 00C68C0B 		.ascii	"\000\306\214\013\227\021aL\243\233\000\004\201\201\001"
 5858      9711614C 
 5858      A39B0004 
 5858      818101
 5859 cc67 91004600 		.ascii	"\221\000F\000\026\000\004\341L\200\026\235\021tX\200"
 5859      160004E1 
 5859      4C80169D 
 5859      11745880 
 5860 cc77 B58C0B68 		.ascii	"\265\214\013h\014\002\016\200\213@\020`\001\345@\000"
 5860      0C020E80 
 5860      8B401060 
 5860      01E54000 
 5861 cc87 06022B81 		.ascii	"\006\002+\201\205\354\004\000\000\0023\3114\306\237"
 5861      85EC0400 
 5861      000233C9 
 5861      34C69F
 5862 cc96 841BFE15 		.ascii	"\204\033\376\025\241\013r\375A\306\000\236\300 D\030"
 5862      A10B72FD 
 5862      41C6009E 
 5862      C0204418 
 5863 cca6 8C0BA18B 		.ascii	"\214\013\241\213\3508\2015\344\265\3508C\310\216\033"
 5863      E8388135 
 5863      E4B5E838 
 5863      43C88E1B 
 5864 ccb6 0C0B6FE8 		.ascii	"\014\013o\350o\010\200\213\216+\342U\241\213\237!\001"
 5864      6F08808B 
 5864      8E2BE255 
 5864      A18B9F21 
 5864      01
 5865 ccc7 118C0B03 		.ascii	"\021\214\013\0031\3504M\350\200\213q5a \000\306\200"
 5865      31E8344D 
 5865      E8808B71 
 5865      35612000 
 5865      C680
 5866 ccd9 04811101 		.ascii	"\004\201\021\001\006\000\026\200\004\341 \001F\000\026"
 5866      06001680 
 5866      04E12001 
 5866      460016
 5867 cce8 8004E120 		.ascii	"\200\004\341 \001\206\000\026\200\004\341 \001\306\000"
 5867      01860016 
 5867      8004E120 
ARM GAS  C:\Temp\ccVQrAGa.s 			page 301


 5867      01C600
 5868 ccf7 168004E1 		.ascii	"\026\200\004\341 @\006\000\026\200\004\341 @F\000\026"
 5868      20400600 
 5868      168004E1 
 5868      20404600 
 5868      16
 5869 cd08 8004E120 		.ascii	"\200\004\341 @\206\000\026\200\004\341 @\306\000\026"
 5869      40860016 
 5869      8004E120 
 5869      40C60016 
 5870 cd18 8004E120 		.ascii	"\200\004\341 A\006\000\026\200\004\341 AF\000\026\200"
 5870      41060016 
 5870      8004E120 
 5870      41460016 
 5870      80
 5871 cd29 04E12041 		.ascii	"\004\341 A\206\000\026\200\004\341 A\306\000\026\200"
 5871      86001680 
 5871      04E12041 
 5871      C6001680 
 5872 cd39 04E12000 		.ascii	"\004\341 \000\006\000\026\200\004\341$\000F\000\026"
 5872      06001680 
 5872      04E12400 
 5872      460016
 5873 cd48 8004E124 		.ascii	"\200\004\341$\000\206\000\026\200\004\341$\335\223\200"
 5873      00860016 
 5873      8004E124 
 5873      DD9380
 5874 cd57 16626500 		.ascii	"\026be\000\011\002F@\025\004\024\341L\210\011\2011D"
 5874      09024640 
 5874      150414E1 
 5874      4C880981 
 5874      3144
 5875 cd69 20842820 		.ascii	" \204( /\363\354\3414@\206\203\021\004&\000\026\200"
 5875      2FF3ECE1 
 5875      34408683 
 5875      11042600 
 5875      1680
 5876 cd7b 04E13440 		.ascii	"\004\3414@F\000\026\200\004\341L\001\006\2106\200$\210"
 5876      46001680 
 5876      04E14C01 
 5876      06883680 
 5876      2488
 5877 cd8d 16802400 		.ascii	"\026\200$\0006\200\004\3414@\006\000\026\200\004\341"
 5877      368004E1 
 5877      34400600 
 5877      168004E1 
 5878 cd9d 4C008643 		.ascii	"L\000\206C\006\000\004\200\026\340\000\301\303\335\223"
 5878      06000480 
 5878      16E000C1 
 5878      C3DD93
 5879 cdac 6805001B 		.ascii	"h\005\000\033\000+\300\012\300\012h\001h\025\000;\000"
 5879      002BC00A 
 5879      C00A6801 
 5879      6815003B 
 5879      00
 5880 cdbd 4BC00A40 		.ascii	"K\300\012@\012h\011\000+\340\027@\012h\015\000[\244"
 5880      0A680900 
ARM GAS  C:\Temp\ccVQrAGa.s 			page 302


 5880      2BE01740 
 5880      0A680D00 
 5880      5BA4
 5881 cdcf 1F400A68 		.ascii	"\037@\012h\021\200\036\3407(/\340'\202.\252?\335\223"
 5881      11801EE0 
 5881      37282FE0 
 5881      27822EAA 
 5881      3FDD93
 5882 cde2 C03EFA04 		.ascii	"\300>\372\004^e\354\020\014\360t\034^`\274n\210a\376"
 5882      5E65EC10 
 5882      0CF0741C 
 5882      5E60BC6E 
 5882      8861FE
 5883 cdf5 8407FCF8 		.ascii	"\204\007\374\370\004\027\014\354P\036\360\201\223\201"
 5883      04170CEC 
 5883      501EF081 
 5883      9381
 5884 ce03 830161C1 		.ascii	"\203\001a\301\203\340<A\366o\240U\250\001\006\201\021"
 5884      83E03C41 
 5884      F66FA055 
 5884      A8010681 
 5884      11
 5885 ce14 4F066198 		.ascii	"O\006a\230\000\032\341L\3418D\006\210D\2344\000\034"
 5885      001AE14C 
 5885      E1384406 
 5885      88449C34 
 5885      001C
 5886 ce26 C2194601 		.ascii	"\302\031F\001\241\001@+l\035\020\026\203\021\210\004"
 5886      A101402B 
 5886      6C1D1016 
 5886      83118804 
 5887 ce36 831141F6 		.ascii	"\203\021A\366\000fT\030\340<{\330\357\240\034\004\350"
 5887      00665418 
 5887      E03C7BD8 
 5887      EFA01C04 
 5887      E8
 5888 ce47 144D1881 		.ascii	"\024M\030\201\021\250\361\350\010\360\004\037\014\366"
 5888      11A8F1E8 
 5888      08F0041F 
 5888      0CF6
 5889 ce55 840FFCFD 		.ascii	"\204\017\374\375d\274\364\301\303\301S\372\004^e\354"
 5889      64BCF4C1 
 5889      C3C153FA 
 5889      045E65EC 
 5890 ce65 100CF074 		.ascii	"\020\014\360t\034^`\274n\210a\376\200\003\374\370\004"
 5890      1C5E60BC 
 5890      6E8861FE 
 5890      8003FCF8 
 5890      04
 5891 ce76 170CEC30 		.ascii	"\027\014\3540\036\360\201\223\201\203\001\006\301\203"
 5891      1EF08193 
 5891      81830106 
 5891      C183
 5892 ce84 45066198 		.ascii	"E\006a\230\000\032\341L\3418F\206\214T\210D\000\034"
 5892      001AE14C 
 5892      E1384686 
 5892      8C548844 
ARM GAS  C:\Temp\ccVQrAGa.s 			page 303


 5892      001C
 5893 ce96 C4194801 		.ascii	"\304\031H\001\243\001@+l\035\024\026\203\021\214\004"
 5893      A301402B 
 5893      6C1D1416 
 5893      83118C04 
 5894 cea6 81118804 		.ascii	"\201\021\210\004\200\026g\315\000\031\310\031\300-g"
 5894      801667CD 
 5894      0019C819 
 5894      C02D67
 5895 ceb5 CD401183 		.ascii	"\315@\021\203\021@-\350\010I\210\037\014\230\361\013"
 5895      11402DE8 
 5895      0849881F 
 5895      0C98F10B 
 5896 cec5 FCF004BC 		.ascii	"\374\360\004\274\364\366\200\301S\375d\372\004^e\354"
 5896      F4F680C1 
 5896      53FD64FA 
 5896      045E65EC 
 5897 ced5 100CF074 		.ascii	"\020\014\360t\034^`\274n\210a\376\204\007\374\370\004"
 5897      1C5E60BC 
 5897      6E8861FE 
 5897      8407FCF8 
 5897      04
 5898 cee6 170CEC50 		.ascii	"\027\014\354P\036\360\201\223\201\203A\366\301\203\201"
 5898      1EF08193 
 5898      818341F6 
 5898      C18381
 5899 cef5 11603CEF 		.ascii	"\021`<\357\240NHaLM\006\230\004\245\021l\035@\021\205"
 5899      A04E4861 
 5899      4C4D0698 
 5899      04A5116C 
 5899      1D401185 
 5900 cf09 11402BE8 		.ascii	"\021@+\350\010G\010\3418OF\200\030\234\004\340\200B"
 5900      084708E1 
 5900      384F4680 
 5900      189C04E0 
 5900      8042
 5901 cf1b 0A010686 		.ascii	"\012\001\006\206EE\006a\230\200\032\3418\310\031\210"
 5901      45450661 
 5901      98801AE1 
 5901      38C81988 
 5902 cf2b 348C0880 		.ascii	"4\214\010\200\034\214\006\302\011\200\030\210\004\363"
 5902      1C8C06C2 
 5902      09801888 
 5902      04F3
 5903 cf39 F8421098 		.ascii	"\370B\020\230\004\200\026\3504uh\002&\030\004E\030\340"
 5903      048016E8 
 5903      34756802 
 5903      26180445 
 5903      18E0
 5904 cf4b 109C04E8 		.ascii	"\020\234\004\350\010@\012\200\010\204\305\340\204a\230"
 5904      08400A80 
 5904      0884C5E0 
 5904      846198
 5905 cf5a 0106E138 		.ascii	"\001\006\3418E\006\2104\200\032\200\034\320\031\304"
 5905      45068834 
 5905      801A801C 
 5905      D019C4
ARM GAS  C:\Temp\ccVQrAGa.s 			page 304


 5906 cf69 098C0888 		.ascii	"\011\214\010\210\004\214\006B\020\200\030\000\026\363"
 5906      048C0642 
 5906      10801800 
 5906      16F3
 5907 cf77 F4E02002 		.ascii	"\364\340 \002&Cx\230\004A\366\350\010\203\021`<\357"
 5907      26437898 
 5907      0441F6E8 
 5907      08831160 
 5907      3CEF
 5908 cf89 A049C81F 		.ascii	"\240I\310\037\014\250\361\017\374\360\004\274\364\366"
 5908      0CA8F10F 
 5908      FCF004BC 
 5908      F4F6
 5909 cf97 84C153FD 		.ascii	"\204\301S\375d\372\004^e\354\020\014\360t\034^`\274"
 5909      64FA045E 
 5909      65EC100C 
 5909      F0741C5E 
 5909      60BC
 5910 cfa9 6E8861FE 		.ascii	"n\210a\376\204\007\374\370\004\027\014\354P\036\360"
 5910      8407FCF8 
 5910      04170CEC 
 5910      501EF0
 5911 cfb8 81938183 		.ascii	"\201\223\201\203A\366\301\203\201\021`<\357\240G\350"
 5911      41F6C183 
 5911      8111603C 
 5911      EFA047E8 
 5912 cfc8 614C4D06 		.ascii	"aLM\006\230\004\247\021l\035@\021\207\021@+\350\010"
 5912      9804A711 
 5912      6C1D4011 
 5912      8711402B 
 5912      E808
 5913 cfda 40A8E13C 		.ascii	"@\250\341<\016F\200\030\234\004\340\200B\012\001\006"
 5913      0E468018 
 5913      9C04E080 
 5913      420A0106 
 5914 cfea 84E50406 		.ascii	"\204\345\004\006a\230\200\032\341<\340\031\2104\214"
 5914      6198801A 
 5914      E13CE019 
 5914      88348C
 5915 cff9 08801C8C 		.ascii	"\010\200\034\214\006\302\011\200\030\210\004\363\370"
 5915      06C20980 
 5915      188804F3 
 5915      F8
 5916 d006 42100236 		.ascii	"B\020\0026\000\026\230\004\340\020\350\004~\350\200"
 5916      00169804 
 5916      E010E804 
 5916      7EE880
 5917 d015 189C04E0 		.ascii	"\030\234\004\340\204B\012\001\006\206\005\004\006a\230"
 5917      84420A01 
 5917      06860504 
 5917      066198
 5918 d024 801AE13C 		.ascii	"\200\032\341<\002\024\2104\200\034\374\224\304\011\214"
 5918      02148834 
 5918      801CFC94 
 5918      C4098C
 5919 d033 0888048C 		.ascii	"\010\210\004\214\006B\020\200\030\000\026\363\364\340"
 5919      06421080 
ARM GAS  C:\Temp\ccVQrAGa.s 			page 305


 5919      180016F3 
 5919      F4E0
 5920 d041 2002367D 		.ascii	" \0026}8\230\004\234\004\350\004@\012\200\010\212\005"
 5920      3898049C 
 5920      04E80440 
 5920      0A80088A 
 5920      05
 5921 d052 E0886198 		.ascii	"\340\210a\230\001\006\341<\004\006\2104\200\032\374"
 5921      0106E13C 
 5921      04068834 
 5921      801AFC
 5922 d061 9802148C 		.ascii	"\230\002\024\214\010\200\034\214\006\310\011\200\030"
 5922      08801C8C 
 5922      06C80980 
 5922      18
 5923 d06e 8804F3EC 		.ascii	"\210\004\363\354B\020A\306\000\026\200\004\3418B\020"
 5923      421041C6 
 5923      00168004 
 5923      E1384210 
 5924 d07e 80188016 		.ascii	"\200\030\200\026\363\354\000\033\230\004\300\025n\011"
 5924      F3EC001B 
 5924      9804C015 
 5924      6E09
 5925 d08c FC980214 		.ascii	"\374\230\002\024n\011@\023\0026@\025z\230\340@L8\350"
 5925      6E094013 
 5925      02364015 
 5925      7A98E040 
 5925      4C38E8
 5926 d09f 0441F6EF 		.ascii	"\004A\366\357\340\203\021`<\357\240@\310\037\014\250"
 5926      E0831160 
 5926      3CEFA040 
 5926      C81F0CA8 
 5927 d0af F10FFCF0 		.ascii	"\361\017\374\360\004\274\364\366\204\301S\375d\372\004"
 5927      04BCF4F6 
 5927      84C153FD 
 5927      64FA04
 5928 d0be 5E65EC10 		.ascii	"^e\354\020\014\360t\034^`\274n\210a\376\204\007\374"
 5928      0CF0741C 
 5928      5E60BC6E 
 5928      8861FE84 
 5928      07FC
 5929 d0d0 F804170C 		.ascii	"\370\004\027\014\354P\036\360\201\223\201\203A\366\301"
 5929      EC501EF0 
 5929      81938183 
 5929      41F6C1
 5930 d0df 83811160 		.ascii	"\203\201\021`<\357\234~\350aLM\006\230\004\251\021l"
 5930      3CEF9C7E 
 5930      E8614C4D 
 5930      069804A9 
 5930      116C
 5931 d0f1 1D401189 		.ascii	"\035@\021\211\021@+\350\004w\250\341<\017\006\200\030"
 5931      11402BE8 
 5931      0477A8E1 
 5931      3C0F0680 
 5931      18
 5932 d102 9C04E080 		.ascii	"\234\004\340\200B\012\001\006\206\245\004\306a\230\200"
 5932      420A0106 
ARM GAS  C:\Temp\ccVQrAGa.s 			page 306


 5932      86A504C6 
 5932      619880
 5933 d111 1AE13C02 		.ascii	"\032\341<\002\024\2104\200\034\374\234\302\011\214\010"
 5933      14883480 
 5933      1CFC9CC2 
 5933      098C08
 5934 d120 88048C06 		.ascii	"\210\004\214\006B\020\200\030\000\026\363\370\340\020"
 5934      42108018 
 5934      0016F3F8 
 5934      E010
 5935 d12e 024675D8 		.ascii	"\002Fu\330\230\004\030\004\350\004\340\014B\226\350"
 5935      98041804 
 5935      E804E00C 
 5935      4296E8
 5936 d13d 044C6880 		.ascii	"\004Lh\200\030\234\004\340\204B\012\001\006\206\245"
 5936      189C04E0 
 5936      84420A01 
 5936      0686A5
 5937 d14c 04C66198 		.ascii	"\004\306a\230\200\032\341<\002\024\2104\200\034\374"
 5937      801AE13C 
 5937      02148834 
 5937      801CFC
 5938 d15b A0C4098C 		.ascii	"\240\304\011\214\010\210\004\214\006B\020\200\030\000"
 5938      0888048C 
 5938      06421080 
 5938      1800
 5939 d169 16F3F4E0 		.ascii	"\026\363\364\340\014B\246J\270\230\004\030\004\350\004"
 5939      0C42A64A 
 5939      B8980418 
 5939      04E804
 5940 d178 E0200246 		.ascii	"\340 \002F\350\004s\210\200\030\234\004\340\210B\012"
 5940      E8047388 
 5940      80189C04 
 5940      E088420A 
 5941 d188 010686A5 		.ascii	"\001\006\206\245\004\306a\230\200\032\341<\002\024\210"
 5941      04C66198 
 5941      801AE13C 
 5941      021488
 5942 d197 34801CFC 		.ascii	"4\200\034\374\244\310\011\214\010\210\004\214\006B\020"
 5942      A4C8098C 
 5942      0888048C 
 5942      064210
 5943 d1a6 80180016 		.ascii	"\200\030\000\026\363\354\340\014B\266H\270\230\004\030"
 5943      F3ECE00C 
 5943      42B648B8 
 5943      980418
 5944 d1b5 04E804E0 		.ascii	"\004\350\004\340@\002F\350\004q\210\200\030\234\004"
 5944      400246E8 
 5944      04718880 
 5944      189C04
 5945 d1c4 E08C420A 		.ascii	"\340\214B\012\001\006\206\245\004\306a\230\200\032\341"
 5945      010686A5 
 5945      04C66198 
 5945      801AE1
 5946 d1d3 3C021488 		.ascii	"<\002\024\2104\200\034\374\250\320\011\214\010\210\004"
 5946      34801CFC 
 5946      A8D0098C 
ARM GAS  C:\Temp\ccVQrAGa.s 			page 307


 5946      088804
 5947 d1e2 8C064210 		.ascii	"\214\006B\020\200\030\000\026\363\334\340\200\002Fo"
 5947      80180016 
 5947      F3DCE080 
 5947      02466F
 5948 d1f1 D8980418 		.ascii	"\330\230\004\030\004\350\004\340\014B\306\350\004Fh"
 5948      04E804E0 
 5948      0C42C6E8 
 5948      044668
 5949 d200 80189C04 		.ascii	"\200\030\234\004\340\220B\012\001\006\206\245\004\306"
 5949      E090420A 
 5949      010686A5 
 5949      04C6
 5950 d20e 6198801A 		.ascii	"a\230\200\032\341<\002\024\2104\200\034\374\254\340"
 5950      E13C0214 
 5950      8834801C 
 5950      FCACE0
 5951 d21d 098C0888 		.ascii	"\011\214\010\210\004\214\006B\020\200\030\000\026\363"
 5951      048C0642 
 5951      10801800 
 5951      16F3
 5952 d22b BCE10002 		.ascii	"\274\341\000\002Fm\330\230\004\030\004\350\004\340\014"
 5952      466DD898 
 5952      041804E8 
 5952      04E00C
 5953 d23a 42D6E804 		.ascii	"B\326\350\004Dh\200\030\234\004\340\224B\012\001\006"
 5953      44688018 
 5953      9C04E094 
 5953      420A0106 
 5954 d24a 86C504C6 		.ascii	"\206\305\004\306a\230\200\032\341<\002\024\2104\200"
 5954      6198801A 
 5954      E13C0214 
 5954      883480
 5955 d259 1CFCB000 		.ascii	"\034\374\260\000\004\214\010\214\006\374\224\200\030"
 5955      048C088C 
 5955      06FC9480 
 5955      18
 5956 d266 8804F37C 		.ascii	"\210\004\363|B\020\002F\000\026\230\004\342\000\350"
 5956      42100246 
 5956      00169804 
 5956      E200E8
 5957 d275 046BC842 		.ascii	"\004k\310B\346\030\004BX\340\014\234\004\350\004B\012"
 5957      E6180442 
 5957      58E00C9C 
 5957      04E80442 
 5957      0A
 5958 d286 801886C5 		.ascii	"\200\030\206\305\340\230a\230\001\006\341<\004\306\210"
 5958      E0986198 
 5958      0106E13C 
 5958      04C688
 5959 d295 34801AFC 		.ascii	"4\200\032\374\264\002\024\214\010\200\034\374\230\000"
 5959      B402148C 
 5959      08801CFC 
 5959      9800
 5960 d2a3 0488048C 		.ascii	"\004\210\004\214\006B\020\200\030\000\026\362\374\344"
 5960      06421080 
 5960      180016F2 
ARM GAS  C:\Temp\ccVQrAGa.s 			page 308


 5960      FCE4
 5961 d2b1 00024669 		.ascii	"\000\002Fi\270\230\004\030\004\350\004\340\014B\366"
 5961      B8980418 
 5961      04E804E0 
 5961      0C42F6
 5962 d2c0 E8044048 		.ascii	"\350\004@H\000\000\234\004\202\015\377\021\000\306\206"
 5962      00009C04 
 5962      820DFF11 
 5962      00C686
 5963 d2cf B58014E1 		.ascii	"\265\200\024\341<\004$\204(\204&\374\234\200\030\200"
 5963      3C042484 
 5963      288426FC 
 5963      9C801880 
 5964 d2df 04F1FC42 		.ascii	"\004\361\374B\020\003\006\000\026\204*\341\230\004$"
 5964      10030600 
 5964      16842AE1 
 5964      980424
 5965 d2ee 9804     		.ascii	"\230\004"
 5966 d2f0 042CFCB8 		.ascii	"\004,\374\270\350\000\002F\350\004g\250C\006\030\004"
 5966      E8000246 
 5966      E80467A8 
 5966      43061804 
 5967 d300 7F98E00C 		.ascii	"\177\230\340\014A\366\350\000\203\021`<\357\234m\250"
 5967      41F6E800 
 5967      8311603C 
 5967      EF9C6DA8 
 5968 d310 1F0CA8F1 		.ascii	"\037\014\250\361\017\374\360\004\274\364\366\204\301"
 5968      0FFCF004 
 5968      BCF4F684 
 5968      C1
 5969 d31d 53FD64FA 		.ascii	"S\375d\372\004^e\354\020\014\360t\034^`\274n\210a\376"
 5969      045E65EC 
 5969      100CF074 
 5969      1C5E60BC 
 5969      6E8861FE 
 5970 d331 8407FCF8 		.ascii	"\204\007\374\370\004\027\014\354P\036\360\201\223\201"
 5970      04170CEC 
 5970      501EF081 
 5970      9381
 5971 d33f 830161C1 		.ascii	"\203\001a\301\203\340<A\366o\234k\310O\006\201\021\003"
 5971      83E03C41 
 5971      F66F9C6B 
 5971      C84F0681 
 5971      1103
 5972 d351 06614C1C 		.ascii	"\006aL\034\004\341\230\341<FF\253A\004*@A\214T\300+"
 5972      04E198E1 
 5972      3C4646AB 
 5972      41042A40 
 5972      418C54C0 
 5973 d366 6C1D7CBC 		.ascii	"l\035|\274\000$\004\014\203!\224&\213\021\200f\214\004"
 5973      0024040C 
 5973      83219426 
 5973      8B118066 
 5973      8C04
 5974 d378 63989C04 		.ascii	"c\230\234\004\234\004\350\004\357\340q(`<A\366i\270"
 5974      9C04E804 
 5974      EFE07128 
ARM GAS  C:\Temp\ccVQrAGa.s 			page 309


 5974      603C41F6 
 5974      69B8
 5975 d38a 8311A8F1 		.ascii	"\203\021\250\361\357\234\360\004\037\014\366\204\017"
 5975      EF9CF004 
 5975      1F0CF684 
 5975      0F
 5976 d397 FCFD64BC 		.ascii	"\374\375d\274\364\301\303\301S\372\004^e\354\020\014"
 5976      F4C1C3C1 
 5976      53FA045E 
 5976      65EC100C 
 5977 d3a7 F0741C5E 		.ascii	"\360t\034^`\274n\210a\376\214\007\374\370\004\027\014"
 5977      60BC6E88 
 5977      61FE8C07 
 5977      FCF80417 
 5977      0C
 5978 d3b8 EC401EF0 		.ascii	"\354@\036\360\201\223\201\203\001a\301\203\340<A\366"
 5978      81938183 
 5978      0161C183 
 5978      E03C41F6 
 5979 d3c8 6F9C67C8 		.ascii	"o\234g\310O\006\201\021\255\001aL\203\201\034\024l\035"
 5979      4F068111 
 5979      AD01614C 
 5979      83811C14 
 5979      6C1D
 5980 d3da 42018301 		.ascii	"B\001\203\001@+\357\344r\210\341<A\306\004\206\200\024"
 5980      402BEFE4 
 5980      7288E13C 
 5980      41C60486 
 5980      8014
 5981 d3ec 80048D11 		.ascii	"\200\004\215\021\234\004\200f\350\004_\310`<A\366f\030"
 5981      9C048066 
 5981      E8045FC8 
 5981      603C41F6 
 5981      6618
 5982 d3fe 8311A0F1 		.ascii	"\203\021\240\361\357\234\360\004\037\014\366\214\017"
 5982      EF9CF004 
 5982      1F0CF68C 
 5982      0F
 5983 d40b FCFD64BC 		.ascii	"\374\375d\274\364\301\303\301S\372\004^e\354\020\014"
 5983      F4C1C3C1 
 5983      53FA045E 
 5983      65EC100C 
 5984 d41b F0741C5E 		.ascii	"\360t\034^`\274n\210a\376\204\007\374\370\004\027\014"
 5984      60BC6E88 
 5984      61FE8407 
 5984      FCF80417 
 5984      0C
 5985 d42c EC501EF0 		.ascii	"\354P\036\360\201\223\201\203A\366\301\203\201\021`"
 5985      81938183 
 5985      41F6C183 
 5985      811160
 5986 d43b 3C6F9C64 		.ascii	"<o\234d(O\006\201a\257\001aLB\001\234\024@+l\035n\370"
 5986      284F0681 
 5986      61AF0161 
 5986      4C42019C 
 5986      14402B6C 
 5987 d452 81011C04 		.ascii	"\201\001\034\004\357\344\\\230\217\021\000\206\350\004"
ARM GAS  C:\Temp\ccVQrAGa.s 			page 310


 5987      EFE45C98 
 5987      8F110086 
 5987      E804
 5988 d460 8018EFDC 		.ascii	"\200\030\357\334\370\300\002\012\200\030\200\345\360"
 5988      F8C0020A 
 5988      801880E5 
 5988      F0
 5989 d46d C04210E0 		.ascii	"\300B\020\340\200\002\012\234\024\202\265l\025\002\031"
 5989      80020A9C 
 5989      1482B56C 
 5989      150219
 5990 d47c 420AC02B 		.ascii	"B\012\300+\000\031\340\204\200\030\300p\363\334B\020"
 5990      0019E084 
 5990      8018C070 
 5990      F3DC4210 
 5991 d48c 9C048016 		.ascii	"\234\004\200\026l\025\000\031B\012\300+\204E\340\204"
 5991      6C150019 
 5991      420AC02B 
 5991      8445E084 
 5992 d49c 68045A88 		.ascii	"h\004Z\210\340\020\002vh\330\234\004\234\004\357\344"
 5992      E0100276 
 5992      68D89C04 
 5992      9C04EFE4 
 5993 d4ac 6E09001B 		.ascii	"n\011\000\033B\020\300\025\300\375s\375n\011@\023\001"
 5993      4210C015 
 5993      C0FD73FD 
 5993      6E094013 
 5993      01
 5994 d4bd 46C01583 		.ascii	"F\300\025\203\021a@\000\026\200\004\000f\203\021\340"
 5994      11614000 
 5994      16800400 
 5994      668311E0 
 5995 d4cd 3C41F6EF 		.ascii	"<A\366\357\234_\210\037\014\250\361\017\374\360\004"
 5995      9C5F881F 
 5995      0CA8F10F 
 5995      FCF004
 5996 d4dc BCF4F684 		.ascii	"\274\364\366\204\301S\375d\372\004^e\354\020\014\360"
 5996      C153FD64 
 5996      FA045E65 
 5996      EC100CF0 
 5997 d4ec 741C5E60 		.ascii	"t\034^`\274n\210a\376\200\003\374\370\004\027\014\354"
 5997      BC6E8861 
 5997      FE8003FC 
 5997      F804170C 
 5997      EC
 5998 d4fd 301EF081 		.ascii	"0\036\360\201\223\201\203\000\034\301\203@\000\342\300"
 5998      93818300 
 5998      1CC18340 
 5998      00E2C0
 5999 d50c 02067F00 		.ascii	"\002\006\177\000\204\016\341\234\343@\000\034aLA\006"
 5999      840EE19C 
 5999      E340001C 
 5999      614C4106 
 6000 d51c E14042C6 		.ascii	"\341@B\306\2611\000\004\203A\004$l\035@1\010F\300+\204"
 6000      B1310004 
 6000      83410424 
 6000      6C1D4031 
ARM GAS  C:\Temp\ccVQrAGa.s 			page 311


 6000      0846C02B 
 6001 d531 14812191 		.ascii	"\024\201!\221\021\004&\350\004U\250\037\014\230\361"
 6001      110426E8 
 6001      0455A81F 
 6001      0C98F1
 6002 d540 0BFCF004 		.ascii	"\013\374\360\004\274\364\366\200\301S\375d\372\004^"
 6002      BCF4F680 
 6002      C153FD64 
 6002      FA045E
 6003 d54f 65EC100C 		.ascii	"e\354\020\014\360t\034^`\274n\210a\376\204\007\374\370"
 6003      F0741C5E 
 6003      60BC6E88 
 6003      61FE8407 
 6003      FCF8
 6004 d561 04170CEC 		.ascii	"\004\027\014\354P\036\360\201\223\201\203\000\034\301"
 6004      501EF081 
 6004      93818300 
 6004      1CC1
 6005 d56f 834000E2 		.ascii	"\203@\000\342\300\002\006\177\000\204\016\341\234\343"
 6005      C002067F 
 6005      00840EE1 
 6005      9CE3
 6006 d57d 40001C61 		.ascii	"@\000\034aLO\006\3414B\306\263!\034\004M\306\004\024"
 6006      4C4F06E1 
 6006      3442C6B3 
 6006      211C044D 
 6006      C60414
 6007 d590 4021E198 		.ascii	"@!\341\230\300+l\035\030\026\204\030Rx\223\021\230\010"
 6007      C02B6C1D 
 6007      18168418 
 6007      52789311 
 6007      9808
 6008 d5a2 E80482E5 		.ascii	"\350\004\202\345\247\013\204\245\243\013\206e\245\013"
 6008      A70B84A5 
 6008      A30B8665 
 6008      A50B
 6009 d5b0 8855A10B 		.ascii	"\210U\241\013\002\226\034\004Q\230\340\020\301\203\350"
 6009      02961C04 
 6009      5198E010 
 6009      C183E8
 6010 d5bf 048385C1 		.ascii	"\004\203\205\301\023\002\226\034\004Q\030\340\200\301"
 6010      1302961C 
 6010      045118E0 
 6010      80C1
 6011 d5cd 83E80483 		.ascii	"\203\350\004\203\005\307\023\002\226\034\004P\230\340"
 6011      05C71302 
 6011      961C0450 
 6011      98E0
 6012 d5db 20C183E8 		.ascii	" \301\203\350\004\201\205\303\023\002\226\034\004P\030"
 6012      048185C3 
 6012      1302961C 
 6012      045018
 6013 d5ea E040C183 		.ascii	"\340@\301\203\350\004\201\001\305\023\000F\230\006\203"
 6013      E8048101 
 6013      C5130046 
 6013      980683
 6014 d5f9 11614481 		.ascii	"\021aD\201!\000\004\200\026\250\361\037\014\200&\017"
ARM GAS  C:\Temp\ccVQrAGa.s 			page 312


 6014      21000480 
 6014      16A8F11F 
 6014      0C80260F 
 6015 d609 FCF004BC 		.ascii	"\374\360\004\274\364\366\204\301S\375d\372\004\004L"
 6015      F4F684C1 
 6015      53FD64FA 
 6015      04044C
 6016 d618 68005EE8 		.ascii	"h\000^\350\241\013\200k\300\000\035Hc)\0149@N@-\300"
 6016      A10B806B 
 6016      C0001D48 
 6016      63290C39 
 6016      404E402D 
 6017 d62d 106CDD63 		.ascii	"\020l\335c!\014\031\014)\300-\300-c%a\204\0104Tx\202"
 6017      210C190C 
 6017      29C02DC0 
 6017      2D632561 
 6017      84083454 
 6018 d643 3982496F 		.ascii	"9\202Io\234\033\370\241\013\0149\300\000@-c9l\345@\016"
 6018      9C1BF8A1 
 6018      0B0C39C0 
 6018      00402D63 
 6018      396CE540 
 6019 d658 0C19C010 		.ascii	"\014\031\300\020\300-c1c5\014)\0104\300-\2029a\204o"
 6019      C02D6331 
 6019      63350C29 
 6019      0834C02D 
 6019      82396184 
 6020 d66d 9C5328A1 		.ascii	"\234S(\241\013\202I\300\000\032\250cI\0149\001\016@"
 6020      0B8249C0 
 6020      001AA863 
 6020      490C3901 
 6020      0E40
 6021 d67f 2DC0106C 		.ascii	"-\300\020l\355cA\014\031\014)\300-\300-cEa\204\0104"
 6021      ED63410C 
 6021      190C29C0 
 6021      2DC02D63 
 6021      45618408 
 6022 d694 51D88239 		.ascii	"Q\330\2029\202Io\234\031X\241\013\014;\300\000@\026"
 6022      82496F9C 
 6022      1958A10B 
 6022      0C3BC000 
 6022      4016
 6023 d6a6 69A96CF9 		.ascii	"i\251l\371\001\316\014\031\300\020\300-cYc]\014)\010"
 6023      01CE0C19 
 6023      C010C02D 
 6023      6359635D 
 6023      0C2908
 6024 d6b9 34C02D82 		.ascii	"4\300-\2029a\204o\234P\210\241\013\202I\300\000\030"
 6024      3961846F 
 6024      9C5088A1 
 6024      0B8249C0 
 6024      0018
 6025 d6cb 0863710C 		.ascii	"\010cq\0149A\316@-\300\020m\011ca\014\031\014)\300-"
 6025      3941CE40 
 6025      2DC0106D 
 6025      0963610C 
 6025      190C29C0 
ARM GAS  C:\Temp\ccVQrAGa.s 			page 313


 6026 d6e0 C02D6365 		.ascii	"\300-cea\204\0104O8\2029\202Io\234\026\270\241\013\014"
 6026      61840834 
 6026      4F388239 
 6026      82496F9C 
 6026      16B8A10B 
 6027 d6f5 39C00040 		.ascii	"9\300\000@-c\251m1@\016\014\031\300\020\300-c\241c\245"
 6027      2D63A96D 
 6027      31400E0C 
 6027      19C010C0 
 6027      2D63A163 
 6028 d70a 0C290834 		.ascii	"\014)\0104\300-\2029a\204o\234M\350\241\013\202I\300"
 6028      C02D8239 
 6028      61846F9C 
 6028      4DE8A10B 
 6028      8249C0
 6029 d71d 00156863 		.ascii	"\000\025hc\331\0149@\016@-\300\020m9c\321\014\031\014"
 6029      D90C3940 
 6029      0E402DC0 
 6029      106D3963 
 6029      D10C190C 
 6030 d731 29C02DC0 		.ascii	")\300-\300-c\325a\204\0104L\230\2029\202Io\234\024\030"
 6030      2D63D561 
 6030      8408344C 
 6030      98823982 
 6030      496F9C14 
 6031 d746 A10B0C39 		.ascii	"\241\013\0149\300\000@-d\011mA\001N\014\031\300\020"
 6031      C000402D 
 6031      64096D41 
 6031      014E0C19 
 6031      C010
 6032 d758 C02D6401 		.ascii	"\300-d\001d\005\014)\0104\300-\2029a\204o\234KH\241"
 6032      64050C29 
 6032      0834C02D 
 6032      82396184 
 6032      6F9C4B48 
 6033 d76d 0B8249C0 		.ascii	"\013\202I\300\000\022\310d9\0149@N@-\300\020mMd1\014"
 6033      0012C864 
 6033      390C3940 
 6033      4E402DC0 
 6033      106D4D64 
 6034 d783 190C29C0 		.ascii	"\031\014)\300-\300-d5J\030\2029\206Ko\234\021\230\241"
 6034      2DC02D64 
 6034      354A1882 
 6034      39864B6F 
 6034      9C1198A1 
 6035 d797 0B0C39C0 		.ascii	"\013\0149\300\000@-dimU\000\316\014\031\300\020\300"
 6035      00402D64 
 6035      696D5500 
 6035      CE0C19C0 
 6035      10C0
 6036 d7a9 2D646164 		.ascii	"-dade\014)\0104\300-\2029a\204o\234H\310\241\013\202"
 6036      650C2908 
 6036      34C02D82 
 6036      3961846F 
 6036      9C48C8A1 
 6037 d7bf 49C00010 		.ascii	"I\300\000\020Ho\234OHA\366\201\001\203\021`<\357\234"
 6037      486F9C4F 
ARM GAS  C:\Temp\ccVQrAGa.s 			page 314


 6037      4841F681 
 6037      01831160 
 6037      3CEF9C
 6038 d7d2 47886329 		.ascii	"G\210c)\014\011\003\306@-\204\024\3418\202\011\307\007"
 6038      0C0903C6 
 6038      402D8414 
 6038      E1388209 
 6038      C707
 6039 d7e4 42460406 		.ascii	"BF\004\006\014\011\3418\300-c9\307\007\204\024\004\006"
 6039      0C09E138 
 6039      C02D6339 
 6039      C7078414 
 6039      0406
 6040 d7f6 8209E138 		.ascii	"\202\011\3418@\306\014)\200\024\300-cI\311'\2048F0\202"
 6040      40C60C29 
 6040      8014C02D 
 6040      6349C927 
 6040      84384630 
 6041 d80b 29A43FF3 		.ascii	")\244?\363\370\200\004\2046cI\014\031\200(\300-\204"
 6041      F8800484 
 6041      3663490C 
 6041      198028C0 
 6041      2D84
 6042 d81d 19C917F3 		.ascii	"\031\311\027\363\364D \000&\242/\3418A\306\014+\200"
 6042      F4442000 
 6042      26A22FE1 
 6042      3841C60C 
 6042      2B80
 6043 d82f 14C01669 		.ascii	"\024\300\026i\251\313'\2048F0\202)\244?\363\370\200"
 6043      A9CB2784 
 6043      38463082 
 6043      29A43FF3 
 6043      F880
 6044 d841 14843669 		.ascii	"\024\2046i\251\014+\2048\300\026\204)\313'\363\364F"
 6044      A90C2B84 
 6044      38C01684 
 6044      29CB27F3 
 6044      F446
 6045 d853 308436A4 		.ascii	"0\2046\244?\014\033\200\004\300\026i\251\313\027\200"
 6045      3F0C1B80 
 6045      04C01669 
 6045      A9CB1780 
 6046 d863 28442088 		.ascii	"(D \210\031\242/\363\354\000\206\000&\014\031\341<\300"
 6046      19A22FF3 
 6046      EC008600 
 6046      260C19E1 
 6046      3CC0
 6047 d875 2D636900 		.ascii	"-ci\000\026\200\004\341<\001Fd\341\014\025\200\004\300"
 6047      168004E1 
 6047      3C014664 
 6047      E10C1580 
 6047      04C0
 6048 d887 0B018600 		.ascii	"\013\001\206\000\036\014\025\341<\300\013d\345\000\036"
 6048      1E0C15E1 
 6048      3CC00B64 
 6048      E5001E
 6049 d896 8004E13C 		.ascii	"\200\004\341<\003\306c\251\014\011\204\024\300-\202"
ARM GAS  C:\Temp\ccVQrAGa.s 			page 315


 6049      03C663A9 
 6049      0C098414 
 6049      C02D82
 6050 d8a5 09C50742 		.ascii	"\011\305\007B\006\004\006\014\011\341<\300-c\251\307"
 6050      0604060C 
 6050      09E13CC0 
 6050      2D63A9C7 
 6051 d8b5 07841404 		.ascii	"\007\204\024\004\006\202\011\341<@\306d\355\014\025"
 6051      068209E1 
 6051      3C40C664 
 6051      ED0C15
 6052 d8c4 8004C00B 		.ascii	"\200\004\300\013A\006\000\036\014\025\341<\300\013d"
 6052      4106001E 
 6052      0C15E13C 
 6052      C00B64
 6053 d8d3 F1001E80 		.ascii	"\361\000\036\200\004\341<CFc\331\014\011\204\024\300"
 6053      04E13C43 
 6053      4663D90C 
 6053      098414C0 
 6054 d8e3 2D8209C5 		.ascii	"-\202\011\305\007C\206\004\006\014\011\341<\300-c\331"
 6054      07438604 
 6054      060C09E1 
 6054      3CC02D63 
 6054      D9
 6055 d8f4 C7078414 		.ascii	"\307\007\204\024\004\006\202\011\341@\000Fd\371\014"
 6055      04068209 
 6055      E1400046 
 6055      64F90C
 6056 d903 158004C0 		.ascii	"\025\200\004\300\013\000\206\000\036\014\025\341@\300"
 6056      0B008600 
 6056      1E0C15E1 
 6056      40C0
 6057 d911 0B64FD00 		.ascii	"\013d\375\000\036\200\004\341@\002\306d\011\014\011"
 6057      1E8004E1 
 6057      4002C664 
 6057      090C09
 6058 d920 8414C02D 		.ascii	"\204\024\300-\202\011\305\007\003\006\004\006\014\011"
 6058      8209C507 
 6058      03060406 
 6058      0C09
 6059 d92e E140C02D 		.ascii	"\341@\300-d\011\307\007\204\024\004\006\202\011\341"
 6059      6409C707 
 6059      84140406 
 6059      8209E1
 6060 d93d 4001C665 		.ascii	"@\001\306e\005\014\025\200\004\300\013@\006\000\036"
 6060      050C1580 
 6060      04C00B40 
 6060      06001E
 6061 d94c 0C15E140 		.ascii	"\014\025\341@\300\013e\011\000\036\200\004\341@BFd9"
 6061      C00B6509 
 6061      001E8004 
 6061      E1404246 
 6061      6439
 6062 d95e 0C098414 		.ascii	"\014\011\204\024\300-\202\011\305\007B\206\004\006\014"
 6062      C02D8209 
 6062      C5074286 
 6062      04060C
ARM GAS  C:\Temp\ccVQrAGa.s 			page 316


 6063 d96d 09E140C0 		.ascii	"\011\341@\300-d9\307\007\204\024\004\006\202\011\341"
 6063      2D6439C7 
 6063      07841404 
 6063      068209E1 
 6064 d97d 40414665 		.ascii	"@AFe\021\014\025\200\004\300\013A\206\000\036\014\025"
 6064      110C1580 
 6064      04C00B41 
 6064      86001E0C 
 6064      15
 6065 d98e E140C00B 		.ascii	"\341@\300\013e\025\000\036\200\004\341@C\306di\014\011"
 6065      6515001E 
 6065      8004E140 
 6065      43C66469 
 6065      0C09
 6066 d9a0 8414C02D 		.ascii	"\204\024\300-\202\011\305\007\002\006\004\006\014\011"
 6066      8209C507 
 6066      02060406 
 6066      0C09
 6067 d9ae E144C02D 		.ascii	"\341D\300-di\307\007\204\024\004\006\202\011\3414\001"
 6067      6469C707 
 6067      84140406 
 6067      8209E134 
 6067      01
 6068 d9bf 46800480 		.ascii	"F\200\004\200\004\204U\277\013l\035\014)\016\246@+\002"
 6068      048455BF 
 6068      0B6C1D0C 
 6068      290EA640 
 6068      2B02
 6069 d9d1 A6E0088C 		.ascii	"\246\340\010\214\013`\010\357\354H\010\016\006\243\013"
 6069      0B6008EF 
 6069      EC48080E 
 6069      06A30B
 6070 d9e0 8E0BC000 		.ascii	"\216\013\300\000\362\004\014L\201\001\335\223\362\004"
 6070      F2040C4C 
 6070      8101DD93 
 6070      F204
 6071 d9ee 0C4CC1C3 		.ascii	"\014L\301\303\335\223\372\000\004\014\014\011\200k\300"
 6071      DD93FA00 
 6071      040C0C09 
 6071      806BC0
 6072 d9fd 2D632163 		.ascii	"-c!c%\014\031z\330\300-\241\013\357\230\014\011\224"
 6072      250C197A 
 6072      D8C02DA1 
 6072      0BEF980C 
 6072      0994
 6073 da0f 35C02D63 		.ascii	"5\300-c1c5\014\031z8\300-\241\013\357\230\014\011\220"
 6073      3163350C 
 6073      197A38C0 
 6073      2DA10BEF 
 6073      980C0990 
 6074 da23 F5C02D63 		.ascii	"\365\300-cAcE\014\031y\230\300-\241\013\357\230\014"
 6074      4163450C 
 6074      197998C0 
 6074      2DA10BEF 
 6074      980C
 6075 da35 098EB5C0 		.ascii	"\011\216\265\300-cYc]\014\031x\370\300-\241\013\357"
 6075      2D635963 
ARM GAS  C:\Temp\ccVQrAGa.s 			page 317


 6075      5D0C1978 
 6075      F8C02DA1 
 6075      0BEF
 6076 da47 980C098C 		.ascii	"\230\014\011\214u\300-cace\014\031xX\300-\241\013\357"
 6076      75C02D63 
 6076      6163650C 
 6076      197858C0 
 6076      2DA10BEF 
 6077 da5b 980C098A 		.ascii	"\230\014\011\2125\300-c\241c\245\014\031w\270\300-\241"
 6077      35C02D63 
 6077      A163A50C 
 6077      1977B8C0 
 6077      2DA1
 6078 da6d 0BEF980C 		.ascii	"\013\357\230\014\011\206\365\300-c\321c\325\014\031"
 6078      0986F5C0 
 6078      2D63D163 
 6078      D50C19
 6079 da7c 7718C02D 		.ascii	"w\030\300-\241\013\357\230\014\011\204\265\300-d\001"
 6079      A10BEF98 
 6079      0C0984B5 
 6079      C02D6401 
 6080 da8c 64050C19 		.ascii	"d\005\014\031vx\300-\241\013\357\230\014\011\202u\300"
 6080      7678C02D 
 6080      A10BEF98 
 6080      0C098275 
 6080      C0
 6081 da9d 2D643164 		.ascii	"-d1d5\014\031u\330\300-\241\013\357\230\014\014\200"
 6081      350C1975 
 6081      D8C02DA1 
 6081      0BEF980C 
 6081      0C80
 6082 daaf 85DD93F2 		.ascii	"\205\335\223\362\000da\014\011\014\031\300-\300-de"
 6082      0064610C 
 6082      090C19C0 
 6082      2DC02D64 
 6082      65
 6083 dac0 F2000C0C 		.ascii	"\362\000\014\014\377\2304\350\372\200\000\014l\035\000"
 6083      FF9834E8 
 6083      FA80000C 
 6083      6C1D00
 6084 dacf 294038C0 		.ascii	")@8\300+\243\013\357\354A\366\202U\201\021`<\357\230"
 6084      2BA30BEF 
 6084      EC41F682 
 6084      55811160 
 6084      3CEF98
 6085 dae2 6F08F280 		.ascii	"o\010\362\200\010\014\377\3309\350\362\200\010\014\301"
 6085      080CFFD8 
 6085      39E8F280 
 6085      080CC1
 6086 daf1 C3DD93FA 		.ascii	"\303\335\223\372\014\004\014\014\013\200k\300\025n\011"
 6086      0C040C0C 
 6086      0B806BC0 
 6086      156E09
 6087 db00 E080400A 		.ascii	"\340\200@\012\014)\2025@+l\035\014\014\214\013>8\362"
 6087      0C298235 
 6087      402B6C1D 
 6087      0C0C8C0B 
ARM GAS  C:\Temp\ccVQrAGa.s 			page 318


 6087      3E38F2
 6088 db13 0C4E46FF 		.ascii	"\014NF\377\350\016\011\357\334\302\011\370\020\370\020"
 6088      E80E09EF 
 6088      DCC209F8 
 6088      10F810
 6089 db22 4E016C21 		.ascii	"N\001l!\014\011\247\013\300+B6\214\365\214\013`\000"
 6089      0C09A70B 
 6089      C02B4236 
 6089      8CF58C0B 
 6089      6000
 6090 db34 E8005B88 		.ascii	"\350\000[\210`\004BFW8\203!\214\013h0\201\201\034\010"
 6090      60044246 
 6090      57388321 
 6090      8C0B6830 
 6090      81811C08 
 6091 db48 F3F84000 		.ascii	"\363\370@\000\234\010\234\006\363\364@\000N\201\234"
 6091      9C089C06 
 6091      F3F44000 
 6091      4E819C
 6092 db57 060C0BE0 		.ascii	"\006\014\013\3400\300\025n\011s\375@\000L\003\300\375"
 6092      30C0156E 
 6092      0973FD40 
 6092      004C03C0 
 6092      FD
 6093 db68 40156E09 		.ascii	"@\025n\011@\370\214\013u\370\350 \214\013o\350aD\000"
 6093      40F88C0B 
 6093      75F8E820 
 6093      8C0B6FE8 
 6093      614400
 6094 db7b C6E00042 		.ascii	"\306\340\000BF\000\206\200\004\341D\001\206\000\206"
 6094      46008680 
 6094      04E14401 
 6094      860086
 6095 db8a 800458B8 		.ascii	"\200\004X\270\214\013\014\014\350\0004x\362\014BV\377"
 6095      8C0B0C0C 
 6095      E8003478 
 6095      F20C4256 
 6095      FF
 6096 db9b D88C0B60 		.ascii	"\330\214\013`\000\350\000X(n\011\014\013\002\006@\025"
 6096      00E80058 
 6096      286E090C 
 6096      0B020640 
 6096      15
 6097 dbac FFC06001 		.ascii	"\377\300`\001\374\230\000\004n\011L\003A\306@\025\300"
 6097      FC980004 
 6097      6E094C03 
 6097      41C64015 
 6097      C0
 6098 dbbd 2072FD02 		.ascii	" r\375\002\017\200\004r\301\002\006\000\004\300 \004"
 6098      0F800472 
 6098      C1020600 
 6098      04C02004 
 6099 dbcd 0EFCC472 		.ascii	"\016\374\304r\301\002\006\214\013\300 \362\014\014\014"
 6099      C102068C 
 6099      0BC020F2 
 6099      0C0C0C
 6100 dbdc FFD832E8 		.ascii	"\377\3302\350\372\000\004\014\202%\241\033o\230f\310"
ARM GAS  C:\Temp\ccVQrAGa.s 			page 319


 6100      FA00040C 
 6100      8225A11B 
 6100      6F9866C8 
 6101 dbec 40068311 		.ascii	"@\006\203\021\014\014\372\002\335\223\362\000z\002L"
 6101      0C0CFA02 
 6101      DD93F200 
 6101      7A024C
 6102 dbfb 06E03C41 		.ascii	"\006\340<A\366o\230f\010\214\013\201\021\362\000\014"
 6102      F66F9866 
 6102      088C0B81 
 6102      11F2000C 
 6103 dc0b 0CC1C3DD 		.ascii	"\014\301\303\335\223\372|\004L\022\006\000k\024\306"
 6103      93FA7C04 
 6103      4C120600 
 6103      6B14C6
 6104 dc1a E0085746 		.ascii	"\340\010WFa\024\020\206\341\020\201\001a<\201q\011\225"
 6104      61141086 
 6104      E1108101 
 6104      613C8171 
 6104      0995
 6105 dc2c 6C1D4C91 		.ascii	"l\035L\221\214\013@+\350\000D\210\024\025\241\013\002"
 6105      8C0B402B 
 6105      E8004488 
 6105      1415A10B 
 6105      02
 6106 dc3d 19C0008E 		.ascii	"\031\300\000\216u\300\000h\000H\310(\024\214\013\204"
 6106      75C00068 
 6106      0048C828 
 6106      148C0B84 
 6107 dc4d 18A10B42 		.ascii	"\030\241\013B\012\214\225\214%\340\204\216\033\014\013"
 6107      0A8C958C 
 6107      25E0848E 
 6107      1B0C0B
 6108 dc5c E8004D08 		.ascii	"\350\000M\010\340\310\000\012b8\212\265,\004\350\034"
 6108      E0C8000A 
 6108      62388AB5 
 6108      2C04E81C 
 6109 dc6c 83218111 		.ascii	"\203!\201\021\225\021\000\026h0M\210,\004\214\013\200"
 6109      95110016 
 6109      68304D88 
 6109      2C048C0B 
 6109      80
 6110 dc7d 16831180 		.ascii	"\026\203\021\200\010\250\004\340\204@J@\000\026\005"
 6110      08A804E0 
 6110      84404A40 
 6110      001605
 6111 dc8c C0000206 		.ascii	"\300\000\002\006\300\000@\021\200\030\240\004\363\334"
 6111      C0004011 
 6111      8018A004 
 6111      F3DC
 6112 dc9a 4210A004 		.ascii	"B\020\240\004\200\026B\020\200\030\000\026\363\274\341"
 6112      80164210 
 6112      80180016 
 6112      F3BCE1
 6113 dca9 1000C680 		.ascii	"\020\000\306\200\030\200\004\000\026\302\031\340\000"
 6113      18800400 
 6113      16C219E0 
ARM GAS  C:\Temp\ccVQrAGa.s 			page 320


 6113      00
 6114 dcb6 4126E87D 		.ascii	"A&\350}\202q\014L\356\005\335\223\362|\372\014\004\014"
 6114      82710C4C 
 6114      EE05DD93 
 6114      F27CFA0C 
 6114      040C
 6115 dcc8 6FEC7AC8 		.ascii	"o\354z\310\016\026\200kB\306`\010Lq\340\020@+l\035J"
 6115      0E16806B 
 6115      42C66008 
 6115      4C71E010 
 6115      402B6C1D 
 6116 dcdd 3881218C 		.ascii	"8\201!\214\013h0aD\000\306\341$P\206\240\024\200\004"
 6116      0B683061 
 6116      4400C6E1 
 6116      245086A0 
 6116      148004
 6117 dcf0 84388028 		.ascii	"\2048\200(\340\200FJDJ\204e\376%\340\214\357\354z\010"
 6117      E080464A 
 6117      444A8465 
 6117      FE25E08C 
 6117      EFEC7A08 
 6118 dd04 6C1D0C29 		.ascii	"l\035\014)\002\026@+nX\340\010\214\013o\350\200\225"
 6118      0216402B 
 6118      6E58E008 
 6118      8C0B6FE8 
 6118      8095
 6119 dd16 A30BE830 		.ascii	"\243\013\3500OHO\030\201\225\240\004\3500@\012\200\010"
 6119      4F484F18 
 6119      8195A004 
 6119      E830400A 
 6119      8008
 6120 dd28 80D5E084 		.ascii	"\200\325\340\204\216\013\201q\362\014\014\014xX\335"
 6120      8E0B8171 
 6120      F20C0C0C 
 6120      7858DD
 6121 dd37 930C29EF 		.ascii	"\223\014)\357\354@+l\035\340\010\016&`\010\002&lx\214"
 6121      EC402B6C 
 6121      1DE0080E 
 6121      26600802 
 6121      266C788C 
 6122 dd4b 0BA30BEF 		.ascii	"\013\243\013\357\350\300\000\016\006\014\014\216\013"
 6122      E8C0000E 
 6122      060C0C8E 
 6122      0B
 6123 dd58 DD93F20C 		.ascii	"\335\223\362\014\372\014\004\014o\354v\010\000&\200"
 6123      FA0C040C 
 6123      6FEC7608 
 6123      002680
 6124 dd67 6B428660 		.ascii	"kB\206`\010L\001\340<@+l\035Ex\201!\214\013h0aD\000"
 6124      084C01E0 
 6124      3C402B6C 
 6124      1D457881 
 6124      218C0B68 
 6125 dd7f C6E12450 		.ascii	"\306\341$PF\240\024\200\004\2048\200(\340\200FJDJ\204"
 6125      46A01480 
 6125      04843880 
 6125      28E08046 
ARM GAS  C:\Temp\ccVQrAGa.s 			page 321


 6125      4A444A84 
 6126 dd93 A5FE25E0 		.ascii	"\245\376%\340\214\357\354uHl\035\014)\016F@+\002F\340"
 6126      8CEFEC75 
 6126      486C1D0C 
 6126      290E4640 
 6126      2B0246E0 
 6127 dda7 088C0B60 		.ascii	"\010\214\013`\010\357\350ih\200\225\243\013\3500JhJ"
 6127      08EFE869 
 6127      688095A3 
 6127      0BE8304A 
 6127      684A
 6128 ddb9 388375A0 		.ascii	"8\203u\240\004\3500@\012\200\010\202\345\340\204\357"
 6128      04E83040 
 6128      0A800882 
 6128      E5E084EF 
 6129 ddc9 EC73C86C 		.ascii	"\354s\310l\035\014)\016V@+\002V\340\010\214\013`\010"
 6129      1D0C290E 
 6129      56402B02 
 6129      56E0088C 
 6129      0B6008
 6130 dddc EFE867E8 		.ascii	"\357\350g\350\200E\243\013\000\206\201q\200\004\341"
 6130      8045A30B 
 6130      00868171 
 6130      8004E1
 6131 ddeb 3CD01980 		.ascii	"<\320\031\200\030\216\013\000\026\362\014\014\014\301"
 6131      188E0B00 
 6131      16F20C0C 
 6131      0CC1
 6132 ddf9 C3DD93FA 		.ascii	"\303\335\223\372\034\004L\200k\002{\357\354p\350`\010"
 6132      1C044C80 
 6132      6B027BEF 
 6132      EC70E860 
 6132      08
 6133 de0a 0036E004 		.ascii	"\0006\340\004B&l\035L\001\201!@+h0@h\000\306\214\013"
 6133      42266C1D 
 6133      4C018121 
 6133      402B6830 
 6133      406800C6 
 6134 de20 52C66144 		.ascii	"R\306aD\200\004\341$\200(\244\024FJ\2048\204\245\340"
 6134      8004E124 
 6134      8028A414 
 6134      464A8438 
 6134      84A5E0
 6135 de33 80E08C44 		.ascii	"\200\340\214DJp8\376%\014)\357\354@+l\035\340\010\020"
 6135      4A7038FE 
 6135      250C29EF 
 6135      EC402B6C 
 6135      1DE00810 
 6136 de47 66600802 		.ascii	"f`\010\002fdX\214\013\243\013\357\350EX\200\225\201"
 6136      6664588C 
 6136      0BA30BEF 
 6136      E8455880 
 6136      9581
 6137 de59 E5E830E8 		.ascii	"\345\3500\3500E(\200\010\244\004\340\204@\012\020\006"
 6137      30452880 
 6137      08A404E0 
 6137      84400A10 
ARM GAS  C:\Temp\ccVQrAGa.s 			page 322


 6137      06
 6138 de6a 00E5697D 		.ascii	"\000\345i}\200\000\340\000Q&\220\013\200\245\362\034"
 6138      8000E000 
 6138      5126900B 
 6138      80A5F21C 
 6139 de7a 0C4C6E18 		.ascii	"\014Ln\030\335\223\014)\357\354@+l\035\340\010\016v"
 6139      DD930C29 
 6139      EFEC402B 
 6139      6C1DE008 
 6139      0E76
 6140 de8c 60080276 		.ascii	"`\010\002vb8\214\013\243\013\357\350\300\000\016\006"
 6140      62388C0B 
 6140      A30BEFE8 
 6140      C0000E06 
 6141 de9c 0C4C8E0B 		.ascii	"\014L\216\013\335\223\362\034o\245\000%\241+\300\013"
 6141      DD93F21C 
 6141      6FA50025 
 6141      A12BC00B 
 6142 deac 9A005C08 		.ascii	"\232\000\\\010\340l\002\012\004\315\000%\232\245\200"
 6142      E06C020A 
 6142      04CD0025 
 6142      9AA580
 6143 debb 050025A5 		.ascii	"\005\000%\245\033\200\013\012\015\204\004\004 \012\015"
 6143      1B800B0A 
 6143      0D840404 
 6143      200A0D
 6144 deca 402598C5 		.ascii	"@%\230\305\200\013\000%\247\033\200\013\012\025\204"
 6144      800B0025 
 6144      A71B800B 
 6144      0A1584
 6145 ded9 0404200A 		.ascii	"\004\004 \012\025@%\226\205\200\013\000%\251\033\200"
 6145      15402596 
 6145      85800B00 
 6145      25A91B80 
 6146 dee9 0B0A1184 		.ascii	"\013\012\021\204\004\004 \012\021@%\224E\200\013\000"
 6146      0404200A 
 6146      11402594 
 6146      45800B00 
 6147 def9 25AB1B80 		.ascii	"%\253\033\200\013\012\031\204\004\004 \012\031@%\222"
 6147      0B0A1984 
 6147      0404200A 
 6147      19402592 
 6148 df09 05800B00 		.ascii	"\005\200\013\000%\255\033\200\013\012\035\204\004\004"
 6148      25AD1B80 
 6148      0B0A1D84 
 6148      0404
 6149 df17 200A1D40 		.ascii	" \012\035@%\216\305\200\013\000%\257\033\200\013\012"
 6149      258EC580 
 6149      0B0025AF 
 6149      1B800B0A 
 6150 df27 21840404 		.ascii	"!\204\004\004 \012!@%\214\205\200\013\000%\261\033\200"
 6150      200A2140 
 6150      258C8580 
 6150      0B0025B1 
 6150      1B80
 6151 df39 0B0A2584 		.ascii	"\013\012%\204\004\004 \012%@%\212E\200\013\000%\263"
 6151      0404200A 
ARM GAS  C:\Temp\ccVQrAGa.s 			page 323


 6151      2540258A 
 6151      45800B00 
 6151      25B3
 6152 df4b 1B800B0A 		.ascii	"\033\200\013\012)\204\004\004 \012)@%\210\005\200\013"
 6152      29840404 
 6152      200A2940 
 6152      25880580 
 6152      0B
 6153 df5c 86C5B51B 		.ascii	"\206\305\265\033\000%\267\033\200\013\012-\204\004\004"
 6153      0025B71B 
 6153      800B0A2D 
 6153      840404
 6154 df6b 200A2D40 		.ascii	" \012-@%\204\205\200\013\000%\243\033\200\013\012\011"
 6154      25848580 
 6154      0B0025A3 
 6154      1B800B0A 
 6154      09
 6155 df7c 84040420 		.ascii	"\204\004\004 \012\011@%\202E\200\013\374\004D\020\340"
 6155      0A094025 
 6155      8245800B 
 6155      FC044410 
 6155      E0
 6156 df8d 74040A83 		.ascii	"t\004\012\203!\200\265j1@%\000%\300\013@\013j\001d\001"
 6156      2180B56A 
 6156      31402500 
 6156      25C00B40 
 6156      0B6A0164 
 6157 dfa2 0600C627 		.ascii	"\006\000\306'\300\272D\206\0043F\025\340\000B\006\340"
 6157      C0BA4486 
 6157      04334615 
 6157      E0004206 
 6157      E0
 6158 dfb3 344615FC 		.ascii	"4F\025\374\006\000\025\3408\300\013j\001D\032\202\021"
 6158      060015E0 
 6158      38C00B6A 
 6158      01441A82 
 6158      11
 6159 dfc4 4015E10A 		.ascii	"@\025\341\012\300\013j\001\000\025\241+\000\013\012"
 6159      C00B6A01 
 6159      0015A12B 
 6159      000B0A
 6160 dfd3 05800004 		.ascii	"\005\200\000\004\006\012\001@%\002\020\200\013@\025"
 6160      060A0140 
 6160      25021080 
 6160      0B4015
 6161 dfe2 8404800B 		.ascii	"\204\004\200\013\012\005\301\303\335\223o\245\000%\241"
 6161      0A05C1C3 
 6161      DD936FA5 
 6161      0025A1
 6162 dff1 2BC00B9A 		.ascii	"+\300\013\232\000\\\010ku\000%\006\000@\013\300\273"
 6162      005C086B 
 6162      75002506 
 6162      00400BC0 
 6162      BB
 6163 e002 65D1E000 		.ascii	"e\321\340\000J\206\206#\306'F\006\310\036\000E\374\006"
 6163      4A868623 
 6163      C6274606 
ARM GAS  C:\Temp\ccVQrAGa.s 			page 324


 6163      C81E0045 
 6163      FC06
 6164 e014 C00B6B75 		.ascii	"\300\013ku\230!J>JJ\202A@E\341\026\300\013ku\0005\241"
 6164      98214A3E 
 6164      4A4A8241 
 6164      4045E116 
 6164      C00B6B75 
 6165 e02b 5B000B0B 		.ascii	"[\000\013\013y\200\000\010\006\013u@E\0060\200\013@"
 6165      79800008 
 6165      060B7540 
 6165      45063080 
 6165      0B40
 6166 e03d 35840400 		.ascii	"5\204\004\000\013\013y\360$\002\012\002\012\230\245"
 6166      0B0B79F0 
 6166      24020A02 
 6166      0A98A5
 6167 e04c 88C5F004 		.ascii	"\210\305\360\004\360\010\002\012\002\012\232e\212\205"
 6167      F008020A 
 6167      020A9A65 
 6167      8A85
 6168 e05a F00CF010 		.ascii	"\360\014\360\020\002\012\002\012\234%\236E\360\024\360"
 6168      020A020A 
 6168      9C259E45 
 6168      F014F0
 6169 e069 18020A02 		.ascii	"\030\002\012\002\012\212\345\216\005\360\034\360 \002"
 6169      0A8AE58E 
 6169      05F01CF0 
 6169      2002
 6170 e077 0A020A90 		.ascii	"\012\002\012\220%\\\010\360\000\000\025\332\000\300"
 6170      255C08F0 
 6170      000015DA 
 6170      00C0
 6171 e085 0B6CBD82 		.ascii	"\013l\275\202\021\210$l\275@\025@%\300\013\300\013l"
 6171      1188246C 
 6171      BD401540 
 6171      25C00BC0 
 6171      0B6C
 6172 e097 E50015DD 		.ascii	"\345\000\025\335\223\300\013l\301@\025\202\021\300\013"
 6172      93C00B6C 
 6172      C1401582 
 6172      11C00B
 6173 e0a6 6CC14015 		.ascii	"l\301@\025\210\024\300\013l\351\000\025\335\223\300"
 6173      8814C00B 
 6173      6CE90015 
 6173      DD93C0
 6174 e0b5 0B6CC940 		.ascii	"\013l\311@\025\202\021\300\013l\311@\025\210\024\300"
 6174      158211C0 
 6174      0B6CC940 
 6174      158814C0 
 6175 e0c5 0B6CF100 		.ascii	"\013l\361\000\025\335\223\300\013l\325\202\021\210$"
 6175      15DD93C0 
 6175      0B6CD582 
 6175      118824
 6176 e0d4 6CD54015 		.ascii	"l\325@\025@%\300\013\300\013l\375\000\025\335\223\300"
 6176      4025C00B 
 6176      C00B6CFD 
 6176      0015DD93 
ARM GAS  C:\Temp\ccVQrAGa.s 			page 325


 6176      C0
 6177 e0e5 0B6CD940 		.ascii	"\013l\331@\025\202\021\300\013l\331@\025\210\024\300"
 6177      158211C0 
 6177      0B6CD940 
 6177      158814C0 
 6178 e0f5 0B6D0100 		.ascii	"\013m\001\000\025\335\223\300\013l\335\202\021\210$"
 6178      15DD93C0 
 6178      0B6CDD82 
 6178      118824
 6179 e104 6CDD4015 		.ascii	"l\335@\025@%\300\013\300\013m\005\000\025\335\223\300"
 6179      4025C00B 
 6179      C00B6D05 
 6179      0015DD93 
 6179      C0
 6180 e115 0B6CE140 		.ascii	"\013l\341@\025\202\021\300\013l\341@\025\210\024\300"
 6180      158211C0 
 6180      0B6CE140 
 6180      158814C0 
 6181 e125 0B6D0900 		.ascii	"\013m\011\000\025\335\223\300\013l\305\202\021\210$"
 6181      15DD93C0 
 6181      0B6CC582 
 6181      118824
 6182 e134 6CC54015 		.ascii	"l\305@\025@%\300\013\300\013l\355\000\025\335\223\300"
 6182      4025C00B 
 6182      C00B6CED 
 6182      0015DD93 
 6182      C0
 6183 e145 0B6CCD82 		.ascii	"\013l\315\202\021\210$l\315@\025@%\300\013\300\013l"
 6183      1188246C 
 6183      CD401540 
 6183      25C00BC0 
 6183      0B6C
 6184 e157 F50035DD 		.ascii	"\365\0005\335\223@\013l\321`\025\002\012\2021\300\010"
 6184      93400B6C 
 6184      D1601502 
 6184      0A8231C0 
 6184      08
 6185 e168 6CD14035 		.ascii	"l\321@5\2104\300\013l\371@5\204E\300\013`\025\002\012"
 6185      8834C00B 
 6185      6CF94035 
 6185      8445C00B 
 6185      6015020A 
 6186 e17c 5C08C004 		.ascii	"\\\010\300\004\000\025\332\000\300\013m\015\202\021"
 6186      0015DA00 
 6186      C00B6D0D 
 6186      8211
 6187 e18a 88246D0D 		.ascii	"\210$m\015@\025@%\300\013\300\013m\025\000\025\335\223"
 6187      40154025 
 6187      C00BC00B 
 6187      6D150015 
 6187      DD93
 6188 e19c C00B6D11 		.ascii	"\300\013m\021@\025\202\021\300\013m\021@\025\210\024"
 6188      40158211 
 6188      C00B6D11 
 6188      40158814 
 6189 e1ac C00B6D19 		.ascii	"\300\013m\031\301\303\335\223o\245\000%\241+\300\013"
 6189      C1C3DD93 
ARM GAS  C:\Temp\ccVQrAGa.s 			page 326


 6189      6FA50025 
 6189      A12BC00B 
 6190 e1bc 9A005C08 		.ascii	"\232\000\\\010m\035\0005\010\000@\013\300\275dqm%\000"
 6190      6D1D0035 
 6190      0800400B 
 6190      C0BD6471 
 6190      6D2500
 6191 e1cf 25C637C0 		.ascii	"%\3067\300\013\206C\002!m%@%\251!@\013B\006\322\036"
 6191      0B864302 
 6191      216D2540 
 6191      25A92140 
 6191      0B4206D2 
 6192 e1e4 4815FC06 		.ascii	"H\025\374\006\000\025\340\020\300\013m\035D\032\202"
 6192      0015E010 
 6192      C00B6D1D 
 6192      441A82
 6193 e1f3 114015E1 		.ascii	"\021@\025\341\012\300\013m\035\000\025\241+\000\013"
 6193      0AC00B6D 
 6193      1D0015A1 
 6193      2B000B
 6194 e202 0D218000 		.ascii	"\015!\200\000\004\006\015\035@%\002\020\200\013@\025"
 6194      04060D1D 
 6194      40250210 
 6194      800B4015 
 6195 e212 8404800B 		.ascii	"\204\004\200\013\015!\301\303\335\223\372\004\004L\014"
 6195      0D21C1C3 
 6195      DD93FA04 
 6195      044C0C
 6196 e221 05806BC0 		.ascii	"\005\200k\300\013o\245\212\245\241\013m\351\014\005"
 6196      0B6FA58A 
 6196      A5A10B6D 
 6196      E90C05
 6197 e230 A921400B 		.ascii	"\251!@\013f\212D\012\340\210\006\004\360\214Nb\000 "
 6197      668A440A 
 6197      E0880604 
 6197      F08C4E62 
 6197      0020
 6198 e242 8C2340BD 		.ascii	"\214#@\275g\301j8\251!@\006\357\220N\005\374\006\300"
 6198      67C16A38 
 6198      A9214006 
 6198      EF904E05 
 6198      FC06C0
 6199 e255 0B6DC96D 		.ascii	"\013m\311m\351\014\005\202\001\300\013m\351L\005\000"
 6199      E90C0582 
 6199      01C00B6D 
 6199      E94C0500 
 6200 e265 4A400B0C 		.ascii	"J@\013\014\005\370\034@\013\015\355\300\000\002\006"
 6200      05F81C40 
 6200      0B0DEDC0 
 6200      000206
 6201 e274 0DE94C15 		.ascii	"\015\351L\025\000\000\300\013L\005\304\004\300\013\015"
 6201      0000C00B 
 6201      4C05C404 
 6201      C00B0D
 6202 e283 EDF2040C 		.ascii	"\355\362\004\014L\301\303\335\223o\245\000%"
 6202      4CC1C3DD 
 6202      936FA500 
ARM GAS  C:\Temp\ccVQrAGa.s 			page 327


 6202      25
 6203 e290 A12BC00B 		.ascii	"\241+\300\013\232\000\\\010n\261\000%\206:\300\013\360"
 6203      9A005C08 
 6203      6EB10025 
 6203      863AC00B 
 6203      F0
 6204 e2a1 08024B18 		.ascii	"\010\002K\030$\006Z\004\032\340\214\000\303\304'XS\200"
 6204      24065A04 
 6204      1AE08C00 
 6204      C3C42758 
 6204      5380
 6205 e2b3 23C0176D 		.ascii	"#\300\027m}myX\023X3\300\027\300\027mumqXCB\006\300"
 6205      7D6D7958 
 6205      135833C0 
 6205      17C0176D 
 6205      756D7158 
 6206 e2cb 174415FC 		.ascii	"\027D\025\374\006\300\013n\221n\261\000\025\202\021"
 6206      06C00B6E 
 6206      916EB100 
 6206      158211
 6207 e2da C00B6EB1 		.ascii	"\300\013n\261@\025\002J@\013\000\025\370\034@\013\016"
 6207      4015024A 
 6207      400B0015 
 6207      F81C400B 
 6207      0E
 6208 e2eb B5C00004 		.ascii	"\265\300\000\004\006\016\261@%\002\020\300\013@\025"
 6208      060EB140 
 6208      250210C0 
 6208      0B4015
 6209 e2fa C404C00B 		.ascii	"\304\004\300\013\016\265\301\303\335\223o\245\000%\241"
 6209      0EB5C1C3 
 6209      DD936FA5 
 6209      0025A1
 6210 e309 2BC00B9A 		.ascii	"+\300\013\232\000\\\010o\031\000%\3064\300\013`\220"
 6210      005C086F 
 6210      190025C6 
 6210      34C00B60 
 6210      90
 6211 e31a 08240043 		.ascii	"\010$\000C\304'H5\200#\300\013o-H5\3044\300\013o)H5"
 6211      C4274835 
 6211      8023C00B 
 6211      6F2D4835 
 6211      C434C00B 
 6212 e332 8634C00B 		.ascii	"\2064\300\013o%H\025\204\024\300\013o!\374\006B\006"
 6212      6F254815 
 6212      8414C00B 
 6212      6F21FC06 
 6212      4206
 6213 e344 6EF94415 		.ascii	"n\371D\025\000\025\300\013\300\013o\031@\025\202\021"
 6213      0015C00B 
 6213      C00B6F19 
 6213      40158211 
 6214 e354 400B6F19 		.ascii	"@\013o\031\370\034\002J\017\035\000\025\004\006@\013"
 6214      F81C024A 
 6214      0F1D0015 
 6214      0406400B 
 6215 e364 4025C000 		.ascii	"@%\300\000\300\013\017\031\304\004\002\020\017\035@"
ARM GAS  C:\Temp\ccVQrAGa.s 			page 328


 6215      C00B0F19 
 6215      C4040210 
 6215      0F1D40
 6216 e373 15DD93C0 		.ascii	"\025\335\223\300\013\372\014\004\014aLM\006\341\230"
 6216      0BFA0C04 
 6216      0C614C4D 
 6216      06E198
 6217 e382 03468121 		.ascii	"\003F\201!\030\004n\020G\206\341\000\012\306\003\206"
 6217      18046E10 
 6217      4786E100 
 6217      0AC60386 
 6218 e392 040C042E 		.ascii	"\004\014\004.\341\230\341\230\003\306\002\206\004.@"
 6218      E198E198 
 6218      03C60286 
 6218      042E40
 6219 e3a1 25E1A440 		.ascii	"%\341\244@\013o\251\341\000\000F\004\206\000\036\010"
 6219      0B6FA9E1 
 6219      00004604 
 6219      86001E08 
 6220 e3b1 3EE10066 		.ascii	">\341\000f\241\010\020\002\020\300\277@\271g\361\341"
 6220      A1081002 
 6220      10C0BF40 
 6220      B967F1E1 
 6221 e3c1 00050694 		.ascii	"\000\005\006\224N\230\004v\370\210\036\030\004\357\360"
 6221      4E980476 
 6221      F8881E18 
 6221      04EFF0
 6222 e3d0 4071B571 		.ascii	"@q\265q\300+l\035\357\364N\250B\306\030\004\204\016"
 6222      C02B6C1D 
 6222      EFF44EA8 
 6222      42C61804 
 6222      840E
 6223 e3e2 E198E82C 		.ascii	"\341\230\350,I\250E\206\030\024\210\016\341\230h,I\210"
 6223      49A84586 
 6223      1814880E 
 6223      E198682C 
 6223      4988
 6224 e3f4 4286820B 		.ascii	"B\206\202\013\004\016\341\230\340<A\366o\224f\010\000"
 6224      040EE198 
 6224      E03C41F6 
 6224      6F946608 
 6224      00
 6225 e405 1C811150 		.ascii	"\034\201\021P\006\342\300\300\000a\231\000F \016V\030"
 6225      06E2C0C0 
 6225      00619900 
 6225      46200E56 
 6225      18
 6226 e416 E19CA004 		.ascii	"\341\234\240\004\357\224\343@\000\034`<A\366d\330\203"
 6226      EF94E340 
 6226      001C603C 
 6226      41F664D8 
 6226      83
 6227 e427 1183816F 		.ascii	"\021\203\201o\224C\206\030\004\304\200`\025i\375@\025"
 6227      94438618 
 6227      04C48060 
 6227      1569FD40 
 6227      15
ARM GAS  C:\Temp\ccVQrAGa.s 			page 329


 6228 e438 0396400B 		.ascii	"\003\226@\013\331\204c\011l\035@q@\025\300+\300\013"
 6228      D9846309 
 6228      6C1D4071 
 6228      4015C02B 
 6228      C00B
 6229 e44a 6FA16FA5 		.ascii	"o\241o\245@\205@X\300\013\230\004\350\000\301\303\377"
 6229      40854058 
 6229      C00B9804 
 6229      E800C1C3 
 6229      FF
 6230 e45b D5FA0C04 		.ascii	"\325\372\014\004\014A\366\000{b\330\340<\201\021o\224"
 6230      0C41F600 
 6230      7B62D8E0 
 6230      3C81116F 
 6230      94
 6231 e46c 09018161 		.ascii	"\011\001\201aN\001\267\021@+l\031N\021\216\013@+l\035"
 6231      4E01B711 
 6231      402B6C19 
 6231      4E118E0B 
 6231      402B6C1D 
 6232 e480 51188311 		.ascii	"Q\030\203\021\016\013\357\374\300\025n\011\340\230@"
 6232      0E0BEFFC 
 6232      C0156E09 
 6232      E09840
 6233 e48f 4A0E1982 		.ascii	"J\016\031\202\345\300+d\305\212\365\247\033\357\334"
 6233      E5C02B64 
 6233      C58AF5A7 
 6233      1BEFDC
 6234 e49e 0286420A 		.ascii	"\002\206B\012\204\030\212%\340\200\340\200@\012\005"
 6234      84188A25 
 6234      E080E080 
 6234      400A05
 6235 e4ad 1188C54F 		.ascii	"\021\210\305O\230\216\013_x\357\374\241\013\350\010"
 6235      988E0B5F 
 6235      78EFFCA1 
 6235      0BE808
 6236 e4bc 5F9880B5 		.ascii	"_\230\200\265\216\013h\010\016\013\200k@\025n\011@\000"
 6236      8E0B6808 
 6236      0E0B806B 
 6236      40156E09 
 6236      4000
 6237 e4ce 8311C0FF 		.ascii	"\203\021\300\377r\375n\011N\003A\366@\025_\030\340<"
 6237      72FD6E09 
 6237      4E0341F6 
 6237      40155F18 
 6237      E03C
 6238 e4e0 A16BEF94 		.ascii	"\241k\357\224\007\021\244\325M\330\216\013r\370\357"
 6238      0711A4D5 
 6238      4DD88E0B 
 6238      72F8EF
 6239 e4ef FC8E0B6F 		.ascii	"\374\216\013o\324\200k\021\345\216\013\011\021\357\374"
 6239      D4806B11 
 6239      E58E0B09 
 6239      11EFFC
 6240 e4fe 4D4864D5 		.ascii	"MHd\325\016\011\247\013\300+\020\206\222\325\240\010"
 6240      0E09A70B 
 6240      C02B1086 
ARM GAS  C:\Temp\ccVQrAGa.s 			page 330


 6240      92D5A008 
 6241 e50e EFDCF8C0 		.ascii	"\357\334\370\300\000\012\240\010\200\345\360\300@\000"
 6241      000AA008 
 6241      80E5F0C0 
 6241      4000
 6242 e51c E080000A 		.ascii	"\340\200\000\012\016\013\220U\300\025n\011\340\200@"
 6242      0E0B9055 
 6242      C0156E09 
 6242      E08040
 6243 e52b 0A0E098E 		.ascii	"\012\016\011\216\005\300+l!\214u\247\013@J\240\010\212"
 6243      05C02B6C 
 6243      218C75A7 
 6243      0B404AA0 
 6243      088A
 6244 e53d E5E08C8E 		.ascii	"\345\340\214\216\013\033\021\357\374K\010o\330T\310"
 6244      0B1B11EF 
 6244      FC4B086F 
 6244      D854C8
 6245 e54c 1D118E0B 		.ascii	"\035\021\216\013J\230\216\013|\030\357\374\216\013h"
 6245      4A988E0B 
 6245      7C18EFFC 
 6245      8E0B68
 6246 e55b 1864CD0E 		.ascii	"\030d\315\016\005\342\024\300\005\206\345\302\015\310"
 6246      05E214C0 
 6246      0586E5C2 
 6246      0DC8
 6247 e569 09A0088E 		.ascii	"\011\240\010\216\013 \006\350\030\177(n\011\016\013"
 6247      0B2006E8 
 6247      187F286E 
 6247      090E0B
 6248 e578 83114015 		.ascii	"\203\021@\025\374\230\000\004n\011N\003A\366@\025Y\270"
 6248      FC980004 
 6248      6E094E03 
 6248      41F64015 
 6248      59B8
 6249 e58a E03C0B11 		.ascii	"\340<\013\021\357\224H\230\216\013A8\357\374\201U\350"
 6249      EF944898 
 6249      8E0B4138 
 6249      EFFC8155 
 6249      E8
 6250 e59b 0C8E0B1F 		.ascii	"\014\216\013\037\021\357\374H(`<A\366X\270\203\021\016"
 6250      11EFFC48 
 6250      28603C41 
 6250      F658B883 
 6250      110E
 6251 e5ad 09EF94C0 		.ascii	"\011\357\224\300+l\021\340\230@J\021\021\212\205G8\216"
 6251      2B6C11E0 
 6251      98404A11 
 6251      118A8547 
 6251      388E
 6252 e5bf 0B0E05EF 		.ascii	"\013\016\005\357\374\300\016`\365@\006\205\005N\005"
 6252      FCC00E60 
 6252      F5400685 
 6252      054E05
 6253 e5ce FC06400E 		.ascii	"\374\006@\016`\375oX\216\013V\270\350\010\216\013h\010"
 6253      60FD6F58 
 6253      8E0B56B8 
ARM GAS  C:\Temp\ccVQrAGa.s 			page 331


 6253      E8088E0B 
 6253      6808
 6254 e5e0 FC064006 		.ascii	"\374\006@\006`\371\016%\016\025\300\016\300\016`\365"
 6254      60F90E25 
 6254      0E15C00E 
 6254      C00E60F5 
 6255 e5f0 61014E05 		.ascii	"a\001N\005\202!\300\016`\371N%\000\020@\016N\005\354"
 6255      8221C00E 
 6255      60F94E25 
 6255      0010400E 
 6255      4E05EC
 6256 e603 04C00E60 		.ascii	"\004\300\016`\365\370\025\241\013\303\023\301\203`<"
 6256      F5F815A1 
 6256      0BC313C1 
 6256      83603C
 6257 e612 41F65558 		.ascii	"A\366UX\203\021\000d\357\224\014\014\372\200\335\223"
 6257      83110064 
 6257      EF940C0C 
 6257      FA80DD93 
 6258 e622 F20C6C19 		.ascii	"\362\014l\031@\021\335\223\300+n\015\000\031\243\033"
 6258      4011DD93 
 6258      C02B6E0D 
 6258      0019A31B 
 6259 e632 C036DA00 		.ascii	"\3006\332\000\\\010c\021\000\031\243\033\3008\000+\202"
 6259      5C086311 
 6259      0019A31B 
 6259      C038002B 
 6259      82
 6260 e643 F540156E 		.ascii	"\365@\025n\011\341L\003\306D \204\024\300\377r\361n"
 6260      09E14C03 
 6260      C6442084 
 6260      14C0FF72 
 6260      F16E
 6261 e655 0940231E 		.ascii	"\011@#\036\370\300\025\335\223\377\324\372\204\004\014"
 6261      F8C015DD 
 6261      93FFD4FA 
 6261      84040C
 6262 e664 4106006B 		.ascii	"A\006\000k\000\004\341\024\203!\203q\304\031\200\030"
 6262      0004E114 
 6262      83218371 
 6262      C4198018 
 6263 e674 41060016 		.ascii	"A\006\000\026\000\004\341(\000v\205\021\341(@\006\000"
 6263      0004E128 
 6263      00768511 
 6263      E1284006 
 6263      00
 6264 e685 7680047C 		.ascii	"v\200\004|\330\214\013@F\350(\275\021a(\203!\000\004"
 6264      D88C0B40 
 6264      46E828BD 
 6264      11612883 
 6264      210004
 6265 e698 8C0B0076 		.ascii	"\214\013\000v\362\204\014\014\340(<(\372|\004LA\206"
 6265      F2840C0C 
 6265      E0283C28 
 6265      FA7C044C 
 6265      4186
 6266 e6aa 008B0004 		.ascii	"\000\213\000\004\341(\003\021\202{Vr\206k\025Fp\210"
ARM GAS  C:\Temp\ccVQrAGa.s 			page 332


 6266      E1280311 
 6266      827B5672 
 6266      866B1546 
 6266      7088
 6267 e6bc 8016E134 		.ascii	"\200\026\3414@\206\215%\203\021a(\201!\000\004A\306"
 6267      40868D25 
 6267      83116128 
 6267      81210004 
 6267      41C6
 6268 e6ce 00768004 		.ascii	"\000v\200\004\341(\002\006\000\026zX\340\020\220\013"
 6268      E1280206 
 6268      00167A58 
 6268      E010900B 
 6269 e6de 68286144 		.ascii	"h(aD\000\306\341,\002F\204\024\200\004\2008\250$\241"
 6269      00C6E12C 
 6269      02468414 
 6269      80048038 
 6269      A824A1
 6270 e6f1 4B844888 		.ascii	"K\204H\210D\200\205\204u\245K\340\214F\012\2104\200"
 6270      44808584 
 6270      75A54BE0 
 6270      8C460A88 
 6270      3480
 6271 e703 85FC95A5 		.ascii	"\205\374\225\245;l\035\020)\002\306@+^8\340\010\220"
 6271      3B6C1D10 
 6271      2902C640 
 6271      2B5E38E0 
 6271      0890
 6272 e715 0B6FE4E0 		.ascii	"\013o\344\340\010\022\306\214\325\241\013a,\000\206"
 6272      0812C68C 
 6272      D5A10B61 
 6272      2C0086
 6273 e724 00048111 		.ascii	"\000\004\201\021\200\004\201!A\306\030\016\200\004\341"
 6273      80048121 
 6273      41C6180E 
 6273      8004E1
 6274 e733 28020600 		.ascii	"(\002\006\000\026wX\340\020\220\013h(aD\000\306\341"
 6274      167758E0 
 6274      10900B68 
 6274      28614400 
 6274      C6E1
 6275 e745 2C024684 		.ascii	",\002F\204\024\200\004\2008\250$\243K\204H\210D\200"
 6275      14800480 
 6275      38A824A3 
 6275      4B844888 
 6275      4480
 6276 e757 858475A7 		.ascii	"\205\204u\247K\340\214F\012\2104\200\205\374\225\247"
 6276      4BE08C46 
 6276      0A883480 
 6276      85FC95A7 
 6277 e767 3B6C1D10 		.ascii	";l\035\020)\002\306@+[8\340\010\220\013o\344\340\010"
 6277      2902C640 
 6277      2B5B38E0 
 6277      08900B6F 
 6277      E4E008
 6278 e77a 12C680D5 		.ascii	"\022\306\200\325\241\013\202q\010a\346\305\326}\222"
 6278      A10B8271 
ARM GAS  C:\Temp\ccVQrAGa.s 			page 333


 6278      0861E6C5 
 6278      D67D92
 6279 e789 0B8191F2 		.ascii	"\013\201\221\362|\014L\301\303\335\223\372\000\004\014"
 6279      7C0C4CC1 
 6279      C3DD93FA 
 6279      00040C
 6280 e798 61284246 		.ascii	"a(BF\004\024\201a\004f\203!s\370\203\021@\006\350(\200"
 6280      04148161 
 6280      04668321 
 6280      73F88311 
 6280      4006E828 
 6281 e7ad 04E12841 		.ascii	"\004\341(A\006\000f\200\004\341\024B\020\200\030\200"
 6281      06006680 
 6281      04E11442 
 6281      10801880 
 6282 e7bd 16F3F4F2 		.ascii	"\026\363\364\362\000\014\014\301\303\335\223\340\030"
 6282      000C0CC1 
 6282      C3DD93E0 
 6282      18
 6283 e7ca 0015E050 		.ascii	"\000\025\340P\000%a'\340\027p\001B\020@%\303\000\300"
 6283      00256127 
 6283      E0177001 
 6283      42104025 
 6283      C300C0
 6284 e7dd 096E09E0 		.ascii	"\011n\011\340P\000%\373\200\004$\004\006$\037\303\300"
 6284      500025FB 
 6284      80042404 
 6284      06241FC3 
 6284      C0
 6285 e7ee 60016E0D 		.ascii	"`\001n\015@\025\000\025\300\011\355\027\340T\363\360"
 6285      40150015 
 6285      C009ED17 
 6285      E054F3F0 
 6286 e7fe 42106841 		.ascii	"B\020hA@\021\000\025\300'\335\027\340T\363\360B\020"
 6286      40110015 
 6286      C027DD17 
 6286      E054F3F0 
 6286      4210
 6287 e810 68454011 		.ascii	"hE@\021\000\025\300'@\021\340X\3008c\025\340X\000\025"
 6287      0015C027 
 6287      4011E058 
 6287      C0386315 
 6287      E0580015 
 6288 e824 0406041F 		.ascii	"\004\006\004\037\303\000`\001\201!\005\033\200\000\002"
 6288      C3006001 
 6288      8121051B 
 6288      800002
 6289 e833 26031540 		.ascii	"&\003\025@\021\002\000\0008\203\225\345p\210!\0044\306"
 6289      11020000 
 6289      388395E5 
 6289      70882104 
 6289      34C6
 6290 e845 3BF13762 		.ascii	";\3617b\021B1\2044\300'\306;\3417b\025B1\2044\300'\306"
 6290      11423184 
 6290      34C027C6 
 6290      3BE13762 
 6290      15423184 
ARM GAS  C:\Temp\ccVQrAGa.s 			page 334


 6291 e85d 3BD13762 		.ascii	";\3217b\031B1\3054\300'B1\306;\300'b\015`a\004\212\370"
 6291      194231C5 
 6291      34C02742 
 6291      31C63BC0 
 6291      27620D60 
 6292 e875 B5C00165 		.ascii	"\265\300\001e\321\002\000\201!@\001F;\203uB1\210!\300"
 6292      D1020081 
 6292      21400146 
 6292      3B837542 
 6292      318821C0 
 6293 e889 266D71E1 		.ascii	"&mq\3417\2044B1\306;\300&mu\3217\2044B1\306;\300&my"
 6293      37843442 
 6293      31C63BC0 
 6293      266D75D1 
 6293      37843442 
 6294 e8a4 C63BC534 		.ascii	"\306;\3054mmB1\0044\300&\340@\004\212\3617x\365h\001"
 6294      6D6D4231 
 6294      0434C026 
 6294      E040048A 
 6294      F13778F5 
 6295 e8ba 40310015 		.ascii	"@1\000\025\300'\341\027\341\204h\005@\021\000\025\300"
 6295      C027E117 
 6295      E1846805 
 6295      40110015 
 6295      C0
 6296 e8cb 27F117E1 		.ascii	"'\361\027\341\210h\021@\021\000\025\300'\341\027\341"
 6296      88681140 
 6296      110015C0 
 6296      27E117E1 
 6297 e8db 88681540 		.ascii	"\210h\025@\021\000\025\300'\377\027\341\214g\361@\021"
 6297      110015C0 
 6297      27FF17E1 
 6297      8C67F140 
 6297      11
 6298 e8ec 0015C027 		.ascii	"\000\025\300'\361\027\341\214\360\374B\020g\341@\021"
 6298      F117E18C 
 6298      F0FC4210 
 6298      67E14011 
 6299 e8fc 0015C027 		.ascii	"\000\025\300'\000%\341\214\351\027\341\214\236\031G"
 6299      0025E18C 
 6299      E917E18C 
 6299      9E1947
 6300 e90b 27A41FA0 		.ascii	"'\244\037\240)g\355@\021\000\025\300'\000%\341\214\341"
 6300      2967ED40 
 6300      110015C0 
 6300      270025E1 
 6300      8CE1
 6301 e91d 17E18C9E 		.ascii	"\027\341\214\236\031E'\244\037\240)g\351@\021\000\025"
 6301      194527A4 
 6301      1FA02967 
 6301      E9401100 
 6301      15
 6302 e92e C0270025 		.ascii	"\300'\000%\341\214\321\027\341\214D >\031$\037\360\200"
 6302      E18CD117 
 6302      E18C4420 
 6302      3E19241F 
 6302      F080
ARM GAS  C:\Temp\ccVQrAGa.s 			page 335


 6303 e940 E0040406 		.ascii	"\340\004\004\006g\345@\021\000\025\300'@\025\341\220"
 6303      67E54011 
 6303      0015C027 
 6303      4015E190 
 6304 e950 C00A6EE9 		.ascii	"\300\012n\351\341\374\000\025@\023\341\027\300\023l"
 6304      E1FC0015 
 6304      4013E117 
 6304      C0136C
 6305 e95f 29E1FC00 		.ascii	")\341\374\000\025l-@\023\000\025\300\023\321\027\342"
 6305      156C2D40 
 6305      130015C0 
 6305      13D117E2 
 6306 e96f 00686540 		.ascii	"\000he@\021\000\025\300'@\021\342\000\300'hi\342\004"
 6306      110015C0 
 6306      274011E2 
 6306      00C02768 
 6306      69E204
 6307 e982 00154011 		.ascii	"\000\025@\021\361\027\300'hm\342\004\000\025@\021\341"
 6307      F117C027 
 6307      686DE204 
 6307      00154011 
 6307      E1
 6308 e993 17C02768 		.ascii	"\027\300'hq\342\004\000\025@\021\321\027\300'hu\342"
 6308      71E20400 
 6308      154011D1 
 6308      17C02768 
 6308      75E2
 6309 e9a5 04001568 		.ascii	"\004\000\025hy@\021\000\025\300'\361\027\342\010h}@"
 6309      79401100 
 6309      15C027F1 
 6309      17E20868 
 6309      7D40
 6310 e9b7 11020040 		.ascii	"\021\002\000@'\300\002d1E4\201u\354\004\004 l)B5\241"
 6310      27C00264 
 6310      31453481 
 6310      75EC0404 
 6310      206C2942 
 6311 e9cd 2BC00902 		.ascii	"+\300\011\002\000\3765@\003d1\201\265\201!\204!\004"
 6311      00FE3540 
 6311      03643181 
 6311      B5812184 
 6311      2104
 6312 e9df 344233E1 		.ascii	"4B3\3417\300\023hYB3\3054\300\023hU\345\000\004\212"
 6312      37C01368 
 6312      594233C5 
 6312      34C01368 
 6312      55E50004 
 6313 e9f4 0200FC95 		.ascii	"\002\000\374\225@\003g1\201u\211!\004 E4B5\354\004\300"
 6313      40036731 
 6313      81758921 
 6313      04204534 
 6313      4235EC04 
 6314 ea09 0A6B1DFE 		.ascii	"\012k\035\3765\241+gq\000\000\223\021@\003A$\201u\354"
 6314      35A12B67 
 6314      71000093 
 6314      11400341 
 6314      248175EC 
ARM GAS  C:\Temp\ccVQrAGa.s 			page 336


 6315 ea1d 04021060 		.ascii	"\004\002\020`=@%\241\033\300\005]\223\3765\301\303\201"
 6315      3D4025A1 
 6315      1BC0055D 
 6315      93FE35C1 
 6315      C381
 6316 ea2f 01FA0004 		.ascii	"\001\372\000\004\014\357L\002)\200\265\241+\357<\002"
 6316      0CEF4C02 
 6316      2980B5A1 
 6316      2BEF3C02 
 6317 ea3f 299625A1 		.ascii	")\226%\241+\3711\001!\201Q\007AXR\203\205LRx\014\202"
 6317      2BF93101 
 6317      21815107 
 6317      41585283 
 6317      854C5278 
 6318 ea55 C3F890FC 		.ascii	"\303\370\220\374\030\030\311\221\301X/"
 6318      1818C991 
 6318      C1582F
 6319 ea60 440A81B5 		.ascii	"D\012\201\265\302'`\234s\371D \030\300@\001D \354\004"
 6319      C227609C 
 6319      73F94420 
 6319      18C04001 
 6319      4420EC04 
 6320 ea74 A1CBD874 		.ascii	"\241\313\330t\202Q\374\265\341@\012\012\007\006\370"
 6320      8251FCB5 
 6320      E1400A0A 
 6320      0706F8
 6321 ea83 F5040A61 		.ascii	"\365\004\012a8\0144\373\374\237\370\005\236\372\200"
 6321      380C34FB 
 6321      FC9FF805 
 6321      9EFA80
 6322 ea92 04240239 		.ascii	"\004$\0029\214.\207+\357L\007F\200\365\2144\3414\257"
 6322      8C2E872B 
 6322      EF4C0746 
 6322      80F58C34 
 6322      E134AF
 6323 eaa5 3B8C3402 		.ascii	";\2144\002\031\206\365\203+\357<\003F\200\365\204\024"
 6323      1986F583 
 6323      2BEF3C03 
 6323      4680F584 
 6323      14
 6324 eab6 E134AF1B 		.ascii	"\3414\257\033\204\024\002F\204\265\014\346a\224\206"
 6324      84140246 
 6324      84B50CE6 
 6324      619486
 6325 eac5 38E0086C 		.ascii	"8\340\010l\035\000)\204f\300+\363\360F0\0066\3049\340"
 6325      1D002984 
 6325      66C02BF3 
 6325      F0463006 
 6325      36C439E0 
 6326 ead9 0802E6EF 		.ascii	"\010\002\346\357\340\177\350\202U\241\013\000V\201\205"
 6326      E07FE882 
 6326      55A10B00 
 6326      568185
 6327 eae8 8018E194 		.ascii	"\200\030\341\224\363\360B\020\200\026\302\031\214\013"
 6327      F3F04210 
 6327      8016C219 
 6327      8C0B
ARM GAS  C:\Temp\ccVQrAGa.s 			page 337


 6328 eaf6 8161F200 		.ascii	"\201a\362\000\014\014\301\303\335\223\372\000\004\014"
 6328      0C0CC1C3 
 6328      DD93FA00 
 6328      040C
 6329 eb04 0206006B 		.ascii	"\002\006\000kL8\342\200Z\230\350,\214\013o\374E\366"
 6329      4C38E280 
 6329      5A98E82C 
 6329      8C0B6FFC 
 6329      45F6
 6330 eb16 01110C0B 		.ascii	"\001\021\014\013\340\014\\8\214;\241\013\357\374cx\202"
 6330      E00C5C38 
 6330      8C3BA10B 
 6330      EFFC6378 
 6330      82
 6331 eb27 D58C0B6F 		.ascii	"\325\214\013o\374\214\033\014\013\357\374x\010\200\265"
 6331      FC8C1B0C 
 6331      0BEFFC78 
 6331      0880B5
 6332 eb36 A10B6FFC 		.ascii	"\241\013o\374d\210\201\001\214\013\362\000\014\014\301"
 6332      64888101 
 6332      8C0BF200 
 6332      0C0CC1
 6333 eb45 C3DD93FA 		.ascii	"\303\335\223\372\014\004\014\271\021\000kh,J\010\344"
 6333      0C040CB9 
 6333      11006B68 
 6333      2C4A08E4 
 6334 eb55 100E6081 		.ascii	"\020\016`\201!)\021\216;\014\013\357\374Z(\241{\200"
 6334      2129118E 
 6334      3B0C0BEF 
 6334      FC5A28A1 
 6334      7B80
 6335 eb67 7B615880 		.ascii	"{aX\200\305\214\013o\374\340\000\036\010d \020`\011"
 6335      C58C0B6F 
 6335      FCE0001E 
 6335      08642010 
 6335      6009
 6336 eb79 21851159 		.ascii	"!\205\021Y8\214\013\220;o\374\214\013\000{\357\374`"
 6336      388C0B90 
 6336      3B6FFC8C 
 6336      0B007BEF 
 6336      FC60
 6337 eb8b 681D18A1 		.ascii	"h\035\030\241{ \024\300\000\341\010\016\006\004\024"
 6337      7B2014C0 
 6337      00E1080E 
 6337      060414
 6338 eb9a 9C04D117 		.ascii	"\234\004\321\027a\300z\200\006\024\372\200\004$\241"
 6338      61C07A80 
 6338      0614FA80 
 6338      0424A1
 6339 eba9 391F2968 		.ascii	"9\037)h\000\\h\034\004\211\021\341\024\003F\204\024"
 6339      005C681C 
 6339      048911E1 
 6339      14034684 
 6339      14
 6340 ebba 8008830B 		.ascii	"\200\010\203\013\204\030\300\000\032\350\3414\001F\200"
 6340      8418C000 
 6340      1AE8E134 
ARM GAS  C:\Temp\ccVQrAGa.s 			page 338


 6340      014680
 6341 ebc9 0480041A 		.ascii	"\004\200\004\032x\251\013Z\024\200\000\341DO\006\004"
 6341      78A90B5A 
 6341      148000E1 
 6341      444F0604 
 6342 ebd9 149C04F1 		.ascii	"\024\234\004\361\027a\300z\200\006$\370|D\020x\200F"
 6342      1761C07A 
 6342      800624F8 
 6342      7C441078 
 6342      8046
 6343 ebeb 305A588B 		.ascii	"0ZX\213\021\034\004\350\000\341HB\306\204\024\200\010"
 6343      111C04E8 
 6343      00E14842 
 6343      C6841480 
 6343      08
 6344 ebfc 830B8418 		.ascii	"\203\013\204\030\300\000\030\350OFZ\024\234\004\341"
 6344      C00018E8 
 6344      4F465A14 
 6344      9C04E1
 6345 ec0b 4461A004 		.ascii	"Da\240\004\024\372\200\002\024z\200\004$\370\200F\020"
 6345      14FA8002 
 6345      147A8004 
 6345      24F88046 
 6345      10
 6346 ec1c 8B113F29 		.ascii	"\213\021?)\350\000X\310C\006\034\004\200\010\341H\204"
 6346      E80058C8 
 6346      43061C04 
 6346      8008E148 
 6346      84
 6347 ec2d 18841417 		.ascii	"\030\204\024\027X\203\013\014E\300\000\002\206`\020"
 6347      58830B0C 
 6347      45C00002 
 6347      866010
 6348 ec3c 8404E148 		.ascii	"\204\004\341H\341\340\004DD \0008\304=\373\374\341G"
 6348      E1E00444 
 6348      44200038 
 6348      C43DFBFC 
 6348      E147
 6349 ec4e 80D5FA80 		.ascii	"\200\325\372\200\004D\200e\305=\204\004\200&\003\206"
 6349      04448065 
 6349      C53D8404 
 6349      80260386 
 6350 ec5e 00088414 		.ascii	"\000\010\204\024\341H\203\013\204\030\300\000\025\250"
 6350      E148830B 
 6350      8418C000 
 6350      15A8
 6351 ec6c E0100C05 		.ascii	"\340\020\014\005\340\270@\012\002F\204\205\325\007a"
 6351      E0B8400A 
 6351      02468485 
 6351      D50761
 6352 ec7b 48860904 		.ascii	"H\206\011\004$\004\004\210\006\341H\003\306\204\024"
 6352      24040488 
 6352      06E14803 
 6352      C68414
 6353 ec8a 8008CB17 		.ascii	"\200\010\313\027\204\030\203\013\206\031\300\000\024"
 6353      8418830B 
 6353      8619C000 
ARM GAS  C:\Temp\ccVQrAGa.s 			page 339


 6353      14
 6354 ec97 48E0100C 		.ascii	"H\340\020\014\005\340\264@\012\002\006\204\205\321\007"
 6354      05E0B440 
 6354      0A020684 
 6354      85D107
 6355 eca6 61488609 		.ascii	"aH\206\011\004$\004\004\210\006\341H\003\306\204\024"
 6355      04240404 
 6355      8806E148 
 6355      03C68414 
 6356 ecb6 8008C717 		.ascii	"\200\010\307\027\204\030\203\013\206\031\300\000\022"
 6356      8418830B 
 6356      8619C000 
 6356      12
 6357 ecc3 E8E0100C 		.ascii	"\350\340\020\014\005\340\260@\012C\306\204E\216\011"
 6357      05E0B040 
 6357      0A43C684 
 6357      458E09
 6358 ecd2 61448806 		.ascii	"aD\210\006\204$\003\306\004\004\200\010\341H\204\030"
 6358      842403C6 
 6358      04048008 
 6358      E1488418 
 6359 ece2 8414830B 		.ascii	"\204\024\203\013\216\031\300\000\021\250\340\020\014"
 6359      8E19C000 
 6359      11A8E010 
 6359      0C
 6360 ecef 05E09440 		.ascii	"\005\340\224@\012B\006\204\005\307\007a\010\206\011"
 6360      0A420684 
 6360      05C70761 
 6360      088609
 6361 ecfe 04240404 		.ascii	"\004$\004\004\210\006\341\024\003\206\204\024\200\010"
 6361      8806E114 
 6361      03868414 
 6361      8008
 6362 ed0c 830B8418 		.ascii	"\203\013\204\030\300\000\020h\340\024\014\005\340\370"
 6362      C0001068 
 6362      E0140C05 
 6362      E0F8
 6363 ed1a 400A02C6 		.ascii	"@\012\002\306\204E\361\007aH\236\011\004$\004\004\210"
 6363      8445F107 
 6363      61489E09 
 6363      04240404 
 6363      88
 6364 ed2b 06E14842 		.ascii	"\006\341HB\006\204\024\200\010\203\013\204\030\300\000"
 6364      06841480 
 6364      08830B84 
 6364      18C000
 6365 ed3a 0F28E014 		.ascii	"\017(\340\024\014\005\340\364@\012\003\006\204E\351"
 6365      0C05E0F4 
 6365      400A0306 
 6365      8445E9
 6366 ed49 0761489E 		.ascii	"\007aH\236\011\004$\004\004\210\006\341HBF\204\024\200"
 6366      09042404 
 6366      048806E1 
 6366      48424684 
 6366      1480
 6367 ed5b 08830B84 		.ascii	"\010\203\013\204\030\300\000\015\350\340\024\014\005"
 6367      18C0000D 
ARM GAS  C:\Temp\ccVQrAGa.s 			page 340


 6367      E8E0140C 
 6367      05
 6368 ed68 E0F0400A 		.ascii	"\340\360@\012\003F\204E\341\007aH\236\011\004$\004\004"
 6368      03468445 
 6368      E1076148 
 6368      9E090424 
 6368      0404
 6369 ed7a 8806E148 		.ascii	"\210\006\341HB\206\204\024\200\010\203\013\204\030\300"
 6369      42868414 
 6369      8008830B 
 6369      8418C0
 6370 ed89 000CA8E0 		.ascii	"\000\014\250\340\024\014\005\340\264@\012C\206\206%"
 6370      140C05E0 
 6370      B4400A43 
 6370      868625
 6371 ed98 C9076100 		.ascii	"\311\007a\000\204\011\004$F0\2108\240?\363\364\004\004"
 6371      84090424 
 6371      46308838 
 6371      A03FF3F4 
 6371      0404
 6372 edaa 8836E114 		.ascii	"\2106\341\024\003\306\204\024\200\010\204\030\303\007"
 6372      03C68414 
 6372      80088418 
 6372      C307
 6373 edb8 C01FCD17 		.ascii	"\300\037\315\027\340\200BJ\014\005\252\305@\012\340"
 6373      E080424A 
 6373      0C05AAC5 
 6373      400AE0
 6374 edc7 148605E0 		.ascii	"\024\206\005\340\260a\000C\206\004$\311\007\2108\202"
 6374      B0610043 
 6374      860424C9 
 6374      07883882 
 6375 edd7 09F3F846 		.ascii	"\011\363\370F0\2106\240?\003\306\004\004\200\010\341"
 6375      308836A0 
 6375      3F03C604 
 6375      048008E1 
 6376 ede7 14841884 		.ascii	"\024\204\030\204\024\300\037\313\027\340\200BJ\014\005"
 6376      14C01FCB 
 6376      17E08042 
 6376      4A0C05
 6377 edf6 A485400A 		.ascii	"\244\205@\012\340\024\206%\340\254a\000CF\004$\305\007"
 6377      E0148625 
 6377      E0AC6100 
 6377      43460424 
 6377      C507
 6378 ee08 88388409 		.ascii	"\2108\204\011\363\364F0\2106\240?\003\306\004\004\200"
 6378      F3F44630 
 6378      8836A03F 
 6378      03C60404 
 6378      80
 6379 ee19 08E114C3 		.ascii	"\010\341\024\303\007\204\024\307\027\204\030BJ\300\037"
 6379      078414C7 
 6379      17841842 
 6379      4AC01F
 6380 ee28 9E25E080 		.ascii	"\236%\340\200\340\024\014\005\340\250@\012CF\206\005"
 6380      E0140C05 
 6380      E0A8400A 
ARM GAS  C:\Temp\ccVQrAGa.s 			page 341


 6380      43468605 
 6381 ee38 C5076100 		.ascii	"\305\007a\000\202\011\004$F0\2108\240?\363\370\004\004"
 6381      82090424 
 6381      46308838 
 6381      A03FF3F8 
 6381      0404
 6382 ee4a 8836E114 		.ascii	"\2106\341\024\003\306\204\024\200\010\305\027\204\030"
 6382      03C68414 
 6382      8008C517 
 6382      8418
 6383 ee58 424AC01F 		.ascii	"BJ\300\037\226\345\340\200\340\024\014\005\340\244@"
 6383      96E5E080 
 6383      E0140C05 
 6383      E0A440
 6384 ee67 0A430684 		.ascii	"\012C\006\204\305\204\011a\000\2108\204$\363\364F0\210"
 6384      C5840961 
 6384      00883884 
 6384      24F3F446 
 6384      3088
 6385 ee79 36A03F03 		.ascii	"6\240?\003\306\004\004\200\010\341\024\204\030\204\024"
 6385      C6040480 
 6385      08E11484 
 6385      188414
 6386 ee88 424AC01F 		.ascii	"BJ\300\037\220\345\340\204\340\024\014\005\340\240@"
 6386      90E5E084 
 6386      E0140C05 
 6386      E0A040
 6387 ee97 0A430684 		.ascii	"\012C\006\204\205\202\011a\000\2108\204$\363\370F0\210"
 6387      85820961 
 6387      00883884 
 6387      24F3F846 
 6387      3088
 6388 eea9 36A03F03 		.ascii	"6\240?\003\306\004\004\200\010\341\024\204\030\204\024"
 6388      C6040480 
 6388      08E11484 
 6388      188414
 6389 eeb8 420AC01F 		.ascii	"B\012\300\037\212\365\340\200\340\030\014\005\340\364"
 6389      8AF5E080 
 6389      E0180C05 
 6389      E0F4
 6390 eec6 400A0246 		.ascii	"@\012\002F\206\005\353\007a\004\2071\004\024x\214F\002"
 6390      8605EB07 
 6390      61048731 
 6390      0414788C 
 6390      4602
 6391 eed8 84288609 		.ascii	"\204(\206\011\363\360D \004&\246/\341\024B\006\204\030"
 6391      F3F04420 
 6391      0426A62F 
 6391      E1144206 
 6391      8418
 6392 eeea 84148619 		.ascii	"\204\024\206\031\313\027\204\265\201\033\340\030\014"
 6392      CB1784B5 
 6392      811BE018 
 6392      0C
 6393 eef7 05E0071A 		.ascii	"\005\340\007\032\024p\001@\000\201qC\000a\300\004\024"
 6393      14700140 
 6393      00817143 
ARM GAS  C:\Temp\ccVQrAGa.s 			page 342


 6393      0061C004 
 6393      14
 6394 ef08 FB800214 		.ascii	"\373\200\002\024n\011L%\242\017@\011n\015L\005\201\265"
 6394      6E094C25 
 6394      A20F4009 
 6394      6E0D4C05 
 6394      81B5
 6395 ef1a C0096C1D 		.ascii	"\300\011l\035\014)Nf@+Bf\340\014\214\013`\014\357\340"
 6395      0C294E66 
 6395      402B4266 
 6395      E00C8C0B 
 6395      600CEFE0 
 6396 ef2e 5D680C0C 		.ascii	"]h\014\014\216\013\335\223\362\014i\204\010$\351\204"
 6396      8E0BDD93 
 6396      F20C6984 
 6396      0824E984 
 6397 ef3e 0A341844 		.ascii	"\0124\030D\000H\270_\340\204\004%\247[\351\204\002D"
 6397      0048B85F 
 6397      E0840425 
 6397      A75BE984 
 6397      0244
 6398 ef50 8625A35B 		.ascii	"\206%\243[\206\245\245[\\\010\241[\304M\332\000\241"
 6398      86A5A55B 
 6398      5C08A15B 
 6398      C44DDA00 
 6398      A1
 6399 ef61 1B8065A1 		.ascii	"\033\200e\241\033\204\205\201\205\2065\202\345\241\033"
 6399      1B848581 
 6399      85863582 
 6399      E5A11B
 6400 ef70 5C08A31B 		.ascii	"\\\010\243\033\304M\332\000\307M\202U\232\000\\\010"
 6400      C44DDA00 
 6400      C74D8255 
 6400      9A005C08 
 6401 ef80 DD938036 		.ascii	"\335\223\2006\202\005\304M\200\325\241\033\335\223\200"
 6401      8205C44D 
 6401      80D5A11B 
 6401      DD9380
 6402 ef8f 26801681 		.ascii	"&\200\026\201\021\307M\335\223\243\033\200e\335\223"
 6402      11C74DDD 
 6402      93A31B80 
 6402      65DD93
 6403 ef9e FC45FA1C 		.ascii	"\374E\372\034\004L\230k\000\213\357\370u\310g\301\016"
 6403      044C986B 
 6403      008BEFF8 
 6403      75C867C1 
 6403      0E
 6404 efaf 80434640 		.ascii	"\200CF@\256\001!\340\014wX\220\013\216;o\370\241\013"
 6404      AE0121E0 
 6404      0C775890 
 6404      0B8E3B6F 
 6404      F8A10B
 6405 efc2 81911C14 		.ascii	"\201\221\034\024\2025\177\375E\376CJ\300?\022\014\344"
 6405      82357FFD 
 6405      45FE434A 
 6405      C03F120C 
 6405      E4
ARM GAS  C:\Temp\ccVQrAGa.s 			page 343


 6406 efd3 08980EE2 		.ascii	"\010\230\016\342\000\014L\232\236\335\223\362\034\372"
 6406      000C4C9A 
 6406      9EDD93F2 
 6406      1CFA
 6407 efe1 84040C61 		.ascii	"\204\004\014a\230O\006\034n\200k\341\000\002\006\350"
 6407      984F061C 
 6407      6E806BE1 
 6407      000206E8 
 6408 eff1 2865088C 		.ascii	"(e\010\214\013\034\024\350\000@\210\214\013\034\024"
 6408      0B1C14E8 
 6408      0040888C 
 6408      0B1C14
 6409 f000 F2840C0C 		.ascii	"\362\204\014\014\301\303\207e\372\204\004\014\200{\002"
 6409      C1C38765 
 6409      FA84040C 
 6409      807B02
 6410 f00f 6B600840 		.ascii	"k`\010@&eP\002pN\001\300\211@+l\035d\021\000`\011!\300"
 6410      26655002 
 6410      704E01C0 
 6410      89402B6C 
 6410      1D641100 
 6411 f027 116A9881 		.ascii	"\021j\230\2011\000`\350\030@\021d!e\001\002p)!\300\211"
 6411      310060E8 
 6411      18401164 
 6411      21650102 
 6411      702921C0 
 6412 f03c 69F88131 		.ascii	"i\370\2011\000`\350\030@\021dqea\002p!!\300\211iX\201"
 6412      0060E818 
 6412      40116471 
 6412      65610270 
 6412      2121C089 
 6413 f053 310060E8 		.ascii	"1\000`\350\030@\021d\261e\241\002pE\006\300\211\211"
 6413      18401164 
 6413      B165A102 
 6413      704506C0 
 6413      8989
 6414 f065 316018F2 		.ascii	"1`\030\362\204\014\014\340\030(\210\372|\004\014\354"
 6414      840C0CE0 
 6414      182888FA 
 6414      7C040CEC 
 6415 f075 F01EF082 		.ascii	"\360\036\360\202\273\000kn\005\014\011\243\013\3006"
 6415      BB006B6E 
 6415      050C09A3 
 6415      0BC036
 6416 f084 16099675 		.ascii	"\026\011\226u\300\004d\241\343\374\000\012\014\011\224"
 6416      C00464A1 
 6416      E3FC000A 
 6416      0C0994
 6417 f093 A5403863 		.ascii	"\245@8c!\341\234N\012\000\032\201\201\0138\340\000\300"
 6417      21E19C4E 
 6417      0A001A81 
 6417      810B38E0 
 6417      00C0
 6418 f0a5 00200160 		.ascii	"\000 \001`\014\000VL\001\226{@+l\035f\261\022`\024`"
 6418      0C00564C 
 6418      01967B40 
 6418      2B6C1D66 
ARM GAS  C:\Temp\ccVQrAGa.s 			page 344


 6418      B1126014 
 6419 f0ba C0BF40C0 		.ascii	"\300\277@\300e!d\021\000\260\002\260\300\021@\024da"
 6419      65216411 
 6419      00B002B0 
 6419      C0114014 
 6419      6461
 6420 f0cc 66211660 		.ascii	"f!\026`\004`\300\256@\256e\241e\341\030p\011\276\300"
 6420      0460C0AE 
 6420      40AE65A1 
 6420      65E11870 
 6420      09BEC0
 6421 f0df 1F64C106 		.ascii	"\037d\301\006`~\316\300\255e!\010`|.\300\255eA\012`"
 6421      607ECEC0 
 6421      AD652108 
 6421      607C2EC0 
 6421      AD65410A 
 6422 f0f4 3E1EC054 		.ascii	">\036\300T<\016\224\033U8\222\013\216+o\304c!\014\011"
 6422      3C0E941B 
 6422      5538920B 
 6422      8E2B6FC4 
 6422      63210C09 
 6423 f108 4E0A4038 		.ascii	"N\012@8\000\032\341\234\007\270\340\000\300\000 \001"
 6423      001AE19C 
 6423      07B8E000 
 6423      C0002001 
 6424 f118 600C0066 		.ascii	"`\014\000fe`\006`L\001\300\330@+l\035\024\033\222\013"
 6424      65600660 
 6424      4C01C0D8 
 6424      402B6C1D 
 6424      141B920B 
 6425 f12c 4D988E2B 		.ascii	"M\230\216+\226Ko\300N\012\015\245@F\341\234CF`\010L"
 6425      964B6FC0 
 6425      4E0A0DA5 
 6425      4046E19C 
 6425      43466008 
 6426 f141 01E14C40 		.ascii	"\001\341L@+l\035d\021\004\260\030`\300\021@\256e\241"
 6426      2B6C1D64 
 6426      1104B018 
 6426      60C01140 
 6426      AE65A1
 6427 f154 640110B0 		.ascii	"d\001\020\260\016`\300\020@\237gaf\021\010`\024\260"
 6427      0E60C010 
 6427      409F6761 
 6427      66110860 
 6427      14B0
 6428 f166 C0AD4013 		.ascii	"\300\255@\023e\261g\221\022\260\027\276\300\020f!\026"
 6428      65B16791 
 6428      12B017BE 
 6428      C0106621 
 6428      16
 6429 f177 600404C0 		.ascii	"`\004\004\300\256f\321\002`\017\276\300TdQ\006`\031"
 6429      AE66D102 
 6429      600FBEC0 
 6429      54645106 
 6429      6019
 6430 f189 BEC09E0D 		.ascii	"\276\300\236\015\236\216\273fq\012`\213\216\300\242"
 6430      9E8EBB66 
ARM GAS  C:\Temp\ccVQrAGa.s 			page 345


 6430      710A608B 
 6430      8EC0A2
 6431 f198 FECE89AE 		.ascii	"\376\316\211\256\030`\023\316\300\243d\241\010`|N\300"
 6431      186013CE 
 6431      C0A364A1 
 6431      08607C4E 
 6431      C0
 6432 f1a9 6C670196 		.ascii	"lg\001\226K>N\274\316\233\216\235.\225\036\357\270I"
 6432      4B3E4EBC 
 6432      CE9B8E9D 
 6432      2E951EEF 
 6432      B849
 6433 f1bb 88A18B80 		.ascii	"\210\241\213\200\213@V\210u\012``\010\300\241dpl\035"
 6433      8B405688 
 6433      750A6060 
 6433      08C0A164 
 6433      706C1D
 6434 f1ce 4C014146 		.ascii	"L\001AF@+\0274\341L\231$\226K\0020\200\004@\024dae\341"
 6434      402B1734 
 6434      E14C9924 
 6434      964B0230 
 6434      80044014 
 6435 f1e6 0E30892E 		.ascii	"\0160\211.\300\037\374\036\376~\233$\235\024\206\033"
 6435      C01FFC1E 
 6435      FE7E9B24 
 6435      9D14861B 
 6436 f1f6 3E1E923B 		.ascii	">\036\222;<\256\357\264N\350\241\213\200\213\241\213"
 6436      3CAEEFB4 
 6436      4EE8A18B 
 6436      808BA18B 
 6437 f206 8A456E89 		.ascii	"\212En\211\014\005\020V@\012\014\025\300\014\300\012"
 6437      0C051056 
 6437      400A0C15 
 6437      C00CC00A 
 6438 f216 6E8D6E91 		.ascii	"n\215n\221\014%\0145\300\012\300\012n\225i=L\003@`@"
 6438      0C250C35 
 6438      C00AC00A 
 6438      6E95693D 
 6438      4C034060 
 6439 f22b 0A4C13DC 		.ascii	"\012L\023\334\000"
 6439      00
 6440 f230 400A6941 		.ascii	"@\012iA\300\014\002ViEL#L3\300\012\300\012iI\014\035"
 6440      C00C0256 
 6440      69454C23 
 6440      4C33C00A 
 6440      C00A6949 
 6441 f246 0C294478 		.ascii	"\014)Dx\300+\020\013\317\340\014\014\370\361\335\223"
 6441      C02B100B 
 6441      CFE00C0C 
 6441      F8F1DD93 
 6442 f256 F27C6008 		.ascii	"\362|`\010Bf\341LAFl\035L\021\002`@+\300\266g\001\012"
 6442      4266E14C 
 6442      41466C1D 
 6442      4C110260 
 6442      402BC0B6 
 6443 f26d 601924C0 		.ascii	"`\031$\300\243f\341\2334\200\004\216+|.\225\024\276"
 6443      A366E19B 
ARM GAS  C:\Temp\ccVQrAGa.s 			page 346


 6443      3480048E 
 6443      2B7C2E95 
 6443      14BE
 6444 f27f 1EBC1E93 		.ascii	"\036\274\036\223DiX\235\024\027\264\357\264\241\213"
 6444      4469589D 
 6444      1417B4EF 
 6444      B4A18B
 6445 f28e 808B9FFC 		.ascii	"\200\213\237\3740\030N\012w\245\301\303\351\234\372"
 6445      30184E0A 
 6445      77A5C1C3 
 6445      E99CFA
 6446 f29d 7C044C41 		.ascii	"|\004LA\006\000\213\000\216\341\230\341\000\002\006"
 6446      06008B00 
 6446      8EE198E1 
 6446      000206
 6447 f2ac 68284F28 		.ascii	"h(O(\001\221\220\013\346\324T\006\203a\027\261\201q"
 6447      0191900B 
 6447      E6D45406 
 6447      836117B1 
 6447      8171
 6448 f2be 09C56E19 		.ascii	"\011\305n\031\020\033\000d@\025\200\037\350\244\220"
 6448      101B0064 
 6448      4015801F 
 6448      E8A490
 6449 f2cd 05A11BE1 		.ascii	"\005\241\033\3414C\206\204(\204\024\200\245\241+\200"
 6449      34438684 
 6449      28841480 
 6449      A5A12B80 
 6450 f2dd 1F84188C 		.ascii	"\037\204\030\214\305\241\033\360\244L\202h\201\014\011"
 6450      C5A11BF0 
 6450      A44C8268 
 6450      810C09
 6451 f2ec 000AC01B 		.ascii	"\000\012\300\033A\006c\374\200\024\341\230\004\224\200"
 6451      410663FC 
 6451      8014E198 
 6451      049480
 6452 f2fb E5900B7A 		.ascii	"\345\220\013z\200\350\000C(h\030\201E\220\013o\374h"
 6452      80E80043 
 6452      28681881 
 6452      45900B6F 
 6452      FC68
 6453 f30d 810C0906 		.ascii	"\201\014\011\006\006@\033\014\024\3418\354\004\004\260"
 6453      06401B0C 
 6453      14E138EC 
 6453      0404B0
 6454 f31c 000A8361 		.ascii	"\000\012\203a\020\005\343\374\020\011\334(\000'\007"
 6454      1005E3FC 
 6454      1009DC28 
 6454      002707
 6455 f32b E55005A1 		.ascii	"\345P\005\241{\300\012ni\202U\204,\341\230A\006\220"
 6455      7BC00A6E 
 6455      69825584 
 6455      2CE19841 
 6455      0690
 6456 f33d 0B0014EF 		.ascii	"\013\000\024\357\374i\210a8\006\006\214\004\200{\002"
 6456      FC698861 
 6456      3806068C 
ARM GAS  C:\Temp\ccVQrAGa.s 			page 347


 6456      04807B02 
 6457 f34d 9180BC84 		.ascii	"\221\200\274\204\261\210\241\340@\022\012\216\013\354"
 6457      B188A1E0 
 6457      40120A8E 
 6457      0BEC
 6458 f35b 95F27C0C 		.ascii	"\225\362|\014L\301\303\335\223\372\014\004\014\200\213"
 6458      4CC1C3DD 
 6458      93FA0C04 
 6458      0C808B
 6459 f36a 027B6008 		.ascii	"\002{`\010@6P\001\204k@+l\035d\021\000p\002\200\300"
 6459      40365001 
 6459      846B402B 
 6459      6C1D6411 
 6459      00700280 
 6460 f37f 11406D65 		.ascii	"\021@meqO\270\211!\2011h\030d!\000p\002\200@\021\300"
 6460      714FB889 
 6460      21813168 
 6460      18642100 
 6460      70028040 
 6461 f395 6D652181 		.ascii	"me!\2011)!\350\030O\010`\210\000de\200\002\200\002%"
 6461      312921E8 
 6461      184F0860 
 6461      88006465 
 6461      80028002 
 6462 f3aa C06D8203 		.ascii	"\300m\202\003|\000\2111\014\023a\035N%\000%\300\001"
 6462      7C008931 
 6462      0C13611D 
 6462      4E250025 
 6462      C001
 6463 f3bc 4E25E040 		.ascii	"N%\340@@\001a!\340\030E\006\340\200\000\005a%N\005\002"
 6463      40016121 
 6463      E0184506 
 6463      E0800005 
 6463      61254E05 
 6464 f3d1 09C0014E 		.ascii	"\011\300\001N\001\343\000\300\004d\241c@\002\011\340"
 6464      01E300C0 
 6464      0464A163 
 6464      400209E0 
 6465 f3e1 184306E6 		.ascii	"\030C\006\346\206Bjd\245N\001\202\203@\004d\261\000"
 6465      86426A64 
 6465      A54E0182 
 6465      83400464 
 6465      B100
 6466 f3f3 70028040 		.ascii	"p\002\200@\021\300ne\001\362\014\014\014\340\030\013"
 6466      11C06E65 
 6466      01F20C0C 
 6466      0CE0180B 
 6467 f403 E8FA3C04 		.ascii	"\350\372<\004\014\025\306\000k\020`\341\240@Tf\321e"
 6467      0C15C600 
 6467      6B1060E1 
 6467      A0405466 
 6467      D165
 6468 f415 41126028 		.ascii	"A\022`(n\300Tga\016`\020\013\300\256\014+\222\033j8"
 6468      6EC05467 
 6468      610E6010 
 6468      0BC0AE0C 
 6468      2B921B6A 
ARM GAS  C:\Temp\ccVQrAGa.s 			page 348


 6469 f42a 8E3BA10B 		.ascii	"\216;\241\013\357\314($\204U\022\033\220\013l\030\216"
 6469      EFCC2824 
 6469      8455121B 
 6469      900B6C18 
 6469      8E
 6470 f43b 3BA10BEF 		.ascii	";\241\013\357\314\000\000\024%\234\000@\200\034\000"
 6470      CC000014 
 6470      259C0040 
 6470      801C00
 6471 f44a 42909C00 		.ascii	"B\220\234\000Fp\217\314h\350n\211\014\025\241\013@\012"
 6471      46708FCC 
 6471      68E86E89 
 6471      0C15A10B 
 6471      400A
 6472 f45c 6E8D0C25 		.ascii	"n\215\014%\016\006@\012\0145\200\000\300\012n\221n\225"
 6472      0E06400A 
 6472      0C358000 
 6472      C00A6E91 
 6472      6E95
 6473 f46e 0C454C13 		.ascii	"\014EL\023\300\012\300\012i=iAL#L3\300\012\300\012i"
 6473      C00AC00A 
 6473      693D6941 
 6473      4C234C33 
 6473      C00AC00A 
 6474 f483 4569494C 		.ascii	"EiILC\202e\300\012l\035\014)\016V@+\002V\340\014\214"
 6474      438265C0 
 6474      0A6C1D0C 
 6474      290E5640 
 6474      2B0256E0 
 6475 f499 0B600CEF 		.ascii	"\013`\014\357\334q\350\014\014\216\013\335\223\362<"
 6475      DC71E80C 
 6475      0C8E0BDD 
 6475      93F23C
 6476 f4a8 F87C040C 		.ascii	"\370|\004\014\354`\036\360aA\000\031\025\306@\025\000"
 6476      EC601EF0 
 6476      61410019 
 6476      15C64015 
 6476      00
 6477 f4b9 29E01040 		.ascii	")\340\020@\025aEB*\201\261\000)\346\206\300\025b\021"
 6477      15614542 
 6477      2A81B100 
 6477      29E686C0 
 6477      156211
 6478 f4cc FA800214 		.ascii	"\372\200\002\024\004\000\013.\300ffI\004\000~.\300X"
 6478      04000B2E 
 6478      C0666649 
 6478      04007E2E 
 6478      C058
 6479 f4de 66510400 		.ascii	"fQ\004\000|.\300kfE\227\305\276.\360\214D\002oA\004"
 6479      7C2EC06B 
 6479      664597C5 
 6479      BE2EF08C 
 6479      44026F41 
 6480 f4f3 79E57DC0 		.ascii	"y\345}\300\025\213$\202\325\346\212H:\360\220D\002n"
 6480      158B2482 
 6480      D5E68A48 
 6480      3AF09044 
ARM GAS  C:\Temp\ccVQrAGa.s 			page 349


 6480      026E
 6481 f505 410429F0 		.ascii	"A\004)\360-\300\032TJ\200\325\200u\344\210\202\261\025"
 6481      2DC01A54 
 6481      4A80D580 
 6481      75E48882 
 6481      B115
 6482 f517 75699100 		.ascii	"ui\221\000)\245+\300+@\210\004D\300\000\012\026\320"
 6482      29A52BC0 
 6482      2B408804 
 6482      44C0000A 
 6482      16D0
 6483 f529 80442208 		.ascii	"\200D\"\010\221\004\225\206\265\300\005`\204\004D\200"
 6483      91049586 
 6483      B5C00560 
 6483      84044480 
 6484 f539 2383516D 		.ascii	"#\203Qm!\004c\004T\300\014\317-\372\200\200\210\010"
 6484      21046304 
 6484      54C00CCF 
 6484      2DFA8080 
 6484      8808
 6485 f54b 44908048 		.ascii	"D\220\200HB\010\221\010\225\210\005\200\005\202Q\010"
 6485      42089108 
 6485      95880580 
 6485      05825108 
 6486 f55b 238023C2 		.ascii	"#\200#\302'm!\004#\215-\300\014\373U\372\245\372\200"
 6486      276D2104 
 6486      238D2DC0 
 6486      0CFB55FA 
 6486      A5FA80
 6487 f56e 04540844 		.ascii	"\004T\010D\317-HB\200\204\010k\220\200\200\014\015!"
 6487      CF2D4842 
 6487      8084086B 
 6487      9080800C 
 6487      0D21
 6488 f580 08238265 		.ascii	"\010#\202e\304'\202Q\004%\200#\300\005h\221\372\245"
 6488      C4278251 
 6488      04258023 
 6488      C0056891 
 6488      FAA5
 6489 f592 D22D0B24 		.ascii	"\322-\013$\371\005\374\304\325\227J*\211\236\376$\346"
 6489      F905FCC4 
 6489      D5974A2A 
 6489      899EFE24 
 6489      E6
 6490 f5a3 8E608406 		.ascii	"\216`\204\006T\340\210\010T\230C>\304\004d\0043\373"
 6490      54E08808 
 6490      5498433E 
 6490      C4046404 
 6490      33FB
 6491 f5b5 27FB0098 		.ascii	"'\373\000\230S\006)\020d\204c\203a{\000\205\207\011"
 6491      53062910 
 6491      64846383 
 6491      617B0085 
 6491      8709
 6492 f5c7 C5F02D94 		.ascii	"\305\360-\224(TJ\200\225\220%\344\210\030$\214\"\206"
 6492      28544A80 
 6492      959025E4 
ARM GAS  C:\Temp\ccVQrAGa.s 			page 350


 6492      8818248C 
 6492      2286
 6493 f5d9 C9E1F404 		.ascii	"\311\341\364\004$\230#\205'\373\000X\"\020$\022\300"
 6493      24982385 
 6493      27FB0058 
 6493      22102412 
 6493      C0
 6494 f5ea F1A0130A 		.ascii	"\361\240\023\012\355\260\300\004du\325'\002\345m@\030"
 6494      EDB0C004 
 6494      6475D527 
 6494      02E56D40 
 6494      18
 6495 f5fb C0E00452 		.ascii	"\300\340\004RF`\246X\312\211\224\202!\354\010\030\300"
 6495      4660A658 
 6495      CA899482 
 6495      21EC0818 
 6495      C0
 6496 f60c E00A449A 		.ascii	"\340\012D\232\011\224\203\325\031\012\202!\300\002`"
 6496      099483D5 
 6496      190A8221 
 6496      C00260
 6497 f61b 45600A44 		.ascii	"E`\012D\232\300\000\023\346@&X\312\300\004\023\006X"
 6497      9AC00013 
 6497      E6402658 
 6497      CAC00413 
 6497      0658
 6498 f62d 9202F59F 		.ascii	"\222\002\365\237\221\321\260f\246X\312\340\004RFn\301"
 6498      91D1B066 
 6498      A658CAE0 
 6498      0452466E 
 6498      C1
 6499 f63e 18C058CA 		.ascii	"\030\300X\312\300\004\030\300\340\246\330-\354\024\300"
 6499      C00418C0 
 6499      E0A6D82D 
 6499      EC14C0
 6500 f64d 0004D6C0 		.ascii	"\000\004\326\300\000J!\2041\002a\202Q\010A\354\265\317"
 6500      004A2184 
 6500      31026182 
 6500      510841EC 
 6500      B5CF
 6501 f65f 6D06B4EB 		.ascii	"m\006\264\353\245\303=\372\200\001\001\320U\014\014"
 6501      A5C33DFA 
 6501      800101D0 
 6501      550C0C
 6502 f66e B0F1DD93 		.ascii	"\260\361\335\223\360|\370\034\004\014c\025\000\031\245"
 6502      F07CF81C 
 6502      040C6315 
 6502      0019A5
 6503 f67d 1BC03800 		.ascii	"\033\3008\000\031\224\025\3008d\321\222u\241\033aA\000"
 6503      199415C0 
 6503      3864D192 
 6503      75A11B61 
 6503      4100
 6504 f68f 19813140 		.ascii	"\031\2011@\025aE\000)\211A@\025\346\206D*b\021\000\031"
 6504      15614500 
 6504      29894140 
 6504      15E68644 
ARM GAS  C:\Temp\ccVQrAGa.s 			page 351


 6504      2A621100 
 6505 f6a4 0795C015 		.ascii	"\007\225\300\025\372\200\004$p\260J\002\346\206X\312"
 6505      FA800424 
 6505      70B04A02 
 6505      E68658CA 
 6506 f6b4 67410A50 		.ascii	"gA\012P\201a@W\230\203\205\205\360\240N\002nA\016\231"
 6506      81614057 
 6506      98838585 
 6506      F0A04E02 
 6506      6E410E99 
 6507 f6c8 AB9BC01A 		.ascii	"\253\233\300\032\302\207\206\365\020\203\200\203\300"
 6507      C28786F5 
 6507      10838083 
 6507      C0
 6508 f6d5 0C6D21E1 		.ascii	"\014m!\341\364\022\204\000\223\206\231@\034bm\020\204"
 6508      F4128400 
 6508      93869940 
 6508      1C626D10 
 6508      84
 6509 f6e6 92838587 		.ascii	"\222\203\205\207\373\000\202\325\222\215jA\016\211\000"
 6509      FB0082D5 
 6509      928D6A41 
 6509      0E8900
 6510 f6f5 99C01AC0 		.ascii	"\231\300\032\3008d\325\322\215\303\207\006A\016pNA\200"
 6510      3864D5D2 
 6510      8DC38706 
 6510      410E704E 
 6510      4180
 6511 f707 6B826180 		.ascii	"k\202a\200\000\020d\024x\317\215\372\200\2021\364\265"
 6511      00106414 
 6511      78CF8DFA 
 6511      808231F4 
 6511      B5
 6512 f718 FA801834 		.ascii	"\372\200\0304\360\365\305\315\014\014\201\001\335\223"
 6512      F0F5C5CD 
 6512      0C0C8101 
 6512      DD93
 6513 f726 F01CF804 		.ascii	"\360\034\370\004\004\014aA\000\031\3731@\025aE\000)"
 6513      040C6141 
 6513      0019FB31 
 6513      40156145 
 6513      0029
 6514 f738 81414015 		.ascii	"\201A@\025\346\206B*b\021\000)\011\365\300\025\372\200"
 6514      E686422A 
 6514      62110029 
 6514      09F5C015 
 6514      FA80
 6515 f74a 0214668A 		.ascii	"\002\024f\212Jzf@\014\000Xb\300X\030\311\360\224\300"
 6515      4A7A6640 
 6515      0C005862 
 6515      C05818C9 
 6515      F094C0
 6516 f75d 046C0118 		.ascii	"\004l\001\030\006+\313\206u\340\200\016y\200s\300\025"
 6516      062BCB86 
 6516      75E0800E 
 6516      798073C0 
 6516      15
ARM GAS  C:\Temp\ccVQrAGa.s 			page 352


 6517 f76e 6F4184A5 		.ascii	"oA\204\245\241{\340\204\030T\201\301\030cl\001\014c"
 6517      A17BE084 
 6517      185481C1 
 6517      18636C01 
 6517      0C63
 6518 f780 876DC001 		.ascii	"\207m\300\001\014\304\200\305\214\303\341\374\203\307"
 6518      0CC480C5 
 6518      8CC3E1FC 
 6518      83C7
 6519 f78e 01F5600D 		.ascii	"\001\365`\015\015\012Y\366@ \202\305\340|\341|\014\304"
 6519      0D0A59F6 
 6519      402082C5 
 6519      E07CE17C 
 6519      0CC4
 6520 f7a0 8CC3F967 		.ascii	"\214\303\371g\030\300\211\307\000S\345\310J\301\202"
 6520      18C089C7 
 6520      0053E5C8 
 6520      4AC182
 6521 f7af 41C01A62 		.ascii	"A\300\032bA\030d\203\205\015\012a\364\300\003`|\214"
 6521      41186483 
 6521      850D0A61 
 6521      F4C00360 
 6521      7C8C
 6522 f7c1 C386C9FB 		.ascii	"\303\206\311\373\000\030\304\205\307v\345a}\015\012"
 6522      0018C485 
 6522      C776E561 
 6522      7D0D0A
 6523 f7d0 F8B5C009 		.ascii	"\370\265\300\011\341|\014\304\214\303\373g}e\207\307"
 6523      E17C0CC4 
 6523      8CC3FB67 
 6523      7D6587C7 
 6524 f7e0 E53018C0 		.ascii	"\3450\030\300\372\200\016D\3545\303}\014\014\201\001"
 6524      FA800E44 
 6524      EC35C37D 
 6524      0C0C8101 
 6525 f7f0 DD93F004 		.ascii	"\335\223\360\004\372\234\004\014Q\006\000k n\341\230"
 6525      FA9C040C 
 6525      5106006B 
 6525      206EE198 
 6526 f800 67011260 		.ascii	"g\001\022`\003\025\300\224\014\013\201q\300\026f5`\200"
 6526      0315C094 
 6526      0C0B8171 
 6526      C0166635 
 6526      6080
 6527 f812 404AE010 		.ascii	"@J\340\020\000\006\\\000@`\334\000Bp\317\334B\250\202"
 6527      00065C00 
 6527      4060DC00 
 6527      4270CFDC 
 6527      42A882
 6528 f825 71650EE2 		.ascii	"qe\016\3420\016\012 \024\372\365\014\014\214\013\201"
 6528      300E0A20 
 6528      14FAF50C 
 6528      0C8C0B81 
 6529 f835 15F29CFA 		.ascii	"\025\362\234\372\004\004\014\3540\036\360\000\006\000"
 6529      04040CEC 
 6529      301EF000 
 6529      0600
ARM GAS  C:\Temp\ccVQrAGa.s 			page 353


 6530 f843 6B4C01E0 		.ascii	"kL\001\340\014@+l\035\341LAFd\201\016`\030`@\231\300"
 6530      0C402B6C 
 6530      1DE14C41 
 6530      4664810E 
 6530      60186040 
 6531 f859 8B646104 		.ascii	"\213da\004`>~\300\256f\241\006`\000\004\300\237gae!"
 6531      603E7EC0 
 6531      AE66A106 
 6531      600004C0 
 6531      9F676165 
 6532 f86e 08600A60 		.ascii	"\010`\012`@\242\300\243f\341b\030\274\316\241\013\357"
 6532      40A2C0A3 
 6532      66E16218 
 6532      BCCEA10B 
 6532      EF
 6533 f87f C80E0602 		.ascii	"\310\016\006\002\245\014)\200\000@+l\035\340\014\016"
 6533      A50C2980 
 6533      00402B6C 
 6533      1DE00C0E 
 6534 f88f 56600C02 		.ascii	"V`\014\002VR\030\214\013\016\013\357\334\014\014\230"
 6534      5652188C 
 6534      0B0E0BEF 
 6534      DC0C0C98 
 6535 f89f F1DD93F2 		.ascii	"\361\335\223\362\004\341\004\000\006\200\010\200\004"
 6535      04E10400 
 6535      06800880 
 6535      04
 6536 f8ac 82095D93 		.ascii	"\202\011]\223\372|\004\014\3540\036\360\201\001\000"
 6536      FA7C040C 
 6536      EC301EF0 
 6536      810100
 6537 f8bb 8B6FF059 		.ascii	"\213o\360Y(\201q\201\021`\004G\306\020\005\200k@\011"
 6537      28817181 
 6537      11600447 
 6537      C6100580 
 6537      6B4009
 6538 f8ce 6E0D6561 		.ascii	"n\015ea\004\200\020\025\300\255\300\012mIl\035P1\\X"
 6538      04801015 
 6538      C0ADC00A 
 6538      6D496C1D 
 6538      50315C58 
 6539 f8e2 C02B809B 		.ascii	"\300+\200\233\357\304\202\305\241\233l\035\020)\220"
 6539      EFC482C5 
 6539      A19B6C1D 
 6539      102990
 6540 f8f1 0B402B6F 		.ascii	"\013@+o\334O(\003\021\222\033W\030\214\013\025u\357"
 6540      DC4F2803 
 6540      11921B57 
 6540      188C0B15 
 6540      75EF
 6541 f903 F07C6E92 		.ascii	"\360|n\222{\341\004\001FmY\020\025\200\004\300\012\020"
 6541      7BE10401 
 6541      466D5910 
 6541      158004C0 
 6541      0A10
 6542 f915 05801EC0 		.ascii	"\005\200\036\300\012mYn\015\020\025[\370\300\011\000"
 6542      0A6D596E 
ARM GAS  C:\Temp\ccVQrAGa.s 			page 354


 6542      0D10155B 
 6542      F8C00900 
 6543 f925 00EFC4C0 		.ascii	"\000\357\304\300\200d\001\341\300\022\004o\314d\210"
 6543      806401E1 
 6543      C012046F 
 6543      CC6488
 6544 f934 100B920B 		.ascii	"\020\013\222\013k\330\222\033\020\013\357\314e\330\222"
 6544      6BD8921B 
 6544      100BEFCC 
 6544      65D892
 6545 f943 1B100BEF 		.ascii	"\033\020\013\357\314h\230\222\033\001F\357\314\002\206"
 6545      CC689892 
 6545      1B0146EF 
 6545      CC0286
 6546 f952 61188004 		.ascii	"a\030\200\004\341\030\204$\200\010\004\004\210\006\341"
 6546      E1188424 
 6546      80080404 
 6546      8806E1
 6547 f961 04038610 		.ascii	"\004\003\206\020+\200\010\300\026g9P\001\204\024@+e"
 6547      2B8008C0 
 6547      16673950 
 6547      01841440 
 6547      2B65
 6548 f973 7DE10401 		.ascii	"}\341\004\001\306\203!\004,g=\020\033\200\004\300\026"
 6548      C6832104 
 6548      2C673D10 
 6548      1B8004C0 
 6548      16
 6549 f984 41C6001C 		.ascii	"A\306\000\034\200\004\341\000\302\031\200\030\000F\000"
 6549      8004E100 
 6549      C2198018 
 6549      004600
 6550 f993 168004E1 		.ascii	"\026\200\004\341\004\320\031\200\030\220\013\000\026"
 6550      04D01980 
 6550      18900B00 
 6550      16
 6551 f9a0 60CD1015 		.ascii	"`\315\020\025c\370\300\016\020\011\350 @8c\025\341\004"
 6551      63F8C00E 
 6551      1009E820 
 6551      40386315 
 6551      E104
 6552 f9b2 1406A50B 		.ascii	"\024\006\245\013\203!\016\221\020\031A\006@,\000\005"
 6552      83210E91 
 6552      10194106 
 6552      402C0005 
 6553 f9c2 C1104011 		.ascii	"\301\020@\021\300\000\211\021@\000\000\026\250\004\020"
 6553      C0008911 
 6553      40000016 
 6553      A80410
 6554 f9d1 15900BC0 		.ascii	"\025\220\013\300\016`\321\350 bh\217a(\004\000f\203"
 6554      0E60D1E8 
 6554      2062688F 
 6554      61280400 
 6554      6683
 6555 f9e3 21101590 		.ascii	"!\020\025\220\013\300\016`\325\350 a\310\026v(\004\000"
 6555      0BC00E60 
 6555      D5E82061 
ARM GAS  C:\Temp\ccVQrAGa.s 			page 355


 6555      C8167628 
 6555      0400
 6556 f9f5 B6E0044C 		.ascii	"\266\340\004LX\220\013Pu\350\000"
 6556      58900B50 
 6556      75E800
 6557 fa00 400E60ED 		.ascii	"@\016`\355Pu\241\013\300\016`\351`\361Pu\210\205\300"
 6557      5075A10B 
 6557      C00E60E9 
 6557      60F15075 
 6557      8885C0
 6558 fa13 0E0346FC 		.ascii	"\016\003F\374d\001\206\341\030\203\241a\030\200\246"
 6558      640186E1 
 6558      1883A161 
 6558      1880A6
 6559 fa22 80048008 		.ascii	"\200\004\200\010\204\004@\232\202\001P\003\340\002\300"
 6559      8404409A 
 6559      82015003 
 6559      E002C0
 6560 fa31 156E01EF 		.ascii	"\025n\001\357\340Mh\341\030\000\306\200\246\200\004"
 6560      E04D68E1 
 6560      1800C680 
 6560      A68004
 6561 fa40 E8206608 		.ascii	"\350 f\010\357\314O\010\214\013\003\021\357\360L\250"
 6561      EFCC4F08 
 6561      8C0B0311 
 6561      EFF04CA8 
 6562 fa50 98F10E0B 		.ascii	"\230\361\016\013\362|\014\014\020\025\335\223\300\016"
 6562      F27C0C0C 
 6562      1015DD93 
 6562      C00E
 6563 fa5e 60E560DD 		.ascii	"`\345`\335\020\005\202\021\300\016`\345P\025\241\013"
 6563      10058211 
 6563      C00E60E5 
 6563      5015A10B 
 6564 fa6e 400E5015 		.ascii	"@\016P\025\203\021\300\016`\355`\361P\025\226\205\300"
 6564      8311C00E 
 6564      60ED60F1 
 6564      50159685 
 6564      C0
 6565 fa7f 0E83913E 		.ascii	"\016\203\221>\236\250\004\211\005B\020\200\030\200\026"
 6565      9EA80489 
 6565      05421080 
 6565      188016
 6566 fa8e F3EC8018 		.ascii	"\363\354\200\030\250\004\362\374B\020\250\004\200\026"
 6566      A804F2FC 
 6566      4210A804 
 6566      8016
 6567 fa9c 42108018 		.ascii	"B\020\200\030\200\026\363\364\200\030\250\004\363\370"
 6567      8016F3F4 
 6567      8018A804 
 6567      F3F8
 6568 faaa 4210A804 		.ascii	"B\020\250\004\200\026\203!\000&`\321\020\025\220\013"
 6568      80168321 
 6568      002660D1 
 6568      1015900B 
 6569 faba 400EE820 		.ascii	"@\016\350 [H\203!(\004\220\013\000f`\325\020\025Z\270"
 6569      5B488321 
ARM GAS  C:\Temp\ccVQrAGa.s 			page 356


 6569      2804900B 
 6569      006660D5 
 6569      10155AB8 
 6570 face C00EA804 		.ascii	"\300\016\250\004\350 \220\013\000\266\350\000Eh\220"
 6570      E820900B 
 6570      00B6E800 
 6570      456890
 6571 fadd 15A10B60 		.ascii	"\025\241\013`\345\020\005\202\221@\016`\355\020\025"
 6571      E5100582 
 6571      91400E60 
 6571      ED1015
 6572 faec 8201C00E 		.ascii	"\202\001\300\016`\345P\005\202\021@\016`\335\020\005"
 6572      60E55005 
 6572      8211400E 
 6572      60DD1005 
 6573 fafc 5015C00E 		.ascii	"P\025\300\016\300\016`\355\211!\002\001\356\325\301"
 6573      C00E60ED 
 6573      89210201 
 6573      EED5C1
 6574 fb0b 9D6C1D10 		.ascii	"\235l\035\020)\0026@+~\030\340\010\220\013o\330\340"
 6574      29023640 
 6574      2B7E18E0 
 6574      08900B6F 
 6574      D8E0
 6575 fb1d 080E3683 		.ascii	"\010\0166\203\021\000\253E\330\374\004!\253\357\360"
 6575      1100AB45 
 6575      D8FC0421 
 6575      ABEFF0
 6576 fb2c 3E94806B 		.ascii	">\224\200k\200\000\016\006\020)\357\025@+l\035\340\010"
 6576      80000E06 
 6576      1029EF15 
 6576      402B6C1D 
 6576      E008
 6577 fb3e 02366FD8 		.ascii	"\0026o\330|\310\0166\220\013\000\253\340\010\374\004"
 6577      7CC80E36 
 6577      900B00AB 
 6577      E008FC04 
 6578 fb4e 8311EFF0 		.ascii	"\203\021\357\360D\210\200k!\253\016\006k\365\020\005"
 6578      4488806B 
 6578      21AB0E06 
 6578      6BF51005 
 6579 fb5e 8000400E 		.ascii	"\200\000@\016a\005\341\030\003F`\341P\225P\225\300\016"
 6579      6105E118 
 6579      034660E1 
 6579      50955095 
 6579      C00E
 6580 fb70 C00E60E9 		.ascii	"\300\016`\351\323\015|d\001\005P\225\276\224\300\016"
 6580      D30D7C64 
 6580      01055095 
 6580      BE94C00E 
 6581 fb80 C1C3E9D5 		.ascii	"\301\303\351\325\372\000\004\014`\331\000\025\201!@"
 6581      FA00040C 
 6581      60D90015 
 6581      812140
 6582 fb8f 0E682054 		.ascii	"\016h T\250\000\306\201a\003\206aD\200\004\341\000\200"
 6582      A800C681 
 6582      61038661 
ARM GAS  C:\Temp\ccVQrAGa.s 			page 357


 6582      448004E1 
 6582      0080
 6583 fba1 28841446 		.ascii	"(\204\024FJ\2048\000\305\340\220\200\000\014\026\340"
 6583      4A843800 
 6583      C5E09080 
 6583      000C16E0 
 6584 fbb1 8C444A8C 		.ascii	"\214DJ\214\013\374\345\362\000\014\014\301\303\335\223"
 6584      0BFCE5F2 
 6584      000C0CC1 
 6584      C3DD93
 6585 fbc0 FA1C044C 		.ascii	"\372\034\004L\201\001\000ko\360@\310\201\201\201\021"
 6585      8101006B 
 6585      6FF040C8 
 6585      81818111 
 6586 fbd0 0186007B 		.ascii	"\001\206\000{\000\004\341\030\340\004C\326l\035L\021"
 6586      0004E118 
 6586      E00443D6 
 6586      6C1D4C11 
 6587 fbe0 1286402B 		.ascii	"\022\206@+\200\206\341<n\015\014\005\244\024\300\011"
 6587      8086E13C 
 6587      6E0D0C05 
 6587      A414C009 
 6588 fbf0 8201D907 		.ascii	"\202\001\331\007n\001L\003\204\010\300\025\363|@\000"
 6588      6E014C03 
 6588      8408C015 
 6588      F37C4000 
 6589 fc00 00060406 		.ascii	"\000\006\004\006\200\024\341\004D \204(\204&\363\354"
 6589      8014E104 
 6589      44208428 
 6589      8426F3EC 
 6590 fc10 84288014 		.ascii	"\204(\200\024\362\374D \200\024\204&D \204(\204&\363"
 6590      F2FC4420 
 6590      80148426 
 6590      44208428 
 6590      8426F3
 6591 fc23 F4801880 		.ascii	"\364\200\030\200\004\363\370B\020A\306\000\026\200\004"
 6591      04F3F842 
 6591      1041C600 
 6591      168004
 6592 fc32 E1004210 		.ascii	"\341\000B\020\200\030\000\026\363\370\341\004\000F\200"
 6592      80180016 
 6592      F3F8E104 
 6592      004680
 6593 fc41 188004F3 		.ascii	"\030\200\004\363\334B\020}\270\200\026\244\004\357\334"
 6593      DC42107D 
 6593      B88016A4 
 6593      04EFDC
 6594 fc50 02148018 		.ascii	"\002\024\200\030\200\026\374\224\357\310~h\216\013\003"
 6594      8016FC94 
 6594      EFC87E68 
 6594      8E0B03
 6595 fc5f 11EFEC7C 		.ascii	"\021\357\354|\010\341\030\000\306\200\206\200\004\362"
 6595      08E11800 
 6595      C6808680 
 6595      04F2
 6596 fc6d 1C0C4CC1 		.ascii	"\034\014L\301\303\335\223\372\004\004LC&\000k\014\001"
 6596      C3DD93FA 
ARM GAS  C:\Temp\ccVQrAGa.s 			page 358


 6596      04044C43 
 6596      26006B0C 
 6596      01
 6597 fc7e E004C02B 		.ascii	"\340\004\300+e\265l\035L\021@\012\300+\014\011\340\204"
 6597      65B56C1D 
 6597      4C11400A 
 6597      C02B0C09 
 6597      E084
 6598 fc90 C02B05A9 		.ascii	"\300+\005\251C\006\214\225\204\030\357\334\200\265\243"
 6598      43068C95 
 6598      8418EFDC 
 6598      80B5A3
 6599 fc9f 1B66E90C 		.ascii	"\033f\351\014\011\205\265\300&\367\000\000\212\014\031"
 6599      0985B5C0 
 6599      26F70000 
 6599      8A0C19
 6600 fcae 80D5C026 		.ascii	"\200\325\300&f\355\374\245\241\033\340\230@J\014\031"
 6600      66EDFCA5 
 6600      A11BE098 
 6600      404A0C19 
 6601 fcbe 80C5C02C 		.ascii	"\200\305\300,l\375\202e\241\033\202\015\377\021\014"
 6601      6CFD8265 
 6601      A11B820D 
 6601      FF110C
 6602 fccd 198215C0 		.ascii	"\031\202\025\300&f\355\004e\241\033\200\000@F\340\224"
 6602      2666ED04 
 6602      65A11B80 
 6602      004046E0 
 6602      94
 6603 fcde 400A05A9 		.ascii	"@\012\005\251\014\011\002`\000+\200\255\005\261\004"
 6603      0C090260 
 6603      002B80AD 
 6603      05B104
 6604 fced 41026084 		.ascii	"A\002`\204\030\300\236\010E\014\011\202\003\300'\341"
 6604      18C09E08 
 6604      450C0982 
 6604      03C027E1 
 6605 fcfd 00428684 		.ascii	"\000B\206\204\006\204\024\241\013\204\010\204\010\200"
 6605      068414A1 
 6605      0B840884 
 6605      0880
 6606 fd0b A5E50400 		.ascii	"\245\345\004\000\212@F\200\225\204\006\340\000a\000"
 6606      8A404680 
 6606      958406E0 
 6606      006100
 6607 fd1a 4E469C04 		.ascii	"NF\234\004\203!B\020\200\030\200\026\363\334\200\030"
 6607      83214210 
 6607      80188016 
 6607      F3DC8018 
 6608 fd2a 9C040016 		.ascii	"\234\004\000\026\302\031G\230\207\021\214\013h \203"
 6608      C2194798 
 6608      87118C0B 
 6608      682083
 6609 fd39 211C04C4 		.ascii	"!\034\004\304\031\200\030\231\021\000\026h G\010\234"
 6609      19801899 
 6609      11001668 
 6609      2047089C 
ARM GAS  C:\Temp\ccVQrAGa.s 			page 359


 6610 fd49 048C0BC8 		.ascii	"\004\214\013\310\031\200\030\014L\200\026\335\223\362"
 6610      1980180C 
 6610      4C8016DD 
 6610      93F2
 6611 fd57 04E10441 		.ascii	"\004\341\004A\306\200\030\200\004\200\026\302\031\301"
 6611      C6801880 
 6611      048016C2 
 6611      19C1
 6612 fd65 C3DD93FA 		.ascii	"\303\335\223\372\004\004LBF\000{E\230\340\004\201!h"
 6612      04044C42 
 6612      46007B45 
 6612      98E00481 
 6612      2168
 6613 fd77 2000C681 		.ascii	" \000\306\201a\003\206aD\200\004\341\000\200(\204\024"
 6613      61038661 
 6613      448004E1 
 6613      00802884 
 6613      14
 6614 fd88 464A8438 		.ascii	"FJ\2048\204%\340\230\340\214DJ\016)\376%@+l\035\340"
 6614      8425E098 
 6614      E08C444A 
 6614      0E29FE25 
 6614      402B6C1D 
 6615 fd9d 080C8660 		.ascii	"\010\014\206`\010\002\206i\230\216\013\243\013\357\330"
 6615      08028669 
 6615      988E0BA3 
 6615      0BEFD8
 6616 fdac C0000C06 		.ascii	"\300\000\014\006\350 J\210\014L\214\013\335\223\362"
 6616      E8204A88 
 6616      0C4C8C0B 
 6616      DD93F2
 6617 fdbb 04FA0004 		.ascii	"\004\372\000\004\014A\366\001aW\330\340<\201\021o\210"
 6617      0C41F601 
 6617      6157D8E0 
 6617      3C81116F 
 6617      88
 6618 fdcc E14441C6 		.ascii	"\341DA\306\200f\200\004\357\334n\250\357\334qH\357\334"
 6618      80668004 
 6618      EFDC6EA8 
 6618      EFDC7148 
 6618      EFDC
 6619 fdde 7328603C 		.ascii	"s(`<A\366V\330\203\021\014\014\357\2103X\362\000\301"
 6619      41F656D8 
 6619      83110C0C 
 6619      EF883358 
 6619      F200C1
 6620 fdf1 C3FFC8FA 		.ascii	"\303\377\310\372\000\004\014@\306\000kL\001\340\010"
 6620      00040C40 
 6620      C6006B4C 
 6620      01E008
 6621 fe00 C02B6C1D 		.ascii	"\300+l\035mI\014\005L\005\300\006\300\013f\205f\205"
 6621      6D490C05 
 6621      4C05C006 
 6621      C00B6685 
 6621      6685
 6622 fe12 0C057778 		.ascii	"\014\005wx\300\013\000\004\357\300L\005\373\200\300"
 6622      C00B0004 
ARM GAS  C:\Temp\ccVQrAGa.s 			page 360


 6622      EFC04C05 
 6622      FB80C0
 6623 fe21 0B668965 		.ascii	"\013f\211e9\014\011L\001\300+\300-j5e=\014\011L\001"
 6623      390C094C 
 6623      01C02BC0 
 6623      2D6A3565 
 6623      3D0C094C 
 6624 fe36 C02BC02D 		.ascii	"\300+\300-j9\362\000\014\014\301\303\335\223\372\000"
 6624      6A39F200 
 6624      0C0CC1C3 
 6624      DD93FA00 
 6625 fe46 040C40D6 		.ascii	"\004\014@\326\000kL\001\340\010@+l\035\014\005\221\021"
 6625      006B4C01 
 6625      E008402B 
 6625      6C1D0C05 
 6625      9111
 6626 fe58 C0086959 		.ascii	"\300\010iYfyL\005\014\011\300\013\300+e\315\357\300"
 6626      66794C05 
 6626      0C09C00B 
 6626      C02B65CD 
 6626      EFC0
 6627 fe6a 72A86A05 		.ascii	"r\250j\005L\001\014\005\300-\300\013c}f}L\005\014\014"
 6627      4C010C05 
 6627      C02DC00B 
 6627      637D667D 
 6627      4C050C0C 
 6628 fe7e C00BDD93 		.ascii	"\300\013\335\223\362\000\372\014\004\014\304\027\000"
 6628      F200FA0C 
 6628      040CC417 
 6628      00
 6629 fe8b 6B600840 		.ascii	"k`\010@\346L\001\214\023@+l\035\002\005\204{\300\006"
 6629      E64C018C 
 6629      13402B6C 
 6629      1D020584 
 6629      7BC006
 6630 fe9e 6D616679 		.ascii	"mafyL\005\014\011\300\013\300,n1m\015\014\011\243\013"
 6630      4C050C09 
 6630      C00BC02C 
 6630      6E316D0D 
 6630      0C09A30B 
 6631 feb2 402C404A 		.ascii	"@,@J\204\025\000`\340\214\000\255\005M\005\241\002`"
 6631      84150060 
 6631      E08C00AD 
 6631      054D05A1 
 6631      0260
 6632 fec4 006080B3 		.ascii	"\000`\200\263@\255\005I\005\221\002`\201\305\300\263"
 6632      40AD0549 
 6632      05910260 
 6632      81C5C0B3 
 6633 fed4 608C404A 		.ascii	"`\214@Je\300\002`\000`\300\263\200\255\005E\005A\000"
 6633      65C00260 
 6633      0060C0B3 
 6633      80AD0545 
 6633      054100
 6634 fee7 608008C0 		.ascii	"`\200\010\300\255\221\021\004\204\357\300nhj\005L\001"
 6634      AD911104 
 6634      84EFC06E 
ARM GAS  C:\Temp\ccVQrAGa.s 			page 361


 6634      686A054C 
 6634      01
 6635 fef8 A37B402D 		.ascii	"\243{@-\003\211\014\205L\205\200\013\300\013f}\362\014"
 6635      03890C85 
 6635      4C85800B 
 6635      C00B667D 
 6635      F20C
 6636 ff0a 0C0CC1C3 		.ascii	"\014\014\301\303\335\223`\010H\366@A\2021\300+l\035"
 6636      DD936008 
 6636      48F64041 
 6636      8231C02B 
 6636      6C1D
 6637 ff1c 66710045 		.ascii	"fq\000E\241K\300\013\006q\000EF:\300\013@5\300\022\300"
 6637      A14BC00B 
 6637      06710045 
 6637      463AC00B 
 6637      4035C012 
 6638 ff31 0B666966 		.ascii	"\013fifi\0005\000E\300\013\300\013fm\341\222F:fi@5@"
 6638      69003500 
 6638      45C00BC0 
 6638      0B666DE1 
 6638      92463A66 
 6639 ff49 21C00BC0 		.ascii	"!\300\013\300-i\321i\325@\021\335\223\300-`\010C\006"
 6639      2D69D169 
 6639      D54011DD 
 6639      93C02D60 
 6639      084306
 6640 ff5c 40118921 		.ascii	"@\021\211!\300+l\035jq@!\000\031\300-\300+eQ@\025\326"
 6640      C02B6C1D 
 6640      6A714021 
 6640      0019C02D 
 6640      C02B6551 
 6641 ff73 17C00B66 		.ascii	"\027\300\013f\221mQ\000\025@\025\300\006\300\013f\225"
 6641      916D5100 
 6641      154015C0 
 6641      06C00B66 
 6641      95
 6642 ff84 69D10019 		.ascii	"i\321\000\031\245\033\300-\003\021\204\325@\021\201"
 6642      A51BC02D 
 6642      031184D5 
 6642      401181
 6643 ff93 21C02D6A 		.ascii	"!\300-jue\365\000\025@\025\300\013\300\013f\231e\371"
 6643      7565F500 
 6643      154015C0 
 6643      0BC00B66 
 6643      9965F9
 6644 ffa6 00154015 		.ascii	"\000\025@\025\300\013\300\013f\241f\261@%\335\223\300"
 6644      C00BC00B 
 6644      66A166B1 
 6644      4025DD93 
 6644      C0
 6645 ffb7 0B681500 		.ascii	"\013h\025\000\031\201!@-ju@\021\000\025\300-\300\013"
 6645      19812140 
 6645      2D6A7540 
 6645      110015C0 
 6645      2DC00B
 6646 ffca 65FD6699 		.ascii	"e\375f\231@\025\002\000@\013\300\266f\301h\025\0009"
ARM GAS  C:\Temp\ccVQrAGa.s 			page 362


 6646      40150200 
 6646      400BC0B6 
 6646      66C16815 
 6646      0039
 6647 ffdc 872DC02D 		.ascii	"\207-\300-\232\000\\\010x\250\0025\002E\202!\000U\370"
 6647      9A005C08 
 6647      78A80235 
 6647      02458221 
 6647      0055F8
 6648 ffef 98C00B66 		.ascii	"\230\300\013fi\346\222HZBE\206C\0025\370\020\3027\370"
 6648      69E69248 
 6648      5A424586 
 6648      430235F8 
 6648      10C237F8 
 6649 10003 10F81042 		.ascii	"\020\370\020B5\370\020\0025i\325\000I\302G\300-\010"
 6649      35F81002 
 6649      3569D500 
 6649      49C247C0 
 6649      2D08
 6650 10015 4B8043C0 		.ascii	"K\200C\300\024fi\340\022F:\370\020B5\370\020\0025B5"
 6650      146669E0 
 6650      12463AF8 
 6650      104235F8 
 6650      10023542 
 6651 1002a C3370235 		.ascii	"\3037\0025\370\020\002E\370\210\000U\370x\300\013fi"
 6651      F8100245 
 6651      F8880055 
 6651      F878C00B 
 6651      6669
 6652 1003c E692485A 		.ascii	"\346\222HZ\204N\206C\3027\2044\2044\204>i\325\000I\302"
 6652      844E8643 
 6652      C2378434 
 6652      8434843E 
 6652      69D50049 
 6653 10051 47C02D08 		.ascii	"G\300-\010K\200C\300\024eQ\340\222F:\2044\204>\305>"
 6653      4B8043C0 
 6653      146551E0 
 6653      92463A84 
 6653      34843EC5 
 6654 10066 8337C1C3 		.ascii	"\2037\301\303\367\205f}\000\025@\025\300\013\300\010"
 6654      F785667D 
 6654      00154015 
 6654      C00BC008 
 6655 10076 69456A05 		.ascii	"iEj\005\000\031@\021\300-\300\"eI\301\303\335\223f}"
 6655      00194011 
 6655      C02DC022 
 6655      6549C1C3 
 6655      DD93667D 
 6656 1008a 00154015 		.ascii	"\000\025@\025\300\013\300\006mMj\005\000\031@\021\300"
 6656      C00BC006 
 6656      6D4D6A05 
 6656      00194011 
 6656      C0
 6657 1009b 2DC01B65 		.ascii	"-\300\033ei\301\303\335\223\340(\002%\340,\002\025i"
 6657      69C1C3DD 
 6657      93E02802 
 6657      25E02C02 
ARM GAS  C:\Temp\ccVQrAGa.s 			page 363


 6657      1569
 6658 100ad 5D402545 		.ascii	"]@%E\366@\010@\025\340,\300\010iab\311@#\335\223\300"
 6658      F6400840 
 6658      15E02CC0 
 6658      08696162 
 6658      C94023DD 
 6659 100c3 11FA9C04 		.ascii	"\021\372\234\004\014\200\213\004k`\210\000dR\202\202"
 6659      0C808B04 
 6659      6B608800 
 6659      64528282 
 6660 100d3 7B433670 		.ascii	"{C6p\200P\021\340\010@+l\035f\201\000\220\002p\300m"
 6660      805011E0 
 6660      08402B6C 
 6660      1D668100 
 6660      900270C0 
 6661 100e8 892164A0 		.ascii	"\211!d\240h\020d\210\000\220\2011@mg\201\344\260\002"
 6661      68106488 
 6661      00908131 
 6661      406D6781 
 6661      E4B002
 6662 100fb 70813109 		.ascii	"p\2011\011!\350\020c\350`\030A\006\344\300\002pf\202"
 6662      21E81063 
 6662      E8601841 
 6662      06E4C002 
 6662      706682
 6663 1010e 406AE024 		.ascii	"@j\340$\004\006\200\203\2051e\001\000\200\014\014\300"
 6663      04068083 
 6663      85316501 
 6663      00800C0C 
 6663      C0
 6664 1011f 6E22D8F2 		.ascii	"n\"\330\362\234\301\303\340\020\372\014\004\014\202"
 6664      9CC1C3E0 
 6664      10FA0C04 
 6664      0C82
 6665 1012d 6B007B6C 		.ascii	"k\000{l\375\0169C\366@,n\270\340\014\205!o\374o\374"
 6665      FD0E3943 
 6665      F6402C6E 
 6665      B8E00C85 
 6665      216FFC6F 
 6666 10142 70C867F8 		.ascii	"p\310g\370\216\013\216\013o\374`\010@\246e\340\002p"
 6666      8E0B8E0B 
 6666      6FFC6008 
 6666      40A665E0 
 6666      0270
 6667 10154 4E01C0B6 		.ascii	"N\001\300\266@+l\035\341LAF\004p\000\004\300\266fAd"
 6667      402B6C1D 
 6667      E14C4146 
 6667      04700004 
 6667      C0B66641 
 6668 10169 A0086062 		.ascii	"\240\010`b\030\214;\000\213\357\224\340\010A&l\035N"
 6668      188C3B00 
 6668      8BEF94E0 
 6668      0841266C 
 6668      1D4E
 6669 1017b 01007040 		.ascii	"\001\000p@+\300\211e\241d\300\002`\340$\004\006h\020"
 6669      2BC08965 
 6669      A164C002 
ARM GAS  C:\Temp\ccVQrAGa.s 			page 364


 6669      60E02404 
 6669      066810
 6670 1018e 5F88900B 		.ascii	"_\210\220\013\2051\362\014\014\014\301\303\335\223\372"
 6670      8531F20C 
 6670      0C0CC1C3 
 6670      DD93FA
 6671 1019d 1C044C86 		.ascii	"\034\004L\206k\000\213p\210R\202\022\031\202{@\033h"
 6671      6B008B70 
 6671      88528212 
 6671      19827B40 
 6671      1B68
 6672 101af 81103983 		.ascii	"\201\0209\203!\300,l\375\357\374j\310o\374l\350\022"
 6672      21C02C6C 
 6672      FDEFFC6A 
 6672      C86FFC6C 
 6672      E812
 6673 101c1 19900B40 		.ascii	"\031\220\013@\033h\201e\330\220\013\214+o\374"
 6673      1B688165 
 6673      D8900B8C 
 6673      2B6FFC
 6674 101d0 600840B6 		.ascii	"`\010@\266e\340\002\200P\001\300\266@+l\035\341LAF\004"
 6674      65E00280 
 6674      5001C0B6 
 6674      402B6C1D 
 6674      E14C4146 
 6675 101e5 800004C0 		.ascii	"\200\000\004\300\266fAd\240\010p]\370\216;\022)\357"
 6675      B6664164 
 6675      A008705D 
 6675      F88E3B12 
 6675      29EF
 6676 101f7 94401B68 		.ascii	"\224@\033h\201\020\013\200kv\030\216\033\214\013\357"
 6676      81100B80 
 6676      6B76188E 
 6676      1B8C0BEF 
 6677 10207 FCF21C0C 		.ascii	"\374\362\034\014L\301\303\335\223a0\000\306\3410\003"
 6677      4CC1C3DD 
 6677      93613000 
 6677      C6E13003 
 6678 10217 06054600 		.ascii	"\006\005F\000\004\007\206\3410\011\306a0J\006\3410X"
 6678      040786E1 
 6678      3009C661 
 6678      304A06E1 
 6678      3058
 6679 10229 46613080 		.ascii	"Fa0\200\004\3410\204\024\204\024\000\023\210$\3410@"
 6679      04E13084 
 6679      14841400 
 6679      138824E1 
 6679      3040
 6680 1023b 868C3488 		.ascii	"\206\2144\210$\2144\204\023\206\023\220D\224T\220D\224"
 6680      248C3484 
 6680      13861390 
 6680      44945490 
 6680      4494
 6681 1024d 5488138A 		.ascii	"T\210\023\212\023\260\304\200\004\260\304\200\004\230"
 6681      13B0C480 
 6681      04B0C480 
 6681      0498
ARM GAS  C:\Temp\ccVQrAGa.s 			page 365


 6682 1025b 1382035D 		.ascii	"\023\202\003]\223\372\000\004\014\001F\000k\000\004"
 6682      93FA0004 
 6682      0C014600 
 6682      6B0004
 6683 1026a E124E124 		.ascii	"\341$\341$EFn\011\014\025\200\010\300\011\305\007\210"
 6683      45466E09 
 6683      0C158008 
 6683      C009C507 
 6683      88
 6684 1027b 24440008 		.ascii	"$D\000\0104M\270\360\014\214\013h l\375\014\031\201"
 6684      344DB8F0 
 6684      0C8C0B68 
 6684      206CFD0C 
 6684      1981
 6685 1028d 21402C64 		.ascii	"!@,d\265L\005L!\300\005\300\025b\341b\351L!L\021\300"
 6685      B54C054C 
 6685      21C005C0 
 6685      1562E162 
 6685      E94C214C 
 6686 102a3 15C01562 		.ascii	"\025\300\025b\355\362\000\014\014\301\303\335\223\341"
 6686      EDF2000C 
 6686      0CC1C3DD 
 6686      93E1
 6687 102b1 18420684 		.ascii	"\030B\006\204\030\204\024e]@\021\335\223\300\"\341\030"
 6687      18841465 
 6687      5D4011DD 
 6687      93C022E1 
 6687      18
 6688 102c2 42068418 		.ascii	"B\006\204\030\204\024e}@\021\335\223\300\033\372\000"
 6688      8414657D 
 6688      4011DD93 
 6688      C01BFA00 
 6689 102d2 040C0046 		.ascii	"\004\014\000F\000k\000\004\341(\341\030B\006\204\024"
 6689      006B0004 
 6689      E128E118 
 6689      42068414 
 6690 102e2 80044C05 		.ascii	"\200\004L\005\202\001\300\010iE\221\021\004\010\357"
 6690      8201C008 
 6690      69459111 
 6690      0408EF
 6691 102f1 C04E6865 		.ascii	"\300NheIL\001\014\014\300\"\335\223\362\000\372\000"
 6691      494C010C 
 6691      0CC022DD 
 6691      93F200FA 
 6691      00
 6692 10302 040C0046 		.ascii	"\004\014\000F\000k\000\004\341(\341\030B\006\204\024"
 6692      006B0004 
 6692      E128E118 
 6692      42068414 
 6693 10312 80044C05 		.ascii	"\200\004L\005\202\001\300\006mM\221\021\004\010\357"
 6693      8201C006 
 6693      6D4D9111 
 6693      0408EF
 6694 10321 C04CE86D 		.ascii	"\300L\350m\001\014\031L\001\300,\300\033eie]L\021\014"
 6694      010C194C 
 6694      01C02CC0 
 6694      1B656965 
ARM GAS  C:\Temp\ccVQrAGa.s 			page 366


 6694      5D4C110C 
 6695 10335 0CC01BDD 		.ascii	"\014\300\033\335\223\362\000\372\000\004\014\001\306"
 6695      93F200FA 
 6695      00040C01 
 6695      C6
 6696 10342 006B0004 		.ascii	"\000k\000\004\3414\200\004\2131eI\014)\014\031\300\""
 6696      E1348004 
 6696      8B316549 
 6696      0C290C19 
 6696      C022
 6697 10354 C0226559 		.ascii	"\300\"eYi]L\005Y\370\300\010L\005\357\300@\010ia\340"
 6697      695D4C05 
 6697      59F8C008 
 6697      4C05EFC0 
 6697      40086961 
 6698 10369 0C43F665 		.ascii	"\014C\366e\221L\021\014\014\300\"\335\223\362\000\372"
 6698      914C110C 
 6698      0CC022DD 
 6698      93F200FA 
 6699 10379 0C040C68 		.ascii	"\014\004\014h m\310Bx\200k\214\013h\000f\201\000`\002"
 6699      206DC842 
 6699      78806B8C 
 6699      0B680066 
 6699      81006002 
 6700 1038d 06406DC0 		.ascii	"\006@m\300 cA`\004\004\006O\030\2011\016`\350\020@m"
 6700      20634160 
 6700      0404064F 
 6700      1881310E 
 6700      60E81040 
 6701 103a2 678181F5 		.ascii	"g\201\201\365\241\201x@\016\005\014)\2131\300\033ei"
 6701      A1817840 
 6701      0E050C29 
 6701      8B31C01B 
 6701      6569
 6702 103b4 65790C19 		.ascii	"ey\014\031W\030\300\033]\016\357\300\354\004\020\200"
 6702      5718C01B 
 6702      5D0EEFC0 
 6702      EC041080 
 6703 103c4 FC35A18B 		.ascii	"\3745\241\213\362\014\014\014\301\303\335\223\372\234"
 6703      F20C0C0C 
 6703      C1C3DD93 
 6703      FA9C
 6704 103d2 040C0206 		.ascii	"\004\014\002\006\000kE\270\340\004\016`\350 @nd\201"
 6704      006B45B8 
 6704      E0040E60 
 6704      E820406E 
 6704      6481
 6705 103e4 0195A181 		.ascii	"\001\225\241\201]\030\214\233^x\214\013e\016\357\324"
 6705      5D188C9B 
 6705      5E788C0B 
 6705      650EEFD4 
 6706 103f4 EC041080 		.ascii	"\354\004\020\200\376\025\241\213e\201\000`\004\006@"
 6706      FE15A18B 
 6706      65810060 
 6706      040640
 6707 10403 6D0131E0 		.ascii	"m\0011\340\004\014\014\214\033\013x\362\234\301\303"
 6707      040C0C8C 
ARM GAS  C:\Temp\ccVQrAGa.s 			page 367


 6707      1B0B78F2 
 6707      9CC1C3
 6708 10412 E01065A1 		.ascii	"\340\020e\241\000\000\002\006@\211\300 c\035`$\004\006"
 6708      00000206 
 6708      4089C020 
 6708      631D6024 
 6708      0406
 6709 10424 0AB88731 		.ascii	"\012\270\2071\301\303\340\020e\001\000\000\002\006@"
 6709      C1C3E010 
 6709      65010000 
 6709      020640
 6710 10433 6EC02061 		.ascii	"n\300 a\001b@\004\006\011\370\2071\301\303\340\020\372"
 6710      01624004 
 6710      0609F887 
 6710      31C1C3E0 
 6710      10FA
 6711 10445 7C040C6D 		.ascii	"|\004\014m\221\036\360\000k\300\004\3410AFlm\014)B\306"
 6711      911EF000 
 6711      6BC004E1 
 6711      3041466C 
 6711      6D0C2942 
 6712 1045a 40220C39 		.ascii	"@\"\0149\3410@\"o\275LA\205A@\"li\000\004\201qL!\202"
 6712      E1304022 
 6712      6FBD4C41 
 6712      85414022 
 6712      6C690004 
 6713 10473 2140226C 		.ascii	"!@\"lmL1\2021@\"o\275d\321\004\360\004\024\300\002\344"
 6713      6D4C3182 
 6713      3140226F 
 6713      BD64D104 
 6713      F00414C0 
 6714 10489 1006F095 		.ascii	"\020\006\360\225Q\035A\201\201\001\301\022\304\203e"
 6714      511D4181 
 6714      8101C112 
 6714      C48365
 6715 10498 82C17A80 		.ascii	"\202\301z\200\341\022R\232f\226T\232\022\014\273\233"
 6715      E112529A 
 6715      6696549A 
 6715      120CBB9B 
 6716 104a8 10A3E200 		.ascii	"\020\243\342\000\024\244\222\203\304\247\372\200\374"
 6716      14A49283 
 6716      C4A7FA80 
 6716      FC
 6717 104b5 2800B502 		.ascii	"(\000\265\002\245\311\276\315\256\374(\3420\030\012"
 6717      A5C9BECD 
 6717      AEFC28E2 
 6717      30180A
 6718 104c4 0060FA35 		.ascii	"\000`\3725@\220e\201d\321\002\360E\006\300\002\2011"
 6718      40906581 
 6718      64D102F0 
 6718      4506C002 
 6718      8131
 6719 104d6 6020E810 		.ascii	"` \350\020E(fA\000`\002\360@\222E\006\344\020\2011`"
 6719      45286641 
 6719      006002F0 
 6719      40924506 
 6719      E4108131 
ARM GAS  C:\Temp\ccVQrAGa.s 			page 368


 6720 104eb 20E81044 		.ascii	" \350\020D\210a0\000\306\3410\002F\004\306\000\004\004"
 6720      88613000 
 6720      C6E13002 
 6720      4604C600 
 6720      0404
 6721 104fd 14E13866 		.ascii	"\024\3418f1\006`\010$\300\213\203e\201Ap\014J@\030T"
 6721      31066008 
 6721      24C08B83 
 6721      65814170 
 6721      0C4A4018 
 6722 10512 8241A75B 		.ascii	"\202A\247[`\204b\000\012\014\030\304\216\303\212sz\200"
 6722      60846200 
 6722      0A0C18C4 
 6722      8EC38A73 
 6722      7A80
 6723 10524 C4C708CE 		.ascii	"\304\307\010\316\3740\000e\370 Fe\3740\002\305\261K"
 6723      FC300065 
 6723      F8204665 
 6723      FC3002C5 
 6723      B14B
 6724 10536 CDCE1EF0 		.ascii	"\315\316\036\360\372U\300\004e\221\362|\014\014\301"
 6724      FA55C004 
 6724      6591F27C 
 6724      0C0CC1
 6725 10545 C3DD93E1 		.ascii	"\303\335\223\341\030B\006\204\030\204\024l\255@\021"
 6725      18420684 
 6725      1884146C 
 6725      AD4011
 6726 10554 DD93C022 		.ascii	"\335\223\300\"\341\030B\006\204\030\204\024o\375@\021"
 6726      E1184206 
 6726      84188414 
 6726      6FFD4011 
 6727 10564 DD93C022 		.ascii	"\335\223\300\"c\205\000\025@\025\300\013\300\010k!\301"
 6727      63850015 
 6727      4015C00B 
 6727      C0086B21 
 6727      C1
 6728 10575 C3DD9363 		.ascii	"\303\335\223c\205\000\025@\025\300\013\300\010k\365"
 6728      85001540 
 6728      15C00BC0 
 6728      086BF5
 6729 10584 C1C3DD93 		.ascii	"\301\303\335\223\372\034\004L\201\001\000\213o\350r"
 6729      FA1C044C 
 6729      8101008B 
 6729      6FE872
 6730 10593 88816181 		.ascii	"\210\201a\201\021\000\006\000{\000\004\341\020\340\004"
 6730      11000600 
 6730      7B0004E1 
 6730      10E004
 6731 105a2 43166C1D 		.ascii	"C\026l\035P\021\203\221@+\000F\000\226\200\004\341\010"
 6731      50118391 
 6731      402B0046 
 6731      00968004 
 6731      E108
 6732 105b4 C2198018 		.ascii	"\302\031\200\030\000\206\000\026\200\004\341\010\302"
 6732      00860016 
 6732      8004E108 
ARM GAS  C:\Temp\ccVQrAGa.s 			page 369


 6732      C2
 6733 105c1 1980187C 		.ascii	"\031\200\030|\230\200\026|\370\357\370\220\013o\370"
 6733      9880167C 
 6733      F8EFF890 
 6733      0B6FF8
 6734 105d0 82E5A10B 		.ascii	"\202\345\241\013l\035\020)\014\206@+\002\206\340\010"
 6734      6C1D1029 
 6734      0C86402B 
 6734      0286E008 
 6735 105e0 900B6008 		.ascii	"\220\013`\010\357\324g\250\013E\243\013\300\000\014"
 6735      EFD467A8 
 6735      0B45A30B 
 6735      C0000C
 6736 105ef 06EFD86E 		.ascii	"\006\357\330n\210o\370t\010EX\220\013\220\013h\000a"
 6736      886FF874 
 6736      08455890 
 6736      0B900B68 
 6736      0061
 6737 10601 144106E0 		.ascii	"\024A\006\340\004Ef\200\030\200\004\000\026\302\031"
 6737      04456680 
 6737      18800400 
 6737      16C219
 6738 10610 E1044086 		.ascii	"\341\004@\206CV\000\004\000\226\340\004\341\030\000"
 6738      43560004 
 6738      0096E004 
 6738      E11800
 6739 1061f 46501180 		.ascii	"FP\021\200\004\300+l\035\000\306\000\226\200\004\341"
 6739      04C02B6C 
 6739      1D00C600 
 6739      968004E1 
 6740 1062f 18010600 		.ascii	"\030\001\006\000\226\020\031\341\014\300,n]P!\200\004"
 6740      961019E1 
 6740      0CC02C6E 
 6740      5D502180 
 6740      04
 6741 10640 C02B6C1D 		.ascii	"\300+l\035\000\306\000\026\020\031\341\014\300,ne\000"
 6741      00C60016 
 6741      1019E10C 
 6741      C02C6E65 
 6741      00
 6742 10651 168004E1 		.ascii	"\026\200\004\341\010@\206na\020\031\200\004\300,@F\000"
 6742      0840866E 
 6742      61101980 
 6742      04C02C40 
 6742      4600
 6743 10663 161019E1 		.ascii	"\026\020\031\341\010\300,ni\000\026\200\004\341DA\206"
 6743      08C02C6E 
 6743      69001680 
 6743      04E14441 
 6743      86
 6744 10674 6E591019 		.ascii	"nY\020\031\200\004\300,Av\000\026P\001\340\004@+l\035"
 6744      8004C02C 
 6744      41760016 
 6744      5001E004 
 6744      402B6C1D 
 6745 10688 EFFC41F6 		.ascii	"\357\374A\366h\000I\010\003\021\201\021jX\216\013\214"
 6745      68004908 
ARM GAS  C:\Temp\ccVQrAGa.s 			page 370


 6745      03118111 
 6745      6A588E0B 
 6745      8C
 6746 10699 0BEFE8F2 		.ascii	"\013\357\350\362\034\014L\301\303\335\223n\201\000)"
 6746      1C0C4CC1 
 6746      C3DD936E 
 6746      810029
 6747 106a8 0346402C 		.ascii	"\003F@,\204\024\341\020\003\206\004&\000)\341\020\300"
 6747      8414E110 
 6747      03860426 
 6747      0029E110 
 6747      C0
 6748 106b9 2C6E8504 		.ascii	",n\205\004&\204\024\341\020B\306n\211\000)\204\024\300"
 6748      268414E1 
 6748      1042C66E 
 6748      89002984 
 6748      14C0
 6749 106cb 2C420604 		.ascii	",B\006\004&\000)\341\020\300,nQ\004&\204\024\341\020"
 6749      260029E1 
 6749      10C02C6E 
 6749      51042684 
 6749      14E110
 6750 106de 05C66BAD 		.ascii	"\005\306k\255\000\031\210$\300+\360\374B\020C\306\010"
 6750      00198824 
 6750      C02BF0FC 
 6750      421043C6 
 6750      08
 6751 106ef 160029E1 		.ascii	"\026\000)\341\020\300,n\241\204&\204\024c\025\000\031"
 6751      10C02C6E 
 6751      A1842684 
 6751      14631500 
 6751      19
 6752 10700 A51BC038 		.ascii	"\245\033\3008\016\245\000)\002F@,\002\025\301\024\004"
 6752      0EA50029 
 6752      0246402C 
 6752      0215C114 
 6752      04
 6753 10711 16C00043 		.ascii	"\026\300\000C\006\200\000\002\025\201\020\004&\200\000"
 6753      06800002 
 6753      15811004 
 6753      268000
 6754 10720 E1140206 		.ascii	"\341\024\002\006nU\000)\204\024\300,\002\206\004&\000"
 6754      6E550029 
 6754      8414C02C 
 6754      02860426 
 6754      00
 6755 10731 29E114C0 		.ascii	")\341\024\300,n\215\204&\204\024n\251\000\031!\033\300"
 6755      2C6E8D84 
 6755      2684146E 
 6755      A9001921 
 6755      1BC0
 6756 10743 2CE11043 		.ascii	",\341\020C\206\204%\204$\010\026\201\021\341\020EF\210"
 6756      86842584 
 6756      24081681 
 6756      11E11045 
 6756      4688
 6757 10755 16882463 		.ascii	"\026\210$c\025\000)\245+\3008\003\006\204\345\203!a"
ARM GAS  C:\Temp\ccVQrAGa.s 			page 371


 6757      150029A5 
 6757      2BC03803 
 6757      0684E583 
 6757      2161
 6758 10767 10837584 		.ascii	"\020\203u\204\024\010\026\203\021\341\020EF\210\026"
 6758      14081683 
 6758      11E11045 
 6758      468816
 6759 10776 88246315 		.ascii	"\210$c\025\000)\245+\3008A\020\003\006\300\000\004\006"
 6759      0029A52B 
 6759      C0384110 
 6759      0306C000 
 6759      0406
 6760 10788 C0000215 		.ascii	"\300\000\002\025\005\006\200\325\210$\341\024\201%\210"
 6760      050680D5 
 6760      8824E114 
 6760      812588
 6761 10797 16000984 		.ascii	"\026\000\011\204&@,n\235\341\020\002F\204\006\204\024"
 6761      26402C6E 
 6761      9DE11002 
 6761      46840684 
 6761      14
 6762 107a8 C1C3DD93 		.ascii	"\301\303\335\223\341\034\004\306\010\026\210$\341\034"
 6762      E11C04C6 
 6762      08168824 
 6762      E11C
 6763 107b6 05060816 		.ascii	"\005\006\010\026\210$\341\034\005F\010\026\210$\341"
 6763      8824E11C 
 6763      05460816 
 6763      8824E1
 6764 107c5 1C058608 		.ascii	"\034\005\206\010\026\210$\341\034\005\306\010\026\210"
 6764      168824E1 
 6764      1C05C608 
 6764      1688
 6765 107d3 24E11C44 		.ascii	"$\341\034D\006\010\026\210$\341\034DF\010\026\210$\341"
 6765      06081688 
 6765      24E11C44 
 6765      46081688 
 6765      24E1
 6766 107e5 1C448608 		.ascii	"\034D\206\010\026\210$\341\034D\306\010\026\210$\341"
 6766      168824E1 
 6766      1C44C608 
 6766      168824E1 
 6767 107f5 1C450608 		.ascii	"\034E\006\010\026\210$\341\034EF\010\026\210$\341\034"
 6767      168824E1 
 6767      1C454608 
 6767      168824E1 
 6767      1C
 6768 10806 45860816 		.ascii	"E\206\010\026\210$\341\034E\306\010\026\210$\341 \004"
 6768      8824E11C 
 6768      45C60816 
 6768      8824E120 
 6768      04
 6769 10817 06081688 		.ascii	"\006\010\026\210$\341 \004F\010\026\210$\341 \004\206"
 6769      24E12004 
 6769      46081688 
 6769      24E12004 
ARM GAS  C:\Temp\ccVQrAGa.s 			page 372


 6769      86
 6770 10828 08168824 		.ascii	"\010\026\210$\341\024C\206\204\014\204\024\301\303\335"
 6770      E1144386 
 6770      840C8414 
 6770      C1C3DD
 6771 10837 93612401 		.ascii	"\223a$\001\306\200\004\201\021\335\223\200\026\372\014"
 6771      C6800481 
 6771      11DD9380 
 6771      16FA0C
 6772 10846 040C0046 		.ascii	"\004\014\000F\000k\000\024\341\030\340\010\004\306l"
 6772      006B0014 
 6772      E118E008 
 6772      04C66C
 6773 10855 1D4C2181 		.ascii	"\035L!\201!@+\021\306\003q\004&\341$\341,C\006\004&"
 6773      21402B11 
 6773      C6037104 
 6773      26E124E1 
 6773      2C430604 
 6774 1086a 84148004 		.ascii	"\204\024\200\004\205\021\240\004\200v\214\013\000&\350"
 6774      8511A004 
 6774      80768C0B 
 6774      0026E8
 6775 10879 18524802 		.ascii	"\030RH\002v \004L\021\340\010\300+l\035\014\014\200"
 6775      7620044C 
 6775      11E008C0 
 6775      2B6C1D0C 
 6775      0C80
 6776 1088b 76DD93F2 		.ascii	"v\335\223\362\014\372\014\004\014\202{\004;\206\033"
 6776      0CFA0C04 
 6776      0C827B04 
 6776      3B861B
 6777 1089a 01216818 		.ascii	"\001!h\030lH\000\006\201aCFa(\000\004\341,\341D\004"
 6777      6C480006 
 6777      81614346 
 6777      61280004 
 6777      E12CE144 
 6778 108af C6813104 		.ascii	"\306\2011\004\024\200\310\210$\204H\204XP\012\210\210"
 6778      1480C888 
 6778      24844884 
 6778      58500A88 
 6778      88
 6779 108c0 0405E08C 		.ascii	"\004\005\340\214\200\010\015V\307WE\307\304G\002\311"
 6779      80080D56 
 6779      C75745C7 
 6779      C44702C9 
 6780 108d0 A6CF0459 		.ascii	"\246\317\004Y\252\317\010IF\302\250\317\207{\370\034"
 6780      AACF0849 
 6780      46C2A8CF 
 6780      877BF81C 
 6781 108e0 70F8FA75 		.ascii	"p\370\372u\214\013\350\030\362\014\014\014\301\303\335"
 6781      8C0BE818 
 6781      F20C0C0C 
 6781      C1C3DD
 6782 108ef 93028602 		.ascii	"\223\002\206\002+@\021\340\010@+l\035\371\225\217\021"
 6782      2B4011E0 
 6782      08402B6C 
 6782      1DF9958F 
ARM GAS  C:\Temp\ccVQrAGa.s 			page 373


 6782      11
 6783 10900 FA84040C 		.ascii	"\372\204\004\014\000F\000{N\001\340\010@+l\035y\230"
 6783      0046007B 
 6783      4E01E008 
 6783      402B6C1D 
 6783      7998
 6784 10912 826B8E0B 		.ascii	"\202k\216\013o\374`\010\000\206N\001\217\021@+l\035"
 6784      6FFC6008 
 6784      00864E01 
 6784      8F11402B 
 6784      6C1D
 6785 10924 8C2B8E0B 		.ascii	"\214+\216\013\362\204\014\014\301\303\367%\372|\004"
 6785      F2840C0C 
 6785      C1C3F725 
 6785      FA7C04
 6786 10933 4C613811 		.ascii	"La8\021F \004\200kp\001\002V\016\206\367\253\022Fa<"
 6786      46200480 
 6786      6B700102 
 6786      560E86F7 
 6786      AB124661 
 6787 10948 0321E114 		.ascii	"\003!\341\024\200\036\213\241\200\030\234\004\363\364"
 6787      801E8BA1 
 6787      80189C04 
 6787      F3F4
 6788 10956 42108911 		.ascii	"B\020\211\021\000\026\000\026\244\004f\030\213\021\214"
 6788      00160016 
 6788      A4046618 
 6788      8B118C
 6789 10965 0B6818E1 		.ascii	"\013h\030\341\024\026\306\200\010\254\004`\200@\012"
 6789      1416C680 
 6789      08AC0460 
 6789      80400A
 6790 10974 A6059901 		.ascii	"\246\005\231\001o\251\014\025\243\033\300\013\001\306"
 6790      6FA90C15 
 6790      A31BC00B 
 6790      01C6
 6791 10982 A4658004 		.ascii	"\244e\200\004\341\000@J\200\010\233\001`\204\245\033"
 6791      E100404A 
 6791      80089B01 
 6791      6084A51B 
 6792 10992 A2650B11 		.ascii	"\242e\013\021\242%dX\203!\214\013h\030"
 6792      A2256458 
 6792      83218C0B 
 6792      6818
 6793 109a0 E1104046 		.ascii	"\341\020@F\200\010\200\004`\220@J\236\205\237\001o\251"
 6793      80088004 
 6793      6090404A 
 6793      9E859F01 
 6793      6FA9
 6794 109b2 0C15A71B 		.ascii	"\014\025\247\033\300\013$\004\234\345\203!\213\021\214"
 6794      C00B2404 
 6794      9CE58321 
 6794      8B118C
 6795 109c1 0B00A6E8 		.ascii	"\013\000\246\350\030c\010\200\010\254\004`\200@J\232"
 6795      18630880 
 6795      08AC0460 
 6795      80404A9A 
ARM GAS  C:\Temp\ccVQrAGa.s 			page 374


 6796 109d1 45A1016F 		.ascii	"E\241\001o\251\014\025\251\033\300\013\001\306\230\245"
 6796      A90C15A9 
 6796      1BC00B01 
 6796      C698A5
 6797 109e0 8004E100 		.ascii	"\200\004\341\000@\012\200\010\243\001`\204+\033\226"
 6797      400A8008 
 6797      A3016084 
 6797      2B1B96
 6798 109ef A5E10015 		.ascii	"\245\341\000\025\306\013\021\226%aX\203!\214\013h\030"
 6798      C60B1196 
 6798      25615883 
 6798      218C0B68 
 6798      18
 6799 10a00 E1104046 		.ascii	"\341\020@F\200\010\200\004`\220@J\222\205\245\001o\251"
 6799      80088004 
 6799      6090404A 
 6799      9285A501 
 6799      6FA9
 6800 10a12 0C15AF1B 		.ascii	"\014\025\257\033\300\013$\004\220\345\203!\205\021\213"
 6800      C00B2404 
 6800      90E58321 
 6800      85118B
 6801 10a21 11001668 		.ascii	"\021\000\026h\030`\010\254\004\214\013@J\200\010\247"
 6801      186008AC 
 6801      048C0B40 
 6801      4A8008A7 
 6802 10a31 0160800C 		.ascii	"\001`\200\014\025\216%@\013o\251\341\020DF\214E\261"
 6802      158E2540 
 6802      0B6FA9E1 
 6802      1044468C 
 6802      45B1
 6803 10a43 1B8008A8 		.ascii	"\033\200\010\250\004`\204@\012\212\205\251\001\212E"
 6803      04608440 
 6803      0A8A85A9 
 6803      018A45
 6804 10a52 B31B6100 		.ascii	"\263\033a\000A\006\200\004\205\021\210\004\200\026@"
 6804      41068004 
 6804      85118804 
 6804      801640
 6805 10a61 4A80089D 		.ascii	"J\200\010\235\001`\220\014\025\206\345\300\013o\251"
 6805      0160900C 
 6805      1586E5C0 
 6805      0B6FA9
 6806 10a70 8645AD1B 		.ascii	"\206E\255\033\201\261$\004\203!\013\021\341\020TFA\006"
 6806      81B12404 
 6806      83210B11 
 6806      E1105446 
 6806      4106
 6807 10a82 00B68004 		.ascii	"\000\266\200\004\341\020\214\013\000\266\350\030\\\310"
 6807      E1108C0B 
 6807      00B6E818 
 6807      5CC8
 6808 10a90 8008A804 		.ascii	"\200\010\250\004`\220@J\200\305\227\001o\251\014\025"
 6808      6090404A 
 6808      80C59701 
 6808      6FA90C15 
 6809 10aa0 B51BC00B 		.ascii	"\265\033\300\013 \024\202\225p\001\004v\006\004\367"
ARM GAS  C:\Temp\ccVQrAGa.s 			page 375


 6809      20148295 
 6809      70010476 
 6809      0604F7
 6810 10aaf AB80BB7A 		.ascii	"\253\200\273z\200L5\204.\300\013o\251a\020A\006\000"
 6810      804C3584 
 6810      2EC00B6F 
 6810      A9611041 
 6810      0600
 6811 10ac1 04831100 		.ascii	"\004\203\021\000\026\203!\341\000A\006\201\021\000\004"
 6811      168321E1 
 6811      00410681 
 6811      110004
 6812 10ad0 91110016 		.ascii	"\221\021\000\026\000\026\244\004ZX\215\021\214\013h"
 6812      0016A404 
 6812      5A588D11 
 6812      8C0B68
 6813 10adf 18026620 		.ascii	"\030\002f \004\367\253p\001\234\004\200\036\304\031"
 6813      04F7AB70 
 6813      019C0480 
 6813      1EC419
 6814 10aee 80189C14 		.ascii	"\200\030\234\024\200\026D\000\204\010\000\264|@\204"
 6814      80164400 
 6814      840800B4 
 6814      7C4084
 6815 10afd 26FA80F2 		.ascii	"&\372\200\362|\014L\301\303\335\223\372|\004\014\354"
 6815      7C0C4CC1 
 6815      C3DD93FA 
 6815      7C040CEC 
 6816 10b0d 501EF061 		.ascii	"P\036\360a8S\006$\004\200k\340\004\002\006l\035L\021"
 6816      38530624 
 6816      04806BE0 
 6816      0402066C 
 6816      1D4C11
 6817 10b20 54C6402B 		.ascii	"T\306@+Q\006\3418\200\030\3414\200\026\302\031\200\030"
 6817      5106E138 
 6817      8018E134 
 6817      8016C219 
 6817      8018
 6818 10b32 A404F3F8 		.ascii	"\244\004\363\370B\020\250\004\200\026B\020\200\030\000"
 6818      4210A804 
 6818      80164210 
 6818      801800
 6819 10b41 16F3F8E0 		.ascii	"\026\363\370\340\004\002\026L\021\240\004\300+l\035"
 6819      0402164C 
 6819      11A004C0 
 6819      2B6C1D
 6820 10b50 8C0B0016 		.ascii	"\214\013\000\026\350\030{hm\025\014\011\200{@,\340\204"
 6820      E8187B68 
 6820      6D150C09 
 6820      807B402C 
 6820      E084
 6821 10b62 404A400A 		.ascii	"@J@\012\202E\202\345\340\210m!\014\031B\012\300,\202"
 6821      824582E5 
 6821      E0886D21 
 6821      0C19420A 
 6821      C02C82
 6822 10b75 25E08861 		.ascii	"%\340\210a8\000F\200\004\211\021\014\011\200\026\300"
ARM GAS  C:\Temp\ccVQrAGa.s 			page 376


 6822      38004680 
 6822      0489110C 
 6822      098016C0 
 6823 10b85 2C6D15F8 		.ascii	",m\025\370\034\000J\001u\200\225\351\234N\012m\021\014"
 6823      1C004A01 
 6823      758095E9 
 6823      9C4E0A6D 
 6823      110C
 6824 10b97 19A11BC0 		.ascii	"\031\241\033\300,\340\000\016\032 \001\002X@\012\300"
 6824      2CE0000E 
 6824      1A200102 
 6824      58400AC0 
 6825 10ba7 00400AE9 		.ascii	"\000@\012\351\234\206\305\351\234\340\224@J\014\011"
 6825      9C86C5E9 
 6825      9CE09440 
 6825      4A0C09
 6826 10bb6 8865C02D 		.ascii	"\210e\300-c\021\206\325\241\013\002& \004L\021\340\004"
 6826      631186D5 
 6826      A10B0226 
 6826      20044C11 
 6826      E004
 6827 10bc8 402B6C1D 		.ascii	"@+l\035\341\020\026F\243\021\000\026\000\026\254\004"
 6827      E1101646 
 6827      A3110016 
 6827      0016AC04 
 6828 10bd8 64788C0B 		.ascii	"dx\214\013\014\011\350\000@,n\235\254\024\200{\241{"
 6828      0C09E800 
 6828      402C6E9D 
 6828      AC14807B 
 6828      A17B
 6829 10bea 84060006 		.ascii	"\204\006\000\006\200\345\207\021a8\200\034\200\004@"
 6829      80E58711 
 6829      6138801C 
 6829      800440
 6830 10bf9 469B9580 		.ascii	"F\233\225\200\024\341\000D \204(\004&\363\354\341<\002"
 6830      14E10044 
 6830      20842804 
 6830      26F3ECE1 
 6830      3C02
 6831 10c0b 86842884 		.ascii	"\206\204(\204\024\374\234\004$\200\004\204&\310\031"
 6831      14FC9C04 
 6831      24800484 
 6831      26C819
 6832 10c1a 80180C09 		.ascii	"\200\030\014\011\200\026\300,m\025\340\200@\012\014"
 6832      8016C02C 
 6832      6D15E080 
 6832      400A0C
 6833 10c29 0980C5C0 		.ascii	"\011\200\305\300-c\021\232\245\241\013a8\000\006\200"
 6833      2D63119A 
 6833      A5A10B61 
 6833      38000680 
 6834 10c39 0487110C 		.ascii	"\004\207\021\014\011\200\034\300,m\025\340\204@\012"
 6834      09801CC0 
 6834      2C6D15E0 
 6834      84400A
 6835 10c48 0C0980E5 		.ascii	"\014\011\200\345\300,m!\340\204@\012\014\011\216u\300"
 6835      C02C6D21 
ARM GAS  C:\Temp\ccVQrAGa.s 			page 377


 6835      E084400A 
 6835      0C098E75 
 6835      C0
 6836 10c59 2C6D1128 		.ascii	",m\021(\305\241\013\200\000\016\006\002f \004L\021\340"
 6836      C5A10B80 
 6836      000E0602 
 6836      6620044C 
 6836      11E0
 6837 10c6b 04402B6C 		.ascii	"\004@+l\035\241!\241\261\000`\000\026\300nd\201\002"
 6837      1DA121A1 
 6837      B1006000 
 6837      16C06E64 
 6837      8102
 6838 10c7d F0017541 		.ascii	"\360\001uA8\344\020\354\004\004 \241+\3056e8\376u\214"
 6838      38E410EC 
 6838      040420A1 
 6838      2BC53665 
 6838      38FE758C 
 6839 10c91 0B681C8C 		.ascii	"\013h\034\214\033\014\013\350\004C(\000`\000{\300nd"
 6839      1B0C0BE8 
 6839      04432800 
 6839      60007BC0 
 6839      6E64
 6840 10ca3 8102F001 		.ascii	"\201\002\360\001uE(\344\020\354\004\026\260\241\273"
 6840      754528E4 
 6840      10EC0416 
 6840      B0A1BB
 6841 10cb2 C1260C09 		.ascii	"\301&\014\011\376u\300-g\311\234\325\245\013h\000tH"
 6841      FE75C02D 
 6841      67C99CD5 
 6841      A50B6800 
 6841      7448
 6842 10cc4 0F258C0B 		.ascii	"\017%\214\013 \004\200{\340\004\002Fl\035L\021\000\026"
 6842      2004807B 
 6842      E0040246 
 6842      6C1D4C11 
 6842      0016
 6843 10cd6 C02BE138 		.ascii	"\300+\3418\000F\205\021\000\004\214\013\000\026h\000"
 6843      00468511 
 6843      00048C0B 
 6843      00166800 
 6844 10ce6 7B28807B 		.ascii	"{(\200{\214\033\214\005\241{a8\000\006\200\024\211!"
 6844      8C1B8C05 
 6844      A17B6138 
 6844      00068014 
 6844      8921
 6845 10cf8 0336042C 		.ascii	"\0036\004,\000\004\340\010L\021\213!\300+l\035\213\005"
 6845      0004E008 
 6845      4C118B21 
 6845      C02B6C1D 
 6845      8B05
 6846 10d0a 802C0236 		.ascii	"\200,\0026 \004L\021\340\004\300+l\035\000F\000\026"
 6846      20044C11 
 6846      E004C02B 
 6846      6C1D0046 
 6846      0016
 6847 10d1c 0004E138 		.ascii	"\000\004\3418\000\026\203\021DX\214\013\014\011\350"
ARM GAS  C:\Temp\ccVQrAGa.s 			page 378


 6847      00168311 
 6847      44588C0B 
 6847      0C09E8
 6848 10d2b 1C402D67 		.ascii	"\034@-g\311\241\013\200{p\230\200\265\214\013h\000\000"
 6848      C9A10B80 
 6848      7B709880 
 6848      B58C0B68 
 6848      0000
 6849 10d3d 06807BA1 		.ascii	"\006\200{\241{a8\207\021\000\004\214\025\200\034k\030"
 6849      7B613887 
 6849      1100048C 
 6849      15801C6B 
 6849      18
 6850 10d4e EF958C0B 		.ascii	"\357\225\214\013o\370c\021\014\011@\012\300-\202u\340"
 6850      6FF86311 
 6850      0C09400A 
 6850      C02D8275 
 6850      E0
 6851 10d5f 806FF875 		.ascii	"\200o\370u\250kX\214\013\214\013o\370o\370n\210\201"
 6851      A86B588C 
 6851      0B8C0B6F 
 6851      F86FF86E 
 6851      8881
 6852 10d71 858C0B6F 		.ascii	"\205\214\013o\370W\310\014\013\214\013Y8\214\033\026"
 6852      F857C80C 
 6852      0B8C0B59 
 6852      388C1B16 
 6853 10d81 06EFF889 		.ascii	"\006\357\370\211\021a8\000\034\254\004\340\010\0016"
 6853      11613800 
 6853      1CAC04E0 
 6853      080136
 6854 10d90 6C1D4C01 		.ascii	"l\035L\001\214\013@+\357\360RH\200{,\004\213\021!{\021"
 6854      8C0B402B 
 6854      EFF05248 
 6854      807B2C04 
 6854      8B11217B 
 6855 10da5 E8801C28 		.ascii	"\350\200\034(\004\200\000\200\030\241{\200\026\302\031"
 6855      04800080 
 6855      18A17B80 
 6855      16C219
 6856 10db4 8018A404 		.ascii	"\200\030\244\004\200\026\302\031\200\030\244\004\363"
 6856      8016C219 
 6856      8018A404 
 6856      F3
 6857 10dc1 F8421092 		.ascii	"\370B\020\222\305\200\026\241{$\004\302\031\200\030"
 6857      C58016A1 
 6857      7B2404C2 
 6857      198018
 6858 10dd0 A4048016 		.ascii	"\244\004\200\026B\020\200\030\200\026\363\370\200\030"
 6858      42108018 
 6858      8016F3F8 
 6858      8018
 6859 10dde A804F3F8 		.ascii	"\250\004\363\370B\020\212\225\200\026o\370c\310 \004"
 6859      42108A95 
 6859      80166FF8 
 6859      63C82004 
 6860 10dee 8C0BE004 		.ascii	"\214\013\340\004\002\266l\035L\021\200\026\300+\357"
ARM GAS  C:\Temp\ccVQrAGa.s 			page 379


 6860      02B66C1D 
 6860      4C118016 
 6860      C02BEF
 6861 10dfd FC51E861 		.ascii	"\374Q\350a<\020\206 \004\203\221\200\030\203!\363\274"
 6861      3C108620 
 6861      04839180 
 6861      188321F3 
 6861      BC
 6862 10e0e 421000C6 		.ascii	"B\020\000\306\000\026\200\004\341\020B\020\200\030\000"
 6862      00168004 
 6862      E1104210 
 6862      801800
 6863 10e1d 16F3F840 		.ascii	"\026\363\370@\030\225\021\214\013h\030a\020AF\200\024"
 6863      1895118C 
 6863      0B681861 
 6863      10414680 
 6863      14
 6864 10e2e 81218004 		.ascii	"\201!\200\004\204&\240\004\200\226\340\031\200\030\000"
 6864      8426A004 
 6864      8096E019 
 6864      801800
 6865 10e3d 06801642 		.ascii	"\006\200\026B\346a8\000\004\340\000\000\034\250\361"
 6865      E6613800 
 6865      04E00000 
 6865      1CA8F1
 6866 10e4c E13C0086 		.ascii	"\341<\000\206\200\030\200\004\361\374B\020\216\013\000"
 6866      80188004 
 6866      F1FC4210 
 6866      8E0B00
 6867 10e5b 16F27C0C 		.ascii	"\026\362|\014\014\014\011\335\223\300,m\025\340\210"
 6867      0C0C09DD 
 6867      93C02C6D 
 6867      15E088
 6868 10e6a 400A0C19 		.ascii	"@\012\014\031\214%\300,m!\340\210B\012 \004\212e\340"
 6868      8C25C02C 
 6868      6D21E088 
 6868      420A2004 
 6868      8A65E0
 6869 10e7d 0402766C 		.ascii	"\004\002vl\035L\021\000\026\300+\3418\000F\207\021\000"
 6869      1D4C1100 
 6869      16C02BE1 
 6869      38004687 
 6869      1100
 6870 10e8f 048C0B00 		.ascii	"\004\214\013\000\026\350\000{\250g\311\014\011\201q"
 6870      16E8007B 
 6870      A867C90C 
 6870      098171
 6871 10e9e 402D80B5 		.ascii	"@-\200\265\247\013h\000e(\200{\214\013c\021\014\011"
 6871      A70B6800 
 6871      6528807B 
 6871      8C0B6311 
 6871      0C09
 6872 10eb0 404AC02D 		.ascii	"@J\300-\200\345\340\200o\374Lhw\370\214\013\214\013"
 6872      80E5E080 
 6872      6FFC4C68 
 6872      77F88C0B 
 6872      8C0B
ARM GAS  C:\Temp\ccVQrAGa.s 			page 380


 6873 10ec2 6814E035 		.ascii	"h\024\3405\241{m\025\014\011@\012\300,\206E\340\214"
 6873      A17B6D15 
 6873      0C09400A 
 6873      C02C8645 
 6873      E08C
 6874 10ed4 02862004 		.ascii	"\002\206 \004L\021\340\004\300+l\035\214\013\000\026"
 6874      4C11E004 
 6874      C02B6C1D 
 6874      8C0B0016 
 6875 10ee4 E80079C8 		.ascii	"\350\000y\310g\311\014\011\200{@-\200\265\251\013h\000"
 6875      67C90C09 
 6875      807B402D 
 6875      80B5A90B 
 6875      6800
 6876 10ef6 62A8807B 		.ascii	"b\250\200{\214\013\330\265\241{m\025\014\011@\012\300"
 6876      8C0BD8B5 
 6876      A17B6D15 
 6876      0C09400A 
 6876      C0
 6877 10f07 2C8425E0 		.ascii	",\204%\340\220o\324oH \004\214\013\340\004\002\226l"
 6877      906FD46F 
 6877      4820048C 
 6877      0BE00402 
 6877      966C
 6878 10f19 1D4C1100 		.ascii	"\035L\021\000\026\300+{\370\214\013\014\011\357\304"
 6878      16C02B7B 
 6878      F88C0B0C 
 6878      09EFC4
 6879 10f28 C02C6D15 		.ascii	"\300,m\025`\210@\012\322e\201qm!\014\011@\012\300,\320"
 6879      6088400A 
 6879      D2658171 
 6879      6D210C09 
 6879      400AC02C 
 6880 10f3d A5E08802 		.ascii	"\245\340\210\002\246 \004L\021\340\004\300+l\035\014"
 6880      A620044C 
 6880      11E004C0 
 6880      2B6C1D0C 
 6881 10f4d 098016C0 		.ascii	"\011\200\026\300-c\021\340\200@Jp\370\204%\214\013o"
 6881      2D6311E0 
 6881      80404A70 
 6881      F884258C 
 6881      0B6F
 6882 10f5f F86FF870 		.ascii	"\370o\370pHo\030\214\013\214\013o\370o\370ohy\030\214"
 6882      486F188C 
 6882      0B8C0B6F 
 6882      F86FF86F 
 6882      6879188C 
 6883 10f73 0B8C0B68 		.ascii	"\013\214\013h\000M\330\2035\214\013h\034o\370b\210\001"
 6883      004DD883 
 6883      358C0B68 
 6883      1C6FF862 
 6883      8801
 6884 10f85 958C0B01 		.ascii	"\225\214\013\0011\201\001\014\033\214\013PX\216+\202"
 6884      3181010C 
 6884      1B8C0B50 
 6884      588E2B82 
 6885 10f95 71EFF8E0 		.ascii	"q\357\370\340@\016\012!\013\374\36518\200{|8\337\374"
ARM GAS  C:\Temp\ccVQrAGa.s 			page 381


 6885      400E0A21 
 6885      0BFCF531 
 6885      38807B7C 
 6885      38DFFC
 6886 10fa8 8C0B6800 		.ascii	"\214\013h\000f5\014\013\201q@\026\340\200@J\237\374"
 6886      66350C0B 
 6886      81714016 
 6886      E080404A 
 6886      9FFC
 6887 10fba 30886FF8 		.ascii	"0\210o\370X(\014\011\214\013\300-c\021\340\200@\012"
 6887      58280C09 
 6887      8C0BC02D 
 6887      6311E080 
 6887      400A
 6888 10fcc 62F88EB5 		.ascii	"b\370\216\265\214\013o\370o\370Yh\\\370\214\013\214"
 6888      8C0B6FF8 
 6888      6FF85968 
 6888      5CF88C0B 
 6888      8C
 6889 10fdd 0B6FF80C 		.ascii	"\013o\370\014\011\207e\300-g\311\202\025\243\013h\000"
 6889      098765C0 
 6889      2D67C982 
 6889      15A30B68 
 6889      00
 6890 10fee 5AE8807B 		.ascii	"Z\350\200{\214\013-\250\241{ \004\337\374\340\004\002"
 6890      8C0B2DA8 
 6890      A17B2004 
 6890      DFFCE004 
 6890      02
 6891 10fff 566C1D4C 		.ascii	"Vl\035L\021\200\026\300+l\201\014\011\002\000\300,\345"
 6891      118016C0 
 6891      2B6C810C 
 6891      090200C0 
 6891      2CE5
 6892 11011 1DEC0440 		.ascii	"\035\354\004@\306\202\305\203\021a\004\000\026\200\004"
 6892      C682C583 
 6892      11610400 
 6892      168004
 6893 11020 E10C0186 		.ascii	"\341\014\001\206\002\006\000\004\200\036\350\000\377"
 6893      02060004 
 6893      801EE800 
 6893      FF
 6894 1102d FC215840 		.ascii	"\374!X@\306\241\013\002\006\001\004\000\005\200\000"
 6894      C6A10B02 
 6894      06010400 
 6894      058000
 6895 1103c 40118000 		.ascii	"@\021\200\000 \250\200\000B\030\377\374\214\013o\370"
 6895      20A88000 
 6895      4218FFFC 
 6895      8C0B6FF8 
 6896 1104c 43B62004 		.ascii	"C\266 \004L\021\340\010\300+l\035\203\021\000\026h\000"
 6896      4C11E008 
 6896      C02B6C1D 
 6896      83110016 
 6896      6800
 6897 1105e 7B485735 		.ascii	"{HW5\214\013\301\303\200{\372|\004\014\3540\036\360"
 6897      8C0BC1C3 
ARM GAS  C:\Temp\ccVQrAGa.s 			page 382


 6897      807BFA7C 
 6897      040CEC30 
 6897      1EF0
 6898 11070 0486006B 		.ascii	"\004\206\000k\014\011\341<\3008c\025\014\031\245\013"
 6898      0C09E13C 
 6898      C0386315 
 6898      0C19A50B 
 6899 11080 402C0E99 		.ascii	"@,\016\231\301\024\001\006\300\000\000\005\200\000\002"
 6899      C1140106 
 6899      C0000005 
 6899      800002
 6900 1108f 06811001 		.ascii	"\006\201\020\001\006\200\000\000\005A\006\000\026\200"
 6900      06800000 
 6900      05410600 
 6900      1680
 6901 1109d 04E114E0 		.ascii	"\004\341\024\340\031\200\030\210\004\200\026B\020\200"
 6901      19801888 
 6901      04801642 
 6901      1080
 6902 110ab 188016F3 		.ascii	"\030\200\026\363\334\200\030\210\004\363\274B\020\000"
 6902      DC801888 
 6902      04F3BC42 
 6902      1000
 6903 110b9 C6001680 		.ascii	"\306\000\026\200\004\341\020\302\031\200\030\214\013"
 6903      04E110C2 
 6903      1980188C 
 6903      0B
 6904 110c6 0016EFE4 		.ascii	"\000\026\357\344ZH\201\001>\016P\206<\016\003\221\341"
 6904      5A488101 
 6904      3E0E5086 
 6904      3C0E0391 
 6904      E1
 6905 110d7 24E1244E 		.ascii	"$\341$NFa$T\306\241\205\201\001\000\006|\016L\001\340"
 6905      46612454 
 6905      C6A18581 
 6905      0100067C 
 6905      0E4C01E0 
 6906 110eb 08C02B6C 		.ascii	"\010\300+l\035\357\324Y\210`\010\000\026\340\020B\306"
 6906      1DEFD459 
 6906      88600800 
 6906      16E01042 
 6906      C6
 6907 110fc 6C1D4C01 		.ascii	"l\035L\001\201!@+h\024i\010\000\306\214\013\200\004"
 6907      8121402B 
 6907      68146908 
 6907      00C68C0B 
 6907      8004
 6908 1110e E1448165 		.ascii	"\341D\201e\200\270\357\324Yhc)L\221\240\004\3008@\012"
 6908      80B8EFD4 
 6908      59686329 
 6908      4C91A004 
 6908      C038400A 
 6909 11122 800880C5 		.ascii	"\200\010\200\305\340\200c)\014\011\241\013\3008V\012"
 6909      E0806329 
 6909      0C09A10B 
 6909      C038560A 
 6910 11132 8245FAE5 		.ascii	"\202E\372\345\340\214c)\014\011\241\013\3008\375E\372"
ARM GAS  C:\Temp\ccVQrAGa.s 			page 383


 6910      E08C6329 
 6910      0C09A10B 
 6910      C038FD45 
 6910      FA
 6911 11143 55E8146D 		.ascii	"U\350\024m\350\200\010\240\004\340\204@J\014\011\200"
 6911      E88008A0 
 6911      04E08440 
 6911      4A0C0980 
 6912 11153 C5C03863 		.ascii	"\305\3008c)\200\305\241\013\357\324W(c)L\221U\370\300"
 6912      2980C5A1 
 6912      0BEFD457 
 6912      2863294C 
 6912      9155F8C0 
 6913 11167 3855B8EF 		.ascii	"8U\270\357\300\000&\357\324"
 6913      C00026EF 
 6913      D4
 6914 11170 42866008 		.ascii	"B\206`\010L\001\340<@+l\035e8\201!\214\013h\024\341"
 6914      4C01E03C 
 6914      402B6C1D 
 6914      65388121 
 6914      8C0B6814 
 6915 11185 4400C680 		.ascii	"D\000\306\200\270\200\004U\230\201eL\221\357\324\300"
 6915      B8800455 
 6915      9881654C 
 6915      91EFD4C0 
 6916 11195 38632980 		.ascii	"8c)\200\010\234\004\340\200@JV\012\202E\374\205\340"
 6916      089C04E0 
 6916      80404A56 
 6916      0A8245FC 
 6916      85E0
 6917 111a7 8C63290C 		.ascii	"\214c)\014\011\241\013\3008\375\225\372\365\350\024"
 6917      09A10BC0 
 6917      38FD95FA 
 6917      F5E814
 6918 111b6 6A688008 		.ascii	"jh\200\010\234\004\340\204@J\014\011\200\305\3008c)"
 6918      9C04E084 
 6918      404A0C09 
 6918      80C5C038 
 6918      6329
 6919 111c8 8285A10B 		.ascii	"\202\205\241\013\357\324S\250\341<\000\206\200\030\200"
 6919      EFD453A8 
 6919      E13C0086 
 6919      801880
 6920 111d7 048016D0 		.ascii	"\004\200\026\320\031c)L\221\000\206\3008\200\004\341"
 6920      1963294C 
 6920      910086C0 
 6920      388004E1 
 6921 111e7 3CD01980 		.ascii	"<\320\031\200\030Q\270\200\026\014\011\357\300\300,"
 6921      1851B880 
 6921      160C09EF 
 6921      C0C02C
 6922 111f6 6EA90106 		.ascii	"n\251\001\006\243\013\000\005\201\020@\221\200\000\236"
 6922      A30B0005 
 6922      81104091 
 6922      80009E
 6923 11205 258000E1 		.ascii	"%\200\000\341\024\000\306\200\010\200\004\340\204@\012"
 6923      1400C680 
ARM GAS  C:\Temp\ccVQrAGa.s 			page 384


 6923      088004E0 
 6923      84400A
 6924 11214 50589AA5 		.ascii	"PX\232\245\0006\357\324B&`\010L\001\340\004@+l\035_"
 6924      0036EFD4 
 6924      42266008 
 6924      4C01E004 
 6924      402B6C1D 
 6925 11229 D881218C 		.ascii	"\330\201!\214\013h\024\341D\000\306\200\270\200\004"
 6925      0B6814E1 
 6925      4400C680 
 6925      B88004
 6926 11238 50388165 		.ascii	"P8\201eL\221\357\324\3008c)\200\010\250\004\340\200"
 6926      4C91EFD4 
 6926      C0386329 
 6926      8008A804 
 6926      E080
 6927 1124a 404A560A 		.ascii	"@JV\012\202E\374\205\340\214c)\014\011\241\013\3008"
 6927      8245FC85 
 6927      E08C6329 
 6927      0C09A10B 
 6927      C038
 6928 1125c FD95FAF5 		.ascii	"\375\225\372\365\350\024e\010\200\010\250\004\340\204"
 6928      E8146508 
 6928      8008A804 
 6928      E084
 6929 1126a 404A0C09 		.ascii	"@J\014\011\200\305\3008c)\222%\241\013\351\015\374\004"
 6929      80C5C038 
 6929      63299225 
 6929      A10BE90D 
 6929      FC04
 6930 1127c 4D389025 		.ascii	"M8\220%\000\306\357\300WFa\020\000\004\341\020\200\030"
 6930      00C6EFC0 
 6930      57466110 
 6930      0004E110 
 6930      8018
 6931 1128e 8321F3F8 		.ascii	"\203!\363\370B\020\201\021\000\026\000\026\254\004\\"
 6931      42108111 
 6931      00160016 
 6931      AC045C
 6932 1129d 3895118C 		.ascii	"8\225\021\214\013h\024CF,\004\004\206\341\020\000\226"
 6932      0B681443 
 6932      462C0404 
 6932      86E11000 
 6932      96
 6933 112ae E13CE114 		.ascii	"\341<\341\024\000\306\200\010\200\004\340\204@J@\000"
 6933      00C68008 
 6933      8004E084 
 6933      404A4000 
 6934 112be 0205C000 		.ascii	"\002\005\300\000\002\006\300\000@\021\200\030\210\004"
 6934      0206C000 
 6934      40118018 
 6934      8804
 6935 112cc F3DC4210 		.ascii	"\363\334B\020\210\004\200\026B\020\200\030\000\026\363"
 6935      88048016 
 6935      42108018 
 6935      0016F3
 6936 112db BCE11000 		.ascii	"\274\341\020\000\306\200\030\200\004\000\026\302\031"
ARM GAS  C:\Temp\ccVQrAGa.s 			page 385


 6936      C6801880 
 6936      040016C2 
 6936      19
 6937 112e8 E00C41F6 		.ascii	"\340\014A\366\374\004\276\016\350\015\202\001\237\374"
 6937      FC04BE0E 
 6937      E80D8201 
 6937      9FFC
 6938 112f6 2F88BC0E 		.ascii	"/\210\274\016\276\004J\030\201\205L\221\357\324\300"
 6938      BE044A18 
 6938      81854C91 
 6938      EFD4C0
 6939 11305 386329EF 		.ascii	"8c)\357\300H\350c\025\014\011O\006@8\245\013\341\024"
 6939      C048E863 
 6939      150C094F 
 6939      064038A5 
 6939      0BE114
 6940 11318 70B88215 		.ascii	"p\270\202\025\214\013o\370L\001\274\016\3008c)\341<"
 6940      8C0B6FF8 
 6940      4C01BC0E 
 6940      C0386329 
 6940      E13C
 6941 1132a 00868018 		.ascii	"\000\206\200\030\200\004\200\026\340\031\200\030\234"
 6941      80048016 
 6941      E0198018 
 6941      9C
 6942 11337 04F3BC42 		.ascii	"\004\363\274B\020<\004\200\026\014\014\230\361\335\223"
 6942      103C0480 
 6942      160C0C98 
 6942      F1DD93
 6943 11346 F27CFA7C 		.ascii	"\362|\372|\004\014\3540\036\360\010\011\200K\300-g\315"
 6943      040CEC30 
 6943      1EF00809 
 6943      804BC02D 
 6943      67CD
 6944 11358 E08C400A 		.ascii	"\340\214@\012\010\013\226\325@\026k\341f\201\022@\024"
 6944      080B96D5 
 6944      40166BE1 
 6944      66811240 
 6944      14
 6945 11369 40C0B540 		.ascii	"@\300\265@\265eA\274N\201qs\361@\000\210\003\300\377"
 6945      B56541BC 
 6945      4E817173 
 6945      F1400088 
 6945      03C0FF
 6946 1137c 64011000 		.ascii	"d\001\020\000\000@@(\300\263f\261\000@|\016\300\234"
 6946      00404028 
 6946      C0B366B1 
 6946      00407C0E 
 6946      C09C
 6947 1138e 674187B5 		.ascii	"gA\207\265\276\016|\004\250\012s\361L\000(\272\300\377"
 6947      BE0E7C04 
 6947      A80A73F1 
 6947      4C0028BA 
 6947      C0FF
 6948 113a0 816B8863 		.ascii	"\201k\210cm\230\200\365\210\013h\020\241\013<D\276\004"
 6948      6D9880F5 
 6948      880B6810 
ARM GAS  C:\Temp\ccVQrAGa.s 			page 386


 6948      A10B3C44 
 6948      BE04
 6949 113b2 8C1580F5 		.ascii	"\214\025\200\365\201kh\020k(<D\210\013\210\365\241\013"
 6949      816B6810 
 6949      6B283C44 
 6949      880B88F5 
 6949      A10B
 6950 113c4 A10BA40A 		.ascii	"\241\013\244\012$\012\206\245\244\032\340\267!\013\236"
 6950      240A86A5 
 6950      A41AE0B7 
 6950      210B9E
 6951 113d3 0973C144 		.ascii	"\011s\301D\020 \277\300\377\000\026\311\027\244\277"
 6951      1020BFC0 
 6951      FF0016C9 
 6951      17A4BF
 6952 113e2 0000E686 		.ascii	"\000\000\346\206@\012E\007\341\276\001e\220+Y4\200\033"
 6952      400A4507 
 6952      E1BE0165 
 6952      902B5934 
 6952      801B
 6953 113f4 EC040210 		.ascii	"\354\004\002\020\241\033\311>\304\007\376u\004\221\200"
 6953      A11BC93E 
 6953      C407FE75 
 6953      049180
 6954 11403 83827184 		.ascii	"\203\202q\204\241\344\234\017\012\201\001\360\205\014"
 6954      A1E49C0F 
 6954      0A8101F0 
 6954      850C
 6955 11411 0C98F1DD 		.ascii	"\014\230\361\335\223\362|l\035\010)@\000@+H\001\363"
 6955      93F27C6C 
 6955      1D082940 
 6955      00402B48 
 6955      01F3
 6956 11423 F4402D67 		.ascii	"\364@-g\315\340\014\0166`\014\0026u8\210\013#\013\357"
 6956      CDE00C0E 
 6956      36600C02 
 6956      36753888 
 6956      0B230BEF 
 6957 11437 CC0E0698 		.ascii	"\314\016\006\230\361\216\013\300\000\362|\014\014\301"
 6957      F18E0BC0 
 6957      00F27C0C 
 6957      0CC1
 6958 11445 C3DD93FA 		.ascii	"\303\335\223\372\014\004\014\202{\000km!\014\011\201"
 6958      0C040C82 
 6958      7B006B6D 
 6958      210C0981 
 6959 11455 81402CE0 		.ascii	"\201@,\340\204@\012@\306\212\345\2051a\004\203A\000"
 6959      84400A40 
 6959      C68AE585 
 6959      31610483 
 6959      4100
 6960 11467 048C0B00 		.ascii	"\004\214\013\000\206c}\014\025yx\300\013\202+h\024c"
 6960      86637D0C 
 6960      157978C0 
 6960      0B822B68 
 6960      1463
 6961 11479 110C0940 		.ascii	"\021\014\011@J\300-\202\305\340\200o\370^\010H\030\214"
ARM GAS  C:\Temp\ccVQrAGa.s 			page 387


 6961      4AC02D82 
 6961      C5E0806F 
 6961      F85E0848 
 6961      188C
 6962 1148b 0B8C0B68 		.ascii	"\013\214\013h\024yA\002\006\214\013]\315\357\370b\310"
 6962      14794102 
 6962      068C0B5D 
 6962      CDEFF862 
 6962      C8
 6963 1149c 0C0B8155 		.ascii	"\014\013\201Ud8\216\033\000\213\357\364F8\214\013\014"
 6963      64388E1B 
 6963      008BEFF4 
 6963      46388C0B 
 6963      0C
 6964 114ad 09E814C0 		.ascii	"\011\350\024\300,m\001e=L\001\220\013\300\"\362\014"
 6964      2C6D0165 
 6964      3D4C0190 
 6964      0BC022F2 
 6964      0C
 6965 114be 0C0CC1C3 		.ascii	"\014\014\301\303\335\223l\201\000\011\002\000\300,\345"
 6965      DD936C81 
 6965      00090200 
 6965      C02CE5
 6966 114cd 1DEC0440 		.ascii	"\035\354\004@\306\202\245\203\021a\004\000\026\200\004"
 6966      C682A583 
 6966      11610400 
 6966      168004
 6967 114dc E10C0186 		.ascii	"\341\014\001\206\002\006\000\004\200\036\350\000\241"
 6967      02060004 
 6967      801EE800 
 6967      A1
 6968 114e9 0BDD93DA 		.ascii	"\013\335\223\332\000\\\010a\004@\306\200\004\201\021"
 6968      005C0861 
 6968      0440C680 
 6968      048111
 6969 114f8 DD938016 		.ascii	"\335\223\200\026\372|\004L\202k\000{m9\016\011\201\201"
 6969      FA7C044C 
 6969      826B007B 
 6969      6D390E09 
 6969      8181
 6970 1150a 402CE080 		.ascii	"@,\340\200@\012\016\011\234\345\300-c\021mAN\201@J\300"
 6970      400A0E09 
 6970      9CE5C02D 
 6970      63116D41 
 6970      4E81404A 
 6971 1151f 2C4070E0 		.ascii	",@p\340\200^8\334\000\024\006\310\000\221\261a8\016"
 6971      805E38DC 
 6971      001406C8 
 6971      0091B161 
 6971      380E
 6972 11531 098BF5C0 		.ascii	"\011\213\365\300-c\021\340\200@\012\022\006\004u\002"
 6972      2D6311E0 
 6972      80400A12 
 6972      06047502 
 6973 11541 06C0005D 		.ascii	"\006\300\000]\315yA]\270\216\013\001\325\357\370\003"
 6973      CD79415D 
 6973      B88E0B01 
ARM GAS  C:\Temp\ccVQrAGa.s 			page 388


 6973      D5EFF803 
 6974 11551 31808B0C 		.ascii	"1\200\213\014\033\216\013b\030\222+\000\213\357\364"
 6974      1B8E0B62 
 6974      18922B00 
 6974      8BEFF4
 6975 11560 120A8291 		.ascii	"\022\012\202\221\374\325\340@mA\016\011\241\013\300"
 6975      FCD5E040 
 6975      6D410E09 
 6975      A10BC0
 6976 1156f 2C000014 		.ascii	",\000\000\024\005\200\000\002f\200\000@\023\015A\016"
 6976      05800002 
 6976      66800040 
 6976      130D410E 
 6977 1157f 09000A80 		.ascii	"\011\000\012\200,\024\005\360\004@\263\200\000\241\213"
 6977      2C1405F0 
 6977      0440B380 
 6977      00A18B
 6978 1158e 00000111 		.ascii	"\000\000\001\021\212\365Qx\216\013\016\011\350\000@"
 6978      8AF55178 
 6978      8E0B0E09 
 6978      E80040
 6979 1159d 2C6D41A1 		.ascii	",mA\241\013\200\213\000\000\024\005\200\000\002v\200"
 6979      0B808B00 
 6979      00140580 
 6979      00027680 
 6980 115ad 0040130D 		.ascii	"\000@\023\015A\016\011\000\012\200,\024\005\360\004"
 6980      410E0900 
 6980      0A802C14 
 6980      05F004
 6981 115bc 02960000 		.ascii	"\002\226\000\000@\023\200\000\241\213\000\000\016\033"
 6981      40138000 
 6981      A18B0000 
 6981      0E1B
 6982 115ca 82954016 		.ascii	"\202\225@\026f5\016)\216\013\300,m\011o\310A\210\200"
 6982      66350E29 
 6982      8E0BC02C 
 6982      6D096FC8 
 6982      418880
 6983 115dd 8B82196D 		.ascii	"\213\202\031mA\016\011\202\001\300,mAN\001\016\011\300"
 6983      410E0982 
 6983      01C02C6D 
 6983      414E010E 
 6983      09C0
 6984 115ef 2CC02C6D 		.ascii	",\300,mAm\021\016\031\303\015\300,\220\013\346u\362"
 6984      416D110E 
 6984      19C30DC0 
 6984      2C900BE6 
 6984      75F2
 6985 11601 7C0C4CC1 		.ascii	"|\014L\301\303\335\223c\201\000\025\2051@\013c\205\000"
 6985      C3DD9363 
 6985      81001585 
 6985      31400B63 
 6985      8500
 6986 11613 25814140 		.ascii	"%\201A@\013\340\024,H\372\000\004\014\014\011\200k\300"
 6986      0BE0142C 
 6986      48FA0004 
 6986      0C0C0980 
ARM GAS  C:\Temp\ccVQrAGa.s 			page 389


 6986      6BC0
 6987 11625 2C6D5160 		.ascii	",mQ`\200@\012\202\205\201\001h\000V\210\014\031\214"
 6987      80400A82 
 6987      85810168 
 6987      0056880C 
 6987      198C
 6988 11637 0BC02D67 		.ascii	"\013\300-g\311@`\253\033h8\234\000\014\031\217\374\300"
 6988      C94060AB 
 6988      1B68389C 
 6988      000C198F 
 6988      FCC0
 6989 11649 2C6D51E0 		.ascii	",mQ\340\204B\012bX\202\205\214\013o\354g\311\014\031"
 6989      84420A62 
 6989      5882858C 
 6989      0B6FEC67 
 6989      C90C19
 6990 1165c B11BC02D 		.ascii	"\261\033\300-\234\000@`\217\374g(mQ\014\031B\012\300"
 6990      9C004060 
 6990      8FFC6728 
 6990      6D510C19 
 6990      420AC0
 6991 1166f 2C82A5E0 		.ascii	",\202\245\340\210h\000V(\014\031\214\013\300-g\311\200"
 6991      88680056 
 6991      280C198C 
 6991      0BC02D67 
 6991      C980
 6992 11681 B5B31B0C 		.ascii	"\265\263\033\014\014\214\013\313\365\362\000\362\000"
 6992      0C8C0BCB 
 6992      F5F200F2 
 6992      00
 6993 1168e 0C0CC1C3 		.ascii	"\014\014\301\303\335\223\372\204\004\014\014\011\200"
 6993      DD93FA84 
 6993      040C0C09 
 6993      80
 6994 1169b 6BC02D65 		.ascii	"k\300-e1\340\200@J\014\011\200\345\300-e5\340\200@\012"
 6994      31E08040 
 6994      4A0C0980 
 6994      E5C02D65 
 6994      35E08040 
 6995 116b0 0D118C85 		.ascii	"\015\021\214\205yA\004\006N\270\335\315\214\013o\370"
 6995      79410406 
 6995      4EB8DDCD 
 6995      8C0B6FF8 
 6996 116c0 8085A10B 		.ascii	"\200\205\241\013\362\204\014\014k\330\335\223\214\013"
 6996      F2840C0C 
 6996      6BD8DD93 
 6996      8C0B
 6997 116ce 6FF46AAD 		.ascii	"o\364j\255\014\011\014y\300+\300,l\375\036y\243\013"
 6997      0C090C79 
 6997      C02BC02C 
 6997      6CFD1E79 
 6997      A30B
 6998 116e0 9C004060 		.ascii	"\234\000@`\010\020k\250\232\200\002tmQ\014\011@\012"
 6998      08106BA8 
 6998      9A800274 
 6998      6D510C09 
 6998      400A
ARM GAS  C:\Temp\ccVQrAGa.s 			page 390


 6999 116f2 C02C8425 		.ascii	"\300,\204%\340\214a4A\006\340\010E\246\002t\000\004"
 6999      E08C6134 
 6999      4106E008 
 6999      45A60274 
 6999      0004
 7000 11704 4C21FA80 		.ascii	"L!\372\200\300+l\035\214\013\000&\350\000Mh\364\365"
 7000      C02B6C1D 
 7000      8C0B0026 
 7000      E8004D68 
 7000      F4F5
 7001 11716 A10B0406 		.ascii	"\241\013\004\006\017\021\335\315yA\014\014\214\013\013"
 7001      0F11DDCD 
 7001      79410C0C 
 7001      8C0B0B
 7002 11725 58F284C1 		.ascii	"X\362\204\301\303\377\370\372\004\004L\201\001\000k"
 7002      C3FFF8FA 
 7002      04044C81 
 7002      01006B
 7003 11734 6FE06568 		.ascii	"o\340eh\000{\201\021\341HA\206\200\010\200\004\340\220"
 7003      007B8111 
 7003      E1484186 
 7003      80088004 
 7003      E090
 7004 11746 400A0C09 		.ascii	"@\012\014\011\214\305\300-g\315\340\204@\012\014\011"
 7004      8CC5C02D 
 7004      67CDE084 
 7004      400A0C09 
 7005 11756 8C05C02C 		.ascii	"\214\005\300,m\025\340\220@J\014\011\200\305\300,l\375"
 7005      6D15E090 
 7005      404A0C09 
 7005      80C5C02C 
 7005      6CFD
 7006 11768 88B5A10B 		.ascii	"\210\265\241\013`<A\366Jx\203\021B\006\357|\214\013"
 7006      603C41F6 
 7006      4A788311 
 7006      4206EF7C 
 7006      8C0B
 7007 1177a 6000EFE0 		.ascii	"`\000\357\340yHa8\001\006\340\014C\366\014)\200\004"
 7007      79486138 
 7007      0106E00C 
 7007      43F60C29 
 7007      8004
 7008 1178c C02D67CD 		.ascii	"\300-g\315\340\210DJ\300\000@\025B\026\3765\214\013"
 7008      E088444A 
 7008      C0004015 
 7008      4216FE35 
 7008      8C0B
 7009 1179e 6000EFE0 		.ascii	"`\000\357\340x(g\315\014\011@\000\300-L\001\363\354"
 7009      782867CD 
 7009      0C094000 
 7009      C02D4C01 
 7009      F3EC
 7010 117b0 C02D67CD 		.ascii	"\300-g\315\216\013\003\021\357\340aH\014L\201\001\335"
 7010      8E0B0311 
 7010      EFE06148 
 7010      0C4C8101 
 7010      DD
ARM GAS  C:\Temp\ccVQrAGa.s 			page 391


 7011 117c1 93F204FE 		.ascii	"\223\362\004\376|\004\014\354`\036\360\200k>\036e\015"
 7011      7C040CEC 
 7011      601EF080 
 7011      6B3E1E65 
 7011      0D
 7012 117d2 0C098111 		.ascii	"\014\011\201\021@+\201\241\013\036\000*\221\034\201"
 7012      402B81A1 
 7012      0B1E002A 
 7012      911C81
 7013 117e1 01600400 		.ascii	"\001`\004\000\230\376\016\300\000@\001dP\002\360w\230"
 7013      98FE0EC0 
 7013      00400164 
 7013      5002F077 
 7013      98
 7014 117f2 8C0B80AB 		.ascii	"\214\013\200\253\357\310`H\002\006d\230\214\013\000"
 7014      EFC86048 
 7014      02066498 
 7014      8C0B00
 7015 11801 60E81440 		.ascii	"`\350\024@\011d\001a\001\022\006|\016\300 \346\344\020"
 7015      09640161 
 7015      0112067C 
 7015      0EC020E6 
 7015      E410
 7016 11813 06817109 		.ascii	"\006\201q\011\025n\031\014\013@\012\300\025\214e\344"
 7016      156E190C 
 7016      0B400AC0 
 7016      158C65E4 
 7017 11823 9CF09C40 		.ascii	"\234\360\234@bh\201\000\271\026\012\300\033\212e\343"
 7017      62688100 
 7017      B9160AC0 
 7017      1B8A65E3 
 7018 11833 FC400101 		.ascii	"\374@\001\001x\276\004\300\000\004\006\241\013\006\026"
 7018      78BE04C0 
 7018      000406A1 
 7018      0B0616
 7019 11842 00244060 		.ascii	"\000$@`\200\000B\220\034\000Bb\234\000E\006P\240\006"
 7019      80004290 
 7019      1C004262 
 7019      9C004506 
 7019      50A006
 7020 11855 46C01840 		.ascii	"F\300\030@`@\000h\370\334\000\0134\350\004\344@\012"
 7020      60400068 
 7020      F8DC000B 
 7020      34E804E4 
 7020      400A
 7021 11867 F08C1B0C 		.ascii	"\360\214\033\014\013\226K|$\357\310u\210\241\253\200"
 7021      0B964B7C 
 7021      24EFC875 
 7021      88A1AB80 
 7022 11877 AB7E1484 		.ascii	"\253~\024\204\265\221\012\201\241\373\200\002\024\376"
 7022      B5910A81 
 7022      A1FB8002 
 7022      14FE
 7023 11885 0E820312 		.ascii	"\016\202\003\022\220\002q\300\002e\001f\301\020\200"
 7023      900271C0 
 7023      02650166 
 7023      C11080
ARM GAS  C:\Temp\ccVQrAGa.s 			page 392


 7024 11894 FE7DC001 		.ascii	"\376}\300\001\376\004\360\005b\231L\003\024\013\300"
 7024      FE04F005 
 7024      62994C03 
 7024      140BC0
 7025 118a3 160C0CB0 		.ascii	"\026\014\014\260\361\335\223\366|\341\020\000\306\200"
 7025      F1DD93F6 
 7025      7CE11000 
 7025      C680
 7026 118b1 188004F3 		.ascii	"\030\200\004\363\370B\020\335\223\200\026\372\204\004"
 7026      F84210DD 
 7026      938016FA 
 7026      8404
 7027 118bf 0C807B02 		.ascii	"\014\200{\002k\357\354y\210\202\265\241\013f5\016\033"
 7027      6BEFEC79 
 7027      8882B5A1 
 7027      0B66350E 
 7027      1B
 7028 118d0 420AC016 		.ascii	"B\012\300\026\200\345\340\200\214\033\016\013\362\204"
 7028      80E5E080 
 7028      8C1B0E0B 
 7028      F284
 7029 118de 0C0CE010 		.ascii	"\014\014\340\020\026\350\362\204\014\014\301\303\335"
 7029      16E8F284 
 7029      0C0CC1C3 
 7029      DD
 7030 118eb 93638900 		.ascii	"\223c\211\000\025\2051@\013\004\020\203A\0258\354(\301"
 7030      15853140 
 7030      0B041083 
 7030      411538EC 
 7030      28C1
 7031 118fd C3E014FA 		.ascii	"\303\340\024\372\000\004\014\014\011\200k\300-g\311"
 7031      00040C0C 
 7031      09806BC0 
 7031      2D67C9
 7032 1190c 8235AD0B 		.ascii	"\2025\255\013o\374Q\310\241\013\214\013\014\011\202"
 7032      6FFC51C8 
 7032      A10B8C0B 
 7032      0C0982
 7033 1191b B5C02D67 		.ascii	"\265\300-g\311p\034\000\012\200\325\201\001\014\014"
 7033      C9701C00 
 7033      0A80D581 
 7033      010C0C
 7034 1192a 8C0B10D8 		.ascii	"\214\013\020\330\362\000\014\014\377\374\335\223\362"
 7034      F2000C0C 
 7034      FFFCDD93 
 7034      F2
 7035 11937 00FA8404 		.ascii	"\000\372\204\004\014\201q\000k"
 7035      0C817100 
 7035      6B
 7036 11940 6D150C09 		.ascii	"m\025\014\011@\012\300,\214\305\340\220o\354U\310Z\270"
 7036      400AC02C 
 7036      8CC5E090 
 7036      6FEC55C8 
 7036      5AB8
 7037 11952 8C0B8C0B 		.ascii	"\214\013\214\013o\354o\354h\350\014\011\214\013@8d\265"
 7037      6FEC6FEC 
 7037      68E80C09 
ARM GAS  C:\Temp\ccVQrAGa.s 			page 393


 7037      8C0B4038 
 7037      64B5
 7038 11964 A10B807B 		.ascii	"\241\013\200{\004!\000`\002`\000\341\200T\007\001\007"
 7038      04210060 
 7038      026000E1 
 7038      80540701 
 7038      07
 7039 11975 41046006 		.ascii	"A\004`\006`\000T\200X\006A\217\320B\250d\271\014\011"
 7039      60005480 
 7039      5806418F 
 7039      D042A864 
 7039      B90C09
 7040 11988 A10BC038 		.ascii	"\241\013\3008\007\001\000`\002`\000T\200T\007A\017\320"
 7040      07010060 
 7040      02600054 
 7040      80540741 
 7040      0FD0
 7041 1199a 47880640 		.ascii	"G\210\006@\004`\014\011\200X\3008c!\200\305\241\013"
 7041      04600C09 
 7041      8058C038 
 7041      632180C5 
 7041      A10B
 7042 119ac 0C0C8C0B 		.ascii	"\014\014\214\013+\270\362\204\216\013\377\354\362\204"
 7042      2BB8F284 
 7042      8E0BFFEC 
 7042      F284
 7043 119ba 0C0CC1C3 		.ascii	"\014\014\301\303\335\223\372\014\004\014\012\206\000"
 7043      DD93FA0C 
 7043      040C0A86 
 7043      00
 7044 119c7 6B0C09EF 		.ascii	"k\014\011\357\334\300,m\015m\025\014\031\014+\300,\300"
 7044      DCC02C6D 
 7044      0D6D150C 
 7044      190C2BC0 
 7044      2CC0
 7045 119d9 1666316C 		.ascii	"\026f1l\355\014y@J@,\014\211\340\200\300,lql\361\014"
 7045      ED0C7940 
 7045      4A402C0C 
 7045      89E080C0 
 7045      2C6C716C 
 7046 119ef 49421040 		.ascii	"IB\020@,\002\024\334 @\012\034\014\006`\340\220\300"
 7046      2C0214DC 
 7046      20400A1C 
 7046      0C0660E0 
 7046      90C0
 7047 11a01 B3053105 		.ascii	"\263\0051\0055\006`\2148\200\263m\021L1F\020@,L1\374"
 7047      3506608C 
 7047      3880B36D 
 7047      114C3146 
 7047      10402C4C 
 7048 11a17 10C02C6D 		.ascii	"\020\300,m\025J\012\224X\004$\340\204\004$\300\204\205"
 7048      154A0A94 
 7048      580424E0 
 7048      840424C0 
 7048      8485
 7049 11a29 4BFA80DC 		.ascii	"K\372\200\334\020\0024\034PB\020\340\214@Jm\025L\021"
 7049      1002341C 
ARM GAS  C:\Temp\ccVQrAGa.s 			page 394


 7049      504210E0 
 7049      8C404A6D 
 7049      154C11
 7050 11a3c 4010402C 		.ascii	"@\020@,L\001\223\360\200,\015\025Tx\200\205\214\013"
 7050      4C0193F0 
 7050      802C0D15 
 7050      54788085 
 7050      8C0B
 7051 11a4e 68046311 		.ascii	"h\004c\021\014\011@\012\300-\014\011\340\200\300,\015"
 7051      0C09400A 
 7051      C02D0C09 
 7051      E080C02C 
 7051      0D
 7052 11a5f 15D3F840 		.ascii	"\025\323\370@\000\015\025L\001\020\012@,\204e\377\374"
 7052      000D154C 
 7052      01100A40 
 7052      2C8465FF 
 7052      FC
 7053 11a70 7A800084 		.ascii	"z\200\000\204\372\200\002t\014\011\201\033\000,\015"
 7053      FA800274 
 7053      0C09811B 
 7053      002C0D
 7054 11a7f 15800002 		.ascii	"\025\200\000\002\006\015\021L\021@\000\200,L\001\223"
 7054      060D114C 
 7054      11400080 
 7054      2C4C0193 
 7055 11a8f E0802C0D 		.ascii	"\340\200,\015\025\014\014\201\001\335\223\362\014\372"
 7055      150C0C81 
 7055      01DD93F2 
 7055      0CFA
 7056 11a9d 00040C68 		.ascii	"\000\004\014h\000C\010H\230\200k\214\013h\014l\021\014"
 7056      00430848 
 7056      98806B8C 
 7056      0B680C6C 
 7056      110C
 7057 11aaf 09400AC0 		.ascii	"\011@\012\300+\204e\340\224\357\334@\006@\012\200\010"
 7057      2B8465E0 
 7057      94EFDC40 
 7057      06400A80 
 7057      08
 7058 11ac0 82B5E080 		.ascii	"\202\265\340\200l!\014\011\247\013\300+O\270\202\265"
 7058      6C210C09 
 7058      A70BC02B 
 7058      4FB882B5 
 7059 11ad0 8C0B6FFC 		.ascii	"\214\013o\374h\004k\010\201E\214\013o\324N\250\241\013"
 7059      68046B08 
 7059      81458C0B 
 7059      6FD44EA8 
 7059      A10B
 7060 11ae2 8C0B5758 		.ascii	"\214\013WX\202U\214\013h\000\200\265\241\013h\000D\350"
 7060      82558C0B 
 7060      680080B5 
 7060      A10B6800 
 7060      44E8
 7061 11af4 81018C0B 		.ascii	"\201\001\214\013\362\000\014\014\301\303\335\223l!\000"
 7061      F2000C0C 
 7061      C1C3DD93 
ARM GAS  C:\Temp\ccVQrAGa.s 			page 395


 7061      6C2100
 7062 11b03 1945C640 		.ascii	"\031E\306@+@!\340\010\300+l\035B&\243\033@\021\200\000"
 7062      2B4021E0 
 7062      08C02B6C 
 7062      1D4226A3 
 7062      1B401180 
 7063 11b18 802B0C1D 		.ascii	"\200+\014\035\247\033\212E\245\033\202\005\200\000B"
 7063      A71B8A45 
 7063      A51B8205 
 7063      800042
 7064 11b27 360C1D40 		.ascii	"6\014\035@\021\205\025\200+\340\000BFl\035@\021\002"
 7064      11851580 
 7064      2BE00042 
 7064      466C1D40 
 7064      1102
 7065 11b39 86402B84 		.ascii	"\206@+\204(\357\334\360\300D \340@\004\012\204(\200"
 7065      28EFDCF0 
 7065      C04420E0 
 7065      40040A84 
 7065      2880
 7066 11b4b E5F0C044 		.ascii	"\345\360\300D \340\200\004\012\204(\200\265\363\334"
 7066      20E08004 
 7066      0A842880 
 7066      B5F3DC
 7067 11b5a 44200029 		.ascii	"D \000)\204&\300+l\021\340\224D\012\300\000\004\026"
 7067      8426C02B 
 7067      6C11E094 
 7067      440AC000 
 7067      0416
 7068 11b6c C0A04221 		.ascii	"\300\240B!n\011\000\033\304\031\300\025n\011@\023\000"
 7068      6E09001B 
 7068      C419C015 
 7068      6E094013 
 7068      00
 7069 11b7d 86401580 		.ascii	"\206@\025\200\030\357\334\363\370B\020\335\223\200\026"
 7069      18EFDCF3 
 7069      F84210DD 
 7069      938016
 7070 11b8c FA9C040C 		.ascii	"\372\234\004\014\201\001\000{o\340Bh\201\201\201\021"
 7070      8101007B 
 7070      6FE04268 
 7070      81818111 
 7071 11b9c 6C210E09 		.ascii	"l!\016\011\200k@+\340\010C\326l\035N\021\245\013\300"
 7071      806B402B 
 7071      E00843D6 
 7071      6C1D4E11 
 7071      A50BC0
 7072 11baf 2BA70B88 		.ascii	"+\247\013\210E\016\013\242u\300\025n\011su@\000\000"
 7072      450E0BA2 
 7072      75C0156E 
 7072      09737540 
 7072      0000
 7073 11bc1 04C0FF4E 		.ascii	"\004\300\377N\003\374\224@\025n\011`\230\216\013H8\357"
 7073      03FC9440 
 7073      156E0960 
 7073      988E0B48 
 7073      38EF
ARM GAS  C:\Temp\ccVQrAGa.s 			page 396


 7074 11bd3 BC8E0B68 		.ascii	"\274\216\013h\000d\325\016\011\247\013\300+\245\013"
 7074      0064D50E 
 7074      09A70BC0 
 7074      2BA50B
 7075 11be2 86050086 		.ascii	"\206\005\000\206\010\305\243\013\217\334\003\325\210"
 7075      08C5A30B 
 7075      8FDC03D5 
 7075      88
 7076 11bef F5EFDC00 		.ascii	"\365\357\334\000\206n\011\016\013@\000\300\025\300\377"
 7076      866E090E 
 7076      0B4000C0 
 7076      15C0FF
 7077 11bfe 7371FC94 		.ascii	"sq\374\224\000\004n\011N\003\014\014\300\025\335\223"
 7077      00046E09 
 7077      4E030C0C 
 7077      C015DD93 
 7078 11c0e F29CEFDC 		.ascii	"\362\234\357\334\000\206BJ\200\030\200\345\340\214l"
 7078      0086424A 
 7078      801880E5 
 7078      E08C6C
 7079 11c1d 150E1942 		.ascii	"\025\016\031B\012\300+\200\245\340\204\001U\200\010"
 7079      0AC02B80 
 7079      A5E08401 
 7079      558008
 7080 11c2c FC080004 		.ascii	"\374\010\000\004\310\011\200\010\357\334\002\206O\230"
 7080      C8098008 
 7080      EFDC0286 
 7080      4F98
 7081 11c3a 84068E0B 		.ascii	"\204\006\216\013o\344\357\334\022\206@\012\244\010\202"
 7081      6FE4EFDC 
 7081      1286400A 
 7081      A40882
 7082 11c49 B5E08040 		.ascii	"\265\340\200@\012\244\010\202\365\340\210\216\013=\021"
 7082      0AA40882 
 7082      F5E0888E 
 7082      0B3D11
 7083 11c58 EFE05268 		.ascii	"\357\340Rhh\000Ih\207%\216\013\216\013?\021\362\234"
 7083      68004968 
 7083      87258E0B 
 7083      8E0B3F11 
 7083      F29C
 7084 11c6a 0C0CFFE0 		.ascii	"\014\014\377\340\021\310n\011\016\005\002\006@\011\300"
 7084      11C86E09 
 7084      0E050206 
 7084      4009C0
 7085 11c79 FA6001E0 		.ascii	"\372`\001\340\002@\032d\315\016\025\004\004\300\005"
 7085      02401A64 
 7085      CD0E1504 
 7085      04C005
 7086 11c88 D017E184 		.ascii	"\320\027\341\204\302\015\204\023\300\000\000F\000\002"
 7086      C20D8413 
 7086      C0000046 
 7086      0002
 7087 11c96 401AE14C 		.ascii	"@\032\341L\003\206\004\016\204\024\016\013\225\021\300"
 7087      0386040E 
 7087      84140E0B 
 7087      9511C0
ARM GAS  C:\Temp\ccVQrAGa.s 			page 397


 7088 11ca5 156E09FC 		.ascii	"\025n\011\374\230\000\004n\011N\003\216\013@\025\357"
 7088      9800046E 
 7088      094E038E 
 7088      0B4015EF 
 7089 11cb5 E04F8860 		.ascii	"\340O\210`<A\366`\030\203\021G\330\357xR\201\357\360"
 7089      3C41F660 
 7089      18831147 
 7089      D8EF7852 
 7089      81EFF0
 7090 11cc8 0311E0A0 		.ascii	"\003\021\340\240\014\014\214\0138x\362\234\301\303\377"
 7090      0C0C8C0B 
 7090      3878F29C 
 7090      C1C3FF
 7091 11cd7 DCFA0004 		.ascii	"\334\372\000\004\014\001F\000k\000\004\341$\340\010"
 7091      0C014600 
 7091      6B0004E1 
 7091      24E008
 7092 11ce6 43E66C1D 		.ascii	"C\346l\035L\021EF@+\014\025\341$\300\011n\011\210$\200"
 7092      4C114546 
 7092      402B0C15 
 7092      E124C009 
 7092      6E098824 
 7093 11cfb 080834C5 		.ascii	"\010\0104\305\007\360\014D\000h\020y\250\002\206\214"
 7093      07F00C44 
 7093      00681079 
 7093      A802868C 
 7094 11d0b 0B48866F 		.ascii	"\013H\206o\334\206\016\340<\304$\206\004h\261\014;H"
 7094      DC860EE0 
 7094      3CC42486 
 7094      0468B10C 
 7094      3B48
 7095 11d1d 0AC00A00 		.ascii	"\012\300\012\000\016f\222\303\320d\000`\016@\012\210"
 7095      0E6692C3 
 7095      D0640060 
 7095      0E400A88 
 7096 11d2d 23C94740 		.ascii	"#\311G@\002\305\015\002\011\221\210@\000\300\000B\001"
 7096      02C50D02 
 7096      09918840 
 7096      00C00042 
 7096      01
 7097 11d3e DC040006 		.ascii	"\334\004\000\006@\000L\005\300\000\300\005d\315\362"
 7097      40004C05 
 7097      C000C005 
 7097      64CDF2
 7098 11d4d 000C0CC1 		.ascii	"\000\014\014\301\303\335\223n\011\000\025\004\006@\011"
 7098      C3DD936E 
 7098      09001504 
 7098      064009
 7099 11d5c C0FA6001 		.ascii	"\300\372`\001d\315\000\005B*\300\005\320\007\340\006"
 7099      64CD0005 
 7099      422AC005 
 7099      D007E006 
 7100 11d6c E1840414 		.ascii	"\341\204\004\024\300\035\204\003\300\000\000F\000\006"
 7100      C01D8403 
 7100      C0000046 
 7100      0006
 7101 11d7a 400AE14C 		.ascii	"@\012\341L\003\206\204\016\204\024\301\303\335\223\372"
ARM GAS  C:\Temp\ccVQrAGa.s 			page 398


 7101      0386840E 
 7101      8414C1C3 
 7101      DD93FA
 7102 11d89 00040C41 		.ascii	"\000\004\014A\366\000kL\001\340\010@+l\035HX\267\021"
 7102      F6006B4C 
 7102      01E00840 
 7102      2B6C1D48 
 7102      58B711
 7103 11d9c 8C0B6FE0 		.ascii	"\214\013o\340d\315\014\025\002\212\300\005\200\365\345"
 7103      64CD0C15 
 7103      028AC005 
 7103      80F5E5
 7104 11dab 948C0B01 		.ascii	"\224\214\013\001!\362\000\014\014\340\020\006\310\214"
 7104      21F2000C 
 7104      0CE01006 
 7104      C88C
 7105 11db9 0B3B11EF 		.ascii	"\013;\021\357\340GH`\004BF\214\013\201!\362\000\014"
 7105      E0474860 
 7105      0442468C 
 7105      0B8121F2 
 7105      000C
 7106 11dcb 0CE01006 		.ascii	"\014\340\020\006\010\372|\004L\000\006\000k\000\004"
 7106      08FA7C04 
 7106      4C000600 
 7106      6B0004
 7107 11dda E13800BC 		.ascii	"\3418\000\274\203\261\341\224\000F\241\253\200\250\014"
 7107      83B1E194 
 7107      0046A1AB 
 7107      80A80C
 7108 11de9 29826540 		.ascii	")\202e@+l\035g8\214\013\224\033o\310\016\010\241\013"
 7108      2B6C1D67 
 7108      388C0B94 
 7108      1B6FC80E 
 7108      08A10B
 7109 11dfc 0E60C000 		.ascii	"\016`\300\000@\263dQ`\270\214\013\216\033o\340g\315"
 7109      40B36451 
 7109      60B88C0B 
 7109      8E1B6FE0 
 7109      67CD
 7110 11e0e 0C090204 		.ascii	"\014\011\002\004\300-B\012\341\220\202\031`\200\006"
 7110      C02D420A 
 7110      E1908219 
 7110      608006
 7111 11e1d 314C1340 		.ascii	"1L\023@\012@\026\206%\340\204l\021\014\031BJ\300+\204"
 7111      0A401686 
 7111      25E0846C 
 7111      110C1942 
 7111      4AC02B84 
 7112 11e31 65E09461 		.ascii	"e\340\224a8\003\006\340\014E\366@J\204\024B%\340\210"
 7112      380306E0 
 7112      0C45F640 
 7112      4A841442 
 7112      25E088
 7113 11e44 0C09C000 		.ascii	"\014\011\300\000\300-\007\315@\000\3765L\001\363\354"
 7113      C02D07CD 
 7113      4000FE35 
 7113      4C01F3EC 
ARM GAS  C:\Temp\ccVQrAGa.s 			page 399


 7114 11e54 C02D67CD 		.ascii	"\300-g\315d\321\000`\020`@\263\300\257d\021\201\241"
 7114      64D10060 
 7114      106040B3 
 7114      C0AF6411 
 7114      81A1
 7115 11e66 0F0E8191 		.ascii	"\017\016\201\221\023\245\373\374\026\012\023\021\246"
 7115      13A5FBFC 
 7115      160A1311 
 7115      A6
 7116 11e73 0541788C 		.ascii	"\005Ax\214\013\022\012\357\340A\006{\374L\001\340\000"
 7116      0B120AEF 
 7116      E041067B 
 7116      FC4C01E0 
 7116      00
 7117 11e84 C02B6C1D 		.ascii	"\300+l\035A&\234\245L\001\340\000@+l\035]\330\214\013"
 7117      41269CA5 
 7117      4C01E000 
 7117      402B6C1D 
 7117      5DD88C0B 
 7118 11e98 0F14E800 		.ascii	"\017\024\350\000c8\214\013\031\021\357\340\177\370\214"
 7118      63388C0B 
 7118      1911EFE0 
 7118      7FF88C
 7119 11ea7 0B4166EF 		.ascii	"\013Af\357\334L\001\340\000@+l\035o8\214\013\200\253"
 7119      DC4C01E0 
 7119      00402B6C 
 7119      1D6F388C 
 7119      0B80AB
 7120 11eba E80098F5 		.ascii	"\350\000\230\365\241\253\340\000A6l\035L\001\214\013"
 7120      A1ABE000 
 7120      41366C1D 
 7120      4C018C0B 
 7121 11eca 402BE810 		.ascii	"@+\350\020Yh\241\253\200\253AF\226\225L\001\340\000"
 7121      5968A1AB 
 7121      80AB4146 
 7121      96954C01 
 7121      E000
 7122 11edc 402B6C1D 		.ascii	"@+l\035Jx\214\013\200\253\350\024\2245\241\253m\011"
 7122      4A788C0B 
 7122      80ABE814 
 7122      9435A1AB 
 7122      6D09
 7123 11eee 0C090C1B 		.ascii	"\014\011\014\033\300,\300\026f5l\004\004\000\340\000"
 7123      C02CC016 
 7123      66356C04 
 7123      0400E000 
 7124 11efe 41566C1D 		.ascii	"AVl\035L\001\236)@+\214\013\002\031\357\300w\350\241"
 7124      4C019E29 
 7124      402B8C0B 
 7124      0219EFC0 
 7124      77E8A1
 7125 11f11 AB80AB41 		.ascii	"\253\200\253Av\216\225L\001\340\000@+l\035T\370\214"
 7125      768E954C 
 7125      01E00040 
 7125      2B6C1D54 
 7125      F88C
 7126 11f23 0B80ABEF 		.ascii	"\013\200\253\357\374\2145\241\253a8\000\006\340\000"
ARM GAS  C:\Temp\ccVQrAGa.s 			page 400


 7126      FC8C35A1 
 7126      AB613800 
 7126      06E000
 7127 11f32 43864C11 		.ascii	"C\206L\021\200\004@+l\035\000\034\205\021^8\214\013"
 7127      8004402B 
 7127      6C1D001C 
 7127      85115E38 
 7127      8C0B
 7128 11f44 80ABEFF4 		.ascii	"\200\253\357\364\2105\241\253lq\014\011C\226@,L\021"
 7128      8835A1AB 
 7128      6C710C09 
 7128      4396402C 
 7128      4C11
 7129 11f56 E000C02B 		.ascii	"\340\000\300+l\035\343\374\000\012\014\031\200\345\300"
 7129      6C1DE3FC 
 7129      000A0C19 
 7129      80E5C0
 7130 11f65 2C6CED16 		.ascii	",l\355\026\006\201\033\001\365\200\000A\026\201\241"
 7130      06811B01 
 7130      F5800041 
 7130      1681A1
 7131 11f74 4C01E000 		.ascii	"L\001\340\000@+l\035B8\214\013\000\253\350\000\241\253"
 7131      402B6C1D 
 7131      42388C0B 
 7131      00ABE800 
 7131      A1AB
 7132 11f86 83918391 		.ascii	"\203\221\203\221\344%\216\033\014\013\357\340Th\220"
 7132      E4258E1B 
 7132      0C0BEFE0 
 7132      546890
 7133 11f95 1B0C0BEF 		.ascii	"\033\014\013\357\340W\250\330\345\241\253l\221\014\011"
 7133      E057A8D8 
 7133      E5A1AB6C 
 7133      910C09
 7134 11fa4 210BC02C 		.ascii	"!\013\300,\340\000A\246l\035L\001@`@+S\330\234\000\224"
 7134      E00041A6 
 7134      6C1D4C01 
 7134      4060402B 
 7134      53D89C00 
 7135 11fb9 0B8FC8F2 		.ascii	"\013\217\310\362|\014L\301\303\335\223\372\004\004\014"
 7135      7C0C4CC1 
 7135      C3DD93FA 
 7135      04040C
 7136 11fc8 EC501EF0 		.ascii	"\354P\036\360\003\006\000k\014\013\340\010\300\025n"
 7136      0306006B 
 7136      0C0BE008 
 7136      C0156E
 7137 11fd7 096C1D4C 		.ascii	"\011l\035L\021\203\021@+m\011L\021@J\300,\201\001`\224"
 7137      11831140 
 7137      2B6D094C 
 7137      11404AC0 
 7137      2C810160 
 7138 11fec 0D0D0C19 		.ascii	"\015\015\014\031L\003\300,\300\026fql\351L\001B\020"
 7138      4C03C02C 
 7138      C0166671 
 7138      6CE94C01 
 7138      4210
ARM GAS  C:\Temp\ccVQrAGa.s 			page 401


 7139 11ffe C02C4C11 		.ascii	"\300,L\021\334@\300,\015\015ie\014\025\014)\300\015"
 7139      DC40C02C 
 7139      0D0D6965 
 7139      0C150C29 
 7139      C00D
 7140 12010 C02C6D0D 		.ascii	"\300,m\015\340\000\002\032\240\000\0008D \200\305L!"
 7140      E000021A 
 7140      A0000038 
 7140      442080C5 
 7140      4C21
 7141 12022 F3DCC02C 		.ascii	"\363\334\300,m\015f5\014\033D @\026L\001\363\340@,l"
 7141      6D0D6635 
 7141      0C1B4420 
 7141      40164C01 
 7141      F3E0402C 
 7142 12037 ED4C21C2 		.ascii	"\355L!\302)@,m\015\340\014E\366l\361L!B\012@,L\003\340"
 7142      29402C6D 
 7142      0DE00C45 
 7142      F66CF14C 
 7142      21420A40 
 7143 1204f 94401606 		.ascii	"\224@\026\006\201\340\210B\012\014\371L!B\012@,L\001"
 7143      81E08842 
 7143      0A0CF94C 
 7143      21420A40 
 7143      2C4C01
 7144 12062 E08C402C 		.ascii	"\340\214@,\014\375\340\220B\012\0035L\005B\012@\013"
 7144      0CFDE090 
 7144      420A0335 
 7144      4C05420A 
 7144      400B
 7145 12074 4C21E09C 		.ascii	"L!\340\234\300,l\365hX\200\345\214\013o\360f5\014\033"
 7145      C02C6CF5 
 7145      685880E5 
 7145      8C0B6FF0 
 7145      66350C1B 
 7146 12088 420AC016 		.ascii	"B\012\300\026\206%\340\240g\361\014Y\214\013@'g\355"
 7146      8625E0A0 
 7146      67F10C59 
 7146      8C0B4027 
 7146      67ED
 7147 1209a 0C490C39 		.ascii	"\014I\0149\300'\300'g\351g\345\014)\014\031\300'\300"
 7147      C027C027 
 7147      67E967E5 
 7147      0C290C19 
 7147      C027C0
 7148 120ad 2767E1E8 		.ascii	"'g\341\350\004A\210\241{\200{\014\033\236\365\300\026"
 7148      044188A1 
 7148      7B807B0C 
 7148      1B9EF5C0 
 7148      16
 7149 120be 6635E0A4 		.ascii	"f5\340\244B\012\003\021\202\205Nx\201!\214\013o\300"
 7149      420A0311 
 7149      82854E78 
 7149      81218C0B 
 7149      6FC0
 7150 120d0 A17B807B 		.ascii	"\241{\200{\014\033\2345\300\026f5\340\270B\012{\370"
 7150      0C1B9C35 
ARM GAS  C:\Temp\ccVQrAGa.s 			page 402


 7150      C0166635 
 7150      E0B8420A 
 7150      7BF8
 7151 120e2 80E58C0B 		.ascii	"\200\345\214\013h\014\241{\200{\014\011\230\265\300"
 7151      680CA17B 
 7151      807B0C09 
 7151      98B5C0
 7152 120f1 2D6311E0 		.ascii	"-c\021\340\200@\012\334\000@`\317\354g\310eQ\014\011"
 7152      80400ADC 
 7152      004060CF 
 7152      EC67C865 
 7152      510C09
 7153 12104 4346402B 		.ascii	"CF@+\004\024\341\004\000\000\205Q"
 7153      0414E104 
 7153      00008551 
 7154 12110 8E09EC04 		.ascii	"\216\011\354\004\014\011\204\006\3008c-@\006!\013L\001"
 7154      0C098406 
 7154      C038632D 
 7154      4006210B 
 7154      4C01
 7155 12122 E008C02B 		.ascii	"\340\010\300+l\035\014\011\202\365\3008c\025\002E\245"
 7155      6C1D0C09 
 7155      82F5C038 
 7155      63150245 
 7155      A5
 7156 12133 0B80000A 		.ascii	"\013\200\000\012\206\000\305\243\013\200\000\012f\012"
 7156      8600C5A3 
 7156      0B80000A 
 7156      660A
 7157 12141 46A10B02 		.ascii	"F\241\013\002`\200\000@TeAd\021\004`\010`\300\236@\242"
 7157      60800040 
 7157      54654164 
 7157      11046008 
 7157      60C09E40 
 7158 12156 6671E430 		.ascii	"fq\3440\000\360\006\360!V\177X\344\020\241\013\357\200"
 7158      00F006F0 
 7158      21567F58 
 7158      E410A10B 
 7158      EF80
 7159 12168 0C1D0C29 		.ascii	"\014\035\014)\002\006@+\204\265\300\004`\010D\026dP"
 7159      0206402B 
 7159      84B5C004 
 7159      60084416 
 7159      6450
 7160 1217a 00604C21 		.ascii	"\000`L!\300\236@+l\035d\241\002`x\030\300\243\241\013"
 7160      C09E402B 
 7160      6C1D64A1 
 7160      02607818 
 7160      C0A3A10B 
 7161 1218e EF800C29 		.ascii	"\357\200\014)\206\005@+l\035\340\004\002\026n\215L\025"
 7161      8605402B 
 7161      6C1DE004 
 7161      02166E8D 
 7161      4C15
 7162 121a0 0E56400A 		.ascii	"\016V@\012L\005\340\014@\012n\211\340\014\002Vo\310"
 7162      4C05E00C 
 7162      400A6E89 
ARM GAS  C:\Temp\ccVQrAGa.s 			page 403


 7162      E00C0256 
 7162      6FC8
 7163 121b2 49480E0B 		.ascii	"IH\016\013\214\013\014\014\250\361\335\223\362\004i"
 7163      8C0B0C0C 
 7163      A8F1DD93 
 7163      F20469
 7164 121c1 650C05A1 		.ascii	"e\014\005\241\013\300\015\014\011\200\345\300+l\021"
 7164      0BC00D0C 
 7164      0980E5C0 
 7164      2B6C11
 7165 121d0 E094404A 		.ascii	"\340\224@JAF\204\345K\346aL\000\004\340\014f\321\006"
 7165      414684E5 
 7165      4BE6614C 
 7165      0004E00C 
 7165      66D106
 7166 121e3 600C29C0 		.ascii	"`\014)\300T@\025c\015f\341\010`\014\031\300\243\300"
 7166      54401563 
 7166      0D66E108 
 7166      600C19C0 
 7166      A3C0
 7167 121f5 1563096C 		.ascii	"\025c\011l\035LQbx\300+\014\011\357\240\300+l\021`\224"
 7167      1D4C5162 
 7167      78C02B0C 
 7167      09EFA0C0 
 7167      2B6C1160 
 7168 1220a 404AE00C 		.ascii	"@J\340\014\000Fl\035L\001\206E\300+f\261\000`\002`@"
 7168      00466C1D 
 7168      4C018645 
 7168      C02B66B1 
 7168      00600260 
 7169 1221f BFC0C065 		.ascii	"\277\300\300e!d\301\004`\006`@\255\300\255e!o\254r\210"
 7169      2164C104 
 7169      60066040 
 7169      ADC0AD65 
 7169      216FAC72 
 7170 12234 66200860 		.ascii	"f \010`\000`\300\256@\330eapx\201\021\004\306opwe\340"
 7170      0060C0AE 
 7170      40D86561 
 7170      70788111 
 7170      04C66F70 
 7171 1224b 10C1C381 		.ascii	"\020\301\303\201q\370|\004\314m\015\000\311\003\026"
 7171      71F87C04 
 7171      CC6D0D00 
 7171      C90316
 7172 1225a 402C4011 		.ascii	"@,@\021\340\010@+l\035\357\334H\006ly\000\031\000y\300"
 7172      E008402B 
 7172      6C1DEFDC 
 7172      48066C79 
 7172      00190079 
 7173 1226f 2C402C6C 		.ascii	",@,lu\374\000\020\304m\015@\201\000\253\300,\300\026"
 7173      75FC0010 
 7173      C46D0D40 
 7173      8100ABC0 
 7173      2CC016
 7174 12282 66310019 		.ascii	"f1\000\031\215\036\300,m\011c\025\000\265\000i\300\013"
 7174      8D1EC02C 
 7174      6D096315 
ARM GAS  C:\Temp\ccVQrAGa.s 			page 404


 7174      00B50069 
 7174      C00B
 7175 12294 C02C6CF9 		.ascii	"\300,l\371\000\031\217\036\300,l\365f5\000[\000\231"
 7175      00198F1E 
 7175      C02C6CF5 
 7175      6635005B 
 7175      0099
 7176 122a6 C016C02C 		.ascii	"\300\026\300,l\361\370`\010)\340\204D\012\017\033\206"
 7176      6CF1F860 
 7176      0829E084 
 7176      440A0F1B 
 7176      86
 7177 122b7 55061083 		.ascii	"U\006\020\2031\002\012D\004\006\026\343\374\022\012"
 7177      31020A44 
 7177      040616E3 
 7177      FC120A
 7178 122c6 00004031 		.ascii	"\000\000@1\343\374@,l\365\200\205\203!\004\220\225\233"
 7178      E3FC402C 
 7178      6CF58085 
 7178      83210490 
 7178      959B
 7179 122d8 4021C404 		.ascii	"@!\304\004@,l\361\202\317\361\021\304\311\007ec\374"
 7179      402C6CF1 
 7179      82CFF111 
 7179      C4C90765 
 7179      63FC
 7180 122ea 020A1654 		.ascii	"\002\012\026T\226K\203!a\264\2031\002E\340\204\006t"
 7180      964B8321 
 7180      61B48331 
 7180      0245E084 
 7180      0674
 7181 122fc FA800634 		.ascii	"\372\200\0064\2031\007\033\304\004\006\020l\365@1\022"
 7181      8331071B 
 7181      C4040610 
 7181      6CF54031 
 7181      12
 7182 1230d 0A402C80 		.ascii	"\012@,\200\345\343\374\002\244\302\247\203\233\372\200"
 7182      E5E3FC02 
 7182      A4C2A783 
 7182      9BFA80
 7183 1231c C4040490 		.ascii	"\304\004\004\220l\361@!V\012@,\200\245\340\200\372\200"
 7183      6CF14021 
 7183      560A402C 
 7183      80A5E080 
 7183      FA80
 7184 1232e 023480F5 		.ascii	"\0024\200\365\316\035\340\200VJFJ\200\345\200\205\340"
 7184      CE1DE080 
 7184      564A464A 
 7184      80E58085 
 7184      E0
 7185 1233f 80588001 		.ascii	"\200X\200\001UX\300\374\030\010\273\363\340\357\334"
 7185      5558C0FC 
 7185      1808BBF3 
 7185      E0EFDC
 7186 1234e 48066D0D 		.ascii	"H\006m\015@\301X\012@,\202\305\340\204\372\200\002d"
 7186      40C1580A 
 7186      402C82C5 
ARM GAS  C:\Temp\ccVQrAGa.s 			page 405


 7186      E084FA80 
 7186      0264
 7187 12360 83110F1B 		.ascii	"\203\021\017\033D\004\002`\363\374\014\012\200\000\002"
 7187      44040260 
 7187      F3FC0C0A 
 7187      800002
 7188 1236f 166CF940 		.ascii	"\026l\371@\021\000)\300,@,l\375\377\370\002\016\377"
 7188      110029C0 
 7188      2C402C6C 
 7188      FDFFF802 
 7188      0EFF
 7189 12381 F80C0EE3 		.ascii	"\370\014\016\343\374\004\012D\004\002 \340\264J\012"
 7189      FC040A44 
 7189      040220E0 
 7189      B44A0A
 7190 12390 6CFD4011 		.ascii	"l\375@\021\210U\300,B\302\221\021\030\304x\204\"\317"
 7190      8855C02C 
 7190      42C29111 
 7190      18C47884 
 7190      22CF
 7191 123a2 FC0C40C1 		.ascii	"\374\014@\301\241\033\300,m\015\215\024\220\025\002"
 7191      A11BC02C 
 7191      6D0D8D14 
 7191      901502
 7192 123b1 0A8F3480 		.ascii	"\012\2174\200\345\373\374z\200\002\024\372\200\0044"
 7192      E5FBFC7A 
 7192      800214FA 
 7192      800434
 7193 123c0 84F5832B 		.ascii	"\204\365\203+l\355\000\031\203!@,m\011@!\002\012\300"
 7193      6CED0019 
 7193      8321402C 
 7193      6D094021 
 7193      020AC0
 7194 123d3 2C88D5E3 		.ascii	",\210\325\343\360\215\024\205u\002\012\2174\202\245"
 7194      F08D1485 
 7194      75020A8F 
 7194      3482A5
 7195 123e2 FBFC7A80 		.ascii	"\373\374z\200\002\024\372\200\0044\200\345\203+\344"
 7195      0214FA80 
 7195      043480E5 
 7195      832BE4
 7196 123f1 0402306D 		.ascii	"\004\0020m\011@\021\203\225\300,l\355\000\031\221!@"
 7196      09401183 
 7196      95C02C6C 
 7196      ED001991 
 7196      2140
 7197 12403 2C788844 		.ascii	",x\210D\302\374\014\030\304\203!$\317m\011@!\002\012"
 7197      C2FC0C18 
 7197      C4832124 
 7197      CF6D0940 
 7197      21020A
 7198 12416 402C40C1 		.ascii	"@,@\301\343\360\300,m\015\014\020\200e@a\344\004\300"
 7198      E3F0C02C 
 7198      6D0D0C10 
 7198      80654061 
 7198      E404C0
 7199 12429 2C6CED6C 		.ascii	",l\355l\355\000\031\241\033\300,B\300\202\305@\021\363"
ARM GAS  C:\Temp\ccVQrAGa.s 			page 406


 7199      ED0019A1 
 7199      1BC02C42 
 7199      C082C540 
 7199      11F3
 7200 1243b BCC02C6D 		.ascii	"\274\300,m\015B\020\220\030\220\026\363\370m\015\000"
 7200      0D421090 
 7200      189016F3 
 7200      F86D0D00 
 7201 1244b C98315C0 		.ascii	"\311\203\025\300,\340\214XJ\000\031\202%\300+l\021\340"
 7201      2CE08C58 
 7201      4A001982 
 7201      25C02B6C 
 7201      11E0
 7202 1245d 94424A58 		.ascii	"\224BJX\300\000\265X\300\334@@\301\363\274\300,m\015"
 7202      C000B558 
 7202      C0DC4040 
 7202      C1F3BCC0 
 7202      2C6D0D
 7203 12470 E08C584A 		.ascii	"\340\214XJ\000\025\204\005\300\013c\025\202e\241\033"
 7203      00158405 
 7203      C00B6315 
 7203      8265A11B 
 7204 12480 63350025 		.ascii	"c5\000%\203\021@\013\002 \227+@\025\304\004\300\013"
 7204      8311400B 
 7204      0220972B 
 7204      4015C404 
 7204      C00B
 7205 12492 6335F07C 		.ascii	"c5\360|\014\314\301\303\335\223\372\004\004Lh\014F\210"
 7205      0CCCC1C3 
 7205      DD93FA04 
 7205      044C680C 
 7205      4688
 7206 124a4 0E01807B 		.ascii	"\016\001\200{@,m\001\000\212\201a\202\325\341\270l\035"
 7206      402C6D01 
 7206      008A8161 
 7206      82D5E1B8 
 7206      6C1D
 7207 124b6 0E290C46 		.ascii	"\016)\014F@+\002F\340\014\216\013`\014\357\304p\250"
 7207      402B0246 
 7207      E00C8E0B 
 7207      600CEFC4 
 7207      70A8
 7208 124c8 0C06A10B 		.ascii	"\014\006\241\013\214\013\200\000\362\004\014L\301\303"
 7208      8C0B8000 
 7208      F2040C4C 
 7208      C1C3
 7209 124d6 DD93FA00 		.ascii	"\335\223\372\000\004\014\014\011\200k\300,l\375\200"
 7209      040C0C09 
 7209      806BC02C 
 7209      6CFD80
 7210 124e5 F5A10B6C 		.ascii	"\365\241\013lm\014\011@J\300,\202e\340\214c5\014\005"
 7210      6D0C0940 
 7210      4AC02C82 
 7210      65E08C63 
 7210      350C05
 7211 124f8 A10BC00B 		.ascii	"\241\013\300\013\014\025\202e\300\013c\025\200\325\203"
 7211      0C158265 
ARM GAS  C:\Temp\ccVQrAGa.s 			page 407


 7211      C00B6315 
 7211      80D583
 7212 12507 0B6D150C 		.ascii	"\013m\025\014\011\005U\300,\014\011\306\011\300,lm\340"
 7212      090555C0 
 7212      2C0C09C6 
 7212      09C02C6C 
 7212      6DE0
 7213 12519 90400A0C 		.ascii	"\220@\012\014\011\206%\300,l\211\204\205\241\013h\014"
 7213      098625C0 
 7213      2C6C8984 
 7213      85A10B68 
 7213      0C
 7214 1252a 42480C11 		.ascii	"BH\014\021\214\013\300,m\005l\211\014)\014\001\300,"
 7214      8C0BC02C 
 7214      6D056C89 
 7214      0C290C01 
 7214      C02C
 7215 1253c C02C6D01 		.ascii	"\300,m\001\361\210F\022\202\365\207\015\204\015\202"
 7215      F1884612 
 7215      82F5870D 
 7215      840D82
 7216 1254b 230C0982 		.ascii	"#\014\011\202\225\300,m\025\363\360@\000m\025L\001\014"
 7216      95C02C6D 
 7216      15F3F040 
 7216      006D154C 
 7216      010C
 7217 1255d 0CC02CDD 		.ascii	"\014\300,\335\223\362\000m\025\014\031L\001\300,\300"
 7217      93F2006D 
 7217      150C194C 
 7217      01C02CC0 
 7218 1256d 2C6D054C 		.ascii	",m\005L\021\306\031\300,m\025\301\303\3775\202\305\251"
 7218      11C619C0 
 7218      2C6D15C1 
 7218      C3FF3582 
 7218      C5A9
 7219 1257f 3B02A5A3 		.ascii	";\002\245\243;\201\210\004$\204\205\245;\204\205\247"
 7219      3B818804 
 7219      248485A5 
 7219      3B8485A7 
 7220 1258f 3B5C08A1 		.ascii	";\\\010\241;\017\330\332\000\211u\377p\\\010\241+E4"
 7220      3B0FD8DA 
 7220      008975FF 
 7220      705C08A1 
 7220      2B4534
 7221 125a2 9A00EC04 		.ascii	"\232\000\354\004\004 {\375F0\301>\337\377\2011\377e"
 7221      04207BFD 
 7221      4630C13E 
 7221      DFFF8131 
 7221      FF65
 7222 125b4 83318145 		.ascii	"\2031\201E\335\223\201%\370\034\004\014\220\001E'K\376"
 7222      DD938125 
 7222      F81C040C 
 7222      90014527 
 7222      4BFE
 7223 125c6 0141C03F 		.ascii	"\001A\300?\177\375\004\204\205\225\006t\243;\304\304"
 7223      7FFD0484 
 7223      85950674 
ARM GAS  C:\Temp\ccVQrAGa.s 			page 408


 7223      A33BC4C4 
 7224 125d6 8841A011 		.ascii	"\210A\240\021Fd\033\375P\200Np\237\377\037\377\033\375"
 7224      46641BFD 
 7224      50804E70 
 7224      9FFF1FFF 
 7224      1BFD
 7225 125e8 12748A8F 		.ascii	"\022t\212\217X\300`\340\237\377\033\374\033\375L`\260"
 7225      58C060E0 
 7225      9FFF1BFC 
 7225      1BFD4C60 
 7225      B0
 7226 125f9 9F1FFF10 		.ascii	"\237\037\377\020\304Qwa\307\340\300\373\200\016t\030"
 7226      C4517761 
 7226      C7E0C0FB 
 7226      800E7418 
 7227 12609 C450672E 		.ascii	"\304Pg.\217\372\200@\225\270o@\205\370\010@e\370\004"
 7227      8FFA8040 
 7227      95B86F40 
 7227      85F80840 
 7227      65F804
 7228 1261c C54DF00C 		.ascii	"\305M\360\014\014\014\364\365\335\223\360\034\370\034"
 7228      0C0CF4F5 
 7228      DD93F01C 
 7228      F81C
 7229 1262a 040C9001 		.ascii	"\004\014\220\001E'I\376\0011\300?\177\375\177\361\012"
 7229      452749FE 
 7229      0131C03F 
 7229      7FFD7FF1 
 7229      0A
 7230 1263b 0E180E40 		.ascii	"\016\030\016@?\300?p\001\002e\203\325\2061p\014\370"
 7230      3FC03F70 
 7230      01026583 
 7230      D5863170 
 7230      0CF8
 7231 1264d 080275F8 		.ascii	"\010\002u\370\004\002\205x\020Rb@\225\361g\022tx\010"
 7231      04028578 
 7231      10526240 
 7231      95F16712 
 7231      747808
 7232 12660 0A9FE0A0 		.ascii	"\012\237\340\240,\237\341w\340\300\014\204x\004@\225"
 7232      2C9FE177 
 7232      E0C00C84 
 7232      78044095 
 7233 12670 2E6F986F 		.ascii	".o\230o@e\321\207@\205\360\020\305=\370\014\014\014"
 7233      4065D187 
 7233      4085F010 
 7233      C53DF80C 
 7233      0C0C
 7234 12682 F875DD93 		.ascii	"\370u\335\223\360\034\354@\036\360`\030\000)\000I\201"
 7234      F01CEC40 
 7234      1EF06018 
 7234      00290049 
 7234      81
 7235 12693 31BE3EE0 		.ascii	"1\276>\340\020\305'|>\247+~>f\212FJ\012&\203A\030\006"
 7235      10C5277C 
 7235      3EA72B7E 
 7235      3E668A46 
ARM GAS  C:\Temp\ccVQrAGa.s 			page 409


 7235      4A0A2683 
 7236 126aa 00008265 		.ascii	"\000\000\202e\200\000\201Q%+\201A\003\301\243+\200\305"
 7236      80008151 
 7236      252B8141 
 7236      03C1A32B 
 7236      80C5
 7237 126bc 015180F5 		.ascii	"\001Q\200\365\201A\201\301\374\316\276^\300\010\376"
 7237      814181C1 
 7237      FCCEBE5E 
 7237      C008FE
 7238 126cb 4E003400 		.ascii	"N\0004\000\023\001\265\372\200HJ\2011\012\360a\012\202"
 7238      1301B5FA 
 7238      80484A81 
 7238      310AF061 
 7238      0A82
 7239 126dd 31E4100A 		.ascii	"1\344\020\012E\304G\305F\374\020\372\200\0104\374\225"
 7239      45C447C5 
 7239      46FC10FA 
 7239      800834FC 
 7239      95
 7240 126ee C14DA0F1 		.ascii	"\301M\240\361\001\001\301\303\335\223\354@\036\360`"
 7240      0101C1C3 
 7240      DD93EC40 
 7240      1EF060
 7241 126fd 1C002900 		.ascii	"\034\000)\000I\2011\205Q`\024|>\276>'+\305'\346\212"
 7241      49813185 
 7241      5160147C 
 7241      3EBE3E27 
 7241      2BC527E6 
 7242 12712 484A1816 		.ascii	"HJ\030\026~>\202\005\200\000\201\301%+\243+\200\245"
 7242      7E3E8205 
 7242      800081C1 
 7242      252BA32B 
 7242      80A5
 7243 12724 015180D5 		.ascii	"\001Q\200\325\276^\201\301\376\316\374>\2011B\010\000"
 7243      BE5E81C1 
 7243      FECEFC3E 
 7243      81314208 
 7243      00
 7244 12735 44001381 		.ascii	"D\000\023\201\245\372\200a\012HJ\344\020\012\360\304"
 7244      A5FA8061 
 7244      0A484AE4 
 7244      100AF0C4 
 7245 12745 478231FC 		.ascii	"G\2021\374\020\012E\0104\305F\301M\372\200\001\001\374"
 7245      100A4508 
 7245      34C546C1 
 7245      4DFA8001 
 7245      01FC
 7246 12757 95DD93A0 		.ascii	"\225\335\223\240\361\370\034\004\014a\014\007\306\341"
 7246      F1F81C04 
 7246      0C610C07 
 7246      C6E1
 7247 12765 0C490646 		.ascii	"\014I\006F\006\014\304\014d\341\014\341\014F\206O\206"
 7247      060CC40C 
 7247      64E10CE1 
 7247      0C46864F 
 7247      86
ARM GAS  C:\Temp\ccVQrAGa.s 			page 410


 7248 12776 10540C44 		.ascii	"\020T\014D\341\014\0344\213\201\344`\016\000\034\230"
 7248      E10C1C34 
 7248      8B81E460 
 7248      0E001C98 
 7249 12786 8175EC04 		.ascii	"\201u\354\004\020\200\335\230\361\226\241\213\331\226"
 7249      1080DD98 
 7249      F196A18B 
 7249      D996
 7250 12794 1800FE35 		.ascii	"\030\000\3765\211adtqx\201U\354\004\014`\241k\325v\035"
 7250      89616474 
 7250      71788155 
 7250      EC040C60 
 7250      A16BD576 
 7251 127a9 51FE7581 		.ascii	"Q\376u\201U\200\313\012Pqh\321f\354\004\376u\241[\225"
 7251      5580CB0A 
 7251      507168D1 
 7251      66EC04FE 
 7251      75A15B95 
 7252 127bd 411C0141 		.ascii	"A\034\001AX\201U\354\004\010@\241K\315V\000 \376u\203"
 7252      588155EC 
 7252      040840A1 
 7252      4BCD5600 
 7252      20FE7583 
 7253 127d1 316C0468 		.ascii	"1l\004h\200\0004\010\000\201\301\0004l\004\012\000\350"
 7253      80003408 
 7253      0081C100 
 7253      346C040A 
 7253      00E8
 7254 127e3 8881016C 		.ascii	"\210\201\001l\004\201a\003E\016T\351-\000\004H\260\202"
 7254      04816103 
 7254      450E54E9 
 7254      2D000448 
 7254      B082
 7255 127f5 55DB80E8 		.ascii	"U\333\200\350\260\016D\000`\000s\0004\3440\016th\200"
 7255      B00E4400 
 7255      60007300 
 7255      34E4300E 
 7255      746880
 7256 12808 0E03FB80 		.ascii	"\016\003\373\200\206\301\202a\372\265\215\033a\004B"
 7256      86C18261 
 7256      FAB58D1B 
 7256      610442
 7257 12817 066BFC01 		.ascii	"\006k\374\001\012\004\024\300\377\333\200\000\004\004"
 7257      0A0414C0 
 7257      FFDB8000 
 7257      0404
 7258 12825 01000004 		.ascii	"\001\000\000\004\014\300\200\014\014\201\001\335\223"
 7258      0CC0800C 
 7258      0C8101DD 
 7258      93
 7259 12832 F01CFA04 		.ascii	"\360\034\372\004\004LB\026\000kb\230\340\000\014\011"
 7259      044C4216 
 7259      006B6298 
 7259      E0000C09 
 7260 12842 E80C402B 		.ascii	"\350\014@+lE\341\014BF\016`\004\024\300\257d1\000\014"
 7260      6C45E10C 
 7260      42460E60 
ARM GAS  C:\Temp\ccVQrAGa.s 			page 411


 7260      0414C0AF 
 7260      6431000C 
 7261 12856 A90B0406 		.ascii	"\251\013\004\006\342\000qX\216\013\214\033o\374d8\002"
 7261      E2007158 
 7261      8E0B8C1B 
 7261      6FFC6438 
 7261      02
 7262 12867 6074788E 		.ascii	"`tx\216\013\014\031\357\374@+l9\344`\000`lA\014)\201"
 7262      0B0C19EF 
 7262      FC402B6C 
 7262      39E46000 
 7262      606C410C 
 7263 1287d 31402B0C 		.ascii	"1@+\014I\201\205\241K\374\004A\026\200u\202\021\202"
 7263      498185A1 
 7263      4BFC0441 
 7263      16807582 
 7263      1182
 7264 1288f 31FE15C5 		.ascii	"1\376\025\305=l=\014\011\002`@+\0149\344t@+lEDb\201"
 7264      3D6C3D0C 
 7264      09026040 
 7264      2B0C39E4 
 7264      74402B6C 
 7265 128a7 410195F0 		.ascii	"A\001\225\360\200\210X\234!\200u\241[\202AE\006\202"
 7265      8088589C 
 7265      218075A1 
 7265      5B824145 
 7265      0682
 7266 128b9 210201FE 		.ascii	"!\002\001\376\025\307MlE\014)\214\013@+lA\014\031tx"
 7266      15C74D6C 
 7266      450C298C 
 7266      0B402B6C 
 7266      410C1974 
 7267 128ce C02B4298 		.ascii	"\300+B\230\357\374\214\013h\020\014L\201\001\335\223"
 7267      EFFC8C0B 
 7267      68100C4C 
 7267      8101DD93 
 7268 128de F204     		.ascii	"\362\004"
 7269 128e0 FE7C040C 		.ascii	"\376|\004\014\355@\036\360@\026\000k\010\233\340\004"
 7269      ED401EF0 
 7269      4016006B 
 7269      089BE004 
 7270 128f0 4C0186AB 		.ascii	"L\001\206\253@+l\035\001\001\204\273^\261\202\213\212"
 7270      402B6C1D 
 7270      010184BB 
 7270      5EB1828B 
 7270      8A
 7271 12901 7B613061 		.ascii	"{a0a ^\241\342\200\002\006\341\020^\221\237\016\241"
 7271      205EA1E2 
 7271      800206E1 
 7271      105E919F 
 7271      0EA1
 7272 12913 0E5E019D 		.ascii	"\016^\001\235\016^\001\340\320^\001\340\300\214\013"
 7272      0E5E01E0 
 7272      D05E01E0 
 7272      C08C0B
 7273 12922 60B0E80C 		.ascii	"`\260\350\014[h\237!\001\021\214;\014\013\350\004i\250"
 7273      5B689F21 
ARM GAS  C:\Temp\ccVQrAGa.s 			page 412


 7273      01118C3B 
 7273      0C0BE804 
 7273      69A8
 7274 12934 60900084 		.ascii	"`\220\000\204\341\214\002\204@\000\015\216N\011\361"
 7274      E18C0284 
 7274      40000D8E 
 7274      4E09F1
 7275 12943 C0E0040E 		.ascii	"\300\340\004\016jq\204P\002\223~\217\001\000\270\225"
 7275      6A718450 
 7275      02937E8F 
 7275      0100B895 
 7276 12953 8E800040 		.ascii	"\216\200\000@\001\372\200\000\204\025\016\220\001^\001"
 7276      01FA8000 
 7276      84150E90 
 7276      015E01
 7277 12962 91019F01 		.ascii	"\221\001\237\001`\260@\242\017\016\262\017\371\254\232"
 7277      60B040A2 
 7277      0F0EB20F 
 7277      F9AC9A
 7278 12971 A5A10B4F 		.ascii	"\245\241\013Ov\036\211\021\216\340\000\360\254P\242"
 7278      761E8911 
 7278      8EE000F0 
 7278      AC50A2
 7279 12980 92830765 		.ascii	"\222\203\007el\035\014)Cv@+JX\340\000\214\013o\304^"
 7279      6C1D0C29 
 7279      4376402B 
 7279      4A58E000 
 7279      8C0B6FC4 
 7280 12995 B1A10B5E 		.ascii	"\261\241\013^\241\3010^\221\301 \025H\301\020\026\012"
 7280      A1C1305E 
 7280      91C12015 
 7280      48C11016 
 7280      0A
 7281 129a6 C0008101 		.ascii	"\300\000\201\001p\000D\004\000\260\360\000\026Jb\000"
 7281      70004404 
 7281      00B0F000 
 7281      164A6200 
 7282 129b6 020CF000 		.ascii	"\002\014\360\000\024Jb\000\004\014\024\032\202\203\201"
 7282      144A6200 
 7282      040C141A 
 7282      828381
 7283 129c5 11700024 		.ascii	"\021p\000$\005\002\240\204\203@\000p\000\022J\006\014"
 7283      0502A084 
 7283      83400070 
 7283      00124A06 
 7283      0C
 7284 129d6 8121121A 		.ascii	"\201!\022\032b\000\004\220\360\000@\000$\005\004\233"
 7284      62000490 
 7284      F0004000 
 7284      2405049B 
 7285 129e6 868380BB 		.ascii	"\206\203\200\273\202\253\362e\350\215^\261\223\004^"
 7285      82ABF265 
 7285      E88D5EB1 
 7285      93045E
 7286 129f5 A1E13011 		.ascii	"\241\3410\021\004\341 ^\221\243\013^\007\341\020\025"
 7286      04E1205E 
 7286      91A30B5E 
ARM GAS  C:\Temp\ccVQrAGa.s 			page 413


 7286      07E11015 
 7287 12a05 04E03CE4 		.ascii	"\004\340<\344 \016\000\036u\211~\026\012@ \020t\373"
 7287      200E001E 
 7287      75897E16 
 7287      0A402010 
 7287      74FB
 7288 12a17 FCB003FA 		.ascii	"\374\260\003\372\200D\000\014%\025\004\360|\340\200"
 7288      8044000C 
 7288      251504F0 
 7288      7CE080
 7289 12a26 500AA12B 		.ascii	"P\012\241+\210u\240\001\210\205`\320^\001\363\300B\000"
 7289      8875A001 
 7289      888560D0 
 7289      5E01F3C0 
 7289      4200
 7290 12a38 65C4028A 		.ascii	"e\304\002\212\002\200\216\013\000\200\004<^\021\214"
 7290      02808E0B 
 7290      0080043C 
 7290      5E118C
 7291 12a47 04838580 		.ascii	"\004\203\205\200\320l\035\014)Cv@+D\030\340\000\214"
 7291      D06C1D0C 
 7291      29437640 
 7291      2B4418E0 
 7291      008C
 7292 12a59 0B6FC4E0 		.ascii	"\013o\304\340\000Ov\017H\241\013\233\241\300\000\341"
 7292      004F760F 
 7292      48A10B9B 
 7292      A1C000E1 
 7293 12a69 205EA1A1 		.ascii	" ^\241\241+\361E\204@\000\000`\320^\001^\001\216\013"
 7293      2BF14584 
 7293      40000060 
 7293      D05E015E 
 7293      018E0B
 7294 12a7c 00F0E0C0 		.ascii	"\000\360\340\300\026\360e\000>\016\344\320\344\300\010"
 7294      16F06500 
 7294      3E0EE4D0 
 7294      E4C008
 7295 12a8b F004F00B 		.ascii	"\360\004\360\013.<\276\3450\344\260\012\360\214\013"
 7295      2E3CBEE5 
 7295      30E4B00A 
 7295      F08C0B
 7296 12a9a 01116800 		.ascii	"\001\021h\000M\350\036\251\214;\024\012`\300\206\005"
 7296      4DE81EA9 
 7296      8C3B140A 
 7296      60C08605 
 7297 12aaa FBFCE080 		.ascii	"\373\374\340\200N\012D<\002p\314\004\000p\300\320^\021"
 7297      4E0A443C 
 7297      0270CC04 
 7297      0070C0D0 
 7297      5E11
 7298 12abc 8B0482B5 		.ascii	"\213\004\202\265\340@\000\012\300(\036\005\304@\000"
 7298      E040000A 
 7298      C0281E05 
 7298      C44000
 7299 12acb 0080281E 		.ascii	"\000\200(\036\005`\320^\001^\001\216\013\000\360\340"
 7299      0560D05E 
 7299      015E018E 
ARM GAS  C:\Temp\ccVQrAGa.s 			page 414


 7299      0B00F0E0 
 7300 12adb C004F064 		.ascii	"\300\004\360d\360>\016\345 \344\300\010\360\012\360"
 7300      F03E0EE5 
 7300      20E4C008 
 7300      F00AF0
 7301 12aea 3CBE0311 		.ascii	"<\276\003\021\344\260K8\214\013\214;h\000`\300\036\231"
 7301      E4B04B38 
 7301      8C0B8C3B 
 7301      680060C0 
 7301      1E99
 7302 12afc FBFC120A 		.ascii	"\373\374\022\012PJ\206\245\016p\340\200^q\314\004\204"
 7302      504A86A5 
 7302      0E70E080 
 7302      5E71CC04 
 7302      84
 7303 12b0d 95C0D0A1 		.ascii	"\225\300\320\241\013\213\004\200(\036\005\200\320^\001"
 7303      0B8B0480 
 7303      281E0580 
 7303      D05E01
 7304 12b1c 950482A5 		.ascii	"\225\004\202\245^\001\240\001B\000`\320\002\212\363"
 7304      5E01A001 
 7304      420060D0 
 7304      028AF3
 7305 12b2b C00E80E5 		.ascii	"\300\016\200\345\304^q\214\010^q\200\320\000\360\340"
 7305      C45E718C 
 7305      085E7180 
 7305      D000F0E0 
 7306 12b3b C004F064 		.ascii	"\300\004\360d\340>\016\345\020\344\300\010\360\012\360"
 7306      E03E0EE5 
 7306      10E4C008 
 7306      F00AF0
 7307 12b4a 3CBE0511 		.ascii	"<\276\005\021\344\260H8\214\013\214;h\000\200{\205\201"
 7307      E4B04838 
 7307      8C0B8C3B 
 7307      6800807B 
 7307      8581
 7308 12b5c 96D5A17B 		.ascii	"\226\325\241{\214;\023\024\036\031\217\004\241\033`"
 7308      8C3B1314 
 7308      1E198F04 
 7308      A11B60
 7309 12b6b C040101E 		.ascii	"\300@\020\036%\372\200\000\004\373\200@\242{\200@\222"
 7309      25FA8000 
 7309      04FB8040 
 7309      A27B8040 
 7309      92
 7310 12b7c FA800214 		.ascii	"\372\200\002\024@ ^%\373\200B\022\004\004\221\004\214"
 7310      40205E25 
 7310      FB804212 
 7310      04049104 
 7310      8C
 7311 12b8d 0B7A80E8 		.ascii	"\013z\200\350\004V\250\241{\200{\014\013\2205L\330\214"
 7311      0456A8A1 
 7311      7B807B0C 
 7311      0B90354C 
 7311      D88C
 7312 12b9f 1B1E07E8 		.ascii	"\033\036\007\350\000@\306`<\000\004\341\010\001!\205"
 7312      0040C660 
ARM GAS  C:\Temp\ccVQrAGa.s 			page 415


 7312      3C0004E1 
 7312      08012185 
 7313 12baf 11020681 		.ascii	"\021\002\006\201q\000\026\300\000\341\010A\006\002,"
 7313      710016C0 
 7313      00E10841 
 7313      06022C
 7314 12bbe 80040026 		.ascii	"\200\004\000&\342\000\341\010AF\000\026\200\004\341"
 7314      E200E108 
 7314      41460016 
 7314      8004E1
 7315 12bcd 08418602 		.ascii	"\010A\206\002\014\200\004\000&\342\000\341\010A\306"
 7315      0C800400 
 7315      26E200E1 
 7315      0841C6
 7316 12bdc 00168004 		.ascii	"\000\026\200\004\341\014\000\006\203\021\000\004\000"
 7316      E10C0006 
 7316      83110004 
 7316      00
 7317 12be9 46001680 		.ascii	"F\000\026\200\004\341\014\000\206\000\206\200\004\341"
 7317      04E10C00 
 7317      86008680 
 7317      04E1
 7318 12bf7 0C8D3480 		.ascii	"\014\2154\200&\237\024\241\004L1\235$\300'g\341g\345"
 7318      269F14A1 
 7318      044C319D 
 7318      24C02767 
 7318      E167E5
 7319 12c0a 4C014C11 		.ascii	"L\001L\021\300'\300'g\351g\355L!Lq\300'@'g\365\023\004"
 7319      C027C027 
 7319      67E967ED 
 7319      4C214C71 
 7319      C0274027 
 7320 12c22 A9319F24 		.ascii	"\2511\237$\213A\035\004\241\024F\026\241\013\010\366"
 7320      8B411D04 
 7320      A1144616 
 7320      A10B08F6 
 7321 12c32 4000442A 		.ascii	"@\000D*\300\000\320\027f\216\346\222@\012\200#\202#"
 7321      C000D017 
 7321      668EE692 
 7321      400A8023 
 7321      8223
 7322 12c44 69594C25 		.ascii	"iYL%\016\013\300\010\345@\036\360\366|\014\014\301\303"
 7322      0E0BC008 
 7322      E5401EF0 
 7322      F67C0C0C 
 7322      C1C3
 7323 12c56 DD93FA7C 		.ascii	"\335\223\372|\004L\2234\217>\213u\221d\224\210\220\230"
 7323      044C9334 
 7323      8F3E8B75 
 7323      91649488 
 7323      9098
 7324 12c68 94F5D19D 		.ascii	"\224\365\321\235P\002\030\250\020y\360\244@'cAV\242"
 7324      500218A8 
 7324      1079F0A4 
 7324      40276341 
 7324      56A2
 7325 12c7a 83C110B4 		.ascii	"\203\301\020\264\361\244Npa\220\026\204\373\374\026"
ARM GAS  C:\Temp\ccVQrAGa.s 			page 416


 7325      F1A44E70 
 7325      61901684 
 7325      FBFC16
 7326 12c89 C4FA8096 		.ascii	"\304\372\200\226\177\350\254\206u\241{\020\212\017\304"
 7326      7FE8AC86 
 7326      75A17B10 
 7326      8A0FC4
 7327 12c98 0EB6F410 		.ascii	"\016\266\364\020\026\026\000\000Nr\200\000\016t\221"
 7327      16160000 
 7327      4E728000 
 7327      0E7491
 7328 12ca7 A018799A 		.ascii	"\240\030y\232\200\026\264|$\230\223\210\234\244v\266"
 7328      8016B47C 
 7328      24989388 
 7328      9CA476B6 
 7329 12cb7 7F0E7088 		.ascii	"\177\016p\210x\210v\354\004\202q\214t\230\250\214~z"
 7329      788876EC 
 7329      0482718C 
 7329      7498A88C 
 7329      7E7A
 7330 12cc9 8012A4EC 		.ascii	"\200\022\244\354\004\016\020d\200\024\220\230\246\345"
 7330      040E1064 
 7330      80149098 
 7330      A6E5
 7331 12cd7 7DA11B84 		.ascii	"}\241\033\204U\024\212\206U\204\365\366\000\016\220"
 7331      55148A86 
 7331      5584F5F6 
 7331      000E90
 7332 12ce6 4AA750A0 		.ascii	"J\247P\240\355D\260s\360\200\220x\230v\354\004\016p"
 7332      ED44B073 
 7332      F0809078 
 7332      9876EC04 
 7332      0E70
 7333 12cf8 81B59076 		.ascii	"\201\265\220v\363\374\025\012\016\220\202\025\230v\355"
 7333      F3FC150A 
 7333      0E908215 
 7333      9876ED
 7334 12d07 880E7090 		.ascii	"\210\016p\220x\220v\354\010\241\213\210\210\201\305"
 7334      789076EC 
 7334      08A18B88 
 7334      8881C5
 7335 12d16 EA156C1D 		.ascii	"\352\025l\035\000)Cf@+m\270\340\010Mfo\300\241\013\340"
 7335      00294366 
 7335      402B6DB8 
 7335      E0084D66 
 7335      6FC0A10B 
 7336 12d2b 08816180 		.ascii	"\010\201a\200U\014L\214\013\335\223\362|\370|\004\014"
 7336      550C4C8C 
 7336      0BDD93F2 
 7336      7CF87C04 
 7336      0C
 7337 12d3c EC401EF0 		.ascii	"\354@\036\360f\261\004\000\2211@\213\201A\001U\0060"
 7337      66B10400 
 7337      9131408B 
 7337      81410155 
 7337      0630
 7338 12d4e 494EA13B 		.ascii	"IN\241;\354\004\001!\376\225\001Q\2011\213\225\201A"
ARM GAS  C:\Temp\ccVQrAGa.s 			page 417


 7338      EC040121 
 7338      FE950151 
 7338      81318B95 
 7338      8141
 7339 12d60 10447C2E 		.ascii	"\020D|.~\036\372\200\364\010\010\212\210\201\004(\201"
 7339      7E1EFA80 
 7339      F408088A 
 7339      88810428 
 7339      81
 7340 12d71 913E4E0C 		.ascii	"\221>N\014$\210\253\016$a\224\004i\341\234\341\204\030"
 7340      2488AB0E 
 7340      24619404 
 7340      69E19CE1 
 7340      8418
 7341 12d83 240E242E 		.ascii	"$\016$.o\010y\341\214.o\220\3118o\236)Hg\251\301\200"
 7341      6F0879E1 
 7341      8C2E6F90 
 7341      C9386F9E 
 7341      294867A9 
 7342 12d99 0058168B 		.ascii	"\000X\026\213a,/\000\000\014\366\372\200\016$N\012\205"
 7342      612C2F00 
 7342      000CF6FA 
 7342      800E244E 
 7342      0A85
 7343 12dab 758665E4 		.ascii	"u\206e\344\244z\200\010\244\360\000\006Zp\000\006\012"
 7343      A47A8008 
 7343      A4F00006 
 7343      5A700006 
 7343      0A
 7344 12dbc 041C98BB 		.ascii	"\004\034\230\273\002Tb\000DG\372\200\334\000V`D\002"
 7344      02546200 
 7344      4447FA80 
 7344      DC005660 
 7344      4402
 7345 12dce 051B0415 		.ascii	"\005\033\004\025\360\220@\010k\255\200\020\026\006D"
 7345      F0904008 
 7345      6BAD8010 
 7345      160644
 7346 12ddd 159613C0 		.ascii	"\025\226\023\300\010k\255`\014\022\032\012\012\202\221"
 7346      086BAD60 
 7346      0C121A0A 
 7346      0A8291
 7347 12dec 54807BFC 		.ascii	"T\200{\374\012\014\274\000\261\233\342\000|$\3665\276"
 7347      0A0CBC00 
 7347      B19BE200 
 7347      7C24F635 
 7347      BE
 7348 12dfd 4483397C 		.ascii	"D\2039|\014\004\012\002\014\202!~\024\342\000\202\021"
 7348      0C040A02 
 7348      0C82217E 
 7348      14E20082 
 7348      11
 7349 12e0e 8243F43C 		.ascii	"\202C\364<\005\012\001\001\350\305\014\014\240\361\335"
 7349      050A0101 
 7349      E8C50C0C 
 7349      A0F1DD
 7350 12e1d 93F07CFA 		.ascii	"\223\360|\372|\004\014\3540\036\360@V\000kL\001\340"
ARM GAS  C:\Temp\ccVQrAGa.s 			page 418


 7350      7C040CEC 
 7350      301EF040 
 7350      56006B4C 
 7350      01E0
 7351 12e2f 00402B6C 		.ascii	"\000@+l\035|\016\201\001qx\214\013\014\011\350\000\300"
 7351      1D7C0E81 
 7351      0171788C 
 7351      0B0C09E8 
 7351      00C0
 7352 12e41 2B65F9E0 		.ascii	"+e\371\340\200@\012\005\001\000`\002\006@\233O\370\300"
 7352      80400A05 
 7352      01006002 
 7352      06409B4F 
 7352      F8C0
 7353 12e53 0004064F 		.ascii	"\000\004\006Ol\014\011\300\030\300+l!\210\365\253\013"
 7353      6C0C09C0 
 7353      18C02B6C 
 7353      2188F5AB 
 7353      0B
 7354 12e64 6D210C09 		.ascii	"m!\014\011@\000\300,\302\011\363\360m!L\001\214\013"
 7354      4000C02C 
 7354      C209F3F0 
 7354      6D214C01 
 7354      8C0B
 7355 12e76 402CEFF4 		.ascii	"@,\357\364z\310m!\014\011\200{@,C\006!{\203!\357\334"
 7355      7AC86D21 
 7355      0C09807B 
 7355      402C4306 
 7355      217B8321 
 7356 12e8c 40000426 		.ascii	"@\000\004&\304\011\363\360m!L\001\202e\300,l\035\014"
 7356      C409F3F0 
 7356      6D214C01 
 7356      8265C02C 
 7356      6C1D0C
 7357 12e9f 298C0B40 		.ascii	")\214\013@+o\300a\250\241\013\216\033\300\000\0148\201"
 7357      2B6FC061 
 7357      A8A10B8E 
 7357      1BC0000C 
 7357      3881
 7358 12eb1 11017181 		.ascii	"\021\001q\201\241\023U\022\264>4\320\235\372\200\000"
 7358      A1135512 
 7358      B43E34D0 
 7358      9DFA8000 
 7359 12ec1 4A9C359A 		.ascii	"J\2345\232\305\373\374p\000\006\012\001\021\226\013"
 7359      C5FBFC70 
 7359      00060A01 
 7359      11960B
 7360 12ed0 84058121 		.ascii	"\204\005\201!\360\004\006\012\000\000\000\006\234\000"
 7360      F004060A 
 7360      00000006 
 7360      9C00
 7361 12ede 42B00406 		.ascii	"B\260\004\006\002%\006\012\200\000\202\265\360\010\201"
 7361      0225060A 
 7361      800082B5 
 7361      F00881
 7362 12eed 1101014C 		.ascii	"\021\001\001L\001\226+\300'g\345g\351L\021L!\300'\300"
 7362      01962BC0 
ARM GAS  C:\Temp\ccVQrAGa.s 			page 419


 7362      2767E567 
 7362      E94C114C 
 7362      21C027C0 
 7363 12f01 2767ED80 		.ascii	"'g\355\200\365\241{o\364vH\200{\214\013\202E\241{l\035"
 7363      F5A17B6F 
 7363      F4764880 
 7363      7B8C0B82 
 7363      45A17B6C 
 7364 12f16 0C298C0B 		.ascii	"\014)\214\013@+o\300]\350\241\013\216\033\002\360\240"
 7364      402B6FC0 
 7364      5DE8A10B 
 7364      8E1B02F0 
 7364      A0
 7365 12f27 F58C0B64 		.ascii	"\365\214\013d \350\000N\210\200{|\004e\371\014\031D"
 7365      20E8004E 
 7365      88807B7C 
 7365      0465F90C 
 7365      1944
 7366 12f39 86402B40 		.ascii	"\206@+@\012\340<B\012\340\012\317\007\340\200\204\005"
 7366      0AE03C42 
 7366      0AE00ACF 
 7366      07E08084 
 7366      05
 7367 12f4a FC0E7A80 		.ascii	"\374\016z\200\002\244e\000\004`\006\024\300\233\004"
 7367      02A46500 
 7367      04600614 
 7367      C09B04
 7368 12f59 33E0888C 		.ascii	"3\340\210\214\016\202#\344\000D\261D\021\274\024\014"
 7368      0E8223E4 
 7368      0044B144 
 7368      11BC140C 
 7369 12f69 1BE50040 		.ascii	"\033\345\000@\025j\371\303\015\202\241\321\235\206%"
 7369      156AF9C3 
 7369      0D82A1D1 
 7369      9D8625
 7370 12f78 07F50C09 		.ascii	"\007\365\014\011\026\260@'\346u\304\004j\365\014\033"
 7370      16B04027 
 7370      E675C404 
 7370      6AF50C1B 
 7371 12f88 C11DC015 		.ascii	"\301\035\300\025\014\033\202\005\300\025j\361C\366C"
 7371      0C1B8205 
 7371      C0156AF1 
 7371      43F643
 7372 12f97 0D8855E0 		.ascii	"\015\210U\340\014AV\003\305\274\024\340\000\026\012"
 7372      0C415603 
 7372      C5BC14E0 
 7372      00160A
 7373 12fa6 83D543F6 		.ascii	"\203\325C\366p\024\206\025\340\014\002\012\274\024\204"
 7373      70148615 
 7373      E00C020A 
 7373      BC1484
 7374 12fb5 95F00C6A 		.ascii	"\225\360\014j\365\014\033\301\035\300\025\014\033\202"
 7374      F50C1BC1 
 7374      1DC0150C 
 7374      1B82
 7375 12fc3 05C0156A 		.ascii	"\005\300\025j\361C\366C\015\202\025\340\014\340\000"
 7375      F143F643 
ARM GAS  C:\Temp\ccVQrAGa.s 			page 420


 7375      0D8215E0 
 7375      0CE000
 7376 12fd2 414667F5 		.ascii	"AFg\365L\001C\366@'\003\012\340\014\206\325\364\014"
 7376      4C0143F6 
 7376      4027030A 
 7376      E00C86D5 
 7376      F40C
 7377 12fe4 67F50C09 		.ascii	"g\365\014\011\000J\300'\206\005\373\374g\341\014)\214"
 7377      004AC027 
 7377      8605FBFC 
 7377      67E10C29 
 7377      8C
 7378 12ff5 0B402782 		.ascii	"\013@'\202\021>\036\002\024<\036A\330\372\200\200\213"
 7378      113E1E02 
 7378      143C1E41 
 7378      D8FA8080 
 7378      8B
 7379 13006 E8001656 		.ascii	"\350\000\026V\353\215\000\006\000\000\324e\200\000\340"
 7379      EB8D0006 
 7379      0000D465 
 7379      8000E0
 7380 13015 00413667 		.ascii	"\000A6g\365L\001L\241\300'@&l\361s\330\214\013A\006"
 7380      F54C014C 
 7380      A1C02740 
 7380      266CF173 
 7380      D88C0B41 
 7381 1302a EFB48111 		.ascii	"\357\264\201\021o\334\016\013\200\026\014\014\230\361"
 7381      6FDC0E0B 
 7381      80160C0C 
 7381      98F1
 7382 13038 DD93F27C 		.ascii	"\335\223\362|\370\034\004\314g\361\000Y\247\033@'\030"
 7382      F81C04CC 
 7382      67F10059 
 7382      A71B4027 
 7382      18
 7383 13049 24013115 		.ascii	"$\0011\025<\341\214\005A\217a\200\004\017V\002\026\004"
 7383      3CE18C05 
 7383      418F6180 
 7383      040F5602 
 7383      1604
 7384 1305b 85251B80 		.ascii	"\205%\033\200\000\340\010N\246\000\000\002\006\200\000"
 7384      00E0084E 
 7384      A6000002 
 7384      068000
 7385 1306a 1006231B 		.ascii	"\020\006#\033\202e\002\225\201A\003V\201\021\203A`\004"
 7385      82650295 
 7385      81410356 
 7385      81118341 
 7385      6004
 7386 1307c 81112916 		.ascii	"\201\021)\026\022\360\203\201\260\237\344P8c\244v\373"
 7386      12F08381 
 7386      B09FE450 
 7386      3863A476 
 7386      FB
 7387 1308d FC0A4A70 		.ascii	"\374\012Jp\034X \012d\201!\377az\200\000\000\004\206"
 7387      1C58200A 
 7387      648121FF 
ARM GAS  C:\Temp\ccVQrAGa.s 			page 421


 7387      617A8000 
 7387      000486
 7388 130a0 E8B01864 		.ascii	"\350\260\030d\010D\005UL\022\372\200\020\360p\210"
 7388      08440555 
 7388      4C12FA80 
 7388      10F07088 
 7389 130b0 0063E450 		.ascii	"\000c\344P\014y\213\033@'cA\341\374\014\024\014d\202"
 7389      0C798B1B 
 7389      40276341 
 7389      E1FC0C14 
 7389      0C6482
 7390 130c3 634C12FC 		.ascii	"cL\022\374\000\020i\361\230Nr|\030\014\177\2300\241"
 7390      001069F1 
 7390      984E727C 
 7390      180C7F98 
 7390      30A1
 7391 130d5 7B816150 		.ascii	"{\201aP\004Pp\301\204\016tLb~u\0064\320\240\210\023"
 7391      045070C1 
 7391      840E744C 
 7391      627E7506 
 7391      34D0A088 
 7392 130ea 7A808A1D 		.ascii	"z\200\212\035\2143\0004\366\245\014\314\372\200\335"
 7392      8C330034 
 7392      F6A50CCC 
 7392      FA80DD
 7393 130f9 93F01CFA 		.ascii	"\223\360\034\372\014\004\014\202{\000kmY\014\005\221"
 7393      0C040C82 
 7393      7B006B6D 
 7393      590C0591 
 7394 13109 21400A6E 		.ascii	"!@\012n\015\014\025^\270\300\011\014)\357\250@+eQ\341"
 7394      0D0C155E 
 7394      B8C0090C 
 7394      29EFA840 
 7394      2B6551E1 
 7395 1311d 18434683 		.ascii	"\030CF\203Q\004\024\204\030\204Hc}\0145\236I\300\013"
 7395      51041484 
 7395      18844863 
 7395      7D0C359E 
 7395      49C00B
 7396 13130 8E19C917 		.ascii	"\216\031\311\027\002$#_c\370\340\220\004To\250Fx\350"
 7396      0224235F 
 7396      63F8E090 
 7396      04546FA8 
 7396      4678E8
 7397 13143 90808B6F 		.ascii	"\220\200\213o\350`\020\002\006e\230\220+\216;o\250\241"
 7397      E8601002 
 7397      06659890 
 7397      2B8E3B6F 
 7397      A8A1
 7398 13155 7B807B0C 		.ascii	"{\200{\014)\202\345@+l\035K\270\214\013\216\033o\300"
 7398      2982E540 
 7398      2B6C1D4B 
 7398      B88C0B8E 
 7398      1B6FC0
 7399 13168 0E06A30B 		.ascii	"\016\006\243\013\216\013\300\000\362\014\014\014\201"
 7399      8E0BC000 
 7399      F20C0C0C 
ARM GAS  C:\Temp\ccVQrAGa.s 			page 422


 7399      81
 7400 13175 01DD93F2 		.ascii	"\001\335\223\362\014\014\014\301\303\335\223d\301\000"
 7400      0C0C0CC1 
 7400      C3DD9364 
 7400      C100
 7401 13183 39021640 		.ascii	"9\002\026@+@\021\340\014@+l\035\000\031\203A\300\025"
 7401      2B4011E0 
 7401      0C402B6C 
 7401      1D001983 
 7401      41C015
 7402 13196 62196635 		.ascii	"b\031f5\000+\000Y\300\026\300+e\015lu@\021\000\031\300"
 7402      002B0059 
 7402      C016C02B 
 7402      650D6C75 
 7402      40110019 
 7403 131ab 2C402B6C 		.ascii	",@+l\021p\005D @1\300\200@,l}~\371D \0009\300y\300+"
 7403      11700544 
 7403      204031C0 
 7403      80402C6C 
 7403      7D7EF944 
 7404 131c6 65096094 		.ascii	"e\011`\224BJ@\021\205\021\300\"e\225m1@\021\002\006"
 7404      424A4011 
 7404      8511C022 
 7404      65956D31 
 7404      40110206 
 7405 131da 402C4041 		.ascii	"@,@A\300\000\300,l\215l\205@Q@#\300,\300\026f5m5@1@"
 7405      C000C02C 
 7405      6C8D6C85 
 7405      40514023 
 7405      C02CC016 
 7406 131f5 11C02CC0 		.ascii	"\021\300,\300,\014\201\016\031@\023@\021\300\025\300"
 7406      2C0C810E 
 7406      19401340 
 7406      11C015C0 
 7407 13205 2B0C59C1 		.ascii	"+\014Y\301\303\335\223\340\024\002)f5\000;\204D\300"
 7407      C3DD93E0 
 7407      14022966 
 7407      35003B84 
 7407      44C0
 7408 13217 16063482 		.ascii	"\026\0064\202)@E\374\000@\013c\025@3\244?@\026f5\357"
 7408      294045FC 
 7408      00400B63 
 7408      154033A4 
 7408      3F401666 
 7409 1322d DC088660 		.ascii	"\334\010\206`$\002)\374\014\0064\302'\220XJP\004)\244"
 7409      240229FC 
 7409      0C0634C2 
 7409      2790584A 
 7409      500429A4 
 7410 13241 5FF3F402 		.ascii	"_\363\364\002)\220V\306'\340(\246/\220)f5@#\004$@\026"
 7410      299056C6 
 7410      27E028A6 
 7410      2F902966 
 7410      35402304 
 7411 13258 0239FC10 		.ascii	"\0029\374\020\3107\340,\244?\2409f5@3F0@\026\300\377"
 7411      C837E02C 
 7411      A43FA039 
ARM GAS  C:\Temp\ccVQrAGa.s 			page 423


 7411      66354033 
 7411      46304016 
 7412 1326e 737DE030 		.ascii	"s}\3400\002)D \312'\000)\360\200@+d\305@3\244?\300\026"
 7412      02294420 
 7412      CA270029 
 7412      F080402B 
 7412      64C54033 
 7413 13286 6635E010 		.ascii	"f5\340\020\0029@1\247+\300,lq\000)\200\365\300+l\021"
 7413      02394031 
 7413      A72BC02C 
 7413      6C710029 
 7413      80F5C02B 
 7414 1329c E094444A 		.ascii	"\340\224DJ\002)\202e\0029\340\030@!\340 \300,lyf1@3"
 7414      02298265 
 7414      0239E018 
 7414      4021E020 
 7414      C02C6C79 
 7415 132b4 0229C016 		.ascii	"\002)\300\026\0009\340<\300,m!m9\000Y\202)\300,\374"
 7415      0039E03C 
 7415      C02C6D21 
 7415      6D390059 
 7415      8229C02C 
 7416 132c9 00063460 		.ascii	"\000\0064`\034\002)@1\244?@,m!\374\004\0064`@\002I\363"
 7416      1C022940 
 7416      31A43F40 
 7416      2C6D21FC 
 7416      04063460 
 7417 132e1 F84A506C 		.ascii	"\370JPl\211@!\004\000@,\300nd\301\204I\302G@A\246O@"
 7417      89402104 
 7417      00402CC0 
 7417      6E64C184 
 7417      49C24740 
 7418 132f9 2C6D21F3 		.ascii	",m!\363\354H@\340D\0029\246_\2029m9@Q\0029\300,\304"
 7418      EC4840E0 
 7418      440239A6 
 7418      5F82396D 
 7418      39405102 
 7419 13311 37E048A6 		.ascii	"7\340H\246O\2109m!@A\0029\300,\000I\340L\300,m\025F"
 7419      4F88396D 
 7419      21404102 
 7419      39C02C00 
 7419      49E04CC0 
 7420 13329 30CA3748 		.ascii	"0\3127H@p\200\246O\363|m\025@A\0029\300,\000I\340P\300"
 7420      407080A6 
 7420      4FF37C6D 
 7420      15404102 
 7420      39C02C00 
 7421 13341 2C6D5108 		.ascii	",mQ\010D\2029\246O\374\000mQ@A\010D@,\0029\374\004\302"
 7421      448239A6 
 7421      4FFC006D 
 7421      51404108 
 7421      44402C02 
 7422 13359 37E054A8 		.ascii	"7\340T\250?\2049mQ@1\0064@,\002I\374\010\304G\340X\250"
 7422      3F84396D 
 7422      51403106 
 7422      34402C02 
 7422      49FC08C4 
ARM GAS  C:\Temp\ccVQrAGa.s 			page 424


 7423 13371 3F88496D 		.ascii	"?\210ImQ@1F0@,\002I\363\334\306G\340\\\250?\220ImQ@"
 7423      51403146 
 7423      30402C02 
 7423      49F3DCC6 
 7423      47E05CA8 
 7424 1338b 319F3140 		.ascii	"1\2371@,\002I\201e\0060`4\311F\354\004\376U\241;\340"
 7424      2C024981 
 7424      65063060 
 7424      34C946EC 
 7424      04FE55A1 
 7425 133a1 38022968 		.ascii	"8\002)h\375@!\002\031\300\033@\021\3404\300\"o\271\301"
 7425      FD402102 
 7425      19C01B40 
 7425      11E034C0 
 7425      226FB9C1 
 7426 133b5 C3DD93FA 		.ascii	"\303\335\223\372\000\004\014\354`\036\360\014\005\200"
 7426      00040CEC 
 7426      601EF00C 
 7426      0580
 7427 133c3 6BC00A6D 		.ascii	"k\300\012meb\031\014\031\014)\300\025\300+l!e\271\014"
 7427      6562190C 
 7427      190C29C0 
 7427      15C02B6C 
 7427      2165B90C 
 7428 133d7 393C0EC0 		.ascii	"9<\016\300+\021\026\201\001\0176\203\021\213\006\243"
 7428      2B111681 
 7428      010F3683 
 7428      118B06A3 
 7429 133e7 2B82258D 		.ascii	"+\202%\215\026\202\205\247+^\021\245+\004&\000$\200"
 7429      168285A7 
 7429      2B5E11A5 
 7429      2B042600 
 7429      2480
 7430 133f9 85800045 		.ascii	"\205\200\000E\366\023\006\003E\340\014\014K\2031@\025"
 7430      F6130603 
 7430      45E00C0C 
 7430      4B833140 
 7430      15
 7431 1340a 6E090C25 		.ascii	"n\011\014%\375Q\300\015ie!+\313G\006\014\205!\310Kb"
 7431      FD51C00D 
 7431      6965212B 
 7431      CB47060C 
 7431      8521C84B 
 7432 1341f 00041613 		.ascii	"\000\004\026\0236FB\300\000\014I\371\224\300+e\265\213"
 7432      364642C0 
 7432      000C49F9 
 7432      94C02B65 
 7432      B58B
 7433 13431 21092600 		.ascii	"!\011&\000\026'\006\300@p\021\202I\013\016\214\013\025"
 7433      162706C0 
 7433      40701182 
 7433      490B0E8C 
 7433      0B15
 7434 13443 36993697 		.ascii	"6\2316\2276\235&\233\026\241\026\237F\245\026\243\026"
 7434      369D269B 
 7434      16A1169F 
 7434      46A516A3 
ARM GAS  C:\Temp\ccVQrAGa.s 			page 425


 7434      16
 7435 13454 EFFC6968 		.ascii	"\357\374ih\214\013\036\033\357\374m\210\014\014\260"
 7435      8C0B1E1B 
 7435      EFFC6D88 
 7435      0C0CB0
 7436 13463 F1DD93F2 		.ascii	"\361\335\223\362\000\372\000\004\014\354`\036\360p\000"
 7436      00FA0004 
 7436      0CEC601E 
 7436      F07000
 7437 13472 0216E004 		.ascii	"\002\026\340\004\004\006\201\001\000k\203\021>\036\213"
 7437      04068101 
 7437      006B8311 
 7437      3E1E8B
 7438 13481 2111269B 		.ascii	"!\021&\233\026\274\016\237\006\235&\243\006\241\026"
 7438      16BC0E9F 
 7438      069D26A3 
 7438      06A116
 7439 13490 A706A506 		.ascii	"\247\006\245\006\253\026\251\026\257\006\255\026\214"
 7439      AB16A916 
 7439      AF06AD16 
 7439      8C
 7440 1349d 0B130697 		.ascii	"\013\023\006\227\026\225\026f\330\231\026\036\033\357"
 7440      16951666 
 7440      D899161E 
 7440      1BEF
 7441 134ab FC6AF88C 		.ascii	"\374j\370\214\013\260\361\357\374\362\000\014\014\301"
 7441      0BB0F1EF 
 7441      FCF2000C 
 7441      0CC1
 7442 134b9 C3DD93FA 		.ascii	"\303\335\223\372\000\004\014\354`\036\360\203!\000k"
 7442      00040CEC 
 7442      601EF083 
 7442      21006B
 7443 134c8 61D10C19 		.ascii	"a\321\014\031\0149\300\025\300\025b\031me\014\005\211"
 7443      0C39C015 
 7443      C0156219 
 7443      6D650C05 
 7443      89
 7444 134d9 16C00A65 		.ascii	"\026\300\012e\271\014\031\0216\300+<\016\2071\217\026"
 7444      B90C1911 
 7444      36C02B3C 
 7444      0E87318F 
 7444      16
 7445 134ea 810165B5 		.ascii	"\201\001e\265\014\031\0336\300+\213\006\2151\202\031"
 7445      0C191B36 
 7445      C02B8B06 
 7445      8D318219 
 7446 134fa 0D260216 		.ascii	"\015&\002\026\037\026\300@p\021\241&\2356\245&\243&"
 7446      1F16C040 
 7446      7011A126 
 7446      9D36A526 
 7446      A326
 7447 1350c 1306A706 		.ascii	"\023\006\247\006\213\036\214\013\227&\225&c8\231&\036"
 7447      8B1E8C0B 
 7447      97269526 
 7447      63389926 
 7447      1E
ARM GAS  C:\Temp\ccVQrAGa.s 			page 426


 7448 1351d 1BEFFC67 		.ascii	"\033\357\374gX\214\013\260\361\357\374\362\000\014\014"
 7448      588C0BB0 
 7448      F1EFFCF2 
 7448      000C0C
 7449 1352c C1C3DD93 		.ascii	"\301\303\335\223\372\000\004\014\354`\036\360\203!\000"
 7449      FA00040C 
 7449      EC601EF0 
 7449      832100
 7450 1353b 6B65B50C 		.ascii	"ke\265\014\011\201A@+b\031\0149\012\026@\025\274N\360"
 7450      09814140 
 7450      2B62190C 
 7450      390A1640 
 7450      15BC4EF0 
 7451 1354f 00618C02 		.ascii	"\000a\214\002\004\0216\202\011\370\210B\022\2131\037"
 7451      04113682 
 7451      09F88842 
 7451      128B311F 
 7452 1355f 068C0B3E 		.ascii	"\006\214\013>^\2356\233&\243F\241F\247\026\245F\253"
 7452      5E9D369B 
 7452      26A346A1 
 7452      46A716A5 
 7452      46AB
 7453 13571 46A926AF 		.ascii	"F\251&\257F\255&\225&\223F\231&\227&\357\374`\010\214"
 7453      46AD2695 
 7453      26934699 
 7453      269726EF 
 7453      FC60088C 
 7454 13585 0B1E1BEF 		.ascii	"\013\036\033\357\374d(\014\014\260\361\335\223\362\000"
 7454      FC64280C 
 7454      0CB0F1DD 
 7454      93F200
 7455 13594 FA00040C 		.ascii	"\372\000\004\014\354`\036\360\004\026\000k\300\004`"
 7455      EC601EF0 
 7455      0416006B 
 7455      C00460
 7456 135a3 116C210C 		.ascii	"\021l!\014\011\2411@+\203!>.\2131\0216`4\000J\002\014"
 7456      09A13140 
 7456      2B83213E 
 7456      2E8B3111 
 7456      36603400 
 7457 135ba 8101BC0E 		.ascii	"\201\001\274\016\342\000\2356\233&\241\006\237\006\245"
 7457      E2009D36 
 7457      9B26A106 
 7457      9F06A5
 7458 135c9 26A306A9 		.ascii	"&\243\006\251&\247\026\023\006\253\006\255&\214\013"
 7458      26A71613 
 7458      06AB06AD 
 7458      268C0B
 7459 135d8 9526AF26 		.ascii	"\225&\257&\231&\227&\357\374]\010\214\013\036\033\357"
 7459      99269726 
 7459      EFFC5D08 
 7459      8C0B1E1B 
 7459      EF
 7460 135e9 FC61280C 		.ascii	"\374a(\014\014\260\361\335\223\362\000\372\014\004\014"
 7460      0CB0F1DD 
 7460      93F200FA 
 7460      0C040C
ARM GAS  C:\Temp\ccVQrAGa.s 			page 427


 7461 135f8 0206006B 		.ascii	"\002\006\000kt\230\342\200@F\350\004\017\206`\004L\001"
 7461      7498E280 
 7461      4046E804 
 7461      0F866004 
 7461      4C01
 7462 1360a E010402B 		.ascii	"\340\020@+l\035\201\225\214\213c\201\020\011@\370\300"
 7462      6C1D8195 
 7462      8C8B6381 
 7462      100940F8 
 7462      C0
 7463 1361b 276106E8 		.ascii	"'a\006\350\000\354\004\016p\374\365\241{Ev\001\021\014"
 7463      00EC040E 
 7463      70FCF5A1 
 7463      7B457601 
 7463      110C
 7464 1362d 0BE0000C 		.ascii	"\013\340\000\014\014\214;\251\025\362\014a\204\004\004"
 7464      0C8C3BA9 
 7464      15F20C61 
 7464      840404
 7465 1363c E18C0204 		.ascii	"\341\214\002\004p\200D \360<H\000`\204\006\004(/\240"
 7465      70804420 
 7465      F03C4800 
 7465      60840604 
 7465      282FA0
 7466 1364f 194630C6 		.ascii	"\031F0\306\007\242/q\000r\000@\000]\223\246/\301\303"
 7466      07A22F71 
 7466      00720040 
 7466      005D93A6 
 7466      2FC1C3
 7467 13662 A40F6004 		.ascii	"\244\017`\004H&d\014K\006@A\300 @+l\035d\015H\006\201"
 7467      4826640C 
 7467      4B064041 
 7467      C020402B 
 7467      6C1D640D 
 7468 13679 35C020D1 		.ascii	"5\300 \321\306\315\310\376\265\213K\201\025\2051\372"
 7468      C6CDC8FE 
 7468      B58B4B81 
 7468      158531FA 
 7469 13689 7C044C41 		.ascii	"|\004LA\006\000k\000\004\341\024G\206\206{RF`\004L1"
 7469      06006B00 
 7469      04E11447 
 7469      86867B52 
 7469      4660044C 
 7470 1369e E12C402B 		.ascii	"\341,@+l\035\0008\255{\3409\201\261\000\006\0006\000"
 7470      6C1D0038 
 7470      AD7BE039 
 7470      81B10006 
 7470      003600
 7471 136b1 04E118E0 		.ascii	"\004\341\030\340\004G\226l\035L1\2031@+\244\004\200"
 7471      0447966C 
 7471      1D4C3183 
 7471      31402BA4 
 7471      0480
 7472 136c3 36868580 		.ascii	"6\206\205\200\266\212\005\243{\214\305\245{\220%\247"
 7472      B68A05A3 
 7472      7B8CC5A5 
 7472      7B9025A7 
ARM GAS  C:\Temp\ccVQrAGa.s 			page 428


 7473 136d3 7B92E5A9 		.ascii	"{\222\345\251{\204E\253{\226\265\241{a,\001\006\200"
 7473      7B8445AB 
 7473      7B96B5A1 
 7473      7B612C01 
 7473      0680
 7474 136e5 049F1101 		.ascii	"\004\237\021\001F\000\266\200\004\341,\244\004\200\026"
 7474      4600B680 
 7474      04E12CA4 
 7474      048016
 7475 136f4 42108018 		.ascii	"B\020\200\030\200\026\363\344\001\206\213\245\200\004"
 7475      8016F3E4 
 7475      01868BA5 
 7475      8004
 7476 13702 E12C01C6 		.ascii	"\341,\001\306\000\026\200\004\341,\244\004\200&B\020"
 7476      00168004 
 7476      E12CA404 
 7476      80264210 
 7477 13712 80188016 		.ascii	"\200\030\200\026\375\200\001\006\211\305\237\021a,\000"
 7477      FD800106 
 7477      89C59F11 
 7477      612C00
 7478 13721 B68004E1 		.ascii	"\266\200\004\341,\001F\200\026\200\004\200\030\244\004"
 7478      2C014680 
 7478      16800480 
 7478      18A404
 7479 13730 F3E44210 		.ascii	"\363\344B\020\200\026\304\031\001\006\207\305\200\004"
 7479      8016C419 
 7479      010687C5 
 7479      8004
 7480 1373e E12C0146 		.ascii	"\341,\001F\000\026\200\004\341,\244\004\200&\314\031"
 7480      00168004 
 7480      E12CA404 
 7480      8026CC19 
 7481 1374e 801885F5 		.ascii	"\200\030\205\365\200\026a,\001\206\340\000Cv\000\266"
 7481      8016612C 
 7481      0186E000 
 7481      437600B6 
 7482 1375e 8004E12C 		.ascii	"\200\004\341,\001\306\200\026\200\004\200\030\244\004"
 7482      01C68016 
 7482      80048018 
 7482      A404
 7483 1376c F27C4210 		.ascii	"\362|B\020\203\365\200\026a,\001\206\340\000Cv\000\266"
 7483      83F58016 
 7483      612C0186 
 7483      E0004376 
 7483      00B6
 7484 1377e 8004E12C 		.ascii	"\200\004\341,\001\306\200\026\200\004\200\030\244\004"
 7484      01C68016 
 7484      80048018 
 7484      A404
 7485 1378c F27C4210 		.ascii	"\362|B\020\374\224\002\024\201\325\200\026l\035\014"
 7485      FC940214 
 7485      81D58016 
 7485      6C1D0C
 7486 1379b 2911A640 		.ascii	")\021\246@+\003\246\340\010\214\013`\010\357\274Y\210"
 7486      2B03A6E0 
 7486      088C0B60 
ARM GAS  C:\Temp\ccVQrAGa.s 			page 429


 7486      08EFBC59 
 7486      88
 7487 137ac 9A85A30B 		.ascii	"\232\205\243\013\341,T\306\200\010\250\004\200\365\241"
 7487      E12C54C6 
 7487      8008A804 
 7487      80F5A1
 7488 137bb 0BE13401 		.ascii	"\013\3414\001F\200\004\200\004\202\265\261\013l\035"
 7488      46800480 
 7488      0482B5B1 
 7488      0B6C1D
 7489 137ca 0C2911A6 		.ascii	"\014)\021\246@+\003\246\340\010\214\013`\010\357\274"
 7489      402B03A6 
 7489      E0088C0B 
 7489      6008EFBC 
 7490 137da 58089485 		.ascii	"X\010\224\205\243\013\344}$\004\210\325\200\030\201"
 7490      A30BE47D 
 7490      240488D5 
 7490      801881
 7491 137e9 21421942 		.ascii	"!B\031B\206\000\026q\230\340<\214\013h\000aD\000\306"
 7491      86001671 
 7491      98E03C8C 
 7491      0B680061 
 7491      4400C6
 7492 137fc E1340546 		.ascii	"\3414\005F\250\024\200\004\2008\210$H\012\204H\200\205"
 7492      A8148004 
 7492      80388824 
 7492      480A8448 
 7492      8085
 7493 1380e E080B54B 		.ascii	"\340\200\265K\210DF\012\216\025\200\205\340\214\265"
 7493      8844460A 
 7493      8E158085 
 7493      E08CB5
 7494 1381d 3B88340C 		.ascii	";\2104\014)\374u@+l\035\340\010\021\266\003\266\005"
 7494      29FC7540 
 7494      2B6C1DE0 
 7494      0811B603 
 7494      B605
 7495 1382f 756019E0 		.ascii	"u`\031\340\010\000\026\201!\340<B\206h\000oH\000\306"
 7495      08001681 
 7495      21E03C42 
 7495      8668006F 
 7495      4800C6
 7496 13842 8C0B0546 		.ascii	"\214\013\005FaD\200\004\3414\210$\250\024\204H\2008"
 7496      61448004 
 7496      E1348824 
 7496      A8148448 
 7496      8038
 7497 13854 E090480A 		.ascii	"\340\220H\012\210D\200\205\204u\263K\340\214F\012\210"
 7497      88448085 
 7497      8475B34B 
 7497      E08C460A 
 7497      88
 7498 13865 348085FC 		.ascii	"4\200\205\374u\263;l\035\014)\021\306@+\003\306\340"
 7498      75B33B6C 
 7498      1D0C2911 
 7498      C6402B03 
 7498      C6E0
ARM GAS  C:\Temp\ccVQrAGa.s 			page 430


 7499 13877 0852F8E0 		.ascii	"\010R\370\340\010\214\013o\274"
 7499      088C0B6F 
 7499      BC
 7500 13880 8045A30B 		.ascii	"\200E\243\013s\330\201\201$\004\350\000\340\010\002"
 7500      73D88181 
 7500      2404E800 
 7500      E00802
 7501 1388f F6410600 		.ascii	"\366A\006\000\266\200\004\341\024l\035L\021\200\030"
 7501      B68004E1 
 7501      146C1D4C 
 7501      118018
 7502 1389e C02BF3BC 		.ascii	"\300+\363\274B\020\000\006\000\026\200\004\341\030\220"
 7502      42100006 
 7502      00168004 
 7502      E11890
 7503 138ad 0B00B6F2 		.ascii	"\013\000\266\362|\014L\301\303\335\223`\004HVd \013"
 7503      7C0C4CC1 
 7503      C3DD9360 
 7503      04485664 
 7503      200B
 7504 138bf 864041C0 		.ascii	"\206@A\300 @+l\035d\021\010\006\2015\300 \321\306\315"
 7504      20402B6C 
 7504      1D641108 
 7504      068135C0 
 7504      20D1C6CD 
 7505 138d3 C8FEB58B 		.ascii	"\310\376\265\213K\333u\2151d1I\006K\306@ \300 d9\315"
 7505      4BDB758D 
 7505      31643149 
 7505      064BC640 
 7505      20C02064 
 7506 138e9 C881358B 		.ascii	"\310\2015\213K\321\306\2131\376\265\301\303\331\245"
 7506      4BD1C68B 
 7506      31FEB5C1 
 7506      C3D9A5
 7507 138f8 E0044476 		.ascii	"\340\004Dvl\035@!A\306@+\300 d9\005\306\001e\300 d="
 7507      6C1D4021 
 7507      41C6402B 
 7507      C0206439 
 7507      05C60165 
 7508 13910 C136C538 		.ascii	"\3016\3058\376\265\205\013\201\001]\223\372\034\004"
 7508      FEB5850B 
 7508      81015D93 
 7508      FA1C04
 7509 1391f 4C811100 		.ascii	"L\201\021\000{\2011\001!\357\374k\010\016p\000k\300"
 7509      7B813101 
 7509      21EFFC6B 
 7509      080E7000 
 7509      6BC0
 7510 13931 9A66F164 		.ascii	"\232f\361d\015Q\006\241\221@ \341\010\201u\357\374g"
 7510      0D5106A1 
 7510      914020E1 
 7510      088175EF 
 7510      FC67
 7511 13943 C812905D 		.ascii	"\310\022\220]\006\241\233\354\004\214\013\3765\362\034"
 7511      06A19BEC 
 7511      048C0BFE 
 7511      35F21C
ARM GAS  C:\Temp\ccVQrAGa.s 			page 431


 7512 13952 0C4CC1C3 		.ascii	"\014L\301\303\335\223\372\034\004L\201\021\000{\207"
 7512      DD93FA1C 
 7512      044C8111 
 7512      007B87
 7513 13961 310121EF 		.ascii	"1\001!\357\374i(\016p\000k\300\263f\261d!\021\206\023"
 7513      FC69280E 
 7513      70006BC0 
 7513      B366B164 
 7513      21118613 
 7514 13975 86402081 		.ascii	"\206@ \201u\340\020e\330\341\010]\006\357\374\354\004"
 7514      75E01065 
 7514      D8E1085D 
 7514      06EFFCEC 
 7514      04
 7515 13986 1290FE35 		.ascii	"\022\220\3765\241\233\014L\214\013\335\223\362\034\372"
 7515      A19B0C4C 
 7515      8C0BDD93 
 7515      F21CFA
 7516 13995 7C044C00 		.ascii	"|\004L\000F\000k\000\004\341\030\340\004B6l\035L\021"
 7516      46006B00 
 7516      04E118E0 
 7516      0442366C 
 7516      1D4C11
 7517 139a8 83B1402B 		.ascii	"\203\261@+a0U\306\000\266\201\221\3414\020\306\000\226"
 7517      613055C6 
 7517      00B68191 
 7517      E13410C6 
 7517      0096
 7518 139ba A804E134 		.ascii	"\250\004\3414\000\006\204(\200\024\363\300D \200\004"
 7518      00068428 
 7518      8014F3C0 
 7518      44208004 
 7519 139ca 84269E19 		.ascii	"\204&\236\031\200\030\377@B\020\000\206\000\026\200"
 7519      8018FF40 
 7519      42100086 
 7519      001680
 7520 139d9 04E134A0 		.ascii	"\004\3414\240\004\200\226\241\013\200\010\001F\200\365"
 7520      048096A1 
 7520      0B800801 
 7520      4680F5
 7521 139e8 8004E134 		.ascii	"\200\004\3414\273\013\200\004\014)\202\265@+l\035\340"
 7521      BB0B8004 
 7521      0C2982B5 
 7521      402B6C1D 
 7521      E0
 7522 139f9 080FA660 		.ascii	"\010\017\246`\010\003\246F\270\214\013\243\013\357\274"
 7522      0803A646 
 7522      B88C0BA3 
 7522      0BEFBC
 7523 13a08 28048A45 		.ascii	"(\004\212E\340<B\206\000\266\201!`x\214\013\000\306"
 7523      E03C4286 
 7523      00B68121 
 7523      60788C0B 
 7523      00C6
 7524 13a1a E8000546 		.ascii	"\350\000\005FaD\200\004\3414\210$\240\024\204H\2008"
 7524      61448004 
 7524      E1348824 
ARM GAS  C:\Temp\ccVQrAGa.s 			page 432


 7524      A0148448 
 7524      8038
 7525 13a2c 8085A14B 		.ascii	"\200\205\241K\275K\210DF\012\204u\200\205\340\214\275"
 7525      BD4B8844 
 7525      460A8475 
 7525      8085E08C 
 7525      BD
 7526 13a3d 3B88340C 		.ascii	";\2104\014)\374\225@+l\035\340\010\017\306`\010\003"
 7526      29FC9540 
 7526      2B6C1DE0 
 7526      080FC660 
 7526      0803
 7527 13a4f C644388C 		.ascii	"\306D8\214\013\243\013\357\274\201q\200E\350\000e(\000"
 7527      0BA30BEF 
 7527      BC817180 
 7527      45E80065 
 7527      2800
 7528 13a61 96A804E1 		.ascii	"\226\250\004\341\030\000F\000\226\200\004\014L\216\013"
 7528      18004600 
 7528      9680040C 
 7528      4C8E0B
 7529 13a70 DD93F27C 		.ascii	"\335\223\362|\000%\241\033\000\013\005!\201,C\306\200"
 7529      0025A11B 
 7529      000B0521 
 7529      812C43C6 
 7529      80
 7530 13a81 00021580 		.ascii	"\000\002\025\200\000B%\243\033\200\305\245\033\200\205"
 7530      004225A3 
 7530      1B80C5A5 
 7530      1B8085
 7531 13a90 83658225 		.ascii	"\203e\202%e1\000%\002\006@\013\204\024\3410\000%\204"
 7531      65310025 
 7531      0206400B 
 7531      8414E130 
 7531      002584
 7532 13aa3 2E400B65 		.ascii	".@\013e!\341,C\306\004.\204\024\3410\002\006e1\000\005"
 7532      21E12C43 
 7532      C6042E84 
 7532      14E13002 
 7532      06653100 
 7533 13ab8 8414C00B 		.ascii	"\204\024\300\013\335\223\204\016\370\014\004La\030\004"
 7533      DD93840E 
 7533      F80C044C 
 7533      611804
 7534 13ac7 460834A5 		.ascii	"F\0104\245\033\214F\201A\243\033\210%C\006\020%\241"
 7534      1B8C4681 
 7534      41A31B88 
 7534      25430610 
 7534      25A1
 7535 13ad9 1B812C00 		.ascii	"\033\201,\0009\2325@-e1\341,C\006K\266\004\024\211\301"
 7535      399A3540 
 7535      2D6531E1 
 7535      2C43064B 
 7535      B6041489 
 7536 13aee E00C8448 		.ascii	"\340\014\204H\2029\363\370H@\2071&OCv\004F\000I\340"
 7536      8239F3F8 
 7536      48408731 
ARM GAS  C:\Temp\ccVQrAGa.s 			page 433


 7536      264F4376 
 7536      04460049 
 7537 13b03 0C402D65 		.ascii	"\014@-e1e1\000\000\007\325\300\265\000I\302G@-e1\341"
 7537      31653100 
 7537      0007D5C0 
 7537      B50049C2 
 7537      47402D65 
 7538 13b19 2C430682 		.ascii	",C\006\202I\2044JP\214X\250_\363\370\2044\214Ve1\000"
 7538      4984344A 
 7538      508C58A8 
 7538      5FF3F884 
 7538      348C5665 
 7539 13b2f 498C58C0 		.ascii	"I\214X\300-\210I\302G\363\354JP\214V\250_\000I\2044"
 7539      2D8849C2 
 7539      47F3EC4A 
 7539      508C56A8 
 7539      5F004984 
 7540 13b44 C02D6531 		.ascii	"\300-e1\302G\214XJP\220I\250_\363\334\004\024\214V\340"
 7540      C2478C58 
 7540      4A509049 
 7540      A85FF3DC 
 7540      04148C56 
 7541 13b59 084BF665 		.ascii	"\010K\366e5\0009\030\006@-\204H\340\004\2409\3107\363"
 7541      35003918 
 7541      06402D84 
 7541      48E004A0 
 7541      39C837F3 
 7542 13b6d BC48408F 		.ascii	"\274H@\2171&OC\366\004F\000I\340\004@-e5e5\000\000\312"
 7542      31264F43 
 7542      F6044600 
 7542      49E00440 
 7542      2D653565 
 7543 13b85 47C0B561 		.ascii	"G\300\265a,M\006\030t\230O\372\200\0064\212\217\234"
 7543      2C4D0618 
 7543      74984FFA 
 7543      8006348A 
 7543      8F9C
 7544 13b97 889C86A8 		.ascii	"\210\234\206\250\217\200\010\230D\305\007\220X'\017"
 7544      8F800898 
 7544      44C50790 
 7544      58270F
 7545 13ba6 8209A05F 		.ascii	"\202\011\240_\202_\010\004\220V\200\026\203\021\360"
 7545      825F0804 
 7545      90568016 
 7545      8311F0
 7546 13bb5 0C0C4CC1 		.ascii	"\014\014L\301\303\335\223\370\014\004La\210\004\024"
 7546      C3DD93F8 
 7546      0C044C61 
 7546      880414
 7547 13bc4 E1984786 		.ascii	"\341\230G\206\206\031\014T`\220\010$d\260\006\000\242"
 7547      86190C54 
 7547      60900824 
 7547      64B00600 
 7547      A2
 7548 13bd5 4FC08B0A 		.ascii	"O\300\213\012C\304G\201\325\201Q\030\300]\204L\205\354"
 7548      43C44781 
 7548      D5815118 
ARM GAS  C:\Temp\ccVQrAGa.s 			page 434


 7548      C05D844C 
 7548      85EC
 7549 13be7 04A1CBF0 		.ascii	"\004\241\313\360\020 1\376U\010@\202Q\300\001d\001\030"
 7549      102031FE 
 7549      55084082 
 7549      51C00164 
 7549      0118
 7550 13bf9 46A55B4C 		.ascii	"F\245[L@@\000|\225\334\000\334\000N0a\230F\206\340\000"
 7550      4040007C 
 7550      95DC00DC 
 7550      004E3061 
 7550      984686E0 
 7551 13c0e 4B866516 		.ascii	"K\206e\026D*d\000\000\000\0144\300\214\340\014H\006"
 7551      442A6400 
 7551      00000C34 
 7551      C08CE00C 
 7551      4806
 7552 13c20 81510335 		.ascii	"\201Q\0035e\022LZ\360\260N\022\000e\204c\214s|0\210"
 7552      65124C5A 
 7552      F0B04E12 
 7552      00658463 
 7552      8C737C30 
 7553 13c35 C144779C 		.ascii	"\301Dw\234n\206s\340\340\030\012p\001\374U\265[\202"
 7553      6E8673E0 
 7553      E0180A70 
 7553      01FC55B5 
 7553      5B82
 7554 13c47 5118067E 		.ascii	"Q\030\006~U\201\001\300\000\360\014\014L\301\303\335"
 7554      558101C0 
 7554      00F00C0C 
 7554      4CC1C3DD 
 7555 13c57 93F83C04 		.ascii	"\223\370<\004La\210\006\024\340\010\013\006\223!\006"
 7555      4C618806 
 7555      14E0080B 
 7555      06932106 
 7556 13c67 1966964A 		.ascii	"\031f\226J:\340\220\0104f\212X\032e\260\014\000\242"
 7556      3AE09008 
 7556      34668A58 
 7556      1A65B00C 
 7556      00A2
 7557 13c79 4FC08B81 		.ascii	"O\300\213\201\301\030S\016`\203u\211\201d@\212\253\010"
 7557      C118530E 
 7557      60837589 
 7557      8164408A 
 7557      AB08
 7558 13c8b 9B59AE81 		.ascii	"\233Y\256\201\205\354\004\020\200`\034L\225\210\221"
 7558      85EC0410 
 7558      80601C4C 
 7558      958891
 7559 13c9a C8A1FE15 		.ascii	"\310\241\376\025\241\213\012P\002\301\300\002e\001e"
 7559      A18B0A50 
 7559      02C1C002 
 7559      650165
 7560 13ca9 000840A5 		.ascii	"\000\010@\245\313\216kK\206\3725\010\000`\000\300\220"
 7560      CB8E6B4B 
 7560      86FA3508 
 7560      006000C0 
ARM GAS  C:\Temp\ccVQrAGa.s 			page 435


 7560      90
 7561 13cba 65806516 		.ascii	"e\200e\026F:\340\014@\006\201Q\003Ue\002NZ\360\230P"
 7561      463AE00C 
 7561      40068151 
 7561      03556502 
 7561      4E5AF098 
 7562 13ccf 12709852 		.ascii	"\022p\230RB\206s\210aN\212\216\203\244~\346\212\342"
 7562      42867388 
 7562      614E8A8E 
 7562      83A47EE6 
 7562      8AE2
 7563 13ce1 305285E0 		.ascii	"0R\205\340\340\014\012\002Q\374\025\265[\230KD\340\030"
 7563      E00C0A02 
 7563      51FC15B5 
 7563      5B984B44 
 7563      E018
 7564 13cf3 40C0000C 		.ascii	"@\300\000\014\006\201\001\374\325\360<\014L\301\303"
 7564      068101FC 
 7564      D5F03C0C 
 7564      4CC1C3
 7565 13d02 DD93FA00 		.ascii	"\335\223\372\000\004\014o\374Dh\214\013\200k\362\000"
 7565      040C6FFC 
 7565      44688C0B 
 7565      806BF200 
 7566 13d12 0C0CFFF0 		.ascii	"\014\014\377\360\005\350\000\000]\223\300(eA\000\000"
 7566      05E80000 
 7566      5D93C028 
 7566      65410000 
 7567 13d22 5D93C02B 		.ascii	"]\223\300+f\021a\010\003\206\204\024\235!\003\006\004"
 7567      66116108 
 7567      03868414 
 7567      9D210306 
 7567      04
 7568 13d33 260424E1 		.ascii	"&\004$\341\010\010\026\203\021\341\024E\006\2108\210"
 7568      08081683 
 7568      11E11445 
 7568      06883888 
 7569 13d43 240836C8 		.ascii	"$\0106\3109`\001\006\006\000%\300@\300\012n\361\241"
 7569      39600106 
 7569      060025C0 
 7569      40C00A6E 
 7569      F1A1
 7570 13d55 21472D08 		.ascii	"!G-\010\005\000)\001F\000'\200\004\341(\001\006\000"
 7570      05002901 
 7570      46002780 
 7570      04E12801 
 7570      0600
 7571 13d67 268004E1 		.ascii	"&\200\004\341(\335\223\200\026\341(\003\206\204(\204"
 7571      28DD9380 
 7571      16E12803 
 7571      86842884 
 7572 13d77 14872B84 		.ascii	"\024\207+\2048\002 \376\265@\021\355\\\300,m\001\301"
 7572      380220FE 
 7572      B54011ED 
 7572      5CC02C6D 
 7572      01C1
 7573 13d89 C3DD9360 		.ascii	"\303\335\223`\010CV\341(\005\206l\035@\021\210\024\300"
ARM GAS  C:\Temp\ccVQrAGa.s 			page 436


 7573      084356E1 
 7573      2805866C 
 7573      1D401188 
 7573      14C0
 7574 13d9b 2B843884 		.ascii	"+\2048\204(\376\265\207+\355\\\002 m\001@\021@\021\300"
 7574      28FEB587 
 7574      2BED5C02 
 7574      206D0140 
 7574      114011C0 
 7575 13daf 2CC01561 		.ascii	",\300\025a1e9@\021\335\223\300\"`\010Cf\341(\005\206"
 7575      31653940 
 7575      11DD93C0 
 7575      22600843 
 7575      66E12805 
 7576 13dc4 6C1D4011 		.ascii	"l\035@\021\210\024\300+\2048\204(\376\265\207+\355\\"
 7576      8814C02B 
 7576      84388428 
 7576      FEB5872B 
 7576      ED5C
 7577 13dd6 02206D01 		.ascii	"\002 m\001@\021@\021\300,\300\025a1eY@\021\335\223\300"
 7577      40114011 
 7577      C02CC015 
 7577      61316559 
 7577      4011DD93 
 7578 13deb 1B600843 		.ascii	"\033`\010C\226\341(\005\206l\035@\021\210\024\300+\204"
 7578      96E12805 
 7578      866C1D40 
 7578      118814C0 
 7578      2B84
 7579 13dfd 388428FE 		.ascii	"8\204(\376\265\207+\355\\\002 m\001@\021@\021\300,\300"
 7579      B5872BED 
 7579      5C02206D 
 7579      01401140 
 7579      11C02CC0 
 7580 13e11 15613562 		.ascii	"\025a5b\361@\021@\021\300\025\300\033e]\301\303\335"
 7580      F1401140 
 7580      11C015C0 
 7580      1B655DC1 
 7580      C3DD
 7581 13e23 936E0100 		.ascii	"\223n\001\000\013\007\006@\025\0144\341D\207!\241+\346"
 7581      0B070640 
 7581      150C34E1 
 7581      448721A1 
 7581      2BE6
 7582 13e35 86400A00 		.ascii	"\206@\012\000\306\014\016\200\024\341D\\\010\204&\200"
 7582      C60C0E80 
 7582      14E1445C 
 7582      08842680 
 7583 13e45 049A0042 		.ascii	"\004\232\000BJ\200\030\376\245\340\214\200\026\201\021"
 7583      4A8018FE 
 7583      A5E08C80 
 7583      168111
 7584 13e54 C1C3DD93 		.ascii	"\301\303\335\223n\001\000\013\007\306@\025\0144\341"
 7584      6E01000B 
 7584      07C64015 
 7584      0C34E1
 7585 13e63 448721A1 		.ascii	"D\207!\241+\346\206@\012\001\206\014\016\200\024\341"
ARM GAS  C:\Temp\ccVQrAGa.s 			page 437


 7585      2BE68640 
 7585      0A01860C 
 7585      0E8014E1 
 7586 13e73 445C0884 		.ascii	"D\\\010\204&\200\004\232\000BJ\200\030\376\245\340\214"
 7586      2680049A 
 7586      00424A80 
 7586      18FEA5E0 
 7586      8C
 7587 13e84 80168111 		.ascii	"\200\026\201\021\301\303\335\223\370\000\004La8K\306"
 7587      C1C3DD93 
 7587      F800044C 
 7587      61384BC6 
 7588 13e94 14348561 		.ascii	"\0244\205a\214H\241+\363\354H@HF\014F\020\304\341D\260"
 7588      8C48A12B 
 7588      F3EC4840 
 7588      48460C46 
 7588      10C4E144 
 7589 13ea9 368131B0 		.ascii	"6\2011\260f\220\30406\220\304\341DX\206n\001\000\013"
 7589      6690C430 
 7589      3690C4E1 
 7589      4458866E 
 7589      01000B
 7590 13ebc B0C4C015 		.ascii	"\260\304\300\025f\206@\012\260\016\207\021\000\026\220"
 7590      6686400A 
 7590      B00E8711 
 7590      001690
 7591 13ecb 04E13C00 		.ascii	"\004\341<\000\006\204\310\200\024\204\306\310\311\200"
 7591      0684C880 
 7591      1484C6C8 
 7591      C980
 7592 13ed9 188004F3 		.ascii	"\030\200\004\363\354B\020\224\004\200\026\310\031\200"
 7592      EC421094 
 7592      048016C8 
 7592      1980
 7593 13ee7 1880E580 		.ascii	"\030\200\345\200\026\200\030\220\004\340\214BJ\2006"
 7593      16801890 
 7593      04E08C42 
 7593      4A8036
 7594 13ef6 FEA5F000 		.ascii	"\376\245\360\000\014L\301\303\335\223aD\000\306\200"
 7594      0C4CC1C3 
 7594      DD936144 
 7594      00C680
 7595 13f05 048111DD 		.ascii	"\004\201\021\335\223\200\026\372\234\004\014C\346\002"
 7595      938016FA 
 7595      9C040C43 
 7595      E602
 7596 13f13 9B086BE0 		.ascii	"\233\010k\340\004@\021\206{@+l\035A\270\204\213B\006"
 7596      04401186 
 7596      7B402B6C 
 7596      1D41B884 
 7596      8B4206
 7597 13f26 E800C267 		.ascii	"\350\000\302ga\030\204i\004\024BF\004\226\204\024\341"
 7597      61188469 
 7597      04144246 
 7597      04968414 
 7597      E1
 7598 13f37 18428604 		.ascii	"\030B\206\004\206\204\024\341\030B\006\004v\204\024"
ARM GAS  C:\Temp\ccVQrAGa.s 			page 438


 7598      868414E1 
 7598      18420604 
 7598      768414
 7599 13f46 E1104420 		.ascii	"\341\020D \204(\254/\363\364\014\014\204&\203\365\362"
 7599      8428AC2F 
 7599      F3F40C0C 
 7599      842683F5 
 7599      F2
 7600 13f57 9C611441 		.ascii	"\234a\024A\006\341\024G\206\201A\000\024\204\030\204"
 7600      06E11447 
 7600      86814100 
 7600      14841884 
 7601 13f67 28CB278C 		.ascii	"(\313'\2144\202\031\004)\244\037\014Z\2004\214L\214"
 7601      34821904 
 7601      29A41F0C 
 7601      5A80348C 
 7601      4C8C
 7602 13f79 48E057F3 		.ascii	"H\340W\363\370H@\0004\214F\371\204@RB@\214H\214\026"
 7602      F8484000 
 7602      348C46F9 
 7602      84405242 
 7602      408C488C 
 7603 13f8e F2FCC1C3 		.ascii	"\362\374\301\303\335\223a\024C\206\341\300\004\004H"
 7603      DD936114 
 7603      4386E1C0 
 7603      040448
 7604 13f9d 000414CA 		.ascii	"\000\004\024\312\007\360\004\361\000@\000C\006\004,"
 7604      07F004F1 
 7604      00400043 
 7604      06042C
 7605 13fac 8424E114 		.ascii	"\204$\341\024F0\2108\250?\363\370\204\024\2106D \204"
 7605      46308838 
 7605      A83FF3F8 
 7605      84148836 
 7605      442084
 7606 13fbf 28A02FF2 		.ascii	"(\240/\362\374\335\223\204&\372\234\004\014A\366\000"
 7606      FCDD9384 
 7606      26FA9C04 
 7606      0C41F600 
 7607 13fcf 9B066BE0 		.ascii	"\233\006k\340\004R\001\204{@+l\035{\330\202\213\022"
 7607      04520184 
 7607      7B402B6C 
 7607      1D7BD882 
 7607      8B12
 7608 13fe1 29EFFC40 		.ascii	")\357\374@,n\225\341\034\002F\310\207\004\024q\300H"
 7608      2C6E95E1 
 7608      1C0246C8 
 7608      87041471 
 7608      C048
 7609 13ff3 8004269E 		.ascii	"\200\004&\236y\341\030CF\2108\204$\362<F0\2106\250?"
 7609      79E11843 
 7609      46883884 
 7609      24F23C46 
 7609      308836A8 
 7610 14008 84288414 		.ascii	"\204(\204\024\363\300D \004&\256/\341\034\002\206\204"
 7610      F3C04420 
 7610      0426AE2F 
ARM GAS  C:\Temp\ccVQrAGa.s 			page 439


 7610      E11C0286 
 7610      84
 7611 14019 668414F2 		.ascii	"f\204\024\362\234\014\014\301\303\367\245\372\204\004"
 7611      9C0C0CC1 
 7611      C3F7A5FA 
 7611      8404
 7612 14027 0C826B00 		.ascii	"\014\202k\000{e5\0169\016)\300+\300+e9e=\016\031|X\300"
 7612      7B65350E 
 7612      390E29C0 
 7612      2BC02B65 
 7612      39653D0E 
 7613 1403f 2B0E0BEF 		.ascii	"+\016\013\357\374f\270\214\033\241\013\350\000\014\014"
 7613      FC66B88C 
 7613      1BA10BE8 
 7613      000C0C
 7614 1404e 8085     		.ascii	"\200\205"
 7615 14050 DD93F284 		.ascii	"\335\223\362\204\214\033\016\013\362\204\014\014\340"
 7615      8C1B0E0B 
 7615      F2840C0C 
 7615      E0
 7616 1405d 0027E8FA 		.ascii	"\000'\350\372<\004\014A\246\000kL\001\340\004@+l\035"
 7616      3C040C41 
 7616      A6006B4C 
 7616      01E00440 
 7616      2B6C1D
 7617 14070 E00443A6 		.ascii	"\340\004C\246o\374}\210\200{\214\013\244\325\241{e="
 7617      6FFC7D88 
 7617      807B8C0B 
 7617      A4D5A17B 
 7617      653D
 7618 14082 0C290C19 		.ascii	"\014)\014\031\300+\300+e9e5\014\011d\270\300+\000\213"
 7618      C02BC02B 
 7618      65396535 
 7618      0C0964B8 
 7618      C02B008B 
 7619 14096 EFA0E104 		.ascii	"\357\240\341\004\001F\220+\000\004\014\245\200\224\300"
 7619      0146902B 
 7619      00040CA5 
 7619      8094C0
 7620 140a5 096E0D65 		.ascii	"\011n\015eA\0149\222\013\300+o\240d\210L\005\224\033"
 7620      410C3992 
 7620      0BC02B6F 
 7620      A064884C 
 7620      05941B
 7621 140b8 400B636D 		.ascii	"@\013cm\0149\222\013@+eIc\330\224\033\220+o\240ceL\005"
 7621      0C39920B 
 7621      402B6549 
 7621      63D8941B 
 7621      902B6FA0 
 7622 140d0 920B400B 		.ascii	"\222\013@\013eE\0149\224\033@+o\240c(L\005\220+@\013"
 7622      65450C39 
 7622      941B402B 
 7622      6FA06328 
 7622      4C05902B 
 7623 140e6 63710C39 		.ascii	"cq\0149\222\013@+eMbx\224\033\220+o\240mY\014\025\221"
 7623      920B402B 
 7623      654D6278 
ARM GAS  C:\Temp\ccVQrAGa.s 			page 440


 7623      941B902B 
 7623      6FA06D59 
 7624 140fd 21400A63 		.ascii	"!@\012ciL\005\002\013\300\013^\370\224\033L\005\357"
 7624      694C0502 
 7624      0BC00B5E 
 7624      F8941B4C 
 7624      05EF
 7625 1410f A040066D 		.ascii	"\240@\006mI\341\034\002\206L\005\204\024\300\010iAk"
 7625      49E11C02 
 7625      864C0584 
 7625      14C00869 
 7625      416B
 7626 14121 1D4C054C 		.ascii	"\035L\005L\005\300\010\300\010k\361L\001\204\010\300"
 7626      05C008C0 
 7626      086BF14C 
 7626      018408C0 
 7627 14131 1B65714C 		.ascii	"\033eqL\001\204\010\300\"eQL\001\204\010\300\"l\241"
 7627      018408C0 
 7627      2265514C 
 7627      018408C0 
 7627      226CA1
 7628 14144 43460408 		.ascii	"CF\004\010\204\024\341\030o\361L\001\204\010\300\"L"
 7628      8414E118 
 7628      6FF14C01 
 7628      8408C022 
 7628      4C
 7629 14155 019E09C0 		.ascii	"\001\236\011\300\033eu\236\011\204\010eUL\001\204\010"
 7629      1B65759E 
 7629      09840865 
 7629      554C0184 
 7629      08
 7630 14166 C0224C01 		.ascii	"\300\"L\001\236\011\300\"l\245\236\011\204\010o\365"
 7630      9E09C022 
 7630      6CA59E09 
 7630      84086FF5 
 7631 14176 4C018408 		.ascii	"L\001\204\010\300\"\216\011\311\007eyL\001\204\010\300"
 7631      C0228E09 
 7631      C9076579 
 7631      4C018408 
 7631      C0
 7632 14187 1B8E09C9 		.ascii	"\033\216\011\311\007eYL\001\204\010\300\"\216\011\311"
 7632      0765594C 
 7632      018408C0 
 7632      228E09C9 
 7633 14197 076CA94C 		.ascii	"\007l\251L\001\204\010\300\"\216\011\311\007o\371L\001"
 7633      018408C0 
 7633      228E09C9 
 7633      076FF94C 
 7633      01
 7634 141a8 4078C022 		.ascii	"@x\300\"\214\013h\000\014\014\216\013\335\223\362<h"
 7634      8C0B6800 
 7634      0C0C8E0B 
 7634      DD93F23C 
 7634      68
 7635 141b9 B1001B06 		.ascii	"\261\000\033\006\016@\012\303\320d\001\341\204\004\024"
 7635      0E400AC3 
 7635      D06401E1 
ARM GAS  C:\Temp\ccVQrAGa.s 			page 441


 7635      840414
 7636 141c8 6C790039 		.ascii	"ly\0009\206#@,\340\006B*\341\204\0044B*\202#\000+\340"
 7636      8623402C 
 7636      E006422A 
 7636      E1840434 
 7636      422A8223 
 7637 141df 0EC00A68 		.ascii	"\016\300\012h\265\002\006\304\035B\022\200\000@\025"
 7637      B50206C4 
 7637      1D421280 
 7637      004015
 7638 141ee D188C00B 		.ascii	"\321\210\300\013cu\301\303\335\223\372\234\004\014\014"
 7638      6375C1C3 
 7638      DD93FA9C 
 7638      040C0C
 7639 141fd 19806BC0 		.ascii	"\031\200k\300+d\301eQ\014\231\014y\300+\300+e\311\354"
 7639      2B64C165 
 7639      510C990C 
 7639      79C02BC0 
 7639      2B65C9EC 
 7640 14211 040010C7 		.ascii	"\004\000\020\307\227e\015\201\001\002\025\014\011\247"
 7640      97650D81 
 7640      0102150C 
 7640      09A7
 7641 1421f 1BC02C0E 		.ascii	"\033\300,\0161\203\001\200\265n1L\001\014\011\300,@"
 7641      31830180 
 7641      B56E314C 
 7641      010C09C0 
 7641      2C40
 7642 14231 2C6D0DF0 		.ascii	",m\015\360\004\000\012\216\223\002u\340\214@J\005M\000"
 7642      04000A8E 
 7642      930275E0 
 7642      8C404A05 
 7642      4D00
 7643 14243 6001C580 		.ascii	"`\001\305\200\255\005I\000`@J\300\255\000`\340\214\200"
 7643      AD054900 
 7643      60404AC0 
 7643      AD0060E0 
 7643      8C80
 7644 14255 AD054505 		.ascii	"\255\005E\005A\000`\200\210\300\255o\240N\010\002\224"
 7644      41006080 
 7644      88C0AD6F 
 7644      A04E0802 
 7644      94
 7645 14266 900B8141 		.ascii	"\220\013\201Az\200a\002F\032\020\033\214\013d\270\216"
 7645      7A806102 
 7645      461A101B 
 7645      8C0B64B8 
 7645      8E
 7646 14277 2B0C09EF 		.ascii	"+\014\011\357\374\300+eQl\035\014\031\310\007\300+j"
 7646      FCC02B65 
 7646      516C1D0C 
 7646      19C807C0 
 7646      2B6A
 7647 14289 A94C034C 		.ascii	"\251L\003L\003\300\015\300\021b\231fIL\003L\003\300"
 7647      03C00DC0 
 7647      11629966 
 7647      494C034C 
ARM GAS  C:\Temp\ccVQrAGa.s 			page 442


 7647      03C0
 7648 1429b 11401167 		.ascii	"\021@\021g\361R\030\214\013\241\013\350\000\014\014"
 7648      F152188C 
 7648      0BA10BE8 
 7648      000C0C
 7649 142aa 8085DD93 		.ascii	"\200\205\335\223\362\234l\035\014\031\214\013@+\362"
 7649      F29C6C1D 
 7649      0C198C0B 
 7649      402BF2
 7650 142b9 9C0C0CC1 		.ascii	"\234\014\014\301\303\237\205\370\004\004\014n1\000\031"
 7650      C39F85F8 
 7650      04040C6E 
 7650      310019
 7651 142c8 0019C02C 		.ascii	"\000\031\300,@,m\015\202E\241\033\340\214BJ\005\241"
 7651      402C6D0D 
 7651      8245A11B 
 7651      E08C424A 
 7651      05A1
 7652 142da 040001C5 		.ascii	"\004\000\001\305\200\263\005\221\004\000BJ\300\263\004"
 7652      80B30591 
 7652      0400424A 
 7652      C0B304
 7653 142e9 00E08C80 		.ascii	"\000\340\214\200\263\005\301\005\261\004\000\000i\300"
 7653      B305C105 
 7653      B1040000 
 7653      69C0
 7654 142f7 B3C02B64 		.ascii	"\263\300+d\315\000[\210$\300\025j\321j\341\000K\243"
 7654      CD005B88 
 7654      24C0156A 
 7654      D16AE100 
 7654      4BA3
 7655 14309 6B401568 		.ascii	"k@\025h\311\000\313\000;\300\012\300\012h\315\004a\000"
 7655      C900CB00 
 7655      3BC00AC0 
 7655      0A68CD04 
 7655      6100
 7656 1431b 6584C580 		.ascii	"e\204\305\200\005\000e\245k\200\005\004]\000u\204%@"
 7656      050065A5 
 7656      6B800504 
 7656      5D007584 
 7656      2540
 7657 1432d 0B637502 		.ascii	"\013cu\002\205\247k\234\000Lpd]\000e\314}\300\005\004"
 7657      85A76B9C 
 7657      004C7064 
 7657      5D0065CC 
 7657      7DC00504 
 7658 14341 6100654C 		.ascii	"a\000eLb\200\005BJ\232\234\330\307`\214\002d\002\345"
 7658      62800542 
 7658      4A9A9CD8 
 7658      C7608C02 
 7658      6402E5
 7659 14354 5857E0B0 		.ascii	"XW\340\260JZ\330GHJ\340\012@U\340\012\300\013cyc}@E"
 7659      4A5AD847 
 7659      484AE00A 
 7659      4055E00A 
 7659      C00B6379 
 7660 1436c 481AC00B 		.ascii	"H\032\300\013\330\035`\012B\022X7@E\321\260@\013c\201"
ARM GAS  C:\Temp\ccVQrAGa.s 			page 443


 7660      D81D600A 
 7660      42125837 
 7660      4045D1B0 
 7660      400B6381 
 7661 14380 481A8141 		.ascii	"H\032\201AB:\300\012@E\340\012\300\013c\205c\211@\025"
 7661      423AC00A 
 7661      4045E00A 
 7661      C00B6385 
 7661      63894015 
 7662 14394 8101400B 		.ascii	"\201\001@\013\360\004\014\014\301\303\335\223\372<\004"
 7662      F0040C0C 
 7662      C1C3DD93 
 7662      FA3C04
 7663 143a3 0C00B600 		.ascii	"\014\000\266\000\213P\001\340\010@+l\035\006{\210\253"
 7663      8B5001E0 
 7663      08402B6C 
 7663      1D067B88 
 7663      AB
 7664 143b4 4E18849B 		.ascii	"N\030\204\233\202\013o\240o\240Oh!\013\200k\002\006"
 7664      820B6FA0 
 7664      6FA04F68 
 7664      210B806B 
 7664      0206
 7665 143c6 FF11A3AB 		.ascii	"\377\021\243\253\000\000\202\003\002\345\202\225\323"
 7665      00008203 
 7665      02E58295 
 7665      D3
 7666 143d3 0D84A5A3 		.ascii	"\015\204\245\243{P\225\241{\300\013\005!P\225\204\025"
 7666      7B5095A1 
 7666      7BC00B05 
 7666      21509584 
 7666      15
 7667 143e4 C00B6521 		.ascii	"\300\013e!\243{\2035\241{\202\305\005!P\005\2025\300"
 7667      A37B8335 
 7667      A17B82C5 
 7667      05215005 
 7667      8235C0
 7668 143f7 0B652150 		.ascii	"\013e!P\005\201\205\300\013e1P\225\201E\300\013e1P\005"
 7668      058185C0 
 7668      0B653150 
 7668      958145C0 
 7668      0B653150 
 7669 1440c 100BC00B 		.ascii	"\020\013\300\013s\030\216\033Z\030\357\370\016do\374"
 7669      73188E1B 
 7669      5A18EFF8 
 7669      0E646FFC 
 7670 1441c 4386E1A0 		.ascii	"C\206\341\240\204\024\341\030C\306\004v\204\024\341"
 7670      8414E118 
 7670      43C60476 
 7670      8414E1
 7671 1442b 180C0C84 		.ascii	"\030\014\014\204f\033\030\362<\301\303\377\374\372\004"
 7671      661B18F2 
 7671      3CC1C3FF 
 7671      FCFA04
 7672 1443a 044C866B 		.ascii	"\004L\206kB'\004$\204!\006$\372\200\2023\341\204`\012"
 7672      42270424 
 7672      84210624 
ARM GAS  C:\Temp\ccVQrAGa.s 			page 444


 7672      FA808233 
 7672      E184600A 
 7673 1444e 4E3A0029 		.ascii	"N:\000)\306-@+\014\035\300\010B\226\317\264s\350`\001"
 7673      C62D402B 
 7673      0C1DC008 
 7673      4296CFB4 
 7673      73E86001 
 7674 14462 00068131 		.ascii	"\000\006\2011}\011\340\036@\012\345\032B\012\345\232"
 7674      7D09E01E 
 7674      400AE51A 
 7674      420AE59A 
 7675 14472 440A6481 		.ascii	"D\012d\201\000\020B\"\307\241\004\016r\214\300\003t"
 7675      00104222 
 7675      C7A1040E 
 7675      728CC003 
 7675      74
 7676 14483 246F5C74 		.ascii	"$o\\t\210\014L\2011\335\223\362\004\372\000\004\014"
 7676      880C4C81 
 7676      31DD93F2 
 7676      04FA0004 
 7676      0C
 7677 14494 6C010C12 		.ascii	"l\001\014\022\201\021@(o`]\250\214\013\214+\362\000"
 7677      81114028 
 7677      6F605DA8 
 7677      8C0B8C2B 
 7677      F200
 7678 144a6 0C0CC1C3 		.ascii	"\014\014\301\303\335\223\372\000\004\014B\006\002+\004"
 7678      DD93FA00 
 7678      040C4206 
 7678      022B04
 7679 144b5 14E118E1 		.ascii	"\024\341\030\341$G\206\204\030\201a\2148\2144\202E\207"
 7679      24478684 
 7679      1881618C 
 7679      388C3482 
 7679      4587
 7680 144c7 1B600803 		.ascii	"\033`\010\003f\340\010\015f\357\264pH\014\006\241\013"
 7680      66E0080D 
 7680      66EFB470 
 7680      480C06A1 
 7680      0B
 7681 144d8 8C0B8000 		.ascii	"\214\013\200\000\362\000\014\014\301\303\335\223\372"
 7681      F2000C0C 
 7681      C1C3DD93 
 7681      FA
 7682 144e5 00040C42 		.ascii	"\000\004\014B\206\002+\004\024\341\030\341$G\306\204"
 7682      86022B04 
 7682      14E118E1 
 7682      2447C684 
 7683 144f5 1881618C 		.ascii	"\030\201a\2148\2144\202E\207\033`\010\003v\340\010\015"
 7683      388C3482 
 7683      45871B60 
 7683      080376E0 
 7683      080D
 7684 14507 76EFB46E 		.ascii	"v\357\264n\210\014\006\241\013\214\013\200\000\362\000"
 7684      880C06A1 
 7684      0B8C0B80 
 7684      00F200
ARM GAS  C:\Temp\ccVQrAGa.s 			page 445


 7685 14516 0C0CC1C3 		.ascii	"\014\014\301\303\335\223\372\000\004\014\002\306\002"
 7685      DD93FA00 
 7685      040C02C6 
 7685      02
 7686 14523 2B0414E1 		.ascii	"+\004\024\341(\341\030GF\204\030\201a\2148\2144\216"
 7686      28E11847 
 7686      46841881 
 7686      618C388C 
 7686      348E
 7687 14535 39C93782 		.ascii	"9\3117\202E\207\033`\010\003\206\340\010\015\206\357"
 7687      45871B60 
 7687      080386E0 
 7687      080D86EF 
 7688 14545 B46CA80C 		.ascii	"\264l\250\014\006\241\013\214\013\200\000\362\000\014"
 7688      06A10B8C 
 7688      0B8000F2 
 7688      000C
 7689 14553 0CC1C3DD 		.ascii	"\014\301\303\335\223\372\000\004\014\002\206\002+\004"
 7689      93FA0004 
 7689      0C028602 
 7689      2B04
 7690 14561 14E128E1 		.ascii	"\024\341(\341\030GF\204\030\201a\2148\2144\207\033\236"
 7690      18474684 
 7690      1881618C 
 7690      388C3487 
 7690      1B9E
 7691 14573 39039682 		.ascii	"9\003\226\202E\015\226`\010j\330\340\010\241\013\357"
 7691      450D9660 
 7691      086AD8E0 
 7691      08A10BEF 
 7692 14583 B480000C 		.ascii	"\264\200\000\014\006\014\014\214\013\335\223\362\000"
 7692      060C0C8C 
 7692      0BDD93F2 
 7692      00
 7693 14590 6C800412 		.ascii	"l\200\004\022\2011\201\021H\000\305=\000\004P\004B\022"
 7693      81318111 
 7693      4800C53D 
 7693      00045004 
 7693      4212
 7694 145a2 C1840630 		.ascii	"\301\204\0060P\220\374\365\304\004\202\013]\223\372"
 7694      5090FCF5 
 7694      C404820B 
 7694      5D93FA
 7695 145b1 00040C0C 		.ascii	"\000\004\014\014\011\200k\300+e\265\340\204@\012\005"
 7695      09806BC0 
 7695      2B65B5E0 
 7695      84400A05 
 7696 145c1 A90C1940 		.ascii	"\251\014\031@\206@+\000\005\301\000@\021\300\000\204"
 7696      86402B00 
 7696      05C10040 
 7696      11C00084 
 7697 145d1 95C0006D 		.ascii	"\225\300\000m!\014\011@\012\300,\202\305\340\200cy\014"
 7697      210C0940 
 7697      0AC02C82 
 7697      C5E08063 
 7697      790C
 7698 145e3 15853140 		.ascii	"\025\2051@\013\214\013\003Ao\374m\250\214\013\202+\362"
ARM GAS  C:\Temp\ccVQrAGa.s 			page 446


 7698      0B8C0B03 
 7698      416FFC6D 
 7698      A88C0B82 
 7698      2BF2
 7699 145f5 000C0C81 		.ascii	"\000\014\014\201\001\201e\362\000\014\014\301\303\335"
 7699      018165F2 
 7699      000C0CC1 
 7699      C3DD
 7700 14603 93FA7C04 		.ascii	"\223\372|\004L\000\206\000k\200\004\341<B\020\200\030"
 7700      4C008600 
 7700      6B8004E1 
 7700      3C421080 
 7700      18
 7701 14614 8016F1FC 		.ascii	"\200\026\361\374e\265\014\011@J\300+\000\004`\230\200"
 7701      65B50C09 
 7701      404AC02B 
 7701      00046098 
 7701      80
 7702 14625 C5FA006C 		.ascii	"\305\372\000l\375\014\031\241\033\300,\377\021\202\205"
 7702      FD0C19A1 
 7702      1BC02CFF 
 7702      118285
 7703 14634 8235820D 		.ascii	"\2025\202\015f\355\014\031\241\033\300&\002`\002\205"
 7703      66ED0C19 
 7703      A11BC026 
 7703      02600285 
 7704 14644 809906E5 		.ascii	"\200\231\006\345\340\224@\012\004E\002`\002`\300\236"
 7704      E094400A 
 7704      04450260 
 7704      0260C09E 
 7705 14654 80AD05A9 		.ascii	"\200\255\005\251S\366\004\030\0149\340\000\300+e\255"
 7705      53F60418 
 7705      0C39E000 
 7705      C02B65AD 
 7706 14664 70844432 		.ascii	"p\204D2\005\012\246\023\026\022d\374\022$\340\000@\012"
 7706      050AA613 
 7706      161264FC 
 7706      1224E000 
 7706      400A
 7707 14676 1A800060 		.ascii	"\032\200\000`\340\220@\231\006\361\300\000\002\006O"
 7707      E0904099 
 7707      06F1C000 
 7707      02064F
 7708 14685 604E68C0 		.ascii	"`Nh\300\030\004\006\025\206\017\276\001\001\341\000"
 7708      18040615 
 7708      860FBE01 
 7708      01E100
 7709 14694 89758171 		.ascii	"\211u\201qa\000@\206\340\010B\006\203!\000\004\214\013"
 7709      61004086 
 7709      E0084206 
 7709      83210004 
 7709      8C0B
 7710 146a6 00B6EFF8 		.ascii	"\000\266\357\370{\350`<B\206Rx\214\013\000{\357\340"
 7710      7BE8603C 
 7710      42865278 
 7710      8C0B007B 
 7710      EFE0
ARM GAS  C:\Temp\ccVQrAGa.s 			page 447


 7711 146b8 75B88C0B 		.ascii	"u\270\214\013\014\011\357\370@,m\001\360\240Db\241{"
 7711      0C09EFF8 
 7711      402C6D01 
 7711      F0A04462 
 7711      A17B
 7712 146ca 28146BF1 		.ascii	"(\024k\361D\001\204\010\300&A\366\202e\201\021`<\357"
 7712      44018408 
 7712      C02641F6 
 7712      82658111 
 7712      603CEF
 7713 146dd 644F2860 		.ascii	"dO(`\014C\006`x\214\013Y8\357\310\014\031\357\334\300"
 7713      0C430660 
 7713      788C0B59 
 7713      38EFC80C 
 7713      19EFDCC0 
 7714 146f1 2B65B5E0 		.ascii	"+e\265\340\220B\012\002\204\202e\004``\210\300\231f"
 7714      90420A02 
 7714      84826504 
 7714      606088C0 
 7714      9966
 7715 14703 F0902304 		.ascii	"\360\220#\004\023D\261\204\016\014\025\344\000\300\012"
 7715      1344B184 
 7715      0E0C15E4 
 7715      00C00A
 7716 14712 6D610206 		.ascii	"ma\002\006\302\015L\021\300\000\300&\006\355\202\261"
 7716      C20D4C11 
 7716      C000C026 
 7716      06ED82B1 
 7717 14722 80D5FA80 		.ascii	"\200\325\372\200\020\264\354\345\322\215e\265\014\031"
 7717      10B4ECE5 
 7717      D28D65B5 
 7717      0C19
 7718 14730 8291402B 		.ascii	"\202\221@+\340\220B\012\300\034\036%\321\210D\202\006"
 7718      E090420A 
 7718      C01C1E25 
 7718      D1884482 
 7718      06
 7719 14741 E14C2193 		.ascii	"\341L!\223\213@&\014\011\204\365@&f\345\341\000B\206"
 7719      8B40260C 
 7719      0984F540 
 7719      2666E5E1 
 7719      004286
 7720 14754 83210414 		.ascii	"\203!\004\024f\355L!\004\006\300&\340<A\366odJ\350C"
 7720      66ED4C21 
 7720      0406C026 
 7720      E03C41F6 
 7720      6F644AE8 
 7721 14769 0681118C 		.ascii	"\006\201\021\214\013`\014\357\310\\(B\012\205\225D\206"
 7721      0B600CEF 
 7721      C85C2842 
 7721      0A859544 
 7721      86
 7722 1477a 60940824 		.ascii	"`\224\010$\341\000\004A\002`L\261\300\236@&f\345\005"
 7722      E1000441 
 7722      02604CB1 
 7722      C09E4026 
 7722      66E505
ARM GAS  C:\Temp\ccVQrAGa.s 			page 448


 7723 1478d B1026084 		.ascii	"\261\002`\204\030\200\255\002\022\220\023\210\026\354"
 7723      1880AD02 
 7723      12901388 
 7723      16EC
 7724 1479b FC6C6D0C 		.ascii	"\374lm\014)L\021\300,\300&f\351i\265L\005D\012\300\011"
 7724      294C11C0 
 7724      2CC02666 
 7724      E969B54C 
 7724      05440AC0 
 7725 147b0 8245E090 		.ascii	"\202E\340\220o\370m\350\014\011\214\013\300,m\001m\005"
 7725      6FF86DE8 
 7725      0C098C0B 
 7725      C02C6D01 
 7725      6D05
 7726 147c2 4C014046 		.ascii	"L\001@F\300,\200\024\341\000D \204(\004&\363\354\341"
 7726      C02C8014 
 7726      E1004420 
 7726      84280426 
 7726      F3ECE1
 7727 147d5 3C028684 		.ascii	"<\002\206\204(\204\024\374\234\004$\200\004\204&\310"
 7727      288414FC 
 7727      9C042480 
 7727      048426C8 
 7728 147e5 1980188E 		.ascii	"\031\200\030\216\013\000\026\362|\014L\301\303\335\223"
 7728      0B0016F2 
 7728      7C0C4CC1 
 7728      C3DD93
 7729 147f4 FA00040C 		.ascii	"\372\000\004\014@\246\000kL\001\340\000@+l\035iX\214"
 7729      40A6006B 
 7729      4C01E000 
 7729      402B6C1D 
 7729      69588C
 7730 14807 0B6E38EF 		.ascii	"\013n8\357\364\214\013o\350\014\031\241\013\200,\015"
 7730      F48C0B6F 
 7730      E80C19A1 
 7730      0B802C0D 
 7731 14817 15937C42 		.ascii	"\025\223|B\020\015\025L\021"
 7731      100D154C 
 7731      11
 7732 14820 8111002C 		.ascii	"\201\021\000,l!L\021\014\014\300+\335\223\362\000\372"
 7732      6C214C11 
 7732      0C0CC02B 
 7732      DD93F200 
 7732      FA
 7733 14831 1C044C81 		.ascii	"\034\004L\201q\000kf5\014\013C\366@\026Ls\357\374\300"
 7733      71006B66 
 7733      350C0B43 
 7733      F640164C 
 7733      73EFFCC0 
 7734 14845 166671E0 		.ascii	"\026fq\340\200@J\014\031\230\205\300+lIlQ\014\211\014"
 7734      80404A0C 
 7734      199885C0 
 7734      2B6C496C 
 7734      510C890C 
 7735 14859 29C02BC0 		.ascii	")\300+\300+lUlM\0149\305\027@+\305'\305\207H*E7J:\346"
 7735      2B6C556C 
 7735      4D0C39C5 
ARM GAS  C:\Temp\ccVQrAGa.s 			page 449


 7735      17402BC5 
 7735      27C58748 
 7736 14873 A20644E6 		.ascii	"\242\006D\346\206\010T\372\200\211;\372\200\200\000"
 7736      860854FA 
 7736      80893BFA 
 7736      808000
 7737 14882 0016888C 		.ascii	"\000\026\210\214\000\004\002\000\020\305\0149\214\004"
 7737      00040200 
 7737      10C50C39 
 7737      8C04
 7738 14890 402C6D09 		.ascii	"@,m\011\340\204@\012f\206D*\372\200\010\024\201Q\001"
 7738      E084400A 
 7738      6686442A 
 7738      FA800814 
 7738      815101
 7739 148a3 116C0400 		.ascii	"\021l\004\0000@\002\2031\000\011\320\230\300,\014\241"
 7739      30400283 
 7739      310009D0 
 7739      98C02C0C 
 7739      A1
 7740 148b4 6CE94C01 		.ascii	"l\351L\001\203\005\300,\204%\241\213z\200\030\204\350"
 7740      8305C02C 
 7740      8425A18B 
 7740      7A801884 
 7740      E8
 7741 148c5 94123460 		.ascii	"\224\0224`2XJ\373\200\002\024L\023\262\037\300\026f"
 7741      32584AFB 
 7741      8002144C 
 7741      13B21FC0 
 7741      1666
 7742 148d7 71855D98 		.ascii	"q\205]\230S\203E\374\025l\035\014)B\226@+Ox\340\010"
 7742      538345FC 
 7742      156C1D0C 
 7742      29429640 
 7742      2B4F78E0 
 7743 148ec 8C0B6FB4 		.ascii	"\214\013o\264\340\010N\226fq\014\033\243\013@\026l\351"
 7743      E0084E96 
 7743      66710C1B 
 7743      A30B4016 
 7743      6CE9
 7744 148fe 0C090E06 		.ascii	"\014\011\016\006@,\000\004\300\000\002\024z\200@\012"
 7744      402C0004 
 7744      C0000214 
 7744      7A80400A 
 7745 1490e FB80A11F 		.ascii	"\373\200\241\037\346\242fqL\023\216\013@\026\362\034"
 7745      E6A26671 
 7745      4C138E0B 
 7745      4016F21C 
 7746 1491e 0C4CC1C3 		.ascii	"\014L\301\303\335\223\341\004B\006\204\032\204\024n"
 7746      DD93E104 
 7746      4206841A 
 7746      84146E
 7747 1492d 194013DD 		.ascii	"\031@\023\335\223\300\025\370|\004\014\354`\036\360"
 7747      93C015F8 
 7747      7C040CEC 
 7747      601EF0
 7748 1493c 6C410069 		.ascii	"lA\000i\237q@+lI\0009\201\201@+lQ\000I\201\221@+B:\257"
ARM GAS  C:\Temp\ccVQrAGa.s 			page 450


 7748      9F71402B 
 7748      6C490039 
 7748      8181402B 
 7748      6C510049 
 7749 14957 76421AE6 		.ascii	"vB\032\346\232\276\036\340\022lM\000\031<\036\300+`"
 7749      9ABE1EE0 
 7749      126C4D00 
 7749      193C1EC0 
 7749      2B60
 7750 14969 31020E7C 		.ascii	"1\002\016|\036\302A\340@\002\026\217\021\015\034\225"
 7750      1EC241E0 
 7750      4002168F 
 7750      110D1C95 
 7751 14979 111D1685 		.ascii	"\021\035\026\205\021\037\026\213\021!\026\221\021#\026"
 7751      111F168B 
 7751      11211691 
 7751      112316
 7752 14988 97112516 		.ascii	"\227\021%\026\231\021'\026\233\021)\026\235\021+\026"
 7752      99112716 
 7752      9B112916 
 7752      9D112B16 
 7753 14998 81112D16 		.ascii	"\201\021-\026lU\000\311\203e\300+d \012\360\012)\202"
 7753      6C5500C9 
 7753      8365C02B 
 7753      64200AF0 
 7753      0A2982
 7754 149ab B18023FC 		.ascii	"\261\200#\374\010h\201D\201\202\201@\033lA\000i\012"
 7754      08688144 
 7754      81828140 
 7754      1B6C4100 
 7754      690A
 7755 149bd 64C02B04 		.ascii	"d\300+\004\264z\200\224S\372\200\372\265\313-\000)\202"
 7755      B47A8094 
 7755      53FA80FA 
 7755      B5CB2D00 
 7755      2982
 7756 149cf 91402B6C 		.ascii	"\221@+lE\372\200\024\224\004\224\305\255T \300\210\300"
 7756      45FA8014 
 7756      940494C5 
 7756      AD5420C0 
 7756      88C0
 7757 149e1 0313F156 		.ascii	"\003\023\361V\240z\265\000)\334\000@,l\201\372\200\030"
 7757      A07AB500 
 7757      29DC0040 
 7757      2C6C81FA 
 7757      8018
 7758 149f3 C4E01246 		.ascii	"\304\340\022F:\243+<$\337\374O\356h\275@q>$\300\033"
 7758      3AA32B3C 
 7758      24DFFC4F 
 7758      EE68BD40 
 7758      713E24C0 
 7759 14a08 FA800A24 		.ascii	"\372\200\012$`2HZd\200\012\000\007E\300n\372\200\004"
 7759      6032485A 
 7759      64800A00 
 7759      0745C06E 
 7759      FA8004
 7760 14a1b 246E1900 		.ascii	"$n\031\000\313X\012\300\025Y\346\344\204LP\000\014\210"
ARM GAS  C:\Temp\ccVQrAGa.s 			page 451


 7760      CB580AC0 
 7760      1559E6E4 
 7760      844C5000 
 7760      0C88
 7761 14a2d A59C006C 		.ascii	"\245\234\000ly\000\311\345\315\300,\224\310\2105lA\000"
 7761      7900C9E5 
 7761      CDC02C94 
 7761      C888356C 
 7761      4100
 7762 14a3f 690079C0 		.ascii	"i\000y\300+\300,l\351\340\032P\312\340\016Rz\341\032"
 7762      2BC02C6C 
 7762      E9E01A50 
 7762      CAE00E52 
 7762      7AE11A
 7763 14a52 58CAE692 		.ascii	"X\312\346\222P\212\341\016LzX\312\020\223\016\224\346"
 7763      508AE10E 
 7763      4C7A58CA 
 7763      10930E94 
 7763      E6
 7764 14a63 8E50027A 		.ascii	"\216P\002z\200Nz\360\204\214\303f\212d\201\014\200\216"
 7764      804E7AF0 
 7764      848CC366 
 7764      8A64810C 
 7764      808E
 7765 14a75 C3C06E02 		.ascii	"\303\300n\002\021\230\306\002\012\202Q\362\265\340@"
 7765      1198C602 
 7765      0A8251F2 
 7765      B5E040
 7766 14a84 0C0CB0F1 		.ascii	"\014\014\260\361\335\223\360|\000\000\020\024\000CJ"
 7766      DD93F07C 
 7766      00001014 
 7766      00434A
 7767 14a93 B0000009 		.ascii	"\260\000\000\011,\000\000\032$\000CT\300\000\000\000"
 7767      2C00001A 
 7767      24004354 
 7767      C0000000 
 7768 14aa3 20000019 		.ascii	" \000\000\031D\000\000\000\000\000\000\000\340\000\000"
 7768      44000000 
 7768      00000000 
 7768      E00000
 7769 14ab2 00000080 		.ascii	"\000\000\000\200\002\000\000\200\002\001\000\000\000"
 7769      02000080 
 7769      02010000 
 7769      00
 7770 14abf 00008002 		.ascii	"\000\000\200\002\021\000\200\002\022\000\000\000\000"
 7770      11008002 
 7770      12000000 
 7770      00
 7771 14acc 00800216 		.ascii	"\000\200\002\026\000\200\002\027\000\200\002\030\000"
 7771      00800217 
 7771      00800218 
 7771      00
 7772 14ad9 80021900 		.ascii	"\200\002\031\000\200\002\032\000\200\002\033\000\000"
 7772      80021A00 
 7772      80021B00 
 7772      00
 7773 14ae6 00000080 		.ascii	"\000\000\000\200\002\035\000\200\002\036\000\200\002"
ARM GAS  C:\Temp\ccVQrAGa.s 			page 452


 7773      021D0080 
 7773      021E0080 
 7773      02
 7774 14af3 20008002 		.ascii	" \000\200\002$\000\200\002&\000\200\002,\000\000\000"
 7774      24008002 
 7774      26008002 
 7774      2C000000 
 7775 14b03 00008002 		.ascii	"\000\000\200\002/\000\200\002F\000\000\000\000\000\200"
 7775      2F008002 
 7775      46000000 
 7775      000080
 7776 14b12 024A0000 		.ascii	"\002J\000\000\000\000\000\200\002L\000\200\002M\000"
 7776      00000080 
 7776      024C0080 
 7776      024D00
 7777 14b21 80024E00 		.ascii	"\200\002N\000\200\002Q\000\000\000\000\000\200\002S"
 7777      80025100 
 7777      00000000 
 7777      800253
 7778 14b30 00000000 		.ascii	"\000\000\000\000\000\200\002W\000\000\000\000\000\200"
 7778      00800257 
 7778      00000000 
 7778      0080
 7779 14b3e 02590080 		.ascii	"\002Y\000\200\002Z\000\200\002_\000\200\002`\000\200"
 7779      025A0080 
 7779      025F0080 
 7779      02600080 
 7780 14b4e 02610080 		.ascii	"\002a\000\200\002b\000\200\002c\000\200\002d\000\200"
 7780      02620080 
 7780      02630080 
 7780      02640080 
 7781 14b5e 02650080 		.ascii	"\002e\000\200\002f\000\200\002g\000\200\002h\000\200"
 7781      02660080 
 7781      02670080 
 7781      02680080 
 7782 14b6e 02730000 		.ascii	"\002s\000\000\000\000\000\200\002x\000\200\002|\000"
 7782      00000080 
 7782      02780080 
 7782      027C00
 7783 14b7d 80028100 		.ascii	"\200\002\201\000\200\002\206\000\200\002\207\000\000"
 7783      80028600 
 7783      80028700 
 7783      00
 7784 14b8a 00000080 		.ascii	"\000\000\000\200\002\225\000\000\000\000\000\200\002"
 7784      02950000 
 7784      00000080 
 7784      02
 7785 14b97 99000000 		.ascii	"\231\000\000\000\000\000\200\002\243\000\200\002\250"
 7785      00008002 
 7785      A3008002 
 7785      A8
 7786 14ba4 00000000 		.ascii	"\000\000\000\000\000\200\002\252\000\200\002\253\000"
 7786      008002AA 
 7786      008002AB 
 7786      00
 7787 14bb1 8002AC00 		.ascii	"\200\002\254\000\200\002\255\000\200\002\256\000\200"
 7787      8002AD00 
ARM GAS  C:\Temp\ccVQrAGa.s 			page 453


 7787      8002AE00 
 7787      80
 7788 14bbe 02B10080 		.ascii	"\002\261\000\200\002\262\000\000\000\000\000\200\002"
 7788      02B20000 
 7788      00000080 
 7788      02
 7789 14bcb B6008002 		.ascii	"\266\000\200\002\267\000\200\002\270\000\200\002\271"
 7789      B7008002 
 7789      B8008002 
 7789      B9
 7790 14bd8 008002BA 		.ascii	"\000\200\002\272\000\200\002\273\000\200\002\274\000"
 7790      008002BB 
 7790      008002BC 
 7790      00
 7791 14be5 8002BD00 		.ascii	"\200\002\275\000\200\002\276\000\200\002\277\000\200"
 7791      8002BE00 
 7791      8002BF00 
 7791      80
 7792 14bf2 02C20080 		.ascii	"\002\302\000\200\002\303\000\200\002\304\000\200\002"
 7792      02C30080 
 7792      02C40080 
 7792      02
 7793 14bff C5008040 		.ascii	"\305\000\200@\000\000\000\000\000\000\200@\002\000\200"
 7793      00000000 
 7793      00008040 
 7793      020080
 7794 14c0e 40030080 		.ascii	"@\003\000\200@\004\000\200@\006\000\000\000\000\000"
 7794      40040080 
 7794      40060000 
 7794      000000
 7795 14c1d 80400900 		.ascii	"\200@\011\000\200@\012\000\200@\013\000\200@\014\000"
 7795      80400A00 
 7795      80400B00 
 7795      80400C00 
 7796 14c2d 00000000 		.ascii	"\000\000\000\000\200@\016\000\200@\017\000\000\000\000"
 7796      80400E00 
 7796      80400F00 
 7796      000000
 7797 14c3c 00804013 		.ascii	"\000\200@\023\000\200@\024\000\200@\025\000\000\000"
 7797      00804014 
 7797      00804015 
 7797      000000
 7798 14c4b 00008040 		.ascii	"\000\000\200@\031\000\200@\036\000\200@\037\000\200"
 7798      19008040 
 7798      1E008040 
 7798      1F0080
 7799 14c5a 40200000 		.ascii	"@ \000\000\000\000\000\200@$\000\200@%\000\200@<\000"
 7799      00000080 
 7799      40240080 
 7799      40250080 
 7799      403C00
 7800 14c6d 80403D00 		.ascii	"\200@=\000\200@>\000\200@?\000\200@@\000\200@A\000\200"
 7800      80403E00 
 7800      80403F00 
 7800      80404000 
 7800      80404100 
 7801 14c82 40420080 		.ascii	"@B\000\200@C\000\200@D\000\200@E\000\200@F\000\200@"
ARM GAS  C:\Temp\ccVQrAGa.s 			page 454


 7801      40430080 
 7801      40440080 
 7801      40450080 
 7801      40460080 
 7802 14c97 47008040 		.ascii	"G\000\200@H\000\200@I\000\200@J\000\200@K\000\200@L"
 7802      48008040 
 7802      49008040 
 7802      4A008040 
 7802      4B008040 
 7803 14cac 0080404D 		.ascii	"\000\200@M\000\200@N\000\200@O\000\200@P\000\200@Q\000"
 7803      0080404E 
 7803      0080404F 
 7803      00804050 
 7803      00804051 
 7804 14cc1 80405200 		.ascii	"\200@R\000\200@S\000\200@T\000\200@U\000\200@V\000\200"
 7804      80405300 
 7804      80405400 
 7804      80405500 
 7804      80405600 
 7805 14cd6 40570080 		.ascii	"@W\000\200@X\000\200@Y\000\200@Z\000\200@[\000\200@"
 7805      40580080 
 7805      40590080 
 7805      405A0080 
 7805      405B0080 
 7806 14ceb 5C000000 		.ascii	"\\\000\000\000\000\000\200@^\000\000\000\000\000\200"
 7806      00008040 
 7806      5E000000 
 7806      000080
 7807 14cfa 40600000 		.ascii	"@`\000\000\000\000\000\200@i\000\200@j\000\200@k\000"
 7807      00000080 
 7807      40690080 
 7807      406A0080 
 7807      406B00
 7808 14d0d 00000000 		.ascii	"\000\000\000\000\200@t\000\200@x\000\200@y\000\200@"
 7808      80407400 
 7808      80407800 
 7808      80407900 
 7808      8040
 7809 14d1f 7A008040 		.ascii	"z\000\200@|\000\200@\204\000\200@\205\000\200@\210\000"
 7809      7C008040 
 7809      84008040 
 7809      85008040 
 7809      8800
 7810 14d31 80408900 		.ascii	"\200@\211\000\200@\216\000\000\000\000\000\200@\220"
 7810      80408E00 
 7810      00000000 
 7810      804090
 7811 14d40 00804091 		.ascii	"\000\200@\221\000\200@\231\000\000\000\000\000\200@"
 7811      00804099 
 7811      00000000 
 7811      008040
 7812 14d4f 9F000000 		.ascii	"\237\000\000\000\000\000\200@\241\000\200@\242\000\000"
 7812      00008040 
 7812      A1008040 
 7812      A20000
 7813 14d5e 00000080 		.ascii	"\000\000\000\200@\250\000\200@\260\000\200@\266\000"
 7813      40A80080 
ARM GAS  C:\Temp\ccVQrAGa.s 			page 455


 7813      40B00080 
 7813      40B600
 7814 14d6d 8040D000 		.ascii	"\200@\320\000\200@\321\000\200@\324\000\200@\325\000"
 7814      8040D100 
 7814      8040D400 
 7814      8040D500 
 7815 14d7d 00000000 		.ascii	"\000\000\000\000\200@\335\000\000\000\000\000\200@\337"
 7815      8040DD00 
 7815      00000000 
 7815      8040DF
 7816 14d8c 008043DC 		.ascii	"\000\200C\334\000\200C\335\000\000\000\000\000\200C"
 7816      008043DD 
 7816      00000000 
 7816      008043
 7817 14d9b E4008044 		.ascii	"\344\000\200D\004\000\200D(\000\000\000\000\000\200"
 7817      04008044 
 7817      28000000 
 7817      000080
 7818 14daa 44480080 		.ascii	"DH\000\200DL\000\200DP\000\200DT\000\200DX\000\200D"
 7818      444C0080 
 7818      44500080 
 7818      44540080 
 7818      44580080 
 7819 14dbf 5C008044 		.ascii	"\\\000\200D`\000\200Dd\000\200Dh\000\000\000\000\000"
 7819      60008044 
 7819      64008044 
 7819      68000000 
 7819      0000
 7820 14dd1 80469800 		.ascii	"\200F\230\000\000\000\000\000\200H\310\000\200H\311"
 7820      00000000 
 7820      8048C800 
 7820      8048C9
 7821 14de0 00000000 		.ascii	"\000\000\000\000\000\200H\313\000\200H\314\000\000\000"
 7821      008048CB 
 7821      008048CC 
 7821      000000
 7822 14def 00008049 		.ascii	"\000\000\200I\034\000\000\000\000\000\2004<\000\200"
 7822      1C000000 
 7822      00008034 
 7822      3C0080
 7823 14dfe 80000080 		.ascii	"\200\000\000\200\200\001\000\200\200\002\000\200\200"
 7823      80010080 
 7823      80020080 
 7823      80
 7824 14e0b 06008080 		.ascii	"\006\000\200\200\007\000\000\000\000\000\200\200\011"
 7824      07000000 
 7824      00008080 
 7824      09
 7825 14e18 00000000 		.ascii	"\000\000\000\000\000\200\200\016\000\200\200\020\000"
 7825      0080800E 
 7825      00808010 
 7825      00
 7826 14e25 00000000 		.ascii	"\000\000\000\000\200\200\024\000\200\200\030\000\200"
 7826      80801400 
 7826      80801800 
 7826      80
 7827 14e32 801C0000 		.ascii	"\200\034\000\000\000\000\000\200\200-\000\200\200.\000"
ARM GAS  C:\Temp\ccVQrAGa.s 			page 456


 7827      00000080 
 7827      802D0080 
 7827      802E00
 7828 14e41 80803100 		.ascii	"\200\2001\000\200\2002\000\200\2005\000\200\2006\000"
 7828      80803200 
 7828      80803500 
 7828      80803600 
 7829 14e51 80803700 		.ascii	"\200\2007\000\000\000\000\000\200\2009\000\200\200:"
 7829      00000000 
 7829      80803900 
 7829      80803A
 7830 14e60 0080803B 		.ascii	"\000\200\200;\000\200\200<\000\200\200=\000\200\200"
 7830      0080803C 
 7830      0080803D 
 7830      008080
 7831 14e6f 3E008080 		.ascii	">\000\200\200@\000\200\200D\000\200\200H\000\200\200"
 7831      40008080 
 7831      44008080 
 7831      48008080 
 7832 14e7f 49008080 		.ascii	"I\000\200\200J\000\000\000\000\000\200\200L\000\200"
 7832      4A000000 
 7832      00008080 
 7832      4C0080
 7833 14e8e 80500080 		.ascii	"\200P\000\200\200T\000\200\200U\000\200\200V\000\000"
 7833      80540080 
 7833      80550080 
 7833      80560000 
 7834 14e9e 00000080 		.ascii	"\000\000\000\200\200X\000\200\200\\\000\200\200`\000"
 7834      80580080 
 7834      805C0080 
 7834      806000
 7835 14ead 80806100 		.ascii	"\200\200a\000\200\200b\000\000\000\000\000\200\200d"
 7835      80806200 
 7835      00000000 
 7835      808064
 7836 14ebc 00808068 		.ascii	"\000\200\200h\000\200\200l\000\200\200m\000\200\200"
 7836      0080806C 
 7836      0080806D 
 7836      008080
 7837 14ecb 6E000000 		.ascii	"n\000\000\000\000\000\200\200p\000\200\200t\000\200"
 7837      00008080 
 7837      70008080 
 7837      740080
 7838 14eda 80780080 		.ascii	"\200x\000\200\200y\000\200\200z\000\000\000\000\000"
 7838      80790080 
 7838      807A0000 
 7838      000000
 7839 14ee9 80807C00 		.ascii	"\200\200|\000\200\200\200\000\000\000\000\000\200\200"
 7839      80808000 
 7839      00000000 
 7839      8080
 7840 14ef7 88008080 		.ascii	"\210\000\200\200\214\000\000\000\000\000\200\200\224"
 7840      8C000000 
 7840      00008080 
 7840      94
 7841 14f04 00808098 		.ascii	"\000\200\200\230\000\000\000\000\000\200\000\200\000"
 7841      00000000 
ARM GAS  C:\Temp\ccVQrAGa.s 			page 457


 7841      00800080 
 7841      00
 7842 14f11 80008100 		.ascii	"\200\000\201\000\200\000\202\000\200\000\203\000\200"
 7842      80008200 
 7842      80008300 
 7842      80
 7843 14f1e 00840080 		.ascii	"\000\204\000\200\000\205\000\200\000\206\000\200\000"
 7843      00850080 
 7843      00860080 
 7843      00
 7844 14f2b 87008000 		.ascii	"\207\000\200\000\210\000\200\000\211\000\200\000\212"
 7844      88008000 
 7844      89008000 
 7844      8A
 7845 14f38 0080008B 		.ascii	"\000\200\000\213\000\200\000\214\000\200\000\215\000"
 7845      0080008C 
 7845      0080008D 
 7845      00
 7846 14f45 80008E00 		.ascii	"\200\000\216\000\200\000\217\000\200\000\220\000\000"
 7846      80008F00 
 7846      80009000 
 7846      00
 7847 14f52 00000080 		.ascii	"\000\000\000\200\001\001\000\200\001\002\000\200\001"
 7847      01010080 
 7847      01020080 
 7847      01
 7848 14f5f 03008001 		.ascii	"\003\000\200\001\004\000\200\001\005\000\200\001\006"
 7848      04008001 
 7848      05008001 
 7848      06
 7849 14f6c 00800107 		.ascii	"\000\200\001\007\000\200\001\012\000\200\001\014\000"
 7849      0080010A 
 7849      0080010C 
 7849      00
 7850 14f79 812C0000 		.ascii	"\201,\000\000\201/\374\000\000\015\000\000\000\000d"
 7850      812FFC00 
 7850      000D0000 
 7850      000064
 7851 14f88 0000BB80 		.ascii	"\000\000\273\200\000\000\032H\000\000\373\200\000\000"
 7851      00001A48 
 7851      0000FB80 
 7851      0000
 7852 14f96 00000000 		.ascii	"\000\000\000\000\000\000\000\000\000\000\000\000\027"
 7852      00000000 
 7852      00000000 
 7852      17
 7853 14fa3 EC000018 		.ascii	"\354\000\000\030T\000\000\030\274\000\000\000\000\000"
 7853      54000018 
 7853      BC000000 
 7853      0000
 7854 14fb1 00000000 		.ascii	"\000\000\000\000\000\000\000\000\000\000\000\000\000"
 7854      00000000 
 7854      00000000 
 7854      00
 7855 14fbe 00000000 		.ascii	"\000\000\000\000\000\000\000\000\000\000\000\000\000"
 7855      00000000 
 7855      00000000 
ARM GAS  C:\Temp\ccVQrAGa.s 			page 458


 7855      00
 7856 14fcb 00000000 		.ascii	"\000\000\000\000\000\000\000\032?\000\000\000\000\000"
 7856      0000001A 
 7856      3F000000 
 7856      0000
 7857 14fd9 00000000 		.ascii	"\000\000\000\000\000\000\000\000\000\000\000\000\000"
 7857      00000000 
 7857      00000000 
 7857      00
 7858 14fe6 00000000 		.ascii	"\000\000\000\000\000\000\000\000\000\000"
 7858      00000000 
 7858      0000
 7859 14ff0 00000000 		.ascii	"\000\000\000\000\000\000\000\000\000\000\000\000\000"
 7859      00000000 
 7859      00000000 
 7859      00
 7860 14ffd 000000   		.ascii	"\000\000\000"
 7861              		.section	.rodata
 7862              		.align	2
 7863              		.set	.LANCHOR0,. + 0
 7864              	.LC2:
 7865 0000 0F040400 		.ascii	"\017\004\004\000\010\020\020\007"
 7865      08101007 
 7866              	.LC3:
 7867 0008 0000000F 		.ascii	"\000\000\000\017\003\001\001\344"
 7867      030101E4 
 7868              	.LC5:
 7869 0010 00780008 		.ascii	"\000x\000\010\000\000\000\010"
 7869      00000008 
 7870              	.LC6:
 7871 0018 00000000 		.ascii	"\000\000\000\000\000\000\000\017\000\002\000\010"
 7871      0000000F 
 7871      00020008 
 7872              	.LC7:
 7873 0024 9FD800C0 		.ascii	"\237\330\000\300\003 \011`\013\010\010\027\010\010\010"
 7873      03200960 
 7873      0B080817 
 7873      080808
 7874 0033 039FE401 		.ascii	"\003\237\344\001@\000\000\000\000\000\000\000\000\000"
 7874      40000000 
 7874      00000000 
 7874      0000
 7875 0041 00000001 		.ascii	"\000\000\000\001\340\000 \000\000\000 \237\370\000@"
 7875      E0002000 
 7875      0000209F 
 7875      F80040
 7876 0050 17171717 		.ascii	"\027\027\027\027\237\374\004\004\000\000F\244\000\000"
 7876      9FFC0404 
 7876      000046A4 
 7876      0000
 7877 005e 37660000 		.ascii	"7f\000\000&`\000\000\034\274\000\000\027s\000\000\021"
 7877      26600000 
 7877      1CBC0000 
 7877      17730000 
 7877      11
 7878 006f 25000011 		.ascii	"%\000\000\021\007\000\000\016c\000\000\213L\000\000"
 7878      0700000E 
ARM GAS  C:\Temp\ccVQrAGa.s 			page 459


 7878      6300008B 
 7878      4C0000
 7879 007e 60A20000 		.ascii	"`\242\000\000=\300\000\000&\252\000\000\033\302\000"
 7879      3DC00000 
 7879      26AA0000 
 7879      1BC200
 7880 008d 00180400 		.ascii	"\000\030\004\000\000\024\227\000\000\020\355\000\001"
 7880      00149700 
 7880      0010ED00 
 7880      01
 7881 009a 281B0000 		.ascii	"(\033\000\000\223\360\000\000Wa\000\0000+\000\000 \252"
 7881      93F00000 
 7881      57610000 
 7881      302B0000 
 7881      20AA
 7882 00ac 00001AB6 		.ascii	"\000\000\032\266\000\000\025\303\000\000\026\016\000"
 7882      000015C3 
 7882      0000160E 
 7882      00
 7883 00b9 017FBB00 		.ascii	"\001\177\273\000\000\255X\000\000q\257\000\0006\331"
 7883      00AD5800 
 7883      0071AF00 
 7883      0036D9
 7884 00c8 000022FB 		.ascii	"\000\000\"\373\000\000\034\226\000\000\030\203\000\000"
 7884      00001C96 
 7884      00001883 
 7884      0000
 7885 00d6 17960001 		.ascii	"\027\226\000\001\220\000\000\000\227\326\000\000f;\000"
 7885      90000000 
 7885      97D60000 
 7885      663B00
 7886 00e5 00330A00 		.ascii	"\0003\012\000\000 \315\000\000\0318\000\000\026\245"
 7886      0020CD00 
 7886      00193800 
 7886      0016A5
 7887 00f4 000014BB 		.ascii	"\000\000\024\273\000\000\257\317\000\000e}\000\000="
 7887      0000AFCF 
 7887      0000657D 
 7887      00003D
 7888 0103 93000029 		.ascii	"\223\000\000)\321\000\000\031N\000\000\025\272\000\000"
 7888      D1000019 
 7888      4E000015 
 7888      BA0000
 7889 0112 11C60000 		.ascii	"\021\306\000\000\022\177\000\000s\035\000\000B,\000"
 7889      127F0000 
 7889      731D0000 
 7889      422C00
 7890 0121 002E8200 		.ascii	"\000.\202\000\000\036\200\000\000\030\034\000\000\023"
 7890      001E8000 
 7890      00181C00 
 7890      0013
 7891 012f 2D00000F 		.ascii	"-\000\000\017\306\000\000\017\205\000\000O\004\000\000"
 7891      C600000F 
 7891      8500004F 
 7891      040000
 7892 013e 33E90000 		.ascii	"3\351\000\000\037\006\000\000\030@\000\000\023,\000"
 7892      1F060000 
ARM GAS  C:\Temp\ccVQrAGa.s 			page 460


 7892      18400000 
 7892      132C00
 7893 014d 00129700 		.ascii	"\000\022\227\000\000\016\001\000\000\015\254\240\374"
 7893      000E0100 
 7893      000DACA0 
 7893      FC
 7894 015a 01000000 		.ascii	"\001\000\000\000\000\000\000\000\000\003\000\000\000"
 7894      00000000 
 7894      00030000 
 7894      00
 7895 0167 00000000 		.ascii	"\000\000\000\000\000\241\014\001\000\000\000\000\200"
 7895      00A10C01 
 7895      00000000 
 7895      80
 7896 0174 00000003 		.ascii	"\000\000\000\003\000\000\000\000\000\000\000\000\241"
 7896      00000000 
 7896      00000000 
 7896      A1
 7897 0181 1C00C000 		.ascii	"\034\000\300\000\000p\353\014\200\001\340\000\000\000"
 7897      0070EB0C 
 7897      8001E000 
 7897      0000
 7898 018f 26A12809 		.ascii	"&\241(\011\002\000\000\000\000\000\000\000\000\000\000"
 7898      02000000 
 7898      00000000 
 7898      000000
 7899 019e 00000001 		.ascii	"\000\000\000\001\000\000\0006\000\003\001\331\001C\002"
 7899      00000036 
 7899      000301D9 
 7899      014302
 7900 01ad 33021702 		.ascii	"3\002\027\002K\002A\001\027\002\"\000'\000]\000\005"
 7900      4B024101 
 7900      17022200 
 7900      27005D00 
 7900      05
 7901 01be 00110000 		.ascii	"\000\021\000\000\000\001\000\000\000\000\000\000\000"
 7901      00010000 
 7901      00000000 
 7901      00
 7902 01cb 00000000 		.ascii	"\000\000\000\000\000\000\000\000\000\000\000\000\000"
 7902      00000000 
 7902      00000000 
 7902      00
 7903 01d8 00000000 		.ascii	"\000\000\000\000\000\000\000\000\000\000\000\000\000"
 7903      00000000 
 7903      00000000 
 7903      00
 7904 01e5 00000000 		.ascii	"\000\000\000\000\000\000\000\000\000\000\000\000\000"
 7904      00000000 
 7904      00000000 
 7904      00
 7905 01f2 00000000 		.ascii	"\000\000\000\000\000\000\000\000\000\000\000\000\000"
 7905      00000000 
 7905      00000000 
 7905      00
 7906 01ff 00000000 		.ascii	"\000\000\000\000\000\000\000\000\000\000\000\000\000"
 7906      00000000 
ARM GAS  C:\Temp\ccVQrAGa.s 			page 461


 7906      00000000 
 7906      00
 7907 020c 00000000 		.ascii	"\000\000\000\000\000\000\000\000\000\000\000\000\000"
 7907      00000000 
 7907      00000000 
 7907      00
 7908 0219 00000000 		.ascii	"\000\000\000\000\000\000\000\000\000\000\000\000\000"
 7908      00000000 
 7908      00000000 
 7908      00
 7909 0226 00000000 		.ascii	"\000\000\000\000\000\000\000\000\000\000\000\000\000"
 7909      00000000 
 7909      00000000 
 7909      00
 7910 0233 00000000 		.ascii	"\000\000\000\000\000\000\000\000\000\000\000\000\000"
 7910      00000000 
 7910      00000000 
 7910      00
 7911 0240 00000000 		.ascii	"\000\000\000\000\000\000\000\000\000\000\000\000\000"
 7911      00000000 
 7911      00000000 
 7911      00
 7912 024d 00000000 		.ascii	"\000\000\000\000\000\000\000\000\000\000\000\000\000"
 7912      00000000 
 7912      00000000 
 7912      00
 7913 025a 00000000 		.ascii	"\000\000\000\000\000\000\000\000\000\000\000\000\000"
 7913      00000000 
 7913      00000000 
 7913      00
 7914 0267 00000000 		.ascii	"\000\000\000\000\000\000\000\000\000\000\000\000\000"
 7914      00000000 
 7914      00000000 
 7914      00
 7915 0274 00000000 		.ascii	"\000\000\000\000\000\000\000\000\000\000\000\000\000"
 7915      00000000 
 7915      00000000 
 7915      00
 7916 0281 00000000 		.ascii	"\000\000\000\000\000\000\000\000\000\000\000\000\000"
 7916      00000000 
 7916      00000000 
 7916      00
 7917 028e 00000000 		.ascii	"\000\000\000\000\000\000\000\000\000\000\000\000\000"
 7917      00000000 
 7917      00000000 
 7917      00
 7918 029b 00000000 		.ascii	"\000\000\000\000\000\000\000\000\000\000\000\000\000"
 7918      00000000 
 7918      00000000 
 7918      00
 7919 02a8 00000000 		.ascii	"\000\000\000\000\000\000\000\000\000\000\000\000\242"
 7919      00000000 
 7919      00000000 
 7919      A2
 7920 02b5 48004000 		.ascii	"H\000@\000\000\000\000\242L\000\201\000\000\000\000"
 7920      000000A2 
 7920      4C008100 
ARM GAS  C:\Temp\ccVQrAGa.s 			page 462


 7920      000000
 7921 02c4 00000000 		.ascii	"\000\000\000\000\242T\000\201\000\000\000\000\000\000"
 7921      A2540081 
 7921      00000000 
 7921      0000
 7922 02d2 0000A25C 		.ascii	"\000\000\242\\\000\201\000\000\000\000\000\000\000\000"
 7922      00810000 
 7922      00000000 
 7922      0000
 7923 02e0 A2640081 		.ascii	"\242d\000\201\000\000\000\000\000\000\000\000\242l\000"
 7923      00000000 
 7923      00000000 
 7923      A26C00
 7924 02ef 84000000 		.ascii	"\204\000\000\000\000\000\000\000\000\000\000\000\000"
 7924      00000000 
 7924      00000000 
 7924      00
 7925 02fc 00000000 		.ascii	"\000\000\000\000\000\000\000\000\000\000\000\000\000"
 7925      00000000 
 7925      00000000 
 7925      00
 7926 0309 00000000 		.ascii	"\000\000\000\000\000\000\000\242\214\000\202\000\000"
 7926      000000A2 
 7926      8C008200 
 7926      00
 7927 0316 00000000 		.ascii	"\000\000\000\000\000\000\000\000\000\000\000\000\000"
 7927      00000000 
 7927      00000000 
 7927      00
 7928 0323 00000000 		.ascii	"\000\000\000\000\017\005\001\003\004"
 7928      0F050103 
 7928      04
 7929              	.LC0:
 7930 032c 07000000 		.word	7
 7931 0330 00000000 		.word	0
 7932 0334 00000000 		.word	0
 7933 0338 000000C0 		.word	-1073741824
 7934              	.LC1:
 7935 033c 0D000000 		.word	13
 7936 0340 C000B454 		.word	1421082816
 7937 0344 4000C054 		.word	1421869120
 7938 0348 0401D054 		.word	1422917892
 7939 034c 0404D055 		.word	1439695876
 7940 0350 010484DB 		.word	-612105215
 7941 0354 0404C4DB 		.word	-607910908
 7942 0358 0204C4DE 		.word	-557579262
 7943 035c 020444DF 		.word	-549190654
 7944 0360 010444E0 		.word	-532413439
 7945 0364 010484E0 		.word	-528219135
 7946 0368 C00858D8 		.word	-665319232
 7947              		.ident	"GCC: (xPack GNU Arm Embedded GCC x86_64) 12.3.1 20230626"
ARM GAS  C:\Temp\ccVQrAGa.s 			page 463


DEFINED SYMBOLS
                            *ABS*:00000000 vl53l8cx_api.c
  C:\Temp\ccVQrAGa.s:18     .text._vl53l8cx_poll_for_mcu_boot:00000000 $t
  C:\Temp\ccVQrAGa.s:23     .text._vl53l8cx_poll_for_mcu_boot:00000000 _vl53l8cx_poll_for_mcu_boot
  C:\Temp\ccVQrAGa.s:69     .text._vl53l8cx_poll_for_answer:00000000 $t
  C:\Temp\ccVQrAGa.s:74     .text._vl53l8cx_poll_for_answer:00000000 _vl53l8cx_poll_for_answer
  C:\Temp\ccVQrAGa.s:124    .text._vl53l8cx_send_offset_data:00000000 $t
  C:\Temp\ccVQrAGa.s:129    .text._vl53l8cx_send_offset_data:00000000 _vl53l8cx_send_offset_data
  C:\Temp\ccVQrAGa.s:278    .text._vl53l8cx_send_offset_data:00000178 $d
  C:\Temp\ccVQrAGa.s:281    .rodata._vl53l8cx_send_xtalk_data.str1.4:00000000 $d
  C:\Temp\ccVQrAGa.s:285    .text._vl53l8cx_send_xtalk_data:00000000 $t
  C:\Temp\ccVQrAGa.s:290    .text._vl53l8cx_send_xtalk_data:00000000 _vl53l8cx_send_xtalk_data
  C:\Temp\ccVQrAGa.s:403    .text._vl53l8cx_send_xtalk_data:0000011c $d
  C:\Temp\ccVQrAGa.s:408    .text.vl53l8cx_is_alive:00000000 $t
  C:\Temp\ccVQrAGa.s:414    .text.vl53l8cx_is_alive:00000000 vl53l8cx_is_alive
  C:\Temp\ccVQrAGa.s:462    .text.vl53l8cx_set_i2c_address:00000000 $t
  C:\Temp\ccVQrAGa.s:468    .text.vl53l8cx_set_i2c_address:00000000 vl53l8cx_set_i2c_address
  C:\Temp\ccVQrAGa.s:494    .text.vl53l8cx_get_power_mode:00000000 $t
  C:\Temp\ccVQrAGa.s:500    .text.vl53l8cx_get_power_mode:00000000 vl53l8cx_get_power_mode
  C:\Temp\ccVQrAGa.s:558    .text.vl53l8cx_stop_ranging:00000000 $t
  C:\Temp\ccVQrAGa.s:564    .text.vl53l8cx_stop_ranging:00000000 vl53l8cx_stop_ranging
  C:\Temp\ccVQrAGa.s:686    .text.vl53l8cx_check_data_ready:00000000 $t
  C:\Temp\ccVQrAGa.s:692    .text.vl53l8cx_check_data_ready:00000000 vl53l8cx_check_data_ready
  C:\Temp\ccVQrAGa.s:740    .text.vl53l8cx_get_ranging_data:00000000 $t
  C:\Temp\ccVQrAGa.s:746    .text.vl53l8cx_get_ranging_data:00000000 vl53l8cx_get_ranging_data
  C:\Temp\ccVQrAGa.s:889    .text.vl53l8cx_dci_read_data:00000000 $t
  C:\Temp\ccVQrAGa.s:895    .text.vl53l8cx_dci_read_data:00000000 vl53l8cx_dci_read_data
  C:\Temp\ccVQrAGa.s:972    .text.vl53l8cx_dci_read_data:000000b4 $d
  C:\Temp\ccVQrAGa.s:975    .text.vl53l8cx_get_resolution:00000000 $t
  C:\Temp\ccVQrAGa.s:981    .text.vl53l8cx_get_resolution:00000000 vl53l8cx_get_resolution
  C:\Temp\ccVQrAGa.s:998    .text.vl53l8cx_get_ranging_frequency_hz:00000000 $t
  C:\Temp\ccVQrAGa.s:1004   .text.vl53l8cx_get_ranging_frequency_hz:00000000 vl53l8cx_get_ranging_frequency_hz
  C:\Temp\ccVQrAGa.s:1019   .text.vl53l8cx_get_integration_time_ms:00000000 $t
  C:\Temp\ccVQrAGa.s:1025   .text.vl53l8cx_get_integration_time_ms:00000000 vl53l8cx_get_integration_time_ms
  C:\Temp\ccVQrAGa.s:1045   .text.vl53l8cx_get_integration_time_ms:00000028 $d
  C:\Temp\ccVQrAGa.s:1048   .text.vl53l8cx_get_sharpener_percent:00000000 $t
  C:\Temp\ccVQrAGa.s:1054   .text.vl53l8cx_get_sharpener_percent:00000000 vl53l8cx_get_sharpener_percent
  C:\Temp\ccVQrAGa.s:1076   .text.vl53l8cx_get_sharpener_percent:0000002c $d
  C:\Temp\ccVQrAGa.s:1079   .text.vl53l8cx_get_target_order:00000000 $t
  C:\Temp\ccVQrAGa.s:1085   .text.vl53l8cx_get_target_order:00000000 vl53l8cx_get_target_order
  C:\Temp\ccVQrAGa.s:1100   .text.vl53l8cx_get_ranging_mode:00000000 $t
  C:\Temp\ccVQrAGa.s:1106   .text.vl53l8cx_get_ranging_mode:00000000 vl53l8cx_get_ranging_mode
  C:\Temp\ccVQrAGa.s:1128   .text.vl53l8cx_get_external_sync_pin_enable:00000000 $t
  C:\Temp\ccVQrAGa.s:1134   .text.vl53l8cx_get_external_sync_pin_enable:00000000 vl53l8cx_get_external_sync_pin_enable
  C:\Temp\ccVQrAGa.s:1157   .text.vl53l8cx_get_VHV_repeat_count:00000000 $t
  C:\Temp\ccVQrAGa.s:1163   .text.vl53l8cx_get_VHV_repeat_count:00000000 vl53l8cx_get_VHV_repeat_count
  C:\Temp\ccVQrAGa.s:1185   .text.vl53l8cx_dci_write_data:00000000 $t
  C:\Temp\ccVQrAGa.s:1191   .text.vl53l8cx_dci_write_data:00000000 vl53l8cx_dci_write_data
  C:\Temp\ccVQrAGa.s:1282   .text.vl53l8cx_init:00000000 $t
  C:\Temp\ccVQrAGa.s:1288   .text.vl53l8cx_init:00000000 vl53l8cx_init
  C:\Temp\ccVQrAGa.s:1439   .text.vl53l8cx_init:00000164 $d
  C:\Temp\ccVQrAGa.s:2609   .rodata.VL53L8CX_DEFAULT_XTALK:00000000 VL53L8CX_DEFAULT_XTALK
  C:\Temp\ccVQrAGa.s:2671   .rodata.VL53L8CX_DEFAULT_CONFIGURATION:00000000 VL53L8CX_DEFAULT_CONFIGURATION
  C:\Temp\ccVQrAGa.s:1442   .text.vl53l8cx_init:0000016c $t
  C:\Temp\ccVQrAGa.s:1845   .text.vl53l8cx_init:00000588 $d
  C:\Temp\ccVQrAGa.s:2747   .rodata.VL53L8CX_FIRMWARE:00000000 VL53L8CX_FIRMWARE
  C:\Temp\ccVQrAGa.s:2600   .rodata.VL53L8CX_GET_NVM_CMD:00000000 VL53L8CX_GET_NVM_CMD
ARM GAS  C:\Temp\ccVQrAGa.s 			page 464


  C:\Temp\ccVQrAGa.s:1851   .text.vl53l8cx_set_power_mode:00000000 $t
  C:\Temp\ccVQrAGa.s:1857   .text.vl53l8cx_set_power_mode:00000000 vl53l8cx_set_power_mode
  C:\Temp\ccVQrAGa.s:1991   .text.vl53l8cx_start_ranging:00000000 $t
  C:\Temp\ccVQrAGa.s:1997   .text.vl53l8cx_start_ranging:00000000 vl53l8cx_start_ranging
  C:\Temp\ccVQrAGa.s:2190   .text.vl53l8cx_start_ranging:000001d8 $d
  C:\Temp\ccVQrAGa.s:2193   .text.vl53l8cx_set_resolution:00000000 $t
  C:\Temp\ccVQrAGa.s:2199   .text.vl53l8cx_set_resolution:00000000 vl53l8cx_set_resolution
  C:\Temp\ccVQrAGa.s:2300   .text.vl53l8cx_set_ranging_mode:00000000 $t
  C:\Temp\ccVQrAGa.s:2306   .text.vl53l8cx_set_ranging_mode:00000000 vl53l8cx_set_ranging_mode
  C:\Temp\ccVQrAGa.s:2362   .text.vl53l8cx_set_external_sync_pin_enable:00000000 $t
  C:\Temp\ccVQrAGa.s:2368   .text.vl53l8cx_set_external_sync_pin_enable:00000000 vl53l8cx_set_external_sync_pin_enable
  C:\Temp\ccVQrAGa.s:2398   .text.vl53l8cx_dci_replace_data:00000000 $t
  C:\Temp\ccVQrAGa.s:2404   .text.vl53l8cx_dci_replace_data:00000000 vl53l8cx_dci_replace_data
  C:\Temp\ccVQrAGa.s:2429   .text.vl53l8cx_set_ranging_frequency_hz:00000000 $t
  C:\Temp\ccVQrAGa.s:2435   .text.vl53l8cx_set_ranging_frequency_hz:00000000 vl53l8cx_set_ranging_frequency_hz
  C:\Temp\ccVQrAGa.s:2455   .text.vl53l8cx_set_integration_time_ms:00000000 $t
  C:\Temp\ccVQrAGa.s:2461   .text.vl53l8cx_set_integration_time_ms:00000000 vl53l8cx_set_integration_time_ms
  C:\Temp\ccVQrAGa.s:2493   .text.vl53l8cx_set_sharpener_percent:00000000 $t
  C:\Temp\ccVQrAGa.s:2499   .text.vl53l8cx_set_sharpener_percent:00000000 vl53l8cx_set_sharpener_percent
  C:\Temp\ccVQrAGa.s:2531   .text.vl53l8cx_set_sharpener_percent:00000044 $d
  C:\Temp\ccVQrAGa.s:2534   .text.vl53l8cx_set_target_order:00000000 $t
  C:\Temp\ccVQrAGa.s:2540   .text.vl53l8cx_set_target_order:00000000 vl53l8cx_set_target_order
  C:\Temp\ccVQrAGa.s:2570   .text.vl53l8cx_set_VHV_repeat_count:00000000 $t
  C:\Temp\ccVQrAGa.s:2576   .text.vl53l8cx_set_VHV_repeat_count:00000000 vl53l8cx_set_VHV_repeat_count
  C:\Temp\ccVQrAGa.s:2597   .rodata.VL53L8CX_GET_NVM_CMD:00000000 $d
  C:\Temp\ccVQrAGa.s:2606   .rodata.VL53L8CX_DEFAULT_XTALK:00000000 $d
  C:\Temp\ccVQrAGa.s:2668   .rodata.VL53L8CX_DEFAULT_CONFIGURATION:00000000 $d
  C:\Temp\ccVQrAGa.s:2744   .rodata.VL53L8CX_FIRMWARE:00000000 $d
  C:\Temp\ccVQrAGa.s:7862   .rodata:00000000 $d

UNDEFINED SYMBOLS
VL53L8CX_WaitMs
VL53L8CX_RdByte
VL53L8CX_RdMulti
memcpy
VL53L8CX_SwapBuffer
memset
VL53L8CX_WrMulti
VL53L8CX_WrByte
