ARM GAS  C:\Temp\ccFHAvpx.s 			page 1


   1              		.cpu cortex-m4
   2              		.arch armv7e-m
   3              		.fpu fpv4-sp-d16
   4              		.eabi_attribute 27, 1
   5              		.eabi_attribute 28, 1
   6              		.eabi_attribute 20, 1
   7              		.eabi_attribute 21, 1
   8              		.eabi_attribute 23, 3
   9              		.eabi_attribute 24, 1
  10              		.eabi_attribute 25, 1
  11              		.eabi_attribute 26, 1
  12              		.eabi_attribute 30, 1
  13              		.eabi_attribute 34, 1
  14              		.eabi_attribute 18, 4
  15              		.file	"iis2dlpc.c"
  16              		.text
  17              	.Ltext0:
  18              		.cfi_sections	.debug_frame
  19              		.file 1 "Drivers/BSP/Components/iis2dlpc/iis2dlpc.c"
  20              		.section	.text.IIS2DLPC_GetCapabilities,"ax",%progbits
  21              		.align	1
  22              		.global	IIS2DLPC_GetCapabilities
  23              		.syntax unified
  24              		.thumb
  25              		.thumb_func
  27              	IIS2DLPC_GetCapabilities:
  28              	.LVL0:
  29              	.LFB4:
   1:Drivers/BSP/Components/iis2dlpc/iis2dlpc.c **** /**
   2:Drivers/BSP/Components/iis2dlpc/iis2dlpc.c ****   ******************************************************************************
   3:Drivers/BSP/Components/iis2dlpc/iis2dlpc.c ****   * @file    iis2dlpc.c
   4:Drivers/BSP/Components/iis2dlpc/iis2dlpc.c ****   * @author  MEMS Software Solutions Team
   5:Drivers/BSP/Components/iis2dlpc/iis2dlpc.c ****   * @brief   IIS2DLPC driver file
   6:Drivers/BSP/Components/iis2dlpc/iis2dlpc.c ****   ******************************************************************************
   7:Drivers/BSP/Components/iis2dlpc/iis2dlpc.c ****   * @attention
   8:Drivers/BSP/Components/iis2dlpc/iis2dlpc.c ****   *
   9:Drivers/BSP/Components/iis2dlpc/iis2dlpc.c ****   * Copyright (c) 2019 STMicroelectronics.
  10:Drivers/BSP/Components/iis2dlpc/iis2dlpc.c ****   * All rights reserved.
  11:Drivers/BSP/Components/iis2dlpc/iis2dlpc.c ****   *
  12:Drivers/BSP/Components/iis2dlpc/iis2dlpc.c ****   * This software is licensed under terms that can be found in the LICENSE file
  13:Drivers/BSP/Components/iis2dlpc/iis2dlpc.c ****   * in the root directory of this software component.
  14:Drivers/BSP/Components/iis2dlpc/iis2dlpc.c ****   * If no LICENSE file comes with this software, it is provided AS-IS.
  15:Drivers/BSP/Components/iis2dlpc/iis2dlpc.c ****   *
  16:Drivers/BSP/Components/iis2dlpc/iis2dlpc.c ****   ******************************************************************************
  17:Drivers/BSP/Components/iis2dlpc/iis2dlpc.c ****   */
  18:Drivers/BSP/Components/iis2dlpc/iis2dlpc.c **** 
  19:Drivers/BSP/Components/iis2dlpc/iis2dlpc.c **** /* Includes ------------------------------------------------------------------*/
  20:Drivers/BSP/Components/iis2dlpc/iis2dlpc.c **** #include "iis2dlpc.h"
  21:Drivers/BSP/Components/iis2dlpc/iis2dlpc.c **** 
  22:Drivers/BSP/Components/iis2dlpc/iis2dlpc.c **** /** @addtogroup BSP BSP
  23:Drivers/BSP/Components/iis2dlpc/iis2dlpc.c ****   * @{
  24:Drivers/BSP/Components/iis2dlpc/iis2dlpc.c ****   */
  25:Drivers/BSP/Components/iis2dlpc/iis2dlpc.c **** 
  26:Drivers/BSP/Components/iis2dlpc/iis2dlpc.c **** /** @addtogroup Component Component
  27:Drivers/BSP/Components/iis2dlpc/iis2dlpc.c ****   * @{
  28:Drivers/BSP/Components/iis2dlpc/iis2dlpc.c ****   */
  29:Drivers/BSP/Components/iis2dlpc/iis2dlpc.c **** 
ARM GAS  C:\Temp\ccFHAvpx.s 			page 2


  30:Drivers/BSP/Components/iis2dlpc/iis2dlpc.c **** /** @defgroup IIS2DLPC IIS2DLPC
  31:Drivers/BSP/Components/iis2dlpc/iis2dlpc.c ****   * @{
  32:Drivers/BSP/Components/iis2dlpc/iis2dlpc.c ****   */
  33:Drivers/BSP/Components/iis2dlpc/iis2dlpc.c **** 
  34:Drivers/BSP/Components/iis2dlpc/iis2dlpc.c **** /** @defgroup IIS2DLPC_Exported_Variables IIS2DLPC Exported Variables
  35:Drivers/BSP/Components/iis2dlpc/iis2dlpc.c ****   * @{
  36:Drivers/BSP/Components/iis2dlpc/iis2dlpc.c ****   */
  37:Drivers/BSP/Components/iis2dlpc/iis2dlpc.c **** 
  38:Drivers/BSP/Components/iis2dlpc/iis2dlpc.c **** IIS2DLPC_CommonDrv_t IIS2DLPC_COMMON_Driver =
  39:Drivers/BSP/Components/iis2dlpc/iis2dlpc.c **** {
  40:Drivers/BSP/Components/iis2dlpc/iis2dlpc.c ****   IIS2DLPC_Init,
  41:Drivers/BSP/Components/iis2dlpc/iis2dlpc.c ****   IIS2DLPC_DeInit,
  42:Drivers/BSP/Components/iis2dlpc/iis2dlpc.c ****   IIS2DLPC_ReadID,
  43:Drivers/BSP/Components/iis2dlpc/iis2dlpc.c ****   IIS2DLPC_GetCapabilities,
  44:Drivers/BSP/Components/iis2dlpc/iis2dlpc.c **** };
  45:Drivers/BSP/Components/iis2dlpc/iis2dlpc.c **** 
  46:Drivers/BSP/Components/iis2dlpc/iis2dlpc.c **** IIS2DLPC_ACC_Drv_t IIS2DLPC_ACC_Driver =
  47:Drivers/BSP/Components/iis2dlpc/iis2dlpc.c **** {
  48:Drivers/BSP/Components/iis2dlpc/iis2dlpc.c ****   IIS2DLPC_ACC_Enable,
  49:Drivers/BSP/Components/iis2dlpc/iis2dlpc.c ****   IIS2DLPC_ACC_Disable,
  50:Drivers/BSP/Components/iis2dlpc/iis2dlpc.c ****   IIS2DLPC_ACC_GetSensitivity,
  51:Drivers/BSP/Components/iis2dlpc/iis2dlpc.c ****   IIS2DLPC_ACC_GetOutputDataRate,
  52:Drivers/BSP/Components/iis2dlpc/iis2dlpc.c ****   IIS2DLPC_ACC_SetOutputDataRate,
  53:Drivers/BSP/Components/iis2dlpc/iis2dlpc.c ****   IIS2DLPC_ACC_GetFullScale,
  54:Drivers/BSP/Components/iis2dlpc/iis2dlpc.c ****   IIS2DLPC_ACC_SetFullScale,
  55:Drivers/BSP/Components/iis2dlpc/iis2dlpc.c ****   IIS2DLPC_ACC_GetAxes,
  56:Drivers/BSP/Components/iis2dlpc/iis2dlpc.c ****   IIS2DLPC_ACC_GetAxesRaw,
  57:Drivers/BSP/Components/iis2dlpc/iis2dlpc.c **** };
  58:Drivers/BSP/Components/iis2dlpc/iis2dlpc.c **** 
  59:Drivers/BSP/Components/iis2dlpc/iis2dlpc.c **** /**
  60:Drivers/BSP/Components/iis2dlpc/iis2dlpc.c ****   * @}
  61:Drivers/BSP/Components/iis2dlpc/iis2dlpc.c ****   */
  62:Drivers/BSP/Components/iis2dlpc/iis2dlpc.c **** 
  63:Drivers/BSP/Components/iis2dlpc/iis2dlpc.c **** /** @defgroup IIS2DLPC_Private_Function_Prototypes IIS2DLPC Private Function Prototypes
  64:Drivers/BSP/Components/iis2dlpc/iis2dlpc.c ****   * @{
  65:Drivers/BSP/Components/iis2dlpc/iis2dlpc.c ****   */
  66:Drivers/BSP/Components/iis2dlpc/iis2dlpc.c **** 
  67:Drivers/BSP/Components/iis2dlpc/iis2dlpc.c **** static int32_t ReadRegWrap(void *Handle, uint8_t Reg, uint8_t *pData, uint16_t Length);
  68:Drivers/BSP/Components/iis2dlpc/iis2dlpc.c **** static int32_t WriteRegWrap(void *Handle, uint8_t Reg, uint8_t *pData, uint16_t Length);
  69:Drivers/BSP/Components/iis2dlpc/iis2dlpc.c **** static int32_t IIS2DLPC_ACC_SetOutputDataRate_When_Enabled(IIS2DLPC_Object_t *pObj, float Odr,
  70:Drivers/BSP/Components/iis2dlpc/iis2dlpc.c ****                                                            IIS2DLPC_Operating_Mode_t Mode, IIS2DLPC
  71:Drivers/BSP/Components/iis2dlpc/iis2dlpc.c **** static int32_t IIS2DLPC_ACC_SetOutputDataRate_When_Disabled(IIS2DLPC_Object_t *pObj, float Odr,
  72:Drivers/BSP/Components/iis2dlpc/iis2dlpc.c ****                                                             IIS2DLPC_Operating_Mode_t Mode, IIS2DLP
  73:Drivers/BSP/Components/iis2dlpc/iis2dlpc.c **** 
  74:Drivers/BSP/Components/iis2dlpc/iis2dlpc.c **** /**
  75:Drivers/BSP/Components/iis2dlpc/iis2dlpc.c ****   * @}
  76:Drivers/BSP/Components/iis2dlpc/iis2dlpc.c ****   */
  77:Drivers/BSP/Components/iis2dlpc/iis2dlpc.c **** 
  78:Drivers/BSP/Components/iis2dlpc/iis2dlpc.c **** /** @defgroup IIS2DLPC_Exported_Functions IIS2DLPC Exported Functions
  79:Drivers/BSP/Components/iis2dlpc/iis2dlpc.c ****   * @{
  80:Drivers/BSP/Components/iis2dlpc/iis2dlpc.c ****   */
  81:Drivers/BSP/Components/iis2dlpc/iis2dlpc.c **** 
  82:Drivers/BSP/Components/iis2dlpc/iis2dlpc.c **** /**
  83:Drivers/BSP/Components/iis2dlpc/iis2dlpc.c ****   * @brief  Register Component Bus IO operations
  84:Drivers/BSP/Components/iis2dlpc/iis2dlpc.c ****   * @param  pObj the device pObj
  85:Drivers/BSP/Components/iis2dlpc/iis2dlpc.c ****   * @retval 0 in case of success, an error code otherwise
  86:Drivers/BSP/Components/iis2dlpc/iis2dlpc.c ****   */
ARM GAS  C:\Temp\ccFHAvpx.s 			page 3


  87:Drivers/BSP/Components/iis2dlpc/iis2dlpc.c **** int32_t IIS2DLPC_RegisterBusIO(IIS2DLPC_Object_t *pObj, IIS2DLPC_IO_t *pIO)
  88:Drivers/BSP/Components/iis2dlpc/iis2dlpc.c **** {
  89:Drivers/BSP/Components/iis2dlpc/iis2dlpc.c ****   int32_t ret = IIS2DLPC_OK;
  90:Drivers/BSP/Components/iis2dlpc/iis2dlpc.c **** 
  91:Drivers/BSP/Components/iis2dlpc/iis2dlpc.c ****   if (pObj == NULL)
  92:Drivers/BSP/Components/iis2dlpc/iis2dlpc.c ****   {
  93:Drivers/BSP/Components/iis2dlpc/iis2dlpc.c ****     ret = IIS2DLPC_ERROR;
  94:Drivers/BSP/Components/iis2dlpc/iis2dlpc.c ****   }
  95:Drivers/BSP/Components/iis2dlpc/iis2dlpc.c ****   else
  96:Drivers/BSP/Components/iis2dlpc/iis2dlpc.c ****   {
  97:Drivers/BSP/Components/iis2dlpc/iis2dlpc.c ****     pObj->IO.Init      = pIO->Init;
  98:Drivers/BSP/Components/iis2dlpc/iis2dlpc.c ****     pObj->IO.DeInit    = pIO->DeInit;
  99:Drivers/BSP/Components/iis2dlpc/iis2dlpc.c ****     pObj->IO.BusType   = pIO->BusType;
 100:Drivers/BSP/Components/iis2dlpc/iis2dlpc.c ****     pObj->IO.Address   = pIO->Address;
 101:Drivers/BSP/Components/iis2dlpc/iis2dlpc.c ****     pObj->IO.WriteReg  = pIO->WriteReg;
 102:Drivers/BSP/Components/iis2dlpc/iis2dlpc.c ****     pObj->IO.ReadReg   = pIO->ReadReg;
 103:Drivers/BSP/Components/iis2dlpc/iis2dlpc.c ****     pObj->IO.GetTick   = pIO->GetTick;
 104:Drivers/BSP/Components/iis2dlpc/iis2dlpc.c **** 
 105:Drivers/BSP/Components/iis2dlpc/iis2dlpc.c ****     pObj->Ctx.read_reg  = ReadRegWrap;
 106:Drivers/BSP/Components/iis2dlpc/iis2dlpc.c ****     pObj->Ctx.write_reg = WriteRegWrap;
 107:Drivers/BSP/Components/iis2dlpc/iis2dlpc.c ****     pObj->Ctx.mdelay    = pIO->Delay;
 108:Drivers/BSP/Components/iis2dlpc/iis2dlpc.c ****     pObj->Ctx.handle   = pObj;
 109:Drivers/BSP/Components/iis2dlpc/iis2dlpc.c **** 
 110:Drivers/BSP/Components/iis2dlpc/iis2dlpc.c ****     if (pObj->IO.Init == NULL)
 111:Drivers/BSP/Components/iis2dlpc/iis2dlpc.c ****     {
 112:Drivers/BSP/Components/iis2dlpc/iis2dlpc.c ****       ret = IIS2DLPC_ERROR;
 113:Drivers/BSP/Components/iis2dlpc/iis2dlpc.c ****     }
 114:Drivers/BSP/Components/iis2dlpc/iis2dlpc.c ****     else if (pObj->IO.Init() != IIS2DLPC_OK)
 115:Drivers/BSP/Components/iis2dlpc/iis2dlpc.c ****     {
 116:Drivers/BSP/Components/iis2dlpc/iis2dlpc.c ****       ret = IIS2DLPC_ERROR;
 117:Drivers/BSP/Components/iis2dlpc/iis2dlpc.c ****     }
 118:Drivers/BSP/Components/iis2dlpc/iis2dlpc.c ****     else
 119:Drivers/BSP/Components/iis2dlpc/iis2dlpc.c ****     {
 120:Drivers/BSP/Components/iis2dlpc/iis2dlpc.c ****       if (pObj->IO.BusType == IIS2DLPC_SPI_3WIRES_BUS) /* SPI 3-Wires */
 121:Drivers/BSP/Components/iis2dlpc/iis2dlpc.c ****       {
 122:Drivers/BSP/Components/iis2dlpc/iis2dlpc.c ****         /* Enable the SPI 3-Wires support only the first time */
 123:Drivers/BSP/Components/iis2dlpc/iis2dlpc.c ****         if (pObj->is_initialized == 0U)
 124:Drivers/BSP/Components/iis2dlpc/iis2dlpc.c ****         {
 125:Drivers/BSP/Components/iis2dlpc/iis2dlpc.c ****           /* Enable SPI 3-Wires on the component */
 126:Drivers/BSP/Components/iis2dlpc/iis2dlpc.c ****           uint8_t data = 0x05;
 127:Drivers/BSP/Components/iis2dlpc/iis2dlpc.c **** 
 128:Drivers/BSP/Components/iis2dlpc/iis2dlpc.c ****           if (IIS2DLPC_Write_Reg(pObj, IIS2DLPC_CTRL2, data) != IIS2DLPC_OK)
 129:Drivers/BSP/Components/iis2dlpc/iis2dlpc.c ****           {
 130:Drivers/BSP/Components/iis2dlpc/iis2dlpc.c ****             ret = IIS2DLPC_ERROR;
 131:Drivers/BSP/Components/iis2dlpc/iis2dlpc.c ****           }
 132:Drivers/BSP/Components/iis2dlpc/iis2dlpc.c ****         }
 133:Drivers/BSP/Components/iis2dlpc/iis2dlpc.c ****       }
 134:Drivers/BSP/Components/iis2dlpc/iis2dlpc.c ****     }
 135:Drivers/BSP/Components/iis2dlpc/iis2dlpc.c ****   }
 136:Drivers/BSP/Components/iis2dlpc/iis2dlpc.c **** 
 137:Drivers/BSP/Components/iis2dlpc/iis2dlpc.c ****   return ret;
 138:Drivers/BSP/Components/iis2dlpc/iis2dlpc.c **** }
 139:Drivers/BSP/Components/iis2dlpc/iis2dlpc.c **** 
 140:Drivers/BSP/Components/iis2dlpc/iis2dlpc.c **** /**
 141:Drivers/BSP/Components/iis2dlpc/iis2dlpc.c ****   * @brief  Initialize the IIS2DLPC sensor
 142:Drivers/BSP/Components/iis2dlpc/iis2dlpc.c ****   * @param  pObj the device pObj
 143:Drivers/BSP/Components/iis2dlpc/iis2dlpc.c ****   * @retval 0 in case of success, an error code otherwise
ARM GAS  C:\Temp\ccFHAvpx.s 			page 4


 144:Drivers/BSP/Components/iis2dlpc/iis2dlpc.c ****   */
 145:Drivers/BSP/Components/iis2dlpc/iis2dlpc.c **** int32_t IIS2DLPC_Init(IIS2DLPC_Object_t *pObj)
 146:Drivers/BSP/Components/iis2dlpc/iis2dlpc.c **** {
 147:Drivers/BSP/Components/iis2dlpc/iis2dlpc.c ****   /* Enable register address automatically incremented during a multiple byte
 148:Drivers/BSP/Components/iis2dlpc/iis2dlpc.c ****   access with a serial interface. */
 149:Drivers/BSP/Components/iis2dlpc/iis2dlpc.c ****   if (iis2dlpc_auto_increment_set(&(pObj->Ctx), PROPERTY_ENABLE) != IIS2DLPC_OK)
 150:Drivers/BSP/Components/iis2dlpc/iis2dlpc.c ****   {
 151:Drivers/BSP/Components/iis2dlpc/iis2dlpc.c ****     return IIS2DLPC_ERROR;
 152:Drivers/BSP/Components/iis2dlpc/iis2dlpc.c ****   }
 153:Drivers/BSP/Components/iis2dlpc/iis2dlpc.c **** 
 154:Drivers/BSP/Components/iis2dlpc/iis2dlpc.c ****   /* Enable BDU */
 155:Drivers/BSP/Components/iis2dlpc/iis2dlpc.c ****   if (iis2dlpc_block_data_update_set(&(pObj->Ctx), PROPERTY_ENABLE) != IIS2DLPC_OK)
 156:Drivers/BSP/Components/iis2dlpc/iis2dlpc.c ****   {
 157:Drivers/BSP/Components/iis2dlpc/iis2dlpc.c ****     return IIS2DLPC_ERROR;
 158:Drivers/BSP/Components/iis2dlpc/iis2dlpc.c ****   }
 159:Drivers/BSP/Components/iis2dlpc/iis2dlpc.c **** 
 160:Drivers/BSP/Components/iis2dlpc/iis2dlpc.c ****   /* FIFO mode selection */
 161:Drivers/BSP/Components/iis2dlpc/iis2dlpc.c ****   if (iis2dlpc_fifo_mode_set(&(pObj->Ctx), IIS2DLPC_BYPASS_MODE) != IIS2DLPC_OK)
 162:Drivers/BSP/Components/iis2dlpc/iis2dlpc.c ****   {
 163:Drivers/BSP/Components/iis2dlpc/iis2dlpc.c ****     return IIS2DLPC_ERROR;
 164:Drivers/BSP/Components/iis2dlpc/iis2dlpc.c ****   }
 165:Drivers/BSP/Components/iis2dlpc/iis2dlpc.c **** 
 166:Drivers/BSP/Components/iis2dlpc/iis2dlpc.c ****   /* Power mode selection */
 167:Drivers/BSP/Components/iis2dlpc/iis2dlpc.c ****   if (iis2dlpc_power_mode_set(&(pObj->Ctx), IIS2DLPC_HIGH_PERFORMANCE) != IIS2DLPC_OK)
 168:Drivers/BSP/Components/iis2dlpc/iis2dlpc.c ****   {
 169:Drivers/BSP/Components/iis2dlpc/iis2dlpc.c ****     return IIS2DLPC_ERROR;
 170:Drivers/BSP/Components/iis2dlpc/iis2dlpc.c ****   }
 171:Drivers/BSP/Components/iis2dlpc/iis2dlpc.c **** 
 172:Drivers/BSP/Components/iis2dlpc/iis2dlpc.c ****   /* Select default output data rate. */
 173:Drivers/BSP/Components/iis2dlpc/iis2dlpc.c ****   pObj->acc_odr = 100.0f;
 174:Drivers/BSP/Components/iis2dlpc/iis2dlpc.c ****   /* Select default operating mode. */
 175:Drivers/BSP/Components/iis2dlpc/iis2dlpc.c ****   pObj->acc_operating_mode = IIS2DLPC_HIGH_PERFORMANCE_MODE;
 176:Drivers/BSP/Components/iis2dlpc/iis2dlpc.c ****   /* Select default low noise (disabled). */
 177:Drivers/BSP/Components/iis2dlpc/iis2dlpc.c ****   pObj->acc_low_noise = IIS2DLPC_LOW_NOISE_DISABLE;
 178:Drivers/BSP/Components/iis2dlpc/iis2dlpc.c **** 
 179:Drivers/BSP/Components/iis2dlpc/iis2dlpc.c ****   /* Output data rate selection - power down. */
 180:Drivers/BSP/Components/iis2dlpc/iis2dlpc.c ****   if (iis2dlpc_data_rate_set(&(pObj->Ctx), IIS2DLPC_XL_ODR_OFF) != IIS2DLPC_OK)
 181:Drivers/BSP/Components/iis2dlpc/iis2dlpc.c ****   {
 182:Drivers/BSP/Components/iis2dlpc/iis2dlpc.c ****     return IIS2DLPC_ERROR;
 183:Drivers/BSP/Components/iis2dlpc/iis2dlpc.c ****   }
 184:Drivers/BSP/Components/iis2dlpc/iis2dlpc.c **** 
 185:Drivers/BSP/Components/iis2dlpc/iis2dlpc.c ****   /* Full scale selection. */
 186:Drivers/BSP/Components/iis2dlpc/iis2dlpc.c ****   if (iis2dlpc_full_scale_set(&(pObj->Ctx), IIS2DLPC_2g) != IIS2DLPC_OK)
 187:Drivers/BSP/Components/iis2dlpc/iis2dlpc.c ****   {
 188:Drivers/BSP/Components/iis2dlpc/iis2dlpc.c ****     return IIS2DLPC_ERROR;
 189:Drivers/BSP/Components/iis2dlpc/iis2dlpc.c ****   }
 190:Drivers/BSP/Components/iis2dlpc/iis2dlpc.c **** 
 191:Drivers/BSP/Components/iis2dlpc/iis2dlpc.c ****   pObj->is_initialized = 1;
 192:Drivers/BSP/Components/iis2dlpc/iis2dlpc.c **** 
 193:Drivers/BSP/Components/iis2dlpc/iis2dlpc.c ****   return IIS2DLPC_OK;
 194:Drivers/BSP/Components/iis2dlpc/iis2dlpc.c **** }
 195:Drivers/BSP/Components/iis2dlpc/iis2dlpc.c **** 
 196:Drivers/BSP/Components/iis2dlpc/iis2dlpc.c **** /**
 197:Drivers/BSP/Components/iis2dlpc/iis2dlpc.c ****   * @brief  Deinitialize the IIS2DLPC sensor
 198:Drivers/BSP/Components/iis2dlpc/iis2dlpc.c ****   * @param  pObj the device pObj
 199:Drivers/BSP/Components/iis2dlpc/iis2dlpc.c ****   * @retval 0 in case of success, an error code otherwise
 200:Drivers/BSP/Components/iis2dlpc/iis2dlpc.c ****   */
ARM GAS  C:\Temp\ccFHAvpx.s 			page 5


 201:Drivers/BSP/Components/iis2dlpc/iis2dlpc.c **** int32_t IIS2DLPC_DeInit(IIS2DLPC_Object_t *pObj)
 202:Drivers/BSP/Components/iis2dlpc/iis2dlpc.c **** {
 203:Drivers/BSP/Components/iis2dlpc/iis2dlpc.c ****   /* Disable the component */
 204:Drivers/BSP/Components/iis2dlpc/iis2dlpc.c ****   if (IIS2DLPC_ACC_Disable(pObj) != IIS2DLPC_OK)
 205:Drivers/BSP/Components/iis2dlpc/iis2dlpc.c ****   {
 206:Drivers/BSP/Components/iis2dlpc/iis2dlpc.c ****     return IIS2DLPC_ERROR;
 207:Drivers/BSP/Components/iis2dlpc/iis2dlpc.c ****   }
 208:Drivers/BSP/Components/iis2dlpc/iis2dlpc.c **** 
 209:Drivers/BSP/Components/iis2dlpc/iis2dlpc.c ****   /* Reset output data rate. */
 210:Drivers/BSP/Components/iis2dlpc/iis2dlpc.c ****   pObj->acc_odr = 0.0f;
 211:Drivers/BSP/Components/iis2dlpc/iis2dlpc.c ****   /* Reset operating mode to default value. */
 212:Drivers/BSP/Components/iis2dlpc/iis2dlpc.c ****   pObj->acc_operating_mode = IIS2DLPC_HIGH_PERFORMANCE_MODE;
 213:Drivers/BSP/Components/iis2dlpc/iis2dlpc.c ****   /* Reset low noise to default value (disabled). */
 214:Drivers/BSP/Components/iis2dlpc/iis2dlpc.c ****   pObj->acc_low_noise = IIS2DLPC_LOW_NOISE_DISABLE;
 215:Drivers/BSP/Components/iis2dlpc/iis2dlpc.c **** 
 216:Drivers/BSP/Components/iis2dlpc/iis2dlpc.c ****   pObj->is_initialized = 0;
 217:Drivers/BSP/Components/iis2dlpc/iis2dlpc.c **** 
 218:Drivers/BSP/Components/iis2dlpc/iis2dlpc.c ****   return IIS2DLPC_OK;
 219:Drivers/BSP/Components/iis2dlpc/iis2dlpc.c **** }
 220:Drivers/BSP/Components/iis2dlpc/iis2dlpc.c **** 
 221:Drivers/BSP/Components/iis2dlpc/iis2dlpc.c **** /**
 222:Drivers/BSP/Components/iis2dlpc/iis2dlpc.c ****   * @brief  Read component ID
 223:Drivers/BSP/Components/iis2dlpc/iis2dlpc.c ****   * @param  pObj the device pObj
 224:Drivers/BSP/Components/iis2dlpc/iis2dlpc.c ****   * @param  Id the WHO_AM_I value
 225:Drivers/BSP/Components/iis2dlpc/iis2dlpc.c ****   * @retval 0 in case of success, an error code otherwise
 226:Drivers/BSP/Components/iis2dlpc/iis2dlpc.c ****   */
 227:Drivers/BSP/Components/iis2dlpc/iis2dlpc.c **** int32_t IIS2DLPC_ReadID(IIS2DLPC_Object_t *pObj, uint8_t *Id)
 228:Drivers/BSP/Components/iis2dlpc/iis2dlpc.c **** {
 229:Drivers/BSP/Components/iis2dlpc/iis2dlpc.c ****   if (iis2dlpc_device_id_get(&(pObj->Ctx), Id) != IIS2DLPC_OK)
 230:Drivers/BSP/Components/iis2dlpc/iis2dlpc.c ****   {
 231:Drivers/BSP/Components/iis2dlpc/iis2dlpc.c ****     return IIS2DLPC_ERROR;
 232:Drivers/BSP/Components/iis2dlpc/iis2dlpc.c ****   }
 233:Drivers/BSP/Components/iis2dlpc/iis2dlpc.c **** 
 234:Drivers/BSP/Components/iis2dlpc/iis2dlpc.c ****   return IIS2DLPC_OK;
 235:Drivers/BSP/Components/iis2dlpc/iis2dlpc.c **** }
 236:Drivers/BSP/Components/iis2dlpc/iis2dlpc.c **** 
 237:Drivers/BSP/Components/iis2dlpc/iis2dlpc.c **** /**
 238:Drivers/BSP/Components/iis2dlpc/iis2dlpc.c ****   * @brief  Get IIS2DLPC sensor capabilities
 239:Drivers/BSP/Components/iis2dlpc/iis2dlpc.c ****   * @param  pObj Component object pointer
 240:Drivers/BSP/Components/iis2dlpc/iis2dlpc.c ****   * @param  Capabilities pointer to IIS2DLPC sensor capabilities
 241:Drivers/BSP/Components/iis2dlpc/iis2dlpc.c ****   * @retval 0 in case of success, an error code otherwise
 242:Drivers/BSP/Components/iis2dlpc/iis2dlpc.c ****   */
 243:Drivers/BSP/Components/iis2dlpc/iis2dlpc.c **** int32_t IIS2DLPC_GetCapabilities(IIS2DLPC_Object_t *pObj, IIS2DLPC_Capabilities_t *Capabilities)
 244:Drivers/BSP/Components/iis2dlpc/iis2dlpc.c **** {
  30              		.loc 1 244 1 view -0
  31              		.cfi_startproc
  32              		@ args = 0, pretend = 0, frame = 0
  33              		@ frame_needed = 0, uses_anonymous_args = 0
  34              		@ link register save eliminated.
 245:Drivers/BSP/Components/iis2dlpc/iis2dlpc.c ****   /* Prevent unused argument(s) compilation warning */
 246:Drivers/BSP/Components/iis2dlpc/iis2dlpc.c ****   (void)(pObj);
  35              		.loc 1 246 3 view .LVU1
 247:Drivers/BSP/Components/iis2dlpc/iis2dlpc.c **** 
 248:Drivers/BSP/Components/iis2dlpc/iis2dlpc.c ****   Capabilities->Acc          = 1;
  36              		.loc 1 248 3 view .LVU2
  37              		.loc 1 248 30 is_stmt 0 view .LVU3
  38 0000 0123     		movs	r3, #1
ARM GAS  C:\Temp\ccFHAvpx.s 			page 6


  39 0002 0B70     		strb	r3, [r1]
 249:Drivers/BSP/Components/iis2dlpc/iis2dlpc.c ****   Capabilities->Gyro         = 0;
  40              		.loc 1 249 3 is_stmt 1 view .LVU4
  41              		.loc 1 249 30 is_stmt 0 view .LVU5
  42 0004 0020     		movs	r0, #0
  43              	.LVL1:
  44              		.loc 1 249 30 view .LVU6
  45 0006 4870     		strb	r0, [r1, #1]
 250:Drivers/BSP/Components/iis2dlpc/iis2dlpc.c ****   Capabilities->Magneto      = 0;
  46              		.loc 1 250 3 is_stmt 1 view .LVU7
  47              		.loc 1 250 30 is_stmt 0 view .LVU8
  48 0008 8870     		strb	r0, [r1, #2]
 251:Drivers/BSP/Components/iis2dlpc/iis2dlpc.c ****   Capabilities->LowPower     = 0;
  49              		.loc 1 251 3 is_stmt 1 view .LVU9
  50              		.loc 1 251 30 is_stmt 0 view .LVU10
  51 000a C870     		strb	r0, [r1, #3]
 252:Drivers/BSP/Components/iis2dlpc/iis2dlpc.c ****   Capabilities->GyroMaxFS    = 0;
  52              		.loc 1 252 3 is_stmt 1 view .LVU11
  53              		.loc 1 252 30 is_stmt 0 view .LVU12
  54 000c 4860     		str	r0, [r1, #4]
 253:Drivers/BSP/Components/iis2dlpc/iis2dlpc.c ****   Capabilities->AccMaxFS     = 16;
  55              		.loc 1 253 3 is_stmt 1 view .LVU13
  56              		.loc 1 253 30 is_stmt 0 view .LVU14
  57 000e 1023     		movs	r3, #16
  58 0010 8B60     		str	r3, [r1, #8]
 254:Drivers/BSP/Components/iis2dlpc/iis2dlpc.c ****   Capabilities->MagMaxFS     = 0;
  59              		.loc 1 254 3 is_stmt 1 view .LVU15
  60              		.loc 1 254 30 is_stmt 0 view .LVU16
  61 0012 C860     		str	r0, [r1, #12]
 255:Drivers/BSP/Components/iis2dlpc/iis2dlpc.c ****   Capabilities->GyroMaxOdr   = 0.0f;
  62              		.loc 1 255 3 is_stmt 1 view .LVU17
  63              		.loc 1 255 30 is_stmt 0 view .LVU18
  64 0014 0023     		movs	r3, #0
  65 0016 0B61     		str	r3, [r1, #16]	@ float
 256:Drivers/BSP/Components/iis2dlpc/iis2dlpc.c ****   Capabilities->AccMaxOdr    = 1600.0f;
  66              		.loc 1 256 3 is_stmt 1 view .LVU19
  67              		.loc 1 256 30 is_stmt 0 view .LVU20
  68 0018 014A     		ldr	r2, .L2
  69 001a 4A61     		str	r2, [r1, #20]	@ float
 257:Drivers/BSP/Components/iis2dlpc/iis2dlpc.c ****   Capabilities->MagMaxOdr    = 0.0f;
  70              		.loc 1 257 3 is_stmt 1 view .LVU21
  71              		.loc 1 257 30 is_stmt 0 view .LVU22
  72 001c 8B61     		str	r3, [r1, #24]	@ float
 258:Drivers/BSP/Components/iis2dlpc/iis2dlpc.c ****   return IIS2DLPC_OK;
  73              		.loc 1 258 3 is_stmt 1 view .LVU23
 259:Drivers/BSP/Components/iis2dlpc/iis2dlpc.c **** }
  74              		.loc 1 259 1 is_stmt 0 view .LVU24
  75 001e 7047     		bx	lr
  76              	.L3:
  77              		.align	2
  78              	.L2:
  79 0020 0000C844 		.word	1153957888
  80              		.cfi_endproc
  81              	.LFE4:
  83              		.section	.text.IIS2DLPC_ACC_SetOutputDataRate_When_Disabled,"ax",%progbits
  84              		.align	1
  85              		.syntax unified
ARM GAS  C:\Temp\ccFHAvpx.s 			page 7


  86              		.thumb
  87              		.thumb_func
  89              	IIS2DLPC_ACC_SetOutputDataRate_When_Disabled:
  90              	.LVL2:
  91              	.LFB19:
 260:Drivers/BSP/Components/iis2dlpc/iis2dlpc.c **** 
 261:Drivers/BSP/Components/iis2dlpc/iis2dlpc.c **** /**
 262:Drivers/BSP/Components/iis2dlpc/iis2dlpc.c ****   * @brief  Enable the IIS2DLPC accelerometer sensor
 263:Drivers/BSP/Components/iis2dlpc/iis2dlpc.c ****   * @param  pObj the device pObj
 264:Drivers/BSP/Components/iis2dlpc/iis2dlpc.c ****   * @retval 0 in case of success, an error code otherwise
 265:Drivers/BSP/Components/iis2dlpc/iis2dlpc.c ****   */
 266:Drivers/BSP/Components/iis2dlpc/iis2dlpc.c **** int32_t IIS2DLPC_ACC_Enable(IIS2DLPC_Object_t *pObj)
 267:Drivers/BSP/Components/iis2dlpc/iis2dlpc.c **** {
 268:Drivers/BSP/Components/iis2dlpc/iis2dlpc.c ****   /* Check if the component is already enabled */
 269:Drivers/BSP/Components/iis2dlpc/iis2dlpc.c ****   if (pObj->acc_is_enabled == 1U)
 270:Drivers/BSP/Components/iis2dlpc/iis2dlpc.c ****   {
 271:Drivers/BSP/Components/iis2dlpc/iis2dlpc.c ****     return IIS2DLPC_OK;
 272:Drivers/BSP/Components/iis2dlpc/iis2dlpc.c ****   }
 273:Drivers/BSP/Components/iis2dlpc/iis2dlpc.c **** 
 274:Drivers/BSP/Components/iis2dlpc/iis2dlpc.c ****   /* Output data rate selection. */
 275:Drivers/BSP/Components/iis2dlpc/iis2dlpc.c ****   if (IIS2DLPC_ACC_SetOutputDataRate_When_Enabled(pObj, pObj->acc_odr, pObj->acc_operating_mode,
 276:Drivers/BSP/Components/iis2dlpc/iis2dlpc.c ****                                                   pObj->acc_low_noise) != IIS2DLPC_OK)
 277:Drivers/BSP/Components/iis2dlpc/iis2dlpc.c ****   {
 278:Drivers/BSP/Components/iis2dlpc/iis2dlpc.c ****     return IIS2DLPC_ERROR;
 279:Drivers/BSP/Components/iis2dlpc/iis2dlpc.c ****   }
 280:Drivers/BSP/Components/iis2dlpc/iis2dlpc.c **** 
 281:Drivers/BSP/Components/iis2dlpc/iis2dlpc.c ****   pObj->acc_is_enabled = 1;
 282:Drivers/BSP/Components/iis2dlpc/iis2dlpc.c **** 
 283:Drivers/BSP/Components/iis2dlpc/iis2dlpc.c ****   return IIS2DLPC_OK;
 284:Drivers/BSP/Components/iis2dlpc/iis2dlpc.c **** }
 285:Drivers/BSP/Components/iis2dlpc/iis2dlpc.c **** 
 286:Drivers/BSP/Components/iis2dlpc/iis2dlpc.c **** /**
 287:Drivers/BSP/Components/iis2dlpc/iis2dlpc.c ****   * @brief  Disable the IIS2DLPC accelerometer sensor
 288:Drivers/BSP/Components/iis2dlpc/iis2dlpc.c ****   * @param  pObj the device pObj
 289:Drivers/BSP/Components/iis2dlpc/iis2dlpc.c ****   * @retval 0 in case of success, an error code otherwise
 290:Drivers/BSP/Components/iis2dlpc/iis2dlpc.c ****   */
 291:Drivers/BSP/Components/iis2dlpc/iis2dlpc.c **** int32_t IIS2DLPC_ACC_Disable(IIS2DLPC_Object_t *pObj)
 292:Drivers/BSP/Components/iis2dlpc/iis2dlpc.c **** {
 293:Drivers/BSP/Components/iis2dlpc/iis2dlpc.c ****   /* Check if the component is already disabled */
 294:Drivers/BSP/Components/iis2dlpc/iis2dlpc.c ****   if (pObj->acc_is_enabled == 0U)
 295:Drivers/BSP/Components/iis2dlpc/iis2dlpc.c ****   {
 296:Drivers/BSP/Components/iis2dlpc/iis2dlpc.c ****     return IIS2DLPC_OK;
 297:Drivers/BSP/Components/iis2dlpc/iis2dlpc.c ****   }
 298:Drivers/BSP/Components/iis2dlpc/iis2dlpc.c **** 
 299:Drivers/BSP/Components/iis2dlpc/iis2dlpc.c ****   /* Output data rate selection - power down. */
 300:Drivers/BSP/Components/iis2dlpc/iis2dlpc.c ****   if (iis2dlpc_data_rate_set(&(pObj->Ctx), IIS2DLPC_XL_ODR_OFF) != IIS2DLPC_OK)
 301:Drivers/BSP/Components/iis2dlpc/iis2dlpc.c ****   {
 302:Drivers/BSP/Components/iis2dlpc/iis2dlpc.c ****     return IIS2DLPC_ERROR;
 303:Drivers/BSP/Components/iis2dlpc/iis2dlpc.c ****   }
 304:Drivers/BSP/Components/iis2dlpc/iis2dlpc.c **** 
 305:Drivers/BSP/Components/iis2dlpc/iis2dlpc.c ****   pObj->acc_is_enabled = 0;
 306:Drivers/BSP/Components/iis2dlpc/iis2dlpc.c **** 
 307:Drivers/BSP/Components/iis2dlpc/iis2dlpc.c ****   return IIS2DLPC_OK;
 308:Drivers/BSP/Components/iis2dlpc/iis2dlpc.c **** }
 309:Drivers/BSP/Components/iis2dlpc/iis2dlpc.c **** 
 310:Drivers/BSP/Components/iis2dlpc/iis2dlpc.c **** /**
 311:Drivers/BSP/Components/iis2dlpc/iis2dlpc.c ****   * @brief  Get the IIS2DLPC accelerometer sensor sensitivity
ARM GAS  C:\Temp\ccFHAvpx.s 			page 8


 312:Drivers/BSP/Components/iis2dlpc/iis2dlpc.c ****   * @param  pObj the device pObj
 313:Drivers/BSP/Components/iis2dlpc/iis2dlpc.c ****   * @param  Sensitivity pointer
 314:Drivers/BSP/Components/iis2dlpc/iis2dlpc.c ****   * @retval 0 in case of success, an error code otherwise
 315:Drivers/BSP/Components/iis2dlpc/iis2dlpc.c ****   */
 316:Drivers/BSP/Components/iis2dlpc/iis2dlpc.c **** int32_t IIS2DLPC_ACC_GetSensitivity(IIS2DLPC_Object_t *pObj, float *Sensitivity)
 317:Drivers/BSP/Components/iis2dlpc/iis2dlpc.c **** {
 318:Drivers/BSP/Components/iis2dlpc/iis2dlpc.c ****   int32_t ret = IIS2DLPC_OK;
 319:Drivers/BSP/Components/iis2dlpc/iis2dlpc.c ****   iis2dlpc_fs_t full_scale;
 320:Drivers/BSP/Components/iis2dlpc/iis2dlpc.c ****   iis2dlpc_mode_t mode;
 321:Drivers/BSP/Components/iis2dlpc/iis2dlpc.c **** 
 322:Drivers/BSP/Components/iis2dlpc/iis2dlpc.c ****   /* Read actual full scale selection from sensor. */
 323:Drivers/BSP/Components/iis2dlpc/iis2dlpc.c ****   if (iis2dlpc_full_scale_get(&(pObj->Ctx), &full_scale) != IIS2DLPC_OK)
 324:Drivers/BSP/Components/iis2dlpc/iis2dlpc.c ****   {
 325:Drivers/BSP/Components/iis2dlpc/iis2dlpc.c ****     return IIS2DLPC_ERROR;
 326:Drivers/BSP/Components/iis2dlpc/iis2dlpc.c ****   }
 327:Drivers/BSP/Components/iis2dlpc/iis2dlpc.c **** 
 328:Drivers/BSP/Components/iis2dlpc/iis2dlpc.c ****   /* Read actual power mode selection from sensor. */
 329:Drivers/BSP/Components/iis2dlpc/iis2dlpc.c ****   if (iis2dlpc_power_mode_get(&(pObj->Ctx), &mode) != IIS2DLPC_OK)
 330:Drivers/BSP/Components/iis2dlpc/iis2dlpc.c ****   {
 331:Drivers/BSP/Components/iis2dlpc/iis2dlpc.c ****     return IIS2DLPC_ERROR;
 332:Drivers/BSP/Components/iis2dlpc/iis2dlpc.c ****   }
 333:Drivers/BSP/Components/iis2dlpc/iis2dlpc.c **** 
 334:Drivers/BSP/Components/iis2dlpc/iis2dlpc.c ****   switch (mode)
 335:Drivers/BSP/Components/iis2dlpc/iis2dlpc.c ****   {
 336:Drivers/BSP/Components/iis2dlpc/iis2dlpc.c ****     case IIS2DLPC_CONT_LOW_PWR_12bit:
 337:Drivers/BSP/Components/iis2dlpc/iis2dlpc.c ****     case IIS2DLPC_SINGLE_LOW_PWR_12bit:
 338:Drivers/BSP/Components/iis2dlpc/iis2dlpc.c ****     case IIS2DLPC_CONT_LOW_PWR_LOW_NOISE_12bit:
 339:Drivers/BSP/Components/iis2dlpc/iis2dlpc.c ****     case IIS2DLPC_SINGLE_LOW_LOW_NOISE_PWR_12bit:
 340:Drivers/BSP/Components/iis2dlpc/iis2dlpc.c ****       switch (full_scale)
 341:Drivers/BSP/Components/iis2dlpc/iis2dlpc.c ****       {
 342:Drivers/BSP/Components/iis2dlpc/iis2dlpc.c ****         case IIS2DLPC_2g:
 343:Drivers/BSP/Components/iis2dlpc/iis2dlpc.c ****           *Sensitivity = IIS2DLPC_ACC_SENSITIVITY_FOR_FS_2G_LOPOW1_MODE;
 344:Drivers/BSP/Components/iis2dlpc/iis2dlpc.c ****           break;
 345:Drivers/BSP/Components/iis2dlpc/iis2dlpc.c **** 
 346:Drivers/BSP/Components/iis2dlpc/iis2dlpc.c ****         case IIS2DLPC_4g:
 347:Drivers/BSP/Components/iis2dlpc/iis2dlpc.c ****           *Sensitivity = IIS2DLPC_ACC_SENSITIVITY_FOR_FS_4G_LOPOW1_MODE;
 348:Drivers/BSP/Components/iis2dlpc/iis2dlpc.c ****           break;
 349:Drivers/BSP/Components/iis2dlpc/iis2dlpc.c **** 
 350:Drivers/BSP/Components/iis2dlpc/iis2dlpc.c ****         case IIS2DLPC_8g:
 351:Drivers/BSP/Components/iis2dlpc/iis2dlpc.c ****           *Sensitivity = IIS2DLPC_ACC_SENSITIVITY_FOR_FS_8G_LOPOW1_MODE;
 352:Drivers/BSP/Components/iis2dlpc/iis2dlpc.c ****           break;
 353:Drivers/BSP/Components/iis2dlpc/iis2dlpc.c **** 
 354:Drivers/BSP/Components/iis2dlpc/iis2dlpc.c ****         case IIS2DLPC_16g:
 355:Drivers/BSP/Components/iis2dlpc/iis2dlpc.c ****           *Sensitivity = IIS2DLPC_ACC_SENSITIVITY_FOR_FS_16G_LOPOW1_MODE;
 356:Drivers/BSP/Components/iis2dlpc/iis2dlpc.c ****           break;
 357:Drivers/BSP/Components/iis2dlpc/iis2dlpc.c **** 
 358:Drivers/BSP/Components/iis2dlpc/iis2dlpc.c ****         default:
 359:Drivers/BSP/Components/iis2dlpc/iis2dlpc.c ****           *Sensitivity = -1.0f;
 360:Drivers/BSP/Components/iis2dlpc/iis2dlpc.c ****           ret = IIS2DLPC_ERROR;
 361:Drivers/BSP/Components/iis2dlpc/iis2dlpc.c ****           break;
 362:Drivers/BSP/Components/iis2dlpc/iis2dlpc.c ****       }
 363:Drivers/BSP/Components/iis2dlpc/iis2dlpc.c ****       break;
 364:Drivers/BSP/Components/iis2dlpc/iis2dlpc.c **** 
 365:Drivers/BSP/Components/iis2dlpc/iis2dlpc.c ****     case IIS2DLPC_HIGH_PERFORMANCE:
 366:Drivers/BSP/Components/iis2dlpc/iis2dlpc.c ****     case IIS2DLPC_CONT_LOW_PWR_4:
 367:Drivers/BSP/Components/iis2dlpc/iis2dlpc.c ****     case IIS2DLPC_CONT_LOW_PWR_3:
 368:Drivers/BSP/Components/iis2dlpc/iis2dlpc.c ****     case IIS2DLPC_CONT_LOW_PWR_2:
ARM GAS  C:\Temp\ccFHAvpx.s 			page 9


 369:Drivers/BSP/Components/iis2dlpc/iis2dlpc.c ****     case IIS2DLPC_SINGLE_LOW_PWR_4:
 370:Drivers/BSP/Components/iis2dlpc/iis2dlpc.c ****     case IIS2DLPC_SINGLE_LOW_PWR_3:
 371:Drivers/BSP/Components/iis2dlpc/iis2dlpc.c ****     case IIS2DLPC_SINGLE_LOW_PWR_2:
 372:Drivers/BSP/Components/iis2dlpc/iis2dlpc.c ****     case IIS2DLPC_HIGH_PERFORMANCE_LOW_NOISE:
 373:Drivers/BSP/Components/iis2dlpc/iis2dlpc.c ****     case IIS2DLPC_CONT_LOW_PWR_LOW_NOISE_4:
 374:Drivers/BSP/Components/iis2dlpc/iis2dlpc.c ****     case IIS2DLPC_CONT_LOW_PWR_LOW_NOISE_3:
 375:Drivers/BSP/Components/iis2dlpc/iis2dlpc.c ****     case IIS2DLPC_CONT_LOW_PWR_LOW_NOISE_2:
 376:Drivers/BSP/Components/iis2dlpc/iis2dlpc.c ****     case IIS2DLPC_SINGLE_LOW_PWR_LOW_NOISE_4:
 377:Drivers/BSP/Components/iis2dlpc/iis2dlpc.c ****     case IIS2DLPC_SINGLE_LOW_PWR_LOW_NOISE_3:
 378:Drivers/BSP/Components/iis2dlpc/iis2dlpc.c ****     case IIS2DLPC_SINGLE_LOW_PWR_LOW_NOISE_2:
 379:Drivers/BSP/Components/iis2dlpc/iis2dlpc.c ****       switch (full_scale)
 380:Drivers/BSP/Components/iis2dlpc/iis2dlpc.c ****       {
 381:Drivers/BSP/Components/iis2dlpc/iis2dlpc.c ****         case IIS2DLPC_2g:
 382:Drivers/BSP/Components/iis2dlpc/iis2dlpc.c ****           *Sensitivity = IIS2DLPC_ACC_SENSITIVITY_FOR_FS_2G_OTHER_MODES;
 383:Drivers/BSP/Components/iis2dlpc/iis2dlpc.c ****           break;
 384:Drivers/BSP/Components/iis2dlpc/iis2dlpc.c **** 
 385:Drivers/BSP/Components/iis2dlpc/iis2dlpc.c ****         case IIS2DLPC_4g:
 386:Drivers/BSP/Components/iis2dlpc/iis2dlpc.c ****           *Sensitivity = IIS2DLPC_ACC_SENSITIVITY_FOR_FS_4G_OTHER_MODES;
 387:Drivers/BSP/Components/iis2dlpc/iis2dlpc.c ****           break;
 388:Drivers/BSP/Components/iis2dlpc/iis2dlpc.c **** 
 389:Drivers/BSP/Components/iis2dlpc/iis2dlpc.c ****         case IIS2DLPC_8g:
 390:Drivers/BSP/Components/iis2dlpc/iis2dlpc.c ****           *Sensitivity = IIS2DLPC_ACC_SENSITIVITY_FOR_FS_8G_OTHER_MODES;
 391:Drivers/BSP/Components/iis2dlpc/iis2dlpc.c ****           break;
 392:Drivers/BSP/Components/iis2dlpc/iis2dlpc.c **** 
 393:Drivers/BSP/Components/iis2dlpc/iis2dlpc.c ****         case IIS2DLPC_16g:
 394:Drivers/BSP/Components/iis2dlpc/iis2dlpc.c ****           *Sensitivity = IIS2DLPC_ACC_SENSITIVITY_FOR_FS_16G_OTHER_MODES;
 395:Drivers/BSP/Components/iis2dlpc/iis2dlpc.c ****           break;
 396:Drivers/BSP/Components/iis2dlpc/iis2dlpc.c **** 
 397:Drivers/BSP/Components/iis2dlpc/iis2dlpc.c ****         default:
 398:Drivers/BSP/Components/iis2dlpc/iis2dlpc.c ****           *Sensitivity = -1.0f;
 399:Drivers/BSP/Components/iis2dlpc/iis2dlpc.c ****           ret = IIS2DLPC_ERROR;
 400:Drivers/BSP/Components/iis2dlpc/iis2dlpc.c ****           break;
 401:Drivers/BSP/Components/iis2dlpc/iis2dlpc.c ****       }
 402:Drivers/BSP/Components/iis2dlpc/iis2dlpc.c ****       break;
 403:Drivers/BSP/Components/iis2dlpc/iis2dlpc.c **** 
 404:Drivers/BSP/Components/iis2dlpc/iis2dlpc.c ****     default:
 405:Drivers/BSP/Components/iis2dlpc/iis2dlpc.c ****       *Sensitivity = -1.0f;
 406:Drivers/BSP/Components/iis2dlpc/iis2dlpc.c ****       ret = IIS2DLPC_ERROR;
 407:Drivers/BSP/Components/iis2dlpc/iis2dlpc.c ****       break;
 408:Drivers/BSP/Components/iis2dlpc/iis2dlpc.c ****   }
 409:Drivers/BSP/Components/iis2dlpc/iis2dlpc.c **** 
 410:Drivers/BSP/Components/iis2dlpc/iis2dlpc.c ****   return ret;
 411:Drivers/BSP/Components/iis2dlpc/iis2dlpc.c **** }
 412:Drivers/BSP/Components/iis2dlpc/iis2dlpc.c **** 
 413:Drivers/BSP/Components/iis2dlpc/iis2dlpc.c **** /**
 414:Drivers/BSP/Components/iis2dlpc/iis2dlpc.c ****   * @brief  Get the IIS2DLPC accelerometer sensor output data rate
 415:Drivers/BSP/Components/iis2dlpc/iis2dlpc.c ****   * @param  pObj the device pObj
 416:Drivers/BSP/Components/iis2dlpc/iis2dlpc.c ****   * @param  Odr pointer where the output data rate is written
 417:Drivers/BSP/Components/iis2dlpc/iis2dlpc.c ****   * @retval 0 in case of success, an error code otherwise
 418:Drivers/BSP/Components/iis2dlpc/iis2dlpc.c ****   */
 419:Drivers/BSP/Components/iis2dlpc/iis2dlpc.c **** int32_t IIS2DLPC_ACC_GetOutputDataRate(IIS2DLPC_Object_t *pObj, float *Odr)
 420:Drivers/BSP/Components/iis2dlpc/iis2dlpc.c **** {
 421:Drivers/BSP/Components/iis2dlpc/iis2dlpc.c ****   int32_t ret = IIS2DLPC_OK;
 422:Drivers/BSP/Components/iis2dlpc/iis2dlpc.c ****   iis2dlpc_odr_t odr_low_level;
 423:Drivers/BSP/Components/iis2dlpc/iis2dlpc.c ****   iis2dlpc_mode_t mode;
 424:Drivers/BSP/Components/iis2dlpc/iis2dlpc.c **** 
 425:Drivers/BSP/Components/iis2dlpc/iis2dlpc.c ****   /* Get current output data rate. */
ARM GAS  C:\Temp\ccFHAvpx.s 			page 10


 426:Drivers/BSP/Components/iis2dlpc/iis2dlpc.c ****   if (iis2dlpc_data_rate_get(&(pObj->Ctx), &odr_low_level) != IIS2DLPC_OK)
 427:Drivers/BSP/Components/iis2dlpc/iis2dlpc.c ****   {
 428:Drivers/BSP/Components/iis2dlpc/iis2dlpc.c ****     return IIS2DLPC_ERROR;
 429:Drivers/BSP/Components/iis2dlpc/iis2dlpc.c ****   }
 430:Drivers/BSP/Components/iis2dlpc/iis2dlpc.c **** 
 431:Drivers/BSP/Components/iis2dlpc/iis2dlpc.c ****   /* Read actual power mode selection from sensor. */
 432:Drivers/BSP/Components/iis2dlpc/iis2dlpc.c ****   if (iis2dlpc_power_mode_get(&(pObj->Ctx), &mode) != IIS2DLPC_OK)
 433:Drivers/BSP/Components/iis2dlpc/iis2dlpc.c ****   {
 434:Drivers/BSP/Components/iis2dlpc/iis2dlpc.c ****     return IIS2DLPC_ERROR;
 435:Drivers/BSP/Components/iis2dlpc/iis2dlpc.c ****   }
 436:Drivers/BSP/Components/iis2dlpc/iis2dlpc.c **** 
 437:Drivers/BSP/Components/iis2dlpc/iis2dlpc.c ****   switch (odr_low_level)
 438:Drivers/BSP/Components/iis2dlpc/iis2dlpc.c ****   {
 439:Drivers/BSP/Components/iis2dlpc/iis2dlpc.c ****     case IIS2DLPC_XL_ODR_OFF:
 440:Drivers/BSP/Components/iis2dlpc/iis2dlpc.c ****     case IIS2DLPC_XL_SET_SW_TRIG:
 441:Drivers/BSP/Components/iis2dlpc/iis2dlpc.c ****     case IIS2DLPC_XL_SET_PIN_TRIG:
 442:Drivers/BSP/Components/iis2dlpc/iis2dlpc.c ****       *Odr = 0.0f;
 443:Drivers/BSP/Components/iis2dlpc/iis2dlpc.c ****       break;
 444:Drivers/BSP/Components/iis2dlpc/iis2dlpc.c **** 
 445:Drivers/BSP/Components/iis2dlpc/iis2dlpc.c ****     case IIS2DLPC_XL_ODR_1Hz6_LP_ONLY:
 446:Drivers/BSP/Components/iis2dlpc/iis2dlpc.c ****       switch (mode)
 447:Drivers/BSP/Components/iis2dlpc/iis2dlpc.c ****       {
 448:Drivers/BSP/Components/iis2dlpc/iis2dlpc.c ****         case IIS2DLPC_HIGH_PERFORMANCE:
 449:Drivers/BSP/Components/iis2dlpc/iis2dlpc.c ****         case IIS2DLPC_HIGH_PERFORMANCE_LOW_NOISE:
 450:Drivers/BSP/Components/iis2dlpc/iis2dlpc.c ****           *Odr = 12.5f;
 451:Drivers/BSP/Components/iis2dlpc/iis2dlpc.c ****           break;
 452:Drivers/BSP/Components/iis2dlpc/iis2dlpc.c **** 
 453:Drivers/BSP/Components/iis2dlpc/iis2dlpc.c ****         case IIS2DLPC_CONT_LOW_PWR_4:
 454:Drivers/BSP/Components/iis2dlpc/iis2dlpc.c ****         case IIS2DLPC_CONT_LOW_PWR_3:
 455:Drivers/BSP/Components/iis2dlpc/iis2dlpc.c ****         case IIS2DLPC_CONT_LOW_PWR_2:
 456:Drivers/BSP/Components/iis2dlpc/iis2dlpc.c ****         case IIS2DLPC_CONT_LOW_PWR_12bit:
 457:Drivers/BSP/Components/iis2dlpc/iis2dlpc.c ****         case IIS2DLPC_SINGLE_LOW_PWR_4:
 458:Drivers/BSP/Components/iis2dlpc/iis2dlpc.c ****         case IIS2DLPC_SINGLE_LOW_PWR_3:
 459:Drivers/BSP/Components/iis2dlpc/iis2dlpc.c ****         case IIS2DLPC_SINGLE_LOW_PWR_2:
 460:Drivers/BSP/Components/iis2dlpc/iis2dlpc.c ****         case IIS2DLPC_SINGLE_LOW_PWR_12bit:
 461:Drivers/BSP/Components/iis2dlpc/iis2dlpc.c ****         case IIS2DLPC_CONT_LOW_PWR_LOW_NOISE_4:
 462:Drivers/BSP/Components/iis2dlpc/iis2dlpc.c ****         case IIS2DLPC_CONT_LOW_PWR_LOW_NOISE_3:
 463:Drivers/BSP/Components/iis2dlpc/iis2dlpc.c ****         case IIS2DLPC_CONT_LOW_PWR_LOW_NOISE_2:
 464:Drivers/BSP/Components/iis2dlpc/iis2dlpc.c ****         case IIS2DLPC_CONT_LOW_PWR_LOW_NOISE_12bit:
 465:Drivers/BSP/Components/iis2dlpc/iis2dlpc.c ****         case IIS2DLPC_SINGLE_LOW_PWR_LOW_NOISE_4:
 466:Drivers/BSP/Components/iis2dlpc/iis2dlpc.c ****         case IIS2DLPC_SINGLE_LOW_PWR_LOW_NOISE_3:
 467:Drivers/BSP/Components/iis2dlpc/iis2dlpc.c ****         case IIS2DLPC_SINGLE_LOW_PWR_LOW_NOISE_2:
 468:Drivers/BSP/Components/iis2dlpc/iis2dlpc.c ****         case IIS2DLPC_SINGLE_LOW_LOW_NOISE_PWR_12bit:
 469:Drivers/BSP/Components/iis2dlpc/iis2dlpc.c ****           *Odr = 1.6f;
 470:Drivers/BSP/Components/iis2dlpc/iis2dlpc.c ****           break;
 471:Drivers/BSP/Components/iis2dlpc/iis2dlpc.c **** 
 472:Drivers/BSP/Components/iis2dlpc/iis2dlpc.c ****         default:
 473:Drivers/BSP/Components/iis2dlpc/iis2dlpc.c ****           *Odr = -1.0f;
 474:Drivers/BSP/Components/iis2dlpc/iis2dlpc.c ****           ret = IIS2DLPC_ERROR;
 475:Drivers/BSP/Components/iis2dlpc/iis2dlpc.c ****           break;
 476:Drivers/BSP/Components/iis2dlpc/iis2dlpc.c ****       }
 477:Drivers/BSP/Components/iis2dlpc/iis2dlpc.c ****       break;
 478:Drivers/BSP/Components/iis2dlpc/iis2dlpc.c **** 
 479:Drivers/BSP/Components/iis2dlpc/iis2dlpc.c ****     case IIS2DLPC_XL_ODR_12Hz5:
 480:Drivers/BSP/Components/iis2dlpc/iis2dlpc.c ****       *Odr = 12.5f;
 481:Drivers/BSP/Components/iis2dlpc/iis2dlpc.c ****       break;
 482:Drivers/BSP/Components/iis2dlpc/iis2dlpc.c **** 
ARM GAS  C:\Temp\ccFHAvpx.s 			page 11


 483:Drivers/BSP/Components/iis2dlpc/iis2dlpc.c ****     case IIS2DLPC_XL_ODR_25Hz:
 484:Drivers/BSP/Components/iis2dlpc/iis2dlpc.c ****       *Odr = 25.0f;
 485:Drivers/BSP/Components/iis2dlpc/iis2dlpc.c ****       break;
 486:Drivers/BSP/Components/iis2dlpc/iis2dlpc.c **** 
 487:Drivers/BSP/Components/iis2dlpc/iis2dlpc.c ****     case IIS2DLPC_XL_ODR_50Hz:
 488:Drivers/BSP/Components/iis2dlpc/iis2dlpc.c ****       *Odr = 50.0f;
 489:Drivers/BSP/Components/iis2dlpc/iis2dlpc.c ****       break;
 490:Drivers/BSP/Components/iis2dlpc/iis2dlpc.c **** 
 491:Drivers/BSP/Components/iis2dlpc/iis2dlpc.c ****     case IIS2DLPC_XL_ODR_100Hz:
 492:Drivers/BSP/Components/iis2dlpc/iis2dlpc.c ****       *Odr = 100.0f;
 493:Drivers/BSP/Components/iis2dlpc/iis2dlpc.c ****       break;
 494:Drivers/BSP/Components/iis2dlpc/iis2dlpc.c **** 
 495:Drivers/BSP/Components/iis2dlpc/iis2dlpc.c ****     case IIS2DLPC_XL_ODR_200Hz:
 496:Drivers/BSP/Components/iis2dlpc/iis2dlpc.c ****       *Odr = 200.0f;
 497:Drivers/BSP/Components/iis2dlpc/iis2dlpc.c ****       break;
 498:Drivers/BSP/Components/iis2dlpc/iis2dlpc.c **** 
 499:Drivers/BSP/Components/iis2dlpc/iis2dlpc.c ****     case IIS2DLPC_XL_ODR_400Hz:
 500:Drivers/BSP/Components/iis2dlpc/iis2dlpc.c ****       switch (mode)
 501:Drivers/BSP/Components/iis2dlpc/iis2dlpc.c ****       {
 502:Drivers/BSP/Components/iis2dlpc/iis2dlpc.c ****         case IIS2DLPC_HIGH_PERFORMANCE:
 503:Drivers/BSP/Components/iis2dlpc/iis2dlpc.c ****         case IIS2DLPC_HIGH_PERFORMANCE_LOW_NOISE:
 504:Drivers/BSP/Components/iis2dlpc/iis2dlpc.c ****           *Odr = 400.0f;
 505:Drivers/BSP/Components/iis2dlpc/iis2dlpc.c ****           break;
 506:Drivers/BSP/Components/iis2dlpc/iis2dlpc.c **** 
 507:Drivers/BSP/Components/iis2dlpc/iis2dlpc.c ****         case IIS2DLPC_CONT_LOW_PWR_4:
 508:Drivers/BSP/Components/iis2dlpc/iis2dlpc.c ****         case IIS2DLPC_CONT_LOW_PWR_3:
 509:Drivers/BSP/Components/iis2dlpc/iis2dlpc.c ****         case IIS2DLPC_CONT_LOW_PWR_2:
 510:Drivers/BSP/Components/iis2dlpc/iis2dlpc.c ****         case IIS2DLPC_CONT_LOW_PWR_12bit:
 511:Drivers/BSP/Components/iis2dlpc/iis2dlpc.c ****         case IIS2DLPC_SINGLE_LOW_PWR_4:
 512:Drivers/BSP/Components/iis2dlpc/iis2dlpc.c ****         case IIS2DLPC_SINGLE_LOW_PWR_3:
 513:Drivers/BSP/Components/iis2dlpc/iis2dlpc.c ****         case IIS2DLPC_SINGLE_LOW_PWR_2:
 514:Drivers/BSP/Components/iis2dlpc/iis2dlpc.c ****         case IIS2DLPC_SINGLE_LOW_PWR_12bit:
 515:Drivers/BSP/Components/iis2dlpc/iis2dlpc.c ****         case IIS2DLPC_CONT_LOW_PWR_LOW_NOISE_4:
 516:Drivers/BSP/Components/iis2dlpc/iis2dlpc.c ****         case IIS2DLPC_CONT_LOW_PWR_LOW_NOISE_3:
 517:Drivers/BSP/Components/iis2dlpc/iis2dlpc.c ****         case IIS2DLPC_CONT_LOW_PWR_LOW_NOISE_2:
 518:Drivers/BSP/Components/iis2dlpc/iis2dlpc.c ****         case IIS2DLPC_CONT_LOW_PWR_LOW_NOISE_12bit:
 519:Drivers/BSP/Components/iis2dlpc/iis2dlpc.c ****         case IIS2DLPC_SINGLE_LOW_PWR_LOW_NOISE_4:
 520:Drivers/BSP/Components/iis2dlpc/iis2dlpc.c ****         case IIS2DLPC_SINGLE_LOW_PWR_LOW_NOISE_3:
 521:Drivers/BSP/Components/iis2dlpc/iis2dlpc.c ****         case IIS2DLPC_SINGLE_LOW_PWR_LOW_NOISE_2:
 522:Drivers/BSP/Components/iis2dlpc/iis2dlpc.c ****         case IIS2DLPC_SINGLE_LOW_LOW_NOISE_PWR_12bit:
 523:Drivers/BSP/Components/iis2dlpc/iis2dlpc.c ****           *Odr = 200.0f;
 524:Drivers/BSP/Components/iis2dlpc/iis2dlpc.c ****           break;
 525:Drivers/BSP/Components/iis2dlpc/iis2dlpc.c **** 
 526:Drivers/BSP/Components/iis2dlpc/iis2dlpc.c ****         default:
 527:Drivers/BSP/Components/iis2dlpc/iis2dlpc.c ****           *Odr = -1.0f;
 528:Drivers/BSP/Components/iis2dlpc/iis2dlpc.c ****           ret = IIS2DLPC_ERROR;
 529:Drivers/BSP/Components/iis2dlpc/iis2dlpc.c ****           break;
 530:Drivers/BSP/Components/iis2dlpc/iis2dlpc.c ****       }
 531:Drivers/BSP/Components/iis2dlpc/iis2dlpc.c ****       break;
 532:Drivers/BSP/Components/iis2dlpc/iis2dlpc.c **** 
 533:Drivers/BSP/Components/iis2dlpc/iis2dlpc.c ****     case IIS2DLPC_XL_ODR_800Hz:
 534:Drivers/BSP/Components/iis2dlpc/iis2dlpc.c ****       switch (mode)
 535:Drivers/BSP/Components/iis2dlpc/iis2dlpc.c ****       {
 536:Drivers/BSP/Components/iis2dlpc/iis2dlpc.c ****         case IIS2DLPC_HIGH_PERFORMANCE:
 537:Drivers/BSP/Components/iis2dlpc/iis2dlpc.c ****         case IIS2DLPC_HIGH_PERFORMANCE_LOW_NOISE:
 538:Drivers/BSP/Components/iis2dlpc/iis2dlpc.c ****           *Odr = 800.0f;
 539:Drivers/BSP/Components/iis2dlpc/iis2dlpc.c ****           break;
ARM GAS  C:\Temp\ccFHAvpx.s 			page 12


 540:Drivers/BSP/Components/iis2dlpc/iis2dlpc.c **** 
 541:Drivers/BSP/Components/iis2dlpc/iis2dlpc.c ****         case IIS2DLPC_CONT_LOW_PWR_4:
 542:Drivers/BSP/Components/iis2dlpc/iis2dlpc.c ****         case IIS2DLPC_CONT_LOW_PWR_3:
 543:Drivers/BSP/Components/iis2dlpc/iis2dlpc.c ****         case IIS2DLPC_CONT_LOW_PWR_2:
 544:Drivers/BSP/Components/iis2dlpc/iis2dlpc.c ****         case IIS2DLPC_CONT_LOW_PWR_12bit:
 545:Drivers/BSP/Components/iis2dlpc/iis2dlpc.c ****         case IIS2DLPC_SINGLE_LOW_PWR_4:
 546:Drivers/BSP/Components/iis2dlpc/iis2dlpc.c ****         case IIS2DLPC_SINGLE_LOW_PWR_3:
 547:Drivers/BSP/Components/iis2dlpc/iis2dlpc.c ****         case IIS2DLPC_SINGLE_LOW_PWR_2:
 548:Drivers/BSP/Components/iis2dlpc/iis2dlpc.c ****         case IIS2DLPC_SINGLE_LOW_PWR_12bit:
 549:Drivers/BSP/Components/iis2dlpc/iis2dlpc.c ****         case IIS2DLPC_CONT_LOW_PWR_LOW_NOISE_4:
 550:Drivers/BSP/Components/iis2dlpc/iis2dlpc.c ****         case IIS2DLPC_CONT_LOW_PWR_LOW_NOISE_3:
 551:Drivers/BSP/Components/iis2dlpc/iis2dlpc.c ****         case IIS2DLPC_CONT_LOW_PWR_LOW_NOISE_2:
 552:Drivers/BSP/Components/iis2dlpc/iis2dlpc.c ****         case IIS2DLPC_CONT_LOW_PWR_LOW_NOISE_12bit:
 553:Drivers/BSP/Components/iis2dlpc/iis2dlpc.c ****         case IIS2DLPC_SINGLE_LOW_PWR_LOW_NOISE_4:
 554:Drivers/BSP/Components/iis2dlpc/iis2dlpc.c ****         case IIS2DLPC_SINGLE_LOW_PWR_LOW_NOISE_3:
 555:Drivers/BSP/Components/iis2dlpc/iis2dlpc.c ****         case IIS2DLPC_SINGLE_LOW_PWR_LOW_NOISE_2:
 556:Drivers/BSP/Components/iis2dlpc/iis2dlpc.c ****         case IIS2DLPC_SINGLE_LOW_LOW_NOISE_PWR_12bit:
 557:Drivers/BSP/Components/iis2dlpc/iis2dlpc.c ****           *Odr = 200.0f;
 558:Drivers/BSP/Components/iis2dlpc/iis2dlpc.c ****           break;
 559:Drivers/BSP/Components/iis2dlpc/iis2dlpc.c **** 
 560:Drivers/BSP/Components/iis2dlpc/iis2dlpc.c ****         default:
 561:Drivers/BSP/Components/iis2dlpc/iis2dlpc.c ****           *Odr = -1.0f;
 562:Drivers/BSP/Components/iis2dlpc/iis2dlpc.c ****           ret = IIS2DLPC_ERROR;
 563:Drivers/BSP/Components/iis2dlpc/iis2dlpc.c ****           break;
 564:Drivers/BSP/Components/iis2dlpc/iis2dlpc.c ****       }
 565:Drivers/BSP/Components/iis2dlpc/iis2dlpc.c ****       break;
 566:Drivers/BSP/Components/iis2dlpc/iis2dlpc.c **** 
 567:Drivers/BSP/Components/iis2dlpc/iis2dlpc.c ****     case IIS2DLPC_XL_ODR_1k6Hz:
 568:Drivers/BSP/Components/iis2dlpc/iis2dlpc.c ****       switch (mode)
 569:Drivers/BSP/Components/iis2dlpc/iis2dlpc.c ****       {
 570:Drivers/BSP/Components/iis2dlpc/iis2dlpc.c ****         case IIS2DLPC_HIGH_PERFORMANCE:
 571:Drivers/BSP/Components/iis2dlpc/iis2dlpc.c ****         case IIS2DLPC_HIGH_PERFORMANCE_LOW_NOISE:
 572:Drivers/BSP/Components/iis2dlpc/iis2dlpc.c ****           *Odr = 1600.0f;
 573:Drivers/BSP/Components/iis2dlpc/iis2dlpc.c ****           break;
 574:Drivers/BSP/Components/iis2dlpc/iis2dlpc.c **** 
 575:Drivers/BSP/Components/iis2dlpc/iis2dlpc.c ****         case IIS2DLPC_CONT_LOW_PWR_4:
 576:Drivers/BSP/Components/iis2dlpc/iis2dlpc.c ****         case IIS2DLPC_CONT_LOW_PWR_3:
 577:Drivers/BSP/Components/iis2dlpc/iis2dlpc.c ****         case IIS2DLPC_CONT_LOW_PWR_2:
 578:Drivers/BSP/Components/iis2dlpc/iis2dlpc.c ****         case IIS2DLPC_CONT_LOW_PWR_12bit:
 579:Drivers/BSP/Components/iis2dlpc/iis2dlpc.c ****         case IIS2DLPC_SINGLE_LOW_PWR_4:
 580:Drivers/BSP/Components/iis2dlpc/iis2dlpc.c ****         case IIS2DLPC_SINGLE_LOW_PWR_3:
 581:Drivers/BSP/Components/iis2dlpc/iis2dlpc.c ****         case IIS2DLPC_SINGLE_LOW_PWR_2:
 582:Drivers/BSP/Components/iis2dlpc/iis2dlpc.c ****         case IIS2DLPC_SINGLE_LOW_PWR_12bit:
 583:Drivers/BSP/Components/iis2dlpc/iis2dlpc.c ****         case IIS2DLPC_CONT_LOW_PWR_LOW_NOISE_4:
 584:Drivers/BSP/Components/iis2dlpc/iis2dlpc.c ****         case IIS2DLPC_CONT_LOW_PWR_LOW_NOISE_3:
 585:Drivers/BSP/Components/iis2dlpc/iis2dlpc.c ****         case IIS2DLPC_CONT_LOW_PWR_LOW_NOISE_2:
 586:Drivers/BSP/Components/iis2dlpc/iis2dlpc.c ****         case IIS2DLPC_CONT_LOW_PWR_LOW_NOISE_12bit:
 587:Drivers/BSP/Components/iis2dlpc/iis2dlpc.c ****         case IIS2DLPC_SINGLE_LOW_PWR_LOW_NOISE_4:
 588:Drivers/BSP/Components/iis2dlpc/iis2dlpc.c ****         case IIS2DLPC_SINGLE_LOW_PWR_LOW_NOISE_3:
 589:Drivers/BSP/Components/iis2dlpc/iis2dlpc.c ****         case IIS2DLPC_SINGLE_LOW_PWR_LOW_NOISE_2:
 590:Drivers/BSP/Components/iis2dlpc/iis2dlpc.c ****         case IIS2DLPC_SINGLE_LOW_LOW_NOISE_PWR_12bit:
 591:Drivers/BSP/Components/iis2dlpc/iis2dlpc.c ****           *Odr = 200.0f;
 592:Drivers/BSP/Components/iis2dlpc/iis2dlpc.c ****           break;
 593:Drivers/BSP/Components/iis2dlpc/iis2dlpc.c **** 
 594:Drivers/BSP/Components/iis2dlpc/iis2dlpc.c ****         default:
 595:Drivers/BSP/Components/iis2dlpc/iis2dlpc.c ****           *Odr = -1.0f;
 596:Drivers/BSP/Components/iis2dlpc/iis2dlpc.c ****           ret = IIS2DLPC_ERROR;
ARM GAS  C:\Temp\ccFHAvpx.s 			page 13


 597:Drivers/BSP/Components/iis2dlpc/iis2dlpc.c ****           break;
 598:Drivers/BSP/Components/iis2dlpc/iis2dlpc.c ****       }
 599:Drivers/BSP/Components/iis2dlpc/iis2dlpc.c ****       break;
 600:Drivers/BSP/Components/iis2dlpc/iis2dlpc.c **** 
 601:Drivers/BSP/Components/iis2dlpc/iis2dlpc.c ****     default:
 602:Drivers/BSP/Components/iis2dlpc/iis2dlpc.c ****       *Odr = -1.0f;
 603:Drivers/BSP/Components/iis2dlpc/iis2dlpc.c ****       ret = IIS2DLPC_ERROR;
 604:Drivers/BSP/Components/iis2dlpc/iis2dlpc.c ****       break;
 605:Drivers/BSP/Components/iis2dlpc/iis2dlpc.c ****   }
 606:Drivers/BSP/Components/iis2dlpc/iis2dlpc.c **** 
 607:Drivers/BSP/Components/iis2dlpc/iis2dlpc.c ****   return ret;
 608:Drivers/BSP/Components/iis2dlpc/iis2dlpc.c **** }
 609:Drivers/BSP/Components/iis2dlpc/iis2dlpc.c **** 
 610:Drivers/BSP/Components/iis2dlpc/iis2dlpc.c **** /**
 611:Drivers/BSP/Components/iis2dlpc/iis2dlpc.c ****   * @brief  Set the IIS2DLPC accelerometer sensor output data rate
 612:Drivers/BSP/Components/iis2dlpc/iis2dlpc.c ****   * @param  pObj the device pObj
 613:Drivers/BSP/Components/iis2dlpc/iis2dlpc.c ****   * @param  Odr the output data rate value to be set
 614:Drivers/BSP/Components/iis2dlpc/iis2dlpc.c ****   * @retval 0 in case of success, an error code otherwise
 615:Drivers/BSP/Components/iis2dlpc/iis2dlpc.c ****   */
 616:Drivers/BSP/Components/iis2dlpc/iis2dlpc.c **** int32_t IIS2DLPC_ACC_SetOutputDataRate(IIS2DLPC_Object_t *pObj, float Odr)
 617:Drivers/BSP/Components/iis2dlpc/iis2dlpc.c **** {
 618:Drivers/BSP/Components/iis2dlpc/iis2dlpc.c ****   /* By default we use High Performance mode and Low Noise disabled */
 619:Drivers/BSP/Components/iis2dlpc/iis2dlpc.c ****   return IIS2DLPC_ACC_SetOutputDataRate_With_Mode(pObj, Odr, IIS2DLPC_HIGH_PERFORMANCE_MODE, IIS2DL
 620:Drivers/BSP/Components/iis2dlpc/iis2dlpc.c **** }
 621:Drivers/BSP/Components/iis2dlpc/iis2dlpc.c **** 
 622:Drivers/BSP/Components/iis2dlpc/iis2dlpc.c **** /**
 623:Drivers/BSP/Components/iis2dlpc/iis2dlpc.c ****   * @brief  Set the IIS2DLPC accelerometer sensor output data rate
 624:Drivers/BSP/Components/iis2dlpc/iis2dlpc.c ****   * @param  pObj the device pObj
 625:Drivers/BSP/Components/iis2dlpc/iis2dlpc.c ****   * @param  Odr the output data rate value to be set
 626:Drivers/BSP/Components/iis2dlpc/iis2dlpc.c ****   * @param  Mode the operating mode to be used
 627:Drivers/BSP/Components/iis2dlpc/iis2dlpc.c ****   * @param  Noise the low noise option
 628:Drivers/BSP/Components/iis2dlpc/iis2dlpc.c ****   * @retval 0 in case of success, an error code otherwise
 629:Drivers/BSP/Components/iis2dlpc/iis2dlpc.c ****   */
 630:Drivers/BSP/Components/iis2dlpc/iis2dlpc.c **** int32_t IIS2DLPC_ACC_SetOutputDataRate_With_Mode(IIS2DLPC_Object_t *pObj, float Odr, IIS2DLPC_Opera
 631:Drivers/BSP/Components/iis2dlpc/iis2dlpc.c ****                                                  IIS2DLPC_Low_Noise_t Noise)
 632:Drivers/BSP/Components/iis2dlpc/iis2dlpc.c **** {
 633:Drivers/BSP/Components/iis2dlpc/iis2dlpc.c ****   /* Check if the component is enabled */
 634:Drivers/BSP/Components/iis2dlpc/iis2dlpc.c ****   if (pObj->acc_is_enabled == 1U)
 635:Drivers/BSP/Components/iis2dlpc/iis2dlpc.c ****   {
 636:Drivers/BSP/Components/iis2dlpc/iis2dlpc.c ****     return IIS2DLPC_ACC_SetOutputDataRate_When_Enabled(pObj, Odr, Mode, Noise);
 637:Drivers/BSP/Components/iis2dlpc/iis2dlpc.c ****   }
 638:Drivers/BSP/Components/iis2dlpc/iis2dlpc.c ****   else
 639:Drivers/BSP/Components/iis2dlpc/iis2dlpc.c ****   {
 640:Drivers/BSP/Components/iis2dlpc/iis2dlpc.c ****     return IIS2DLPC_ACC_SetOutputDataRate_When_Disabled(pObj, Odr, Mode, Noise);
 641:Drivers/BSP/Components/iis2dlpc/iis2dlpc.c ****   }
 642:Drivers/BSP/Components/iis2dlpc/iis2dlpc.c **** }
 643:Drivers/BSP/Components/iis2dlpc/iis2dlpc.c **** 
 644:Drivers/BSP/Components/iis2dlpc/iis2dlpc.c **** /**
 645:Drivers/BSP/Components/iis2dlpc/iis2dlpc.c ****   * @brief  Get the IIS2DLPC accelerometer sensor full scale
 646:Drivers/BSP/Components/iis2dlpc/iis2dlpc.c ****   * @param  pObj the device pObj
 647:Drivers/BSP/Components/iis2dlpc/iis2dlpc.c ****   * @param  FullScale pointer where the full scale is written
 648:Drivers/BSP/Components/iis2dlpc/iis2dlpc.c ****   * @retval 0 in case of success, an error code otherwise
 649:Drivers/BSP/Components/iis2dlpc/iis2dlpc.c ****   */
 650:Drivers/BSP/Components/iis2dlpc/iis2dlpc.c **** int32_t IIS2DLPC_ACC_GetFullScale(IIS2DLPC_Object_t *pObj, int32_t *FullScale)
 651:Drivers/BSP/Components/iis2dlpc/iis2dlpc.c **** {
 652:Drivers/BSP/Components/iis2dlpc/iis2dlpc.c ****   int32_t ret = IIS2DLPC_OK;
 653:Drivers/BSP/Components/iis2dlpc/iis2dlpc.c ****   iis2dlpc_fs_t fs_low_level;
ARM GAS  C:\Temp\ccFHAvpx.s 			page 14


 654:Drivers/BSP/Components/iis2dlpc/iis2dlpc.c **** 
 655:Drivers/BSP/Components/iis2dlpc/iis2dlpc.c ****   /* Read actual full scale selection from sensor. */
 656:Drivers/BSP/Components/iis2dlpc/iis2dlpc.c ****   if (iis2dlpc_full_scale_get(&(pObj->Ctx), &fs_low_level) != IIS2DLPC_OK)
 657:Drivers/BSP/Components/iis2dlpc/iis2dlpc.c ****   {
 658:Drivers/BSP/Components/iis2dlpc/iis2dlpc.c ****     return IIS2DLPC_ERROR;
 659:Drivers/BSP/Components/iis2dlpc/iis2dlpc.c ****   }
 660:Drivers/BSP/Components/iis2dlpc/iis2dlpc.c **** 
 661:Drivers/BSP/Components/iis2dlpc/iis2dlpc.c ****   switch (fs_low_level)
 662:Drivers/BSP/Components/iis2dlpc/iis2dlpc.c ****   {
 663:Drivers/BSP/Components/iis2dlpc/iis2dlpc.c ****     case IIS2DLPC_2g:
 664:Drivers/BSP/Components/iis2dlpc/iis2dlpc.c ****       *FullScale =  2;
 665:Drivers/BSP/Components/iis2dlpc/iis2dlpc.c ****       break;
 666:Drivers/BSP/Components/iis2dlpc/iis2dlpc.c **** 
 667:Drivers/BSP/Components/iis2dlpc/iis2dlpc.c ****     case IIS2DLPC_4g:
 668:Drivers/BSP/Components/iis2dlpc/iis2dlpc.c ****       *FullScale =  4;
 669:Drivers/BSP/Components/iis2dlpc/iis2dlpc.c ****       break;
 670:Drivers/BSP/Components/iis2dlpc/iis2dlpc.c **** 
 671:Drivers/BSP/Components/iis2dlpc/iis2dlpc.c ****     case IIS2DLPC_8g:
 672:Drivers/BSP/Components/iis2dlpc/iis2dlpc.c ****       *FullScale =  8;
 673:Drivers/BSP/Components/iis2dlpc/iis2dlpc.c ****       break;
 674:Drivers/BSP/Components/iis2dlpc/iis2dlpc.c **** 
 675:Drivers/BSP/Components/iis2dlpc/iis2dlpc.c ****     case IIS2DLPC_16g:
 676:Drivers/BSP/Components/iis2dlpc/iis2dlpc.c ****       *FullScale = 16;
 677:Drivers/BSP/Components/iis2dlpc/iis2dlpc.c ****       break;
 678:Drivers/BSP/Components/iis2dlpc/iis2dlpc.c **** 
 679:Drivers/BSP/Components/iis2dlpc/iis2dlpc.c ****     default:
 680:Drivers/BSP/Components/iis2dlpc/iis2dlpc.c ****       *FullScale = -1;
 681:Drivers/BSP/Components/iis2dlpc/iis2dlpc.c ****       ret = IIS2DLPC_ERROR;
 682:Drivers/BSP/Components/iis2dlpc/iis2dlpc.c ****       break;
 683:Drivers/BSP/Components/iis2dlpc/iis2dlpc.c ****   }
 684:Drivers/BSP/Components/iis2dlpc/iis2dlpc.c **** 
 685:Drivers/BSP/Components/iis2dlpc/iis2dlpc.c ****   return ret;
 686:Drivers/BSP/Components/iis2dlpc/iis2dlpc.c **** }
 687:Drivers/BSP/Components/iis2dlpc/iis2dlpc.c **** 
 688:Drivers/BSP/Components/iis2dlpc/iis2dlpc.c **** /**
 689:Drivers/BSP/Components/iis2dlpc/iis2dlpc.c ****   * @brief  Set the IIS2DLPC accelerometer sensor full scale
 690:Drivers/BSP/Components/iis2dlpc/iis2dlpc.c ****   * @param  pObj the device pObj
 691:Drivers/BSP/Components/iis2dlpc/iis2dlpc.c ****   * @param  FullScale the functional full scale to be set
 692:Drivers/BSP/Components/iis2dlpc/iis2dlpc.c ****   * @retval 0 in case of success, an error code otherwise
 693:Drivers/BSP/Components/iis2dlpc/iis2dlpc.c ****   */
 694:Drivers/BSP/Components/iis2dlpc/iis2dlpc.c **** int32_t IIS2DLPC_ACC_SetFullScale(IIS2DLPC_Object_t *pObj, int32_t FullScale)
 695:Drivers/BSP/Components/iis2dlpc/iis2dlpc.c **** {
 696:Drivers/BSP/Components/iis2dlpc/iis2dlpc.c ****   iis2dlpc_fs_t new_fs;
 697:Drivers/BSP/Components/iis2dlpc/iis2dlpc.c **** 
 698:Drivers/BSP/Components/iis2dlpc/iis2dlpc.c ****   /* Seems like MISRA C-2012 rule 14.3a violation but only from single file statical analysis point
 699:Drivers/BSP/Components/iis2dlpc/iis2dlpc.c ****      the parameter passed to the function is not known at the moment of analysis */
 700:Drivers/BSP/Components/iis2dlpc/iis2dlpc.c ****   new_fs = (FullScale <= 2) ? IIS2DLPC_2g
 701:Drivers/BSP/Components/iis2dlpc/iis2dlpc.c ****            : (FullScale <= 4) ? IIS2DLPC_4g
 702:Drivers/BSP/Components/iis2dlpc/iis2dlpc.c ****            : (FullScale <= 8) ? IIS2DLPC_8g
 703:Drivers/BSP/Components/iis2dlpc/iis2dlpc.c ****            :                    IIS2DLPC_16g;
 704:Drivers/BSP/Components/iis2dlpc/iis2dlpc.c **** 
 705:Drivers/BSP/Components/iis2dlpc/iis2dlpc.c ****   if (iis2dlpc_full_scale_set(&(pObj->Ctx), new_fs) != IIS2DLPC_OK)
 706:Drivers/BSP/Components/iis2dlpc/iis2dlpc.c ****   {
 707:Drivers/BSP/Components/iis2dlpc/iis2dlpc.c ****     return IIS2DLPC_ERROR;
 708:Drivers/BSP/Components/iis2dlpc/iis2dlpc.c ****   }
 709:Drivers/BSP/Components/iis2dlpc/iis2dlpc.c **** 
 710:Drivers/BSP/Components/iis2dlpc/iis2dlpc.c ****   return IIS2DLPC_OK;
ARM GAS  C:\Temp\ccFHAvpx.s 			page 15


 711:Drivers/BSP/Components/iis2dlpc/iis2dlpc.c **** }
 712:Drivers/BSP/Components/iis2dlpc/iis2dlpc.c **** 
 713:Drivers/BSP/Components/iis2dlpc/iis2dlpc.c **** /**
 714:Drivers/BSP/Components/iis2dlpc/iis2dlpc.c ****   * @brief  Get the IIS2DLPC accelerometer sensor raw axes
 715:Drivers/BSP/Components/iis2dlpc/iis2dlpc.c ****   * @param  pObj the device pObj
 716:Drivers/BSP/Components/iis2dlpc/iis2dlpc.c ****   * @param  Value pointer where the raw values of the axes are written
 717:Drivers/BSP/Components/iis2dlpc/iis2dlpc.c ****   * @retval 0 in case of success, an error code otherwise
 718:Drivers/BSP/Components/iis2dlpc/iis2dlpc.c ****   */
 719:Drivers/BSP/Components/iis2dlpc/iis2dlpc.c **** int32_t IIS2DLPC_ACC_GetAxesRaw(IIS2DLPC_Object_t *pObj, IIS2DLPC_AxesRaw_t *Value)
 720:Drivers/BSP/Components/iis2dlpc/iis2dlpc.c **** {
 721:Drivers/BSP/Components/iis2dlpc/iis2dlpc.c ****   iis2dlpc_axis3bit16_t data_raw;
 722:Drivers/BSP/Components/iis2dlpc/iis2dlpc.c ****   iis2dlpc_mode_t mode;
 723:Drivers/BSP/Components/iis2dlpc/iis2dlpc.c ****   int32_t ret = IIS2DLPC_OK;
 724:Drivers/BSP/Components/iis2dlpc/iis2dlpc.c **** 
 725:Drivers/BSP/Components/iis2dlpc/iis2dlpc.c ****   /* Read actual power mode selection from sensor. */
 726:Drivers/BSP/Components/iis2dlpc/iis2dlpc.c ****   if (iis2dlpc_power_mode_get(&(pObj->Ctx), &mode) != IIS2DLPC_OK)
 727:Drivers/BSP/Components/iis2dlpc/iis2dlpc.c ****   {
 728:Drivers/BSP/Components/iis2dlpc/iis2dlpc.c ****     return IIS2DLPC_ERROR;
 729:Drivers/BSP/Components/iis2dlpc/iis2dlpc.c ****   }
 730:Drivers/BSP/Components/iis2dlpc/iis2dlpc.c **** 
 731:Drivers/BSP/Components/iis2dlpc/iis2dlpc.c ****   /* Read raw data values. */
 732:Drivers/BSP/Components/iis2dlpc/iis2dlpc.c ****   if (iis2dlpc_acceleration_raw_get(&(pObj->Ctx), data_raw.i16bit) != IIS2DLPC_OK)
 733:Drivers/BSP/Components/iis2dlpc/iis2dlpc.c ****   {
 734:Drivers/BSP/Components/iis2dlpc/iis2dlpc.c ****     return IIS2DLPC_ERROR;
 735:Drivers/BSP/Components/iis2dlpc/iis2dlpc.c ****   }
 736:Drivers/BSP/Components/iis2dlpc/iis2dlpc.c **** 
 737:Drivers/BSP/Components/iis2dlpc/iis2dlpc.c ****   switch (mode)
 738:Drivers/BSP/Components/iis2dlpc/iis2dlpc.c ****   {
 739:Drivers/BSP/Components/iis2dlpc/iis2dlpc.c ****     case IIS2DLPC_CONT_LOW_PWR_12bit:
 740:Drivers/BSP/Components/iis2dlpc/iis2dlpc.c ****     case IIS2DLPC_SINGLE_LOW_PWR_12bit:
 741:Drivers/BSP/Components/iis2dlpc/iis2dlpc.c ****     case IIS2DLPC_CONT_LOW_PWR_LOW_NOISE_12bit:
 742:Drivers/BSP/Components/iis2dlpc/iis2dlpc.c ****     case IIS2DLPC_SINGLE_LOW_LOW_NOISE_PWR_12bit:
 743:Drivers/BSP/Components/iis2dlpc/iis2dlpc.c ****       /* Data format 12 bits. */
 744:Drivers/BSP/Components/iis2dlpc/iis2dlpc.c ****       Value->x = (data_raw.i16bit[0] / 16);
 745:Drivers/BSP/Components/iis2dlpc/iis2dlpc.c ****       Value->y = (data_raw.i16bit[1] / 16);
 746:Drivers/BSP/Components/iis2dlpc/iis2dlpc.c ****       Value->z = (data_raw.i16bit[2] / 16);
 747:Drivers/BSP/Components/iis2dlpc/iis2dlpc.c ****       break;
 748:Drivers/BSP/Components/iis2dlpc/iis2dlpc.c **** 
 749:Drivers/BSP/Components/iis2dlpc/iis2dlpc.c ****     case IIS2DLPC_HIGH_PERFORMANCE:
 750:Drivers/BSP/Components/iis2dlpc/iis2dlpc.c ****     case IIS2DLPC_CONT_LOW_PWR_4:
 751:Drivers/BSP/Components/iis2dlpc/iis2dlpc.c ****     case IIS2DLPC_CONT_LOW_PWR_3:
 752:Drivers/BSP/Components/iis2dlpc/iis2dlpc.c ****     case IIS2DLPC_CONT_LOW_PWR_2:
 753:Drivers/BSP/Components/iis2dlpc/iis2dlpc.c ****     case IIS2DLPC_SINGLE_LOW_PWR_4:
 754:Drivers/BSP/Components/iis2dlpc/iis2dlpc.c ****     case IIS2DLPC_SINGLE_LOW_PWR_3:
 755:Drivers/BSP/Components/iis2dlpc/iis2dlpc.c ****     case IIS2DLPC_SINGLE_LOW_PWR_2:
 756:Drivers/BSP/Components/iis2dlpc/iis2dlpc.c ****     case IIS2DLPC_HIGH_PERFORMANCE_LOW_NOISE:
 757:Drivers/BSP/Components/iis2dlpc/iis2dlpc.c ****     case IIS2DLPC_CONT_LOW_PWR_LOW_NOISE_4:
 758:Drivers/BSP/Components/iis2dlpc/iis2dlpc.c ****     case IIS2DLPC_CONT_LOW_PWR_LOW_NOISE_3:
 759:Drivers/BSP/Components/iis2dlpc/iis2dlpc.c ****     case IIS2DLPC_CONT_LOW_PWR_LOW_NOISE_2:
 760:Drivers/BSP/Components/iis2dlpc/iis2dlpc.c ****     case IIS2DLPC_SINGLE_LOW_PWR_LOW_NOISE_4:
 761:Drivers/BSP/Components/iis2dlpc/iis2dlpc.c ****     case IIS2DLPC_SINGLE_LOW_PWR_LOW_NOISE_3:
 762:Drivers/BSP/Components/iis2dlpc/iis2dlpc.c ****     case IIS2DLPC_SINGLE_LOW_PWR_LOW_NOISE_2:
 763:Drivers/BSP/Components/iis2dlpc/iis2dlpc.c ****       /* Data format 14 bits. */
 764:Drivers/BSP/Components/iis2dlpc/iis2dlpc.c ****       Value->x = (data_raw.i16bit[0] / 4);
 765:Drivers/BSP/Components/iis2dlpc/iis2dlpc.c ****       Value->y = (data_raw.i16bit[1] / 4);
 766:Drivers/BSP/Components/iis2dlpc/iis2dlpc.c ****       Value->z = (data_raw.i16bit[2] / 4);
 767:Drivers/BSP/Components/iis2dlpc/iis2dlpc.c ****       break;
ARM GAS  C:\Temp\ccFHAvpx.s 			page 16


 768:Drivers/BSP/Components/iis2dlpc/iis2dlpc.c **** 
 769:Drivers/BSP/Components/iis2dlpc/iis2dlpc.c ****     default:
 770:Drivers/BSP/Components/iis2dlpc/iis2dlpc.c ****       ret = IIS2DLPC_ERROR;
 771:Drivers/BSP/Components/iis2dlpc/iis2dlpc.c ****       break;
 772:Drivers/BSP/Components/iis2dlpc/iis2dlpc.c ****   }
 773:Drivers/BSP/Components/iis2dlpc/iis2dlpc.c **** 
 774:Drivers/BSP/Components/iis2dlpc/iis2dlpc.c ****   return ret;
 775:Drivers/BSP/Components/iis2dlpc/iis2dlpc.c **** }
 776:Drivers/BSP/Components/iis2dlpc/iis2dlpc.c **** 
 777:Drivers/BSP/Components/iis2dlpc/iis2dlpc.c **** /**
 778:Drivers/BSP/Components/iis2dlpc/iis2dlpc.c ****   * @brief  Get the IIS2DLPC accelerometer sensor axes
 779:Drivers/BSP/Components/iis2dlpc/iis2dlpc.c ****   * @param  pObj the device pObj
 780:Drivers/BSP/Components/iis2dlpc/iis2dlpc.c ****   * @param  Acceleration pointer where the values of the axes are written
 781:Drivers/BSP/Components/iis2dlpc/iis2dlpc.c ****   * @retval 0 in case of success, an error code otherwise
 782:Drivers/BSP/Components/iis2dlpc/iis2dlpc.c ****   */
 783:Drivers/BSP/Components/iis2dlpc/iis2dlpc.c **** int32_t IIS2DLPC_ACC_GetAxes(IIS2DLPC_Object_t *pObj, IIS2DLPC_Axes_t *Acceleration)
 784:Drivers/BSP/Components/iis2dlpc/iis2dlpc.c **** {
 785:Drivers/BSP/Components/iis2dlpc/iis2dlpc.c ****   IIS2DLPC_AxesRaw_t data_raw;
 786:Drivers/BSP/Components/iis2dlpc/iis2dlpc.c ****   float sensitivity = 0.0f;
 787:Drivers/BSP/Components/iis2dlpc/iis2dlpc.c **** 
 788:Drivers/BSP/Components/iis2dlpc/iis2dlpc.c ****   /* Read raw data values. */
 789:Drivers/BSP/Components/iis2dlpc/iis2dlpc.c ****   if (IIS2DLPC_ACC_GetAxesRaw(pObj, &data_raw) != IIS2DLPC_OK)
 790:Drivers/BSP/Components/iis2dlpc/iis2dlpc.c ****   {
 791:Drivers/BSP/Components/iis2dlpc/iis2dlpc.c ****     return IIS2DLPC_ERROR;
 792:Drivers/BSP/Components/iis2dlpc/iis2dlpc.c ****   }
 793:Drivers/BSP/Components/iis2dlpc/iis2dlpc.c **** 
 794:Drivers/BSP/Components/iis2dlpc/iis2dlpc.c ****   /* Get IIS2DLPC actual sensitivity. */
 795:Drivers/BSP/Components/iis2dlpc/iis2dlpc.c ****   if (IIS2DLPC_ACC_GetSensitivity(pObj, &sensitivity) != IIS2DLPC_OK)
 796:Drivers/BSP/Components/iis2dlpc/iis2dlpc.c ****   {
 797:Drivers/BSP/Components/iis2dlpc/iis2dlpc.c ****     return IIS2DLPC_ERROR;
 798:Drivers/BSP/Components/iis2dlpc/iis2dlpc.c ****   }
 799:Drivers/BSP/Components/iis2dlpc/iis2dlpc.c **** 
 800:Drivers/BSP/Components/iis2dlpc/iis2dlpc.c ****   /* Calculate the data. */
 801:Drivers/BSP/Components/iis2dlpc/iis2dlpc.c ****   Acceleration->x = (int32_t)((float)((float)data_raw.x * sensitivity));
 802:Drivers/BSP/Components/iis2dlpc/iis2dlpc.c ****   Acceleration->y = (int32_t)((float)((float)data_raw.y * sensitivity));
 803:Drivers/BSP/Components/iis2dlpc/iis2dlpc.c ****   Acceleration->z = (int32_t)((float)((float)data_raw.z * sensitivity));
 804:Drivers/BSP/Components/iis2dlpc/iis2dlpc.c **** 
 805:Drivers/BSP/Components/iis2dlpc/iis2dlpc.c ****   return IIS2DLPC_OK;
 806:Drivers/BSP/Components/iis2dlpc/iis2dlpc.c **** }
 807:Drivers/BSP/Components/iis2dlpc/iis2dlpc.c **** 
 808:Drivers/BSP/Components/iis2dlpc/iis2dlpc.c **** /**
 809:Drivers/BSP/Components/iis2dlpc/iis2dlpc.c ****   * @brief  Get the IIS2DLPC register value
 810:Drivers/BSP/Components/iis2dlpc/iis2dlpc.c ****   * @param  pObj the device pObj
 811:Drivers/BSP/Components/iis2dlpc/iis2dlpc.c ****   * @param  Reg address to be read
 812:Drivers/BSP/Components/iis2dlpc/iis2dlpc.c ****   * @param  Data pointer where the value is written
 813:Drivers/BSP/Components/iis2dlpc/iis2dlpc.c ****   * @retval 0 in case of success, an error code otherwise
 814:Drivers/BSP/Components/iis2dlpc/iis2dlpc.c ****   */
 815:Drivers/BSP/Components/iis2dlpc/iis2dlpc.c **** int32_t IIS2DLPC_Read_Reg(IIS2DLPC_Object_t *pObj, uint8_t Reg, uint8_t *Data)
 816:Drivers/BSP/Components/iis2dlpc/iis2dlpc.c **** {
 817:Drivers/BSP/Components/iis2dlpc/iis2dlpc.c ****   if (iis2dlpc_read_reg(&(pObj->Ctx), Reg, Data, 1) != IIS2DLPC_OK)
 818:Drivers/BSP/Components/iis2dlpc/iis2dlpc.c ****   {
 819:Drivers/BSP/Components/iis2dlpc/iis2dlpc.c ****     return IIS2DLPC_ERROR;
 820:Drivers/BSP/Components/iis2dlpc/iis2dlpc.c ****   }
 821:Drivers/BSP/Components/iis2dlpc/iis2dlpc.c **** 
 822:Drivers/BSP/Components/iis2dlpc/iis2dlpc.c ****   return IIS2DLPC_OK;
 823:Drivers/BSP/Components/iis2dlpc/iis2dlpc.c **** }
 824:Drivers/BSP/Components/iis2dlpc/iis2dlpc.c **** 
ARM GAS  C:\Temp\ccFHAvpx.s 			page 17


 825:Drivers/BSP/Components/iis2dlpc/iis2dlpc.c **** /**
 826:Drivers/BSP/Components/iis2dlpc/iis2dlpc.c ****   * @brief  Set the IIS2DLPC register value
 827:Drivers/BSP/Components/iis2dlpc/iis2dlpc.c ****   * @param  pObj the device pObj
 828:Drivers/BSP/Components/iis2dlpc/iis2dlpc.c ****   * @param  Reg address to be written
 829:Drivers/BSP/Components/iis2dlpc/iis2dlpc.c ****   * @param  Data value to be written
 830:Drivers/BSP/Components/iis2dlpc/iis2dlpc.c ****   * @retval 0 in case of success, an error code otherwise
 831:Drivers/BSP/Components/iis2dlpc/iis2dlpc.c ****   */
 832:Drivers/BSP/Components/iis2dlpc/iis2dlpc.c **** int32_t IIS2DLPC_Write_Reg(IIS2DLPC_Object_t *pObj, uint8_t Reg, uint8_t Data)
 833:Drivers/BSP/Components/iis2dlpc/iis2dlpc.c **** {
 834:Drivers/BSP/Components/iis2dlpc/iis2dlpc.c ****   if (iis2dlpc_write_reg(&(pObj->Ctx), Reg, &Data, 1) != IIS2DLPC_OK)
 835:Drivers/BSP/Components/iis2dlpc/iis2dlpc.c ****   {
 836:Drivers/BSP/Components/iis2dlpc/iis2dlpc.c ****     return IIS2DLPC_ERROR;
 837:Drivers/BSP/Components/iis2dlpc/iis2dlpc.c ****   }
 838:Drivers/BSP/Components/iis2dlpc/iis2dlpc.c **** 
 839:Drivers/BSP/Components/iis2dlpc/iis2dlpc.c ****   return IIS2DLPC_OK;
 840:Drivers/BSP/Components/iis2dlpc/iis2dlpc.c **** }
 841:Drivers/BSP/Components/iis2dlpc/iis2dlpc.c **** 
 842:Drivers/BSP/Components/iis2dlpc/iis2dlpc.c **** /**
 843:Drivers/BSP/Components/iis2dlpc/iis2dlpc.c ****   * @brief  Get the IIS2DLPC ACC data ready bit value
 844:Drivers/BSP/Components/iis2dlpc/iis2dlpc.c ****   * @param  pObj the device pObj
 845:Drivers/BSP/Components/iis2dlpc/iis2dlpc.c ****   * @param  Status the status of data ready bit
 846:Drivers/BSP/Components/iis2dlpc/iis2dlpc.c ****   * @retval 0 in case of success, an error code otherwise
 847:Drivers/BSP/Components/iis2dlpc/iis2dlpc.c ****   */
 848:Drivers/BSP/Components/iis2dlpc/iis2dlpc.c **** int32_t IIS2DLPC_ACC_Get_DRDY_Status(IIS2DLPC_Object_t *pObj, uint8_t *Status)
 849:Drivers/BSP/Components/iis2dlpc/iis2dlpc.c **** {
 850:Drivers/BSP/Components/iis2dlpc/iis2dlpc.c ****   if (iis2dlpc_flag_data_ready_get(&(pObj->Ctx), Status) != IIS2DLPC_OK)
 851:Drivers/BSP/Components/iis2dlpc/iis2dlpc.c ****   {
 852:Drivers/BSP/Components/iis2dlpc/iis2dlpc.c ****     return IIS2DLPC_ERROR;
 853:Drivers/BSP/Components/iis2dlpc/iis2dlpc.c ****   }
 854:Drivers/BSP/Components/iis2dlpc/iis2dlpc.c **** 
 855:Drivers/BSP/Components/iis2dlpc/iis2dlpc.c ****   return IIS2DLPC_OK;
 856:Drivers/BSP/Components/iis2dlpc/iis2dlpc.c **** }
 857:Drivers/BSP/Components/iis2dlpc/iis2dlpc.c **** 
 858:Drivers/BSP/Components/iis2dlpc/iis2dlpc.c **** /**
 859:Drivers/BSP/Components/iis2dlpc/iis2dlpc.c ****   * @}
 860:Drivers/BSP/Components/iis2dlpc/iis2dlpc.c ****   */
 861:Drivers/BSP/Components/iis2dlpc/iis2dlpc.c **** 
 862:Drivers/BSP/Components/iis2dlpc/iis2dlpc.c **** /** @defgroup IIS2DLPC_Private_Functions IIS2DLPC Private Functions
 863:Drivers/BSP/Components/iis2dlpc/iis2dlpc.c ****   * @{
 864:Drivers/BSP/Components/iis2dlpc/iis2dlpc.c ****   */
 865:Drivers/BSP/Components/iis2dlpc/iis2dlpc.c **** 
 866:Drivers/BSP/Components/iis2dlpc/iis2dlpc.c **** /**
 867:Drivers/BSP/Components/iis2dlpc/iis2dlpc.c ****   * @brief  Set the IIS2DLPC accelerometer sensor output data rate when enabled
 868:Drivers/BSP/Components/iis2dlpc/iis2dlpc.c ****   * @param  pObj the device pObj
 869:Drivers/BSP/Components/iis2dlpc/iis2dlpc.c ****   * @param  Odr the functional output data rate to be set
 870:Drivers/BSP/Components/iis2dlpc/iis2dlpc.c ****   * @param  Mode the operating mode to be used
 871:Drivers/BSP/Components/iis2dlpc/iis2dlpc.c ****   * @param  Noise the low noise option
 872:Drivers/BSP/Components/iis2dlpc/iis2dlpc.c ****   * @retval 0 in case of success, an error code otherwise
 873:Drivers/BSP/Components/iis2dlpc/iis2dlpc.c ****   */
 874:Drivers/BSP/Components/iis2dlpc/iis2dlpc.c **** static int32_t IIS2DLPC_ACC_SetOutputDataRate_When_Enabled(IIS2DLPC_Object_t *pObj, float Odr,
 875:Drivers/BSP/Components/iis2dlpc/iis2dlpc.c ****                                                            IIS2DLPC_Operating_Mode_t Mode, IIS2DLPC
 876:Drivers/BSP/Components/iis2dlpc/iis2dlpc.c **** {
 877:Drivers/BSP/Components/iis2dlpc/iis2dlpc.c ****   iis2dlpc_odr_t new_odr;
 878:Drivers/BSP/Components/iis2dlpc/iis2dlpc.c ****   iis2dlpc_mode_t new_power_mode;
 879:Drivers/BSP/Components/iis2dlpc/iis2dlpc.c **** 
 880:Drivers/BSP/Components/iis2dlpc/iis2dlpc.c ****   switch (Mode)
 881:Drivers/BSP/Components/iis2dlpc/iis2dlpc.c ****   {
ARM GAS  C:\Temp\ccFHAvpx.s 			page 18


 882:Drivers/BSP/Components/iis2dlpc/iis2dlpc.c ****     case IIS2DLPC_HIGH_PERFORMANCE_MODE:
 883:Drivers/BSP/Components/iis2dlpc/iis2dlpc.c ****     default:
 884:Drivers/BSP/Components/iis2dlpc/iis2dlpc.c ****       switch (Noise)
 885:Drivers/BSP/Components/iis2dlpc/iis2dlpc.c ****       {
 886:Drivers/BSP/Components/iis2dlpc/iis2dlpc.c ****         case IIS2DLPC_LOW_NOISE_DISABLE:
 887:Drivers/BSP/Components/iis2dlpc/iis2dlpc.c ****         default:
 888:Drivers/BSP/Components/iis2dlpc/iis2dlpc.c ****           new_power_mode = IIS2DLPC_HIGH_PERFORMANCE;
 889:Drivers/BSP/Components/iis2dlpc/iis2dlpc.c ****           break;
 890:Drivers/BSP/Components/iis2dlpc/iis2dlpc.c ****         case IIS2DLPC_LOW_NOISE_ENABLE:
 891:Drivers/BSP/Components/iis2dlpc/iis2dlpc.c ****           new_power_mode = IIS2DLPC_HIGH_PERFORMANCE_LOW_NOISE;
 892:Drivers/BSP/Components/iis2dlpc/iis2dlpc.c ****           break;
 893:Drivers/BSP/Components/iis2dlpc/iis2dlpc.c ****       }
 894:Drivers/BSP/Components/iis2dlpc/iis2dlpc.c **** 
 895:Drivers/BSP/Components/iis2dlpc/iis2dlpc.c ****       /* If High Performance mode minimum ODR is 12.5Hz */
 896:Drivers/BSP/Components/iis2dlpc/iis2dlpc.c ****       if (Odr < 12.5f)
 897:Drivers/BSP/Components/iis2dlpc/iis2dlpc.c ****       {
 898:Drivers/BSP/Components/iis2dlpc/iis2dlpc.c ****         Odr = 12.5f;
 899:Drivers/BSP/Components/iis2dlpc/iis2dlpc.c ****       }
 900:Drivers/BSP/Components/iis2dlpc/iis2dlpc.c ****       break;
 901:Drivers/BSP/Components/iis2dlpc/iis2dlpc.c ****     case IIS2DLPC_LOW_POWER_MODE4:
 902:Drivers/BSP/Components/iis2dlpc/iis2dlpc.c ****       switch (Noise)
 903:Drivers/BSP/Components/iis2dlpc/iis2dlpc.c ****       {
 904:Drivers/BSP/Components/iis2dlpc/iis2dlpc.c ****         case IIS2DLPC_LOW_NOISE_DISABLE:
 905:Drivers/BSP/Components/iis2dlpc/iis2dlpc.c ****         default:
 906:Drivers/BSP/Components/iis2dlpc/iis2dlpc.c ****           new_power_mode = IIS2DLPC_CONT_LOW_PWR_4;
 907:Drivers/BSP/Components/iis2dlpc/iis2dlpc.c ****           break;
 908:Drivers/BSP/Components/iis2dlpc/iis2dlpc.c ****         case IIS2DLPC_LOW_NOISE_ENABLE:
 909:Drivers/BSP/Components/iis2dlpc/iis2dlpc.c ****           new_power_mode = IIS2DLPC_CONT_LOW_PWR_LOW_NOISE_4;
 910:Drivers/BSP/Components/iis2dlpc/iis2dlpc.c ****           break;
 911:Drivers/BSP/Components/iis2dlpc/iis2dlpc.c ****       }
 912:Drivers/BSP/Components/iis2dlpc/iis2dlpc.c **** 
 913:Drivers/BSP/Components/iis2dlpc/iis2dlpc.c ****       /* If Low Power mode maximum ODR is 200Hz */
 914:Drivers/BSP/Components/iis2dlpc/iis2dlpc.c ****       if (Odr > 200.0f)
 915:Drivers/BSP/Components/iis2dlpc/iis2dlpc.c ****       {
 916:Drivers/BSP/Components/iis2dlpc/iis2dlpc.c ****         Odr = 200.0f;
 917:Drivers/BSP/Components/iis2dlpc/iis2dlpc.c ****       }
 918:Drivers/BSP/Components/iis2dlpc/iis2dlpc.c ****       break;
 919:Drivers/BSP/Components/iis2dlpc/iis2dlpc.c ****     case IIS2DLPC_LOW_POWER_MODE3:
 920:Drivers/BSP/Components/iis2dlpc/iis2dlpc.c ****       switch (Noise)
 921:Drivers/BSP/Components/iis2dlpc/iis2dlpc.c ****       {
 922:Drivers/BSP/Components/iis2dlpc/iis2dlpc.c ****         case IIS2DLPC_LOW_NOISE_DISABLE:
 923:Drivers/BSP/Components/iis2dlpc/iis2dlpc.c ****         default:
 924:Drivers/BSP/Components/iis2dlpc/iis2dlpc.c ****           new_power_mode = IIS2DLPC_CONT_LOW_PWR_3;
 925:Drivers/BSP/Components/iis2dlpc/iis2dlpc.c ****           break;
 926:Drivers/BSP/Components/iis2dlpc/iis2dlpc.c ****         case IIS2DLPC_LOW_NOISE_ENABLE:
 927:Drivers/BSP/Components/iis2dlpc/iis2dlpc.c ****           new_power_mode = IIS2DLPC_CONT_LOW_PWR_LOW_NOISE_3;
 928:Drivers/BSP/Components/iis2dlpc/iis2dlpc.c ****           break;
 929:Drivers/BSP/Components/iis2dlpc/iis2dlpc.c ****       }
 930:Drivers/BSP/Components/iis2dlpc/iis2dlpc.c **** 
 931:Drivers/BSP/Components/iis2dlpc/iis2dlpc.c ****       /* If Low Power mode maximum ODR is 200Hz */
 932:Drivers/BSP/Components/iis2dlpc/iis2dlpc.c ****       if (Odr > 200.0f)
 933:Drivers/BSP/Components/iis2dlpc/iis2dlpc.c ****       {
 934:Drivers/BSP/Components/iis2dlpc/iis2dlpc.c ****         Odr = 200.0f;
 935:Drivers/BSP/Components/iis2dlpc/iis2dlpc.c ****       }
 936:Drivers/BSP/Components/iis2dlpc/iis2dlpc.c ****       break;
 937:Drivers/BSP/Components/iis2dlpc/iis2dlpc.c ****     case IIS2DLPC_LOW_POWER_MODE2:
 938:Drivers/BSP/Components/iis2dlpc/iis2dlpc.c ****       switch (Noise)
ARM GAS  C:\Temp\ccFHAvpx.s 			page 19


 939:Drivers/BSP/Components/iis2dlpc/iis2dlpc.c ****       {
 940:Drivers/BSP/Components/iis2dlpc/iis2dlpc.c ****         case IIS2DLPC_LOW_NOISE_DISABLE:
 941:Drivers/BSP/Components/iis2dlpc/iis2dlpc.c ****         default:
 942:Drivers/BSP/Components/iis2dlpc/iis2dlpc.c ****           new_power_mode = IIS2DLPC_CONT_LOW_PWR_2;
 943:Drivers/BSP/Components/iis2dlpc/iis2dlpc.c ****           break;
 944:Drivers/BSP/Components/iis2dlpc/iis2dlpc.c ****         case IIS2DLPC_LOW_NOISE_ENABLE:
 945:Drivers/BSP/Components/iis2dlpc/iis2dlpc.c ****           new_power_mode = IIS2DLPC_CONT_LOW_PWR_LOW_NOISE_2;
 946:Drivers/BSP/Components/iis2dlpc/iis2dlpc.c ****           break;
 947:Drivers/BSP/Components/iis2dlpc/iis2dlpc.c ****       }
 948:Drivers/BSP/Components/iis2dlpc/iis2dlpc.c **** 
 949:Drivers/BSP/Components/iis2dlpc/iis2dlpc.c ****       /* If Low Power mode maximum ODR is 200Hz */
 950:Drivers/BSP/Components/iis2dlpc/iis2dlpc.c ****       if (Odr > 200.0f)
 951:Drivers/BSP/Components/iis2dlpc/iis2dlpc.c ****       {
 952:Drivers/BSP/Components/iis2dlpc/iis2dlpc.c ****         Odr = 200.0f;
 953:Drivers/BSP/Components/iis2dlpc/iis2dlpc.c ****       }
 954:Drivers/BSP/Components/iis2dlpc/iis2dlpc.c ****       break;
 955:Drivers/BSP/Components/iis2dlpc/iis2dlpc.c ****     case IIS2DLPC_LOW_POWER_MODE1:
 956:Drivers/BSP/Components/iis2dlpc/iis2dlpc.c ****       switch (Noise)
 957:Drivers/BSP/Components/iis2dlpc/iis2dlpc.c ****       {
 958:Drivers/BSP/Components/iis2dlpc/iis2dlpc.c ****         case IIS2DLPC_LOW_NOISE_DISABLE:
 959:Drivers/BSP/Components/iis2dlpc/iis2dlpc.c ****         default:
 960:Drivers/BSP/Components/iis2dlpc/iis2dlpc.c ****           new_power_mode = IIS2DLPC_CONT_LOW_PWR_12bit;
 961:Drivers/BSP/Components/iis2dlpc/iis2dlpc.c ****           break;
 962:Drivers/BSP/Components/iis2dlpc/iis2dlpc.c ****         case IIS2DLPC_LOW_NOISE_ENABLE:
 963:Drivers/BSP/Components/iis2dlpc/iis2dlpc.c ****           new_power_mode = IIS2DLPC_CONT_LOW_PWR_LOW_NOISE_12bit;
 964:Drivers/BSP/Components/iis2dlpc/iis2dlpc.c ****           break;
 965:Drivers/BSP/Components/iis2dlpc/iis2dlpc.c ****       }
 966:Drivers/BSP/Components/iis2dlpc/iis2dlpc.c **** 
 967:Drivers/BSP/Components/iis2dlpc/iis2dlpc.c ****       /* If Low Power mode maximum ODR is 200Hz */
 968:Drivers/BSP/Components/iis2dlpc/iis2dlpc.c ****       if (Odr > 200.0f)
 969:Drivers/BSP/Components/iis2dlpc/iis2dlpc.c ****       {
 970:Drivers/BSP/Components/iis2dlpc/iis2dlpc.c ****         Odr = 200.0f;
 971:Drivers/BSP/Components/iis2dlpc/iis2dlpc.c ****       }
 972:Drivers/BSP/Components/iis2dlpc/iis2dlpc.c ****       break;
 973:Drivers/BSP/Components/iis2dlpc/iis2dlpc.c ****   }
 974:Drivers/BSP/Components/iis2dlpc/iis2dlpc.c **** 
 975:Drivers/BSP/Components/iis2dlpc/iis2dlpc.c ****   new_odr = (Odr <=    1.6f) ? IIS2DLPC_XL_ODR_1Hz6_LP_ONLY
 976:Drivers/BSP/Components/iis2dlpc/iis2dlpc.c ****             : (Odr <=   12.5f) ? IIS2DLPC_XL_ODR_12Hz5
 977:Drivers/BSP/Components/iis2dlpc/iis2dlpc.c ****             : (Odr <=   25.0f) ? IIS2DLPC_XL_ODR_25Hz
 978:Drivers/BSP/Components/iis2dlpc/iis2dlpc.c ****             : (Odr <=   50.0f) ? IIS2DLPC_XL_ODR_50Hz
 979:Drivers/BSP/Components/iis2dlpc/iis2dlpc.c ****             : (Odr <=  100.0f) ? IIS2DLPC_XL_ODR_100Hz
 980:Drivers/BSP/Components/iis2dlpc/iis2dlpc.c ****             : (Odr <=  200.0f) ? IIS2DLPC_XL_ODR_200Hz
 981:Drivers/BSP/Components/iis2dlpc/iis2dlpc.c ****             : (Odr <=  400.0f) ? IIS2DLPC_XL_ODR_400Hz
 982:Drivers/BSP/Components/iis2dlpc/iis2dlpc.c ****             : (Odr <=  800.0f) ? IIS2DLPC_XL_ODR_800Hz
 983:Drivers/BSP/Components/iis2dlpc/iis2dlpc.c ****             :                    IIS2DLPC_XL_ODR_1k6Hz;
 984:Drivers/BSP/Components/iis2dlpc/iis2dlpc.c **** 
 985:Drivers/BSP/Components/iis2dlpc/iis2dlpc.c ****   /* Output data rate selection. */
 986:Drivers/BSP/Components/iis2dlpc/iis2dlpc.c ****   if (iis2dlpc_data_rate_set(&(pObj->Ctx), new_odr) != IIS2DLPC_OK)
 987:Drivers/BSP/Components/iis2dlpc/iis2dlpc.c ****   {
 988:Drivers/BSP/Components/iis2dlpc/iis2dlpc.c ****     return IIS2DLPC_ERROR;
 989:Drivers/BSP/Components/iis2dlpc/iis2dlpc.c ****   }
 990:Drivers/BSP/Components/iis2dlpc/iis2dlpc.c **** 
 991:Drivers/BSP/Components/iis2dlpc/iis2dlpc.c ****   /* Power mode selection. */
 992:Drivers/BSP/Components/iis2dlpc/iis2dlpc.c ****   if (iis2dlpc_power_mode_set(&(pObj->Ctx), new_power_mode) != IIS2DLPC_OK)
 993:Drivers/BSP/Components/iis2dlpc/iis2dlpc.c ****   {
 994:Drivers/BSP/Components/iis2dlpc/iis2dlpc.c ****     return IIS2DLPC_ERROR;
 995:Drivers/BSP/Components/iis2dlpc/iis2dlpc.c ****   }
ARM GAS  C:\Temp\ccFHAvpx.s 			page 20


 996:Drivers/BSP/Components/iis2dlpc/iis2dlpc.c **** 
 997:Drivers/BSP/Components/iis2dlpc/iis2dlpc.c ****   /* Store the current Odr, Mode and Noise values */
 998:Drivers/BSP/Components/iis2dlpc/iis2dlpc.c ****   pObj->acc_odr = Odr;
 999:Drivers/BSP/Components/iis2dlpc/iis2dlpc.c ****   pObj->acc_operating_mode = Mode;
1000:Drivers/BSP/Components/iis2dlpc/iis2dlpc.c ****   pObj->acc_low_noise = Noise;
1001:Drivers/BSP/Components/iis2dlpc/iis2dlpc.c **** 
1002:Drivers/BSP/Components/iis2dlpc/iis2dlpc.c ****   return IIS2DLPC_OK;
1003:Drivers/BSP/Components/iis2dlpc/iis2dlpc.c **** }
1004:Drivers/BSP/Components/iis2dlpc/iis2dlpc.c **** 
1005:Drivers/BSP/Components/iis2dlpc/iis2dlpc.c **** /**
1006:Drivers/BSP/Components/iis2dlpc/iis2dlpc.c ****   * @brief  Set the IIS2DLPC accelerometer sensor output data rate when disabled
1007:Drivers/BSP/Components/iis2dlpc/iis2dlpc.c ****   * @param  pObj the device pObj
1008:Drivers/BSP/Components/iis2dlpc/iis2dlpc.c ****   * @param  Odr the functional output data rate to be set
1009:Drivers/BSP/Components/iis2dlpc/iis2dlpc.c ****   * @param  Mode the operating mode to be used
1010:Drivers/BSP/Components/iis2dlpc/iis2dlpc.c ****   * @param  Noise the low noise option
1011:Drivers/BSP/Components/iis2dlpc/iis2dlpc.c ****   * @retval 0 in case of success, an error code otherwise
1012:Drivers/BSP/Components/iis2dlpc/iis2dlpc.c ****   */
1013:Drivers/BSP/Components/iis2dlpc/iis2dlpc.c **** static int32_t IIS2DLPC_ACC_SetOutputDataRate_When_Disabled(IIS2DLPC_Object_t *pObj, float Odr,
1014:Drivers/BSP/Components/iis2dlpc/iis2dlpc.c ****                                                             IIS2DLPC_Operating_Mode_t Mode, IIS2DLP
1015:Drivers/BSP/Components/iis2dlpc/iis2dlpc.c **** {
  92              		.loc 1 1015 1 is_stmt 1 view -0
  93              		.cfi_startproc
  94              		@ args = 0, pretend = 0, frame = 0
  95              		@ frame_needed = 0, uses_anonymous_args = 0
  96              		@ link register save eliminated.
1016:Drivers/BSP/Components/iis2dlpc/iis2dlpc.c ****   /* Store the new Odr, Mode and Noise values */
1017:Drivers/BSP/Components/iis2dlpc/iis2dlpc.c ****   pObj->acc_operating_mode = Mode;
  97              		.loc 1 1017 3 view .LVU26
  98              		.loc 1 1017 28 is_stmt 0 view .LVU27
  99 0000 80F83810 		strb	r1, [r0, #56]
1018:Drivers/BSP/Components/iis2dlpc/iis2dlpc.c ****   pObj->acc_low_noise = Noise;
 100              		.loc 1 1018 3 is_stmt 1 view .LVU28
 101              		.loc 1 1018 23 is_stmt 0 view .LVU29
 102 0004 80F83920 		strb	r2, [r0, #57]
1019:Drivers/BSP/Components/iis2dlpc/iis2dlpc.c **** 
1020:Drivers/BSP/Components/iis2dlpc/iis2dlpc.c ****   pObj->acc_odr = (Odr <=    1.6f) ?    1.6f
 103              		.loc 1 1020 3 is_stmt 1 view .LVU30
1021:Drivers/BSP/Components/iis2dlpc/iis2dlpc.c ****                   : (Odr <=   12.5f) ?   12.5f
 104              		.loc 1 1021 19 is_stmt 0 view .LVU31
 105 0008 DFED267A 		vldr.32	s15, .L17
 106 000c B4EEE70A 		vcmpe.f32	s0, s15
 107 0010 F1EE10FA 		vmrs	APSR_nzcv, FPSCR
 108 0014 33D9     		bls	.L7
1022:Drivers/BSP/Components/iis2dlpc/iis2dlpc.c ****                   : (Odr <=   25.0f) ?   25.0f
 109              		.loc 1 1022 19 view .LVU32
 110 0016 F2EE097A 		vmov.f32	s15, #1.25e+1
 111 001a B4EEE70A 		vcmpe.f32	s0, s15
 112 001e F1EE10FA 		vmrs	APSR_nzcv, FPSCR
 113 0022 30D9     		bls	.L8
1023:Drivers/BSP/Components/iis2dlpc/iis2dlpc.c ****                   : (Odr <=   50.0f) ?   50.0f
 114              		.loc 1 1023 19 view .LVU33
 115 0024 F3EE097A 		vmov.f32	s15, #2.5e+1
 116 0028 B4EEE70A 		vcmpe.f32	s0, s15
 117 002c F1EE10FA 		vmrs	APSR_nzcv, FPSCR
 118 0030 2BD9     		bls	.L9
1024:Drivers/BSP/Components/iis2dlpc/iis2dlpc.c ****                   : (Odr <=  100.0f) ?  100.0f
 119              		.loc 1 1024 19 view .LVU34
ARM GAS  C:\Temp\ccFHAvpx.s 			page 21


 120 0032 DFED1D7A 		vldr.32	s15, .L17+4
 121 0036 B4EEE70A 		vcmpe.f32	s0, s15
 122 003a F1EE10FA 		vmrs	APSR_nzcv, FPSCR
 123 003e 26D9     		bls	.L10
1025:Drivers/BSP/Components/iis2dlpc/iis2dlpc.c ****                   : (Odr <=  200.0f) ?  200.0f
 124              		.loc 1 1025 19 view .LVU35
 125 0040 DFED1A7A 		vldr.32	s15, .L17+8
 126 0044 B4EEE70A 		vcmpe.f32	s0, s15
 127 0048 F1EE10FA 		vmrs	APSR_nzcv, FPSCR
 128 004c 21D9     		bls	.L11
1026:Drivers/BSP/Components/iis2dlpc/iis2dlpc.c ****                   : (Odr <=  400.0f) ?  400.0f
 129              		.loc 1 1026 19 view .LVU36
 130 004e DFED187A 		vldr.32	s15, .L17+12
 131 0052 B4EEE70A 		vcmpe.f32	s0, s15
 132 0056 F1EE10FA 		vmrs	APSR_nzcv, FPSCR
 133 005a 1CD9     		bls	.L12
1027:Drivers/BSP/Components/iis2dlpc/iis2dlpc.c ****                   : (Odr <=  800.0f) ?  800.0f
 134              		.loc 1 1027 19 view .LVU37
 135 005c DFED157A 		vldr.32	s15, .L17+16
 136 0060 B4EEE70A 		vcmpe.f32	s0, s15
 137 0064 F1EE10FA 		vmrs	APSR_nzcv, FPSCR
 138 0068 17D9     		bls	.L13
1028:Drivers/BSP/Components/iis2dlpc/iis2dlpc.c ****                   :                    1600.0f;
 139              		.loc 1 1028 19 view .LVU38
 140 006a DFED137A 		vldr.32	s15, .L17+20
 141 006e B4EEE70A 		vcmpe.f32	s0, s15
 142 0072 F1EE10FA 		vmrs	APSR_nzcv, FPSCR
 143 0076 12D8     		bhi	.L16
 144 0078 17EE903A 		vmov	r3, s15
 145 007c 00E0     		b	.L5
 146              	.L7:
1021:Drivers/BSP/Components/iis2dlpc/iis2dlpc.c ****                   : (Odr <=   25.0f) ?   25.0f
 147              		.loc 1 1021 19 view .LVU39
 148 007e 0F4B     		ldr	r3, .L17+24
 149              	.L5:
1020:Drivers/BSP/Components/iis2dlpc/iis2dlpc.c ****                   : (Odr <=   12.5f) ?   12.5f
 150              		.loc 1 1020 17 view .LVU40
 151 0080 4363     		str	r3, [r0, #52]	@ float
1029:Drivers/BSP/Components/iis2dlpc/iis2dlpc.c **** 
1030:Drivers/BSP/Components/iis2dlpc/iis2dlpc.c ****   return IIS2DLPC_OK;
 152              		.loc 1 1030 3 is_stmt 1 view .LVU41
1031:Drivers/BSP/Components/iis2dlpc/iis2dlpc.c **** }
 153              		.loc 1 1031 1 is_stmt 0 view .LVU42
 154 0082 0020     		movs	r0, #0
 155              	.LVL3:
 156              		.loc 1 1031 1 view .LVU43
 157 0084 7047     		bx	lr
 158              	.LVL4:
 159              	.L8:
1022:Drivers/BSP/Components/iis2dlpc/iis2dlpc.c ****                   : (Odr <=   50.0f) ?   50.0f
 160              		.loc 1 1022 19 view .LVU44
 161 0086 0E4B     		ldr	r3, .L17+28
 162 0088 FAE7     		b	.L5
 163              	.L9:
1023:Drivers/BSP/Components/iis2dlpc/iis2dlpc.c ****                   : (Odr <=  100.0f) ?  100.0f
 164              		.loc 1 1023 19 view .LVU45
 165 008a 0E4B     		ldr	r3, .L17+32
ARM GAS  C:\Temp\ccFHAvpx.s 			page 22


 166 008c F8E7     		b	.L5
 167              	.L10:
1024:Drivers/BSP/Components/iis2dlpc/iis2dlpc.c ****                   : (Odr <=  200.0f) ?  200.0f
 168              		.loc 1 1024 19 view .LVU46
 169 008e 0E4B     		ldr	r3, .L17+36
 170 0090 F6E7     		b	.L5
 171              	.L11:
1025:Drivers/BSP/Components/iis2dlpc/iis2dlpc.c ****                   : (Odr <=  400.0f) ?  400.0f
 172              		.loc 1 1025 19 view .LVU47
 173 0092 0E4B     		ldr	r3, .L17+40
 174 0094 F4E7     		b	.L5
 175              	.L12:
1026:Drivers/BSP/Components/iis2dlpc/iis2dlpc.c ****                   : (Odr <=  800.0f) ?  800.0f
 176              		.loc 1 1026 19 view .LVU48
 177 0096 0E4B     		ldr	r3, .L17+44
 178 0098 F2E7     		b	.L5
 179              	.L13:
1027:Drivers/BSP/Components/iis2dlpc/iis2dlpc.c ****                   :                    1600.0f;
 180              		.loc 1 1027 19 view .LVU49
 181 009a 0E4B     		ldr	r3, .L17+48
 182 009c F0E7     		b	.L5
 183              	.L16:
1028:Drivers/BSP/Components/iis2dlpc/iis2dlpc.c **** 
 184              		.loc 1 1028 19 view .LVU50
 185 009e 0E4B     		ldr	r3, .L17+52
 186 00a0 EEE7     		b	.L5
 187              	.L18:
 188 00a2 00BF     		.align	2
 189              	.L17:
 190 00a4 CDCCCC3F 		.word	1070386381
 191 00a8 00004842 		.word	1112014848
 192 00ac 0000C842 		.word	1120403456
 193 00b0 00004843 		.word	1128792064
 194 00b4 0000C843 		.word	1137180672
 195 00b8 00004844 		.word	1145569280
 196 00bc CDCCCC3F 		.word	1070386381
 197 00c0 00004841 		.word	1095237632
 198 00c4 0000C841 		.word	1103626240
 199 00c8 00004842 		.word	1112014848
 200 00cc 0000C842 		.word	1120403456
 201 00d0 00004843 		.word	1128792064
 202 00d4 0000C843 		.word	1137180672
 203 00d8 0000C844 		.word	1153957888
 204              		.cfi_endproc
 205              	.LFE19:
 207              		.section	.text.ReadRegWrap,"ax",%progbits
 208              		.align	1
 209              		.syntax unified
 210              		.thumb
 211              		.thumb_func
 213              	ReadRegWrap:
 214              	.LVL5:
 215              	.LFB20:
1032:Drivers/BSP/Components/iis2dlpc/iis2dlpc.c **** 
1033:Drivers/BSP/Components/iis2dlpc/iis2dlpc.c **** /**
1034:Drivers/BSP/Components/iis2dlpc/iis2dlpc.c ****   * @brief  Wrap Read register component function to Bus IO function
1035:Drivers/BSP/Components/iis2dlpc/iis2dlpc.c ****   * @param  Handle the device handler
ARM GAS  C:\Temp\ccFHAvpx.s 			page 23


1036:Drivers/BSP/Components/iis2dlpc/iis2dlpc.c ****   * @param  Reg the register address
1037:Drivers/BSP/Components/iis2dlpc/iis2dlpc.c ****   * @param  pData the stored data pointer
1038:Drivers/BSP/Components/iis2dlpc/iis2dlpc.c ****   * @param  Length the length
1039:Drivers/BSP/Components/iis2dlpc/iis2dlpc.c ****   * @retval 0 in case of success, an error code otherwise
1040:Drivers/BSP/Components/iis2dlpc/iis2dlpc.c ****   */
1041:Drivers/BSP/Components/iis2dlpc/iis2dlpc.c **** static int32_t ReadRegWrap(void *Handle, uint8_t Reg, uint8_t *pData, uint16_t Length)
1042:Drivers/BSP/Components/iis2dlpc/iis2dlpc.c **** {
 216              		.loc 1 1042 1 is_stmt 1 view -0
 217              		.cfi_startproc
 218              		@ args = 0, pretend = 0, frame = 0
 219              		@ frame_needed = 0, uses_anonymous_args = 0
 220              		.loc 1 1042 1 is_stmt 0 view .LVU52
 221 0000 10B5     		push	{r4, lr}
 222              		.cfi_def_cfa_offset 8
 223              		.cfi_offset 4, -8
 224              		.cfi_offset 14, -4
1043:Drivers/BSP/Components/iis2dlpc/iis2dlpc.c ****   IIS2DLPC_Object_t *pObj = (IIS2DLPC_Object_t *)Handle;
 225              		.loc 1 1043 3 is_stmt 1 view .LVU53
 226              	.LVL6:
1044:Drivers/BSP/Components/iis2dlpc/iis2dlpc.c **** 
1045:Drivers/BSP/Components/iis2dlpc/iis2dlpc.c ****   return pObj->IO.ReadReg(pObj->IO.Address, Reg, pData, Length);
 227              		.loc 1 1045 3 view .LVU54
 228              		.loc 1 1045 18 is_stmt 0 view .LVU55
 229 0002 4469     		ldr	r4, [r0, #20]
 230              		.loc 1 1045 10 view .LVU56
 231 0004 007B     		ldrb	r0, [r0, #12]	@ zero_extendqisi2
 232              	.LVL7:
 233              		.loc 1 1045 10 view .LVU57
 234 0006 A047     		blx	r4
 235              	.LVL8:
1046:Drivers/BSP/Components/iis2dlpc/iis2dlpc.c **** }
 236              		.loc 1 1046 1 view .LVU58
 237 0008 10BD     		pop	{r4, pc}
 238              		.cfi_endproc
 239              	.LFE20:
 241              		.section	.text.WriteRegWrap,"ax",%progbits
 242              		.align	1
 243              		.syntax unified
 244              		.thumb
 245              		.thumb_func
 247              	WriteRegWrap:
 248              	.LVL9:
 249              	.LFB21:
1047:Drivers/BSP/Components/iis2dlpc/iis2dlpc.c **** 
1048:Drivers/BSP/Components/iis2dlpc/iis2dlpc.c **** /**
1049:Drivers/BSP/Components/iis2dlpc/iis2dlpc.c ****   * @brief  Wrap Write register component function to Bus IO function
1050:Drivers/BSP/Components/iis2dlpc/iis2dlpc.c ****   * @param  Handle the device handler
1051:Drivers/BSP/Components/iis2dlpc/iis2dlpc.c ****   * @param  Reg the register address
1052:Drivers/BSP/Components/iis2dlpc/iis2dlpc.c ****   * @param  pData the stored data pointer
1053:Drivers/BSP/Components/iis2dlpc/iis2dlpc.c ****   * @param  Length the length
1054:Drivers/BSP/Components/iis2dlpc/iis2dlpc.c ****   * @retval 0 in case of success, an error code otherwise
1055:Drivers/BSP/Components/iis2dlpc/iis2dlpc.c ****   */
1056:Drivers/BSP/Components/iis2dlpc/iis2dlpc.c **** static int32_t WriteRegWrap(void *Handle, uint8_t Reg, uint8_t *pData, uint16_t Length)
1057:Drivers/BSP/Components/iis2dlpc/iis2dlpc.c **** {
 250              		.loc 1 1057 1 is_stmt 1 view -0
 251              		.cfi_startproc
 252              		@ args = 0, pretend = 0, frame = 0
ARM GAS  C:\Temp\ccFHAvpx.s 			page 24


 253              		@ frame_needed = 0, uses_anonymous_args = 0
 254              		.loc 1 1057 1 is_stmt 0 view .LVU60
 255 0000 10B5     		push	{r4, lr}
 256              		.cfi_def_cfa_offset 8
 257              		.cfi_offset 4, -8
 258              		.cfi_offset 14, -4
1058:Drivers/BSP/Components/iis2dlpc/iis2dlpc.c ****   IIS2DLPC_Object_t *pObj = (IIS2DLPC_Object_t *)Handle;
 259              		.loc 1 1058 3 is_stmt 1 view .LVU61
 260              	.LVL10:
1059:Drivers/BSP/Components/iis2dlpc/iis2dlpc.c **** 
1060:Drivers/BSP/Components/iis2dlpc/iis2dlpc.c ****   return pObj->IO.WriteReg(pObj->IO.Address, Reg, pData, Length);
 261              		.loc 1 1060 3 view .LVU62
 262              		.loc 1 1060 18 is_stmt 0 view .LVU63
 263 0002 0469     		ldr	r4, [r0, #16]
 264              		.loc 1 1060 10 view .LVU64
 265 0004 007B     		ldrb	r0, [r0, #12]	@ zero_extendqisi2
 266              	.LVL11:
 267              		.loc 1 1060 10 view .LVU65
 268 0006 A047     		blx	r4
 269              	.LVL12:
1061:Drivers/BSP/Components/iis2dlpc/iis2dlpc.c **** }
 270              		.loc 1 1061 1 view .LVU66
 271 0008 10BD     		pop	{r4, pc}
 272              		.cfi_endproc
 273              	.LFE21:
 275              		.section	.text.IIS2DLPC_ACC_SetOutputDataRate_When_Enabled,"ax",%progbits
 276              		.align	1
 277              		.syntax unified
 278              		.thumb
 279              		.thumb_func
 281              	IIS2DLPC_ACC_SetOutputDataRate_When_Enabled:
 282              	.LVL13:
 283              	.LFB18:
 876:Drivers/BSP/Components/iis2dlpc/iis2dlpc.c ****   iis2dlpc_odr_t new_odr;
 284              		.loc 1 876 1 is_stmt 1 view -0
 285              		.cfi_startproc
 286              		@ args = 0, pretend = 0, frame = 0
 287              		@ frame_needed = 0, uses_anonymous_args = 0
 876:Drivers/BSP/Components/iis2dlpc/iis2dlpc.c ****   iis2dlpc_odr_t new_odr;
 288              		.loc 1 876 1 is_stmt 0 view .LVU68
 289 0000 2DE9F041 		push	{r4, r5, r6, r7, r8, lr}
 290              		.cfi_def_cfa_offset 24
 291              		.cfi_offset 4, -24
 292              		.cfi_offset 5, -20
 293              		.cfi_offset 6, -16
 294              		.cfi_offset 7, -12
 295              		.cfi_offset 8, -8
 296              		.cfi_offset 14, -4
 297 0004 2DED028B 		vpush.64	{d8}
 298              		.cfi_def_cfa_offset 32
 299              		.cfi_offset 80, -32
 300              		.cfi_offset 81, -28
 301 0008 0446     		mov	r4, r0
 302 000a B0EE408A 		vmov.f32	s16, s0
 303 000e 0D46     		mov	r5, r1
 304 0010 1646     		mov	r6, r2
 877:Drivers/BSP/Components/iis2dlpc/iis2dlpc.c ****   iis2dlpc_mode_t new_power_mode;
ARM GAS  C:\Temp\ccFHAvpx.s 			page 25


 305              		.loc 1 877 3 is_stmt 1 view .LVU69
 878:Drivers/BSP/Components/iis2dlpc/iis2dlpc.c **** 
 306              		.loc 1 878 3 view .LVU70
 880:Drivers/BSP/Components/iis2dlpc/iis2dlpc.c ****   {
 307              		.loc 1 880 3 view .LVU71
 308 0012 4B1E     		subs	r3, r1, #1
 309 0014 032B     		cmp	r3, #3
 310 0016 03D8     		bhi	.L24
 311 0018 DFE803F0 		tbb	[pc, r3]
 312              	.LVL14:
 313              	.L26:
 314 001c 13       		.byte	(.L29-.L26)/2
 315 001d 5B       		.byte	(.L28-.L26)/2
 316 001e 6B       		.byte	(.L27-.L26)/2
 317 001f 7C       		.byte	(.L25-.L26)/2
 318              		.p2align 1
 319              	.L24:
 884:Drivers/BSP/Components/iis2dlpc/iis2dlpc.c ****       {
 320              		.loc 1 884 7 view .LVU72
 321 0020 012E     		cmp	r6, #1
 322 0022 0BD0     		beq	.L39
 888:Drivers/BSP/Components/iis2dlpc/iis2dlpc.c ****           break;
 323              		.loc 1 888 26 is_stmt 0 view .LVU73
 324 0024 4FF00408 		mov	r8, #4
 325              	.L30:
 326              	.LVL15:
 896:Drivers/BSP/Components/iis2dlpc/iis2dlpc.c ****       {
 327              		.loc 1 896 7 is_stmt 1 view .LVU74
 896:Drivers/BSP/Components/iis2dlpc/iis2dlpc.c ****       {
 328              		.loc 1 896 10 is_stmt 0 view .LVU75
 329 0028 F2EE097A 		vmov.f32	s15, #1.25e+1
 330 002c B4EEE78A 		vcmpe.f32	s16, s15
 331 0030 F1EE10FA 		vmrs	APSR_nzcv, FPSCR
 332 0034 10D5     		bpl	.L31
 898:Drivers/BSP/Components/iis2dlpc/iis2dlpc.c ****       }
 333              		.loc 1 898 13 view .LVU76
 334 0036 B2EE098A 		vmov.f32	s16, #1.25e+1
 335 003a 0DE0     		b	.L31
 336              	.LVL16:
 337              	.L39:
 891:Drivers/BSP/Components/iis2dlpc/iis2dlpc.c ****           break;
 338              		.loc 1 891 26 view .LVU77
 339 003c 4FF01408 		mov	r8, #20
 340 0040 F2E7     		b	.L30
 341              	.L29:
 902:Drivers/BSP/Components/iis2dlpc/iis2dlpc.c ****       {
 342              		.loc 1 902 7 is_stmt 1 view .LVU78
 343 0042 012E     		cmp	r6, #1
 344 0044 42D0     		beq	.L41
 906:Drivers/BSP/Components/iis2dlpc/iis2dlpc.c ****           break;
 345              		.loc 1 906 26 is_stmt 0 view .LVU79
 346 0046 4FF00308 		mov	r8, #3
 347              	.L32:
 348              	.LVL17:
 914:Drivers/BSP/Components/iis2dlpc/iis2dlpc.c ****       {
 349              		.loc 1 914 7 is_stmt 1 view .LVU80
 914:Drivers/BSP/Components/iis2dlpc/iis2dlpc.c ****       {
ARM GAS  C:\Temp\ccFHAvpx.s 			page 26


 350              		.loc 1 914 10 is_stmt 0 view .LVU81
 351 004a DFED517A 		vldr.32	s15, .L62
 352 004e B4EEE78A 		vcmpe.f32	s16, s15
 353 0052 F1EE10FA 		vmrs	APSR_nzcv, FPSCR
 354 0056 6EDC     		bgt	.L42
 355              	.L31:
 356              	.LVL18:
 975:Drivers/BSP/Components/iis2dlpc/iis2dlpc.c ****             : (Odr <=   12.5f) ? IIS2DLPC_XL_ODR_12Hz5
 357              		.loc 1 975 3 is_stmt 1 view .LVU82
 976:Drivers/BSP/Components/iis2dlpc/iis2dlpc.c ****             : (Odr <=   25.0f) ? IIS2DLPC_XL_ODR_25Hz
 358              		.loc 1 976 13 is_stmt 0 view .LVU83
 359 0058 DFED4E7A 		vldr.32	s15, .L62+4
 360 005c B4EEE78A 		vcmpe.f32	s16, s15
 361 0060 F1EE10FA 		vmrs	APSR_nzcv, FPSCR
 362 0064 6AD9     		bls	.L49
 976:Drivers/BSP/Components/iis2dlpc/iis2dlpc.c ****             : (Odr <=   25.0f) ? IIS2DLPC_XL_ODR_25Hz
 363              		.loc 1 976 13 discriminator 2 view .LVU84
 364 0066 F2EE097A 		vmov.f32	s15, #1.25e+1
 365 006a B4EEE78A 		vcmpe.f32	s16, s15
 366 006e F1EE10FA 		vmrs	APSR_nzcv, FPSCR
 367 0072 79D9     		bls	.L50
 976:Drivers/BSP/Components/iis2dlpc/iis2dlpc.c ****             : (Odr <=   25.0f) ? IIS2DLPC_XL_ODR_25Hz
 368              		.loc 1 976 13 discriminator 4 view .LVU85
 369 0074 F3EE097A 		vmov.f32	s15, #2.5e+1
 370 0078 B4EEE78A 		vcmpe.f32	s16, s15
 371 007c F1EE10FA 		vmrs	APSR_nzcv, FPSCR
 372 0080 74D9     		bls	.L51
 976:Drivers/BSP/Components/iis2dlpc/iis2dlpc.c ****             : (Odr <=   25.0f) ? IIS2DLPC_XL_ODR_25Hz
 373              		.loc 1 976 13 discriminator 7 view .LVU86
 374 0082 DFED457A 		vldr.32	s15, .L62+8
 375 0086 B4EEE78A 		vcmpe.f32	s16, s15
 376 008a F1EE10FA 		vmrs	APSR_nzcv, FPSCR
 377 008e 6FD9     		bls	.L52
 976:Drivers/BSP/Components/iis2dlpc/iis2dlpc.c ****             : (Odr <=   25.0f) ? IIS2DLPC_XL_ODR_25Hz
 378              		.loc 1 976 13 discriminator 10 view .LVU87
 379 0090 DFED427A 		vldr.32	s15, .L62+12
 380 0094 B4EEE78A 		vcmpe.f32	s16, s15
 381 0098 F1EE10FA 		vmrs	APSR_nzcv, FPSCR
 382 009c 6AD9     		bls	.L53
 976:Drivers/BSP/Components/iis2dlpc/iis2dlpc.c ****             : (Odr <=   25.0f) ? IIS2DLPC_XL_ODR_25Hz
 383              		.loc 1 976 13 discriminator 13 view .LVU88
 384 009e DFED3C7A 		vldr.32	s15, .L62
 385 00a2 B4EEE78A 		vcmpe.f32	s16, s15
 386 00a6 F1EE10FA 		vmrs	APSR_nzcv, FPSCR
 387 00aa 65D9     		bls	.L54
 976:Drivers/BSP/Components/iis2dlpc/iis2dlpc.c ****             : (Odr <=   25.0f) ? IIS2DLPC_XL_ODR_25Hz
 388              		.loc 1 976 13 discriminator 16 view .LVU89
 389 00ac DFED3C7A 		vldr.32	s15, .L62+16
 390 00b0 B4EEE78A 		vcmpe.f32	s16, s15
 391 00b4 F1EE10FA 		vmrs	APSR_nzcv, FPSCR
 392 00b8 60D9     		bls	.L55
 976:Drivers/BSP/Components/iis2dlpc/iis2dlpc.c ****             : (Odr <=   25.0f) ? IIS2DLPC_XL_ODR_25Hz
 393              		.loc 1 976 13 discriminator 19 view .LVU90
 394 00ba DFED3A7A 		vldr.32	s15, .L62+20
 395 00be B4EEE78A 		vcmpe.f32	s16, s15
 396 00c2 F1EE10FA 		vmrs	APSR_nzcv, FPSCR
 397 00c6 5BD8     		bhi	.L60
ARM GAS  C:\Temp\ccFHAvpx.s 			page 27


 976:Drivers/BSP/Components/iis2dlpc/iis2dlpc.c ****             : (Odr <=   25.0f) ? IIS2DLPC_XL_ODR_25Hz
 398              		.loc 1 976 13 view .LVU91
 399 00c8 0821     		movs	r1, #8
 400              	.LVL19:
 976:Drivers/BSP/Components/iis2dlpc/iis2dlpc.c ****             : (Odr <=   25.0f) ? IIS2DLPC_XL_ODR_25Hz
 401              		.loc 1 976 13 view .LVU92
 402 00ca 38E0     		b	.L36
 403              	.LVL20:
 404              	.L41:
 909:Drivers/BSP/Components/iis2dlpc/iis2dlpc.c ****           break;
 405              		.loc 1 909 26 view .LVU93
 406 00cc 4FF01308 		mov	r8, #19
 407 00d0 BBE7     		b	.L32
 408              	.L28:
 920:Drivers/BSP/Components/iis2dlpc/iis2dlpc.c ****       {
 409              		.loc 1 920 7 is_stmt 1 view .LVU94
 410 00d2 012E     		cmp	r6, #1
 411 00d4 0AD0     		beq	.L43
 924:Drivers/BSP/Components/iis2dlpc/iis2dlpc.c ****           break;
 412              		.loc 1 924 26 is_stmt 0 view .LVU95
 413 00d6 8846     		mov	r8, r1
 414              	.L33:
 415              	.LVL21:
 932:Drivers/BSP/Components/iis2dlpc/iis2dlpc.c ****       {
 416              		.loc 1 932 7 is_stmt 1 view .LVU96
 932:Drivers/BSP/Components/iis2dlpc/iis2dlpc.c ****       {
 417              		.loc 1 932 10 is_stmt 0 view .LVU97
 418 00d8 DFED2D7A 		vldr.32	s15, .L62
 419 00dc B4EEE78A 		vcmpe.f32	s16, s15
 420 00e0 F1EE10FA 		vmrs	APSR_nzcv, FPSCR
 421 00e4 B8DD     		ble	.L31
 934:Drivers/BSP/Components/iis2dlpc/iis2dlpc.c ****       }
 422              		.loc 1 934 13 view .LVU98
 423 00e6 9FED2A8A 		vldr.32	s16, .L62
 424 00ea B5E7     		b	.L31
 425              	.LVL22:
 426              	.L43:
 927:Drivers/BSP/Components/iis2dlpc/iis2dlpc.c ****           break;
 427              		.loc 1 927 26 view .LVU99
 428 00ec 4FF01208 		mov	r8, #18
 429 00f0 F2E7     		b	.L33
 430              	.L27:
 938:Drivers/BSP/Components/iis2dlpc/iis2dlpc.c ****       {
 431              		.loc 1 938 7 is_stmt 1 view .LVU100
 432 00f2 012E     		cmp	r6, #1
 433 00f4 0BD0     		beq	.L45
 942:Drivers/BSP/Components/iis2dlpc/iis2dlpc.c ****           break;
 434              		.loc 1 942 26 is_stmt 0 view .LVU101
 435 00f6 4FF00108 		mov	r8, #1
 436              	.L34:
 437              	.LVL23:
 950:Drivers/BSP/Components/iis2dlpc/iis2dlpc.c ****       {
 438              		.loc 1 950 7 is_stmt 1 view .LVU102
 950:Drivers/BSP/Components/iis2dlpc/iis2dlpc.c ****       {
 439              		.loc 1 950 10 is_stmt 0 view .LVU103
 440 00fa DFED257A 		vldr.32	s15, .L62
 441 00fe B4EEE78A 		vcmpe.f32	s16, s15
ARM GAS  C:\Temp\ccFHAvpx.s 			page 28


 442 0102 F1EE10FA 		vmrs	APSR_nzcv, FPSCR
 443 0106 A7DD     		ble	.L31
 952:Drivers/BSP/Components/iis2dlpc/iis2dlpc.c ****       }
 444              		.loc 1 952 13 view .LVU104
 445 0108 9FED218A 		vldr.32	s16, .L62
 446 010c A4E7     		b	.L31
 447              	.LVL24:
 448              	.L45:
 945:Drivers/BSP/Components/iis2dlpc/iis2dlpc.c ****           break;
 449              		.loc 1 945 26 view .LVU105
 450 010e 4FF01108 		mov	r8, #17
 451 0112 F2E7     		b	.L34
 452              	.L25:
 956:Drivers/BSP/Components/iis2dlpc/iis2dlpc.c ****       {
 453              		.loc 1 956 7 is_stmt 1 view .LVU106
 454 0114 012E     		cmp	r6, #1
 455 0116 0BD0     		beq	.L47
 960:Drivers/BSP/Components/iis2dlpc/iis2dlpc.c ****           break;
 456              		.loc 1 960 26 is_stmt 0 view .LVU107
 457 0118 4FF00008 		mov	r8, #0
 458              	.L35:
 459              	.LVL25:
 968:Drivers/BSP/Components/iis2dlpc/iis2dlpc.c ****       {
 460              		.loc 1 968 7 is_stmt 1 view .LVU108
 968:Drivers/BSP/Components/iis2dlpc/iis2dlpc.c ****       {
 461              		.loc 1 968 10 is_stmt 0 view .LVU109
 462 011c DFED1C7A 		vldr.32	s15, .L62
 463 0120 B4EEE78A 		vcmpe.f32	s16, s15
 464 0124 F1EE10FA 		vmrs	APSR_nzcv, FPSCR
 465 0128 96DD     		ble	.L31
 970:Drivers/BSP/Components/iis2dlpc/iis2dlpc.c ****       }
 466              		.loc 1 970 13 view .LVU110
 467 012a 9FED198A 		vldr.32	s16, .L62
 468 012e 93E7     		b	.L31
 469              	.LVL26:
 470              	.L47:
 963:Drivers/BSP/Components/iis2dlpc/iis2dlpc.c ****           break;
 471              		.loc 1 963 26 view .LVU111
 472 0130 4FF01008 		mov	r8, #16
 473 0134 F2E7     		b	.L35
 474              	.LVL27:
 475              	.L42:
 916:Drivers/BSP/Components/iis2dlpc/iis2dlpc.c ****       }
 476              		.loc 1 916 13 view .LVU112
 477 0136 9FED168A 		vldr.32	s16, .L62
 478 013a 8DE7     		b	.L31
 479              	.LVL28:
 480              	.L49:
 976:Drivers/BSP/Components/iis2dlpc/iis2dlpc.c ****             : (Odr <=   25.0f) ? IIS2DLPC_XL_ODR_25Hz
 481              		.loc 1 976 13 view .LVU113
 482 013c 0121     		movs	r1, #1
 483              	.LVL29:
 484              	.L36:
 986:Drivers/BSP/Components/iis2dlpc/iis2dlpc.c ****   {
 485              		.loc 1 986 3 is_stmt 1 view .LVU114
 986:Drivers/BSP/Components/iis2dlpc/iis2dlpc.c ****   {
 486              		.loc 1 986 7 is_stmt 0 view .LVU115
ARM GAS  C:\Temp\ccFHAvpx.s 			page 29


 487 013e 04F12007 		add	r7, r4, #32
 488 0142 3846     		mov	r0, r7
 489              	.LVL30:
 986:Drivers/BSP/Components/iis2dlpc/iis2dlpc.c ****   {
 490              		.loc 1 986 7 view .LVU116
 491 0144 FFF7FEFF 		bl	iis2dlpc_data_rate_set
 492              	.LVL31:
 986:Drivers/BSP/Components/iis2dlpc/iis2dlpc.c ****   {
 493              		.loc 1 986 6 view .LVU117
 494 0148 E0B9     		cbnz	r0, .L57
 992:Drivers/BSP/Components/iis2dlpc/iis2dlpc.c ****   {
 495              		.loc 1 992 3 is_stmt 1 view .LVU118
 992:Drivers/BSP/Components/iis2dlpc/iis2dlpc.c ****   {
 496              		.loc 1 992 7 is_stmt 0 view .LVU119
 497 014a 4146     		mov	r1, r8
 498 014c 3846     		mov	r0, r7
 499 014e FFF7FEFF 		bl	iis2dlpc_power_mode_set
 500              	.LVL32:
 992:Drivers/BSP/Components/iis2dlpc/iis2dlpc.c ****   {
 501              		.loc 1 992 6 view .LVU120
 502 0152 D0B9     		cbnz	r0, .L58
 998:Drivers/BSP/Components/iis2dlpc/iis2dlpc.c ****   pObj->acc_operating_mode = Mode;
 503              		.loc 1 998 3 is_stmt 1 view .LVU121
 998:Drivers/BSP/Components/iis2dlpc/iis2dlpc.c ****   pObj->acc_operating_mode = Mode;
 504              		.loc 1 998 17 is_stmt 0 view .LVU122
 505 0154 84ED0D8A 		vstr.32	s16, [r4, #52]
 999:Drivers/BSP/Components/iis2dlpc/iis2dlpc.c ****   pObj->acc_low_noise = Noise;
 506              		.loc 1 999 3 is_stmt 1 view .LVU123
 999:Drivers/BSP/Components/iis2dlpc/iis2dlpc.c ****   pObj->acc_low_noise = Noise;
 507              		.loc 1 999 28 is_stmt 0 view .LVU124
 508 0158 84F83850 		strb	r5, [r4, #56]
1000:Drivers/BSP/Components/iis2dlpc/iis2dlpc.c **** 
 509              		.loc 1 1000 3 is_stmt 1 view .LVU125
1000:Drivers/BSP/Components/iis2dlpc/iis2dlpc.c **** 
 510              		.loc 1 1000 23 is_stmt 0 view .LVU126
 511 015c 84F83960 		strb	r6, [r4, #57]
1002:Drivers/BSP/Components/iis2dlpc/iis2dlpc.c **** }
 512              		.loc 1 1002 3 is_stmt 1 view .LVU127
 513              	.L23:
1003:Drivers/BSP/Components/iis2dlpc/iis2dlpc.c **** 
 514              		.loc 1 1003 1 is_stmt 0 view .LVU128
 515 0160 BDEC028B 		vldm	sp!, {d8}
 516              		.cfi_remember_state
 517              		.cfi_restore 80
 518              		.cfi_restore 81
 519              		.cfi_def_cfa_offset 24
 520              	.LVL33:
1003:Drivers/BSP/Components/iis2dlpc/iis2dlpc.c **** 
 521              		.loc 1 1003 1 view .LVU129
 522 0164 BDE8F081 		pop	{r4, r5, r6, r7, r8, pc}
 523              	.LVL34:
 524              	.L50:
 525              		.cfi_restore_state
 976:Drivers/BSP/Components/iis2dlpc/iis2dlpc.c ****             : (Odr <=   25.0f) ? IIS2DLPC_XL_ODR_25Hz
 526              		.loc 1 976 13 view .LVU130
 527 0168 0221     		movs	r1, #2
 528              	.LVL35:
ARM GAS  C:\Temp\ccFHAvpx.s 			page 30


 976:Drivers/BSP/Components/iis2dlpc/iis2dlpc.c ****             : (Odr <=   25.0f) ? IIS2DLPC_XL_ODR_25Hz
 529              		.loc 1 976 13 view .LVU131
 530 016a E8E7     		b	.L36
 531              	.LVL36:
 532              	.L51:
 976:Drivers/BSP/Components/iis2dlpc/iis2dlpc.c ****             : (Odr <=   25.0f) ? IIS2DLPC_XL_ODR_25Hz
 533              		.loc 1 976 13 view .LVU132
 534 016c 0321     		movs	r1, #3
 535              	.LVL37:
 976:Drivers/BSP/Components/iis2dlpc/iis2dlpc.c ****             : (Odr <=   25.0f) ? IIS2DLPC_XL_ODR_25Hz
 536              		.loc 1 976 13 view .LVU133
 537 016e E6E7     		b	.L36
 538              	.LVL38:
 539              	.L52:
 976:Drivers/BSP/Components/iis2dlpc/iis2dlpc.c ****             : (Odr <=   25.0f) ? IIS2DLPC_XL_ODR_25Hz
 540              		.loc 1 976 13 view .LVU134
 541 0170 0421     		movs	r1, #4
 542              	.LVL39:
 976:Drivers/BSP/Components/iis2dlpc/iis2dlpc.c ****             : (Odr <=   25.0f) ? IIS2DLPC_XL_ODR_25Hz
 543              		.loc 1 976 13 view .LVU135
 544 0172 E4E7     		b	.L36
 545              	.LVL40:
 546              	.L53:
 976:Drivers/BSP/Components/iis2dlpc/iis2dlpc.c ****             : (Odr <=   25.0f) ? IIS2DLPC_XL_ODR_25Hz
 547              		.loc 1 976 13 view .LVU136
 548 0174 0521     		movs	r1, #5
 549              	.LVL41:
 976:Drivers/BSP/Components/iis2dlpc/iis2dlpc.c ****             : (Odr <=   25.0f) ? IIS2DLPC_XL_ODR_25Hz
 550              		.loc 1 976 13 view .LVU137
 551 0176 E2E7     		b	.L36
 552              	.LVL42:
 553              	.L54:
 976:Drivers/BSP/Components/iis2dlpc/iis2dlpc.c ****             : (Odr <=   25.0f) ? IIS2DLPC_XL_ODR_25Hz
 554              		.loc 1 976 13 view .LVU138
 555 0178 0621     		movs	r1, #6
 556              	.LVL43:
 976:Drivers/BSP/Components/iis2dlpc/iis2dlpc.c ****             : (Odr <=   25.0f) ? IIS2DLPC_XL_ODR_25Hz
 557              		.loc 1 976 13 view .LVU139
 558 017a E0E7     		b	.L36
 559              	.LVL44:
 560              	.L55:
 976:Drivers/BSP/Components/iis2dlpc/iis2dlpc.c ****             : (Odr <=   25.0f) ? IIS2DLPC_XL_ODR_25Hz
 561              		.loc 1 976 13 view .LVU140
 562 017c 0721     		movs	r1, #7
 563              	.LVL45:
 976:Drivers/BSP/Components/iis2dlpc/iis2dlpc.c ****             : (Odr <=   25.0f) ? IIS2DLPC_XL_ODR_25Hz
 564              		.loc 1 976 13 view .LVU141
 565 017e DEE7     		b	.L36
 566              	.LVL46:
 567              	.L60:
 976:Drivers/BSP/Components/iis2dlpc/iis2dlpc.c ****             : (Odr <=   25.0f) ? IIS2DLPC_XL_ODR_25Hz
 568              		.loc 1 976 13 view .LVU142
 569 0180 0921     		movs	r1, #9
 570              	.LVL47:
 976:Drivers/BSP/Components/iis2dlpc/iis2dlpc.c ****             : (Odr <=   25.0f) ? IIS2DLPC_XL_ODR_25Hz
 571              		.loc 1 976 13 view .LVU143
 572 0182 DCE7     		b	.L36
ARM GAS  C:\Temp\ccFHAvpx.s 			page 31


 573              	.LVL48:
 574              	.L57:
 988:Drivers/BSP/Components/iis2dlpc/iis2dlpc.c ****   }
 575              		.loc 1 988 12 view .LVU144
 576 0184 4FF0FF30 		mov	r0, #-1
 577 0188 EAE7     		b	.L23
 578              	.L58:
 994:Drivers/BSP/Components/iis2dlpc/iis2dlpc.c ****   }
 579              		.loc 1 994 12 view .LVU145
 580 018a 4FF0FF30 		mov	r0, #-1
 581 018e E7E7     		b	.L23
 582              	.L63:
 583              		.align	2
 584              	.L62:
 585 0190 00004843 		.word	1128792064
 586 0194 CDCCCC3F 		.word	1070386381
 587 0198 00004842 		.word	1112014848
 588 019c 0000C842 		.word	1120403456
 589 01a0 0000C843 		.word	1137180672
 590 01a4 00004844 		.word	1145569280
 591              		.cfi_endproc
 592              	.LFE18:
 594              		.section	.text.IIS2DLPC_ACC_Enable,"ax",%progbits
 595              		.align	1
 596              		.global	IIS2DLPC_ACC_Enable
 597              		.syntax unified
 598              		.thumb
 599              		.thumb_func
 601              	IIS2DLPC_ACC_Enable:
 602              	.LVL49:
 603              	.LFB5:
 267:Drivers/BSP/Components/iis2dlpc/iis2dlpc.c ****   /* Check if the component is already enabled */
 604              		.loc 1 267 1 is_stmt 1 view -0
 605              		.cfi_startproc
 606              		@ args = 0, pretend = 0, frame = 0
 607              		@ frame_needed = 0, uses_anonymous_args = 0
 269:Drivers/BSP/Components/iis2dlpc/iis2dlpc.c ****   {
 608              		.loc 1 269 3 view .LVU147
 269:Drivers/BSP/Components/iis2dlpc/iis2dlpc.c ****   {
 609              		.loc 1 269 11 is_stmt 0 view .LVU148
 610 0000 90F83130 		ldrb	r3, [r0, #49]	@ zero_extendqisi2
 269:Drivers/BSP/Components/iis2dlpc/iis2dlpc.c ****   {
 611              		.loc 1 269 6 view .LVU149
 612 0004 012B     		cmp	r3, #1
 613 0006 0ED0     		beq	.L66
 267:Drivers/BSP/Components/iis2dlpc/iis2dlpc.c ****   /* Check if the component is already enabled */
 614              		.loc 1 267 1 view .LVU150
 615 0008 10B5     		push	{r4, lr}
 616              		.cfi_def_cfa_offset 8
 617              		.cfi_offset 4, -8
 618              		.cfi_offset 14, -4
 619 000a 0446     		mov	r4, r0
 275:Drivers/BSP/Components/iis2dlpc/iis2dlpc.c ****                                                   pObj->acc_low_noise) != IIS2DLPC_OK)
 620              		.loc 1 275 3 is_stmt 1 view .LVU151
 275:Drivers/BSP/Components/iis2dlpc/iis2dlpc.c ****                                                   pObj->acc_low_noise) != IIS2DLPC_OK)
 621              		.loc 1 275 7 is_stmt 0 view .LVU152
 622 000c 90F83920 		ldrb	r2, [r0, #57]	@ zero_extendqisi2
ARM GAS  C:\Temp\ccFHAvpx.s 			page 32


 623 0010 90F83810 		ldrb	r1, [r0, #56]	@ zero_extendqisi2
 624 0014 90ED0D0A 		vldr.32	s0, [r0, #52]
 625 0018 FFF7FEFF 		bl	IIS2DLPC_ACC_SetOutputDataRate_When_Enabled
 626              	.LVL50:
 275:Drivers/BSP/Components/iis2dlpc/iis2dlpc.c ****                                                   pObj->acc_low_noise) != IIS2DLPC_OK)
 627              		.loc 1 275 6 view .LVU153
 628 001c 28B9     		cbnz	r0, .L67
 281:Drivers/BSP/Components/iis2dlpc/iis2dlpc.c **** 
 629              		.loc 1 281 3 is_stmt 1 view .LVU154
 281:Drivers/BSP/Components/iis2dlpc/iis2dlpc.c **** 
 630              		.loc 1 281 24 is_stmt 0 view .LVU155
 631 001e 0123     		movs	r3, #1
 632 0020 84F83130 		strb	r3, [r4, #49]
 283:Drivers/BSP/Components/iis2dlpc/iis2dlpc.c **** }
 633              		.loc 1 283 3 is_stmt 1 view .LVU156
 634              	.L64:
 284:Drivers/BSP/Components/iis2dlpc/iis2dlpc.c **** 
 635              		.loc 1 284 1 is_stmt 0 view .LVU157
 636 0024 10BD     		pop	{r4, pc}
 637              	.LVL51:
 638              	.L66:
 639              		.cfi_def_cfa_offset 0
 640              		.cfi_restore 4
 641              		.cfi_restore 14
 271:Drivers/BSP/Components/iis2dlpc/iis2dlpc.c ****   }
 642              		.loc 1 271 12 view .LVU158
 643 0026 0020     		movs	r0, #0
 644              	.LVL52:
 284:Drivers/BSP/Components/iis2dlpc/iis2dlpc.c **** 
 645              		.loc 1 284 1 view .LVU159
 646 0028 7047     		bx	lr
 647              	.LVL53:
 648              	.L67:
 649              		.cfi_def_cfa_offset 8
 650              		.cfi_offset 4, -8
 651              		.cfi_offset 14, -4
 278:Drivers/BSP/Components/iis2dlpc/iis2dlpc.c ****   }
 652              		.loc 1 278 12 view .LVU160
 653 002a 4FF0FF30 		mov	r0, #-1
 654 002e F9E7     		b	.L64
 655              		.cfi_endproc
 656              	.LFE5:
 658              		.section	.text.IIS2DLPC_ACC_Disable,"ax",%progbits
 659              		.align	1
 660              		.global	IIS2DLPC_ACC_Disable
 661              		.syntax unified
 662              		.thumb
 663              		.thumb_func
 665              	IIS2DLPC_ACC_Disable:
 666              	.LVL54:
 667              	.LFB6:
 292:Drivers/BSP/Components/iis2dlpc/iis2dlpc.c ****   /* Check if the component is already disabled */
 668              		.loc 1 292 1 is_stmt 1 view -0
 669              		.cfi_startproc
 670              		@ args = 0, pretend = 0, frame = 0
 671              		@ frame_needed = 0, uses_anonymous_args = 0
 294:Drivers/BSP/Components/iis2dlpc/iis2dlpc.c ****   {
ARM GAS  C:\Temp\ccFHAvpx.s 			page 33


 672              		.loc 1 294 3 view .LVU162
 294:Drivers/BSP/Components/iis2dlpc/iis2dlpc.c ****   {
 673              		.loc 1 294 11 is_stmt 0 view .LVU163
 674 0000 90F83130 		ldrb	r3, [r0, #49]	@ zero_extendqisi2
 294:Drivers/BSP/Components/iis2dlpc/iis2dlpc.c ****   {
 675              		.loc 1 294 6 view .LVU164
 676 0004 0BB9     		cbnz	r3, .L80
 296:Drivers/BSP/Components/iis2dlpc/iis2dlpc.c ****   }
 677              		.loc 1 296 12 view .LVU165
 678 0006 0020     		movs	r0, #0
 679              	.LVL55:
 308:Drivers/BSP/Components/iis2dlpc/iis2dlpc.c **** 
 680              		.loc 1 308 1 view .LVU166
 681 0008 7047     		bx	lr
 682              	.LVL56:
 683              	.L80:
 292:Drivers/BSP/Components/iis2dlpc/iis2dlpc.c ****   /* Check if the component is already disabled */
 684              		.loc 1 292 1 view .LVU167
 685 000a 10B5     		push	{r4, lr}
 686              		.cfi_def_cfa_offset 8
 687              		.cfi_offset 4, -8
 688              		.cfi_offset 14, -4
 689 000c 0446     		mov	r4, r0
 300:Drivers/BSP/Components/iis2dlpc/iis2dlpc.c ****   {
 690              		.loc 1 300 3 is_stmt 1 view .LVU168
 300:Drivers/BSP/Components/iis2dlpc/iis2dlpc.c ****   {
 691              		.loc 1 300 7 is_stmt 0 view .LVU169
 692 000e 0021     		movs	r1, #0
 693 0010 2030     		adds	r0, r0, #32
 694              	.LVL57:
 300:Drivers/BSP/Components/iis2dlpc/iis2dlpc.c ****   {
 695              		.loc 1 300 7 view .LVU170
 696 0012 FFF7FEFF 		bl	iis2dlpc_data_rate_set
 697              	.LVL58:
 300:Drivers/BSP/Components/iis2dlpc/iis2dlpc.c ****   {
 698              		.loc 1 300 6 view .LVU171
 699 0016 10B9     		cbnz	r0, .L75
 305:Drivers/BSP/Components/iis2dlpc/iis2dlpc.c **** 
 700              		.loc 1 305 3 is_stmt 1 view .LVU172
 305:Drivers/BSP/Components/iis2dlpc/iis2dlpc.c **** 
 701              		.loc 1 305 24 is_stmt 0 view .LVU173
 702 0018 84F83100 		strb	r0, [r4, #49]
 307:Drivers/BSP/Components/iis2dlpc/iis2dlpc.c **** }
 703              		.loc 1 307 3 is_stmt 1 view .LVU174
 704              	.L72:
 308:Drivers/BSP/Components/iis2dlpc/iis2dlpc.c **** 
 705              		.loc 1 308 1 is_stmt 0 view .LVU175
 706 001c 10BD     		pop	{r4, pc}
 707              	.LVL59:
 708              	.L75:
 302:Drivers/BSP/Components/iis2dlpc/iis2dlpc.c ****   }
 709              		.loc 1 302 12 view .LVU176
 710 001e 4FF0FF30 		mov	r0, #-1
 711 0022 FBE7     		b	.L72
 712              		.cfi_endproc
 713              	.LFE6:
 715              		.section	.text.IIS2DLPC_DeInit,"ax",%progbits
ARM GAS  C:\Temp\ccFHAvpx.s 			page 34


 716              		.align	1
 717              		.global	IIS2DLPC_DeInit
 718              		.syntax unified
 719              		.thumb
 720              		.thumb_func
 722              	IIS2DLPC_DeInit:
 723              	.LVL60:
 724              	.LFB2:
 202:Drivers/BSP/Components/iis2dlpc/iis2dlpc.c ****   /* Disable the component */
 725              		.loc 1 202 1 is_stmt 1 view -0
 726              		.cfi_startproc
 727              		@ args = 0, pretend = 0, frame = 0
 728              		@ frame_needed = 0, uses_anonymous_args = 0
 202:Drivers/BSP/Components/iis2dlpc/iis2dlpc.c ****   /* Disable the component */
 729              		.loc 1 202 1 is_stmt 0 view .LVU178
 730 0000 10B5     		push	{r4, lr}
 731              		.cfi_def_cfa_offset 8
 732              		.cfi_offset 4, -8
 733              		.cfi_offset 14, -4
 734 0002 0446     		mov	r4, r0
 204:Drivers/BSP/Components/iis2dlpc/iis2dlpc.c ****   {
 735              		.loc 1 204 3 is_stmt 1 view .LVU179
 204:Drivers/BSP/Components/iis2dlpc/iis2dlpc.c ****   {
 736              		.loc 1 204 7 is_stmt 0 view .LVU180
 737 0004 FFF7FEFF 		bl	IIS2DLPC_ACC_Disable
 738              	.LVL61:
 204:Drivers/BSP/Components/iis2dlpc/iis2dlpc.c ****   {
 739              		.loc 1 204 6 view .LVU181
 740 0008 48B9     		cbnz	r0, .L83
 210:Drivers/BSP/Components/iis2dlpc/iis2dlpc.c ****   /* Reset operating mode to default value. */
 741              		.loc 1 210 3 is_stmt 1 view .LVU182
 210:Drivers/BSP/Components/iis2dlpc/iis2dlpc.c ****   /* Reset operating mode to default value. */
 742              		.loc 1 210 17 is_stmt 0 view .LVU183
 743 000a 0023     		movs	r3, #0
 744 000c 6363     		str	r3, [r4, #52]	@ float
 212:Drivers/BSP/Components/iis2dlpc/iis2dlpc.c ****   /* Reset low noise to default value (disabled). */
 745              		.loc 1 212 3 is_stmt 1 view .LVU184
 212:Drivers/BSP/Components/iis2dlpc/iis2dlpc.c ****   /* Reset low noise to default value (disabled). */
 746              		.loc 1 212 28 is_stmt 0 view .LVU185
 747 000e 0023     		movs	r3, #0
 748 0010 84F83830 		strb	r3, [r4, #56]
 214:Drivers/BSP/Components/iis2dlpc/iis2dlpc.c **** 
 749              		.loc 1 214 3 is_stmt 1 view .LVU186
 214:Drivers/BSP/Components/iis2dlpc/iis2dlpc.c **** 
 750              		.loc 1 214 23 is_stmt 0 view .LVU187
 751 0014 84F83930 		strb	r3, [r4, #57]
 216:Drivers/BSP/Components/iis2dlpc/iis2dlpc.c **** 
 752              		.loc 1 216 3 is_stmt 1 view .LVU188
 216:Drivers/BSP/Components/iis2dlpc/iis2dlpc.c **** 
 753              		.loc 1 216 24 is_stmt 0 view .LVU189
 754 0018 84F83030 		strb	r3, [r4, #48]
 218:Drivers/BSP/Components/iis2dlpc/iis2dlpc.c **** }
 755              		.loc 1 218 3 is_stmt 1 view .LVU190
 756              	.L81:
 219:Drivers/BSP/Components/iis2dlpc/iis2dlpc.c **** 
 757              		.loc 1 219 1 is_stmt 0 view .LVU191
 758 001c 10BD     		pop	{r4, pc}
ARM GAS  C:\Temp\ccFHAvpx.s 			page 35


 759              	.LVL62:
 760              	.L83:
 206:Drivers/BSP/Components/iis2dlpc/iis2dlpc.c ****   }
 761              		.loc 1 206 12 view .LVU192
 762 001e 4FF0FF30 		mov	r0, #-1
 763 0022 FBE7     		b	.L81
 764              		.cfi_endproc
 765              	.LFE2:
 767              		.section	.text.IIS2DLPC_Init,"ax",%progbits
 768              		.align	1
 769              		.global	IIS2DLPC_Init
 770              		.syntax unified
 771              		.thumb
 772              		.thumb_func
 774              	IIS2DLPC_Init:
 775              	.LVL63:
 776              	.LFB1:
 146:Drivers/BSP/Components/iis2dlpc/iis2dlpc.c ****   /* Enable register address automatically incremented during a multiple byte
 777              		.loc 1 146 1 is_stmt 1 view -0
 778              		.cfi_startproc
 779              		@ args = 0, pretend = 0, frame = 0
 780              		@ frame_needed = 0, uses_anonymous_args = 0
 146:Drivers/BSP/Components/iis2dlpc/iis2dlpc.c ****   /* Enable register address automatically incremented during a multiple byte
 781              		.loc 1 146 1 is_stmt 0 view .LVU194
 782 0000 38B5     		push	{r3, r4, r5, lr}
 783              		.cfi_def_cfa_offset 16
 784              		.cfi_offset 3, -16
 785              		.cfi_offset 4, -12
 786              		.cfi_offset 5, -8
 787              		.cfi_offset 14, -4
 788 0002 0446     		mov	r4, r0
 149:Drivers/BSP/Components/iis2dlpc/iis2dlpc.c ****   {
 789              		.loc 1 149 3 is_stmt 1 view .LVU195
 149:Drivers/BSP/Components/iis2dlpc/iis2dlpc.c ****   {
 790              		.loc 1 149 7 is_stmt 0 view .LVU196
 791 0004 00F12005 		add	r5, r0, #32
 792 0008 0121     		movs	r1, #1
 793 000a 2846     		mov	r0, r5
 794              	.LVL64:
 149:Drivers/BSP/Components/iis2dlpc/iis2dlpc.c ****   {
 795              		.loc 1 149 7 view .LVU197
 796 000c FFF7FEFF 		bl	iis2dlpc_auto_increment_set
 797              	.LVL65:
 149:Drivers/BSP/Components/iis2dlpc/iis2dlpc.c ****   {
 798              		.loc 1 149 6 view .LVU198
 799 0010 10BB     		cbnz	r0, .L87
 155:Drivers/BSP/Components/iis2dlpc/iis2dlpc.c ****   {
 800              		.loc 1 155 3 is_stmt 1 view .LVU199
 155:Drivers/BSP/Components/iis2dlpc/iis2dlpc.c ****   {
 801              		.loc 1 155 7 is_stmt 0 view .LVU200
 802 0012 0121     		movs	r1, #1
 803 0014 2846     		mov	r0, r5
 804 0016 FFF7FEFF 		bl	iis2dlpc_block_data_update_set
 805              	.LVL66:
 155:Drivers/BSP/Components/iis2dlpc/iis2dlpc.c ****   {
 806              		.loc 1 155 6 view .LVU201
 807 001a 00BB     		cbnz	r0, .L88
ARM GAS  C:\Temp\ccFHAvpx.s 			page 36


 161:Drivers/BSP/Components/iis2dlpc/iis2dlpc.c ****   {
 808              		.loc 1 161 3 is_stmt 1 view .LVU202
 161:Drivers/BSP/Components/iis2dlpc/iis2dlpc.c ****   {
 809              		.loc 1 161 7 is_stmt 0 view .LVU203
 810 001c 0021     		movs	r1, #0
 811 001e 2846     		mov	r0, r5
 812 0020 FFF7FEFF 		bl	iis2dlpc_fifo_mode_set
 813              	.LVL67:
 161:Drivers/BSP/Components/iis2dlpc/iis2dlpc.c ****   {
 814              		.loc 1 161 6 view .LVU204
 815 0024 F0B9     		cbnz	r0, .L89
 167:Drivers/BSP/Components/iis2dlpc/iis2dlpc.c ****   {
 816              		.loc 1 167 3 is_stmt 1 view .LVU205
 167:Drivers/BSP/Components/iis2dlpc/iis2dlpc.c ****   {
 817              		.loc 1 167 7 is_stmt 0 view .LVU206
 818 0026 0421     		movs	r1, #4
 819 0028 2846     		mov	r0, r5
 820 002a FFF7FEFF 		bl	iis2dlpc_power_mode_set
 821              	.LVL68:
 167:Drivers/BSP/Components/iis2dlpc/iis2dlpc.c ****   {
 822              		.loc 1 167 6 view .LVU207
 823 002e E0B9     		cbnz	r0, .L90
 173:Drivers/BSP/Components/iis2dlpc/iis2dlpc.c ****   /* Select default operating mode. */
 824              		.loc 1 173 3 is_stmt 1 view .LVU208
 173:Drivers/BSP/Components/iis2dlpc/iis2dlpc.c ****   /* Select default operating mode. */
 825              		.loc 1 173 17 is_stmt 0 view .LVU209
 826 0030 124B     		ldr	r3, .L94
 827 0032 6363     		str	r3, [r4, #52]	@ float
 175:Drivers/BSP/Components/iis2dlpc/iis2dlpc.c ****   /* Select default low noise (disabled). */
 828              		.loc 1 175 3 is_stmt 1 view .LVU210
 175:Drivers/BSP/Components/iis2dlpc/iis2dlpc.c ****   /* Select default low noise (disabled). */
 829              		.loc 1 175 28 is_stmt 0 view .LVU211
 830 0034 0021     		movs	r1, #0
 831 0036 84F83810 		strb	r1, [r4, #56]
 177:Drivers/BSP/Components/iis2dlpc/iis2dlpc.c **** 
 832              		.loc 1 177 3 is_stmt 1 view .LVU212
 177:Drivers/BSP/Components/iis2dlpc/iis2dlpc.c **** 
 833              		.loc 1 177 23 is_stmt 0 view .LVU213
 834 003a 84F83910 		strb	r1, [r4, #57]
 180:Drivers/BSP/Components/iis2dlpc/iis2dlpc.c ****   {
 835              		.loc 1 180 3 is_stmt 1 view .LVU214
 180:Drivers/BSP/Components/iis2dlpc/iis2dlpc.c ****   {
 836              		.loc 1 180 7 is_stmt 0 view .LVU215
 837 003e 2846     		mov	r0, r5
 838 0040 FFF7FEFF 		bl	iis2dlpc_data_rate_set
 839              	.LVL69:
 180:Drivers/BSP/Components/iis2dlpc/iis2dlpc.c ****   {
 840              		.loc 1 180 6 view .LVU216
 841 0044 A0B9     		cbnz	r0, .L91
 186:Drivers/BSP/Components/iis2dlpc/iis2dlpc.c ****   {
 842              		.loc 1 186 3 is_stmt 1 view .LVU217
 186:Drivers/BSP/Components/iis2dlpc/iis2dlpc.c ****   {
 843              		.loc 1 186 7 is_stmt 0 view .LVU218
 844 0046 0021     		movs	r1, #0
 845 0048 2846     		mov	r0, r5
 846 004a FFF7FEFF 		bl	iis2dlpc_full_scale_set
 847              	.LVL70:
ARM GAS  C:\Temp\ccFHAvpx.s 			page 37


 186:Drivers/BSP/Components/iis2dlpc/iis2dlpc.c ****   {
 848              		.loc 1 186 6 view .LVU219
 849 004e 90B9     		cbnz	r0, .L92
 191:Drivers/BSP/Components/iis2dlpc/iis2dlpc.c **** 
 850              		.loc 1 191 3 is_stmt 1 view .LVU220
 191:Drivers/BSP/Components/iis2dlpc/iis2dlpc.c **** 
 851              		.loc 1 191 24 is_stmt 0 view .LVU221
 852 0050 0123     		movs	r3, #1
 853 0052 84F83030 		strb	r3, [r4, #48]
 193:Drivers/BSP/Components/iis2dlpc/iis2dlpc.c **** }
 854              		.loc 1 193 3 is_stmt 1 view .LVU222
 855              	.L85:
 194:Drivers/BSP/Components/iis2dlpc/iis2dlpc.c **** 
 856              		.loc 1 194 1 is_stmt 0 view .LVU223
 857 0056 38BD     		pop	{r3, r4, r5, pc}
 858              	.LVL71:
 859              	.L87:
 151:Drivers/BSP/Components/iis2dlpc/iis2dlpc.c ****   }
 860              		.loc 1 151 12 view .LVU224
 861 0058 4FF0FF30 		mov	r0, #-1
 862 005c FBE7     		b	.L85
 863              	.L88:
 157:Drivers/BSP/Components/iis2dlpc/iis2dlpc.c ****   }
 864              		.loc 1 157 12 view .LVU225
 865 005e 4FF0FF30 		mov	r0, #-1
 866 0062 F8E7     		b	.L85
 867              	.L89:
 163:Drivers/BSP/Components/iis2dlpc/iis2dlpc.c ****   }
 868              		.loc 1 163 12 view .LVU226
 869 0064 4FF0FF30 		mov	r0, #-1
 870 0068 F5E7     		b	.L85
 871              	.L90:
 169:Drivers/BSP/Components/iis2dlpc/iis2dlpc.c ****   }
 872              		.loc 1 169 12 view .LVU227
 873 006a 4FF0FF30 		mov	r0, #-1
 874 006e F2E7     		b	.L85
 875              	.L91:
 182:Drivers/BSP/Components/iis2dlpc/iis2dlpc.c ****   }
 876              		.loc 1 182 12 view .LVU228
 877 0070 4FF0FF30 		mov	r0, #-1
 878 0074 EFE7     		b	.L85
 879              	.L92:
 188:Drivers/BSP/Components/iis2dlpc/iis2dlpc.c ****   }
 880              		.loc 1 188 12 view .LVU229
 881 0076 4FF0FF30 		mov	r0, #-1
 882 007a ECE7     		b	.L85
 883              	.L95:
 884              		.align	2
 885              	.L94:
 886 007c 0000C842 		.word	1120403456
 887              		.cfi_endproc
 888              	.LFE1:
 890              		.section	.text.IIS2DLPC_ACC_SetFullScale,"ax",%progbits
 891              		.align	1
 892              		.global	IIS2DLPC_ACC_SetFullScale
 893              		.syntax unified
 894              		.thumb
ARM GAS  C:\Temp\ccFHAvpx.s 			page 38


 895              		.thumb_func
 897              	IIS2DLPC_ACC_SetFullScale:
 898              	.LVL72:
 899              	.LFB12:
 695:Drivers/BSP/Components/iis2dlpc/iis2dlpc.c ****   iis2dlpc_fs_t new_fs;
 900              		.loc 1 695 1 is_stmt 1 view -0
 901              		.cfi_startproc
 902              		@ args = 0, pretend = 0, frame = 0
 903              		@ frame_needed = 0, uses_anonymous_args = 0
 695:Drivers/BSP/Components/iis2dlpc/iis2dlpc.c ****   iis2dlpc_fs_t new_fs;
 904              		.loc 1 695 1 is_stmt 0 view .LVU231
 905 0000 08B5     		push	{r3, lr}
 906              		.cfi_def_cfa_offset 8
 907              		.cfi_offset 3, -8
 908              		.cfi_offset 14, -4
 696:Drivers/BSP/Components/iis2dlpc/iis2dlpc.c **** 
 909              		.loc 1 696 3 is_stmt 1 view .LVU232
 700:Drivers/BSP/Components/iis2dlpc/iis2dlpc.c ****            : (FullScale <= 4) ? IIS2DLPC_4g
 910              		.loc 1 700 3 view .LVU233
 701:Drivers/BSP/Components/iis2dlpc/iis2dlpc.c ****            : (FullScale <= 8) ? IIS2DLPC_8g
 911              		.loc 1 701 12 is_stmt 0 view .LVU234
 912 0002 0229     		cmp	r1, #2
 913 0004 05DD     		ble	.L99
 701:Drivers/BSP/Components/iis2dlpc/iis2dlpc.c ****            : (FullScale <= 8) ? IIS2DLPC_8g
 914              		.loc 1 701 12 discriminator 1 view .LVU235
 915 0006 0429     		cmp	r1, #4
 916 0008 09DD     		ble	.L100
 701:Drivers/BSP/Components/iis2dlpc/iis2dlpc.c ****            : (FullScale <= 8) ? IIS2DLPC_8g
 917              		.loc 1 701 12 discriminator 3 view .LVU236
 918 000a 0829     		cmp	r1, #8
 919 000c 09DC     		bgt	.L101
 701:Drivers/BSP/Components/iis2dlpc/iis2dlpc.c ****            : (FullScale <= 8) ? IIS2DLPC_8g
 920              		.loc 1 701 12 view .LVU237
 921 000e 0221     		movs	r1, #2
 922              	.LVL73:
 701:Drivers/BSP/Components/iis2dlpc/iis2dlpc.c ****            : (FullScale <= 8) ? IIS2DLPC_8g
 923              		.loc 1 701 12 view .LVU238
 924 0010 00E0     		b	.L97
 925              	.LVL74:
 926              	.L99:
 701:Drivers/BSP/Components/iis2dlpc/iis2dlpc.c ****            : (FullScale <= 8) ? IIS2DLPC_8g
 927              		.loc 1 701 12 view .LVU239
 928 0012 0021     		movs	r1, #0
 929              	.LVL75:
 930              	.L97:
 705:Drivers/BSP/Components/iis2dlpc/iis2dlpc.c ****   {
 931              		.loc 1 705 3 is_stmt 1 view .LVU240
 705:Drivers/BSP/Components/iis2dlpc/iis2dlpc.c ****   {
 932              		.loc 1 705 7 is_stmt 0 view .LVU241
 933 0014 2030     		adds	r0, r0, #32
 934              	.LVL76:
 705:Drivers/BSP/Components/iis2dlpc/iis2dlpc.c ****   {
 935              		.loc 1 705 7 view .LVU242
 936 0016 FFF7FEFF 		bl	iis2dlpc_full_scale_set
 937              	.LVL77:
 705:Drivers/BSP/Components/iis2dlpc/iis2dlpc.c ****   {
 938              		.loc 1 705 6 view .LVU243
ARM GAS  C:\Temp\ccFHAvpx.s 			page 39


 939 001a 20B9     		cbnz	r0, .L104
 940              	.L96:
 711:Drivers/BSP/Components/iis2dlpc/iis2dlpc.c **** 
 941              		.loc 1 711 1 view .LVU244
 942 001c 08BD     		pop	{r3, pc}
 943              	.LVL78:
 944              	.L100:
 701:Drivers/BSP/Components/iis2dlpc/iis2dlpc.c ****            : (FullScale <= 8) ? IIS2DLPC_8g
 945              		.loc 1 701 12 view .LVU245
 946 001e 0121     		movs	r1, #1
 947              	.LVL79:
 701:Drivers/BSP/Components/iis2dlpc/iis2dlpc.c ****            : (FullScale <= 8) ? IIS2DLPC_8g
 948              		.loc 1 701 12 view .LVU246
 949 0020 F8E7     		b	.L97
 950              	.LVL80:
 951              	.L101:
 701:Drivers/BSP/Components/iis2dlpc/iis2dlpc.c ****            : (FullScale <= 8) ? IIS2DLPC_8g
 952              		.loc 1 701 12 view .LVU247
 953 0022 0321     		movs	r1, #3
 954              	.LVL81:
 701:Drivers/BSP/Components/iis2dlpc/iis2dlpc.c ****            : (FullScale <= 8) ? IIS2DLPC_8g
 955              		.loc 1 701 12 view .LVU248
 956 0024 F6E7     		b	.L97
 957              	.LVL82:
 958              	.L104:
 707:Drivers/BSP/Components/iis2dlpc/iis2dlpc.c ****   }
 959              		.loc 1 707 12 view .LVU249
 960 0026 4FF0FF30 		mov	r0, #-1
 961 002a F7E7     		b	.L96
 962              		.cfi_endproc
 963              	.LFE12:
 965              		.section	.text.IIS2DLPC_ReadID,"ax",%progbits
 966              		.align	1
 967              		.global	IIS2DLPC_ReadID
 968              		.syntax unified
 969              		.thumb
 970              		.thumb_func
 972              	IIS2DLPC_ReadID:
 973              	.LVL83:
 974              	.LFB3:
 228:Drivers/BSP/Components/iis2dlpc/iis2dlpc.c ****   if (iis2dlpc_device_id_get(&(pObj->Ctx), Id) != IIS2DLPC_OK)
 975              		.loc 1 228 1 is_stmt 1 view -0
 976              		.cfi_startproc
 977              		@ args = 0, pretend = 0, frame = 0
 978              		@ frame_needed = 0, uses_anonymous_args = 0
 228:Drivers/BSP/Components/iis2dlpc/iis2dlpc.c ****   if (iis2dlpc_device_id_get(&(pObj->Ctx), Id) != IIS2DLPC_OK)
 979              		.loc 1 228 1 is_stmt 0 view .LVU251
 980 0000 08B5     		push	{r3, lr}
 981              		.cfi_def_cfa_offset 8
 982              		.cfi_offset 3, -8
 983              		.cfi_offset 14, -4
 229:Drivers/BSP/Components/iis2dlpc/iis2dlpc.c ****   {
 984              		.loc 1 229 3 is_stmt 1 view .LVU252
 229:Drivers/BSP/Components/iis2dlpc/iis2dlpc.c ****   {
 985              		.loc 1 229 7 is_stmt 0 view .LVU253
 986 0002 2030     		adds	r0, r0, #32
 987              	.LVL84:
ARM GAS  C:\Temp\ccFHAvpx.s 			page 40


 229:Drivers/BSP/Components/iis2dlpc/iis2dlpc.c ****   {
 988              		.loc 1 229 7 view .LVU254
 989 0004 FFF7FEFF 		bl	iis2dlpc_device_id_get
 990              	.LVL85:
 229:Drivers/BSP/Components/iis2dlpc/iis2dlpc.c ****   {
 991              		.loc 1 229 6 view .LVU255
 992 0008 00B9     		cbnz	r0, .L109
 993              	.L105:
 235:Drivers/BSP/Components/iis2dlpc/iis2dlpc.c **** 
 994              		.loc 1 235 1 view .LVU256
 995 000a 08BD     		pop	{r3, pc}
 996              	.L109:
 231:Drivers/BSP/Components/iis2dlpc/iis2dlpc.c ****   }
 997              		.loc 1 231 12 view .LVU257
 998 000c 4FF0FF30 		mov	r0, #-1
 999 0010 FBE7     		b	.L105
 1000              		.cfi_endproc
 1001              	.LFE3:
 1003              		.section	.text.IIS2DLPC_ACC_GetFullScale,"ax",%progbits
 1004              		.align	1
 1005              		.global	IIS2DLPC_ACC_GetFullScale
 1006              		.syntax unified
 1007              		.thumb
 1008              		.thumb_func
 1010              	IIS2DLPC_ACC_GetFullScale:
 1011              	.LVL86:
 1012              	.LFB11:
 651:Drivers/BSP/Components/iis2dlpc/iis2dlpc.c ****   int32_t ret = IIS2DLPC_OK;
 1013              		.loc 1 651 1 is_stmt 1 view -0
 1014              		.cfi_startproc
 1015              		@ args = 0, pretend = 0, frame = 8
 1016              		@ frame_needed = 0, uses_anonymous_args = 0
 651:Drivers/BSP/Components/iis2dlpc/iis2dlpc.c ****   int32_t ret = IIS2DLPC_OK;
 1017              		.loc 1 651 1 is_stmt 0 view .LVU259
 1018 0000 10B5     		push	{r4, lr}
 1019              		.cfi_def_cfa_offset 8
 1020              		.cfi_offset 4, -8
 1021              		.cfi_offset 14, -4
 1022 0002 82B0     		sub	sp, sp, #8
 1023              		.cfi_def_cfa_offset 16
 1024 0004 0C46     		mov	r4, r1
 652:Drivers/BSP/Components/iis2dlpc/iis2dlpc.c ****   iis2dlpc_fs_t fs_low_level;
 1025              		.loc 1 652 3 is_stmt 1 view .LVU260
 1026              	.LVL87:
 653:Drivers/BSP/Components/iis2dlpc/iis2dlpc.c **** 
 1027              		.loc 1 653 3 view .LVU261
 656:Drivers/BSP/Components/iis2dlpc/iis2dlpc.c ****   {
 1028              		.loc 1 656 3 view .LVU262
 656:Drivers/BSP/Components/iis2dlpc/iis2dlpc.c ****   {
 1029              		.loc 1 656 7 is_stmt 0 view .LVU263
 1030 0006 0DF10701 		add	r1, sp, #7
 1031              	.LVL88:
 656:Drivers/BSP/Components/iis2dlpc/iis2dlpc.c ****   {
 1032              		.loc 1 656 7 view .LVU264
 1033 000a 2030     		adds	r0, r0, #32
 1034              	.LVL89:
 656:Drivers/BSP/Components/iis2dlpc/iis2dlpc.c ****   {
ARM GAS  C:\Temp\ccFHAvpx.s 			page 41


 1035              		.loc 1 656 7 view .LVU265
 1036 000c FFF7FEFF 		bl	iis2dlpc_full_scale_get
 1037              	.LVL90:
 656:Drivers/BSP/Components/iis2dlpc/iis2dlpc.c ****   {
 1038              		.loc 1 656 6 view .LVU266
 1039 0010 C0B9     		cbnz	r0, .L118
 661:Drivers/BSP/Components/iis2dlpc/iis2dlpc.c ****   {
 1040              		.loc 1 661 3 is_stmt 1 view .LVU267
 1041 0012 9DF80730 		ldrb	r3, [sp, #7]	@ zero_extendqisi2
 1042 0016 032B     		cmp	r3, #3
 1043 0018 10D8     		bhi	.L112
 1044 001a DFE803F0 		tbb	[pc, r3]
 1045              	.L114:
 1046 001e 02       		.byte	(.L117-.L114)/2
 1047 001f 06       		.byte	(.L116-.L114)/2
 1048 0020 09       		.byte	(.L115-.L114)/2
 1049 0021 0C       		.byte	(.L113-.L114)/2
 1050              		.p2align 1
 1051              	.L117:
 664:Drivers/BSP/Components/iis2dlpc/iis2dlpc.c ****       break;
 1052              		.loc 1 664 7 view .LVU268
 664:Drivers/BSP/Components/iis2dlpc/iis2dlpc.c ****       break;
 1053              		.loc 1 664 18 is_stmt 0 view .LVU269
 1054 0022 0223     		movs	r3, #2
 1055 0024 2360     		str	r3, [r4]
 665:Drivers/BSP/Components/iis2dlpc/iis2dlpc.c **** 
 1056              		.loc 1 665 7 is_stmt 1 view .LVU270
 1057              	.LVL91:
 1058              	.L110:
 686:Drivers/BSP/Components/iis2dlpc/iis2dlpc.c **** 
 1059              		.loc 1 686 1 is_stmt 0 view .LVU271
 1060 0026 02B0     		add	sp, sp, #8
 1061              		.cfi_remember_state
 1062              		.cfi_def_cfa_offset 8
 1063              		@ sp needed
 1064 0028 10BD     		pop	{r4, pc}
 1065              	.LVL92:
 1066              	.L116:
 1067              		.cfi_restore_state
 668:Drivers/BSP/Components/iis2dlpc/iis2dlpc.c ****       break;
 1068              		.loc 1 668 7 is_stmt 1 view .LVU272
 668:Drivers/BSP/Components/iis2dlpc/iis2dlpc.c ****       break;
 1069              		.loc 1 668 18 is_stmt 0 view .LVU273
 1070 002a 0423     		movs	r3, #4
 1071 002c 2360     		str	r3, [r4]
 669:Drivers/BSP/Components/iis2dlpc/iis2dlpc.c **** 
 1072              		.loc 1 669 7 is_stmt 1 view .LVU274
 1073 002e FAE7     		b	.L110
 1074              	.L115:
 672:Drivers/BSP/Components/iis2dlpc/iis2dlpc.c ****       break;
 1075              		.loc 1 672 7 view .LVU275
 672:Drivers/BSP/Components/iis2dlpc/iis2dlpc.c ****       break;
 1076              		.loc 1 672 18 is_stmt 0 view .LVU276
 1077 0030 0823     		movs	r3, #8
 1078 0032 2360     		str	r3, [r4]
 673:Drivers/BSP/Components/iis2dlpc/iis2dlpc.c **** 
 1079              		.loc 1 673 7 is_stmt 1 view .LVU277
ARM GAS  C:\Temp\ccFHAvpx.s 			page 42


 1080 0034 F7E7     		b	.L110
 1081              	.L113:
 676:Drivers/BSP/Components/iis2dlpc/iis2dlpc.c ****       break;
 1082              		.loc 1 676 7 view .LVU278
 676:Drivers/BSP/Components/iis2dlpc/iis2dlpc.c ****       break;
 1083              		.loc 1 676 18 is_stmt 0 view .LVU279
 1084 0036 1023     		movs	r3, #16
 1085 0038 2360     		str	r3, [r4]
 677:Drivers/BSP/Components/iis2dlpc/iis2dlpc.c **** 
 1086              		.loc 1 677 7 is_stmt 1 view .LVU280
 1087 003a F4E7     		b	.L110
 1088              	.L112:
 680:Drivers/BSP/Components/iis2dlpc/iis2dlpc.c ****       ret = IIS2DLPC_ERROR;
 1089              		.loc 1 680 7 view .LVU281
 680:Drivers/BSP/Components/iis2dlpc/iis2dlpc.c ****       ret = IIS2DLPC_ERROR;
 1090              		.loc 1 680 18 is_stmt 0 view .LVU282
 1091 003c 4FF0FF30 		mov	r0, #-1
 1092 0040 2060     		str	r0, [r4]
 681:Drivers/BSP/Components/iis2dlpc/iis2dlpc.c ****       break;
 1093              		.loc 1 681 7 is_stmt 1 view .LVU283
 1094              	.LVL93:
 682:Drivers/BSP/Components/iis2dlpc/iis2dlpc.c ****   }
 1095              		.loc 1 682 7 view .LVU284
 1096 0042 F0E7     		b	.L110
 1097              	.LVL94:
 1098              	.L118:
 658:Drivers/BSP/Components/iis2dlpc/iis2dlpc.c ****   }
 1099              		.loc 1 658 12 is_stmt 0 view .LVU285
 1100 0044 4FF0FF30 		mov	r0, #-1
 1101              	.LVL95:
 658:Drivers/BSP/Components/iis2dlpc/iis2dlpc.c ****   }
 1102              		.loc 1 658 12 view .LVU286
 1103 0048 EDE7     		b	.L110
 1104              		.cfi_endproc
 1105              	.LFE11:
 1107              		.section	.text.IIS2DLPC_ACC_GetSensitivity,"ax",%progbits
 1108              		.align	1
 1109              		.global	IIS2DLPC_ACC_GetSensitivity
 1110              		.syntax unified
 1111              		.thumb
 1112              		.thumb_func
 1114              	IIS2DLPC_ACC_GetSensitivity:
 1115              	.LVL96:
 1116              	.LFB7:
 317:Drivers/BSP/Components/iis2dlpc/iis2dlpc.c ****   int32_t ret = IIS2DLPC_OK;
 1117              		.loc 1 317 1 is_stmt 1 view -0
 1118              		.cfi_startproc
 1119              		@ args = 0, pretend = 0, frame = 8
 1120              		@ frame_needed = 0, uses_anonymous_args = 0
 317:Drivers/BSP/Components/iis2dlpc/iis2dlpc.c ****   int32_t ret = IIS2DLPC_OK;
 1121              		.loc 1 317 1 is_stmt 0 view .LVU288
 1122 0000 30B5     		push	{r4, r5, lr}
 1123              		.cfi_def_cfa_offset 12
 1124              		.cfi_offset 4, -12
 1125              		.cfi_offset 5, -8
 1126              		.cfi_offset 14, -4
 1127 0002 83B0     		sub	sp, sp, #12
ARM GAS  C:\Temp\ccFHAvpx.s 			page 43


 1128              		.cfi_def_cfa_offset 24
 1129 0004 0D46     		mov	r5, r1
 318:Drivers/BSP/Components/iis2dlpc/iis2dlpc.c ****   iis2dlpc_fs_t full_scale;
 1130              		.loc 1 318 3 is_stmt 1 view .LVU289
 1131              	.LVL97:
 319:Drivers/BSP/Components/iis2dlpc/iis2dlpc.c ****   iis2dlpc_mode_t mode;
 1132              		.loc 1 319 3 view .LVU290
 320:Drivers/BSP/Components/iis2dlpc/iis2dlpc.c **** 
 1133              		.loc 1 320 3 view .LVU291
 323:Drivers/BSP/Components/iis2dlpc/iis2dlpc.c ****   {
 1134              		.loc 1 323 3 view .LVU292
 323:Drivers/BSP/Components/iis2dlpc/iis2dlpc.c ****   {
 1135              		.loc 1 323 7 is_stmt 0 view .LVU293
 1136 0006 00F12004 		add	r4, r0, #32
 1137 000a 0DF10701 		add	r1, sp, #7
 1138              	.LVL98:
 323:Drivers/BSP/Components/iis2dlpc/iis2dlpc.c ****   {
 1139              		.loc 1 323 7 view .LVU294
 1140 000e 2046     		mov	r0, r4
 1141              	.LVL99:
 323:Drivers/BSP/Components/iis2dlpc/iis2dlpc.c ****   {
 1142              		.loc 1 323 7 view .LVU295
 1143 0010 FFF7FEFF 		bl	iis2dlpc_full_scale_get
 1144              	.LVL100:
 323:Drivers/BSP/Components/iis2dlpc/iis2dlpc.c ****   {
 1145              		.loc 1 323 6 view .LVU296
 1146 0014 0028     		cmp	r0, #0
 1147 0016 4CD1     		bne	.L136
 329:Drivers/BSP/Components/iis2dlpc/iis2dlpc.c ****   {
 1148              		.loc 1 329 3 is_stmt 1 view .LVU297
 329:Drivers/BSP/Components/iis2dlpc/iis2dlpc.c ****   {
 1149              		.loc 1 329 7 is_stmt 0 view .LVU298
 1150 0018 0DF10601 		add	r1, sp, #6
 1151 001c 2046     		mov	r0, r4
 1152 001e FFF7FEFF 		bl	iis2dlpc_power_mode_get
 1153              	.LVL101:
 329:Drivers/BSP/Components/iis2dlpc/iis2dlpc.c ****   {
 1154              		.loc 1 329 6 view .LVU299
 1155 0022 0028     		cmp	r0, #0
 1156 0024 48D1     		bne	.L137
 334:Drivers/BSP/Components/iis2dlpc/iis2dlpc.c ****   {
 1157              		.loc 1 334 3 is_stmt 1 view .LVU300
 1158 0026 9DF80620 		ldrb	r2, [sp, #6]	@ zero_extendqisi2
 1159 002a 1B2A     		cmp	r2, #27
 1160 002c 09D8     		bhi	.L122
 1161 002e 0123     		movs	r3, #1
 1162 0030 9340     		lsls	r3, r3, r2
 1163 0032 03F01E32 		and	r2, r3, #505290270
 1164 0036 22F01022 		bic	r2, r2, #268439552
 1165 003a 0ABB     		cbnz	r2, .L123
 1166 003c 13F0013F 		tst	r3, #16843009
 1167 0040 05D1     		bne	.L139
 1168              	.L122:
 405:Drivers/BSP/Components/iis2dlpc/iis2dlpc.c ****       ret = IIS2DLPC_ERROR;
 1169              		.loc 1 405 7 view .LVU301
 405:Drivers/BSP/Components/iis2dlpc/iis2dlpc.c ****       ret = IIS2DLPC_ERROR;
 1170              		.loc 1 405 20 is_stmt 0 view .LVU302
ARM GAS  C:\Temp\ccFHAvpx.s 			page 44


 1171 0042 1F4B     		ldr	r3, .L140
 1172 0044 2B60     		str	r3, [r5]	@ float
 406:Drivers/BSP/Components/iis2dlpc/iis2dlpc.c ****       break;
 1173              		.loc 1 406 7 is_stmt 1 view .LVU303
 1174              	.LVL102:
 407:Drivers/BSP/Components/iis2dlpc/iis2dlpc.c ****   }
 1175              		.loc 1 407 7 view .LVU304
 406:Drivers/BSP/Components/iis2dlpc/iis2dlpc.c ****       break;
 1176              		.loc 1 406 11 is_stmt 0 view .LVU305
 1177 0046 4FF0FF30 		mov	r0, #-1
 1178              	.LVL103:
 1179              	.L120:
 411:Drivers/BSP/Components/iis2dlpc/iis2dlpc.c **** 
 1180              		.loc 1 411 1 view .LVU306
 1181 004a 03B0     		add	sp, sp, #12
 1182              		.cfi_remember_state
 1183              		.cfi_def_cfa_offset 12
 1184              		@ sp needed
 1185 004c 30BD     		pop	{r4, r5, pc}
 1186              	.LVL104:
 1187              	.L139:
 1188              		.cfi_restore_state
 340:Drivers/BSP/Components/iis2dlpc/iis2dlpc.c ****       {
 1189              		.loc 1 340 7 is_stmt 1 view .LVU307
 1190 004e 9DF80730 		ldrb	r3, [sp, #7]	@ zero_extendqisi2
 1191 0052 032B     		cmp	r3, #3
 1192 0054 0FD8     		bhi	.L124
 1193 0056 DFE803F0 		tbb	[pc, r3]
 1194              	.L126:
 1195 005a 02       		.byte	(.L129-.L126)/2
 1196 005b 05       		.byte	(.L128-.L126)/2
 1197 005c 08       		.byte	(.L127-.L126)/2
 1198 005d 0B       		.byte	(.L125-.L126)/2
 1199              		.p2align 1
 1200              	.L129:
 343:Drivers/BSP/Components/iis2dlpc/iis2dlpc.c ****           break;
 1201              		.loc 1 343 11 view .LVU308
 343:Drivers/BSP/Components/iis2dlpc/iis2dlpc.c ****           break;
 1202              		.loc 1 343 24 is_stmt 0 view .LVU309
 1203 005e 194B     		ldr	r3, .L140+4
 1204 0060 2B60     		str	r3, [r5]	@ float
 344:Drivers/BSP/Components/iis2dlpc/iis2dlpc.c **** 
 1205              		.loc 1 344 11 is_stmt 1 view .LVU310
 1206 0062 F2E7     		b	.L120
 1207              	.L128:
 347:Drivers/BSP/Components/iis2dlpc/iis2dlpc.c ****           break;
 1208              		.loc 1 347 11 view .LVU311
 347:Drivers/BSP/Components/iis2dlpc/iis2dlpc.c ****           break;
 1209              		.loc 1 347 24 is_stmt 0 view .LVU312
 1210 0064 184B     		ldr	r3, .L140+8
 1211 0066 2B60     		str	r3, [r5]	@ float
 348:Drivers/BSP/Components/iis2dlpc/iis2dlpc.c **** 
 1212              		.loc 1 348 11 is_stmt 1 view .LVU313
 1213 0068 EFE7     		b	.L120
 1214              	.L127:
 351:Drivers/BSP/Components/iis2dlpc/iis2dlpc.c ****           break;
 1215              		.loc 1 351 11 view .LVU314
ARM GAS  C:\Temp\ccFHAvpx.s 			page 45


 351:Drivers/BSP/Components/iis2dlpc/iis2dlpc.c ****           break;
 1216              		.loc 1 351 24 is_stmt 0 view .LVU315
 1217 006a 184B     		ldr	r3, .L140+12
 1218 006c 2B60     		str	r3, [r5]	@ float
 352:Drivers/BSP/Components/iis2dlpc/iis2dlpc.c **** 
 1219              		.loc 1 352 11 is_stmt 1 view .LVU316
 1220 006e ECE7     		b	.L120
 1221              	.L125:
 355:Drivers/BSP/Components/iis2dlpc/iis2dlpc.c ****           break;
 1222              		.loc 1 355 11 view .LVU317
 355:Drivers/BSP/Components/iis2dlpc/iis2dlpc.c ****           break;
 1223              		.loc 1 355 24 is_stmt 0 view .LVU318
 1224 0070 174B     		ldr	r3, .L140+16
 1225 0072 2B60     		str	r3, [r5]	@ float
 356:Drivers/BSP/Components/iis2dlpc/iis2dlpc.c **** 
 1226              		.loc 1 356 11 is_stmt 1 view .LVU319
 1227 0074 E9E7     		b	.L120
 1228              	.L124:
 359:Drivers/BSP/Components/iis2dlpc/iis2dlpc.c ****           ret = IIS2DLPC_ERROR;
 1229              		.loc 1 359 11 view .LVU320
 359:Drivers/BSP/Components/iis2dlpc/iis2dlpc.c ****           ret = IIS2DLPC_ERROR;
 1230              		.loc 1 359 24 is_stmt 0 view .LVU321
 1231 0076 124B     		ldr	r3, .L140
 1232 0078 2B60     		str	r3, [r5]	@ float
 360:Drivers/BSP/Components/iis2dlpc/iis2dlpc.c ****           break;
 1233              		.loc 1 360 11 is_stmt 1 view .LVU322
 1234              	.LVL105:
 361:Drivers/BSP/Components/iis2dlpc/iis2dlpc.c ****       }
 1235              		.loc 1 361 11 view .LVU323
 360:Drivers/BSP/Components/iis2dlpc/iis2dlpc.c ****           break;
 1236              		.loc 1 360 15 is_stmt 0 view .LVU324
 1237 007a 4FF0FF30 		mov	r0, #-1
 361:Drivers/BSP/Components/iis2dlpc/iis2dlpc.c ****       }
 1238              		.loc 1 361 11 view .LVU325
 1239 007e E4E7     		b	.L120
 1240              	.LVL106:
 1241              	.L123:
 379:Drivers/BSP/Components/iis2dlpc/iis2dlpc.c ****       {
 1242              		.loc 1 379 7 is_stmt 1 view .LVU326
 1243 0080 9DF80730 		ldrb	r3, [sp, #7]	@ zero_extendqisi2
 1244 0084 032B     		cmp	r3, #3
 1245 0086 0FD8     		bhi	.L130
 1246 0088 DFE803F0 		tbb	[pc, r3]
 1247              	.L132:
 1248 008c 02       		.byte	(.L135-.L132)/2
 1249 008d 05       		.byte	(.L134-.L132)/2
 1250 008e 08       		.byte	(.L133-.L132)/2
 1251 008f 0B       		.byte	(.L131-.L132)/2
 1252              		.p2align 1
 1253              	.L135:
 382:Drivers/BSP/Components/iis2dlpc/iis2dlpc.c ****           break;
 1254              		.loc 1 382 11 view .LVU327
 382:Drivers/BSP/Components/iis2dlpc/iis2dlpc.c ****           break;
 1255              		.loc 1 382 24 is_stmt 0 view .LVU328
 1256 0090 104B     		ldr	r3, .L140+20
 1257 0092 2B60     		str	r3, [r5]	@ float
 383:Drivers/BSP/Components/iis2dlpc/iis2dlpc.c **** 
ARM GAS  C:\Temp\ccFHAvpx.s 			page 46


 1258              		.loc 1 383 11 is_stmt 1 view .LVU329
 1259 0094 D9E7     		b	.L120
 1260              	.L134:
 386:Drivers/BSP/Components/iis2dlpc/iis2dlpc.c ****           break;
 1261              		.loc 1 386 11 view .LVU330
 386:Drivers/BSP/Components/iis2dlpc/iis2dlpc.c ****           break;
 1262              		.loc 1 386 24 is_stmt 0 view .LVU331
 1263 0096 104B     		ldr	r3, .L140+24
 1264 0098 2B60     		str	r3, [r5]	@ float
 387:Drivers/BSP/Components/iis2dlpc/iis2dlpc.c **** 
 1265              		.loc 1 387 11 is_stmt 1 view .LVU332
 1266 009a D6E7     		b	.L120
 1267              	.L133:
 390:Drivers/BSP/Components/iis2dlpc/iis2dlpc.c ****           break;
 1268              		.loc 1 390 11 view .LVU333
 390:Drivers/BSP/Components/iis2dlpc/iis2dlpc.c ****           break;
 1269              		.loc 1 390 24 is_stmt 0 view .LVU334
 1270 009c 094B     		ldr	r3, .L140+4
 1271 009e 2B60     		str	r3, [r5]	@ float
 391:Drivers/BSP/Components/iis2dlpc/iis2dlpc.c **** 
 1272              		.loc 1 391 11 is_stmt 1 view .LVU335
 1273 00a0 D3E7     		b	.L120
 1274              	.L131:
 394:Drivers/BSP/Components/iis2dlpc/iis2dlpc.c ****           break;
 1275              		.loc 1 394 11 view .LVU336
 394:Drivers/BSP/Components/iis2dlpc/iis2dlpc.c ****           break;
 1276              		.loc 1 394 24 is_stmt 0 view .LVU337
 1277 00a2 094B     		ldr	r3, .L140+8
 1278 00a4 2B60     		str	r3, [r5]	@ float
 395:Drivers/BSP/Components/iis2dlpc/iis2dlpc.c **** 
 1279              		.loc 1 395 11 is_stmt 1 view .LVU338
 1280 00a6 D0E7     		b	.L120
 1281              	.L130:
 398:Drivers/BSP/Components/iis2dlpc/iis2dlpc.c ****           ret = IIS2DLPC_ERROR;
 1282              		.loc 1 398 11 view .LVU339
 398:Drivers/BSP/Components/iis2dlpc/iis2dlpc.c ****           ret = IIS2DLPC_ERROR;
 1283              		.loc 1 398 24 is_stmt 0 view .LVU340
 1284 00a8 054B     		ldr	r3, .L140
 1285 00aa 2B60     		str	r3, [r5]	@ float
 399:Drivers/BSP/Components/iis2dlpc/iis2dlpc.c ****           break;
 1286              		.loc 1 399 11 is_stmt 1 view .LVU341
 1287              	.LVL107:
 400:Drivers/BSP/Components/iis2dlpc/iis2dlpc.c ****       }
 1288              		.loc 1 400 11 view .LVU342
 399:Drivers/BSP/Components/iis2dlpc/iis2dlpc.c ****           break;
 1289              		.loc 1 399 15 is_stmt 0 view .LVU343
 1290 00ac 4FF0FF30 		mov	r0, #-1
 400:Drivers/BSP/Components/iis2dlpc/iis2dlpc.c ****       }
 1291              		.loc 1 400 11 view .LVU344
 1292 00b0 CBE7     		b	.L120
 1293              	.LVL108:
 1294              	.L136:
 325:Drivers/BSP/Components/iis2dlpc/iis2dlpc.c ****   }
 1295              		.loc 1 325 12 view .LVU345
 1296 00b2 4FF0FF30 		mov	r0, #-1
 1297 00b6 C8E7     		b	.L120
 1298              	.L137:
ARM GAS  C:\Temp\ccFHAvpx.s 			page 47


 331:Drivers/BSP/Components/iis2dlpc/iis2dlpc.c ****   }
 1299              		.loc 1 331 12 view .LVU346
 1300 00b8 4FF0FF30 		mov	r0, #-1
 1301              	.LVL109:
 331:Drivers/BSP/Components/iis2dlpc/iis2dlpc.c ****   }
 1302              		.loc 1 331 12 view .LVU347
 1303 00bc C5E7     		b	.L120
 1304              	.L141:
 1305 00be 00BF     		.align	2
 1306              	.L140:
 1307 00c0 000080BF 		.word	-1082130432
 1308 00c4 23DB793F 		.word	1064950563
 1309 00c8 23DBF93F 		.word	1073339171
 1310 00cc 23DB7940 		.word	1081727779
 1311 00d0 23DBF940 		.word	1090116387
 1312 00d4 23DB793E 		.word	1048173347
 1313 00d8 23DBF93E 		.word	1056561955
 1314              		.cfi_endproc
 1315              	.LFE7:
 1317              		.section	.text.IIS2DLPC_ACC_GetOutputDataRate,"ax",%progbits
 1318              		.align	1
 1319              		.global	IIS2DLPC_ACC_GetOutputDataRate
 1320              		.syntax unified
 1321              		.thumb
 1322              		.thumb_func
 1324              	IIS2DLPC_ACC_GetOutputDataRate:
 1325              	.LVL110:
 1326              	.LFB8:
 420:Drivers/BSP/Components/iis2dlpc/iis2dlpc.c ****   int32_t ret = IIS2DLPC_OK;
 1327              		.loc 1 420 1 is_stmt 1 view -0
 1328              		.cfi_startproc
 1329              		@ args = 0, pretend = 0, frame = 8
 1330              		@ frame_needed = 0, uses_anonymous_args = 0
 420:Drivers/BSP/Components/iis2dlpc/iis2dlpc.c ****   int32_t ret = IIS2DLPC_OK;
 1331              		.loc 1 420 1 is_stmt 0 view .LVU349
 1332 0000 30B5     		push	{r4, r5, lr}
 1333              		.cfi_def_cfa_offset 12
 1334              		.cfi_offset 4, -12
 1335              		.cfi_offset 5, -8
 1336              		.cfi_offset 14, -4
 1337 0002 83B0     		sub	sp, sp, #12
 1338              		.cfi_def_cfa_offset 24
 1339 0004 0D46     		mov	r5, r1
 421:Drivers/BSP/Components/iis2dlpc/iis2dlpc.c ****   iis2dlpc_odr_t odr_low_level;
 1340              		.loc 1 421 3 is_stmt 1 view .LVU350
 1341              	.LVL111:
 422:Drivers/BSP/Components/iis2dlpc/iis2dlpc.c ****   iis2dlpc_mode_t mode;
 1342              		.loc 1 422 3 view .LVU351
 423:Drivers/BSP/Components/iis2dlpc/iis2dlpc.c **** 
 1343              		.loc 1 423 3 view .LVU352
 426:Drivers/BSP/Components/iis2dlpc/iis2dlpc.c ****   {
 1344              		.loc 1 426 3 view .LVU353
 426:Drivers/BSP/Components/iis2dlpc/iis2dlpc.c ****   {
 1345              		.loc 1 426 7 is_stmt 0 view .LVU354
 1346 0006 00F12004 		add	r4, r0, #32
 1347 000a 0DF10701 		add	r1, sp, #7
 1348              	.LVL112:
ARM GAS  C:\Temp\ccFHAvpx.s 			page 48


 426:Drivers/BSP/Components/iis2dlpc/iis2dlpc.c ****   {
 1349              		.loc 1 426 7 view .LVU355
 1350 000e 2046     		mov	r0, r4
 1351              	.LVL113:
 426:Drivers/BSP/Components/iis2dlpc/iis2dlpc.c ****   {
 1352              		.loc 1 426 7 view .LVU356
 1353 0010 FFF7FEFF 		bl	iis2dlpc_data_rate_get
 1354              	.LVL114:
 426:Drivers/BSP/Components/iis2dlpc/iis2dlpc.c ****   {
 1355              		.loc 1 426 6 view .LVU357
 1356 0014 0028     		cmp	r0, #0
 1357 0016 40F09580 		bne	.L164
 432:Drivers/BSP/Components/iis2dlpc/iis2dlpc.c ****   {
 1358              		.loc 1 432 3 is_stmt 1 view .LVU358
 432:Drivers/BSP/Components/iis2dlpc/iis2dlpc.c ****   {
 1359              		.loc 1 432 7 is_stmt 0 view .LVU359
 1360 001a 0DF10601 		add	r1, sp, #6
 1361 001e 2046     		mov	r0, r4
 1362 0020 FFF7FEFF 		bl	iis2dlpc_power_mode_get
 1363              	.LVL115:
 432:Drivers/BSP/Components/iis2dlpc/iis2dlpc.c ****   {
 1364              		.loc 1 432 6 view .LVU360
 1365 0024 0028     		cmp	r0, #0
 1366 0026 40F09080 		bne	.L165
 437:Drivers/BSP/Components/iis2dlpc/iis2dlpc.c ****   {
 1367              		.loc 1 437 3 is_stmt 1 view .LVU361
 1368 002a 9DF80730 		ldrb	r3, [sp, #7]	@ zero_extendqisi2
 1369 002e 222B     		cmp	r3, #34
 1370 0030 00F28380 		bhi	.L144
 1371 0034 DFE803F0 		tbb	[pc, r3]
 1372              	.L146:
 1373 0038 12       		.byte	(.L145-.L146)/2
 1374 0039 16       		.byte	(.L155-.L146)/2
 1375 003a 2D       		.byte	(.L154-.L146)/2
 1376 003b 30       		.byte	(.L153-.L146)/2
 1377 003c 33       		.byte	(.L152-.L146)/2
 1378 003d 36       		.byte	(.L151-.L146)/2
 1379 003e 39       		.byte	(.L150-.L146)/2
 1380 003f 3C       		.byte	(.L149-.L146)/2
 1381 0040 53       		.byte	(.L148-.L146)/2
 1382 0041 6A       		.byte	(.L147-.L146)/2
 1383 0042 81       		.byte	(.L144-.L146)/2
 1384 0043 81       		.byte	(.L144-.L146)/2
 1385 0044 81       		.byte	(.L144-.L146)/2
 1386 0045 81       		.byte	(.L144-.L146)/2
 1387 0046 81       		.byte	(.L144-.L146)/2
 1388 0047 81       		.byte	(.L144-.L146)/2
 1389 0048 81       		.byte	(.L144-.L146)/2
 1390 0049 81       		.byte	(.L144-.L146)/2
 1391 004a 12       		.byte	(.L145-.L146)/2
 1392 004b 81       		.byte	(.L144-.L146)/2
 1393 004c 81       		.byte	(.L144-.L146)/2
 1394 004d 81       		.byte	(.L144-.L146)/2
 1395 004e 81       		.byte	(.L144-.L146)/2
 1396 004f 81       		.byte	(.L144-.L146)/2
 1397 0050 81       		.byte	(.L144-.L146)/2
 1398 0051 81       		.byte	(.L144-.L146)/2
ARM GAS  C:\Temp\ccFHAvpx.s 			page 49


 1399 0052 81       		.byte	(.L144-.L146)/2
 1400 0053 81       		.byte	(.L144-.L146)/2
 1401 0054 81       		.byte	(.L144-.L146)/2
 1402 0055 81       		.byte	(.L144-.L146)/2
 1403 0056 81       		.byte	(.L144-.L146)/2
 1404 0057 81       		.byte	(.L144-.L146)/2
 1405 0058 81       		.byte	(.L144-.L146)/2
 1406 0059 81       		.byte	(.L144-.L146)/2
 1407 005a 12       		.byte	(.L145-.L146)/2
 1408 005b 00       		.p2align 1
 1409              	.L145:
 442:Drivers/BSP/Components/iis2dlpc/iis2dlpc.c ****       break;
 1410              		.loc 1 442 7 view .LVU362
 442:Drivers/BSP/Components/iis2dlpc/iis2dlpc.c ****       break;
 1411              		.loc 1 442 12 is_stmt 0 view .LVU363
 1412 005c 0023     		movs	r3, #0
 1413 005e 2B60     		str	r3, [r5]	@ float
 443:Drivers/BSP/Components/iis2dlpc/iis2dlpc.c **** 
 1414              		.loc 1 443 7 is_stmt 1 view .LVU364
 1415              	.LVL116:
 1416              	.L142:
 608:Drivers/BSP/Components/iis2dlpc/iis2dlpc.c **** 
 1417              		.loc 1 608 1 is_stmt 0 view .LVU365
 1418 0060 03B0     		add	sp, sp, #12
 1419              		.cfi_remember_state
 1420              		.cfi_def_cfa_offset 12
 1421              		@ sp needed
 1422 0062 30BD     		pop	{r4, r5, pc}
 1423              	.LVL117:
 1424              	.L155:
 1425              		.cfi_restore_state
 446:Drivers/BSP/Components/iis2dlpc/iis2dlpc.c ****       {
 1426              		.loc 1 446 7 is_stmt 1 view .LVU366
 1427 0064 9DF80620 		ldrb	r2, [sp, #6]	@ zero_extendqisi2
 1428 0068 1B2A     		cmp	r2, #27
 1429 006a 0AD8     		bhi	.L156
 1430 006c 0123     		movs	r3, #1
 1431 006e 9340     		lsls	r3, r3, r2
 1432 0070 13F00F3F 		tst	r3, #252645135
 1433 0074 02D0     		beq	.L167
 469:Drivers/BSP/Components/iis2dlpc/iis2dlpc.c ****           break;
 1434              		.loc 1 469 11 view .LVU367
 469:Drivers/BSP/Components/iis2dlpc/iis2dlpc.c ****           break;
 1435              		.loc 1 469 16 is_stmt 0 view .LVU368
 1436 0076 364B     		ldr	r3, .L175
 1437 0078 2B60     		str	r3, [r5]	@ float
 470:Drivers/BSP/Components/iis2dlpc/iis2dlpc.c **** 
 1438              		.loc 1 470 11 is_stmt 1 view .LVU369
 1439 007a F1E7     		b	.L142
 1440              	.L167:
 470:Drivers/BSP/Components/iis2dlpc/iis2dlpc.c **** 
 1441              		.loc 1 470 11 is_stmt 0 view .LVU370
 1442 007c 13F0101F 		tst	r3, #1048592
 1443 0080 04D1     		bne	.L168
 1444              	.L156:
 473:Drivers/BSP/Components/iis2dlpc/iis2dlpc.c ****           ret = IIS2DLPC_ERROR;
 1445              		.loc 1 473 11 is_stmt 1 view .LVU371
ARM GAS  C:\Temp\ccFHAvpx.s 			page 50


 473:Drivers/BSP/Components/iis2dlpc/iis2dlpc.c ****           ret = IIS2DLPC_ERROR;
 1446              		.loc 1 473 16 is_stmt 0 view .LVU372
 1447 0082 344B     		ldr	r3, .L175+4
 1448 0084 2B60     		str	r3, [r5]	@ float
 474:Drivers/BSP/Components/iis2dlpc/iis2dlpc.c ****           break;
 1449              		.loc 1 474 11 is_stmt 1 view .LVU373
 1450              	.LVL118:
 475:Drivers/BSP/Components/iis2dlpc/iis2dlpc.c ****       }
 1451              		.loc 1 475 11 view .LVU374
 474:Drivers/BSP/Components/iis2dlpc/iis2dlpc.c ****           break;
 1452              		.loc 1 474 15 is_stmt 0 view .LVU375
 1453 0086 4FF0FF30 		mov	r0, #-1
 475:Drivers/BSP/Components/iis2dlpc/iis2dlpc.c ****       }
 1454              		.loc 1 475 11 view .LVU376
 1455 008a E9E7     		b	.L142
 1456              	.LVL119:
 1457              	.L168:
 450:Drivers/BSP/Components/iis2dlpc/iis2dlpc.c ****           break;
 1458              		.loc 1 450 11 is_stmt 1 view .LVU377
 450:Drivers/BSP/Components/iis2dlpc/iis2dlpc.c ****           break;
 1459              		.loc 1 450 16 is_stmt 0 view .LVU378
 1460 008c 324B     		ldr	r3, .L175+8
 1461 008e 2B60     		str	r3, [r5]	@ float
 451:Drivers/BSP/Components/iis2dlpc/iis2dlpc.c **** 
 1462              		.loc 1 451 11 is_stmt 1 view .LVU379
 1463 0090 E6E7     		b	.L142
 1464              	.L154:
 480:Drivers/BSP/Components/iis2dlpc/iis2dlpc.c ****       break;
 1465              		.loc 1 480 7 view .LVU380
 480:Drivers/BSP/Components/iis2dlpc/iis2dlpc.c ****       break;
 1466              		.loc 1 480 12 is_stmt 0 view .LVU381
 1467 0092 314B     		ldr	r3, .L175+8
 1468 0094 2B60     		str	r3, [r5]	@ float
 481:Drivers/BSP/Components/iis2dlpc/iis2dlpc.c **** 
 1469              		.loc 1 481 7 is_stmt 1 view .LVU382
 1470 0096 E3E7     		b	.L142
 1471              	.L153:
 484:Drivers/BSP/Components/iis2dlpc/iis2dlpc.c ****       break;
 1472              		.loc 1 484 7 view .LVU383
 484:Drivers/BSP/Components/iis2dlpc/iis2dlpc.c ****       break;
 1473              		.loc 1 484 12 is_stmt 0 view .LVU384
 1474 0098 304B     		ldr	r3, .L175+12
 1475 009a 2B60     		str	r3, [r5]	@ float
 485:Drivers/BSP/Components/iis2dlpc/iis2dlpc.c **** 
 1476              		.loc 1 485 7 is_stmt 1 view .LVU385
 1477 009c E0E7     		b	.L142
 1478              	.L152:
 488:Drivers/BSP/Components/iis2dlpc/iis2dlpc.c ****       break;
 1479              		.loc 1 488 7 view .LVU386
 488:Drivers/BSP/Components/iis2dlpc/iis2dlpc.c ****       break;
 1480              		.loc 1 488 12 is_stmt 0 view .LVU387
 1481 009e 304B     		ldr	r3, .L175+16
 1482 00a0 2B60     		str	r3, [r5]	@ float
 489:Drivers/BSP/Components/iis2dlpc/iis2dlpc.c **** 
 1483              		.loc 1 489 7 is_stmt 1 view .LVU388
 1484 00a2 DDE7     		b	.L142
 1485              	.L151:
ARM GAS  C:\Temp\ccFHAvpx.s 			page 51


 492:Drivers/BSP/Components/iis2dlpc/iis2dlpc.c ****       break;
 1486              		.loc 1 492 7 view .LVU389
 492:Drivers/BSP/Components/iis2dlpc/iis2dlpc.c ****       break;
 1487              		.loc 1 492 12 is_stmt 0 view .LVU390
 1488 00a4 2F4B     		ldr	r3, .L175+20
 1489 00a6 2B60     		str	r3, [r5]	@ float
 493:Drivers/BSP/Components/iis2dlpc/iis2dlpc.c **** 
 1490              		.loc 1 493 7 is_stmt 1 view .LVU391
 1491 00a8 DAE7     		b	.L142
 1492              	.L150:
 496:Drivers/BSP/Components/iis2dlpc/iis2dlpc.c ****       break;
 1493              		.loc 1 496 7 view .LVU392
 496:Drivers/BSP/Components/iis2dlpc/iis2dlpc.c ****       break;
 1494              		.loc 1 496 12 is_stmt 0 view .LVU393
 1495 00aa 2F4B     		ldr	r3, .L175+24
 1496 00ac 2B60     		str	r3, [r5]	@ float
 497:Drivers/BSP/Components/iis2dlpc/iis2dlpc.c **** 
 1497              		.loc 1 497 7 is_stmt 1 view .LVU394
 1498 00ae D7E7     		b	.L142
 1499              	.L149:
 500:Drivers/BSP/Components/iis2dlpc/iis2dlpc.c ****       {
 1500              		.loc 1 500 7 view .LVU395
 1501 00b0 9DF80620 		ldrb	r2, [sp, #6]	@ zero_extendqisi2
 1502 00b4 1B2A     		cmp	r2, #27
 1503 00b6 0AD8     		bhi	.L158
 1504 00b8 0123     		movs	r3, #1
 1505 00ba 9340     		lsls	r3, r3, r2
 1506 00bc 13F00F3F 		tst	r3, #252645135
 1507 00c0 02D0     		beq	.L169
 523:Drivers/BSP/Components/iis2dlpc/iis2dlpc.c ****           break;
 1508              		.loc 1 523 11 view .LVU396
 523:Drivers/BSP/Components/iis2dlpc/iis2dlpc.c ****           break;
 1509              		.loc 1 523 16 is_stmt 0 view .LVU397
 1510 00c2 294B     		ldr	r3, .L175+24
 1511 00c4 2B60     		str	r3, [r5]	@ float
 524:Drivers/BSP/Components/iis2dlpc/iis2dlpc.c **** 
 1512              		.loc 1 524 11 is_stmt 1 view .LVU398
 1513 00c6 CBE7     		b	.L142
 1514              	.L169:
 524:Drivers/BSP/Components/iis2dlpc/iis2dlpc.c **** 
 1515              		.loc 1 524 11 is_stmt 0 view .LVU399
 1516 00c8 13F0101F 		tst	r3, #1048592
 1517 00cc 04D1     		bne	.L170
 1518              	.L158:
 527:Drivers/BSP/Components/iis2dlpc/iis2dlpc.c ****           ret = IIS2DLPC_ERROR;
 1519              		.loc 1 527 11 is_stmt 1 view .LVU400
 527:Drivers/BSP/Components/iis2dlpc/iis2dlpc.c ****           ret = IIS2DLPC_ERROR;
 1520              		.loc 1 527 16 is_stmt 0 view .LVU401
 1521 00ce 214B     		ldr	r3, .L175+4
 1522 00d0 2B60     		str	r3, [r5]	@ float
 528:Drivers/BSP/Components/iis2dlpc/iis2dlpc.c ****           break;
 1523              		.loc 1 528 11 is_stmt 1 view .LVU402
 1524              	.LVL120:
 529:Drivers/BSP/Components/iis2dlpc/iis2dlpc.c ****       }
 1525              		.loc 1 529 11 view .LVU403
 528:Drivers/BSP/Components/iis2dlpc/iis2dlpc.c ****           break;
 1526              		.loc 1 528 15 is_stmt 0 view .LVU404
ARM GAS  C:\Temp\ccFHAvpx.s 			page 52


 1527 00d2 4FF0FF30 		mov	r0, #-1
 529:Drivers/BSP/Components/iis2dlpc/iis2dlpc.c ****       }
 1528              		.loc 1 529 11 view .LVU405
 1529 00d6 C3E7     		b	.L142
 1530              	.LVL121:
 1531              	.L170:
 504:Drivers/BSP/Components/iis2dlpc/iis2dlpc.c ****           break;
 1532              		.loc 1 504 11 is_stmt 1 view .LVU406
 504:Drivers/BSP/Components/iis2dlpc/iis2dlpc.c ****           break;
 1533              		.loc 1 504 16 is_stmt 0 view .LVU407
 1534 00d8 244B     		ldr	r3, .L175+28
 1535 00da 2B60     		str	r3, [r5]	@ float
 505:Drivers/BSP/Components/iis2dlpc/iis2dlpc.c **** 
 1536              		.loc 1 505 11 is_stmt 1 view .LVU408
 1537 00dc C0E7     		b	.L142
 1538              	.L148:
 534:Drivers/BSP/Components/iis2dlpc/iis2dlpc.c ****       {
 1539              		.loc 1 534 7 view .LVU409
 1540 00de 9DF80620 		ldrb	r2, [sp, #6]	@ zero_extendqisi2
 1541 00e2 1B2A     		cmp	r2, #27
 1542 00e4 0AD8     		bhi	.L160
 1543 00e6 0123     		movs	r3, #1
 1544 00e8 9340     		lsls	r3, r3, r2
 1545 00ea 13F00F3F 		tst	r3, #252645135
 1546 00ee 02D0     		beq	.L171
 557:Drivers/BSP/Components/iis2dlpc/iis2dlpc.c ****           break;
 1547              		.loc 1 557 11 view .LVU410
 557:Drivers/BSP/Components/iis2dlpc/iis2dlpc.c ****           break;
 1548              		.loc 1 557 16 is_stmt 0 view .LVU411
 1549 00f0 1D4B     		ldr	r3, .L175+24
 1550 00f2 2B60     		str	r3, [r5]	@ float
 558:Drivers/BSP/Components/iis2dlpc/iis2dlpc.c **** 
 1551              		.loc 1 558 11 is_stmt 1 view .LVU412
 1552 00f4 B4E7     		b	.L142
 1553              	.L171:
 558:Drivers/BSP/Components/iis2dlpc/iis2dlpc.c **** 
 1554              		.loc 1 558 11 is_stmt 0 view .LVU413
 1555 00f6 13F0101F 		tst	r3, #1048592
 1556 00fa 04D1     		bne	.L172
 1557              	.L160:
 561:Drivers/BSP/Components/iis2dlpc/iis2dlpc.c ****           ret = IIS2DLPC_ERROR;
 1558              		.loc 1 561 11 is_stmt 1 view .LVU414
 561:Drivers/BSP/Components/iis2dlpc/iis2dlpc.c ****           ret = IIS2DLPC_ERROR;
 1559              		.loc 1 561 16 is_stmt 0 view .LVU415
 1560 00fc 154B     		ldr	r3, .L175+4
 1561 00fe 2B60     		str	r3, [r5]	@ float
 562:Drivers/BSP/Components/iis2dlpc/iis2dlpc.c ****           break;
 1562              		.loc 1 562 11 is_stmt 1 view .LVU416
 1563              	.LVL122:
 563:Drivers/BSP/Components/iis2dlpc/iis2dlpc.c ****       }
 1564              		.loc 1 563 11 view .LVU417
 562:Drivers/BSP/Components/iis2dlpc/iis2dlpc.c ****           break;
 1565              		.loc 1 562 15 is_stmt 0 view .LVU418
 1566 0100 4FF0FF30 		mov	r0, #-1
 563:Drivers/BSP/Components/iis2dlpc/iis2dlpc.c ****       }
 1567              		.loc 1 563 11 view .LVU419
 1568 0104 ACE7     		b	.L142
ARM GAS  C:\Temp\ccFHAvpx.s 			page 53


 1569              	.LVL123:
 1570              	.L172:
 538:Drivers/BSP/Components/iis2dlpc/iis2dlpc.c ****           break;
 1571              		.loc 1 538 11 is_stmt 1 view .LVU420
 538:Drivers/BSP/Components/iis2dlpc/iis2dlpc.c ****           break;
 1572              		.loc 1 538 16 is_stmt 0 view .LVU421
 1573 0106 1A4B     		ldr	r3, .L175+32
 1574 0108 2B60     		str	r3, [r5]	@ float
 539:Drivers/BSP/Components/iis2dlpc/iis2dlpc.c **** 
 1575              		.loc 1 539 11 is_stmt 1 view .LVU422
 1576 010a A9E7     		b	.L142
 1577              	.L147:
 568:Drivers/BSP/Components/iis2dlpc/iis2dlpc.c ****       {
 1578              		.loc 1 568 7 view .LVU423
 1579 010c 9DF80620 		ldrb	r2, [sp, #6]	@ zero_extendqisi2
 1580 0110 1B2A     		cmp	r2, #27
 1581 0112 0AD8     		bhi	.L162
 1582 0114 0123     		movs	r3, #1
 1583 0116 9340     		lsls	r3, r3, r2
 1584 0118 13F00F3F 		tst	r3, #252645135
 1585 011c 02D0     		beq	.L173
 591:Drivers/BSP/Components/iis2dlpc/iis2dlpc.c ****           break;
 1586              		.loc 1 591 11 view .LVU424
 591:Drivers/BSP/Components/iis2dlpc/iis2dlpc.c ****           break;
 1587              		.loc 1 591 16 is_stmt 0 view .LVU425
 1588 011e 124B     		ldr	r3, .L175+24
 1589 0120 2B60     		str	r3, [r5]	@ float
 592:Drivers/BSP/Components/iis2dlpc/iis2dlpc.c **** 
 1590              		.loc 1 592 11 is_stmt 1 view .LVU426
 1591 0122 9DE7     		b	.L142
 1592              	.L173:
 592:Drivers/BSP/Components/iis2dlpc/iis2dlpc.c **** 
 1593              		.loc 1 592 11 is_stmt 0 view .LVU427
 1594 0124 13F0101F 		tst	r3, #1048592
 1595 0128 04D1     		bne	.L174
 1596              	.L162:
 595:Drivers/BSP/Components/iis2dlpc/iis2dlpc.c ****           ret = IIS2DLPC_ERROR;
 1597              		.loc 1 595 11 is_stmt 1 view .LVU428
 595:Drivers/BSP/Components/iis2dlpc/iis2dlpc.c ****           ret = IIS2DLPC_ERROR;
 1598              		.loc 1 595 16 is_stmt 0 view .LVU429
 1599 012a 0A4B     		ldr	r3, .L175+4
 1600 012c 2B60     		str	r3, [r5]	@ float
 596:Drivers/BSP/Components/iis2dlpc/iis2dlpc.c ****           break;
 1601              		.loc 1 596 11 is_stmt 1 view .LVU430
 1602              	.LVL124:
 597:Drivers/BSP/Components/iis2dlpc/iis2dlpc.c ****       }
 1603              		.loc 1 597 11 view .LVU431
 596:Drivers/BSP/Components/iis2dlpc/iis2dlpc.c ****           break;
 1604              		.loc 1 596 15 is_stmt 0 view .LVU432
 1605 012e 4FF0FF30 		mov	r0, #-1
 597:Drivers/BSP/Components/iis2dlpc/iis2dlpc.c ****       }
 1606              		.loc 1 597 11 view .LVU433
 1607 0132 95E7     		b	.L142
 1608              	.LVL125:
 1609              	.L174:
 572:Drivers/BSP/Components/iis2dlpc/iis2dlpc.c ****           break;
 1610              		.loc 1 572 11 is_stmt 1 view .LVU434
ARM GAS  C:\Temp\ccFHAvpx.s 			page 54


 572:Drivers/BSP/Components/iis2dlpc/iis2dlpc.c ****           break;
 1611              		.loc 1 572 16 is_stmt 0 view .LVU435
 1612 0134 0F4B     		ldr	r3, .L175+36
 1613 0136 2B60     		str	r3, [r5]	@ float
 573:Drivers/BSP/Components/iis2dlpc/iis2dlpc.c **** 
 1614              		.loc 1 573 11 is_stmt 1 view .LVU436
 1615 0138 92E7     		b	.L142
 1616              	.L144:
 602:Drivers/BSP/Components/iis2dlpc/iis2dlpc.c ****       ret = IIS2DLPC_ERROR;
 1617              		.loc 1 602 7 view .LVU437
 602:Drivers/BSP/Components/iis2dlpc/iis2dlpc.c ****       ret = IIS2DLPC_ERROR;
 1618              		.loc 1 602 12 is_stmt 0 view .LVU438
 1619 013a 064B     		ldr	r3, .L175+4
 1620 013c 2B60     		str	r3, [r5]	@ float
 603:Drivers/BSP/Components/iis2dlpc/iis2dlpc.c ****       break;
 1621              		.loc 1 603 7 is_stmt 1 view .LVU439
 1622              	.LVL126:
 604:Drivers/BSP/Components/iis2dlpc/iis2dlpc.c ****   }
 1623              		.loc 1 604 7 view .LVU440
 603:Drivers/BSP/Components/iis2dlpc/iis2dlpc.c ****       break;
 1624              		.loc 1 603 11 is_stmt 0 view .LVU441
 1625 013e 4FF0FF30 		mov	r0, #-1
 604:Drivers/BSP/Components/iis2dlpc/iis2dlpc.c ****   }
 1626              		.loc 1 604 7 view .LVU442
 1627 0142 8DE7     		b	.L142
 1628              	.LVL127:
 1629              	.L164:
 428:Drivers/BSP/Components/iis2dlpc/iis2dlpc.c ****   }
 1630              		.loc 1 428 12 view .LVU443
 1631 0144 4FF0FF30 		mov	r0, #-1
 1632 0148 8AE7     		b	.L142
 1633              	.L165:
 434:Drivers/BSP/Components/iis2dlpc/iis2dlpc.c ****   }
 1634              		.loc 1 434 12 view .LVU444
 1635 014a 4FF0FF30 		mov	r0, #-1
 1636              	.LVL128:
 434:Drivers/BSP/Components/iis2dlpc/iis2dlpc.c ****   }
 1637              		.loc 1 434 12 view .LVU445
 1638 014e 87E7     		b	.L142
 1639              	.L176:
 1640              		.align	2
 1641              	.L175:
 1642 0150 CDCCCC3F 		.word	1070386381
 1643 0154 000080BF 		.word	-1082130432
 1644 0158 00004841 		.word	1095237632
 1645 015c 0000C841 		.word	1103626240
 1646 0160 00004842 		.word	1112014848
 1647 0164 0000C842 		.word	1120403456
 1648 0168 00004843 		.word	1128792064
 1649 016c 0000C843 		.word	1137180672
 1650 0170 00004844 		.word	1145569280
 1651 0174 0000C844 		.word	1153957888
 1652              		.cfi_endproc
 1653              	.LFE8:
 1655              		.section	.text.IIS2DLPC_ACC_GetAxesRaw,"ax",%progbits
 1656              		.align	1
 1657              		.global	IIS2DLPC_ACC_GetAxesRaw
ARM GAS  C:\Temp\ccFHAvpx.s 			page 55


 1658              		.syntax unified
 1659              		.thumb
 1660              		.thumb_func
 1662              	IIS2DLPC_ACC_GetAxesRaw:
 1663              	.LVL129:
 1664              	.LFB13:
 720:Drivers/BSP/Components/iis2dlpc/iis2dlpc.c ****   iis2dlpc_axis3bit16_t data_raw;
 1665              		.loc 1 720 1 is_stmt 1 view -0
 1666              		.cfi_startproc
 1667              		@ args = 0, pretend = 0, frame = 16
 1668              		@ frame_needed = 0, uses_anonymous_args = 0
 720:Drivers/BSP/Components/iis2dlpc/iis2dlpc.c ****   iis2dlpc_axis3bit16_t data_raw;
 1669              		.loc 1 720 1 is_stmt 0 view .LVU447
 1670 0000 30B5     		push	{r4, r5, lr}
 1671              		.cfi_def_cfa_offset 12
 1672              		.cfi_offset 4, -12
 1673              		.cfi_offset 5, -8
 1674              		.cfi_offset 14, -4
 1675 0002 85B0     		sub	sp, sp, #20
 1676              		.cfi_def_cfa_offset 32
 1677 0004 0D46     		mov	r5, r1
 721:Drivers/BSP/Components/iis2dlpc/iis2dlpc.c ****   iis2dlpc_mode_t mode;
 1678              		.loc 1 721 3 is_stmt 1 view .LVU448
 722:Drivers/BSP/Components/iis2dlpc/iis2dlpc.c ****   int32_t ret = IIS2DLPC_OK;
 1679              		.loc 1 722 3 view .LVU449
 723:Drivers/BSP/Components/iis2dlpc/iis2dlpc.c **** 
 1680              		.loc 1 723 3 view .LVU450
 1681              	.LVL130:
 726:Drivers/BSP/Components/iis2dlpc/iis2dlpc.c ****   {
 1682              		.loc 1 726 3 view .LVU451
 726:Drivers/BSP/Components/iis2dlpc/iis2dlpc.c ****   {
 1683              		.loc 1 726 7 is_stmt 0 view .LVU452
 1684 0006 00F12004 		add	r4, r0, #32
 1685 000a 0DF10701 		add	r1, sp, #7
 1686              	.LVL131:
 726:Drivers/BSP/Components/iis2dlpc/iis2dlpc.c ****   {
 1687              		.loc 1 726 7 view .LVU453
 1688 000e 2046     		mov	r0, r4
 1689              	.LVL132:
 726:Drivers/BSP/Components/iis2dlpc/iis2dlpc.c ****   {
 1690              		.loc 1 726 7 view .LVU454
 1691 0010 FFF7FEFF 		bl	iis2dlpc_power_mode_get
 1692              	.LVL133:
 726:Drivers/BSP/Components/iis2dlpc/iis2dlpc.c ****   {
 1693              		.loc 1 726 6 view .LVU455
 1694 0014 0028     		cmp	r0, #0
 1695 0016 49D1     		bne	.L186
 732:Drivers/BSP/Components/iis2dlpc/iis2dlpc.c ****   {
 1696              		.loc 1 732 3 is_stmt 1 view .LVU456
 732:Drivers/BSP/Components/iis2dlpc/iis2dlpc.c ****   {
 1697              		.loc 1 732 7 is_stmt 0 view .LVU457
 1698 0018 02A9     		add	r1, sp, #8
 1699 001a 2046     		mov	r0, r4
 1700 001c FFF7FEFF 		bl	iis2dlpc_acceleration_raw_get
 1701              	.LVL134:
 732:Drivers/BSP/Components/iis2dlpc/iis2dlpc.c ****   {
 1702              		.loc 1 732 6 view .LVU458
ARM GAS  C:\Temp\ccFHAvpx.s 			page 56


 1703 0020 0028     		cmp	r0, #0
 1704 0022 46D1     		bne	.L187
 737:Drivers/BSP/Components/iis2dlpc/iis2dlpc.c ****   {
 1705              		.loc 1 737 3 is_stmt 1 view .LVU459
 1706 0024 9DF80720 		ldrb	r2, [sp, #7]	@ zero_extendqisi2
 1707 0028 1B2A     		cmp	r2, #27
 1708 002a 45D8     		bhi	.L188
 1709 002c 0123     		movs	r3, #1
 1710 002e 9340     		lsls	r3, r3, r2
 1711 0030 03F01E32 		and	r2, r3, #505290270
 1712 0034 22F01022 		bic	r2, r2, #268439552
 1713 0038 FAB9     		cbnz	r2, .L179
 1714 003a 13F0013F 		tst	r3, #16843009
 1715 003e 02D1     		bne	.L191
 1716 0040 4FF0FF30 		mov	r0, #-1
 1717              	.LVL135:
 737:Drivers/BSP/Components/iis2dlpc/iis2dlpc.c ****   {
 1718              		.loc 1 737 3 is_stmt 0 view .LVU460
 1719 0044 11E0     		b	.L177
 1720              	.LVL136:
 1721              	.L191:
 744:Drivers/BSP/Components/iis2dlpc/iis2dlpc.c ****       Value->y = (data_raw.i16bit[1] / 16);
 1722              		.loc 1 744 7 is_stmt 1 view .LVU461
 744:Drivers/BSP/Components/iis2dlpc/iis2dlpc.c ****       Value->y = (data_raw.i16bit[1] / 16);
 1723              		.loc 1 744 34 is_stmt 0 view .LVU462
 1724 0046 BDF90830 		ldrsh	r3, [sp, #8]
 744:Drivers/BSP/Components/iis2dlpc/iis2dlpc.c ****       Value->y = (data_raw.i16bit[1] / 16);
 1725              		.loc 1 744 16 view .LVU463
 1726 004a 002B     		cmp	r3, #0
 1727 004c 0FDB     		blt	.L192
 1728              	.L180:
 1729 004e 1B11     		asrs	r3, r3, #4
 1730 0050 2B80     		strh	r3, [r5]	@ movhi
 745:Drivers/BSP/Components/iis2dlpc/iis2dlpc.c ****       Value->z = (data_raw.i16bit[2] / 16);
 1731              		.loc 1 745 7 is_stmt 1 view .LVU464
 745:Drivers/BSP/Components/iis2dlpc/iis2dlpc.c ****       Value->z = (data_raw.i16bit[2] / 16);
 1732              		.loc 1 745 34 is_stmt 0 view .LVU465
 1733 0052 BDF90A30 		ldrsh	r3, [sp, #10]
 745:Drivers/BSP/Components/iis2dlpc/iis2dlpc.c ****       Value->z = (data_raw.i16bit[2] / 16);
 1734              		.loc 1 745 16 view .LVU466
 1735 0056 002B     		cmp	r3, #0
 1736 0058 0BDB     		blt	.L193
 1737              	.L181:
 1738 005a 1B11     		asrs	r3, r3, #4
 1739 005c 6B80     		strh	r3, [r5, #2]	@ movhi
 746:Drivers/BSP/Components/iis2dlpc/iis2dlpc.c ****       break;
 1740              		.loc 1 746 7 is_stmt 1 view .LVU467
 746:Drivers/BSP/Components/iis2dlpc/iis2dlpc.c ****       break;
 1741              		.loc 1 746 34 is_stmt 0 view .LVU468
 1742 005e BDF90C30 		ldrsh	r3, [sp, #12]
 746:Drivers/BSP/Components/iis2dlpc/iis2dlpc.c ****       break;
 1743              		.loc 1 746 16 view .LVU469
 1744 0062 002B     		cmp	r3, #0
 1745 0064 07DB     		blt	.L194
 1746              	.L182:
 1747 0066 1B11     		asrs	r3, r3, #4
 1748 0068 AB80     		strh	r3, [r5, #4]	@ movhi
ARM GAS  C:\Temp\ccFHAvpx.s 			page 57


 747:Drivers/BSP/Components/iis2dlpc/iis2dlpc.c **** 
 1749              		.loc 1 747 7 is_stmt 1 view .LVU470
 1750              	.LVL137:
 1751              	.L177:
 775:Drivers/BSP/Components/iis2dlpc/iis2dlpc.c **** 
 1752              		.loc 1 775 1 is_stmt 0 view .LVU471
 1753 006a 05B0     		add	sp, sp, #20
 1754              		.cfi_remember_state
 1755              		.cfi_def_cfa_offset 12
 1756              		@ sp needed
 1757 006c 30BD     		pop	{r4, r5, pc}
 1758              	.LVL138:
 1759              	.L192:
 1760              		.cfi_restore_state
 744:Drivers/BSP/Components/iis2dlpc/iis2dlpc.c ****       Value->y = (data_raw.i16bit[1] / 16);
 1761              		.loc 1 744 16 view .LVU472
 1762 006e 0F33     		adds	r3, r3, #15
 1763 0070 EDE7     		b	.L180
 1764              	.L193:
 745:Drivers/BSP/Components/iis2dlpc/iis2dlpc.c ****       Value->z = (data_raw.i16bit[2] / 16);
 1765              		.loc 1 745 16 view .LVU473
 1766 0072 0F33     		adds	r3, r3, #15
 1767 0074 F1E7     		b	.L181
 1768              	.L194:
 746:Drivers/BSP/Components/iis2dlpc/iis2dlpc.c ****       break;
 1769              		.loc 1 746 16 view .LVU474
 1770 0076 0F33     		adds	r3, r3, #15
 1771 0078 F5E7     		b	.L182
 1772              	.L179:
 764:Drivers/BSP/Components/iis2dlpc/iis2dlpc.c ****       Value->y = (data_raw.i16bit[1] / 4);
 1773              		.loc 1 764 7 is_stmt 1 view .LVU475
 764:Drivers/BSP/Components/iis2dlpc/iis2dlpc.c ****       Value->y = (data_raw.i16bit[1] / 4);
 1774              		.loc 1 764 34 is_stmt 0 view .LVU476
 1775 007a BDF90830 		ldrsh	r3, [sp, #8]
 764:Drivers/BSP/Components/iis2dlpc/iis2dlpc.c ****       Value->y = (data_raw.i16bit[1] / 4);
 1776              		.loc 1 764 16 view .LVU477
 1777 007e 002B     		cmp	r3, #0
 1778 0080 0EDB     		blt	.L195
 1779              	.L183:
 1780 0082 9B10     		asrs	r3, r3, #2
 1781 0084 2B80     		strh	r3, [r5]	@ movhi
 765:Drivers/BSP/Components/iis2dlpc/iis2dlpc.c ****       Value->z = (data_raw.i16bit[2] / 4);
 1782              		.loc 1 765 7 is_stmt 1 view .LVU478
 765:Drivers/BSP/Components/iis2dlpc/iis2dlpc.c ****       Value->z = (data_raw.i16bit[2] / 4);
 1783              		.loc 1 765 34 is_stmt 0 view .LVU479
 1784 0086 BDF90A30 		ldrsh	r3, [sp, #10]
 765:Drivers/BSP/Components/iis2dlpc/iis2dlpc.c ****       Value->z = (data_raw.i16bit[2] / 4);
 1785              		.loc 1 765 16 view .LVU480
 1786 008a 002B     		cmp	r3, #0
 1787 008c 0ADB     		blt	.L196
 1788              	.L184:
 1789 008e 9B10     		asrs	r3, r3, #2
 1790 0090 6B80     		strh	r3, [r5, #2]	@ movhi
 766:Drivers/BSP/Components/iis2dlpc/iis2dlpc.c ****       break;
 1791              		.loc 1 766 7 is_stmt 1 view .LVU481
 766:Drivers/BSP/Components/iis2dlpc/iis2dlpc.c ****       break;
 1792              		.loc 1 766 34 is_stmt 0 view .LVU482
ARM GAS  C:\Temp\ccFHAvpx.s 			page 58


 1793 0092 BDF90C30 		ldrsh	r3, [sp, #12]
 766:Drivers/BSP/Components/iis2dlpc/iis2dlpc.c ****       break;
 1794              		.loc 1 766 16 view .LVU483
 1795 0096 002B     		cmp	r3, #0
 1796 0098 06DB     		blt	.L197
 1797              	.L185:
 1798 009a 9B10     		asrs	r3, r3, #2
 1799 009c AB80     		strh	r3, [r5, #4]	@ movhi
 767:Drivers/BSP/Components/iis2dlpc/iis2dlpc.c **** 
 1800              		.loc 1 767 7 is_stmt 1 view .LVU484
 1801 009e E4E7     		b	.L177
 1802              	.L195:
 764:Drivers/BSP/Components/iis2dlpc/iis2dlpc.c ****       Value->y = (data_raw.i16bit[1] / 4);
 1803              		.loc 1 764 16 is_stmt 0 view .LVU485
 1804 00a0 0333     		adds	r3, r3, #3
 1805 00a2 EEE7     		b	.L183
 1806              	.L196:
 765:Drivers/BSP/Components/iis2dlpc/iis2dlpc.c ****       Value->z = (data_raw.i16bit[2] / 4);
 1807              		.loc 1 765 16 view .LVU486
 1808 00a4 0333     		adds	r3, r3, #3
 1809 00a6 F2E7     		b	.L184
 1810              	.L197:
 766:Drivers/BSP/Components/iis2dlpc/iis2dlpc.c ****       break;
 1811              		.loc 1 766 16 view .LVU487
 1812 00a8 0333     		adds	r3, r3, #3
 1813 00aa F6E7     		b	.L185
 1814              	.L186:
 728:Drivers/BSP/Components/iis2dlpc/iis2dlpc.c ****   }
 1815              		.loc 1 728 12 view .LVU488
 1816 00ac 4FF0FF30 		mov	r0, #-1
 1817 00b0 DBE7     		b	.L177
 1818              	.L187:
 734:Drivers/BSP/Components/iis2dlpc/iis2dlpc.c ****   }
 1819              		.loc 1 734 12 view .LVU489
 1820 00b2 4FF0FF30 		mov	r0, #-1
 1821 00b6 D8E7     		b	.L177
 1822              	.L188:
 737:Drivers/BSP/Components/iis2dlpc/iis2dlpc.c ****   {
 1823              		.loc 1 737 3 view .LVU490
 1824 00b8 4FF0FF30 		mov	r0, #-1
 1825 00bc D5E7     		b	.L177
 1826              		.cfi_endproc
 1827              	.LFE13:
 1829              		.section	.text.IIS2DLPC_ACC_GetAxes,"ax",%progbits
 1830              		.align	1
 1831              		.global	IIS2DLPC_ACC_GetAxes
 1832              		.syntax unified
 1833              		.thumb
 1834              		.thumb_func
 1836              	IIS2DLPC_ACC_GetAxes:
 1837              	.LVL139:
 1838              	.LFB14:
 784:Drivers/BSP/Components/iis2dlpc/iis2dlpc.c ****   IIS2DLPC_AxesRaw_t data_raw;
 1839              		.loc 1 784 1 is_stmt 1 view -0
 1840              		.cfi_startproc
 1841              		@ args = 0, pretend = 0, frame = 16
 1842              		@ frame_needed = 0, uses_anonymous_args = 0
ARM GAS  C:\Temp\ccFHAvpx.s 			page 59


 784:Drivers/BSP/Components/iis2dlpc/iis2dlpc.c ****   IIS2DLPC_AxesRaw_t data_raw;
 1843              		.loc 1 784 1 is_stmt 0 view .LVU492
 1844 0000 30B5     		push	{r4, r5, lr}
 1845              		.cfi_def_cfa_offset 12
 1846              		.cfi_offset 4, -12
 1847              		.cfi_offset 5, -8
 1848              		.cfi_offset 14, -4
 1849 0002 85B0     		sub	sp, sp, #20
 1850              		.cfi_def_cfa_offset 32
 1851 0004 0546     		mov	r5, r0
 1852 0006 0C46     		mov	r4, r1
 785:Drivers/BSP/Components/iis2dlpc/iis2dlpc.c ****   float sensitivity = 0.0f;
 1853              		.loc 1 785 3 is_stmt 1 view .LVU493
 786:Drivers/BSP/Components/iis2dlpc/iis2dlpc.c **** 
 1854              		.loc 1 786 3 view .LVU494
 786:Drivers/BSP/Components/iis2dlpc/iis2dlpc.c **** 
 1855              		.loc 1 786 9 is_stmt 0 view .LVU495
 1856 0008 0023     		movs	r3, #0
 1857 000a 0193     		str	r3, [sp, #4]	@ float
 789:Drivers/BSP/Components/iis2dlpc/iis2dlpc.c ****   {
 1858              		.loc 1 789 3 is_stmt 1 view .LVU496
 789:Drivers/BSP/Components/iis2dlpc/iis2dlpc.c ****   {
 1859              		.loc 1 789 7 is_stmt 0 view .LVU497
 1860 000c 02A9     		add	r1, sp, #8
 1861              	.LVL140:
 789:Drivers/BSP/Components/iis2dlpc/iis2dlpc.c ****   {
 1862              		.loc 1 789 7 view .LVU498
 1863 000e FFF7FEFF 		bl	IIS2DLPC_ACC_GetAxesRaw
 1864              	.LVL141:
 789:Drivers/BSP/Components/iis2dlpc/iis2dlpc.c ****   {
 1865              		.loc 1 789 6 view .LVU499
 1866 0012 60BB     		cbnz	r0, .L200
 795:Drivers/BSP/Components/iis2dlpc/iis2dlpc.c ****   {
 1867              		.loc 1 795 3 is_stmt 1 view .LVU500
 795:Drivers/BSP/Components/iis2dlpc/iis2dlpc.c ****   {
 1868              		.loc 1 795 7 is_stmt 0 view .LVU501
 1869 0014 01A9     		add	r1, sp, #4
 1870 0016 2846     		mov	r0, r5
 1871 0018 FFF7FEFF 		bl	IIS2DLPC_ACC_GetSensitivity
 1872              	.LVL142:
 795:Drivers/BSP/Components/iis2dlpc/iis2dlpc.c ****   {
 1873              		.loc 1 795 6 view .LVU502
 1874 001c 50BB     		cbnz	r0, .L201
 801:Drivers/BSP/Components/iis2dlpc/iis2dlpc.c ****   Acceleration->y = (int32_t)((float)((float)data_raw.y * sensitivity));
 1875              		.loc 1 801 3 is_stmt 1 view .LVU503
 801:Drivers/BSP/Components/iis2dlpc/iis2dlpc.c ****   Acceleration->y = (int32_t)((float)((float)data_raw.y * sensitivity));
 1876              		.loc 1 801 54 is_stmt 0 view .LVU504
 1877 001e BDF90830 		ldrsh	r3, [sp, #8]
 1878 0022 07EE103A 		vmov	s14, r3	@ int
 801:Drivers/BSP/Components/iis2dlpc/iis2dlpc.c ****   Acceleration->y = (int32_t)((float)((float)data_raw.y * sensitivity));
 1879              		.loc 1 801 39 view .LVU505
 1880 0026 B8EEC77A 		vcvt.f32.s32	s14, s14
 801:Drivers/BSP/Components/iis2dlpc/iis2dlpc.c ****   Acceleration->y = (int32_t)((float)((float)data_raw.y * sensitivity));
 1881              		.loc 1 801 31 view .LVU506
 1882 002a DDED017A 		vldr.32	s15, [sp, #4]
 1883 002e 27EE277A 		vmul.f32	s14, s14, s15
 801:Drivers/BSP/Components/iis2dlpc/iis2dlpc.c ****   Acceleration->y = (int32_t)((float)((float)data_raw.y * sensitivity));
ARM GAS  C:\Temp\ccFHAvpx.s 			page 60


 1884              		.loc 1 801 21 view .LVU507
 1885 0032 BDEEC77A 		vcvt.s32.f32	s14, s14
 801:Drivers/BSP/Components/iis2dlpc/iis2dlpc.c ****   Acceleration->y = (int32_t)((float)((float)data_raw.y * sensitivity));
 1886              		.loc 1 801 19 view .LVU508
 1887 0036 84ED007A 		vstr.32	s14, [r4]	@ int
 802:Drivers/BSP/Components/iis2dlpc/iis2dlpc.c ****   Acceleration->z = (int32_t)((float)((float)data_raw.z * sensitivity));
 1888              		.loc 1 802 3 is_stmt 1 view .LVU509
 802:Drivers/BSP/Components/iis2dlpc/iis2dlpc.c ****   Acceleration->z = (int32_t)((float)((float)data_raw.z * sensitivity));
 1889              		.loc 1 802 54 is_stmt 0 view .LVU510
 1890 003a BDF90A30 		ldrsh	r3, [sp, #10]
 1891 003e 07EE103A 		vmov	s14, r3	@ int
 802:Drivers/BSP/Components/iis2dlpc/iis2dlpc.c ****   Acceleration->z = (int32_t)((float)((float)data_raw.z * sensitivity));
 1892              		.loc 1 802 39 view .LVU511
 1893 0042 B8EEC77A 		vcvt.f32.s32	s14, s14
 802:Drivers/BSP/Components/iis2dlpc/iis2dlpc.c ****   Acceleration->z = (int32_t)((float)((float)data_raw.z * sensitivity));
 1894              		.loc 1 802 31 view .LVU512
 1895 0046 27EE277A 		vmul.f32	s14, s14, s15
 802:Drivers/BSP/Components/iis2dlpc/iis2dlpc.c ****   Acceleration->z = (int32_t)((float)((float)data_raw.z * sensitivity));
 1896              		.loc 1 802 21 view .LVU513
 1897 004a BDEEC77A 		vcvt.s32.f32	s14, s14
 802:Drivers/BSP/Components/iis2dlpc/iis2dlpc.c ****   Acceleration->z = (int32_t)((float)((float)data_raw.z * sensitivity));
 1898              		.loc 1 802 19 view .LVU514
 1899 004e 84ED017A 		vstr.32	s14, [r4, #4]	@ int
 803:Drivers/BSP/Components/iis2dlpc/iis2dlpc.c **** 
 1900              		.loc 1 803 3 is_stmt 1 view .LVU515
 803:Drivers/BSP/Components/iis2dlpc/iis2dlpc.c **** 
 1901              		.loc 1 803 54 is_stmt 0 view .LVU516
 1902 0052 BDF90C30 		ldrsh	r3, [sp, #12]
 1903 0056 07EE103A 		vmov	s14, r3	@ int
 803:Drivers/BSP/Components/iis2dlpc/iis2dlpc.c **** 
 1904              		.loc 1 803 39 view .LVU517
 1905 005a B8EEC77A 		vcvt.f32.s32	s14, s14
 803:Drivers/BSP/Components/iis2dlpc/iis2dlpc.c **** 
 1906              		.loc 1 803 31 view .LVU518
 1907 005e 67EE877A 		vmul.f32	s15, s15, s14
 803:Drivers/BSP/Components/iis2dlpc/iis2dlpc.c **** 
 1908              		.loc 1 803 21 view .LVU519
 1909 0062 FDEEE77A 		vcvt.s32.f32	s15, s15
 803:Drivers/BSP/Components/iis2dlpc/iis2dlpc.c **** 
 1910              		.loc 1 803 19 view .LVU520
 1911 0066 C4ED027A 		vstr.32	s15, [r4, #8]	@ int
 805:Drivers/BSP/Components/iis2dlpc/iis2dlpc.c **** }
 1912              		.loc 1 805 3 is_stmt 1 view .LVU521
 1913              	.L198:
 806:Drivers/BSP/Components/iis2dlpc/iis2dlpc.c **** 
 1914              		.loc 1 806 1 is_stmt 0 view .LVU522
 1915 006a 05B0     		add	sp, sp, #20
 1916              		.cfi_remember_state
 1917              		.cfi_def_cfa_offset 12
 1918              		@ sp needed
 1919 006c 30BD     		pop	{r4, r5, pc}
 1920              	.LVL143:
 1921              	.L200:
 1922              		.cfi_restore_state
 791:Drivers/BSP/Components/iis2dlpc/iis2dlpc.c ****   }
 1923              		.loc 1 791 12 view .LVU523
 1924 006e 4FF0FF30 		mov	r0, #-1
ARM GAS  C:\Temp\ccFHAvpx.s 			page 61


 1925 0072 FAE7     		b	.L198
 1926              	.L201:
 797:Drivers/BSP/Components/iis2dlpc/iis2dlpc.c ****   }
 1927              		.loc 1 797 12 view .LVU524
 1928 0074 4FF0FF30 		mov	r0, #-1
 1929 0078 F7E7     		b	.L198
 1930              		.cfi_endproc
 1931              	.LFE14:
 1933              		.section	.text.IIS2DLPC_ACC_SetOutputDataRate_With_Mode,"ax",%progbits
 1934              		.align	1
 1935              		.global	IIS2DLPC_ACC_SetOutputDataRate_With_Mode
 1936              		.syntax unified
 1937              		.thumb
 1938              		.thumb_func
 1940              	IIS2DLPC_ACC_SetOutputDataRate_With_Mode:
 1941              	.LVL144:
 1942              	.LFB10:
 632:Drivers/BSP/Components/iis2dlpc/iis2dlpc.c ****   /* Check if the component is enabled */
 1943              		.loc 1 632 1 is_stmt 1 view -0
 1944              		.cfi_startproc
 1945              		@ args = 0, pretend = 0, frame = 0
 1946              		@ frame_needed = 0, uses_anonymous_args = 0
 632:Drivers/BSP/Components/iis2dlpc/iis2dlpc.c ****   /* Check if the component is enabled */
 1947              		.loc 1 632 1 is_stmt 0 view .LVU526
 1948 0000 08B5     		push	{r3, lr}
 1949              		.cfi_def_cfa_offset 8
 1950              		.cfi_offset 3, -8
 1951              		.cfi_offset 14, -4
 634:Drivers/BSP/Components/iis2dlpc/iis2dlpc.c ****   {
 1952              		.loc 1 634 3 is_stmt 1 view .LVU527
 634:Drivers/BSP/Components/iis2dlpc/iis2dlpc.c ****   {
 1953              		.loc 1 634 11 is_stmt 0 view .LVU528
 1954 0002 90F83130 		ldrb	r3, [r0, #49]	@ zero_extendqisi2
 634:Drivers/BSP/Components/iis2dlpc/iis2dlpc.c ****   {
 1955              		.loc 1 634 6 view .LVU529
 1956 0006 012B     		cmp	r3, #1
 1957 0008 02D0     		beq	.L207
 640:Drivers/BSP/Components/iis2dlpc/iis2dlpc.c ****   }
 1958              		.loc 1 640 5 is_stmt 1 view .LVU530
 640:Drivers/BSP/Components/iis2dlpc/iis2dlpc.c ****   }
 1959              		.loc 1 640 12 is_stmt 0 view .LVU531
 1960 000a FFF7FEFF 		bl	IIS2DLPC_ACC_SetOutputDataRate_When_Disabled
 1961              	.LVL145:
 1962              	.L203:
 642:Drivers/BSP/Components/iis2dlpc/iis2dlpc.c **** 
 1963              		.loc 1 642 1 view .LVU532
 1964 000e 08BD     		pop	{r3, pc}
 1965              	.LVL146:
 1966              	.L207:
 636:Drivers/BSP/Components/iis2dlpc/iis2dlpc.c ****   }
 1967              		.loc 1 636 5 is_stmt 1 view .LVU533
 636:Drivers/BSP/Components/iis2dlpc/iis2dlpc.c ****   }
 1968              		.loc 1 636 12 is_stmt 0 view .LVU534
 1969 0010 FFF7FEFF 		bl	IIS2DLPC_ACC_SetOutputDataRate_When_Enabled
 1970              	.LVL147:
 636:Drivers/BSP/Components/iis2dlpc/iis2dlpc.c ****   }
 1971              		.loc 1 636 12 view .LVU535
ARM GAS  C:\Temp\ccFHAvpx.s 			page 62


 1972 0014 FBE7     		b	.L203
 1973              		.cfi_endproc
 1974              	.LFE10:
 1976              		.section	.text.IIS2DLPC_ACC_SetOutputDataRate,"ax",%progbits
 1977              		.align	1
 1978              		.global	IIS2DLPC_ACC_SetOutputDataRate
 1979              		.syntax unified
 1980              		.thumb
 1981              		.thumb_func
 1983              	IIS2DLPC_ACC_SetOutputDataRate:
 1984              	.LVL148:
 1985              	.LFB9:
 617:Drivers/BSP/Components/iis2dlpc/iis2dlpc.c ****   /* By default we use High Performance mode and Low Noise disabled */
 1986              		.loc 1 617 1 is_stmt 1 view -0
 1987              		.cfi_startproc
 1988              		@ args = 0, pretend = 0, frame = 0
 1989              		@ frame_needed = 0, uses_anonymous_args = 0
 617:Drivers/BSP/Components/iis2dlpc/iis2dlpc.c ****   /* By default we use High Performance mode and Low Noise disabled */
 1990              		.loc 1 617 1 is_stmt 0 view .LVU537
 1991 0000 08B5     		push	{r3, lr}
 1992              		.cfi_def_cfa_offset 8
 1993              		.cfi_offset 3, -8
 1994              		.cfi_offset 14, -4
 619:Drivers/BSP/Components/iis2dlpc/iis2dlpc.c **** }
 1995              		.loc 1 619 3 is_stmt 1 view .LVU538
 619:Drivers/BSP/Components/iis2dlpc/iis2dlpc.c **** }
 1996              		.loc 1 619 10 is_stmt 0 view .LVU539
 1997 0002 0022     		movs	r2, #0
 1998 0004 1146     		mov	r1, r2
 1999 0006 FFF7FEFF 		bl	IIS2DLPC_ACC_SetOutputDataRate_With_Mode
 2000              	.LVL149:
 620:Drivers/BSP/Components/iis2dlpc/iis2dlpc.c **** 
 2001              		.loc 1 620 1 view .LVU540
 2002 000a 08BD     		pop	{r3, pc}
 2003              		.cfi_endproc
 2004              	.LFE9:
 2006              		.section	.text.IIS2DLPC_Read_Reg,"ax",%progbits
 2007              		.align	1
 2008              		.global	IIS2DLPC_Read_Reg
 2009              		.syntax unified
 2010              		.thumb
 2011              		.thumb_func
 2013              	IIS2DLPC_Read_Reg:
 2014              	.LVL150:
 2015              	.LFB15:
 816:Drivers/BSP/Components/iis2dlpc/iis2dlpc.c ****   if (iis2dlpc_read_reg(&(pObj->Ctx), Reg, Data, 1) != IIS2DLPC_OK)
 2016              		.loc 1 816 1 is_stmt 1 view -0
 2017              		.cfi_startproc
 2018              		@ args = 0, pretend = 0, frame = 0
 2019              		@ frame_needed = 0, uses_anonymous_args = 0
 816:Drivers/BSP/Components/iis2dlpc/iis2dlpc.c ****   if (iis2dlpc_read_reg(&(pObj->Ctx), Reg, Data, 1) != IIS2DLPC_OK)
 2020              		.loc 1 816 1 is_stmt 0 view .LVU542
 2021 0000 08B5     		push	{r3, lr}
 2022              		.cfi_def_cfa_offset 8
 2023              		.cfi_offset 3, -8
 2024              		.cfi_offset 14, -4
 817:Drivers/BSP/Components/iis2dlpc/iis2dlpc.c ****   {
ARM GAS  C:\Temp\ccFHAvpx.s 			page 63


 2025              		.loc 1 817 3 is_stmt 1 view .LVU543
 817:Drivers/BSP/Components/iis2dlpc/iis2dlpc.c ****   {
 2026              		.loc 1 817 7 is_stmt 0 view .LVU544
 2027 0002 0123     		movs	r3, #1
 2028 0004 2030     		adds	r0, r0, #32
 2029              	.LVL151:
 817:Drivers/BSP/Components/iis2dlpc/iis2dlpc.c ****   {
 2030              		.loc 1 817 7 view .LVU545
 2031 0006 FFF7FEFF 		bl	iis2dlpc_read_reg
 2032              	.LVL152:
 817:Drivers/BSP/Components/iis2dlpc/iis2dlpc.c ****   {
 2033              		.loc 1 817 6 view .LVU546
 2034 000a 00B9     		cbnz	r0, .L214
 2035              	.L210:
 823:Drivers/BSP/Components/iis2dlpc/iis2dlpc.c **** 
 2036              		.loc 1 823 1 view .LVU547
 2037 000c 08BD     		pop	{r3, pc}
 2038              	.L214:
 819:Drivers/BSP/Components/iis2dlpc/iis2dlpc.c ****   }
 2039              		.loc 1 819 12 view .LVU548
 2040 000e 4FF0FF30 		mov	r0, #-1
 2041 0012 FBE7     		b	.L210
 2042              		.cfi_endproc
 2043              	.LFE15:
 2045              		.section	.text.IIS2DLPC_Write_Reg,"ax",%progbits
 2046              		.align	1
 2047              		.global	IIS2DLPC_Write_Reg
 2048              		.syntax unified
 2049              		.thumb
 2050              		.thumb_func
 2052              	IIS2DLPC_Write_Reg:
 2053              	.LVL153:
 2054              	.LFB16:
 833:Drivers/BSP/Components/iis2dlpc/iis2dlpc.c ****   if (iis2dlpc_write_reg(&(pObj->Ctx), Reg, &Data, 1) != IIS2DLPC_OK)
 2055              		.loc 1 833 1 is_stmt 1 view -0
 2056              		.cfi_startproc
 2057              		@ args = 0, pretend = 0, frame = 8
 2058              		@ frame_needed = 0, uses_anonymous_args = 0
 833:Drivers/BSP/Components/iis2dlpc/iis2dlpc.c ****   if (iis2dlpc_write_reg(&(pObj->Ctx), Reg, &Data, 1) != IIS2DLPC_OK)
 2059              		.loc 1 833 1 is_stmt 0 view .LVU550
 2060 0000 00B5     		push	{lr}
 2061              		.cfi_def_cfa_offset 4
 2062              		.cfi_offset 14, -4
 2063 0002 83B0     		sub	sp, sp, #12
 2064              		.cfi_def_cfa_offset 16
 2065 0004 8DF80720 		strb	r2, [sp, #7]
 834:Drivers/BSP/Components/iis2dlpc/iis2dlpc.c ****   {
 2066              		.loc 1 834 3 is_stmt 1 view .LVU551
 834:Drivers/BSP/Components/iis2dlpc/iis2dlpc.c ****   {
 2067              		.loc 1 834 7 is_stmt 0 view .LVU552
 2068 0008 0123     		movs	r3, #1
 2069 000a 0DF10702 		add	r2, sp, #7
 2070              	.LVL154:
 834:Drivers/BSP/Components/iis2dlpc/iis2dlpc.c ****   {
 2071              		.loc 1 834 7 view .LVU553
 2072 000e 2030     		adds	r0, r0, #32
 2073              	.LVL155:
ARM GAS  C:\Temp\ccFHAvpx.s 			page 64


 834:Drivers/BSP/Components/iis2dlpc/iis2dlpc.c ****   {
 2074              		.loc 1 834 7 view .LVU554
 2075 0010 FFF7FEFF 		bl	iis2dlpc_write_reg
 2076              	.LVL156:
 834:Drivers/BSP/Components/iis2dlpc/iis2dlpc.c ****   {
 2077              		.loc 1 834 6 view .LVU555
 2078 0014 10B9     		cbnz	r0, .L219
 2079              	.L215:
 840:Drivers/BSP/Components/iis2dlpc/iis2dlpc.c **** 
 2080              		.loc 1 840 1 view .LVU556
 2081 0016 03B0     		add	sp, sp, #12
 2082              		.cfi_remember_state
 2083              		.cfi_def_cfa_offset 4
 2084              		@ sp needed
 2085 0018 5DF804FB 		ldr	pc, [sp], #4
 2086              	.L219:
 2087              		.cfi_restore_state
 836:Drivers/BSP/Components/iis2dlpc/iis2dlpc.c ****   }
 2088              		.loc 1 836 12 view .LVU557
 2089 001c 4FF0FF30 		mov	r0, #-1
 2090 0020 F9E7     		b	.L215
 2091              		.cfi_endproc
 2092              	.LFE16:
 2094              		.section	.text.IIS2DLPC_RegisterBusIO,"ax",%progbits
 2095              		.align	1
 2096              		.global	IIS2DLPC_RegisterBusIO
 2097              		.syntax unified
 2098              		.thumb
 2099              		.thumb_func
 2101              	IIS2DLPC_RegisterBusIO:
 2102              	.LVL157:
 2103              	.LFB0:
  88:Drivers/BSP/Components/iis2dlpc/iis2dlpc.c ****   int32_t ret = IIS2DLPC_OK;
 2104              		.loc 1 88 1 is_stmt 1 view -0
 2105              		.cfi_startproc
 2106              		@ args = 0, pretend = 0, frame = 0
 2107              		@ frame_needed = 0, uses_anonymous_args = 0
  89:Drivers/BSP/Components/iis2dlpc/iis2dlpc.c **** 
 2108              		.loc 1 89 3 view .LVU559
  91:Drivers/BSP/Components/iis2dlpc/iis2dlpc.c ****   {
 2109              		.loc 1 91 3 view .LVU560
  91:Drivers/BSP/Components/iis2dlpc/iis2dlpc.c ****   {
 2110              		.loc 1 91 6 is_stmt 0 view .LVU561
 2111 0000 0028     		cmp	r0, #0
 2112 0002 2BD0     		beq	.L222
  88:Drivers/BSP/Components/iis2dlpc/iis2dlpc.c ****   int32_t ret = IIS2DLPC_OK;
 2113              		.loc 1 88 1 view .LVU562
 2114 0004 10B5     		push	{r4, lr}
 2115              		.cfi_def_cfa_offset 8
 2116              		.cfi_offset 4, -8
 2117              		.cfi_offset 14, -4
 2118 0006 0446     		mov	r4, r0
  97:Drivers/BSP/Components/iis2dlpc/iis2dlpc.c ****     pObj->IO.DeInit    = pIO->DeInit;
 2119              		.loc 1 97 5 is_stmt 1 view .LVU563
  97:Drivers/BSP/Components/iis2dlpc/iis2dlpc.c ****     pObj->IO.DeInit    = pIO->DeInit;
 2120              		.loc 1 97 29 is_stmt 0 view .LVU564
 2121 0008 0B68     		ldr	r3, [r1]
ARM GAS  C:\Temp\ccFHAvpx.s 			page 65


  97:Drivers/BSP/Components/iis2dlpc/iis2dlpc.c ****     pObj->IO.DeInit    = pIO->DeInit;
 2122              		.loc 1 97 24 view .LVU565
 2123 000a 0360     		str	r3, [r0]
  98:Drivers/BSP/Components/iis2dlpc/iis2dlpc.c ****     pObj->IO.BusType   = pIO->BusType;
 2124              		.loc 1 98 5 is_stmt 1 view .LVU566
  98:Drivers/BSP/Components/iis2dlpc/iis2dlpc.c ****     pObj->IO.BusType   = pIO->BusType;
 2125              		.loc 1 98 29 is_stmt 0 view .LVU567
 2126 000c 4A68     		ldr	r2, [r1, #4]
  98:Drivers/BSP/Components/iis2dlpc/iis2dlpc.c ****     pObj->IO.BusType   = pIO->BusType;
 2127              		.loc 1 98 24 view .LVU568
 2128 000e 4260     		str	r2, [r0, #4]
  99:Drivers/BSP/Components/iis2dlpc/iis2dlpc.c ****     pObj->IO.Address   = pIO->Address;
 2129              		.loc 1 99 5 is_stmt 1 view .LVU569
  99:Drivers/BSP/Components/iis2dlpc/iis2dlpc.c ****     pObj->IO.Address   = pIO->Address;
 2130              		.loc 1 99 29 is_stmt 0 view .LVU570
 2131 0010 8A68     		ldr	r2, [r1, #8]
  99:Drivers/BSP/Components/iis2dlpc/iis2dlpc.c ****     pObj->IO.Address   = pIO->Address;
 2132              		.loc 1 99 24 view .LVU571
 2133 0012 8260     		str	r2, [r0, #8]
 100:Drivers/BSP/Components/iis2dlpc/iis2dlpc.c ****     pObj->IO.WriteReg  = pIO->WriteReg;
 2134              		.loc 1 100 5 is_stmt 1 view .LVU572
 100:Drivers/BSP/Components/iis2dlpc/iis2dlpc.c ****     pObj->IO.WriteReg  = pIO->WriteReg;
 2135              		.loc 1 100 29 is_stmt 0 view .LVU573
 2136 0014 0A7B     		ldrb	r2, [r1, #12]	@ zero_extendqisi2
 100:Drivers/BSP/Components/iis2dlpc/iis2dlpc.c ****     pObj->IO.WriteReg  = pIO->WriteReg;
 2137              		.loc 1 100 24 view .LVU574
 2138 0016 0273     		strb	r2, [r0, #12]
 101:Drivers/BSP/Components/iis2dlpc/iis2dlpc.c ****     pObj->IO.ReadReg   = pIO->ReadReg;
 2139              		.loc 1 101 5 is_stmt 1 view .LVU575
 101:Drivers/BSP/Components/iis2dlpc/iis2dlpc.c ****     pObj->IO.ReadReg   = pIO->ReadReg;
 2140              		.loc 1 101 29 is_stmt 0 view .LVU576
 2141 0018 0A69     		ldr	r2, [r1, #16]
 101:Drivers/BSP/Components/iis2dlpc/iis2dlpc.c ****     pObj->IO.ReadReg   = pIO->ReadReg;
 2142              		.loc 1 101 24 view .LVU577
 2143 001a 0261     		str	r2, [r0, #16]
 102:Drivers/BSP/Components/iis2dlpc/iis2dlpc.c ****     pObj->IO.GetTick   = pIO->GetTick;
 2144              		.loc 1 102 5 is_stmt 1 view .LVU578
 102:Drivers/BSP/Components/iis2dlpc/iis2dlpc.c ****     pObj->IO.GetTick   = pIO->GetTick;
 2145              		.loc 1 102 29 is_stmt 0 view .LVU579
 2146 001c 4A69     		ldr	r2, [r1, #20]
 102:Drivers/BSP/Components/iis2dlpc/iis2dlpc.c ****     pObj->IO.GetTick   = pIO->GetTick;
 2147              		.loc 1 102 24 view .LVU580
 2148 001e 4261     		str	r2, [r0, #20]
 103:Drivers/BSP/Components/iis2dlpc/iis2dlpc.c **** 
 2149              		.loc 1 103 5 is_stmt 1 view .LVU581
 103:Drivers/BSP/Components/iis2dlpc/iis2dlpc.c **** 
 2150              		.loc 1 103 29 is_stmt 0 view .LVU582
 2151 0020 8A69     		ldr	r2, [r1, #24]
 103:Drivers/BSP/Components/iis2dlpc/iis2dlpc.c **** 
 2152              		.loc 1 103 24 view .LVU583
 2153 0022 8261     		str	r2, [r0, #24]
 105:Drivers/BSP/Components/iis2dlpc/iis2dlpc.c ****     pObj->Ctx.write_reg = WriteRegWrap;
 2154              		.loc 1 105 5 is_stmt 1 view .LVU584
 105:Drivers/BSP/Components/iis2dlpc/iis2dlpc.c ****     pObj->Ctx.write_reg = WriteRegWrap;
 2155              		.loc 1 105 25 is_stmt 0 view .LVU585
 2156 0024 124A     		ldr	r2, .L231
 2157 0026 4262     		str	r2, [r0, #36]
ARM GAS  C:\Temp\ccFHAvpx.s 			page 66


 106:Drivers/BSP/Components/iis2dlpc/iis2dlpc.c ****     pObj->Ctx.mdelay    = pIO->Delay;
 2158              		.loc 1 106 5 is_stmt 1 view .LVU586
 106:Drivers/BSP/Components/iis2dlpc/iis2dlpc.c ****     pObj->Ctx.mdelay    = pIO->Delay;
 2159              		.loc 1 106 25 is_stmt 0 view .LVU587
 2160 0028 124A     		ldr	r2, .L231+4
 2161 002a 0262     		str	r2, [r0, #32]
 107:Drivers/BSP/Components/iis2dlpc/iis2dlpc.c ****     pObj->Ctx.handle   = pObj;
 2162              		.loc 1 107 5 is_stmt 1 view .LVU588
 107:Drivers/BSP/Components/iis2dlpc/iis2dlpc.c ****     pObj->Ctx.handle   = pObj;
 2163              		.loc 1 107 30 is_stmt 0 view .LVU589
 2164 002c CA69     		ldr	r2, [r1, #28]
 107:Drivers/BSP/Components/iis2dlpc/iis2dlpc.c ****     pObj->Ctx.handle   = pObj;
 2165              		.loc 1 107 25 view .LVU590
 2166 002e 8262     		str	r2, [r0, #40]
 108:Drivers/BSP/Components/iis2dlpc/iis2dlpc.c **** 
 2167              		.loc 1 108 5 is_stmt 1 view .LVU591
 108:Drivers/BSP/Components/iis2dlpc/iis2dlpc.c **** 
 2168              		.loc 1 108 24 is_stmt 0 view .LVU592
 2169 0030 C062     		str	r0, [r0, #44]
 110:Drivers/BSP/Components/iis2dlpc/iis2dlpc.c ****     {
 2170              		.loc 1 110 5 is_stmt 1 view .LVU593
 110:Drivers/BSP/Components/iis2dlpc/iis2dlpc.c ****     {
 2171              		.loc 1 110 8 is_stmt 0 view .LVU594
 2172 0032 B3B1     		cbz	r3, .L223
 114:Drivers/BSP/Components/iis2dlpc/iis2dlpc.c ****     {
 2173              		.loc 1 114 10 is_stmt 1 view .LVU595
 114:Drivers/BSP/Components/iis2dlpc/iis2dlpc.c ****     {
 2174              		.loc 1 114 14 is_stmt 0 view .LVU596
 2175 0034 9847     		blx	r3
 2176              	.LVL158:
 114:Drivers/BSP/Components/iis2dlpc/iis2dlpc.c ****     {
 2177              		.loc 1 114 13 view .LVU597
 2178 0036 B8B9     		cbnz	r0, .L224
 120:Drivers/BSP/Components/iis2dlpc/iis2dlpc.c ****       {
 2179              		.loc 1 120 7 is_stmt 1 view .LVU598
 120:Drivers/BSP/Components/iis2dlpc/iis2dlpc.c ****       {
 2180              		.loc 1 120 19 is_stmt 0 view .LVU599
 2181 0038 A368     		ldr	r3, [r4, #8]
 120:Drivers/BSP/Components/iis2dlpc/iis2dlpc.c ****       {
 2182              		.loc 1 120 10 view .LVU600
 2183 003a 022B     		cmp	r3, #2
 2184 003c 00D0     		beq	.L230
 2185              	.LVL159:
 2186              	.L220:
 138:Drivers/BSP/Components/iis2dlpc/iis2dlpc.c **** 
 2187              		.loc 1 138 1 view .LVU601
 2188 003e 10BD     		pop	{r4, pc}
 2189              	.LVL160:
 2190              	.L230:
 123:Drivers/BSP/Components/iis2dlpc/iis2dlpc.c ****         {
 2191              		.loc 1 123 9 is_stmt 1 view .LVU602
 123:Drivers/BSP/Components/iis2dlpc/iis2dlpc.c ****         {
 2192              		.loc 1 123 17 is_stmt 0 view .LVU603
 2193 0040 94F83030 		ldrb	r3, [r4, #48]	@ zero_extendqisi2
 123:Drivers/BSP/Components/iis2dlpc/iis2dlpc.c ****         {
 2194              		.loc 1 123 12 view .LVU604
 2195 0044 002B     		cmp	r3, #0
ARM GAS  C:\Temp\ccFHAvpx.s 			page 67


 2196 0046 FAD1     		bne	.L220
 2197              	.LBB2:
 126:Drivers/BSP/Components/iis2dlpc/iis2dlpc.c **** 
 2198              		.loc 1 126 11 is_stmt 1 view .LVU605
 2199              	.LVL161:
 128:Drivers/BSP/Components/iis2dlpc/iis2dlpc.c ****           {
 2200              		.loc 1 128 11 view .LVU606
 128:Drivers/BSP/Components/iis2dlpc/iis2dlpc.c ****           {
 2201              		.loc 1 128 15 is_stmt 0 view .LVU607
 2202 0048 0522     		movs	r2, #5
 2203 004a 2121     		movs	r1, #33
 2204 004c 2046     		mov	r0, r4
 2205 004e FFF7FEFF 		bl	IIS2DLPC_Write_Reg
 2206              	.LVL162:
 128:Drivers/BSP/Components/iis2dlpc/iis2dlpc.c ****           {
 2207              		.loc 1 128 14 view .LVU608
 2208 0052 0028     		cmp	r0, #0
 2209 0054 F3D0     		beq	.L220
 130:Drivers/BSP/Components/iis2dlpc/iis2dlpc.c ****           }
 2210              		.loc 1 130 17 view .LVU609
 2211 0056 4FF0FF30 		mov	r0, #-1
 2212              	.LVL163:
 130:Drivers/BSP/Components/iis2dlpc/iis2dlpc.c ****           }
 2213              		.loc 1 130 17 view .LVU610
 2214              	.LBE2:
 137:Drivers/BSP/Components/iis2dlpc/iis2dlpc.c **** }
 2215              		.loc 1 137 3 is_stmt 1 view .LVU611
 137:Drivers/BSP/Components/iis2dlpc/iis2dlpc.c **** }
 2216              		.loc 1 137 10 is_stmt 0 view .LVU612
 2217 005a F0E7     		b	.L220
 2218              	.LVL164:
 2219              	.L222:
 2220              		.cfi_def_cfa_offset 0
 2221              		.cfi_restore 4
 2222              		.cfi_restore 14
  93:Drivers/BSP/Components/iis2dlpc/iis2dlpc.c ****   }
 2223              		.loc 1 93 9 view .LVU613
 2224 005c 4FF0FF30 		mov	r0, #-1
 2225              	.LVL165:
 138:Drivers/BSP/Components/iis2dlpc/iis2dlpc.c **** 
 2226              		.loc 1 138 1 view .LVU614
 2227 0060 7047     		bx	lr
 2228              	.LVL166:
 2229              	.L223:
 2230              		.cfi_def_cfa_offset 8
 2231              		.cfi_offset 4, -8
 2232              		.cfi_offset 14, -4
 112:Drivers/BSP/Components/iis2dlpc/iis2dlpc.c ****     }
 2233              		.loc 1 112 11 view .LVU615
 2234 0062 4FF0FF30 		mov	r0, #-1
 2235              	.LVL167:
 112:Drivers/BSP/Components/iis2dlpc/iis2dlpc.c ****     }
 2236              		.loc 1 112 11 view .LVU616
 2237 0066 EAE7     		b	.L220
 2238              	.LVL168:
 2239              	.L224:
 116:Drivers/BSP/Components/iis2dlpc/iis2dlpc.c ****     }
ARM GAS  C:\Temp\ccFHAvpx.s 			page 68


 2240              		.loc 1 116 11 view .LVU617
 2241 0068 4FF0FF30 		mov	r0, #-1
 2242 006c E7E7     		b	.L220
 2243              	.L232:
 2244 006e 00BF     		.align	2
 2245              	.L231:
 2246 0070 00000000 		.word	ReadRegWrap
 2247 0074 00000000 		.word	WriteRegWrap
 2248              		.cfi_endproc
 2249              	.LFE0:
 2251              		.section	.text.IIS2DLPC_ACC_Get_DRDY_Status,"ax",%progbits
 2252              		.align	1
 2253              		.global	IIS2DLPC_ACC_Get_DRDY_Status
 2254              		.syntax unified
 2255              		.thumb
 2256              		.thumb_func
 2258              	IIS2DLPC_ACC_Get_DRDY_Status:
 2259              	.LVL169:
 2260              	.LFB17:
 849:Drivers/BSP/Components/iis2dlpc/iis2dlpc.c ****   if (iis2dlpc_flag_data_ready_get(&(pObj->Ctx), Status) != IIS2DLPC_OK)
 2261              		.loc 1 849 1 is_stmt 1 view -0
 2262              		.cfi_startproc
 2263              		@ args = 0, pretend = 0, frame = 0
 2264              		@ frame_needed = 0, uses_anonymous_args = 0
 849:Drivers/BSP/Components/iis2dlpc/iis2dlpc.c ****   if (iis2dlpc_flag_data_ready_get(&(pObj->Ctx), Status) != IIS2DLPC_OK)
 2265              		.loc 1 849 1 is_stmt 0 view .LVU619
 2266 0000 08B5     		push	{r3, lr}
 2267              		.cfi_def_cfa_offset 8
 2268              		.cfi_offset 3, -8
 2269              		.cfi_offset 14, -4
 850:Drivers/BSP/Components/iis2dlpc/iis2dlpc.c ****   {
 2270              		.loc 1 850 3 is_stmt 1 view .LVU620
 850:Drivers/BSP/Components/iis2dlpc/iis2dlpc.c ****   {
 2271              		.loc 1 850 7 is_stmt 0 view .LVU621
 2272 0002 2030     		adds	r0, r0, #32
 2273              	.LVL170:
 850:Drivers/BSP/Components/iis2dlpc/iis2dlpc.c ****   {
 2274              		.loc 1 850 7 view .LVU622
 2275 0004 FFF7FEFF 		bl	iis2dlpc_flag_data_ready_get
 2276              	.LVL171:
 850:Drivers/BSP/Components/iis2dlpc/iis2dlpc.c ****   {
 2277              		.loc 1 850 6 view .LVU623
 2278 0008 00B9     		cbnz	r0, .L237
 2279              	.L233:
 856:Drivers/BSP/Components/iis2dlpc/iis2dlpc.c **** 
 2280              		.loc 1 856 1 view .LVU624
 2281 000a 08BD     		pop	{r3, pc}
 2282              	.L237:
 852:Drivers/BSP/Components/iis2dlpc/iis2dlpc.c ****   }
 2283              		.loc 1 852 12 view .LVU625
 2284 000c 4FF0FF30 		mov	r0, #-1
 2285 0010 FBE7     		b	.L233
 2286              		.cfi_endproc
 2287              	.LFE17:
 2289              		.global	IIS2DLPC_ACC_Driver
 2290              		.section	.data.IIS2DLPC_ACC_Driver,"aw"
 2291              		.align	2
ARM GAS  C:\Temp\ccFHAvpx.s 			page 69


 2294              	IIS2DLPC_ACC_Driver:
 2295 0000 00000000 		.word	IIS2DLPC_ACC_Enable
 2296 0004 00000000 		.word	IIS2DLPC_ACC_Disable
 2297 0008 00000000 		.word	IIS2DLPC_ACC_GetSensitivity
 2298 000c 00000000 		.word	IIS2DLPC_ACC_GetOutputDataRate
 2299 0010 00000000 		.word	IIS2DLPC_ACC_SetOutputDataRate
 2300 0014 00000000 		.word	IIS2DLPC_ACC_GetFullScale
 2301 0018 00000000 		.word	IIS2DLPC_ACC_SetFullScale
 2302 001c 00000000 		.word	IIS2DLPC_ACC_GetAxes
 2303 0020 00000000 		.word	IIS2DLPC_ACC_GetAxesRaw
 2304              		.global	IIS2DLPC_COMMON_Driver
 2305              		.section	.data.IIS2DLPC_COMMON_Driver,"aw"
 2306              		.align	2
 2309              	IIS2DLPC_COMMON_Driver:
 2310 0000 00000000 		.word	IIS2DLPC_Init
 2311 0004 00000000 		.word	IIS2DLPC_DeInit
 2312 0008 00000000 		.word	IIS2DLPC_ReadID
 2313 000c 00000000 		.word	IIS2DLPC_GetCapabilities
 2314              		.text
 2315              	.Letext0:
 2316              		.file 2 "c:\\users\\jessejabezarendse\\appdata\\roaming\\code\\user\\globalstorage\\bmd.stm32-for-
 2317              		.file 3 "c:\\users\\jessejabezarendse\\appdata\\roaming\\code\\user\\globalstorage\\bmd.stm32-for-
 2318              		.file 4 "Drivers/BSP/Components/iis2dlpc/iis2dlpc_reg.h"
 2319              		.file 5 "Drivers/BSP/Components/iis2dlpc/iis2dlpc.h"
ARM GAS  C:\Temp\ccFHAvpx.s 			page 70

