ARM GAS  C:\Temp\cczma3Jx.s 			page 1


   1              		.cpu cortex-m4
   2              		.arch armv7e-m
   3              		.fpu fpv4-sp-d16
   4              		.eabi_attribute 27, 1
   5              		.eabi_attribute 28, 1
   6              		.eabi_attribute 20, 1
   7              		.eabi_attribute 21, 1
   8              		.eabi_attribute 23, 3
   9              		.eabi_attribute 24, 1
  10              		.eabi_attribute 25, 1
  11              		.eabi_attribute 26, 1
  12              		.eabi_attribute 30, 1
  13              		.eabi_attribute 34, 1
  14              		.eabi_attribute 18, 4
  15              		.file	"iis2mdc_reg.c"
  16              		.text
  17              	.Ltext0:
  18              		.cfi_sections	.debug_frame
  19              		.file 1 "Drivers/BSP/Components/iis2mdc/iis2mdc_reg.c"
  20              		.section	.text.iis2mdc_read_reg,"ax",%progbits
  21              		.align	1
  22              		.weak	iis2mdc_read_reg
  23              		.syntax unified
  24              		.thumb
  25              		.thumb_func
  27              	iis2mdc_read_reg:
  28              	.LVL0:
  29              	.LFB0:
   1:Drivers/BSP/Components/iis2mdc/iis2mdc_reg.c **** /**
   2:Drivers/BSP/Components/iis2mdc/iis2mdc_reg.c ****   ******************************************************************************
   3:Drivers/BSP/Components/iis2mdc/iis2mdc_reg.c ****   * @file    iis2mdc_reg.c
   4:Drivers/BSP/Components/iis2mdc/iis2mdc_reg.c ****   * @author  Sensors Software Solution Team
   5:Drivers/BSP/Components/iis2mdc/iis2mdc_reg.c ****   * @brief   IIS2MDC driver file
   6:Drivers/BSP/Components/iis2mdc/iis2mdc_reg.c ****   ******************************************************************************
   7:Drivers/BSP/Components/iis2mdc/iis2mdc_reg.c ****   * @attention
   8:Drivers/BSP/Components/iis2mdc/iis2mdc_reg.c ****   *
   9:Drivers/BSP/Components/iis2mdc/iis2mdc_reg.c ****   * Copyright (c) 2019 STMicroelectronics.
  10:Drivers/BSP/Components/iis2mdc/iis2mdc_reg.c ****   * All rights reserved.
  11:Drivers/BSP/Components/iis2mdc/iis2mdc_reg.c ****   *
  12:Drivers/BSP/Components/iis2mdc/iis2mdc_reg.c ****   * This software is licensed under terms that can be found in the LICENSE file
  13:Drivers/BSP/Components/iis2mdc/iis2mdc_reg.c ****   * in the root directory of this software component.
  14:Drivers/BSP/Components/iis2mdc/iis2mdc_reg.c ****   * If no LICENSE file comes with this software, it is provided AS-IS.
  15:Drivers/BSP/Components/iis2mdc/iis2mdc_reg.c ****   *
  16:Drivers/BSP/Components/iis2mdc/iis2mdc_reg.c ****   ******************************************************************************
  17:Drivers/BSP/Components/iis2mdc/iis2mdc_reg.c ****   */
  18:Drivers/BSP/Components/iis2mdc/iis2mdc_reg.c **** 
  19:Drivers/BSP/Components/iis2mdc/iis2mdc_reg.c **** #include "iis2mdc_reg.h"
  20:Drivers/BSP/Components/iis2mdc/iis2mdc_reg.c **** /**
  21:Drivers/BSP/Components/iis2mdc/iis2mdc_reg.c ****   * @defgroup  IIS2MDC
  22:Drivers/BSP/Components/iis2mdc/iis2mdc_reg.c ****   * @brief     This file provides a set of functions needed to drive the
  23:Drivers/BSP/Components/iis2mdc/iis2mdc_reg.c ****   *            iis2mdc enhanced inertial module.
  24:Drivers/BSP/Components/iis2mdc/iis2mdc_reg.c ****   * @{
  25:Drivers/BSP/Components/iis2mdc/iis2mdc_reg.c ****   *
  26:Drivers/BSP/Components/iis2mdc/iis2mdc_reg.c ****   */
  27:Drivers/BSP/Components/iis2mdc/iis2mdc_reg.c **** 
  28:Drivers/BSP/Components/iis2mdc/iis2mdc_reg.c **** /**
  29:Drivers/BSP/Components/iis2mdc/iis2mdc_reg.c ****   * @defgroup  IIS2MDC_Interfaces_Functions
ARM GAS  C:\Temp\cczma3Jx.s 			page 2


  30:Drivers/BSP/Components/iis2mdc/iis2mdc_reg.c ****   * @brief     This section provide a set of functions used to read and
  31:Drivers/BSP/Components/iis2mdc/iis2mdc_reg.c ****   *            write a generic register of the device.
  32:Drivers/BSP/Components/iis2mdc/iis2mdc_reg.c ****   *            MANDATORY: return 0 -> no Error.
  33:Drivers/BSP/Components/iis2mdc/iis2mdc_reg.c ****   * @{
  34:Drivers/BSP/Components/iis2mdc/iis2mdc_reg.c ****   *
  35:Drivers/BSP/Components/iis2mdc/iis2mdc_reg.c ****   */
  36:Drivers/BSP/Components/iis2mdc/iis2mdc_reg.c **** 
  37:Drivers/BSP/Components/iis2mdc/iis2mdc_reg.c **** /**
  38:Drivers/BSP/Components/iis2mdc/iis2mdc_reg.c ****   * @brief  Read generic device register
  39:Drivers/BSP/Components/iis2mdc/iis2mdc_reg.c ****   *
  40:Drivers/BSP/Components/iis2mdc/iis2mdc_reg.c ****   * @param  ctx   read / write interface definitions(ptr)
  41:Drivers/BSP/Components/iis2mdc/iis2mdc_reg.c ****   * @param  reg   register to read
  42:Drivers/BSP/Components/iis2mdc/iis2mdc_reg.c ****   * @param  data  pointer to buffer that store the data read(ptr)
  43:Drivers/BSP/Components/iis2mdc/iis2mdc_reg.c ****   * @param  len   number of consecutive register to read
  44:Drivers/BSP/Components/iis2mdc/iis2mdc_reg.c ****   * @retval          interface status (MANDATORY: return 0 -> no Error)
  45:Drivers/BSP/Components/iis2mdc/iis2mdc_reg.c ****   *
  46:Drivers/BSP/Components/iis2mdc/iis2mdc_reg.c ****   */
  47:Drivers/BSP/Components/iis2mdc/iis2mdc_reg.c **** int32_t __weak iis2mdc_read_reg(stmdev_ctx_t *ctx, uint8_t reg,
  48:Drivers/BSP/Components/iis2mdc/iis2mdc_reg.c ****                                 uint8_t *data,
  49:Drivers/BSP/Components/iis2mdc/iis2mdc_reg.c ****                                 uint16_t len)
  50:Drivers/BSP/Components/iis2mdc/iis2mdc_reg.c **** {
  30              		.loc 1 50 1 view -0
  31              		.cfi_startproc
  32              		@ args = 0, pretend = 0, frame = 0
  33              		@ frame_needed = 0, uses_anonymous_args = 0
  34              		.loc 1 50 1 is_stmt 0 view .LVU1
  35 0000 10B5     		push	{r4, lr}
  36              		.cfi_def_cfa_offset 8
  37              		.cfi_offset 4, -8
  38              		.cfi_offset 14, -4
  51:Drivers/BSP/Components/iis2mdc/iis2mdc_reg.c ****   int32_t ret;
  39              		.loc 1 51 3 is_stmt 1 view .LVU2
  52:Drivers/BSP/Components/iis2mdc/iis2mdc_reg.c **** 
  53:Drivers/BSP/Components/iis2mdc/iis2mdc_reg.c ****   ret = ctx->read_reg(ctx->handle, reg, data, len);
  40              		.loc 1 53 3 view .LVU3
  41              		.loc 1 53 12 is_stmt 0 view .LVU4
  42 0002 4468     		ldr	r4, [r0, #4]
  43              		.loc 1 53 9 view .LVU5
  44 0004 C068     		ldr	r0, [r0, #12]
  45              	.LVL1:
  46              		.loc 1 53 9 view .LVU6
  47 0006 A047     		blx	r4
  48              	.LVL2:
  54:Drivers/BSP/Components/iis2mdc/iis2mdc_reg.c **** 
  55:Drivers/BSP/Components/iis2mdc/iis2mdc_reg.c ****   return ret;
  49              		.loc 1 55 3 is_stmt 1 view .LVU7
  56:Drivers/BSP/Components/iis2mdc/iis2mdc_reg.c **** }
  50              		.loc 1 56 1 is_stmt 0 view .LVU8
  51 0008 10BD     		pop	{r4, pc}
  52              		.cfi_endproc
  53              	.LFE0:
  55              		.section	.text.iis2mdc_write_reg,"ax",%progbits
  56              		.align	1
  57              		.weak	iis2mdc_write_reg
  58              		.syntax unified
  59              		.thumb
  60              		.thumb_func
ARM GAS  C:\Temp\cczma3Jx.s 			page 3


  62              	iis2mdc_write_reg:
  63              	.LVL3:
  64              	.LFB1:
  57:Drivers/BSP/Components/iis2mdc/iis2mdc_reg.c **** 
  58:Drivers/BSP/Components/iis2mdc/iis2mdc_reg.c **** /**
  59:Drivers/BSP/Components/iis2mdc/iis2mdc_reg.c ****   * @brief  Write generic device register
  60:Drivers/BSP/Components/iis2mdc/iis2mdc_reg.c ****   *
  61:Drivers/BSP/Components/iis2mdc/iis2mdc_reg.c ****   * @param  ctx   read / write interface definitions(ptr)
  62:Drivers/BSP/Components/iis2mdc/iis2mdc_reg.c ****   * @param  reg   register to write
  63:Drivers/BSP/Components/iis2mdc/iis2mdc_reg.c ****   * @param  data  pointer to data to write in register reg(ptr)
  64:Drivers/BSP/Components/iis2mdc/iis2mdc_reg.c ****   * @param  len   number of consecutive register to write
  65:Drivers/BSP/Components/iis2mdc/iis2mdc_reg.c ****   * @retval          interface status (MANDATORY: return 0 -> no Error)
  66:Drivers/BSP/Components/iis2mdc/iis2mdc_reg.c ****   *
  67:Drivers/BSP/Components/iis2mdc/iis2mdc_reg.c ****   */
  68:Drivers/BSP/Components/iis2mdc/iis2mdc_reg.c **** int32_t __weak iis2mdc_write_reg(stmdev_ctx_t *ctx, uint8_t reg,
  69:Drivers/BSP/Components/iis2mdc/iis2mdc_reg.c ****                                  uint8_t *data,
  70:Drivers/BSP/Components/iis2mdc/iis2mdc_reg.c ****                                  uint16_t len)
  71:Drivers/BSP/Components/iis2mdc/iis2mdc_reg.c **** {
  65              		.loc 1 71 1 is_stmt 1 view -0
  66              		.cfi_startproc
  67              		@ args = 0, pretend = 0, frame = 0
  68              		@ frame_needed = 0, uses_anonymous_args = 0
  69              		.loc 1 71 1 is_stmt 0 view .LVU10
  70 0000 10B5     		push	{r4, lr}
  71              		.cfi_def_cfa_offset 8
  72              		.cfi_offset 4, -8
  73              		.cfi_offset 14, -4
  72:Drivers/BSP/Components/iis2mdc/iis2mdc_reg.c ****   int32_t ret;
  74              		.loc 1 72 3 is_stmt 1 view .LVU11
  73:Drivers/BSP/Components/iis2mdc/iis2mdc_reg.c **** 
  74:Drivers/BSP/Components/iis2mdc/iis2mdc_reg.c ****   ret = ctx->write_reg(ctx->handle, reg, data, len);
  75              		.loc 1 74 3 view .LVU12
  76              		.loc 1 74 12 is_stmt 0 view .LVU13
  77 0002 0468     		ldr	r4, [r0]
  78              		.loc 1 74 9 view .LVU14
  79 0004 C068     		ldr	r0, [r0, #12]
  80              	.LVL4:
  81              		.loc 1 74 9 view .LVU15
  82 0006 A047     		blx	r4
  83              	.LVL5:
  75:Drivers/BSP/Components/iis2mdc/iis2mdc_reg.c **** 
  76:Drivers/BSP/Components/iis2mdc/iis2mdc_reg.c ****   return ret;
  84              		.loc 1 76 3 is_stmt 1 view .LVU16
  77:Drivers/BSP/Components/iis2mdc/iis2mdc_reg.c **** }
  85              		.loc 1 77 1 is_stmt 0 view .LVU17
  86 0008 10BD     		pop	{r4, pc}
  87              		.cfi_endproc
  88              	.LFE1:
  90              		.section	.text.iis2mdc_from_lsb_to_mgauss,"ax",%progbits
  91              		.align	1
  92              		.global	iis2mdc_from_lsb_to_mgauss
  93              		.syntax unified
  94              		.thumb
  95              		.thumb_func
  97              	iis2mdc_from_lsb_to_mgauss:
  98              	.LVL6:
  99              	.LFB2:
ARM GAS  C:\Temp\cczma3Jx.s 			page 4


  78:Drivers/BSP/Components/iis2mdc/iis2mdc_reg.c **** 
  79:Drivers/BSP/Components/iis2mdc/iis2mdc_reg.c **** /**
  80:Drivers/BSP/Components/iis2mdc/iis2mdc_reg.c ****   * @}
  81:Drivers/BSP/Components/iis2mdc/iis2mdc_reg.c ****   *
  82:Drivers/BSP/Components/iis2mdc/iis2mdc_reg.c ****   */
  83:Drivers/BSP/Components/iis2mdc/iis2mdc_reg.c **** 
  84:Drivers/BSP/Components/iis2mdc/iis2mdc_reg.c **** /**
  85:Drivers/BSP/Components/iis2mdc/iis2mdc_reg.c ****   * @defgroup    IIS2MDC_Sensitivity
  86:Drivers/BSP/Components/iis2mdc/iis2mdc_reg.c ****   * @brief       These functions convert raw-data into engineering units.
  87:Drivers/BSP/Components/iis2mdc/iis2mdc_reg.c ****   * @{
  88:Drivers/BSP/Components/iis2mdc/iis2mdc_reg.c ****   *
  89:Drivers/BSP/Components/iis2mdc/iis2mdc_reg.c ****   */
  90:Drivers/BSP/Components/iis2mdc/iis2mdc_reg.c **** 
  91:Drivers/BSP/Components/iis2mdc/iis2mdc_reg.c **** float_t iis2mdc_from_lsb_to_mgauss(int16_t lsb)
  92:Drivers/BSP/Components/iis2mdc/iis2mdc_reg.c **** {
 100              		.loc 1 92 1 is_stmt 1 view -0
 101              		.cfi_startproc
 102              		@ args = 0, pretend = 0, frame = 0
 103              		@ frame_needed = 0, uses_anonymous_args = 0
 104              		@ link register save eliminated.
 105              		.loc 1 92 1 is_stmt 0 view .LVU19
 106 0000 07EE900A 		vmov	s15, r0	@ int
  93:Drivers/BSP/Components/iis2mdc/iis2mdc_reg.c ****   return ((float_t)lsb) * 1.5f;
 107              		.loc 1 93 3 is_stmt 1 view .LVU20
 108              		.loc 1 93 11 is_stmt 0 view .LVU21
 109 0004 F8EEE77A 		vcvt.f32.s32	s15, s15
  94:Drivers/BSP/Components/iis2mdc/iis2mdc_reg.c **** }
 110              		.loc 1 94 1 view .LVU22
 111 0008 B7EE080A 		vmov.f32	s0, #1.5e+0
 112 000c 27EE800A 		vmul.f32	s0, s15, s0
 113 0010 7047     		bx	lr
 114              		.cfi_endproc
 115              	.LFE2:
 117              		.section	.text.iis2mdc_from_lsb_to_celsius,"ax",%progbits
 118              		.align	1
 119              		.global	iis2mdc_from_lsb_to_celsius
 120              		.syntax unified
 121              		.thumb
 122              		.thumb_func
 124              	iis2mdc_from_lsb_to_celsius:
 125              	.LVL7:
 126              	.LFB3:
  95:Drivers/BSP/Components/iis2mdc/iis2mdc_reg.c **** 
  96:Drivers/BSP/Components/iis2mdc/iis2mdc_reg.c **** float_t iis2mdc_from_lsb_to_celsius(int16_t lsb)
  97:Drivers/BSP/Components/iis2mdc/iis2mdc_reg.c **** {
 127              		.loc 1 97 1 is_stmt 1 view -0
 128              		.cfi_startproc
 129              		@ args = 0, pretend = 0, frame = 0
 130              		@ frame_needed = 0, uses_anonymous_args = 0
 131              		@ link register save eliminated.
 132              		.loc 1 97 1 is_stmt 0 view .LVU24
 133 0000 07EE900A 		vmov	s15, r0	@ int
  98:Drivers/BSP/Components/iis2mdc/iis2mdc_reg.c ****   return (((float_t)lsb / 8.0f) + 25.0f);
 134              		.loc 1 98 3 is_stmt 1 view .LVU25
 135              		.loc 1 98 12 is_stmt 0 view .LVU26
 136 0004 F8EEE77A 		vcvt.f32.s32	s15, s15
 137              		.loc 1 98 25 view .LVU27
ARM GAS  C:\Temp\cczma3Jx.s 			page 5


 138 0008 B4EE007A 		vmov.f32	s14, #1.25e-1
 139 000c 67EE877A 		vmul.f32	s15, s15, s14
  99:Drivers/BSP/Components/iis2mdc/iis2mdc_reg.c **** }
 140              		.loc 1 99 1 view .LVU28
 141 0010 B3EE090A 		vmov.f32	s0, #2.5e+1
 142 0014 37EE800A 		vadd.f32	s0, s15, s0
 143 0018 7047     		bx	lr
 144              		.cfi_endproc
 145              	.LFE3:
 147              		.section	.text.iis2mdc_mag_user_offset_set,"ax",%progbits
 148              		.align	1
 149              		.global	iis2mdc_mag_user_offset_set
 150              		.syntax unified
 151              		.thumb
 152              		.thumb_func
 154              	iis2mdc_mag_user_offset_set:
 155              	.LVL8:
 156              	.LFB4:
 100:Drivers/BSP/Components/iis2mdc/iis2mdc_reg.c **** 
 101:Drivers/BSP/Components/iis2mdc/iis2mdc_reg.c **** /**
 102:Drivers/BSP/Components/iis2mdc/iis2mdc_reg.c ****   * @}
 103:Drivers/BSP/Components/iis2mdc/iis2mdc_reg.c ****   *
 104:Drivers/BSP/Components/iis2mdc/iis2mdc_reg.c ****   */
 105:Drivers/BSP/Components/iis2mdc/iis2mdc_reg.c **** 
 106:Drivers/BSP/Components/iis2mdc/iis2mdc_reg.c **** /**
 107:Drivers/BSP/Components/iis2mdc/iis2mdc_reg.c ****   * @defgroup   IIS2MDC_data_generation.
 108:Drivers/BSP/Components/iis2mdc/iis2mdc_reg.c ****   * @brief      This section group all the functions concerning
 109:Drivers/BSP/Components/iis2mdc/iis2mdc_reg.c ****   *             data generation.
 110:Drivers/BSP/Components/iis2mdc/iis2mdc_reg.c ****   * @{
 111:Drivers/BSP/Components/iis2mdc/iis2mdc_reg.c ****   *
 112:Drivers/BSP/Components/iis2mdc/iis2mdc_reg.c ****   */
 113:Drivers/BSP/Components/iis2mdc/iis2mdc_reg.c **** 
 114:Drivers/BSP/Components/iis2mdc/iis2mdc_reg.c **** /**
 115:Drivers/BSP/Components/iis2mdc/iis2mdc_reg.c ****   * @brief  These registers comprise a 3 group of 16-bit number and represent
 116:Drivers/BSP/Components/iis2mdc/iis2mdc_reg.c ****   *         hard-iron offset in order to compensate environmental effects.
 117:Drivers/BSP/Components/iis2mdc/iis2mdc_reg.c ****   *         Data format is the same of output data raw: two's complement with
 118:Drivers/BSP/Components/iis2mdc/iis2mdc_reg.c ****   *         1LSb = 1.5mG.
 119:Drivers/BSP/Components/iis2mdc/iis2mdc_reg.c ****   *         These values act on the magnetic output data value in order to
 120:Drivers/BSP/Components/iis2mdc/iis2mdc_reg.c ****   *         delete the environmental offset.[set]
 121:Drivers/BSP/Components/iis2mdc/iis2mdc_reg.c ****   *
 122:Drivers/BSP/Components/iis2mdc/iis2mdc_reg.c ****   * @param  ctx      read / write interface definitions
 123:Drivers/BSP/Components/iis2mdc/iis2mdc_reg.c ****   * @param  buff     buffer that contains data to write
 124:Drivers/BSP/Components/iis2mdc/iis2mdc_reg.c ****   * @retval          interface status (MANDATORY: return 0 -> no Error)
 125:Drivers/BSP/Components/iis2mdc/iis2mdc_reg.c ****   *
 126:Drivers/BSP/Components/iis2mdc/iis2mdc_reg.c ****   */
 127:Drivers/BSP/Components/iis2mdc/iis2mdc_reg.c **** int32_t iis2mdc_mag_user_offset_set(stmdev_ctx_t *ctx, int16_t *val)
 128:Drivers/BSP/Components/iis2mdc/iis2mdc_reg.c **** {
 157              		.loc 1 128 1 is_stmt 1 view -0
 158              		.cfi_startproc
 159              		@ args = 0, pretend = 0, frame = 8
 160              		@ frame_needed = 0, uses_anonymous_args = 0
 161              		.loc 1 128 1 is_stmt 0 view .LVU30
 162 0000 00B5     		push	{lr}
 163              		.cfi_def_cfa_offset 4
 164              		.cfi_offset 14, -4
 165 0002 83B0     		sub	sp, sp, #12
 166              		.cfi_def_cfa_offset 16
ARM GAS  C:\Temp\cczma3Jx.s 			page 6


 129:Drivers/BSP/Components/iis2mdc/iis2mdc_reg.c ****   uint8_t buff[6];
 167              		.loc 1 129 3 is_stmt 1 view .LVU31
 130:Drivers/BSP/Components/iis2mdc/iis2mdc_reg.c ****   int32_t ret;
 168              		.loc 1 130 3 view .LVU32
 131:Drivers/BSP/Components/iis2mdc/iis2mdc_reg.c **** 
 132:Drivers/BSP/Components/iis2mdc/iis2mdc_reg.c ****   buff[1] = (uint8_t)((uint16_t)val[0] / 256U);
 169              		.loc 1 132 3 view .LVU33
 170              		.loc 1 132 36 is_stmt 0 view .LVU34
 171 0004 B1F90030 		ldrsh	r3, [r1]
 172              		.loc 1 132 13 view .LVU35
 173 0008 C3F30722 		ubfx	r2, r3, #8, #8
 174              		.loc 1 132 11 view .LVU36
 175 000c 8DF80120 		strb	r2, [sp, #1]
 133:Drivers/BSP/Components/iis2mdc/iis2mdc_reg.c ****   buff[0] = (uint8_t)((uint16_t)val[0] - (buff[1] * 256U));
 176              		.loc 1 133 3 is_stmt 1 view .LVU37
 177              		.loc 1 133 11 is_stmt 0 view .LVU38
 178 0010 8DF80030 		strb	r3, [sp]
 134:Drivers/BSP/Components/iis2mdc/iis2mdc_reg.c ****   buff[3] = (uint8_t)((uint16_t)val[1] / 256U);
 179              		.loc 1 134 3 is_stmt 1 view .LVU39
 180              		.loc 1 134 36 is_stmt 0 view .LVU40
 181 0014 B1F90230 		ldrsh	r3, [r1, #2]
 182              		.loc 1 134 13 view .LVU41
 183 0018 C3F30722 		ubfx	r2, r3, #8, #8
 184              		.loc 1 134 11 view .LVU42
 185 001c 8DF80320 		strb	r2, [sp, #3]
 135:Drivers/BSP/Components/iis2mdc/iis2mdc_reg.c ****   buff[2] = (uint8_t)((uint16_t)val[1] - (buff[3] * 256U));
 186              		.loc 1 135 3 is_stmt 1 view .LVU43
 187              		.loc 1 135 11 is_stmt 0 view .LVU44
 188 0020 8DF80230 		strb	r3, [sp, #2]
 136:Drivers/BSP/Components/iis2mdc/iis2mdc_reg.c ****   buff[5] = (uint8_t)((uint16_t)val[2] / 256U);
 189              		.loc 1 136 3 is_stmt 1 view .LVU45
 190              		.loc 1 136 36 is_stmt 0 view .LVU46
 191 0024 B1F90430 		ldrsh	r3, [r1, #4]
 192              		.loc 1 136 13 view .LVU47
 193 0028 C3F30722 		ubfx	r2, r3, #8, #8
 194              		.loc 1 136 11 view .LVU48
 195 002c 8DF80520 		strb	r2, [sp, #5]
 137:Drivers/BSP/Components/iis2mdc/iis2mdc_reg.c ****   buff[4] = (uint8_t)((uint16_t)val[2] - (buff[5] * 256U));
 196              		.loc 1 137 3 is_stmt 1 view .LVU49
 197              		.loc 1 137 11 is_stmt 0 view .LVU50
 198 0030 8DF80430 		strb	r3, [sp, #4]
 138:Drivers/BSP/Components/iis2mdc/iis2mdc_reg.c ****   ret =  iis2mdc_write_reg(ctx, IIS2MDC_OFFSET_X_REG_L, buff, 6);
 199              		.loc 1 138 3 is_stmt 1 view .LVU51
 200              		.loc 1 138 10 is_stmt 0 view .LVU52
 201 0034 0623     		movs	r3, #6
 202 0036 6A46     		mov	r2, sp
 203 0038 4521     		movs	r1, #69
 204              	.LVL9:
 205              		.loc 1 138 10 view .LVU53
 206 003a FFF7FEFF 		bl	iis2mdc_write_reg
 207              	.LVL10:
 139:Drivers/BSP/Components/iis2mdc/iis2mdc_reg.c **** 
 140:Drivers/BSP/Components/iis2mdc/iis2mdc_reg.c ****   return ret;
 208              		.loc 1 140 3 is_stmt 1 view .LVU54
 141:Drivers/BSP/Components/iis2mdc/iis2mdc_reg.c **** }
 209              		.loc 1 141 1 is_stmt 0 view .LVU55
 210 003e 03B0     		add	sp, sp, #12
ARM GAS  C:\Temp\cczma3Jx.s 			page 7


 211              		.cfi_def_cfa_offset 4
 212              		@ sp needed
 213 0040 5DF804FB 		ldr	pc, [sp], #4
 214              		.cfi_endproc
 215              	.LFE4:
 217              		.section	.text.iis2mdc_mag_user_offset_get,"ax",%progbits
 218              		.align	1
 219              		.global	iis2mdc_mag_user_offset_get
 220              		.syntax unified
 221              		.thumb
 222              		.thumb_func
 224              	iis2mdc_mag_user_offset_get:
 225              	.LVL11:
 226              	.LFB5:
 142:Drivers/BSP/Components/iis2mdc/iis2mdc_reg.c **** 
 143:Drivers/BSP/Components/iis2mdc/iis2mdc_reg.c **** /**
 144:Drivers/BSP/Components/iis2mdc/iis2mdc_reg.c ****   * @brief  These registers comprise a 3 group of 16-bit number and represent
 145:Drivers/BSP/Components/iis2mdc/iis2mdc_reg.c ****   *         hard-iron offset in order to compensate environmental effects.
 146:Drivers/BSP/Components/iis2mdc/iis2mdc_reg.c ****   *         Data format is the same of output data raw: two's complement with
 147:Drivers/BSP/Components/iis2mdc/iis2mdc_reg.c ****   *         1LSb = 1.5mG.
 148:Drivers/BSP/Components/iis2mdc/iis2mdc_reg.c ****   *         These values act on the magnetic output data value in order to
 149:Drivers/BSP/Components/iis2mdc/iis2mdc_reg.c ****   *         delete the environmental offset.[get]
 150:Drivers/BSP/Components/iis2mdc/iis2mdc_reg.c ****   *
 151:Drivers/BSP/Components/iis2mdc/iis2mdc_reg.c ****   * @param  ctx      read / write interface definitions
 152:Drivers/BSP/Components/iis2mdc/iis2mdc_reg.c ****   * @param  buff     buffer that stores data read
 153:Drivers/BSP/Components/iis2mdc/iis2mdc_reg.c ****   * @retval          interface status (MANDATORY: return 0 -> no Error)
 154:Drivers/BSP/Components/iis2mdc/iis2mdc_reg.c ****   *
 155:Drivers/BSP/Components/iis2mdc/iis2mdc_reg.c ****   */
 156:Drivers/BSP/Components/iis2mdc/iis2mdc_reg.c **** int32_t iis2mdc_mag_user_offset_get(stmdev_ctx_t *ctx, int16_t *val)
 157:Drivers/BSP/Components/iis2mdc/iis2mdc_reg.c **** {
 227              		.loc 1 157 1 is_stmt 1 view -0
 228              		.cfi_startproc
 229              		@ args = 0, pretend = 0, frame = 8
 230              		@ frame_needed = 0, uses_anonymous_args = 0
 231              		.loc 1 157 1 is_stmt 0 view .LVU57
 232 0000 10B5     		push	{r4, lr}
 233              		.cfi_def_cfa_offset 8
 234              		.cfi_offset 4, -8
 235              		.cfi_offset 14, -4
 236 0002 82B0     		sub	sp, sp, #8
 237              		.cfi_def_cfa_offset 16
 238 0004 0C46     		mov	r4, r1
 158:Drivers/BSP/Components/iis2mdc/iis2mdc_reg.c ****   uint8_t buff[6];
 239              		.loc 1 158 3 is_stmt 1 view .LVU58
 159:Drivers/BSP/Components/iis2mdc/iis2mdc_reg.c ****   int32_t ret;
 240              		.loc 1 159 3 view .LVU59
 160:Drivers/BSP/Components/iis2mdc/iis2mdc_reg.c **** 
 161:Drivers/BSP/Components/iis2mdc/iis2mdc_reg.c ****   ret =  iis2mdc_read_reg(ctx, IIS2MDC_OFFSET_X_REG_L, buff, 6);
 241              		.loc 1 161 3 view .LVU60
 242              		.loc 1 161 10 is_stmt 0 view .LVU61
 243 0006 0623     		movs	r3, #6
 244 0008 6A46     		mov	r2, sp
 245 000a 4521     		movs	r1, #69
 246              	.LVL12:
 247              		.loc 1 161 10 view .LVU62
 248 000c FFF7FEFF 		bl	iis2mdc_read_reg
 249              	.LVL13:
ARM GAS  C:\Temp\cczma3Jx.s 			page 8


 162:Drivers/BSP/Components/iis2mdc/iis2mdc_reg.c ****   val[0] = (int16_t)buff[1];
 250              		.loc 1 162 3 is_stmt 1 view .LVU63
 251              		.loc 1 162 25 is_stmt 0 view .LVU64
 252 0010 9DF80120 		ldrb	r2, [sp, #1]	@ zero_extendqisi2
 253              		.loc 1 162 10 view .LVU65
 254 0014 2280     		strh	r2, [r4]	@ movhi
 163:Drivers/BSP/Components/iis2mdc/iis2mdc_reg.c ****   val[0] = (val[0] * 256) + (int16_t)buff[0];
 255              		.loc 1 163 3 is_stmt 1 view .LVU66
 256              		.loc 1 163 42 is_stmt 0 view .LVU67
 257 0016 9DF80030 		ldrb	r3, [sp]	@ zero_extendqisi2
 258              		.loc 1 163 27 view .LVU68
 259 001a 03EB0223 		add	r3, r3, r2, lsl #8
 260              		.loc 1 163 10 view .LVU69
 261 001e 2380     		strh	r3, [r4]	@ movhi
 164:Drivers/BSP/Components/iis2mdc/iis2mdc_reg.c ****   val[1] = (int16_t)buff[3];
 262              		.loc 1 164 3 is_stmt 1 view .LVU70
 263              		.loc 1 164 25 is_stmt 0 view .LVU71
 264 0020 9DF80320 		ldrb	r2, [sp, #3]	@ zero_extendqisi2
 265              		.loc 1 164 10 view .LVU72
 266 0024 6280     		strh	r2, [r4, #2]	@ movhi
 165:Drivers/BSP/Components/iis2mdc/iis2mdc_reg.c ****   val[1] = (val[1] * 256) + (int16_t)buff[2];
 267              		.loc 1 165 3 is_stmt 1 view .LVU73
 268              		.loc 1 165 42 is_stmt 0 view .LVU74
 269 0026 9DF80230 		ldrb	r3, [sp, #2]	@ zero_extendqisi2
 270              		.loc 1 165 27 view .LVU75
 271 002a 03EB0223 		add	r3, r3, r2, lsl #8
 272              		.loc 1 165 10 view .LVU76
 273 002e 6380     		strh	r3, [r4, #2]	@ movhi
 166:Drivers/BSP/Components/iis2mdc/iis2mdc_reg.c ****   val[2] = (int16_t)buff[5];
 274              		.loc 1 166 3 is_stmt 1 view .LVU77
 275              		.loc 1 166 25 is_stmt 0 view .LVU78
 276 0030 9DF80520 		ldrb	r2, [sp, #5]	@ zero_extendqisi2
 277              		.loc 1 166 10 view .LVU79
 278 0034 A280     		strh	r2, [r4, #4]	@ movhi
 167:Drivers/BSP/Components/iis2mdc/iis2mdc_reg.c ****   val[2] = (val[2] * 256) + (int16_t)buff[4];
 279              		.loc 1 167 3 is_stmt 1 view .LVU80
 280              		.loc 1 167 42 is_stmt 0 view .LVU81
 281 0036 9DF80430 		ldrb	r3, [sp, #4]	@ zero_extendqisi2
 282              		.loc 1 167 27 view .LVU82
 283 003a 03EB0223 		add	r3, r3, r2, lsl #8
 284              		.loc 1 167 10 view .LVU83
 285 003e A380     		strh	r3, [r4, #4]	@ movhi
 168:Drivers/BSP/Components/iis2mdc/iis2mdc_reg.c **** 
 169:Drivers/BSP/Components/iis2mdc/iis2mdc_reg.c ****   return ret;
 286              		.loc 1 169 3 is_stmt 1 view .LVU84
 170:Drivers/BSP/Components/iis2mdc/iis2mdc_reg.c **** }
 287              		.loc 1 170 1 is_stmt 0 view .LVU85
 288 0040 02B0     		add	sp, sp, #8
 289              		.cfi_def_cfa_offset 8
 290              		@ sp needed
 291 0042 10BD     		pop	{r4, pc}
 292              		.loc 1 170 1 view .LVU86
 293              		.cfi_endproc
 294              	.LFE5:
 296              		.section	.text.iis2mdc_operating_mode_set,"ax",%progbits
 297              		.align	1
 298              		.global	iis2mdc_operating_mode_set
ARM GAS  C:\Temp\cczma3Jx.s 			page 9


 299              		.syntax unified
 300              		.thumb
 301              		.thumb_func
 303              	iis2mdc_operating_mode_set:
 304              	.LVL14:
 305              	.LFB6:
 171:Drivers/BSP/Components/iis2mdc/iis2mdc_reg.c **** 
 172:Drivers/BSP/Components/iis2mdc/iis2mdc_reg.c **** /**
 173:Drivers/BSP/Components/iis2mdc/iis2mdc_reg.c ****   * @brief  Operating mode selection.[set]
 174:Drivers/BSP/Components/iis2mdc/iis2mdc_reg.c ****   *
 175:Drivers/BSP/Components/iis2mdc/iis2mdc_reg.c ****   * @param  ctx      read / write interface definitions
 176:Drivers/BSP/Components/iis2mdc/iis2mdc_reg.c ****   * @param  val      change the values of md in reg CFG_REG_A
 177:Drivers/BSP/Components/iis2mdc/iis2mdc_reg.c ****   * @retval          interface status (MANDATORY: return 0 -> no Error)
 178:Drivers/BSP/Components/iis2mdc/iis2mdc_reg.c ****   *
 179:Drivers/BSP/Components/iis2mdc/iis2mdc_reg.c ****   */
 180:Drivers/BSP/Components/iis2mdc/iis2mdc_reg.c **** int32_t iis2mdc_operating_mode_set(stmdev_ctx_t *ctx,
 181:Drivers/BSP/Components/iis2mdc/iis2mdc_reg.c ****                                    iis2mdc_md_t val)
 182:Drivers/BSP/Components/iis2mdc/iis2mdc_reg.c **** {
 306              		.loc 1 182 1 is_stmt 1 view -0
 307              		.cfi_startproc
 308              		@ args = 0, pretend = 0, frame = 8
 309              		@ frame_needed = 0, uses_anonymous_args = 0
 310              		.loc 1 182 1 is_stmt 0 view .LVU88
 311 0000 30B5     		push	{r4, r5, lr}
 312              		.cfi_def_cfa_offset 12
 313              		.cfi_offset 4, -12
 314              		.cfi_offset 5, -8
 315              		.cfi_offset 14, -4
 316 0002 83B0     		sub	sp, sp, #12
 317              		.cfi_def_cfa_offset 24
 318 0004 0446     		mov	r4, r0
 319 0006 0D46     		mov	r5, r1
 183:Drivers/BSP/Components/iis2mdc/iis2mdc_reg.c ****   iis2mdc_cfg_reg_a_t reg;
 320              		.loc 1 183 3 is_stmt 1 view .LVU89
 184:Drivers/BSP/Components/iis2mdc/iis2mdc_reg.c ****   int32_t ret;
 321              		.loc 1 184 3 view .LVU90
 185:Drivers/BSP/Components/iis2mdc/iis2mdc_reg.c **** 
 186:Drivers/BSP/Components/iis2mdc/iis2mdc_reg.c ****   ret = iis2mdc_read_reg(ctx, IIS2MDC_CFG_REG_A, (uint8_t *) &reg, 1);
 322              		.loc 1 186 3 view .LVU91
 323              		.loc 1 186 9 is_stmt 0 view .LVU92
 324 0008 0123     		movs	r3, #1
 325 000a 01AA     		add	r2, sp, #4
 326 000c 6021     		movs	r1, #96
 327              	.LVL15:
 328              		.loc 1 186 9 view .LVU93
 329 000e FFF7FEFF 		bl	iis2mdc_read_reg
 330              	.LVL16:
 187:Drivers/BSP/Components/iis2mdc/iis2mdc_reg.c **** 
 188:Drivers/BSP/Components/iis2mdc/iis2mdc_reg.c ****   if (ret == 0)
 331              		.loc 1 188 3 is_stmt 1 view .LVU94
 332              		.loc 1 188 6 is_stmt 0 view .LVU95
 333 0012 08B1     		cbz	r0, .L14
 334              	.LVL17:
 335              	.L11:
 189:Drivers/BSP/Components/iis2mdc/iis2mdc_reg.c ****   {
 190:Drivers/BSP/Components/iis2mdc/iis2mdc_reg.c ****     reg.md = (uint8_t)val;
 191:Drivers/BSP/Components/iis2mdc/iis2mdc_reg.c ****     ret = iis2mdc_write_reg(ctx, IIS2MDC_CFG_REG_A, (uint8_t *) &reg, 1);
ARM GAS  C:\Temp\cczma3Jx.s 			page 10


 192:Drivers/BSP/Components/iis2mdc/iis2mdc_reg.c ****   }
 193:Drivers/BSP/Components/iis2mdc/iis2mdc_reg.c **** 
 194:Drivers/BSP/Components/iis2mdc/iis2mdc_reg.c ****   return ret;
 195:Drivers/BSP/Components/iis2mdc/iis2mdc_reg.c **** }
 336              		.loc 1 195 1 view .LVU96
 337 0014 03B0     		add	sp, sp, #12
 338              		.cfi_remember_state
 339              		.cfi_def_cfa_offset 12
 340              		@ sp needed
 341 0016 30BD     		pop	{r4, r5, pc}
 342              	.LVL18:
 343              	.L14:
 344              		.cfi_restore_state
 190:Drivers/BSP/Components/iis2mdc/iis2mdc_reg.c ****     ret = iis2mdc_write_reg(ctx, IIS2MDC_CFG_REG_A, (uint8_t *) &reg, 1);
 345              		.loc 1 190 5 is_stmt 1 view .LVU97
 190:Drivers/BSP/Components/iis2mdc/iis2mdc_reg.c ****     ret = iis2mdc_write_reg(ctx, IIS2MDC_CFG_REG_A, (uint8_t *) &reg, 1);
 346              		.loc 1 190 12 is_stmt 0 view .LVU98
 347 0018 9DF80430 		ldrb	r3, [sp, #4]	@ zero_extendqisi2
 348 001c 65F30103 		bfi	r3, r5, #0, #2
 349 0020 8DF80430 		strb	r3, [sp, #4]
 191:Drivers/BSP/Components/iis2mdc/iis2mdc_reg.c ****   }
 350              		.loc 1 191 5 is_stmt 1 view .LVU99
 191:Drivers/BSP/Components/iis2mdc/iis2mdc_reg.c ****   }
 351              		.loc 1 191 11 is_stmt 0 view .LVU100
 352 0024 0123     		movs	r3, #1
 353              	.LVL19:
 191:Drivers/BSP/Components/iis2mdc/iis2mdc_reg.c ****   }
 354              		.loc 1 191 11 view .LVU101
 355 0026 01AA     		add	r2, sp, #4
 356 0028 6021     		movs	r1, #96
 357 002a 2046     		mov	r0, r4
 358 002c FFF7FEFF 		bl	iis2mdc_write_reg
 359              	.LVL20:
 194:Drivers/BSP/Components/iis2mdc/iis2mdc_reg.c **** }
 360              		.loc 1 194 3 is_stmt 1 view .LVU102
 194:Drivers/BSP/Components/iis2mdc/iis2mdc_reg.c **** }
 361              		.loc 1 194 10 is_stmt 0 view .LVU103
 362 0030 F0E7     		b	.L11
 363              		.cfi_endproc
 364              	.LFE6:
 366              		.section	.text.iis2mdc_operating_mode_get,"ax",%progbits
 367              		.align	1
 368              		.global	iis2mdc_operating_mode_get
 369              		.syntax unified
 370              		.thumb
 371              		.thumb_func
 373              	iis2mdc_operating_mode_get:
 374              	.LVL21:
 375              	.LFB7:
 196:Drivers/BSP/Components/iis2mdc/iis2mdc_reg.c **** 
 197:Drivers/BSP/Components/iis2mdc/iis2mdc_reg.c **** /**
 198:Drivers/BSP/Components/iis2mdc/iis2mdc_reg.c ****   * @brief  Operating mode selection.[get]
 199:Drivers/BSP/Components/iis2mdc/iis2mdc_reg.c ****   *
 200:Drivers/BSP/Components/iis2mdc/iis2mdc_reg.c ****   * @param  ctx      read / write interface definitions
 201:Drivers/BSP/Components/iis2mdc/iis2mdc_reg.c ****   * @param  val      Get the values of md in reg CFG_REG_A
 202:Drivers/BSP/Components/iis2mdc/iis2mdc_reg.c ****   * @retval          interface status (MANDATORY: return 0 -> no Error)
 203:Drivers/BSP/Components/iis2mdc/iis2mdc_reg.c ****   *
ARM GAS  C:\Temp\cczma3Jx.s 			page 11


 204:Drivers/BSP/Components/iis2mdc/iis2mdc_reg.c ****   */
 205:Drivers/BSP/Components/iis2mdc/iis2mdc_reg.c **** int32_t iis2mdc_operating_mode_get(stmdev_ctx_t *ctx,
 206:Drivers/BSP/Components/iis2mdc/iis2mdc_reg.c ****                                    iis2mdc_md_t *val)
 207:Drivers/BSP/Components/iis2mdc/iis2mdc_reg.c **** {
 376              		.loc 1 207 1 is_stmt 1 view -0
 377              		.cfi_startproc
 378              		@ args = 0, pretend = 0, frame = 8
 379              		@ frame_needed = 0, uses_anonymous_args = 0
 380              		.loc 1 207 1 is_stmt 0 view .LVU105
 381 0000 10B5     		push	{r4, lr}
 382              		.cfi_def_cfa_offset 8
 383              		.cfi_offset 4, -8
 384              		.cfi_offset 14, -4
 385 0002 82B0     		sub	sp, sp, #8
 386              		.cfi_def_cfa_offset 16
 387 0004 0C46     		mov	r4, r1
 208:Drivers/BSP/Components/iis2mdc/iis2mdc_reg.c ****   iis2mdc_cfg_reg_a_t reg;
 388              		.loc 1 208 3 is_stmt 1 view .LVU106
 209:Drivers/BSP/Components/iis2mdc/iis2mdc_reg.c ****   int32_t ret;
 389              		.loc 1 209 3 view .LVU107
 210:Drivers/BSP/Components/iis2mdc/iis2mdc_reg.c **** 
 211:Drivers/BSP/Components/iis2mdc/iis2mdc_reg.c ****   ret = iis2mdc_read_reg(ctx, IIS2MDC_CFG_REG_A, (uint8_t *) &reg, 1);
 390              		.loc 1 211 3 view .LVU108
 391              		.loc 1 211 9 is_stmt 0 view .LVU109
 392 0006 0123     		movs	r3, #1
 393 0008 01AA     		add	r2, sp, #4
 394 000a 6021     		movs	r1, #96
 395              	.LVL22:
 396              		.loc 1 211 9 view .LVU110
 397 000c FFF7FEFF 		bl	iis2mdc_read_reg
 398              	.LVL23:
 212:Drivers/BSP/Components/iis2mdc/iis2mdc_reg.c **** 
 213:Drivers/BSP/Components/iis2mdc/iis2mdc_reg.c ****   switch (reg.md)
 399              		.loc 1 213 3 is_stmt 1 view .LVU111
 400              		.loc 1 213 14 is_stmt 0 view .LVU112
 401 0010 9DF80430 		ldrb	r3, [sp, #4]	@ zero_extendqisi2
 402 0014 03F00303 		and	r3, r3, #3
 403              		.loc 1 213 3 view .LVU113
 404 0018 012B     		cmp	r3, #1
 405 001a 08D0     		beq	.L16
 406 001c 022B     		cmp	r3, #2
 407 001e 09D0     		beq	.L17
 408 0020 13B1     		cbz	r3, .L21
 214:Drivers/BSP/Components/iis2mdc/iis2mdc_reg.c ****   {
 215:Drivers/BSP/Components/iis2mdc/iis2mdc_reg.c ****     case IIS2MDC_CONTINUOUS_MODE:
 216:Drivers/BSP/Components/iis2mdc/iis2mdc_reg.c ****       *val = IIS2MDC_CONTINUOUS_MODE;
 217:Drivers/BSP/Components/iis2mdc/iis2mdc_reg.c ****       break;
 218:Drivers/BSP/Components/iis2mdc/iis2mdc_reg.c **** 
 219:Drivers/BSP/Components/iis2mdc/iis2mdc_reg.c ****     case IIS2MDC_SINGLE_TRIGGER:
 220:Drivers/BSP/Components/iis2mdc/iis2mdc_reg.c ****       *val = IIS2MDC_SINGLE_TRIGGER;
 221:Drivers/BSP/Components/iis2mdc/iis2mdc_reg.c ****       break;
 222:Drivers/BSP/Components/iis2mdc/iis2mdc_reg.c **** 
 223:Drivers/BSP/Components/iis2mdc/iis2mdc_reg.c ****     case IIS2MDC_POWER_DOWN:
 224:Drivers/BSP/Components/iis2mdc/iis2mdc_reg.c ****       *val = IIS2MDC_POWER_DOWN;
 225:Drivers/BSP/Components/iis2mdc/iis2mdc_reg.c ****       break;
 226:Drivers/BSP/Components/iis2mdc/iis2mdc_reg.c **** 
 227:Drivers/BSP/Components/iis2mdc/iis2mdc_reg.c ****     default:
ARM GAS  C:\Temp\cczma3Jx.s 			page 12


 228:Drivers/BSP/Components/iis2mdc/iis2mdc_reg.c ****       *val = IIS2MDC_CONTINUOUS_MODE;
 409              		.loc 1 228 7 is_stmt 1 view .LVU114
 410              		.loc 1 228 12 is_stmt 0 view .LVU115
 411 0022 0023     		movs	r3, #0
 412 0024 2370     		strb	r3, [r4]
 229:Drivers/BSP/Components/iis2mdc/iis2mdc_reg.c ****       break;
 413              		.loc 1 229 7 is_stmt 1 view .LVU116
 230:Drivers/BSP/Components/iis2mdc/iis2mdc_reg.c ****   }
 231:Drivers/BSP/Components/iis2mdc/iis2mdc_reg.c **** 
 232:Drivers/BSP/Components/iis2mdc/iis2mdc_reg.c ****   return ret;
 414              		.loc 1 232 3 view .LVU117
 415              		.loc 1 232 10 is_stmt 0 view .LVU118
 416 0026 00E0     		b	.L15
 417              	.L21:
 216:Drivers/BSP/Components/iis2mdc/iis2mdc_reg.c ****       break;
 418              		.loc 1 216 7 is_stmt 1 view .LVU119
 216:Drivers/BSP/Components/iis2mdc/iis2mdc_reg.c ****       break;
 419              		.loc 1 216 12 is_stmt 0 view .LVU120
 420 0028 2370     		strb	r3, [r4]
 217:Drivers/BSP/Components/iis2mdc/iis2mdc_reg.c **** 
 421              		.loc 1 217 7 is_stmt 1 view .LVU121
 422              	.L15:
 233:Drivers/BSP/Components/iis2mdc/iis2mdc_reg.c **** }
 423              		.loc 1 233 1 is_stmt 0 view .LVU122
 424 002a 02B0     		add	sp, sp, #8
 425              		.cfi_remember_state
 426              		.cfi_def_cfa_offset 8
 427              		@ sp needed
 428 002c 10BD     		pop	{r4, pc}
 429              	.LVL24:
 430              	.L16:
 431              		.cfi_restore_state
 220:Drivers/BSP/Components/iis2mdc/iis2mdc_reg.c ****       break;
 432              		.loc 1 220 7 is_stmt 1 view .LVU123
 220:Drivers/BSP/Components/iis2mdc/iis2mdc_reg.c ****       break;
 433              		.loc 1 220 12 is_stmt 0 view .LVU124
 434 002e 0123     		movs	r3, #1
 435 0030 2370     		strb	r3, [r4]
 221:Drivers/BSP/Components/iis2mdc/iis2mdc_reg.c **** 
 436              		.loc 1 221 7 is_stmt 1 view .LVU125
 437 0032 FAE7     		b	.L15
 438              	.L17:
 224:Drivers/BSP/Components/iis2mdc/iis2mdc_reg.c ****       break;
 439              		.loc 1 224 7 view .LVU126
 224:Drivers/BSP/Components/iis2mdc/iis2mdc_reg.c ****       break;
 440              		.loc 1 224 12 is_stmt 0 view .LVU127
 441 0034 0223     		movs	r3, #2
 442 0036 2370     		strb	r3, [r4]
 225:Drivers/BSP/Components/iis2mdc/iis2mdc_reg.c **** 
 443              		.loc 1 225 7 is_stmt 1 view .LVU128
 444 0038 F7E7     		b	.L15
 445              		.cfi_endproc
 446              	.LFE7:
 448              		.section	.text.iis2mdc_data_rate_set,"ax",%progbits
 449              		.align	1
 450              		.global	iis2mdc_data_rate_set
 451              		.syntax unified
ARM GAS  C:\Temp\cczma3Jx.s 			page 13


 452              		.thumb
 453              		.thumb_func
 455              	iis2mdc_data_rate_set:
 456              	.LVL25:
 457              	.LFB8:
 234:Drivers/BSP/Components/iis2mdc/iis2mdc_reg.c **** 
 235:Drivers/BSP/Components/iis2mdc/iis2mdc_reg.c **** /**
 236:Drivers/BSP/Components/iis2mdc/iis2mdc_reg.c ****   * @brief  Output data rate selection.[set]
 237:Drivers/BSP/Components/iis2mdc/iis2mdc_reg.c ****   *
 238:Drivers/BSP/Components/iis2mdc/iis2mdc_reg.c ****   * @param  ctx      read / write interface definitions
 239:Drivers/BSP/Components/iis2mdc/iis2mdc_reg.c ****   * @param  val      change the values of odr in reg CFG_REG_A
 240:Drivers/BSP/Components/iis2mdc/iis2mdc_reg.c ****   * @retval          interface status (MANDATORY: return 0 -> no Error)
 241:Drivers/BSP/Components/iis2mdc/iis2mdc_reg.c ****   *
 242:Drivers/BSP/Components/iis2mdc/iis2mdc_reg.c ****   */
 243:Drivers/BSP/Components/iis2mdc/iis2mdc_reg.c **** int32_t iis2mdc_data_rate_set(stmdev_ctx_t *ctx, iis2mdc_odr_t val)
 244:Drivers/BSP/Components/iis2mdc/iis2mdc_reg.c **** {
 458              		.loc 1 244 1 view -0
 459              		.cfi_startproc
 460              		@ args = 0, pretend = 0, frame = 8
 461              		@ frame_needed = 0, uses_anonymous_args = 0
 462              		.loc 1 244 1 is_stmt 0 view .LVU130
 463 0000 30B5     		push	{r4, r5, lr}
 464              		.cfi_def_cfa_offset 12
 465              		.cfi_offset 4, -12
 466              		.cfi_offset 5, -8
 467              		.cfi_offset 14, -4
 468 0002 83B0     		sub	sp, sp, #12
 469              		.cfi_def_cfa_offset 24
 470 0004 0446     		mov	r4, r0
 471 0006 0D46     		mov	r5, r1
 245:Drivers/BSP/Components/iis2mdc/iis2mdc_reg.c ****   iis2mdc_cfg_reg_a_t reg;
 472              		.loc 1 245 3 is_stmt 1 view .LVU131
 246:Drivers/BSP/Components/iis2mdc/iis2mdc_reg.c ****   int32_t ret;
 473              		.loc 1 246 3 view .LVU132
 247:Drivers/BSP/Components/iis2mdc/iis2mdc_reg.c **** 
 248:Drivers/BSP/Components/iis2mdc/iis2mdc_reg.c ****   ret = iis2mdc_read_reg(ctx, IIS2MDC_CFG_REG_A, (uint8_t *) &reg, 1);
 474              		.loc 1 248 3 view .LVU133
 475              		.loc 1 248 9 is_stmt 0 view .LVU134
 476 0008 0123     		movs	r3, #1
 477 000a 01AA     		add	r2, sp, #4
 478 000c 6021     		movs	r1, #96
 479              	.LVL26:
 480              		.loc 1 248 9 view .LVU135
 481 000e FFF7FEFF 		bl	iis2mdc_read_reg
 482              	.LVL27:
 249:Drivers/BSP/Components/iis2mdc/iis2mdc_reg.c **** 
 250:Drivers/BSP/Components/iis2mdc/iis2mdc_reg.c ****   if (ret == 0)
 483              		.loc 1 250 3 is_stmt 1 view .LVU136
 484              		.loc 1 250 6 is_stmt 0 view .LVU137
 485 0012 08B1     		cbz	r0, .L25
 486              	.LVL28:
 487              	.L22:
 251:Drivers/BSP/Components/iis2mdc/iis2mdc_reg.c ****   {
 252:Drivers/BSP/Components/iis2mdc/iis2mdc_reg.c ****     reg.odr = (uint8_t)val;
 253:Drivers/BSP/Components/iis2mdc/iis2mdc_reg.c ****     ret = iis2mdc_write_reg(ctx, IIS2MDC_CFG_REG_A, (uint8_t *) &reg, 1);
 254:Drivers/BSP/Components/iis2mdc/iis2mdc_reg.c ****   }
 255:Drivers/BSP/Components/iis2mdc/iis2mdc_reg.c **** 
ARM GAS  C:\Temp\cczma3Jx.s 			page 14


 256:Drivers/BSP/Components/iis2mdc/iis2mdc_reg.c ****   return ret;
 257:Drivers/BSP/Components/iis2mdc/iis2mdc_reg.c **** }
 488              		.loc 1 257 1 view .LVU138
 489 0014 03B0     		add	sp, sp, #12
 490              		.cfi_remember_state
 491              		.cfi_def_cfa_offset 12
 492              		@ sp needed
 493 0016 30BD     		pop	{r4, r5, pc}
 494              	.LVL29:
 495              	.L25:
 496              		.cfi_restore_state
 252:Drivers/BSP/Components/iis2mdc/iis2mdc_reg.c ****     ret = iis2mdc_write_reg(ctx, IIS2MDC_CFG_REG_A, (uint8_t *) &reg, 1);
 497              		.loc 1 252 5 is_stmt 1 view .LVU139
 252:Drivers/BSP/Components/iis2mdc/iis2mdc_reg.c ****     ret = iis2mdc_write_reg(ctx, IIS2MDC_CFG_REG_A, (uint8_t *) &reg, 1);
 498              		.loc 1 252 13 is_stmt 0 view .LVU140
 499 0018 9DF80430 		ldrb	r3, [sp, #4]	@ zero_extendqisi2
 500 001c 65F38303 		bfi	r3, r5, #2, #2
 501 0020 8DF80430 		strb	r3, [sp, #4]
 253:Drivers/BSP/Components/iis2mdc/iis2mdc_reg.c ****   }
 502              		.loc 1 253 5 is_stmt 1 view .LVU141
 253:Drivers/BSP/Components/iis2mdc/iis2mdc_reg.c ****   }
 503              		.loc 1 253 11 is_stmt 0 view .LVU142
 504 0024 0123     		movs	r3, #1
 505              	.LVL30:
 253:Drivers/BSP/Components/iis2mdc/iis2mdc_reg.c ****   }
 506              		.loc 1 253 11 view .LVU143
 507 0026 01AA     		add	r2, sp, #4
 508 0028 6021     		movs	r1, #96
 509 002a 2046     		mov	r0, r4
 510 002c FFF7FEFF 		bl	iis2mdc_write_reg
 511              	.LVL31:
 256:Drivers/BSP/Components/iis2mdc/iis2mdc_reg.c **** }
 512              		.loc 1 256 3 is_stmt 1 view .LVU144
 256:Drivers/BSP/Components/iis2mdc/iis2mdc_reg.c **** }
 513              		.loc 1 256 10 is_stmt 0 view .LVU145
 514 0030 F0E7     		b	.L22
 515              		.cfi_endproc
 516              	.LFE8:
 518              		.section	.text.iis2mdc_data_rate_get,"ax",%progbits
 519              		.align	1
 520              		.global	iis2mdc_data_rate_get
 521              		.syntax unified
 522              		.thumb
 523              		.thumb_func
 525              	iis2mdc_data_rate_get:
 526              	.LVL32:
 527              	.LFB9:
 258:Drivers/BSP/Components/iis2mdc/iis2mdc_reg.c **** 
 259:Drivers/BSP/Components/iis2mdc/iis2mdc_reg.c **** /**
 260:Drivers/BSP/Components/iis2mdc/iis2mdc_reg.c ****   * @brief  Output data rate selection.[get]
 261:Drivers/BSP/Components/iis2mdc/iis2mdc_reg.c ****   *
 262:Drivers/BSP/Components/iis2mdc/iis2mdc_reg.c ****   * @param  ctx      read / write interface definitions
 263:Drivers/BSP/Components/iis2mdc/iis2mdc_reg.c ****   * @param  val      Get the values of odr in reg CFG_REG_A
 264:Drivers/BSP/Components/iis2mdc/iis2mdc_reg.c ****   * @retval          interface status (MANDATORY: return 0 -> no Error)
 265:Drivers/BSP/Components/iis2mdc/iis2mdc_reg.c ****   *
 266:Drivers/BSP/Components/iis2mdc/iis2mdc_reg.c ****   */
 267:Drivers/BSP/Components/iis2mdc/iis2mdc_reg.c **** int32_t iis2mdc_data_rate_get(stmdev_ctx_t *ctx, iis2mdc_odr_t *val)
ARM GAS  C:\Temp\cczma3Jx.s 			page 15


 268:Drivers/BSP/Components/iis2mdc/iis2mdc_reg.c **** {
 528              		.loc 1 268 1 is_stmt 1 view -0
 529              		.cfi_startproc
 530              		@ args = 0, pretend = 0, frame = 8
 531              		@ frame_needed = 0, uses_anonymous_args = 0
 532              		.loc 1 268 1 is_stmt 0 view .LVU147
 533 0000 10B5     		push	{r4, lr}
 534              		.cfi_def_cfa_offset 8
 535              		.cfi_offset 4, -8
 536              		.cfi_offset 14, -4
 537 0002 82B0     		sub	sp, sp, #8
 538              		.cfi_def_cfa_offset 16
 539 0004 0C46     		mov	r4, r1
 269:Drivers/BSP/Components/iis2mdc/iis2mdc_reg.c ****   iis2mdc_cfg_reg_a_t reg;
 540              		.loc 1 269 3 is_stmt 1 view .LVU148
 270:Drivers/BSP/Components/iis2mdc/iis2mdc_reg.c ****   int32_t ret;
 541              		.loc 1 270 3 view .LVU149
 271:Drivers/BSP/Components/iis2mdc/iis2mdc_reg.c **** 
 272:Drivers/BSP/Components/iis2mdc/iis2mdc_reg.c ****   ret = iis2mdc_read_reg(ctx, IIS2MDC_CFG_REG_A, (uint8_t *) &reg, 1);
 542              		.loc 1 272 3 view .LVU150
 543              		.loc 1 272 9 is_stmt 0 view .LVU151
 544 0006 0123     		movs	r3, #1
 545 0008 01AA     		add	r2, sp, #4
 546 000a 6021     		movs	r1, #96
 547              	.LVL33:
 548              		.loc 1 272 9 view .LVU152
 549 000c FFF7FEFF 		bl	iis2mdc_read_reg
 550              	.LVL34:
 273:Drivers/BSP/Components/iis2mdc/iis2mdc_reg.c **** 
 274:Drivers/BSP/Components/iis2mdc/iis2mdc_reg.c ****   switch (reg.odr)
 551              		.loc 1 274 3 is_stmt 1 view .LVU153
 552              		.loc 1 274 14 is_stmt 0 view .LVU154
 553 0010 9DF80430 		ldrb	r3, [sp, #4]	@ zero_extendqisi2
 554 0014 C3F38103 		ubfx	r3, r3, #2, #2
 555              		.loc 1 274 3 view .LVU155
 556 0018 032B     		cmp	r3, #3
 557 001a 10D8     		bhi	.L27
 558 001c DFE803F0 		tbb	[pc, r3]
 559              	.L29:
 560 0020 02       		.byte	(.L32-.L29)/2
 561 0021 06       		.byte	(.L31-.L29)/2
 562 0022 09       		.byte	(.L30-.L29)/2
 563 0023 0C       		.byte	(.L28-.L29)/2
 564              		.p2align 1
 565              	.L32:
 275:Drivers/BSP/Components/iis2mdc/iis2mdc_reg.c ****   {
 276:Drivers/BSP/Components/iis2mdc/iis2mdc_reg.c ****     case IIS2MDC_ODR_10Hz:
 277:Drivers/BSP/Components/iis2mdc/iis2mdc_reg.c ****       *val = IIS2MDC_ODR_10Hz;
 566              		.loc 1 277 7 is_stmt 1 view .LVU156
 567              		.loc 1 277 12 is_stmt 0 view .LVU157
 568 0024 0023     		movs	r3, #0
 569 0026 2370     		strb	r3, [r4]
 278:Drivers/BSP/Components/iis2mdc/iis2mdc_reg.c ****       break;
 570              		.loc 1 278 7 is_stmt 1 view .LVU158
 571              	.L26:
 279:Drivers/BSP/Components/iis2mdc/iis2mdc_reg.c **** 
 280:Drivers/BSP/Components/iis2mdc/iis2mdc_reg.c ****     case IIS2MDC_ODR_20Hz:
ARM GAS  C:\Temp\cczma3Jx.s 			page 16


 281:Drivers/BSP/Components/iis2mdc/iis2mdc_reg.c ****       *val = IIS2MDC_ODR_20Hz;
 282:Drivers/BSP/Components/iis2mdc/iis2mdc_reg.c ****       break;
 283:Drivers/BSP/Components/iis2mdc/iis2mdc_reg.c **** 
 284:Drivers/BSP/Components/iis2mdc/iis2mdc_reg.c ****     case IIS2MDC_ODR_50Hz:
 285:Drivers/BSP/Components/iis2mdc/iis2mdc_reg.c ****       *val = IIS2MDC_ODR_50Hz;
 286:Drivers/BSP/Components/iis2mdc/iis2mdc_reg.c ****       break;
 287:Drivers/BSP/Components/iis2mdc/iis2mdc_reg.c **** 
 288:Drivers/BSP/Components/iis2mdc/iis2mdc_reg.c ****     case IIS2MDC_ODR_100Hz:
 289:Drivers/BSP/Components/iis2mdc/iis2mdc_reg.c ****       *val = IIS2MDC_ODR_100Hz;
 290:Drivers/BSP/Components/iis2mdc/iis2mdc_reg.c ****       break;
 291:Drivers/BSP/Components/iis2mdc/iis2mdc_reg.c **** 
 292:Drivers/BSP/Components/iis2mdc/iis2mdc_reg.c ****     default:
 293:Drivers/BSP/Components/iis2mdc/iis2mdc_reg.c ****       *val = IIS2MDC_ODR_10Hz;
 294:Drivers/BSP/Components/iis2mdc/iis2mdc_reg.c ****       break;
 295:Drivers/BSP/Components/iis2mdc/iis2mdc_reg.c ****   }
 296:Drivers/BSP/Components/iis2mdc/iis2mdc_reg.c **** 
 297:Drivers/BSP/Components/iis2mdc/iis2mdc_reg.c ****   return ret;
 298:Drivers/BSP/Components/iis2mdc/iis2mdc_reg.c **** }
 572              		.loc 1 298 1 is_stmt 0 view .LVU159
 573 0028 02B0     		add	sp, sp, #8
 574              		.cfi_remember_state
 575              		.cfi_def_cfa_offset 8
 576              		@ sp needed
 577 002a 10BD     		pop	{r4, pc}
 578              	.LVL35:
 579              	.L31:
 580              		.cfi_restore_state
 281:Drivers/BSP/Components/iis2mdc/iis2mdc_reg.c ****       break;
 581              		.loc 1 281 7 is_stmt 1 view .LVU160
 281:Drivers/BSP/Components/iis2mdc/iis2mdc_reg.c ****       break;
 582              		.loc 1 281 12 is_stmt 0 view .LVU161
 583 002c 0123     		movs	r3, #1
 584 002e 2370     		strb	r3, [r4]
 282:Drivers/BSP/Components/iis2mdc/iis2mdc_reg.c **** 
 585              		.loc 1 282 7 is_stmt 1 view .LVU162
 586 0030 FAE7     		b	.L26
 587              	.L30:
 285:Drivers/BSP/Components/iis2mdc/iis2mdc_reg.c ****       break;
 588              		.loc 1 285 7 view .LVU163
 285:Drivers/BSP/Components/iis2mdc/iis2mdc_reg.c ****       break;
 589              		.loc 1 285 12 is_stmt 0 view .LVU164
 590 0032 0223     		movs	r3, #2
 591 0034 2370     		strb	r3, [r4]
 286:Drivers/BSP/Components/iis2mdc/iis2mdc_reg.c **** 
 592              		.loc 1 286 7 is_stmt 1 view .LVU165
 593 0036 F7E7     		b	.L26
 594              	.L28:
 289:Drivers/BSP/Components/iis2mdc/iis2mdc_reg.c ****       break;
 595              		.loc 1 289 7 view .LVU166
 289:Drivers/BSP/Components/iis2mdc/iis2mdc_reg.c ****       break;
 596              		.loc 1 289 12 is_stmt 0 view .LVU167
 597 0038 0323     		movs	r3, #3
 598 003a 2370     		strb	r3, [r4]
 290:Drivers/BSP/Components/iis2mdc/iis2mdc_reg.c **** 
 599              		.loc 1 290 7 is_stmt 1 view .LVU168
 600 003c F4E7     		b	.L26
 601              	.L27:
ARM GAS  C:\Temp\cczma3Jx.s 			page 17


 293:Drivers/BSP/Components/iis2mdc/iis2mdc_reg.c ****       break;
 602              		.loc 1 293 7 view .LVU169
 293:Drivers/BSP/Components/iis2mdc/iis2mdc_reg.c ****       break;
 603              		.loc 1 293 12 is_stmt 0 view .LVU170
 604 003e 0023     		movs	r3, #0
 605 0040 2370     		strb	r3, [r4]
 294:Drivers/BSP/Components/iis2mdc/iis2mdc_reg.c ****   }
 606              		.loc 1 294 7 is_stmt 1 view .LVU171
 297:Drivers/BSP/Components/iis2mdc/iis2mdc_reg.c **** }
 607              		.loc 1 297 3 view .LVU172
 297:Drivers/BSP/Components/iis2mdc/iis2mdc_reg.c **** }
 608              		.loc 1 297 10 is_stmt 0 view .LVU173
 609 0042 F1E7     		b	.L26
 610              		.cfi_endproc
 611              	.LFE9:
 613              		.section	.text.iis2mdc_power_mode_set,"ax",%progbits
 614              		.align	1
 615              		.global	iis2mdc_power_mode_set
 616              		.syntax unified
 617              		.thumb
 618              		.thumb_func
 620              	iis2mdc_power_mode_set:
 621              	.LVL36:
 622              	.LFB10:
 299:Drivers/BSP/Components/iis2mdc/iis2mdc_reg.c **** 
 300:Drivers/BSP/Components/iis2mdc/iis2mdc_reg.c **** /**
 301:Drivers/BSP/Components/iis2mdc/iis2mdc_reg.c ****   * @brief  Enables high-resolution/low-power mode.[set]
 302:Drivers/BSP/Components/iis2mdc/iis2mdc_reg.c ****   *
 303:Drivers/BSP/Components/iis2mdc/iis2mdc_reg.c ****   * @param  ctx      read / write interface definitions
 304:Drivers/BSP/Components/iis2mdc/iis2mdc_reg.c ****   * @param  val      change the values of lp in reg CFG_REG_A
 305:Drivers/BSP/Components/iis2mdc/iis2mdc_reg.c ****   * @retval          interface status (MANDATORY: return 0 -> no Error)
 306:Drivers/BSP/Components/iis2mdc/iis2mdc_reg.c ****   *
 307:Drivers/BSP/Components/iis2mdc/iis2mdc_reg.c ****   */
 308:Drivers/BSP/Components/iis2mdc/iis2mdc_reg.c **** int32_t iis2mdc_power_mode_set(stmdev_ctx_t *ctx, iis2mdc_lp_t val)
 309:Drivers/BSP/Components/iis2mdc/iis2mdc_reg.c **** {
 623              		.loc 1 309 1 is_stmt 1 view -0
 624              		.cfi_startproc
 625              		@ args = 0, pretend = 0, frame = 8
 626              		@ frame_needed = 0, uses_anonymous_args = 0
 627              		.loc 1 309 1 is_stmt 0 view .LVU175
 628 0000 30B5     		push	{r4, r5, lr}
 629              		.cfi_def_cfa_offset 12
 630              		.cfi_offset 4, -12
 631              		.cfi_offset 5, -8
 632              		.cfi_offset 14, -4
 633 0002 83B0     		sub	sp, sp, #12
 634              		.cfi_def_cfa_offset 24
 635 0004 0446     		mov	r4, r0
 636 0006 0D46     		mov	r5, r1
 310:Drivers/BSP/Components/iis2mdc/iis2mdc_reg.c ****   iis2mdc_cfg_reg_a_t reg;
 637              		.loc 1 310 3 is_stmt 1 view .LVU176
 311:Drivers/BSP/Components/iis2mdc/iis2mdc_reg.c ****   int32_t ret;
 638              		.loc 1 311 3 view .LVU177
 312:Drivers/BSP/Components/iis2mdc/iis2mdc_reg.c **** 
 313:Drivers/BSP/Components/iis2mdc/iis2mdc_reg.c ****   ret = iis2mdc_read_reg(ctx, IIS2MDC_CFG_REG_A, (uint8_t *) &reg, 1);
 639              		.loc 1 313 3 view .LVU178
 640              		.loc 1 313 9 is_stmt 0 view .LVU179
ARM GAS  C:\Temp\cczma3Jx.s 			page 18


 641 0008 0123     		movs	r3, #1
 642 000a 01AA     		add	r2, sp, #4
 643 000c 6021     		movs	r1, #96
 644              	.LVL37:
 645              		.loc 1 313 9 view .LVU180
 646 000e FFF7FEFF 		bl	iis2mdc_read_reg
 647              	.LVL38:
 314:Drivers/BSP/Components/iis2mdc/iis2mdc_reg.c **** 
 315:Drivers/BSP/Components/iis2mdc/iis2mdc_reg.c ****   if (ret == 0)
 648              		.loc 1 315 3 is_stmt 1 view .LVU181
 649              		.loc 1 315 6 is_stmt 0 view .LVU182
 650 0012 08B1     		cbz	r0, .L38
 651              	.LVL39:
 652              	.L35:
 316:Drivers/BSP/Components/iis2mdc/iis2mdc_reg.c ****   {
 317:Drivers/BSP/Components/iis2mdc/iis2mdc_reg.c ****     reg.lp = (uint8_t)val;
 318:Drivers/BSP/Components/iis2mdc/iis2mdc_reg.c ****     ret = iis2mdc_write_reg(ctx, IIS2MDC_CFG_REG_A, (uint8_t *) &reg, 1);
 319:Drivers/BSP/Components/iis2mdc/iis2mdc_reg.c ****   }
 320:Drivers/BSP/Components/iis2mdc/iis2mdc_reg.c **** 
 321:Drivers/BSP/Components/iis2mdc/iis2mdc_reg.c ****   return ret;
 322:Drivers/BSP/Components/iis2mdc/iis2mdc_reg.c **** }
 653              		.loc 1 322 1 view .LVU183
 654 0014 03B0     		add	sp, sp, #12
 655              		.cfi_remember_state
 656              		.cfi_def_cfa_offset 12
 657              		@ sp needed
 658 0016 30BD     		pop	{r4, r5, pc}
 659              	.LVL40:
 660              	.L38:
 661              		.cfi_restore_state
 317:Drivers/BSP/Components/iis2mdc/iis2mdc_reg.c ****     ret = iis2mdc_write_reg(ctx, IIS2MDC_CFG_REG_A, (uint8_t *) &reg, 1);
 662              		.loc 1 317 5 is_stmt 1 view .LVU184
 317:Drivers/BSP/Components/iis2mdc/iis2mdc_reg.c ****     ret = iis2mdc_write_reg(ctx, IIS2MDC_CFG_REG_A, (uint8_t *) &reg, 1);
 663              		.loc 1 317 12 is_stmt 0 view .LVU185
 664 0018 9DF80430 		ldrb	r3, [sp, #4]	@ zero_extendqisi2
 665 001c 65F30413 		bfi	r3, r5, #4, #1
 666 0020 8DF80430 		strb	r3, [sp, #4]
 318:Drivers/BSP/Components/iis2mdc/iis2mdc_reg.c ****   }
 667              		.loc 1 318 5 is_stmt 1 view .LVU186
 318:Drivers/BSP/Components/iis2mdc/iis2mdc_reg.c ****   }
 668              		.loc 1 318 11 is_stmt 0 view .LVU187
 669 0024 0123     		movs	r3, #1
 670              	.LVL41:
 318:Drivers/BSP/Components/iis2mdc/iis2mdc_reg.c ****   }
 671              		.loc 1 318 11 view .LVU188
 672 0026 01AA     		add	r2, sp, #4
 673 0028 6021     		movs	r1, #96
 674 002a 2046     		mov	r0, r4
 675 002c FFF7FEFF 		bl	iis2mdc_write_reg
 676              	.LVL42:
 321:Drivers/BSP/Components/iis2mdc/iis2mdc_reg.c **** }
 677              		.loc 1 321 3 is_stmt 1 view .LVU189
 321:Drivers/BSP/Components/iis2mdc/iis2mdc_reg.c **** }
 678              		.loc 1 321 10 is_stmt 0 view .LVU190
 679 0030 F0E7     		b	.L35
 680              		.cfi_endproc
 681              	.LFE10:
ARM GAS  C:\Temp\cczma3Jx.s 			page 19


 683              		.section	.text.iis2mdc_power_mode_get,"ax",%progbits
 684              		.align	1
 685              		.global	iis2mdc_power_mode_get
 686              		.syntax unified
 687              		.thumb
 688              		.thumb_func
 690              	iis2mdc_power_mode_get:
 691              	.LVL43:
 692              	.LFB11:
 323:Drivers/BSP/Components/iis2mdc/iis2mdc_reg.c **** 
 324:Drivers/BSP/Components/iis2mdc/iis2mdc_reg.c **** /**
 325:Drivers/BSP/Components/iis2mdc/iis2mdc_reg.c ****   * @brief  Enables high-resolution/low-power mode.[get]
 326:Drivers/BSP/Components/iis2mdc/iis2mdc_reg.c ****   *
 327:Drivers/BSP/Components/iis2mdc/iis2mdc_reg.c ****   * @param  ctx      read / write interface definitions
 328:Drivers/BSP/Components/iis2mdc/iis2mdc_reg.c ****   * @param  val      Get the values of lp in reg CFG_REG_A
 329:Drivers/BSP/Components/iis2mdc/iis2mdc_reg.c ****   * @retval          interface status (MANDATORY: return 0 -> no Error)
 330:Drivers/BSP/Components/iis2mdc/iis2mdc_reg.c ****   *
 331:Drivers/BSP/Components/iis2mdc/iis2mdc_reg.c ****   */
 332:Drivers/BSP/Components/iis2mdc/iis2mdc_reg.c **** int32_t iis2mdc_power_mode_get(stmdev_ctx_t *ctx, iis2mdc_lp_t *val)
 333:Drivers/BSP/Components/iis2mdc/iis2mdc_reg.c **** {
 693              		.loc 1 333 1 is_stmt 1 view -0
 694              		.cfi_startproc
 695              		@ args = 0, pretend = 0, frame = 8
 696              		@ frame_needed = 0, uses_anonymous_args = 0
 697              		.loc 1 333 1 is_stmt 0 view .LVU192
 698 0000 10B5     		push	{r4, lr}
 699              		.cfi_def_cfa_offset 8
 700              		.cfi_offset 4, -8
 701              		.cfi_offset 14, -4
 702 0002 82B0     		sub	sp, sp, #8
 703              		.cfi_def_cfa_offset 16
 704 0004 0C46     		mov	r4, r1
 334:Drivers/BSP/Components/iis2mdc/iis2mdc_reg.c ****   iis2mdc_cfg_reg_a_t reg;
 705              		.loc 1 334 3 is_stmt 1 view .LVU193
 335:Drivers/BSP/Components/iis2mdc/iis2mdc_reg.c ****   int32_t ret;
 706              		.loc 1 335 3 view .LVU194
 336:Drivers/BSP/Components/iis2mdc/iis2mdc_reg.c **** 
 337:Drivers/BSP/Components/iis2mdc/iis2mdc_reg.c ****   ret = iis2mdc_read_reg(ctx, IIS2MDC_CFG_REG_A, (uint8_t *) &reg, 1);
 707              		.loc 1 337 3 view .LVU195
 708              		.loc 1 337 9 is_stmt 0 view .LVU196
 709 0006 0123     		movs	r3, #1
 710 0008 01AA     		add	r2, sp, #4
 711 000a 6021     		movs	r1, #96
 712              	.LVL44:
 713              		.loc 1 337 9 view .LVU197
 714 000c FFF7FEFF 		bl	iis2mdc_read_reg
 715              	.LVL45:
 338:Drivers/BSP/Components/iis2mdc/iis2mdc_reg.c **** 
 339:Drivers/BSP/Components/iis2mdc/iis2mdc_reg.c ****   switch (reg.lp)
 716              		.loc 1 339 3 is_stmt 1 view .LVU198
 717              		.loc 1 339 14 is_stmt 0 view .LVU199
 718 0010 9DF80430 		ldrb	r3, [sp, #4]	@ zero_extendqisi2
 719 0014 C3F30012 		ubfx	r2, r3, #4, #1
 720              		.loc 1 339 3 view .LVU200
 721 0018 13F0100F 		tst	r3, #16
 722 001c 03D0     		beq	.L40
 723 001e 32B9     		cbnz	r2, .L41
ARM GAS  C:\Temp\cczma3Jx.s 			page 20


 340:Drivers/BSP/Components/iis2mdc/iis2mdc_reg.c ****   {
 341:Drivers/BSP/Components/iis2mdc/iis2mdc_reg.c ****     case IIS2MDC_HIGH_RESOLUTION:
 342:Drivers/BSP/Components/iis2mdc/iis2mdc_reg.c ****       *val = IIS2MDC_HIGH_RESOLUTION;
 343:Drivers/BSP/Components/iis2mdc/iis2mdc_reg.c ****       break;
 344:Drivers/BSP/Components/iis2mdc/iis2mdc_reg.c **** 
 345:Drivers/BSP/Components/iis2mdc/iis2mdc_reg.c ****     case IIS2MDC_LOW_POWER:
 346:Drivers/BSP/Components/iis2mdc/iis2mdc_reg.c ****       *val = IIS2MDC_LOW_POWER;
 347:Drivers/BSP/Components/iis2mdc/iis2mdc_reg.c ****       break;
 348:Drivers/BSP/Components/iis2mdc/iis2mdc_reg.c **** 
 349:Drivers/BSP/Components/iis2mdc/iis2mdc_reg.c ****     default:
 350:Drivers/BSP/Components/iis2mdc/iis2mdc_reg.c ****       *val = IIS2MDC_HIGH_RESOLUTION;
 724              		.loc 1 350 7 is_stmt 1 view .LVU201
 725              		.loc 1 350 12 is_stmt 0 view .LVU202
 726 0020 0023     		movs	r3, #0
 727 0022 2370     		strb	r3, [r4]
 351:Drivers/BSP/Components/iis2mdc/iis2mdc_reg.c ****       break;
 728              		.loc 1 351 7 is_stmt 1 view .LVU203
 352:Drivers/BSP/Components/iis2mdc/iis2mdc_reg.c ****   }
 353:Drivers/BSP/Components/iis2mdc/iis2mdc_reg.c **** 
 354:Drivers/BSP/Components/iis2mdc/iis2mdc_reg.c ****   return ret;
 729              		.loc 1 354 3 view .LVU204
 730              		.loc 1 354 10 is_stmt 0 view .LVU205
 731 0024 01E0     		b	.L39
 732              	.L40:
 342:Drivers/BSP/Components/iis2mdc/iis2mdc_reg.c ****       break;
 733              		.loc 1 342 7 is_stmt 1 view .LVU206
 342:Drivers/BSP/Components/iis2mdc/iis2mdc_reg.c ****       break;
 734              		.loc 1 342 12 is_stmt 0 view .LVU207
 735 0026 0023     		movs	r3, #0
 736 0028 2370     		strb	r3, [r4]
 343:Drivers/BSP/Components/iis2mdc/iis2mdc_reg.c **** 
 737              		.loc 1 343 7 is_stmt 1 view .LVU208
 738              	.L39:
 355:Drivers/BSP/Components/iis2mdc/iis2mdc_reg.c **** }
 739              		.loc 1 355 1 is_stmt 0 view .LVU209
 740 002a 02B0     		add	sp, sp, #8
 741              		.cfi_remember_state
 742              		.cfi_def_cfa_offset 8
 743              		@ sp needed
 744 002c 10BD     		pop	{r4, pc}
 745              	.LVL46:
 746              	.L41:
 747              		.cfi_restore_state
 346:Drivers/BSP/Components/iis2mdc/iis2mdc_reg.c ****       break;
 748              		.loc 1 346 7 is_stmt 1 view .LVU210
 346:Drivers/BSP/Components/iis2mdc/iis2mdc_reg.c ****       break;
 749              		.loc 1 346 12 is_stmt 0 view .LVU211
 750 002e 0123     		movs	r3, #1
 751 0030 2370     		strb	r3, [r4]
 347:Drivers/BSP/Components/iis2mdc/iis2mdc_reg.c **** 
 752              		.loc 1 347 7 is_stmt 1 view .LVU212
 753 0032 FAE7     		b	.L39
 754              		.cfi_endproc
 755              	.LFE11:
 757              		.section	.text.iis2mdc_offset_temp_comp_set,"ax",%progbits
 758              		.align	1
 759              		.global	iis2mdc_offset_temp_comp_set
ARM GAS  C:\Temp\cczma3Jx.s 			page 21


 760              		.syntax unified
 761              		.thumb
 762              		.thumb_func
 764              	iis2mdc_offset_temp_comp_set:
 765              	.LVL47:
 766              	.LFB12:
 356:Drivers/BSP/Components/iis2mdc/iis2mdc_reg.c **** 
 357:Drivers/BSP/Components/iis2mdc/iis2mdc_reg.c **** /**
 358:Drivers/BSP/Components/iis2mdc/iis2mdc_reg.c ****   * @brief  Enables the magnetometer temperature compensation.[set]
 359:Drivers/BSP/Components/iis2mdc/iis2mdc_reg.c ****   *
 360:Drivers/BSP/Components/iis2mdc/iis2mdc_reg.c ****   * @param  ctx      read / write interface definitions
 361:Drivers/BSP/Components/iis2mdc/iis2mdc_reg.c ****   * @param  val      change the values of comp_temp_en in reg CFG_REG_A
 362:Drivers/BSP/Components/iis2mdc/iis2mdc_reg.c ****   * @retval          interface status (MANDATORY: return 0 -> no Error)
 363:Drivers/BSP/Components/iis2mdc/iis2mdc_reg.c ****   *
 364:Drivers/BSP/Components/iis2mdc/iis2mdc_reg.c ****   */
 365:Drivers/BSP/Components/iis2mdc/iis2mdc_reg.c **** int32_t iis2mdc_offset_temp_comp_set(stmdev_ctx_t *ctx, uint8_t val)
 366:Drivers/BSP/Components/iis2mdc/iis2mdc_reg.c **** {
 767              		.loc 1 366 1 view -0
 768              		.cfi_startproc
 769              		@ args = 0, pretend = 0, frame = 8
 770              		@ frame_needed = 0, uses_anonymous_args = 0
 771              		.loc 1 366 1 is_stmt 0 view .LVU214
 772 0000 30B5     		push	{r4, r5, lr}
 773              		.cfi_def_cfa_offset 12
 774              		.cfi_offset 4, -12
 775              		.cfi_offset 5, -8
 776              		.cfi_offset 14, -4
 777 0002 83B0     		sub	sp, sp, #12
 778              		.cfi_def_cfa_offset 24
 779 0004 0446     		mov	r4, r0
 780 0006 0D46     		mov	r5, r1
 367:Drivers/BSP/Components/iis2mdc/iis2mdc_reg.c ****   iis2mdc_cfg_reg_a_t reg;
 781              		.loc 1 367 3 is_stmt 1 view .LVU215
 368:Drivers/BSP/Components/iis2mdc/iis2mdc_reg.c ****   int32_t ret;
 782              		.loc 1 368 3 view .LVU216
 369:Drivers/BSP/Components/iis2mdc/iis2mdc_reg.c **** 
 370:Drivers/BSP/Components/iis2mdc/iis2mdc_reg.c ****   ret = iis2mdc_read_reg(ctx, IIS2MDC_CFG_REG_A, (uint8_t *) &reg, 1);
 783              		.loc 1 370 3 view .LVU217
 784              		.loc 1 370 9 is_stmt 0 view .LVU218
 785 0008 0123     		movs	r3, #1
 786 000a 01AA     		add	r2, sp, #4
 787 000c 6021     		movs	r1, #96
 788              	.LVL48:
 789              		.loc 1 370 9 view .LVU219
 790 000e FFF7FEFF 		bl	iis2mdc_read_reg
 791              	.LVL49:
 371:Drivers/BSP/Components/iis2mdc/iis2mdc_reg.c **** 
 372:Drivers/BSP/Components/iis2mdc/iis2mdc_reg.c ****   if (ret == 0)
 792              		.loc 1 372 3 is_stmt 1 view .LVU220
 793              		.loc 1 372 6 is_stmt 0 view .LVU221
 794 0012 08B1     		cbz	r0, .L49
 795              	.LVL50:
 796              	.L46:
 373:Drivers/BSP/Components/iis2mdc/iis2mdc_reg.c ****   {
 374:Drivers/BSP/Components/iis2mdc/iis2mdc_reg.c ****     reg.comp_temp_en = val;
 375:Drivers/BSP/Components/iis2mdc/iis2mdc_reg.c ****     ret = iis2mdc_write_reg(ctx, IIS2MDC_CFG_REG_A, (uint8_t *) &reg, 1);
 376:Drivers/BSP/Components/iis2mdc/iis2mdc_reg.c ****   }
ARM GAS  C:\Temp\cczma3Jx.s 			page 22


 377:Drivers/BSP/Components/iis2mdc/iis2mdc_reg.c **** 
 378:Drivers/BSP/Components/iis2mdc/iis2mdc_reg.c ****   return ret;
 379:Drivers/BSP/Components/iis2mdc/iis2mdc_reg.c **** }
 797              		.loc 1 379 1 view .LVU222
 798 0014 03B0     		add	sp, sp, #12
 799              		.cfi_remember_state
 800              		.cfi_def_cfa_offset 12
 801              		@ sp needed
 802 0016 30BD     		pop	{r4, r5, pc}
 803              	.LVL51:
 804              	.L49:
 805              		.cfi_restore_state
 374:Drivers/BSP/Components/iis2mdc/iis2mdc_reg.c ****     ret = iis2mdc_write_reg(ctx, IIS2MDC_CFG_REG_A, (uint8_t *) &reg, 1);
 806              		.loc 1 374 5 is_stmt 1 view .LVU223
 374:Drivers/BSP/Components/iis2mdc/iis2mdc_reg.c ****     ret = iis2mdc_write_reg(ctx, IIS2MDC_CFG_REG_A, (uint8_t *) &reg, 1);
 807              		.loc 1 374 22 is_stmt 0 view .LVU224
 808 0018 9DF80430 		ldrb	r3, [sp, #4]	@ zero_extendqisi2
 809 001c 65F3C713 		bfi	r3, r5, #7, #1
 810 0020 8DF80430 		strb	r3, [sp, #4]
 375:Drivers/BSP/Components/iis2mdc/iis2mdc_reg.c ****   }
 811              		.loc 1 375 5 is_stmt 1 view .LVU225
 375:Drivers/BSP/Components/iis2mdc/iis2mdc_reg.c ****   }
 812              		.loc 1 375 11 is_stmt 0 view .LVU226
 813 0024 0123     		movs	r3, #1
 814              	.LVL52:
 375:Drivers/BSP/Components/iis2mdc/iis2mdc_reg.c ****   }
 815              		.loc 1 375 11 view .LVU227
 816 0026 01AA     		add	r2, sp, #4
 817 0028 6021     		movs	r1, #96
 818 002a 2046     		mov	r0, r4
 819 002c FFF7FEFF 		bl	iis2mdc_write_reg
 820              	.LVL53:
 378:Drivers/BSP/Components/iis2mdc/iis2mdc_reg.c **** }
 821              		.loc 1 378 3 is_stmt 1 view .LVU228
 378:Drivers/BSP/Components/iis2mdc/iis2mdc_reg.c **** }
 822              		.loc 1 378 10 is_stmt 0 view .LVU229
 823 0030 F0E7     		b	.L46
 824              		.cfi_endproc
 825              	.LFE12:
 827              		.section	.text.iis2mdc_offset_temp_comp_get,"ax",%progbits
 828              		.align	1
 829              		.global	iis2mdc_offset_temp_comp_get
 830              		.syntax unified
 831              		.thumb
 832              		.thumb_func
 834              	iis2mdc_offset_temp_comp_get:
 835              	.LVL54:
 836              	.LFB13:
 380:Drivers/BSP/Components/iis2mdc/iis2mdc_reg.c **** 
 381:Drivers/BSP/Components/iis2mdc/iis2mdc_reg.c **** /**
 382:Drivers/BSP/Components/iis2mdc/iis2mdc_reg.c ****   * @brief  Enables the magnetometer temperature compensation.[get]
 383:Drivers/BSP/Components/iis2mdc/iis2mdc_reg.c ****   *
 384:Drivers/BSP/Components/iis2mdc/iis2mdc_reg.c ****   * @param  ctx      read / write interface definitions
 385:Drivers/BSP/Components/iis2mdc/iis2mdc_reg.c ****   * @param  val      change the values of comp_temp_en in reg CFG_REG_A
 386:Drivers/BSP/Components/iis2mdc/iis2mdc_reg.c ****   * @retval          interface status (MANDATORY: return 0 -> no Error)
 387:Drivers/BSP/Components/iis2mdc/iis2mdc_reg.c ****   *
 388:Drivers/BSP/Components/iis2mdc/iis2mdc_reg.c ****   */
ARM GAS  C:\Temp\cczma3Jx.s 			page 23


 389:Drivers/BSP/Components/iis2mdc/iis2mdc_reg.c **** int32_t iis2mdc_offset_temp_comp_get(stmdev_ctx_t *ctx, uint8_t *val)
 390:Drivers/BSP/Components/iis2mdc/iis2mdc_reg.c **** {
 837              		.loc 1 390 1 is_stmt 1 view -0
 838              		.cfi_startproc
 839              		@ args = 0, pretend = 0, frame = 8
 840              		@ frame_needed = 0, uses_anonymous_args = 0
 841              		.loc 1 390 1 is_stmt 0 view .LVU231
 842 0000 10B5     		push	{r4, lr}
 843              		.cfi_def_cfa_offset 8
 844              		.cfi_offset 4, -8
 845              		.cfi_offset 14, -4
 846 0002 82B0     		sub	sp, sp, #8
 847              		.cfi_def_cfa_offset 16
 848 0004 0C46     		mov	r4, r1
 391:Drivers/BSP/Components/iis2mdc/iis2mdc_reg.c ****   iis2mdc_cfg_reg_a_t reg;
 849              		.loc 1 391 3 is_stmt 1 view .LVU232
 392:Drivers/BSP/Components/iis2mdc/iis2mdc_reg.c ****   int32_t ret;
 850              		.loc 1 392 3 view .LVU233
 393:Drivers/BSP/Components/iis2mdc/iis2mdc_reg.c **** 
 394:Drivers/BSP/Components/iis2mdc/iis2mdc_reg.c ****   ret = iis2mdc_read_reg(ctx, IIS2MDC_CFG_REG_A, (uint8_t *) &reg, 1);
 851              		.loc 1 394 3 view .LVU234
 852              		.loc 1 394 9 is_stmt 0 view .LVU235
 853 0006 0123     		movs	r3, #1
 854 0008 01AA     		add	r2, sp, #4
 855 000a 6021     		movs	r1, #96
 856              	.LVL55:
 857              		.loc 1 394 9 view .LVU236
 858 000c FFF7FEFF 		bl	iis2mdc_read_reg
 859              	.LVL56:
 395:Drivers/BSP/Components/iis2mdc/iis2mdc_reg.c ****   *val = reg.comp_temp_en;
 860              		.loc 1 395 3 is_stmt 1 view .LVU237
 861              		.loc 1 395 13 is_stmt 0 view .LVU238
 862 0010 9DF80430 		ldrb	r3, [sp, #4]	@ zero_extendqisi2
 863 0014 C3F3C013 		ubfx	r3, r3, #7, #1
 864              		.loc 1 395 8 view .LVU239
 865 0018 2370     		strb	r3, [r4]
 396:Drivers/BSP/Components/iis2mdc/iis2mdc_reg.c **** 
 397:Drivers/BSP/Components/iis2mdc/iis2mdc_reg.c ****   return ret;
 866              		.loc 1 397 3 is_stmt 1 view .LVU240
 398:Drivers/BSP/Components/iis2mdc/iis2mdc_reg.c **** }
 867              		.loc 1 398 1 is_stmt 0 view .LVU241
 868 001a 02B0     		add	sp, sp, #8
 869              		.cfi_def_cfa_offset 8
 870              		@ sp needed
 871 001c 10BD     		pop	{r4, pc}
 872              		.loc 1 398 1 view .LVU242
 873              		.cfi_endproc
 874              	.LFE13:
 876              		.section	.text.iis2mdc_low_pass_bandwidth_set,"ax",%progbits
 877              		.align	1
 878              		.global	iis2mdc_low_pass_bandwidth_set
 879              		.syntax unified
 880              		.thumb
 881              		.thumb_func
 883              	iis2mdc_low_pass_bandwidth_set:
 884              	.LVL57:
 885              	.LFB14:
ARM GAS  C:\Temp\cczma3Jx.s 			page 24


 399:Drivers/BSP/Components/iis2mdc/iis2mdc_reg.c **** 
 400:Drivers/BSP/Components/iis2mdc/iis2mdc_reg.c **** /**
 401:Drivers/BSP/Components/iis2mdc/iis2mdc_reg.c ****   * @brief  Low-pass bandwidth selection.[set]
 402:Drivers/BSP/Components/iis2mdc/iis2mdc_reg.c ****   *
 403:Drivers/BSP/Components/iis2mdc/iis2mdc_reg.c ****   * @param  ctx      read / write interface definitions
 404:Drivers/BSP/Components/iis2mdc/iis2mdc_reg.c ****   * @param  val      change the values of lpf in reg CFG_REG_B
 405:Drivers/BSP/Components/iis2mdc/iis2mdc_reg.c ****   * @retval          interface status (MANDATORY: return 0 -> no Error)
 406:Drivers/BSP/Components/iis2mdc/iis2mdc_reg.c ****   *
 407:Drivers/BSP/Components/iis2mdc/iis2mdc_reg.c ****   */
 408:Drivers/BSP/Components/iis2mdc/iis2mdc_reg.c **** int32_t iis2mdc_low_pass_bandwidth_set(stmdev_ctx_t *ctx,
 409:Drivers/BSP/Components/iis2mdc/iis2mdc_reg.c ****                                        iis2mdc_lpf_t val)
 410:Drivers/BSP/Components/iis2mdc/iis2mdc_reg.c **** {
 886              		.loc 1 410 1 is_stmt 1 view -0
 887              		.cfi_startproc
 888              		@ args = 0, pretend = 0, frame = 8
 889              		@ frame_needed = 0, uses_anonymous_args = 0
 890              		.loc 1 410 1 is_stmt 0 view .LVU244
 891 0000 30B5     		push	{r4, r5, lr}
 892              		.cfi_def_cfa_offset 12
 893              		.cfi_offset 4, -12
 894              		.cfi_offset 5, -8
 895              		.cfi_offset 14, -4
 896 0002 83B0     		sub	sp, sp, #12
 897              		.cfi_def_cfa_offset 24
 898 0004 0446     		mov	r4, r0
 899 0006 0D46     		mov	r5, r1
 411:Drivers/BSP/Components/iis2mdc/iis2mdc_reg.c ****   iis2mdc_cfg_reg_b_t reg;
 900              		.loc 1 411 3 is_stmt 1 view .LVU245
 412:Drivers/BSP/Components/iis2mdc/iis2mdc_reg.c ****   int32_t ret;
 901              		.loc 1 412 3 view .LVU246
 413:Drivers/BSP/Components/iis2mdc/iis2mdc_reg.c **** 
 414:Drivers/BSP/Components/iis2mdc/iis2mdc_reg.c ****   ret = iis2mdc_read_reg(ctx, IIS2MDC_CFG_REG_B, (uint8_t *) &reg, 1);
 902              		.loc 1 414 3 view .LVU247
 903              		.loc 1 414 9 is_stmt 0 view .LVU248
 904 0008 0123     		movs	r3, #1
 905 000a 01AA     		add	r2, sp, #4
 906 000c 6121     		movs	r1, #97
 907              	.LVL58:
 908              		.loc 1 414 9 view .LVU249
 909 000e FFF7FEFF 		bl	iis2mdc_read_reg
 910              	.LVL59:
 415:Drivers/BSP/Components/iis2mdc/iis2mdc_reg.c **** 
 416:Drivers/BSP/Components/iis2mdc/iis2mdc_reg.c ****   if (ret == 0)
 911              		.loc 1 416 3 is_stmt 1 view .LVU250
 912              		.loc 1 416 6 is_stmt 0 view .LVU251
 913 0012 08B1     		cbz	r0, .L55
 914              	.LVL60:
 915              	.L52:
 417:Drivers/BSP/Components/iis2mdc/iis2mdc_reg.c ****   {
 418:Drivers/BSP/Components/iis2mdc/iis2mdc_reg.c ****     reg.lpf = (uint8_t)val;
 419:Drivers/BSP/Components/iis2mdc/iis2mdc_reg.c ****     ret = iis2mdc_write_reg(ctx, IIS2MDC_CFG_REG_B, (uint8_t *) &reg, 1);
 420:Drivers/BSP/Components/iis2mdc/iis2mdc_reg.c ****   }
 421:Drivers/BSP/Components/iis2mdc/iis2mdc_reg.c **** 
 422:Drivers/BSP/Components/iis2mdc/iis2mdc_reg.c ****   return ret;
 423:Drivers/BSP/Components/iis2mdc/iis2mdc_reg.c **** }
 916              		.loc 1 423 1 view .LVU252
 917 0014 03B0     		add	sp, sp, #12
ARM GAS  C:\Temp\cczma3Jx.s 			page 25


 918              		.cfi_remember_state
 919              		.cfi_def_cfa_offset 12
 920              		@ sp needed
 921 0016 30BD     		pop	{r4, r5, pc}
 922              	.LVL61:
 923              	.L55:
 924              		.cfi_restore_state
 418:Drivers/BSP/Components/iis2mdc/iis2mdc_reg.c ****     ret = iis2mdc_write_reg(ctx, IIS2MDC_CFG_REG_B, (uint8_t *) &reg, 1);
 925              		.loc 1 418 5 is_stmt 1 view .LVU253
 418:Drivers/BSP/Components/iis2mdc/iis2mdc_reg.c ****     ret = iis2mdc_write_reg(ctx, IIS2MDC_CFG_REG_B, (uint8_t *) &reg, 1);
 926              		.loc 1 418 13 is_stmt 0 view .LVU254
 927 0018 9DF80430 		ldrb	r3, [sp, #4]	@ zero_extendqisi2
 928 001c 65F30003 		bfi	r3, r5, #0, #1
 929 0020 8DF80430 		strb	r3, [sp, #4]
 419:Drivers/BSP/Components/iis2mdc/iis2mdc_reg.c ****   }
 930              		.loc 1 419 5 is_stmt 1 view .LVU255
 419:Drivers/BSP/Components/iis2mdc/iis2mdc_reg.c ****   }
 931              		.loc 1 419 11 is_stmt 0 view .LVU256
 932 0024 0123     		movs	r3, #1
 933              	.LVL62:
 419:Drivers/BSP/Components/iis2mdc/iis2mdc_reg.c ****   }
 934              		.loc 1 419 11 view .LVU257
 935 0026 01AA     		add	r2, sp, #4
 936 0028 6121     		movs	r1, #97
 937 002a 2046     		mov	r0, r4
 938 002c FFF7FEFF 		bl	iis2mdc_write_reg
 939              	.LVL63:
 422:Drivers/BSP/Components/iis2mdc/iis2mdc_reg.c **** }
 940              		.loc 1 422 3 is_stmt 1 view .LVU258
 422:Drivers/BSP/Components/iis2mdc/iis2mdc_reg.c **** }
 941              		.loc 1 422 10 is_stmt 0 view .LVU259
 942 0030 F0E7     		b	.L52
 943              		.cfi_endproc
 944              	.LFE14:
 946              		.section	.text.iis2mdc_low_pass_bandwidth_get,"ax",%progbits
 947              		.align	1
 948              		.global	iis2mdc_low_pass_bandwidth_get
 949              		.syntax unified
 950              		.thumb
 951              		.thumb_func
 953              	iis2mdc_low_pass_bandwidth_get:
 954              	.LVL64:
 955              	.LFB15:
 424:Drivers/BSP/Components/iis2mdc/iis2mdc_reg.c **** 
 425:Drivers/BSP/Components/iis2mdc/iis2mdc_reg.c **** /**
 426:Drivers/BSP/Components/iis2mdc/iis2mdc_reg.c ****   * @brief  Low-pass bandwidth selection.[get]
 427:Drivers/BSP/Components/iis2mdc/iis2mdc_reg.c ****   *
 428:Drivers/BSP/Components/iis2mdc/iis2mdc_reg.c ****   * @param  ctx      read / write interface definitions
 429:Drivers/BSP/Components/iis2mdc/iis2mdc_reg.c ****   * @param  val      Get the values of lpf in reg CFG_REG_B
 430:Drivers/BSP/Components/iis2mdc/iis2mdc_reg.c ****   * @retval          interface status (MANDATORY: return 0 -> no Error)
 431:Drivers/BSP/Components/iis2mdc/iis2mdc_reg.c ****   *
 432:Drivers/BSP/Components/iis2mdc/iis2mdc_reg.c ****   */
 433:Drivers/BSP/Components/iis2mdc/iis2mdc_reg.c **** int32_t iis2mdc_low_pass_bandwidth_get(stmdev_ctx_t *ctx,
 434:Drivers/BSP/Components/iis2mdc/iis2mdc_reg.c ****                                        iis2mdc_lpf_t *val)
 435:Drivers/BSP/Components/iis2mdc/iis2mdc_reg.c **** {
 956              		.loc 1 435 1 is_stmt 1 view -0
 957              		.cfi_startproc
ARM GAS  C:\Temp\cczma3Jx.s 			page 26


 958              		@ args = 0, pretend = 0, frame = 8
 959              		@ frame_needed = 0, uses_anonymous_args = 0
 960              		.loc 1 435 1 is_stmt 0 view .LVU261
 961 0000 10B5     		push	{r4, lr}
 962              		.cfi_def_cfa_offset 8
 963              		.cfi_offset 4, -8
 964              		.cfi_offset 14, -4
 965 0002 82B0     		sub	sp, sp, #8
 966              		.cfi_def_cfa_offset 16
 967 0004 0C46     		mov	r4, r1
 436:Drivers/BSP/Components/iis2mdc/iis2mdc_reg.c ****   iis2mdc_cfg_reg_b_t reg;
 968              		.loc 1 436 3 is_stmt 1 view .LVU262
 437:Drivers/BSP/Components/iis2mdc/iis2mdc_reg.c ****   int32_t ret;
 969              		.loc 1 437 3 view .LVU263
 438:Drivers/BSP/Components/iis2mdc/iis2mdc_reg.c **** 
 439:Drivers/BSP/Components/iis2mdc/iis2mdc_reg.c ****   ret = iis2mdc_read_reg(ctx, IIS2MDC_CFG_REG_B, (uint8_t *) &reg, 1);
 970              		.loc 1 439 3 view .LVU264
 971              		.loc 1 439 9 is_stmt 0 view .LVU265
 972 0006 0123     		movs	r3, #1
 973 0008 01AA     		add	r2, sp, #4
 974 000a 6121     		movs	r1, #97
 975              	.LVL65:
 976              		.loc 1 439 9 view .LVU266
 977 000c FFF7FEFF 		bl	iis2mdc_read_reg
 978              	.LVL66:
 440:Drivers/BSP/Components/iis2mdc/iis2mdc_reg.c **** 
 441:Drivers/BSP/Components/iis2mdc/iis2mdc_reg.c ****   switch (reg.lpf)
 979              		.loc 1 441 3 is_stmt 1 view .LVU267
 980              		.loc 1 441 14 is_stmt 0 view .LVU268
 981 0010 9DF80430 		ldrb	r3, [sp, #4]	@ zero_extendqisi2
 982              		.loc 1 441 3 view .LVU269
 983 0014 13F00103 		ands	r3, r3, #1
 984 0018 03D0     		beq	.L57
 985 001a 33B9     		cbnz	r3, .L58
 442:Drivers/BSP/Components/iis2mdc/iis2mdc_reg.c ****   {
 443:Drivers/BSP/Components/iis2mdc/iis2mdc_reg.c ****     case IIS2MDC_ODR_DIV_2:
 444:Drivers/BSP/Components/iis2mdc/iis2mdc_reg.c ****       *val = IIS2MDC_ODR_DIV_2;
 445:Drivers/BSP/Components/iis2mdc/iis2mdc_reg.c ****       break;
 446:Drivers/BSP/Components/iis2mdc/iis2mdc_reg.c **** 
 447:Drivers/BSP/Components/iis2mdc/iis2mdc_reg.c ****     case IIS2MDC_ODR_DIV_4:
 448:Drivers/BSP/Components/iis2mdc/iis2mdc_reg.c ****       *val = IIS2MDC_ODR_DIV_4;
 449:Drivers/BSP/Components/iis2mdc/iis2mdc_reg.c ****       break;
 450:Drivers/BSP/Components/iis2mdc/iis2mdc_reg.c **** 
 451:Drivers/BSP/Components/iis2mdc/iis2mdc_reg.c ****     default:
 452:Drivers/BSP/Components/iis2mdc/iis2mdc_reg.c ****       *val = IIS2MDC_ODR_DIV_2;
 986              		.loc 1 452 7 is_stmt 1 view .LVU270
 987              		.loc 1 452 12 is_stmt 0 view .LVU271
 988 001c 0023     		movs	r3, #0
 989 001e 2370     		strb	r3, [r4]
 453:Drivers/BSP/Components/iis2mdc/iis2mdc_reg.c ****       break;
 990              		.loc 1 453 7 is_stmt 1 view .LVU272
 454:Drivers/BSP/Components/iis2mdc/iis2mdc_reg.c ****   }
 455:Drivers/BSP/Components/iis2mdc/iis2mdc_reg.c **** 
 456:Drivers/BSP/Components/iis2mdc/iis2mdc_reg.c ****   return ret;
 991              		.loc 1 456 3 view .LVU273
 992              		.loc 1 456 10 is_stmt 0 view .LVU274
 993 0020 01E0     		b	.L56
ARM GAS  C:\Temp\cczma3Jx.s 			page 27


 994              	.L57:
 444:Drivers/BSP/Components/iis2mdc/iis2mdc_reg.c ****       break;
 995              		.loc 1 444 7 is_stmt 1 view .LVU275
 444:Drivers/BSP/Components/iis2mdc/iis2mdc_reg.c ****       break;
 996              		.loc 1 444 12 is_stmt 0 view .LVU276
 997 0022 0023     		movs	r3, #0
 998 0024 2370     		strb	r3, [r4]
 445:Drivers/BSP/Components/iis2mdc/iis2mdc_reg.c **** 
 999              		.loc 1 445 7 is_stmt 1 view .LVU277
 1000              	.L56:
 457:Drivers/BSP/Components/iis2mdc/iis2mdc_reg.c **** }
 1001              		.loc 1 457 1 is_stmt 0 view .LVU278
 1002 0026 02B0     		add	sp, sp, #8
 1003              		.cfi_remember_state
 1004              		.cfi_def_cfa_offset 8
 1005              		@ sp needed
 1006 0028 10BD     		pop	{r4, pc}
 1007              	.LVL67:
 1008              	.L58:
 1009              		.cfi_restore_state
 448:Drivers/BSP/Components/iis2mdc/iis2mdc_reg.c ****       break;
 1010              		.loc 1 448 7 is_stmt 1 view .LVU279
 448:Drivers/BSP/Components/iis2mdc/iis2mdc_reg.c ****       break;
 1011              		.loc 1 448 12 is_stmt 0 view .LVU280
 1012 002a 0123     		movs	r3, #1
 1013 002c 2370     		strb	r3, [r4]
 449:Drivers/BSP/Components/iis2mdc/iis2mdc_reg.c **** 
 1014              		.loc 1 449 7 is_stmt 1 view .LVU281
 1015 002e FAE7     		b	.L56
 1016              		.cfi_endproc
 1017              	.LFE15:
 1019              		.section	.text.iis2mdc_set_rst_mode_set,"ax",%progbits
 1020              		.align	1
 1021              		.global	iis2mdc_set_rst_mode_set
 1022              		.syntax unified
 1023              		.thumb
 1024              		.thumb_func
 1026              	iis2mdc_set_rst_mode_set:
 1027              	.LVL68:
 1028              	.LFB16:
 458:Drivers/BSP/Components/iis2mdc/iis2mdc_reg.c **** 
 459:Drivers/BSP/Components/iis2mdc/iis2mdc_reg.c **** /**
 460:Drivers/BSP/Components/iis2mdc/iis2mdc_reg.c ****   * @brief  Reset puse mode.[set]
 461:Drivers/BSP/Components/iis2mdc/iis2mdc_reg.c ****   *
 462:Drivers/BSP/Components/iis2mdc/iis2mdc_reg.c ****   * @param  ctx      read / write interface definitions
 463:Drivers/BSP/Components/iis2mdc/iis2mdc_reg.c ****   * @param  val      change the values of set_rst in
 464:Drivers/BSP/Components/iis2mdc/iis2mdc_reg.c ****   *                            reg CFG_REG_B
 465:Drivers/BSP/Components/iis2mdc/iis2mdc_reg.c ****   * @retval          interface status (MANDATORY: return 0 -> no Error)
 466:Drivers/BSP/Components/iis2mdc/iis2mdc_reg.c ****   *
 467:Drivers/BSP/Components/iis2mdc/iis2mdc_reg.c ****   */
 468:Drivers/BSP/Components/iis2mdc/iis2mdc_reg.c **** int32_t iis2mdc_set_rst_mode_set(stmdev_ctx_t *ctx,
 469:Drivers/BSP/Components/iis2mdc/iis2mdc_reg.c ****                                  iis2mdc_set_rst_t val)
 470:Drivers/BSP/Components/iis2mdc/iis2mdc_reg.c **** {
 1029              		.loc 1 470 1 view -0
 1030              		.cfi_startproc
 1031              		@ args = 0, pretend = 0, frame = 8
 1032              		@ frame_needed = 0, uses_anonymous_args = 0
ARM GAS  C:\Temp\cczma3Jx.s 			page 28


 1033              		.loc 1 470 1 is_stmt 0 view .LVU283
 1034 0000 30B5     		push	{r4, r5, lr}
 1035              		.cfi_def_cfa_offset 12
 1036              		.cfi_offset 4, -12
 1037              		.cfi_offset 5, -8
 1038              		.cfi_offset 14, -4
 1039 0002 83B0     		sub	sp, sp, #12
 1040              		.cfi_def_cfa_offset 24
 1041 0004 0446     		mov	r4, r0
 1042 0006 0D46     		mov	r5, r1
 471:Drivers/BSP/Components/iis2mdc/iis2mdc_reg.c ****   iis2mdc_cfg_reg_b_t reg;
 1043              		.loc 1 471 3 is_stmt 1 view .LVU284
 472:Drivers/BSP/Components/iis2mdc/iis2mdc_reg.c ****   int32_t ret;
 1044              		.loc 1 472 3 view .LVU285
 473:Drivers/BSP/Components/iis2mdc/iis2mdc_reg.c **** 
 474:Drivers/BSP/Components/iis2mdc/iis2mdc_reg.c ****   ret = iis2mdc_read_reg(ctx, IIS2MDC_CFG_REG_B, (uint8_t *) &reg, 1);
 1045              		.loc 1 474 3 view .LVU286
 1046              		.loc 1 474 9 is_stmt 0 view .LVU287
 1047 0008 0123     		movs	r3, #1
 1048 000a 01AA     		add	r2, sp, #4
 1049 000c 6121     		movs	r1, #97
 1050              	.LVL69:
 1051              		.loc 1 474 9 view .LVU288
 1052 000e FFF7FEFF 		bl	iis2mdc_read_reg
 1053              	.LVL70:
 475:Drivers/BSP/Components/iis2mdc/iis2mdc_reg.c **** 
 476:Drivers/BSP/Components/iis2mdc/iis2mdc_reg.c ****   if (ret == 0)
 1054              		.loc 1 476 3 is_stmt 1 view .LVU289
 1055              		.loc 1 476 6 is_stmt 0 view .LVU290
 1056 0012 08B1     		cbz	r0, .L66
 1057              	.LVL71:
 1058              	.L63:
 477:Drivers/BSP/Components/iis2mdc/iis2mdc_reg.c ****   {
 478:Drivers/BSP/Components/iis2mdc/iis2mdc_reg.c ****     reg.set_rst = (uint8_t)val;
 479:Drivers/BSP/Components/iis2mdc/iis2mdc_reg.c ****     ret = iis2mdc_write_reg(ctx, IIS2MDC_CFG_REG_B, (uint8_t *) &reg, 1);
 480:Drivers/BSP/Components/iis2mdc/iis2mdc_reg.c ****   }
 481:Drivers/BSP/Components/iis2mdc/iis2mdc_reg.c **** 
 482:Drivers/BSP/Components/iis2mdc/iis2mdc_reg.c ****   return ret;
 483:Drivers/BSP/Components/iis2mdc/iis2mdc_reg.c **** }
 1059              		.loc 1 483 1 view .LVU291
 1060 0014 03B0     		add	sp, sp, #12
 1061              		.cfi_remember_state
 1062              		.cfi_def_cfa_offset 12
 1063              		@ sp needed
 1064 0016 30BD     		pop	{r4, r5, pc}
 1065              	.LVL72:
 1066              	.L66:
 1067              		.cfi_restore_state
 478:Drivers/BSP/Components/iis2mdc/iis2mdc_reg.c ****     ret = iis2mdc_write_reg(ctx, IIS2MDC_CFG_REG_B, (uint8_t *) &reg, 1);
 1068              		.loc 1 478 5 is_stmt 1 view .LVU292
 478:Drivers/BSP/Components/iis2mdc/iis2mdc_reg.c ****     ret = iis2mdc_write_reg(ctx, IIS2MDC_CFG_REG_B, (uint8_t *) &reg, 1);
 1069              		.loc 1 478 17 is_stmt 0 view .LVU293
 1070 0018 9DF80430 		ldrb	r3, [sp, #4]	@ zero_extendqisi2
 1071 001c 65F34203 		bfi	r3, r5, #1, #2
 1072 0020 8DF80430 		strb	r3, [sp, #4]
 479:Drivers/BSP/Components/iis2mdc/iis2mdc_reg.c ****   }
 1073              		.loc 1 479 5 is_stmt 1 view .LVU294
ARM GAS  C:\Temp\cczma3Jx.s 			page 29


 479:Drivers/BSP/Components/iis2mdc/iis2mdc_reg.c ****   }
 1074              		.loc 1 479 11 is_stmt 0 view .LVU295
 1075 0024 0123     		movs	r3, #1
 1076              	.LVL73:
 479:Drivers/BSP/Components/iis2mdc/iis2mdc_reg.c ****   }
 1077              		.loc 1 479 11 view .LVU296
 1078 0026 01AA     		add	r2, sp, #4
 1079 0028 6121     		movs	r1, #97
 1080 002a 2046     		mov	r0, r4
 1081 002c FFF7FEFF 		bl	iis2mdc_write_reg
 1082              	.LVL74:
 482:Drivers/BSP/Components/iis2mdc/iis2mdc_reg.c **** }
 1083              		.loc 1 482 3 is_stmt 1 view .LVU297
 482:Drivers/BSP/Components/iis2mdc/iis2mdc_reg.c **** }
 1084              		.loc 1 482 10 is_stmt 0 view .LVU298
 1085 0030 F0E7     		b	.L63
 1086              		.cfi_endproc
 1087              	.LFE16:
 1089              		.section	.text.iis2mdc_set_rst_mode_get,"ax",%progbits
 1090              		.align	1
 1091              		.global	iis2mdc_set_rst_mode_get
 1092              		.syntax unified
 1093              		.thumb
 1094              		.thumb_func
 1096              	iis2mdc_set_rst_mode_get:
 1097              	.LVL75:
 1098              	.LFB17:
 484:Drivers/BSP/Components/iis2mdc/iis2mdc_reg.c **** 
 485:Drivers/BSP/Components/iis2mdc/iis2mdc_reg.c **** /**
 486:Drivers/BSP/Components/iis2mdc/iis2mdc_reg.c ****   * @brief  Reset puse mode.[get]
 487:Drivers/BSP/Components/iis2mdc/iis2mdc_reg.c ****   *
 488:Drivers/BSP/Components/iis2mdc/iis2mdc_reg.c ****   * @param  ctx      read / write interface definitions
 489:Drivers/BSP/Components/iis2mdc/iis2mdc_reg.c ****   * @param  val      Get the values of set_rst in reg CFG_REG_B
 490:Drivers/BSP/Components/iis2mdc/iis2mdc_reg.c ****   * @retval          interface status (MANDATORY: return 0 -> no Error)
 491:Drivers/BSP/Components/iis2mdc/iis2mdc_reg.c ****   *
 492:Drivers/BSP/Components/iis2mdc/iis2mdc_reg.c ****   */
 493:Drivers/BSP/Components/iis2mdc/iis2mdc_reg.c **** int32_t iis2mdc_set_rst_mode_get(stmdev_ctx_t *ctx,
 494:Drivers/BSP/Components/iis2mdc/iis2mdc_reg.c ****                                  iis2mdc_set_rst_t *val)
 495:Drivers/BSP/Components/iis2mdc/iis2mdc_reg.c **** {
 1099              		.loc 1 495 1 is_stmt 1 view -0
 1100              		.cfi_startproc
 1101              		@ args = 0, pretend = 0, frame = 8
 1102              		@ frame_needed = 0, uses_anonymous_args = 0
 1103              		.loc 1 495 1 is_stmt 0 view .LVU300
 1104 0000 10B5     		push	{r4, lr}
 1105              		.cfi_def_cfa_offset 8
 1106              		.cfi_offset 4, -8
 1107              		.cfi_offset 14, -4
 1108 0002 82B0     		sub	sp, sp, #8
 1109              		.cfi_def_cfa_offset 16
 1110 0004 0C46     		mov	r4, r1
 496:Drivers/BSP/Components/iis2mdc/iis2mdc_reg.c ****   iis2mdc_cfg_reg_b_t reg;
 1111              		.loc 1 496 3 is_stmt 1 view .LVU301
 497:Drivers/BSP/Components/iis2mdc/iis2mdc_reg.c ****   int32_t ret;
 1112              		.loc 1 497 3 view .LVU302
 498:Drivers/BSP/Components/iis2mdc/iis2mdc_reg.c **** 
 499:Drivers/BSP/Components/iis2mdc/iis2mdc_reg.c ****   ret = iis2mdc_read_reg(ctx, IIS2MDC_CFG_REG_B, (uint8_t *) &reg, 1);
ARM GAS  C:\Temp\cczma3Jx.s 			page 30


 1113              		.loc 1 499 3 view .LVU303
 1114              		.loc 1 499 9 is_stmt 0 view .LVU304
 1115 0006 0123     		movs	r3, #1
 1116 0008 01AA     		add	r2, sp, #4
 1117 000a 6121     		movs	r1, #97
 1118              	.LVL76:
 1119              		.loc 1 499 9 view .LVU305
 1120 000c FFF7FEFF 		bl	iis2mdc_read_reg
 1121              	.LVL77:
 500:Drivers/BSP/Components/iis2mdc/iis2mdc_reg.c **** 
 501:Drivers/BSP/Components/iis2mdc/iis2mdc_reg.c ****   switch (reg.set_rst)
 1122              		.loc 1 501 3 is_stmt 1 view .LVU306
 1123              		.loc 1 501 14 is_stmt 0 view .LVU307
 1124 0010 9DF80430 		ldrb	r3, [sp, #4]	@ zero_extendqisi2
 1125 0014 C3F34103 		ubfx	r3, r3, #1, #2
 1126              		.loc 1 501 3 view .LVU308
 1127 0018 012B     		cmp	r3, #1
 1128 001a 08D0     		beq	.L68
 1129 001c 022B     		cmp	r3, #2
 1130 001e 09D0     		beq	.L69
 1131 0020 13B1     		cbz	r3, .L73
 502:Drivers/BSP/Components/iis2mdc/iis2mdc_reg.c ****   {
 503:Drivers/BSP/Components/iis2mdc/iis2mdc_reg.c ****     case IIS2MDC_SET_SENS_ODR_DIV_63:
 504:Drivers/BSP/Components/iis2mdc/iis2mdc_reg.c ****       *val = IIS2MDC_SET_SENS_ODR_DIV_63;
 505:Drivers/BSP/Components/iis2mdc/iis2mdc_reg.c ****       break;
 506:Drivers/BSP/Components/iis2mdc/iis2mdc_reg.c **** 
 507:Drivers/BSP/Components/iis2mdc/iis2mdc_reg.c ****     case IIS2MDC_SENS_OFF_CANC_EVERY_ODR:
 508:Drivers/BSP/Components/iis2mdc/iis2mdc_reg.c ****       *val = IIS2MDC_SENS_OFF_CANC_EVERY_ODR;
 509:Drivers/BSP/Components/iis2mdc/iis2mdc_reg.c ****       break;
 510:Drivers/BSP/Components/iis2mdc/iis2mdc_reg.c **** 
 511:Drivers/BSP/Components/iis2mdc/iis2mdc_reg.c ****     case IIS2MDC_SET_SENS_ONLY_AT_POWER_ON:
 512:Drivers/BSP/Components/iis2mdc/iis2mdc_reg.c ****       *val = IIS2MDC_SET_SENS_ONLY_AT_POWER_ON;
 513:Drivers/BSP/Components/iis2mdc/iis2mdc_reg.c ****       break;
 514:Drivers/BSP/Components/iis2mdc/iis2mdc_reg.c **** 
 515:Drivers/BSP/Components/iis2mdc/iis2mdc_reg.c ****     default:
 516:Drivers/BSP/Components/iis2mdc/iis2mdc_reg.c ****       *val = IIS2MDC_SET_SENS_ODR_DIV_63;
 1132              		.loc 1 516 7 is_stmt 1 view .LVU309
 1133              		.loc 1 516 12 is_stmt 0 view .LVU310
 1134 0022 0023     		movs	r3, #0
 1135 0024 2370     		strb	r3, [r4]
 517:Drivers/BSP/Components/iis2mdc/iis2mdc_reg.c ****       break;
 1136              		.loc 1 517 7 is_stmt 1 view .LVU311
 518:Drivers/BSP/Components/iis2mdc/iis2mdc_reg.c ****   }
 519:Drivers/BSP/Components/iis2mdc/iis2mdc_reg.c **** 
 520:Drivers/BSP/Components/iis2mdc/iis2mdc_reg.c ****   return ret;
 1137              		.loc 1 520 3 view .LVU312
 1138              		.loc 1 520 10 is_stmt 0 view .LVU313
 1139 0026 00E0     		b	.L67
 1140              	.L73:
 504:Drivers/BSP/Components/iis2mdc/iis2mdc_reg.c ****       break;
 1141              		.loc 1 504 7 is_stmt 1 view .LVU314
 504:Drivers/BSP/Components/iis2mdc/iis2mdc_reg.c ****       break;
 1142              		.loc 1 504 12 is_stmt 0 view .LVU315
 1143 0028 2370     		strb	r3, [r4]
 505:Drivers/BSP/Components/iis2mdc/iis2mdc_reg.c **** 
 1144              		.loc 1 505 7 is_stmt 1 view .LVU316
 1145              	.L67:
ARM GAS  C:\Temp\cczma3Jx.s 			page 31


 521:Drivers/BSP/Components/iis2mdc/iis2mdc_reg.c **** }
 1146              		.loc 1 521 1 is_stmt 0 view .LVU317
 1147 002a 02B0     		add	sp, sp, #8
 1148              		.cfi_remember_state
 1149              		.cfi_def_cfa_offset 8
 1150              		@ sp needed
 1151 002c 10BD     		pop	{r4, pc}
 1152              	.LVL78:
 1153              	.L68:
 1154              		.cfi_restore_state
 508:Drivers/BSP/Components/iis2mdc/iis2mdc_reg.c ****       break;
 1155              		.loc 1 508 7 is_stmt 1 view .LVU318
 508:Drivers/BSP/Components/iis2mdc/iis2mdc_reg.c ****       break;
 1156              		.loc 1 508 12 is_stmt 0 view .LVU319
 1157 002e 0123     		movs	r3, #1
 1158 0030 2370     		strb	r3, [r4]
 509:Drivers/BSP/Components/iis2mdc/iis2mdc_reg.c **** 
 1159              		.loc 1 509 7 is_stmt 1 view .LVU320
 1160 0032 FAE7     		b	.L67
 1161              	.L69:
 512:Drivers/BSP/Components/iis2mdc/iis2mdc_reg.c ****       break;
 1162              		.loc 1 512 7 view .LVU321
 512:Drivers/BSP/Components/iis2mdc/iis2mdc_reg.c ****       break;
 1163              		.loc 1 512 12 is_stmt 0 view .LVU322
 1164 0034 0223     		movs	r3, #2
 1165 0036 2370     		strb	r3, [r4]
 513:Drivers/BSP/Components/iis2mdc/iis2mdc_reg.c **** 
 1166              		.loc 1 513 7 is_stmt 1 view .LVU323
 1167 0038 F7E7     		b	.L67
 1168              		.cfi_endproc
 1169              	.LFE17:
 1171              		.section	.text.iis2mdc_set_rst_sensor_single_set,"ax",%progbits
 1172              		.align	1
 1173              		.global	iis2mdc_set_rst_sensor_single_set
 1174              		.syntax unified
 1175              		.thumb
 1176              		.thumb_func
 1178              	iis2mdc_set_rst_sensor_single_set:
 1179              	.LVL79:
 1180              	.LFB18:
 522:Drivers/BSP/Components/iis2mdc/iis2mdc_reg.c **** 
 523:Drivers/BSP/Components/iis2mdc/iis2mdc_reg.c **** /**
 524:Drivers/BSP/Components/iis2mdc/iis2mdc_reg.c ****   * @brief  Enables offset cancellation in single measurement mode.
 525:Drivers/BSP/Components/iis2mdc/iis2mdc_reg.c ****   *         The OFF_CANC bit must be set to 1 when enabling offset
 526:Drivers/BSP/Components/iis2mdc/iis2mdc_reg.c ****   *         cancellation in single measurement mode this means a
 527:Drivers/BSP/Components/iis2mdc/iis2mdc_reg.c ****   *         call function "set_rst_mode(SENS_OFF_CANC_EVERY_ODR)"
 528:Drivers/BSP/Components/iis2mdc/iis2mdc_reg.c ****   *         is need.[set]
 529:Drivers/BSP/Components/iis2mdc/iis2mdc_reg.c ****   *
 530:Drivers/BSP/Components/iis2mdc/iis2mdc_reg.c ****   * @param  ctx      read / write interface definitions
 531:Drivers/BSP/Components/iis2mdc/iis2mdc_reg.c ****   * @param  val      change the values of off_canc_one_shot in
 532:Drivers/BSP/Components/iis2mdc/iis2mdc_reg.c ****   *                  reg CFG_REG_B
 533:Drivers/BSP/Components/iis2mdc/iis2mdc_reg.c ****   * @retval          interface status (MANDATORY: return 0 -> no Error)
 534:Drivers/BSP/Components/iis2mdc/iis2mdc_reg.c ****   *
 535:Drivers/BSP/Components/iis2mdc/iis2mdc_reg.c ****   */
 536:Drivers/BSP/Components/iis2mdc/iis2mdc_reg.c **** int32_t iis2mdc_set_rst_sensor_single_set(stmdev_ctx_t *ctx,
 537:Drivers/BSP/Components/iis2mdc/iis2mdc_reg.c ****                                           uint8_t val)
 538:Drivers/BSP/Components/iis2mdc/iis2mdc_reg.c **** {
ARM GAS  C:\Temp\cczma3Jx.s 			page 32


 1181              		.loc 1 538 1 view -0
 1182              		.cfi_startproc
 1183              		@ args = 0, pretend = 0, frame = 8
 1184              		@ frame_needed = 0, uses_anonymous_args = 0
 1185              		.loc 1 538 1 is_stmt 0 view .LVU325
 1186 0000 30B5     		push	{r4, r5, lr}
 1187              		.cfi_def_cfa_offset 12
 1188              		.cfi_offset 4, -12
 1189              		.cfi_offset 5, -8
 1190              		.cfi_offset 14, -4
 1191 0002 83B0     		sub	sp, sp, #12
 1192              		.cfi_def_cfa_offset 24
 1193 0004 0446     		mov	r4, r0
 1194 0006 0D46     		mov	r5, r1
 539:Drivers/BSP/Components/iis2mdc/iis2mdc_reg.c ****   iis2mdc_cfg_reg_b_t reg;
 1195              		.loc 1 539 3 is_stmt 1 view .LVU326
 540:Drivers/BSP/Components/iis2mdc/iis2mdc_reg.c ****   int32_t ret;
 1196              		.loc 1 540 3 view .LVU327
 541:Drivers/BSP/Components/iis2mdc/iis2mdc_reg.c **** 
 542:Drivers/BSP/Components/iis2mdc/iis2mdc_reg.c ****   ret = iis2mdc_read_reg(ctx, IIS2MDC_CFG_REG_B, (uint8_t *) &reg, 1);
 1197              		.loc 1 542 3 view .LVU328
 1198              		.loc 1 542 9 is_stmt 0 view .LVU329
 1199 0008 0123     		movs	r3, #1
 1200 000a 01AA     		add	r2, sp, #4
 1201 000c 6121     		movs	r1, #97
 1202              	.LVL80:
 1203              		.loc 1 542 9 view .LVU330
 1204 000e FFF7FEFF 		bl	iis2mdc_read_reg
 1205              	.LVL81:
 543:Drivers/BSP/Components/iis2mdc/iis2mdc_reg.c **** 
 544:Drivers/BSP/Components/iis2mdc/iis2mdc_reg.c ****   if (ret == 0)
 1206              		.loc 1 544 3 is_stmt 1 view .LVU331
 1207              		.loc 1 544 6 is_stmt 0 view .LVU332
 1208 0012 08B1     		cbz	r0, .L77
 1209              	.LVL82:
 1210              	.L74:
 545:Drivers/BSP/Components/iis2mdc/iis2mdc_reg.c ****   {
 546:Drivers/BSP/Components/iis2mdc/iis2mdc_reg.c ****     reg.off_canc_one_shot = val;
 547:Drivers/BSP/Components/iis2mdc/iis2mdc_reg.c ****     ret = iis2mdc_write_reg(ctx, IIS2MDC_CFG_REG_B, (uint8_t *) &reg, 1);
 548:Drivers/BSP/Components/iis2mdc/iis2mdc_reg.c ****   }
 549:Drivers/BSP/Components/iis2mdc/iis2mdc_reg.c **** 
 550:Drivers/BSP/Components/iis2mdc/iis2mdc_reg.c ****   return ret;
 551:Drivers/BSP/Components/iis2mdc/iis2mdc_reg.c **** }
 1211              		.loc 1 551 1 view .LVU333
 1212 0014 03B0     		add	sp, sp, #12
 1213              		.cfi_remember_state
 1214              		.cfi_def_cfa_offset 12
 1215              		@ sp needed
 1216 0016 30BD     		pop	{r4, r5, pc}
 1217              	.LVL83:
 1218              	.L77:
 1219              		.cfi_restore_state
 546:Drivers/BSP/Components/iis2mdc/iis2mdc_reg.c ****     ret = iis2mdc_write_reg(ctx, IIS2MDC_CFG_REG_B, (uint8_t *) &reg, 1);
 1220              		.loc 1 546 5 is_stmt 1 view .LVU334
 546:Drivers/BSP/Components/iis2mdc/iis2mdc_reg.c ****     ret = iis2mdc_write_reg(ctx, IIS2MDC_CFG_REG_B, (uint8_t *) &reg, 1);
 1221              		.loc 1 546 27 is_stmt 0 view .LVU335
 1222 0018 9DF80430 		ldrb	r3, [sp, #4]	@ zero_extendqisi2
ARM GAS  C:\Temp\cczma3Jx.s 			page 33


 1223 001c 65F30413 		bfi	r3, r5, #4, #1
 1224 0020 8DF80430 		strb	r3, [sp, #4]
 547:Drivers/BSP/Components/iis2mdc/iis2mdc_reg.c ****   }
 1225              		.loc 1 547 5 is_stmt 1 view .LVU336
 547:Drivers/BSP/Components/iis2mdc/iis2mdc_reg.c ****   }
 1226              		.loc 1 547 11 is_stmt 0 view .LVU337
 1227 0024 0123     		movs	r3, #1
 1228              	.LVL84:
 547:Drivers/BSP/Components/iis2mdc/iis2mdc_reg.c ****   }
 1229              		.loc 1 547 11 view .LVU338
 1230 0026 01AA     		add	r2, sp, #4
 1231 0028 6121     		movs	r1, #97
 1232 002a 2046     		mov	r0, r4
 1233 002c FFF7FEFF 		bl	iis2mdc_write_reg
 1234              	.LVL85:
 550:Drivers/BSP/Components/iis2mdc/iis2mdc_reg.c **** }
 1235              		.loc 1 550 3 is_stmt 1 view .LVU339
 550:Drivers/BSP/Components/iis2mdc/iis2mdc_reg.c **** }
 1236              		.loc 1 550 10 is_stmt 0 view .LVU340
 1237 0030 F0E7     		b	.L74
 1238              		.cfi_endproc
 1239              	.LFE18:
 1241              		.section	.text.iis2mdc_set_rst_sensor_single_get,"ax",%progbits
 1242              		.align	1
 1243              		.global	iis2mdc_set_rst_sensor_single_get
 1244              		.syntax unified
 1245              		.thumb
 1246              		.thumb_func
 1248              	iis2mdc_set_rst_sensor_single_get:
 1249              	.LVL86:
 1250              	.LFB19:
 552:Drivers/BSP/Components/iis2mdc/iis2mdc_reg.c **** 
 553:Drivers/BSP/Components/iis2mdc/iis2mdc_reg.c **** /**
 554:Drivers/BSP/Components/iis2mdc/iis2mdc_reg.c ****   * @brief  Enables offset cancellation in single measurement mode.
 555:Drivers/BSP/Components/iis2mdc/iis2mdc_reg.c ****   *         The OFF_CANC bit must be set to 1 when enabling offset
 556:Drivers/BSP/Components/iis2mdc/iis2mdc_reg.c ****   *         cancellation in single measurement mode this means a
 557:Drivers/BSP/Components/iis2mdc/iis2mdc_reg.c ****   *         call function "set_rst_mode(SENS_OFF_CANC_EVERY_ODR)"
 558:Drivers/BSP/Components/iis2mdc/iis2mdc_reg.c ****   *         is need.[get]
 559:Drivers/BSP/Components/iis2mdc/iis2mdc_reg.c ****   *
 560:Drivers/BSP/Components/iis2mdc/iis2mdc_reg.c ****   * @param  ctx      read / write interface definitions
 561:Drivers/BSP/Components/iis2mdc/iis2mdc_reg.c ****   * @param  val      change the values of off_canc_one_shot in reg CFG_REG_B
 562:Drivers/BSP/Components/iis2mdc/iis2mdc_reg.c ****   * @retval          interface status (MANDATORY: return 0 -> no Error)
 563:Drivers/BSP/Components/iis2mdc/iis2mdc_reg.c ****   *
 564:Drivers/BSP/Components/iis2mdc/iis2mdc_reg.c ****   */
 565:Drivers/BSP/Components/iis2mdc/iis2mdc_reg.c **** int32_t iis2mdc_set_rst_sensor_single_get(stmdev_ctx_t *ctx,
 566:Drivers/BSP/Components/iis2mdc/iis2mdc_reg.c ****                                           uint8_t *val)
 567:Drivers/BSP/Components/iis2mdc/iis2mdc_reg.c **** {
 1251              		.loc 1 567 1 is_stmt 1 view -0
 1252              		.cfi_startproc
 1253              		@ args = 0, pretend = 0, frame = 8
 1254              		@ frame_needed = 0, uses_anonymous_args = 0
 1255              		.loc 1 567 1 is_stmt 0 view .LVU342
 1256 0000 10B5     		push	{r4, lr}
 1257              		.cfi_def_cfa_offset 8
 1258              		.cfi_offset 4, -8
 1259              		.cfi_offset 14, -4
 1260 0002 82B0     		sub	sp, sp, #8
ARM GAS  C:\Temp\cczma3Jx.s 			page 34


 1261              		.cfi_def_cfa_offset 16
 1262 0004 0C46     		mov	r4, r1
 568:Drivers/BSP/Components/iis2mdc/iis2mdc_reg.c ****   iis2mdc_cfg_reg_b_t reg;
 1263              		.loc 1 568 3 is_stmt 1 view .LVU343
 569:Drivers/BSP/Components/iis2mdc/iis2mdc_reg.c ****   int32_t ret;
 1264              		.loc 1 569 3 view .LVU344
 570:Drivers/BSP/Components/iis2mdc/iis2mdc_reg.c **** 
 571:Drivers/BSP/Components/iis2mdc/iis2mdc_reg.c ****   ret = iis2mdc_read_reg(ctx, IIS2MDC_CFG_REG_B, (uint8_t *) &reg, 1);
 1265              		.loc 1 571 3 view .LVU345
 1266              		.loc 1 571 9 is_stmt 0 view .LVU346
 1267 0006 0123     		movs	r3, #1
 1268 0008 01AA     		add	r2, sp, #4
 1269 000a 6121     		movs	r1, #97
 1270              	.LVL87:
 1271              		.loc 1 571 9 view .LVU347
 1272 000c FFF7FEFF 		bl	iis2mdc_read_reg
 1273              	.LVL88:
 572:Drivers/BSP/Components/iis2mdc/iis2mdc_reg.c ****   *val = reg.off_canc_one_shot;
 1274              		.loc 1 572 3 is_stmt 1 view .LVU348
 1275              		.loc 1 572 13 is_stmt 0 view .LVU349
 1276 0010 9DF80430 		ldrb	r3, [sp, #4]	@ zero_extendqisi2
 1277 0014 C3F30013 		ubfx	r3, r3, #4, #1
 1278              		.loc 1 572 8 view .LVU350
 1279 0018 2370     		strb	r3, [r4]
 573:Drivers/BSP/Components/iis2mdc/iis2mdc_reg.c **** 
 574:Drivers/BSP/Components/iis2mdc/iis2mdc_reg.c ****   return ret;
 1280              		.loc 1 574 3 is_stmt 1 view .LVU351
 575:Drivers/BSP/Components/iis2mdc/iis2mdc_reg.c **** }
 1281              		.loc 1 575 1 is_stmt 0 view .LVU352
 1282 001a 02B0     		add	sp, sp, #8
 1283              		.cfi_def_cfa_offset 8
 1284              		@ sp needed
 1285 001c 10BD     		pop	{r4, pc}
 1286              		.loc 1 575 1 view .LVU353
 1287              		.cfi_endproc
 1288              	.LFE19:
 1290              		.section	.text.iis2mdc_block_data_update_set,"ax",%progbits
 1291              		.align	1
 1292              		.global	iis2mdc_block_data_update_set
 1293              		.syntax unified
 1294              		.thumb
 1295              		.thumb_func
 1297              	iis2mdc_block_data_update_set:
 1298              	.LVL89:
 1299              	.LFB20:
 576:Drivers/BSP/Components/iis2mdc/iis2mdc_reg.c **** 
 577:Drivers/BSP/Components/iis2mdc/iis2mdc_reg.c **** /**
 578:Drivers/BSP/Components/iis2mdc/iis2mdc_reg.c ****   * @brief  Block data update.[set]
 579:Drivers/BSP/Components/iis2mdc/iis2mdc_reg.c ****   *
 580:Drivers/BSP/Components/iis2mdc/iis2mdc_reg.c ****   * @param  ctx      read / write interface definitions
 581:Drivers/BSP/Components/iis2mdc/iis2mdc_reg.c ****   * @param  val      change the values of bdu in reg CFG_REG_C
 582:Drivers/BSP/Components/iis2mdc/iis2mdc_reg.c ****   * @retval          interface status (MANDATORY: return 0 -> no Error)
 583:Drivers/BSP/Components/iis2mdc/iis2mdc_reg.c ****   *
 584:Drivers/BSP/Components/iis2mdc/iis2mdc_reg.c ****   */
 585:Drivers/BSP/Components/iis2mdc/iis2mdc_reg.c **** int32_t iis2mdc_block_data_update_set(stmdev_ctx_t *ctx, uint8_t val)
 586:Drivers/BSP/Components/iis2mdc/iis2mdc_reg.c **** {
 1300              		.loc 1 586 1 is_stmt 1 view -0
ARM GAS  C:\Temp\cczma3Jx.s 			page 35


 1301              		.cfi_startproc
 1302              		@ args = 0, pretend = 0, frame = 8
 1303              		@ frame_needed = 0, uses_anonymous_args = 0
 1304              		.loc 1 586 1 is_stmt 0 view .LVU355
 1305 0000 30B5     		push	{r4, r5, lr}
 1306              		.cfi_def_cfa_offset 12
 1307              		.cfi_offset 4, -12
 1308              		.cfi_offset 5, -8
 1309              		.cfi_offset 14, -4
 1310 0002 83B0     		sub	sp, sp, #12
 1311              		.cfi_def_cfa_offset 24
 1312 0004 0446     		mov	r4, r0
 1313 0006 0D46     		mov	r5, r1
 587:Drivers/BSP/Components/iis2mdc/iis2mdc_reg.c ****   iis2mdc_cfg_reg_c_t reg;
 1314              		.loc 1 587 3 is_stmt 1 view .LVU356
 588:Drivers/BSP/Components/iis2mdc/iis2mdc_reg.c ****   int32_t ret;
 1315              		.loc 1 588 3 view .LVU357
 589:Drivers/BSP/Components/iis2mdc/iis2mdc_reg.c **** 
 590:Drivers/BSP/Components/iis2mdc/iis2mdc_reg.c ****   ret = iis2mdc_read_reg(ctx, IIS2MDC_CFG_REG_C, (uint8_t *) &reg, 1);
 1316              		.loc 1 590 3 view .LVU358
 1317              		.loc 1 590 9 is_stmt 0 view .LVU359
 1318 0008 0123     		movs	r3, #1
 1319 000a 01AA     		add	r2, sp, #4
 1320 000c 6221     		movs	r1, #98
 1321              	.LVL90:
 1322              		.loc 1 590 9 view .LVU360
 1323 000e FFF7FEFF 		bl	iis2mdc_read_reg
 1324              	.LVL91:
 591:Drivers/BSP/Components/iis2mdc/iis2mdc_reg.c **** 
 592:Drivers/BSP/Components/iis2mdc/iis2mdc_reg.c ****   if (ret == 0)
 1325              		.loc 1 592 3 is_stmt 1 view .LVU361
 1326              		.loc 1 592 6 is_stmt 0 view .LVU362
 1327 0012 08B1     		cbz	r0, .L83
 1328              	.LVL92:
 1329              	.L80:
 593:Drivers/BSP/Components/iis2mdc/iis2mdc_reg.c ****   {
 594:Drivers/BSP/Components/iis2mdc/iis2mdc_reg.c ****     reg.bdu = val;
 595:Drivers/BSP/Components/iis2mdc/iis2mdc_reg.c ****     ret = iis2mdc_write_reg(ctx, IIS2MDC_CFG_REG_C, (uint8_t *) &reg, 1);
 596:Drivers/BSP/Components/iis2mdc/iis2mdc_reg.c ****   }
 597:Drivers/BSP/Components/iis2mdc/iis2mdc_reg.c **** 
 598:Drivers/BSP/Components/iis2mdc/iis2mdc_reg.c ****   return ret;
 599:Drivers/BSP/Components/iis2mdc/iis2mdc_reg.c **** }
 1330              		.loc 1 599 1 view .LVU363
 1331 0014 03B0     		add	sp, sp, #12
 1332              		.cfi_remember_state
 1333              		.cfi_def_cfa_offset 12
 1334              		@ sp needed
 1335 0016 30BD     		pop	{r4, r5, pc}
 1336              	.LVL93:
 1337              	.L83:
 1338              		.cfi_restore_state
 594:Drivers/BSP/Components/iis2mdc/iis2mdc_reg.c ****     ret = iis2mdc_write_reg(ctx, IIS2MDC_CFG_REG_C, (uint8_t *) &reg, 1);
 1339              		.loc 1 594 5 is_stmt 1 view .LVU364
 594:Drivers/BSP/Components/iis2mdc/iis2mdc_reg.c ****     ret = iis2mdc_write_reg(ctx, IIS2MDC_CFG_REG_C, (uint8_t *) &reg, 1);
 1340              		.loc 1 594 13 is_stmt 0 view .LVU365
 1341 0018 9DF80430 		ldrb	r3, [sp, #4]	@ zero_extendqisi2
 1342 001c 65F30413 		bfi	r3, r5, #4, #1
ARM GAS  C:\Temp\cczma3Jx.s 			page 36


 1343 0020 8DF80430 		strb	r3, [sp, #4]
 595:Drivers/BSP/Components/iis2mdc/iis2mdc_reg.c ****   }
 1344              		.loc 1 595 5 is_stmt 1 view .LVU366
 595:Drivers/BSP/Components/iis2mdc/iis2mdc_reg.c ****   }
 1345              		.loc 1 595 11 is_stmt 0 view .LVU367
 1346 0024 0123     		movs	r3, #1
 1347              	.LVL94:
 595:Drivers/BSP/Components/iis2mdc/iis2mdc_reg.c ****   }
 1348              		.loc 1 595 11 view .LVU368
 1349 0026 01AA     		add	r2, sp, #4
 1350 0028 6221     		movs	r1, #98
 1351 002a 2046     		mov	r0, r4
 1352 002c FFF7FEFF 		bl	iis2mdc_write_reg
 1353              	.LVL95:
 598:Drivers/BSP/Components/iis2mdc/iis2mdc_reg.c **** }
 1354              		.loc 1 598 3 is_stmt 1 view .LVU369
 598:Drivers/BSP/Components/iis2mdc/iis2mdc_reg.c **** }
 1355              		.loc 1 598 10 is_stmt 0 view .LVU370
 1356 0030 F0E7     		b	.L80
 1357              		.cfi_endproc
 1358              	.LFE20:
 1360              		.section	.text.iis2mdc_block_data_update_get,"ax",%progbits
 1361              		.align	1
 1362              		.global	iis2mdc_block_data_update_get
 1363              		.syntax unified
 1364              		.thumb
 1365              		.thumb_func
 1367              	iis2mdc_block_data_update_get:
 1368              	.LVL96:
 1369              	.LFB21:
 600:Drivers/BSP/Components/iis2mdc/iis2mdc_reg.c **** 
 601:Drivers/BSP/Components/iis2mdc/iis2mdc_reg.c **** /**
 602:Drivers/BSP/Components/iis2mdc/iis2mdc_reg.c ****   * @brief  Block data update.[get]
 603:Drivers/BSP/Components/iis2mdc/iis2mdc_reg.c ****   *
 604:Drivers/BSP/Components/iis2mdc/iis2mdc_reg.c ****   * @param  ctx      read / write interface definitions
 605:Drivers/BSP/Components/iis2mdc/iis2mdc_reg.c ****   * @param  val      change the values of bdu in reg CFG_REG_C
 606:Drivers/BSP/Components/iis2mdc/iis2mdc_reg.c ****   * @retval          interface status (MANDATORY: return 0 -> no Error)
 607:Drivers/BSP/Components/iis2mdc/iis2mdc_reg.c ****   *
 608:Drivers/BSP/Components/iis2mdc/iis2mdc_reg.c ****   */
 609:Drivers/BSP/Components/iis2mdc/iis2mdc_reg.c **** int32_t iis2mdc_block_data_update_get(stmdev_ctx_t *ctx, uint8_t *val)
 610:Drivers/BSP/Components/iis2mdc/iis2mdc_reg.c **** {
 1370              		.loc 1 610 1 is_stmt 1 view -0
 1371              		.cfi_startproc
 1372              		@ args = 0, pretend = 0, frame = 8
 1373              		@ frame_needed = 0, uses_anonymous_args = 0
 1374              		.loc 1 610 1 is_stmt 0 view .LVU372
 1375 0000 10B5     		push	{r4, lr}
 1376              		.cfi_def_cfa_offset 8
 1377              		.cfi_offset 4, -8
 1378              		.cfi_offset 14, -4
 1379 0002 82B0     		sub	sp, sp, #8
 1380              		.cfi_def_cfa_offset 16
 1381 0004 0C46     		mov	r4, r1
 611:Drivers/BSP/Components/iis2mdc/iis2mdc_reg.c ****   iis2mdc_cfg_reg_c_t reg;
 1382              		.loc 1 611 3 is_stmt 1 view .LVU373
 612:Drivers/BSP/Components/iis2mdc/iis2mdc_reg.c ****   int32_t ret;
 1383              		.loc 1 612 3 view .LVU374
ARM GAS  C:\Temp\cczma3Jx.s 			page 37


 613:Drivers/BSP/Components/iis2mdc/iis2mdc_reg.c **** 
 614:Drivers/BSP/Components/iis2mdc/iis2mdc_reg.c ****   ret = iis2mdc_read_reg(ctx, IIS2MDC_CFG_REG_C, (uint8_t *) &reg, 1);
 1384              		.loc 1 614 3 view .LVU375
 1385              		.loc 1 614 9 is_stmt 0 view .LVU376
 1386 0006 0123     		movs	r3, #1
 1387 0008 01AA     		add	r2, sp, #4
 1388 000a 6221     		movs	r1, #98
 1389              	.LVL97:
 1390              		.loc 1 614 9 view .LVU377
 1391 000c FFF7FEFF 		bl	iis2mdc_read_reg
 1392              	.LVL98:
 615:Drivers/BSP/Components/iis2mdc/iis2mdc_reg.c ****   *val = reg.bdu;
 1393              		.loc 1 615 3 is_stmt 1 view .LVU378
 1394              		.loc 1 615 13 is_stmt 0 view .LVU379
 1395 0010 9DF80430 		ldrb	r3, [sp, #4]	@ zero_extendqisi2
 1396 0014 C3F30013 		ubfx	r3, r3, #4, #1
 1397              		.loc 1 615 8 view .LVU380
 1398 0018 2370     		strb	r3, [r4]
 616:Drivers/BSP/Components/iis2mdc/iis2mdc_reg.c **** 
 617:Drivers/BSP/Components/iis2mdc/iis2mdc_reg.c ****   return ret;
 1399              		.loc 1 617 3 is_stmt 1 view .LVU381
 618:Drivers/BSP/Components/iis2mdc/iis2mdc_reg.c **** }
 1400              		.loc 1 618 1 is_stmt 0 view .LVU382
 1401 001a 02B0     		add	sp, sp, #8
 1402              		.cfi_def_cfa_offset 8
 1403              		@ sp needed
 1404 001c 10BD     		pop	{r4, pc}
 1405              		.loc 1 618 1 view .LVU383
 1406              		.cfi_endproc
 1407              	.LFE21:
 1409              		.section	.text.iis2mdc_mag_data_ready_get,"ax",%progbits
 1410              		.align	1
 1411              		.global	iis2mdc_mag_data_ready_get
 1412              		.syntax unified
 1413              		.thumb
 1414              		.thumb_func
 1416              	iis2mdc_mag_data_ready_get:
 1417              	.LVL99:
 1418              	.LFB22:
 619:Drivers/BSP/Components/iis2mdc/iis2mdc_reg.c **** 
 620:Drivers/BSP/Components/iis2mdc/iis2mdc_reg.c **** /**
 621:Drivers/BSP/Components/iis2mdc/iis2mdc_reg.c ****   * @brief  Magnetic set of data available.[get]
 622:Drivers/BSP/Components/iis2mdc/iis2mdc_reg.c ****   *
 623:Drivers/BSP/Components/iis2mdc/iis2mdc_reg.c ****   * @param  ctx      read / write interface definitions
 624:Drivers/BSP/Components/iis2mdc/iis2mdc_reg.c ****   * @param  val      change the values of zyxda in reg STATUS_REG
 625:Drivers/BSP/Components/iis2mdc/iis2mdc_reg.c ****   * @retval          interface status (MANDATORY: return 0 -> no Error)
 626:Drivers/BSP/Components/iis2mdc/iis2mdc_reg.c ****   *
 627:Drivers/BSP/Components/iis2mdc/iis2mdc_reg.c ****   */
 628:Drivers/BSP/Components/iis2mdc/iis2mdc_reg.c **** int32_t iis2mdc_mag_data_ready_get(stmdev_ctx_t *ctx, uint8_t *val)
 629:Drivers/BSP/Components/iis2mdc/iis2mdc_reg.c **** {
 1419              		.loc 1 629 1 is_stmt 1 view -0
 1420              		.cfi_startproc
 1421              		@ args = 0, pretend = 0, frame = 8
 1422              		@ frame_needed = 0, uses_anonymous_args = 0
 1423              		.loc 1 629 1 is_stmt 0 view .LVU385
 1424 0000 10B5     		push	{r4, lr}
 1425              		.cfi_def_cfa_offset 8
ARM GAS  C:\Temp\cczma3Jx.s 			page 38


 1426              		.cfi_offset 4, -8
 1427              		.cfi_offset 14, -4
 1428 0002 82B0     		sub	sp, sp, #8
 1429              		.cfi_def_cfa_offset 16
 1430 0004 0C46     		mov	r4, r1
 630:Drivers/BSP/Components/iis2mdc/iis2mdc_reg.c ****   iis2mdc_status_reg_t reg;
 1431              		.loc 1 630 3 is_stmt 1 view .LVU386
 631:Drivers/BSP/Components/iis2mdc/iis2mdc_reg.c ****   int32_t ret;
 1432              		.loc 1 631 3 view .LVU387
 632:Drivers/BSP/Components/iis2mdc/iis2mdc_reg.c **** 
 633:Drivers/BSP/Components/iis2mdc/iis2mdc_reg.c ****   ret = iis2mdc_read_reg(ctx, IIS2MDC_STATUS_REG, (uint8_t *) &reg, 1);
 1433              		.loc 1 633 3 view .LVU388
 1434              		.loc 1 633 9 is_stmt 0 view .LVU389
 1435 0006 0123     		movs	r3, #1
 1436 0008 01AA     		add	r2, sp, #4
 1437 000a 6721     		movs	r1, #103
 1438              	.LVL100:
 1439              		.loc 1 633 9 view .LVU390
 1440 000c FFF7FEFF 		bl	iis2mdc_read_reg
 1441              	.LVL101:
 634:Drivers/BSP/Components/iis2mdc/iis2mdc_reg.c ****   *val = reg.zyxda;
 1442              		.loc 1 634 3 is_stmt 1 view .LVU391
 1443              		.loc 1 634 13 is_stmt 0 view .LVU392
 1444 0010 9DF80430 		ldrb	r3, [sp, #4]	@ zero_extendqisi2
 1445 0014 C3F3C003 		ubfx	r3, r3, #3, #1
 1446              		.loc 1 634 8 view .LVU393
 1447 0018 2370     		strb	r3, [r4]
 635:Drivers/BSP/Components/iis2mdc/iis2mdc_reg.c **** 
 636:Drivers/BSP/Components/iis2mdc/iis2mdc_reg.c ****   return ret;
 1448              		.loc 1 636 3 is_stmt 1 view .LVU394
 637:Drivers/BSP/Components/iis2mdc/iis2mdc_reg.c **** }
 1449              		.loc 1 637 1 is_stmt 0 view .LVU395
 1450 001a 02B0     		add	sp, sp, #8
 1451              		.cfi_def_cfa_offset 8
 1452              		@ sp needed
 1453 001c 10BD     		pop	{r4, pc}
 1454              		.loc 1 637 1 view .LVU396
 1455              		.cfi_endproc
 1456              	.LFE22:
 1458              		.section	.text.iis2mdc_mag_data_ovr_get,"ax",%progbits
 1459              		.align	1
 1460              		.global	iis2mdc_mag_data_ovr_get
 1461              		.syntax unified
 1462              		.thumb
 1463              		.thumb_func
 1465              	iis2mdc_mag_data_ovr_get:
 1466              	.LVL102:
 1467              	.LFB23:
 638:Drivers/BSP/Components/iis2mdc/iis2mdc_reg.c **** 
 639:Drivers/BSP/Components/iis2mdc/iis2mdc_reg.c **** /**
 640:Drivers/BSP/Components/iis2mdc/iis2mdc_reg.c ****   * @brief  Magnetic set of data overrun.[get]
 641:Drivers/BSP/Components/iis2mdc/iis2mdc_reg.c ****   *
 642:Drivers/BSP/Components/iis2mdc/iis2mdc_reg.c ****   * @param  ctx      read / write interface definitions
 643:Drivers/BSP/Components/iis2mdc/iis2mdc_reg.c ****   * @param  val      change the values of zyxor in reg STATUS_REG
 644:Drivers/BSP/Components/iis2mdc/iis2mdc_reg.c ****   * @retval          interface status (MANDATORY: return 0 -> no Error)
 645:Drivers/BSP/Components/iis2mdc/iis2mdc_reg.c ****   *
 646:Drivers/BSP/Components/iis2mdc/iis2mdc_reg.c ****   */
ARM GAS  C:\Temp\cczma3Jx.s 			page 39


 647:Drivers/BSP/Components/iis2mdc/iis2mdc_reg.c **** int32_t iis2mdc_mag_data_ovr_get(stmdev_ctx_t *ctx, uint8_t *val)
 648:Drivers/BSP/Components/iis2mdc/iis2mdc_reg.c **** {
 1468              		.loc 1 648 1 is_stmt 1 view -0
 1469              		.cfi_startproc
 1470              		@ args = 0, pretend = 0, frame = 8
 1471              		@ frame_needed = 0, uses_anonymous_args = 0
 1472              		.loc 1 648 1 is_stmt 0 view .LVU398
 1473 0000 10B5     		push	{r4, lr}
 1474              		.cfi_def_cfa_offset 8
 1475              		.cfi_offset 4, -8
 1476              		.cfi_offset 14, -4
 1477 0002 82B0     		sub	sp, sp, #8
 1478              		.cfi_def_cfa_offset 16
 1479 0004 0C46     		mov	r4, r1
 649:Drivers/BSP/Components/iis2mdc/iis2mdc_reg.c ****   iis2mdc_status_reg_t reg;
 1480              		.loc 1 649 3 is_stmt 1 view .LVU399
 650:Drivers/BSP/Components/iis2mdc/iis2mdc_reg.c ****   int32_t ret;
 1481              		.loc 1 650 3 view .LVU400
 651:Drivers/BSP/Components/iis2mdc/iis2mdc_reg.c **** 
 652:Drivers/BSP/Components/iis2mdc/iis2mdc_reg.c ****   ret = iis2mdc_read_reg(ctx, IIS2MDC_STATUS_REG, (uint8_t *) &reg, 1);
 1482              		.loc 1 652 3 view .LVU401
 1483              		.loc 1 652 9 is_stmt 0 view .LVU402
 1484 0006 0123     		movs	r3, #1
 1485 0008 01AA     		add	r2, sp, #4
 1486 000a 6721     		movs	r1, #103
 1487              	.LVL103:
 1488              		.loc 1 652 9 view .LVU403
 1489 000c FFF7FEFF 		bl	iis2mdc_read_reg
 1490              	.LVL104:
 653:Drivers/BSP/Components/iis2mdc/iis2mdc_reg.c ****   *val = reg.zyxor;
 1491              		.loc 1 653 3 is_stmt 1 view .LVU404
 1492              		.loc 1 653 13 is_stmt 0 view .LVU405
 1493 0010 9DF80430 		ldrb	r3, [sp, #4]	@ zero_extendqisi2
 1494 0014 C3F3C013 		ubfx	r3, r3, #7, #1
 1495              		.loc 1 653 8 view .LVU406
 1496 0018 2370     		strb	r3, [r4]
 654:Drivers/BSP/Components/iis2mdc/iis2mdc_reg.c **** 
 655:Drivers/BSP/Components/iis2mdc/iis2mdc_reg.c ****   return ret;
 1497              		.loc 1 655 3 is_stmt 1 view .LVU407
 656:Drivers/BSP/Components/iis2mdc/iis2mdc_reg.c **** }
 1498              		.loc 1 656 1 is_stmt 0 view .LVU408
 1499 001a 02B0     		add	sp, sp, #8
 1500              		.cfi_def_cfa_offset 8
 1501              		@ sp needed
 1502 001c 10BD     		pop	{r4, pc}
 1503              		.loc 1 656 1 view .LVU409
 1504              		.cfi_endproc
 1505              	.LFE23:
 1507              		.section	.text.iis2mdc_magnetic_raw_get,"ax",%progbits
 1508              		.align	1
 1509              		.global	iis2mdc_magnetic_raw_get
 1510              		.syntax unified
 1511              		.thumb
 1512              		.thumb_func
 1514              	iis2mdc_magnetic_raw_get:
 1515              	.LVL105:
 1516              	.LFB24:
ARM GAS  C:\Temp\cczma3Jx.s 			page 40


 657:Drivers/BSP/Components/iis2mdc/iis2mdc_reg.c **** 
 658:Drivers/BSP/Components/iis2mdc/iis2mdc_reg.c **** /**
 659:Drivers/BSP/Components/iis2mdc/iis2mdc_reg.c ****   * @brief  Magnetic output value.[get]
 660:Drivers/BSP/Components/iis2mdc/iis2mdc_reg.c ****   *
 661:Drivers/BSP/Components/iis2mdc/iis2mdc_reg.c ****   * @param  ctx      read / write interface definitions
 662:Drivers/BSP/Components/iis2mdc/iis2mdc_reg.c ****   * @param  buff     buffer that stores data read
 663:Drivers/BSP/Components/iis2mdc/iis2mdc_reg.c ****   * @retval          interface status (MANDATORY: return 0 -> no Error)
 664:Drivers/BSP/Components/iis2mdc/iis2mdc_reg.c ****   *
 665:Drivers/BSP/Components/iis2mdc/iis2mdc_reg.c ****   */
 666:Drivers/BSP/Components/iis2mdc/iis2mdc_reg.c **** int32_t iis2mdc_magnetic_raw_get(stmdev_ctx_t *ctx, int16_t *val)
 667:Drivers/BSP/Components/iis2mdc/iis2mdc_reg.c **** {
 1517              		.loc 1 667 1 is_stmt 1 view -0
 1518              		.cfi_startproc
 1519              		@ args = 0, pretend = 0, frame = 8
 1520              		@ frame_needed = 0, uses_anonymous_args = 0
 1521              		.loc 1 667 1 is_stmt 0 view .LVU411
 1522 0000 10B5     		push	{r4, lr}
 1523              		.cfi_def_cfa_offset 8
 1524              		.cfi_offset 4, -8
 1525              		.cfi_offset 14, -4
 1526 0002 82B0     		sub	sp, sp, #8
 1527              		.cfi_def_cfa_offset 16
 1528 0004 0C46     		mov	r4, r1
 668:Drivers/BSP/Components/iis2mdc/iis2mdc_reg.c ****   uint8_t buff[6];
 1529              		.loc 1 668 3 is_stmt 1 view .LVU412
 669:Drivers/BSP/Components/iis2mdc/iis2mdc_reg.c ****   int32_t ret;
 1530              		.loc 1 669 3 view .LVU413
 670:Drivers/BSP/Components/iis2mdc/iis2mdc_reg.c **** 
 671:Drivers/BSP/Components/iis2mdc/iis2mdc_reg.c ****   ret =  iis2mdc_read_reg(ctx, IIS2MDC_OUTX_L_REG, buff, 6);
 1531              		.loc 1 671 3 view .LVU414
 1532              		.loc 1 671 10 is_stmt 0 view .LVU415
 1533 0006 0623     		movs	r3, #6
 1534 0008 6A46     		mov	r2, sp
 1535 000a 6821     		movs	r1, #104
 1536              	.LVL106:
 1537              		.loc 1 671 10 view .LVU416
 1538 000c FFF7FEFF 		bl	iis2mdc_read_reg
 1539              	.LVL107:
 672:Drivers/BSP/Components/iis2mdc/iis2mdc_reg.c ****   val[0] = (int16_t)buff[1];
 1540              		.loc 1 672 3 is_stmt 1 view .LVU417
 1541              		.loc 1 672 25 is_stmt 0 view .LVU418
 1542 0010 9DF80120 		ldrb	r2, [sp, #1]	@ zero_extendqisi2
 1543              		.loc 1 672 10 view .LVU419
 1544 0014 2280     		strh	r2, [r4]	@ movhi
 673:Drivers/BSP/Components/iis2mdc/iis2mdc_reg.c ****   val[0] = (val[0] * 256) + (int16_t)buff[0];
 1545              		.loc 1 673 3 is_stmt 1 view .LVU420
 1546              		.loc 1 673 42 is_stmt 0 view .LVU421
 1547 0016 9DF80030 		ldrb	r3, [sp]	@ zero_extendqisi2
 1548              		.loc 1 673 27 view .LVU422
 1549 001a 03EB0223 		add	r3, r3, r2, lsl #8
 1550              		.loc 1 673 10 view .LVU423
 1551 001e 2380     		strh	r3, [r4]	@ movhi
 674:Drivers/BSP/Components/iis2mdc/iis2mdc_reg.c ****   val[1] = (int16_t)buff[3];
 1552              		.loc 1 674 3 is_stmt 1 view .LVU424
 1553              		.loc 1 674 25 is_stmt 0 view .LVU425
 1554 0020 9DF80320 		ldrb	r2, [sp, #3]	@ zero_extendqisi2
 1555              		.loc 1 674 10 view .LVU426
ARM GAS  C:\Temp\cczma3Jx.s 			page 41


 1556 0024 6280     		strh	r2, [r4, #2]	@ movhi
 675:Drivers/BSP/Components/iis2mdc/iis2mdc_reg.c ****   val[1] = (val[1] * 256) + (int16_t)buff[2];
 1557              		.loc 1 675 3 is_stmt 1 view .LVU427
 1558              		.loc 1 675 42 is_stmt 0 view .LVU428
 1559 0026 9DF80230 		ldrb	r3, [sp, #2]	@ zero_extendqisi2
 1560              		.loc 1 675 27 view .LVU429
 1561 002a 03EB0223 		add	r3, r3, r2, lsl #8
 1562              		.loc 1 675 10 view .LVU430
 1563 002e 6380     		strh	r3, [r4, #2]	@ movhi
 676:Drivers/BSP/Components/iis2mdc/iis2mdc_reg.c ****   val[2] = (int16_t)buff[5];
 1564              		.loc 1 676 3 is_stmt 1 view .LVU431
 1565              		.loc 1 676 25 is_stmt 0 view .LVU432
 1566 0030 9DF80520 		ldrb	r2, [sp, #5]	@ zero_extendqisi2
 1567              		.loc 1 676 10 view .LVU433
 1568 0034 A280     		strh	r2, [r4, #4]	@ movhi
 677:Drivers/BSP/Components/iis2mdc/iis2mdc_reg.c ****   val[2] = (val[2] * 256) + (int16_t)buff[4];
 1569              		.loc 1 677 3 is_stmt 1 view .LVU434
 1570              		.loc 1 677 42 is_stmt 0 view .LVU435
 1571 0036 9DF80430 		ldrb	r3, [sp, #4]	@ zero_extendqisi2
 1572              		.loc 1 677 27 view .LVU436
 1573 003a 03EB0223 		add	r3, r3, r2, lsl #8
 1574              		.loc 1 677 10 view .LVU437
 1575 003e A380     		strh	r3, [r4, #4]	@ movhi
 678:Drivers/BSP/Components/iis2mdc/iis2mdc_reg.c **** 
 679:Drivers/BSP/Components/iis2mdc/iis2mdc_reg.c ****   return ret;
 1576              		.loc 1 679 3 is_stmt 1 view .LVU438
 680:Drivers/BSP/Components/iis2mdc/iis2mdc_reg.c **** }
 1577              		.loc 1 680 1 is_stmt 0 view .LVU439
 1578 0040 02B0     		add	sp, sp, #8
 1579              		.cfi_def_cfa_offset 8
 1580              		@ sp needed
 1581 0042 10BD     		pop	{r4, pc}
 1582              		.loc 1 680 1 view .LVU440
 1583              		.cfi_endproc
 1584              	.LFE24:
 1586              		.section	.text.iis2mdc_temperature_raw_get,"ax",%progbits
 1587              		.align	1
 1588              		.global	iis2mdc_temperature_raw_get
 1589              		.syntax unified
 1590              		.thumb
 1591              		.thumb_func
 1593              	iis2mdc_temperature_raw_get:
 1594              	.LVL108:
 1595              	.LFB25:
 681:Drivers/BSP/Components/iis2mdc/iis2mdc_reg.c **** 
 682:Drivers/BSP/Components/iis2mdc/iis2mdc_reg.c **** /**
 683:Drivers/BSP/Components/iis2mdc/iis2mdc_reg.c ****   * @brief  Temperature output value.[get]
 684:Drivers/BSP/Components/iis2mdc/iis2mdc_reg.c ****   *
 685:Drivers/BSP/Components/iis2mdc/iis2mdc_reg.c ****   * @param  ctx      read / write interface definitions
 686:Drivers/BSP/Components/iis2mdc/iis2mdc_reg.c ****   * @param  buff     buffer that stores data read
 687:Drivers/BSP/Components/iis2mdc/iis2mdc_reg.c ****   * @retval          interface status (MANDATORY: return 0 -> no Error)
 688:Drivers/BSP/Components/iis2mdc/iis2mdc_reg.c ****   *
 689:Drivers/BSP/Components/iis2mdc/iis2mdc_reg.c ****   */
 690:Drivers/BSP/Components/iis2mdc/iis2mdc_reg.c **** int32_t iis2mdc_temperature_raw_get(stmdev_ctx_t *ctx, int16_t *val)
 691:Drivers/BSP/Components/iis2mdc/iis2mdc_reg.c **** {
 1596              		.loc 1 691 1 is_stmt 1 view -0
 1597              		.cfi_startproc
ARM GAS  C:\Temp\cczma3Jx.s 			page 42


 1598              		@ args = 0, pretend = 0, frame = 8
 1599              		@ frame_needed = 0, uses_anonymous_args = 0
 1600              		.loc 1 691 1 is_stmt 0 view .LVU442
 1601 0000 10B5     		push	{r4, lr}
 1602              		.cfi_def_cfa_offset 8
 1603              		.cfi_offset 4, -8
 1604              		.cfi_offset 14, -4
 1605 0002 82B0     		sub	sp, sp, #8
 1606              		.cfi_def_cfa_offset 16
 1607 0004 0C46     		mov	r4, r1
 692:Drivers/BSP/Components/iis2mdc/iis2mdc_reg.c ****   uint8_t buff[2];
 1608              		.loc 1 692 3 is_stmt 1 view .LVU443
 693:Drivers/BSP/Components/iis2mdc/iis2mdc_reg.c ****   int32_t ret;
 1609              		.loc 1 693 3 view .LVU444
 694:Drivers/BSP/Components/iis2mdc/iis2mdc_reg.c **** 
 695:Drivers/BSP/Components/iis2mdc/iis2mdc_reg.c ****   ret =  iis2mdc_read_reg(ctx, IIS2MDC_TEMP_OUT_L_REG, buff, 2);
 1610              		.loc 1 695 3 view .LVU445
 1611              		.loc 1 695 10 is_stmt 0 view .LVU446
 1612 0006 0223     		movs	r3, #2
 1613 0008 01AA     		add	r2, sp, #4
 1614 000a 6E21     		movs	r1, #110
 1615              	.LVL109:
 1616              		.loc 1 695 10 view .LVU447
 1617 000c FFF7FEFF 		bl	iis2mdc_read_reg
 1618              	.LVL110:
 696:Drivers/BSP/Components/iis2mdc/iis2mdc_reg.c ****   *val = (int16_t)buff[1];
 1619              		.loc 1 696 3 is_stmt 1 view .LVU448
 1620              		.loc 1 696 23 is_stmt 0 view .LVU449
 1621 0010 9DF80520 		ldrb	r2, [sp, #5]	@ zero_extendqisi2
 1622              		.loc 1 696 8 view .LVU450
 1623 0014 2280     		strh	r2, [r4]	@ movhi
 697:Drivers/BSP/Components/iis2mdc/iis2mdc_reg.c ****   *val = (*val * 256) + (int16_t)buff[0];
 1624              		.loc 1 697 3 is_stmt 1 view .LVU451
 1625              		.loc 1 697 38 is_stmt 0 view .LVU452
 1626 0016 9DF80430 		ldrb	r3, [sp, #4]	@ zero_extendqisi2
 1627              		.loc 1 697 23 view .LVU453
 1628 001a 03EB0223 		add	r3, r3, r2, lsl #8
 1629              		.loc 1 697 8 view .LVU454
 1630 001e 2380     		strh	r3, [r4]	@ movhi
 698:Drivers/BSP/Components/iis2mdc/iis2mdc_reg.c **** 
 699:Drivers/BSP/Components/iis2mdc/iis2mdc_reg.c ****   return ret;
 1631              		.loc 1 699 3 is_stmt 1 view .LVU455
 700:Drivers/BSP/Components/iis2mdc/iis2mdc_reg.c **** }
 1632              		.loc 1 700 1 is_stmt 0 view .LVU456
 1633 0020 02B0     		add	sp, sp, #8
 1634              		.cfi_def_cfa_offset 8
 1635              		@ sp needed
 1636 0022 10BD     		pop	{r4, pc}
 1637              		.loc 1 700 1 view .LVU457
 1638              		.cfi_endproc
 1639              	.LFE25:
 1641              		.section	.text.iis2mdc_device_id_get,"ax",%progbits
 1642              		.align	1
 1643              		.global	iis2mdc_device_id_get
 1644              		.syntax unified
 1645              		.thumb
 1646              		.thumb_func
ARM GAS  C:\Temp\cczma3Jx.s 			page 43


 1648              	iis2mdc_device_id_get:
 1649              	.LVL111:
 1650              	.LFB26:
 701:Drivers/BSP/Components/iis2mdc/iis2mdc_reg.c **** 
 702:Drivers/BSP/Components/iis2mdc/iis2mdc_reg.c **** /**
 703:Drivers/BSP/Components/iis2mdc/iis2mdc_reg.c ****   * @}
 704:Drivers/BSP/Components/iis2mdc/iis2mdc_reg.c ****   *
 705:Drivers/BSP/Components/iis2mdc/iis2mdc_reg.c ****   */
 706:Drivers/BSP/Components/iis2mdc/iis2mdc_reg.c **** 
 707:Drivers/BSP/Components/iis2mdc/iis2mdc_reg.c **** /**
 708:Drivers/BSP/Components/iis2mdc/iis2mdc_reg.c ****   * @defgroup   IIS2MDC_common
 709:Drivers/BSP/Components/iis2mdc/iis2mdc_reg.c ****   * @brief      This section group common useful functions
 710:Drivers/BSP/Components/iis2mdc/iis2mdc_reg.c ****   * @{
 711:Drivers/BSP/Components/iis2mdc/iis2mdc_reg.c ****   *
 712:Drivers/BSP/Components/iis2mdc/iis2mdc_reg.c ****   */
 713:Drivers/BSP/Components/iis2mdc/iis2mdc_reg.c **** 
 714:Drivers/BSP/Components/iis2mdc/iis2mdc_reg.c **** /**
 715:Drivers/BSP/Components/iis2mdc/iis2mdc_reg.c ****   * @brief  Device Who am I.[get]
 716:Drivers/BSP/Components/iis2mdc/iis2mdc_reg.c ****   *
 717:Drivers/BSP/Components/iis2mdc/iis2mdc_reg.c ****   * @param  ctx      read / write interface definitions
 718:Drivers/BSP/Components/iis2mdc/iis2mdc_reg.c ****   * @param  buff     buffer that stores data read
 719:Drivers/BSP/Components/iis2mdc/iis2mdc_reg.c ****   * @retval          interface status (MANDATORY: return 0 -> no Error)
 720:Drivers/BSP/Components/iis2mdc/iis2mdc_reg.c ****   *
 721:Drivers/BSP/Components/iis2mdc/iis2mdc_reg.c ****   */
 722:Drivers/BSP/Components/iis2mdc/iis2mdc_reg.c **** int32_t iis2mdc_device_id_get(stmdev_ctx_t *ctx, uint8_t *buff)
 723:Drivers/BSP/Components/iis2mdc/iis2mdc_reg.c **** {
 1651              		.loc 1 723 1 is_stmt 1 view -0
 1652              		.cfi_startproc
 1653              		@ args = 0, pretend = 0, frame = 0
 1654              		@ frame_needed = 0, uses_anonymous_args = 0
 1655              		.loc 1 723 1 is_stmt 0 view .LVU459
 1656 0000 08B5     		push	{r3, lr}
 1657              		.cfi_def_cfa_offset 8
 1658              		.cfi_offset 3, -8
 1659              		.cfi_offset 14, -4
 1660 0002 0A46     		mov	r2, r1
 724:Drivers/BSP/Components/iis2mdc/iis2mdc_reg.c ****   int32_t ret;
 1661              		.loc 1 724 3 is_stmt 1 view .LVU460
 725:Drivers/BSP/Components/iis2mdc/iis2mdc_reg.c **** 
 726:Drivers/BSP/Components/iis2mdc/iis2mdc_reg.c ****   ret =  iis2mdc_read_reg(ctx, IIS2MDC_WHO_AM_I, buff, 1);
 1662              		.loc 1 726 3 view .LVU461
 1663              		.loc 1 726 10 is_stmt 0 view .LVU462
 1664 0004 0123     		movs	r3, #1
 1665 0006 4F21     		movs	r1, #79
 1666              	.LVL112:
 1667              		.loc 1 726 10 view .LVU463
 1668 0008 FFF7FEFF 		bl	iis2mdc_read_reg
 1669              	.LVL113:
 727:Drivers/BSP/Components/iis2mdc/iis2mdc_reg.c **** 
 728:Drivers/BSP/Components/iis2mdc/iis2mdc_reg.c ****   return ret;
 1670              		.loc 1 728 3 is_stmt 1 view .LVU464
 729:Drivers/BSP/Components/iis2mdc/iis2mdc_reg.c **** }
 1671              		.loc 1 729 1 is_stmt 0 view .LVU465
 1672 000c 08BD     		pop	{r3, pc}
 1673              		.cfi_endproc
 1674              	.LFE26:
 1676              		.section	.text.iis2mdc_reset_set,"ax",%progbits
ARM GAS  C:\Temp\cczma3Jx.s 			page 44


 1677              		.align	1
 1678              		.global	iis2mdc_reset_set
 1679              		.syntax unified
 1680              		.thumb
 1681              		.thumb_func
 1683              	iis2mdc_reset_set:
 1684              	.LVL114:
 1685              	.LFB27:
 730:Drivers/BSP/Components/iis2mdc/iis2mdc_reg.c **** 
 731:Drivers/BSP/Components/iis2mdc/iis2mdc_reg.c **** /**
 732:Drivers/BSP/Components/iis2mdc/iis2mdc_reg.c ****   * @brief  Software reset. Restore the default values in user
 733:Drivers/BSP/Components/iis2mdc/iis2mdc_reg.c ****   *         registers.[set]
 734:Drivers/BSP/Components/iis2mdc/iis2mdc_reg.c ****   *
 735:Drivers/BSP/Components/iis2mdc/iis2mdc_reg.c ****   * @param  ctx      read / write interface definitions
 736:Drivers/BSP/Components/iis2mdc/iis2mdc_reg.c ****   * @param  val      change the values of soft_rst in reg CFG_REG_A
 737:Drivers/BSP/Components/iis2mdc/iis2mdc_reg.c ****   * @retval          interface status (MANDATORY: return 0 -> no Error)
 738:Drivers/BSP/Components/iis2mdc/iis2mdc_reg.c ****   *
 739:Drivers/BSP/Components/iis2mdc/iis2mdc_reg.c ****   */
 740:Drivers/BSP/Components/iis2mdc/iis2mdc_reg.c **** int32_t iis2mdc_reset_set(stmdev_ctx_t *ctx, uint8_t val)
 741:Drivers/BSP/Components/iis2mdc/iis2mdc_reg.c **** {
 1686              		.loc 1 741 1 is_stmt 1 view -0
 1687              		.cfi_startproc
 1688              		@ args = 0, pretend = 0, frame = 8
 1689              		@ frame_needed = 0, uses_anonymous_args = 0
 1690              		.loc 1 741 1 is_stmt 0 view .LVU467
 1691 0000 30B5     		push	{r4, r5, lr}
 1692              		.cfi_def_cfa_offset 12
 1693              		.cfi_offset 4, -12
 1694              		.cfi_offset 5, -8
 1695              		.cfi_offset 14, -4
 1696 0002 83B0     		sub	sp, sp, #12
 1697              		.cfi_def_cfa_offset 24
 1698 0004 0446     		mov	r4, r0
 1699 0006 0D46     		mov	r5, r1
 742:Drivers/BSP/Components/iis2mdc/iis2mdc_reg.c ****   iis2mdc_cfg_reg_a_t reg;
 1700              		.loc 1 742 3 is_stmt 1 view .LVU468
 743:Drivers/BSP/Components/iis2mdc/iis2mdc_reg.c ****   int32_t ret;
 1701              		.loc 1 743 3 view .LVU469
 744:Drivers/BSP/Components/iis2mdc/iis2mdc_reg.c **** 
 745:Drivers/BSP/Components/iis2mdc/iis2mdc_reg.c ****   ret = iis2mdc_read_reg(ctx, IIS2MDC_CFG_REG_A, (uint8_t *) &reg, 1);
 1702              		.loc 1 745 3 view .LVU470
 1703              		.loc 1 745 9 is_stmt 0 view .LVU471
 1704 0008 0123     		movs	r3, #1
 1705 000a 01AA     		add	r2, sp, #4
 1706 000c 6021     		movs	r1, #96
 1707              	.LVL115:
 1708              		.loc 1 745 9 view .LVU472
 1709 000e FFF7FEFF 		bl	iis2mdc_read_reg
 1710              	.LVL116:
 746:Drivers/BSP/Components/iis2mdc/iis2mdc_reg.c **** 
 747:Drivers/BSP/Components/iis2mdc/iis2mdc_reg.c ****   if (ret == 0)
 1711              		.loc 1 747 3 is_stmt 1 view .LVU473
 1712              		.loc 1 747 6 is_stmt 0 view .LVU474
 1713 0012 08B1     		cbz	r0, .L99
 1714              	.LVL117:
 1715              	.L96:
 748:Drivers/BSP/Components/iis2mdc/iis2mdc_reg.c ****   {
ARM GAS  C:\Temp\cczma3Jx.s 			page 45


 749:Drivers/BSP/Components/iis2mdc/iis2mdc_reg.c ****     reg.soft_rst = val;
 750:Drivers/BSP/Components/iis2mdc/iis2mdc_reg.c ****     ret = iis2mdc_write_reg(ctx, IIS2MDC_CFG_REG_A, (uint8_t *) &reg, 1);
 751:Drivers/BSP/Components/iis2mdc/iis2mdc_reg.c ****   }
 752:Drivers/BSP/Components/iis2mdc/iis2mdc_reg.c **** 
 753:Drivers/BSP/Components/iis2mdc/iis2mdc_reg.c ****   return ret;
 754:Drivers/BSP/Components/iis2mdc/iis2mdc_reg.c **** }
 1716              		.loc 1 754 1 view .LVU475
 1717 0014 03B0     		add	sp, sp, #12
 1718              		.cfi_remember_state
 1719              		.cfi_def_cfa_offset 12
 1720              		@ sp needed
 1721 0016 30BD     		pop	{r4, r5, pc}
 1722              	.LVL118:
 1723              	.L99:
 1724              		.cfi_restore_state
 749:Drivers/BSP/Components/iis2mdc/iis2mdc_reg.c ****     ret = iis2mdc_write_reg(ctx, IIS2MDC_CFG_REG_A, (uint8_t *) &reg, 1);
 1725              		.loc 1 749 5 is_stmt 1 view .LVU476
 749:Drivers/BSP/Components/iis2mdc/iis2mdc_reg.c ****     ret = iis2mdc_write_reg(ctx, IIS2MDC_CFG_REG_A, (uint8_t *) &reg, 1);
 1726              		.loc 1 749 18 is_stmt 0 view .LVU477
 1727 0018 9DF80430 		ldrb	r3, [sp, #4]	@ zero_extendqisi2
 1728 001c 65F34513 		bfi	r3, r5, #5, #1
 1729 0020 8DF80430 		strb	r3, [sp, #4]
 750:Drivers/BSP/Components/iis2mdc/iis2mdc_reg.c ****   }
 1730              		.loc 1 750 5 is_stmt 1 view .LVU478
 750:Drivers/BSP/Components/iis2mdc/iis2mdc_reg.c ****   }
 1731              		.loc 1 750 11 is_stmt 0 view .LVU479
 1732 0024 0123     		movs	r3, #1
 1733              	.LVL119:
 750:Drivers/BSP/Components/iis2mdc/iis2mdc_reg.c ****   }
 1734              		.loc 1 750 11 view .LVU480
 1735 0026 01AA     		add	r2, sp, #4
 1736 0028 6021     		movs	r1, #96
 1737 002a 2046     		mov	r0, r4
 1738 002c FFF7FEFF 		bl	iis2mdc_write_reg
 1739              	.LVL120:
 753:Drivers/BSP/Components/iis2mdc/iis2mdc_reg.c **** }
 1740              		.loc 1 753 3 is_stmt 1 view .LVU481
 753:Drivers/BSP/Components/iis2mdc/iis2mdc_reg.c **** }
 1741              		.loc 1 753 10 is_stmt 0 view .LVU482
 1742 0030 F0E7     		b	.L96
 1743              		.cfi_endproc
 1744              	.LFE27:
 1746              		.section	.text.iis2mdc_reset_get,"ax",%progbits
 1747              		.align	1
 1748              		.global	iis2mdc_reset_get
 1749              		.syntax unified
 1750              		.thumb
 1751              		.thumb_func
 1753              	iis2mdc_reset_get:
 1754              	.LVL121:
 1755              	.LFB28:
 755:Drivers/BSP/Components/iis2mdc/iis2mdc_reg.c **** 
 756:Drivers/BSP/Components/iis2mdc/iis2mdc_reg.c **** /**
 757:Drivers/BSP/Components/iis2mdc/iis2mdc_reg.c ****   * @brief  Software reset. Restore the default values in user registers.[get]
 758:Drivers/BSP/Components/iis2mdc/iis2mdc_reg.c ****   *
 759:Drivers/BSP/Components/iis2mdc/iis2mdc_reg.c ****   * @param  ctx      read / write interface definitions
 760:Drivers/BSP/Components/iis2mdc/iis2mdc_reg.c ****   * @param  val      change the values of soft_rst in reg CFG_REG_A
ARM GAS  C:\Temp\cczma3Jx.s 			page 46


 761:Drivers/BSP/Components/iis2mdc/iis2mdc_reg.c ****   * @retval          interface status (MANDATORY: return 0 -> no Error)
 762:Drivers/BSP/Components/iis2mdc/iis2mdc_reg.c ****   *
 763:Drivers/BSP/Components/iis2mdc/iis2mdc_reg.c ****   */
 764:Drivers/BSP/Components/iis2mdc/iis2mdc_reg.c **** int32_t iis2mdc_reset_get(stmdev_ctx_t *ctx, uint8_t *val)
 765:Drivers/BSP/Components/iis2mdc/iis2mdc_reg.c **** {
 1756              		.loc 1 765 1 is_stmt 1 view -0
 1757              		.cfi_startproc
 1758              		@ args = 0, pretend = 0, frame = 8
 1759              		@ frame_needed = 0, uses_anonymous_args = 0
 1760              		.loc 1 765 1 is_stmt 0 view .LVU484
 1761 0000 10B5     		push	{r4, lr}
 1762              		.cfi_def_cfa_offset 8
 1763              		.cfi_offset 4, -8
 1764              		.cfi_offset 14, -4
 1765 0002 82B0     		sub	sp, sp, #8
 1766              		.cfi_def_cfa_offset 16
 1767 0004 0C46     		mov	r4, r1
 766:Drivers/BSP/Components/iis2mdc/iis2mdc_reg.c ****   iis2mdc_cfg_reg_a_t reg;
 1768              		.loc 1 766 3 is_stmt 1 view .LVU485
 767:Drivers/BSP/Components/iis2mdc/iis2mdc_reg.c ****   int32_t ret;
 1769              		.loc 1 767 3 view .LVU486
 768:Drivers/BSP/Components/iis2mdc/iis2mdc_reg.c **** 
 769:Drivers/BSP/Components/iis2mdc/iis2mdc_reg.c ****   ret = iis2mdc_read_reg(ctx, IIS2MDC_CFG_REG_A, (uint8_t *) &reg, 1);
 1770              		.loc 1 769 3 view .LVU487
 1771              		.loc 1 769 9 is_stmt 0 view .LVU488
 1772 0006 0123     		movs	r3, #1
 1773 0008 01AA     		add	r2, sp, #4
 1774 000a 6021     		movs	r1, #96
 1775              	.LVL122:
 1776              		.loc 1 769 9 view .LVU489
 1777 000c FFF7FEFF 		bl	iis2mdc_read_reg
 1778              	.LVL123:
 770:Drivers/BSP/Components/iis2mdc/iis2mdc_reg.c ****   *val = reg.soft_rst;
 1779              		.loc 1 770 3 is_stmt 1 view .LVU490
 1780              		.loc 1 770 13 is_stmt 0 view .LVU491
 1781 0010 9DF80430 		ldrb	r3, [sp, #4]	@ zero_extendqisi2
 1782 0014 C3F34013 		ubfx	r3, r3, #5, #1
 1783              		.loc 1 770 8 view .LVU492
 1784 0018 2370     		strb	r3, [r4]
 771:Drivers/BSP/Components/iis2mdc/iis2mdc_reg.c **** 
 772:Drivers/BSP/Components/iis2mdc/iis2mdc_reg.c ****   return ret;
 1785              		.loc 1 772 3 is_stmt 1 view .LVU493
 773:Drivers/BSP/Components/iis2mdc/iis2mdc_reg.c **** }
 1786              		.loc 1 773 1 is_stmt 0 view .LVU494
 1787 001a 02B0     		add	sp, sp, #8
 1788              		.cfi_def_cfa_offset 8
 1789              		@ sp needed
 1790 001c 10BD     		pop	{r4, pc}
 1791              		.loc 1 773 1 view .LVU495
 1792              		.cfi_endproc
 1793              	.LFE28:
 1795              		.section	.text.iis2mdc_boot_set,"ax",%progbits
 1796              		.align	1
 1797              		.global	iis2mdc_boot_set
 1798              		.syntax unified
 1799              		.thumb
 1800              		.thumb_func
ARM GAS  C:\Temp\cczma3Jx.s 			page 47


 1802              	iis2mdc_boot_set:
 1803              	.LVL124:
 1804              	.LFB29:
 774:Drivers/BSP/Components/iis2mdc/iis2mdc_reg.c **** 
 775:Drivers/BSP/Components/iis2mdc/iis2mdc_reg.c **** /**
 776:Drivers/BSP/Components/iis2mdc/iis2mdc_reg.c ****   * @brief  Reboot memory content. Reload the calibration parameters.[set]
 777:Drivers/BSP/Components/iis2mdc/iis2mdc_reg.c ****   *
 778:Drivers/BSP/Components/iis2mdc/iis2mdc_reg.c ****   * @param  ctx      read / write interface definitions
 779:Drivers/BSP/Components/iis2mdc/iis2mdc_reg.c ****   * @param  val      change the values of reboot in reg CFG_REG_A
 780:Drivers/BSP/Components/iis2mdc/iis2mdc_reg.c ****   * @retval          interface status (MANDATORY: return 0 -> no Error)
 781:Drivers/BSP/Components/iis2mdc/iis2mdc_reg.c ****   *
 782:Drivers/BSP/Components/iis2mdc/iis2mdc_reg.c ****   */
 783:Drivers/BSP/Components/iis2mdc/iis2mdc_reg.c **** int32_t iis2mdc_boot_set(stmdev_ctx_t *ctx, uint8_t val)
 784:Drivers/BSP/Components/iis2mdc/iis2mdc_reg.c **** {
 1805              		.loc 1 784 1 is_stmt 1 view -0
 1806              		.cfi_startproc
 1807              		@ args = 0, pretend = 0, frame = 8
 1808              		@ frame_needed = 0, uses_anonymous_args = 0
 1809              		.loc 1 784 1 is_stmt 0 view .LVU497
 1810 0000 30B5     		push	{r4, r5, lr}
 1811              		.cfi_def_cfa_offset 12
 1812              		.cfi_offset 4, -12
 1813              		.cfi_offset 5, -8
 1814              		.cfi_offset 14, -4
 1815 0002 83B0     		sub	sp, sp, #12
 1816              		.cfi_def_cfa_offset 24
 1817 0004 0446     		mov	r4, r0
 1818 0006 0D46     		mov	r5, r1
 785:Drivers/BSP/Components/iis2mdc/iis2mdc_reg.c ****   iis2mdc_cfg_reg_a_t reg;
 1819              		.loc 1 785 3 is_stmt 1 view .LVU498
 786:Drivers/BSP/Components/iis2mdc/iis2mdc_reg.c ****   int32_t ret;
 1820              		.loc 1 786 3 view .LVU499
 787:Drivers/BSP/Components/iis2mdc/iis2mdc_reg.c **** 
 788:Drivers/BSP/Components/iis2mdc/iis2mdc_reg.c ****   ret = iis2mdc_read_reg(ctx, IIS2MDC_CFG_REG_A, (uint8_t *) &reg, 1);
 1821              		.loc 1 788 3 view .LVU500
 1822              		.loc 1 788 9 is_stmt 0 view .LVU501
 1823 0008 0123     		movs	r3, #1
 1824 000a 01AA     		add	r2, sp, #4
 1825 000c 6021     		movs	r1, #96
 1826              	.LVL125:
 1827              		.loc 1 788 9 view .LVU502
 1828 000e FFF7FEFF 		bl	iis2mdc_read_reg
 1829              	.LVL126:
 789:Drivers/BSP/Components/iis2mdc/iis2mdc_reg.c **** 
 790:Drivers/BSP/Components/iis2mdc/iis2mdc_reg.c ****   if (ret == 0)
 1830              		.loc 1 790 3 is_stmt 1 view .LVU503
 1831              		.loc 1 790 6 is_stmt 0 view .LVU504
 1832 0012 08B1     		cbz	r0, .L105
 1833              	.LVL127:
 1834              	.L102:
 791:Drivers/BSP/Components/iis2mdc/iis2mdc_reg.c ****   {
 792:Drivers/BSP/Components/iis2mdc/iis2mdc_reg.c ****     reg.reboot = val;
 793:Drivers/BSP/Components/iis2mdc/iis2mdc_reg.c ****     ret = iis2mdc_write_reg(ctx, IIS2MDC_CFG_REG_A, (uint8_t *) &reg, 1);
 794:Drivers/BSP/Components/iis2mdc/iis2mdc_reg.c ****   }
 795:Drivers/BSP/Components/iis2mdc/iis2mdc_reg.c **** 
 796:Drivers/BSP/Components/iis2mdc/iis2mdc_reg.c ****   return ret;
 797:Drivers/BSP/Components/iis2mdc/iis2mdc_reg.c **** }
ARM GAS  C:\Temp\cczma3Jx.s 			page 48


 1835              		.loc 1 797 1 view .LVU505
 1836 0014 03B0     		add	sp, sp, #12
 1837              		.cfi_remember_state
 1838              		.cfi_def_cfa_offset 12
 1839              		@ sp needed
 1840 0016 30BD     		pop	{r4, r5, pc}
 1841              	.LVL128:
 1842              	.L105:
 1843              		.cfi_restore_state
 792:Drivers/BSP/Components/iis2mdc/iis2mdc_reg.c ****     ret = iis2mdc_write_reg(ctx, IIS2MDC_CFG_REG_A, (uint8_t *) &reg, 1);
 1844              		.loc 1 792 5 is_stmt 1 view .LVU506
 792:Drivers/BSP/Components/iis2mdc/iis2mdc_reg.c ****     ret = iis2mdc_write_reg(ctx, IIS2MDC_CFG_REG_A, (uint8_t *) &reg, 1);
 1845              		.loc 1 792 16 is_stmt 0 view .LVU507
 1846 0018 9DF80430 		ldrb	r3, [sp, #4]	@ zero_extendqisi2
 1847 001c 65F38613 		bfi	r3, r5, #6, #1
 1848 0020 8DF80430 		strb	r3, [sp, #4]
 793:Drivers/BSP/Components/iis2mdc/iis2mdc_reg.c ****   }
 1849              		.loc 1 793 5 is_stmt 1 view .LVU508
 793:Drivers/BSP/Components/iis2mdc/iis2mdc_reg.c ****   }
 1850              		.loc 1 793 11 is_stmt 0 view .LVU509
 1851 0024 0123     		movs	r3, #1
 1852              	.LVL129:
 793:Drivers/BSP/Components/iis2mdc/iis2mdc_reg.c ****   }
 1853              		.loc 1 793 11 view .LVU510
 1854 0026 01AA     		add	r2, sp, #4
 1855 0028 6021     		movs	r1, #96
 1856 002a 2046     		mov	r0, r4
 1857 002c FFF7FEFF 		bl	iis2mdc_write_reg
 1858              	.LVL130:
 796:Drivers/BSP/Components/iis2mdc/iis2mdc_reg.c **** }
 1859              		.loc 1 796 3 is_stmt 1 view .LVU511
 796:Drivers/BSP/Components/iis2mdc/iis2mdc_reg.c **** }
 1860              		.loc 1 796 10 is_stmt 0 view .LVU512
 1861 0030 F0E7     		b	.L102
 1862              		.cfi_endproc
 1863              	.LFE29:
 1865              		.section	.text.iis2mdc_boot_get,"ax",%progbits
 1866              		.align	1
 1867              		.global	iis2mdc_boot_get
 1868              		.syntax unified
 1869              		.thumb
 1870              		.thumb_func
 1872              	iis2mdc_boot_get:
 1873              	.LVL131:
 1874              	.LFB30:
 798:Drivers/BSP/Components/iis2mdc/iis2mdc_reg.c **** 
 799:Drivers/BSP/Components/iis2mdc/iis2mdc_reg.c **** /**
 800:Drivers/BSP/Components/iis2mdc/iis2mdc_reg.c ****   * @brief  Reboot memory content. Reload the calibration parameters.[get]
 801:Drivers/BSP/Components/iis2mdc/iis2mdc_reg.c ****   *
 802:Drivers/BSP/Components/iis2mdc/iis2mdc_reg.c ****   * @param  ctx      read / write interface definitions
 803:Drivers/BSP/Components/iis2mdc/iis2mdc_reg.c ****   * @param  val      change the values of reboot in reg CFG_REG_A
 804:Drivers/BSP/Components/iis2mdc/iis2mdc_reg.c ****   * @retval          interface status (MANDATORY: return 0 -> no Error)
 805:Drivers/BSP/Components/iis2mdc/iis2mdc_reg.c ****   *
 806:Drivers/BSP/Components/iis2mdc/iis2mdc_reg.c ****   */
 807:Drivers/BSP/Components/iis2mdc/iis2mdc_reg.c **** int32_t iis2mdc_boot_get(stmdev_ctx_t *ctx, uint8_t *val)
 808:Drivers/BSP/Components/iis2mdc/iis2mdc_reg.c **** {
 1875              		.loc 1 808 1 is_stmt 1 view -0
ARM GAS  C:\Temp\cczma3Jx.s 			page 49


 1876              		.cfi_startproc
 1877              		@ args = 0, pretend = 0, frame = 8
 1878              		@ frame_needed = 0, uses_anonymous_args = 0
 1879              		.loc 1 808 1 is_stmt 0 view .LVU514
 1880 0000 10B5     		push	{r4, lr}
 1881              		.cfi_def_cfa_offset 8
 1882              		.cfi_offset 4, -8
 1883              		.cfi_offset 14, -4
 1884 0002 82B0     		sub	sp, sp, #8
 1885              		.cfi_def_cfa_offset 16
 1886 0004 0C46     		mov	r4, r1
 809:Drivers/BSP/Components/iis2mdc/iis2mdc_reg.c ****   iis2mdc_cfg_reg_a_t reg;
 1887              		.loc 1 809 3 is_stmt 1 view .LVU515
 810:Drivers/BSP/Components/iis2mdc/iis2mdc_reg.c ****   int32_t ret;
 1888              		.loc 1 810 3 view .LVU516
 811:Drivers/BSP/Components/iis2mdc/iis2mdc_reg.c **** 
 812:Drivers/BSP/Components/iis2mdc/iis2mdc_reg.c ****   ret = iis2mdc_read_reg(ctx, IIS2MDC_CFG_REG_A, (uint8_t *) &reg, 1);
 1889              		.loc 1 812 3 view .LVU517
 1890              		.loc 1 812 9 is_stmt 0 view .LVU518
 1891 0006 0123     		movs	r3, #1
 1892 0008 01AA     		add	r2, sp, #4
 1893 000a 6021     		movs	r1, #96
 1894              	.LVL132:
 1895              		.loc 1 812 9 view .LVU519
 1896 000c FFF7FEFF 		bl	iis2mdc_read_reg
 1897              	.LVL133:
 813:Drivers/BSP/Components/iis2mdc/iis2mdc_reg.c ****   *val = reg.reboot;
 1898              		.loc 1 813 3 is_stmt 1 view .LVU520
 1899              		.loc 1 813 13 is_stmt 0 view .LVU521
 1900 0010 9DF80430 		ldrb	r3, [sp, #4]	@ zero_extendqisi2
 1901 0014 C3F38013 		ubfx	r3, r3, #6, #1
 1902              		.loc 1 813 8 view .LVU522
 1903 0018 2370     		strb	r3, [r4]
 814:Drivers/BSP/Components/iis2mdc/iis2mdc_reg.c **** 
 815:Drivers/BSP/Components/iis2mdc/iis2mdc_reg.c ****   return ret;
 1904              		.loc 1 815 3 is_stmt 1 view .LVU523
 816:Drivers/BSP/Components/iis2mdc/iis2mdc_reg.c **** }
 1905              		.loc 1 816 1 is_stmt 0 view .LVU524
 1906 001a 02B0     		add	sp, sp, #8
 1907              		.cfi_def_cfa_offset 8
 1908              		@ sp needed
 1909 001c 10BD     		pop	{r4, pc}
 1910              		.loc 1 816 1 view .LVU525
 1911              		.cfi_endproc
 1912              	.LFE30:
 1914              		.section	.text.iis2mdc_self_test_set,"ax",%progbits
 1915              		.align	1
 1916              		.global	iis2mdc_self_test_set
 1917              		.syntax unified
 1918              		.thumb
 1919              		.thumb_func
 1921              	iis2mdc_self_test_set:
 1922              	.LVL134:
 1923              	.LFB31:
 817:Drivers/BSP/Components/iis2mdc/iis2mdc_reg.c **** 
 818:Drivers/BSP/Components/iis2mdc/iis2mdc_reg.c **** /**
 819:Drivers/BSP/Components/iis2mdc/iis2mdc_reg.c ****   * @brief  Selftest.[set]
ARM GAS  C:\Temp\cczma3Jx.s 			page 50


 820:Drivers/BSP/Components/iis2mdc/iis2mdc_reg.c ****   *
 821:Drivers/BSP/Components/iis2mdc/iis2mdc_reg.c ****   * @param  ctx      read / write interface definitions
 822:Drivers/BSP/Components/iis2mdc/iis2mdc_reg.c ****   * @param  val      change the values of self_test in reg CFG_REG_C
 823:Drivers/BSP/Components/iis2mdc/iis2mdc_reg.c ****   * @retval          interface status (MANDATORY: return 0 -> no Error)
 824:Drivers/BSP/Components/iis2mdc/iis2mdc_reg.c ****   *
 825:Drivers/BSP/Components/iis2mdc/iis2mdc_reg.c ****   */
 826:Drivers/BSP/Components/iis2mdc/iis2mdc_reg.c **** int32_t iis2mdc_self_test_set(stmdev_ctx_t *ctx, uint8_t val)
 827:Drivers/BSP/Components/iis2mdc/iis2mdc_reg.c **** {
 1924              		.loc 1 827 1 is_stmt 1 view -0
 1925              		.cfi_startproc
 1926              		@ args = 0, pretend = 0, frame = 8
 1927              		@ frame_needed = 0, uses_anonymous_args = 0
 1928              		.loc 1 827 1 is_stmt 0 view .LVU527
 1929 0000 30B5     		push	{r4, r5, lr}
 1930              		.cfi_def_cfa_offset 12
 1931              		.cfi_offset 4, -12
 1932              		.cfi_offset 5, -8
 1933              		.cfi_offset 14, -4
 1934 0002 83B0     		sub	sp, sp, #12
 1935              		.cfi_def_cfa_offset 24
 1936 0004 0446     		mov	r4, r0
 1937 0006 0D46     		mov	r5, r1
 828:Drivers/BSP/Components/iis2mdc/iis2mdc_reg.c ****   iis2mdc_cfg_reg_c_t reg;
 1938              		.loc 1 828 3 is_stmt 1 view .LVU528
 829:Drivers/BSP/Components/iis2mdc/iis2mdc_reg.c ****   int32_t ret;
 1939              		.loc 1 829 3 view .LVU529
 830:Drivers/BSP/Components/iis2mdc/iis2mdc_reg.c **** 
 831:Drivers/BSP/Components/iis2mdc/iis2mdc_reg.c ****   ret = iis2mdc_read_reg(ctx, IIS2MDC_CFG_REG_C, (uint8_t *) &reg, 1);
 1940              		.loc 1 831 3 view .LVU530
 1941              		.loc 1 831 9 is_stmt 0 view .LVU531
 1942 0008 0123     		movs	r3, #1
 1943 000a 01AA     		add	r2, sp, #4
 1944 000c 6221     		movs	r1, #98
 1945              	.LVL135:
 1946              		.loc 1 831 9 view .LVU532
 1947 000e FFF7FEFF 		bl	iis2mdc_read_reg
 1948              	.LVL136:
 832:Drivers/BSP/Components/iis2mdc/iis2mdc_reg.c **** 
 833:Drivers/BSP/Components/iis2mdc/iis2mdc_reg.c ****   if (ret == 0)
 1949              		.loc 1 833 3 is_stmt 1 view .LVU533
 1950              		.loc 1 833 6 is_stmt 0 view .LVU534
 1951 0012 08B1     		cbz	r0, .L111
 1952              	.LVL137:
 1953              	.L108:
 834:Drivers/BSP/Components/iis2mdc/iis2mdc_reg.c ****   {
 835:Drivers/BSP/Components/iis2mdc/iis2mdc_reg.c ****     reg.self_test = val;
 836:Drivers/BSP/Components/iis2mdc/iis2mdc_reg.c ****     ret = iis2mdc_write_reg(ctx, IIS2MDC_CFG_REG_C, (uint8_t *) &reg, 1);
 837:Drivers/BSP/Components/iis2mdc/iis2mdc_reg.c ****   }
 838:Drivers/BSP/Components/iis2mdc/iis2mdc_reg.c **** 
 839:Drivers/BSP/Components/iis2mdc/iis2mdc_reg.c ****   return ret;
 840:Drivers/BSP/Components/iis2mdc/iis2mdc_reg.c **** }
 1954              		.loc 1 840 1 view .LVU535
 1955 0014 03B0     		add	sp, sp, #12
 1956              		.cfi_remember_state
 1957              		.cfi_def_cfa_offset 12
 1958              		@ sp needed
 1959 0016 30BD     		pop	{r4, r5, pc}
ARM GAS  C:\Temp\cczma3Jx.s 			page 51


 1960              	.LVL138:
 1961              	.L111:
 1962              		.cfi_restore_state
 835:Drivers/BSP/Components/iis2mdc/iis2mdc_reg.c ****     ret = iis2mdc_write_reg(ctx, IIS2MDC_CFG_REG_C, (uint8_t *) &reg, 1);
 1963              		.loc 1 835 5 is_stmt 1 view .LVU536
 835:Drivers/BSP/Components/iis2mdc/iis2mdc_reg.c ****     ret = iis2mdc_write_reg(ctx, IIS2MDC_CFG_REG_C, (uint8_t *) &reg, 1);
 1964              		.loc 1 835 19 is_stmt 0 view .LVU537
 1965 0018 9DF80430 		ldrb	r3, [sp, #4]	@ zero_extendqisi2
 1966 001c 65F34103 		bfi	r3, r5, #1, #1
 1967 0020 8DF80430 		strb	r3, [sp, #4]
 836:Drivers/BSP/Components/iis2mdc/iis2mdc_reg.c ****   }
 1968              		.loc 1 836 5 is_stmt 1 view .LVU538
 836:Drivers/BSP/Components/iis2mdc/iis2mdc_reg.c ****   }
 1969              		.loc 1 836 11 is_stmt 0 view .LVU539
 1970 0024 0123     		movs	r3, #1
 1971              	.LVL139:
 836:Drivers/BSP/Components/iis2mdc/iis2mdc_reg.c ****   }
 1972              		.loc 1 836 11 view .LVU540
 1973 0026 01AA     		add	r2, sp, #4
 1974 0028 6221     		movs	r1, #98
 1975 002a 2046     		mov	r0, r4
 1976 002c FFF7FEFF 		bl	iis2mdc_write_reg
 1977              	.LVL140:
 839:Drivers/BSP/Components/iis2mdc/iis2mdc_reg.c **** }
 1978              		.loc 1 839 3 is_stmt 1 view .LVU541
 839:Drivers/BSP/Components/iis2mdc/iis2mdc_reg.c **** }
 1979              		.loc 1 839 10 is_stmt 0 view .LVU542
 1980 0030 F0E7     		b	.L108
 1981              		.cfi_endproc
 1982              	.LFE31:
 1984              		.section	.text.iis2mdc_self_test_get,"ax",%progbits
 1985              		.align	1
 1986              		.global	iis2mdc_self_test_get
 1987              		.syntax unified
 1988              		.thumb
 1989              		.thumb_func
 1991              	iis2mdc_self_test_get:
 1992              	.LVL141:
 1993              	.LFB32:
 841:Drivers/BSP/Components/iis2mdc/iis2mdc_reg.c **** 
 842:Drivers/BSP/Components/iis2mdc/iis2mdc_reg.c **** /**
 843:Drivers/BSP/Components/iis2mdc/iis2mdc_reg.c ****   * @brief  Selftest.[get]
 844:Drivers/BSP/Components/iis2mdc/iis2mdc_reg.c ****   *
 845:Drivers/BSP/Components/iis2mdc/iis2mdc_reg.c ****   * @param  ctx      read / write interface definitions
 846:Drivers/BSP/Components/iis2mdc/iis2mdc_reg.c ****   * @param  val      change the values of self_test in reg CFG_REG_C
 847:Drivers/BSP/Components/iis2mdc/iis2mdc_reg.c ****   * @retval          interface status (MANDATORY: return 0 -> no Error)
 848:Drivers/BSP/Components/iis2mdc/iis2mdc_reg.c ****   *
 849:Drivers/BSP/Components/iis2mdc/iis2mdc_reg.c ****   */
 850:Drivers/BSP/Components/iis2mdc/iis2mdc_reg.c **** int32_t iis2mdc_self_test_get(stmdev_ctx_t *ctx, uint8_t *val)
 851:Drivers/BSP/Components/iis2mdc/iis2mdc_reg.c **** {
 1994              		.loc 1 851 1 is_stmt 1 view -0
 1995              		.cfi_startproc
 1996              		@ args = 0, pretend = 0, frame = 8
 1997              		@ frame_needed = 0, uses_anonymous_args = 0
 1998              		.loc 1 851 1 is_stmt 0 view .LVU544
 1999 0000 10B5     		push	{r4, lr}
 2000              		.cfi_def_cfa_offset 8
ARM GAS  C:\Temp\cczma3Jx.s 			page 52


 2001              		.cfi_offset 4, -8
 2002              		.cfi_offset 14, -4
 2003 0002 82B0     		sub	sp, sp, #8
 2004              		.cfi_def_cfa_offset 16
 2005 0004 0C46     		mov	r4, r1
 852:Drivers/BSP/Components/iis2mdc/iis2mdc_reg.c ****   iis2mdc_cfg_reg_c_t reg;
 2006              		.loc 1 852 3 is_stmt 1 view .LVU545
 853:Drivers/BSP/Components/iis2mdc/iis2mdc_reg.c ****   int32_t ret;
 2007              		.loc 1 853 3 view .LVU546
 854:Drivers/BSP/Components/iis2mdc/iis2mdc_reg.c **** 
 855:Drivers/BSP/Components/iis2mdc/iis2mdc_reg.c ****   ret = iis2mdc_read_reg(ctx, IIS2MDC_CFG_REG_C, (uint8_t *) &reg, 1);
 2008              		.loc 1 855 3 view .LVU547
 2009              		.loc 1 855 9 is_stmt 0 view .LVU548
 2010 0006 0123     		movs	r3, #1
 2011 0008 01AA     		add	r2, sp, #4
 2012 000a 6221     		movs	r1, #98
 2013              	.LVL142:
 2014              		.loc 1 855 9 view .LVU549
 2015 000c FFF7FEFF 		bl	iis2mdc_read_reg
 2016              	.LVL143:
 856:Drivers/BSP/Components/iis2mdc/iis2mdc_reg.c ****   *val = reg.self_test;
 2017              		.loc 1 856 3 is_stmt 1 view .LVU550
 2018              		.loc 1 856 13 is_stmt 0 view .LVU551
 2019 0010 9DF80430 		ldrb	r3, [sp, #4]	@ zero_extendqisi2
 2020 0014 C3F34003 		ubfx	r3, r3, #1, #1
 2021              		.loc 1 856 8 view .LVU552
 2022 0018 2370     		strb	r3, [r4]
 857:Drivers/BSP/Components/iis2mdc/iis2mdc_reg.c **** 
 858:Drivers/BSP/Components/iis2mdc/iis2mdc_reg.c ****   return ret;
 2023              		.loc 1 858 3 is_stmt 1 view .LVU553
 859:Drivers/BSP/Components/iis2mdc/iis2mdc_reg.c **** }
 2024              		.loc 1 859 1 is_stmt 0 view .LVU554
 2025 001a 02B0     		add	sp, sp, #8
 2026              		.cfi_def_cfa_offset 8
 2027              		@ sp needed
 2028 001c 10BD     		pop	{r4, pc}
 2029              		.loc 1 859 1 view .LVU555
 2030              		.cfi_endproc
 2031              	.LFE32:
 2033              		.section	.text.iis2mdc_data_format_set,"ax",%progbits
 2034              		.align	1
 2035              		.global	iis2mdc_data_format_set
 2036              		.syntax unified
 2037              		.thumb
 2038              		.thumb_func
 2040              	iis2mdc_data_format_set:
 2041              	.LVL144:
 2042              	.LFB33:
 860:Drivers/BSP/Components/iis2mdc/iis2mdc_reg.c **** 
 861:Drivers/BSP/Components/iis2mdc/iis2mdc_reg.c **** /**
 862:Drivers/BSP/Components/iis2mdc/iis2mdc_reg.c ****   * @brief  Big/Little Endian data selection.[set]
 863:Drivers/BSP/Components/iis2mdc/iis2mdc_reg.c ****   *
 864:Drivers/BSP/Components/iis2mdc/iis2mdc_reg.c ****   * @param  ctx      read / write interface definitions
 865:Drivers/BSP/Components/iis2mdc/iis2mdc_reg.c ****   * @param  val      change the values of ble in reg CFG_REG_C
 866:Drivers/BSP/Components/iis2mdc/iis2mdc_reg.c ****   * @retval          interface status (MANDATORY: return 0 -> no Error)
 867:Drivers/BSP/Components/iis2mdc/iis2mdc_reg.c ****   *
 868:Drivers/BSP/Components/iis2mdc/iis2mdc_reg.c ****   */
ARM GAS  C:\Temp\cczma3Jx.s 			page 53


 869:Drivers/BSP/Components/iis2mdc/iis2mdc_reg.c **** int32_t iis2mdc_data_format_set(stmdev_ctx_t *ctx, iis2mdc_ble_t val)
 870:Drivers/BSP/Components/iis2mdc/iis2mdc_reg.c **** {
 2043              		.loc 1 870 1 is_stmt 1 view -0
 2044              		.cfi_startproc
 2045              		@ args = 0, pretend = 0, frame = 8
 2046              		@ frame_needed = 0, uses_anonymous_args = 0
 2047              		.loc 1 870 1 is_stmt 0 view .LVU557
 2048 0000 30B5     		push	{r4, r5, lr}
 2049              		.cfi_def_cfa_offset 12
 2050              		.cfi_offset 4, -12
 2051              		.cfi_offset 5, -8
 2052              		.cfi_offset 14, -4
 2053 0002 83B0     		sub	sp, sp, #12
 2054              		.cfi_def_cfa_offset 24
 2055 0004 0446     		mov	r4, r0
 2056 0006 0D46     		mov	r5, r1
 871:Drivers/BSP/Components/iis2mdc/iis2mdc_reg.c ****   iis2mdc_cfg_reg_c_t reg;
 2057              		.loc 1 871 3 is_stmt 1 view .LVU558
 872:Drivers/BSP/Components/iis2mdc/iis2mdc_reg.c ****   int32_t ret;
 2058              		.loc 1 872 3 view .LVU559
 873:Drivers/BSP/Components/iis2mdc/iis2mdc_reg.c **** 
 874:Drivers/BSP/Components/iis2mdc/iis2mdc_reg.c ****   ret = iis2mdc_read_reg(ctx, IIS2MDC_CFG_REG_C, (uint8_t *) &reg, 1);
 2059              		.loc 1 874 3 view .LVU560
 2060              		.loc 1 874 9 is_stmt 0 view .LVU561
 2061 0008 0123     		movs	r3, #1
 2062 000a 01AA     		add	r2, sp, #4
 2063 000c 6221     		movs	r1, #98
 2064              	.LVL145:
 2065              		.loc 1 874 9 view .LVU562
 2066 000e FFF7FEFF 		bl	iis2mdc_read_reg
 2067              	.LVL146:
 875:Drivers/BSP/Components/iis2mdc/iis2mdc_reg.c **** 
 876:Drivers/BSP/Components/iis2mdc/iis2mdc_reg.c ****   if (ret == 0)
 2068              		.loc 1 876 3 is_stmt 1 view .LVU563
 2069              		.loc 1 876 6 is_stmt 0 view .LVU564
 2070 0012 08B1     		cbz	r0, .L117
 2071              	.LVL147:
 2072              	.L114:
 877:Drivers/BSP/Components/iis2mdc/iis2mdc_reg.c ****   {
 878:Drivers/BSP/Components/iis2mdc/iis2mdc_reg.c ****     reg.ble = (uint8_t)val;
 879:Drivers/BSP/Components/iis2mdc/iis2mdc_reg.c ****     ret = iis2mdc_write_reg(ctx, IIS2MDC_CFG_REG_C, (uint8_t *) &reg, 1);
 880:Drivers/BSP/Components/iis2mdc/iis2mdc_reg.c ****   }
 881:Drivers/BSP/Components/iis2mdc/iis2mdc_reg.c **** 
 882:Drivers/BSP/Components/iis2mdc/iis2mdc_reg.c ****   return ret;
 883:Drivers/BSP/Components/iis2mdc/iis2mdc_reg.c **** }
 2073              		.loc 1 883 1 view .LVU565
 2074 0014 03B0     		add	sp, sp, #12
 2075              		.cfi_remember_state
 2076              		.cfi_def_cfa_offset 12
 2077              		@ sp needed
 2078 0016 30BD     		pop	{r4, r5, pc}
 2079              	.LVL148:
 2080              	.L117:
 2081              		.cfi_restore_state
 878:Drivers/BSP/Components/iis2mdc/iis2mdc_reg.c ****     ret = iis2mdc_write_reg(ctx, IIS2MDC_CFG_REG_C, (uint8_t *) &reg, 1);
 2082              		.loc 1 878 5 is_stmt 1 view .LVU566
 878:Drivers/BSP/Components/iis2mdc/iis2mdc_reg.c ****     ret = iis2mdc_write_reg(ctx, IIS2MDC_CFG_REG_C, (uint8_t *) &reg, 1);
ARM GAS  C:\Temp\cczma3Jx.s 			page 54


 2083              		.loc 1 878 13 is_stmt 0 view .LVU567
 2084 0018 9DF80430 		ldrb	r3, [sp, #4]	@ zero_extendqisi2
 2085 001c 65F3C303 		bfi	r3, r5, #3, #1
 2086 0020 8DF80430 		strb	r3, [sp, #4]
 879:Drivers/BSP/Components/iis2mdc/iis2mdc_reg.c ****   }
 2087              		.loc 1 879 5 is_stmt 1 view .LVU568
 879:Drivers/BSP/Components/iis2mdc/iis2mdc_reg.c ****   }
 2088              		.loc 1 879 11 is_stmt 0 view .LVU569
 2089 0024 0123     		movs	r3, #1
 2090              	.LVL149:
 879:Drivers/BSP/Components/iis2mdc/iis2mdc_reg.c ****   }
 2091              		.loc 1 879 11 view .LVU570
 2092 0026 01AA     		add	r2, sp, #4
 2093 0028 6221     		movs	r1, #98
 2094 002a 2046     		mov	r0, r4
 2095 002c FFF7FEFF 		bl	iis2mdc_write_reg
 2096              	.LVL150:
 882:Drivers/BSP/Components/iis2mdc/iis2mdc_reg.c **** }
 2097              		.loc 1 882 3 is_stmt 1 view .LVU571
 882:Drivers/BSP/Components/iis2mdc/iis2mdc_reg.c **** }
 2098              		.loc 1 882 10 is_stmt 0 view .LVU572
 2099 0030 F0E7     		b	.L114
 2100              		.cfi_endproc
 2101              	.LFE33:
 2103              		.section	.text.iis2mdc_data_format_get,"ax",%progbits
 2104              		.align	1
 2105              		.global	iis2mdc_data_format_get
 2106              		.syntax unified
 2107              		.thumb
 2108              		.thumb_func
 2110              	iis2mdc_data_format_get:
 2111              	.LVL151:
 2112              	.LFB34:
 884:Drivers/BSP/Components/iis2mdc/iis2mdc_reg.c **** 
 885:Drivers/BSP/Components/iis2mdc/iis2mdc_reg.c **** /**
 886:Drivers/BSP/Components/iis2mdc/iis2mdc_reg.c ****   * @brief  Big/Little Endian data selection.[get]
 887:Drivers/BSP/Components/iis2mdc/iis2mdc_reg.c ****   *
 888:Drivers/BSP/Components/iis2mdc/iis2mdc_reg.c ****   * @param  ctx      read / write interface definitions
 889:Drivers/BSP/Components/iis2mdc/iis2mdc_reg.c ****   * @param  val      Get the values of ble in reg CFG_REG_C
 890:Drivers/BSP/Components/iis2mdc/iis2mdc_reg.c ****   * @retval          interface status (MANDATORY: return 0 -> no Error)
 891:Drivers/BSP/Components/iis2mdc/iis2mdc_reg.c ****   *
 892:Drivers/BSP/Components/iis2mdc/iis2mdc_reg.c ****   */
 893:Drivers/BSP/Components/iis2mdc/iis2mdc_reg.c **** int32_t iis2mdc_data_format_get(stmdev_ctx_t *ctx, iis2mdc_ble_t *val)
 894:Drivers/BSP/Components/iis2mdc/iis2mdc_reg.c **** {
 2113              		.loc 1 894 1 is_stmt 1 view -0
 2114              		.cfi_startproc
 2115              		@ args = 0, pretend = 0, frame = 8
 2116              		@ frame_needed = 0, uses_anonymous_args = 0
 2117              		.loc 1 894 1 is_stmt 0 view .LVU574
 2118 0000 10B5     		push	{r4, lr}
 2119              		.cfi_def_cfa_offset 8
 2120              		.cfi_offset 4, -8
 2121              		.cfi_offset 14, -4
 2122 0002 82B0     		sub	sp, sp, #8
 2123              		.cfi_def_cfa_offset 16
 2124 0004 0C46     		mov	r4, r1
 895:Drivers/BSP/Components/iis2mdc/iis2mdc_reg.c ****   iis2mdc_cfg_reg_c_t reg;
ARM GAS  C:\Temp\cczma3Jx.s 			page 55


 2125              		.loc 1 895 3 is_stmt 1 view .LVU575
 896:Drivers/BSP/Components/iis2mdc/iis2mdc_reg.c ****   int32_t ret;
 2126              		.loc 1 896 3 view .LVU576
 897:Drivers/BSP/Components/iis2mdc/iis2mdc_reg.c **** 
 898:Drivers/BSP/Components/iis2mdc/iis2mdc_reg.c ****   ret = iis2mdc_read_reg(ctx, IIS2MDC_CFG_REG_C, (uint8_t *) &reg, 1);
 2127              		.loc 1 898 3 view .LVU577
 2128              		.loc 1 898 9 is_stmt 0 view .LVU578
 2129 0006 0123     		movs	r3, #1
 2130 0008 01AA     		add	r2, sp, #4
 2131 000a 6221     		movs	r1, #98
 2132              	.LVL152:
 2133              		.loc 1 898 9 view .LVU579
 2134 000c FFF7FEFF 		bl	iis2mdc_read_reg
 2135              	.LVL153:
 899:Drivers/BSP/Components/iis2mdc/iis2mdc_reg.c **** 
 900:Drivers/BSP/Components/iis2mdc/iis2mdc_reg.c ****   switch (reg.ble)
 2136              		.loc 1 900 3 is_stmt 1 view .LVU580
 2137              		.loc 1 900 14 is_stmt 0 view .LVU581
 2138 0010 9DF80430 		ldrb	r3, [sp, #4]	@ zero_extendqisi2
 2139 0014 C3F3C002 		ubfx	r2, r3, #3, #1
 2140              		.loc 1 900 3 view .LVU582
 2141 0018 13F0080F 		tst	r3, #8
 2142 001c 03D0     		beq	.L119
 2143 001e 32B9     		cbnz	r2, .L120
 901:Drivers/BSP/Components/iis2mdc/iis2mdc_reg.c ****   {
 902:Drivers/BSP/Components/iis2mdc/iis2mdc_reg.c ****     case IIS2MDC_LSB_AT_LOW_ADD:
 903:Drivers/BSP/Components/iis2mdc/iis2mdc_reg.c ****       *val = IIS2MDC_LSB_AT_LOW_ADD;
 904:Drivers/BSP/Components/iis2mdc/iis2mdc_reg.c ****       break;
 905:Drivers/BSP/Components/iis2mdc/iis2mdc_reg.c **** 
 906:Drivers/BSP/Components/iis2mdc/iis2mdc_reg.c ****     case IIS2MDC_MSB_AT_LOW_ADD:
 907:Drivers/BSP/Components/iis2mdc/iis2mdc_reg.c ****       *val = IIS2MDC_MSB_AT_LOW_ADD;
 908:Drivers/BSP/Components/iis2mdc/iis2mdc_reg.c ****       break;
 909:Drivers/BSP/Components/iis2mdc/iis2mdc_reg.c **** 
 910:Drivers/BSP/Components/iis2mdc/iis2mdc_reg.c ****     default:
 911:Drivers/BSP/Components/iis2mdc/iis2mdc_reg.c ****       *val = IIS2MDC_LSB_AT_LOW_ADD;
 2144              		.loc 1 911 7 is_stmt 1 view .LVU583
 2145              		.loc 1 911 12 is_stmt 0 view .LVU584
 2146 0020 0023     		movs	r3, #0
 2147 0022 2370     		strb	r3, [r4]
 912:Drivers/BSP/Components/iis2mdc/iis2mdc_reg.c ****       break;
 2148              		.loc 1 912 7 is_stmt 1 view .LVU585
 913:Drivers/BSP/Components/iis2mdc/iis2mdc_reg.c ****   }
 914:Drivers/BSP/Components/iis2mdc/iis2mdc_reg.c **** 
 915:Drivers/BSP/Components/iis2mdc/iis2mdc_reg.c ****   return ret;
 2149              		.loc 1 915 3 view .LVU586
 2150              		.loc 1 915 10 is_stmt 0 view .LVU587
 2151 0024 01E0     		b	.L118
 2152              	.L119:
 903:Drivers/BSP/Components/iis2mdc/iis2mdc_reg.c ****       break;
 2153              		.loc 1 903 7 is_stmt 1 view .LVU588
 903:Drivers/BSP/Components/iis2mdc/iis2mdc_reg.c ****       break;
 2154              		.loc 1 903 12 is_stmt 0 view .LVU589
 2155 0026 0023     		movs	r3, #0
 2156 0028 2370     		strb	r3, [r4]
 904:Drivers/BSP/Components/iis2mdc/iis2mdc_reg.c **** 
 2157              		.loc 1 904 7 is_stmt 1 view .LVU590
 2158              	.L118:
ARM GAS  C:\Temp\cczma3Jx.s 			page 56


 916:Drivers/BSP/Components/iis2mdc/iis2mdc_reg.c **** }
 2159              		.loc 1 916 1 is_stmt 0 view .LVU591
 2160 002a 02B0     		add	sp, sp, #8
 2161              		.cfi_remember_state
 2162              		.cfi_def_cfa_offset 8
 2163              		@ sp needed
 2164 002c 10BD     		pop	{r4, pc}
 2165              	.LVL154:
 2166              	.L120:
 2167              		.cfi_restore_state
 907:Drivers/BSP/Components/iis2mdc/iis2mdc_reg.c ****       break;
 2168              		.loc 1 907 7 is_stmt 1 view .LVU592
 907:Drivers/BSP/Components/iis2mdc/iis2mdc_reg.c ****       break;
 2169              		.loc 1 907 12 is_stmt 0 view .LVU593
 2170 002e 0123     		movs	r3, #1
 2171 0030 2370     		strb	r3, [r4]
 908:Drivers/BSP/Components/iis2mdc/iis2mdc_reg.c **** 
 2172              		.loc 1 908 7 is_stmt 1 view .LVU594
 2173 0032 FAE7     		b	.L118
 2174              		.cfi_endproc
 2175              	.LFE34:
 2177              		.section	.text.iis2mdc_status_get,"ax",%progbits
 2178              		.align	1
 2179              		.global	iis2mdc_status_get
 2180              		.syntax unified
 2181              		.thumb
 2182              		.thumb_func
 2184              	iis2mdc_status_get:
 2185              	.LVL155:
 2186              	.LFB35:
 917:Drivers/BSP/Components/iis2mdc/iis2mdc_reg.c **** 
 918:Drivers/BSP/Components/iis2mdc/iis2mdc_reg.c **** /**
 919:Drivers/BSP/Components/iis2mdc/iis2mdc_reg.c ****   * @brief  Info about device status.[get]
 920:Drivers/BSP/Components/iis2mdc/iis2mdc_reg.c ****   *
 921:Drivers/BSP/Components/iis2mdc/iis2mdc_reg.c ****   * @param  ctx      read / write interface definitions
 922:Drivers/BSP/Components/iis2mdc/iis2mdc_reg.c ****   * @param  val      registers STATUS_REG
 923:Drivers/BSP/Components/iis2mdc/iis2mdc_reg.c ****   * @retval          interface status (MANDATORY: return 0 -> no Error)
 924:Drivers/BSP/Components/iis2mdc/iis2mdc_reg.c ****   *
 925:Drivers/BSP/Components/iis2mdc/iis2mdc_reg.c ****   */
 926:Drivers/BSP/Components/iis2mdc/iis2mdc_reg.c **** int32_t iis2mdc_status_get(stmdev_ctx_t *ctx,
 927:Drivers/BSP/Components/iis2mdc/iis2mdc_reg.c ****                            iis2mdc_status_reg_t *val)
 928:Drivers/BSP/Components/iis2mdc/iis2mdc_reg.c **** {
 2187              		.loc 1 928 1 view -0
 2188              		.cfi_startproc
 2189              		@ args = 0, pretend = 0, frame = 0
 2190              		@ frame_needed = 0, uses_anonymous_args = 0
 2191              		.loc 1 928 1 is_stmt 0 view .LVU596
 2192 0000 08B5     		push	{r3, lr}
 2193              		.cfi_def_cfa_offset 8
 2194              		.cfi_offset 3, -8
 2195              		.cfi_offset 14, -4
 2196 0002 0A46     		mov	r2, r1
 929:Drivers/BSP/Components/iis2mdc/iis2mdc_reg.c ****   int32_t ret;
 2197              		.loc 1 929 3 is_stmt 1 view .LVU597
 930:Drivers/BSP/Components/iis2mdc/iis2mdc_reg.c **** 
 931:Drivers/BSP/Components/iis2mdc/iis2mdc_reg.c ****   ret =  iis2mdc_read_reg(ctx, IIS2MDC_STATUS_REG, (uint8_t *) val, 1);
 2198              		.loc 1 931 3 view .LVU598
ARM GAS  C:\Temp\cczma3Jx.s 			page 57


 2199              		.loc 1 931 10 is_stmt 0 view .LVU599
 2200 0004 0123     		movs	r3, #1
 2201 0006 6721     		movs	r1, #103
 2202              	.LVL156:
 2203              		.loc 1 931 10 view .LVU600
 2204 0008 FFF7FEFF 		bl	iis2mdc_read_reg
 2205              	.LVL157:
 932:Drivers/BSP/Components/iis2mdc/iis2mdc_reg.c **** 
 933:Drivers/BSP/Components/iis2mdc/iis2mdc_reg.c ****   return ret;
 2206              		.loc 1 933 3 is_stmt 1 view .LVU601
 934:Drivers/BSP/Components/iis2mdc/iis2mdc_reg.c **** }
 2207              		.loc 1 934 1 is_stmt 0 view .LVU602
 2208 000c 08BD     		pop	{r3, pc}
 2209              		.cfi_endproc
 2210              	.LFE35:
 2212              		.section	.text.iis2mdc_offset_int_conf_set,"ax",%progbits
 2213              		.align	1
 2214              		.global	iis2mdc_offset_int_conf_set
 2215              		.syntax unified
 2216              		.thumb
 2217              		.thumb_func
 2219              	iis2mdc_offset_int_conf_set:
 2220              	.LVL158:
 2221              	.LFB36:
 935:Drivers/BSP/Components/iis2mdc/iis2mdc_reg.c **** 
 936:Drivers/BSP/Components/iis2mdc/iis2mdc_reg.c **** /**
 937:Drivers/BSP/Components/iis2mdc/iis2mdc_reg.c ****   * @}
 938:Drivers/BSP/Components/iis2mdc/iis2mdc_reg.c ****   *
 939:Drivers/BSP/Components/iis2mdc/iis2mdc_reg.c ****   */
 940:Drivers/BSP/Components/iis2mdc/iis2mdc_reg.c **** 
 941:Drivers/BSP/Components/iis2mdc/iis2mdc_reg.c **** /**
 942:Drivers/BSP/Components/iis2mdc/iis2mdc_reg.c ****   * @defgroup   IIS2MDC_interrupts
 943:Drivers/BSP/Components/iis2mdc/iis2mdc_reg.c ****   * @brief      This section group all the functions that manage
 944:Drivers/BSP/Components/iis2mdc/iis2mdc_reg.c ****   *             interrupts.
 945:Drivers/BSP/Components/iis2mdc/iis2mdc_reg.c ****   * @{
 946:Drivers/BSP/Components/iis2mdc/iis2mdc_reg.c ****   *
 947:Drivers/BSP/Components/iis2mdc/iis2mdc_reg.c ****   */
 948:Drivers/BSP/Components/iis2mdc/iis2mdc_reg.c **** 
 949:Drivers/BSP/Components/iis2mdc/iis2mdc_reg.c **** /**
 950:Drivers/BSP/Components/iis2mdc/iis2mdc_reg.c ****   * @brief  The interrupt block recognition checks data after/before the
 951:Drivers/BSP/Components/iis2mdc/iis2mdc_reg.c ****   *         hard-iron correction to discover the interrupt.[set]
 952:Drivers/BSP/Components/iis2mdc/iis2mdc_reg.c ****   *
 953:Drivers/BSP/Components/iis2mdc/iis2mdc_reg.c ****   * @param  ctx      read / write interface definitions
 954:Drivers/BSP/Components/iis2mdc/iis2mdc_reg.c ****   * @param  val      change the values of int_on_dataoff in
 955:Drivers/BSP/Components/iis2mdc/iis2mdc_reg.c ****   *                                   reg CFG_REG_B
 956:Drivers/BSP/Components/iis2mdc/iis2mdc_reg.c ****   * @retval          interface status (MANDATORY: return 0 -> no Error)
 957:Drivers/BSP/Components/iis2mdc/iis2mdc_reg.c ****   *
 958:Drivers/BSP/Components/iis2mdc/iis2mdc_reg.c ****   */
 959:Drivers/BSP/Components/iis2mdc/iis2mdc_reg.c **** int32_t iis2mdc_offset_int_conf_set(stmdev_ctx_t *ctx,
 960:Drivers/BSP/Components/iis2mdc/iis2mdc_reg.c ****                                     iis2mdc_int_on_dataoff_t val)
 961:Drivers/BSP/Components/iis2mdc/iis2mdc_reg.c **** {
 2222              		.loc 1 961 1 is_stmt 1 view -0
 2223              		.cfi_startproc
 2224              		@ args = 0, pretend = 0, frame = 8
 2225              		@ frame_needed = 0, uses_anonymous_args = 0
 2226              		.loc 1 961 1 is_stmt 0 view .LVU604
 2227 0000 30B5     		push	{r4, r5, lr}
ARM GAS  C:\Temp\cczma3Jx.s 			page 58


 2228              		.cfi_def_cfa_offset 12
 2229              		.cfi_offset 4, -12
 2230              		.cfi_offset 5, -8
 2231              		.cfi_offset 14, -4
 2232 0002 83B0     		sub	sp, sp, #12
 2233              		.cfi_def_cfa_offset 24
 2234 0004 0446     		mov	r4, r0
 2235 0006 0D46     		mov	r5, r1
 962:Drivers/BSP/Components/iis2mdc/iis2mdc_reg.c ****   iis2mdc_cfg_reg_b_t reg;
 2236              		.loc 1 962 3 is_stmt 1 view .LVU605
 963:Drivers/BSP/Components/iis2mdc/iis2mdc_reg.c ****   int32_t ret;
 2237              		.loc 1 963 3 view .LVU606
 964:Drivers/BSP/Components/iis2mdc/iis2mdc_reg.c **** 
 965:Drivers/BSP/Components/iis2mdc/iis2mdc_reg.c ****   ret = iis2mdc_read_reg(ctx, IIS2MDC_CFG_REG_B, (uint8_t *) &reg, 1);
 2238              		.loc 1 965 3 view .LVU607
 2239              		.loc 1 965 9 is_stmt 0 view .LVU608
 2240 0008 0123     		movs	r3, #1
 2241 000a 01AA     		add	r2, sp, #4
 2242 000c 6121     		movs	r1, #97
 2243              	.LVL159:
 2244              		.loc 1 965 9 view .LVU609
 2245 000e FFF7FEFF 		bl	iis2mdc_read_reg
 2246              	.LVL160:
 966:Drivers/BSP/Components/iis2mdc/iis2mdc_reg.c **** 
 967:Drivers/BSP/Components/iis2mdc/iis2mdc_reg.c ****   if (ret == 0)
 2247              		.loc 1 967 3 is_stmt 1 view .LVU610
 2248              		.loc 1 967 6 is_stmt 0 view .LVU611
 2249 0012 08B1     		cbz	r0, .L130
 2250              	.LVL161:
 2251              	.L127:
 968:Drivers/BSP/Components/iis2mdc/iis2mdc_reg.c ****   {
 969:Drivers/BSP/Components/iis2mdc/iis2mdc_reg.c ****     reg.int_on_dataoff = (uint8_t)val;
 970:Drivers/BSP/Components/iis2mdc/iis2mdc_reg.c ****     ret = iis2mdc_write_reg(ctx, IIS2MDC_CFG_REG_B, (uint8_t *) &reg, 1);
 971:Drivers/BSP/Components/iis2mdc/iis2mdc_reg.c ****   }
 972:Drivers/BSP/Components/iis2mdc/iis2mdc_reg.c **** 
 973:Drivers/BSP/Components/iis2mdc/iis2mdc_reg.c ****   return ret;
 974:Drivers/BSP/Components/iis2mdc/iis2mdc_reg.c **** }
 2252              		.loc 1 974 1 view .LVU612
 2253 0014 03B0     		add	sp, sp, #12
 2254              		.cfi_remember_state
 2255              		.cfi_def_cfa_offset 12
 2256              		@ sp needed
 2257 0016 30BD     		pop	{r4, r5, pc}
 2258              	.LVL162:
 2259              	.L130:
 2260              		.cfi_restore_state
 969:Drivers/BSP/Components/iis2mdc/iis2mdc_reg.c ****     ret = iis2mdc_write_reg(ctx, IIS2MDC_CFG_REG_B, (uint8_t *) &reg, 1);
 2261              		.loc 1 969 5 is_stmt 1 view .LVU613
 969:Drivers/BSP/Components/iis2mdc/iis2mdc_reg.c ****     ret = iis2mdc_write_reg(ctx, IIS2MDC_CFG_REG_B, (uint8_t *) &reg, 1);
 2262              		.loc 1 969 24 is_stmt 0 view .LVU614
 2263 0018 9DF80430 		ldrb	r3, [sp, #4]	@ zero_extendqisi2
 2264 001c 65F3C303 		bfi	r3, r5, #3, #1
 2265 0020 8DF80430 		strb	r3, [sp, #4]
 970:Drivers/BSP/Components/iis2mdc/iis2mdc_reg.c ****   }
 2266              		.loc 1 970 5 is_stmt 1 view .LVU615
 970:Drivers/BSP/Components/iis2mdc/iis2mdc_reg.c ****   }
 2267              		.loc 1 970 11 is_stmt 0 view .LVU616
ARM GAS  C:\Temp\cczma3Jx.s 			page 59


 2268 0024 0123     		movs	r3, #1
 2269              	.LVL163:
 970:Drivers/BSP/Components/iis2mdc/iis2mdc_reg.c ****   }
 2270              		.loc 1 970 11 view .LVU617
 2271 0026 01AA     		add	r2, sp, #4
 2272 0028 6121     		movs	r1, #97
 2273 002a 2046     		mov	r0, r4
 2274 002c FFF7FEFF 		bl	iis2mdc_write_reg
 2275              	.LVL164:
 973:Drivers/BSP/Components/iis2mdc/iis2mdc_reg.c **** }
 2276              		.loc 1 973 3 is_stmt 1 view .LVU618
 973:Drivers/BSP/Components/iis2mdc/iis2mdc_reg.c **** }
 2277              		.loc 1 973 10 is_stmt 0 view .LVU619
 2278 0030 F0E7     		b	.L127
 2279              		.cfi_endproc
 2280              	.LFE36:
 2282              		.section	.text.iis2mdc_offset_int_conf_get,"ax",%progbits
 2283              		.align	1
 2284              		.global	iis2mdc_offset_int_conf_get
 2285              		.syntax unified
 2286              		.thumb
 2287              		.thumb_func
 2289              	iis2mdc_offset_int_conf_get:
 2290              	.LVL165:
 2291              	.LFB37:
 975:Drivers/BSP/Components/iis2mdc/iis2mdc_reg.c **** 
 976:Drivers/BSP/Components/iis2mdc/iis2mdc_reg.c **** /**
 977:Drivers/BSP/Components/iis2mdc/iis2mdc_reg.c ****   * @brief  The interrupt block recognition checks data after/before the
 978:Drivers/BSP/Components/iis2mdc/iis2mdc_reg.c ****   *         hard-iron correction to discover the interrupt.[get]
 979:Drivers/BSP/Components/iis2mdc/iis2mdc_reg.c ****   *
 980:Drivers/BSP/Components/iis2mdc/iis2mdc_reg.c ****   * @param  ctx      read / write interface definitions
 981:Drivers/BSP/Components/iis2mdc/iis2mdc_reg.c ****   * @param  val      Get the values of int_on_dataoff in
 982:Drivers/BSP/Components/iis2mdc/iis2mdc_reg.c ****   *                                   reg CFG_REG_B
 983:Drivers/BSP/Components/iis2mdc/iis2mdc_reg.c ****   * @retval          interface status (MANDATORY: return 0 -> no Error)
 984:Drivers/BSP/Components/iis2mdc/iis2mdc_reg.c ****   *
 985:Drivers/BSP/Components/iis2mdc/iis2mdc_reg.c ****   */
 986:Drivers/BSP/Components/iis2mdc/iis2mdc_reg.c **** int32_t iis2mdc_offset_int_conf_get(stmdev_ctx_t *ctx,
 987:Drivers/BSP/Components/iis2mdc/iis2mdc_reg.c ****                                     iis2mdc_int_on_dataoff_t *val)
 988:Drivers/BSP/Components/iis2mdc/iis2mdc_reg.c **** {
 2292              		.loc 1 988 1 is_stmt 1 view -0
 2293              		.cfi_startproc
 2294              		@ args = 0, pretend = 0, frame = 8
 2295              		@ frame_needed = 0, uses_anonymous_args = 0
 2296              		.loc 1 988 1 is_stmt 0 view .LVU621
 2297 0000 10B5     		push	{r4, lr}
 2298              		.cfi_def_cfa_offset 8
 2299              		.cfi_offset 4, -8
 2300              		.cfi_offset 14, -4
 2301 0002 82B0     		sub	sp, sp, #8
 2302              		.cfi_def_cfa_offset 16
 2303 0004 0C46     		mov	r4, r1
 989:Drivers/BSP/Components/iis2mdc/iis2mdc_reg.c ****   iis2mdc_cfg_reg_b_t reg;
 2304              		.loc 1 989 3 is_stmt 1 view .LVU622
 990:Drivers/BSP/Components/iis2mdc/iis2mdc_reg.c ****   int32_t ret;
 2305              		.loc 1 990 3 view .LVU623
 991:Drivers/BSP/Components/iis2mdc/iis2mdc_reg.c **** 
 992:Drivers/BSP/Components/iis2mdc/iis2mdc_reg.c ****   ret = iis2mdc_read_reg(ctx, IIS2MDC_CFG_REG_B, (uint8_t *) &reg, 1);
ARM GAS  C:\Temp\cczma3Jx.s 			page 60


 2306              		.loc 1 992 3 view .LVU624
 2307              		.loc 1 992 9 is_stmt 0 view .LVU625
 2308 0006 0123     		movs	r3, #1
 2309 0008 01AA     		add	r2, sp, #4
 2310 000a 6121     		movs	r1, #97
 2311              	.LVL166:
 2312              		.loc 1 992 9 view .LVU626
 2313 000c FFF7FEFF 		bl	iis2mdc_read_reg
 2314              	.LVL167:
 993:Drivers/BSP/Components/iis2mdc/iis2mdc_reg.c **** 
 994:Drivers/BSP/Components/iis2mdc/iis2mdc_reg.c ****   switch (reg.int_on_dataoff)
 2315              		.loc 1 994 3 is_stmt 1 view .LVU627
 2316              		.loc 1 994 14 is_stmt 0 view .LVU628
 2317 0010 9DF80430 		ldrb	r3, [sp, #4]	@ zero_extendqisi2
 2318 0014 C3F3C002 		ubfx	r2, r3, #3, #1
 2319              		.loc 1 994 3 view .LVU629
 2320 0018 13F0080F 		tst	r3, #8
 2321 001c 03D0     		beq	.L132
 2322 001e 32B9     		cbnz	r2, .L133
 995:Drivers/BSP/Components/iis2mdc/iis2mdc_reg.c ****   {
 996:Drivers/BSP/Components/iis2mdc/iis2mdc_reg.c ****     case IIS2MDC_CHECK_BEFORE:
 997:Drivers/BSP/Components/iis2mdc/iis2mdc_reg.c ****       *val = IIS2MDC_CHECK_BEFORE;
 998:Drivers/BSP/Components/iis2mdc/iis2mdc_reg.c ****       break;
 999:Drivers/BSP/Components/iis2mdc/iis2mdc_reg.c **** 
1000:Drivers/BSP/Components/iis2mdc/iis2mdc_reg.c ****     case IIS2MDC_CHECK_AFTER:
1001:Drivers/BSP/Components/iis2mdc/iis2mdc_reg.c ****       *val = IIS2MDC_CHECK_AFTER;
1002:Drivers/BSP/Components/iis2mdc/iis2mdc_reg.c ****       break;
1003:Drivers/BSP/Components/iis2mdc/iis2mdc_reg.c **** 
1004:Drivers/BSP/Components/iis2mdc/iis2mdc_reg.c ****     default:
1005:Drivers/BSP/Components/iis2mdc/iis2mdc_reg.c ****       *val = IIS2MDC_CHECK_BEFORE;
 2323              		.loc 1 1005 7 is_stmt 1 view .LVU630
 2324              		.loc 1 1005 12 is_stmt 0 view .LVU631
 2325 0020 0023     		movs	r3, #0
 2326 0022 2370     		strb	r3, [r4]
1006:Drivers/BSP/Components/iis2mdc/iis2mdc_reg.c ****       break;
 2327              		.loc 1 1006 7 is_stmt 1 view .LVU632
1007:Drivers/BSP/Components/iis2mdc/iis2mdc_reg.c ****   }
1008:Drivers/BSP/Components/iis2mdc/iis2mdc_reg.c **** 
1009:Drivers/BSP/Components/iis2mdc/iis2mdc_reg.c ****   return ret;
 2328              		.loc 1 1009 3 view .LVU633
 2329              		.loc 1 1009 10 is_stmt 0 view .LVU634
 2330 0024 01E0     		b	.L131
 2331              	.L132:
 997:Drivers/BSP/Components/iis2mdc/iis2mdc_reg.c ****       break;
 2332              		.loc 1 997 7 is_stmt 1 view .LVU635
 997:Drivers/BSP/Components/iis2mdc/iis2mdc_reg.c ****       break;
 2333              		.loc 1 997 12 is_stmt 0 view .LVU636
 2334 0026 0023     		movs	r3, #0
 2335 0028 2370     		strb	r3, [r4]
 998:Drivers/BSP/Components/iis2mdc/iis2mdc_reg.c **** 
 2336              		.loc 1 998 7 is_stmt 1 view .LVU637
 2337              	.L131:
1010:Drivers/BSP/Components/iis2mdc/iis2mdc_reg.c **** }
 2338              		.loc 1 1010 1 is_stmt 0 view .LVU638
 2339 002a 02B0     		add	sp, sp, #8
 2340              		.cfi_remember_state
 2341              		.cfi_def_cfa_offset 8
ARM GAS  C:\Temp\cczma3Jx.s 			page 61


 2342              		@ sp needed
 2343 002c 10BD     		pop	{r4, pc}
 2344              	.LVL168:
 2345              	.L133:
 2346              		.cfi_restore_state
1001:Drivers/BSP/Components/iis2mdc/iis2mdc_reg.c ****       break;
 2347              		.loc 1 1001 7 is_stmt 1 view .LVU639
1001:Drivers/BSP/Components/iis2mdc/iis2mdc_reg.c ****       break;
 2348              		.loc 1 1001 12 is_stmt 0 view .LVU640
 2349 002e 0123     		movs	r3, #1
 2350 0030 2370     		strb	r3, [r4]
1002:Drivers/BSP/Components/iis2mdc/iis2mdc_reg.c **** 
 2351              		.loc 1 1002 7 is_stmt 1 view .LVU641
 2352 0032 FAE7     		b	.L131
 2353              		.cfi_endproc
 2354              	.LFE37:
 2356              		.section	.text.iis2mdc_drdy_on_pin_set,"ax",%progbits
 2357              		.align	1
 2358              		.global	iis2mdc_drdy_on_pin_set
 2359              		.syntax unified
 2360              		.thumb
 2361              		.thumb_func
 2363              	iis2mdc_drdy_on_pin_set:
 2364              	.LVL169:
 2365              	.LFB38:
1011:Drivers/BSP/Components/iis2mdc/iis2mdc_reg.c **** 
1012:Drivers/BSP/Components/iis2mdc/iis2mdc_reg.c **** /**
1013:Drivers/BSP/Components/iis2mdc/iis2mdc_reg.c ****   * @brief  Data-ready signal on INT_DRDY pin.[set]
1014:Drivers/BSP/Components/iis2mdc/iis2mdc_reg.c ****   *
1015:Drivers/BSP/Components/iis2mdc/iis2mdc_reg.c ****   * @param  ctx      read / write interface definitions
1016:Drivers/BSP/Components/iis2mdc/iis2mdc_reg.c ****   * @param  val      change the values of drdy_on_pin in reg CFG_REG_C
1017:Drivers/BSP/Components/iis2mdc/iis2mdc_reg.c ****   * @retval          interface status (MANDATORY: return 0 -> no Error)
1018:Drivers/BSP/Components/iis2mdc/iis2mdc_reg.c ****   *
1019:Drivers/BSP/Components/iis2mdc/iis2mdc_reg.c ****   */
1020:Drivers/BSP/Components/iis2mdc/iis2mdc_reg.c **** int32_t iis2mdc_drdy_on_pin_set(stmdev_ctx_t *ctx, uint8_t val)
1021:Drivers/BSP/Components/iis2mdc/iis2mdc_reg.c **** {
 2366              		.loc 1 1021 1 view -0
 2367              		.cfi_startproc
 2368              		@ args = 0, pretend = 0, frame = 8
 2369              		@ frame_needed = 0, uses_anonymous_args = 0
 2370              		.loc 1 1021 1 is_stmt 0 view .LVU643
 2371 0000 30B5     		push	{r4, r5, lr}
 2372              		.cfi_def_cfa_offset 12
 2373              		.cfi_offset 4, -12
 2374              		.cfi_offset 5, -8
 2375              		.cfi_offset 14, -4
 2376 0002 83B0     		sub	sp, sp, #12
 2377              		.cfi_def_cfa_offset 24
 2378 0004 0446     		mov	r4, r0
 2379 0006 0D46     		mov	r5, r1
1022:Drivers/BSP/Components/iis2mdc/iis2mdc_reg.c ****   iis2mdc_cfg_reg_c_t reg;
 2380              		.loc 1 1022 3 is_stmt 1 view .LVU644
1023:Drivers/BSP/Components/iis2mdc/iis2mdc_reg.c ****   int32_t ret;
 2381              		.loc 1 1023 3 view .LVU645
1024:Drivers/BSP/Components/iis2mdc/iis2mdc_reg.c **** 
1025:Drivers/BSP/Components/iis2mdc/iis2mdc_reg.c ****   ret = iis2mdc_read_reg(ctx, IIS2MDC_CFG_REG_C, (uint8_t *) &reg, 1);
 2382              		.loc 1 1025 3 view .LVU646
ARM GAS  C:\Temp\cczma3Jx.s 			page 62


 2383              		.loc 1 1025 9 is_stmt 0 view .LVU647
 2384 0008 0123     		movs	r3, #1
 2385 000a 01AA     		add	r2, sp, #4
 2386 000c 6221     		movs	r1, #98
 2387              	.LVL170:
 2388              		.loc 1 1025 9 view .LVU648
 2389 000e FFF7FEFF 		bl	iis2mdc_read_reg
 2390              	.LVL171:
1026:Drivers/BSP/Components/iis2mdc/iis2mdc_reg.c **** 
1027:Drivers/BSP/Components/iis2mdc/iis2mdc_reg.c ****   if (ret == 0)
 2391              		.loc 1 1027 3 is_stmt 1 view .LVU649
 2392              		.loc 1 1027 6 is_stmt 0 view .LVU650
 2393 0012 08B1     		cbz	r0, .L141
 2394              	.LVL172:
 2395              	.L138:
1028:Drivers/BSP/Components/iis2mdc/iis2mdc_reg.c ****   {
1029:Drivers/BSP/Components/iis2mdc/iis2mdc_reg.c ****     reg.drdy_on_pin = val;
1030:Drivers/BSP/Components/iis2mdc/iis2mdc_reg.c ****     ret = iis2mdc_write_reg(ctx, IIS2MDC_CFG_REG_C, (uint8_t *) &reg, 1);
1031:Drivers/BSP/Components/iis2mdc/iis2mdc_reg.c ****   }
1032:Drivers/BSP/Components/iis2mdc/iis2mdc_reg.c **** 
1033:Drivers/BSP/Components/iis2mdc/iis2mdc_reg.c ****   return ret;
1034:Drivers/BSP/Components/iis2mdc/iis2mdc_reg.c **** }
 2396              		.loc 1 1034 1 view .LVU651
 2397 0014 03B0     		add	sp, sp, #12
 2398              		.cfi_remember_state
 2399              		.cfi_def_cfa_offset 12
 2400              		@ sp needed
 2401 0016 30BD     		pop	{r4, r5, pc}
 2402              	.LVL173:
 2403              	.L141:
 2404              		.cfi_restore_state
1029:Drivers/BSP/Components/iis2mdc/iis2mdc_reg.c ****     ret = iis2mdc_write_reg(ctx, IIS2MDC_CFG_REG_C, (uint8_t *) &reg, 1);
 2405              		.loc 1 1029 5 is_stmt 1 view .LVU652
1029:Drivers/BSP/Components/iis2mdc/iis2mdc_reg.c ****     ret = iis2mdc_write_reg(ctx, IIS2MDC_CFG_REG_C, (uint8_t *) &reg, 1);
 2406              		.loc 1 1029 21 is_stmt 0 view .LVU653
 2407 0018 9DF80430 		ldrb	r3, [sp, #4]	@ zero_extendqisi2
 2408 001c 65F30003 		bfi	r3, r5, #0, #1
 2409 0020 8DF80430 		strb	r3, [sp, #4]
1030:Drivers/BSP/Components/iis2mdc/iis2mdc_reg.c ****   }
 2410              		.loc 1 1030 5 is_stmt 1 view .LVU654
1030:Drivers/BSP/Components/iis2mdc/iis2mdc_reg.c ****   }
 2411              		.loc 1 1030 11 is_stmt 0 view .LVU655
 2412 0024 0123     		movs	r3, #1
 2413              	.LVL174:
1030:Drivers/BSP/Components/iis2mdc/iis2mdc_reg.c ****   }
 2414              		.loc 1 1030 11 view .LVU656
 2415 0026 01AA     		add	r2, sp, #4
 2416 0028 6221     		movs	r1, #98
 2417 002a 2046     		mov	r0, r4
 2418 002c FFF7FEFF 		bl	iis2mdc_write_reg
 2419              	.LVL175:
1033:Drivers/BSP/Components/iis2mdc/iis2mdc_reg.c **** }
 2420              		.loc 1 1033 3 is_stmt 1 view .LVU657
1033:Drivers/BSP/Components/iis2mdc/iis2mdc_reg.c **** }
 2421              		.loc 1 1033 10 is_stmt 0 view .LVU658
 2422 0030 F0E7     		b	.L138
 2423              		.cfi_endproc
ARM GAS  C:\Temp\cczma3Jx.s 			page 63


 2424              	.LFE38:
 2426              		.section	.text.iis2mdc_drdy_on_pin_get,"ax",%progbits
 2427              		.align	1
 2428              		.global	iis2mdc_drdy_on_pin_get
 2429              		.syntax unified
 2430              		.thumb
 2431              		.thumb_func
 2433              	iis2mdc_drdy_on_pin_get:
 2434              	.LVL176:
 2435              	.LFB39:
1035:Drivers/BSP/Components/iis2mdc/iis2mdc_reg.c **** 
1036:Drivers/BSP/Components/iis2mdc/iis2mdc_reg.c **** /**
1037:Drivers/BSP/Components/iis2mdc/iis2mdc_reg.c ****   * @brief  Data-ready signal on INT_DRDY pin.[get]
1038:Drivers/BSP/Components/iis2mdc/iis2mdc_reg.c ****   *
1039:Drivers/BSP/Components/iis2mdc/iis2mdc_reg.c ****   * @param  ctx      read / write interface definitions
1040:Drivers/BSP/Components/iis2mdc/iis2mdc_reg.c ****   * @param  val      change the values of drdy_on_pin in reg CFG_REG_C
1041:Drivers/BSP/Components/iis2mdc/iis2mdc_reg.c ****   * @retval          interface status (MANDATORY: return 0 -> no Error)
1042:Drivers/BSP/Components/iis2mdc/iis2mdc_reg.c ****   *
1043:Drivers/BSP/Components/iis2mdc/iis2mdc_reg.c ****   */
1044:Drivers/BSP/Components/iis2mdc/iis2mdc_reg.c **** int32_t iis2mdc_drdy_on_pin_get(stmdev_ctx_t *ctx, uint8_t *val)
1045:Drivers/BSP/Components/iis2mdc/iis2mdc_reg.c **** {
 2436              		.loc 1 1045 1 is_stmt 1 view -0
 2437              		.cfi_startproc
 2438              		@ args = 0, pretend = 0, frame = 8
 2439              		@ frame_needed = 0, uses_anonymous_args = 0
 2440              		.loc 1 1045 1 is_stmt 0 view .LVU660
 2441 0000 10B5     		push	{r4, lr}
 2442              		.cfi_def_cfa_offset 8
 2443              		.cfi_offset 4, -8
 2444              		.cfi_offset 14, -4
 2445 0002 82B0     		sub	sp, sp, #8
 2446              		.cfi_def_cfa_offset 16
 2447 0004 0C46     		mov	r4, r1
1046:Drivers/BSP/Components/iis2mdc/iis2mdc_reg.c ****   iis2mdc_cfg_reg_c_t reg;
 2448              		.loc 1 1046 3 is_stmt 1 view .LVU661
1047:Drivers/BSP/Components/iis2mdc/iis2mdc_reg.c ****   int32_t ret;
 2449              		.loc 1 1047 3 view .LVU662
1048:Drivers/BSP/Components/iis2mdc/iis2mdc_reg.c **** 
1049:Drivers/BSP/Components/iis2mdc/iis2mdc_reg.c ****   ret = iis2mdc_read_reg(ctx, IIS2MDC_CFG_REG_C, (uint8_t *) &reg, 1);
 2450              		.loc 1 1049 3 view .LVU663
 2451              		.loc 1 1049 9 is_stmt 0 view .LVU664
 2452 0006 0123     		movs	r3, #1
 2453 0008 01AA     		add	r2, sp, #4
 2454 000a 6221     		movs	r1, #98
 2455              	.LVL177:
 2456              		.loc 1 1049 9 view .LVU665
 2457 000c FFF7FEFF 		bl	iis2mdc_read_reg
 2458              	.LVL178:
1050:Drivers/BSP/Components/iis2mdc/iis2mdc_reg.c ****   *val = reg.drdy_on_pin;
 2459              		.loc 1 1050 3 is_stmt 1 view .LVU666
 2460              		.loc 1 1050 13 is_stmt 0 view .LVU667
 2461 0010 9DF80430 		ldrb	r3, [sp, #4]	@ zero_extendqisi2
 2462 0014 C3F30003 		ubfx	r3, r3, #0, #1
 2463              		.loc 1 1050 8 view .LVU668
 2464 0018 2370     		strb	r3, [r4]
1051:Drivers/BSP/Components/iis2mdc/iis2mdc_reg.c **** 
1052:Drivers/BSP/Components/iis2mdc/iis2mdc_reg.c ****   return ret;
ARM GAS  C:\Temp\cczma3Jx.s 			page 64


 2465              		.loc 1 1052 3 is_stmt 1 view .LVU669
1053:Drivers/BSP/Components/iis2mdc/iis2mdc_reg.c **** }
 2466              		.loc 1 1053 1 is_stmt 0 view .LVU670
 2467 001a 02B0     		add	sp, sp, #8
 2468              		.cfi_def_cfa_offset 8
 2469              		@ sp needed
 2470 001c 10BD     		pop	{r4, pc}
 2471              		.loc 1 1053 1 view .LVU671
 2472              		.cfi_endproc
 2473              	.LFE39:
 2475              		.section	.text.iis2mdc_int_on_pin_set,"ax",%progbits
 2476              		.align	1
 2477              		.global	iis2mdc_int_on_pin_set
 2478              		.syntax unified
 2479              		.thumb
 2480              		.thumb_func
 2482              	iis2mdc_int_on_pin_set:
 2483              	.LVL179:
 2484              	.LFB40:
1054:Drivers/BSP/Components/iis2mdc/iis2mdc_reg.c **** 
1055:Drivers/BSP/Components/iis2mdc/iis2mdc_reg.c **** /**
1056:Drivers/BSP/Components/iis2mdc/iis2mdc_reg.c ****   * @brief  Interrupt signal on INT_DRDY pin.[set]
1057:Drivers/BSP/Components/iis2mdc/iis2mdc_reg.c ****   *
1058:Drivers/BSP/Components/iis2mdc/iis2mdc_reg.c ****   * @param  ctx      read / write interface definitions
1059:Drivers/BSP/Components/iis2mdc/iis2mdc_reg.c ****   * @param  val      change the values of int_on_pin in reg CFG_REG_C
1060:Drivers/BSP/Components/iis2mdc/iis2mdc_reg.c ****   * @retval          interface status (MANDATORY: return 0 -> no Error)
1061:Drivers/BSP/Components/iis2mdc/iis2mdc_reg.c ****   *
1062:Drivers/BSP/Components/iis2mdc/iis2mdc_reg.c ****   */
1063:Drivers/BSP/Components/iis2mdc/iis2mdc_reg.c **** int32_t iis2mdc_int_on_pin_set(stmdev_ctx_t *ctx, uint8_t val)
1064:Drivers/BSP/Components/iis2mdc/iis2mdc_reg.c **** {
 2485              		.loc 1 1064 1 is_stmt 1 view -0
 2486              		.cfi_startproc
 2487              		@ args = 0, pretend = 0, frame = 8
 2488              		@ frame_needed = 0, uses_anonymous_args = 0
 2489              		.loc 1 1064 1 is_stmt 0 view .LVU673
 2490 0000 30B5     		push	{r4, r5, lr}
 2491              		.cfi_def_cfa_offset 12
 2492              		.cfi_offset 4, -12
 2493              		.cfi_offset 5, -8
 2494              		.cfi_offset 14, -4
 2495 0002 83B0     		sub	sp, sp, #12
 2496              		.cfi_def_cfa_offset 24
 2497 0004 0446     		mov	r4, r0
 2498 0006 0D46     		mov	r5, r1
1065:Drivers/BSP/Components/iis2mdc/iis2mdc_reg.c ****   iis2mdc_cfg_reg_c_t reg;
 2499              		.loc 1 1065 3 is_stmt 1 view .LVU674
1066:Drivers/BSP/Components/iis2mdc/iis2mdc_reg.c ****   int32_t ret;
 2500              		.loc 1 1066 3 view .LVU675
1067:Drivers/BSP/Components/iis2mdc/iis2mdc_reg.c **** 
1068:Drivers/BSP/Components/iis2mdc/iis2mdc_reg.c ****   ret = iis2mdc_read_reg(ctx, IIS2MDC_CFG_REG_C, (uint8_t *) &reg, 1);
 2501              		.loc 1 1068 3 view .LVU676
 2502              		.loc 1 1068 9 is_stmt 0 view .LVU677
 2503 0008 0123     		movs	r3, #1
 2504 000a 01AA     		add	r2, sp, #4
 2505 000c 6221     		movs	r1, #98
 2506              	.LVL180:
 2507              		.loc 1 1068 9 view .LVU678
ARM GAS  C:\Temp\cczma3Jx.s 			page 65


 2508 000e FFF7FEFF 		bl	iis2mdc_read_reg
 2509              	.LVL181:
1069:Drivers/BSP/Components/iis2mdc/iis2mdc_reg.c **** 
1070:Drivers/BSP/Components/iis2mdc/iis2mdc_reg.c ****   if (ret == 0)
 2510              		.loc 1 1070 3 is_stmt 1 view .LVU679
 2511              		.loc 1 1070 6 is_stmt 0 view .LVU680
 2512 0012 08B1     		cbz	r0, .L147
 2513              	.LVL182:
 2514              	.L144:
1071:Drivers/BSP/Components/iis2mdc/iis2mdc_reg.c ****   {
1072:Drivers/BSP/Components/iis2mdc/iis2mdc_reg.c ****     reg.int_on_pin = val;
1073:Drivers/BSP/Components/iis2mdc/iis2mdc_reg.c ****     ret = iis2mdc_write_reg(ctx, IIS2MDC_CFG_REG_C, (uint8_t *) &reg, 1);
1074:Drivers/BSP/Components/iis2mdc/iis2mdc_reg.c ****   }
1075:Drivers/BSP/Components/iis2mdc/iis2mdc_reg.c **** 
1076:Drivers/BSP/Components/iis2mdc/iis2mdc_reg.c ****   return ret;
1077:Drivers/BSP/Components/iis2mdc/iis2mdc_reg.c **** }
 2515              		.loc 1 1077 1 view .LVU681
 2516 0014 03B0     		add	sp, sp, #12
 2517              		.cfi_remember_state
 2518              		.cfi_def_cfa_offset 12
 2519              		@ sp needed
 2520 0016 30BD     		pop	{r4, r5, pc}
 2521              	.LVL183:
 2522              	.L147:
 2523              		.cfi_restore_state
1072:Drivers/BSP/Components/iis2mdc/iis2mdc_reg.c ****     ret = iis2mdc_write_reg(ctx, IIS2MDC_CFG_REG_C, (uint8_t *) &reg, 1);
 2524              		.loc 1 1072 5 is_stmt 1 view .LVU682
1072:Drivers/BSP/Components/iis2mdc/iis2mdc_reg.c ****     ret = iis2mdc_write_reg(ctx, IIS2MDC_CFG_REG_C, (uint8_t *) &reg, 1);
 2525              		.loc 1 1072 20 is_stmt 0 view .LVU683
 2526 0018 9DF80430 		ldrb	r3, [sp, #4]	@ zero_extendqisi2
 2527 001c 65F38613 		bfi	r3, r5, #6, #1
 2528 0020 8DF80430 		strb	r3, [sp, #4]
1073:Drivers/BSP/Components/iis2mdc/iis2mdc_reg.c ****   }
 2529              		.loc 1 1073 5 is_stmt 1 view .LVU684
1073:Drivers/BSP/Components/iis2mdc/iis2mdc_reg.c ****   }
 2530              		.loc 1 1073 11 is_stmt 0 view .LVU685
 2531 0024 0123     		movs	r3, #1
 2532              	.LVL184:
1073:Drivers/BSP/Components/iis2mdc/iis2mdc_reg.c ****   }
 2533              		.loc 1 1073 11 view .LVU686
 2534 0026 01AA     		add	r2, sp, #4
 2535 0028 6221     		movs	r1, #98
 2536 002a 2046     		mov	r0, r4
 2537 002c FFF7FEFF 		bl	iis2mdc_write_reg
 2538              	.LVL185:
1076:Drivers/BSP/Components/iis2mdc/iis2mdc_reg.c **** }
 2539              		.loc 1 1076 3 is_stmt 1 view .LVU687
1076:Drivers/BSP/Components/iis2mdc/iis2mdc_reg.c **** }
 2540              		.loc 1 1076 10 is_stmt 0 view .LVU688
 2541 0030 F0E7     		b	.L144
 2542              		.cfi_endproc
 2543              	.LFE40:
 2545              		.section	.text.iis2mdc_int_on_pin_get,"ax",%progbits
 2546              		.align	1
 2547              		.global	iis2mdc_int_on_pin_get
 2548              		.syntax unified
 2549              		.thumb
ARM GAS  C:\Temp\cczma3Jx.s 			page 66


 2550              		.thumb_func
 2552              	iis2mdc_int_on_pin_get:
 2553              	.LVL186:
 2554              	.LFB41:
1078:Drivers/BSP/Components/iis2mdc/iis2mdc_reg.c **** 
1079:Drivers/BSP/Components/iis2mdc/iis2mdc_reg.c **** /**
1080:Drivers/BSP/Components/iis2mdc/iis2mdc_reg.c ****   * @brief  Interrupt signal on INT_DRDY pin.[get]
1081:Drivers/BSP/Components/iis2mdc/iis2mdc_reg.c ****   *
1082:Drivers/BSP/Components/iis2mdc/iis2mdc_reg.c ****   * @param  ctx      read / write interface definitions
1083:Drivers/BSP/Components/iis2mdc/iis2mdc_reg.c ****   * @param  val      change the values of int_on_pin in reg CFG_REG_C
1084:Drivers/BSP/Components/iis2mdc/iis2mdc_reg.c ****   * @retval          interface status (MANDATORY: return 0 -> no Error)
1085:Drivers/BSP/Components/iis2mdc/iis2mdc_reg.c ****   *
1086:Drivers/BSP/Components/iis2mdc/iis2mdc_reg.c ****   */
1087:Drivers/BSP/Components/iis2mdc/iis2mdc_reg.c **** int32_t iis2mdc_int_on_pin_get(stmdev_ctx_t *ctx, uint8_t *val)
1088:Drivers/BSP/Components/iis2mdc/iis2mdc_reg.c **** {
 2555              		.loc 1 1088 1 is_stmt 1 view -0
 2556              		.cfi_startproc
 2557              		@ args = 0, pretend = 0, frame = 8
 2558              		@ frame_needed = 0, uses_anonymous_args = 0
 2559              		.loc 1 1088 1 is_stmt 0 view .LVU690
 2560 0000 10B5     		push	{r4, lr}
 2561              		.cfi_def_cfa_offset 8
 2562              		.cfi_offset 4, -8
 2563              		.cfi_offset 14, -4
 2564 0002 82B0     		sub	sp, sp, #8
 2565              		.cfi_def_cfa_offset 16
 2566 0004 0C46     		mov	r4, r1
1089:Drivers/BSP/Components/iis2mdc/iis2mdc_reg.c ****   iis2mdc_cfg_reg_c_t reg;
 2567              		.loc 1 1089 3 is_stmt 1 view .LVU691
1090:Drivers/BSP/Components/iis2mdc/iis2mdc_reg.c ****   int32_t ret;
 2568              		.loc 1 1090 3 view .LVU692
1091:Drivers/BSP/Components/iis2mdc/iis2mdc_reg.c **** 
1092:Drivers/BSP/Components/iis2mdc/iis2mdc_reg.c ****   ret = iis2mdc_read_reg(ctx, IIS2MDC_CFG_REG_C, (uint8_t *) &reg, 1);
 2569              		.loc 1 1092 3 view .LVU693
 2570              		.loc 1 1092 9 is_stmt 0 view .LVU694
 2571 0006 0123     		movs	r3, #1
 2572 0008 01AA     		add	r2, sp, #4
 2573 000a 6221     		movs	r1, #98
 2574              	.LVL187:
 2575              		.loc 1 1092 9 view .LVU695
 2576 000c FFF7FEFF 		bl	iis2mdc_read_reg
 2577              	.LVL188:
1093:Drivers/BSP/Components/iis2mdc/iis2mdc_reg.c ****   *val = reg.int_on_pin;
 2578              		.loc 1 1093 3 is_stmt 1 view .LVU696
 2579              		.loc 1 1093 13 is_stmt 0 view .LVU697
 2580 0010 9DF80430 		ldrb	r3, [sp, #4]	@ zero_extendqisi2
 2581 0014 C3F38013 		ubfx	r3, r3, #6, #1
 2582              		.loc 1 1093 8 view .LVU698
 2583 0018 2370     		strb	r3, [r4]
1094:Drivers/BSP/Components/iis2mdc/iis2mdc_reg.c **** 
1095:Drivers/BSP/Components/iis2mdc/iis2mdc_reg.c ****   return ret;
 2584              		.loc 1 1095 3 is_stmt 1 view .LVU699
1096:Drivers/BSP/Components/iis2mdc/iis2mdc_reg.c **** }
 2585              		.loc 1 1096 1 is_stmt 0 view .LVU700
 2586 001a 02B0     		add	sp, sp, #8
 2587              		.cfi_def_cfa_offset 8
 2588              		@ sp needed
ARM GAS  C:\Temp\cczma3Jx.s 			page 67


 2589 001c 10BD     		pop	{r4, pc}
 2590              		.loc 1 1096 1 view .LVU701
 2591              		.cfi_endproc
 2592              	.LFE41:
 2594              		.section	.text.iis2mdc_int_gen_conf_set,"ax",%progbits
 2595              		.align	1
 2596              		.global	iis2mdc_int_gen_conf_set
 2597              		.syntax unified
 2598              		.thumb
 2599              		.thumb_func
 2601              	iis2mdc_int_gen_conf_set:
 2602              	.LVL189:
 2603              	.LFB42:
1097:Drivers/BSP/Components/iis2mdc/iis2mdc_reg.c **** 
1098:Drivers/BSP/Components/iis2mdc/iis2mdc_reg.c **** /**
1099:Drivers/BSP/Components/iis2mdc/iis2mdc_reg.c ****   * @brief  Interrupt generator configuration register.[set]
1100:Drivers/BSP/Components/iis2mdc/iis2mdc_reg.c ****   *
1101:Drivers/BSP/Components/iis2mdc/iis2mdc_reg.c ****   * @param  ctx      read / write interface definitions
1102:Drivers/BSP/Components/iis2mdc/iis2mdc_reg.c ****   * @param  val      registers INT_CRTL_REG
1103:Drivers/BSP/Components/iis2mdc/iis2mdc_reg.c ****   * @retval          interface status (MANDATORY: return 0 -> no Error)
1104:Drivers/BSP/Components/iis2mdc/iis2mdc_reg.c ****   *
1105:Drivers/BSP/Components/iis2mdc/iis2mdc_reg.c ****   */
1106:Drivers/BSP/Components/iis2mdc/iis2mdc_reg.c **** int32_t iis2mdc_int_gen_conf_set(stmdev_ctx_t *ctx,
1107:Drivers/BSP/Components/iis2mdc/iis2mdc_reg.c ****                                  iis2mdc_int_crtl_reg_t *val)
1108:Drivers/BSP/Components/iis2mdc/iis2mdc_reg.c **** {
 2604              		.loc 1 1108 1 is_stmt 1 view -0
 2605              		.cfi_startproc
 2606              		@ args = 0, pretend = 0, frame = 0
 2607              		@ frame_needed = 0, uses_anonymous_args = 0
 2608              		.loc 1 1108 1 is_stmt 0 view .LVU703
 2609 0000 08B5     		push	{r3, lr}
 2610              		.cfi_def_cfa_offset 8
 2611              		.cfi_offset 3, -8
 2612              		.cfi_offset 14, -4
 2613 0002 0A46     		mov	r2, r1
1109:Drivers/BSP/Components/iis2mdc/iis2mdc_reg.c ****   int32_t ret;
 2614              		.loc 1 1109 3 is_stmt 1 view .LVU704
1110:Drivers/BSP/Components/iis2mdc/iis2mdc_reg.c **** 
1111:Drivers/BSP/Components/iis2mdc/iis2mdc_reg.c ****   ret =  iis2mdc_write_reg(ctx, IIS2MDC_INT_CRTL_REG, (uint8_t *) val, 1);
 2615              		.loc 1 1111 3 view .LVU705
 2616              		.loc 1 1111 10 is_stmt 0 view .LVU706
 2617 0004 0123     		movs	r3, #1
 2618 0006 6321     		movs	r1, #99
 2619              	.LVL190:
 2620              		.loc 1 1111 10 view .LVU707
 2621 0008 FFF7FEFF 		bl	iis2mdc_write_reg
 2622              	.LVL191:
1112:Drivers/BSP/Components/iis2mdc/iis2mdc_reg.c **** 
1113:Drivers/BSP/Components/iis2mdc/iis2mdc_reg.c ****   return ret;
 2623              		.loc 1 1113 3 is_stmt 1 view .LVU708
1114:Drivers/BSP/Components/iis2mdc/iis2mdc_reg.c **** }
 2624              		.loc 1 1114 1 is_stmt 0 view .LVU709
 2625 000c 08BD     		pop	{r3, pc}
 2626              		.cfi_endproc
 2627              	.LFE42:
 2629              		.section	.text.iis2mdc_int_gen_conf_get,"ax",%progbits
 2630              		.align	1
ARM GAS  C:\Temp\cczma3Jx.s 			page 68


 2631              		.global	iis2mdc_int_gen_conf_get
 2632              		.syntax unified
 2633              		.thumb
 2634              		.thumb_func
 2636              	iis2mdc_int_gen_conf_get:
 2637              	.LVL192:
 2638              	.LFB43:
1115:Drivers/BSP/Components/iis2mdc/iis2mdc_reg.c **** 
1116:Drivers/BSP/Components/iis2mdc/iis2mdc_reg.c **** /**
1117:Drivers/BSP/Components/iis2mdc/iis2mdc_reg.c ****   * @brief  Interrupt generator configuration register.[get]
1118:Drivers/BSP/Components/iis2mdc/iis2mdc_reg.c ****   *
1119:Drivers/BSP/Components/iis2mdc/iis2mdc_reg.c ****   * @param  ctx      read / write interface definitions
1120:Drivers/BSP/Components/iis2mdc/iis2mdc_reg.c ****   * @param  val      registers INT_CRTL_REG
1121:Drivers/BSP/Components/iis2mdc/iis2mdc_reg.c ****   * @retval          interface status (MANDATORY: return 0 -> no Error)
1122:Drivers/BSP/Components/iis2mdc/iis2mdc_reg.c ****   *
1123:Drivers/BSP/Components/iis2mdc/iis2mdc_reg.c ****   */
1124:Drivers/BSP/Components/iis2mdc/iis2mdc_reg.c **** int32_t iis2mdc_int_gen_conf_get(stmdev_ctx_t *ctx,
1125:Drivers/BSP/Components/iis2mdc/iis2mdc_reg.c ****                                  iis2mdc_int_crtl_reg_t *val)
1126:Drivers/BSP/Components/iis2mdc/iis2mdc_reg.c **** {
 2639              		.loc 1 1126 1 is_stmt 1 view -0
 2640              		.cfi_startproc
 2641              		@ args = 0, pretend = 0, frame = 0
 2642              		@ frame_needed = 0, uses_anonymous_args = 0
 2643              		.loc 1 1126 1 is_stmt 0 view .LVU711
 2644 0000 08B5     		push	{r3, lr}
 2645              		.cfi_def_cfa_offset 8
 2646              		.cfi_offset 3, -8
 2647              		.cfi_offset 14, -4
 2648 0002 0A46     		mov	r2, r1
1127:Drivers/BSP/Components/iis2mdc/iis2mdc_reg.c ****   int32_t ret;
 2649              		.loc 1 1127 3 is_stmt 1 view .LVU712
1128:Drivers/BSP/Components/iis2mdc/iis2mdc_reg.c **** 
1129:Drivers/BSP/Components/iis2mdc/iis2mdc_reg.c ****   ret =  iis2mdc_read_reg(ctx, IIS2MDC_INT_CRTL_REG, (uint8_t *) val, 1);
 2650              		.loc 1 1129 3 view .LVU713
 2651              		.loc 1 1129 10 is_stmt 0 view .LVU714
 2652 0004 0123     		movs	r3, #1
 2653 0006 6321     		movs	r1, #99
 2654              	.LVL193:
 2655              		.loc 1 1129 10 view .LVU715
 2656 0008 FFF7FEFF 		bl	iis2mdc_read_reg
 2657              	.LVL194:
1130:Drivers/BSP/Components/iis2mdc/iis2mdc_reg.c **** 
1131:Drivers/BSP/Components/iis2mdc/iis2mdc_reg.c ****   return ret;
 2658              		.loc 1 1131 3 is_stmt 1 view .LVU716
1132:Drivers/BSP/Components/iis2mdc/iis2mdc_reg.c **** }
 2659              		.loc 1 1132 1 is_stmt 0 view .LVU717
 2660 000c 08BD     		pop	{r3, pc}
 2661              		.cfi_endproc
 2662              	.LFE43:
 2664              		.section	.text.iis2mdc_int_gen_source_get,"ax",%progbits
 2665              		.align	1
 2666              		.global	iis2mdc_int_gen_source_get
 2667              		.syntax unified
 2668              		.thumb
 2669              		.thumb_func
 2671              	iis2mdc_int_gen_source_get:
 2672              	.LVL195:
ARM GAS  C:\Temp\cczma3Jx.s 			page 69


 2673              	.LFB44:
1133:Drivers/BSP/Components/iis2mdc/iis2mdc_reg.c **** 
1134:Drivers/BSP/Components/iis2mdc/iis2mdc_reg.c **** /**
1135:Drivers/BSP/Components/iis2mdc/iis2mdc_reg.c ****   * @brief  Interrupt generator source register.[get]
1136:Drivers/BSP/Components/iis2mdc/iis2mdc_reg.c ****   *
1137:Drivers/BSP/Components/iis2mdc/iis2mdc_reg.c ****   * @param  ctx      read / write interface definitions
1138:Drivers/BSP/Components/iis2mdc/iis2mdc_reg.c ****   * @param  val      registers INT_SOURCE_REG
1139:Drivers/BSP/Components/iis2mdc/iis2mdc_reg.c ****   * @retval          interface status (MANDATORY: return 0 -> no Error)
1140:Drivers/BSP/Components/iis2mdc/iis2mdc_reg.c ****   *
1141:Drivers/BSP/Components/iis2mdc/iis2mdc_reg.c ****   */
1142:Drivers/BSP/Components/iis2mdc/iis2mdc_reg.c **** int32_t iis2mdc_int_gen_source_get(stmdev_ctx_t *ctx,
1143:Drivers/BSP/Components/iis2mdc/iis2mdc_reg.c ****                                    iis2mdc_int_source_reg_t *val)
1144:Drivers/BSP/Components/iis2mdc/iis2mdc_reg.c **** {
 2674              		.loc 1 1144 1 is_stmt 1 view -0
 2675              		.cfi_startproc
 2676              		@ args = 0, pretend = 0, frame = 0
 2677              		@ frame_needed = 0, uses_anonymous_args = 0
 2678              		.loc 1 1144 1 is_stmt 0 view .LVU719
 2679 0000 08B5     		push	{r3, lr}
 2680              		.cfi_def_cfa_offset 8
 2681              		.cfi_offset 3, -8
 2682              		.cfi_offset 14, -4
 2683 0002 0A46     		mov	r2, r1
1145:Drivers/BSP/Components/iis2mdc/iis2mdc_reg.c ****   int32_t ret;
 2684              		.loc 1 1145 3 is_stmt 1 view .LVU720
1146:Drivers/BSP/Components/iis2mdc/iis2mdc_reg.c **** 
1147:Drivers/BSP/Components/iis2mdc/iis2mdc_reg.c ****   ret =  iis2mdc_read_reg(ctx, IIS2MDC_INT_SOURCE_REG, (uint8_t *) val, 1);
 2685              		.loc 1 1147 3 view .LVU721
 2686              		.loc 1 1147 10 is_stmt 0 view .LVU722
 2687 0004 0123     		movs	r3, #1
 2688 0006 6421     		movs	r1, #100
 2689              	.LVL196:
 2690              		.loc 1 1147 10 view .LVU723
 2691 0008 FFF7FEFF 		bl	iis2mdc_read_reg
 2692              	.LVL197:
1148:Drivers/BSP/Components/iis2mdc/iis2mdc_reg.c **** 
1149:Drivers/BSP/Components/iis2mdc/iis2mdc_reg.c ****   return ret;
 2693              		.loc 1 1149 3 is_stmt 1 view .LVU724
1150:Drivers/BSP/Components/iis2mdc/iis2mdc_reg.c **** }
 2694              		.loc 1 1150 1 is_stmt 0 view .LVU725
 2695 000c 08BD     		pop	{r3, pc}
 2696              		.cfi_endproc
 2697              	.LFE44:
 2699              		.section	.text.iis2mdc_int_gen_treshold_set,"ax",%progbits
 2700              		.align	1
 2701              		.global	iis2mdc_int_gen_treshold_set
 2702              		.syntax unified
 2703              		.thumb
 2704              		.thumb_func
 2706              	iis2mdc_int_gen_treshold_set:
 2707              	.LVL198:
 2708              	.LFB45:
1151:Drivers/BSP/Components/iis2mdc/iis2mdc_reg.c **** 
1152:Drivers/BSP/Components/iis2mdc/iis2mdc_reg.c **** /**
1153:Drivers/BSP/Components/iis2mdc/iis2mdc_reg.c ****   * @brief  User-defined threshold value for xl interrupt event on generator.
1154:Drivers/BSP/Components/iis2mdc/iis2mdc_reg.c ****   *         Data format is the same of output data raw:
1155:Drivers/BSP/Components/iis2mdc/iis2mdc_reg.c ****   *         two's complement with 1LSb = 1.5mG.[set]
ARM GAS  C:\Temp\cczma3Jx.s 			page 70


1156:Drivers/BSP/Components/iis2mdc/iis2mdc_reg.c ****   *
1157:Drivers/BSP/Components/iis2mdc/iis2mdc_reg.c ****   * @param  ctx      read / write interface definitions
1158:Drivers/BSP/Components/iis2mdc/iis2mdc_reg.c ****   * @param  buff     buffer that contains data to write
1159:Drivers/BSP/Components/iis2mdc/iis2mdc_reg.c ****   * @retval          interface status (MANDATORY: return 0 -> no Error)
1160:Drivers/BSP/Components/iis2mdc/iis2mdc_reg.c ****   *
1161:Drivers/BSP/Components/iis2mdc/iis2mdc_reg.c ****   */
1162:Drivers/BSP/Components/iis2mdc/iis2mdc_reg.c **** int32_t iis2mdc_int_gen_treshold_set(stmdev_ctx_t *ctx, int16_t val)
1163:Drivers/BSP/Components/iis2mdc/iis2mdc_reg.c **** {
 2709              		.loc 1 1163 1 is_stmt 1 view -0
 2710              		.cfi_startproc
 2711              		@ args = 0, pretend = 0, frame = 8
 2712              		@ frame_needed = 0, uses_anonymous_args = 0
 2713              		.loc 1 1163 1 is_stmt 0 view .LVU727
 2714 0000 00B5     		push	{lr}
 2715              		.cfi_def_cfa_offset 4
 2716              		.cfi_offset 14, -4
 2717 0002 83B0     		sub	sp, sp, #12
 2718              		.cfi_def_cfa_offset 16
1164:Drivers/BSP/Components/iis2mdc/iis2mdc_reg.c ****   uint8_t buff[2];
 2719              		.loc 1 1164 3 is_stmt 1 view .LVU728
1165:Drivers/BSP/Components/iis2mdc/iis2mdc_reg.c ****   int32_t ret;
 2720              		.loc 1 1165 3 view .LVU729
1166:Drivers/BSP/Components/iis2mdc/iis2mdc_reg.c **** 
1167:Drivers/BSP/Components/iis2mdc/iis2mdc_reg.c ****   buff[1] = (uint8_t)((uint16_t)val / 256U);
 2721              		.loc 1 1167 3 view .LVU730
 2722              		.loc 1 1167 13 is_stmt 0 view .LVU731
 2723 0004 C1F30723 		ubfx	r3, r1, #8, #8
 2724              		.loc 1 1167 11 view .LVU732
 2725 0008 8DF80530 		strb	r3, [sp, #5]
1168:Drivers/BSP/Components/iis2mdc/iis2mdc_reg.c ****   buff[0] = (uint8_t)((uint16_t)val - (buff[1] * 256U));
 2726              		.loc 1 1168 3 is_stmt 1 view .LVU733
 2727              		.loc 1 1168 11 is_stmt 0 view .LVU734
 2728 000c 8DF80410 		strb	r1, [sp, #4]
1169:Drivers/BSP/Components/iis2mdc/iis2mdc_reg.c ****   ret =  iis2mdc_write_reg(ctx, IIS2MDC_INT_THS_L_REG, buff, 2);
 2729              		.loc 1 1169 3 is_stmt 1 view .LVU735
 2730              		.loc 1 1169 10 is_stmt 0 view .LVU736
 2731 0010 0223     		movs	r3, #2
 2732 0012 01AA     		add	r2, sp, #4
 2733 0014 6521     		movs	r1, #101
 2734              	.LVL199:
 2735              		.loc 1 1169 10 view .LVU737
 2736 0016 FFF7FEFF 		bl	iis2mdc_write_reg
 2737              	.LVL200:
1170:Drivers/BSP/Components/iis2mdc/iis2mdc_reg.c **** 
1171:Drivers/BSP/Components/iis2mdc/iis2mdc_reg.c ****   return ret;
 2738              		.loc 1 1171 3 is_stmt 1 view .LVU738
1172:Drivers/BSP/Components/iis2mdc/iis2mdc_reg.c **** }
 2739              		.loc 1 1172 1 is_stmt 0 view .LVU739
 2740 001a 03B0     		add	sp, sp, #12
 2741              		.cfi_def_cfa_offset 4
 2742              		@ sp needed
 2743 001c 5DF804FB 		ldr	pc, [sp], #4
 2744              		.cfi_endproc
 2745              	.LFE45:
 2747              		.section	.text.iis2mdc_int_gen_treshold_get,"ax",%progbits
 2748              		.align	1
 2749              		.global	iis2mdc_int_gen_treshold_get
ARM GAS  C:\Temp\cczma3Jx.s 			page 71


 2750              		.syntax unified
 2751              		.thumb
 2752              		.thumb_func
 2754              	iis2mdc_int_gen_treshold_get:
 2755              	.LVL201:
 2756              	.LFB46:
1173:Drivers/BSP/Components/iis2mdc/iis2mdc_reg.c **** 
1174:Drivers/BSP/Components/iis2mdc/iis2mdc_reg.c **** /**
1175:Drivers/BSP/Components/iis2mdc/iis2mdc_reg.c ****   * @brief  User-defined threshold value for xl interrupt event on generator.
1176:Drivers/BSP/Components/iis2mdc/iis2mdc_reg.c ****   *         Data format is the same of output data raw:
1177:Drivers/BSP/Components/iis2mdc/iis2mdc_reg.c ****   *         two's complement with 1LSb = 1.5mG.[get]
1178:Drivers/BSP/Components/iis2mdc/iis2mdc_reg.c ****   *
1179:Drivers/BSP/Components/iis2mdc/iis2mdc_reg.c ****   * @param  ctx      read / write interface definitions
1180:Drivers/BSP/Components/iis2mdc/iis2mdc_reg.c ****   * @param  buff     buffer that stores data read
1181:Drivers/BSP/Components/iis2mdc/iis2mdc_reg.c ****   * @retval          interface status (MANDATORY: return 0 -> no Error)
1182:Drivers/BSP/Components/iis2mdc/iis2mdc_reg.c ****   *
1183:Drivers/BSP/Components/iis2mdc/iis2mdc_reg.c ****   */
1184:Drivers/BSP/Components/iis2mdc/iis2mdc_reg.c **** int32_t iis2mdc_int_gen_treshold_get(stmdev_ctx_t *ctx, int16_t *val)
1185:Drivers/BSP/Components/iis2mdc/iis2mdc_reg.c **** {
 2757              		.loc 1 1185 1 is_stmt 1 view -0
 2758              		.cfi_startproc
 2759              		@ args = 0, pretend = 0, frame = 8
 2760              		@ frame_needed = 0, uses_anonymous_args = 0
 2761              		.loc 1 1185 1 is_stmt 0 view .LVU741
 2762 0000 10B5     		push	{r4, lr}
 2763              		.cfi_def_cfa_offset 8
 2764              		.cfi_offset 4, -8
 2765              		.cfi_offset 14, -4
 2766 0002 82B0     		sub	sp, sp, #8
 2767              		.cfi_def_cfa_offset 16
 2768 0004 0C46     		mov	r4, r1
1186:Drivers/BSP/Components/iis2mdc/iis2mdc_reg.c ****   uint8_t buff[2];
 2769              		.loc 1 1186 3 is_stmt 1 view .LVU742
1187:Drivers/BSP/Components/iis2mdc/iis2mdc_reg.c ****   int32_t ret;
 2770              		.loc 1 1187 3 view .LVU743
1188:Drivers/BSP/Components/iis2mdc/iis2mdc_reg.c **** 
1189:Drivers/BSP/Components/iis2mdc/iis2mdc_reg.c ****   ret =  iis2mdc_read_reg(ctx, IIS2MDC_INT_THS_L_REG, buff, 2);
 2771              		.loc 1 1189 3 view .LVU744
 2772              		.loc 1 1189 10 is_stmt 0 view .LVU745
 2773 0006 0223     		movs	r3, #2
 2774 0008 01AA     		add	r2, sp, #4
 2775 000a 6521     		movs	r1, #101
 2776              	.LVL202:
 2777              		.loc 1 1189 10 view .LVU746
 2778 000c FFF7FEFF 		bl	iis2mdc_read_reg
 2779              	.LVL203:
1190:Drivers/BSP/Components/iis2mdc/iis2mdc_reg.c ****   *val = (int16_t)buff[1];
 2780              		.loc 1 1190 3 is_stmt 1 view .LVU747
 2781              		.loc 1 1190 23 is_stmt 0 view .LVU748
 2782 0010 9DF80520 		ldrb	r2, [sp, #5]	@ zero_extendqisi2
 2783              		.loc 1 1190 8 view .LVU749
 2784 0014 2280     		strh	r2, [r4]	@ movhi
1191:Drivers/BSP/Components/iis2mdc/iis2mdc_reg.c ****   *val = (*val * 256) + (int16_t)buff[0];
 2785              		.loc 1 1191 3 is_stmt 1 view .LVU750
 2786              		.loc 1 1191 38 is_stmt 0 view .LVU751
 2787 0016 9DF80430 		ldrb	r3, [sp, #4]	@ zero_extendqisi2
 2788              		.loc 1 1191 23 view .LVU752
ARM GAS  C:\Temp\cczma3Jx.s 			page 72


 2789 001a 03EB0223 		add	r3, r3, r2, lsl #8
 2790              		.loc 1 1191 8 view .LVU753
 2791 001e 2380     		strh	r3, [r4]	@ movhi
1192:Drivers/BSP/Components/iis2mdc/iis2mdc_reg.c **** 
1193:Drivers/BSP/Components/iis2mdc/iis2mdc_reg.c ****   return ret;
 2792              		.loc 1 1193 3 is_stmt 1 view .LVU754
1194:Drivers/BSP/Components/iis2mdc/iis2mdc_reg.c **** }
 2793              		.loc 1 1194 1 is_stmt 0 view .LVU755
 2794 0020 02B0     		add	sp, sp, #8
 2795              		.cfi_def_cfa_offset 8
 2796              		@ sp needed
 2797 0022 10BD     		pop	{r4, pc}
 2798              		.loc 1 1194 1 view .LVU756
 2799              		.cfi_endproc
 2800              	.LFE46:
 2802              		.section	.text.iis2mdc_i2c_interface_set,"ax",%progbits
 2803              		.align	1
 2804              		.global	iis2mdc_i2c_interface_set
 2805              		.syntax unified
 2806              		.thumb
 2807              		.thumb_func
 2809              	iis2mdc_i2c_interface_set:
 2810              	.LVL204:
 2811              	.LFB47:
1195:Drivers/BSP/Components/iis2mdc/iis2mdc_reg.c **** 
1196:Drivers/BSP/Components/iis2mdc/iis2mdc_reg.c **** /**
1197:Drivers/BSP/Components/iis2mdc/iis2mdc_reg.c ****   * @}
1198:Drivers/BSP/Components/iis2mdc/iis2mdc_reg.c ****   *
1199:Drivers/BSP/Components/iis2mdc/iis2mdc_reg.c ****   */
1200:Drivers/BSP/Components/iis2mdc/iis2mdc_reg.c **** 
1201:Drivers/BSP/Components/iis2mdc/iis2mdc_reg.c **** /**
1202:Drivers/BSP/Components/iis2mdc/iis2mdc_reg.c ****   * @defgroup   IIS2MDC_serial_interface
1203:Drivers/BSP/Components/iis2mdc/iis2mdc_reg.c ****   * @brief      This section group all the functions concerning serial
1204:Drivers/BSP/Components/iis2mdc/iis2mdc_reg.c ****   *             interface management
1205:Drivers/BSP/Components/iis2mdc/iis2mdc_reg.c ****   * @{
1206:Drivers/BSP/Components/iis2mdc/iis2mdc_reg.c ****   *
1207:Drivers/BSP/Components/iis2mdc/iis2mdc_reg.c ****   */
1208:Drivers/BSP/Components/iis2mdc/iis2mdc_reg.c **** 
1209:Drivers/BSP/Components/iis2mdc/iis2mdc_reg.c **** /**
1210:Drivers/BSP/Components/iis2mdc/iis2mdc_reg.c ****   * @brief  Enable/Disable I2C interface.[set]
1211:Drivers/BSP/Components/iis2mdc/iis2mdc_reg.c ****   *
1212:Drivers/BSP/Components/iis2mdc/iis2mdc_reg.c ****   * @param  ctx      read / write interface definitions
1213:Drivers/BSP/Components/iis2mdc/iis2mdc_reg.c ****   * @param  val      change the values of i2c_dis in reg CFG_REG_C
1214:Drivers/BSP/Components/iis2mdc/iis2mdc_reg.c ****   * @retval          interface status (MANDATORY: return 0 -> no Error)
1215:Drivers/BSP/Components/iis2mdc/iis2mdc_reg.c ****   *
1216:Drivers/BSP/Components/iis2mdc/iis2mdc_reg.c ****   */
1217:Drivers/BSP/Components/iis2mdc/iis2mdc_reg.c **** int32_t iis2mdc_i2c_interface_set(stmdev_ctx_t *ctx,
1218:Drivers/BSP/Components/iis2mdc/iis2mdc_reg.c ****                                   iis2mdc_i2c_dis_t val)
1219:Drivers/BSP/Components/iis2mdc/iis2mdc_reg.c **** {
 2812              		.loc 1 1219 1 is_stmt 1 view -0
 2813              		.cfi_startproc
 2814              		@ args = 0, pretend = 0, frame = 8
 2815              		@ frame_needed = 0, uses_anonymous_args = 0
 2816              		.loc 1 1219 1 is_stmt 0 view .LVU758
 2817 0000 30B5     		push	{r4, r5, lr}
 2818              		.cfi_def_cfa_offset 12
 2819              		.cfi_offset 4, -12
ARM GAS  C:\Temp\cczma3Jx.s 			page 73


 2820              		.cfi_offset 5, -8
 2821              		.cfi_offset 14, -4
 2822 0002 83B0     		sub	sp, sp, #12
 2823              		.cfi_def_cfa_offset 24
 2824 0004 0446     		mov	r4, r0
 2825 0006 0D46     		mov	r5, r1
1220:Drivers/BSP/Components/iis2mdc/iis2mdc_reg.c ****   iis2mdc_cfg_reg_c_t reg;
 2826              		.loc 1 1220 3 is_stmt 1 view .LVU759
1221:Drivers/BSP/Components/iis2mdc/iis2mdc_reg.c ****   int32_t ret;
 2827              		.loc 1 1221 3 view .LVU760
1222:Drivers/BSP/Components/iis2mdc/iis2mdc_reg.c **** 
1223:Drivers/BSP/Components/iis2mdc/iis2mdc_reg.c ****   ret = iis2mdc_read_reg(ctx, IIS2MDC_CFG_REG_C, (uint8_t *) &reg, 1);
 2828              		.loc 1 1223 3 view .LVU761
 2829              		.loc 1 1223 9 is_stmt 0 view .LVU762
 2830 0008 0123     		movs	r3, #1
 2831 000a 01AA     		add	r2, sp, #4
 2832 000c 6221     		movs	r1, #98
 2833              	.LVL205:
 2834              		.loc 1 1223 9 view .LVU763
 2835 000e FFF7FEFF 		bl	iis2mdc_read_reg
 2836              	.LVL206:
1224:Drivers/BSP/Components/iis2mdc/iis2mdc_reg.c **** 
1225:Drivers/BSP/Components/iis2mdc/iis2mdc_reg.c ****   if (ret == 0)
 2837              		.loc 1 1225 3 is_stmt 1 view .LVU764
 2838              		.loc 1 1225 6 is_stmt 0 view .LVU765
 2839 0012 08B1     		cbz	r0, .L163
 2840              	.LVL207:
 2841              	.L160:
1226:Drivers/BSP/Components/iis2mdc/iis2mdc_reg.c ****   {
1227:Drivers/BSP/Components/iis2mdc/iis2mdc_reg.c ****     reg.i2c_dis = (uint8_t)val;
1228:Drivers/BSP/Components/iis2mdc/iis2mdc_reg.c ****     ret = iis2mdc_write_reg(ctx, IIS2MDC_CFG_REG_C, (uint8_t *) &reg, 1);
1229:Drivers/BSP/Components/iis2mdc/iis2mdc_reg.c ****   }
1230:Drivers/BSP/Components/iis2mdc/iis2mdc_reg.c **** 
1231:Drivers/BSP/Components/iis2mdc/iis2mdc_reg.c ****   return ret;
1232:Drivers/BSP/Components/iis2mdc/iis2mdc_reg.c **** }
 2842              		.loc 1 1232 1 view .LVU766
 2843 0014 03B0     		add	sp, sp, #12
 2844              		.cfi_remember_state
 2845              		.cfi_def_cfa_offset 12
 2846              		@ sp needed
 2847 0016 30BD     		pop	{r4, r5, pc}
 2848              	.LVL208:
 2849              	.L163:
 2850              		.cfi_restore_state
1227:Drivers/BSP/Components/iis2mdc/iis2mdc_reg.c ****     ret = iis2mdc_write_reg(ctx, IIS2MDC_CFG_REG_C, (uint8_t *) &reg, 1);
 2851              		.loc 1 1227 5 is_stmt 1 view .LVU767
1227:Drivers/BSP/Components/iis2mdc/iis2mdc_reg.c ****     ret = iis2mdc_write_reg(ctx, IIS2MDC_CFG_REG_C, (uint8_t *) &reg, 1);
 2852              		.loc 1 1227 17 is_stmt 0 view .LVU768
 2853 0018 9DF80430 		ldrb	r3, [sp, #4]	@ zero_extendqisi2
 2854 001c 65F34513 		bfi	r3, r5, #5, #1
 2855 0020 8DF80430 		strb	r3, [sp, #4]
1228:Drivers/BSP/Components/iis2mdc/iis2mdc_reg.c ****   }
 2856              		.loc 1 1228 5 is_stmt 1 view .LVU769
1228:Drivers/BSP/Components/iis2mdc/iis2mdc_reg.c ****   }
 2857              		.loc 1 1228 11 is_stmt 0 view .LVU770
 2858 0024 0123     		movs	r3, #1
 2859              	.LVL209:
ARM GAS  C:\Temp\cczma3Jx.s 			page 74


1228:Drivers/BSP/Components/iis2mdc/iis2mdc_reg.c ****   }
 2860              		.loc 1 1228 11 view .LVU771
 2861 0026 01AA     		add	r2, sp, #4
 2862 0028 6221     		movs	r1, #98
 2863 002a 2046     		mov	r0, r4
 2864 002c FFF7FEFF 		bl	iis2mdc_write_reg
 2865              	.LVL210:
1231:Drivers/BSP/Components/iis2mdc/iis2mdc_reg.c **** }
 2866              		.loc 1 1231 3 is_stmt 1 view .LVU772
1231:Drivers/BSP/Components/iis2mdc/iis2mdc_reg.c **** }
 2867              		.loc 1 1231 10 is_stmt 0 view .LVU773
 2868 0030 F0E7     		b	.L160
 2869              		.cfi_endproc
 2870              	.LFE47:
 2872              		.section	.text.iis2mdc_i2c_interface_get,"ax",%progbits
 2873              		.align	1
 2874              		.global	iis2mdc_i2c_interface_get
 2875              		.syntax unified
 2876              		.thumb
 2877              		.thumb_func
 2879              	iis2mdc_i2c_interface_get:
 2880              	.LVL211:
 2881              	.LFB48:
1233:Drivers/BSP/Components/iis2mdc/iis2mdc_reg.c **** 
1234:Drivers/BSP/Components/iis2mdc/iis2mdc_reg.c **** /**
1235:Drivers/BSP/Components/iis2mdc/iis2mdc_reg.c ****   * @brief  Enable/Disable I2C interface.[get]
1236:Drivers/BSP/Components/iis2mdc/iis2mdc_reg.c ****   *
1237:Drivers/BSP/Components/iis2mdc/iis2mdc_reg.c ****   * @param  ctx      read / write interface definitions
1238:Drivers/BSP/Components/iis2mdc/iis2mdc_reg.c ****   * @param  val      Get the values of i2c_dis in reg CFG_REG_C
1239:Drivers/BSP/Components/iis2mdc/iis2mdc_reg.c ****   * @retval          interface status (MANDATORY: return 0 -> no Error)
1240:Drivers/BSP/Components/iis2mdc/iis2mdc_reg.c ****   *
1241:Drivers/BSP/Components/iis2mdc/iis2mdc_reg.c ****   */
1242:Drivers/BSP/Components/iis2mdc/iis2mdc_reg.c **** int32_t iis2mdc_i2c_interface_get(stmdev_ctx_t *ctx,
1243:Drivers/BSP/Components/iis2mdc/iis2mdc_reg.c ****                                   iis2mdc_i2c_dis_t *val)
1244:Drivers/BSP/Components/iis2mdc/iis2mdc_reg.c **** {
 2882              		.loc 1 1244 1 is_stmt 1 view -0
 2883              		.cfi_startproc
 2884              		@ args = 0, pretend = 0, frame = 8
 2885              		@ frame_needed = 0, uses_anonymous_args = 0
 2886              		.loc 1 1244 1 is_stmt 0 view .LVU775
 2887 0000 10B5     		push	{r4, lr}
 2888              		.cfi_def_cfa_offset 8
 2889              		.cfi_offset 4, -8
 2890              		.cfi_offset 14, -4
 2891 0002 82B0     		sub	sp, sp, #8
 2892              		.cfi_def_cfa_offset 16
 2893 0004 0C46     		mov	r4, r1
1245:Drivers/BSP/Components/iis2mdc/iis2mdc_reg.c ****   iis2mdc_cfg_reg_c_t reg;
 2894              		.loc 1 1245 3 is_stmt 1 view .LVU776
1246:Drivers/BSP/Components/iis2mdc/iis2mdc_reg.c ****   int32_t ret;
 2895              		.loc 1 1246 3 view .LVU777
1247:Drivers/BSP/Components/iis2mdc/iis2mdc_reg.c **** 
1248:Drivers/BSP/Components/iis2mdc/iis2mdc_reg.c ****   ret = iis2mdc_read_reg(ctx, IIS2MDC_CFG_REG_C, (uint8_t *) &reg, 1);
 2896              		.loc 1 1248 3 view .LVU778
 2897              		.loc 1 1248 9 is_stmt 0 view .LVU779
 2898 0006 0123     		movs	r3, #1
 2899 0008 01AA     		add	r2, sp, #4
ARM GAS  C:\Temp\cczma3Jx.s 			page 75


 2900 000a 6221     		movs	r1, #98
 2901              	.LVL212:
 2902              		.loc 1 1248 9 view .LVU780
 2903 000c FFF7FEFF 		bl	iis2mdc_read_reg
 2904              	.LVL213:
1249:Drivers/BSP/Components/iis2mdc/iis2mdc_reg.c **** 
1250:Drivers/BSP/Components/iis2mdc/iis2mdc_reg.c ****   switch (reg.i2c_dis)
 2905              		.loc 1 1250 3 is_stmt 1 view .LVU781
 2906              		.loc 1 1250 14 is_stmt 0 view .LVU782
 2907 0010 9DF80430 		ldrb	r3, [sp, #4]	@ zero_extendqisi2
 2908 0014 C3F34012 		ubfx	r2, r3, #5, #1
 2909              		.loc 1 1250 3 view .LVU783
 2910 0018 13F0200F 		tst	r3, #32
 2911 001c 03D0     		beq	.L165
 2912 001e 32B9     		cbnz	r2, .L166
1251:Drivers/BSP/Components/iis2mdc/iis2mdc_reg.c ****   {
1252:Drivers/BSP/Components/iis2mdc/iis2mdc_reg.c ****     case IIS2MDC_I2C_ENABLE:
1253:Drivers/BSP/Components/iis2mdc/iis2mdc_reg.c ****       *val = IIS2MDC_I2C_ENABLE;
1254:Drivers/BSP/Components/iis2mdc/iis2mdc_reg.c ****       break;
1255:Drivers/BSP/Components/iis2mdc/iis2mdc_reg.c **** 
1256:Drivers/BSP/Components/iis2mdc/iis2mdc_reg.c ****     case IIS2MDC_I2C_DISABLE:
1257:Drivers/BSP/Components/iis2mdc/iis2mdc_reg.c ****       *val = IIS2MDC_I2C_DISABLE;
1258:Drivers/BSP/Components/iis2mdc/iis2mdc_reg.c ****       break;
1259:Drivers/BSP/Components/iis2mdc/iis2mdc_reg.c **** 
1260:Drivers/BSP/Components/iis2mdc/iis2mdc_reg.c ****     default:
1261:Drivers/BSP/Components/iis2mdc/iis2mdc_reg.c ****       *val = IIS2MDC_I2C_ENABLE;
 2913              		.loc 1 1261 7 is_stmt 1 view .LVU784
 2914              		.loc 1 1261 12 is_stmt 0 view .LVU785
 2915 0020 0023     		movs	r3, #0
 2916 0022 2370     		strb	r3, [r4]
1262:Drivers/BSP/Components/iis2mdc/iis2mdc_reg.c ****       break;
 2917              		.loc 1 1262 7 is_stmt 1 view .LVU786
1263:Drivers/BSP/Components/iis2mdc/iis2mdc_reg.c ****   }
1264:Drivers/BSP/Components/iis2mdc/iis2mdc_reg.c **** 
1265:Drivers/BSP/Components/iis2mdc/iis2mdc_reg.c ****   return ret;
 2918              		.loc 1 1265 3 view .LVU787
 2919              		.loc 1 1265 10 is_stmt 0 view .LVU788
 2920 0024 01E0     		b	.L164
 2921              	.L165:
1253:Drivers/BSP/Components/iis2mdc/iis2mdc_reg.c ****       break;
 2922              		.loc 1 1253 7 is_stmt 1 view .LVU789
1253:Drivers/BSP/Components/iis2mdc/iis2mdc_reg.c ****       break;
 2923              		.loc 1 1253 12 is_stmt 0 view .LVU790
 2924 0026 0023     		movs	r3, #0
 2925 0028 2370     		strb	r3, [r4]
1254:Drivers/BSP/Components/iis2mdc/iis2mdc_reg.c **** 
 2926              		.loc 1 1254 7 is_stmt 1 view .LVU791
 2927              	.L164:
1266:Drivers/BSP/Components/iis2mdc/iis2mdc_reg.c **** }
 2928              		.loc 1 1266 1 is_stmt 0 view .LVU792
 2929 002a 02B0     		add	sp, sp, #8
 2930              		.cfi_remember_state
 2931              		.cfi_def_cfa_offset 8
 2932              		@ sp needed
 2933 002c 10BD     		pop	{r4, pc}
 2934              	.LVL214:
 2935              	.L166:
ARM GAS  C:\Temp\cczma3Jx.s 			page 76


 2936              		.cfi_restore_state
1257:Drivers/BSP/Components/iis2mdc/iis2mdc_reg.c ****       break;
 2937              		.loc 1 1257 7 is_stmt 1 view .LVU793
1257:Drivers/BSP/Components/iis2mdc/iis2mdc_reg.c ****       break;
 2938              		.loc 1 1257 12 is_stmt 0 view .LVU794
 2939 002e 0123     		movs	r3, #1
 2940 0030 2370     		strb	r3, [r4]
1258:Drivers/BSP/Components/iis2mdc/iis2mdc_reg.c **** 
 2941              		.loc 1 1258 7 is_stmt 1 view .LVU795
 2942 0032 FAE7     		b	.L164
 2943              		.cfi_endproc
 2944              	.LFE48:
 2946              		.text
 2947              	.Letext0:
 2948              		.file 2 "c:\\users\\jessejabezarendse\\appdata\\roaming\\code\\user\\globalstorage\\bmd.stm32-for-
 2949              		.file 3 "c:\\users\\jessejabezarendse\\appdata\\roaming\\code\\user\\globalstorage\\bmd.stm32-for-
 2950              		.file 4 "c:\\users\\jessejabezarendse\\appdata\\roaming\\code\\user\\globalstorage\\bmd.stm32-for-
 2951              		.file 5 "Drivers/BSP/Components/iis2mdc/iis2mdc_reg.h"
ARM GAS  C:\Temp\cczma3Jx.s 			page 77

