ARM GAS  C:\Temp\ccGZlXNO.s 			page 1


   1              		.cpu cortex-m4
   2              		.arch armv7e-m
   3              		.fpu fpv4-sp-d16
   4              		.eabi_attribute 27, 1
   5              		.eabi_attribute 28, 1
   6              		.eabi_attribute 20, 1
   7              		.eabi_attribute 21, 1
   8              		.eabi_attribute 23, 3
   9              		.eabi_attribute 24, 1
  10              		.eabi_attribute 25, 1
  11              		.eabi_attribute 26, 1
  12              		.eabi_attribute 30, 1
  13              		.eabi_attribute 34, 1
  14              		.eabi_attribute 18, 4
  15              		.file	"iis2dlpc_reg.c"
  16              		.text
  17              	.Ltext0:
  18              		.cfi_sections	.debug_frame
  19              		.file 1 "Drivers/BSP/Components/iis2dlpc/iis2dlpc_reg.c"
  20              		.section	.text.iis2dlpc_read_reg,"ax",%progbits
  21              		.align	1
  22              		.weak	iis2dlpc_read_reg
  23              		.syntax unified
  24              		.thumb
  25              		.thumb_func
  27              	iis2dlpc_read_reg:
  28              	.LVL0:
  29              	.LFB0:
   1:Drivers/BSP/Components/iis2dlpc/iis2dlpc_reg.c **** /**
   2:Drivers/BSP/Components/iis2dlpc/iis2dlpc_reg.c ****   ******************************************************************************
   3:Drivers/BSP/Components/iis2dlpc/iis2dlpc_reg.c ****   * @file    iis2dlpc_reg.c
   4:Drivers/BSP/Components/iis2dlpc/iis2dlpc_reg.c ****   * @author  Sensors Software Solution Team
   5:Drivers/BSP/Components/iis2dlpc/iis2dlpc_reg.c ****   * @brief   IIS2DLPC driver file
   6:Drivers/BSP/Components/iis2dlpc/iis2dlpc_reg.c ****   ******************************************************************************
   7:Drivers/BSP/Components/iis2dlpc/iis2dlpc_reg.c ****   * @attention
   8:Drivers/BSP/Components/iis2dlpc/iis2dlpc_reg.c ****   *
   9:Drivers/BSP/Components/iis2dlpc/iis2dlpc_reg.c ****   * Copyright (c) 2021 STMicroelectronics.
  10:Drivers/BSP/Components/iis2dlpc/iis2dlpc_reg.c ****   * All rights reserved.
  11:Drivers/BSP/Components/iis2dlpc/iis2dlpc_reg.c ****   *
  12:Drivers/BSP/Components/iis2dlpc/iis2dlpc_reg.c ****   * This software is licensed under terms that can be found in the LICENSE file
  13:Drivers/BSP/Components/iis2dlpc/iis2dlpc_reg.c ****   * in the root directory of this software component.
  14:Drivers/BSP/Components/iis2dlpc/iis2dlpc_reg.c ****   * If no LICENSE file comes with this software, it is provided AS-IS.
  15:Drivers/BSP/Components/iis2dlpc/iis2dlpc_reg.c ****   *
  16:Drivers/BSP/Components/iis2dlpc/iis2dlpc_reg.c ****   ******************************************************************************
  17:Drivers/BSP/Components/iis2dlpc/iis2dlpc_reg.c ****   */
  18:Drivers/BSP/Components/iis2dlpc/iis2dlpc_reg.c **** 
  19:Drivers/BSP/Components/iis2dlpc/iis2dlpc_reg.c **** #include "iis2dlpc_reg.h"
  20:Drivers/BSP/Components/iis2dlpc/iis2dlpc_reg.c **** 
  21:Drivers/BSP/Components/iis2dlpc/iis2dlpc_reg.c **** /**
  22:Drivers/BSP/Components/iis2dlpc/iis2dlpc_reg.c ****   * @defgroup  IIS2DLPC
  23:Drivers/BSP/Components/iis2dlpc/iis2dlpc_reg.c ****   * @brief     This file provides a set of functions needed to drive the
  24:Drivers/BSP/Components/iis2dlpc/iis2dlpc_reg.c ****   *            iis2dlpc enanced inertial module.
  25:Drivers/BSP/Components/iis2dlpc/iis2dlpc_reg.c ****   * @{
  26:Drivers/BSP/Components/iis2dlpc/iis2dlpc_reg.c ****   *
  27:Drivers/BSP/Components/iis2dlpc/iis2dlpc_reg.c ****   */
  28:Drivers/BSP/Components/iis2dlpc/iis2dlpc_reg.c **** 
  29:Drivers/BSP/Components/iis2dlpc/iis2dlpc_reg.c **** /**
ARM GAS  C:\Temp\ccGZlXNO.s 			page 2


  30:Drivers/BSP/Components/iis2dlpc/iis2dlpc_reg.c ****   * @defgroup  IIS2DLPC_Interfaces_Functions
  31:Drivers/BSP/Components/iis2dlpc/iis2dlpc_reg.c ****   * @brief     This section provide a set of functions used to read and
  32:Drivers/BSP/Components/iis2dlpc/iis2dlpc_reg.c ****   *            write a generic register of the device.
  33:Drivers/BSP/Components/iis2dlpc/iis2dlpc_reg.c ****   *            MANDATORY: return 0 -> no Error.
  34:Drivers/BSP/Components/iis2dlpc/iis2dlpc_reg.c ****   * @{
  35:Drivers/BSP/Components/iis2dlpc/iis2dlpc_reg.c ****   *
  36:Drivers/BSP/Components/iis2dlpc/iis2dlpc_reg.c ****   */
  37:Drivers/BSP/Components/iis2dlpc/iis2dlpc_reg.c **** 
  38:Drivers/BSP/Components/iis2dlpc/iis2dlpc_reg.c **** /**
  39:Drivers/BSP/Components/iis2dlpc/iis2dlpc_reg.c ****   * @brief  Read generic device register
  40:Drivers/BSP/Components/iis2dlpc/iis2dlpc_reg.c ****   *
  41:Drivers/BSP/Components/iis2dlpc/iis2dlpc_reg.c ****   * @param  ctx   read / write interface definitions(ptr)
  42:Drivers/BSP/Components/iis2dlpc/iis2dlpc_reg.c ****   * @param  reg   register to read
  43:Drivers/BSP/Components/iis2dlpc/iis2dlpc_reg.c ****   * @param  data  pointer to buffer that store the data read(ptr)
  44:Drivers/BSP/Components/iis2dlpc/iis2dlpc_reg.c ****   * @param  len   number of consecutive register to read
  45:Drivers/BSP/Components/iis2dlpc/iis2dlpc_reg.c ****   * @retval          interface status (MANDATORY: return 0 -> no Error)
  46:Drivers/BSP/Components/iis2dlpc/iis2dlpc_reg.c ****   *
  47:Drivers/BSP/Components/iis2dlpc/iis2dlpc_reg.c ****   */
  48:Drivers/BSP/Components/iis2dlpc/iis2dlpc_reg.c **** int32_t __weak iis2dlpc_read_reg(const stmdev_ctx_t *ctx, uint8_t reg,
  49:Drivers/BSP/Components/iis2dlpc/iis2dlpc_reg.c ****                                  uint8_t *data,
  50:Drivers/BSP/Components/iis2dlpc/iis2dlpc_reg.c ****                                  uint16_t len)
  51:Drivers/BSP/Components/iis2dlpc/iis2dlpc_reg.c **** {
  30              		.loc 1 51 1 view -0
  31              		.cfi_startproc
  32              		@ args = 0, pretend = 0, frame = 0
  33              		@ frame_needed = 0, uses_anonymous_args = 0
  52:Drivers/BSP/Components/iis2dlpc/iis2dlpc_reg.c ****   int32_t ret;
  34              		.loc 1 52 3 view .LVU1
  53:Drivers/BSP/Components/iis2dlpc/iis2dlpc_reg.c **** 
  54:Drivers/BSP/Components/iis2dlpc/iis2dlpc_reg.c ****   if (ctx == NULL) return -1;
  35              		.loc 1 54 3 view .LVU2
  36              		.loc 1 54 6 is_stmt 0 view .LVU3
  37 0000 20B1     		cbz	r0, .L3
  51:Drivers/BSP/Components/iis2dlpc/iis2dlpc_reg.c ****   int32_t ret;
  38              		.loc 1 51 1 view .LVU4
  39 0002 10B5     		push	{r4, lr}
  40              		.cfi_def_cfa_offset 8
  41              		.cfi_offset 4, -8
  42              		.cfi_offset 14, -4
  55:Drivers/BSP/Components/iis2dlpc/iis2dlpc_reg.c **** 
  56:Drivers/BSP/Components/iis2dlpc/iis2dlpc_reg.c ****   ret = ctx->read_reg(ctx->handle, reg, data, len);
  43              		.loc 1 56 3 is_stmt 1 view .LVU5
  44              		.loc 1 56 12 is_stmt 0 view .LVU6
  45 0004 4468     		ldr	r4, [r0, #4]
  46              		.loc 1 56 9 view .LVU7
  47 0006 C068     		ldr	r0, [r0, #12]
  48              	.LVL1:
  49              		.loc 1 56 9 view .LVU8
  50 0008 A047     		blx	r4
  51              	.LVL2:
  57:Drivers/BSP/Components/iis2dlpc/iis2dlpc_reg.c **** 
  58:Drivers/BSP/Components/iis2dlpc/iis2dlpc_reg.c ****   return ret;
  52              		.loc 1 58 3 is_stmt 1 view .LVU9
  59:Drivers/BSP/Components/iis2dlpc/iis2dlpc_reg.c **** }
  53              		.loc 1 59 1 is_stmt 0 view .LVU10
  54 000a 10BD     		pop	{r4, pc}
  55              	.LVL3:
ARM GAS  C:\Temp\ccGZlXNO.s 			page 3


  56              	.L3:
  57              		.cfi_def_cfa_offset 0
  58              		.cfi_restore 4
  59              		.cfi_restore 14
  54:Drivers/BSP/Components/iis2dlpc/iis2dlpc_reg.c **** 
  60              		.loc 1 54 27 view .LVU11
  61 000c 4FF0FF30 		mov	r0, #-1
  62              	.LVL4:
  63              		.loc 1 59 1 view .LVU12
  64 0010 7047     		bx	lr
  65              		.cfi_endproc
  66              	.LFE0:
  68              		.section	.text.iis2dlpc_write_reg,"ax",%progbits
  69              		.align	1
  70              		.weak	iis2dlpc_write_reg
  71              		.syntax unified
  72              		.thumb
  73              		.thumb_func
  75              	iis2dlpc_write_reg:
  76              	.LVL5:
  77              	.LFB1:
  60:Drivers/BSP/Components/iis2dlpc/iis2dlpc_reg.c **** 
  61:Drivers/BSP/Components/iis2dlpc/iis2dlpc_reg.c **** /**
  62:Drivers/BSP/Components/iis2dlpc/iis2dlpc_reg.c ****   * @brief  Write generic device register
  63:Drivers/BSP/Components/iis2dlpc/iis2dlpc_reg.c ****   *
  64:Drivers/BSP/Components/iis2dlpc/iis2dlpc_reg.c ****   * @param  ctx   read / write interface definitions(ptr)
  65:Drivers/BSP/Components/iis2dlpc/iis2dlpc_reg.c ****   * @param  reg   register to write
  66:Drivers/BSP/Components/iis2dlpc/iis2dlpc_reg.c ****   * @param  data  pointer to data to write in register reg(ptr)
  67:Drivers/BSP/Components/iis2dlpc/iis2dlpc_reg.c ****   * @param  len   number of consecutive register to write
  68:Drivers/BSP/Components/iis2dlpc/iis2dlpc_reg.c ****   * @retval          interface status (MANDATORY: return 0 -> no Error)
  69:Drivers/BSP/Components/iis2dlpc/iis2dlpc_reg.c ****   *
  70:Drivers/BSP/Components/iis2dlpc/iis2dlpc_reg.c ****   */
  71:Drivers/BSP/Components/iis2dlpc/iis2dlpc_reg.c **** int32_t __weak iis2dlpc_write_reg(const stmdev_ctx_t *ctx, uint8_t reg,
  72:Drivers/BSP/Components/iis2dlpc/iis2dlpc_reg.c ****                                   uint8_t *data,
  73:Drivers/BSP/Components/iis2dlpc/iis2dlpc_reg.c ****                                   uint16_t len)
  74:Drivers/BSP/Components/iis2dlpc/iis2dlpc_reg.c **** {
  78              		.loc 1 74 1 is_stmt 1 view -0
  79              		.cfi_startproc
  80              		@ args = 0, pretend = 0, frame = 0
  81              		@ frame_needed = 0, uses_anonymous_args = 0
  75:Drivers/BSP/Components/iis2dlpc/iis2dlpc_reg.c ****   int32_t ret;
  82              		.loc 1 75 3 view .LVU14
  76:Drivers/BSP/Components/iis2dlpc/iis2dlpc_reg.c **** 
  77:Drivers/BSP/Components/iis2dlpc/iis2dlpc_reg.c ****   if (ctx == NULL) return -1;
  83              		.loc 1 77 3 view .LVU15
  84              		.loc 1 77 6 is_stmt 0 view .LVU16
  85 0000 20B1     		cbz	r0, .L10
  74:Drivers/BSP/Components/iis2dlpc/iis2dlpc_reg.c ****   int32_t ret;
  86              		.loc 1 74 1 view .LVU17
  87 0002 10B5     		push	{r4, lr}
  88              		.cfi_def_cfa_offset 8
  89              		.cfi_offset 4, -8
  90              		.cfi_offset 14, -4
  78:Drivers/BSP/Components/iis2dlpc/iis2dlpc_reg.c **** 
  79:Drivers/BSP/Components/iis2dlpc/iis2dlpc_reg.c ****   ret = ctx->write_reg(ctx->handle, reg, data, len);
  91              		.loc 1 79 3 is_stmt 1 view .LVU18
  92              		.loc 1 79 12 is_stmt 0 view .LVU19
ARM GAS  C:\Temp\ccGZlXNO.s 			page 4


  93 0004 0468     		ldr	r4, [r0]
  94              		.loc 1 79 9 view .LVU20
  95 0006 C068     		ldr	r0, [r0, #12]
  96              	.LVL6:
  97              		.loc 1 79 9 view .LVU21
  98 0008 A047     		blx	r4
  99              	.LVL7:
  80:Drivers/BSP/Components/iis2dlpc/iis2dlpc_reg.c **** 
  81:Drivers/BSP/Components/iis2dlpc/iis2dlpc_reg.c ****   return ret;
 100              		.loc 1 81 3 is_stmt 1 view .LVU22
  82:Drivers/BSP/Components/iis2dlpc/iis2dlpc_reg.c **** }
 101              		.loc 1 82 1 is_stmt 0 view .LVU23
 102 000a 10BD     		pop	{r4, pc}
 103              	.LVL8:
 104              	.L10:
 105              		.cfi_def_cfa_offset 0
 106              		.cfi_restore 4
 107              		.cfi_restore 14
  77:Drivers/BSP/Components/iis2dlpc/iis2dlpc_reg.c **** 
 108              		.loc 1 77 27 view .LVU24
 109 000c 4FF0FF30 		mov	r0, #-1
 110              	.LVL9:
 111              		.loc 1 82 1 view .LVU25
 112 0010 7047     		bx	lr
 113              		.cfi_endproc
 114              	.LFE1:
 116              		.section	.text.iis2dlpc_from_fs2_to_mg,"ax",%progbits
 117              		.align	1
 118              		.global	iis2dlpc_from_fs2_to_mg
 119              		.syntax unified
 120              		.thumb
 121              		.thumb_func
 123              	iis2dlpc_from_fs2_to_mg:
 124              	.LVL10:
 125              	.LFB2:
  83:Drivers/BSP/Components/iis2dlpc/iis2dlpc_reg.c **** 
  84:Drivers/BSP/Components/iis2dlpc/iis2dlpc_reg.c **** /**
  85:Drivers/BSP/Components/iis2dlpc/iis2dlpc_reg.c ****   * @}
  86:Drivers/BSP/Components/iis2dlpc/iis2dlpc_reg.c ****   *
  87:Drivers/BSP/Components/iis2dlpc/iis2dlpc_reg.c ****   */
  88:Drivers/BSP/Components/iis2dlpc/iis2dlpc_reg.c **** 
  89:Drivers/BSP/Components/iis2dlpc/iis2dlpc_reg.c **** /**
  90:Drivers/BSP/Components/iis2dlpc/iis2dlpc_reg.c ****   * @defgroup    IIS2DLPC_Sensitivity
  91:Drivers/BSP/Components/iis2dlpc/iis2dlpc_reg.c ****   * @brief       These functions convert raw-data into engineering units.
  92:Drivers/BSP/Components/iis2dlpc/iis2dlpc_reg.c ****   * @{
  93:Drivers/BSP/Components/iis2dlpc/iis2dlpc_reg.c ****   *
  94:Drivers/BSP/Components/iis2dlpc/iis2dlpc_reg.c ****   */
  95:Drivers/BSP/Components/iis2dlpc/iis2dlpc_reg.c **** 
  96:Drivers/BSP/Components/iis2dlpc/iis2dlpc_reg.c **** float_t iis2dlpc_from_fs2_to_mg(int16_t lsb)
  97:Drivers/BSP/Components/iis2dlpc/iis2dlpc_reg.c **** {
 126              		.loc 1 97 1 is_stmt 1 view -0
 127              		.cfi_startproc
 128              		@ args = 0, pretend = 0, frame = 0
 129              		@ frame_needed = 0, uses_anonymous_args = 0
 130              		@ link register save eliminated.
 131              		.loc 1 97 1 is_stmt 0 view .LVU27
 132 0000 07EE900A 		vmov	s15, r0	@ int
ARM GAS  C:\Temp\ccGZlXNO.s 			page 5


  98:Drivers/BSP/Components/iis2dlpc/iis2dlpc_reg.c ****   return ((float_t)lsb) * 0.061f;
 133              		.loc 1 98 3 is_stmt 1 view .LVU28
 134              		.loc 1 98 11 is_stmt 0 view .LVU29
 135 0004 F8EEE77A 		vcvt.f32.s32	s15, s15
  99:Drivers/BSP/Components/iis2dlpc/iis2dlpc_reg.c **** }
 136              		.loc 1 99 1 view .LVU30
 137 0008 9FED020A 		vldr.32	s0, .L16
 138 000c 27EE800A 		vmul.f32	s0, s15, s0
 139 0010 7047     		bx	lr
 140              	.L17:
 141 0012 00BF     		.align	2
 142              	.L16:
 143 0014 23DB793D 		.word	1031396131
 144              		.cfi_endproc
 145              	.LFE2:
 147              		.section	.text.iis2dlpc_from_fs4_to_mg,"ax",%progbits
 148              		.align	1
 149              		.global	iis2dlpc_from_fs4_to_mg
 150              		.syntax unified
 151              		.thumb
 152              		.thumb_func
 154              	iis2dlpc_from_fs4_to_mg:
 155              	.LVL11:
 156              	.LFB3:
 100:Drivers/BSP/Components/iis2dlpc/iis2dlpc_reg.c **** 
 101:Drivers/BSP/Components/iis2dlpc/iis2dlpc_reg.c **** float_t iis2dlpc_from_fs4_to_mg(int16_t lsb)
 102:Drivers/BSP/Components/iis2dlpc/iis2dlpc_reg.c **** {
 157              		.loc 1 102 1 is_stmt 1 view -0
 158              		.cfi_startproc
 159              		@ args = 0, pretend = 0, frame = 0
 160              		@ frame_needed = 0, uses_anonymous_args = 0
 161              		@ link register save eliminated.
 162              		.loc 1 102 1 is_stmt 0 view .LVU32
 163 0000 07EE900A 		vmov	s15, r0	@ int
 103:Drivers/BSP/Components/iis2dlpc/iis2dlpc_reg.c ****   return ((float_t)lsb) * 0.122f;
 164              		.loc 1 103 3 is_stmt 1 view .LVU33
 165              		.loc 1 103 11 is_stmt 0 view .LVU34
 166 0004 F8EEE77A 		vcvt.f32.s32	s15, s15
 104:Drivers/BSP/Components/iis2dlpc/iis2dlpc_reg.c **** }
 167              		.loc 1 104 1 view .LVU35
 168 0008 9FED020A 		vldr.32	s0, .L19
 169 000c 27EE800A 		vmul.f32	s0, s15, s0
 170 0010 7047     		bx	lr
 171              	.L20:
 172 0012 00BF     		.align	2
 173              	.L19:
 174 0014 23DBF93D 		.word	1039784739
 175              		.cfi_endproc
 176              	.LFE3:
 178              		.section	.text.iis2dlpc_from_fs8_to_mg,"ax",%progbits
 179              		.align	1
 180              		.global	iis2dlpc_from_fs8_to_mg
 181              		.syntax unified
 182              		.thumb
 183              		.thumb_func
 185              	iis2dlpc_from_fs8_to_mg:
 186              	.LVL12:
ARM GAS  C:\Temp\ccGZlXNO.s 			page 6


 187              	.LFB4:
 105:Drivers/BSP/Components/iis2dlpc/iis2dlpc_reg.c **** 
 106:Drivers/BSP/Components/iis2dlpc/iis2dlpc_reg.c **** float_t iis2dlpc_from_fs8_to_mg(int16_t lsb)
 107:Drivers/BSP/Components/iis2dlpc/iis2dlpc_reg.c **** {
 188              		.loc 1 107 1 is_stmt 1 view -0
 189              		.cfi_startproc
 190              		@ args = 0, pretend = 0, frame = 0
 191              		@ frame_needed = 0, uses_anonymous_args = 0
 192              		@ link register save eliminated.
 193              		.loc 1 107 1 is_stmt 0 view .LVU37
 194 0000 07EE900A 		vmov	s15, r0	@ int
 108:Drivers/BSP/Components/iis2dlpc/iis2dlpc_reg.c ****   return ((float_t)lsb) * 0.244f;
 195              		.loc 1 108 3 is_stmt 1 view .LVU38
 196              		.loc 1 108 11 is_stmt 0 view .LVU39
 197 0004 F8EEE77A 		vcvt.f32.s32	s15, s15
 109:Drivers/BSP/Components/iis2dlpc/iis2dlpc_reg.c **** }
 198              		.loc 1 109 1 view .LVU40
 199 0008 9FED020A 		vldr.32	s0, .L22
 200 000c 27EE800A 		vmul.f32	s0, s15, s0
 201 0010 7047     		bx	lr
 202              	.L23:
 203 0012 00BF     		.align	2
 204              	.L22:
 205 0014 23DB793E 		.word	1048173347
 206              		.cfi_endproc
 207              	.LFE4:
 209              		.section	.text.iis2dlpc_from_fs16_to_mg,"ax",%progbits
 210              		.align	1
 211              		.global	iis2dlpc_from_fs16_to_mg
 212              		.syntax unified
 213              		.thumb
 214              		.thumb_func
 216              	iis2dlpc_from_fs16_to_mg:
 217              	.LVL13:
 218              	.LFB5:
 110:Drivers/BSP/Components/iis2dlpc/iis2dlpc_reg.c **** 
 111:Drivers/BSP/Components/iis2dlpc/iis2dlpc_reg.c **** float_t iis2dlpc_from_fs16_to_mg(int16_t lsb)
 112:Drivers/BSP/Components/iis2dlpc/iis2dlpc_reg.c **** {
 219              		.loc 1 112 1 is_stmt 1 view -0
 220              		.cfi_startproc
 221              		@ args = 0, pretend = 0, frame = 0
 222              		@ frame_needed = 0, uses_anonymous_args = 0
 223              		@ link register save eliminated.
 224              		.loc 1 112 1 is_stmt 0 view .LVU42
 225 0000 07EE900A 		vmov	s15, r0	@ int
 113:Drivers/BSP/Components/iis2dlpc/iis2dlpc_reg.c ****   return ((float_t)lsb) * 0.488f;
 226              		.loc 1 113 3 is_stmt 1 view .LVU43
 227              		.loc 1 113 11 is_stmt 0 view .LVU44
 228 0004 F8EEE77A 		vcvt.f32.s32	s15, s15
 114:Drivers/BSP/Components/iis2dlpc/iis2dlpc_reg.c **** }
 229              		.loc 1 114 1 view .LVU45
 230 0008 9FED020A 		vldr.32	s0, .L25
 231 000c 27EE800A 		vmul.f32	s0, s15, s0
 232 0010 7047     		bx	lr
 233              	.L26:
 234 0012 00BF     		.align	2
 235              	.L25:
ARM GAS  C:\Temp\ccGZlXNO.s 			page 7


 236 0014 23DBF93E 		.word	1056561955
 237              		.cfi_endproc
 238              	.LFE5:
 240              		.section	.text.iis2dlpc_from_fs2_lp1_to_mg,"ax",%progbits
 241              		.align	1
 242              		.global	iis2dlpc_from_fs2_lp1_to_mg
 243              		.syntax unified
 244              		.thumb
 245              		.thumb_func
 247              	iis2dlpc_from_fs2_lp1_to_mg:
 248              	.LVL14:
 249              	.LFB6:
 115:Drivers/BSP/Components/iis2dlpc/iis2dlpc_reg.c **** 
 116:Drivers/BSP/Components/iis2dlpc/iis2dlpc_reg.c **** float_t iis2dlpc_from_fs2_lp1_to_mg(int16_t lsb)
 117:Drivers/BSP/Components/iis2dlpc/iis2dlpc_reg.c **** {
 250              		.loc 1 117 1 is_stmt 1 view -0
 251              		.cfi_startproc
 252              		@ args = 0, pretend = 0, frame = 0
 253              		@ frame_needed = 0, uses_anonymous_args = 0
 254              		@ link register save eliminated.
 255              		.loc 1 117 1 is_stmt 0 view .LVU47
 256 0000 07EE900A 		vmov	s15, r0	@ int
 118:Drivers/BSP/Components/iis2dlpc/iis2dlpc_reg.c ****   return ((float_t)lsb) * 0.061f;
 257              		.loc 1 118 3 is_stmt 1 view .LVU48
 258              		.loc 1 118 11 is_stmt 0 view .LVU49
 259 0004 F8EEE77A 		vcvt.f32.s32	s15, s15
 119:Drivers/BSP/Components/iis2dlpc/iis2dlpc_reg.c **** }
 260              		.loc 1 119 1 view .LVU50
 261 0008 9FED020A 		vldr.32	s0, .L28
 262 000c 27EE800A 		vmul.f32	s0, s15, s0
 263 0010 7047     		bx	lr
 264              	.L29:
 265 0012 00BF     		.align	2
 266              	.L28:
 267 0014 23DB793D 		.word	1031396131
 268              		.cfi_endproc
 269              	.LFE6:
 271              		.section	.text.iis2dlpc_from_fs4_lp1_to_mg,"ax",%progbits
 272              		.align	1
 273              		.global	iis2dlpc_from_fs4_lp1_to_mg
 274              		.syntax unified
 275              		.thumb
 276              		.thumb_func
 278              	iis2dlpc_from_fs4_lp1_to_mg:
 279              	.LVL15:
 280              	.LFB7:
 120:Drivers/BSP/Components/iis2dlpc/iis2dlpc_reg.c **** 
 121:Drivers/BSP/Components/iis2dlpc/iis2dlpc_reg.c **** float_t iis2dlpc_from_fs4_lp1_to_mg(int16_t lsb)
 122:Drivers/BSP/Components/iis2dlpc/iis2dlpc_reg.c **** {
 281              		.loc 1 122 1 is_stmt 1 view -0
 282              		.cfi_startproc
 283              		@ args = 0, pretend = 0, frame = 0
 284              		@ frame_needed = 0, uses_anonymous_args = 0
 285              		@ link register save eliminated.
 286              		.loc 1 122 1 is_stmt 0 view .LVU52
 287 0000 07EE900A 		vmov	s15, r0	@ int
 123:Drivers/BSP/Components/iis2dlpc/iis2dlpc_reg.c ****   return ((float_t)lsb) * 0.122f;
ARM GAS  C:\Temp\ccGZlXNO.s 			page 8


 288              		.loc 1 123 3 is_stmt 1 view .LVU53
 289              		.loc 1 123 11 is_stmt 0 view .LVU54
 290 0004 F8EEE77A 		vcvt.f32.s32	s15, s15
 124:Drivers/BSP/Components/iis2dlpc/iis2dlpc_reg.c **** }
 291              		.loc 1 124 1 view .LVU55
 292 0008 9FED020A 		vldr.32	s0, .L31
 293 000c 27EE800A 		vmul.f32	s0, s15, s0
 294 0010 7047     		bx	lr
 295              	.L32:
 296 0012 00BF     		.align	2
 297              	.L31:
 298 0014 23DBF93D 		.word	1039784739
 299              		.cfi_endproc
 300              	.LFE7:
 302              		.section	.text.iis2dlpc_from_fs8_lp1_to_mg,"ax",%progbits
 303              		.align	1
 304              		.global	iis2dlpc_from_fs8_lp1_to_mg
 305              		.syntax unified
 306              		.thumb
 307              		.thumb_func
 309              	iis2dlpc_from_fs8_lp1_to_mg:
 310              	.LVL16:
 311              	.LFB8:
 125:Drivers/BSP/Components/iis2dlpc/iis2dlpc_reg.c **** 
 126:Drivers/BSP/Components/iis2dlpc/iis2dlpc_reg.c **** float_t iis2dlpc_from_fs8_lp1_to_mg(int16_t lsb)
 127:Drivers/BSP/Components/iis2dlpc/iis2dlpc_reg.c **** {
 312              		.loc 1 127 1 is_stmt 1 view -0
 313              		.cfi_startproc
 314              		@ args = 0, pretend = 0, frame = 0
 315              		@ frame_needed = 0, uses_anonymous_args = 0
 316              		@ link register save eliminated.
 317              		.loc 1 127 1 is_stmt 0 view .LVU57
 318 0000 07EE900A 		vmov	s15, r0	@ int
 128:Drivers/BSP/Components/iis2dlpc/iis2dlpc_reg.c ****   return ((float_t)lsb) * 0.244f;
 319              		.loc 1 128 3 is_stmt 1 view .LVU58
 320              		.loc 1 128 11 is_stmt 0 view .LVU59
 321 0004 F8EEE77A 		vcvt.f32.s32	s15, s15
 129:Drivers/BSP/Components/iis2dlpc/iis2dlpc_reg.c **** }
 322              		.loc 1 129 1 view .LVU60
 323 0008 9FED020A 		vldr.32	s0, .L34
 324 000c 27EE800A 		vmul.f32	s0, s15, s0
 325 0010 7047     		bx	lr
 326              	.L35:
 327 0012 00BF     		.align	2
 328              	.L34:
 329 0014 23DB793E 		.word	1048173347
 330              		.cfi_endproc
 331              	.LFE8:
 333              		.section	.text.iis2dlpc_from_fs16_lp1_to_mg,"ax",%progbits
 334              		.align	1
 335              		.global	iis2dlpc_from_fs16_lp1_to_mg
 336              		.syntax unified
 337              		.thumb
 338              		.thumb_func
 340              	iis2dlpc_from_fs16_lp1_to_mg:
 341              	.LVL17:
 342              	.LFB9:
ARM GAS  C:\Temp\ccGZlXNO.s 			page 9


 130:Drivers/BSP/Components/iis2dlpc/iis2dlpc_reg.c **** 
 131:Drivers/BSP/Components/iis2dlpc/iis2dlpc_reg.c **** float_t iis2dlpc_from_fs16_lp1_to_mg(int16_t lsb)
 132:Drivers/BSP/Components/iis2dlpc/iis2dlpc_reg.c **** {
 343              		.loc 1 132 1 is_stmt 1 view -0
 344              		.cfi_startproc
 345              		@ args = 0, pretend = 0, frame = 0
 346              		@ frame_needed = 0, uses_anonymous_args = 0
 347              		@ link register save eliminated.
 348              		.loc 1 132 1 is_stmt 0 view .LVU62
 349 0000 07EE900A 		vmov	s15, r0	@ int
 133:Drivers/BSP/Components/iis2dlpc/iis2dlpc_reg.c ****   return ((float_t)lsb) * 0.488f;
 350              		.loc 1 133 3 is_stmt 1 view .LVU63
 351              		.loc 1 133 11 is_stmt 0 view .LVU64
 352 0004 F8EEE77A 		vcvt.f32.s32	s15, s15
 134:Drivers/BSP/Components/iis2dlpc/iis2dlpc_reg.c **** }
 353              		.loc 1 134 1 view .LVU65
 354 0008 9FED020A 		vldr.32	s0, .L37
 355 000c 27EE800A 		vmul.f32	s0, s15, s0
 356 0010 7047     		bx	lr
 357              	.L38:
 358 0012 00BF     		.align	2
 359              	.L37:
 360 0014 23DBF93E 		.word	1056561955
 361              		.cfi_endproc
 362              	.LFE9:
 364              		.section	.text.iis2dlpc_from_lsb_to_celsius,"ax",%progbits
 365              		.align	1
 366              		.global	iis2dlpc_from_lsb_to_celsius
 367              		.syntax unified
 368              		.thumb
 369              		.thumb_func
 371              	iis2dlpc_from_lsb_to_celsius:
 372              	.LVL18:
 373              	.LFB10:
 135:Drivers/BSP/Components/iis2dlpc/iis2dlpc_reg.c **** 
 136:Drivers/BSP/Components/iis2dlpc/iis2dlpc_reg.c **** float_t iis2dlpc_from_lsb_to_celsius(int16_t lsb)
 137:Drivers/BSP/Components/iis2dlpc/iis2dlpc_reg.c **** {
 374              		.loc 1 137 1 is_stmt 1 view -0
 375              		.cfi_startproc
 376              		@ args = 0, pretend = 0, frame = 0
 377              		@ frame_needed = 0, uses_anonymous_args = 0
 378              		@ link register save eliminated.
 379              		.loc 1 137 1 is_stmt 0 view .LVU67
 380 0000 07EE900A 		vmov	s15, r0	@ int
 138:Drivers/BSP/Components/iis2dlpc/iis2dlpc_reg.c ****   return (((float_t)lsb / 256.0f) + 25.0f);
 381              		.loc 1 138 3 is_stmt 1 view .LVU68
 382              		.loc 1 138 12 is_stmt 0 view .LVU69
 383 0004 F8EEE77A 		vcvt.f32.s32	s15, s15
 384              		.loc 1 138 25 view .LVU70
 385 0008 9FED047A 		vldr.32	s14, .L40
 386 000c 67EE877A 		vmul.f32	s15, s15, s14
 139:Drivers/BSP/Components/iis2dlpc/iis2dlpc_reg.c **** }
 387              		.loc 1 139 1 view .LVU71
 388 0010 B3EE090A 		vmov.f32	s0, #2.5e+1
 389 0014 37EE800A 		vadd.f32	s0, s15, s0
 390 0018 7047     		bx	lr
 391              	.L41:
ARM GAS  C:\Temp\ccGZlXNO.s 			page 10


 392 001a 00BF     		.align	2
 393              	.L40:
 394 001c 0000803B 		.word	998244352
 395              		.cfi_endproc
 396              	.LFE10:
 398              		.section	.text.iis2dlpc_power_mode_set,"ax",%progbits
 399              		.align	1
 400              		.global	iis2dlpc_power_mode_set
 401              		.syntax unified
 402              		.thumb
 403              		.thumb_func
 405              	iis2dlpc_power_mode_set:
 406              	.LVL19:
 407              	.LFB11:
 140:Drivers/BSP/Components/iis2dlpc/iis2dlpc_reg.c **** 
 141:Drivers/BSP/Components/iis2dlpc/iis2dlpc_reg.c **** /**
 142:Drivers/BSP/Components/iis2dlpc/iis2dlpc_reg.c ****   * @}
 143:Drivers/BSP/Components/iis2dlpc/iis2dlpc_reg.c ****   *
 144:Drivers/BSP/Components/iis2dlpc/iis2dlpc_reg.c ****   */
 145:Drivers/BSP/Components/iis2dlpc/iis2dlpc_reg.c **** 
 146:Drivers/BSP/Components/iis2dlpc/iis2dlpc_reg.c **** /**
 147:Drivers/BSP/Components/iis2dlpc/iis2dlpc_reg.c ****   * @defgroup  IIS2DLPC_Data_Generation
 148:Drivers/BSP/Components/iis2dlpc/iis2dlpc_reg.c ****   * @brief     This section groups all the functions concerning
 149:Drivers/BSP/Components/iis2dlpc/iis2dlpc_reg.c ****   *            data generation
 150:Drivers/BSP/Components/iis2dlpc/iis2dlpc_reg.c ****   * @{
 151:Drivers/BSP/Components/iis2dlpc/iis2dlpc_reg.c ****   *
 152:Drivers/BSP/Components/iis2dlpc/iis2dlpc_reg.c ****   */
 153:Drivers/BSP/Components/iis2dlpc/iis2dlpc_reg.c **** 
 154:Drivers/BSP/Components/iis2dlpc/iis2dlpc_reg.c **** /**
 155:Drivers/BSP/Components/iis2dlpc/iis2dlpc_reg.c ****   * @brief  Select accelerometer operating modes.[set]
 156:Drivers/BSP/Components/iis2dlpc/iis2dlpc_reg.c ****   *
 157:Drivers/BSP/Components/iis2dlpc/iis2dlpc_reg.c ****   * @param  ctx      read / write interface definitions
 158:Drivers/BSP/Components/iis2dlpc/iis2dlpc_reg.c ****   * @param  val      change the values of mode / lp_mode in reg CTRL1
 159:Drivers/BSP/Components/iis2dlpc/iis2dlpc_reg.c ****   *                  and low_noise in reg CTRL6
 160:Drivers/BSP/Components/iis2dlpc/iis2dlpc_reg.c ****   * @retval          interface status (MANDATORY: return 0 -> no Error)
 161:Drivers/BSP/Components/iis2dlpc/iis2dlpc_reg.c ****   *
 162:Drivers/BSP/Components/iis2dlpc/iis2dlpc_reg.c ****   */
 163:Drivers/BSP/Components/iis2dlpc/iis2dlpc_reg.c **** int32_t iis2dlpc_power_mode_set(const stmdev_ctx_t *ctx,
 164:Drivers/BSP/Components/iis2dlpc/iis2dlpc_reg.c ****                                 iis2dlpc_mode_t val)
 165:Drivers/BSP/Components/iis2dlpc/iis2dlpc_reg.c **** {
 408              		.loc 1 165 1 is_stmt 1 view -0
 409              		.cfi_startproc
 410              		@ args = 0, pretend = 0, frame = 8
 411              		@ frame_needed = 0, uses_anonymous_args = 0
 412              		.loc 1 165 1 is_stmt 0 view .LVU73
 413 0000 30B5     		push	{r4, r5, lr}
 414              		.cfi_def_cfa_offset 12
 415              		.cfi_offset 4, -12
 416              		.cfi_offset 5, -8
 417              		.cfi_offset 14, -4
 418 0002 83B0     		sub	sp, sp, #12
 419              		.cfi_def_cfa_offset 24
 420 0004 0546     		mov	r5, r0
 421 0006 0C46     		mov	r4, r1
 166:Drivers/BSP/Components/iis2dlpc/iis2dlpc_reg.c ****   iis2dlpc_ctrl1_t ctrl1;
 422              		.loc 1 166 3 is_stmt 1 view .LVU74
 167:Drivers/BSP/Components/iis2dlpc/iis2dlpc_reg.c ****   iis2dlpc_ctrl6_t ctrl6;
ARM GAS  C:\Temp\ccGZlXNO.s 			page 11


 423              		.loc 1 167 3 view .LVU75
 168:Drivers/BSP/Components/iis2dlpc/iis2dlpc_reg.c ****   int32_t ret;
 424              		.loc 1 168 3 view .LVU76
 169:Drivers/BSP/Components/iis2dlpc/iis2dlpc_reg.c **** 
 170:Drivers/BSP/Components/iis2dlpc/iis2dlpc_reg.c ****   ret = iis2dlpc_read_reg(ctx, IIS2DLPC_CTRL1, (uint8_t *) &ctrl1, 1);
 425              		.loc 1 170 3 view .LVU77
 426              		.loc 1 170 9 is_stmt 0 view .LVU78
 427 0008 0123     		movs	r3, #1
 428 000a 01AA     		add	r2, sp, #4
 429 000c 2021     		movs	r1, #32
 430              	.LVL20:
 431              		.loc 1 170 9 view .LVU79
 432 000e FFF7FEFF 		bl	iis2dlpc_read_reg
 433              	.LVL21:
 171:Drivers/BSP/Components/iis2dlpc/iis2dlpc_reg.c **** 
 172:Drivers/BSP/Components/iis2dlpc/iis2dlpc_reg.c ****   if (ret == 0)
 434              		.loc 1 172 3 is_stmt 1 view .LVU80
 435              		.loc 1 172 6 is_stmt 0 view .LVU81
 436 0012 0346     		mov	r3, r0
 437 0014 18B1     		cbz	r0, .L46
 438              	.L43:
 173:Drivers/BSP/Components/iis2dlpc/iis2dlpc_reg.c ****   {
 174:Drivers/BSP/Components/iis2dlpc/iis2dlpc_reg.c ****     ctrl1.mode = ((uint8_t) val & 0x0CU) >> 2;
 175:Drivers/BSP/Components/iis2dlpc/iis2dlpc_reg.c ****     ctrl1.lp_mode = (uint8_t) val & 0x03U ;
 176:Drivers/BSP/Components/iis2dlpc/iis2dlpc_reg.c ****     ret = iis2dlpc_write_reg(ctx, IIS2DLPC_CTRL1, (uint8_t *) &ctrl1, 1);
 177:Drivers/BSP/Components/iis2dlpc/iis2dlpc_reg.c ****   }
 178:Drivers/BSP/Components/iis2dlpc/iis2dlpc_reg.c **** 
 179:Drivers/BSP/Components/iis2dlpc/iis2dlpc_reg.c ****   if (ret == 0)
 180:Drivers/BSP/Components/iis2dlpc/iis2dlpc_reg.c ****   {
 181:Drivers/BSP/Components/iis2dlpc/iis2dlpc_reg.c ****     ret = iis2dlpc_read_reg(ctx, IIS2DLPC_CTRL6, (uint8_t *) &ctrl6, 1);
 182:Drivers/BSP/Components/iis2dlpc/iis2dlpc_reg.c ****   }
 183:Drivers/BSP/Components/iis2dlpc/iis2dlpc_reg.c **** 
 184:Drivers/BSP/Components/iis2dlpc/iis2dlpc_reg.c ****   if (ret == 0)
 439              		.loc 1 184 3 is_stmt 1 view .LVU82
 440              		.loc 1 184 6 is_stmt 0 view .LVU83
 441 0016 03B3     		cbz	r3, .L47
 442              	.L42:
 185:Drivers/BSP/Components/iis2dlpc/iis2dlpc_reg.c ****   {
 186:Drivers/BSP/Components/iis2dlpc/iis2dlpc_reg.c ****     ctrl6.low_noise = ((uint8_t) val & 0x10U) >> 4;
 187:Drivers/BSP/Components/iis2dlpc/iis2dlpc_reg.c ****     ret = iis2dlpc_write_reg(ctx, IIS2DLPC_CTRL6, (uint8_t *) &ctrl6, 1);
 188:Drivers/BSP/Components/iis2dlpc/iis2dlpc_reg.c ****   }
 189:Drivers/BSP/Components/iis2dlpc/iis2dlpc_reg.c **** 
 190:Drivers/BSP/Components/iis2dlpc/iis2dlpc_reg.c ****   else
 191:Drivers/BSP/Components/iis2dlpc/iis2dlpc_reg.c ****   {
 192:Drivers/BSP/Components/iis2dlpc/iis2dlpc_reg.c ****     ret = ret;
 193:Drivers/BSP/Components/iis2dlpc/iis2dlpc_reg.c ****   }
 194:Drivers/BSP/Components/iis2dlpc/iis2dlpc_reg.c **** 
 195:Drivers/BSP/Components/iis2dlpc/iis2dlpc_reg.c ****   return ret;
 196:Drivers/BSP/Components/iis2dlpc/iis2dlpc_reg.c **** }
 443              		.loc 1 196 1 view .LVU84
 444 0018 1846     		mov	r0, r3
 445              	.LVL22:
 446              		.loc 1 196 1 view .LVU85
 447 001a 03B0     		add	sp, sp, #12
 448              		.cfi_remember_state
 449              		.cfi_def_cfa_offset 12
 450              		@ sp needed
ARM GAS  C:\Temp\ccGZlXNO.s 			page 12


 451 001c 30BD     		pop	{r4, r5, pc}
 452              	.LVL23:
 453              	.L46:
 454              		.cfi_restore_state
 174:Drivers/BSP/Components/iis2dlpc/iis2dlpc_reg.c ****     ctrl1.lp_mode = (uint8_t) val & 0x03U ;
 455              		.loc 1 174 5 is_stmt 1 view .LVU86
 174:Drivers/BSP/Components/iis2dlpc/iis2dlpc_reg.c ****     ctrl1.lp_mode = (uint8_t) val & 0x03U ;
 456              		.loc 1 174 42 is_stmt 0 view .LVU87
 457 001e C4F38103 		ubfx	r3, r4, #2, #2
 174:Drivers/BSP/Components/iis2dlpc/iis2dlpc_reg.c ****     ctrl1.lp_mode = (uint8_t) val & 0x03U ;
 458              		.loc 1 174 16 view .LVU88
 459 0022 9DF80420 		ldrb	r2, [sp, #4]	@ zero_extendqisi2
 460 0026 63F38302 		bfi	r2, r3, #2, #2
 461 002a 8DF80420 		strb	r2, [sp, #4]
 175:Drivers/BSP/Components/iis2dlpc/iis2dlpc_reg.c ****     ret = iis2dlpc_write_reg(ctx, IIS2DLPC_CTRL1, (uint8_t *) &ctrl1, 1);
 462              		.loc 1 175 5 is_stmt 1 view .LVU89
 175:Drivers/BSP/Components/iis2dlpc/iis2dlpc_reg.c ****     ret = iis2dlpc_write_reg(ctx, IIS2DLPC_CTRL1, (uint8_t *) &ctrl1, 1);
 463              		.loc 1 175 19 is_stmt 0 view .LVU90
 464 002e D3B2     		uxtb	r3, r2
 465 0030 64F30103 		bfi	r3, r4, #0, #2
 466 0034 8DF80430 		strb	r3, [sp, #4]
 176:Drivers/BSP/Components/iis2dlpc/iis2dlpc_reg.c ****   }
 467              		.loc 1 176 5 is_stmt 1 view .LVU91
 176:Drivers/BSP/Components/iis2dlpc/iis2dlpc_reg.c ****   }
 468              		.loc 1 176 11 is_stmt 0 view .LVU92
 469 0038 0123     		movs	r3, #1
 470 003a 01AA     		add	r2, sp, #4
 471 003c 2021     		movs	r1, #32
 472 003e 2846     		mov	r0, r5
 473              	.LVL24:
 176:Drivers/BSP/Components/iis2dlpc/iis2dlpc_reg.c ****   }
 474              		.loc 1 176 11 view .LVU93
 475 0040 FFF7FEFF 		bl	iis2dlpc_write_reg
 476              	.LVL25:
 179:Drivers/BSP/Components/iis2dlpc/iis2dlpc_reg.c ****   {
 477              		.loc 1 179 3 is_stmt 1 view .LVU94
 179:Drivers/BSP/Components/iis2dlpc/iis2dlpc_reg.c ****   {
 478              		.loc 1 179 6 is_stmt 0 view .LVU95
 479 0044 0346     		mov	r3, r0
 480 0046 0028     		cmp	r0, #0
 481 0048 E6D1     		bne	.L42
 181:Drivers/BSP/Components/iis2dlpc/iis2dlpc_reg.c ****   }
 482              		.loc 1 181 5 is_stmt 1 view .LVU96
 181:Drivers/BSP/Components/iis2dlpc/iis2dlpc_reg.c ****   }
 483              		.loc 1 181 11 is_stmt 0 view .LVU97
 484 004a 0123     		movs	r3, #1
 485 004c 6A46     		mov	r2, sp
 486 004e 2521     		movs	r1, #37
 487 0050 2846     		mov	r0, r5
 488              	.LVL26:
 181:Drivers/BSP/Components/iis2dlpc/iis2dlpc_reg.c ****   }
 489              		.loc 1 181 11 view .LVU98
 490 0052 FFF7FEFF 		bl	iis2dlpc_read_reg
 491              	.LVL27:
 492 0056 0346     		mov	r3, r0
 493              	.LVL28:
 181:Drivers/BSP/Components/iis2dlpc/iis2dlpc_reg.c ****   }
ARM GAS  C:\Temp\ccGZlXNO.s 			page 13


 494              		.loc 1 181 11 view .LVU99
 495 0058 DDE7     		b	.L43
 496              	.L47:
 186:Drivers/BSP/Components/iis2dlpc/iis2dlpc_reg.c ****     ret = iis2dlpc_write_reg(ctx, IIS2DLPC_CTRL6, (uint8_t *) &ctrl6, 1);
 497              		.loc 1 186 5 is_stmt 1 view .LVU100
 186:Drivers/BSP/Components/iis2dlpc/iis2dlpc_reg.c ****     ret = iis2dlpc_write_reg(ctx, IIS2DLPC_CTRL6, (uint8_t *) &ctrl6, 1);
 498              		.loc 1 186 47 is_stmt 0 view .LVU101
 499 005a C4F30011 		ubfx	r1, r4, #4, #1
 186:Drivers/BSP/Components/iis2dlpc/iis2dlpc_reg.c ****     ret = iis2dlpc_write_reg(ctx, IIS2DLPC_CTRL6, (uint8_t *) &ctrl6, 1);
 500              		.loc 1 186 21 view .LVU102
 501 005e 9DF80030 		ldrb	r3, [sp]	@ zero_extendqisi2
 502 0062 61F38203 		bfi	r3, r1, #2, #1
 503 0066 8DF80030 		strb	r3, [sp]
 187:Drivers/BSP/Components/iis2dlpc/iis2dlpc_reg.c ****   }
 504              		.loc 1 187 5 is_stmt 1 view .LVU103
 187:Drivers/BSP/Components/iis2dlpc/iis2dlpc_reg.c ****   }
 505              		.loc 1 187 11 is_stmt 0 view .LVU104
 506 006a 0123     		movs	r3, #1
 507 006c 6A46     		mov	r2, sp
 508 006e 2521     		movs	r1, #37
 509 0070 2846     		mov	r0, r5
 510              	.LVL29:
 187:Drivers/BSP/Components/iis2dlpc/iis2dlpc_reg.c ****   }
 511              		.loc 1 187 11 view .LVU105
 512 0072 FFF7FEFF 		bl	iis2dlpc_write_reg
 513              	.LVL30:
 514 0076 0346     		mov	r3, r0
 515              	.LVL31:
 195:Drivers/BSP/Components/iis2dlpc/iis2dlpc_reg.c **** }
 516              		.loc 1 195 3 is_stmt 1 view .LVU106
 195:Drivers/BSP/Components/iis2dlpc/iis2dlpc_reg.c **** }
 517              		.loc 1 195 10 is_stmt 0 view .LVU107
 518 0078 CEE7     		b	.L42
 519              		.cfi_endproc
 520              	.LFE11:
 522              		.section	.text.iis2dlpc_power_mode_get,"ax",%progbits
 523              		.align	1
 524              		.global	iis2dlpc_power_mode_get
 525              		.syntax unified
 526              		.thumb
 527              		.thumb_func
 529              	iis2dlpc_power_mode_get:
 530              	.LVL32:
 531              	.LFB12:
 197:Drivers/BSP/Components/iis2dlpc/iis2dlpc_reg.c **** 
 198:Drivers/BSP/Components/iis2dlpc/iis2dlpc_reg.c **** /**
 199:Drivers/BSP/Components/iis2dlpc/iis2dlpc_reg.c ****   * @brief  Select accelerometer operating modes.[get]
 200:Drivers/BSP/Components/iis2dlpc/iis2dlpc_reg.c ****   *
 201:Drivers/BSP/Components/iis2dlpc/iis2dlpc_reg.c ****   * @param  ctx      read / write interface definitions
 202:Drivers/BSP/Components/iis2dlpc/iis2dlpc_reg.c ****   * @param  val      change the values of mode / lp_mode in reg CTRL1
 203:Drivers/BSP/Components/iis2dlpc/iis2dlpc_reg.c ****   *                  and low_noise in reg CTRL6
 204:Drivers/BSP/Components/iis2dlpc/iis2dlpc_reg.c ****   * @retval          interface status (MANDATORY: return 0 -> no Error)
 205:Drivers/BSP/Components/iis2dlpc/iis2dlpc_reg.c ****   *
 206:Drivers/BSP/Components/iis2dlpc/iis2dlpc_reg.c ****   */
 207:Drivers/BSP/Components/iis2dlpc/iis2dlpc_reg.c **** int32_t iis2dlpc_power_mode_get(const stmdev_ctx_t *ctx,
 208:Drivers/BSP/Components/iis2dlpc/iis2dlpc_reg.c ****                                 iis2dlpc_mode_t *val)
 209:Drivers/BSP/Components/iis2dlpc/iis2dlpc_reg.c **** {
ARM GAS  C:\Temp\ccGZlXNO.s 			page 14


 532              		.loc 1 209 1 is_stmt 1 view -0
 533              		.cfi_startproc
 534              		@ args = 0, pretend = 0, frame = 8
 535              		@ frame_needed = 0, uses_anonymous_args = 0
 536              		.loc 1 209 1 is_stmt 0 view .LVU109
 537 0000 30B5     		push	{r4, r5, lr}
 538              		.cfi_def_cfa_offset 12
 539              		.cfi_offset 4, -12
 540              		.cfi_offset 5, -8
 541              		.cfi_offset 14, -4
 542 0002 83B0     		sub	sp, sp, #12
 543              		.cfi_def_cfa_offset 24
 544 0004 0446     		mov	r4, r0
 545 0006 0D46     		mov	r5, r1
 210:Drivers/BSP/Components/iis2dlpc/iis2dlpc_reg.c ****   iis2dlpc_ctrl1_t ctrl1;
 546              		.loc 1 210 3 is_stmt 1 view .LVU110
 211:Drivers/BSP/Components/iis2dlpc/iis2dlpc_reg.c ****   iis2dlpc_ctrl6_t ctrl6;
 547              		.loc 1 211 3 view .LVU111
 212:Drivers/BSP/Components/iis2dlpc/iis2dlpc_reg.c ****   int32_t ret;
 548              		.loc 1 212 3 view .LVU112
 213:Drivers/BSP/Components/iis2dlpc/iis2dlpc_reg.c **** 
 214:Drivers/BSP/Components/iis2dlpc/iis2dlpc_reg.c ****   ret = iis2dlpc_read_reg(ctx, IIS2DLPC_CTRL1, (uint8_t *) &ctrl1, 1);
 549              		.loc 1 214 3 view .LVU113
 550              		.loc 1 214 9 is_stmt 0 view .LVU114
 551 0008 0123     		movs	r3, #1
 552 000a 01AA     		add	r2, sp, #4
 553 000c 2021     		movs	r1, #32
 554              	.LVL33:
 555              		.loc 1 214 9 view .LVU115
 556 000e FFF7FEFF 		bl	iis2dlpc_read_reg
 557              	.LVL34:
 215:Drivers/BSP/Components/iis2dlpc/iis2dlpc_reg.c **** 
 216:Drivers/BSP/Components/iis2dlpc/iis2dlpc_reg.c ****   if (ret == 0)
 558              		.loc 1 216 3 is_stmt 1 view .LVU116
 559              		.loc 1 216 6 is_stmt 0 view .LVU117
 560 0012 08B1     		cbz	r0, .L71
 561              	.LVL35:
 562              	.L48:
 217:Drivers/BSP/Components/iis2dlpc/iis2dlpc_reg.c ****   {
 218:Drivers/BSP/Components/iis2dlpc/iis2dlpc_reg.c ****     ret = iis2dlpc_read_reg(ctx, IIS2DLPC_CTRL6, (uint8_t *) &ctrl6, 1);
 219:Drivers/BSP/Components/iis2dlpc/iis2dlpc_reg.c **** 
 220:Drivers/BSP/Components/iis2dlpc/iis2dlpc_reg.c ****     switch (((ctrl6.low_noise << 4) + (ctrl1.mode << 2) +
 221:Drivers/BSP/Components/iis2dlpc/iis2dlpc_reg.c ****              ctrl1.lp_mode))
 222:Drivers/BSP/Components/iis2dlpc/iis2dlpc_reg.c ****     {
 223:Drivers/BSP/Components/iis2dlpc/iis2dlpc_reg.c ****       case IIS2DLPC_HIGH_PERFORMANCE:
 224:Drivers/BSP/Components/iis2dlpc/iis2dlpc_reg.c ****         *val = IIS2DLPC_HIGH_PERFORMANCE;
 225:Drivers/BSP/Components/iis2dlpc/iis2dlpc_reg.c ****         break;
 226:Drivers/BSP/Components/iis2dlpc/iis2dlpc_reg.c **** 
 227:Drivers/BSP/Components/iis2dlpc/iis2dlpc_reg.c ****       case IIS2DLPC_CONT_LOW_PWR_4:
 228:Drivers/BSP/Components/iis2dlpc/iis2dlpc_reg.c ****         *val = IIS2DLPC_CONT_LOW_PWR_4;
 229:Drivers/BSP/Components/iis2dlpc/iis2dlpc_reg.c ****         break;
 230:Drivers/BSP/Components/iis2dlpc/iis2dlpc_reg.c **** 
 231:Drivers/BSP/Components/iis2dlpc/iis2dlpc_reg.c ****       case IIS2DLPC_CONT_LOW_PWR_3:
 232:Drivers/BSP/Components/iis2dlpc/iis2dlpc_reg.c ****         *val = IIS2DLPC_CONT_LOW_PWR_3;
 233:Drivers/BSP/Components/iis2dlpc/iis2dlpc_reg.c ****         break;
 234:Drivers/BSP/Components/iis2dlpc/iis2dlpc_reg.c **** 
 235:Drivers/BSP/Components/iis2dlpc/iis2dlpc_reg.c ****       case IIS2DLPC_CONT_LOW_PWR_2:
ARM GAS  C:\Temp\ccGZlXNO.s 			page 15


 236:Drivers/BSP/Components/iis2dlpc/iis2dlpc_reg.c ****         *val = IIS2DLPC_CONT_LOW_PWR_2;
 237:Drivers/BSP/Components/iis2dlpc/iis2dlpc_reg.c ****         break;
 238:Drivers/BSP/Components/iis2dlpc/iis2dlpc_reg.c **** 
 239:Drivers/BSP/Components/iis2dlpc/iis2dlpc_reg.c ****       case IIS2DLPC_CONT_LOW_PWR_12bit:
 240:Drivers/BSP/Components/iis2dlpc/iis2dlpc_reg.c ****         *val = IIS2DLPC_CONT_LOW_PWR_12bit;
 241:Drivers/BSP/Components/iis2dlpc/iis2dlpc_reg.c ****         break;
 242:Drivers/BSP/Components/iis2dlpc/iis2dlpc_reg.c **** 
 243:Drivers/BSP/Components/iis2dlpc/iis2dlpc_reg.c ****       case IIS2DLPC_SINGLE_LOW_PWR_4:
 244:Drivers/BSP/Components/iis2dlpc/iis2dlpc_reg.c ****         *val = IIS2DLPC_SINGLE_LOW_PWR_4;
 245:Drivers/BSP/Components/iis2dlpc/iis2dlpc_reg.c ****         break;
 246:Drivers/BSP/Components/iis2dlpc/iis2dlpc_reg.c **** 
 247:Drivers/BSP/Components/iis2dlpc/iis2dlpc_reg.c ****       case IIS2DLPC_SINGLE_LOW_PWR_3:
 248:Drivers/BSP/Components/iis2dlpc/iis2dlpc_reg.c ****         *val = IIS2DLPC_SINGLE_LOW_PWR_3;
 249:Drivers/BSP/Components/iis2dlpc/iis2dlpc_reg.c ****         break;
 250:Drivers/BSP/Components/iis2dlpc/iis2dlpc_reg.c **** 
 251:Drivers/BSP/Components/iis2dlpc/iis2dlpc_reg.c ****       case IIS2DLPC_SINGLE_LOW_PWR_2:
 252:Drivers/BSP/Components/iis2dlpc/iis2dlpc_reg.c ****         *val = IIS2DLPC_SINGLE_LOW_PWR_2;
 253:Drivers/BSP/Components/iis2dlpc/iis2dlpc_reg.c ****         break;
 254:Drivers/BSP/Components/iis2dlpc/iis2dlpc_reg.c **** 
 255:Drivers/BSP/Components/iis2dlpc/iis2dlpc_reg.c ****       case IIS2DLPC_SINGLE_LOW_PWR_12bit:
 256:Drivers/BSP/Components/iis2dlpc/iis2dlpc_reg.c ****         *val = IIS2DLPC_SINGLE_LOW_PWR_12bit;
 257:Drivers/BSP/Components/iis2dlpc/iis2dlpc_reg.c ****         break;
 258:Drivers/BSP/Components/iis2dlpc/iis2dlpc_reg.c **** 
 259:Drivers/BSP/Components/iis2dlpc/iis2dlpc_reg.c ****       case IIS2DLPC_HIGH_PERFORMANCE_LOW_NOISE:
 260:Drivers/BSP/Components/iis2dlpc/iis2dlpc_reg.c ****         *val = IIS2DLPC_HIGH_PERFORMANCE_LOW_NOISE;
 261:Drivers/BSP/Components/iis2dlpc/iis2dlpc_reg.c ****         break;
 262:Drivers/BSP/Components/iis2dlpc/iis2dlpc_reg.c **** 
 263:Drivers/BSP/Components/iis2dlpc/iis2dlpc_reg.c ****       case IIS2DLPC_CONT_LOW_PWR_LOW_NOISE_4:
 264:Drivers/BSP/Components/iis2dlpc/iis2dlpc_reg.c ****         *val = IIS2DLPC_CONT_LOW_PWR_LOW_NOISE_4;
 265:Drivers/BSP/Components/iis2dlpc/iis2dlpc_reg.c ****         break;
 266:Drivers/BSP/Components/iis2dlpc/iis2dlpc_reg.c **** 
 267:Drivers/BSP/Components/iis2dlpc/iis2dlpc_reg.c ****       case IIS2DLPC_CONT_LOW_PWR_LOW_NOISE_3:
 268:Drivers/BSP/Components/iis2dlpc/iis2dlpc_reg.c ****         *val = IIS2DLPC_CONT_LOW_PWR_LOW_NOISE_3;
 269:Drivers/BSP/Components/iis2dlpc/iis2dlpc_reg.c ****         break;
 270:Drivers/BSP/Components/iis2dlpc/iis2dlpc_reg.c **** 
 271:Drivers/BSP/Components/iis2dlpc/iis2dlpc_reg.c ****       case IIS2DLPC_CONT_LOW_PWR_LOW_NOISE_2:
 272:Drivers/BSP/Components/iis2dlpc/iis2dlpc_reg.c ****         *val = IIS2DLPC_CONT_LOW_PWR_LOW_NOISE_2;
 273:Drivers/BSP/Components/iis2dlpc/iis2dlpc_reg.c ****         break;
 274:Drivers/BSP/Components/iis2dlpc/iis2dlpc_reg.c **** 
 275:Drivers/BSP/Components/iis2dlpc/iis2dlpc_reg.c ****       case IIS2DLPC_CONT_LOW_PWR_LOW_NOISE_12bit:
 276:Drivers/BSP/Components/iis2dlpc/iis2dlpc_reg.c ****         *val = IIS2DLPC_CONT_LOW_PWR_LOW_NOISE_12bit;
 277:Drivers/BSP/Components/iis2dlpc/iis2dlpc_reg.c ****         break;
 278:Drivers/BSP/Components/iis2dlpc/iis2dlpc_reg.c **** 
 279:Drivers/BSP/Components/iis2dlpc/iis2dlpc_reg.c ****       case IIS2DLPC_SINGLE_LOW_PWR_LOW_NOISE_4:
 280:Drivers/BSP/Components/iis2dlpc/iis2dlpc_reg.c ****         *val = IIS2DLPC_SINGLE_LOW_PWR_LOW_NOISE_4;
 281:Drivers/BSP/Components/iis2dlpc/iis2dlpc_reg.c ****         break;
 282:Drivers/BSP/Components/iis2dlpc/iis2dlpc_reg.c **** 
 283:Drivers/BSP/Components/iis2dlpc/iis2dlpc_reg.c ****       case IIS2DLPC_SINGLE_LOW_PWR_LOW_NOISE_3:
 284:Drivers/BSP/Components/iis2dlpc/iis2dlpc_reg.c ****         *val = IIS2DLPC_SINGLE_LOW_PWR_LOW_NOISE_3;
 285:Drivers/BSP/Components/iis2dlpc/iis2dlpc_reg.c ****         break;
 286:Drivers/BSP/Components/iis2dlpc/iis2dlpc_reg.c **** 
 287:Drivers/BSP/Components/iis2dlpc/iis2dlpc_reg.c ****       case IIS2DLPC_SINGLE_LOW_PWR_LOW_NOISE_2:
 288:Drivers/BSP/Components/iis2dlpc/iis2dlpc_reg.c ****         *val = IIS2DLPC_SINGLE_LOW_PWR_LOW_NOISE_2;
 289:Drivers/BSP/Components/iis2dlpc/iis2dlpc_reg.c ****         break;
 290:Drivers/BSP/Components/iis2dlpc/iis2dlpc_reg.c **** 
 291:Drivers/BSP/Components/iis2dlpc/iis2dlpc_reg.c ****       case IIS2DLPC_SINGLE_LOW_LOW_NOISE_PWR_12bit:
 292:Drivers/BSP/Components/iis2dlpc/iis2dlpc_reg.c ****         *val = IIS2DLPC_SINGLE_LOW_LOW_NOISE_PWR_12bit;
ARM GAS  C:\Temp\ccGZlXNO.s 			page 16


 293:Drivers/BSP/Components/iis2dlpc/iis2dlpc_reg.c ****         break;
 294:Drivers/BSP/Components/iis2dlpc/iis2dlpc_reg.c **** 
 295:Drivers/BSP/Components/iis2dlpc/iis2dlpc_reg.c ****       default:
 296:Drivers/BSP/Components/iis2dlpc/iis2dlpc_reg.c ****         *val = IIS2DLPC_HIGH_PERFORMANCE;
 297:Drivers/BSP/Components/iis2dlpc/iis2dlpc_reg.c ****         break;
 298:Drivers/BSP/Components/iis2dlpc/iis2dlpc_reg.c ****     }
 299:Drivers/BSP/Components/iis2dlpc/iis2dlpc_reg.c ****   }
 300:Drivers/BSP/Components/iis2dlpc/iis2dlpc_reg.c **** 
 301:Drivers/BSP/Components/iis2dlpc/iis2dlpc_reg.c ****   return ret;
 302:Drivers/BSP/Components/iis2dlpc/iis2dlpc_reg.c **** }
 563              		.loc 1 302 1 view .LVU118
 564 0014 03B0     		add	sp, sp, #12
 565              		.cfi_remember_state
 566              		.cfi_def_cfa_offset 12
 567              		@ sp needed
 568 0016 30BD     		pop	{r4, r5, pc}
 569              	.LVL36:
 570              	.L71:
 571              		.cfi_restore_state
 218:Drivers/BSP/Components/iis2dlpc/iis2dlpc_reg.c **** 
 572              		.loc 1 218 5 is_stmt 1 view .LVU119
 218:Drivers/BSP/Components/iis2dlpc/iis2dlpc_reg.c **** 
 573              		.loc 1 218 11 is_stmt 0 view .LVU120
 574 0018 0123     		movs	r3, #1
 575              	.LVL37:
 218:Drivers/BSP/Components/iis2dlpc/iis2dlpc_reg.c **** 
 576              		.loc 1 218 11 view .LVU121
 577 001a 6A46     		mov	r2, sp
 578 001c 2521     		movs	r1, #37
 579 001e 2046     		mov	r0, r4
 580 0020 FFF7FEFF 		bl	iis2dlpc_read_reg
 581              	.LVL38:
 220:Drivers/BSP/Components/iis2dlpc/iis2dlpc_reg.c ****              ctrl1.lp_mode))
 582              		.loc 1 220 5 is_stmt 1 view .LVU122
 220:Drivers/BSP/Components/iis2dlpc/iis2dlpc_reg.c ****              ctrl1.lp_mode))
 583              		.loc 1 220 20 is_stmt 0 view .LVU123
 584 0024 9DF80010 		ldrb	r1, [sp]	@ zero_extendqisi2
 585 0028 C1F38001 		ubfx	r1, r1, #2, #1
 220:Drivers/BSP/Components/iis2dlpc/iis2dlpc_reg.c ****              ctrl1.lp_mode))
 586              		.loc 1 220 45 view .LVU124
 587 002c 9DF80420 		ldrb	r2, [sp, #4]	@ zero_extendqisi2
 220:Drivers/BSP/Components/iis2dlpc/iis2dlpc_reg.c ****              ctrl1.lp_mode))
 588              		.loc 1 220 51 view .LVU125
 589 0030 02F00C03 		and	r3, r2, #12
 220:Drivers/BSP/Components/iis2dlpc/iis2dlpc_reg.c ****              ctrl1.lp_mode))
 590              		.loc 1 220 37 view .LVU126
 591 0034 03EB0113 		add	r3, r3, r1, lsl #4
 221:Drivers/BSP/Components/iis2dlpc/iis2dlpc_reg.c ****     {
 592              		.loc 1 221 19 view .LVU127
 593 0038 02F00302 		and	r2, r2, #3
 220:Drivers/BSP/Components/iis2dlpc/iis2dlpc_reg.c ****              ctrl1.lp_mode))
 594              		.loc 1 220 57 view .LVU128
 595 003c 1344     		add	r3, r3, r2
 220:Drivers/BSP/Components/iis2dlpc/iis2dlpc_reg.c ****              ctrl1.lp_mode))
 596              		.loc 1 220 5 view .LVU129
 597 003e 1B2B     		cmp	r3, #27
 598 0040 45D8     		bhi	.L50
ARM GAS  C:\Temp\ccGZlXNO.s 			page 17


 599 0042 DFE803F0 		tbb	[pc, r3]
 600              	.L52:
 601 0046 1A       		.byte	(.L69-.L52)/2
 602 0047 17       		.byte	(.L68-.L52)/2
 603 0048 14       		.byte	(.L67-.L52)/2
 604 0049 11       		.byte	(.L66-.L52)/2
 605 004a 0E       		.byte	(.L65-.L52)/2
 606 004b 44       		.byte	(.L50-.L52)/2
 607 004c 44       		.byte	(.L50-.L52)/2
 608 004d 44       		.byte	(.L50-.L52)/2
 609 004e 26       		.byte	(.L64-.L52)/2
 610 004f 23       		.byte	(.L63-.L52)/2
 611 0050 20       		.byte	(.L62-.L52)/2
 612 0051 1D       		.byte	(.L61-.L52)/2
 613 0052 44       		.byte	(.L50-.L52)/2
 614 0053 44       		.byte	(.L50-.L52)/2
 615 0054 44       		.byte	(.L50-.L52)/2
 616 0055 44       		.byte	(.L50-.L52)/2
 617 0056 35       		.byte	(.L60-.L52)/2
 618 0057 32       		.byte	(.L59-.L52)/2
 619 0058 2F       		.byte	(.L58-.L52)/2
 620 0059 2C       		.byte	(.L57-.L52)/2
 621 005a 29       		.byte	(.L56-.L52)/2
 622 005b 44       		.byte	(.L50-.L52)/2
 623 005c 44       		.byte	(.L50-.L52)/2
 624 005d 44       		.byte	(.L50-.L52)/2
 625 005e 41       		.byte	(.L55-.L52)/2
 626 005f 3E       		.byte	(.L54-.L52)/2
 627 0060 3B       		.byte	(.L53-.L52)/2
 628 0061 38       		.byte	(.L51-.L52)/2
 629              		.p2align 1
 630              	.L65:
 224:Drivers/BSP/Components/iis2dlpc/iis2dlpc_reg.c ****         break;
 631              		.loc 1 224 9 is_stmt 1 view .LVU130
 224:Drivers/BSP/Components/iis2dlpc/iis2dlpc_reg.c ****         break;
 632              		.loc 1 224 14 is_stmt 0 view .LVU131
 633 0062 0423     		movs	r3, #4
 634 0064 2B70     		strb	r3, [r5]
 225:Drivers/BSP/Components/iis2dlpc/iis2dlpc_reg.c **** 
 635              		.loc 1 225 9 is_stmt 1 view .LVU132
 636 0066 D5E7     		b	.L48
 637              	.L66:
 228:Drivers/BSP/Components/iis2dlpc/iis2dlpc_reg.c ****         break;
 638              		.loc 1 228 9 view .LVU133
 228:Drivers/BSP/Components/iis2dlpc/iis2dlpc_reg.c ****         break;
 639              		.loc 1 228 14 is_stmt 0 view .LVU134
 640 0068 0323     		movs	r3, #3
 641 006a 2B70     		strb	r3, [r5]
 229:Drivers/BSP/Components/iis2dlpc/iis2dlpc_reg.c **** 
 642              		.loc 1 229 9 is_stmt 1 view .LVU135
 643 006c D2E7     		b	.L48
 644              	.L67:
 232:Drivers/BSP/Components/iis2dlpc/iis2dlpc_reg.c ****         break;
 645              		.loc 1 232 9 view .LVU136
 232:Drivers/BSP/Components/iis2dlpc/iis2dlpc_reg.c ****         break;
 646              		.loc 1 232 14 is_stmt 0 view .LVU137
 647 006e 0223     		movs	r3, #2
ARM GAS  C:\Temp\ccGZlXNO.s 			page 18


 648 0070 2B70     		strb	r3, [r5]
 233:Drivers/BSP/Components/iis2dlpc/iis2dlpc_reg.c **** 
 649              		.loc 1 233 9 is_stmt 1 view .LVU138
 650 0072 CFE7     		b	.L48
 651              	.L68:
 236:Drivers/BSP/Components/iis2dlpc/iis2dlpc_reg.c ****         break;
 652              		.loc 1 236 9 view .LVU139
 236:Drivers/BSP/Components/iis2dlpc/iis2dlpc_reg.c ****         break;
 653              		.loc 1 236 14 is_stmt 0 view .LVU140
 654 0074 0123     		movs	r3, #1
 655 0076 2B70     		strb	r3, [r5]
 237:Drivers/BSP/Components/iis2dlpc/iis2dlpc_reg.c **** 
 656              		.loc 1 237 9 is_stmt 1 view .LVU141
 657 0078 CCE7     		b	.L48
 658              	.L69:
 240:Drivers/BSP/Components/iis2dlpc/iis2dlpc_reg.c ****         break;
 659              		.loc 1 240 9 view .LVU142
 240:Drivers/BSP/Components/iis2dlpc/iis2dlpc_reg.c ****         break;
 660              		.loc 1 240 14 is_stmt 0 view .LVU143
 661 007a 0023     		movs	r3, #0
 662 007c 2B70     		strb	r3, [r5]
 241:Drivers/BSP/Components/iis2dlpc/iis2dlpc_reg.c **** 
 663              		.loc 1 241 9 is_stmt 1 view .LVU144
 664 007e C9E7     		b	.L48
 665              	.L61:
 244:Drivers/BSP/Components/iis2dlpc/iis2dlpc_reg.c ****         break;
 666              		.loc 1 244 9 view .LVU145
 244:Drivers/BSP/Components/iis2dlpc/iis2dlpc_reg.c ****         break;
 667              		.loc 1 244 14 is_stmt 0 view .LVU146
 668 0080 0B23     		movs	r3, #11
 669 0082 2B70     		strb	r3, [r5]
 245:Drivers/BSP/Components/iis2dlpc/iis2dlpc_reg.c **** 
 670              		.loc 1 245 9 is_stmt 1 view .LVU147
 671 0084 C6E7     		b	.L48
 672              	.L62:
 248:Drivers/BSP/Components/iis2dlpc/iis2dlpc_reg.c ****         break;
 673              		.loc 1 248 9 view .LVU148
 248:Drivers/BSP/Components/iis2dlpc/iis2dlpc_reg.c ****         break;
 674              		.loc 1 248 14 is_stmt 0 view .LVU149
 675 0086 0A23     		movs	r3, #10
 676 0088 2B70     		strb	r3, [r5]
 249:Drivers/BSP/Components/iis2dlpc/iis2dlpc_reg.c **** 
 677              		.loc 1 249 9 is_stmt 1 view .LVU150
 678 008a C3E7     		b	.L48
 679              	.L63:
 252:Drivers/BSP/Components/iis2dlpc/iis2dlpc_reg.c ****         break;
 680              		.loc 1 252 9 view .LVU151
 252:Drivers/BSP/Components/iis2dlpc/iis2dlpc_reg.c ****         break;
 681              		.loc 1 252 14 is_stmt 0 view .LVU152
 682 008c 0923     		movs	r3, #9
 683 008e 2B70     		strb	r3, [r5]
 253:Drivers/BSP/Components/iis2dlpc/iis2dlpc_reg.c **** 
 684              		.loc 1 253 9 is_stmt 1 view .LVU153
 685 0090 C0E7     		b	.L48
 686              	.L64:
 256:Drivers/BSP/Components/iis2dlpc/iis2dlpc_reg.c ****         break;
 687              		.loc 1 256 9 view .LVU154
ARM GAS  C:\Temp\ccGZlXNO.s 			page 19


 256:Drivers/BSP/Components/iis2dlpc/iis2dlpc_reg.c ****         break;
 688              		.loc 1 256 14 is_stmt 0 view .LVU155
 689 0092 0823     		movs	r3, #8
 690 0094 2B70     		strb	r3, [r5]
 257:Drivers/BSP/Components/iis2dlpc/iis2dlpc_reg.c **** 
 691              		.loc 1 257 9 is_stmt 1 view .LVU156
 692 0096 BDE7     		b	.L48
 693              	.L56:
 260:Drivers/BSP/Components/iis2dlpc/iis2dlpc_reg.c ****         break;
 694              		.loc 1 260 9 view .LVU157
 260:Drivers/BSP/Components/iis2dlpc/iis2dlpc_reg.c ****         break;
 695              		.loc 1 260 14 is_stmt 0 view .LVU158
 696 0098 1423     		movs	r3, #20
 697 009a 2B70     		strb	r3, [r5]
 261:Drivers/BSP/Components/iis2dlpc/iis2dlpc_reg.c **** 
 698              		.loc 1 261 9 is_stmt 1 view .LVU159
 699 009c BAE7     		b	.L48
 700              	.L57:
 264:Drivers/BSP/Components/iis2dlpc/iis2dlpc_reg.c ****         break;
 701              		.loc 1 264 9 view .LVU160
 264:Drivers/BSP/Components/iis2dlpc/iis2dlpc_reg.c ****         break;
 702              		.loc 1 264 14 is_stmt 0 view .LVU161
 703 009e 1323     		movs	r3, #19
 704 00a0 2B70     		strb	r3, [r5]
 265:Drivers/BSP/Components/iis2dlpc/iis2dlpc_reg.c **** 
 705              		.loc 1 265 9 is_stmt 1 view .LVU162
 706 00a2 B7E7     		b	.L48
 707              	.L58:
 268:Drivers/BSP/Components/iis2dlpc/iis2dlpc_reg.c ****         break;
 708              		.loc 1 268 9 view .LVU163
 268:Drivers/BSP/Components/iis2dlpc/iis2dlpc_reg.c ****         break;
 709              		.loc 1 268 14 is_stmt 0 view .LVU164
 710 00a4 1223     		movs	r3, #18
 711 00a6 2B70     		strb	r3, [r5]
 269:Drivers/BSP/Components/iis2dlpc/iis2dlpc_reg.c **** 
 712              		.loc 1 269 9 is_stmt 1 view .LVU165
 713 00a8 B4E7     		b	.L48
 714              	.L59:
 272:Drivers/BSP/Components/iis2dlpc/iis2dlpc_reg.c ****         break;
 715              		.loc 1 272 9 view .LVU166
 272:Drivers/BSP/Components/iis2dlpc/iis2dlpc_reg.c ****         break;
 716              		.loc 1 272 14 is_stmt 0 view .LVU167
 717 00aa 1123     		movs	r3, #17
 718 00ac 2B70     		strb	r3, [r5]
 273:Drivers/BSP/Components/iis2dlpc/iis2dlpc_reg.c **** 
 719              		.loc 1 273 9 is_stmt 1 view .LVU168
 720 00ae B1E7     		b	.L48
 721              	.L60:
 276:Drivers/BSP/Components/iis2dlpc/iis2dlpc_reg.c ****         break;
 722              		.loc 1 276 9 view .LVU169
 276:Drivers/BSP/Components/iis2dlpc/iis2dlpc_reg.c ****         break;
 723              		.loc 1 276 14 is_stmt 0 view .LVU170
 724 00b0 1023     		movs	r3, #16
 725 00b2 2B70     		strb	r3, [r5]
 277:Drivers/BSP/Components/iis2dlpc/iis2dlpc_reg.c **** 
 726              		.loc 1 277 9 is_stmt 1 view .LVU171
 727 00b4 AEE7     		b	.L48
ARM GAS  C:\Temp\ccGZlXNO.s 			page 20


 728              	.L51:
 280:Drivers/BSP/Components/iis2dlpc/iis2dlpc_reg.c ****         break;
 729              		.loc 1 280 9 view .LVU172
 280:Drivers/BSP/Components/iis2dlpc/iis2dlpc_reg.c ****         break;
 730              		.loc 1 280 14 is_stmt 0 view .LVU173
 731 00b6 1B23     		movs	r3, #27
 732 00b8 2B70     		strb	r3, [r5]
 281:Drivers/BSP/Components/iis2dlpc/iis2dlpc_reg.c **** 
 733              		.loc 1 281 9 is_stmt 1 view .LVU174
 734 00ba ABE7     		b	.L48
 735              	.L53:
 284:Drivers/BSP/Components/iis2dlpc/iis2dlpc_reg.c ****         break;
 736              		.loc 1 284 9 view .LVU175
 284:Drivers/BSP/Components/iis2dlpc/iis2dlpc_reg.c ****         break;
 737              		.loc 1 284 14 is_stmt 0 view .LVU176
 738 00bc 1A23     		movs	r3, #26
 739 00be 2B70     		strb	r3, [r5]
 285:Drivers/BSP/Components/iis2dlpc/iis2dlpc_reg.c **** 
 740              		.loc 1 285 9 is_stmt 1 view .LVU177
 741 00c0 A8E7     		b	.L48
 742              	.L54:
 288:Drivers/BSP/Components/iis2dlpc/iis2dlpc_reg.c ****         break;
 743              		.loc 1 288 9 view .LVU178
 288:Drivers/BSP/Components/iis2dlpc/iis2dlpc_reg.c ****         break;
 744              		.loc 1 288 14 is_stmt 0 view .LVU179
 745 00c2 1923     		movs	r3, #25
 746 00c4 2B70     		strb	r3, [r5]
 289:Drivers/BSP/Components/iis2dlpc/iis2dlpc_reg.c **** 
 747              		.loc 1 289 9 is_stmt 1 view .LVU180
 748 00c6 A5E7     		b	.L48
 749              	.L55:
 292:Drivers/BSP/Components/iis2dlpc/iis2dlpc_reg.c ****         break;
 750              		.loc 1 292 9 view .LVU181
 292:Drivers/BSP/Components/iis2dlpc/iis2dlpc_reg.c ****         break;
 751              		.loc 1 292 14 is_stmt 0 view .LVU182
 752 00c8 1823     		movs	r3, #24
 753 00ca 2B70     		strb	r3, [r5]
 293:Drivers/BSP/Components/iis2dlpc/iis2dlpc_reg.c **** 
 754              		.loc 1 293 9 is_stmt 1 view .LVU183
 755 00cc A2E7     		b	.L48
 756              	.L50:
 296:Drivers/BSP/Components/iis2dlpc/iis2dlpc_reg.c ****         break;
 757              		.loc 1 296 9 view .LVU184
 296:Drivers/BSP/Components/iis2dlpc/iis2dlpc_reg.c ****         break;
 758              		.loc 1 296 14 is_stmt 0 view .LVU185
 759 00ce 0423     		movs	r3, #4
 760 00d0 2B70     		strb	r3, [r5]
 297:Drivers/BSP/Components/iis2dlpc/iis2dlpc_reg.c ****     }
 761              		.loc 1 297 9 is_stmt 1 view .LVU186
 301:Drivers/BSP/Components/iis2dlpc/iis2dlpc_reg.c **** }
 762              		.loc 1 301 3 view .LVU187
 301:Drivers/BSP/Components/iis2dlpc/iis2dlpc_reg.c **** }
 763              		.loc 1 301 10 is_stmt 0 view .LVU188
 764 00d2 9FE7     		b	.L48
 765              		.cfi_endproc
 766              	.LFE12:
 768              		.section	.text.iis2dlpc_data_rate_set,"ax",%progbits
ARM GAS  C:\Temp\ccGZlXNO.s 			page 21


 769              		.align	1
 770              		.global	iis2dlpc_data_rate_set
 771              		.syntax unified
 772              		.thumb
 773              		.thumb_func
 775              	iis2dlpc_data_rate_set:
 776              	.LVL39:
 777              	.LFB13:
 303:Drivers/BSP/Components/iis2dlpc/iis2dlpc_reg.c **** 
 304:Drivers/BSP/Components/iis2dlpc/iis2dlpc_reg.c **** /**
 305:Drivers/BSP/Components/iis2dlpc/iis2dlpc_reg.c ****   * @brief  Accelerometer data rate selection.[set]
 306:Drivers/BSP/Components/iis2dlpc/iis2dlpc_reg.c ****   *
 307:Drivers/BSP/Components/iis2dlpc/iis2dlpc_reg.c ****   * @param  ctx      read / write interface definitions
 308:Drivers/BSP/Components/iis2dlpc/iis2dlpc_reg.c ****   * @param  val      change the values of odr in reg CTRL1
 309:Drivers/BSP/Components/iis2dlpc/iis2dlpc_reg.c ****   * @retval          interface status (MANDATORY: return 0 -> no Error)
 310:Drivers/BSP/Components/iis2dlpc/iis2dlpc_reg.c ****   *
 311:Drivers/BSP/Components/iis2dlpc/iis2dlpc_reg.c ****   */
 312:Drivers/BSP/Components/iis2dlpc/iis2dlpc_reg.c **** int32_t iis2dlpc_data_rate_set(const stmdev_ctx_t *ctx, iis2dlpc_odr_t val)
 313:Drivers/BSP/Components/iis2dlpc/iis2dlpc_reg.c **** {
 778              		.loc 1 313 1 is_stmt 1 view -0
 779              		.cfi_startproc
 780              		@ args = 0, pretend = 0, frame = 8
 781              		@ frame_needed = 0, uses_anonymous_args = 0
 782              		.loc 1 313 1 is_stmt 0 view .LVU190
 783 0000 30B5     		push	{r4, r5, lr}
 784              		.cfi_def_cfa_offset 12
 785              		.cfi_offset 4, -12
 786              		.cfi_offset 5, -8
 787              		.cfi_offset 14, -4
 788 0002 83B0     		sub	sp, sp, #12
 789              		.cfi_def_cfa_offset 24
 790 0004 0546     		mov	r5, r0
 791 0006 0C46     		mov	r4, r1
 314:Drivers/BSP/Components/iis2dlpc/iis2dlpc_reg.c ****   iis2dlpc_ctrl1_t ctrl1;
 792              		.loc 1 314 3 is_stmt 1 view .LVU191
 315:Drivers/BSP/Components/iis2dlpc/iis2dlpc_reg.c ****   iis2dlpc_ctrl3_t ctrl3;
 793              		.loc 1 315 3 view .LVU192
 316:Drivers/BSP/Components/iis2dlpc/iis2dlpc_reg.c ****   int32_t ret;
 794              		.loc 1 316 3 view .LVU193
 317:Drivers/BSP/Components/iis2dlpc/iis2dlpc_reg.c **** 
 318:Drivers/BSP/Components/iis2dlpc/iis2dlpc_reg.c ****   ret = iis2dlpc_read_reg(ctx, IIS2DLPC_CTRL1, (uint8_t *) &ctrl1, 1);
 795              		.loc 1 318 3 view .LVU194
 796              		.loc 1 318 9 is_stmt 0 view .LVU195
 797 0008 0123     		movs	r3, #1
 798 000a 01AA     		add	r2, sp, #4
 799 000c 2021     		movs	r1, #32
 800              	.LVL40:
 801              		.loc 1 318 9 view .LVU196
 802 000e FFF7FEFF 		bl	iis2dlpc_read_reg
 803              	.LVL41:
 319:Drivers/BSP/Components/iis2dlpc/iis2dlpc_reg.c **** 
 320:Drivers/BSP/Components/iis2dlpc/iis2dlpc_reg.c ****   if (ret == 0)
 804              		.loc 1 320 3 is_stmt 1 view .LVU197
 805              		.loc 1 320 6 is_stmt 0 view .LVU198
 806 0012 0346     		mov	r3, r0
 807 0014 18B1     		cbz	r0, .L76
 808              	.L73:
ARM GAS  C:\Temp\ccGZlXNO.s 			page 22


 321:Drivers/BSP/Components/iis2dlpc/iis2dlpc_reg.c ****   {
 322:Drivers/BSP/Components/iis2dlpc/iis2dlpc_reg.c ****     ctrl1.odr = (uint8_t) val;
 323:Drivers/BSP/Components/iis2dlpc/iis2dlpc_reg.c ****     ret = iis2dlpc_write_reg(ctx, IIS2DLPC_CTRL1, (uint8_t *) &ctrl1, 1);
 324:Drivers/BSP/Components/iis2dlpc/iis2dlpc_reg.c ****   }
 325:Drivers/BSP/Components/iis2dlpc/iis2dlpc_reg.c **** 
 326:Drivers/BSP/Components/iis2dlpc/iis2dlpc_reg.c ****   if (ret == 0)
 327:Drivers/BSP/Components/iis2dlpc/iis2dlpc_reg.c ****   {
 328:Drivers/BSP/Components/iis2dlpc/iis2dlpc_reg.c ****     ret = iis2dlpc_read_reg(ctx, IIS2DLPC_CTRL3, (uint8_t *) &ctrl3, 1);
 329:Drivers/BSP/Components/iis2dlpc/iis2dlpc_reg.c ****   }
 330:Drivers/BSP/Components/iis2dlpc/iis2dlpc_reg.c **** 
 331:Drivers/BSP/Components/iis2dlpc/iis2dlpc_reg.c ****   if (ret == 0)
 809              		.loc 1 331 3 is_stmt 1 view .LVU199
 810              		.loc 1 331 6 is_stmt 0 view .LVU200
 811 0016 CBB1     		cbz	r3, .L77
 812              	.L72:
 332:Drivers/BSP/Components/iis2dlpc/iis2dlpc_reg.c ****   {
 333:Drivers/BSP/Components/iis2dlpc/iis2dlpc_reg.c ****     ctrl3.slp_mode = ((uint8_t) val & 0x30U) >> 4;
 334:Drivers/BSP/Components/iis2dlpc/iis2dlpc_reg.c ****     ret = iis2dlpc_write_reg(ctx, IIS2DLPC_CTRL3, (uint8_t *) &ctrl3, 1);
 335:Drivers/BSP/Components/iis2dlpc/iis2dlpc_reg.c ****   }
 336:Drivers/BSP/Components/iis2dlpc/iis2dlpc_reg.c **** 
 337:Drivers/BSP/Components/iis2dlpc/iis2dlpc_reg.c ****   else
 338:Drivers/BSP/Components/iis2dlpc/iis2dlpc_reg.c ****   {
 339:Drivers/BSP/Components/iis2dlpc/iis2dlpc_reg.c ****     ret = ret;
 340:Drivers/BSP/Components/iis2dlpc/iis2dlpc_reg.c ****   }
 341:Drivers/BSP/Components/iis2dlpc/iis2dlpc_reg.c **** 
 342:Drivers/BSP/Components/iis2dlpc/iis2dlpc_reg.c ****   return ret;
 343:Drivers/BSP/Components/iis2dlpc/iis2dlpc_reg.c **** }
 813              		.loc 1 343 1 view .LVU201
 814 0018 1846     		mov	r0, r3
 815              	.LVL42:
 816              		.loc 1 343 1 view .LVU202
 817 001a 03B0     		add	sp, sp, #12
 818              		.cfi_remember_state
 819              		.cfi_def_cfa_offset 12
 820              		@ sp needed
 821 001c 30BD     		pop	{r4, r5, pc}
 822              	.LVL43:
 823              	.L76:
 824              		.cfi_restore_state
 322:Drivers/BSP/Components/iis2dlpc/iis2dlpc_reg.c ****     ret = iis2dlpc_write_reg(ctx, IIS2DLPC_CTRL1, (uint8_t *) &ctrl1, 1);
 825              		.loc 1 322 5 is_stmt 1 view .LVU203
 322:Drivers/BSP/Components/iis2dlpc/iis2dlpc_reg.c ****     ret = iis2dlpc_write_reg(ctx, IIS2DLPC_CTRL1, (uint8_t *) &ctrl1, 1);
 826              		.loc 1 322 15 is_stmt 0 view .LVU204
 827 001e 9DF80430 		ldrb	r3, [sp, #4]	@ zero_extendqisi2
 828 0022 64F30713 		bfi	r3, r4, #4, #4
 829 0026 8DF80430 		strb	r3, [sp, #4]
 323:Drivers/BSP/Components/iis2dlpc/iis2dlpc_reg.c ****   }
 830              		.loc 1 323 5 is_stmt 1 view .LVU205
 323:Drivers/BSP/Components/iis2dlpc/iis2dlpc_reg.c ****   }
 831              		.loc 1 323 11 is_stmt 0 view .LVU206
 832 002a 0123     		movs	r3, #1
 833 002c 01AA     		add	r2, sp, #4
 834 002e 2021     		movs	r1, #32
 835 0030 2846     		mov	r0, r5
 836              	.LVL44:
 323:Drivers/BSP/Components/iis2dlpc/iis2dlpc_reg.c ****   }
 837              		.loc 1 323 11 view .LVU207
ARM GAS  C:\Temp\ccGZlXNO.s 			page 23


 838 0032 FFF7FEFF 		bl	iis2dlpc_write_reg
 839              	.LVL45:
 326:Drivers/BSP/Components/iis2dlpc/iis2dlpc_reg.c ****   {
 840              		.loc 1 326 3 is_stmt 1 view .LVU208
 326:Drivers/BSP/Components/iis2dlpc/iis2dlpc_reg.c ****   {
 841              		.loc 1 326 6 is_stmt 0 view .LVU209
 842 0036 0346     		mov	r3, r0
 843 0038 0028     		cmp	r0, #0
 844 003a EDD1     		bne	.L72
 328:Drivers/BSP/Components/iis2dlpc/iis2dlpc_reg.c ****   }
 845              		.loc 1 328 5 is_stmt 1 view .LVU210
 328:Drivers/BSP/Components/iis2dlpc/iis2dlpc_reg.c ****   }
 846              		.loc 1 328 11 is_stmt 0 view .LVU211
 847 003c 0123     		movs	r3, #1
 848 003e 6A46     		mov	r2, sp
 849 0040 2221     		movs	r1, #34
 850 0042 2846     		mov	r0, r5
 851              	.LVL46:
 328:Drivers/BSP/Components/iis2dlpc/iis2dlpc_reg.c ****   }
 852              		.loc 1 328 11 view .LVU212
 853 0044 FFF7FEFF 		bl	iis2dlpc_read_reg
 854              	.LVL47:
 855 0048 0346     		mov	r3, r0
 856              	.LVL48:
 328:Drivers/BSP/Components/iis2dlpc/iis2dlpc_reg.c ****   }
 857              		.loc 1 328 11 view .LVU213
 858 004a E4E7     		b	.L73
 859              	.L77:
 333:Drivers/BSP/Components/iis2dlpc/iis2dlpc_reg.c ****     ret = iis2dlpc_write_reg(ctx, IIS2DLPC_CTRL3, (uint8_t *) &ctrl3, 1);
 860              		.loc 1 333 5 is_stmt 1 view .LVU214
 333:Drivers/BSP/Components/iis2dlpc/iis2dlpc_reg.c ****     ret = iis2dlpc_write_reg(ctx, IIS2DLPC_CTRL3, (uint8_t *) &ctrl3, 1);
 861              		.loc 1 333 46 is_stmt 0 view .LVU215
 862 004c C4F30111 		ubfx	r1, r4, #4, #2
 333:Drivers/BSP/Components/iis2dlpc/iis2dlpc_reg.c ****     ret = iis2dlpc_write_reg(ctx, IIS2DLPC_CTRL3, (uint8_t *) &ctrl3, 1);
 863              		.loc 1 333 20 view .LVU216
 864 0050 9DF80030 		ldrb	r3, [sp]	@ zero_extendqisi2
 865 0054 61F30103 		bfi	r3, r1, #0, #2
 866 0058 8DF80030 		strb	r3, [sp]
 334:Drivers/BSP/Components/iis2dlpc/iis2dlpc_reg.c ****   }
 867              		.loc 1 334 5 is_stmt 1 view .LVU217
 334:Drivers/BSP/Components/iis2dlpc/iis2dlpc_reg.c ****   }
 868              		.loc 1 334 11 is_stmt 0 view .LVU218
 869 005c 0123     		movs	r3, #1
 870 005e 6A46     		mov	r2, sp
 871 0060 2221     		movs	r1, #34
 872 0062 2846     		mov	r0, r5
 873              	.LVL49:
 334:Drivers/BSP/Components/iis2dlpc/iis2dlpc_reg.c ****   }
 874              		.loc 1 334 11 view .LVU219
 875 0064 FFF7FEFF 		bl	iis2dlpc_write_reg
 876              	.LVL50:
 877 0068 0346     		mov	r3, r0
 878              	.LVL51:
 342:Drivers/BSP/Components/iis2dlpc/iis2dlpc_reg.c **** }
 879              		.loc 1 342 3 is_stmt 1 view .LVU220
 342:Drivers/BSP/Components/iis2dlpc/iis2dlpc_reg.c **** }
 880              		.loc 1 342 10 is_stmt 0 view .LVU221
ARM GAS  C:\Temp\ccGZlXNO.s 			page 24


 881 006a D5E7     		b	.L72
 882              		.cfi_endproc
 883              	.LFE13:
 885              		.section	.text.iis2dlpc_data_rate_get,"ax",%progbits
 886              		.align	1
 887              		.global	iis2dlpc_data_rate_get
 888              		.syntax unified
 889              		.thumb
 890              		.thumb_func
 892              	iis2dlpc_data_rate_get:
 893              	.LVL52:
 894              	.LFB14:
 344:Drivers/BSP/Components/iis2dlpc/iis2dlpc_reg.c **** 
 345:Drivers/BSP/Components/iis2dlpc/iis2dlpc_reg.c **** /**
 346:Drivers/BSP/Components/iis2dlpc/iis2dlpc_reg.c ****   * @brief  Accelerometer data rate selection.[get]
 347:Drivers/BSP/Components/iis2dlpc/iis2dlpc_reg.c ****   *
 348:Drivers/BSP/Components/iis2dlpc/iis2dlpc_reg.c ****   * @param  ctx      read / write interface definitions
 349:Drivers/BSP/Components/iis2dlpc/iis2dlpc_reg.c ****   * @param  val      Get the values of odr in reg CTRL1
 350:Drivers/BSP/Components/iis2dlpc/iis2dlpc_reg.c ****   * @retval          interface status (MANDATORY: return 0 -> no Error)
 351:Drivers/BSP/Components/iis2dlpc/iis2dlpc_reg.c ****   *
 352:Drivers/BSP/Components/iis2dlpc/iis2dlpc_reg.c ****   */
 353:Drivers/BSP/Components/iis2dlpc/iis2dlpc_reg.c **** int32_t iis2dlpc_data_rate_get(const stmdev_ctx_t *ctx, iis2dlpc_odr_t *val)
 354:Drivers/BSP/Components/iis2dlpc/iis2dlpc_reg.c **** {
 895              		.loc 1 354 1 is_stmt 1 view -0
 896              		.cfi_startproc
 897              		@ args = 0, pretend = 0, frame = 8
 898              		@ frame_needed = 0, uses_anonymous_args = 0
 899              		.loc 1 354 1 is_stmt 0 view .LVU223
 900 0000 30B5     		push	{r4, r5, lr}
 901              		.cfi_def_cfa_offset 12
 902              		.cfi_offset 4, -12
 903              		.cfi_offset 5, -8
 904              		.cfi_offset 14, -4
 905 0002 83B0     		sub	sp, sp, #12
 906              		.cfi_def_cfa_offset 24
 907 0004 0446     		mov	r4, r0
 908 0006 0D46     		mov	r5, r1
 355:Drivers/BSP/Components/iis2dlpc/iis2dlpc_reg.c ****   iis2dlpc_ctrl1_t ctrl1;
 909              		.loc 1 355 3 is_stmt 1 view .LVU224
 356:Drivers/BSP/Components/iis2dlpc/iis2dlpc_reg.c ****   iis2dlpc_ctrl3_t ctrl3;
 910              		.loc 1 356 3 view .LVU225
 357:Drivers/BSP/Components/iis2dlpc/iis2dlpc_reg.c ****   int32_t ret;
 911              		.loc 1 357 3 view .LVU226
 358:Drivers/BSP/Components/iis2dlpc/iis2dlpc_reg.c **** 
 359:Drivers/BSP/Components/iis2dlpc/iis2dlpc_reg.c ****   ret = iis2dlpc_read_reg(ctx, IIS2DLPC_CTRL1, (uint8_t *) &ctrl1, 1);
 912              		.loc 1 359 3 view .LVU227
 913              		.loc 1 359 9 is_stmt 0 view .LVU228
 914 0008 0123     		movs	r3, #1
 915 000a 01AA     		add	r2, sp, #4
 916 000c 2021     		movs	r1, #32
 917              	.LVL53:
 918              		.loc 1 359 9 view .LVU229
 919 000e FFF7FEFF 		bl	iis2dlpc_read_reg
 920              	.LVL54:
 360:Drivers/BSP/Components/iis2dlpc/iis2dlpc_reg.c **** 
 361:Drivers/BSP/Components/iis2dlpc/iis2dlpc_reg.c ****   if (ret == 0)
 921              		.loc 1 361 3 is_stmt 1 view .LVU230
ARM GAS  C:\Temp\ccGZlXNO.s 			page 25


 922              		.loc 1 361 6 is_stmt 0 view .LVU231
 923 0012 08B1     		cbz	r0, .L95
 924              	.LVL55:
 925              	.L78:
 362:Drivers/BSP/Components/iis2dlpc/iis2dlpc_reg.c ****   {
 363:Drivers/BSP/Components/iis2dlpc/iis2dlpc_reg.c ****     ret = iis2dlpc_read_reg(ctx, IIS2DLPC_CTRL3, (uint8_t *) &ctrl3, 1);
 364:Drivers/BSP/Components/iis2dlpc/iis2dlpc_reg.c **** 
 365:Drivers/BSP/Components/iis2dlpc/iis2dlpc_reg.c ****     switch ((ctrl3.slp_mode << 4) + ctrl1.odr)
 366:Drivers/BSP/Components/iis2dlpc/iis2dlpc_reg.c ****     {
 367:Drivers/BSP/Components/iis2dlpc/iis2dlpc_reg.c ****       case IIS2DLPC_XL_ODR_OFF:
 368:Drivers/BSP/Components/iis2dlpc/iis2dlpc_reg.c ****         *val = IIS2DLPC_XL_ODR_OFF;
 369:Drivers/BSP/Components/iis2dlpc/iis2dlpc_reg.c ****         break;
 370:Drivers/BSP/Components/iis2dlpc/iis2dlpc_reg.c **** 
 371:Drivers/BSP/Components/iis2dlpc/iis2dlpc_reg.c ****       case IIS2DLPC_XL_ODR_1Hz6_LP_ONLY:
 372:Drivers/BSP/Components/iis2dlpc/iis2dlpc_reg.c ****         *val = IIS2DLPC_XL_ODR_1Hz6_LP_ONLY;
 373:Drivers/BSP/Components/iis2dlpc/iis2dlpc_reg.c ****         break;
 374:Drivers/BSP/Components/iis2dlpc/iis2dlpc_reg.c **** 
 375:Drivers/BSP/Components/iis2dlpc/iis2dlpc_reg.c ****       case IIS2DLPC_XL_ODR_12Hz5:
 376:Drivers/BSP/Components/iis2dlpc/iis2dlpc_reg.c ****         *val = IIS2DLPC_XL_ODR_12Hz5;
 377:Drivers/BSP/Components/iis2dlpc/iis2dlpc_reg.c ****         break;
 378:Drivers/BSP/Components/iis2dlpc/iis2dlpc_reg.c **** 
 379:Drivers/BSP/Components/iis2dlpc/iis2dlpc_reg.c ****       case IIS2DLPC_XL_ODR_25Hz:
 380:Drivers/BSP/Components/iis2dlpc/iis2dlpc_reg.c ****         *val = IIS2DLPC_XL_ODR_25Hz;
 381:Drivers/BSP/Components/iis2dlpc/iis2dlpc_reg.c ****         break;
 382:Drivers/BSP/Components/iis2dlpc/iis2dlpc_reg.c **** 
 383:Drivers/BSP/Components/iis2dlpc/iis2dlpc_reg.c ****       case IIS2DLPC_XL_ODR_50Hz:
 384:Drivers/BSP/Components/iis2dlpc/iis2dlpc_reg.c ****         *val = IIS2DLPC_XL_ODR_50Hz;
 385:Drivers/BSP/Components/iis2dlpc/iis2dlpc_reg.c ****         break;
 386:Drivers/BSP/Components/iis2dlpc/iis2dlpc_reg.c **** 
 387:Drivers/BSP/Components/iis2dlpc/iis2dlpc_reg.c ****       case IIS2DLPC_XL_ODR_100Hz:
 388:Drivers/BSP/Components/iis2dlpc/iis2dlpc_reg.c ****         *val = IIS2DLPC_XL_ODR_100Hz;
 389:Drivers/BSP/Components/iis2dlpc/iis2dlpc_reg.c ****         break;
 390:Drivers/BSP/Components/iis2dlpc/iis2dlpc_reg.c **** 
 391:Drivers/BSP/Components/iis2dlpc/iis2dlpc_reg.c ****       case IIS2DLPC_XL_ODR_200Hz:
 392:Drivers/BSP/Components/iis2dlpc/iis2dlpc_reg.c ****         *val = IIS2DLPC_XL_ODR_200Hz;
 393:Drivers/BSP/Components/iis2dlpc/iis2dlpc_reg.c ****         break;
 394:Drivers/BSP/Components/iis2dlpc/iis2dlpc_reg.c **** 
 395:Drivers/BSP/Components/iis2dlpc/iis2dlpc_reg.c ****       case IIS2DLPC_XL_ODR_400Hz:
 396:Drivers/BSP/Components/iis2dlpc/iis2dlpc_reg.c ****         *val = IIS2DLPC_XL_ODR_400Hz;
 397:Drivers/BSP/Components/iis2dlpc/iis2dlpc_reg.c ****         break;
 398:Drivers/BSP/Components/iis2dlpc/iis2dlpc_reg.c **** 
 399:Drivers/BSP/Components/iis2dlpc/iis2dlpc_reg.c ****       case IIS2DLPC_XL_ODR_800Hz:
 400:Drivers/BSP/Components/iis2dlpc/iis2dlpc_reg.c ****         *val = IIS2DLPC_XL_ODR_800Hz;
 401:Drivers/BSP/Components/iis2dlpc/iis2dlpc_reg.c ****         break;
 402:Drivers/BSP/Components/iis2dlpc/iis2dlpc_reg.c **** 
 403:Drivers/BSP/Components/iis2dlpc/iis2dlpc_reg.c ****       case IIS2DLPC_XL_ODR_1k6Hz:
 404:Drivers/BSP/Components/iis2dlpc/iis2dlpc_reg.c ****         *val = IIS2DLPC_XL_ODR_1k6Hz;
 405:Drivers/BSP/Components/iis2dlpc/iis2dlpc_reg.c ****         break;
 406:Drivers/BSP/Components/iis2dlpc/iis2dlpc_reg.c **** 
 407:Drivers/BSP/Components/iis2dlpc/iis2dlpc_reg.c ****       case IIS2DLPC_XL_SET_SW_TRIG:
 408:Drivers/BSP/Components/iis2dlpc/iis2dlpc_reg.c ****         *val = IIS2DLPC_XL_SET_SW_TRIG;
 409:Drivers/BSP/Components/iis2dlpc/iis2dlpc_reg.c ****         break;
 410:Drivers/BSP/Components/iis2dlpc/iis2dlpc_reg.c **** 
 411:Drivers/BSP/Components/iis2dlpc/iis2dlpc_reg.c ****       case IIS2DLPC_XL_SET_PIN_TRIG:
 412:Drivers/BSP/Components/iis2dlpc/iis2dlpc_reg.c ****         *val = IIS2DLPC_XL_SET_PIN_TRIG;
 413:Drivers/BSP/Components/iis2dlpc/iis2dlpc_reg.c ****         break;
 414:Drivers/BSP/Components/iis2dlpc/iis2dlpc_reg.c **** 
ARM GAS  C:\Temp\ccGZlXNO.s 			page 26


 415:Drivers/BSP/Components/iis2dlpc/iis2dlpc_reg.c ****       default:
 416:Drivers/BSP/Components/iis2dlpc/iis2dlpc_reg.c ****         *val = IIS2DLPC_XL_ODR_OFF;
 417:Drivers/BSP/Components/iis2dlpc/iis2dlpc_reg.c ****         break;
 418:Drivers/BSP/Components/iis2dlpc/iis2dlpc_reg.c ****     }
 419:Drivers/BSP/Components/iis2dlpc/iis2dlpc_reg.c ****   }
 420:Drivers/BSP/Components/iis2dlpc/iis2dlpc_reg.c **** 
 421:Drivers/BSP/Components/iis2dlpc/iis2dlpc_reg.c ****   return ret;
 422:Drivers/BSP/Components/iis2dlpc/iis2dlpc_reg.c **** }
 926              		.loc 1 422 1 view .LVU232
 927 0014 03B0     		add	sp, sp, #12
 928              		.cfi_remember_state
 929              		.cfi_def_cfa_offset 12
 930              		@ sp needed
 931 0016 30BD     		pop	{r4, r5, pc}
 932              	.LVL56:
 933              	.L95:
 934              		.cfi_restore_state
 363:Drivers/BSP/Components/iis2dlpc/iis2dlpc_reg.c **** 
 935              		.loc 1 363 5 is_stmt 1 view .LVU233
 363:Drivers/BSP/Components/iis2dlpc/iis2dlpc_reg.c **** 
 936              		.loc 1 363 11 is_stmt 0 view .LVU234
 937 0018 0123     		movs	r3, #1
 938              	.LVL57:
 363:Drivers/BSP/Components/iis2dlpc/iis2dlpc_reg.c **** 
 939              		.loc 1 363 11 view .LVU235
 940 001a 6A46     		mov	r2, sp
 941 001c 2221     		movs	r1, #34
 942 001e 2046     		mov	r0, r4
 943 0020 FFF7FEFF 		bl	iis2dlpc_read_reg
 944              	.LVL58:
 365:Drivers/BSP/Components/iis2dlpc/iis2dlpc_reg.c ****     {
 945              		.loc 1 365 5 is_stmt 1 view .LVU236
 365:Drivers/BSP/Components/iis2dlpc/iis2dlpc_reg.c ****     {
 946              		.loc 1 365 19 is_stmt 0 view .LVU237
 947 0024 9DF80020 		ldrb	r2, [sp]	@ zero_extendqisi2
 948 0028 02F00302 		and	r2, r2, #3
 365:Drivers/BSP/Components/iis2dlpc/iis2dlpc_reg.c ****     {
 949              		.loc 1 365 42 view .LVU238
 950 002c 9DF80430 		ldrb	r3, [sp, #4]	@ zero_extendqisi2
 951 0030 1B09     		lsrs	r3, r3, #4
 365:Drivers/BSP/Components/iis2dlpc/iis2dlpc_reg.c ****     {
 952              		.loc 1 365 35 view .LVU239
 953 0032 03EB0213 		add	r3, r3, r2, lsl #4
 365:Drivers/BSP/Components/iis2dlpc/iis2dlpc_reg.c ****     {
 954              		.loc 1 365 5 view .LVU240
 955 0036 222B     		cmp	r3, #34
 956 0038 37D8     		bhi	.L80
 957 003a DFE803F0 		tbb	[pc, r3]
 958              	.L82:
 959 003e 12       		.byte	(.L93-.L82)/2
 960 003f 15       		.byte	(.L92-.L82)/2
 961 0040 18       		.byte	(.L91-.L82)/2
 962 0041 1B       		.byte	(.L90-.L82)/2
 963 0042 1E       		.byte	(.L89-.L82)/2
 964 0043 21       		.byte	(.L88-.L82)/2
 965 0044 24       		.byte	(.L87-.L82)/2
 966 0045 27       		.byte	(.L86-.L82)/2
ARM GAS  C:\Temp\ccGZlXNO.s 			page 27


 967 0046 2A       		.byte	(.L85-.L82)/2
 968 0047 2D       		.byte	(.L84-.L82)/2
 969 0048 36       		.byte	(.L80-.L82)/2
 970 0049 36       		.byte	(.L80-.L82)/2
 971 004a 36       		.byte	(.L80-.L82)/2
 972 004b 36       		.byte	(.L80-.L82)/2
 973 004c 36       		.byte	(.L80-.L82)/2
 974 004d 36       		.byte	(.L80-.L82)/2
 975 004e 36       		.byte	(.L80-.L82)/2
 976 004f 36       		.byte	(.L80-.L82)/2
 977 0050 30       		.byte	(.L83-.L82)/2
 978 0051 36       		.byte	(.L80-.L82)/2
 979 0052 36       		.byte	(.L80-.L82)/2
 980 0053 36       		.byte	(.L80-.L82)/2
 981 0054 36       		.byte	(.L80-.L82)/2
 982 0055 36       		.byte	(.L80-.L82)/2
 983 0056 36       		.byte	(.L80-.L82)/2
 984 0057 36       		.byte	(.L80-.L82)/2
 985 0058 36       		.byte	(.L80-.L82)/2
 986 0059 36       		.byte	(.L80-.L82)/2
 987 005a 36       		.byte	(.L80-.L82)/2
 988 005b 36       		.byte	(.L80-.L82)/2
 989 005c 36       		.byte	(.L80-.L82)/2
 990 005d 36       		.byte	(.L80-.L82)/2
 991 005e 36       		.byte	(.L80-.L82)/2
 992 005f 36       		.byte	(.L80-.L82)/2
 993 0060 33       		.byte	(.L81-.L82)/2
 994 0061 00       		.p2align 1
 995              	.L93:
 368:Drivers/BSP/Components/iis2dlpc/iis2dlpc_reg.c ****         break;
 996              		.loc 1 368 9 is_stmt 1 view .LVU241
 368:Drivers/BSP/Components/iis2dlpc/iis2dlpc_reg.c ****         break;
 997              		.loc 1 368 14 is_stmt 0 view .LVU242
 998 0062 0023     		movs	r3, #0
 999 0064 2B70     		strb	r3, [r5]
 369:Drivers/BSP/Components/iis2dlpc/iis2dlpc_reg.c **** 
 1000              		.loc 1 369 9 is_stmt 1 view .LVU243
 1001 0066 D5E7     		b	.L78
 1002              	.L92:
 372:Drivers/BSP/Components/iis2dlpc/iis2dlpc_reg.c ****         break;
 1003              		.loc 1 372 9 view .LVU244
 372:Drivers/BSP/Components/iis2dlpc/iis2dlpc_reg.c ****         break;
 1004              		.loc 1 372 14 is_stmt 0 view .LVU245
 1005 0068 0123     		movs	r3, #1
 1006 006a 2B70     		strb	r3, [r5]
 373:Drivers/BSP/Components/iis2dlpc/iis2dlpc_reg.c **** 
 1007              		.loc 1 373 9 is_stmt 1 view .LVU246
 1008 006c D2E7     		b	.L78
 1009              	.L91:
 376:Drivers/BSP/Components/iis2dlpc/iis2dlpc_reg.c ****         break;
 1010              		.loc 1 376 9 view .LVU247
 376:Drivers/BSP/Components/iis2dlpc/iis2dlpc_reg.c ****         break;
 1011              		.loc 1 376 14 is_stmt 0 view .LVU248
 1012 006e 0223     		movs	r3, #2
 1013 0070 2B70     		strb	r3, [r5]
 377:Drivers/BSP/Components/iis2dlpc/iis2dlpc_reg.c **** 
 1014              		.loc 1 377 9 is_stmt 1 view .LVU249
ARM GAS  C:\Temp\ccGZlXNO.s 			page 28


 1015 0072 CFE7     		b	.L78
 1016              	.L90:
 380:Drivers/BSP/Components/iis2dlpc/iis2dlpc_reg.c ****         break;
 1017              		.loc 1 380 9 view .LVU250
 380:Drivers/BSP/Components/iis2dlpc/iis2dlpc_reg.c ****         break;
 1018              		.loc 1 380 14 is_stmt 0 view .LVU251
 1019 0074 0323     		movs	r3, #3
 1020 0076 2B70     		strb	r3, [r5]
 381:Drivers/BSP/Components/iis2dlpc/iis2dlpc_reg.c **** 
 1021              		.loc 1 381 9 is_stmt 1 view .LVU252
 1022 0078 CCE7     		b	.L78
 1023              	.L89:
 384:Drivers/BSP/Components/iis2dlpc/iis2dlpc_reg.c ****         break;
 1024              		.loc 1 384 9 view .LVU253
 384:Drivers/BSP/Components/iis2dlpc/iis2dlpc_reg.c ****         break;
 1025              		.loc 1 384 14 is_stmt 0 view .LVU254
 1026 007a 0423     		movs	r3, #4
 1027 007c 2B70     		strb	r3, [r5]
 385:Drivers/BSP/Components/iis2dlpc/iis2dlpc_reg.c **** 
 1028              		.loc 1 385 9 is_stmt 1 view .LVU255
 1029 007e C9E7     		b	.L78
 1030              	.L88:
 388:Drivers/BSP/Components/iis2dlpc/iis2dlpc_reg.c ****         break;
 1031              		.loc 1 388 9 view .LVU256
 388:Drivers/BSP/Components/iis2dlpc/iis2dlpc_reg.c ****         break;
 1032              		.loc 1 388 14 is_stmt 0 view .LVU257
 1033 0080 0523     		movs	r3, #5
 1034 0082 2B70     		strb	r3, [r5]
 389:Drivers/BSP/Components/iis2dlpc/iis2dlpc_reg.c **** 
 1035              		.loc 1 389 9 is_stmt 1 view .LVU258
 1036 0084 C6E7     		b	.L78
 1037              	.L87:
 392:Drivers/BSP/Components/iis2dlpc/iis2dlpc_reg.c ****         break;
 1038              		.loc 1 392 9 view .LVU259
 392:Drivers/BSP/Components/iis2dlpc/iis2dlpc_reg.c ****         break;
 1039              		.loc 1 392 14 is_stmt 0 view .LVU260
 1040 0086 0623     		movs	r3, #6
 1041 0088 2B70     		strb	r3, [r5]
 393:Drivers/BSP/Components/iis2dlpc/iis2dlpc_reg.c **** 
 1042              		.loc 1 393 9 is_stmt 1 view .LVU261
 1043 008a C3E7     		b	.L78
 1044              	.L86:
 396:Drivers/BSP/Components/iis2dlpc/iis2dlpc_reg.c ****         break;
 1045              		.loc 1 396 9 view .LVU262
 396:Drivers/BSP/Components/iis2dlpc/iis2dlpc_reg.c ****         break;
 1046              		.loc 1 396 14 is_stmt 0 view .LVU263
 1047 008c 0723     		movs	r3, #7
 1048 008e 2B70     		strb	r3, [r5]
 397:Drivers/BSP/Components/iis2dlpc/iis2dlpc_reg.c **** 
 1049              		.loc 1 397 9 is_stmt 1 view .LVU264
 1050 0090 C0E7     		b	.L78
 1051              	.L85:
 400:Drivers/BSP/Components/iis2dlpc/iis2dlpc_reg.c ****         break;
 1052              		.loc 1 400 9 view .LVU265
 400:Drivers/BSP/Components/iis2dlpc/iis2dlpc_reg.c ****         break;
 1053              		.loc 1 400 14 is_stmt 0 view .LVU266
 1054 0092 0823     		movs	r3, #8
ARM GAS  C:\Temp\ccGZlXNO.s 			page 29


 1055 0094 2B70     		strb	r3, [r5]
 401:Drivers/BSP/Components/iis2dlpc/iis2dlpc_reg.c **** 
 1056              		.loc 1 401 9 is_stmt 1 view .LVU267
 1057 0096 BDE7     		b	.L78
 1058              	.L84:
 404:Drivers/BSP/Components/iis2dlpc/iis2dlpc_reg.c ****         break;
 1059              		.loc 1 404 9 view .LVU268
 404:Drivers/BSP/Components/iis2dlpc/iis2dlpc_reg.c ****         break;
 1060              		.loc 1 404 14 is_stmt 0 view .LVU269
 1061 0098 0923     		movs	r3, #9
 1062 009a 2B70     		strb	r3, [r5]
 405:Drivers/BSP/Components/iis2dlpc/iis2dlpc_reg.c **** 
 1063              		.loc 1 405 9 is_stmt 1 view .LVU270
 1064 009c BAE7     		b	.L78
 1065              	.L83:
 408:Drivers/BSP/Components/iis2dlpc/iis2dlpc_reg.c ****         break;
 1066              		.loc 1 408 9 view .LVU271
 408:Drivers/BSP/Components/iis2dlpc/iis2dlpc_reg.c ****         break;
 1067              		.loc 1 408 14 is_stmt 0 view .LVU272
 1068 009e 1223     		movs	r3, #18
 1069 00a0 2B70     		strb	r3, [r5]
 409:Drivers/BSP/Components/iis2dlpc/iis2dlpc_reg.c **** 
 1070              		.loc 1 409 9 is_stmt 1 view .LVU273
 1071 00a2 B7E7     		b	.L78
 1072              	.L81:
 412:Drivers/BSP/Components/iis2dlpc/iis2dlpc_reg.c ****         break;
 1073              		.loc 1 412 9 view .LVU274
 412:Drivers/BSP/Components/iis2dlpc/iis2dlpc_reg.c ****         break;
 1074              		.loc 1 412 14 is_stmt 0 view .LVU275
 1075 00a4 2223     		movs	r3, #34
 1076 00a6 2B70     		strb	r3, [r5]
 413:Drivers/BSP/Components/iis2dlpc/iis2dlpc_reg.c **** 
 1077              		.loc 1 413 9 is_stmt 1 view .LVU276
 1078 00a8 B4E7     		b	.L78
 1079              	.L80:
 416:Drivers/BSP/Components/iis2dlpc/iis2dlpc_reg.c ****         break;
 1080              		.loc 1 416 9 view .LVU277
 416:Drivers/BSP/Components/iis2dlpc/iis2dlpc_reg.c ****         break;
 1081              		.loc 1 416 14 is_stmt 0 view .LVU278
 1082 00aa 0023     		movs	r3, #0
 1083 00ac 2B70     		strb	r3, [r5]
 417:Drivers/BSP/Components/iis2dlpc/iis2dlpc_reg.c ****     }
 1084              		.loc 1 417 9 is_stmt 1 view .LVU279
 421:Drivers/BSP/Components/iis2dlpc/iis2dlpc_reg.c **** }
 1085              		.loc 1 421 3 view .LVU280
 421:Drivers/BSP/Components/iis2dlpc/iis2dlpc_reg.c **** }
 1086              		.loc 1 421 10 is_stmt 0 view .LVU281
 1087 00ae B1E7     		b	.L78
 1088              		.cfi_endproc
 1089              	.LFE14:
 1091              		.section	.text.iis2dlpc_block_data_update_set,"ax",%progbits
 1092              		.align	1
 1093              		.global	iis2dlpc_block_data_update_set
 1094              		.syntax unified
 1095              		.thumb
 1096              		.thumb_func
 1098              	iis2dlpc_block_data_update_set:
ARM GAS  C:\Temp\ccGZlXNO.s 			page 30


 1099              	.LVL59:
 1100              	.LFB15:
 423:Drivers/BSP/Components/iis2dlpc/iis2dlpc_reg.c **** 
 424:Drivers/BSP/Components/iis2dlpc/iis2dlpc_reg.c **** /**
 425:Drivers/BSP/Components/iis2dlpc/iis2dlpc_reg.c ****   * @brief  Block data update.[set]
 426:Drivers/BSP/Components/iis2dlpc/iis2dlpc_reg.c ****   *
 427:Drivers/BSP/Components/iis2dlpc/iis2dlpc_reg.c ****   * @param  ctx      read / write interface definitions
 428:Drivers/BSP/Components/iis2dlpc/iis2dlpc_reg.c ****   * @param  val      change the values of bdu in reg CTRL2
 429:Drivers/BSP/Components/iis2dlpc/iis2dlpc_reg.c ****   * @retval          interface status (MANDATORY: return 0 -> no Error)
 430:Drivers/BSP/Components/iis2dlpc/iis2dlpc_reg.c ****   *
 431:Drivers/BSP/Components/iis2dlpc/iis2dlpc_reg.c ****   */
 432:Drivers/BSP/Components/iis2dlpc/iis2dlpc_reg.c **** int32_t iis2dlpc_block_data_update_set(const stmdev_ctx_t *ctx, uint8_t val)
 433:Drivers/BSP/Components/iis2dlpc/iis2dlpc_reg.c **** {
 1101              		.loc 1 433 1 is_stmt 1 view -0
 1102              		.cfi_startproc
 1103              		@ args = 0, pretend = 0, frame = 8
 1104              		@ frame_needed = 0, uses_anonymous_args = 0
 1105              		.loc 1 433 1 is_stmt 0 view .LVU283
 1106 0000 30B5     		push	{r4, r5, lr}
 1107              		.cfi_def_cfa_offset 12
 1108              		.cfi_offset 4, -12
 1109              		.cfi_offset 5, -8
 1110              		.cfi_offset 14, -4
 1111 0002 83B0     		sub	sp, sp, #12
 1112              		.cfi_def_cfa_offset 24
 1113 0004 0446     		mov	r4, r0
 1114 0006 0D46     		mov	r5, r1
 434:Drivers/BSP/Components/iis2dlpc/iis2dlpc_reg.c ****   iis2dlpc_ctrl2_t reg;
 1115              		.loc 1 434 3 is_stmt 1 view .LVU284
 435:Drivers/BSP/Components/iis2dlpc/iis2dlpc_reg.c ****   int32_t ret;
 1116              		.loc 1 435 3 view .LVU285
 436:Drivers/BSP/Components/iis2dlpc/iis2dlpc_reg.c **** 
 437:Drivers/BSP/Components/iis2dlpc/iis2dlpc_reg.c ****   ret = iis2dlpc_read_reg(ctx, IIS2DLPC_CTRL2, (uint8_t *) &reg, 1);
 1117              		.loc 1 437 3 view .LVU286
 1118              		.loc 1 437 9 is_stmt 0 view .LVU287
 1119 0008 0123     		movs	r3, #1
 1120 000a 01AA     		add	r2, sp, #4
 1121 000c 2121     		movs	r1, #33
 1122              	.LVL60:
 1123              		.loc 1 437 9 view .LVU288
 1124 000e FFF7FEFF 		bl	iis2dlpc_read_reg
 1125              	.LVL61:
 438:Drivers/BSP/Components/iis2dlpc/iis2dlpc_reg.c **** 
 439:Drivers/BSP/Components/iis2dlpc/iis2dlpc_reg.c ****   if (ret == 0)
 1126              		.loc 1 439 3 is_stmt 1 view .LVU289
 1127              		.loc 1 439 6 is_stmt 0 view .LVU290
 1128 0012 08B1     		cbz	r0, .L99
 1129              	.LVL62:
 1130              	.L96:
 440:Drivers/BSP/Components/iis2dlpc/iis2dlpc_reg.c ****   {
 441:Drivers/BSP/Components/iis2dlpc/iis2dlpc_reg.c ****     reg.bdu = val;
 442:Drivers/BSP/Components/iis2dlpc/iis2dlpc_reg.c ****     ret = iis2dlpc_write_reg(ctx, IIS2DLPC_CTRL2, (uint8_t *) &reg, 1);
 443:Drivers/BSP/Components/iis2dlpc/iis2dlpc_reg.c ****   }
 444:Drivers/BSP/Components/iis2dlpc/iis2dlpc_reg.c **** 
 445:Drivers/BSP/Components/iis2dlpc/iis2dlpc_reg.c ****   return ret;
 446:Drivers/BSP/Components/iis2dlpc/iis2dlpc_reg.c **** }
 1131              		.loc 1 446 1 view .LVU291
ARM GAS  C:\Temp\ccGZlXNO.s 			page 31


 1132 0014 03B0     		add	sp, sp, #12
 1133              		.cfi_remember_state
 1134              		.cfi_def_cfa_offset 12
 1135              		@ sp needed
 1136 0016 30BD     		pop	{r4, r5, pc}
 1137              	.LVL63:
 1138              	.L99:
 1139              		.cfi_restore_state
 441:Drivers/BSP/Components/iis2dlpc/iis2dlpc_reg.c ****     ret = iis2dlpc_write_reg(ctx, IIS2DLPC_CTRL2, (uint8_t *) &reg, 1);
 1140              		.loc 1 441 5 is_stmt 1 view .LVU292
 441:Drivers/BSP/Components/iis2dlpc/iis2dlpc_reg.c ****     ret = iis2dlpc_write_reg(ctx, IIS2DLPC_CTRL2, (uint8_t *) &reg, 1);
 1141              		.loc 1 441 13 is_stmt 0 view .LVU293
 1142 0018 9DF80430 		ldrb	r3, [sp, #4]	@ zero_extendqisi2
 1143 001c 65F3C303 		bfi	r3, r5, #3, #1
 1144 0020 8DF80430 		strb	r3, [sp, #4]
 442:Drivers/BSP/Components/iis2dlpc/iis2dlpc_reg.c ****   }
 1145              		.loc 1 442 5 is_stmt 1 view .LVU294
 442:Drivers/BSP/Components/iis2dlpc/iis2dlpc_reg.c ****   }
 1146              		.loc 1 442 11 is_stmt 0 view .LVU295
 1147 0024 0123     		movs	r3, #1
 1148              	.LVL64:
 442:Drivers/BSP/Components/iis2dlpc/iis2dlpc_reg.c ****   }
 1149              		.loc 1 442 11 view .LVU296
 1150 0026 01AA     		add	r2, sp, #4
 1151 0028 2121     		movs	r1, #33
 1152 002a 2046     		mov	r0, r4
 1153 002c FFF7FEFF 		bl	iis2dlpc_write_reg
 1154              	.LVL65:
 445:Drivers/BSP/Components/iis2dlpc/iis2dlpc_reg.c **** }
 1155              		.loc 1 445 3 is_stmt 1 view .LVU297
 445:Drivers/BSP/Components/iis2dlpc/iis2dlpc_reg.c **** }
 1156              		.loc 1 445 10 is_stmt 0 view .LVU298
 1157 0030 F0E7     		b	.L96
 1158              		.cfi_endproc
 1159              	.LFE15:
 1161              		.section	.text.iis2dlpc_block_data_update_get,"ax",%progbits
 1162              		.align	1
 1163              		.global	iis2dlpc_block_data_update_get
 1164              		.syntax unified
 1165              		.thumb
 1166              		.thumb_func
 1168              	iis2dlpc_block_data_update_get:
 1169              	.LVL66:
 1170              	.LFB16:
 447:Drivers/BSP/Components/iis2dlpc/iis2dlpc_reg.c **** 
 448:Drivers/BSP/Components/iis2dlpc/iis2dlpc_reg.c **** /**
 449:Drivers/BSP/Components/iis2dlpc/iis2dlpc_reg.c ****   * @brief  Block data update.[get]
 450:Drivers/BSP/Components/iis2dlpc/iis2dlpc_reg.c ****   *
 451:Drivers/BSP/Components/iis2dlpc/iis2dlpc_reg.c ****   * @param  ctx      read / write interface definitions
 452:Drivers/BSP/Components/iis2dlpc/iis2dlpc_reg.c ****   * @param  val      change the values of bdu in reg CTRL2
 453:Drivers/BSP/Components/iis2dlpc/iis2dlpc_reg.c ****   * @retval          interface status (MANDATORY: return 0 -> no Error)
 454:Drivers/BSP/Components/iis2dlpc/iis2dlpc_reg.c ****   *
 455:Drivers/BSP/Components/iis2dlpc/iis2dlpc_reg.c ****   */
 456:Drivers/BSP/Components/iis2dlpc/iis2dlpc_reg.c **** int32_t iis2dlpc_block_data_update_get(const stmdev_ctx_t *ctx,
 457:Drivers/BSP/Components/iis2dlpc/iis2dlpc_reg.c ****                                        uint8_t *val)
 458:Drivers/BSP/Components/iis2dlpc/iis2dlpc_reg.c **** {
 1171              		.loc 1 458 1 is_stmt 1 view -0
ARM GAS  C:\Temp\ccGZlXNO.s 			page 32


 1172              		.cfi_startproc
 1173              		@ args = 0, pretend = 0, frame = 8
 1174              		@ frame_needed = 0, uses_anonymous_args = 0
 1175              		.loc 1 458 1 is_stmt 0 view .LVU300
 1176 0000 10B5     		push	{r4, lr}
 1177              		.cfi_def_cfa_offset 8
 1178              		.cfi_offset 4, -8
 1179              		.cfi_offset 14, -4
 1180 0002 82B0     		sub	sp, sp, #8
 1181              		.cfi_def_cfa_offset 16
 1182 0004 0C46     		mov	r4, r1
 459:Drivers/BSP/Components/iis2dlpc/iis2dlpc_reg.c ****   iis2dlpc_ctrl2_t reg;
 1183              		.loc 1 459 3 is_stmt 1 view .LVU301
 460:Drivers/BSP/Components/iis2dlpc/iis2dlpc_reg.c ****   int32_t ret;
 1184              		.loc 1 460 3 view .LVU302
 461:Drivers/BSP/Components/iis2dlpc/iis2dlpc_reg.c **** 
 462:Drivers/BSP/Components/iis2dlpc/iis2dlpc_reg.c ****   ret = iis2dlpc_read_reg(ctx, IIS2DLPC_CTRL2, (uint8_t *) &reg, 1);
 1185              		.loc 1 462 3 view .LVU303
 1186              		.loc 1 462 9 is_stmt 0 view .LVU304
 1187 0006 0123     		movs	r3, #1
 1188 0008 01AA     		add	r2, sp, #4
 1189 000a 2121     		movs	r1, #33
 1190              	.LVL67:
 1191              		.loc 1 462 9 view .LVU305
 1192 000c FFF7FEFF 		bl	iis2dlpc_read_reg
 1193              	.LVL68:
 463:Drivers/BSP/Components/iis2dlpc/iis2dlpc_reg.c ****   *val = reg.bdu;
 1194              		.loc 1 463 3 is_stmt 1 view .LVU306
 1195              		.loc 1 463 13 is_stmt 0 view .LVU307
 1196 0010 9DF80430 		ldrb	r3, [sp, #4]	@ zero_extendqisi2
 1197 0014 C3F3C003 		ubfx	r3, r3, #3, #1
 1198              		.loc 1 463 8 view .LVU308
 1199 0018 2370     		strb	r3, [r4]
 464:Drivers/BSP/Components/iis2dlpc/iis2dlpc_reg.c **** 
 465:Drivers/BSP/Components/iis2dlpc/iis2dlpc_reg.c ****   return ret;
 1200              		.loc 1 465 3 is_stmt 1 view .LVU309
 466:Drivers/BSP/Components/iis2dlpc/iis2dlpc_reg.c **** }
 1201              		.loc 1 466 1 is_stmt 0 view .LVU310
 1202 001a 02B0     		add	sp, sp, #8
 1203              		.cfi_def_cfa_offset 8
 1204              		@ sp needed
 1205 001c 10BD     		pop	{r4, pc}
 1206              		.loc 1 466 1 view .LVU311
 1207              		.cfi_endproc
 1208              	.LFE16:
 1210              		.section	.text.iis2dlpc_full_scale_set,"ax",%progbits
 1211              		.align	1
 1212              		.global	iis2dlpc_full_scale_set
 1213              		.syntax unified
 1214              		.thumb
 1215              		.thumb_func
 1217              	iis2dlpc_full_scale_set:
 1218              	.LVL69:
 1219              	.LFB17:
 467:Drivers/BSP/Components/iis2dlpc/iis2dlpc_reg.c **** 
 468:Drivers/BSP/Components/iis2dlpc/iis2dlpc_reg.c **** /**
 469:Drivers/BSP/Components/iis2dlpc/iis2dlpc_reg.c ****   * @brief  Accelerometer full-scale selection.[set]
ARM GAS  C:\Temp\ccGZlXNO.s 			page 33


 470:Drivers/BSP/Components/iis2dlpc/iis2dlpc_reg.c ****   *
 471:Drivers/BSP/Components/iis2dlpc/iis2dlpc_reg.c ****   * @param  ctx      read / write interface definitions
 472:Drivers/BSP/Components/iis2dlpc/iis2dlpc_reg.c ****   * @param  val      change the values of fs in reg CTRL6
 473:Drivers/BSP/Components/iis2dlpc/iis2dlpc_reg.c ****   * @retval          interface status (MANDATORY: return 0 -> no Error)
 474:Drivers/BSP/Components/iis2dlpc/iis2dlpc_reg.c ****   *
 475:Drivers/BSP/Components/iis2dlpc/iis2dlpc_reg.c ****   */
 476:Drivers/BSP/Components/iis2dlpc/iis2dlpc_reg.c **** int32_t iis2dlpc_full_scale_set(const stmdev_ctx_t *ctx, iis2dlpc_fs_t val)
 477:Drivers/BSP/Components/iis2dlpc/iis2dlpc_reg.c **** {
 1220              		.loc 1 477 1 is_stmt 1 view -0
 1221              		.cfi_startproc
 1222              		@ args = 0, pretend = 0, frame = 8
 1223              		@ frame_needed = 0, uses_anonymous_args = 0
 1224              		.loc 1 477 1 is_stmt 0 view .LVU313
 1225 0000 30B5     		push	{r4, r5, lr}
 1226              		.cfi_def_cfa_offset 12
 1227              		.cfi_offset 4, -12
 1228              		.cfi_offset 5, -8
 1229              		.cfi_offset 14, -4
 1230 0002 83B0     		sub	sp, sp, #12
 1231              		.cfi_def_cfa_offset 24
 1232 0004 0446     		mov	r4, r0
 1233 0006 0D46     		mov	r5, r1
 478:Drivers/BSP/Components/iis2dlpc/iis2dlpc_reg.c ****   iis2dlpc_ctrl6_t reg;
 1234              		.loc 1 478 3 is_stmt 1 view .LVU314
 479:Drivers/BSP/Components/iis2dlpc/iis2dlpc_reg.c ****   int32_t ret;
 1235              		.loc 1 479 3 view .LVU315
 480:Drivers/BSP/Components/iis2dlpc/iis2dlpc_reg.c **** 
 481:Drivers/BSP/Components/iis2dlpc/iis2dlpc_reg.c ****   ret = iis2dlpc_read_reg(ctx, IIS2DLPC_CTRL6, (uint8_t *) &reg, 1);
 1236              		.loc 1 481 3 view .LVU316
 1237              		.loc 1 481 9 is_stmt 0 view .LVU317
 1238 0008 0123     		movs	r3, #1
 1239 000a 01AA     		add	r2, sp, #4
 1240 000c 2521     		movs	r1, #37
 1241              	.LVL70:
 1242              		.loc 1 481 9 view .LVU318
 1243 000e FFF7FEFF 		bl	iis2dlpc_read_reg
 1244              	.LVL71:
 482:Drivers/BSP/Components/iis2dlpc/iis2dlpc_reg.c **** 
 483:Drivers/BSP/Components/iis2dlpc/iis2dlpc_reg.c ****   if (ret == 0)
 1245              		.loc 1 483 3 is_stmt 1 view .LVU319
 1246              		.loc 1 483 6 is_stmt 0 view .LVU320
 1247 0012 08B1     		cbz	r0, .L105
 1248              	.LVL72:
 1249              	.L102:
 484:Drivers/BSP/Components/iis2dlpc/iis2dlpc_reg.c ****   {
 485:Drivers/BSP/Components/iis2dlpc/iis2dlpc_reg.c ****     reg.fs = (uint8_t) val;
 486:Drivers/BSP/Components/iis2dlpc/iis2dlpc_reg.c ****     ret = iis2dlpc_write_reg(ctx, IIS2DLPC_CTRL6, (uint8_t *) &reg, 1);
 487:Drivers/BSP/Components/iis2dlpc/iis2dlpc_reg.c ****   }
 488:Drivers/BSP/Components/iis2dlpc/iis2dlpc_reg.c **** 
 489:Drivers/BSP/Components/iis2dlpc/iis2dlpc_reg.c ****   return ret;
 490:Drivers/BSP/Components/iis2dlpc/iis2dlpc_reg.c **** }
 1250              		.loc 1 490 1 view .LVU321
 1251 0014 03B0     		add	sp, sp, #12
 1252              		.cfi_remember_state
 1253              		.cfi_def_cfa_offset 12
 1254              		@ sp needed
 1255 0016 30BD     		pop	{r4, r5, pc}
ARM GAS  C:\Temp\ccGZlXNO.s 			page 34


 1256              	.LVL73:
 1257              	.L105:
 1258              		.cfi_restore_state
 485:Drivers/BSP/Components/iis2dlpc/iis2dlpc_reg.c ****     ret = iis2dlpc_write_reg(ctx, IIS2DLPC_CTRL6, (uint8_t *) &reg, 1);
 1259              		.loc 1 485 5 is_stmt 1 view .LVU322
 485:Drivers/BSP/Components/iis2dlpc/iis2dlpc_reg.c ****     ret = iis2dlpc_write_reg(ctx, IIS2DLPC_CTRL6, (uint8_t *) &reg, 1);
 1260              		.loc 1 485 12 is_stmt 0 view .LVU323
 1261 0018 9DF80430 		ldrb	r3, [sp, #4]	@ zero_extendqisi2
 1262 001c 65F30513 		bfi	r3, r5, #4, #2
 1263 0020 8DF80430 		strb	r3, [sp, #4]
 486:Drivers/BSP/Components/iis2dlpc/iis2dlpc_reg.c ****   }
 1264              		.loc 1 486 5 is_stmt 1 view .LVU324
 486:Drivers/BSP/Components/iis2dlpc/iis2dlpc_reg.c ****   }
 1265              		.loc 1 486 11 is_stmt 0 view .LVU325
 1266 0024 0123     		movs	r3, #1
 1267              	.LVL74:
 486:Drivers/BSP/Components/iis2dlpc/iis2dlpc_reg.c ****   }
 1268              		.loc 1 486 11 view .LVU326
 1269 0026 01AA     		add	r2, sp, #4
 1270 0028 2521     		movs	r1, #37
 1271 002a 2046     		mov	r0, r4
 1272 002c FFF7FEFF 		bl	iis2dlpc_write_reg
 1273              	.LVL75:
 489:Drivers/BSP/Components/iis2dlpc/iis2dlpc_reg.c **** }
 1274              		.loc 1 489 3 is_stmt 1 view .LVU327
 489:Drivers/BSP/Components/iis2dlpc/iis2dlpc_reg.c **** }
 1275              		.loc 1 489 10 is_stmt 0 view .LVU328
 1276 0030 F0E7     		b	.L102
 1277              		.cfi_endproc
 1278              	.LFE17:
 1280              		.section	.text.iis2dlpc_full_scale_get,"ax",%progbits
 1281              		.align	1
 1282              		.global	iis2dlpc_full_scale_get
 1283              		.syntax unified
 1284              		.thumb
 1285              		.thumb_func
 1287              	iis2dlpc_full_scale_get:
 1288              	.LVL76:
 1289              	.LFB18:
 491:Drivers/BSP/Components/iis2dlpc/iis2dlpc_reg.c **** 
 492:Drivers/BSP/Components/iis2dlpc/iis2dlpc_reg.c **** /**
 493:Drivers/BSP/Components/iis2dlpc/iis2dlpc_reg.c ****   * @brief  Accelerometer full-scale selection.[get]
 494:Drivers/BSP/Components/iis2dlpc/iis2dlpc_reg.c ****   *
 495:Drivers/BSP/Components/iis2dlpc/iis2dlpc_reg.c ****   * @param  ctx      read / write interface definitions
 496:Drivers/BSP/Components/iis2dlpc/iis2dlpc_reg.c ****   * @param  val      Get the values of fs in reg CTRL6
 497:Drivers/BSP/Components/iis2dlpc/iis2dlpc_reg.c ****   * @retval          interface status (MANDATORY: return 0 -> no Error)
 498:Drivers/BSP/Components/iis2dlpc/iis2dlpc_reg.c ****   *
 499:Drivers/BSP/Components/iis2dlpc/iis2dlpc_reg.c ****   */
 500:Drivers/BSP/Components/iis2dlpc/iis2dlpc_reg.c **** int32_t iis2dlpc_full_scale_get(const stmdev_ctx_t *ctx, iis2dlpc_fs_t *val)
 501:Drivers/BSP/Components/iis2dlpc/iis2dlpc_reg.c **** {
 1290              		.loc 1 501 1 is_stmt 1 view -0
 1291              		.cfi_startproc
 1292              		@ args = 0, pretend = 0, frame = 8
 1293              		@ frame_needed = 0, uses_anonymous_args = 0
 1294              		.loc 1 501 1 is_stmt 0 view .LVU330
 1295 0000 10B5     		push	{r4, lr}
 1296              		.cfi_def_cfa_offset 8
ARM GAS  C:\Temp\ccGZlXNO.s 			page 35


 1297              		.cfi_offset 4, -8
 1298              		.cfi_offset 14, -4
 1299 0002 82B0     		sub	sp, sp, #8
 1300              		.cfi_def_cfa_offset 16
 1301 0004 0C46     		mov	r4, r1
 502:Drivers/BSP/Components/iis2dlpc/iis2dlpc_reg.c ****   iis2dlpc_ctrl6_t reg;
 1302              		.loc 1 502 3 is_stmt 1 view .LVU331
 503:Drivers/BSP/Components/iis2dlpc/iis2dlpc_reg.c ****   int32_t ret;
 1303              		.loc 1 503 3 view .LVU332
 504:Drivers/BSP/Components/iis2dlpc/iis2dlpc_reg.c **** 
 505:Drivers/BSP/Components/iis2dlpc/iis2dlpc_reg.c ****   ret = iis2dlpc_read_reg(ctx, IIS2DLPC_CTRL6, (uint8_t *) &reg, 1);
 1304              		.loc 1 505 3 view .LVU333
 1305              		.loc 1 505 9 is_stmt 0 view .LVU334
 1306 0006 0123     		movs	r3, #1
 1307 0008 01AA     		add	r2, sp, #4
 1308 000a 2521     		movs	r1, #37
 1309              	.LVL77:
 1310              		.loc 1 505 9 view .LVU335
 1311 000c FFF7FEFF 		bl	iis2dlpc_read_reg
 1312              	.LVL78:
 506:Drivers/BSP/Components/iis2dlpc/iis2dlpc_reg.c **** 
 507:Drivers/BSP/Components/iis2dlpc/iis2dlpc_reg.c ****   switch (reg.fs)
 1313              		.loc 1 507 3 is_stmt 1 view .LVU336
 1314              		.loc 1 507 14 is_stmt 0 view .LVU337
 1315 0010 9DF80430 		ldrb	r3, [sp, #4]	@ zero_extendqisi2
 1316 0014 C3F30113 		ubfx	r3, r3, #4, #2
 1317              		.loc 1 507 3 view .LVU338
 1318 0018 032B     		cmp	r3, #3
 1319 001a 10D8     		bhi	.L107
 1320 001c DFE803F0 		tbb	[pc, r3]
 1321              	.L109:
 1322 0020 02       		.byte	(.L112-.L109)/2
 1323 0021 06       		.byte	(.L111-.L109)/2
 1324 0022 09       		.byte	(.L110-.L109)/2
 1325 0023 0C       		.byte	(.L108-.L109)/2
 1326              		.p2align 1
 1327              	.L112:
 508:Drivers/BSP/Components/iis2dlpc/iis2dlpc_reg.c ****   {
 509:Drivers/BSP/Components/iis2dlpc/iis2dlpc_reg.c ****     case IIS2DLPC_2g:
 510:Drivers/BSP/Components/iis2dlpc/iis2dlpc_reg.c ****       *val = IIS2DLPC_2g;
 1328              		.loc 1 510 7 is_stmt 1 view .LVU339
 1329              		.loc 1 510 12 is_stmt 0 view .LVU340
 1330 0024 0023     		movs	r3, #0
 1331 0026 2370     		strb	r3, [r4]
 511:Drivers/BSP/Components/iis2dlpc/iis2dlpc_reg.c ****       break;
 1332              		.loc 1 511 7 is_stmt 1 view .LVU341
 1333              	.L106:
 512:Drivers/BSP/Components/iis2dlpc/iis2dlpc_reg.c **** 
 513:Drivers/BSP/Components/iis2dlpc/iis2dlpc_reg.c ****     case IIS2DLPC_4g:
 514:Drivers/BSP/Components/iis2dlpc/iis2dlpc_reg.c ****       *val = IIS2DLPC_4g;
 515:Drivers/BSP/Components/iis2dlpc/iis2dlpc_reg.c ****       break;
 516:Drivers/BSP/Components/iis2dlpc/iis2dlpc_reg.c **** 
 517:Drivers/BSP/Components/iis2dlpc/iis2dlpc_reg.c ****     case IIS2DLPC_8g:
 518:Drivers/BSP/Components/iis2dlpc/iis2dlpc_reg.c ****       *val = IIS2DLPC_8g;
 519:Drivers/BSP/Components/iis2dlpc/iis2dlpc_reg.c ****       break;
 520:Drivers/BSP/Components/iis2dlpc/iis2dlpc_reg.c **** 
 521:Drivers/BSP/Components/iis2dlpc/iis2dlpc_reg.c ****     case IIS2DLPC_16g:
ARM GAS  C:\Temp\ccGZlXNO.s 			page 36


 522:Drivers/BSP/Components/iis2dlpc/iis2dlpc_reg.c ****       *val = IIS2DLPC_16g;
 523:Drivers/BSP/Components/iis2dlpc/iis2dlpc_reg.c ****       break;
 524:Drivers/BSP/Components/iis2dlpc/iis2dlpc_reg.c **** 
 525:Drivers/BSP/Components/iis2dlpc/iis2dlpc_reg.c ****     default:
 526:Drivers/BSP/Components/iis2dlpc/iis2dlpc_reg.c ****       *val = IIS2DLPC_2g;
 527:Drivers/BSP/Components/iis2dlpc/iis2dlpc_reg.c ****       break;
 528:Drivers/BSP/Components/iis2dlpc/iis2dlpc_reg.c ****   }
 529:Drivers/BSP/Components/iis2dlpc/iis2dlpc_reg.c **** 
 530:Drivers/BSP/Components/iis2dlpc/iis2dlpc_reg.c ****   return ret;
 531:Drivers/BSP/Components/iis2dlpc/iis2dlpc_reg.c **** }
 1334              		.loc 1 531 1 is_stmt 0 view .LVU342
 1335 0028 02B0     		add	sp, sp, #8
 1336              		.cfi_remember_state
 1337              		.cfi_def_cfa_offset 8
 1338              		@ sp needed
 1339 002a 10BD     		pop	{r4, pc}
 1340              	.LVL79:
 1341              	.L111:
 1342              		.cfi_restore_state
 514:Drivers/BSP/Components/iis2dlpc/iis2dlpc_reg.c ****       break;
 1343              		.loc 1 514 7 is_stmt 1 view .LVU343
 514:Drivers/BSP/Components/iis2dlpc/iis2dlpc_reg.c ****       break;
 1344              		.loc 1 514 12 is_stmt 0 view .LVU344
 1345 002c 0123     		movs	r3, #1
 1346 002e 2370     		strb	r3, [r4]
 515:Drivers/BSP/Components/iis2dlpc/iis2dlpc_reg.c **** 
 1347              		.loc 1 515 7 is_stmt 1 view .LVU345
 1348 0030 FAE7     		b	.L106
 1349              	.L110:
 518:Drivers/BSP/Components/iis2dlpc/iis2dlpc_reg.c ****       break;
 1350              		.loc 1 518 7 view .LVU346
 518:Drivers/BSP/Components/iis2dlpc/iis2dlpc_reg.c ****       break;
 1351              		.loc 1 518 12 is_stmt 0 view .LVU347
 1352 0032 0223     		movs	r3, #2
 1353 0034 2370     		strb	r3, [r4]
 519:Drivers/BSP/Components/iis2dlpc/iis2dlpc_reg.c **** 
 1354              		.loc 1 519 7 is_stmt 1 view .LVU348
 1355 0036 F7E7     		b	.L106
 1356              	.L108:
 522:Drivers/BSP/Components/iis2dlpc/iis2dlpc_reg.c ****       break;
 1357              		.loc 1 522 7 view .LVU349
 522:Drivers/BSP/Components/iis2dlpc/iis2dlpc_reg.c ****       break;
 1358              		.loc 1 522 12 is_stmt 0 view .LVU350
 1359 0038 0323     		movs	r3, #3
 1360 003a 2370     		strb	r3, [r4]
 523:Drivers/BSP/Components/iis2dlpc/iis2dlpc_reg.c **** 
 1361              		.loc 1 523 7 is_stmt 1 view .LVU351
 1362 003c F4E7     		b	.L106
 1363              	.L107:
 526:Drivers/BSP/Components/iis2dlpc/iis2dlpc_reg.c ****       break;
 1364              		.loc 1 526 7 view .LVU352
 526:Drivers/BSP/Components/iis2dlpc/iis2dlpc_reg.c ****       break;
 1365              		.loc 1 526 12 is_stmt 0 view .LVU353
 1366 003e 0023     		movs	r3, #0
 1367 0040 2370     		strb	r3, [r4]
 527:Drivers/BSP/Components/iis2dlpc/iis2dlpc_reg.c ****   }
 1368              		.loc 1 527 7 is_stmt 1 view .LVU354
ARM GAS  C:\Temp\ccGZlXNO.s 			page 37


 530:Drivers/BSP/Components/iis2dlpc/iis2dlpc_reg.c **** }
 1369              		.loc 1 530 3 view .LVU355
 530:Drivers/BSP/Components/iis2dlpc/iis2dlpc_reg.c **** }
 1370              		.loc 1 530 10 is_stmt 0 view .LVU356
 1371 0042 F1E7     		b	.L106
 1372              		.cfi_endproc
 1373              	.LFE18:
 1375              		.section	.text.iis2dlpc_status_reg_get,"ax",%progbits
 1376              		.align	1
 1377              		.global	iis2dlpc_status_reg_get
 1378              		.syntax unified
 1379              		.thumb
 1380              		.thumb_func
 1382              	iis2dlpc_status_reg_get:
 1383              	.LVL80:
 1384              	.LFB19:
 532:Drivers/BSP/Components/iis2dlpc/iis2dlpc_reg.c **** 
 533:Drivers/BSP/Components/iis2dlpc/iis2dlpc_reg.c **** /**
 534:Drivers/BSP/Components/iis2dlpc/iis2dlpc_reg.c ****   * @brief  The STATUS_REG register of the device.[get]
 535:Drivers/BSP/Components/iis2dlpc/iis2dlpc_reg.c ****   *
 536:Drivers/BSP/Components/iis2dlpc/iis2dlpc_reg.c ****   * @param  ctx      read / write interface definitions
 537:Drivers/BSP/Components/iis2dlpc/iis2dlpc_reg.c ****   * @param  val      union of registers from STATUS to
 538:Drivers/BSP/Components/iis2dlpc/iis2dlpc_reg.c ****   * @retval          interface status (MANDATORY: return 0 -> no Error)
 539:Drivers/BSP/Components/iis2dlpc/iis2dlpc_reg.c ****   *
 540:Drivers/BSP/Components/iis2dlpc/iis2dlpc_reg.c ****   */
 541:Drivers/BSP/Components/iis2dlpc/iis2dlpc_reg.c **** int32_t iis2dlpc_status_reg_get(const stmdev_ctx_t *ctx,
 542:Drivers/BSP/Components/iis2dlpc/iis2dlpc_reg.c ****                                 iis2dlpc_status_t *val)
 543:Drivers/BSP/Components/iis2dlpc/iis2dlpc_reg.c **** {
 1385              		.loc 1 543 1 is_stmt 1 view -0
 1386              		.cfi_startproc
 1387              		@ args = 0, pretend = 0, frame = 0
 1388              		@ frame_needed = 0, uses_anonymous_args = 0
 1389              		.loc 1 543 1 is_stmt 0 view .LVU358
 1390 0000 08B5     		push	{r3, lr}
 1391              		.cfi_def_cfa_offset 8
 1392              		.cfi_offset 3, -8
 1393              		.cfi_offset 14, -4
 1394 0002 0A46     		mov	r2, r1
 544:Drivers/BSP/Components/iis2dlpc/iis2dlpc_reg.c ****   int32_t ret;
 1395              		.loc 1 544 3 is_stmt 1 view .LVU359
 545:Drivers/BSP/Components/iis2dlpc/iis2dlpc_reg.c **** 
 546:Drivers/BSP/Components/iis2dlpc/iis2dlpc_reg.c ****   ret = iis2dlpc_read_reg(ctx, IIS2DLPC_STATUS, (uint8_t *) val, 1);
 1396              		.loc 1 546 3 view .LVU360
 1397              		.loc 1 546 9 is_stmt 0 view .LVU361
 1398 0004 0123     		movs	r3, #1
 1399 0006 2721     		movs	r1, #39
 1400              	.LVL81:
 1401              		.loc 1 546 9 view .LVU362
 1402 0008 FFF7FEFF 		bl	iis2dlpc_read_reg
 1403              	.LVL82:
 547:Drivers/BSP/Components/iis2dlpc/iis2dlpc_reg.c **** 
 548:Drivers/BSP/Components/iis2dlpc/iis2dlpc_reg.c ****   return ret;
 1404              		.loc 1 548 3 is_stmt 1 view .LVU363
 549:Drivers/BSP/Components/iis2dlpc/iis2dlpc_reg.c **** }
 1405              		.loc 1 549 1 is_stmt 0 view .LVU364
 1406 000c 08BD     		pop	{r3, pc}
 1407              		.cfi_endproc
ARM GAS  C:\Temp\ccGZlXNO.s 			page 38


 1408              	.LFE19:
 1410              		.section	.text.iis2dlpc_flag_data_ready_get,"ax",%progbits
 1411              		.align	1
 1412              		.global	iis2dlpc_flag_data_ready_get
 1413              		.syntax unified
 1414              		.thumb
 1415              		.thumb_func
 1417              	iis2dlpc_flag_data_ready_get:
 1418              	.LVL83:
 1419              	.LFB20:
 550:Drivers/BSP/Components/iis2dlpc/iis2dlpc_reg.c **** 
 551:Drivers/BSP/Components/iis2dlpc/iis2dlpc_reg.c **** /**
 552:Drivers/BSP/Components/iis2dlpc/iis2dlpc_reg.c ****   * @brief  Accelerometer new data available.[get]
 553:Drivers/BSP/Components/iis2dlpc/iis2dlpc_reg.c ****   *
 554:Drivers/BSP/Components/iis2dlpc/iis2dlpc_reg.c ****   * @param  ctx      read / write interface definitions
 555:Drivers/BSP/Components/iis2dlpc/iis2dlpc_reg.c ****   * @param  val      change the values of drdy in reg STATUS
 556:Drivers/BSP/Components/iis2dlpc/iis2dlpc_reg.c ****   * @retval          interface status (MANDATORY: return 0 -> no Error)
 557:Drivers/BSP/Components/iis2dlpc/iis2dlpc_reg.c ****   *
 558:Drivers/BSP/Components/iis2dlpc/iis2dlpc_reg.c ****   */
 559:Drivers/BSP/Components/iis2dlpc/iis2dlpc_reg.c **** int32_t iis2dlpc_flag_data_ready_get(const stmdev_ctx_t *ctx, uint8_t *val)
 560:Drivers/BSP/Components/iis2dlpc/iis2dlpc_reg.c **** {
 1420              		.loc 1 560 1 is_stmt 1 view -0
 1421              		.cfi_startproc
 1422              		@ args = 0, pretend = 0, frame = 8
 1423              		@ frame_needed = 0, uses_anonymous_args = 0
 1424              		.loc 1 560 1 is_stmt 0 view .LVU366
 1425 0000 10B5     		push	{r4, lr}
 1426              		.cfi_def_cfa_offset 8
 1427              		.cfi_offset 4, -8
 1428              		.cfi_offset 14, -4
 1429 0002 82B0     		sub	sp, sp, #8
 1430              		.cfi_def_cfa_offset 16
 1431 0004 0C46     		mov	r4, r1
 561:Drivers/BSP/Components/iis2dlpc/iis2dlpc_reg.c ****   iis2dlpc_status_t reg;
 1432              		.loc 1 561 3 is_stmt 1 view .LVU367
 562:Drivers/BSP/Components/iis2dlpc/iis2dlpc_reg.c ****   int32_t ret;
 1433              		.loc 1 562 3 view .LVU368
 563:Drivers/BSP/Components/iis2dlpc/iis2dlpc_reg.c **** 
 564:Drivers/BSP/Components/iis2dlpc/iis2dlpc_reg.c ****   ret = iis2dlpc_read_reg(ctx, IIS2DLPC_STATUS, (uint8_t *) &reg, 1);
 1434              		.loc 1 564 3 view .LVU369
 1435              		.loc 1 564 9 is_stmt 0 view .LVU370
 1436 0006 0123     		movs	r3, #1
 1437 0008 01AA     		add	r2, sp, #4
 1438 000a 2721     		movs	r1, #39
 1439              	.LVL84:
 1440              		.loc 1 564 9 view .LVU371
 1441 000c FFF7FEFF 		bl	iis2dlpc_read_reg
 1442              	.LVL85:
 565:Drivers/BSP/Components/iis2dlpc/iis2dlpc_reg.c ****   *val = reg.drdy;
 1443              		.loc 1 565 3 is_stmt 1 view .LVU372
 1444              		.loc 1 565 13 is_stmt 0 view .LVU373
 1445 0010 9DF80430 		ldrb	r3, [sp, #4]	@ zero_extendqisi2
 1446 0014 C3F30003 		ubfx	r3, r3, #0, #1
 1447              		.loc 1 565 8 view .LVU374
 1448 0018 2370     		strb	r3, [r4]
 566:Drivers/BSP/Components/iis2dlpc/iis2dlpc_reg.c **** 
 567:Drivers/BSP/Components/iis2dlpc/iis2dlpc_reg.c ****   return ret;
ARM GAS  C:\Temp\ccGZlXNO.s 			page 39


 1449              		.loc 1 567 3 is_stmt 1 view .LVU375
 568:Drivers/BSP/Components/iis2dlpc/iis2dlpc_reg.c **** }
 1450              		.loc 1 568 1 is_stmt 0 view .LVU376
 1451 001a 02B0     		add	sp, sp, #8
 1452              		.cfi_def_cfa_offset 8
 1453              		@ sp needed
 1454 001c 10BD     		pop	{r4, pc}
 1455              		.loc 1 568 1 view .LVU377
 1456              		.cfi_endproc
 1457              	.LFE20:
 1459              		.section	.text.iis2dlpc_all_sources_get,"ax",%progbits
 1460              		.align	1
 1461              		.global	iis2dlpc_all_sources_get
 1462              		.syntax unified
 1463              		.thumb
 1464              		.thumb_func
 1466              	iis2dlpc_all_sources_get:
 1467              	.LVL86:
 1468              	.LFB21:
 569:Drivers/BSP/Components/iis2dlpc/iis2dlpc_reg.c **** /**
 570:Drivers/BSP/Components/iis2dlpc/iis2dlpc_reg.c ****   * @brief   Read all the interrupt/status flag of the device.[get]
 571:Drivers/BSP/Components/iis2dlpc/iis2dlpc_reg.c ****   *
 572:Drivers/BSP/Components/iis2dlpc/iis2dlpc_reg.c ****   * @param  ctx      read / write interface definitions
 573:Drivers/BSP/Components/iis2dlpc/iis2dlpc_reg.c ****   * @param  val      registers STATUS_DUP, WAKE_UP_SRC,
 574:Drivers/BSP/Components/iis2dlpc/iis2dlpc_reg.c ****   *                  TAP_SRC, SIXD_SRC, ALL_INT_SRC
 575:Drivers/BSP/Components/iis2dlpc/iis2dlpc_reg.c ****   * @retval          interface status (MANDATORY: return 0 -> no Error)
 576:Drivers/BSP/Components/iis2dlpc/iis2dlpc_reg.c ****   *
 577:Drivers/BSP/Components/iis2dlpc/iis2dlpc_reg.c ****   */
 578:Drivers/BSP/Components/iis2dlpc/iis2dlpc_reg.c **** int32_t iis2dlpc_all_sources_get(const stmdev_ctx_t *ctx,
 579:Drivers/BSP/Components/iis2dlpc/iis2dlpc_reg.c ****                                  iis2dlpc_all_sources_t *val)
 580:Drivers/BSP/Components/iis2dlpc/iis2dlpc_reg.c **** {
 1469              		.loc 1 580 1 is_stmt 1 view -0
 1470              		.cfi_startproc
 1471              		@ args = 0, pretend = 0, frame = 0
 1472              		@ frame_needed = 0, uses_anonymous_args = 0
 1473              		.loc 1 580 1 is_stmt 0 view .LVU379
 1474 0000 08B5     		push	{r3, lr}
 1475              		.cfi_def_cfa_offset 8
 1476              		.cfi_offset 3, -8
 1477              		.cfi_offset 14, -4
 1478 0002 0A46     		mov	r2, r1
 581:Drivers/BSP/Components/iis2dlpc/iis2dlpc_reg.c ****   int32_t ret;
 1479              		.loc 1 581 3 is_stmt 1 view .LVU380
 582:Drivers/BSP/Components/iis2dlpc/iis2dlpc_reg.c **** 
 583:Drivers/BSP/Components/iis2dlpc/iis2dlpc_reg.c ****   ret = iis2dlpc_read_reg(ctx, IIS2DLPC_STATUS_DUP, (uint8_t *) val, 5);
 1480              		.loc 1 583 3 view .LVU381
 1481              		.loc 1 583 9 is_stmt 0 view .LVU382
 1482 0004 0523     		movs	r3, #5
 1483 0006 3721     		movs	r1, #55
 1484              	.LVL87:
 1485              		.loc 1 583 9 view .LVU383
 1486 0008 FFF7FEFF 		bl	iis2dlpc_read_reg
 1487              	.LVL88:
 584:Drivers/BSP/Components/iis2dlpc/iis2dlpc_reg.c **** 
 585:Drivers/BSP/Components/iis2dlpc/iis2dlpc_reg.c ****   return ret;
 1488              		.loc 1 585 3 is_stmt 1 view .LVU384
 586:Drivers/BSP/Components/iis2dlpc/iis2dlpc_reg.c **** }
ARM GAS  C:\Temp\ccGZlXNO.s 			page 40


 1489              		.loc 1 586 1 is_stmt 0 view .LVU385
 1490 000c 08BD     		pop	{r3, pc}
 1491              		.cfi_endproc
 1492              	.LFE21:
 1494              		.section	.text.iis2dlpc_usr_offset_x_set,"ax",%progbits
 1495              		.align	1
 1496              		.global	iis2dlpc_usr_offset_x_set
 1497              		.syntax unified
 1498              		.thumb
 1499              		.thumb_func
 1501              	iis2dlpc_usr_offset_x_set:
 1502              	.LVL89:
 1503              	.LFB22:
 587:Drivers/BSP/Components/iis2dlpc/iis2dlpc_reg.c **** 
 588:Drivers/BSP/Components/iis2dlpc/iis2dlpc_reg.c **** /**
 589:Drivers/BSP/Components/iis2dlpc/iis2dlpc_reg.c ****   * @brief  Accelerometer X-axis user offset correction expressed in two's
 590:Drivers/BSP/Components/iis2dlpc/iis2dlpc_reg.c ****   *         complement, weight depends on bit USR_OFF_W. The value must be
 591:Drivers/BSP/Components/iis2dlpc/iis2dlpc_reg.c ****   *         in the range [-127 127].[set]
 592:Drivers/BSP/Components/iis2dlpc/iis2dlpc_reg.c ****   *
 593:Drivers/BSP/Components/iis2dlpc/iis2dlpc_reg.c ****   * @param  ctx      read / write interface definitions
 594:Drivers/BSP/Components/iis2dlpc/iis2dlpc_reg.c ****   * @param  buff     buffer that contains data to write
 595:Drivers/BSP/Components/iis2dlpc/iis2dlpc_reg.c ****   * @retval          interface status (MANDATORY: return 0 -> no Error)
 596:Drivers/BSP/Components/iis2dlpc/iis2dlpc_reg.c ****   *
 597:Drivers/BSP/Components/iis2dlpc/iis2dlpc_reg.c ****   */
 598:Drivers/BSP/Components/iis2dlpc/iis2dlpc_reg.c **** int32_t iis2dlpc_usr_offset_x_set(const stmdev_ctx_t *ctx, uint8_t *buff)
 599:Drivers/BSP/Components/iis2dlpc/iis2dlpc_reg.c **** {
 1504              		.loc 1 599 1 is_stmt 1 view -0
 1505              		.cfi_startproc
 1506              		@ args = 0, pretend = 0, frame = 0
 1507              		@ frame_needed = 0, uses_anonymous_args = 0
 1508              		.loc 1 599 1 is_stmt 0 view .LVU387
 1509 0000 08B5     		push	{r3, lr}
 1510              		.cfi_def_cfa_offset 8
 1511              		.cfi_offset 3, -8
 1512              		.cfi_offset 14, -4
 1513 0002 0A46     		mov	r2, r1
 600:Drivers/BSP/Components/iis2dlpc/iis2dlpc_reg.c ****   int32_t ret;
 1514              		.loc 1 600 3 is_stmt 1 view .LVU388
 601:Drivers/BSP/Components/iis2dlpc/iis2dlpc_reg.c **** 
 602:Drivers/BSP/Components/iis2dlpc/iis2dlpc_reg.c ****   ret = iis2dlpc_write_reg(ctx, IIS2DLPC_X_OFS_USR, buff, 1);
 1515              		.loc 1 602 3 view .LVU389
 1516              		.loc 1 602 9 is_stmt 0 view .LVU390
 1517 0004 0123     		movs	r3, #1
 1518 0006 3C21     		movs	r1, #60
 1519              	.LVL90:
 1520              		.loc 1 602 9 view .LVU391
 1521 0008 FFF7FEFF 		bl	iis2dlpc_write_reg
 1522              	.LVL91:
 603:Drivers/BSP/Components/iis2dlpc/iis2dlpc_reg.c **** 
 604:Drivers/BSP/Components/iis2dlpc/iis2dlpc_reg.c ****   return ret;
 1523              		.loc 1 604 3 is_stmt 1 view .LVU392
 605:Drivers/BSP/Components/iis2dlpc/iis2dlpc_reg.c **** }
 1524              		.loc 1 605 1 is_stmt 0 view .LVU393
 1525 000c 08BD     		pop	{r3, pc}
 1526              		.cfi_endproc
 1527              	.LFE22:
 1529              		.section	.text.iis2dlpc_usr_offset_x_get,"ax",%progbits
ARM GAS  C:\Temp\ccGZlXNO.s 			page 41


 1530              		.align	1
 1531              		.global	iis2dlpc_usr_offset_x_get
 1532              		.syntax unified
 1533              		.thumb
 1534              		.thumb_func
 1536              	iis2dlpc_usr_offset_x_get:
 1537              	.LVL92:
 1538              	.LFB23:
 606:Drivers/BSP/Components/iis2dlpc/iis2dlpc_reg.c **** 
 607:Drivers/BSP/Components/iis2dlpc/iis2dlpc_reg.c **** /**
 608:Drivers/BSP/Components/iis2dlpc/iis2dlpc_reg.c ****   * @brief  Accelerometer X-axis user offset correction expressed in two's
 609:Drivers/BSP/Components/iis2dlpc/iis2dlpc_reg.c ****   *         complement, weight depends on bit USR_OFF_W. The value must be
 610:Drivers/BSP/Components/iis2dlpc/iis2dlpc_reg.c ****   *         in the range [-127 127].[get]
 611:Drivers/BSP/Components/iis2dlpc/iis2dlpc_reg.c ****   *
 612:Drivers/BSP/Components/iis2dlpc/iis2dlpc_reg.c ****   * @param  ctx      read / write interface definitions
 613:Drivers/BSP/Components/iis2dlpc/iis2dlpc_reg.c ****   * @param  buff     buffer that stores data read
 614:Drivers/BSP/Components/iis2dlpc/iis2dlpc_reg.c ****   * @retval          interface status (MANDATORY: return 0 -> no Error)
 615:Drivers/BSP/Components/iis2dlpc/iis2dlpc_reg.c ****   *
 616:Drivers/BSP/Components/iis2dlpc/iis2dlpc_reg.c ****   */
 617:Drivers/BSP/Components/iis2dlpc/iis2dlpc_reg.c **** int32_t iis2dlpc_usr_offset_x_get(const stmdev_ctx_t *ctx, uint8_t *buff)
 618:Drivers/BSP/Components/iis2dlpc/iis2dlpc_reg.c **** {
 1539              		.loc 1 618 1 is_stmt 1 view -0
 1540              		.cfi_startproc
 1541              		@ args = 0, pretend = 0, frame = 0
 1542              		@ frame_needed = 0, uses_anonymous_args = 0
 1543              		.loc 1 618 1 is_stmt 0 view .LVU395
 1544 0000 08B5     		push	{r3, lr}
 1545              		.cfi_def_cfa_offset 8
 1546              		.cfi_offset 3, -8
 1547              		.cfi_offset 14, -4
 1548 0002 0A46     		mov	r2, r1
 619:Drivers/BSP/Components/iis2dlpc/iis2dlpc_reg.c ****   int32_t ret;
 1549              		.loc 1 619 3 is_stmt 1 view .LVU396
 620:Drivers/BSP/Components/iis2dlpc/iis2dlpc_reg.c **** 
 621:Drivers/BSP/Components/iis2dlpc/iis2dlpc_reg.c ****   ret = iis2dlpc_read_reg(ctx, IIS2DLPC_X_OFS_USR, buff, 1);
 1550              		.loc 1 621 3 view .LVU397
 1551              		.loc 1 621 9 is_stmt 0 view .LVU398
 1552 0004 0123     		movs	r3, #1
 1553 0006 3C21     		movs	r1, #60
 1554              	.LVL93:
 1555              		.loc 1 621 9 view .LVU399
 1556 0008 FFF7FEFF 		bl	iis2dlpc_read_reg
 1557              	.LVL94:
 622:Drivers/BSP/Components/iis2dlpc/iis2dlpc_reg.c **** 
 623:Drivers/BSP/Components/iis2dlpc/iis2dlpc_reg.c ****   return ret;
 1558              		.loc 1 623 3 is_stmt 1 view .LVU400
 624:Drivers/BSP/Components/iis2dlpc/iis2dlpc_reg.c **** }
 1559              		.loc 1 624 1 is_stmt 0 view .LVU401
 1560 000c 08BD     		pop	{r3, pc}
 1561              		.cfi_endproc
 1562              	.LFE23:
 1564              		.section	.text.iis2dlpc_usr_offset_y_set,"ax",%progbits
 1565              		.align	1
 1566              		.global	iis2dlpc_usr_offset_y_set
 1567              		.syntax unified
 1568              		.thumb
 1569              		.thumb_func
ARM GAS  C:\Temp\ccGZlXNO.s 			page 42


 1571              	iis2dlpc_usr_offset_y_set:
 1572              	.LVL95:
 1573              	.LFB24:
 625:Drivers/BSP/Components/iis2dlpc/iis2dlpc_reg.c **** 
 626:Drivers/BSP/Components/iis2dlpc/iis2dlpc_reg.c **** /**
 627:Drivers/BSP/Components/iis2dlpc/iis2dlpc_reg.c ****   * @brief  Accelerometer Y-axis user offset correction expressed in two's
 628:Drivers/BSP/Components/iis2dlpc/iis2dlpc_reg.c ****   *         complement, weight depends on bit USR_OFF_W. The value must be
 629:Drivers/BSP/Components/iis2dlpc/iis2dlpc_reg.c ****   *         in the range [-127 127].[set]
 630:Drivers/BSP/Components/iis2dlpc/iis2dlpc_reg.c ****   *
 631:Drivers/BSP/Components/iis2dlpc/iis2dlpc_reg.c ****   * @param  ctx      read / write interface definitions
 632:Drivers/BSP/Components/iis2dlpc/iis2dlpc_reg.c ****   * @param  buff     buffer that contains data to write
 633:Drivers/BSP/Components/iis2dlpc/iis2dlpc_reg.c ****   * @retval          interface status (MANDATORY: return 0 -> no Error)
 634:Drivers/BSP/Components/iis2dlpc/iis2dlpc_reg.c ****   *
 635:Drivers/BSP/Components/iis2dlpc/iis2dlpc_reg.c ****   */
 636:Drivers/BSP/Components/iis2dlpc/iis2dlpc_reg.c **** int32_t iis2dlpc_usr_offset_y_set(const stmdev_ctx_t *ctx, uint8_t *buff)
 637:Drivers/BSP/Components/iis2dlpc/iis2dlpc_reg.c **** {
 1574              		.loc 1 637 1 is_stmt 1 view -0
 1575              		.cfi_startproc
 1576              		@ args = 0, pretend = 0, frame = 0
 1577              		@ frame_needed = 0, uses_anonymous_args = 0
 1578              		.loc 1 637 1 is_stmt 0 view .LVU403
 1579 0000 08B5     		push	{r3, lr}
 1580              		.cfi_def_cfa_offset 8
 1581              		.cfi_offset 3, -8
 1582              		.cfi_offset 14, -4
 1583 0002 0A46     		mov	r2, r1
 638:Drivers/BSP/Components/iis2dlpc/iis2dlpc_reg.c ****   int32_t ret;
 1584              		.loc 1 638 3 is_stmt 1 view .LVU404
 639:Drivers/BSP/Components/iis2dlpc/iis2dlpc_reg.c **** 
 640:Drivers/BSP/Components/iis2dlpc/iis2dlpc_reg.c ****   ret = iis2dlpc_write_reg(ctx, IIS2DLPC_Y_OFS_USR, buff, 1);
 1585              		.loc 1 640 3 view .LVU405
 1586              		.loc 1 640 9 is_stmt 0 view .LVU406
 1587 0004 0123     		movs	r3, #1
 1588 0006 3D21     		movs	r1, #61
 1589              	.LVL96:
 1590              		.loc 1 640 9 view .LVU407
 1591 0008 FFF7FEFF 		bl	iis2dlpc_write_reg
 1592              	.LVL97:
 641:Drivers/BSP/Components/iis2dlpc/iis2dlpc_reg.c **** 
 642:Drivers/BSP/Components/iis2dlpc/iis2dlpc_reg.c ****   return ret;
 1593              		.loc 1 642 3 is_stmt 1 view .LVU408
 643:Drivers/BSP/Components/iis2dlpc/iis2dlpc_reg.c **** }
 1594              		.loc 1 643 1 is_stmt 0 view .LVU409
 1595 000c 08BD     		pop	{r3, pc}
 1596              		.cfi_endproc
 1597              	.LFE24:
 1599              		.section	.text.iis2dlpc_usr_offset_y_get,"ax",%progbits
 1600              		.align	1
 1601              		.global	iis2dlpc_usr_offset_y_get
 1602              		.syntax unified
 1603              		.thumb
 1604              		.thumb_func
 1606              	iis2dlpc_usr_offset_y_get:
 1607              	.LVL98:
 1608              	.LFB25:
 644:Drivers/BSP/Components/iis2dlpc/iis2dlpc_reg.c **** 
 645:Drivers/BSP/Components/iis2dlpc/iis2dlpc_reg.c **** /**
ARM GAS  C:\Temp\ccGZlXNO.s 			page 43


 646:Drivers/BSP/Components/iis2dlpc/iis2dlpc_reg.c ****   * @brief  Accelerometer Y-axis user offset correction expressed in two's
 647:Drivers/BSP/Components/iis2dlpc/iis2dlpc_reg.c ****   *         complement, weight depends on bit USR_OFF_W. The value must be
 648:Drivers/BSP/Components/iis2dlpc/iis2dlpc_reg.c ****   *         in the range [-127 127].[get]
 649:Drivers/BSP/Components/iis2dlpc/iis2dlpc_reg.c ****   *
 650:Drivers/BSP/Components/iis2dlpc/iis2dlpc_reg.c ****   * @param  ctx      read / write interface definitions
 651:Drivers/BSP/Components/iis2dlpc/iis2dlpc_reg.c ****   * @param  buff     buffer that stores data read
 652:Drivers/BSP/Components/iis2dlpc/iis2dlpc_reg.c ****   * @retval          interface status (MANDATORY: return 0 -> no Error)
 653:Drivers/BSP/Components/iis2dlpc/iis2dlpc_reg.c ****   *
 654:Drivers/BSP/Components/iis2dlpc/iis2dlpc_reg.c ****   */
 655:Drivers/BSP/Components/iis2dlpc/iis2dlpc_reg.c **** int32_t iis2dlpc_usr_offset_y_get(const stmdev_ctx_t *ctx, uint8_t *buff)
 656:Drivers/BSP/Components/iis2dlpc/iis2dlpc_reg.c **** {
 1609              		.loc 1 656 1 is_stmt 1 view -0
 1610              		.cfi_startproc
 1611              		@ args = 0, pretend = 0, frame = 0
 1612              		@ frame_needed = 0, uses_anonymous_args = 0
 1613              		.loc 1 656 1 is_stmt 0 view .LVU411
 1614 0000 08B5     		push	{r3, lr}
 1615              		.cfi_def_cfa_offset 8
 1616              		.cfi_offset 3, -8
 1617              		.cfi_offset 14, -4
 1618 0002 0A46     		mov	r2, r1
 657:Drivers/BSP/Components/iis2dlpc/iis2dlpc_reg.c ****   int32_t ret;
 1619              		.loc 1 657 3 is_stmt 1 view .LVU412
 658:Drivers/BSP/Components/iis2dlpc/iis2dlpc_reg.c **** 
 659:Drivers/BSP/Components/iis2dlpc/iis2dlpc_reg.c ****   ret = iis2dlpc_read_reg(ctx, IIS2DLPC_Y_OFS_USR, buff, 1);
 1620              		.loc 1 659 3 view .LVU413
 1621              		.loc 1 659 9 is_stmt 0 view .LVU414
 1622 0004 0123     		movs	r3, #1
 1623 0006 3D21     		movs	r1, #61
 1624              	.LVL99:
 1625              		.loc 1 659 9 view .LVU415
 1626 0008 FFF7FEFF 		bl	iis2dlpc_read_reg
 1627              	.LVL100:
 660:Drivers/BSP/Components/iis2dlpc/iis2dlpc_reg.c **** 
 661:Drivers/BSP/Components/iis2dlpc/iis2dlpc_reg.c ****   return ret;
 1628              		.loc 1 661 3 is_stmt 1 view .LVU416
 662:Drivers/BSP/Components/iis2dlpc/iis2dlpc_reg.c **** }
 1629              		.loc 1 662 1 is_stmt 0 view .LVU417
 1630 000c 08BD     		pop	{r3, pc}
 1631              		.cfi_endproc
 1632              	.LFE25:
 1634              		.section	.text.iis2dlpc_usr_offset_z_set,"ax",%progbits
 1635              		.align	1
 1636              		.global	iis2dlpc_usr_offset_z_set
 1637              		.syntax unified
 1638              		.thumb
 1639              		.thumb_func
 1641              	iis2dlpc_usr_offset_z_set:
 1642              	.LVL101:
 1643              	.LFB26:
 663:Drivers/BSP/Components/iis2dlpc/iis2dlpc_reg.c **** 
 664:Drivers/BSP/Components/iis2dlpc/iis2dlpc_reg.c **** /**
 665:Drivers/BSP/Components/iis2dlpc/iis2dlpc_reg.c ****   * @brief  Accelerometer Z-axis user offset correction expressed in two's
 666:Drivers/BSP/Components/iis2dlpc/iis2dlpc_reg.c ****   *         complement, weight depends on bit USR_OFF_W. The value must be
 667:Drivers/BSP/Components/iis2dlpc/iis2dlpc_reg.c ****   *         in the range [-127 127].[set]
 668:Drivers/BSP/Components/iis2dlpc/iis2dlpc_reg.c ****   *
 669:Drivers/BSP/Components/iis2dlpc/iis2dlpc_reg.c ****   * @param  ctx      read / write interface definitions
ARM GAS  C:\Temp\ccGZlXNO.s 			page 44


 670:Drivers/BSP/Components/iis2dlpc/iis2dlpc_reg.c ****   * @param  buff     buffer that contains data to write
 671:Drivers/BSP/Components/iis2dlpc/iis2dlpc_reg.c ****   * @retval          interface status (MANDATORY: return 0 -> no Error)
 672:Drivers/BSP/Components/iis2dlpc/iis2dlpc_reg.c ****   *
 673:Drivers/BSP/Components/iis2dlpc/iis2dlpc_reg.c ****   */
 674:Drivers/BSP/Components/iis2dlpc/iis2dlpc_reg.c **** int32_t iis2dlpc_usr_offset_z_set(const stmdev_ctx_t *ctx, uint8_t *buff)
 675:Drivers/BSP/Components/iis2dlpc/iis2dlpc_reg.c **** {
 1644              		.loc 1 675 1 is_stmt 1 view -0
 1645              		.cfi_startproc
 1646              		@ args = 0, pretend = 0, frame = 0
 1647              		@ frame_needed = 0, uses_anonymous_args = 0
 1648              		.loc 1 675 1 is_stmt 0 view .LVU419
 1649 0000 08B5     		push	{r3, lr}
 1650              		.cfi_def_cfa_offset 8
 1651              		.cfi_offset 3, -8
 1652              		.cfi_offset 14, -4
 1653 0002 0A46     		mov	r2, r1
 676:Drivers/BSP/Components/iis2dlpc/iis2dlpc_reg.c ****   int32_t ret;
 1654              		.loc 1 676 3 is_stmt 1 view .LVU420
 677:Drivers/BSP/Components/iis2dlpc/iis2dlpc_reg.c **** 
 678:Drivers/BSP/Components/iis2dlpc/iis2dlpc_reg.c ****   ret = iis2dlpc_write_reg(ctx, IIS2DLPC_Z_OFS_USR, buff, 1);
 1655              		.loc 1 678 3 view .LVU421
 1656              		.loc 1 678 9 is_stmt 0 view .LVU422
 1657 0004 0123     		movs	r3, #1
 1658 0006 3E21     		movs	r1, #62
 1659              	.LVL102:
 1660              		.loc 1 678 9 view .LVU423
 1661 0008 FFF7FEFF 		bl	iis2dlpc_write_reg
 1662              	.LVL103:
 679:Drivers/BSP/Components/iis2dlpc/iis2dlpc_reg.c **** 
 680:Drivers/BSP/Components/iis2dlpc/iis2dlpc_reg.c ****   return ret;
 1663              		.loc 1 680 3 is_stmt 1 view .LVU424
 681:Drivers/BSP/Components/iis2dlpc/iis2dlpc_reg.c **** }
 1664              		.loc 1 681 1 is_stmt 0 view .LVU425
 1665 000c 08BD     		pop	{r3, pc}
 1666              		.cfi_endproc
 1667              	.LFE26:
 1669              		.section	.text.iis2dlpc_usr_offset_z_get,"ax",%progbits
 1670              		.align	1
 1671              		.global	iis2dlpc_usr_offset_z_get
 1672              		.syntax unified
 1673              		.thumb
 1674              		.thumb_func
 1676              	iis2dlpc_usr_offset_z_get:
 1677              	.LVL104:
 1678              	.LFB27:
 682:Drivers/BSP/Components/iis2dlpc/iis2dlpc_reg.c **** 
 683:Drivers/BSP/Components/iis2dlpc/iis2dlpc_reg.c **** /**
 684:Drivers/BSP/Components/iis2dlpc/iis2dlpc_reg.c ****   * @brief  Accelerometer Z-axis user offset correction expressed in two's
 685:Drivers/BSP/Components/iis2dlpc/iis2dlpc_reg.c ****   *         complement, weight depends on bit USR_OFF_W. The value must be
 686:Drivers/BSP/Components/iis2dlpc/iis2dlpc_reg.c ****   *         in the range [-127 127].[get]
 687:Drivers/BSP/Components/iis2dlpc/iis2dlpc_reg.c ****   *
 688:Drivers/BSP/Components/iis2dlpc/iis2dlpc_reg.c ****   * @param  ctx      read / write interface definitions
 689:Drivers/BSP/Components/iis2dlpc/iis2dlpc_reg.c ****   * @param  buff     buffer that stores data read
 690:Drivers/BSP/Components/iis2dlpc/iis2dlpc_reg.c ****   * @retval          interface status (MANDATORY: return 0 -> no Error)
 691:Drivers/BSP/Components/iis2dlpc/iis2dlpc_reg.c ****   *
 692:Drivers/BSP/Components/iis2dlpc/iis2dlpc_reg.c ****   */
 693:Drivers/BSP/Components/iis2dlpc/iis2dlpc_reg.c **** int32_t iis2dlpc_usr_offset_z_get(const stmdev_ctx_t *ctx, uint8_t *buff)
ARM GAS  C:\Temp\ccGZlXNO.s 			page 45


 694:Drivers/BSP/Components/iis2dlpc/iis2dlpc_reg.c **** {
 1679              		.loc 1 694 1 is_stmt 1 view -0
 1680              		.cfi_startproc
 1681              		@ args = 0, pretend = 0, frame = 0
 1682              		@ frame_needed = 0, uses_anonymous_args = 0
 1683              		.loc 1 694 1 is_stmt 0 view .LVU427
 1684 0000 08B5     		push	{r3, lr}
 1685              		.cfi_def_cfa_offset 8
 1686              		.cfi_offset 3, -8
 1687              		.cfi_offset 14, -4
 1688 0002 0A46     		mov	r2, r1
 695:Drivers/BSP/Components/iis2dlpc/iis2dlpc_reg.c ****   int32_t ret;
 1689              		.loc 1 695 3 is_stmt 1 view .LVU428
 696:Drivers/BSP/Components/iis2dlpc/iis2dlpc_reg.c **** 
 697:Drivers/BSP/Components/iis2dlpc/iis2dlpc_reg.c ****   ret = iis2dlpc_read_reg(ctx, IIS2DLPC_Z_OFS_USR, buff, 1);
 1690              		.loc 1 697 3 view .LVU429
 1691              		.loc 1 697 9 is_stmt 0 view .LVU430
 1692 0004 0123     		movs	r3, #1
 1693 0006 3E21     		movs	r1, #62
 1694              	.LVL105:
 1695              		.loc 1 697 9 view .LVU431
 1696 0008 FFF7FEFF 		bl	iis2dlpc_read_reg
 1697              	.LVL106:
 698:Drivers/BSP/Components/iis2dlpc/iis2dlpc_reg.c **** 
 699:Drivers/BSP/Components/iis2dlpc/iis2dlpc_reg.c ****   return ret;
 1698              		.loc 1 699 3 is_stmt 1 view .LVU432
 700:Drivers/BSP/Components/iis2dlpc/iis2dlpc_reg.c **** }
 1699              		.loc 1 700 1 is_stmt 0 view .LVU433
 1700 000c 08BD     		pop	{r3, pc}
 1701              		.cfi_endproc
 1702              	.LFE27:
 1704              		.section	.text.iis2dlpc_offset_weight_set,"ax",%progbits
 1705              		.align	1
 1706              		.global	iis2dlpc_offset_weight_set
 1707              		.syntax unified
 1708              		.thumb
 1709              		.thumb_func
 1711              	iis2dlpc_offset_weight_set:
 1712              	.LVL107:
 1713              	.LFB28:
 701:Drivers/BSP/Components/iis2dlpc/iis2dlpc_reg.c **** 
 702:Drivers/BSP/Components/iis2dlpc/iis2dlpc_reg.c **** /**
 703:Drivers/BSP/Components/iis2dlpc/iis2dlpc_reg.c ****   * @brief  Weight of XL user offset bits of registers X_OFS_USR,
 704:Drivers/BSP/Components/iis2dlpc/iis2dlpc_reg.c ****   *         Y_OFS_USR, Z_OFS_USR.[set]
 705:Drivers/BSP/Components/iis2dlpc/iis2dlpc_reg.c ****   *
 706:Drivers/BSP/Components/iis2dlpc/iis2dlpc_reg.c ****   * @param  ctx      read / write interface definitions
 707:Drivers/BSP/Components/iis2dlpc/iis2dlpc_reg.c ****   * @param  val      change the values of usr_off_w in
 708:Drivers/BSP/Components/iis2dlpc/iis2dlpc_reg.c ****   *                               reg CTRL_REG7
 709:Drivers/BSP/Components/iis2dlpc/iis2dlpc_reg.c ****   * @retval          interface status (MANDATORY: return 0 -> no Error)
 710:Drivers/BSP/Components/iis2dlpc/iis2dlpc_reg.c ****   *
 711:Drivers/BSP/Components/iis2dlpc/iis2dlpc_reg.c ****   */
 712:Drivers/BSP/Components/iis2dlpc/iis2dlpc_reg.c **** int32_t iis2dlpc_offset_weight_set(const stmdev_ctx_t *ctx,
 713:Drivers/BSP/Components/iis2dlpc/iis2dlpc_reg.c ****                                    iis2dlpc_usr_off_w_t val)
 714:Drivers/BSP/Components/iis2dlpc/iis2dlpc_reg.c **** {
 1714              		.loc 1 714 1 is_stmt 1 view -0
 1715              		.cfi_startproc
 1716              		@ args = 0, pretend = 0, frame = 8
ARM GAS  C:\Temp\ccGZlXNO.s 			page 46


 1717              		@ frame_needed = 0, uses_anonymous_args = 0
 1718              		.loc 1 714 1 is_stmt 0 view .LVU435
 1719 0000 30B5     		push	{r4, r5, lr}
 1720              		.cfi_def_cfa_offset 12
 1721              		.cfi_offset 4, -12
 1722              		.cfi_offset 5, -8
 1723              		.cfi_offset 14, -4
 1724 0002 83B0     		sub	sp, sp, #12
 1725              		.cfi_def_cfa_offset 24
 1726 0004 0446     		mov	r4, r0
 1727 0006 0D46     		mov	r5, r1
 715:Drivers/BSP/Components/iis2dlpc/iis2dlpc_reg.c ****   iis2dlpc_ctrl7_t reg;
 1728              		.loc 1 715 3 is_stmt 1 view .LVU436
 716:Drivers/BSP/Components/iis2dlpc/iis2dlpc_reg.c ****   int32_t ret;
 1729              		.loc 1 716 3 view .LVU437
 717:Drivers/BSP/Components/iis2dlpc/iis2dlpc_reg.c **** 
 718:Drivers/BSP/Components/iis2dlpc/iis2dlpc_reg.c ****   ret = iis2dlpc_read_reg(ctx, IIS2DLPC_CTRL7, (uint8_t *) &reg, 1);
 1730              		.loc 1 718 3 view .LVU438
 1731              		.loc 1 718 9 is_stmt 0 view .LVU439
 1732 0008 0123     		movs	r3, #1
 1733 000a 01AA     		add	r2, sp, #4
 1734 000c 3F21     		movs	r1, #63
 1735              	.LVL108:
 1736              		.loc 1 718 9 view .LVU440
 1737 000e FFF7FEFF 		bl	iis2dlpc_read_reg
 1738              	.LVL109:
 719:Drivers/BSP/Components/iis2dlpc/iis2dlpc_reg.c **** 
 720:Drivers/BSP/Components/iis2dlpc/iis2dlpc_reg.c ****   if (ret == 0)
 1739              		.loc 1 720 3 is_stmt 1 view .LVU441
 1740              		.loc 1 720 6 is_stmt 0 view .LVU442
 1741 0012 08B1     		cbz	r0, .L136
 1742              	.LVL110:
 1743              	.L133:
 721:Drivers/BSP/Components/iis2dlpc/iis2dlpc_reg.c ****   {
 722:Drivers/BSP/Components/iis2dlpc/iis2dlpc_reg.c ****     reg.usr_off_w = (uint8_t) val;
 723:Drivers/BSP/Components/iis2dlpc/iis2dlpc_reg.c ****     ret = iis2dlpc_write_reg(ctx, IIS2DLPC_CTRL7, (uint8_t *) &reg, 1);
 724:Drivers/BSP/Components/iis2dlpc/iis2dlpc_reg.c ****   }
 725:Drivers/BSP/Components/iis2dlpc/iis2dlpc_reg.c **** 
 726:Drivers/BSP/Components/iis2dlpc/iis2dlpc_reg.c ****   return ret;
 727:Drivers/BSP/Components/iis2dlpc/iis2dlpc_reg.c **** }
 1744              		.loc 1 727 1 view .LVU443
 1745 0014 03B0     		add	sp, sp, #12
 1746              		.cfi_remember_state
 1747              		.cfi_def_cfa_offset 12
 1748              		@ sp needed
 1749 0016 30BD     		pop	{r4, r5, pc}
 1750              	.LVL111:
 1751              	.L136:
 1752              		.cfi_restore_state
 722:Drivers/BSP/Components/iis2dlpc/iis2dlpc_reg.c ****     ret = iis2dlpc_write_reg(ctx, IIS2DLPC_CTRL7, (uint8_t *) &reg, 1);
 1753              		.loc 1 722 5 is_stmt 1 view .LVU444
 722:Drivers/BSP/Components/iis2dlpc/iis2dlpc_reg.c ****     ret = iis2dlpc_write_reg(ctx, IIS2DLPC_CTRL7, (uint8_t *) &reg, 1);
 1754              		.loc 1 722 19 is_stmt 0 view .LVU445
 1755 0018 9DF80430 		ldrb	r3, [sp, #4]	@ zero_extendqisi2
 1756 001c 65F38203 		bfi	r3, r5, #2, #1
 1757 0020 8DF80430 		strb	r3, [sp, #4]
 723:Drivers/BSP/Components/iis2dlpc/iis2dlpc_reg.c ****   }
ARM GAS  C:\Temp\ccGZlXNO.s 			page 47


 1758              		.loc 1 723 5 is_stmt 1 view .LVU446
 723:Drivers/BSP/Components/iis2dlpc/iis2dlpc_reg.c ****   }
 1759              		.loc 1 723 11 is_stmt 0 view .LVU447
 1760 0024 0123     		movs	r3, #1
 1761              	.LVL112:
 723:Drivers/BSP/Components/iis2dlpc/iis2dlpc_reg.c ****   }
 1762              		.loc 1 723 11 view .LVU448
 1763 0026 01AA     		add	r2, sp, #4
 1764 0028 3F21     		movs	r1, #63
 1765 002a 2046     		mov	r0, r4
 1766 002c FFF7FEFF 		bl	iis2dlpc_write_reg
 1767              	.LVL113:
 726:Drivers/BSP/Components/iis2dlpc/iis2dlpc_reg.c **** }
 1768              		.loc 1 726 3 is_stmt 1 view .LVU449
 726:Drivers/BSP/Components/iis2dlpc/iis2dlpc_reg.c **** }
 1769              		.loc 1 726 10 is_stmt 0 view .LVU450
 1770 0030 F0E7     		b	.L133
 1771              		.cfi_endproc
 1772              	.LFE28:
 1774              		.section	.text.iis2dlpc_offset_weight_get,"ax",%progbits
 1775              		.align	1
 1776              		.global	iis2dlpc_offset_weight_get
 1777              		.syntax unified
 1778              		.thumb
 1779              		.thumb_func
 1781              	iis2dlpc_offset_weight_get:
 1782              	.LVL114:
 1783              	.LFB29:
 728:Drivers/BSP/Components/iis2dlpc/iis2dlpc_reg.c **** 
 729:Drivers/BSP/Components/iis2dlpc/iis2dlpc_reg.c **** /**
 730:Drivers/BSP/Components/iis2dlpc/iis2dlpc_reg.c ****   * @brief  Weight of XL user offset bits of registers X_OFS_USR,
 731:Drivers/BSP/Components/iis2dlpc/iis2dlpc_reg.c ****   *         Y_OFS_USR, Z_OFS_USR.[get]
 732:Drivers/BSP/Components/iis2dlpc/iis2dlpc_reg.c ****   *
 733:Drivers/BSP/Components/iis2dlpc/iis2dlpc_reg.c ****   * @param  ctx      read / write interface definitions
 734:Drivers/BSP/Components/iis2dlpc/iis2dlpc_reg.c ****   * @param  val      Get the values of usr_off_w in reg CTRL_REG7
 735:Drivers/BSP/Components/iis2dlpc/iis2dlpc_reg.c ****   * @retval          interface status (MANDATORY: return 0 -> no Error)
 736:Drivers/BSP/Components/iis2dlpc/iis2dlpc_reg.c ****   *
 737:Drivers/BSP/Components/iis2dlpc/iis2dlpc_reg.c ****   */
 738:Drivers/BSP/Components/iis2dlpc/iis2dlpc_reg.c **** int32_t iis2dlpc_offset_weight_get(const stmdev_ctx_t *ctx,
 739:Drivers/BSP/Components/iis2dlpc/iis2dlpc_reg.c ****                                    iis2dlpc_usr_off_w_t *val)
 740:Drivers/BSP/Components/iis2dlpc/iis2dlpc_reg.c **** {
 1784              		.loc 1 740 1 is_stmt 1 view -0
 1785              		.cfi_startproc
 1786              		@ args = 0, pretend = 0, frame = 8
 1787              		@ frame_needed = 0, uses_anonymous_args = 0
 1788              		.loc 1 740 1 is_stmt 0 view .LVU452
 1789 0000 10B5     		push	{r4, lr}
 1790              		.cfi_def_cfa_offset 8
 1791              		.cfi_offset 4, -8
 1792              		.cfi_offset 14, -4
 1793 0002 82B0     		sub	sp, sp, #8
 1794              		.cfi_def_cfa_offset 16
 1795 0004 0C46     		mov	r4, r1
 741:Drivers/BSP/Components/iis2dlpc/iis2dlpc_reg.c ****   iis2dlpc_ctrl7_t reg;
 1796              		.loc 1 741 3 is_stmt 1 view .LVU453
 742:Drivers/BSP/Components/iis2dlpc/iis2dlpc_reg.c ****   int32_t ret;
 1797              		.loc 1 742 3 view .LVU454
ARM GAS  C:\Temp\ccGZlXNO.s 			page 48


 743:Drivers/BSP/Components/iis2dlpc/iis2dlpc_reg.c **** 
 744:Drivers/BSP/Components/iis2dlpc/iis2dlpc_reg.c ****   ret = iis2dlpc_read_reg(ctx, IIS2DLPC_CTRL7, (uint8_t *) &reg, 1);
 1798              		.loc 1 744 3 view .LVU455
 1799              		.loc 1 744 9 is_stmt 0 view .LVU456
 1800 0006 0123     		movs	r3, #1
 1801 0008 01AA     		add	r2, sp, #4
 1802 000a 3F21     		movs	r1, #63
 1803              	.LVL115:
 1804              		.loc 1 744 9 view .LVU457
 1805 000c FFF7FEFF 		bl	iis2dlpc_read_reg
 1806              	.LVL116:
 745:Drivers/BSP/Components/iis2dlpc/iis2dlpc_reg.c **** 
 746:Drivers/BSP/Components/iis2dlpc/iis2dlpc_reg.c ****   switch (reg.usr_off_w)
 1807              		.loc 1 746 3 is_stmt 1 view .LVU458
 1808              		.loc 1 746 14 is_stmt 0 view .LVU459
 1809 0010 9DF80430 		ldrb	r3, [sp, #4]	@ zero_extendqisi2
 1810 0014 C3F38002 		ubfx	r2, r3, #2, #1
 1811              		.loc 1 746 3 view .LVU460
 1812 0018 13F0040F 		tst	r3, #4
 1813 001c 03D0     		beq	.L138
 1814 001e 32B9     		cbnz	r2, .L139
 747:Drivers/BSP/Components/iis2dlpc/iis2dlpc_reg.c ****   {
 748:Drivers/BSP/Components/iis2dlpc/iis2dlpc_reg.c ****     case IIS2DLPC_LSb_977ug:
 749:Drivers/BSP/Components/iis2dlpc/iis2dlpc_reg.c ****       *val = IIS2DLPC_LSb_977ug;
 750:Drivers/BSP/Components/iis2dlpc/iis2dlpc_reg.c ****       break;
 751:Drivers/BSP/Components/iis2dlpc/iis2dlpc_reg.c **** 
 752:Drivers/BSP/Components/iis2dlpc/iis2dlpc_reg.c ****     case IIS2DLPC_LSb_15mg6:
 753:Drivers/BSP/Components/iis2dlpc/iis2dlpc_reg.c ****       *val = IIS2DLPC_LSb_15mg6;
 754:Drivers/BSP/Components/iis2dlpc/iis2dlpc_reg.c ****       break;
 755:Drivers/BSP/Components/iis2dlpc/iis2dlpc_reg.c **** 
 756:Drivers/BSP/Components/iis2dlpc/iis2dlpc_reg.c ****     default:
 757:Drivers/BSP/Components/iis2dlpc/iis2dlpc_reg.c ****       *val = IIS2DLPC_LSb_977ug;
 1815              		.loc 1 757 7 is_stmt 1 view .LVU461
 1816              		.loc 1 757 12 is_stmt 0 view .LVU462
 1817 0020 0023     		movs	r3, #0
 1818 0022 2370     		strb	r3, [r4]
 758:Drivers/BSP/Components/iis2dlpc/iis2dlpc_reg.c ****       break;
 1819              		.loc 1 758 7 is_stmt 1 view .LVU463
 759:Drivers/BSP/Components/iis2dlpc/iis2dlpc_reg.c ****   }
 760:Drivers/BSP/Components/iis2dlpc/iis2dlpc_reg.c **** 
 761:Drivers/BSP/Components/iis2dlpc/iis2dlpc_reg.c ****   return ret;
 1820              		.loc 1 761 3 view .LVU464
 1821              		.loc 1 761 10 is_stmt 0 view .LVU465
 1822 0024 01E0     		b	.L137
 1823              	.L138:
 749:Drivers/BSP/Components/iis2dlpc/iis2dlpc_reg.c ****       break;
 1824              		.loc 1 749 7 is_stmt 1 view .LVU466
 749:Drivers/BSP/Components/iis2dlpc/iis2dlpc_reg.c ****       break;
 1825              		.loc 1 749 12 is_stmt 0 view .LVU467
 1826 0026 0023     		movs	r3, #0
 1827 0028 2370     		strb	r3, [r4]
 750:Drivers/BSP/Components/iis2dlpc/iis2dlpc_reg.c **** 
 1828              		.loc 1 750 7 is_stmt 1 view .LVU468
 1829              	.L137:
 762:Drivers/BSP/Components/iis2dlpc/iis2dlpc_reg.c **** }
 1830              		.loc 1 762 1 is_stmt 0 view .LVU469
 1831 002a 02B0     		add	sp, sp, #8
ARM GAS  C:\Temp\ccGZlXNO.s 			page 49


 1832              		.cfi_remember_state
 1833              		.cfi_def_cfa_offset 8
 1834              		@ sp needed
 1835 002c 10BD     		pop	{r4, pc}
 1836              	.LVL117:
 1837              	.L139:
 1838              		.cfi_restore_state
 753:Drivers/BSP/Components/iis2dlpc/iis2dlpc_reg.c ****       break;
 1839              		.loc 1 753 7 is_stmt 1 view .LVU470
 753:Drivers/BSP/Components/iis2dlpc/iis2dlpc_reg.c ****       break;
 1840              		.loc 1 753 12 is_stmt 0 view .LVU471
 1841 002e 0123     		movs	r3, #1
 1842 0030 2370     		strb	r3, [r4]
 754:Drivers/BSP/Components/iis2dlpc/iis2dlpc_reg.c **** 
 1843              		.loc 1 754 7 is_stmt 1 view .LVU472
 1844 0032 FAE7     		b	.L137
 1845              		.cfi_endproc
 1846              	.LFE29:
 1848              		.section	.text.iis2dlpc_temperature_raw_get,"ax",%progbits
 1849              		.align	1
 1850              		.global	iis2dlpc_temperature_raw_get
 1851              		.syntax unified
 1852              		.thumb
 1853              		.thumb_func
 1855              	iis2dlpc_temperature_raw_get:
 1856              	.LVL118:
 1857              	.LFB30:
 763:Drivers/BSP/Components/iis2dlpc/iis2dlpc_reg.c **** 
 764:Drivers/BSP/Components/iis2dlpc/iis2dlpc_reg.c **** /**
 765:Drivers/BSP/Components/iis2dlpc/iis2dlpc_reg.c ****   * @}
 766:Drivers/BSP/Components/iis2dlpc/iis2dlpc_reg.c ****   *
 767:Drivers/BSP/Components/iis2dlpc/iis2dlpc_reg.c ****   */
 768:Drivers/BSP/Components/iis2dlpc/iis2dlpc_reg.c **** 
 769:Drivers/BSP/Components/iis2dlpc/iis2dlpc_reg.c **** /**
 770:Drivers/BSP/Components/iis2dlpc/iis2dlpc_reg.c ****   * @defgroup  IIS2DLPC_Data_Output
 771:Drivers/BSP/Components/iis2dlpc/iis2dlpc_reg.c ****   * @brief     This section groups all the data output functions.
 772:Drivers/BSP/Components/iis2dlpc/iis2dlpc_reg.c ****   * @{
 773:Drivers/BSP/Components/iis2dlpc/iis2dlpc_reg.c ****   *
 774:Drivers/BSP/Components/iis2dlpc/iis2dlpc_reg.c ****   */
 775:Drivers/BSP/Components/iis2dlpc/iis2dlpc_reg.c **** 
 776:Drivers/BSP/Components/iis2dlpc/iis2dlpc_reg.c **** /**
 777:Drivers/BSP/Components/iis2dlpc/iis2dlpc_reg.c ****   * @brief  Temperature data output register (r). L and H registers
 778:Drivers/BSP/Components/iis2dlpc/iis2dlpc_reg.c ****   *         together express a 16-bit word in two's complement.[get]
 779:Drivers/BSP/Components/iis2dlpc/iis2dlpc_reg.c ****   *
 780:Drivers/BSP/Components/iis2dlpc/iis2dlpc_reg.c ****   * @param  ctx      read / write interface definitions
 781:Drivers/BSP/Components/iis2dlpc/iis2dlpc_reg.c ****   * @param  buff     buffer that stores data read
 782:Drivers/BSP/Components/iis2dlpc/iis2dlpc_reg.c ****   * @retval          interface status (MANDATORY: return 0 -> no Error)
 783:Drivers/BSP/Components/iis2dlpc/iis2dlpc_reg.c ****   *
 784:Drivers/BSP/Components/iis2dlpc/iis2dlpc_reg.c ****   */
 785:Drivers/BSP/Components/iis2dlpc/iis2dlpc_reg.c **** int32_t iis2dlpc_temperature_raw_get(const stmdev_ctx_t *ctx, int16_t *val)
 786:Drivers/BSP/Components/iis2dlpc/iis2dlpc_reg.c **** {
 1858              		.loc 1 786 1 view -0
 1859              		.cfi_startproc
 1860              		@ args = 0, pretend = 0, frame = 8
 1861              		@ frame_needed = 0, uses_anonymous_args = 0
 1862              		.loc 1 786 1 is_stmt 0 view .LVU474
 1863 0000 10B5     		push	{r4, lr}
ARM GAS  C:\Temp\ccGZlXNO.s 			page 50


 1864              		.cfi_def_cfa_offset 8
 1865              		.cfi_offset 4, -8
 1866              		.cfi_offset 14, -4
 1867 0002 82B0     		sub	sp, sp, #8
 1868              		.cfi_def_cfa_offset 16
 1869 0004 0C46     		mov	r4, r1
 787:Drivers/BSP/Components/iis2dlpc/iis2dlpc_reg.c ****   uint8_t buff[2];
 1870              		.loc 1 787 3 is_stmt 1 view .LVU475
 788:Drivers/BSP/Components/iis2dlpc/iis2dlpc_reg.c ****   int32_t ret;
 1871              		.loc 1 788 3 view .LVU476
 789:Drivers/BSP/Components/iis2dlpc/iis2dlpc_reg.c **** 
 790:Drivers/BSP/Components/iis2dlpc/iis2dlpc_reg.c ****   ret = iis2dlpc_read_reg(ctx, IIS2DLPC_OUT_T_L, buff, 2);
 1872              		.loc 1 790 3 view .LVU477
 1873              		.loc 1 790 9 is_stmt 0 view .LVU478
 1874 0006 0223     		movs	r3, #2
 1875 0008 01AA     		add	r2, sp, #4
 1876 000a 0D21     		movs	r1, #13
 1877              	.LVL119:
 1878              		.loc 1 790 9 view .LVU479
 1879 000c FFF7FEFF 		bl	iis2dlpc_read_reg
 1880              	.LVL120:
 791:Drivers/BSP/Components/iis2dlpc/iis2dlpc_reg.c ****   *val = (int16_t)buff[1];
 1881              		.loc 1 791 3 is_stmt 1 view .LVU480
 1882              		.loc 1 791 23 is_stmt 0 view .LVU481
 1883 0010 9DF80520 		ldrb	r2, [sp, #5]	@ zero_extendqisi2
 1884              		.loc 1 791 8 view .LVU482
 1885 0014 2280     		strh	r2, [r4]	@ movhi
 792:Drivers/BSP/Components/iis2dlpc/iis2dlpc_reg.c ****   *val = (*val * 256) + (int16_t)buff[0];
 1886              		.loc 1 792 3 is_stmt 1 view .LVU483
 1887              		.loc 1 792 38 is_stmt 0 view .LVU484
 1888 0016 9DF80430 		ldrb	r3, [sp, #4]	@ zero_extendqisi2
 1889              		.loc 1 792 23 view .LVU485
 1890 001a 03EB0223 		add	r3, r3, r2, lsl #8
 1891              		.loc 1 792 8 view .LVU486
 1892 001e 2380     		strh	r3, [r4]	@ movhi
 793:Drivers/BSP/Components/iis2dlpc/iis2dlpc_reg.c **** 
 794:Drivers/BSP/Components/iis2dlpc/iis2dlpc_reg.c ****   return ret;
 1893              		.loc 1 794 3 is_stmt 1 view .LVU487
 795:Drivers/BSP/Components/iis2dlpc/iis2dlpc_reg.c **** }
 1894              		.loc 1 795 1 is_stmt 0 view .LVU488
 1895 0020 02B0     		add	sp, sp, #8
 1896              		.cfi_def_cfa_offset 8
 1897              		@ sp needed
 1898 0022 10BD     		pop	{r4, pc}
 1899              		.loc 1 795 1 view .LVU489
 1900              		.cfi_endproc
 1901              	.LFE30:
 1903              		.section	.text.iis2dlpc_acceleration_raw_get,"ax",%progbits
 1904              		.align	1
 1905              		.global	iis2dlpc_acceleration_raw_get
 1906              		.syntax unified
 1907              		.thumb
 1908              		.thumb_func
 1910              	iis2dlpc_acceleration_raw_get:
 1911              	.LVL121:
 1912              	.LFB31:
 796:Drivers/BSP/Components/iis2dlpc/iis2dlpc_reg.c **** 
ARM GAS  C:\Temp\ccGZlXNO.s 			page 51


 797:Drivers/BSP/Components/iis2dlpc/iis2dlpc_reg.c **** /**
 798:Drivers/BSP/Components/iis2dlpc/iis2dlpc_reg.c ****   * @brief  Linear acceleration output register. The value is expressed as
 799:Drivers/BSP/Components/iis2dlpc/iis2dlpc_reg.c ****   *         a 16-bit word in two's complement.[get]
 800:Drivers/BSP/Components/iis2dlpc/iis2dlpc_reg.c ****   *
 801:Drivers/BSP/Components/iis2dlpc/iis2dlpc_reg.c ****   * @param  ctx      read / write interface definitions
 802:Drivers/BSP/Components/iis2dlpc/iis2dlpc_reg.c ****   * @param  buff     buffer that stores data read
 803:Drivers/BSP/Components/iis2dlpc/iis2dlpc_reg.c ****   * @retval          interface status (MANDATORY: return 0 -> no Error)
 804:Drivers/BSP/Components/iis2dlpc/iis2dlpc_reg.c ****   *
 805:Drivers/BSP/Components/iis2dlpc/iis2dlpc_reg.c ****   */
 806:Drivers/BSP/Components/iis2dlpc/iis2dlpc_reg.c **** int32_t iis2dlpc_acceleration_raw_get(const stmdev_ctx_t *ctx, int16_t *val)
 807:Drivers/BSP/Components/iis2dlpc/iis2dlpc_reg.c **** {
 1913              		.loc 1 807 1 is_stmt 1 view -0
 1914              		.cfi_startproc
 1915              		@ args = 0, pretend = 0, frame = 8
 1916              		@ frame_needed = 0, uses_anonymous_args = 0
 1917              		.loc 1 807 1 is_stmt 0 view .LVU491
 1918 0000 10B5     		push	{r4, lr}
 1919              		.cfi_def_cfa_offset 8
 1920              		.cfi_offset 4, -8
 1921              		.cfi_offset 14, -4
 1922 0002 82B0     		sub	sp, sp, #8
 1923              		.cfi_def_cfa_offset 16
 1924 0004 0C46     		mov	r4, r1
 808:Drivers/BSP/Components/iis2dlpc/iis2dlpc_reg.c ****   uint8_t buff[6];
 1925              		.loc 1 808 3 is_stmt 1 view .LVU492
 809:Drivers/BSP/Components/iis2dlpc/iis2dlpc_reg.c ****   int32_t ret;
 1926              		.loc 1 809 3 view .LVU493
 810:Drivers/BSP/Components/iis2dlpc/iis2dlpc_reg.c **** 
 811:Drivers/BSP/Components/iis2dlpc/iis2dlpc_reg.c ****   ret = iis2dlpc_read_reg(ctx, IIS2DLPC_OUT_X_L, buff, 6);
 1927              		.loc 1 811 3 view .LVU494
 1928              		.loc 1 811 9 is_stmt 0 view .LVU495
 1929 0006 0623     		movs	r3, #6
 1930 0008 6A46     		mov	r2, sp
 1931 000a 2821     		movs	r1, #40
 1932              	.LVL122:
 1933              		.loc 1 811 9 view .LVU496
 1934 000c FFF7FEFF 		bl	iis2dlpc_read_reg
 1935              	.LVL123:
 812:Drivers/BSP/Components/iis2dlpc/iis2dlpc_reg.c ****   val[0] = (int16_t)buff[1];
 1936              		.loc 1 812 3 is_stmt 1 view .LVU497
 1937              		.loc 1 812 25 is_stmt 0 view .LVU498
 1938 0010 9DF80120 		ldrb	r2, [sp, #1]	@ zero_extendqisi2
 1939              		.loc 1 812 10 view .LVU499
 1940 0014 2280     		strh	r2, [r4]	@ movhi
 813:Drivers/BSP/Components/iis2dlpc/iis2dlpc_reg.c ****   val[0] = (val[0] * 256) + (int16_t)buff[0];
 1941              		.loc 1 813 3 is_stmt 1 view .LVU500
 1942              		.loc 1 813 42 is_stmt 0 view .LVU501
 1943 0016 9DF80030 		ldrb	r3, [sp]	@ zero_extendqisi2
 1944              		.loc 1 813 27 view .LVU502
 1945 001a 03EB0223 		add	r3, r3, r2, lsl #8
 1946              		.loc 1 813 10 view .LVU503
 1947 001e 2380     		strh	r3, [r4]	@ movhi
 814:Drivers/BSP/Components/iis2dlpc/iis2dlpc_reg.c ****   val[1] = (int16_t)buff[3];
 1948              		.loc 1 814 3 is_stmt 1 view .LVU504
 1949              		.loc 1 814 25 is_stmt 0 view .LVU505
 1950 0020 9DF80320 		ldrb	r2, [sp, #3]	@ zero_extendqisi2
 1951              		.loc 1 814 10 view .LVU506
ARM GAS  C:\Temp\ccGZlXNO.s 			page 52


 1952 0024 6280     		strh	r2, [r4, #2]	@ movhi
 815:Drivers/BSP/Components/iis2dlpc/iis2dlpc_reg.c ****   val[1] = (val[1] * 256) + (int16_t)buff[2];
 1953              		.loc 1 815 3 is_stmt 1 view .LVU507
 1954              		.loc 1 815 42 is_stmt 0 view .LVU508
 1955 0026 9DF80230 		ldrb	r3, [sp, #2]	@ zero_extendqisi2
 1956              		.loc 1 815 27 view .LVU509
 1957 002a 03EB0223 		add	r3, r3, r2, lsl #8
 1958              		.loc 1 815 10 view .LVU510
 1959 002e 6380     		strh	r3, [r4, #2]	@ movhi
 816:Drivers/BSP/Components/iis2dlpc/iis2dlpc_reg.c ****   val[2] = (int16_t)buff[5];
 1960              		.loc 1 816 3 is_stmt 1 view .LVU511
 1961              		.loc 1 816 25 is_stmt 0 view .LVU512
 1962 0030 9DF80520 		ldrb	r2, [sp, #5]	@ zero_extendqisi2
 1963              		.loc 1 816 10 view .LVU513
 1964 0034 A280     		strh	r2, [r4, #4]	@ movhi
 817:Drivers/BSP/Components/iis2dlpc/iis2dlpc_reg.c ****   val[2] = (val[2] * 256) + (int16_t)buff[4];
 1965              		.loc 1 817 3 is_stmt 1 view .LVU514
 1966              		.loc 1 817 42 is_stmt 0 view .LVU515
 1967 0036 9DF80430 		ldrb	r3, [sp, #4]	@ zero_extendqisi2
 1968              		.loc 1 817 27 view .LVU516
 1969 003a 03EB0223 		add	r3, r3, r2, lsl #8
 1970              		.loc 1 817 10 view .LVU517
 1971 003e A380     		strh	r3, [r4, #4]	@ movhi
 818:Drivers/BSP/Components/iis2dlpc/iis2dlpc_reg.c **** 
 819:Drivers/BSP/Components/iis2dlpc/iis2dlpc_reg.c ****   return ret;
 1972              		.loc 1 819 3 is_stmt 1 view .LVU518
 820:Drivers/BSP/Components/iis2dlpc/iis2dlpc_reg.c **** }
 1973              		.loc 1 820 1 is_stmt 0 view .LVU519
 1974 0040 02B0     		add	sp, sp, #8
 1975              		.cfi_def_cfa_offset 8
 1976              		@ sp needed
 1977 0042 10BD     		pop	{r4, pc}
 1978              		.loc 1 820 1 view .LVU520
 1979              		.cfi_endproc
 1980              	.LFE31:
 1982              		.section	.text.iis2dlpc_device_id_get,"ax",%progbits
 1983              		.align	1
 1984              		.global	iis2dlpc_device_id_get
 1985              		.syntax unified
 1986              		.thumb
 1987              		.thumb_func
 1989              	iis2dlpc_device_id_get:
 1990              	.LVL124:
 1991              	.LFB32:
 821:Drivers/BSP/Components/iis2dlpc/iis2dlpc_reg.c **** 
 822:Drivers/BSP/Components/iis2dlpc/iis2dlpc_reg.c **** /**
 823:Drivers/BSP/Components/iis2dlpc/iis2dlpc_reg.c ****   * @}
 824:Drivers/BSP/Components/iis2dlpc/iis2dlpc_reg.c ****   *
 825:Drivers/BSP/Components/iis2dlpc/iis2dlpc_reg.c ****   */
 826:Drivers/BSP/Components/iis2dlpc/iis2dlpc_reg.c **** 
 827:Drivers/BSP/Components/iis2dlpc/iis2dlpc_reg.c **** /**
 828:Drivers/BSP/Components/iis2dlpc/iis2dlpc_reg.c ****   * @defgroup  IIS2DLPC_Common
 829:Drivers/BSP/Components/iis2dlpc/iis2dlpc_reg.c ****   * @brief     This section groups common useful functions.
 830:Drivers/BSP/Components/iis2dlpc/iis2dlpc_reg.c ****   * @{
 831:Drivers/BSP/Components/iis2dlpc/iis2dlpc_reg.c ****   *
 832:Drivers/BSP/Components/iis2dlpc/iis2dlpc_reg.c ****   */
 833:Drivers/BSP/Components/iis2dlpc/iis2dlpc_reg.c **** 
ARM GAS  C:\Temp\ccGZlXNO.s 			page 53


 834:Drivers/BSP/Components/iis2dlpc/iis2dlpc_reg.c **** /**
 835:Drivers/BSP/Components/iis2dlpc/iis2dlpc_reg.c ****   * @brief  Device Who am I.[get]
 836:Drivers/BSP/Components/iis2dlpc/iis2dlpc_reg.c ****   *
 837:Drivers/BSP/Components/iis2dlpc/iis2dlpc_reg.c ****   * @param  ctx      read / write interface definitions
 838:Drivers/BSP/Components/iis2dlpc/iis2dlpc_reg.c ****   * @param  buff     buffer that stores data read
 839:Drivers/BSP/Components/iis2dlpc/iis2dlpc_reg.c ****   * @retval          interface status (MANDATORY: return 0 -> no Error)
 840:Drivers/BSP/Components/iis2dlpc/iis2dlpc_reg.c ****   *
 841:Drivers/BSP/Components/iis2dlpc/iis2dlpc_reg.c ****   */
 842:Drivers/BSP/Components/iis2dlpc/iis2dlpc_reg.c **** int32_t iis2dlpc_device_id_get(const stmdev_ctx_t *ctx, uint8_t *buff)
 843:Drivers/BSP/Components/iis2dlpc/iis2dlpc_reg.c **** {
 1992              		.loc 1 843 1 is_stmt 1 view -0
 1993              		.cfi_startproc
 1994              		@ args = 0, pretend = 0, frame = 0
 1995              		@ frame_needed = 0, uses_anonymous_args = 0
 1996              		.loc 1 843 1 is_stmt 0 view .LVU522
 1997 0000 08B5     		push	{r3, lr}
 1998              		.cfi_def_cfa_offset 8
 1999              		.cfi_offset 3, -8
 2000              		.cfi_offset 14, -4
 2001 0002 0A46     		mov	r2, r1
 844:Drivers/BSP/Components/iis2dlpc/iis2dlpc_reg.c ****   int32_t ret;
 2002              		.loc 1 844 3 is_stmt 1 view .LVU523
 845:Drivers/BSP/Components/iis2dlpc/iis2dlpc_reg.c **** 
 846:Drivers/BSP/Components/iis2dlpc/iis2dlpc_reg.c ****   ret = iis2dlpc_read_reg(ctx, IIS2DLPC_WHO_AM_I, buff, 1);
 2003              		.loc 1 846 3 view .LVU524
 2004              		.loc 1 846 9 is_stmt 0 view .LVU525
 2005 0004 0123     		movs	r3, #1
 2006 0006 0F21     		movs	r1, #15
 2007              	.LVL125:
 2008              		.loc 1 846 9 view .LVU526
 2009 0008 FFF7FEFF 		bl	iis2dlpc_read_reg
 2010              	.LVL126:
 847:Drivers/BSP/Components/iis2dlpc/iis2dlpc_reg.c **** 
 848:Drivers/BSP/Components/iis2dlpc/iis2dlpc_reg.c ****   return ret;
 2011              		.loc 1 848 3 is_stmt 1 view .LVU527
 849:Drivers/BSP/Components/iis2dlpc/iis2dlpc_reg.c **** }
 2012              		.loc 1 849 1 is_stmt 0 view .LVU528
 2013 000c 08BD     		pop	{r3, pc}
 2014              		.cfi_endproc
 2015              	.LFE32:
 2017              		.section	.text.iis2dlpc_auto_increment_set,"ax",%progbits
 2018              		.align	1
 2019              		.global	iis2dlpc_auto_increment_set
 2020              		.syntax unified
 2021              		.thumb
 2022              		.thumb_func
 2024              	iis2dlpc_auto_increment_set:
 2025              	.LVL127:
 2026              	.LFB33:
 850:Drivers/BSP/Components/iis2dlpc/iis2dlpc_reg.c **** 
 851:Drivers/BSP/Components/iis2dlpc/iis2dlpc_reg.c **** /**
 852:Drivers/BSP/Components/iis2dlpc/iis2dlpc_reg.c ****   * @brief  Register address automatically incremented during multiple byte
 853:Drivers/BSP/Components/iis2dlpc/iis2dlpc_reg.c ****   *         access with a serial interface.[set]
 854:Drivers/BSP/Components/iis2dlpc/iis2dlpc_reg.c ****   *
 855:Drivers/BSP/Components/iis2dlpc/iis2dlpc_reg.c ****   * @param  ctx      read / write interface definitions
 856:Drivers/BSP/Components/iis2dlpc/iis2dlpc_reg.c ****   * @param  val      change the values of if_add_inc in reg CTRL2
 857:Drivers/BSP/Components/iis2dlpc/iis2dlpc_reg.c ****   * @retval          interface status (MANDATORY: return 0 -> no Error)
ARM GAS  C:\Temp\ccGZlXNO.s 			page 54


 858:Drivers/BSP/Components/iis2dlpc/iis2dlpc_reg.c ****   *
 859:Drivers/BSP/Components/iis2dlpc/iis2dlpc_reg.c ****   */
 860:Drivers/BSP/Components/iis2dlpc/iis2dlpc_reg.c **** int32_t iis2dlpc_auto_increment_set(const stmdev_ctx_t *ctx, uint8_t val)
 861:Drivers/BSP/Components/iis2dlpc/iis2dlpc_reg.c **** {
 2027              		.loc 1 861 1 is_stmt 1 view -0
 2028              		.cfi_startproc
 2029              		@ args = 0, pretend = 0, frame = 8
 2030              		@ frame_needed = 0, uses_anonymous_args = 0
 2031              		.loc 1 861 1 is_stmt 0 view .LVU530
 2032 0000 30B5     		push	{r4, r5, lr}
 2033              		.cfi_def_cfa_offset 12
 2034              		.cfi_offset 4, -12
 2035              		.cfi_offset 5, -8
 2036              		.cfi_offset 14, -4
 2037 0002 83B0     		sub	sp, sp, #12
 2038              		.cfi_def_cfa_offset 24
 2039 0004 0446     		mov	r4, r0
 2040 0006 0D46     		mov	r5, r1
 862:Drivers/BSP/Components/iis2dlpc/iis2dlpc_reg.c ****   iis2dlpc_ctrl2_t reg;
 2041              		.loc 1 862 3 is_stmt 1 view .LVU531
 863:Drivers/BSP/Components/iis2dlpc/iis2dlpc_reg.c ****   int32_t ret;
 2042              		.loc 1 863 3 view .LVU532
 864:Drivers/BSP/Components/iis2dlpc/iis2dlpc_reg.c **** 
 865:Drivers/BSP/Components/iis2dlpc/iis2dlpc_reg.c ****   ret = iis2dlpc_read_reg(ctx, IIS2DLPC_CTRL2, (uint8_t *) &reg, 1);
 2043              		.loc 1 865 3 view .LVU533
 2044              		.loc 1 865 9 is_stmt 0 view .LVU534
 2045 0008 0123     		movs	r3, #1
 2046 000a 01AA     		add	r2, sp, #4
 2047 000c 2121     		movs	r1, #33
 2048              	.LVL128:
 2049              		.loc 1 865 9 view .LVU535
 2050 000e FFF7FEFF 		bl	iis2dlpc_read_reg
 2051              	.LVL129:
 866:Drivers/BSP/Components/iis2dlpc/iis2dlpc_reg.c **** 
 867:Drivers/BSP/Components/iis2dlpc/iis2dlpc_reg.c ****   if (ret == 0)
 2052              		.loc 1 867 3 is_stmt 1 view .LVU536
 2053              		.loc 1 867 6 is_stmt 0 view .LVU537
 2054 0012 08B1     		cbz	r0, .L153
 2055              	.LVL130:
 2056              	.L150:
 868:Drivers/BSP/Components/iis2dlpc/iis2dlpc_reg.c ****   {
 869:Drivers/BSP/Components/iis2dlpc/iis2dlpc_reg.c ****     reg.if_add_inc = val;
 870:Drivers/BSP/Components/iis2dlpc/iis2dlpc_reg.c ****     ret = iis2dlpc_write_reg(ctx, IIS2DLPC_CTRL2, (uint8_t *) &reg, 1);
 871:Drivers/BSP/Components/iis2dlpc/iis2dlpc_reg.c ****   }
 872:Drivers/BSP/Components/iis2dlpc/iis2dlpc_reg.c **** 
 873:Drivers/BSP/Components/iis2dlpc/iis2dlpc_reg.c ****   return ret;
 874:Drivers/BSP/Components/iis2dlpc/iis2dlpc_reg.c **** }
 2057              		.loc 1 874 1 view .LVU538
 2058 0014 03B0     		add	sp, sp, #12
 2059              		.cfi_remember_state
 2060              		.cfi_def_cfa_offset 12
 2061              		@ sp needed
 2062 0016 30BD     		pop	{r4, r5, pc}
 2063              	.LVL131:
 2064              	.L153:
 2065              		.cfi_restore_state
 869:Drivers/BSP/Components/iis2dlpc/iis2dlpc_reg.c ****     ret = iis2dlpc_write_reg(ctx, IIS2DLPC_CTRL2, (uint8_t *) &reg, 1);
ARM GAS  C:\Temp\ccGZlXNO.s 			page 55


 2066              		.loc 1 869 5 is_stmt 1 view .LVU539
 869:Drivers/BSP/Components/iis2dlpc/iis2dlpc_reg.c ****     ret = iis2dlpc_write_reg(ctx, IIS2DLPC_CTRL2, (uint8_t *) &reg, 1);
 2067              		.loc 1 869 20 is_stmt 0 view .LVU540
 2068 0018 9DF80430 		ldrb	r3, [sp, #4]	@ zero_extendqisi2
 2069 001c 65F38203 		bfi	r3, r5, #2, #1
 2070 0020 8DF80430 		strb	r3, [sp, #4]
 870:Drivers/BSP/Components/iis2dlpc/iis2dlpc_reg.c ****   }
 2071              		.loc 1 870 5 is_stmt 1 view .LVU541
 870:Drivers/BSP/Components/iis2dlpc/iis2dlpc_reg.c ****   }
 2072              		.loc 1 870 11 is_stmt 0 view .LVU542
 2073 0024 0123     		movs	r3, #1
 2074              	.LVL132:
 870:Drivers/BSP/Components/iis2dlpc/iis2dlpc_reg.c ****   }
 2075              		.loc 1 870 11 view .LVU543
 2076 0026 01AA     		add	r2, sp, #4
 2077 0028 2121     		movs	r1, #33
 2078 002a 2046     		mov	r0, r4
 2079 002c FFF7FEFF 		bl	iis2dlpc_write_reg
 2080              	.LVL133:
 873:Drivers/BSP/Components/iis2dlpc/iis2dlpc_reg.c **** }
 2081              		.loc 1 873 3 is_stmt 1 view .LVU544
 873:Drivers/BSP/Components/iis2dlpc/iis2dlpc_reg.c **** }
 2082              		.loc 1 873 10 is_stmt 0 view .LVU545
 2083 0030 F0E7     		b	.L150
 2084              		.cfi_endproc
 2085              	.LFE33:
 2087              		.section	.text.iis2dlpc_auto_increment_get,"ax",%progbits
 2088              		.align	1
 2089              		.global	iis2dlpc_auto_increment_get
 2090              		.syntax unified
 2091              		.thumb
 2092              		.thumb_func
 2094              	iis2dlpc_auto_increment_get:
 2095              	.LVL134:
 2096              	.LFB34:
 875:Drivers/BSP/Components/iis2dlpc/iis2dlpc_reg.c **** 
 876:Drivers/BSP/Components/iis2dlpc/iis2dlpc_reg.c **** /**
 877:Drivers/BSP/Components/iis2dlpc/iis2dlpc_reg.c ****   * @brief  Register address automatically incremented during multiple
 878:Drivers/BSP/Components/iis2dlpc/iis2dlpc_reg.c ****   *         byte access with a serial interface.[get]
 879:Drivers/BSP/Components/iis2dlpc/iis2dlpc_reg.c ****   *
 880:Drivers/BSP/Components/iis2dlpc/iis2dlpc_reg.c ****   * @param  ctx      read / write interface definitions
 881:Drivers/BSP/Components/iis2dlpc/iis2dlpc_reg.c ****   * @param  val      change the values of if_add_inc in reg CTRL2
 882:Drivers/BSP/Components/iis2dlpc/iis2dlpc_reg.c ****   * @retval          interface status (MANDATORY: return 0 -> no Error)
 883:Drivers/BSP/Components/iis2dlpc/iis2dlpc_reg.c ****   *
 884:Drivers/BSP/Components/iis2dlpc/iis2dlpc_reg.c ****   */
 885:Drivers/BSP/Components/iis2dlpc/iis2dlpc_reg.c **** int32_t iis2dlpc_auto_increment_get(const stmdev_ctx_t *ctx, uint8_t *val)
 886:Drivers/BSP/Components/iis2dlpc/iis2dlpc_reg.c **** {
 2097              		.loc 1 886 1 is_stmt 1 view -0
 2098              		.cfi_startproc
 2099              		@ args = 0, pretend = 0, frame = 8
 2100              		@ frame_needed = 0, uses_anonymous_args = 0
 2101              		.loc 1 886 1 is_stmt 0 view .LVU547
 2102 0000 10B5     		push	{r4, lr}
 2103              		.cfi_def_cfa_offset 8
 2104              		.cfi_offset 4, -8
 2105              		.cfi_offset 14, -4
 2106 0002 82B0     		sub	sp, sp, #8
ARM GAS  C:\Temp\ccGZlXNO.s 			page 56


 2107              		.cfi_def_cfa_offset 16
 2108 0004 0C46     		mov	r4, r1
 887:Drivers/BSP/Components/iis2dlpc/iis2dlpc_reg.c ****   iis2dlpc_ctrl2_t reg;
 2109              		.loc 1 887 3 is_stmt 1 view .LVU548
 888:Drivers/BSP/Components/iis2dlpc/iis2dlpc_reg.c ****   int32_t ret;
 2110              		.loc 1 888 3 view .LVU549
 889:Drivers/BSP/Components/iis2dlpc/iis2dlpc_reg.c **** 
 890:Drivers/BSP/Components/iis2dlpc/iis2dlpc_reg.c ****   ret = iis2dlpc_read_reg(ctx, IIS2DLPC_CTRL2, (uint8_t *) &reg, 1);
 2111              		.loc 1 890 3 view .LVU550
 2112              		.loc 1 890 9 is_stmt 0 view .LVU551
 2113 0006 0123     		movs	r3, #1
 2114 0008 01AA     		add	r2, sp, #4
 2115 000a 2121     		movs	r1, #33
 2116              	.LVL135:
 2117              		.loc 1 890 9 view .LVU552
 2118 000c FFF7FEFF 		bl	iis2dlpc_read_reg
 2119              	.LVL136:
 891:Drivers/BSP/Components/iis2dlpc/iis2dlpc_reg.c ****   *val = reg.if_add_inc;
 2120              		.loc 1 891 3 is_stmt 1 view .LVU553
 2121              		.loc 1 891 13 is_stmt 0 view .LVU554
 2122 0010 9DF80430 		ldrb	r3, [sp, #4]	@ zero_extendqisi2
 2123 0014 C3F38003 		ubfx	r3, r3, #2, #1
 2124              		.loc 1 891 8 view .LVU555
 2125 0018 2370     		strb	r3, [r4]
 892:Drivers/BSP/Components/iis2dlpc/iis2dlpc_reg.c **** 
 893:Drivers/BSP/Components/iis2dlpc/iis2dlpc_reg.c ****   return ret;
 2126              		.loc 1 893 3 is_stmt 1 view .LVU556
 894:Drivers/BSP/Components/iis2dlpc/iis2dlpc_reg.c **** }
 2127              		.loc 1 894 1 is_stmt 0 view .LVU557
 2128 001a 02B0     		add	sp, sp, #8
 2129              		.cfi_def_cfa_offset 8
 2130              		@ sp needed
 2131 001c 10BD     		pop	{r4, pc}
 2132              		.loc 1 894 1 view .LVU558
 2133              		.cfi_endproc
 2134              	.LFE34:
 2136              		.section	.text.iis2dlpc_reset_set,"ax",%progbits
 2137              		.align	1
 2138              		.global	iis2dlpc_reset_set
 2139              		.syntax unified
 2140              		.thumb
 2141              		.thumb_func
 2143              	iis2dlpc_reset_set:
 2144              	.LVL137:
 2145              	.LFB35:
 895:Drivers/BSP/Components/iis2dlpc/iis2dlpc_reg.c **** 
 896:Drivers/BSP/Components/iis2dlpc/iis2dlpc_reg.c **** /**
 897:Drivers/BSP/Components/iis2dlpc/iis2dlpc_reg.c ****   * @brief  Software reset. Restore the default values in user registers.[set]
 898:Drivers/BSP/Components/iis2dlpc/iis2dlpc_reg.c ****   *
 899:Drivers/BSP/Components/iis2dlpc/iis2dlpc_reg.c ****   * @param  ctx      read / write interface definitions
 900:Drivers/BSP/Components/iis2dlpc/iis2dlpc_reg.c ****   * @param  val      change the values of soft_reset in reg CTRL2
 901:Drivers/BSP/Components/iis2dlpc/iis2dlpc_reg.c ****   * @retval          interface status (MANDATORY: return 0 -> no Error)
 902:Drivers/BSP/Components/iis2dlpc/iis2dlpc_reg.c ****   *
 903:Drivers/BSP/Components/iis2dlpc/iis2dlpc_reg.c ****   */
 904:Drivers/BSP/Components/iis2dlpc/iis2dlpc_reg.c **** int32_t iis2dlpc_reset_set(const stmdev_ctx_t *ctx, uint8_t val)
 905:Drivers/BSP/Components/iis2dlpc/iis2dlpc_reg.c **** {
 2146              		.loc 1 905 1 is_stmt 1 view -0
ARM GAS  C:\Temp\ccGZlXNO.s 			page 57


 2147              		.cfi_startproc
 2148              		@ args = 0, pretend = 0, frame = 8
 2149              		@ frame_needed = 0, uses_anonymous_args = 0
 2150              		.loc 1 905 1 is_stmt 0 view .LVU560
 2151 0000 30B5     		push	{r4, r5, lr}
 2152              		.cfi_def_cfa_offset 12
 2153              		.cfi_offset 4, -12
 2154              		.cfi_offset 5, -8
 2155              		.cfi_offset 14, -4
 2156 0002 83B0     		sub	sp, sp, #12
 2157              		.cfi_def_cfa_offset 24
 2158 0004 0446     		mov	r4, r0
 2159 0006 0D46     		mov	r5, r1
 906:Drivers/BSP/Components/iis2dlpc/iis2dlpc_reg.c ****   iis2dlpc_ctrl2_t reg;
 2160              		.loc 1 906 3 is_stmt 1 view .LVU561
 907:Drivers/BSP/Components/iis2dlpc/iis2dlpc_reg.c ****   int32_t ret;
 2161              		.loc 1 907 3 view .LVU562
 908:Drivers/BSP/Components/iis2dlpc/iis2dlpc_reg.c **** 
 909:Drivers/BSP/Components/iis2dlpc/iis2dlpc_reg.c ****   ret = iis2dlpc_read_reg(ctx, IIS2DLPC_CTRL2, (uint8_t *) &reg, 1);
 2162              		.loc 1 909 3 view .LVU563
 2163              		.loc 1 909 9 is_stmt 0 view .LVU564
 2164 0008 0123     		movs	r3, #1
 2165 000a 01AA     		add	r2, sp, #4
 2166 000c 2121     		movs	r1, #33
 2167              	.LVL138:
 2168              		.loc 1 909 9 view .LVU565
 2169 000e FFF7FEFF 		bl	iis2dlpc_read_reg
 2170              	.LVL139:
 910:Drivers/BSP/Components/iis2dlpc/iis2dlpc_reg.c **** 
 911:Drivers/BSP/Components/iis2dlpc/iis2dlpc_reg.c ****   if (ret == 0)
 2171              		.loc 1 911 3 is_stmt 1 view .LVU566
 2172              		.loc 1 911 6 is_stmt 0 view .LVU567
 2173 0012 08B1     		cbz	r0, .L159
 2174              	.LVL140:
 2175              	.L156:
 912:Drivers/BSP/Components/iis2dlpc/iis2dlpc_reg.c ****   {
 913:Drivers/BSP/Components/iis2dlpc/iis2dlpc_reg.c ****     reg.soft_reset = val;
 914:Drivers/BSP/Components/iis2dlpc/iis2dlpc_reg.c ****     ret = iis2dlpc_write_reg(ctx, IIS2DLPC_CTRL2, (uint8_t *) &reg, 1);
 915:Drivers/BSP/Components/iis2dlpc/iis2dlpc_reg.c ****   }
 916:Drivers/BSP/Components/iis2dlpc/iis2dlpc_reg.c **** 
 917:Drivers/BSP/Components/iis2dlpc/iis2dlpc_reg.c ****   return ret;
 918:Drivers/BSP/Components/iis2dlpc/iis2dlpc_reg.c **** }
 2176              		.loc 1 918 1 view .LVU568
 2177 0014 03B0     		add	sp, sp, #12
 2178              		.cfi_remember_state
 2179              		.cfi_def_cfa_offset 12
 2180              		@ sp needed
 2181 0016 30BD     		pop	{r4, r5, pc}
 2182              	.LVL141:
 2183              	.L159:
 2184              		.cfi_restore_state
 913:Drivers/BSP/Components/iis2dlpc/iis2dlpc_reg.c ****     ret = iis2dlpc_write_reg(ctx, IIS2DLPC_CTRL2, (uint8_t *) &reg, 1);
 2185              		.loc 1 913 5 is_stmt 1 view .LVU569
 913:Drivers/BSP/Components/iis2dlpc/iis2dlpc_reg.c ****     ret = iis2dlpc_write_reg(ctx, IIS2DLPC_CTRL2, (uint8_t *) &reg, 1);
 2186              		.loc 1 913 20 is_stmt 0 view .LVU570
 2187 0018 9DF80430 		ldrb	r3, [sp, #4]	@ zero_extendqisi2
 2188 001c 65F38613 		bfi	r3, r5, #6, #1
ARM GAS  C:\Temp\ccGZlXNO.s 			page 58


 2189 0020 8DF80430 		strb	r3, [sp, #4]
 914:Drivers/BSP/Components/iis2dlpc/iis2dlpc_reg.c ****   }
 2190              		.loc 1 914 5 is_stmt 1 view .LVU571
 914:Drivers/BSP/Components/iis2dlpc/iis2dlpc_reg.c ****   }
 2191              		.loc 1 914 11 is_stmt 0 view .LVU572
 2192 0024 0123     		movs	r3, #1
 2193              	.LVL142:
 914:Drivers/BSP/Components/iis2dlpc/iis2dlpc_reg.c ****   }
 2194              		.loc 1 914 11 view .LVU573
 2195 0026 01AA     		add	r2, sp, #4
 2196 0028 2121     		movs	r1, #33
 2197 002a 2046     		mov	r0, r4
 2198 002c FFF7FEFF 		bl	iis2dlpc_write_reg
 2199              	.LVL143:
 917:Drivers/BSP/Components/iis2dlpc/iis2dlpc_reg.c **** }
 2200              		.loc 1 917 3 is_stmt 1 view .LVU574
 917:Drivers/BSP/Components/iis2dlpc/iis2dlpc_reg.c **** }
 2201              		.loc 1 917 10 is_stmt 0 view .LVU575
 2202 0030 F0E7     		b	.L156
 2203              		.cfi_endproc
 2204              	.LFE35:
 2206              		.section	.text.iis2dlpc_reset_get,"ax",%progbits
 2207              		.align	1
 2208              		.global	iis2dlpc_reset_get
 2209              		.syntax unified
 2210              		.thumb
 2211              		.thumb_func
 2213              	iis2dlpc_reset_get:
 2214              	.LVL144:
 2215              	.LFB36:
 919:Drivers/BSP/Components/iis2dlpc/iis2dlpc_reg.c **** 
 920:Drivers/BSP/Components/iis2dlpc/iis2dlpc_reg.c **** /**
 921:Drivers/BSP/Components/iis2dlpc/iis2dlpc_reg.c ****   * @brief  Software reset. Restore the default values in user registers.[get]
 922:Drivers/BSP/Components/iis2dlpc/iis2dlpc_reg.c ****   *
 923:Drivers/BSP/Components/iis2dlpc/iis2dlpc_reg.c ****   * @param  ctx      read / write interface definitions
 924:Drivers/BSP/Components/iis2dlpc/iis2dlpc_reg.c ****   * @param  val      change the values of soft_reset in reg CTRL2
 925:Drivers/BSP/Components/iis2dlpc/iis2dlpc_reg.c ****   * @retval          interface status (MANDATORY: return 0 -> no Error)
 926:Drivers/BSP/Components/iis2dlpc/iis2dlpc_reg.c ****   *
 927:Drivers/BSP/Components/iis2dlpc/iis2dlpc_reg.c ****   */
 928:Drivers/BSP/Components/iis2dlpc/iis2dlpc_reg.c **** int32_t iis2dlpc_reset_get(const stmdev_ctx_t *ctx, uint8_t *val)
 929:Drivers/BSP/Components/iis2dlpc/iis2dlpc_reg.c **** {
 2216              		.loc 1 929 1 is_stmt 1 view -0
 2217              		.cfi_startproc
 2218              		@ args = 0, pretend = 0, frame = 8
 2219              		@ frame_needed = 0, uses_anonymous_args = 0
 2220              		.loc 1 929 1 is_stmt 0 view .LVU577
 2221 0000 10B5     		push	{r4, lr}
 2222              		.cfi_def_cfa_offset 8
 2223              		.cfi_offset 4, -8
 2224              		.cfi_offset 14, -4
 2225 0002 82B0     		sub	sp, sp, #8
 2226              		.cfi_def_cfa_offset 16
 2227 0004 0C46     		mov	r4, r1
 930:Drivers/BSP/Components/iis2dlpc/iis2dlpc_reg.c ****   iis2dlpc_ctrl2_t reg;
 2228              		.loc 1 930 3 is_stmt 1 view .LVU578
 931:Drivers/BSP/Components/iis2dlpc/iis2dlpc_reg.c ****   int32_t ret;
 2229              		.loc 1 931 3 view .LVU579
ARM GAS  C:\Temp\ccGZlXNO.s 			page 59


 932:Drivers/BSP/Components/iis2dlpc/iis2dlpc_reg.c **** 
 933:Drivers/BSP/Components/iis2dlpc/iis2dlpc_reg.c ****   ret = iis2dlpc_read_reg(ctx, IIS2DLPC_CTRL2, (uint8_t *) &reg, 1);
 2230              		.loc 1 933 3 view .LVU580
 2231              		.loc 1 933 9 is_stmt 0 view .LVU581
 2232 0006 0123     		movs	r3, #1
 2233 0008 01AA     		add	r2, sp, #4
 2234 000a 2121     		movs	r1, #33
 2235              	.LVL145:
 2236              		.loc 1 933 9 view .LVU582
 2237 000c FFF7FEFF 		bl	iis2dlpc_read_reg
 2238              	.LVL146:
 934:Drivers/BSP/Components/iis2dlpc/iis2dlpc_reg.c ****   *val = reg.soft_reset;
 2239              		.loc 1 934 3 is_stmt 1 view .LVU583
 2240              		.loc 1 934 13 is_stmt 0 view .LVU584
 2241 0010 9DF80430 		ldrb	r3, [sp, #4]	@ zero_extendqisi2
 2242 0014 C3F38013 		ubfx	r3, r3, #6, #1
 2243              		.loc 1 934 8 view .LVU585
 2244 0018 2370     		strb	r3, [r4]
 935:Drivers/BSP/Components/iis2dlpc/iis2dlpc_reg.c **** 
 936:Drivers/BSP/Components/iis2dlpc/iis2dlpc_reg.c ****   return ret;
 2245              		.loc 1 936 3 is_stmt 1 view .LVU586
 937:Drivers/BSP/Components/iis2dlpc/iis2dlpc_reg.c **** }
 2246              		.loc 1 937 1 is_stmt 0 view .LVU587
 2247 001a 02B0     		add	sp, sp, #8
 2248              		.cfi_def_cfa_offset 8
 2249              		@ sp needed
 2250 001c 10BD     		pop	{r4, pc}
 2251              		.loc 1 937 1 view .LVU588
 2252              		.cfi_endproc
 2253              	.LFE36:
 2255              		.section	.text.iis2dlpc_boot_set,"ax",%progbits
 2256              		.align	1
 2257              		.global	iis2dlpc_boot_set
 2258              		.syntax unified
 2259              		.thumb
 2260              		.thumb_func
 2262              	iis2dlpc_boot_set:
 2263              	.LVL147:
 2264              	.LFB37:
 938:Drivers/BSP/Components/iis2dlpc/iis2dlpc_reg.c **** 
 939:Drivers/BSP/Components/iis2dlpc/iis2dlpc_reg.c **** /**
 940:Drivers/BSP/Components/iis2dlpc/iis2dlpc_reg.c ****   * @brief  Reboot memory content. Reload the calibration parameters.[set]
 941:Drivers/BSP/Components/iis2dlpc/iis2dlpc_reg.c ****   *
 942:Drivers/BSP/Components/iis2dlpc/iis2dlpc_reg.c ****   * @param  ctx      read / write interface definitions
 943:Drivers/BSP/Components/iis2dlpc/iis2dlpc_reg.c ****   * @param  val      change the values of boot in reg CTRL2
 944:Drivers/BSP/Components/iis2dlpc/iis2dlpc_reg.c ****   * @retval          interface status (MANDATORY: return 0 -> no Error)
 945:Drivers/BSP/Components/iis2dlpc/iis2dlpc_reg.c ****   *
 946:Drivers/BSP/Components/iis2dlpc/iis2dlpc_reg.c ****   */
 947:Drivers/BSP/Components/iis2dlpc/iis2dlpc_reg.c **** int32_t iis2dlpc_boot_set(const stmdev_ctx_t *ctx, uint8_t val)
 948:Drivers/BSP/Components/iis2dlpc/iis2dlpc_reg.c **** {
 2265              		.loc 1 948 1 is_stmt 1 view -0
 2266              		.cfi_startproc
 2267              		@ args = 0, pretend = 0, frame = 8
 2268              		@ frame_needed = 0, uses_anonymous_args = 0
 2269              		.loc 1 948 1 is_stmt 0 view .LVU590
 2270 0000 30B5     		push	{r4, r5, lr}
 2271              		.cfi_def_cfa_offset 12
ARM GAS  C:\Temp\ccGZlXNO.s 			page 60


 2272              		.cfi_offset 4, -12
 2273              		.cfi_offset 5, -8
 2274              		.cfi_offset 14, -4
 2275 0002 83B0     		sub	sp, sp, #12
 2276              		.cfi_def_cfa_offset 24
 2277 0004 0446     		mov	r4, r0
 2278 0006 0D46     		mov	r5, r1
 949:Drivers/BSP/Components/iis2dlpc/iis2dlpc_reg.c ****   iis2dlpc_ctrl2_t reg;
 2279              		.loc 1 949 3 is_stmt 1 view .LVU591
 950:Drivers/BSP/Components/iis2dlpc/iis2dlpc_reg.c ****   int32_t ret;
 2280              		.loc 1 950 3 view .LVU592
 951:Drivers/BSP/Components/iis2dlpc/iis2dlpc_reg.c **** 
 952:Drivers/BSP/Components/iis2dlpc/iis2dlpc_reg.c ****   ret = iis2dlpc_read_reg(ctx, IIS2DLPC_CTRL2, (uint8_t *) &reg, 1);
 2281              		.loc 1 952 3 view .LVU593
 2282              		.loc 1 952 9 is_stmt 0 view .LVU594
 2283 0008 0123     		movs	r3, #1
 2284 000a 01AA     		add	r2, sp, #4
 2285 000c 2121     		movs	r1, #33
 2286              	.LVL148:
 2287              		.loc 1 952 9 view .LVU595
 2288 000e FFF7FEFF 		bl	iis2dlpc_read_reg
 2289              	.LVL149:
 953:Drivers/BSP/Components/iis2dlpc/iis2dlpc_reg.c **** 
 954:Drivers/BSP/Components/iis2dlpc/iis2dlpc_reg.c ****   if (ret == 0)
 2290              		.loc 1 954 3 is_stmt 1 view .LVU596
 2291              		.loc 1 954 6 is_stmt 0 view .LVU597
 2292 0012 08B1     		cbz	r0, .L165
 2293              	.LVL150:
 2294              	.L162:
 955:Drivers/BSP/Components/iis2dlpc/iis2dlpc_reg.c ****   {
 956:Drivers/BSP/Components/iis2dlpc/iis2dlpc_reg.c ****     reg.boot = val;
 957:Drivers/BSP/Components/iis2dlpc/iis2dlpc_reg.c ****     ret = iis2dlpc_write_reg(ctx, IIS2DLPC_CTRL2, (uint8_t *) &reg, 1);
 958:Drivers/BSP/Components/iis2dlpc/iis2dlpc_reg.c ****   }
 959:Drivers/BSP/Components/iis2dlpc/iis2dlpc_reg.c **** 
 960:Drivers/BSP/Components/iis2dlpc/iis2dlpc_reg.c ****   return ret;
 961:Drivers/BSP/Components/iis2dlpc/iis2dlpc_reg.c **** }
 2295              		.loc 1 961 1 view .LVU598
 2296 0014 03B0     		add	sp, sp, #12
 2297              		.cfi_remember_state
 2298              		.cfi_def_cfa_offset 12
 2299              		@ sp needed
 2300 0016 30BD     		pop	{r4, r5, pc}
 2301              	.LVL151:
 2302              	.L165:
 2303              		.cfi_restore_state
 956:Drivers/BSP/Components/iis2dlpc/iis2dlpc_reg.c ****     ret = iis2dlpc_write_reg(ctx, IIS2DLPC_CTRL2, (uint8_t *) &reg, 1);
 2304              		.loc 1 956 5 is_stmt 1 view .LVU599
 956:Drivers/BSP/Components/iis2dlpc/iis2dlpc_reg.c ****     ret = iis2dlpc_write_reg(ctx, IIS2DLPC_CTRL2, (uint8_t *) &reg, 1);
 2305              		.loc 1 956 14 is_stmt 0 view .LVU600
 2306 0018 9DF80430 		ldrb	r3, [sp, #4]	@ zero_extendqisi2
 2307 001c 65F3C713 		bfi	r3, r5, #7, #1
 2308 0020 8DF80430 		strb	r3, [sp, #4]
 957:Drivers/BSP/Components/iis2dlpc/iis2dlpc_reg.c ****   }
 2309              		.loc 1 957 5 is_stmt 1 view .LVU601
 957:Drivers/BSP/Components/iis2dlpc/iis2dlpc_reg.c ****   }
 2310              		.loc 1 957 11 is_stmt 0 view .LVU602
 2311 0024 0123     		movs	r3, #1
ARM GAS  C:\Temp\ccGZlXNO.s 			page 61


 2312              	.LVL152:
 957:Drivers/BSP/Components/iis2dlpc/iis2dlpc_reg.c ****   }
 2313              		.loc 1 957 11 view .LVU603
 2314 0026 01AA     		add	r2, sp, #4
 2315 0028 2121     		movs	r1, #33
 2316 002a 2046     		mov	r0, r4
 2317 002c FFF7FEFF 		bl	iis2dlpc_write_reg
 2318              	.LVL153:
 960:Drivers/BSP/Components/iis2dlpc/iis2dlpc_reg.c **** }
 2319              		.loc 1 960 3 is_stmt 1 view .LVU604
 960:Drivers/BSP/Components/iis2dlpc/iis2dlpc_reg.c **** }
 2320              		.loc 1 960 10 is_stmt 0 view .LVU605
 2321 0030 F0E7     		b	.L162
 2322              		.cfi_endproc
 2323              	.LFE37:
 2325              		.section	.text.iis2dlpc_boot_get,"ax",%progbits
 2326              		.align	1
 2327              		.global	iis2dlpc_boot_get
 2328              		.syntax unified
 2329              		.thumb
 2330              		.thumb_func
 2332              	iis2dlpc_boot_get:
 2333              	.LVL154:
 2334              	.LFB38:
 962:Drivers/BSP/Components/iis2dlpc/iis2dlpc_reg.c **** 
 963:Drivers/BSP/Components/iis2dlpc/iis2dlpc_reg.c **** /**
 964:Drivers/BSP/Components/iis2dlpc/iis2dlpc_reg.c ****   * @brief  Reboot memory content. Reload the calibration parameters.[get]
 965:Drivers/BSP/Components/iis2dlpc/iis2dlpc_reg.c ****   *
 966:Drivers/BSP/Components/iis2dlpc/iis2dlpc_reg.c ****   * @param  ctx      read / write interface definitions
 967:Drivers/BSP/Components/iis2dlpc/iis2dlpc_reg.c ****   * @param  val      change the values of boot in reg CTRL2
 968:Drivers/BSP/Components/iis2dlpc/iis2dlpc_reg.c ****   * @retval          interface status (MANDATORY: return 0 -> no Error)
 969:Drivers/BSP/Components/iis2dlpc/iis2dlpc_reg.c ****   *
 970:Drivers/BSP/Components/iis2dlpc/iis2dlpc_reg.c ****   */
 971:Drivers/BSP/Components/iis2dlpc/iis2dlpc_reg.c **** int32_t iis2dlpc_boot_get(const stmdev_ctx_t *ctx, uint8_t *val)
 972:Drivers/BSP/Components/iis2dlpc/iis2dlpc_reg.c **** {
 2335              		.loc 1 972 1 is_stmt 1 view -0
 2336              		.cfi_startproc
 2337              		@ args = 0, pretend = 0, frame = 8
 2338              		@ frame_needed = 0, uses_anonymous_args = 0
 2339              		.loc 1 972 1 is_stmt 0 view .LVU607
 2340 0000 10B5     		push	{r4, lr}
 2341              		.cfi_def_cfa_offset 8
 2342              		.cfi_offset 4, -8
 2343              		.cfi_offset 14, -4
 2344 0002 82B0     		sub	sp, sp, #8
 2345              		.cfi_def_cfa_offset 16
 2346 0004 0C46     		mov	r4, r1
 973:Drivers/BSP/Components/iis2dlpc/iis2dlpc_reg.c ****   iis2dlpc_ctrl2_t reg;
 2347              		.loc 1 973 3 is_stmt 1 view .LVU608
 974:Drivers/BSP/Components/iis2dlpc/iis2dlpc_reg.c ****   int32_t ret;
 2348              		.loc 1 974 3 view .LVU609
 975:Drivers/BSP/Components/iis2dlpc/iis2dlpc_reg.c **** 
 976:Drivers/BSP/Components/iis2dlpc/iis2dlpc_reg.c ****   ret = iis2dlpc_read_reg(ctx, IIS2DLPC_CTRL2, (uint8_t *) &reg, 1);
 2349              		.loc 1 976 3 view .LVU610
 2350              		.loc 1 976 9 is_stmt 0 view .LVU611
 2351 0006 0123     		movs	r3, #1
 2352 0008 01AA     		add	r2, sp, #4
ARM GAS  C:\Temp\ccGZlXNO.s 			page 62


 2353 000a 2121     		movs	r1, #33
 2354              	.LVL155:
 2355              		.loc 1 976 9 view .LVU612
 2356 000c FFF7FEFF 		bl	iis2dlpc_read_reg
 2357              	.LVL156:
 977:Drivers/BSP/Components/iis2dlpc/iis2dlpc_reg.c ****   *val = reg.boot;
 2358              		.loc 1 977 3 is_stmt 1 view .LVU613
 2359              		.loc 1 977 13 is_stmt 0 view .LVU614
 2360 0010 9DF80430 		ldrb	r3, [sp, #4]	@ zero_extendqisi2
 2361 0014 C3F3C013 		ubfx	r3, r3, #7, #1
 2362              		.loc 1 977 8 view .LVU615
 2363 0018 2370     		strb	r3, [r4]
 978:Drivers/BSP/Components/iis2dlpc/iis2dlpc_reg.c **** 
 979:Drivers/BSP/Components/iis2dlpc/iis2dlpc_reg.c ****   return ret;
 2364              		.loc 1 979 3 is_stmt 1 view .LVU616
 980:Drivers/BSP/Components/iis2dlpc/iis2dlpc_reg.c **** }
 2365              		.loc 1 980 1 is_stmt 0 view .LVU617
 2366 001a 02B0     		add	sp, sp, #8
 2367              		.cfi_def_cfa_offset 8
 2368              		@ sp needed
 2369 001c 10BD     		pop	{r4, pc}
 2370              		.loc 1 980 1 view .LVU618
 2371              		.cfi_endproc
 2372              	.LFE38:
 2374              		.section	.text.iis2dlpc_self_test_set,"ax",%progbits
 2375              		.align	1
 2376              		.global	iis2dlpc_self_test_set
 2377              		.syntax unified
 2378              		.thumb
 2379              		.thumb_func
 2381              	iis2dlpc_self_test_set:
 2382              	.LVL157:
 2383              	.LFB39:
 981:Drivers/BSP/Components/iis2dlpc/iis2dlpc_reg.c **** 
 982:Drivers/BSP/Components/iis2dlpc/iis2dlpc_reg.c **** /**
 983:Drivers/BSP/Components/iis2dlpc/iis2dlpc_reg.c ****   * @brief  Sensor self-test enable.[set]
 984:Drivers/BSP/Components/iis2dlpc/iis2dlpc_reg.c ****   *
 985:Drivers/BSP/Components/iis2dlpc/iis2dlpc_reg.c ****   * @param  ctx      read / write interface definitions
 986:Drivers/BSP/Components/iis2dlpc/iis2dlpc_reg.c ****   * @param  val      change the values of st in reg CTRL3
 987:Drivers/BSP/Components/iis2dlpc/iis2dlpc_reg.c ****   * @retval          interface status (MANDATORY: return 0 -> no Error)
 988:Drivers/BSP/Components/iis2dlpc/iis2dlpc_reg.c ****   *
 989:Drivers/BSP/Components/iis2dlpc/iis2dlpc_reg.c ****   */
 990:Drivers/BSP/Components/iis2dlpc/iis2dlpc_reg.c **** int32_t iis2dlpc_self_test_set(const stmdev_ctx_t *ctx, iis2dlpc_st_t val)
 991:Drivers/BSP/Components/iis2dlpc/iis2dlpc_reg.c **** {
 2384              		.loc 1 991 1 is_stmt 1 view -0
 2385              		.cfi_startproc
 2386              		@ args = 0, pretend = 0, frame = 8
 2387              		@ frame_needed = 0, uses_anonymous_args = 0
 2388              		.loc 1 991 1 is_stmt 0 view .LVU620
 2389 0000 30B5     		push	{r4, r5, lr}
 2390              		.cfi_def_cfa_offset 12
 2391              		.cfi_offset 4, -12
 2392              		.cfi_offset 5, -8
 2393              		.cfi_offset 14, -4
 2394 0002 83B0     		sub	sp, sp, #12
 2395              		.cfi_def_cfa_offset 24
 2396 0004 0446     		mov	r4, r0
ARM GAS  C:\Temp\ccGZlXNO.s 			page 63


 2397 0006 0D46     		mov	r5, r1
 992:Drivers/BSP/Components/iis2dlpc/iis2dlpc_reg.c ****   iis2dlpc_ctrl3_t reg;
 2398              		.loc 1 992 3 is_stmt 1 view .LVU621
 993:Drivers/BSP/Components/iis2dlpc/iis2dlpc_reg.c ****   int32_t ret;
 2399              		.loc 1 993 3 view .LVU622
 994:Drivers/BSP/Components/iis2dlpc/iis2dlpc_reg.c **** 
 995:Drivers/BSP/Components/iis2dlpc/iis2dlpc_reg.c ****   ret = iis2dlpc_read_reg(ctx, IIS2DLPC_CTRL3, (uint8_t *) &reg, 1);
 2400              		.loc 1 995 3 view .LVU623
 2401              		.loc 1 995 9 is_stmt 0 view .LVU624
 2402 0008 0123     		movs	r3, #1
 2403 000a 01AA     		add	r2, sp, #4
 2404 000c 2221     		movs	r1, #34
 2405              	.LVL158:
 2406              		.loc 1 995 9 view .LVU625
 2407 000e FFF7FEFF 		bl	iis2dlpc_read_reg
 2408              	.LVL159:
 996:Drivers/BSP/Components/iis2dlpc/iis2dlpc_reg.c **** 
 997:Drivers/BSP/Components/iis2dlpc/iis2dlpc_reg.c ****   if (ret == 0)
 2409              		.loc 1 997 3 is_stmt 1 view .LVU626
 2410              		.loc 1 997 6 is_stmt 0 view .LVU627
 2411 0012 08B1     		cbz	r0, .L171
 2412              	.LVL160:
 2413              	.L168:
 998:Drivers/BSP/Components/iis2dlpc/iis2dlpc_reg.c ****   {
 999:Drivers/BSP/Components/iis2dlpc/iis2dlpc_reg.c ****     reg.st = (uint8_t) val;
1000:Drivers/BSP/Components/iis2dlpc/iis2dlpc_reg.c ****     ret = iis2dlpc_write_reg(ctx, IIS2DLPC_CTRL3, (uint8_t *) &reg, 1);
1001:Drivers/BSP/Components/iis2dlpc/iis2dlpc_reg.c ****   }
1002:Drivers/BSP/Components/iis2dlpc/iis2dlpc_reg.c **** 
1003:Drivers/BSP/Components/iis2dlpc/iis2dlpc_reg.c ****   return ret;
1004:Drivers/BSP/Components/iis2dlpc/iis2dlpc_reg.c **** }
 2414              		.loc 1 1004 1 view .LVU628
 2415 0014 03B0     		add	sp, sp, #12
 2416              		.cfi_remember_state
 2417              		.cfi_def_cfa_offset 12
 2418              		@ sp needed
 2419 0016 30BD     		pop	{r4, r5, pc}
 2420              	.LVL161:
 2421              	.L171:
 2422              		.cfi_restore_state
 999:Drivers/BSP/Components/iis2dlpc/iis2dlpc_reg.c ****     ret = iis2dlpc_write_reg(ctx, IIS2DLPC_CTRL3, (uint8_t *) &reg, 1);
 2423              		.loc 1 999 5 is_stmt 1 view .LVU629
 999:Drivers/BSP/Components/iis2dlpc/iis2dlpc_reg.c ****     ret = iis2dlpc_write_reg(ctx, IIS2DLPC_CTRL3, (uint8_t *) &reg, 1);
 2424              		.loc 1 999 12 is_stmt 0 view .LVU630
 2425 0018 9DF80430 		ldrb	r3, [sp, #4]	@ zero_extendqisi2
 2426 001c 65F38713 		bfi	r3, r5, #6, #2
 2427 0020 8DF80430 		strb	r3, [sp, #4]
1000:Drivers/BSP/Components/iis2dlpc/iis2dlpc_reg.c ****   }
 2428              		.loc 1 1000 5 is_stmt 1 view .LVU631
1000:Drivers/BSP/Components/iis2dlpc/iis2dlpc_reg.c ****   }
 2429              		.loc 1 1000 11 is_stmt 0 view .LVU632
 2430 0024 0123     		movs	r3, #1
 2431              	.LVL162:
1000:Drivers/BSP/Components/iis2dlpc/iis2dlpc_reg.c ****   }
 2432              		.loc 1 1000 11 view .LVU633
 2433 0026 01AA     		add	r2, sp, #4
 2434 0028 2221     		movs	r1, #34
 2435 002a 2046     		mov	r0, r4
ARM GAS  C:\Temp\ccGZlXNO.s 			page 64


 2436 002c FFF7FEFF 		bl	iis2dlpc_write_reg
 2437              	.LVL163:
1003:Drivers/BSP/Components/iis2dlpc/iis2dlpc_reg.c **** }
 2438              		.loc 1 1003 3 is_stmt 1 view .LVU634
1003:Drivers/BSP/Components/iis2dlpc/iis2dlpc_reg.c **** }
 2439              		.loc 1 1003 10 is_stmt 0 view .LVU635
 2440 0030 F0E7     		b	.L168
 2441              		.cfi_endproc
 2442              	.LFE39:
 2444              		.section	.text.iis2dlpc_self_test_get,"ax",%progbits
 2445              		.align	1
 2446              		.global	iis2dlpc_self_test_get
 2447              		.syntax unified
 2448              		.thumb
 2449              		.thumb_func
 2451              	iis2dlpc_self_test_get:
 2452              	.LVL164:
 2453              	.LFB40:
1005:Drivers/BSP/Components/iis2dlpc/iis2dlpc_reg.c **** 
1006:Drivers/BSP/Components/iis2dlpc/iis2dlpc_reg.c **** /**
1007:Drivers/BSP/Components/iis2dlpc/iis2dlpc_reg.c ****   * @brief  Sensor self-test enable.[get]
1008:Drivers/BSP/Components/iis2dlpc/iis2dlpc_reg.c ****   *
1009:Drivers/BSP/Components/iis2dlpc/iis2dlpc_reg.c ****   * @param  ctx      read / write interface definitions
1010:Drivers/BSP/Components/iis2dlpc/iis2dlpc_reg.c ****   * @param  val      Get the values of st in reg CTRL3
1011:Drivers/BSP/Components/iis2dlpc/iis2dlpc_reg.c ****   * @retval          interface status (MANDATORY: return 0 -> no Error)
1012:Drivers/BSP/Components/iis2dlpc/iis2dlpc_reg.c ****   *
1013:Drivers/BSP/Components/iis2dlpc/iis2dlpc_reg.c ****   */
1014:Drivers/BSP/Components/iis2dlpc/iis2dlpc_reg.c **** int32_t iis2dlpc_self_test_get(const stmdev_ctx_t *ctx, iis2dlpc_st_t *val)
1015:Drivers/BSP/Components/iis2dlpc/iis2dlpc_reg.c **** {
 2454              		.loc 1 1015 1 is_stmt 1 view -0
 2455              		.cfi_startproc
 2456              		@ args = 0, pretend = 0, frame = 8
 2457              		@ frame_needed = 0, uses_anonymous_args = 0
 2458              		.loc 1 1015 1 is_stmt 0 view .LVU637
 2459 0000 10B5     		push	{r4, lr}
 2460              		.cfi_def_cfa_offset 8
 2461              		.cfi_offset 4, -8
 2462              		.cfi_offset 14, -4
 2463 0002 82B0     		sub	sp, sp, #8
 2464              		.cfi_def_cfa_offset 16
 2465 0004 0C46     		mov	r4, r1
1016:Drivers/BSP/Components/iis2dlpc/iis2dlpc_reg.c ****   iis2dlpc_ctrl3_t reg;
 2466              		.loc 1 1016 3 is_stmt 1 view .LVU638
1017:Drivers/BSP/Components/iis2dlpc/iis2dlpc_reg.c ****   int32_t ret;
 2467              		.loc 1 1017 3 view .LVU639
1018:Drivers/BSP/Components/iis2dlpc/iis2dlpc_reg.c **** 
1019:Drivers/BSP/Components/iis2dlpc/iis2dlpc_reg.c ****   ret = iis2dlpc_read_reg(ctx, IIS2DLPC_CTRL3, (uint8_t *) &reg, 1);
 2468              		.loc 1 1019 3 view .LVU640
 2469              		.loc 1 1019 9 is_stmt 0 view .LVU641
 2470 0006 0123     		movs	r3, #1
 2471 0008 01AA     		add	r2, sp, #4
 2472 000a 2221     		movs	r1, #34
 2473              	.LVL165:
 2474              		.loc 1 1019 9 view .LVU642
 2475 000c FFF7FEFF 		bl	iis2dlpc_read_reg
 2476              	.LVL166:
1020:Drivers/BSP/Components/iis2dlpc/iis2dlpc_reg.c **** 
ARM GAS  C:\Temp\ccGZlXNO.s 			page 65


1021:Drivers/BSP/Components/iis2dlpc/iis2dlpc_reg.c ****   switch (reg.st)
 2477              		.loc 1 1021 3 is_stmt 1 view .LVU643
 2478              		.loc 1 1021 14 is_stmt 0 view .LVU644
 2479 0010 9DF80430 		ldrb	r3, [sp, #4]	@ zero_extendqisi2
 2480 0014 9B09     		lsrs	r3, r3, #6
 2481              		.loc 1 1021 3 view .LVU645
 2482 0016 012B     		cmp	r3, #1
 2483 0018 08D0     		beq	.L173
 2484 001a 022B     		cmp	r3, #2
 2485 001c 09D0     		beq	.L174
 2486 001e 13B1     		cbz	r3, .L178
1022:Drivers/BSP/Components/iis2dlpc/iis2dlpc_reg.c ****   {
1023:Drivers/BSP/Components/iis2dlpc/iis2dlpc_reg.c ****     case IIS2DLPC_XL_ST_DISABLE:
1024:Drivers/BSP/Components/iis2dlpc/iis2dlpc_reg.c ****       *val = IIS2DLPC_XL_ST_DISABLE;
1025:Drivers/BSP/Components/iis2dlpc/iis2dlpc_reg.c ****       break;
1026:Drivers/BSP/Components/iis2dlpc/iis2dlpc_reg.c **** 
1027:Drivers/BSP/Components/iis2dlpc/iis2dlpc_reg.c ****     case IIS2DLPC_XL_ST_POSITIVE:
1028:Drivers/BSP/Components/iis2dlpc/iis2dlpc_reg.c ****       *val = IIS2DLPC_XL_ST_POSITIVE;
1029:Drivers/BSP/Components/iis2dlpc/iis2dlpc_reg.c ****       break;
1030:Drivers/BSP/Components/iis2dlpc/iis2dlpc_reg.c **** 
1031:Drivers/BSP/Components/iis2dlpc/iis2dlpc_reg.c ****     case IIS2DLPC_XL_ST_NEGATIVE:
1032:Drivers/BSP/Components/iis2dlpc/iis2dlpc_reg.c ****       *val = IIS2DLPC_XL_ST_NEGATIVE;
1033:Drivers/BSP/Components/iis2dlpc/iis2dlpc_reg.c ****       break;
1034:Drivers/BSP/Components/iis2dlpc/iis2dlpc_reg.c **** 
1035:Drivers/BSP/Components/iis2dlpc/iis2dlpc_reg.c ****     default:
1036:Drivers/BSP/Components/iis2dlpc/iis2dlpc_reg.c ****       *val = IIS2DLPC_XL_ST_DISABLE;
 2487              		.loc 1 1036 7 is_stmt 1 view .LVU646
 2488              		.loc 1 1036 12 is_stmt 0 view .LVU647
 2489 0020 0023     		movs	r3, #0
 2490 0022 2370     		strb	r3, [r4]
1037:Drivers/BSP/Components/iis2dlpc/iis2dlpc_reg.c ****       break;
 2491              		.loc 1 1037 7 is_stmt 1 view .LVU648
1038:Drivers/BSP/Components/iis2dlpc/iis2dlpc_reg.c ****   }
1039:Drivers/BSP/Components/iis2dlpc/iis2dlpc_reg.c **** 
1040:Drivers/BSP/Components/iis2dlpc/iis2dlpc_reg.c ****   return ret;
 2492              		.loc 1 1040 3 view .LVU649
 2493              		.loc 1 1040 10 is_stmt 0 view .LVU650
 2494 0024 00E0     		b	.L172
 2495              	.L178:
1024:Drivers/BSP/Components/iis2dlpc/iis2dlpc_reg.c ****       break;
 2496              		.loc 1 1024 7 is_stmt 1 view .LVU651
1024:Drivers/BSP/Components/iis2dlpc/iis2dlpc_reg.c ****       break;
 2497              		.loc 1 1024 12 is_stmt 0 view .LVU652
 2498 0026 2370     		strb	r3, [r4]
1025:Drivers/BSP/Components/iis2dlpc/iis2dlpc_reg.c **** 
 2499              		.loc 1 1025 7 is_stmt 1 view .LVU653
 2500              	.L172:
1041:Drivers/BSP/Components/iis2dlpc/iis2dlpc_reg.c **** }
 2501              		.loc 1 1041 1 is_stmt 0 view .LVU654
 2502 0028 02B0     		add	sp, sp, #8
 2503              		.cfi_remember_state
 2504              		.cfi_def_cfa_offset 8
 2505              		@ sp needed
 2506 002a 10BD     		pop	{r4, pc}
 2507              	.LVL167:
 2508              	.L173:
 2509              		.cfi_restore_state
ARM GAS  C:\Temp\ccGZlXNO.s 			page 66


1028:Drivers/BSP/Components/iis2dlpc/iis2dlpc_reg.c ****       break;
 2510              		.loc 1 1028 7 is_stmt 1 view .LVU655
1028:Drivers/BSP/Components/iis2dlpc/iis2dlpc_reg.c ****       break;
 2511              		.loc 1 1028 12 is_stmt 0 view .LVU656
 2512 002c 0123     		movs	r3, #1
 2513 002e 2370     		strb	r3, [r4]
1029:Drivers/BSP/Components/iis2dlpc/iis2dlpc_reg.c **** 
 2514              		.loc 1 1029 7 is_stmt 1 view .LVU657
 2515 0030 FAE7     		b	.L172
 2516              	.L174:
1032:Drivers/BSP/Components/iis2dlpc/iis2dlpc_reg.c ****       break;
 2517              		.loc 1 1032 7 view .LVU658
1032:Drivers/BSP/Components/iis2dlpc/iis2dlpc_reg.c ****       break;
 2518              		.loc 1 1032 12 is_stmt 0 view .LVU659
 2519 0032 0223     		movs	r3, #2
 2520 0034 2370     		strb	r3, [r4]
1033:Drivers/BSP/Components/iis2dlpc/iis2dlpc_reg.c **** 
 2521              		.loc 1 1033 7 is_stmt 1 view .LVU660
 2522 0036 F7E7     		b	.L172
 2523              		.cfi_endproc
 2524              	.LFE40:
 2526              		.section	.text.iis2dlpc_data_ready_mode_set,"ax",%progbits
 2527              		.align	1
 2528              		.global	iis2dlpc_data_ready_mode_set
 2529              		.syntax unified
 2530              		.thumb
 2531              		.thumb_func
 2533              	iis2dlpc_data_ready_mode_set:
 2534              	.LVL168:
 2535              	.LFB41:
1042:Drivers/BSP/Components/iis2dlpc/iis2dlpc_reg.c **** 
1043:Drivers/BSP/Components/iis2dlpc/iis2dlpc_reg.c **** /**
1044:Drivers/BSP/Components/iis2dlpc/iis2dlpc_reg.c ****   * @brief  Data-ready pulsed / letched mode.[set]
1045:Drivers/BSP/Components/iis2dlpc/iis2dlpc_reg.c ****   *
1046:Drivers/BSP/Components/iis2dlpc/iis2dlpc_reg.c ****   * @param  ctx      read / write interface definitions
1047:Drivers/BSP/Components/iis2dlpc/iis2dlpc_reg.c ****   * @param  val      change the values of drdy_pulsed in reg CTRL_REG7
1048:Drivers/BSP/Components/iis2dlpc/iis2dlpc_reg.c ****   * @retval          interface status (MANDATORY: return 0 -> no Error)
1049:Drivers/BSP/Components/iis2dlpc/iis2dlpc_reg.c ****   *
1050:Drivers/BSP/Components/iis2dlpc/iis2dlpc_reg.c ****   */
1051:Drivers/BSP/Components/iis2dlpc/iis2dlpc_reg.c **** int32_t iis2dlpc_data_ready_mode_set(const stmdev_ctx_t *ctx,
1052:Drivers/BSP/Components/iis2dlpc/iis2dlpc_reg.c ****                                      iis2dlpc_drdy_pulsed_t val)
1053:Drivers/BSP/Components/iis2dlpc/iis2dlpc_reg.c **** {
 2536              		.loc 1 1053 1 view -0
 2537              		.cfi_startproc
 2538              		@ args = 0, pretend = 0, frame = 8
 2539              		@ frame_needed = 0, uses_anonymous_args = 0
 2540              		.loc 1 1053 1 is_stmt 0 view .LVU662
 2541 0000 30B5     		push	{r4, r5, lr}
 2542              		.cfi_def_cfa_offset 12
 2543              		.cfi_offset 4, -12
 2544              		.cfi_offset 5, -8
 2545              		.cfi_offset 14, -4
 2546 0002 83B0     		sub	sp, sp, #12
 2547              		.cfi_def_cfa_offset 24
 2548 0004 0446     		mov	r4, r0
 2549 0006 0D46     		mov	r5, r1
1054:Drivers/BSP/Components/iis2dlpc/iis2dlpc_reg.c ****   iis2dlpc_ctrl7_t reg;
ARM GAS  C:\Temp\ccGZlXNO.s 			page 67


 2550              		.loc 1 1054 3 is_stmt 1 view .LVU663
1055:Drivers/BSP/Components/iis2dlpc/iis2dlpc_reg.c ****   int32_t ret;
 2551              		.loc 1 1055 3 view .LVU664
1056:Drivers/BSP/Components/iis2dlpc/iis2dlpc_reg.c **** 
1057:Drivers/BSP/Components/iis2dlpc/iis2dlpc_reg.c ****   ret = iis2dlpc_read_reg(ctx, IIS2DLPC_CTRL7, (uint8_t *) &reg, 1);
 2552              		.loc 1 1057 3 view .LVU665
 2553              		.loc 1 1057 9 is_stmt 0 view .LVU666
 2554 0008 0123     		movs	r3, #1
 2555 000a 01AA     		add	r2, sp, #4
 2556 000c 3F21     		movs	r1, #63
 2557              	.LVL169:
 2558              		.loc 1 1057 9 view .LVU667
 2559 000e FFF7FEFF 		bl	iis2dlpc_read_reg
 2560              	.LVL170:
1058:Drivers/BSP/Components/iis2dlpc/iis2dlpc_reg.c **** 
1059:Drivers/BSP/Components/iis2dlpc/iis2dlpc_reg.c ****   if (ret == 0)
 2561              		.loc 1 1059 3 is_stmt 1 view .LVU668
 2562              		.loc 1 1059 6 is_stmt 0 view .LVU669
 2563 0012 08B1     		cbz	r0, .L182
 2564              	.LVL171:
 2565              	.L179:
1060:Drivers/BSP/Components/iis2dlpc/iis2dlpc_reg.c ****   {
1061:Drivers/BSP/Components/iis2dlpc/iis2dlpc_reg.c ****     reg.drdy_pulsed = (uint8_t) val;
1062:Drivers/BSP/Components/iis2dlpc/iis2dlpc_reg.c ****     ret = iis2dlpc_write_reg(ctx, IIS2DLPC_CTRL7, (uint8_t *) &reg, 1);
1063:Drivers/BSP/Components/iis2dlpc/iis2dlpc_reg.c ****   }
1064:Drivers/BSP/Components/iis2dlpc/iis2dlpc_reg.c **** 
1065:Drivers/BSP/Components/iis2dlpc/iis2dlpc_reg.c ****   return ret;
1066:Drivers/BSP/Components/iis2dlpc/iis2dlpc_reg.c **** }
 2566              		.loc 1 1066 1 view .LVU670
 2567 0014 03B0     		add	sp, sp, #12
 2568              		.cfi_remember_state
 2569              		.cfi_def_cfa_offset 12
 2570              		@ sp needed
 2571 0016 30BD     		pop	{r4, r5, pc}
 2572              	.LVL172:
 2573              	.L182:
 2574              		.cfi_restore_state
1061:Drivers/BSP/Components/iis2dlpc/iis2dlpc_reg.c ****     ret = iis2dlpc_write_reg(ctx, IIS2DLPC_CTRL7, (uint8_t *) &reg, 1);
 2575              		.loc 1 1061 5 is_stmt 1 view .LVU671
1061:Drivers/BSP/Components/iis2dlpc/iis2dlpc_reg.c ****     ret = iis2dlpc_write_reg(ctx, IIS2DLPC_CTRL7, (uint8_t *) &reg, 1);
 2576              		.loc 1 1061 21 is_stmt 0 view .LVU672
 2577 0018 9DF80430 		ldrb	r3, [sp, #4]	@ zero_extendqisi2
 2578 001c 65F3C713 		bfi	r3, r5, #7, #1
 2579 0020 8DF80430 		strb	r3, [sp, #4]
1062:Drivers/BSP/Components/iis2dlpc/iis2dlpc_reg.c ****   }
 2580              		.loc 1 1062 5 is_stmt 1 view .LVU673
1062:Drivers/BSP/Components/iis2dlpc/iis2dlpc_reg.c ****   }
 2581              		.loc 1 1062 11 is_stmt 0 view .LVU674
 2582 0024 0123     		movs	r3, #1
 2583              	.LVL173:
1062:Drivers/BSP/Components/iis2dlpc/iis2dlpc_reg.c ****   }
 2584              		.loc 1 1062 11 view .LVU675
 2585 0026 01AA     		add	r2, sp, #4
 2586 0028 3F21     		movs	r1, #63
 2587 002a 2046     		mov	r0, r4
 2588 002c FFF7FEFF 		bl	iis2dlpc_write_reg
 2589              	.LVL174:
ARM GAS  C:\Temp\ccGZlXNO.s 			page 68


1065:Drivers/BSP/Components/iis2dlpc/iis2dlpc_reg.c **** }
 2590              		.loc 1 1065 3 is_stmt 1 view .LVU676
1065:Drivers/BSP/Components/iis2dlpc/iis2dlpc_reg.c **** }
 2591              		.loc 1 1065 10 is_stmt 0 view .LVU677
 2592 0030 F0E7     		b	.L179
 2593              		.cfi_endproc
 2594              	.LFE41:
 2596              		.section	.text.iis2dlpc_data_ready_mode_get,"ax",%progbits
 2597              		.align	1
 2598              		.global	iis2dlpc_data_ready_mode_get
 2599              		.syntax unified
 2600              		.thumb
 2601              		.thumb_func
 2603              	iis2dlpc_data_ready_mode_get:
 2604              	.LVL175:
 2605              	.LFB42:
1067:Drivers/BSP/Components/iis2dlpc/iis2dlpc_reg.c **** 
1068:Drivers/BSP/Components/iis2dlpc/iis2dlpc_reg.c **** /**
1069:Drivers/BSP/Components/iis2dlpc/iis2dlpc_reg.c ****   * @brief  Data-ready pulsed / letched mode.[get]
1070:Drivers/BSP/Components/iis2dlpc/iis2dlpc_reg.c ****   *
1071:Drivers/BSP/Components/iis2dlpc/iis2dlpc_reg.c ****   * @param  ctx      read / write interface definitions
1072:Drivers/BSP/Components/iis2dlpc/iis2dlpc_reg.c ****   * @param  val      Get the values of drdy_pulsed in reg CTRL_REG7
1073:Drivers/BSP/Components/iis2dlpc/iis2dlpc_reg.c ****   * @retval          interface status (MANDATORY: return 0 -> no Error)
1074:Drivers/BSP/Components/iis2dlpc/iis2dlpc_reg.c ****   *
1075:Drivers/BSP/Components/iis2dlpc/iis2dlpc_reg.c ****   */
1076:Drivers/BSP/Components/iis2dlpc/iis2dlpc_reg.c **** int32_t iis2dlpc_data_ready_mode_get(const stmdev_ctx_t *ctx,
1077:Drivers/BSP/Components/iis2dlpc/iis2dlpc_reg.c ****                                      iis2dlpc_drdy_pulsed_t *val)
1078:Drivers/BSP/Components/iis2dlpc/iis2dlpc_reg.c **** {
 2606              		.loc 1 1078 1 is_stmt 1 view -0
 2607              		.cfi_startproc
 2608              		@ args = 0, pretend = 0, frame = 8
 2609              		@ frame_needed = 0, uses_anonymous_args = 0
 2610              		.loc 1 1078 1 is_stmt 0 view .LVU679
 2611 0000 10B5     		push	{r4, lr}
 2612              		.cfi_def_cfa_offset 8
 2613              		.cfi_offset 4, -8
 2614              		.cfi_offset 14, -4
 2615 0002 82B0     		sub	sp, sp, #8
 2616              		.cfi_def_cfa_offset 16
 2617 0004 0C46     		mov	r4, r1
1079:Drivers/BSP/Components/iis2dlpc/iis2dlpc_reg.c ****   iis2dlpc_ctrl7_t reg;
 2618              		.loc 1 1079 3 is_stmt 1 view .LVU680
1080:Drivers/BSP/Components/iis2dlpc/iis2dlpc_reg.c ****   int32_t ret;
 2619              		.loc 1 1080 3 view .LVU681
1081:Drivers/BSP/Components/iis2dlpc/iis2dlpc_reg.c **** 
1082:Drivers/BSP/Components/iis2dlpc/iis2dlpc_reg.c ****   ret = iis2dlpc_read_reg(ctx, IIS2DLPC_CTRL7, (uint8_t *) &reg, 1);
 2620              		.loc 1 1082 3 view .LVU682
 2621              		.loc 1 1082 9 is_stmt 0 view .LVU683
 2622 0006 0123     		movs	r3, #1
 2623 0008 01AA     		add	r2, sp, #4
 2624 000a 3F21     		movs	r1, #63
 2625              	.LVL176:
 2626              		.loc 1 1082 9 view .LVU684
 2627 000c FFF7FEFF 		bl	iis2dlpc_read_reg
 2628              	.LVL177:
1083:Drivers/BSP/Components/iis2dlpc/iis2dlpc_reg.c **** 
1084:Drivers/BSP/Components/iis2dlpc/iis2dlpc_reg.c ****   switch (reg.drdy_pulsed)
ARM GAS  C:\Temp\ccGZlXNO.s 			page 69


 2629              		.loc 1 1084 3 is_stmt 1 view .LVU685
 2630              		.loc 1 1084 14 is_stmt 0 view .LVU686
 2631 0010 9DF80430 		ldrb	r3, [sp, #4]	@ zero_extendqisi2
 2632              		.loc 1 1084 3 view .LVU687
 2633 0014 DB09     		lsrs	r3, r3, #7
 2634 0016 03D0     		beq	.L184
 2635 0018 33B9     		cbnz	r3, .L185
1085:Drivers/BSP/Components/iis2dlpc/iis2dlpc_reg.c ****   {
1086:Drivers/BSP/Components/iis2dlpc/iis2dlpc_reg.c ****     case IIS2DLPC_DRDY_LATCHED:
1087:Drivers/BSP/Components/iis2dlpc/iis2dlpc_reg.c ****       *val = IIS2DLPC_DRDY_LATCHED;
1088:Drivers/BSP/Components/iis2dlpc/iis2dlpc_reg.c ****       break;
1089:Drivers/BSP/Components/iis2dlpc/iis2dlpc_reg.c **** 
1090:Drivers/BSP/Components/iis2dlpc/iis2dlpc_reg.c ****     case IIS2DLPC_DRDY_PULSED:
1091:Drivers/BSP/Components/iis2dlpc/iis2dlpc_reg.c ****       *val = IIS2DLPC_DRDY_PULSED;
1092:Drivers/BSP/Components/iis2dlpc/iis2dlpc_reg.c ****       break;
1093:Drivers/BSP/Components/iis2dlpc/iis2dlpc_reg.c **** 
1094:Drivers/BSP/Components/iis2dlpc/iis2dlpc_reg.c ****     default:
1095:Drivers/BSP/Components/iis2dlpc/iis2dlpc_reg.c ****       *val = IIS2DLPC_DRDY_LATCHED;
 2636              		.loc 1 1095 7 is_stmt 1 view .LVU688
 2637              		.loc 1 1095 12 is_stmt 0 view .LVU689
 2638 001a 0023     		movs	r3, #0
 2639 001c 2370     		strb	r3, [r4]
1096:Drivers/BSP/Components/iis2dlpc/iis2dlpc_reg.c ****       break;
 2640              		.loc 1 1096 7 is_stmt 1 view .LVU690
1097:Drivers/BSP/Components/iis2dlpc/iis2dlpc_reg.c ****   }
1098:Drivers/BSP/Components/iis2dlpc/iis2dlpc_reg.c **** 
1099:Drivers/BSP/Components/iis2dlpc/iis2dlpc_reg.c ****   return ret;
 2641              		.loc 1 1099 3 view .LVU691
 2642              		.loc 1 1099 10 is_stmt 0 view .LVU692
 2643 001e 01E0     		b	.L183
 2644              	.L184:
1087:Drivers/BSP/Components/iis2dlpc/iis2dlpc_reg.c ****       break;
 2645              		.loc 1 1087 7 is_stmt 1 view .LVU693
1087:Drivers/BSP/Components/iis2dlpc/iis2dlpc_reg.c ****       break;
 2646              		.loc 1 1087 12 is_stmt 0 view .LVU694
 2647 0020 0023     		movs	r3, #0
 2648 0022 2370     		strb	r3, [r4]
1088:Drivers/BSP/Components/iis2dlpc/iis2dlpc_reg.c **** 
 2649              		.loc 1 1088 7 is_stmt 1 view .LVU695
 2650              	.L183:
1100:Drivers/BSP/Components/iis2dlpc/iis2dlpc_reg.c **** }
 2651              		.loc 1 1100 1 is_stmt 0 view .LVU696
 2652 0024 02B0     		add	sp, sp, #8
 2653              		.cfi_remember_state
 2654              		.cfi_def_cfa_offset 8
 2655              		@ sp needed
 2656 0026 10BD     		pop	{r4, pc}
 2657              	.LVL178:
 2658              	.L185:
 2659              		.cfi_restore_state
1091:Drivers/BSP/Components/iis2dlpc/iis2dlpc_reg.c ****       break;
 2660              		.loc 1 1091 7 is_stmt 1 view .LVU697
1091:Drivers/BSP/Components/iis2dlpc/iis2dlpc_reg.c ****       break;
 2661              		.loc 1 1091 12 is_stmt 0 view .LVU698
 2662 0028 0123     		movs	r3, #1
 2663 002a 2370     		strb	r3, [r4]
1092:Drivers/BSP/Components/iis2dlpc/iis2dlpc_reg.c **** 
ARM GAS  C:\Temp\ccGZlXNO.s 			page 70


 2664              		.loc 1 1092 7 is_stmt 1 view .LVU699
 2665 002c FAE7     		b	.L183
 2666              		.cfi_endproc
 2667              	.LFE42:
 2669              		.section	.text.iis2dlpc_filter_path_set,"ax",%progbits
 2670              		.align	1
 2671              		.global	iis2dlpc_filter_path_set
 2672              		.syntax unified
 2673              		.thumb
 2674              		.thumb_func
 2676              	iis2dlpc_filter_path_set:
 2677              	.LVL179:
 2678              	.LFB43:
1101:Drivers/BSP/Components/iis2dlpc/iis2dlpc_reg.c **** 
1102:Drivers/BSP/Components/iis2dlpc/iis2dlpc_reg.c **** /**
1103:Drivers/BSP/Components/iis2dlpc/iis2dlpc_reg.c ****   * @}
1104:Drivers/BSP/Components/iis2dlpc/iis2dlpc_reg.c ****   *
1105:Drivers/BSP/Components/iis2dlpc/iis2dlpc_reg.c ****   */
1106:Drivers/BSP/Components/iis2dlpc/iis2dlpc_reg.c **** 
1107:Drivers/BSP/Components/iis2dlpc/iis2dlpc_reg.c **** /**
1108:Drivers/BSP/Components/iis2dlpc/iis2dlpc_reg.c ****   * @defgroup  IIS2DLPC_Filters
1109:Drivers/BSP/Components/iis2dlpc/iis2dlpc_reg.c ****   * @brief     This section group all the functions concerning the filters
1110:Drivers/BSP/Components/iis2dlpc/iis2dlpc_reg.c ****   *            configuration.
1111:Drivers/BSP/Components/iis2dlpc/iis2dlpc_reg.c ****   * @{
1112:Drivers/BSP/Components/iis2dlpc/iis2dlpc_reg.c ****   *
1113:Drivers/BSP/Components/iis2dlpc/iis2dlpc_reg.c ****   */
1114:Drivers/BSP/Components/iis2dlpc/iis2dlpc_reg.c **** 
1115:Drivers/BSP/Components/iis2dlpc/iis2dlpc_reg.c **** /**
1116:Drivers/BSP/Components/iis2dlpc/iis2dlpc_reg.c ****   * @brief  Accelerometer filtering path for outputs.[set]
1117:Drivers/BSP/Components/iis2dlpc/iis2dlpc_reg.c ****   *
1118:Drivers/BSP/Components/iis2dlpc/iis2dlpc_reg.c ****   * @param  ctx      read / write interface definitions
1119:Drivers/BSP/Components/iis2dlpc/iis2dlpc_reg.c ****   * @param  val      change the values of fds in reg CTRL6
1120:Drivers/BSP/Components/iis2dlpc/iis2dlpc_reg.c ****   * @retval          interface status (MANDATORY: return 0 -> no Error)
1121:Drivers/BSP/Components/iis2dlpc/iis2dlpc_reg.c ****   *
1122:Drivers/BSP/Components/iis2dlpc/iis2dlpc_reg.c ****   */
1123:Drivers/BSP/Components/iis2dlpc/iis2dlpc_reg.c **** int32_t iis2dlpc_filter_path_set(const stmdev_ctx_t *ctx,
1124:Drivers/BSP/Components/iis2dlpc/iis2dlpc_reg.c ****                                  iis2dlpc_fds_t val)
1125:Drivers/BSP/Components/iis2dlpc/iis2dlpc_reg.c **** {
 2679              		.loc 1 1125 1 view -0
 2680              		.cfi_startproc
 2681              		@ args = 0, pretend = 0, frame = 8
 2682              		@ frame_needed = 0, uses_anonymous_args = 0
 2683              		.loc 1 1125 1 is_stmt 0 view .LVU701
 2684 0000 30B5     		push	{r4, r5, lr}
 2685              		.cfi_def_cfa_offset 12
 2686              		.cfi_offset 4, -12
 2687              		.cfi_offset 5, -8
 2688              		.cfi_offset 14, -4
 2689 0002 83B0     		sub	sp, sp, #12
 2690              		.cfi_def_cfa_offset 24
 2691 0004 0546     		mov	r5, r0
 2692 0006 0C46     		mov	r4, r1
1126:Drivers/BSP/Components/iis2dlpc/iis2dlpc_reg.c ****   iis2dlpc_ctrl6_t ctrl6;
 2693              		.loc 1 1126 3 is_stmt 1 view .LVU702
1127:Drivers/BSP/Components/iis2dlpc/iis2dlpc_reg.c ****   iis2dlpc_ctrl7_t ctrl_reg7;
 2694              		.loc 1 1127 3 view .LVU703
1128:Drivers/BSP/Components/iis2dlpc/iis2dlpc_reg.c ****   int32_t ret;
ARM GAS  C:\Temp\ccGZlXNO.s 			page 71


 2695              		.loc 1 1128 3 view .LVU704
1129:Drivers/BSP/Components/iis2dlpc/iis2dlpc_reg.c **** 
1130:Drivers/BSP/Components/iis2dlpc/iis2dlpc_reg.c ****   ret = iis2dlpc_read_reg(ctx, IIS2DLPC_CTRL6, (uint8_t *) &ctrl6, 1);
 2696              		.loc 1 1130 3 view .LVU705
 2697              		.loc 1 1130 9 is_stmt 0 view .LVU706
 2698 0008 0123     		movs	r3, #1
 2699 000a 01AA     		add	r2, sp, #4
 2700 000c 2521     		movs	r1, #37
 2701              	.LVL180:
 2702              		.loc 1 1130 9 view .LVU707
 2703 000e FFF7FEFF 		bl	iis2dlpc_read_reg
 2704              	.LVL181:
1131:Drivers/BSP/Components/iis2dlpc/iis2dlpc_reg.c **** 
1132:Drivers/BSP/Components/iis2dlpc/iis2dlpc_reg.c ****   if (ret == 0)
 2705              		.loc 1 1132 3 is_stmt 1 view .LVU708
 2706              		.loc 1 1132 6 is_stmt 0 view .LVU709
 2707 0012 0346     		mov	r3, r0
 2708 0014 18B1     		cbz	r0, .L194
 2709              	.L191:
1133:Drivers/BSP/Components/iis2dlpc/iis2dlpc_reg.c ****   {
1134:Drivers/BSP/Components/iis2dlpc/iis2dlpc_reg.c ****     ctrl6.fds = ((uint8_t) val & 0x10U) >> 4;
1135:Drivers/BSP/Components/iis2dlpc/iis2dlpc_reg.c ****     ret = iis2dlpc_write_reg(ctx, IIS2DLPC_CTRL6, (uint8_t *) &ctrl6, 1);
1136:Drivers/BSP/Components/iis2dlpc/iis2dlpc_reg.c ****   }
1137:Drivers/BSP/Components/iis2dlpc/iis2dlpc_reg.c **** 
1138:Drivers/BSP/Components/iis2dlpc/iis2dlpc_reg.c ****   if (ret == 0)
1139:Drivers/BSP/Components/iis2dlpc/iis2dlpc_reg.c ****   {
1140:Drivers/BSP/Components/iis2dlpc/iis2dlpc_reg.c ****     ret = iis2dlpc_read_reg(ctx, IIS2DLPC_CTRL7, (uint8_t *) &ctrl_reg7, 1);
1141:Drivers/BSP/Components/iis2dlpc/iis2dlpc_reg.c ****   }
1142:Drivers/BSP/Components/iis2dlpc/iis2dlpc_reg.c **** 
1143:Drivers/BSP/Components/iis2dlpc/iis2dlpc_reg.c ****   if (ret == 0)
 2710              		.loc 1 1143 3 is_stmt 1 view .LVU710
 2711              		.loc 1 1143 6 is_stmt 0 view .LVU711
 2712 0016 DBB1     		cbz	r3, .L195
 2713              	.L190:
1144:Drivers/BSP/Components/iis2dlpc/iis2dlpc_reg.c ****   {
1145:Drivers/BSP/Components/iis2dlpc/iis2dlpc_reg.c ****     ctrl_reg7.usr_off_on_out = (uint8_t) val & 0x01U;
1146:Drivers/BSP/Components/iis2dlpc/iis2dlpc_reg.c ****     ret = iis2dlpc_write_reg(ctx, IIS2DLPC_CTRL7, (uint8_t *) &ctrl_reg7, 1);
1147:Drivers/BSP/Components/iis2dlpc/iis2dlpc_reg.c ****   }
1148:Drivers/BSP/Components/iis2dlpc/iis2dlpc_reg.c **** 
1149:Drivers/BSP/Components/iis2dlpc/iis2dlpc_reg.c ****   else
1150:Drivers/BSP/Components/iis2dlpc/iis2dlpc_reg.c ****   {
1151:Drivers/BSP/Components/iis2dlpc/iis2dlpc_reg.c ****     ret = ret;
1152:Drivers/BSP/Components/iis2dlpc/iis2dlpc_reg.c ****   }
1153:Drivers/BSP/Components/iis2dlpc/iis2dlpc_reg.c **** 
1154:Drivers/BSP/Components/iis2dlpc/iis2dlpc_reg.c ****   return ret;
1155:Drivers/BSP/Components/iis2dlpc/iis2dlpc_reg.c **** }
 2714              		.loc 1 1155 1 view .LVU712
 2715 0018 1846     		mov	r0, r3
 2716              	.LVL182:
 2717              		.loc 1 1155 1 view .LVU713
 2718 001a 03B0     		add	sp, sp, #12
 2719              		.cfi_remember_state
 2720              		.cfi_def_cfa_offset 12
 2721              		@ sp needed
 2722 001c 30BD     		pop	{r4, r5, pc}
 2723              	.LVL183:
 2724              	.L194:
ARM GAS  C:\Temp\ccGZlXNO.s 			page 72


 2725              		.cfi_restore_state
1134:Drivers/BSP/Components/iis2dlpc/iis2dlpc_reg.c ****     ret = iis2dlpc_write_reg(ctx, IIS2DLPC_CTRL6, (uint8_t *) &ctrl6, 1);
 2726              		.loc 1 1134 5 is_stmt 1 view .LVU714
1134:Drivers/BSP/Components/iis2dlpc/iis2dlpc_reg.c ****     ret = iis2dlpc_write_reg(ctx, IIS2DLPC_CTRL6, (uint8_t *) &ctrl6, 1);
 2727              		.loc 1 1134 41 is_stmt 0 view .LVU715
 2728 001e C4F30013 		ubfx	r3, r4, #4, #1
1134:Drivers/BSP/Components/iis2dlpc/iis2dlpc_reg.c ****     ret = iis2dlpc_write_reg(ctx, IIS2DLPC_CTRL6, (uint8_t *) &ctrl6, 1);
 2729              		.loc 1 1134 15 view .LVU716
 2730 0022 9DF80420 		ldrb	r2, [sp, #4]	@ zero_extendqisi2
 2731 0026 63F3C302 		bfi	r2, r3, #3, #1
 2732 002a 8DF80420 		strb	r2, [sp, #4]
1135:Drivers/BSP/Components/iis2dlpc/iis2dlpc_reg.c ****   }
 2733              		.loc 1 1135 5 is_stmt 1 view .LVU717
1135:Drivers/BSP/Components/iis2dlpc/iis2dlpc_reg.c ****   }
 2734              		.loc 1 1135 11 is_stmt 0 view .LVU718
 2735 002e 0123     		movs	r3, #1
 2736 0030 01AA     		add	r2, sp, #4
 2737 0032 2521     		movs	r1, #37
 2738 0034 2846     		mov	r0, r5
 2739              	.LVL184:
1135:Drivers/BSP/Components/iis2dlpc/iis2dlpc_reg.c ****   }
 2740              		.loc 1 1135 11 view .LVU719
 2741 0036 FFF7FEFF 		bl	iis2dlpc_write_reg
 2742              	.LVL185:
1138:Drivers/BSP/Components/iis2dlpc/iis2dlpc_reg.c ****   {
 2743              		.loc 1 1138 3 is_stmt 1 view .LVU720
1138:Drivers/BSP/Components/iis2dlpc/iis2dlpc_reg.c ****   {
 2744              		.loc 1 1138 6 is_stmt 0 view .LVU721
 2745 003a 0346     		mov	r3, r0
 2746 003c 0028     		cmp	r0, #0
 2747 003e EBD1     		bne	.L190
1140:Drivers/BSP/Components/iis2dlpc/iis2dlpc_reg.c ****   }
 2748              		.loc 1 1140 5 is_stmt 1 view .LVU722
1140:Drivers/BSP/Components/iis2dlpc/iis2dlpc_reg.c ****   }
 2749              		.loc 1 1140 11 is_stmt 0 view .LVU723
 2750 0040 0123     		movs	r3, #1
 2751 0042 6A46     		mov	r2, sp
 2752 0044 3F21     		movs	r1, #63
 2753 0046 2846     		mov	r0, r5
 2754              	.LVL186:
1140:Drivers/BSP/Components/iis2dlpc/iis2dlpc_reg.c ****   }
 2755              		.loc 1 1140 11 view .LVU724
 2756 0048 FFF7FEFF 		bl	iis2dlpc_read_reg
 2757              	.LVL187:
 2758 004c 0346     		mov	r3, r0
 2759              	.LVL188:
1140:Drivers/BSP/Components/iis2dlpc/iis2dlpc_reg.c ****   }
 2760              		.loc 1 1140 11 view .LVU725
 2761 004e E2E7     		b	.L191
 2762              	.L195:
1145:Drivers/BSP/Components/iis2dlpc/iis2dlpc_reg.c ****     ret = iis2dlpc_write_reg(ctx, IIS2DLPC_CTRL7, (uint8_t *) &ctrl_reg7, 1);
 2763              		.loc 1 1145 5 is_stmt 1 view .LVU726
1145:Drivers/BSP/Components/iis2dlpc/iis2dlpc_reg.c ****     ret = iis2dlpc_write_reg(ctx, IIS2DLPC_CTRL7, (uint8_t *) &ctrl_reg7, 1);
 2764              		.loc 1 1145 30 is_stmt 0 view .LVU727
 2765 0050 9DF80030 		ldrb	r3, [sp]	@ zero_extendqisi2
 2766 0054 64F30413 		bfi	r3, r4, #4, #1
 2767 0058 8DF80030 		strb	r3, [sp]
ARM GAS  C:\Temp\ccGZlXNO.s 			page 73


1146:Drivers/BSP/Components/iis2dlpc/iis2dlpc_reg.c ****   }
 2768              		.loc 1 1146 5 is_stmt 1 view .LVU728
1146:Drivers/BSP/Components/iis2dlpc/iis2dlpc_reg.c ****   }
 2769              		.loc 1 1146 11 is_stmt 0 view .LVU729
 2770 005c 0123     		movs	r3, #1
 2771 005e 6A46     		mov	r2, sp
 2772 0060 3F21     		movs	r1, #63
 2773 0062 2846     		mov	r0, r5
 2774              	.LVL189:
1146:Drivers/BSP/Components/iis2dlpc/iis2dlpc_reg.c ****   }
 2775              		.loc 1 1146 11 view .LVU730
 2776 0064 FFF7FEFF 		bl	iis2dlpc_write_reg
 2777              	.LVL190:
 2778 0068 0346     		mov	r3, r0
 2779              	.LVL191:
1154:Drivers/BSP/Components/iis2dlpc/iis2dlpc_reg.c **** }
 2780              		.loc 1 1154 3 is_stmt 1 view .LVU731
1154:Drivers/BSP/Components/iis2dlpc/iis2dlpc_reg.c **** }
 2781              		.loc 1 1154 10 is_stmt 0 view .LVU732
 2782 006a D5E7     		b	.L190
 2783              		.cfi_endproc
 2784              	.LFE43:
 2786              		.section	.text.iis2dlpc_filter_path_get,"ax",%progbits
 2787              		.align	1
 2788              		.global	iis2dlpc_filter_path_get
 2789              		.syntax unified
 2790              		.thumb
 2791              		.thumb_func
 2793              	iis2dlpc_filter_path_get:
 2794              	.LVL192:
 2795              	.LFB44:
1156:Drivers/BSP/Components/iis2dlpc/iis2dlpc_reg.c **** 
1157:Drivers/BSP/Components/iis2dlpc/iis2dlpc_reg.c **** /**
1158:Drivers/BSP/Components/iis2dlpc/iis2dlpc_reg.c ****   * @brief  Accelerometer filtering path for outputs.[get]
1159:Drivers/BSP/Components/iis2dlpc/iis2dlpc_reg.c ****   *
1160:Drivers/BSP/Components/iis2dlpc/iis2dlpc_reg.c ****   * @param  ctx      read / write interface definitions
1161:Drivers/BSP/Components/iis2dlpc/iis2dlpc_reg.c ****   * @param  val      Get the values of fds in reg CTRL6
1162:Drivers/BSP/Components/iis2dlpc/iis2dlpc_reg.c ****   * @retval          interface status (MANDATORY: return 0 -> no Error)
1163:Drivers/BSP/Components/iis2dlpc/iis2dlpc_reg.c ****   *
1164:Drivers/BSP/Components/iis2dlpc/iis2dlpc_reg.c ****   */
1165:Drivers/BSP/Components/iis2dlpc/iis2dlpc_reg.c **** int32_t iis2dlpc_filter_path_get(const stmdev_ctx_t *ctx,
1166:Drivers/BSP/Components/iis2dlpc/iis2dlpc_reg.c ****                                  iis2dlpc_fds_t *val)
1167:Drivers/BSP/Components/iis2dlpc/iis2dlpc_reg.c **** {
 2796              		.loc 1 1167 1 is_stmt 1 view -0
 2797              		.cfi_startproc
 2798              		@ args = 0, pretend = 0, frame = 8
 2799              		@ frame_needed = 0, uses_anonymous_args = 0
 2800              		.loc 1 1167 1 is_stmt 0 view .LVU734
 2801 0000 30B5     		push	{r4, r5, lr}
 2802              		.cfi_def_cfa_offset 12
 2803              		.cfi_offset 4, -12
 2804              		.cfi_offset 5, -8
 2805              		.cfi_offset 14, -4
 2806 0002 83B0     		sub	sp, sp, #12
 2807              		.cfi_def_cfa_offset 24
 2808 0004 0446     		mov	r4, r0
 2809 0006 0D46     		mov	r5, r1
ARM GAS  C:\Temp\ccGZlXNO.s 			page 74


1168:Drivers/BSP/Components/iis2dlpc/iis2dlpc_reg.c ****   iis2dlpc_ctrl6_t ctrl6;
 2810              		.loc 1 1168 3 is_stmt 1 view .LVU735
1169:Drivers/BSP/Components/iis2dlpc/iis2dlpc_reg.c ****   iis2dlpc_ctrl7_t ctrl_reg7;
 2811              		.loc 1 1169 3 view .LVU736
1170:Drivers/BSP/Components/iis2dlpc/iis2dlpc_reg.c ****   int32_t ret;
 2812              		.loc 1 1170 3 view .LVU737
1171:Drivers/BSP/Components/iis2dlpc/iis2dlpc_reg.c **** 
1172:Drivers/BSP/Components/iis2dlpc/iis2dlpc_reg.c ****   ret = iis2dlpc_read_reg(ctx, IIS2DLPC_CTRL6, (uint8_t *) &ctrl6, 1);
 2813              		.loc 1 1172 3 view .LVU738
 2814              		.loc 1 1172 9 is_stmt 0 view .LVU739
 2815 0008 0123     		movs	r3, #1
 2816 000a 01AA     		add	r2, sp, #4
 2817 000c 2521     		movs	r1, #37
 2818              	.LVL193:
 2819              		.loc 1 1172 9 view .LVU740
 2820 000e FFF7FEFF 		bl	iis2dlpc_read_reg
 2821              	.LVL194:
1173:Drivers/BSP/Components/iis2dlpc/iis2dlpc_reg.c **** 
1174:Drivers/BSP/Components/iis2dlpc/iis2dlpc_reg.c ****   if (ret == 0)
 2822              		.loc 1 1174 3 is_stmt 1 view .LVU741
 2823              		.loc 1 1174 6 is_stmt 0 view .LVU742
 2824 0012 08B1     		cbz	r0, .L202
 2825              	.LVL195:
 2826              	.L196:
1175:Drivers/BSP/Components/iis2dlpc/iis2dlpc_reg.c ****   {
1176:Drivers/BSP/Components/iis2dlpc/iis2dlpc_reg.c ****     ret = iis2dlpc_read_reg(ctx, IIS2DLPC_CTRL7, (uint8_t *) &ctrl_reg7, 1);
1177:Drivers/BSP/Components/iis2dlpc/iis2dlpc_reg.c **** 
1178:Drivers/BSP/Components/iis2dlpc/iis2dlpc_reg.c ****     switch ((ctrl6.fds << 4) + ctrl_reg7.usr_off_on_out)
1179:Drivers/BSP/Components/iis2dlpc/iis2dlpc_reg.c ****     {
1180:Drivers/BSP/Components/iis2dlpc/iis2dlpc_reg.c ****       case IIS2DLPC_LPF_ON_OUT:
1181:Drivers/BSP/Components/iis2dlpc/iis2dlpc_reg.c ****         *val = IIS2DLPC_LPF_ON_OUT;
1182:Drivers/BSP/Components/iis2dlpc/iis2dlpc_reg.c ****         break;
1183:Drivers/BSP/Components/iis2dlpc/iis2dlpc_reg.c **** 
1184:Drivers/BSP/Components/iis2dlpc/iis2dlpc_reg.c ****       case IIS2DLPC_USER_OFFSET_ON_OUT:
1185:Drivers/BSP/Components/iis2dlpc/iis2dlpc_reg.c ****         *val = IIS2DLPC_USER_OFFSET_ON_OUT;
1186:Drivers/BSP/Components/iis2dlpc/iis2dlpc_reg.c ****         break;
1187:Drivers/BSP/Components/iis2dlpc/iis2dlpc_reg.c **** 
1188:Drivers/BSP/Components/iis2dlpc/iis2dlpc_reg.c ****       case IIS2DLPC_HIGH_PASS_ON_OUT:
1189:Drivers/BSP/Components/iis2dlpc/iis2dlpc_reg.c ****         *val = IIS2DLPC_HIGH_PASS_ON_OUT;
1190:Drivers/BSP/Components/iis2dlpc/iis2dlpc_reg.c ****         break;
1191:Drivers/BSP/Components/iis2dlpc/iis2dlpc_reg.c **** 
1192:Drivers/BSP/Components/iis2dlpc/iis2dlpc_reg.c ****       default:
1193:Drivers/BSP/Components/iis2dlpc/iis2dlpc_reg.c ****         *val = IIS2DLPC_LPF_ON_OUT;
1194:Drivers/BSP/Components/iis2dlpc/iis2dlpc_reg.c ****         break;
1195:Drivers/BSP/Components/iis2dlpc/iis2dlpc_reg.c ****     }
1196:Drivers/BSP/Components/iis2dlpc/iis2dlpc_reg.c ****   }
1197:Drivers/BSP/Components/iis2dlpc/iis2dlpc_reg.c **** 
1198:Drivers/BSP/Components/iis2dlpc/iis2dlpc_reg.c ****   return ret;
1199:Drivers/BSP/Components/iis2dlpc/iis2dlpc_reg.c **** }
 2827              		.loc 1 1199 1 view .LVU743
 2828 0014 03B0     		add	sp, sp, #12
 2829              		.cfi_remember_state
 2830              		.cfi_def_cfa_offset 12
 2831              		@ sp needed
 2832 0016 30BD     		pop	{r4, r5, pc}
 2833              	.LVL196:
 2834              	.L202:
ARM GAS  C:\Temp\ccGZlXNO.s 			page 75


 2835              		.cfi_restore_state
1176:Drivers/BSP/Components/iis2dlpc/iis2dlpc_reg.c **** 
 2836              		.loc 1 1176 5 is_stmt 1 view .LVU744
1176:Drivers/BSP/Components/iis2dlpc/iis2dlpc_reg.c **** 
 2837              		.loc 1 1176 11 is_stmt 0 view .LVU745
 2838 0018 0123     		movs	r3, #1
 2839              	.LVL197:
1176:Drivers/BSP/Components/iis2dlpc/iis2dlpc_reg.c **** 
 2840              		.loc 1 1176 11 view .LVU746
 2841 001a 6A46     		mov	r2, sp
 2842 001c 3F21     		movs	r1, #63
 2843 001e 2046     		mov	r0, r4
 2844 0020 FFF7FEFF 		bl	iis2dlpc_read_reg
 2845              	.LVL198:
1178:Drivers/BSP/Components/iis2dlpc/iis2dlpc_reg.c ****     {
 2846              		.loc 1 1178 5 is_stmt 1 view .LVU747
1178:Drivers/BSP/Components/iis2dlpc/iis2dlpc_reg.c ****     {
 2847              		.loc 1 1178 19 is_stmt 0 view .LVU748
 2848 0024 9DF80420 		ldrb	r2, [sp, #4]	@ zero_extendqisi2
 2849 0028 C2F3C002 		ubfx	r2, r2, #3, #1
1178:Drivers/BSP/Components/iis2dlpc/iis2dlpc_reg.c ****     {
 2850              		.loc 1 1178 41 view .LVU749
 2851 002c 9DF80030 		ldrb	r3, [sp]	@ zero_extendqisi2
 2852 0030 C3F30013 		ubfx	r3, r3, #4, #1
1178:Drivers/BSP/Components/iis2dlpc/iis2dlpc_reg.c ****     {
 2853              		.loc 1 1178 30 view .LVU750
 2854 0034 03EB0213 		add	r3, r3, r2, lsl #4
1178:Drivers/BSP/Components/iis2dlpc/iis2dlpc_reg.c ****     {
 2855              		.loc 1 1178 5 view .LVU751
 2856 0038 012B     		cmp	r3, #1
 2857 003a 07D0     		beq	.L198
 2858 003c 102B     		cmp	r3, #16
 2859 003e 08D0     		beq	.L199
 2860 0040 13B1     		cbz	r3, .L203
1193:Drivers/BSP/Components/iis2dlpc/iis2dlpc_reg.c ****         break;
 2861              		.loc 1 1193 9 is_stmt 1 view .LVU752
1193:Drivers/BSP/Components/iis2dlpc/iis2dlpc_reg.c ****         break;
 2862              		.loc 1 1193 14 is_stmt 0 view .LVU753
 2863 0042 0023     		movs	r3, #0
 2864 0044 2B70     		strb	r3, [r5]
1194:Drivers/BSP/Components/iis2dlpc/iis2dlpc_reg.c ****     }
 2865              		.loc 1 1194 9 is_stmt 1 view .LVU754
1198:Drivers/BSP/Components/iis2dlpc/iis2dlpc_reg.c **** }
 2866              		.loc 1 1198 3 view .LVU755
1198:Drivers/BSP/Components/iis2dlpc/iis2dlpc_reg.c **** }
 2867              		.loc 1 1198 10 is_stmt 0 view .LVU756
 2868 0046 E5E7     		b	.L196
 2869              	.L203:
1181:Drivers/BSP/Components/iis2dlpc/iis2dlpc_reg.c ****         break;
 2870              		.loc 1 1181 9 is_stmt 1 view .LVU757
1181:Drivers/BSP/Components/iis2dlpc/iis2dlpc_reg.c ****         break;
 2871              		.loc 1 1181 14 is_stmt 0 view .LVU758
 2872 0048 2B70     		strb	r3, [r5]
1182:Drivers/BSP/Components/iis2dlpc/iis2dlpc_reg.c **** 
 2873              		.loc 1 1182 9 is_stmt 1 view .LVU759
 2874 004a E3E7     		b	.L196
 2875              	.L198:
ARM GAS  C:\Temp\ccGZlXNO.s 			page 76


1185:Drivers/BSP/Components/iis2dlpc/iis2dlpc_reg.c ****         break;
 2876              		.loc 1 1185 9 view .LVU760
1185:Drivers/BSP/Components/iis2dlpc/iis2dlpc_reg.c ****         break;
 2877              		.loc 1 1185 14 is_stmt 0 view .LVU761
 2878 004c 0123     		movs	r3, #1
 2879 004e 2B70     		strb	r3, [r5]
1186:Drivers/BSP/Components/iis2dlpc/iis2dlpc_reg.c **** 
 2880              		.loc 1 1186 9 is_stmt 1 view .LVU762
 2881 0050 E0E7     		b	.L196
 2882              	.L199:
1189:Drivers/BSP/Components/iis2dlpc/iis2dlpc_reg.c ****         break;
 2883              		.loc 1 1189 9 view .LVU763
1189:Drivers/BSP/Components/iis2dlpc/iis2dlpc_reg.c ****         break;
 2884              		.loc 1 1189 14 is_stmt 0 view .LVU764
 2885 0052 1023     		movs	r3, #16
 2886 0054 2B70     		strb	r3, [r5]
1190:Drivers/BSP/Components/iis2dlpc/iis2dlpc_reg.c **** 
 2887              		.loc 1 1190 9 is_stmt 1 view .LVU765
 2888 0056 DDE7     		b	.L196
 2889              		.cfi_endproc
 2890              	.LFE44:
 2892              		.section	.text.iis2dlpc_filter_bandwidth_set,"ax",%progbits
 2893              		.align	1
 2894              		.global	iis2dlpc_filter_bandwidth_set
 2895              		.syntax unified
 2896              		.thumb
 2897              		.thumb_func
 2899              	iis2dlpc_filter_bandwidth_set:
 2900              	.LVL199:
 2901              	.LFB45:
1200:Drivers/BSP/Components/iis2dlpc/iis2dlpc_reg.c **** 
1201:Drivers/BSP/Components/iis2dlpc/iis2dlpc_reg.c **** /**
1202:Drivers/BSP/Components/iis2dlpc/iis2dlpc_reg.c ****   * @brief   Accelerometer cutoff filter frequency. Valid for low and high
1203:Drivers/BSP/Components/iis2dlpc/iis2dlpc_reg.c ****   *          pass filter.[set]
1204:Drivers/BSP/Components/iis2dlpc/iis2dlpc_reg.c ****   *
1205:Drivers/BSP/Components/iis2dlpc/iis2dlpc_reg.c ****   * @param  ctx      read / write interface definitions
1206:Drivers/BSP/Components/iis2dlpc/iis2dlpc_reg.c ****   * @param  val      change the values of bw_filt in reg CTRL6
1207:Drivers/BSP/Components/iis2dlpc/iis2dlpc_reg.c ****   * @retval          interface status (MANDATORY: return 0 -> no Error)
1208:Drivers/BSP/Components/iis2dlpc/iis2dlpc_reg.c ****   *
1209:Drivers/BSP/Components/iis2dlpc/iis2dlpc_reg.c ****   */
1210:Drivers/BSP/Components/iis2dlpc/iis2dlpc_reg.c **** int32_t iis2dlpc_filter_bandwidth_set(const stmdev_ctx_t *ctx,
1211:Drivers/BSP/Components/iis2dlpc/iis2dlpc_reg.c ****                                       iis2dlpc_bw_filt_t val)
1212:Drivers/BSP/Components/iis2dlpc/iis2dlpc_reg.c **** {
 2902              		.loc 1 1212 1 view -0
 2903              		.cfi_startproc
 2904              		@ args = 0, pretend = 0, frame = 8
 2905              		@ frame_needed = 0, uses_anonymous_args = 0
 2906              		.loc 1 1212 1 is_stmt 0 view .LVU767
 2907 0000 30B5     		push	{r4, r5, lr}
 2908              		.cfi_def_cfa_offset 12
 2909              		.cfi_offset 4, -12
 2910              		.cfi_offset 5, -8
 2911              		.cfi_offset 14, -4
 2912 0002 83B0     		sub	sp, sp, #12
 2913              		.cfi_def_cfa_offset 24
 2914 0004 0446     		mov	r4, r0
 2915 0006 0D46     		mov	r5, r1
ARM GAS  C:\Temp\ccGZlXNO.s 			page 77


1213:Drivers/BSP/Components/iis2dlpc/iis2dlpc_reg.c ****   iis2dlpc_ctrl6_t reg;
 2916              		.loc 1 1213 3 is_stmt 1 view .LVU768
1214:Drivers/BSP/Components/iis2dlpc/iis2dlpc_reg.c ****   int32_t ret;
 2917              		.loc 1 1214 3 view .LVU769
1215:Drivers/BSP/Components/iis2dlpc/iis2dlpc_reg.c **** 
1216:Drivers/BSP/Components/iis2dlpc/iis2dlpc_reg.c ****   ret = iis2dlpc_read_reg(ctx, IIS2DLPC_CTRL6, (uint8_t *) &reg, 1);
 2918              		.loc 1 1216 3 view .LVU770
 2919              		.loc 1 1216 9 is_stmt 0 view .LVU771
 2920 0008 0123     		movs	r3, #1
 2921 000a 01AA     		add	r2, sp, #4
 2922 000c 2521     		movs	r1, #37
 2923              	.LVL200:
 2924              		.loc 1 1216 9 view .LVU772
 2925 000e FFF7FEFF 		bl	iis2dlpc_read_reg
 2926              	.LVL201:
1217:Drivers/BSP/Components/iis2dlpc/iis2dlpc_reg.c **** 
1218:Drivers/BSP/Components/iis2dlpc/iis2dlpc_reg.c ****   if (ret == 0)
 2927              		.loc 1 1218 3 is_stmt 1 view .LVU773
 2928              		.loc 1 1218 6 is_stmt 0 view .LVU774
 2929 0012 08B1     		cbz	r0, .L207
 2930              	.LVL202:
 2931              	.L204:
1219:Drivers/BSP/Components/iis2dlpc/iis2dlpc_reg.c ****   {
1220:Drivers/BSP/Components/iis2dlpc/iis2dlpc_reg.c ****     reg.bw_filt = (uint8_t) val;
1221:Drivers/BSP/Components/iis2dlpc/iis2dlpc_reg.c ****     ret = iis2dlpc_write_reg(ctx, IIS2DLPC_CTRL6, (uint8_t *) &reg, 1);
1222:Drivers/BSP/Components/iis2dlpc/iis2dlpc_reg.c ****   }
1223:Drivers/BSP/Components/iis2dlpc/iis2dlpc_reg.c **** 
1224:Drivers/BSP/Components/iis2dlpc/iis2dlpc_reg.c ****   return ret;
1225:Drivers/BSP/Components/iis2dlpc/iis2dlpc_reg.c **** }
 2932              		.loc 1 1225 1 view .LVU775
 2933 0014 03B0     		add	sp, sp, #12
 2934              		.cfi_remember_state
 2935              		.cfi_def_cfa_offset 12
 2936              		@ sp needed
 2937 0016 30BD     		pop	{r4, r5, pc}
 2938              	.LVL203:
 2939              	.L207:
 2940              		.cfi_restore_state
1220:Drivers/BSP/Components/iis2dlpc/iis2dlpc_reg.c ****     ret = iis2dlpc_write_reg(ctx, IIS2DLPC_CTRL6, (uint8_t *) &reg, 1);
 2941              		.loc 1 1220 5 is_stmt 1 view .LVU776
1220:Drivers/BSP/Components/iis2dlpc/iis2dlpc_reg.c ****     ret = iis2dlpc_write_reg(ctx, IIS2DLPC_CTRL6, (uint8_t *) &reg, 1);
 2942              		.loc 1 1220 17 is_stmt 0 view .LVU777
 2943 0018 9DF80430 		ldrb	r3, [sp, #4]	@ zero_extendqisi2
 2944 001c 65F38713 		bfi	r3, r5, #6, #2
 2945 0020 8DF80430 		strb	r3, [sp, #4]
1221:Drivers/BSP/Components/iis2dlpc/iis2dlpc_reg.c ****   }
 2946              		.loc 1 1221 5 is_stmt 1 view .LVU778
1221:Drivers/BSP/Components/iis2dlpc/iis2dlpc_reg.c ****   }
 2947              		.loc 1 1221 11 is_stmt 0 view .LVU779
 2948 0024 0123     		movs	r3, #1
 2949              	.LVL204:
1221:Drivers/BSP/Components/iis2dlpc/iis2dlpc_reg.c ****   }
 2950              		.loc 1 1221 11 view .LVU780
 2951 0026 01AA     		add	r2, sp, #4
 2952 0028 2521     		movs	r1, #37
 2953 002a 2046     		mov	r0, r4
 2954 002c FFF7FEFF 		bl	iis2dlpc_write_reg
ARM GAS  C:\Temp\ccGZlXNO.s 			page 78


 2955              	.LVL205:
1224:Drivers/BSP/Components/iis2dlpc/iis2dlpc_reg.c **** }
 2956              		.loc 1 1224 3 is_stmt 1 view .LVU781
1224:Drivers/BSP/Components/iis2dlpc/iis2dlpc_reg.c **** }
 2957              		.loc 1 1224 10 is_stmt 0 view .LVU782
 2958 0030 F0E7     		b	.L204
 2959              		.cfi_endproc
 2960              	.LFE45:
 2962              		.section	.text.iis2dlpc_filter_bandwidth_get,"ax",%progbits
 2963              		.align	1
 2964              		.global	iis2dlpc_filter_bandwidth_get
 2965              		.syntax unified
 2966              		.thumb
 2967              		.thumb_func
 2969              	iis2dlpc_filter_bandwidth_get:
 2970              	.LVL206:
 2971              	.LFB46:
1226:Drivers/BSP/Components/iis2dlpc/iis2dlpc_reg.c **** 
1227:Drivers/BSP/Components/iis2dlpc/iis2dlpc_reg.c **** /**
1228:Drivers/BSP/Components/iis2dlpc/iis2dlpc_reg.c ****   * @brief   Accelerometer cutoff filter frequency. Valid for low and
1229:Drivers/BSP/Components/iis2dlpc/iis2dlpc_reg.c ****   *          high pass filter.[get]
1230:Drivers/BSP/Components/iis2dlpc/iis2dlpc_reg.c ****   *
1231:Drivers/BSP/Components/iis2dlpc/iis2dlpc_reg.c ****   * @param  ctx      read / write interface definitions
1232:Drivers/BSP/Components/iis2dlpc/iis2dlpc_reg.c ****   * @param  val      Get the values of bw_filt in reg CTRL6
1233:Drivers/BSP/Components/iis2dlpc/iis2dlpc_reg.c ****   * @retval          interface status (MANDATORY: return 0 -> no Error)
1234:Drivers/BSP/Components/iis2dlpc/iis2dlpc_reg.c ****   *
1235:Drivers/BSP/Components/iis2dlpc/iis2dlpc_reg.c ****   */
1236:Drivers/BSP/Components/iis2dlpc/iis2dlpc_reg.c **** int32_t iis2dlpc_filter_bandwidth_get(const stmdev_ctx_t *ctx,
1237:Drivers/BSP/Components/iis2dlpc/iis2dlpc_reg.c ****                                       iis2dlpc_bw_filt_t *val)
1238:Drivers/BSP/Components/iis2dlpc/iis2dlpc_reg.c **** {
 2972              		.loc 1 1238 1 is_stmt 1 view -0
 2973              		.cfi_startproc
 2974              		@ args = 0, pretend = 0, frame = 8
 2975              		@ frame_needed = 0, uses_anonymous_args = 0
 2976              		.loc 1 1238 1 is_stmt 0 view .LVU784
 2977 0000 10B5     		push	{r4, lr}
 2978              		.cfi_def_cfa_offset 8
 2979              		.cfi_offset 4, -8
 2980              		.cfi_offset 14, -4
 2981 0002 82B0     		sub	sp, sp, #8
 2982              		.cfi_def_cfa_offset 16
 2983 0004 0C46     		mov	r4, r1
1239:Drivers/BSP/Components/iis2dlpc/iis2dlpc_reg.c ****   iis2dlpc_ctrl6_t reg;
 2984              		.loc 1 1239 3 is_stmt 1 view .LVU785
1240:Drivers/BSP/Components/iis2dlpc/iis2dlpc_reg.c ****   int32_t ret;
 2985              		.loc 1 1240 3 view .LVU786
1241:Drivers/BSP/Components/iis2dlpc/iis2dlpc_reg.c **** 
1242:Drivers/BSP/Components/iis2dlpc/iis2dlpc_reg.c ****   ret = iis2dlpc_read_reg(ctx, IIS2DLPC_CTRL6, (uint8_t *) &reg, 1);
 2986              		.loc 1 1242 3 view .LVU787
 2987              		.loc 1 1242 9 is_stmt 0 view .LVU788
 2988 0006 0123     		movs	r3, #1
 2989 0008 01AA     		add	r2, sp, #4
 2990 000a 2521     		movs	r1, #37
 2991              	.LVL207:
 2992              		.loc 1 1242 9 view .LVU789
 2993 000c FFF7FEFF 		bl	iis2dlpc_read_reg
 2994              	.LVL208:
ARM GAS  C:\Temp\ccGZlXNO.s 			page 79


1243:Drivers/BSP/Components/iis2dlpc/iis2dlpc_reg.c **** 
1244:Drivers/BSP/Components/iis2dlpc/iis2dlpc_reg.c ****   switch (reg.bw_filt)
 2995              		.loc 1 1244 3 is_stmt 1 view .LVU790
 2996              		.loc 1 1244 14 is_stmt 0 view .LVU791
 2997 0010 9DF80430 		ldrb	r3, [sp, #4]	@ zero_extendqisi2
 2998 0014 9B09     		lsrs	r3, r3, #6
 2999              		.loc 1 1244 3 view .LVU792
 3000 0016 032B     		cmp	r3, #3
 3001 0018 10D8     		bhi	.L209
 3002 001a DFE803F0 		tbb	[pc, r3]
 3003              	.L211:
 3004 001e 02       		.byte	(.L214-.L211)/2
 3005 001f 06       		.byte	(.L213-.L211)/2
 3006 0020 09       		.byte	(.L212-.L211)/2
 3007 0021 0C       		.byte	(.L210-.L211)/2
 3008              		.p2align 1
 3009              	.L214:
1245:Drivers/BSP/Components/iis2dlpc/iis2dlpc_reg.c ****   {
1246:Drivers/BSP/Components/iis2dlpc/iis2dlpc_reg.c ****     case IIS2DLPC_ODR_DIV_2:
1247:Drivers/BSP/Components/iis2dlpc/iis2dlpc_reg.c ****       *val = IIS2DLPC_ODR_DIV_2;
 3010              		.loc 1 1247 7 is_stmt 1 view .LVU793
 3011              		.loc 1 1247 12 is_stmt 0 view .LVU794
 3012 0022 0023     		movs	r3, #0
 3013 0024 2370     		strb	r3, [r4]
1248:Drivers/BSP/Components/iis2dlpc/iis2dlpc_reg.c ****       break;
 3014              		.loc 1 1248 7 is_stmt 1 view .LVU795
 3015              	.L208:
1249:Drivers/BSP/Components/iis2dlpc/iis2dlpc_reg.c **** 
1250:Drivers/BSP/Components/iis2dlpc/iis2dlpc_reg.c ****     case IIS2DLPC_ODR_DIV_4:
1251:Drivers/BSP/Components/iis2dlpc/iis2dlpc_reg.c ****       *val = IIS2DLPC_ODR_DIV_4;
1252:Drivers/BSP/Components/iis2dlpc/iis2dlpc_reg.c ****       break;
1253:Drivers/BSP/Components/iis2dlpc/iis2dlpc_reg.c **** 
1254:Drivers/BSP/Components/iis2dlpc/iis2dlpc_reg.c ****     case IIS2DLPC_ODR_DIV_10:
1255:Drivers/BSP/Components/iis2dlpc/iis2dlpc_reg.c ****       *val = IIS2DLPC_ODR_DIV_10;
1256:Drivers/BSP/Components/iis2dlpc/iis2dlpc_reg.c ****       break;
1257:Drivers/BSP/Components/iis2dlpc/iis2dlpc_reg.c **** 
