ARM GAS  C:\Temp\ccGZlXNO.s 			page 1


   1              		.cpu cortex-m4
   2              		.arch armv7e-m
   3              		.fpu fpv4-sp-d16
   4              		.eabi_attribute 27, 1
   5              		.eabi_attribute 28, 1
   6              		.eabi_attribute 20, 1
   7              		.eabi_attribute 21, 1
   8              		.eabi_attribute 23, 3
   9              		.eabi_attribute 24, 1
  10              		.eabi_attribute 25, 1
  11              		.eabi_attribute 26, 1
  12              		.eabi_attribute 30, 1
  13              		.eabi_attribute 34, 1
  14              		.eabi_attribute 18, 4
  15              		.file	"iis2dlpc_reg.c"
  16              		.text
  17              	.Ltext0:
  18              		.cfi_sections	.debug_frame
  19              		.file 1 "Drivers/BSP/Components/iis2dlpc/iis2dlpc_reg.c"
  20              		.section	.text.iis2dlpc_read_reg,"ax",%progbits
  21              		.align	1
  22              		.weak	iis2dlpc_read_reg
  23              		.syntax unified
  24              		.thumb
  25              		.thumb_func
  27              	iis2dlpc_read_reg:
  28              	.LVL0:
  29              	.LFB0:
   1:Drivers/BSP/Components/iis2dlpc/iis2dlpc_reg.c **** /**
   2:Drivers/BSP/Components/iis2dlpc/iis2dlpc_reg.c ****   ******************************************************************************
   3:Drivers/BSP/Components/iis2dlpc/iis2dlpc_reg.c ****   * @file    iis2dlpc_reg.c
   4:Drivers/BSP/Components/iis2dlpc/iis2dlpc_reg.c ****   * @author  Sensors Software Solution Team
   5:Drivers/BSP/Components/iis2dlpc/iis2dlpc_reg.c ****   * @brief   IIS2DLPC driver file
   6:Drivers/BSP/Components/iis2dlpc/iis2dlpc_reg.c ****   ******************************************************************************
   7:Drivers/BSP/Components/iis2dlpc/iis2dlpc_reg.c ****   * @attention
   8:Drivers/BSP/Components/iis2dlpc/iis2dlpc_reg.c ****   *
   9:Drivers/BSP/Components/iis2dlpc/iis2dlpc_reg.c ****   * Copyright (c) 2021 STMicroelectronics.
  10:Drivers/BSP/Components/iis2dlpc/iis2dlpc_reg.c ****   * All rights reserved.
  11:Drivers/BSP/Components/iis2dlpc/iis2dlpc_reg.c ****   *
  12:Drivers/BSP/Components/iis2dlpc/iis2dlpc_reg.c ****   * This software is licensed under terms that can be found in the LICENSE file
  13:Drivers/BSP/Components/iis2dlpc/iis2dlpc_reg.c ****   * in the root directory of this software component.
  14:Drivers/BSP/Components/iis2dlpc/iis2dlpc_reg.c ****   * If no LICENSE file comes with this software, it is provided AS-IS.
  15:Drivers/BSP/Components/iis2dlpc/iis2dlpc_reg.c ****   *
  16:Drivers/BSP/Components/iis2dlpc/iis2dlpc_reg.c ****   ******************************************************************************
  17:Drivers/BSP/Components/iis2dlpc/iis2dlpc_reg.c ****   */
  18:Drivers/BSP/Components/iis2dlpc/iis2dlpc_reg.c **** 
  19:Drivers/BSP/Components/iis2dlpc/iis2dlpc_reg.c **** #include "iis2dlpc_reg.h"
  20:Drivers/BSP/Components/iis2dlpc/iis2dlpc_reg.c **** 
  21:Drivers/BSP/Components/iis2dlpc/iis2dlpc_reg.c **** /**
  22:Drivers/BSP/Components/iis2dlpc/iis2dlpc_reg.c ****   * @defgroup  IIS2DLPC
  23:Drivers/BSP/Components/iis2dlpc/iis2dlpc_reg.c ****   * @brief     This file provides a set of functions needed to drive the
  24:Drivers/BSP/Components/iis2dlpc/iis2dlpc_reg.c ****   *            iis2dlpc enanced inertial module.
  25:Drivers/BSP/Components/iis2dlpc/iis2dlpc_reg.c ****   * @{
  26:Drivers/BSP/Components/iis2dlpc/iis2dlpc_reg.c ****   *
  27:Drivers/BSP/Components/iis2dlpc/iis2dlpc_reg.c ****   */
  28:Drivers/BSP/Components/iis2dlpc/iis2dlpc_reg.c **** 
  29:Drivers/BSP/Components/iis2dlpc/iis2dlpc_reg.c **** /**
ARM GAS  C:\Temp\ccGZlXNO.s 			page 2


  30:Drivers/BSP/Components/iis2dlpc/iis2dlpc_reg.c ****   * @defgroup  IIS2DLPC_Interfaces_Functions
  31:Drivers/BSP/Components/iis2dlpc/iis2dlpc_reg.c ****   * @brief     This section provide a set of functions used to read and
  32:Drivers/BSP/Components/iis2dlpc/iis2dlpc_reg.c ****   *            write a generic register of the device.
  33:Drivers/BSP/Components/iis2dlpc/iis2dlpc_reg.c ****   *            MANDATORY: return 0 -> no Error.
  34:Drivers/BSP/Components/iis2dlpc/iis2dlpc_reg.c ****   * @{
  35:Drivers/BSP/Components/iis2dlpc/iis2dlpc_reg.c ****   *
  36:Drivers/BSP/Components/iis2dlpc/iis2dlpc_reg.c ****   */
  37:Drivers/BSP/Components/iis2dlpc/iis2dlpc_reg.c **** 
  38:Drivers/BSP/Components/iis2dlpc/iis2dlpc_reg.c **** /**
  39:Drivers/BSP/Components/iis2dlpc/iis2dlpc_reg.c ****   * @brief  Read generic device register
  40:Drivers/BSP/Components/iis2dlpc/iis2dlpc_reg.c ****   *
  41:Drivers/BSP/Components/iis2dlpc/iis2dlpc_reg.c ****   * @param  ctx   read / write interface definitions(ptr)
  42:Drivers/BSP/Components/iis2dlpc/iis2dlpc_reg.c ****   * @param  reg   register to read
  43:Drivers/BSP/Components/iis2dlpc/iis2dlpc_reg.c ****   * @param  data  pointer to buffer that store the data read(ptr)
  44:Drivers/BSP/Components/iis2dlpc/iis2dlpc_reg.c ****   * @param  len   number of consecutive register to read
  45:Drivers/BSP/Components/iis2dlpc/iis2dlpc_reg.c ****   * @retval          interface status (MANDATORY: return 0 -> no Error)
  46:Drivers/BSP/Components/iis2dlpc/iis2dlpc_reg.c ****   *
  47:Drivers/BSP/Components/iis2dlpc/iis2dlpc_reg.c ****   */
  48:Drivers/BSP/Components/iis2dlpc/iis2dlpc_reg.c **** int32_t __weak iis2dlpc_read_reg(const stmdev_ctx_t *ctx, uint8_t reg,
  49:Drivers/BSP/Components/iis2dlpc/iis2dlpc_reg.c ****                                  uint8_t *data,
  50:Drivers/BSP/Components/iis2dlpc/iis2dlpc_reg.c ****                                  uint16_t len)
  51:Drivers/BSP/Components/iis2dlpc/iis2dlpc_reg.c **** {
  30              		.loc 1 51 1 view -0
  31              		.cfi_startproc
  32              		@ args = 0, pretend = 0, frame = 0
  33              		@ frame_needed = 0, uses_anonymous_args = 0
  52:Drivers/BSP/Components/iis2dlpc/iis2dlpc_reg.c ****   int32_t ret;
  34              		.loc 1 52 3 view .LVU1
  53:Drivers/BSP/Components/iis2dlpc/iis2dlpc_reg.c **** 
  54:Drivers/BSP/Components/iis2dlpc/iis2dlpc_reg.c ****   if (ctx == NULL) return -1;
  35              		.loc 1 54 3 view .LVU2
  36              		.loc 1 54 6 is_stmt 0 view .LVU3
  37 0000 20B1     		cbz	r0, .L3
  51:Drivers/BSP/Components/iis2dlpc/iis2dlpc_reg.c ****   int32_t ret;
  38              		.loc 1 51 1 view .LVU4
  39 0002 10B5     		push	{r4, lr}
  40              		.cfi_def_cfa_offset 8
  41              		.cfi_offset 4, -8
  42              		.cfi_offset 14, -4
  55:Drivers/BSP/Components/iis2dlpc/iis2dlpc_reg.c **** 
  56:Drivers/BSP/Components/iis2dlpc/iis2dlpc_reg.c ****   ret = ctx->read_reg(ctx->handle, reg, data, len);
  43              		.loc 1 56 3 is_stmt 1 view .LVU5
  44              		.loc 1 56 12 is_stmt 0 view .LVU6
  45 0004 4468     		ldr	r4, [r0, #4]
  46              		.loc 1 56 9 view .LVU7
  47 0006 C068     		ldr	r0, [r0, #12]
  48              	.LVL1:
  49              		.loc 1 56 9 view .LVU8
  50 0008 A047     		blx	r4
  51              	.LVL2:
  57:Drivers/BSP/Components/iis2dlpc/iis2dlpc_reg.c **** 
  58:Drivers/BSP/Components/iis2dlpc/iis2dlpc_reg.c ****   return ret;
  52              		.loc 1 58 3 is_stmt 1 view .LVU9
  59:Drivers/BSP/Components/iis2dlpc/iis2dlpc_reg.c **** }
  53              		.loc 1 59 1 is_stmt 0 view .LVU10
  54 000a 10BD     		pop	{r4, pc}
  55              	.LVL3:
ARM GAS  C:\Temp\ccGZlXNO.s 			page 3


  56              	.L3:
  57              		.cfi_def_cfa_offset 0
  58              		.cfi_restore 4
  59              		.cfi_restore 14
  54:Drivers/BSP/Components/iis2dlpc/iis2dlpc_reg.c **** 
  60              		.loc 1 54 27 view .LVU11
  61 000c 4FF0FF30 		mov	r0, #-1
  62              	.LVL4:
  63              		.loc 1 59 1 view .LVU12
  64 0010 7047     		bx	lr
  65              		.cfi_endproc
  66              	.LFE0:
  68              		.section	.text.iis2dlpc_write_reg,"ax",%progbits
  69              		.align	1
  70              		.weak	iis2dlpc_write_reg
  71              		.syntax unified
  72              		.thumb
  73              		.thumb_func
  75              	iis2dlpc_write_reg:
  76              	.LVL5:
  77              	.LFB1:
  60:Drivers/BSP/Components/iis2dlpc/iis2dlpc_reg.c **** 
  61:Drivers/BSP/Components/iis2dlpc/iis2dlpc_reg.c **** /**
  62:Drivers/BSP/Components/iis2dlpc/iis2dlpc_reg.c ****   * @brief  Write generic device register
  63:Drivers/BSP/Components/iis2dlpc/iis2dlpc_reg.c ****   *
  64:Drivers/BSP/Components/iis2dlpc/iis2dlpc_reg.c ****   * @param  ctx   read / write interface definitions(ptr)
  65:Drivers/BSP/Components/iis2dlpc/iis2dlpc_reg.c ****   * @param  reg   register to write
  66:Drivers/BSP/Components/iis2dlpc/iis2dlpc_reg.c ****   * @param  data  pointer to data to write in register reg(ptr)
  67:Drivers/BSP/Components/iis2dlpc/iis2dlpc_reg.c ****   * @param  len   number of consecutive register to write
  68:Drivers/BSP/Components/iis2dlpc/iis2dlpc_reg.c ****   * @retval          interface status (MANDATORY: return 0 -> no Error)
  69:Drivers/BSP/Components/iis2dlpc/iis2dlpc_reg.c ****   *
  70:Drivers/BSP/Components/iis2dlpc/iis2dlpc_reg.c ****   */
  71:Drivers/BSP/Components/iis2dlpc/iis2dlpc_reg.c **** int32_t __weak iis2dlpc_write_reg(const stmdev_ctx_t *ctx, uint8_t reg,
  72:Drivers/BSP/Components/iis2dlpc/iis2dlpc_reg.c ****                                   uint8_t *data,
  73:Drivers/BSP/Components/iis2dlpc/iis2dlpc_reg.c ****                                   uint16_t len)
  74:Drivers/BSP/Components/iis2dlpc/iis2dlpc_reg.c **** {
  78              		.loc 1 74 1 is_stmt 1 view -0
  79              		.cfi_startproc
  80              		@ args = 0, pretend = 0, frame = 0
  81              		@ frame_needed = 0, uses_anonymous_args = 0
  75:Drivers/BSP/Components/iis2dlpc/iis2dlpc_reg.c ****   int32_t ret;
  82              		.loc 1 75 3 view .LVU14
  76:Drivers/BSP/Components/iis2dlpc/iis2dlpc_reg.c **** 
  77:Drivers/BSP/Components/iis2dlpc/iis2dlpc_reg.c ****   if (ctx == NULL) return -1;
  83              		.loc 1 77 3 view .LVU15
  84              		.loc 1 77 6 is_stmt 0 view .LVU16
  85 0000 20B1     		cbz	r0, .L10
  74:Drivers/BSP/Components/iis2dlpc/iis2dlpc_reg.c ****   int32_t ret;
  86              		.loc 1 74 1 view .LVU17
  87 0002 10B5     		push	{r4, lr}
  88              		.cfi_def_cfa_offset 8
  89              		.cfi_offset 4, -8
  90              		.cfi_offset 14, -4
  78:Drivers/BSP/Components/iis2dlpc/iis2dlpc_reg.c **** 
  79:Drivers/BSP/Components/iis2dlpc/iis2dlpc_reg.c ****   ret = ctx->write_reg(ctx->handle, reg, data, len);
  91              		.loc 1 79 3 is_stmt 1 view .LVU18
  92              		.loc 1 79 12 is_stmt 0 view .LVU19
ARM GAS  C:\Temp\ccGZlXNO.s 			page 4


  93 0004 0468     		ldr	r4, [r0]
  94              		.loc 1 79 9 view .LVU20
  95 0006 C068     		ldr	r0, [r0, #12]
  96              	.LVL6:
  97              		.loc 1 79 9 view .LVU21
  98 0008 A047     		blx	r4
  99              	.LVL7:
  80:Drivers/BSP/Components/iis2dlpc/iis2dlpc_reg.c **** 
  81:Drivers/BSP/Components/iis2dlpc/iis2dlpc_reg.c ****   return ret;
 100              		.loc 1 81 3 is_stmt 1 view .LVU22
  82:Drivers/BSP/Components/iis2dlpc/iis2dlpc_reg.c **** }
 101              		.loc 1 82 1 is_stmt 0 view .LVU23
 102 000a 10BD     		pop	{r4, pc}
 103              	.LVL8:
 104              	.L10:
 105              		.cfi_def_cfa_offset 0
 106              		.cfi_restore 4
 107              		.cfi_restore 14
  77:Drivers/BSP/Components/iis2dlpc/iis2dlpc_reg.c **** 
 108              		.loc 1 77 27 view .LVU24
 109 000c 4FF0FF30 		mov	r0, #-1
 110              	.LVL9:
 111              		.loc 1 82 1 view .LVU25
 112 0010 7047     		bx	lr
 113              		.cfi_endproc
 114              	.LFE1:
 116              		.section	.text.iis2dlpc_from_fs2_to_mg,"ax",%progbits
 117              		.align	1
 118              		.global	iis2dlpc_from_fs2_to_mg
 119              		.syntax unified
 120              		.thumb
 121              		.thumb_func
 123              	iis2dlpc_from_fs2_to_mg:
 124              	.LVL10:
 125              	.LFB2:
  83:Drivers/BSP/Components/iis2dlpc/iis2dlpc_reg.c **** 
  84:Drivers/BSP/Components/iis2dlpc/iis2dlpc_reg.c **** /**
  85:Drivers/BSP/Components/iis2dlpc/iis2dlpc_reg.c ****   * @}
  86:Drivers/BSP/Components/iis2dlpc/iis2dlpc_reg.c ****   *
  87:Drivers/BSP/Components/iis2dlpc/iis2dlpc_reg.c ****   */
  88:Drivers/BSP/Components/iis2dlpc/iis2dlpc_reg.c **** 
  89:Drivers/BSP/Components/iis2dlpc/iis2dlpc_reg.c **** /**
  90:Drivers/BSP/Components/iis2dlpc/iis2dlpc_reg.c ****   * @defgroup    IIS2DLPC_Sensitivity
  91:Drivers/BSP/Components/iis2dlpc/iis2dlpc_reg.c ****   * @brief       These functions convert raw-data into engineering units.
  92:Drivers/BSP/Components/iis2dlpc/iis2dlpc_reg.c ****   * @{
  93:Drivers/BSP/Components/iis2dlpc/iis2dlpc_reg.c ****   *
  94:Drivers/BSP/Components/iis2dlpc/iis2dlpc_reg.c ****   */
  95:Drivers/BSP/Components/iis2dlpc/iis2dlpc_reg.c **** 
  96:Drivers/BSP/Components/iis2dlpc/iis2dlpc_reg.c **** float_t iis2dlpc_from_fs2_to_mg(int16_t lsb)
  97:Drivers/BSP/Components/iis2dlpc/iis2dlpc_reg.c **** {
 126              		.loc 1 97 1 is_stmt 1 view -0
 127              		.cfi_startproc
 128              		@ args = 0, pretend = 0, frame = 0
 129              		@ frame_needed = 0, uses_anonymous_args = 0
 130              		@ link register save eliminated.
 131              		.loc 1 97 1 is_stmt 0 view .LVU27
 132 0000 07EE900A 		vmov	s15, r0	@ int
ARM GAS  C:\Temp\ccGZlXNO.s 			page 5


  98:Drivers/BSP/Components/iis2dlpc/iis2dlpc_reg.c ****   return ((float_t)lsb) * 0.061f;
 133              		.loc 1 98 3 is_stmt 1 view .LVU28
 134              		.loc 1 98 11 is_stmt 0 view .LVU29
 135 0004 F8EEE77A 		vcvt.f32.s32	s15, s15
  99:Drivers/BSP/Components/iis2dlpc/iis2dlpc_reg.c **** }
 136              		.loc 1 99 1 view .LVU30
 137 0008 9FED020A 		vldr.32	s0, .L16
 138 000c 27EE800A 		vmul.f32	s0, s15, s0
 139 0010 7047     		bx	lr
 140              	.L17:
 141 0012 00BF     		.align	2
 142              	.L16:
 143 0014 23DB793D 		.word	1031396131
 144              		.cfi_endproc
 145              	.LFE2:
 147              		.section	.text.iis2dlpc_from_fs4_to_mg,"ax",%progbits
 148              		.align	1
 149              		.global	iis2dlpc_from_fs4_to_mg
 150              		.syntax unified
 151              		.thumb
 152              		.thumb_func
 154              	iis2dlpc_from_fs4_to_mg:
 155              	.LVL11:
 156              	.LFB3:
 100:Drivers/BSP/Components/iis2dlpc/iis2dlpc_reg.c **** 
 101:Drivers/BSP/Components/iis2dlpc/iis2dlpc_reg.c **** float_t iis2dlpc_from_fs4_to_mg(int16_t lsb)
 102:Drivers/BSP/Components/iis2dlpc/iis2dlpc_reg.c **** {
 157              		.loc 1 102 1 is_stmt 1 view -0
 158              		.cfi_startproc
 159              		@ args = 0, pretend = 0, frame = 0
 160              		@ frame_needed = 0, uses_anonymous_args = 0
 161              		@ link register save eliminated.
 162              		.loc 1 102 1 is_stmt 0 view .LVU32
 163 0000 07EE900A 		vmov	s15, r0	@ int
 103:Drivers/BSP/Components/iis2dlpc/iis2dlpc_reg.c ****   return ((float_t)lsb) * 0.122f;
 164              		.loc 1 103 3 is_stmt 1 view .LVU33
 165              		.loc 1 103 11 is_stmt 0 view .LVU34
 166 0004 F8EEE77A 		vcvt.f32.s32	s15, s15
 104:Drivers/BSP/Components/iis2dlpc/iis2dlpc_reg.c **** }
 167              		.loc 1 104 1 view .LVU35
 168 0008 9FED020A 		vldr.32	s0, .L19
 169 000c 27EE800A 		vmul.f32	s0, s15, s0
 170 0010 7047     		bx	lr
 171              	.L20:
 172 0012 00BF     		.align	2
 173              	.L19:
 174 0014 23DBF93D 		.word	1039784739
 175              		.cfi_endproc
 176              	.LFE3:
 178              		.section	.text.iis2dlpc_from_fs8_to_mg,"ax",%progbits
 179              		.align	1
 180              		.global	iis2dlpc_from_fs8_to_mg
 181              		.syntax unified
 182              		.thumb
 183              		.thumb_func
 185              	iis2dlpc_from_fs8_to_mg:
 186              	.LVL12:
ARM GAS  C:\Temp\ccGZlXNO.s 			page 6


 187              	.LFB4:
 105:Drivers/BSP/Components/iis2dlpc/iis2dlpc_reg.c **** 
 106:Drivers/BSP/Components/iis2dlpc/iis2dlpc_reg.c **** float_t iis2dlpc_from_fs8_to_mg(int16_t lsb)
 107:Drivers/BSP/Components/iis2dlpc/iis2dlpc_reg.c **** {
 188              		.loc 1 107 1 is_stmt 1 view -0
 189              		.cfi_startproc
 190              		@ args = 0, pretend = 0, frame = 0
 191              		@ frame_needed = 0, uses_anonymous_args = 0
 192              		@ link register save eliminated.
 193              		.loc 1 107 1 is_stmt 0 view .LVU37
 194 0000 07EE900A 		vmov	s15, r0	@ int
 108:Drivers/BSP/Components/iis2dlpc/iis2dlpc_reg.c ****   return ((float_t)lsb) * 0.244f;
 195              		.loc 1 108 3 is_stmt 1 view .LVU38
 196              		.loc 1 108 11 is_stmt 0 view .LVU39
 197 0004 F8EEE77A 		vcvt.f32.s32	s15, s15
 109:Drivers/BSP/Components/iis2dlpc/iis2dlpc_reg.c **** }
 198              		.loc 1 109 1 view .LVU40
 199 0008 9FED020A 		vldr.32	s0, .L22
 200 000c 27EE800A 		vmul.f32	s0, s15, s0
 201 0010 7047     		bx	lr
 202              	.L23:
 203 0012 00BF     		.align	2
 204              	.L22:
 205 0014 23DB793E 		.word	1048173347
 206              		.cfi_endproc
 207              	.LFE4:
 209              		.section	.text.iis2dlpc_from_fs16_to_mg,"ax",%progbits
 210              		.align	1
 211              		.global	iis2dlpc_from_fs16_to_mg
 212              		.syntax unified
 213              		.thumb
 214              		.thumb_func
 216              	iis2dlpc_from_fs16_to_mg:
 217              	.LVL13:
 218              	.LFB5:
 110:Drivers/BSP/Components/iis2dlpc/iis2dlpc_reg.c **** 
 111:Drivers/BSP/Components/iis2dlpc/iis2dlpc_reg.c **** float_t iis2dlpc_from_fs16_to_mg(int16_t lsb)
 112:Drivers/BSP/Components/iis2dlpc/iis2dlpc_reg.c **** {
 219              		.loc 1 112 1 is_stmt 1 view -0
 220              		.cfi_startproc
 221              		@ args = 0, pretend = 0, frame = 0
 222              		@ frame_needed = 0, uses_anonymous_args = 0
 223              		@ link register save eliminated.
 224              		.loc 1 112 1 is_stmt 0 view .LVU42
 225 0000 07EE900A 		vmov	s15, r0	@ int
 113:Drivers/BSP/Components/iis2dlpc/iis2dlpc_reg.c ****   return ((float_t)lsb) * 0.488f;
 226              		.loc 1 113 3 is_stmt 1 view .LVU43
 227              		.loc 1 113 11 is_stmt 0 view .LVU44
 228 0004 F8EEE77A 		vcvt.f32.s32	s15, s15
 114:Drivers/BSP/Components/iis2dlpc/iis2dlpc_reg.c **** }
 229              		.loc 1 114 1 view .LVU45
 230 0008 9FED020A 		vldr.32	s0, .L25
 231 000c 27EE800A 		vmul.f32	s0, s15, s0
 232 0010 7047     		bx	lr
 233              	.L26:
 234 0012 00BF     		.align	2
 235              	.L25:
ARM GAS  C:\Temp\ccGZlXNO.s 			page 7


 236 0014 23DBF93E 		.word	1056561955
 237              		.cfi_endproc
 238              	.LFE5:
 240              		.section	.text.iis2dlpc_from_fs2_lp1_to_mg,"ax",%progbits
 241              		.align	1
 242              		.global	iis2dlpc_from_fs2_lp1_to_mg
 243              		.syntax unified
 244              		.thumb
 245              		.thumb_func
 247              	iis2dlpc_from_fs2_lp1_to_mg:
 248              	.LVL14:
 249              	.LFB6:
 115:Drivers/BSP/Components/iis2dlpc/iis2dlpc_reg.c **** 
 116:Drivers/BSP/Components/iis2dlpc/iis2dlpc_reg.c **** float_t iis2dlpc_from_fs2_lp1_to_mg(int16_t lsb)
 117:Drivers/BSP/Components/iis2dlpc/iis2dlpc_reg.c **** {
 250              		.loc 1 117 1 is_stmt 1 view -0
 251              		.cfi_startproc
 252              		@ args = 0, pretend = 0, frame = 0
 253              		@ frame_needed = 0, uses_anonymous_args = 0
 254              		@ link register save eliminated.
 255              		.loc 1 117 1 is_stmt 0 view .LVU47
 256 0000 07EE900A 		vmov	s15, r0	@ int
 118:Drivers/BSP/Components/iis2dlpc/iis2dlpc_reg.c ****   return ((float_t)lsb) * 0.061f;
 257              		.loc 1 118 3 is_stmt 1 view .LVU48
 258              		.loc 1 118 11 is_stmt 0 view .LVU49
 259 0004 F8EEE77A 		vcvt.f32.s32	s15, s15
 119:Drivers/BSP/Components/iis2dlpc/iis2dlpc_reg.c **** }
 260              		.loc 1 119 1 view .LVU50
 261 0008 9FED020A 		vldr.32	s0, .L28
 262 000c 27EE800A 		vmul.f32	s0, s15, s0
 263 0010 7047     		bx	lr
 264              	.L29:
 265 0012 00BF     		.align	2
 266              	.L28:
 267 0014 23DB793D 		.word	1031396131
 268              		.cfi_endproc
 269              	.LFE6:
 271              		.section	.text.iis2dlpc_from_fs4_lp1_to_mg,"ax",%progbits
 272              		.align	1
 273              		.global	iis2dlpc_from_fs4_lp1_to_mg
 274              		.syntax unified
 275              		.thumb
 276              		.thumb_func
 278              	iis2dlpc_from_fs4_lp1_to_mg:
 279              	.LVL15:
 280              	.LFB7:
 120:Drivers/BSP/Components/iis2dlpc/iis2dlpc_reg.c **** 
 121:Drivers/BSP/Components/iis2dlpc/iis2dlpc_reg.c **** float_t iis2dlpc_from_fs4_lp1_to_mg(int16_t lsb)
 122:Drivers/BSP/Components/iis2dlpc/iis2dlpc_reg.c **** {
 281              		.loc 1 122 1 is_stmt 1 view -0
 282              		.cfi_startproc
 283              		@ args = 0, pretend = 0, frame = 0
 284              		@ frame_needed = 0, uses_anonymous_args = 0
 285              		@ link register save eliminated.
 286              		.loc 1 122 1 is_stmt 0 view .LVU52
 287 0000 07EE900A 		vmov	s15, r0	@ int
 123:Drivers/BSP/Components/iis2dlpc/iis2dlpc_reg.c ****   return ((float_t)lsb) * 0.122f;
ARM GAS  C:\Temp\ccGZlXNO.s 			page 8


 288              		.loc 1 123 3 is_stmt 1 view .LVU53
 289              		.loc 1 123 11 is_stmt 0 view .LVU54
 290 0004 F8EEE77A 		vcvt.f32.s32	s15, s15
 124:Drivers/BSP/Components/iis2dlpc/iis2dlpc_reg.c **** }
 291              		.loc 1 124 1 view .LVU55
 292 0008 9FED020A 		vldr.32	s0, .L31
 293 000c 27EE800A 		vmul.f32	s0, s15, s0
 294 0010 7047     		bx	lr
 295              	.L32:
 296 0012 00BF     		.align	2
 297              	.L31:
 298 0014 23DBF93D 		.word	1039784739
 299              		.cfi_endproc
 300              	.LFE7:
 302              		.section	.text.iis2dlpc_from_fs8_lp1_to_mg,"ax",%progbits
 303              		.align	1
 304              		.global	iis2dlpc_from_fs8_lp1_to_mg
 305              		.syntax unified
 306              		.thumb
 307              		.thumb_func
 309              	iis2dlpc_from_fs8_lp1_to_mg:
 310              	.LVL16:
 311              	.LFB8:
 125:Drivers/BSP/Components/iis2dlpc/iis2dlpc_reg.c **** 
 126:Drivers/BSP/Components/iis2dlpc/iis2dlpc_reg.c **** float_t iis2dlpc_from_fs8_lp1_to_mg(int16_t lsb)
 127:Drivers/BSP/Components/iis2dlpc/iis2dlpc_reg.c **** {
 312              		.loc 1 127 1 is_stmt 1 view -0
 313              		.cfi_startproc
 314              		@ args = 0, pretend = 0, frame = 0
 315              		@ frame_needed = 0, uses_anonymous_args = 0
 316              		@ link register save eliminated.
 317              		.loc 1 127 1 is_stmt 0 view .LVU57
 318 0000 07EE900A 		vmov	s15, r0	@ int
 128:Drivers/BSP/Components/iis2dlpc/iis2dlpc_reg.c ****   return ((float_t)lsb) * 0.244f;
 319              		.loc 1 128 3 is_stmt 1 view .LVU58
 320              		.loc 1 128 11 is_stmt 0 view .LVU59
 321 0004 F8EEE77A 		vcvt.f32.s32	s15, s15
 129:Drivers/BSP/Components/iis2dlpc/iis2dlpc_reg.c **** }
 322              		.loc 1 129 1 view .LVU60
 323 0008 9FED020A 		vldr.32	s0, .L34
 324 000c 27EE800A 		vmul.f32	s0, s15, s0
 325 0010 7047     		bx	lr
 326              	.L35:
 327 0012 00BF     		.align	2
 328              	.L34:
 329 0014 23DB793E 		.word	1048173347
 330              		.cfi_endproc
 331              	.LFE8:
 333              		.section	.text.iis2dlpc_from_fs16_lp1_to_mg,"ax",%progbits
 334              		.align	1
 335              		.global	iis2dlpc_from_fs16_lp1_to_mg
 336              		.syntax unified
 337              		.thumb
 338              		.thumb_func
 340              	iis2dlpc_from_fs16_lp1_to_mg:
 341              	.LVL17:
 342              	.LFB9:
ARM GAS  C:\Temp\ccGZlXNO.s 			page 9


 130:Drivers/BSP/Components/iis2dlpc/iis2dlpc_reg.c **** 
 131:Drivers/BSP/Components/iis2dlpc/iis2dlpc_reg.c **** float_t iis2dlpc_from_fs16_lp1_to_mg(int16_t lsb)
 132:Drivers/BSP/Components/iis2dlpc/iis2dlpc_reg.c **** {
 343              		.loc 1 132 1 is_stmt 1 view -0
 344              		.cfi_startproc
 345              		@ args = 0, pretend = 0, frame = 0
 346              		@ frame_needed = 0, uses_anonymous_args = 0
 347              		@ link register save eliminated.
 348              		.loc 1 132 1 is_stmt 0 view .LVU62
 349 0000 07EE900A 		vmov	s15, r0	@ int
 133:Drivers/BSP/Components/iis2dlpc/iis2dlpc_reg.c ****   return ((float_t)lsb) * 0.488f;
 350              		.loc 1 133 3 is_stmt 1 view .LVU63
 351              		.loc 1 133 11 is_stmt 0 view .LVU64
 352 0004 F8EEE77A 		vcvt.f32.s32	s15, s15
 134:Drivers/BSP/Components/iis2dlpc/iis2dlpc_reg.c **** }
 353              		.loc 1 134 1 view .LVU65
 354 0008 9FED020A 		vldr.32	s0, .L37
 355 000c 27EE800A 		vmul.f32	s0, s15, s0
 356 0010 7047     		bx	lr
 357              	.L38:
 358 0012 00BF     		.align	2
 359              	.L37:
 360 0014 23DBF93E 		.word	1056561955
 361              		.cfi_endproc
 362              	.LFE9:
 364              		.section	.text.iis2dlpc_from_lsb_to_celsius,"ax",%progbits
 365              		.align	1
 366              		.global	iis2dlpc_from_lsb_to_celsius
 367              		.syntax unified
 368              		.thumb
 369              		.thumb_func
 371              	iis2dlpc_from_lsb_to_celsius:
 372              	.LVL18:
 373              	.LFB10:
 135:Drivers/BSP/Components/iis2dlpc/iis2dlpc_reg.c **** 
 136:Drivers/BSP/Components/iis2dlpc/iis2dlpc_reg.c **** float_t iis2dlpc_from_lsb_to_celsius(int16_t lsb)
 137:Drivers/BSP/Components/iis2dlpc/iis2dlpc_reg.c **** {
 374              		.loc 1 137 1 is_stmt 1 view -0
 375              		.cfi_startproc
 376              		@ args = 0, pretend = 0, frame = 0
 377              		@ frame_needed = 0, uses_anonymous_args = 0
 378              		@ link register save eliminated.
 379              		.loc 1 137 1 is_stmt 0 view .LVU67
 380 0000 07EE900A 		vmov	s15, r0	@ int
 138:Drivers/BSP/Components/iis2dlpc/iis2dlpc_reg.c ****   return (((float_t)lsb / 256.0f) + 25.0f);
 381              		.loc 1 138 3 is_stmt 1 view .LVU68
 382              		.loc 1 138 12 is_stmt 0 view .LVU69
 383 0004 F8EEE77A 		vcvt.f32.s32	s15, s15
 384              		.loc 1 138 25 view .LVU70
 385 0008 9FED047A 		vldr.32	s14, .L40
 386 000c 67EE877A 		vmul.f32	s15, s15, s14
 139:Drivers/BSP/Components/iis2dlpc/iis2dlpc_reg.c **** }
 387              		.loc 1 139 1 view .LVU71
 388 0010 B3EE090A 		vmov.f32	s0, #2.5e+1
 389 0014 37EE800A 		vadd.f32	s0, s15, s0
 390 0018 7047     		bx	lr
 391              	.L41:
ARM GAS  C:\Temp\ccGZlXNO.s 			page 10


 392 001a 00BF     		.align	2
 393              	.L40:
 394 001c 0000803B 		.word	998244352
 395              		.cfi_endproc
 396              	.LFE10:
 398              		.section	.text.iis2dlpc_power_mode_set,"ax",%progbits
 399              		.align	1
 400              		.global	iis2dlpc_power_mode_set
 401              		.syntax unified
 402              		.thumb
 403              		.thumb_func
 405              	iis2dlpc_power_mode_set:
 406              	.LVL19:
 407              	.LFB11:
 140:Drivers/BSP/Components/iis2dlpc/iis2dlpc_reg.c **** 
 141:Drivers/BSP/Components/iis2dlpc/iis2dlpc_reg.c **** /**
 142:Drivers/BSP/Components/iis2dlpc/iis2dlpc_reg.c ****   * @}
 143:Drivers/BSP/Components/iis2dlpc/iis2dlpc_reg.c ****   *
 144:Drivers/BSP/Components/iis2dlpc/iis2dlpc_reg.c ****   */
 145:Drivers/BSP/Components/iis2dlpc/iis2dlpc_reg.c **** 
 146:Drivers/BSP/Components/iis2dlpc/iis2dlpc_reg.c **** /**
 147:Drivers/BSP/Components/iis2dlpc/iis2dlpc_reg.c ****   * @defgroup  IIS2DLPC_Data_Generation
 148:Drivers/BSP/Components/iis2dlpc/iis2dlpc_reg.c ****   * @brief     This section groups all the functions concerning
 149:Drivers/BSP/Components/iis2dlpc/iis2dlpc_reg.c ****   *            data generation
 150:Drivers/BSP/Components/iis2dlpc/iis2dlpc_reg.c ****   * @{
 151:Drivers/BSP/Components/iis2dlpc/iis2dlpc_reg.c ****   *
 152:Drivers/BSP/Components/iis2dlpc/iis2dlpc_reg.c ****   */
 153:Drivers/BSP/Components/iis2dlpc/iis2dlpc_reg.c **** 
 154:Drivers/BSP/Components/iis2dlpc/iis2dlpc_reg.c **** /**
 155:Drivers/BSP/Components/iis2dlpc/iis2dlpc_reg.c ****   * @brief  Select accelerometer operating modes.[set]
 156:Drivers/BSP/Components/iis2dlpc/iis2dlpc_reg.c ****   *
 157:Drivers/BSP/Components/iis2dlpc/iis2dlpc_reg.c ****   * @param  ctx      read / write interface definitions
 158:Drivers/BSP/Components/iis2dlpc/iis2dlpc_reg.c ****   * @param  val      change the values of mode / lp_mode in reg CTRL1
 159:Drivers/BSP/Components/iis2dlpc/iis2dlpc_reg.c ****   *                  and low_noise in reg CTRL6
 160:Drivers/BSP/Components/iis2dlpc/iis2dlpc_reg.c ****   * @retval          interface status (MANDATORY: return 0 -> no Error)
 161:Drivers/BSP/Components/iis2dlpc/iis2dlpc_reg.c ****   *
 162:Drivers/BSP/Components/iis2dlpc/iis2dlpc_reg.c ****   */
 163:Drivers/BSP/Components/iis2dlpc/iis2dlpc_reg.c **** int32_t iis2dlpc_power_mode_set(const stmdev_ctx_t *ctx,
 164:Drivers/BSP/Components/iis2dlpc/iis2dlpc_reg.c ****                                 iis2dlpc_mode_t val)
 165:Drivers/BSP/Components/iis2dlpc/iis2dlpc_reg.c **** {
 408              		.loc 1 165 1 is_stmt 1 view -0
 409              		.cfi_startproc
 410              		@ args = 0, pretend = 0, frame = 8
 411              		@ frame_needed = 0, uses_anonymous_args = 0
 412              		.loc 1 165 1 is_stmt 0 view .LVU73
 413 0000 30B5     		push	{r4, r5, lr}
 414              		.cfi_def_cfa_offset 12
 415              		.cfi_offset 4, -12
 416              		.cfi_offset 5, -8
 417              		.cfi_offset 14, -4
 418 0002 83B0     		sub	sp, sp, #12
 419              		.cfi_def_cfa_offset 24
 420 0004 0546     		mov	r5, r0
 421 0006 0C46     		mov	r4, r1
 166:Drivers/BSP/Components/iis2dlpc/iis2dlpc_reg.c ****   iis2dlpc_ctrl1_t ctrl1;
 422              		.loc 1 166 3 is_stmt 1 view .LVU74
 167:Drivers/BSP/Components/iis2dlpc/iis2dlpc_reg.c ****   iis2dlpc_ctrl6_t ctrl6;
ARM GAS  C:\Temp\ccGZlXNO.s 			page 11


 423              		.loc 1 167 3 view .LVU75
 168:Drivers/BSP/Components/iis2dlpc/iis2dlpc_reg.c ****   int32_t ret;
 424              		.loc 1 168 3 view .LVU76
 169:Drivers/BSP/Components/iis2dlpc/iis2dlpc_reg.c **** 
 170:Drivers/BSP/Components/iis2dlpc/iis2dlpc_reg.c ****   ret = iis2dlpc_read_reg(ctx, IIS2DLPC_CTRL1, (uint8_t *) &ctrl1, 1);
 425              		.loc 1 170 3 view .LVU77
 426              		.loc 1 170 9 is_stmt 0 view .LVU78
 427 0008 0123     		movs	r3, #1
 428 000a 01AA     		add	r2, sp, #4
 429 000c 2021     		movs	r1, #32
 430              	.LVL20:
 431              		.loc 1 170 9 view .LVU79
 432 000e FFF7FEFF 		bl	iis2dlpc_read_reg
 433              	.LVL21:
 171:Drivers/BSP/Components/iis2dlpc/iis2dlpc_reg.c **** 
 172:Drivers/BSP/Components/iis2dlpc/iis2dlpc_reg.c ****   if (ret == 0)
 434              		.loc 1 172 3 is_stmt 1 view .LVU80
 435              		.loc 1 172 6 is_stmt 0 view .LVU81
 436 0012 0346     		mov	r3, r0
 437 0014 18B1     		cbz	r0, .L46
 438              	.L43:
 173:Drivers/BSP/Components/iis2dlpc/iis2dlpc_reg.c ****   {
 174:Drivers/BSP/Components/iis2dlpc/iis2dlpc_reg.c ****     ctrl1.mode = ((uint8_t) val & 0x0CU) >> 2;
 175:Drivers/BSP/Components/iis2dlpc/iis2dlpc_reg.c ****     ctrl1.lp_mode = (uint8_t) val & 0x03U ;
 176:Drivers/BSP/Components/iis2dlpc/iis2dlpc_reg.c ****     ret = iis2dlpc_write_reg(ctx, IIS2DLPC_CTRL1, (uint8_t *) &ctrl1, 1);
 177:Drivers/BSP/Components/iis2dlpc/iis2dlpc_reg.c ****   }
 178:Drivers/BSP/Components/iis2dlpc/iis2dlpc_reg.c **** 
 179:Drivers/BSP/Components/iis2dlpc/iis2dlpc_reg.c ****   if (ret == 0)
 180:Drivers/BSP/Components/iis2dlpc/iis2dlpc_reg.c ****   {
 181:Drivers/BSP/Components/iis2dlpc/iis2dlpc_reg.c ****     ret = iis2dlpc_read_reg(ctx, IIS2DLPC_CTRL6, (uint8_t *) &ctrl6, 1);
 182:Drivers/BSP/Components/iis2dlpc/iis2dlpc_reg.c ****   }
 183:Drivers/BSP/Components/iis2dlpc/iis2dlpc_reg.c **** 
 184:Drivers/BSP/Components/iis2dlpc/iis2dlpc_reg.c ****   if (ret == 0)
 439              		.loc 1 184 3 is_stmt 1 view .LVU82
 440              		.loc 1 184 6 is_stmt 0 view .LVU83
 441 0016 03B3     		cbz	r3, .L47
 442              	.L42:
 185:Drivers/BSP/Components/iis2dlpc/iis2dlpc_reg.c ****   {
 186:Drivers/BSP/Components/iis2dlpc/iis2dlpc_reg.c ****     ctrl6.low_noise = ((uint8_t) val & 0x10U) >> 4;
 187:Drivers/BSP/Components/iis2dlpc/iis2dlpc_reg.c ****     ret = iis2dlpc_write_reg(ctx, IIS2DLPC_CTRL6, (uint8_t *) &ctrl6, 1);
 188:Drivers/BSP/Components/iis2dlpc/iis2dlpc_reg.c ****   }
 189:Drivers/BSP/Components/iis2dlpc/iis2dlpc_reg.c **** 
 190:Drivers/BSP/Components/iis2dlpc/iis2dlpc_reg.c ****   else
 191:Drivers/BSP/Components/iis2dlpc/iis2dlpc_reg.c ****   {
 192:Drivers/BSP/Components/iis2dlpc/iis2dlpc_reg.c ****     ret = ret;
 193:Drivers/BSP/Components/iis2dlpc/iis2dlpc_reg.c ****   }
 194:Drivers/BSP/Components/iis2dlpc/iis2dlpc_reg.c **** 
 195:Drivers/BSP/Components/iis2dlpc/iis2dlpc_reg.c ****   return ret;
 196:Drivers/BSP/Components/iis2dlpc/iis2dlpc_reg.c **** }
 443              		.loc 1 196 1 view .LVU84
 444 0018 1846     		mov	r0, r3
 445              	.LVL22:
 446              		.loc 1 196 1 view .LVU85
 447 001a 03B0     		add	sp, sp, #12
 448              		.cfi_remember_state
 449              		.cfi_def_cfa_offset 12
 450              		@ sp needed
ARM GAS  C:\Temp\ccGZlXNO.s 			page 12


 451 001c 30BD     		pop	{r4, r5, pc}
 452              	.LVL23:
 453              	.L46:
 454              		.cfi_restore_state
 174:Drivers/BSP/Components/iis2dlpc/iis2dlpc_reg.c ****     ctrl1.lp_mode = (uint8_t) val & 0x03U ;
 455              		.loc 1 174 5 is_stmt 1 view .LVU86
 174:Drivers/BSP/Components/iis2dlpc/iis2dlpc_reg.c ****     ctrl1.lp_mode = (uint8_t) val & 0x03U ;
 456              		.loc 1 174 42 is_stmt 0 view .LVU87
 457 001e C4F38103 		ubfx	r3, r4, #2, #2
 174:Drivers/BSP/Components/iis2dlpc/iis2dlpc_reg.c ****     ctrl1.lp_mode = (uint8_t) val & 0x03U ;
 458              		.loc 1 174 16 view .LVU88
 459 0022 9DF80420 		ldrb	r2, [sp, #4]	@ zero_extendqisi2
 460 0026 63F38302 		bfi	r2, r3, #2, #2
 461 002a 8DF80420 		strb	r2, [sp, #4]
 175:Drivers/BSP/Components/iis2dlpc/iis2dlpc_reg.c ****     ret = iis2dlpc_write_reg(ctx, IIS2DLPC_CTRL1, (uint8_t *) &ctrl1, 1);
 462              		.loc 1 175 5 is_stmt 1 view .LVU89
 175:Drivers/BSP/Components/iis2dlpc/iis2dlpc_reg.c ****     ret = iis2dlpc_write_reg(ctx, IIS2DLPC_CTRL1, (uint8_t *) &ctrl1, 1);
 463              		.loc 1 175 19 is_stmt 0 view .LVU90
 464 002e D3B2     		uxtb	r3, r2
 465 0030 64F30103 		bfi	r3, r4, #0, #2
 466 0034 8DF80430 		strb	r3, [sp, #4]
 176:Drivers/BSP/Components/iis2dlpc/iis2dlpc_reg.c ****   }
 467              		.loc 1 176 5 is_stmt 1 view .LVU91
 176:Drivers/BSP/Components/iis2dlpc/iis2dlpc_reg.c ****   }
 468              		.loc 1 176 11 is_stmt 0 view .LVU92
 469 0038 0123     		movs	r3, #1
 470 003a 01AA     		add	r2, sp, #4
 471 003c 2021     		movs	r1, #32
 472 003e 2846     		mov	r0, r5
 473              	.LVL24:
 176:Drivers/BSP/Components/iis2dlpc/iis2dlpc_reg.c ****   }
 474              		.loc 1 176 11 view .LVU93
 475 0040 FFF7FEFF 		bl	iis2dlpc_write_reg
 476              	.LVL25:
 179:Drivers/BSP/Components/iis2dlpc/iis2dlpc_reg.c ****   {
 477              		.loc 1 179 3 is_stmt 1 view .LVU94
 179:Drivers/BSP/Components/iis2dlpc/iis2dlpc_reg.c ****   {
 478              		.loc 1 179 6 is_stmt 0 view .LVU95
 479 0044 0346     		mov	r3, r0
 480 0046 0028     		cmp	r0, #0
 481 0048 E6D1     		bne	.L42
 181:Drivers/BSP/Components/iis2dlpc/iis2dlpc_reg.c ****   }
 482              		.loc 1 181 5 is_stmt 1 view .LVU96
 181:Drivers/BSP/Components/iis2dlpc/iis2dlpc_reg.c ****   }
 483              		.loc 1 181 11 is_stmt 0 view .LVU97
 484 004a 0123     		movs	r3, #1
 485 004c 6A46     		mov	r2, sp
 486 004e 2521     		movs	r1, #37
 487 0050 2846     		mov	r0, r5
 488              	.LVL26:
 181:Drivers/BSP/Components/iis2dlpc/iis2dlpc_reg.c ****   }
 489              		.loc 1 181 11 view .LVU98
 490 0052 FFF7FEFF 		bl	iis2dlpc_read_reg
 491              	.LVL27:
 492 0056 0346     		mov	r3, r0
 493              	.LVL28:
 181:Drivers/BSP/Components/iis2dlpc/iis2dlpc_reg.c ****   }
ARM GAS  C:\Temp\ccGZlXNO.s 			page 13


 494              		.loc 1 181 11 view .LVU99
 495 0058 DDE7     		b	.L43
 496              	.L47:
 186:Drivers/BSP/Components/iis2dlpc/iis2dlpc_reg.c ****     ret = iis2dlpc_write_reg(ctx, IIS2DLPC_CTRL6, (uint8_t *) &ctrl6, 1);
 497              		.loc 1 186 5 is_stmt 1 view .LVU100
 186:Drivers/BSP/Components/iis2dlpc/iis2dlpc_reg.c ****     ret = iis2dlpc_write_reg(ctx, IIS2DLPC_CTRL6, (uint8_t *) &ctrl6, 1);
 498              		.loc 1 186 47 is_stmt 0 view .LVU101
 499 005a C4F30011 		ubfx	r1, r4, #4, #1
 186:Drivers/BSP/Components/iis2dlpc/iis2dlpc_reg.c ****     ret = iis2dlpc_write_reg(ctx, IIS2DLPC_CTRL6, (uint8_t *) &ctrl6, 1);
 500              		.loc 1 186 21 view .LVU102
 501 005e 9DF80030 		ldrb	r3, [sp]	@ zero_extendqisi2
 502 0062 61F38203 		bfi	r3, r1, #2, #1
 503 0066 8DF80030 		strb	r3, [sp]
 187:Drivers/BSP/Components/iis2dlpc/iis2dlpc_reg.c ****   }
 504              		.loc 1 187 5 is_stmt 1 view .LVU103
 187:Drivers/BSP/Components/iis2dlpc/iis2dlpc_reg.c ****   }
 505              		.loc 1 187 11 is_stmt 0 view .LVU104
 506 006a 0123     		movs	r3, #1
 507 006c 6A46     		mov	r2, sp
 508 006e 2521     		movs	r1, #37
 509 0070 2846     		mov	r0, r5
 510              	.LVL29:
 187:Drivers/BSP/Components/iis2dlpc/iis2dlpc_reg.c ****   }
 511              		.loc 1 187 11 view .LVU105
 512 0072 FFF7FEFF 		bl	iis2dlpc_write_reg
 513              	.LVL30:
 514 0076 0346     		mov	r3, r0
 515              	.LVL31:
 195:Drivers/BSP/Components/iis2dlpc/iis2dlpc_reg.c **** }
 516              		.loc 1 195 3 is_stmt 1 view .LVU106
 195:Drivers/BSP/Components/iis2dlpc/iis2dlpc_reg.c **** }
 517              		.loc 1 195 10 is_stmt 0 view .LVU107
 518 0078 CEE7     		b	.L42
 519              		.cfi_endproc
 520              	.LFE11:
 522              		.section	.text.iis2dlpc_power_mode_get,"ax",%progbits
 523              		.align	1
 524              		.global	iis2dlpc_power_mode_get
 525              		.syntax unified
 526              		.thumb
 527              		.thumb_func
 529              	iis2dlpc_power_mode_get:
 530              	.LVL32:
 531              	.LFB12:
 197:Drivers/BSP/Components/iis2dlpc/iis2dlpc_reg.c **** 
 198:Drivers/BSP/Components/iis2dlpc/iis2dlpc_reg.c **** /**
 199:Drivers/BSP/Components/iis2dlpc/iis2dlpc_reg.c ****   * @brief  Select accelerometer operating modes.[get]
 200:Drivers/BSP/Components/iis2dlpc/iis2dlpc_reg.c ****   *
 201:Drivers/BSP/Components/iis2dlpc/iis2dlpc_reg.c ****   * @param  ctx      read / write interface definitions
 202:Drivers/BSP/Components/iis2dlpc/iis2dlpc_reg.c ****   * @param  val      change the values of mode / lp_mode in reg CTRL1
 203:Drivers/BSP/Components/iis2dlpc/iis2dlpc_reg.c ****   *                  and low_noise in reg CTRL6
 204:Drivers/BSP/Components/iis2dlpc/iis2dlpc_reg.c ****   * @retval          interface status (MANDATORY: return 0 -> no Error)
 205:Drivers/BSP/Components/iis2dlpc/iis2dlpc_reg.c ****   *
 206:Drivers/BSP/Components/iis2dlpc/iis2dlpc_reg.c ****   */
 207:Drivers/BSP/Components/iis2dlpc/iis2dlpc_reg.c **** int32_t iis2dlpc_power_mode_get(const stmdev_ctx_t *ctx,
 208:Drivers/BSP/Components/iis2dlpc/iis2dlpc_reg.c ****                                 iis2dlpc_mode_t *val)
 209:Drivers/BSP/Components/iis2dlpc/iis2dlpc_reg.c **** {
ARM GAS  C:\Temp\ccGZlXNO.s 			page 14


 532              		.loc 1 209 1 is_stmt 1 view -0
 533              		.cfi_startproc
 534              		@ args = 0, pretend = 0, frame = 8
 535              		@ frame_needed = 0, uses_anonymous_args = 0
 536              		.loc 1 209 1 is_stmt 0 view .LVU109
 537 0000 30B5     		push	{r4, r5, lr}
 538              		.cfi_def_cfa_offset 12
 539              		.cfi_offset 4, -12
 540              		.cfi_offset 5, -8
 541              		.cfi_offset 14, -4
 542 0002 83B0     		sub	sp, sp, #12
 543              		.cfi_def_cfa_offset 24
 544 0004 0446     		mov	r4, r0
 545 0006 0D46     		mov	r5, r1
 210:Drivers/BSP/Components/iis2dlpc/iis2dlpc_reg.c ****   iis2dlpc_ctrl1_t ctrl1;
 546              		.loc 1 210 3 is_stmt 1 view .LVU110
 211:Drivers/BSP/Components/iis2dlpc/iis2dlpc_reg.c ****   iis2dlpc_ctrl6_t ctrl6;
 547              		.loc 1 211 3 view .LVU111
 212:Drivers/BSP/Components/iis2dlpc/iis2dlpc_reg.c ****   int32_t ret;
 548              		.loc 1 212 3 view .LVU112
 213:Drivers/BSP/Components/iis2dlpc/iis2dlpc_reg.c **** 
 214:Drivers/BSP/Components/iis2dlpc/iis2dlpc_reg.c ****   ret = iis2dlpc_read_reg(ctx, IIS2DLPC_CTRL1, (uint8_t *) &ctrl1, 1);
 549              		.loc 1 214 3 view .LVU113
 550              		.loc 1 214 9 is_stmt 0 view .LVU114
 551 0008 0123     		movs	r3, #1
 552 000a 01AA     		add	r2, sp, #4
 553 000c 2021     		movs	r1, #32
 554              	.LVL33:
 555              		.loc 1 214 9 view .LVU115
 556 000e FFF7FEFF 		bl	iis2dlpc_read_reg
 557              	.LVL34:
 215:Drivers/BSP/Components/iis2dlpc/iis2dlpc_reg.c **** 
 216:Drivers/BSP/Components/iis2dlpc/iis2dlpc_reg.c ****   if (ret == 0)
 558              		.loc 1 216 3 is_stmt 1 view .LVU116
 559              		.loc 1 216 6 is_stmt 0 view .LVU117
 560 0012 08B1     		cbz	r0, .L71
 561              	.LVL35:
 562              	.L48:
 217:Drivers/BSP/Components/iis2dlpc/iis2dlpc_reg.c ****   {
 218:Drivers/BSP/Components/iis2dlpc/iis2dlpc_reg.c ****     ret = iis2dlpc_read_reg(ctx, IIS2DLPC_CTRL6, (uint8_t *) &ctrl6, 1);
 219:Drivers/BSP/Components/iis2dlpc/iis2dlpc_reg.c **** 
 220:Drivers/BSP/Components/iis2dlpc/iis2dlpc_reg.c ****     switch (((ctrl6.low_noise << 4) + (ctrl1.mode << 2) +
 221:Drivers/BSP/Components/iis2dlpc/iis2dlpc_reg.c ****              ctrl1.lp_mode))
 222:Drivers/BSP/Components/iis2dlpc/iis2dlpc_reg.c ****     {
 223:Drivers/BSP/Components/iis2dlpc/iis2dlpc_reg.c ****       case IIS2DLPC_HIGH_PERFORMANCE:
 224:Drivers/BSP/Components/iis2dlpc/iis2dlpc_reg.c ****         *val = IIS2DLPC_HIGH_PERFORMANCE;
 225:Drivers/BSP/Components/iis2dlpc/iis2dlpc_reg.c ****         break;
 226:Drivers/BSP/Components/iis2dlpc/iis2dlpc_reg.c **** 
 227:Drivers/BSP/Components/iis2dlpc/iis2dlpc_reg.c ****       case IIS2DLPC_CONT_LOW_PWR_4:
 228:Drivers/BSP/Components/iis2dlpc/iis2dlpc_reg.c ****         *val = IIS2DLPC_CONT_LOW_PWR_4;
 229:Drivers/BSP/Components/iis2dlpc/iis2dlpc_reg.c ****         break;
 230:Drivers/BSP/Components/iis2dlpc/iis2dlpc_reg.c **** 
 231:Drivers/BSP/Components/iis2dlpc/iis2dlpc_reg.c ****       case IIS2DLPC_CONT_LOW_PWR_3:
 232:Drivers/BSP/Components/iis2dlpc/iis2dlpc_reg.c ****         *val = IIS2DLPC_CONT_LOW_PWR_3;
 233:Drivers/BSP/Components/iis2dlpc/iis2dlpc_reg.c ****         break;
 234:Drivers/BSP/Components/iis2dlpc/iis2dlpc_reg.c **** 
 235:Drivers/BSP/Components/iis2dlpc/iis2dlpc_reg.c ****       case IIS2DLPC_CONT_LOW_PWR_2:
ARM GAS  C:\Temp\ccGZlXNO.s 			page 15


 236:Drivers/BSP/Components/iis2dlpc/iis2dlpc_reg.c ****         *val = IIS2DLPC_CONT_LOW_PWR_2;
 237:Drivers/BSP/Components/iis2dlpc/iis2dlpc_reg.c ****         break;
 238:Drivers/BSP/Components/iis2dlpc/iis2dlpc_reg.c **** 
 239:Drivers/BSP/Components/iis2dlpc/iis2dlpc_reg.c ****       case IIS2DLPC_CONT_LOW_PWR_12bit:
 240:Drivers/BSP/Components/iis2dlpc/iis2dlpc_reg.c ****         *val = IIS2DLPC_CONT_LOW_PWR_12bit;
 241:Drivers/BSP/Components/iis2dlpc/iis2dlpc_reg.c ****         break;
 242:Drivers/BSP/Components/iis2dlpc/iis2dlpc_reg.c **** 
 243:Drivers/BSP/Components/iis2dlpc/iis2dlpc_reg.c ****       case IIS2DLPC_SINGLE_LOW_PWR_4:
 244:Drivers/BSP/Components/iis2dlpc/iis2dlpc_reg.c ****         *val = IIS2DLPC_SINGLE_LOW_PWR_4;
 245:Drivers/BSP/Components/iis2dlpc/iis2dlpc_reg.c ****         break;
 246:Drivers/BSP/Components/iis2dlpc/iis2dlpc_reg.c **** 
 247:Drivers/BSP/Components/iis2dlpc/iis2dlpc_reg.c ****       case IIS2DLPC_SINGLE_LOW_PWR_3:
 248:Drivers/BSP/Components/iis2dlpc/iis2dlpc_reg.c ****         *val = IIS2DLPC_SINGLE_LOW_PWR_3;
 249:Drivers/BSP/Components/iis2dlpc/iis2dlpc_reg.c ****         break;
 250:Drivers/BSP/Components/iis2dlpc/iis2dlpc_reg.c **** 
 251:Drivers/BSP/Components/iis2dlpc/iis2dlpc_reg.c ****       case IIS2DLPC_SINGLE_LOW_PWR_2:
 252:Drivers/BSP/Components/iis2dlpc/iis2dlpc_reg.c ****         *val = IIS2DLPC_SINGLE_LOW_PWR_2;
 253:Drivers/BSP/Components/iis2dlpc/iis2dlpc_reg.c ****         break;
 254:Drivers/BSP/Components/iis2dlpc/iis2dlpc_reg.c **** 
 255:Drivers/BSP/Components/iis2dlpc/iis2dlpc_reg.c ****       case IIS2DLPC_SINGLE_LOW_PWR_12bit:
 256:Drivers/BSP/Components/iis2dlpc/iis2dlpc_reg.c ****         *val = IIS2DLPC_SINGLE_LOW_PWR_12bit;
 257:Drivers/BSP/Components/iis2dlpc/iis2dlpc_reg.c ****         break;
 258:Drivers/BSP/Components/iis2dlpc/iis2dlpc_reg.c **** 
 259:Drivers/BSP/Components/iis2dlpc/iis2dlpc_reg.c ****       case IIS2DLPC_HIGH_PERFORMANCE_LOW_NOISE:
 260:Drivers/BSP/Components/iis2dlpc/iis2dlpc_reg.c ****         *val = IIS2DLPC_HIGH_PERFORMANCE_LOW_NOISE;
 261:Drivers/BSP/Components/iis2dlpc/iis2dlpc_reg.c ****         break;
 262:Drivers/BSP/Components/iis2dlpc/iis2dlpc_reg.c **** 
 263:Drivers/BSP/Components/iis2dlpc/iis2dlpc_reg.c ****       case IIS2DLPC_CONT_LOW_PWR_LOW_NOISE_4:
 264:Drivers/BSP/Components/iis2dlpc/iis2dlpc_reg.c ****         *val = IIS2DLPC_CONT_LOW_PWR_LOW_NOISE_4;
 265:Drivers/BSP/Components/iis2dlpc/iis2dlpc_reg.c ****         break;
 266:Drivers/BSP/Components/iis2dlpc/iis2dlpc_reg.c **** 
 267:Drivers/BSP/Components/iis2dlpc/iis2dlpc_reg.c ****       case IIS2DLPC_CONT_LOW_PWR_LOW_NOISE_3:
 268:Drivers/BSP/Components/iis2dlpc/iis2dlpc_reg.c ****         *val = IIS2DLPC_CONT_LOW_PWR_LOW_NOISE_3;
 269:Drivers/BSP/Components/iis2dlpc/iis2dlpc_reg.c ****         break;
 270:Drivers/BSP/Components/iis2dlpc/iis2dlpc_reg.c **** 
 271:Drivers/BSP/Components/iis2dlpc/iis2dlpc_reg.c ****       case IIS2DLPC_CONT_LOW_PWR_LOW_NOISE_2:
 272:Drivers/BSP/Components/iis2dlpc/iis2dlpc_reg.c ****         *val = IIS2DLPC_CONT_LOW_PWR_LOW_NOISE_2;
 273:Drivers/BSP/Components/iis2dlpc/iis2dlpc_reg.c ****         break;
 274:Drivers/BSP/Components/iis2dlpc/iis2dlpc_reg.c **** 
 275:Drivers/BSP/Components/iis2dlpc/iis2dlpc_reg.c ****       case IIS2DLPC_CONT_LOW_PWR_LOW_NOISE_12bit:
 276:Drivers/BSP/Components/iis2dlpc/iis2dlpc_reg.c ****         *val = IIS2DLPC_CONT_LOW_PWR_LOW_NOISE_12bit;
 277:Drivers/BSP/Components/iis2dlpc/iis2dlpc_reg.c ****         break;
 278:Drivers/BSP/Components/iis2dlpc/iis2dlpc_reg.c **** 
 279:Drivers/BSP/Components/iis2dlpc/iis2dlpc_reg.c ****       case IIS2DLPC_SINGLE_LOW_PWR_LOW_NOISE_4:
 280:Drivers/BSP/Components/iis2dlpc/iis2dlpc_reg.c ****         *val = IIS2DLPC_SINGLE_LOW_PWR_LOW_NOISE_4;
 281:Drivers/BSP/Components/iis2dlpc/iis2dlpc_reg.c ****         break;
 282:Drivers/BSP/Components/iis2dlpc/iis2dlpc_reg.c **** 
 283:Drivers/BSP/Components/iis2dlpc/iis2dlpc_reg.c ****       case IIS2DLPC_SINGLE_LOW_PWR_LOW_NOISE_3:
 284:Drivers/BSP/Components/iis2dlpc/iis2dlpc_reg.c ****         *val = IIS2DLPC_SINGLE_LOW_PWR_LOW_NOISE_3;
 285:Drivers/BSP/Components/iis2dlpc/iis2dlpc_reg.c ****         break;
 286:Drivers/BSP/Components/iis2dlpc/iis2dlpc_reg.c **** 
 287:Drivers/BSP/Components/iis2dlpc/iis2dlpc_reg.c ****       case IIS2DLPC_SINGLE_LOW_PWR_LOW_NOISE_2:
 288:Drivers/BSP/Components/iis2dlpc/iis2dlpc_reg.c ****         *val = IIS2DLPC_SINGLE_LOW_PWR_LOW_NOISE_2;
 289:Drivers/BSP/Components/iis2dlpc/iis2dlpc_reg.c ****         break;
 290:Drivers/BSP/Components/iis2dlpc/iis2dlpc_reg.c **** 
 291:Drivers/BSP/Components/iis2dlpc/iis2dlpc_reg.c ****       case IIS2DLPC_SINGLE_LOW_LOW_NOISE_PWR_12bit:
 292:Drivers/BSP/Components/iis2dlpc/iis2dlpc_reg.c ****         *val = IIS2DLPC_SINGLE_LOW_LOW_NOISE_PWR_12bit;
ARM GAS  C:\Temp\ccGZlXNO.s 			page 16


 293:Drivers/BSP/Components/iis2dlpc/iis2dlpc_reg.c ****         break;
 294:Drivers/BSP/Components/iis2dlpc/iis2dlpc_reg.c **** 
 295:Drivers/BSP/Components/iis2dlpc/iis2dlpc_reg.c ****       default:
 296:Drivers/BSP/Components/iis2dlpc/iis2dlpc_reg.c ****         *val = IIS2DLPC_HIGH_PERFORMANCE;
 297:Drivers/BSP/Components/iis2dlpc/iis2dlpc_reg.c ****         break;
 298:Drivers/BSP/Components/iis2dlpc/iis2dlpc_reg.c ****     }
 299:Drivers/BSP/Components/iis2dlpc/iis2dlpc_reg.c ****   }
 300:Drivers/BSP/Components/iis2dlpc/iis2dlpc_reg.c **** 
 301:Drivers/BSP/Components/iis2dlpc/iis2dlpc_reg.c ****   return ret;
 302:Drivers/BSP/Components/iis2dlpc/iis2dlpc_reg.c **** }
 563              		.loc 1 302 1 view .LVU118
 564 0014 03B0     		add	sp, sp, #12
 565              		.cfi_remember_state
 566              		.cfi_def_cfa_offset 12
 567              		@ sp needed
 568 0016 30BD     		pop	{r4, r5, pc}
 569              	.LVL36:
 570              	.L71:
 571              		.cfi_restore_state
 218:Drivers/BSP/Components/iis2dlpc/iis2dlpc_reg.c **** 
 572              		.loc 1 218 5 is_stmt 1 view .LVU119
 218:Drivers/BSP/Components/iis2dlpc/iis2dlpc_reg.c **** 
 573              		.loc 1 218 11 is_stmt 0 view .LVU120
 574 0018 0123     		movs	r3, #1
 575              	.LVL37:
 218:Drivers/BSP/Components/iis2dlpc/iis2dlpc_reg.c **** 
 576              		.loc 1 218 11 view .LVU121
 577 001a 6A46     		mov	r2, sp
 578 001c 2521     		movs	r1, #37
 579 001e 2046     		mov	r0, r4
 580 0020 FFF7FEFF 		bl	iis2dlpc_read_reg
 581              	.LVL38:
 220:Drivers/BSP/Components/iis2dlpc/iis2dlpc_reg.c ****              ctrl1.lp_mode))
 582              		.loc 1 220 5 is_stmt 1 view .LVU122
 220:Drivers/BSP/Components/iis2dlpc/iis2dlpc_reg.c ****              ctrl1.lp_mode))
 583              		.loc 1 220 20 is_stmt 0 view .LVU123
 584 0024 9DF80010 		ldrb	r1, [sp]	@ zero_extendqisi2
 585 0028 C1F38001 		ubfx	r1, r1, #2, #1
 220:Drivers/BSP/Components/iis2dlpc/iis2dlpc_reg.c ****              ctrl1.lp_mode))
 586              		.loc 1 220 45 view .LVU124
 587 002c 9DF80420 		ldrb	r2, [sp, #4]	@ zero_extendqisi2
 220:Drivers/BSP/Components/iis2dlpc/iis2dlpc_reg.c ****              ctrl1.lp_mode))
 588              		.loc 1 220 51 view .LVU125
 589 0030 02F00C03 		and	r3, r2, #12
 220:Drivers/BSP/Components/iis2dlpc/iis2dlpc_reg.c ****              ctrl1.lp_mode))
 590              		.loc 1 220 37 view .LVU126
 591 0034 03EB0113 		add	r3, r3, r1, lsl #4
 221:Drivers/BSP/Components/iis2dlpc/iis2dlpc_reg.c ****     {
 592              		.loc 1 221 19 view .LVU127
 593 0038 02F00302 		and	r2, r2, #3
 220:Drivers/BSP/Components/iis2dlpc/iis2dlpc_reg.c ****              ctrl1.lp_mode))
 594              		.loc 1 220 57 view .LVU128
 595 003c 1344     		add	r3, r3, r2
 220:Drivers/BSP/Components/iis2dlpc/iis2dlpc_reg.c ****              ctrl1.lp_mode))
 596              		.loc 1 220 5 view .LVU129
 597 003e 1B2B     		cmp	r3, #27
 598 0040 45D8     		bhi	.L50
ARM GAS  C:\Temp\ccGZlXNO.s 			page 17


 599 0042 DFE803F0 		tbb	[pc, r3]
 600              	.L52:
 601 0046 1A       		.byte	(.L69-.L52)/2
 602 0047 17       		.byte	(.L68-.L52)/2
 603 0048 14       		.byte	(.L67-.L52)/2
 604 0049 11       		.byte	(.L66-.L52)/2
 605 004a 0E       		.byte	(.L65-.L52)/2
 606 004b 44       		.byte	(.L50-.L52)/2
 607 004c 44       		.byte	(.L50-.L52)/2
 608 004d 44       		.byte	(.L50-.L52)/2
 609 004e 26       		.byte	(.L64-.L52)/2
 610 004f 23       		.byte	(.L63-.L52)/2
 611 0050 20       		.byte	(.L62-.L52)/2
 612 0051 1D       		.byte	(.L61-.L52)/2
 613 0052 44       		.byte	(.L50-.L52)/2
 614 0053 44       		.byte	(.L50-.L52)/2
 615 0054 44       		.byte	(.L50-.L52)/2
 616 0055 44       		.byte	(.L50-.L52)/2
 617 0056 35       		.byte	(.L60-.L52)/2
 618 0057 32       		.byte	(.L59-.L52)/2
 619 0058 2F       		.byte	(.L58-.L52)/2
 620 0059 2C       		.byte	(.L57-.L52)/2
 621 005a 29       		.byte	(.L56-.L52)/2
 622 005b 44       		.byte	(.L50-.L52)/2
 623 005c 44       		.byte	(.L50-.L52)/2
 624 005d 44       		.byte	(.L50-.L52)/2
 625 005e 41       		.byte	(.L55-.L52)/2
 626 005f 3E       		.byte	(.L54-.L52)/2
 627 0060 3B       		.byte	(.L53-.L52)/2
 628 0061 38       		.byte	(.L51-.L52)/2
 629              		.p2align 1
 630              	.L65:
 224:Drivers/BSP/Components/iis2dlpc/iis2dlpc_reg.c ****         break;
 631              		.loc 1 224 9 is_stmt 1 view .LVU130
 224:Drivers/BSP/Components/iis2dlpc/iis2dlpc_reg.c ****         break;
 632              		.loc 1 224 14 is_stmt 0 view .LVU131
 633 0062 0423     		movs	r3, #4
 634 0064 2B70     		strb	r3, [r5]
 225:Drivers/BSP/Components/iis2dlpc/iis2dlpc_reg.c **** 
 635              		.loc 1 225 9 is_stmt 1 view .LVU132
 636 0066 D5E7     		b	.L48
 637              	.L66:
 228:Drivers/BSP/Components/iis2dlpc/iis2dlpc_reg.c ****         break;
 638              		.loc 1 228 9 view .LVU133
 228:Drivers/BSP/Components/iis2dlpc/iis2dlpc_reg.c ****         break;
 639              		.loc 1 228 14 is_stmt 0 view .LVU134
 640 0068 0323     		movs	r3, #3
 641 006a 2B70     		strb	r3, [r5]
 229:Drivers/BSP/Components/iis2dlpc/iis2dlpc_reg.c **** 
 642              		.loc 1 229 9 is_stmt 1 view .LVU135
 643 006c D2E7     		b	.L48
 644              	.L67:
 232:Drivers/BSP/Components/iis2dlpc/iis2dlpc_reg.c ****         break;
 645              		.loc 1 232 9 view .LVU136
 232:Drivers/BSP/Components/iis2dlpc/iis2dlpc_reg.c ****         break;
 646              		.loc 1 232 14 is_stmt 0 view .LVU137
 647 006e 0223     		movs	r3, #2
ARM GAS  C:\Temp\ccGZlXNO.s 			page 18


 648 0070 2B70     		strb	r3, [r5]
 233:Drivers/BSP/Components/iis2dlpc/iis2dlpc_reg.c **** 
 649              		.loc 1 233 9 is_stmt 1 view .LVU138
 650 0072 CFE7     		b	.L48
 651              	.L68:
 236:Drivers/BSP/Components/iis2dlpc/iis2dlpc_reg.c ****         break;
 652              		.loc 1 236 9 view .LVU139
 236:Drivers/BSP/Components/iis2dlpc/iis2dlpc_reg.c ****         break;
 653              		.loc 1 236 14 is_stmt 0 view .LVU140
 654 0074 0123     		movs	r3, #1
 655 0076 2B70     		strb	r3, [r5]
 237:Drivers/BSP/Components/iis2dlpc/iis2dlpc_reg.c **** 
 656              		.loc 1 237 9 is_stmt 1 view .LVU141
 657 0078 CCE7     		b	.L48
 658              	.L69:
 240:Drivers/BSP/Components/iis2dlpc/iis2dlpc_reg.c ****         break;
 659              		.loc 1 240 9 view .LVU142
 240:Drivers/BSP/Components/iis2dlpc/iis2dlpc_reg.c ****         break;
 660              		.loc 1 240 14 is_stmt 0 view .LVU143
 661 007a 0023     		movs	r3, #0
 662 007c 2B70     		strb	r3, [r5]
 241:Drivers/BSP/Components/iis2dlpc/iis2dlpc_reg.c **** 
 663              		.loc 1 241 9 is_stmt 1 view .LVU144
 664 007e C9E7     		b	.L48
 665              	.L61:
 244:Drivers/BSP/Components/iis2dlpc/iis2dlpc_reg.c ****         break;
 666              		.loc 1 244 9 view .LVU145
 244:Drivers/BSP/Components/iis2dlpc/iis2dlpc_reg.c ****         break;
 667              		.loc 1 244 14 is_stmt 0 view .LVU146
 668 0080 0B23     		movs	r3, #11
 669 0082 2B70     		strb	r3, [r5]
 245:Drivers/BSP/Components/iis2dlpc/iis2dlpc_reg.c **** 
 670              		.loc 1 245 9 is_stmt 1 view .LVU147
 671 0084 C6E7     		b	.L48
 672              	.L62:
 248:Drivers/BSP/Components/iis2dlpc/iis2dlpc_reg.c ****         break;
 673              		.loc 1 248 9 view .LVU148
 248:Drivers/BSP/Components/iis2dlpc/iis2dlpc_reg.c ****         break;
 674              		.loc 1 248 14 is_stmt 0 view .LVU149
 675 0086 0A23     		movs	r3, #10
 676 0088 2B70     		strb	r3, [r5]
 249:Drivers/BSP/Components/iis2dlpc/iis2dlpc_reg.c **** 
 677              		.loc 1 249 9 is_stmt 1 view .LVU150
 678 008a C3E7     		b	.L48
 679              	.L63:
 252:Drivers/BSP/Components/iis2dlpc/iis2dlpc_reg.c ****         break;
 680              		.loc 1 252 9 view .LVU151
 252:Drivers/BSP/Components/iis2dlpc/iis2dlpc_reg.c ****         break;
 681              		.loc 1 252 14 is_stmt 0 view .LVU152
 682 008c 0923     		movs	r3, #9
 683 008e 2B70     		strb	r3, [r5]
 253:Drivers/BSP/Components/iis2dlpc/iis2dlpc_reg.c **** 
 684              		.loc 1 253 9 is_stmt 1 view .LVU153
 685 0090 C0E7     		b	.L48
 686              	.L64:
 256:Drivers/BSP/Components/iis2dlpc/iis2dlpc_reg.c ****         break;
 687              		.loc 1 256 9 view .LVU154
ARM GAS  C:\Temp\ccGZlXNO.s 			page 19


 256:Drivers/BSP/Components/iis2dlpc/iis2dlpc_reg.c ****         break;
 688              		.loc 1 256 14 is_stmt 0 view .LVU155
 689 0092 0823     		movs	r3, #8
 690 0094 2B70     		strb	r3, [r5]
 257:Drivers/BSP/Components/iis2dlpc/iis2dlpc_reg.c **** 
 691              		.loc 1 257 9 is_stmt 1 view .LVU156
 692 0096 BDE7     		b	.L48
 693              	.L56:
 260:Drivers/BSP/Components/iis2dlpc/iis2dlpc_reg.c ****         break;
 694              		.loc 1 260 9 view .LVU157
 260:Drivers/BSP/Components/iis2dlpc/iis2dlpc_reg.c ****         break;
 695              		.loc 1 260 14 is_stmt 0 view .LVU158
 696 0098 1423     		movs	r3, #20
 697 009a 2B70     		strb	r3, [r5]
 261:Drivers/BSP/Components/iis2dlpc/iis2dlpc_reg.c **** 
 698              		.loc 1 261 9 is_stmt 1 view .LVU159
 699 009c BAE7     		b	.L48
 700              	.L57:
 264:Drivers/BSP/Components/iis2dlpc/iis2dlpc_reg.c ****         break;
 701              		.loc 1 264 9 view .LVU160
 264:Drivers/BSP/Components/iis2dlpc/iis2dlpc_reg.c ****         break;
 702              		.loc 1 264 14 is_stmt 0 view .LVU161
 703 009e 1323     		movs	r3, #19
 704 00a0 2B70     		strb	r3, [r5]
 265:Drivers/BSP/Components/iis2dlpc/iis2dlpc_reg.c **** 
 705              		.loc 1 265 9 is_stmt 1 view .LVU162
 706 00a2 B7E7     		b	.L48
 707              	.L58:
 268:Drivers/BSP/Components/iis2dlpc/iis2dlpc_reg.c ****         break;
 708              		.loc 1 268 9 view .LVU163
 268:Drivers/BSP/Components/iis2dlpc/iis2dlpc_reg.c ****         break;
 709              		.loc 1 268 14 is_stmt 0 view .LVU164
 710 00a4 1223     		movs	r3, #18
 711 00a6 2B70     		strb	r3, [r5]
 269:Drivers/BSP/Components/iis2dlpc/iis2dlpc_reg.c **** 
 712              		.loc 1 269 9 is_stmt 1 view .LVU165
 713 00a8 B4E7     		b	.L48
 714              	.L59:
 272:Drivers/BSP/Components/iis2dlpc/iis2dlpc_reg.c ****         break;
 715              		.loc 1 272 9 view .LVU166
 272:Drivers/BSP/Components/iis2dlpc/iis2dlpc_reg.c ****         break;
 716              		.loc 1 272 14 is_stmt 0 view .LVU167
 717 00aa 1123     		movs	r3, #17
 718 00ac 2B70     		strb	r3, [r5]
 273:Drivers/BSP/Components/iis2dlpc/iis2dlpc_reg.c **** 
 719              		.loc 1 273 9 is_stmt 1 view .LVU168
 720 00ae B1E7     		b	.L48
 721              	.L60:
 276:Drivers/BSP/Components/iis2dlpc/iis2dlpc_reg.c ****         break;
 722              		.loc 1 276 9 view .LVU169
 276:Drivers/BSP/Components/iis2dlpc/iis2dlpc_reg.c ****         break;
 723              		.loc 1 276 14 is_stmt 0 view .LVU170
 724 00b0 1023     		movs	r3, #16
 725 00b2 2B70     		strb	r3, [r5]
 277:Drivers/BSP/Components/iis2dlpc/iis2dlpc_reg.c **** 
 726              		.loc 1 277 9 is_stmt 1 view .LVU171
 727 00b4 AEE7     		b	.L48
ARM GAS  C:\Temp\ccGZlXNO.s 			page 20


 728              	.L51:
 280:Drivers/BSP/Components/iis2dlpc/iis2dlpc_reg.c ****         break;
 729              		.loc 1 280 9 view .LVU172
 280:Drivers/BSP/Components/iis2dlpc/iis2dlpc_reg.c ****         break;
 730              		.loc 1 280 14 is_stmt 0 view .LVU173
 731 00b6 1B23     		movs	r3, #27
 732 00b8 2B70     		strb	r3, [r5]
 281:Drivers/BSP/Components/iis2dlpc/iis2dlpc_reg.c **** 
 733              		.loc 1 281 9 is_stmt 1 view .LVU174
 734 00ba ABE7     		b	.L48
 735              	.L53:
 284:Drivers/BSP/Components/iis2dlpc/iis2dlpc_reg.c ****         break;
 736              		.loc 1 284 9 view .LVU175
 284:Drivers/BSP/Components/iis2dlpc/iis2dlpc_reg.c ****         break;
 737              		.loc 1 284 14 is_stmt 0 view .LVU176
 738 00bc 1A23     		movs	r3, #26
 739 00be 2B70     		strb	r3, [r5]
 285:Drivers/BSP/Components/iis2dlpc/iis2dlpc_reg.c **** 
 740              		.loc 1 285 9 is_stmt 1 view .LVU177
 741 00c0 A8E7     		b	.L48
 742              	.L54:
 288:Drivers/BSP/Components/iis2dlpc/iis2dlpc_reg.c ****         break;
 743              		.loc 1 288 9 view .LVU178
 288:Drivers/BSP/Components/iis2dlpc/iis2dlpc_reg.c ****         break;
 744              		.loc 1 288 14 is_stmt 0 view .LVU179
 745 00c2 1923     		movs	r3, #25
 746 00c4 2B70     		strb	r3, [r5]
 289:Drivers/BSP/Components/iis2dlpc/iis2dlpc_reg.c **** 
 747              		.loc 1 289 9 is_stmt 1 view .LVU180
 748 00c6 A5E7     		b	.L48
 749              	.L55:
 292:Drivers/BSP/Components/iis2dlpc/iis2dlpc_reg.c ****         break;
 750              		.loc 1 292 9 view .LVU181
 292:Drivers/BSP/Components/iis2dlpc/iis2dlpc_reg.c ****         break;
 751              		.loc 1 292 14 is_stmt 0 view .LVU182
 752 00c8 1823     		movs	r3, #24
 753 00ca 2B70     		strb	r3, [r5]
 293:Drivers/BSP/Components/iis2dlpc/iis2dlpc_reg.c **** 
 754              		.loc 1 293 9 is_stmt 1 view .LVU183
 755 00cc A2E7     		b	.L48
 756              	.L50:
 296:Drivers/BSP/Components/iis2dlpc/iis2dlpc_reg.c ****         break;
 757              		.loc 1 296 9 view .LVU184
 296:Drivers/BSP/Components/iis2dlpc/iis2dlpc_reg.c ****         break;
 758              		.loc 1 296 14 is_stmt 0 view .LVU185
 759 00ce 0423     		movs	r3, #4
 760 00d0 2B70     		strb	r3, [r5]
 297:Drivers/BSP/Components/iis2dlpc/iis2dlpc_reg.c ****     }
 761              		.loc 1 297 9 is_stmt 1 view .LVU186
 301:Drivers/BSP/Components/iis2dlpc/iis2dlpc_reg.c **** }
 762              		.loc 1 301 3 view .LVU187
 301:Drivers/BSP/Components/iis2dlpc/iis2dlpc_reg.c **** }
 763              		.loc 1 301 10 is_stmt 0 view .LVU188
 764 00d2 9FE7     		b	.L48
 765              		.cfi_endproc
 766              	.LFE12:
 768              		.section	.text.iis2dlpc_data_rate_set,"ax",%progbits
ARM GAS  C:\Temp\ccGZlXNO.s 			page 21


 769              		.align	1
 770              		.global	iis2dlpc_data_rate_set
 771              		.syntax unified
 772              		.thumb
 773              		.thumb_func
 775              	iis2dlpc_data_rate_set:
 776              	.LVL39:
 777              	.LFB13:
 303:Drivers/BSP/Components/iis2dlpc/iis2dlpc_reg.c **** 
 304:Drivers/BSP/Components/iis2dlpc/iis2dlpc_reg.c **** /**
 305:Drivers/BSP/Components/iis2dlpc/iis2dlpc_reg.c ****   * @brief  Accelerometer data rate selection.[set]
 306:Drivers/BSP/Components/iis2dlpc/iis2dlpc_reg.c ****   *
 307:Drivers/BSP/Components/iis2dlpc/iis2dlpc_reg.c ****   * @param  ctx      read / write interface definitions
 308:Drivers/BSP/Components/iis2dlpc/iis2dlpc_reg.c ****   * @param  val      change the values of odr in reg CTRL1
 309:Drivers/BSP/Components/iis2dlpc/iis2dlpc_reg.c ****   * @retval          interface status (MANDATORY: return 0 -> no Error)
 310:Drivers/BSP/Components/iis2dlpc/iis2dlpc_reg.c ****   *
 311:Drivers/BSP/Components/iis2dlpc/iis2dlpc_reg.c ****   */
 312:Drivers/BSP/Components/iis2dlpc/iis2dlpc_reg.c **** int32_t iis2dlpc_data_rate_set(const stmdev_ctx_t *ctx, iis2dlpc_odr_t val)
 313:Drivers/BSP/Components/iis2dlpc/iis2dlpc_reg.c **** {
 778              		.loc 1 313 1 is_stmt 1 view -0
 779              		.cfi_startproc
 780              		@ args = 0, pretend = 0, frame = 8
 781              		@ frame_needed = 0, uses_anonymous_args = 0
 782              		.loc 1 313 1 is_stmt 0 view .LVU190
 783 0000 30B5     		push	{r4, r5, lr}
 784              		.cfi_def_cfa_offset 12
 785              		.cfi_offset 4, -12
 786              		.cfi_offset 5, -8
 787              		.cfi_offset 14, -4
 788 0002 83B0     		sub	sp, sp, #12
 789              		.cfi_def_cfa_offset 24
 790 0004 0546     		mov	r5, r0
 791 0006 0C46     		mov	r4, r1
 314:Drivers/BSP/Components/iis2dlpc/iis2dlpc_reg.c ****   iis2dlpc_ctrl1_t ctrl1;
 792              		.loc 1 314 3 is_stmt 1 view .LVU191
 315:Drivers/BSP/Components/iis2dlpc/iis2dlpc_reg.c ****   iis2dlpc_ctrl3_t ctrl3;
 793              		.loc 1 315 3 view .LVU192
 316:Drivers/BSP/Components/iis2dlpc/iis2dlpc_reg.c ****   int32_t ret;
 794              		.loc 1 316 3 view .LVU193
 317:Drivers/BSP/Components/iis2dlpc/iis2dlpc_reg.c **** 
 318:Drivers/BSP/Components/iis2dlpc/iis2dlpc_reg.c ****   ret = iis2dlpc_read_reg(ctx, IIS2DLPC_CTRL1, (uint8_t *) &ctrl1, 1);
 795              		.loc 1 318 3 view .LVU194
 796              		.loc 1 318 9 is_stmt 0 view .LVU195
 797 0008 0123     		movs	r3, #1
 798 000a 01AA     		add	r2, sp, #4
 799 000c 2021     		movs	r1, #32
 800              	.LVL40:
 801              		.loc 1 318 9 view .LVU196
 802 000e FFF7FEFF 		bl	iis2dlpc_read_reg
 803              	.LVL41:
 319:Drivers/BSP/Components/iis2dlpc/iis2dlpc_reg.c **** 
 320:Drivers/BSP/Components/iis2dlpc/iis2dlpc_reg.c ****   if (ret == 0)
 804              		.loc 1 320 3 is_stmt 1 view .LVU197
 805              		.loc 1 320 6 is_stmt 0 view .LVU198
 806 0012 0346     		mov	r3, r0
 807 0014 18B1     		cbz	r0, .L76
 808              	.L73:
ARM GAS  C:\Temp\ccGZlXNO.s 			page 22


 321:Drivers/BSP/Components/iis2dlpc/iis2dlpc_reg.c ****   {
 322:Drivers/BSP/Components/iis2dlpc/iis2dlpc_reg.c ****     ctrl1.odr = (uint8_t) val;
 323:Drivers/BSP/Components/iis2dlpc/iis2dlpc_reg.c ****     ret = iis2dlpc_write_reg(ctx, IIS2DLPC_CTRL1, (uint8_t *) &ctrl1, 1);
 324:Drivers/BSP/Components/iis2dlpc/iis2dlpc_reg.c ****   }
 325:Drivers/BSP/Components/iis2dlpc/iis2dlpc_reg.c **** 
 326:Drivers/BSP/Components/iis2dlpc/iis2dlpc_reg.c ****   if (ret == 0)
 327:Drivers/BSP/Components/iis2dlpc/iis2dlpc_reg.c ****   {
 328:Drivers/BSP/Components/iis2dlpc/iis2dlpc_reg.c ****     ret = iis2dlpc_read_reg(ctx, IIS2DLPC_CTRL3, (uint8_t *) &ctrl3, 1);
 329:Drivers/BSP/Components/iis2dlpc/iis2dlpc_reg.c ****   }
 330:Drivers/BSP/Components/iis2dlpc/iis2dlpc_reg.c **** 
 331:Drivers/BSP/Components/iis2dlpc/iis2dlpc_reg.c ****   if (ret == 0)
 809              		.loc 1 331 3 is_stmt 1 view .LVU199
 810              		.loc 1 331 6 is_stmt 0 view .LVU200
 811 0016 CBB1     		cbz	r3, .L77
 812              	.L72:
 332:Drivers/BSP/Components/iis2dlpc/iis2dlpc_reg.c ****   {
 333:Drivers/BSP/Components/iis2dlpc/iis2dlpc_reg.c ****     ctrl3.slp_mode = ((uint8_t) val & 0x30U) >> 4;
 334:Drivers/BSP/Components/iis2dlpc/iis2dlpc_reg.c ****     ret = iis2dlpc_write_reg(ctx, IIS2DLPC_CTRL3, (uint8_t *) &ctrl3, 1);
 335:Drivers/BSP/Components/iis2dlpc/iis2dlpc_reg.c ****   }
 336:Drivers/BSP/Components/iis2dlpc/iis2dlpc_reg.c **** 
 337:Drivers/BSP/Components/iis2dlpc/iis2dlpc_reg.c ****   else
 338:Drivers/BSP/Components/iis2dlpc/iis2dlpc_reg.c ****   {
 339:Drivers/BSP/Components/iis2dlpc/iis2dlpc_reg.c ****     ret = ret;
 340:Drivers/BSP/Components/iis2dlpc/iis2dlpc_reg.c ****   }
 341:Drivers/BSP/Components/iis2dlpc/iis2dlpc_reg.c **** 
 342:Drivers/BSP/Components/iis2dlpc/iis2dlpc_reg.c ****   return ret;
 343:Drivers/BSP/Components/iis2dlpc/iis2dlpc_reg.c **** }
 813              		.loc 1 343 1 view .LVU201
 814 0018 1846     		mov	r0, r3
 815              	.LVL42:
 816              		.loc 1 343 1 view .LVU202
 817 001a 03B0     		add	sp, sp, #12
 818              		.cfi_remember_state
 819              		.cfi_def_cfa_offset 12
 820              		@ sp needed
 821 001c 30BD     		pop	{r4, r5, pc}
 822              	.LVL43:
 823              	.L76:
 824              		.cfi_restore_state
 322:Drivers/BSP/Components/iis2dlpc/iis2dlpc_reg.c ****     ret = iis2dlpc_write_reg(ctx, IIS2DLPC_CTRL1, (uint8_t *) &ctrl1, 1);
 825              		.loc 1 322 5 is_stmt 1 view .LVU203
 322:Drivers/BSP/Components/iis2dlpc/iis2dlpc_reg.c ****     ret = iis2dlpc_write_reg(ctx, IIS2DLPC_CTRL1, (uint8_t *) &ctrl1, 1);
 826              		.loc 1 322 15 is_stmt 0 view .LVU204
 827 001e 9DF80430 		ldrb	r3, [sp, #4]	@ zero_extendqisi2
 828 0022 64F30713 		bfi	r3, r4, #4, #4
 829 0026 8DF80430 		strb	r3, [sp, #4]
 323:Drivers/BSP/Components/iis2dlpc/iis2dlpc_reg.c ****   }
 830              		.loc 1 323 5 is_stmt 1 view .LVU205
 323:Drivers/BSP/Components/iis2dlpc/iis2dlpc_reg.c ****   }
 831              		.loc 1 323 11 is_stmt 0 view .LVU206
 832 002a 0123     		movs	r3, #1
 833 002c 01AA     		add	r2, sp, #4
 834 002e 2021     		movs	r1, #32
 835 0030 2846     		mov	r0, r5
 836              	.LVL44:
 323:Drivers/BSP/Components/iis2dlpc/iis2dlpc_reg.c ****   }
 837              		.loc 1 323 11 view .LVU207
ARM GAS  C:\Temp\ccGZlXNO.s 			page 23


 838 0032 FFF7FEFF 		bl	iis2dlpc_write_reg
 839              	.LVL45:
 326:Drivers/BSP/Components/iis2dlpc/iis2dlpc_reg.c ****   {
 840              		.loc 1 326 3 is_stmt 1 view .LVU208
 326:Drivers/BSP/Components/iis2dlpc/iis2dlpc_reg.c ****   {
 841              		.loc 1 326 6 is_stmt 0 view .LVU209
 842 0036 0346     		mov	r3, r0
 843 0038 0028     		cmp	r0, #0
 844 003a EDD1     		bne	.L72
 328:Drivers/BSP/Components/iis2dlpc/iis2dlpc_reg.c ****   }
 845              		.loc 1 328 5 is_stmt 1 view .LVU210
 328:Drivers/BSP/Components/iis2dlpc/iis2dlpc_reg.c ****   }
 846              		.loc 1 328 11 is_stmt 0 view .LVU211
 847 003c 0123     		movs	r3, #1
 848 003e 6A46     		mov	r2, sp
 849 0040 2221     		movs	r1, #34
 850 0042 2846     		mov	r0, r5
 851              	.LVL46:
 328:Drivers/BSP/Components/iis2dlpc/iis2dlpc_reg.c ****   }
 852              		.loc 1 328 11 view .LVU212
 853 0044 FFF7FEFF 		bl	iis2dlpc_read_reg
 854              	.LVL47:
 855 0048 0346     		mov	r3, r0
 856              	.LVL48:
 328:Drivers/BSP/Components/iis2dlpc/iis2dlpc_reg.c ****   }
 857              		.loc 1 328 11 view .LVU213
 858 004a E4E7     		b	.L73
 859              	.L77:
 333:Drivers/BSP/Components/iis2dlpc/iis2dlpc_reg.c ****     ret = iis2dlpc_write_reg(ctx, IIS2DLPC_CTRL3, (uint8_t *) &ctrl3, 1);
 860              		.loc 1 333 5 is_stmt 1 view .LVU214
 333:Drivers/BSP/Components/iis2dlpc/iis2dlpc_reg.c ****     ret = iis2dlpc_write_reg(ctx, IIS2DLPC_CTRL3, (uint8_t *) &ctrl3, 1);
 861              		.loc 1 333 46 is_stmt 0 view .LVU215
 862 004c C4F30111 		ubfx	r1, r4, #4, #2
 333:Drivers/BSP/Components/iis2dlpc/iis2dlpc_reg.c ****     ret = iis2dlpc_write_reg(ctx, IIS2DLPC_CTRL3, (uint8_t *) &ctrl3, 1);
 863              		.loc 1 333 20 view .LVU216
 864 0050 9DF80030 		ldrb	r3, [sp]	@ zero_extendqisi2
 865 0054 61F30103 		bfi	r3, r1, #0, #2
 866 0058 8DF80030 		strb	r3, [sp]
 334:Drivers/BSP/Components/iis2dlpc/iis2dlpc_reg.c ****   }
 867              		.loc 1 334 5 is_stmt 1 view .LVU217
 334:Drivers/BSP/Components/iis2dlpc/iis2dlpc_reg.c ****   }
 868              		.loc 1 334 11 is_stmt 0 view .LVU218
 869 005c 0123     		movs	r3, #1
 870 005e 6A46     		mov	r2, sp
 871 0060 2221     		movs	r1, #34
 872 0062 2846     		mov	r0, r5
 873              	.LVL49:
 334:Drivers/BSP/Components/iis2dlpc/iis2dlpc_reg.c ****   }
 874              		.loc 1 334 11 view .LVU219
 875 0064 FFF7FEFF 		bl	iis2dlpc_write_reg
 876              	.LVL50:
 877 0068 0346     		mov	r3, r0
 878              	.LVL51:
 342:Drivers/BSP/Components/iis2dlpc/iis2dlpc_reg.c **** }
 879              		.loc 1 342 3 is_stmt 1 view .LVU220
 342:Drivers/BSP/Components/iis2dlpc/iis2dlpc_reg.c **** }
 880              		.loc 1 342 10 is_stmt 0 view .LVU221
ARM GAS  C:\Temp\ccGZlXNO.s 			page 24


 881 006a D5E7     		b	.L72
 882              		.cfi_endproc
 883              	.LFE13:
 885              		.section	.text.iis2dlpc_data_rate_get,"ax",%progbits
 886              		.align	1
 887              		.global	iis2dlpc_data_rate_get
 888              		.syntax unified
 889              		.thumb
 890              		.thumb_func
 892              	iis2dlpc_data_rate_get:
 893              	.LVL52:
 894              	.LFB14:
 344:Drivers/BSP/Components/iis2dlpc/iis2dlpc_reg.c **** 
 345:Drivers/BSP/Components/iis2dlpc/iis2dlpc_reg.c **** /**
 346:Drivers/BSP/Components/iis2dlpc/iis2dlpc_reg.c ****   * @brief  Accelerometer data rate selection.[get]
 347:Drivers/BSP/Components/iis2dlpc/iis2dlpc_reg.c ****   *
 348:Drivers/BSP/Components/iis2dlpc/iis2dlpc_reg.c ****   * @param  ctx      read / write interface definitions
 349:Drivers/BSP/Components/iis2dlpc/iis2dlpc_reg.c ****   * @param  val      Get the values of odr in reg CTRL1
 350:Drivers/BSP/Components/iis2dlpc/iis2dlpc_reg.c ****   * @retval          interface status (MANDATORY: return 0 -> no Error)
 351:Drivers/BSP/Components/iis2dlpc/iis2dlpc_reg.c ****   *
 352:Drivers/BSP/Components/iis2dlpc/iis2dlpc_reg.c ****   */
 353:Drivers/BSP/Components/iis2dlpc/iis2dlpc_reg.c **** int32_t iis2dlpc_data_rate_get(const stmdev_ctx_t *ctx, iis2dlpc_odr_t *val)
 354:Drivers/BSP/Components/iis2dlpc/iis2dlpc_reg.c **** {
 895              		.loc 1 354 1 is_stmt 1 view -0
 896              		.cfi_startproc
 897              		@ args = 0, pretend = 0, frame = 8
 898              		@ frame_needed = 0, uses_anonymous_args = 0
 899              		.loc 1 354 1 is_stmt 0 view .LVU223
 900 0000 30B5     		push	{r4, r5, lr}
 901              		.cfi_def_cfa_offset 12
 902              		.cfi_offset 4, -12
 903              		.cfi_offset 5, -8
 904              		.cfi_offset 14, -4
 905 0002 83B0     		sub	sp, sp, #12
 906              		.cfi_def_cfa_offset 24
 907 0004 0446     		mov	r4, r0
 908 0006 0D46     		mov	r5, r1
 355:Drivers/BSP/Components/iis2dlpc/iis2dlpc_reg.c ****   iis2dlpc_ctrl1_t ctrl1;
 909              		.loc 1 355 3 is_stmt 1 view .LVU224
 356:Drivers/BSP/Components/iis2dlpc/iis2dlpc_reg.c ****   iis2dlpc_ctrl3_t ctrl3;
 910              		.loc 1 356 3 view .LVU225
 357:Drivers/BSP/Components/iis2dlpc/iis2dlpc_reg.c ****   int32_t ret;
 911              		.loc 1 357 3 view .LVU226
 358:Drivers/BSP/Components/iis2dlpc/iis2dlpc_reg.c **** 
 359:Drivers/BSP/Components/iis2dlpc/iis2dlpc_reg.c ****   ret = iis2dlpc_read_reg(ctx, IIS2DLPC_CTRL1, (uint8_t *) &ctrl1, 1);
 912              		.loc 1 359 3 view .LVU227
 913              		.loc 1 359 9 is_stmt 0 view .LVU228
 914 0008 0123     		movs	r3, #1
 915 000a 01AA     		add	r2, sp, #4
 916 000c 2021     		movs	r1, #32
 917              	.LVL53:
 918              		.loc 1 359 9 view .LVU229
 919 000e FFF7FEFF 		bl	iis2dlpc_read_reg
 920              	.LVL54:
 360:Drivers/BSP/Components/iis2dlpc/iis2dlpc_reg.c **** 
 361:Drivers/BSP/Components/iis2dlpc/iis2dlpc_reg.c ****   if (ret == 0)
 921              		.loc 1 361 3 is_stmt 1 view .LVU230
ARM GAS  C:\Temp\ccGZlXNO.s 			page 25


 922              		.loc 1 361 6 is_stmt 0 view .LVU231
 923 0012 08B1     		cbz	r0, .L95
 924              	.LVL55:
 925              	.L78:
 362:Drivers/BSP/Components/iis2dlpc/iis2dlpc_reg.c ****   {
 363:Drivers/BSP/Components/iis2dlpc/iis2dlpc_reg.c ****     ret = iis2dlpc_read_reg(ctx, IIS2DLPC_CTRL3, (uint8_t *) &ctrl3, 1);
 364:Drivers/BSP/Components/iis2dlpc/iis2dlpc_reg.c **** 
 365:Drivers/BSP/Components/iis2dlpc/iis2dlpc_reg.c ****     switch ((ctrl3.slp_mode << 4) + ctrl1.odr)
 366:Drivers/BSP/Components/iis2dlpc/iis2dlpc_reg.c ****     {
 367:Drivers/BSP/Components/iis2dlpc/iis2dlpc_reg.c ****       case IIS2DLPC_XL_ODR_OFF:
 368:Drivers/BSP/Components/iis2dlpc/iis2dlpc_reg.c ****         *val = IIS2DLPC_XL_ODR_OFF;
 369:Drivers/BSP/Components/iis2dlpc/iis2dlpc_reg.c ****         break;
 370:Drivers/BSP/Components/iis2dlpc/iis2dlpc_reg.c **** 
 371:Drivers/BSP/Components/iis2dlpc/iis2dlpc_reg.c ****       case IIS2DLPC_XL_ODR_1Hz6_LP_ONLY:
 372:Drivers/BSP/Components/iis2dlpc/iis2dlpc_reg.c ****         *val = IIS2DLPC_XL_ODR_1Hz6_LP_ONLY;
 373:Drivers/BSP/Components/iis2dlpc/iis2dlpc_reg.c ****         break;
 374:Drivers/BSP/Components/iis2dlpc/iis2dlpc_reg.c **** 
 375:Drivers/BSP/Components/iis2dlpc/iis2dlpc_reg.c ****       case IIS2DLPC_XL_ODR_12Hz5:
 376:Drivers/BSP/Components/iis2dlpc/iis2dlpc_reg.c ****         *val = IIS2DLPC_XL_ODR_12Hz5;
 377:Drivers/BSP/Components/iis2dlpc/iis2dlpc_reg.c ****         break;
 378:Drivers/BSP/Components/iis2dlpc/iis2dlpc_reg.c **** 
 379:Drivers/BSP/Components/iis2dlpc/iis2dlpc_reg.c ****       case IIS2DLPC_XL_ODR_25Hz:
 380:Drivers/BSP/Components/iis2dlpc/iis2dlpc_reg.c ****         *val = IIS2DLPC_XL_ODR_25Hz;
 381:Drivers/BSP/Components/iis2dlpc/iis2dlpc_reg.c ****         break;
 382:Drivers/BSP/Components/iis2dlpc/iis2dlpc_reg.c **** 
 383:Drivers/BSP/Components/iis2dlpc/iis2dlpc_reg.c ****       case IIS2DLPC_XL_ODR_50Hz:
 384:Drivers/BSP/Components/iis2dlpc/iis2dlpc_reg.c ****         *val = IIS2DLPC_XL_ODR_50Hz;
 385:Drivers/BSP/Components/iis2dlpc/iis2dlpc_reg.c ****         break;
 386:Drivers/BSP/Components/iis2dlpc/iis2dlpc_reg.c **** 
 387:Drivers/BSP/Components/iis2dlpc/iis2dlpc_reg.c ****       case IIS2DLPC_XL_ODR_100Hz:
 388:Drivers/BSP/Components/iis2dlpc/iis2dlpc_reg.c ****         *val = IIS2DLPC_XL_ODR_100Hz;
 389:Drivers/BSP/Components/iis2dlpc/iis2dlpc_reg.c ****         break;
 390:Drivers/BSP/Components/iis2dlpc/iis2dlpc_reg.c **** 
 391:Drivers/BSP/Components/iis2dlpc/iis2dlpc_reg.c ****       case IIS2DLPC_XL_ODR_200Hz:
 392:Drivers/BSP/Components/iis2dlpc/iis2dlpc_reg.c ****         *val = IIS2DLPC_XL_ODR_200Hz;
 393:Drivers/BSP/Components/iis2dlpc/iis2dlpc_reg.c ****         break;
 394:Drivers/BSP/Components/iis2dlpc/iis2dlpc_reg.c **** 
 395:Drivers/BSP/Components/iis2dlpc/iis2dlpc_reg.c ****       case IIS2DLPC_XL_ODR_400Hz:
 396:Drivers/BSP/Components/iis2dlpc/iis2dlpc_reg.c ****         *val = IIS2DLPC_XL_ODR_400Hz;
 397:Drivers/BSP/Components/iis2dlpc/iis2dlpc_reg.c ****         break;
 398:Drivers/BSP/Components/iis2dlpc/iis2dlpc_reg.c **** 
 399:Drivers/BSP/Components/iis2dlpc/iis2dlpc_reg.c ****       case IIS2DLPC_XL_ODR_800Hz:
 400:Drivers/BSP/Components/iis2dlpc/iis2dlpc_reg.c ****         *val = IIS2DLPC_XL_ODR_800Hz;
 401:Drivers/BSP/Components/iis2dlpc/iis2dlpc_reg.c ****         break;
 402:Drivers/BSP/Components/iis2dlpc/iis2dlpc_reg.c **** 
 403:Drivers/BSP/Components/iis2dlpc/iis2dlpc_reg.c ****       case IIS2DLPC_XL_ODR_1k6Hz:
 404:Drivers/BSP/Components/iis2dlpc/iis2dlpc_reg.c ****         *val = IIS2DLPC_XL_ODR_1k6Hz;
 405:Drivers/BSP/Components/iis2dlpc/iis2dlpc_reg.c ****         break;
 406:Drivers/BSP/Components/iis2dlpc/iis2dlpc_reg.c **** 
 407:Drivers/BSP/Components/iis2dlpc/iis2dlpc_reg.c ****       case IIS2DLPC_XL_SET_SW_TRIG:
 408:Drivers/BSP/Components/iis2dlpc/iis2dlpc_reg.c ****         *val = IIS2DLPC_XL_SET_SW_TRIG;
 409:Drivers/BSP/Components/iis2dlpc/iis2dlpc_reg.c ****         break;
 410:Drivers/BSP/Components/iis2dlpc/iis2dlpc_reg.c **** 
 411:Drivers/BSP/Components/iis2dlpc/iis2dlpc_reg.c ****       case IIS2DLPC_XL_SET_PIN_TRIG:
 412:Drivers/BSP/Components/iis2dlpc/iis2dlpc_reg.c ****         *val = IIS2DLPC_XL_SET_PIN_TRIG;
 413:Drivers/BSP/Components/iis2dlpc/iis2dlpc_reg.c ****         break;
 414:Drivers/BSP/Components/iis2dlpc/iis2dlpc_reg.c **** 
ARM GAS  C:\Temp\ccGZlXNO.s 			page 26


 415:Drivers/BSP/Components/iis2dlpc/iis2dlpc_reg.c ****       default:
 416:Drivers/BSP/Components/iis2dlpc/iis2dlpc_reg.c ****         *val = IIS2DLPC_XL_ODR_OFF;
 417:Drivers/BSP/Components/iis2dlpc/iis2dlpc_reg.c ****         break;
 418:Drivers/BSP/Components/iis2dlpc/iis2dlpc_reg.c ****     }
 419:Drivers/BSP/Components/iis2dlpc/iis2dlpc_reg.c ****   }
 420:Drivers/BSP/Components/iis2dlpc/iis2dlpc_reg.c **** 
 421:Drivers/BSP/Components/iis2dlpc/iis2dlpc_reg.c ****   return ret;
 422:Drivers/BSP/Components/iis2dlpc/iis2dlpc_reg.c **** }
 926              		.loc 1 422 1 view .LVU232
 927 0014 03B0     		add	sp, sp, #12
 928              		.cfi_remember_state
 929              		.cfi_def_cfa_offset 12
 930              		@ sp needed
 931 0016 30BD     		pop	{r4, r5, pc}
 932              	.LVL56:
 933              	.L95:
 934              		.cfi_restore_state
 363:Drivers/BSP/Components/iis2dlpc/iis2dlpc_reg.c **** 
 935              		.loc 1 363 5 is_stmt 1 view .LVU233
 363:Drivers/BSP/Components/iis2dlpc/iis2dlpc_reg.c **** 
 936              		.loc 1 363 11 is_stmt 0 view .LVU234
 937 0018 0123     		movs	r3, #1
 938              	.LVL57:
 363:Drivers/BSP/Components/iis2dlpc/iis2dlpc_reg.c **** 
 939              		.loc 1 363 11 view .LVU235
 940 001a 6A46     		mov	r2, sp
 941 001c 2221     		movs	r1, #34
 942 001e 2046     		mov	r0, r4
 943 0020 FFF7FEFF 		bl	iis2dlpc_read_reg
 944              	.LVL58:
 365:Drivers/BSP/Components/iis2dlpc/iis2dlpc_reg.c ****     {
 945              		.loc 1 365 5 is_stmt 1 view .LVU236
 365:Drivers/BSP/Components/iis2dlpc/iis2dlpc_reg.c ****     {
 946              		.loc 1 365 19 is_stmt 0 view .LVU237
 947 0024 9DF80020 		ldrb	r2, [sp]	@ zero_extendqisi2
 948 0028 02F00302 		and	r2, r2, #3
 365:Drivers/BSP/Components/iis2dlpc/iis2dlpc_reg.c ****     {
 949              		.loc 1 365 42 view .LVU238
 950 002c 9DF80430 		ldrb	r3, [sp, #4]	@ zero_extendqisi2
 951 0030 1B09     		lsrs	r3, r3, #4
 365:Drivers/BSP/Components/iis2dlpc/iis2dlpc_reg.c ****     {
 952              		.loc 1 365 35 view .LVU239
 953 0032 03EB0213 		add	r3, r3, r2, lsl #4
 365:Drivers/BSP/Components/iis2dlpc/iis2dlpc_reg.c ****     {
 954              		.loc 1 365 5 view .LVU240
 955 0036 222B     		cmp	r3, #34
 956 0038 37D8     		bhi	.L80
 957 003a DFE803F0 		tbb	[pc, r3]
 958              	.L82:
 959 003e 12       		.byte	(.L93-.L82)/2
 960 003f 15       		.byte	(.L92-.L82)/2
 961 0040 18       		.byte	(.L91-.L82)/2
 962 0041 1B       		.byte	(.L90-.L82)/2
 963 0042 1E       		.byte	(.L89-.L82)/2
 964 0043 21       		.byte	(.L88-.L82)/2
 965 0044 24       		.byte	(.L87-.L82)/2
 966 0045 27       		.byte	(.L86-.L82)/2
ARM GAS  C:\Temp\ccGZlXNO.s 			page 27


 967 0046 2A       		.byte	(.L85-.L82)/2
 968 0047 2D       		.byte	(.L84-.L82)/2
 969 0048 36       		.byte	(.L80-.L82)/2
 970 0049 36       		.byte	(.L80-.L82)/2
 971 004a 36       		.byte	(.L80-.L82)/2
 972 004b 36       		.byte	(.L80-.L82)/2
 973 004c 36       		.byte	(.L80-.L82)/2
 974 004d 36       		.byte	(.L80-.L82)/2
 975 004e 36       		.byte	(.L80-.L82)/2
 976 004f 36       		.byte	(.L80-.L82)/2
 977 0050 30       		.byte	(.L83-.L82)/2
 978 0051 36       		.byte	(.L80-.L82)/2
 979 0052 36       		.byte	(.L80-.L82)/2
 980 0053 36       		.byte	(.L80-.L82)/2
 981 0054 36       		.byte	(.L80-.L82)/2
 982 0055 36       		.byte	(.L80-.L82)/2
 983 0056 36       		.byte	(.L80-.L82)/2
 984 0057 36       		.byte	(.L80-.L82)/2
 985 0058 36       		.byte	(.L80-.L82)/2
 986 0059 36       		.byte	(.L80-.L82)/2
 987 005a 36       		.byte	(.L80-.L82)/2
 988 005b 36       		.byte	(.L80-.L82)/2
 989 005c 36       		.byte	(.L80-.L82)/2
 990 005d 36       		.byte	(.L80-.L82)/2
 991 005e 36       		.byte	(.L80-.L82)/2
 992 005f 36       		.byte	(.L80-.L82)/2
 993 0060 33       		.byte	(.L81-.L82)/2
 994 0061 00       		.p2align 1
 995              	.L93:
 368:Drivers/BSP/Components/iis2dlpc/iis2dlpc_reg.c ****         break;
 996              		.loc 1 368 9 is_stmt 1 view .LVU241
 368:Drivers/BSP/Components/iis2dlpc/iis2dlpc_reg.c ****         break;
 997              		.loc 1 368 14 is_stmt 0 view .LVU242
 998 0062 0023     		movs	r3, #0
 999 0064 2B70     		strb	r3, [r5]
 369:Drivers/BSP/Components/iis2dlpc/iis2dlpc_reg.c **** 
 1000              		.loc 1 369 9 is_stmt 1 view .LVU243
 1001 0066 D5E7     		b	.L78
 1002              	.L92:
 372:Drivers/BSP/Components/iis2dlpc/iis2dlpc_reg.c ****         break;
 1003              		.loc 1 372 9 view .LVU244
 372:Drivers/BSP/Components/iis2dlpc/iis2dlpc_reg.c ****         break;
 1004              		.loc 1 372 14 is_stmt 0 view .LVU245
 1005 0068 0123     		movs	r3, #1
 1006 006a 2B70     		strb	r3, [r5]
 373:Drivers/BSP/Components/iis2dlpc/iis2dlpc_reg.c **** 
 1007              		.loc 1 373 9 is_stmt 1 view .LVU246
 1008 006c D2E7     		b	.L78
 1009              	.L91:
 376:Drivers/BSP/Components/iis2dlpc/iis2dlpc_reg.c ****         break;
 1010              		.loc 1 376 9 view .LVU247
 376:Drivers/BSP/Components/iis2dlpc/iis2dlpc_reg.c ****         break;
 1011              		.loc 1 376 14 is_stmt 0 view .LVU248
 1012 006e 0223     		movs	r3, #2
 1013 0070 2B70     		strb	r3, [r5]
 377:Drivers/BSP/Components/iis2dlpc/iis2dlpc_reg.c **** 
 1014              		.loc 1 377 9 is_stmt 1 view .LVU249
ARM GAS  C:\Temp\ccGZlXNO.s 			page 28


 1015 0072 CFE7     		b	.L78
 1016              	.L90:
 380:Drivers/BSP/Components/iis2dlpc/iis2dlpc_reg.c ****         break;
 1017              		.loc 1 380 9 view .LVU250
 380:Drivers/BSP/Components/iis2dlpc/iis2dlpc_reg.c ****         break;
 1018              		.loc 1 380 14 is_stmt 0 view .LVU251
 1019 0074 0323     		movs	r3, #3
 1020 0076 2B70     		strb	r3, [r5]
 381:Drivers/BSP/Components/iis2dlpc/iis2dlpc_reg.c **** 
 1021              		.loc 1 381 9 is_stmt 1 view .LVU252
 1022 0078 CCE7     		b	.L78
 1023              	.L89:
 384:Drivers/BSP/Components/iis2dlpc/iis2dlpc_reg.c ****         break;
 1024              		.loc 1 384 9 view .LVU253
 384:Drivers/BSP/Components/iis2dlpc/iis2dlpc_reg.c ****         break;
 1025              		.loc 1 384 14 is_stmt 0 view .LVU254
 1026 007a 0423     		movs	r3, #4
 1027 007c 2B70     		strb	r3, [r5]
 385:Drivers/BSP/Components/iis2dlpc/iis2dlpc_reg.c **** 
 1028              		.loc 1 385 9 is_stmt 1 view .LVU255
 1029 007e C9E7     		b	.L78
 1030              	.L88:
 388:Drivers/BSP/Components/iis2dlpc/iis2dlpc_reg.c ****         break;
 1031              		.loc 1 388 9 view .LVU256
 388:Drivers/BSP/Components/iis2dlpc/iis2dlpc_reg.c ****         break;
 1032              		.loc 1 388 14 is_stmt 0 view .LVU257
 1033 0080 0523     		movs	r3, #5
 1034 0082 2B70     		strb	r3, [r5]
 389:Drivers/BSP/Components/iis2dlpc/iis2dlpc_reg.c **** 
 1035              		.loc 1 389 9 is_stmt 1 view .LVU258
 1036 0084 C6E7     		b	.L78
 1037              	.L87:
 392:Drivers/BSP/Components/iis2dlpc/iis2dlpc_reg.c ****         break;
 1038              		.loc 1 392 9 view .LVU259
 392:Drivers/BSP/Components/iis2dlpc/iis2dlpc_reg.c ****         break;
 1039              		.loc 1 392 14 is_stmt 0 view .LVU260
 1040 0086 0623     		movs	r3, #6
 1041 0088 2B70     		strb	r3, [r5]
 393:Drivers/BSP/Components/iis2dlpc/iis2dlpc_reg.c **** 
 1042              		.loc 1 393 9 is_stmt 1 view .LVU261
 1043 008a C3E7     		b	.L78
 1044              	.L86:
 396:Drivers/BSP/Components/iis2dlpc/iis2dlpc_reg.c ****         break;
 1045              		.loc 1 396 9 view .LVU262
 396:Drivers/BSP/Components/iis2dlpc/iis2dlpc_reg.c ****         break;
 1046              		.loc 1 396 14 is_stmt 0 view .LVU263
 1047 008c 0723     		movs	r3, #7
 1048 008e 2B70     		strb	r3, [r5]
 397:Drivers/BSP/Components/iis2dlpc/iis2dlpc_reg.c **** 
 1049              		.loc 1 397 9 is_stmt 1 view .LVU264
 1050 0090 C0E7     		b	.L78
 1051              	.L85:
 400:Drivers/BSP/Components/iis2dlpc/iis2dlpc_reg.c ****         break;
 1052              		.loc 1 400 9 view .LVU265
 400:Drivers/BSP/Components/iis2dlpc/iis2dlpc_reg.c ****         break;
 1053              		.loc 1 400 14 is_stmt 0 view .LVU266
 1054 0092 0823     		movs	r3, #8
ARM GAS  C:\Temp\ccGZlXNO.s 			page 29


 1055 0094 2B70     		strb	r3, [r5]
 401:Drivers/BSP/Components/iis2dlpc/iis2dlpc_reg.c **** 
 1056              		.loc 1 401 9 is_stmt 1 view .LVU267
 1057 0096 BDE7     		b	.L78
 1058              	.L84:
 404:Drivers/BSP/Components/iis2dlpc/iis2dlpc_reg.c ****         break;
 1059              		.loc 1 404 9 view .LVU268
 404:Drivers/BSP/Components/iis2dlpc/iis2dlpc_reg.c ****         break;
 1060              		.loc 1 404 14 is_stmt 0 view .LVU269
 1061 0098 0923     		movs	r3, #9
 1062 009a 2B70     		strb	r3, [r5]
 405:Drivers/BSP/Components/iis2dlpc/iis2dlpc_reg.c **** 
 1063              		.loc 1 405 9 is_stmt 1 view .LVU270
 1064 009c BAE7     		b	.L78
 1065              	.L83:
 408:Drivers/BSP/Components/iis2dlpc/iis2dlpc_reg.c ****         break;
 1066              		.loc 1 408 9 view .LVU271
 408:Drivers/BSP/Components/iis2dlpc/iis2dlpc_reg.c ****         break;
 1067              		.loc 1 408 14 is_stmt 0 view .LVU272
 1068 009e 1223     		movs	r3, #18
 1069 00a0 2B70     		strb	r3, [r5]
 409:Drivers/BSP/Components/iis2dlpc/iis2dlpc_reg.c **** 
 1070              		.loc 1 409 9 is_stmt 1 view .LVU273
 1071 00a2 B7E7     		b	.L78
 1072              	.L81:
 412:Drivers/BSP/Components/iis2dlpc/iis2dlpc_reg.c ****         break;
 1073              		.loc 1 412 9 view .LVU274
 412:Drivers/BSP/Components/iis2dlpc/iis2dlpc_reg.c ****         break;
 1074              		.loc 1 412 14 is_stmt 0 view .LVU275
 1075 00a4 2223     		movs	r3, #34
 1076 00a6 2B70     		strb	r3, [r5]
 413:Drivers/BSP/Components/iis2dlpc/iis2dlpc_reg.c **** 
 1077              		.loc 1 413 9 is_stmt 1 view .LVU276
 1078 00a8 B4E7     		b	.L78
 1079              	.L80:
 416:Drivers/BSP/Components/iis2dlpc/iis2dlpc_reg.c ****         break;
 1080              		.loc 1 416 9 view .LVU277
 416:Drivers/BSP/Components/iis2dlpc/iis2dlpc_reg.c ****         break;
 1081              		.loc 1 416 14 is_stmt 0 view .LVU278
 1082 00aa 0023     		movs	r3, #0
 1083 00ac 2B70     		strb	r3, [r5]
 417:Drivers/BSP/Components/iis2dlpc/iis2dlpc_reg.c ****     }
 1084              		.loc 1 417 9 is_stmt 1 view .LVU279
 421:Drivers/BSP/Components/iis2dlpc/iis2dlpc_reg.c **** }
 1085              		.loc 1 421 3 view .LVU280
 421:Drivers/BSP/Components/iis2dlpc/iis2dlpc_reg.c **** }
 1086              		.loc 1 421 10 is_stmt 0 view .LVU281
 1087 00ae B1E7     		b	.L78
 1088              		.cfi_endproc
 1089              	.LFE14:
 1091              		.section	.text.iis2dlpc_block_data_update_set,"ax",%progbits
 1092              		.align	1
 1093              		.global	iis2dlpc_block_data_update_set
 1094              		.syntax unified
 1095              		.thumb
 1096              		.thumb_func
 1098              	iis2dlpc_block_data_update_set:
ARM GAS  C:\Temp\ccGZlXNO.s 			page 30


 1099              	.LVL59:
 1100              	.LFB15:
 423:Drivers/BSP/Components/iis2dlpc/iis2dlpc_reg.c **** 
 424:Drivers/BSP/Components/iis2dlpc/iis2dlpc_reg.c **** /**
 425:Drivers/BSP/Components/iis2dlpc/iis2dlpc_reg.c ****   * @brief  Block data update.[set]
 426:Drivers/BSP/Components/iis2dlpc/iis2dlpc_reg.c ****   *
 427:Drivers/BSP/Components/iis2dlpc/iis2dlpc_reg.c ****   * @param  ctx      read / write interface definitions
 428:Drivers/BSP/Components/iis2dlpc/iis2dlpc_reg.c ****   * @param  val      change the values of bdu in reg CTRL2
 429:Drivers/BSP/Components/iis2dlpc/iis2dlpc_reg.c ****   * @retval          interface status (MANDATORY: return 0 -> no Error)
 430:Drivers/BSP/Components/iis2dlpc/iis2dlpc_reg.c ****   *
 431:Drivers/BSP/Components/iis2dlpc/iis2dlpc_reg.c ****   */
 432:Drivers/BSP/Components/iis2dlpc/iis2dlpc_reg.c **** int32_t iis2dlpc_block_data_update_set(const stmdev_ctx_t *ctx, uint8_t val)
 433:Drivers/BSP/Components/iis2dlpc/iis2dlpc_reg.c **** {
 1101              		.loc 1 433 1 is_stmt 1 view -0
 1102              		.cfi_startproc
 1103              		@ args = 0, pretend = 0, frame = 8
 1104              		@ frame_needed = 0, uses_anonymous_args = 0
 1105              		.loc 1 433 1 is_stmt 0 view .LVU283
 1106 0000 30B5     		push	{r4, r5, lr}
 1107              		.cfi_def_cfa_offset 12
 1108              		.cfi_offset 4, -12
 1109              		.cfi_offset 5, -8
 1110              		.cfi_offset 14, -4
 1111 0002 83B0     		sub	sp, sp, #12
 1112              		.cfi_def_cfa_offset 24
 1113 0004 0446     		mov	r4, r0
 1114 0006 0D46     		mov	r5, r1
 434:Drivers/BSP/Components/iis2dlpc/iis2dlpc_reg.c ****   iis2dlpc_ctrl2_t reg;
 1115              		.loc 1 434 3 is_stmt 1 view .LVU284
 435:Drivers/BSP/Components/iis2dlpc/iis2dlpc_reg.c ****   int32_t ret;
 1116              		.loc 1 435 3 view .LVU285
 436:Drivers/BSP/Components/iis2dlpc/iis2dlpc_reg.c **** 
 437:Drivers/BSP/Components/iis2dlpc/iis2dlpc_reg.c ****   ret = iis2dlpc_read_reg(ctx, IIS2DLPC_CTRL2, (uint8_t *) &reg, 1);
 1117              		.loc 1 437 3 view .LVU286
 1118              		.loc 1 437 9 is_stmt 0 view .LVU287
 1119 0008 0123     		movs	r3, #1
 1120 000a 01AA     		add	r2, sp, #4
 1121 000c 2121     		movs	r1, #33
 1122              	.LVL60:
 1123              		.loc 1 437 9 view .LVU288
 1124 000e FFF7FEFF 		bl	iis2dlpc_read_reg
 1125              	.LVL61:
 438:Drivers/BSP/Components/iis2dlpc/iis2dlpc_reg.c **** 
 439:Drivers/BSP/Components/iis2dlpc/iis2dlpc_reg.c ****   if (ret == 0)
 1126              		.loc 1 439 3 is_stmt 1 view .LVU289
 1127              		.loc 1 439 6 is_stmt 0 view .LVU290
 1128 0012 08B1     		cbz	r0, .L99
 1129              	.LVL62:
 1130              	.L96:
 440:Drivers/BSP/Components/iis2dlpc/iis2dlpc_reg.c ****   {
 441:Drivers/BSP/Components/iis2dlpc/iis2dlpc_reg.c ****     reg.bdu = val;
 442:Drivers/BSP/Components/iis2dlpc/iis2dlpc_reg.c ****     ret = iis2dlpc_write_reg(ctx, IIS2DLPC_CTRL2, (uint8_t *) &reg, 1);
 443:Drivers/BSP/Components/iis2dlpc/iis2dlpc_reg.c ****   }
 444:Drivers/BSP/Components/iis2dlpc/iis2dlpc_reg.c **** 
 445:Drivers/BSP/Components/iis2dlpc/iis2dlpc_reg.c ****   return ret;
 446:Drivers/BSP/Components/iis2dlpc/iis2dlpc_reg.c **** }
 1131              		.loc 1 446 1 view .LVU291
ARM GAS  C:\Temp\ccGZlXNO.s 			page 31


 1132 0014 03B0     		add	sp, sp, #12
 1133              		.cfi_remember_state
 1134              		.cfi_def_cfa_offset 12
 1135              		@ sp needed
 1136 0016 30BD     		pop	{r4, r5, pc}
 1137              	.LVL63:
 1138              	.L99:
 1139              		.cfi_restore_state
 441:Drivers/BSP/Components/iis2dlpc/iis2dlpc_reg.c ****     ret = iis2dlpc_write_reg(ctx, IIS2DLPC_CTRL2, (uint8_t *) &reg, 1);
 1140              		.loc 1 441 5 is_stmt 1 view .LVU292
 441:Drivers/BSP/Components/iis2dlpc/iis2dlpc_reg.c ****     ret = iis2dlpc_write_reg(ctx, IIS2DLPC_CTRL2, (uint8_t *) &reg, 1);
 1141              		.loc 1 441 13 is_stmt 0 view .LVU293
 1142 0018 9DF80430 		ldrb	r3, [sp, #4]	@ zero_extendqisi2
 1143 001c 65F3C303 		bfi	r3, r5, #3, #1
 1144 0020 8DF80430 		strb	r3, [sp, #4]
 442:Drivers/BSP/Components/iis2dlpc/iis2dlpc_reg.c ****   }
 1145              		.loc 1 442 5 is_stmt 1 view .LVU294
 442:Drivers/BSP/Components/iis2dlpc/iis2dlpc_reg.c ****   }
 1146              		.loc 1 442 11 is_stmt 0 view .LVU295
 1147 0024 0123     		movs	r3, #1
 1148              	.LVL64:
 442:Drivers/BSP/Components/iis2dlpc/iis2dlpc_reg.c ****   }
 1149              		.loc 1 442 11 view .LVU296
 1150 0026 01AA     		add	r2, sp, #4
 1151 0028 2121     		movs	r1, #33
 1152 002a 2046     		mov	r0, r4
 1153 002c FFF7FEFF 		bl	iis2dlpc_write_reg
 1154              	.LVL65:
 445:Drivers/BSP/Components/iis2dlpc/iis2dlpc_reg.c **** }
 1155              		.loc 1 445 3 is_stmt 1 view .LVU297
 445:Drivers/BSP/Components/iis2dlpc/iis2dlpc_reg.c **** }
 1156              		.loc 1 445 10 is_stmt 0 view .LVU298
 1157 0030 F0E7     		b	.L96
 1158              		.cfi_endproc
 1159              	.LFE15:
 1161              		.section	.text.iis2dlpc_block_data_update_get,"ax",%progbits
 1162              		.align	1
 1163              		.global	iis2dlpc_block_data_update_get
 1164              		.syntax unified
 1165              		.thumb
 1166              		.thumb_func
 1168              	iis2dlpc_block_data_update_get:
 1169              	.LVL66:
 1170              	.LFB16:
 447:Drivers/BSP/Components/iis2dlpc/iis2dlpc_reg.c **** 
 448:Drivers/BSP/Components/iis2dlpc/iis2dlpc_reg.c **** /**
 449:Drivers/BSP/Components/iis2dlpc/iis2dlpc_reg.c ****   * @brief  Block data update.[get]
 450:Drivers/BSP/Components/iis2dlpc/iis2dlpc_reg.c ****   *
 451:Drivers/BSP/Components/iis2dlpc/iis2dlpc_reg.c ****   * @param  ctx      read / write interface definitions
 452:Drivers/BSP/Components/iis2dlpc/iis2dlpc_reg.c ****   * @param  val      change the values of bdu in reg CTRL2
 453:Drivers/BSP/Components/iis2dlpc/iis2dlpc_reg.c ****   * @retval          interface status (MANDATORY: return 0 -> no Error)
 454:Drivers/BSP/Components/iis2dlpc/iis2dlpc_reg.c ****   *
 455:Drivers/BSP/Components/iis2dlpc/iis2dlpc_reg.c ****   */
 456:Drivers/BSP/Components/iis2dlpc/iis2dlpc_reg.c **** int32_t iis2dlpc_block_data_update_get(const stmdev_ctx_t *ctx,
 457:Drivers/BSP/Components/iis2dlpc/iis2dlpc_reg.c ****                                        uint8_t *val)
 458:Drivers/BSP/Components/iis2dlpc/iis2dlpc_reg.c **** {
 1171              		.loc 1 458 1 is_stmt 1 view -0
ARM GAS  C:\Temp\ccGZlXNO.s 			page 32


 1172              		.cfi_startproc
 1173              		@ args = 0, pretend = 0, frame = 8
 1174              		@ frame_needed = 0, uses_anonymous_args = 0
 1175              		.loc 1 458 1 is_stmt 0 view .LVU300
 1176 0000 10B5     		push	{r4, lr}
 1177              		.cfi_def_cfa_offset 8
 1178              		.cfi_offset 4, -8
 1179              		.cfi_offset 14, -4
 1180 0002 82B0     		sub	sp, sp, #8
 1181              		.cfi_def_cfa_offset 16
 1182 0004 0C46     		mov	r4, r1
 459:Drivers/BSP/Components/iis2dlpc/iis2dlpc_reg.c ****   iis2dlpc_ctrl2_t reg;
 1183              		.loc 1 459 3 is_stmt 1 view .LVU301
 460:Drivers/BSP/Components/iis2dlpc/iis2dlpc_reg.c ****   int32_t ret;
 1184              		.loc 1 460 3 view .LVU302
 461:Drivers/BSP/Components/iis2dlpc/iis2dlpc_reg.c **** 
 462:Drivers/BSP/Components/iis2dlpc/iis2dlpc_reg.c ****   ret = iis2dlpc_read_reg(ctx, IIS2DLPC_CTRL2, (uint8_t *) &reg, 1);
 1185              		.loc 1 462 3 view .LVU303
 1186              		.loc 1 462 9 is_stmt 0 view .LVU304
 1187 0006 0123     		movs	r3, #1
 1188 0008 01AA     		add	r2, sp, #4
 1189 000a 2121     		movs	r1, #33
 1190              	.LVL67:
 1191              		.loc 1 462 9 view .LVU305
 1192 000c FFF7FEFF 		bl	iis2dlpc_read_reg
 1193              	.LVL68:
 463:Drivers/BSP/Components/iis2dlpc/iis2dlpc_reg.c ****   *val = reg.bdu;
 1194              		.loc 1 463 3 is_stmt 1 view .LVU306
 1195              		.loc 1 463 13 is_stmt 0 view .LVU307
 1196 0010 9DF80430 		ldrb	r3, [sp, #4]	@ zero_extendqisi2
 1197 0014 C3F3C003 		ubfx	r3, r3, #3, #1
 1198              		.loc 1 463 8 view .LVU308
 1199 0018 2370     		strb	r3, [r4]
 464:Drivers/BSP/Components/iis2dlpc/iis2dlpc_reg.c **** 
 465:Drivers/BSP/Components/iis2dlpc/iis2dlpc_reg.c ****   return ret;
 1200              		.loc 1 465 3 is_stmt 1 view .LVU309
 466:Drivers/BSP/Components/iis2dlpc/iis2dlpc_reg.c **** }
 1201              		.loc 1 466 1 is_stmt 0 view .LVU310
 1202 001a 02B0     		add	sp, sp, #8
 1203              		.cfi_def_cfa_offset 8
 1204              		@ sp needed
 1205 001c 10BD     		pop	{r4, pc}
 1206              		.loc 1 466 1 view .LVU311
 1207              		.cfi_endproc
 1208              	.LFE16:
 1210              		.section	.text.iis2dlpc_full_scale_set,"ax",%progbits
 1211              		.align	1
 1212              		.global	iis2dlpc_full_scale_set
 1213              		.syntax unified
 1214              		.thumb
 1215              		.thumb_func
 1217              	iis2dlpc_full_scale_set:
 1218              	.LVL69:
 1219              	.LFB17:
 467:Drivers/BSP/Components/iis2dlpc/iis2dlpc_reg.c **** 
 468:Drivers/BSP/Components/iis2dlpc/iis2dlpc_reg.c **** /**
 469:Drivers/BSP/Components/iis2dlpc/iis2dlpc_reg.c ****   * @brief  Accelerometer full-scale selection.[set]
ARM GAS  C:\Temp\ccGZlXNO.s 			page 33


 470:Drivers/BSP/Components/iis2dlpc/iis2dlpc_reg.c ****   *
 471:Drivers/BSP/Components/iis2dlpc/iis2dlpc_reg.c ****   * @param  ctx      read / write interface definitions
 472:Drivers/BSP/Components/iis2dlpc/iis2dlpc_reg.c ****   * @param  val      change the values of fs in reg CTRL6
 473:Drivers/BSP/Components/iis2dlpc/iis2dlpc_reg.c ****   * @retval          interface status (MANDATORY: return 0 -> no Error)
 474:Drivers/BSP/Components/iis2dlpc/iis2dlpc_reg.c ****   *
 475:Drivers/BSP/Components/iis2dlpc/iis2dlpc_reg.c ****   */
 476:Drivers/BSP/Components/iis2dlpc/iis2dlpc_reg.c **** int32_t iis2dlpc_full_scale_set(const stmdev_ctx_t *ctx, iis2dlpc_fs_t val)
 477:Drivers/BSP/Components/iis2dlpc/iis2dlpc_reg.c **** {
 1220              		.loc 1 477 1 is_stmt 1 view -0
 1221              		.cfi_startproc
 1222              		@ args = 0, pretend = 0, frame = 8
 1223              		@ frame_needed = 0, uses_anonymous_args = 0
 1224              		.loc 1 477 1 is_stmt 0 view .LVU313
 1225 0000 30B5     		push	{r4, r5, lr}
 1226              		.cfi_def_cfa_offset 12
 1227              		.cfi_offset 4, -12
 1228              		.cfi_offset 5, -8
 1229              		.cfi_offset 14, -4
 1230 0002 83B0     		sub	sp, sp, #12
 1231              		.cfi_def_cfa_offset 24
 1232 0004 0446     		mov	r4, r0
 1233 0006 0D46     		mov	r5, r1
 478:Drivers/BSP/Components/iis2dlpc/iis2dlpc_reg.c ****   iis2dlpc_ctrl6_t reg;
 1234              		.loc 1 478 3 is_stmt 1 view .LVU314
 479:Drivers/BSP/Components/iis2dlpc/iis2dlpc_reg.c ****   int32_t ret;
 1235              		.loc 1 479 3 view .LVU315
 480:Drivers/BSP/Components/iis2dlpc/iis2dlpc_reg.c **** 
 481:Drivers/BSP/Components/iis2dlpc/iis2dlpc_reg.c ****   ret = iis2dlpc_read_reg(ctx, IIS2DLPC_CTRL6, (uint8_t *) &reg, 1);
 1236              		.loc 1 481 3 view .LVU316
 1237              		.loc 1 481 9 is_stmt 0 view .LVU317
 1238 0008 0123     		movs	r3, #1
 1239 000a 01AA     		add	r2, sp, #4
 1240 000c 2521     		movs	r1, #37
 1241              	.LVL70:
 1242              		.loc 1 481 9 view .LVU318
 1243 000e FFF7FEFF 		bl	iis2dlpc_read_reg
 1244              	.LVL71:
 482:Drivers/BSP/Components/iis2dlpc/iis2dlpc_reg.c **** 
 483:Drivers/BSP/Components/iis2dlpc/iis2dlpc_reg.c ****   if (ret == 0)
 1245              		.loc 1 483 3 is_stmt 1 view .LVU319
 1246              		.loc 1 483 6 is_stmt 0 view .LVU320
 1247 0012 08B1     		cbz	r0, .L105
 1248              	.LVL72:
 1249              	.L102:
 484:Drivers/BSP/Components/iis2dlpc/iis2dlpc_reg.c ****   {
 485:Drivers/BSP/Components/iis2dlpc/iis2dlpc_reg.c ****     reg.fs = (uint8_t) val;
 486:Drivers/BSP/Components/iis2dlpc/iis2dlpc_reg.c ****     ret = iis2dlpc_write_reg(ctx, IIS2DLPC_CTRL6, (uint8_t *) &reg, 1);
 487:Drivers/BSP/Components/iis2dlpc/iis2dlpc_reg.c ****   }
 488:Drivers/BSP/Components/iis2dlpc/iis2dlpc_reg.c **** 
 489:Drivers/BSP/Components/iis2dlpc/iis2dlpc_reg.c ****   return ret;
 490:Drivers/BSP/Components/iis2dlpc/iis2dlpc_reg.c **** }
 1250              		.loc 1 490 1 view .LVU321
 1251 0014 03B0     		add	sp, sp, #12
 1252              		.cfi_remember_state
 1253              		.cfi_def_cfa_offset 12
 1254              		@ sp needed
 1255 0016 30BD     		pop	{r4, r5, pc}
ARM GAS  C:\Temp\ccGZlXNO.s 			page 34


 1256              	.LVL73:
 1257              	.L105:
 1258              		.cfi_restore_state
 485:Drivers/BSP/Components/iis2dlpc/iis2dlpc_reg.c ****     ret = iis2dlpc_write_reg(ctx, IIS2DLPC_CTRL6, (uint8_t *) &reg, 1);
 1259              		.loc 1 485 5 is_stmt 1 view .LVU322
 485:Drivers/BSP/Components/iis2dlpc/iis2dlpc_reg.c ****     ret = iis2dlpc_write_reg(ctx, IIS2DLPC_CTRL6, (uint8_t *) &reg, 1);
 1260              		.loc 1 485 12 is_stmt 0 view .LVU323
 1261 0018 9DF80430 		ldrb	r3, [sp, #4]	@ zero_extendqisi2
 1262 001c 65F30513 		bfi	r3, r5, #4, #2
 1263 0020 8DF80430 		strb	r3, [sp, #4]
 486:Drivers/BSP/Components/iis2dlpc/iis2dlpc_reg.c ****   }
 1264              		.loc 1 486 5 is_stmt 1 view .LVU324
 486:Drivers/BSP/Components/iis2dlpc/iis2dlpc_reg.c ****   }
 1265              		.loc 1 486 11 is_stmt 0 view .LVU325
 1266 0024 0123     		movs	r3, #1
 1267              	.LVL74:
 486:Drivers/BSP/Components/iis2dlpc/iis2dlpc_reg.c ****   }
 1268              		.loc 1 486 11 view .LVU326
 1269 0026 01AA     		add	r2, sp, #4
 1270 0028 2521     		movs	r1, #37
 1271 002a 2046     		mov	r0, r4
 1272 002c FFF7FEFF 		bl	iis2dlpc_write_reg
 1273              	.LVL75:
 489:Drivers/BSP/Components/iis2dlpc/iis2dlpc_reg.c **** }
 1274              		.loc 1 489 3 is_stmt 1 view .LVU327
 489:Drivers/BSP/Components/iis2dlpc/iis2dlpc_reg.c **** }
 1275              		.loc 1 489 10 is_stmt 0 view .LVU328
 1276 0030 F0E7     		b	.L102
 1277              		.cfi_endproc
 1278              	.LFE17:
 1280              		.section	.text.iis2dlpc_full_scale_get,"ax",%progbits
 1281              		.align	1
 1282              		.global	iis2dlpc_full_scale_get
 1283              		.syntax unified
 1284              		.thumb
 1285              		.thumb_func
 1287              	iis2dlpc_full_scale_get:
 1288              	.LVL76:
 1289              	.LFB18:
 491:Drivers/BSP/Components/iis2dlpc/iis2dlpc_reg.c **** 
 492:Drivers/BSP/Components/iis2dlpc/iis2dlpc_reg.c **** /**
 493:Drivers/BSP/Components/iis2dlpc/iis2dlpc_reg.c ****   * @brief  Accelerometer full-scale selection.[get]
 494:Drivers/BSP/Components/iis2dlpc/iis2dlpc_reg.c ****   *
 495:Drivers/BSP/Components/iis2dlpc/iis2dlpc_reg.c ****   * @param  ctx      read / write interface definitions
 496:Drivers/BSP/Components/iis2dlpc/iis2dlpc_reg.c ****   * @param  val      Get the values of fs in reg CTRL6
 497:Drivers/BSP/Components/iis2dlpc/iis2dlpc_reg.c ****   * @retval          interface status (MANDATORY: return 0 -> no Error)
 498:Drivers/BSP/Components/iis2dlpc/iis2dlpc_reg.c ****   *
 499:Drivers/BSP/Components/iis2dlpc/iis2dlpc_reg.c ****   */
 500:Drivers/BSP/Components/iis2dlpc/iis2dlpc_reg.c **** int32_t iis2dlpc_full_scale_get(const stmdev_ctx_t *ctx, iis2dlpc_fs_t *val)
 501:Drivers/BSP/Components/iis2dlpc/iis2dlpc_reg.c **** {
 1290              		.loc 1 501 1 is_stmt 1 view -0
 1291              		.cfi_startproc
 1292              		@ args = 0, pretend = 0, frame = 8
 1293              		@ frame_needed = 0, uses_anonymous_args = 0
 1294              		.loc 1 501 1 is_stmt 0 view .LVU330
 1295 0000 10B5     		push	{r4, lr}
 1296              		.cfi_def_cfa_offset 8
ARM GAS  C:\Temp\ccGZlXNO.s 			page 35


 1297              		.cfi_offset 4, -8
 1298              		.cfi_offset 14, -4
 1299 0002 82B0     		sub	sp, sp, #8
 1300              		.cfi_def_cfa_offset 16
 1301 0004 0C46     		mov	r4, r1
 502:Drivers/BSP/Components/iis2dlpc/iis2dlpc_reg.c ****   iis2dlpc_ctrl6_t reg;
 1302              		.loc 1 502 3 is_stmt 1 view .LVU331
 503:Drivers/BSP/Components/iis2dlpc/iis2dlpc_reg.c ****   int32_t ret;
 1303              		.loc 1 503 3 view .LVU332
 504:Drivers/BSP/Components/iis2dlpc/iis2dlpc_reg.c **** 
 505:Drivers/BSP/Components/iis2dlpc/iis2dlpc_reg.c ****   ret = iis2dlpc_read_reg(ctx, IIS2DLPC_CTRL6, (uint8_t *) &reg, 1);
 1304              		.loc 1 505 3 view .LVU333
 1305              		.loc 1 505 9 is_stmt 0 view .LVU334
 1306 0006 0123     		movs	r3, #1
 1307 0008 01AA     		add	r2, sp, #4
 1308 000a 2521     		movs	r1, #37
 1309              	.LVL77:
 1310              		.loc 1 505 9 view .LVU335
 1311 000c FFF7FEFF 		bl	iis2dlpc_read_reg
 1312              	.LVL78:
 506:Drivers/BSP/Components/iis2dlpc/iis2dlpc_reg.c **** 
 507:Drivers/BSP/Components/iis2dlpc/iis2dlpc_reg.c ****   switch (reg.fs)
 1313              		.loc 1 507 3 is_stmt 1 view .LVU336
 1314              		.loc 1 507 14 is_stmt 0 view .LVU337
 1315 0010 9DF80430 		ldrb	r3, [sp, #4]	@ zero_extendqisi2
 1316 0014 C3F30113 		ubfx	r3, r3, #4, #2
 1317              		.loc 1 507 3 view .LVU338
 1318 0018 032B     		cmp	r3, #3
 1319 001a 10D8     		bhi	.L107
 1320 001c DFE803F0 		tbb	[pc, r3]
 1321              	.L109:
 1322 0020 02       		.byte	(.L112-.L109)/2
 1323 0021 06       		.byte	(.L111-.L109)/2
 1324 0022 09       		.byte	(.L110-.L109)/2
 1325 0023 0C       		.byte	(.L108-.L109)/2
 1326              		.p2align 1
 1327              	.L112:
 508:Drivers/BSP/Components/iis2dlpc/iis2dlpc_reg.c ****   {
 509:Drivers/BSP/Components/iis2dlpc/iis2dlpc_reg.c ****     case IIS2DLPC_2g:
 510:Drivers/BSP/Components/iis2dlpc/iis2dlpc_reg.c ****       *val = IIS2DLPC_2g;
 1328              		.loc 1 510 7 is_stmt 1 view .LVU339
 1329              		.loc 1 510 12 is_stmt 0 view .LVU340
 1330 0024 0023     		movs	r3, #0
 1331 0026 2370     		strb	r3, [r4]
 511:Drivers/BSP/Components/iis2dlpc/iis2dlpc_reg.c ****       break;
 1332              		.loc 1 511 7 is_stmt 1 view .LVU341
 1333              	.L106:
 512:Drivers/BSP/Components/iis2dlpc/iis2dlpc_reg.c **** 
 513:Drivers/BSP/Components/iis2dlpc/iis2dlpc_reg.c ****     case IIS2DLPC_4g:
 514:Drivers/BSP/Components/iis2dlpc/iis2dlpc_reg.c ****       *val = IIS2DLPC_4g;
 515:Drivers/BSP/Components/iis2dlpc/iis2dlpc_reg.c ****       break;
 516:Drivers/BSP/Components/iis2dlpc/iis2dlpc_reg.c **** 
 517:Drivers/BSP/Components/iis2dlpc/iis2dlpc_reg.c ****     case IIS2DLPC_8g:
 518:Drivers/BSP/Components/iis2dlpc/iis2dlpc_reg.c ****       *val = IIS2DLPC_8g;
 519:Drivers/BSP/Components/iis2dlpc/iis2dlpc_reg.c ****       break;
 520:Drivers/BSP/Components/iis2dlpc/iis2dlpc_reg.c **** 
 521:Drivers/BSP/Components/iis2dlpc/iis2dlpc_reg.c ****     case IIS2DLPC_16g:
ARM GAS  C:\Temp\ccGZlXNO.s 			page 36


 522:Drivers/BSP/Components/iis2dlpc/iis2dlpc_reg.c ****       *val = IIS2DLPC_16g;
 523:Drivers/BSP/Components/iis2dlpc/iis2dlpc_reg.c ****       break;
 524:Drivers/BSP/Components/iis2dlpc/iis2dlpc_reg.c **** 
 525:Drivers/BSP/Components/iis2dlpc/iis2dlpc_reg.c ****     default:
 526:Drivers/BSP/Components/iis2dlpc/iis2dlpc_reg.c ****       *val = IIS2DLPC_2g;
 527:Drivers/BSP/Components/iis2dlpc/iis2dlpc_reg.c ****       break;
 528:Drivers/BSP/Components/iis2dlpc/iis2dlpc_reg.c ****   }
 529:Drivers/BSP/Components/iis2dlpc/iis2dlpc_reg.c **** 
 530:Drivers/BSP/Components/iis2dlpc/iis2dlpc_reg.c ****   return ret;
 531:Drivers/BSP/Components/iis2dlpc/iis2dlpc_reg.c **** }
 1334              		.loc 1 531 1 is_stmt 0 view .LVU342
 1335 0028 02B0     		add	sp, sp, #8
 1336              		.cfi_remember_state
 1337              		.cfi_def_cfa_offset 8
 1338              		@ sp needed
 1339 002a 10BD     		pop	{r4, pc}
 1340              	.LVL79:
 1341              	.L111:
 1342              		.cfi_restore_state
 514:Drivers/BSP/Components/iis2dlpc/iis2dlpc_reg.c ****       break;
 1343              		.loc 1 514 7 is_stmt 1 view .LVU343
 514:Drivers/BSP/Components/iis2dlpc/iis2dlpc_reg.c ****       break;
 1344              		.loc 1 514 12 is_stmt 0 view .LVU344
 1345 002c 0123     		movs	r3, #1
 1346 002e 2370     		strb	r3, [r4]
 515:Drivers/BSP/Components/iis2dlpc/iis2dlpc_reg.c **** 
 1347              		.loc 1 515 7 is_stmt 1 view .LVU345
 1348 0030 FAE7     		b	.L106
 1349              	.L110:
 518:Drivers/BSP/Components/iis2dlpc/iis2dlpc_reg.c ****       break;
 1350              		.loc 1 518 7 view .LVU346
 518:Drivers/BSP/Components/iis2dlpc/iis2dlpc_reg.c ****       break;
 1351              		.loc 1 518 12 is_stmt 0 view .LVU347
 1352 0032 0223     		movs	r3, #2
 1353 0034 2370     		strb	r3, [r4]
 519:Drivers/BSP/Components/iis2dlpc/iis2dlpc_reg.c **** 
 1354              		.loc 1 519 7 is_stmt 1 view .LVU348
 1355 0036 F7E7     		b	.L106
 1356              	.L108:
 522:Drivers/BSP/Components/iis2dlpc/iis2dlpc_reg.c ****       break;
 1357              		.loc 1 522 7 view .LVU349
 522:Drivers/BSP/Components/iis2dlpc/iis2dlpc_reg.c ****       break;
 1358              		.loc 1 522 12 is_stmt 0 view .LVU350
 1359 0038 0323     		movs	r3, #3
 1360 003a 2370     		strb	r3, [r4]
 523:Drivers/BSP/Components/iis2dlpc/iis2dlpc_reg.c **** 
 1361              		.loc 1 523 7 is_stmt 1 view .LVU351
 1362 003c F4E7     		b	.L106
 1363              	.L107:
 526:Drivers/BSP/Components/iis2dlpc/iis2dlpc_reg.c ****       break;
 1364              		.loc 1 526 7 view .LVU352
 526:Drivers/BSP/Components/iis2dlpc/iis2dlpc_reg.c ****       break;
 1365              		.loc 1 526 12 is_stmt 0 view .LVU353
 1366 003e 0023     		movs	r3, #0
 1367 0040 2370     		strb	r3, [r4]
 527:Drivers/BSP/Components/iis2dlpc/iis2dlpc_reg.c ****   }
 1368              		.loc 1 527 7 is_stmt 1 view .LVU354
ARM GAS  C:\Temp\ccGZlXNO.s 			page 37


 530:Drivers/BSP/Components/iis2dlpc/iis2dlpc_reg.c **** }
 1369              		.loc 1 530 3 view .LVU355
 530:Drivers/BSP/Components/iis2dlpc/iis2dlpc_reg.c **** }
 1370              		.loc 1 530 10 is_stmt 0 view .LVU356
 1371 0042 F1E7     		b	.L106
 1372              		.cfi_endproc
 1373              	.LFE18:
 1375              		.section	.text.iis2dlpc_status_reg_get,"ax",%progbits
 1376              		.align	1
 1377              		.global	iis2dlpc_status_reg_get
 1378              		.syntax unified
 1379              		.thumb
 1380              		.thumb_func
 1382              	iis2dlpc_status_reg_get:
 1383              	.LVL80:
 1384              	.LFB19:
 532:Drivers/BSP/Components/iis2dlpc/iis2dlpc_reg.c **** 
 533:Drivers/BSP/Components/iis2dlpc/iis2dlpc_reg.c **** /**
 534:Drivers/BSP/Components/iis2dlpc/iis2dlpc_reg.c ****   * @brief  The STATUS_REG register of the device.[get]
 535:Drivers/BSP/Components/iis2dlpc/iis2dlpc_reg.c ****   *
 536:Drivers/BSP/Components/iis2dlpc/iis2dlpc_reg.c ****   * @param  ctx      read / write interface definitions
 537:Drivers/BSP/Components/iis2dlpc/iis2dlpc_reg.c ****   * @param  val      union of registers from STATUS to
 538:Drivers/BSP/Components/iis2dlpc/iis2dlpc_reg.c ****   * @retval          interface status (MANDATORY: return 0 -> no Error)
 539:Drivers/BSP/Components/iis2dlpc/iis2dlpc_reg.c ****   *
 540:Drivers/BSP/Components/iis2dlpc/iis2dlpc_reg.c ****   */
 541:Drivers/BSP/Components/iis2dlpc/iis2dlpc_reg.c **** int32_t iis2dlpc_status_reg_get(const stmdev_ctx_t *ctx,
 542:Drivers/BSP/Components/iis2dlpc/iis2dlpc_reg.c ****                                 iis2dlpc_status_t *val)
 543:Drivers/BSP/Components/iis2dlpc/iis2dlpc_reg.c **** {
 1385              		.loc 1 543 1 is_stmt 1 view -0
 1386              		.cfi_startproc
 1387              		@ args = 0, pretend = 0, frame = 0
 1388              		@ frame_needed = 0, uses_anonymous_args = 0
 1389              		.loc 1 543 1 is_stmt 0 view .LVU358
 1390 0000 08B5     		push	{r3, lr}
 1391              		.cfi_def_cfa_offset 8
 1392              		.cfi_offset 3, -8
 1393              		.cfi_offset 14, -4
 1394 0002 0A46     		mov	r2, r1
 544:Drivers/BSP/Components/iis2dlpc/iis2dlpc_reg.c ****   int32_t ret;
 1395              		.loc 1 544 3 is_stmt 1 view .LVU359
 545:Drivers/BSP/Components/iis2dlpc/iis2dlpc_reg.c **** 
 546:Drivers/BSP/Components/iis2dlpc/iis2dlpc_reg.c ****   ret = iis2dlpc_read_reg(ctx, IIS2DLPC_STATUS, (uint8_t *) val, 1);
 1396              		.loc 1 546 3 view .LVU360
 1397              		.loc 1 546 9 is_stmt 0 view .LVU361
 1398 0004 0123     		movs	r3, #1
 1399 0006 2721     		movs	r1, #39
 1400              	.LVL81:
 1401              		.loc 1 546 9 view .LVU362
 1402 0008 FFF7FEFF 		bl	iis2dlpc_read_reg
 1403              	.LVL82:
 547:Drivers/BSP/Components/iis2dlpc/iis2dlpc_reg.c **** 
 548:Drivers/BSP/Components/iis2dlpc/iis2dlpc_reg.c ****   return ret;
 1404              		.loc 1 548 3 is_stmt 1 view .LVU363
 549:Drivers/BSP/Components/iis2dlpc/iis2dlpc_reg.c **** }
 1405              		.loc 1 549 1 is_stmt 0 view .LVU364
 1406 000c 08BD     		pop	{r3, pc}
 1407              		.cfi_endproc
ARM GAS  C:\Temp\ccGZlXNO.s 			page 38


 1408              	.LFE19:
 1410              		.section	.text.iis2dlpc_flag_data_ready_get,"ax",%progbits
 1411              		.align	1
 1412              		.global	iis2dlpc_flag_data_ready_get
 1413              		.syntax unified
 1414              		.thumb
 1415              		.thumb_func
 1417              	iis2dlpc_flag_data_ready_get:
 1418              	.LVL83:
 1419              	.LFB20:
 550:Drivers/BSP/Components/iis2dlpc/iis2dlpc_reg.c **** 
 551:Drivers/BSP/Components/iis2dlpc/iis2dlpc_reg.c **** /**
 552:Drivers/BSP/Components/iis2dlpc/iis2dlpc_reg.c ****   * @brief  Accelerometer new data available.[get]
 553:Drivers/BSP/Components/iis2dlpc/iis2dlpc_reg.c ****   *
 554:Drivers/BSP/Components/iis2dlpc/iis2dlpc_reg.c ****   * @param  ctx      read / write interface definitions
 555:Drivers/BSP/Components/iis2dlpc/iis2dlpc_reg.c ****   * @param  val      change the values of drdy in reg STATUS
 556:Drivers/BSP/Components/iis2dlpc/iis2dlpc_reg.c ****   * @retval          interface status (MANDATORY: return 0 -> no Error)
 557:Drivers/BSP/Components/iis2dlpc/iis2dlpc_reg.c ****   *
 558:Drivers/BSP/Components/iis2dlpc/iis2dlpc_reg.c ****   */
 559:Drivers/BSP/Components/iis2dlpc/iis2dlpc_reg.c **** int32_t iis2dlpc_flag_data_ready_get(const stmdev_ctx_t *ctx, uint8_t *val)
 560:Drivers/BSP/Components/iis2dlpc/iis2dlpc_reg.c **** {
 1420              		.loc 1 560 1 is_stmt 1 view -0
 1421              		.cfi_startproc
 1422              		@ args = 0, pretend = 0, frame = 8
 1423              		@ frame_needed = 0, uses_anonymous_args = 0
 1424              		.loc 1 560 1 is_stmt 0 view .LVU366
 1425 0000 10B5     		push	{r4, lr}
 1426              		.cfi_def_cfa_offset 8
 1427              		.cfi_offset 4, -8
 1428              		.cfi_offset 14, -4
 1429 0002 82B0     		sub	sp, sp, #8
 1430              		.cfi_def_cfa_offset 16
 1431 0004 0C46     		mov	r4, r1
 561:Drivers/BSP/Components/iis2dlpc/iis2dlpc_reg.c ****   iis2dlpc_status_t reg;
 1432              		.loc 1 561 3 is_stmt 1 view .LVU367
 562:Drivers/BSP/Components/iis2dlpc/iis2dlpc_reg.c ****   int32_t ret;
 1433              		.loc 1 562 3 view .LVU368
 563:Drivers/BSP/Components/iis2dlpc/iis2dlpc_reg.c **** 
 564:Drivers/BSP/Components/iis2dlpc/iis2dlpc_reg.c ****   ret = iis2dlpc_read_reg(ctx, IIS2DLPC_STATUS, (uint8_t *) &reg, 1);
 1434              		.loc 1 564 3 view .LVU369
 1435              		.loc 1 564 9 is_stmt 0 view .LVU370
 1436 0006 0123     		movs	r3, #1
 1437 0008 01AA     		add	r2, sp, #4
 1438 000a 2721     		movs	r1, #39
 1439              	.LVL84:
 1440              		.loc 1 564 9 view .LVU371
 1441 000c FFF7FEFF 		bl	iis2dlpc_read_reg
 1442              	.LVL85:
 565:Drivers/BSP/Components/iis2dlpc/iis2dlpc_reg.c ****   *val = reg.drdy;
 1443              		.loc 1 565 3 is_stmt 1 view .LVU372
 1444              		.loc 1 565 13 is_stmt 0 view .LVU373
 1445 0010 9DF80430 		ldrb	r3, [sp, #4]	@ zero_extendqisi2
 1446 0014 C3F30003 		ubfx	r3, r3, #0, #1
 1447              		.loc 1 565 8 view .LVU374
 1448 0018 2370     		strb	r3, [r4]
 566:Drivers/BSP/Components/iis2dlpc/iis2dlpc_reg.c **** 
 567:Drivers/BSP/Components/iis2dlpc/iis2dlpc_reg.c ****   return ret;
ARM GAS  C:\Temp\ccGZlXNO.s 			page 39


 1449              		.loc 1 567 3 is_stmt 1 view .LVU375
 568:Drivers/BSP/Components/iis2dlpc/iis2dlpc_reg.c **** }
 1450              		.loc 1 568 1 is_stmt 0 view .LVU376
 1451 001a 02B0     		add	sp, sp, #8
 1452              		.cfi_def_cfa_offset 8
 1453              		@ sp needed
 1454 001c 10BD     		pop	{r4, pc}
 1455              		.loc 1 568 1 view .LVU377
 1456              		.cfi_endproc
 1457              	.LFE20:
 1459              		.section	.text.iis2dlpc_all_sources_get,"ax",%progbits
 1460              		.align	1
 1461              		.global	iis2dlpc_all_sources_get
 1462              		.syntax unified
 1463              		.thumb
 1464              		.thumb_func
 1466              	iis2dlpc_all_sources_get:
 1467              	.LVL86:
 1468              	.LFB21:
 569:Drivers/BSP/Components/iis2dlpc/iis2dlpc_reg.c **** /**
 570:Drivers/BSP/Components/iis2dlpc/iis2dlpc_reg.c ****   * @brief   Read all the interrupt/status flag of the device.[get]
 571:Drivers/BSP/Components/iis2dlpc/iis2dlpc_reg.c ****   *
 572:Drivers/BSP/Components/iis2dlpc/iis2dlpc_reg.c ****   * @param  ctx      read / write interface definitions
 573:Drivers/BSP/Components/iis2dlpc/iis2dlpc_reg.c ****   * @param  val      registers STATUS_DUP, WAKE_UP_SRC,
 574:Drivers/BSP/Components/iis2dlpc/iis2dlpc_reg.c ****   *                  TAP_SRC, SIXD_SRC, ALL_INT_SRC
 575:Drivers/BSP/Components/iis2dlpc/iis2dlpc_reg.c ****   * @retval          interface status (MANDATORY: return 0 -> no Error)
 576:Drivers/BSP/Components/iis2dlpc/iis2dlpc_reg.c ****   *
 577:Drivers/BSP/Components/iis2dlpc/iis2dlpc_reg.c ****   */
 578:Drivers/BSP/Components/iis2dlpc/iis2dlpc_reg.c **** int32_t iis2dlpc_all_sources_get(const stmdev_ctx_t *ctx,
 579:Drivers/BSP/Components/iis2dlpc/iis2dlpc_reg.c ****                                  iis2dlpc_all_sources_t *val)
 580:Drivers/BSP/Components/iis2dlpc/iis2dlpc_reg.c **** {
 1469              		.loc 1 580 1 is_stmt 1 view -0
 1470              		.cfi_startproc
 1471              		@ args = 0, pretend = 0, frame = 0
 1472              		@ frame_needed = 0, uses_anonymous_args = 0
 1473              		.loc 1 580 1 is_stmt 0 view .LVU379
 1474 0000 08B5     		push	{r3, lr}
 1475              		.cfi_def_cfa_offset 8
 1476              		.cfi_offset 3, -8
 1477              		.cfi_offset 14, -4
 1478 0002 0A46     		mov	r2, r1
 581:Drivers/BSP/Components/iis2dlpc/iis2dlpc_reg.c ****   int32_t ret;
 1479              		.loc 1 581 3 is_stmt 1 view .LVU380
 582:Drivers/BSP/Components/iis2dlpc/iis2dlpc_reg.c **** 
 583:Drivers/BSP/Components/iis2dlpc/iis2dlpc_reg.c ****   ret = iis2dlpc_read_reg(ctx, IIS2DLPC_STATUS_DUP, (uint8_t *) val, 5);
 1480              		.loc 1 583 3 view .LVU381
 1481              		.loc 1 583 9 is_stmt 0 view .LVU382
 1482 0004 0523     		movs	r3, #5
 1483 0006 3721     		movs	r1, #55
 1484              	.LVL87:
 1485              		.loc 1 583 9 view .LVU383
 1486 0008 FFF7FEFF 		bl	iis2dlpc_read_reg
 1487              	.LVL88:
 584:Drivers/BSP/Components/iis2dlpc/iis2dlpc_reg.c **** 
 585:Drivers/BSP/Components/iis2dlpc/iis2dlpc_reg.c ****   return ret;
 1488              		.loc 1 585 3 is_stmt 1 view .LVU384
 586:Drivers/BSP/Components/iis2dlpc/iis2dlpc_reg.c **** }
ARM GAS  C:\Temp\ccGZlXNO.s 			page 40


 1489              		.loc 1 586 1 is_stmt 0 view .LVU385
 1490 000c 08BD     		pop	{r3, pc}
 1491              		.cfi_endproc
 1492              	.LFE21:
 1494              		.section	.text.iis2dlpc_usr_offset_x_set,"ax",%progbits
 1495              		.align	1
 1496              		.global	iis2dlpc_usr_offset_x_set
 1497              		.syntax unified
 1498              		.thumb
 1499              		.thumb_func
 1501              	iis2dlpc_usr_offset_x_set:
 1502              	.LVL89:
 1503              	.LFB22:
 587:Drivers/BSP/Components/iis2dlpc/iis2dlpc_reg.c **** 
 588:Drivers/BSP/Components/iis2dlpc/iis2dlpc_reg.c **** /**
 589:Drivers/BSP/Components/iis2dlpc/iis2dlpc_reg.c ****   * @brief  Accelerometer X-axis user offset correction expressed in two's
 590:Drivers/BSP/Components/iis2dlpc/iis2dlpc_reg.c ****   *         complement, weight depends on bit USR_OFF_W. The value must be
 591:Drivers/BSP/Components/iis2dlpc/iis2dlpc_reg.c ****   *         in the range [-127 127].[set]
 592:Drivers/BSP/Components/iis2dlpc/iis2dlpc_reg.c ****   *
 593:Drivers/BSP/Components/iis2dlpc/iis2dlpc_reg.c ****   * @param  ctx      read / write interface definitions
 594:Drivers/BSP/Components/iis2dlpc/iis2dlpc_reg.c ****   * @param  buff     buffer that contains data to write
 595:Drivers/BSP/Components/iis2dlpc/iis2dlpc_reg.c ****   * @retval          interface status (MANDATORY: return 0 -> no Error)
 596:Drivers/BSP/Components/iis2dlpc/iis2dlpc_reg.c ****   *
 597:Drivers/BSP/Components/iis2dlpc/iis2dlpc_reg.c ****   */
 598:Drivers/BSP/Components/iis2dlpc/iis2dlpc_reg.c **** int32_t iis2dlpc_usr_offset_x_set(const stmdev_ctx_t *ctx, uint8_t *buff)
 599:Drivers/BSP/Components/iis2dlpc/iis2dlpc_reg.c **** {
 1504              		.loc 1 599 1 is_stmt 1 view -0
 1505              		.cfi_startproc
 1506              		@ args = 0, pretend = 0, frame = 0
 1507              		@ frame_needed = 0, uses_anonymous_args = 0
 1508              		.loc 1 599 1 is_stmt 0 view .LVU387
 1509 0000 08B5     		push	{r3, lr}
 1510              		.cfi_def_cfa_offset 8
 1511              		.cfi_offset 3, -8
 1512              		.cfi_offset 14, -4
 1513 0002 0A46     		mov	r2, r1
 600:Drivers/BSP/Components/iis2dlpc/iis2dlpc_reg.c ****   int32_t ret;
 1514              		.loc 1 600 3 is_stmt 1 view .LVU388
 601:Drivers/BSP/Components/iis2dlpc/iis2dlpc_reg.c **** 
 602:Drivers/BSP/Components/iis2dlpc/iis2dlpc_reg.c ****   ret = iis2dlpc_write_reg(ctx, IIS2DLPC_X_OFS_USR, buff, 1);
 1515              		.loc 1 602 3 view .LVU389
 1516              		.loc 1 602 9 is_stmt 0 view .LVU390
 1517 0004 0123     		movs	r3, #1
 1518 0006 3C21     		movs	r1, #60
 1519              	.LVL90:
 1520              		.loc 1 602 9 view .LVU391
 1521 0008 FFF7FEFF 		bl	iis2dlpc_write_reg
 1522              	.LVL91:
 603:Drivers/BSP/Components/iis2dlpc/iis2dlpc_reg.c **** 
 604:Drivers/BSP/Components/iis2dlpc/iis2dlpc_reg.c ****   return ret;
 1523              		.loc 1 604 3 is_stmt 1 view .LVU392
 605:Drivers/BSP/Components/iis2dlpc/iis2dlpc_reg.c **** }
 1524              		.loc 1 605 1 is_stmt 0 view .LVU393
 1525 000c 08BD     		pop	{r3, pc}
 1526              		.cfi_endproc
 1527              	.LFE22:
 1529              		.section	.text.iis2dlpc_usr_offset_x_get,"ax",%progbits
ARM GAS  C:\Temp\ccGZlXNO.s 			page 41


 1530              		.align	1
 1531              		.global	iis2dlpc_usr_offset_x_get
 1532              		.syntax unified
 1533              		.thumb
 1534              		.thumb_func
 1536              	iis2dlpc_usr_offset_x_get:
 1537              	.LVL92:
 1538              	.LFB23:
 606:Drivers/BSP/Components/iis2dlpc/iis2dlpc_reg.c **** 
 607:Drivers/BSP/Components/iis2dlpc/iis2dlpc_reg.c **** /**
 608:Drivers/BSP/Components/iis2dlpc/iis2dlpc_reg.c ****   * @brief  Accelerometer X-axis user offset correction expressed in two's
 609:Drivers/BSP/Components/iis2dlpc/iis2dlpc_reg.c ****   *         complement, weight depends on bit USR_OFF_W. The value must be
 610:Drivers/BSP/Components/iis2dlpc/iis2dlpc_reg.c ****   *         in the range [-127 127].[get]
 611:Drivers/BSP/Components/iis2dlpc/iis2dlpc_reg.c ****   *
 612:Drivers/BSP/Components/iis2dlpc/iis2dlpc_reg.c ****   * @param  ctx      read / write interface definitions
 613:Drivers/BSP/Components/iis2dlpc/iis2dlpc_reg.c ****   * @param  buff     buffer that stores data read
 614:Drivers/BSP/Components/iis2dlpc/iis2dlpc_reg.c ****   * @retval          interface status (MANDATORY: return 0 -> no Error)
 615:Drivers/BSP/Components/iis2dlpc/iis2dlpc_reg.c ****   *
 616:Drivers/BSP/Components/iis2dlpc/iis2dlpc_reg.c ****   */
 617:Drivers/BSP/Components/iis2dlpc/iis2dlpc_reg.c **** int32_t iis2dlpc_usr_offset_x_get(const stmdev_ctx_t *ctx, uint8_t *buff)
 618:Drivers/BSP/Components/iis2dlpc/iis2dlpc_reg.c **** {
 1539              		.loc 1 618 1 is_stmt 1 view -0
 1540              		.cfi_startproc
 1541              		@ args = 0, pretend = 0, frame = 0
 1542              		@ frame_needed = 0, uses_anonymous_args = 0
 1543              		.loc 1 618 1 is_stmt 0 view .LVU395
 1544 0000 08B5     		push	{r3, lr}
 1545              		.cfi_def_cfa_offset 8
 1546              		.cfi_offset 3, -8
 1547              		.cfi_offset 14, -4
 1548 0002 0A46     		mov	r2, r1
 619:Drivers/BSP/Components/iis2dlpc/iis2dlpc_reg.c ****   int32_t ret;
 1549              		.loc 1 619 3 is_stmt 1 view .LVU396
 620:Drivers/BSP/Components/iis2dlpc/iis2dlpc_reg.c **** 
 621:Drivers/BSP/Components/iis2dlpc/iis2dlpc_reg.c ****   ret = iis2dlpc_read_reg(ctx, IIS2DLPC_X_OFS_USR, buff, 1);
 1550              		.loc 1 621 3 view .LVU397
 1551              		.loc 1 621 9 is_stmt 0 view .LVU398
 1552 0004 0123     		movs	r3, #1
 1553 0006 3C21     		movs	r1, #60
 1554              	.LVL93:
 1555              		.loc 1 621 9 view .LVU399
 1556 0008 FFF7FEFF 		bl	iis2dlpc_read_reg
 1557              	.LVL94:
 622:Drivers/BSP/Components/iis2dlpc/iis2dlpc_reg.c **** 
 623:Drivers/BSP/Components/iis2dlpc/iis2dlpc_reg.c ****   return ret;
 1558              		.loc 1 623 3 is_stmt 1 view .LVU400
 624:Drivers/BSP/Components/iis2dlpc/iis2dlpc_reg.c **** }
 1559              		.loc 1 624 1 is_stmt 0 view .LVU401
 1560 000c 08BD     		pop	{r3, pc}
 1561              		.cfi_endproc
 1562              	.LFE23:
 1564              		.section	.text.iis2dlpc_usr_offset_y_set,"ax",%progbits
 1565              		.align	1
 1566              		.global	iis2dlpc_usr_offset_y_set
 1567              		.syntax unified
 1568              		.thumb
 1569              		.thumb_func
ARM GAS  C:\Temp\ccGZlXNO.s 			page 42


 1571              	iis2dlpc_usr_offset_y_set:
 1572              	.LVL95:
 1573              	.LFB24:
 625:Drivers/BSP/Components/iis2dlpc/iis2dlpc_reg.c **** 
 626:Drivers/BSP/Components/iis2dlpc/iis2dlpc_reg.c **** /**
 627:Drivers/BSP/Components/iis2dlpc/iis2dlpc_reg.c ****   * @brief  Accelerometer Y-axis user offset correction expressed in two's
 628:Drivers/BSP/Components/iis2dlpc/iis2dlpc_reg.c ****   *         complement, weight depends on bit USR_OFF_W. The value must be
 629:Drivers/BSP/Components/iis2dlpc/iis2dlpc_reg.c ****   *         in the range [-127 127].[set]
 630:Drivers/BSP/Components/iis2dlpc/iis2dlpc_reg.c ****   *
 631:Drivers/BSP/Components/iis2dlpc/iis2dlpc_reg.c ****   * @param  ctx      read / write interface definitions
 632:Drivers/BSP/Components/iis2dlpc/iis2dlpc_reg.c ****   * @param  buff     buffer that contains data to write
 633:Drivers/BSP/Components/iis2dlpc/iis2dlpc_reg.c ****   * @retval          interface status (MANDATORY: return 0 -> no Error)
 634:Drivers/BSP/Components/iis2dlpc/iis2dlpc_reg.c ****   *
 635:Drivers/BSP/Components/iis2dlpc/iis2dlpc_reg.c ****   */
 636:Drivers/BSP/Components/iis2dlpc/iis2dlpc_reg.c **** int32_t iis2dlpc_usr_offset_y_set(const stmdev_ctx_t *ctx, uint8_t *buff)
 637:Drivers/BSP/Components/iis2dlpc/iis2dlpc_reg.c **** {
 1574              		.loc 1 637 1 is_stmt 1 view -0
 1575              		.cfi_startproc
 1576              		@ args = 0, pretend = 0, frame = 0
 1577              		@ frame_needed = 0, uses_anonymous_args = 0
 1578              		.loc 1 637 1 is_stmt 0 view .LVU403
 1579 0000 08B5     		push	{r3, lr}
 1580              		.cfi_def_cfa_offset 8
 1581              		.cfi_offset 3, -8
 1582              		.cfi_offset 14, -4
 1583 0002 0A46     		mov	r2, r1
 638:Drivers/BSP/Components/iis2dlpc/iis2dlpc_reg.c ****   int32_t ret;
 1584              		.loc 1 638 3 is_stmt 1 view .LVU404
 639:Drivers/BSP/Components/iis2dlpc/iis2dlpc_reg.c **** 
 640:Drivers/BSP/Components/iis2dlpc/iis2dlpc_reg.c ****   ret = iis2dlpc_write_reg(ctx, IIS2DLPC_Y_OFS_USR, buff, 1);
 1585              		.loc 1 640 3 view .LVU405
 1586              		.loc 1 640 9 is_stmt 0 view .LVU406
 1587 0004 0123     		movs	r3, #1
 1588 0006 3D21     		movs	r1, #61
 1589              	.LVL96:
 1590              		.loc 1 640 9 view .LVU407
 1591 0008 FFF7FEFF 		bl	iis2dlpc_write_reg
 1592              	.LVL97:
 641:Drivers/BSP/Components/iis2dlpc/iis2dlpc_reg.c **** 
 642:Drivers/BSP/Components/iis2dlpc/iis2dlpc_reg.c ****   return ret;
 1593              		.loc 1 642 3 is_stmt 1 view .LVU408
 643:Drivers/BSP/Components/iis2dlpc/iis2dlpc_reg.c **** }
 1594              		.loc 1 643 1 is_stmt 0 view .LVU409
 1595 000c 08BD     		pop	{r3, pc}
 1596              		.cfi_endproc
 1597              	.LFE24:
 1599              		.section	.text.iis2dlpc_usr_offset_y_get,"ax",%progbits
 1600              		.align	1
 1601              		.global	iis2dlpc_usr_offset_y_get
 1602              		.syntax unified
 1603              		.thumb
 1604              		.thumb_func
 1606              	iis2dlpc_usr_offset_y_get:
 1607              	.LVL98:
 1608              	.LFB25:
 644:Drivers/BSP/Components/iis2dlpc/iis2dlpc_reg.c **** 
 645:Drivers/BSP/Components/iis2dlpc/iis2dlpc_reg.c **** /**
ARM GAS  C:\Temp\ccGZlXNO.s 			page 43


 646:Drivers/BSP/Components/iis2dlpc/iis2dlpc_reg.c ****   * @brief  Accelerometer Y-axis user offset correction expressed in two's
 647:Drivers/BSP/Components/iis2dlpc/iis2dlpc_reg.c ****   *         complement, weight depends on bit USR_OFF_W. The value must be
 648:Drivers/BSP/Components/iis2dlpc/iis2dlpc_reg.c ****   *         in the range [-127 127].[get]
 649:Drivers/BSP/Components/iis2dlpc/iis2dlpc_reg.c ****   *
 650:Drivers/BSP/Components/iis2dlpc/iis2dlpc_reg.c ****   * @param  ctx      read / write interface definitions
 651:Drivers/BSP/Components/iis2dlpc/iis2dlpc_reg.c ****   * @param  buff     buffer that stores data read
 652:Drivers/BSP/Components/iis2dlpc/iis2dlpc_reg.c ****   * @retval          interface status (MANDATORY: return 0 -> no Error)
 653:Drivers/BSP/Components/iis2dlpc/iis2dlpc_reg.c ****   *
 654:Drivers/BSP/Components/iis2dlpc/iis2dlpc_reg.c ****   */
 655:Drivers/BSP/Components/iis2dlpc/iis2dlpc_reg.c **** int32_t iis2dlpc_usr_offset_y_get(const stmdev_ctx_t *ctx, uint8_t *buff)
 656:Drivers/BSP/Components/iis2dlpc/iis2dlpc_reg.c **** {
 1609              		.loc 1 656 1 is_stmt 1 view -0
 1610              		.cfi_startproc
 1611              		@ args = 0, pretend = 0, frame = 0
 1612              		@ frame_needed = 0, uses_anonymous_args = 0
 1613              		.loc 1 656 1 is_stmt 0 view .LVU411
 1614 0000 08B5     		push	{r3, lr}
 1615              		.cfi_def_cfa_offset 8
 1616              		.cfi_offset 3, -8
 1617              		.cfi_offset 14, -4
 1618 0002 0A46     		mov	r2, r1
 657:Drivers/BSP/Components/iis2dlpc/iis2dlpc_reg.c ****   int32_t ret;
 1619              		.loc 1 657 3 is_stmt 1 view .LVU412
 658:Drivers/BSP/Components/iis2dlpc/iis2dlpc_reg.c **** 
 659:Drivers/BSP/Components/iis2dlpc/iis2dlpc_reg.c ****   ret = iis2dlpc_read_reg(ctx, IIS2DLPC_Y_OFS_USR, buff, 1);
 1620              		.loc 1 659 3 view .LVU413
 1621              		.loc 1 659 9 is_stmt 0 view .LVU414
 1622 0004 0123     		movs	r3, #1
 1623 0006 3D21     		movs	r1, #61
 1624              	.LVL99:
 1625              		.loc 1 659 9 view .LVU415
 1626 0008 FFF7FEFF 		bl	iis2dlpc_read_reg
 1627              	.LVL100:
 660:Drivers/BSP/Components/iis2dlpc/iis2dlpc_reg.c **** 
 661:Drivers/BSP/Components/iis2dlpc/iis2dlpc_reg.c ****   return ret;
 1628              		.loc 1 661 3 is_stmt 1 view .LVU416
 662:Drivers/BSP/Components/iis2dlpc/iis2dlpc_reg.c **** }
 1629              		.loc 1 662 1 is_stmt 0 view .LVU417
 1630 000c 08BD     		pop	{r3, pc}
 1631              		.cfi_endproc
 1632              	.LFE25:
 1634              		.section	.text.iis2dlpc_usr_offset_z_set,"ax",%progbits
 1635              		.align	1
 1636              		.global	iis2dlpc_usr_offset_z_set
 1637              		.syntax unified
 1638              		.thumb
 1639              		.thumb_func
 1641              	iis2dlpc_usr_offset_z_set:
 1642              	.LVL101:
 1643              	.LFB26:
 663:Drivers/BSP/Components/iis2dlpc/iis2dlpc_reg.c **** 
 664:Drivers/BSP/Components/iis2dlpc/iis2dlpc_reg.c **** /**
 665:Drivers/BSP/Components/iis2dlpc/iis2dlpc_reg.c ****   * @brief  Accelerometer Z-axis user offset correction expressed in two's
 666:Drivers/BSP/Components/iis2dlpc/iis2dlpc_reg.c ****   *         complement, weight depends on bit USR_OFF_W. The value must be
 667:Drivers/BSP/Components/iis2dlpc/iis2dlpc_reg.c ****   *         in the range [-127 127].[set]
 668:Drivers/BSP/Components/iis2dlpc/iis2dlpc_reg.c ****   *
 669:Drivers/BSP/Components/iis2dlpc/iis2dlpc_reg.c ****   * @param  ctx      read / write interface definitions
ARM GAS  C:\Temp\ccGZlXNO.s 			page 44


 670:Drivers/BSP/Components/iis2dlpc/iis2dlpc_reg.c ****   * @param  buff     buffer that contains data to write
 671:Drivers/BSP/Components/iis2dlpc/iis2dlpc_reg.c ****   * @retval          interface status (MANDATORY: return 0 -> no Error)
 672:Drivers/BSP/Components/iis2dlpc/iis2dlpc_reg.c ****   *
 673:Drivers/BSP/Components/iis2dlpc/iis2dlpc_reg.c ****   */
 674:Drivers/BSP/Components/iis2dlpc/iis2dlpc_reg.c **** int32_t iis2dlpc_usr_offset_z_set(const stmdev_ctx_t *ctx, uint8_t *buff)
 675:Drivers/BSP/Components/iis2dlpc/iis2dlpc_reg.c **** {
 1644              		.loc 1 675 1 is_stmt 1 view -0
 1645              		.cfi_startproc
 1646              		@ args = 0, pretend = 0, frame = 0
 1647              		@ frame_needed = 0, uses_anonymous_args = 0
 1648              		.loc 1 675 1 is_stmt 0 view .LVU419
 1649 0000 08B5     		push	{r3, lr}
 1650              		.cfi_def_cfa_offset 8
 1651              		.cfi_offset 3, -8
 1652              		.cfi_offset 14, -4
 1653 0002 0A46     		mov	r2, r1
 676:Drivers/BSP/Components/iis2dlpc/iis2dlpc_reg.c ****   int32_t ret;
 1654              		.loc 1 676 3 is_stmt 1 view .LVU420
 677:Drivers/BSP/Components/iis2dlpc/iis2dlpc_reg.c **** 
 678:Drivers/BSP/Components/iis2dlpc/iis2dlpc_reg.c ****   ret = iis2dlpc_write_reg(ctx, IIS2DLPC_Z_OFS_USR, buff, 1);
 1655              		.loc 1 678 3 view .LVU421
 1656              		.loc 1 678 9 is_stmt 0 view .LVU422
 1657 0004 0123     		movs	r3, #1
 1658 0006 3E21     		movs	r1, #62
 1659              	.LVL102:
 1660              		.loc 1 678 9 view .LVU423
 1661 0008 FFF7FEFF 		bl	iis2dlpc_write_reg
 1662              	.LVL103:
 679:Drivers/BSP/Components/iis2dlpc/iis2dlpc_reg.c **** 
 680:Drivers/BSP/Components/iis2dlpc/iis2dlpc_reg.c ****   return ret;
 1663              		.loc 1 680 3 is_stmt 1 view .LVU424
 681:Drivers/BSP/Components/iis2dlpc/iis2dlpc_reg.c **** }
 1664              		.loc 1 681 1 is_stmt 0 view .LVU425
 1665 000c 08BD     		pop	{r3, pc}
 1666              		.cfi_endproc
 1667              	.LFE26:
 1669              		.section	.text.iis2dlpc_usr_offset_z_get,"ax",%progbits
 1670              		.align	1
 1671              		.global	iis2dlpc_usr_offset_z_get
 1672              		.syntax unified
 1673              		.thumb
 1674              		.thumb_func
 1676              	iis2dlpc_usr_offset_z_get:
 1677              	.LVL104:
 1678              	.LFB27:
 682:Drivers/BSP/Components/iis2dlpc/iis2dlpc_reg.c **** 
 683:Drivers/BSP/Components/iis2dlpc/iis2dlpc_reg.c **** /**
 684:Drivers/BSP/Components/iis2dlpc/iis2dlpc_reg.c ****   * @brief  Accelerometer Z-axis user offset correction expressed in two's
 685:Drivers/BSP/Components/iis2dlpc/iis2dlpc_reg.c ****   *         complement, weight depends on bit USR_OFF_W. The value must be
 686:Drivers/BSP/Components/iis2dlpc/iis2dlpc_reg.c ****   *         in the range [-127 127].[get]
 687:Drivers/BSP/Components/iis2dlpc/iis2dlpc_reg.c ****   *
 688:Drivers/BSP/Components/iis2dlpc/iis2dlpc_reg.c ****   * @param  ctx      read / write interface definitions
 689:Drivers/BSP/Components/iis2dlpc/iis2dlpc_reg.c ****   * @param  buff     buffer that stores data read
 690:Drivers/BSP/Components/iis2dlpc/iis2dlpc_reg.c ****   * @retval          interface status (MANDATORY: return 0 -> no Error)
 691:Drivers/BSP/Components/iis2dlpc/iis2dlpc_reg.c ****   *
 692:Drivers/BSP/Components/iis2dlpc/iis2dlpc_reg.c ****   */
 693:Drivers/BSP/Components/iis2dlpc/iis2dlpc_reg.c **** int32_t iis2dlpc_usr_offset_z_get(const stmdev_ctx_t *ctx, uint8_t *buff)
ARM GAS  C:\Temp\ccGZlXNO.s 			page 45


 694:Drivers/BSP/Components/iis2dlpc/iis2dlpc_reg.c **** {
 1679              		.loc 1 694 1 is_stmt 1 view -0
 1680              		.cfi_startproc
 1681              		@ args = 0, pretend = 0, frame = 0
 1682              		@ frame_needed = 0, uses_anonymous_args = 0
 1683              		.loc 1 694 1 is_stmt 0 view .LVU427
 1684 0000 08B5     		push	{r3, lr}
 1685              		.cfi_def_cfa_offset 8
 1686              		.cfi_offset 3, -8
 1687              		.cfi_offset 14, -4
 1688 0002 0A46     		mov	r2, r1
 695:Drivers/BSP/Components/iis2dlpc/iis2dlpc_reg.c ****   int32_t ret;
 1689              		.loc 1 695 3 is_stmt 1 view .LVU428
 696:Drivers/BSP/Components/iis2dlpc/iis2dlpc_reg.c **** 
 697:Drivers/BSP/Components/iis2dlpc/iis2dlpc_reg.c ****   ret = iis2dlpc_read_reg(ctx, IIS2DLPC_Z_OFS_USR, buff, 1);
 1690              		.loc 1 697 3 view .LVU429
 1691              		.loc 1 697 9 is_stmt 0 view .LVU430
 1692 0004 0123     		movs	r3, #1
 1693 0006 3E21     		movs	r1, #62
 1694              	.LVL105:
 1695              		.loc 1 697 9 view .LVU431
 1696 0008 FFF7FEFF 		bl	iis2dlpc_read_reg
 1697              	.LVL106:
 698:Drivers/BSP/Components/iis2dlpc/iis2dlpc_reg.c **** 
 699:Drivers/BSP/Components/iis2dlpc/iis2dlpc_reg.c ****   return ret;
 1698              		.loc 1 699 3 is_stmt 1 view .LVU432
 700:Drivers/BSP/Components/iis2dlpc/iis2dlpc_reg.c **** }
 1699              		.loc 1 700 1 is_stmt 0 view .LVU433
 1700 000c 08BD     		pop	{r3, pc}
 1701              		.cfi_endproc
 1702              	.LFE27:
 1704              		.section	.text.iis2dlpc_offset_weight_set,"ax",%progbits
 1705              		.align	1
 1706              		.global	iis2dlpc_offset_weight_set
 1707              		.syntax unified
 1708              		.thumb
 1709              		.thumb_func
 1711              	iis2dlpc_offset_weight_set:
 1712              	.LVL107:
 1713              	.LFB28:
 701:Drivers/BSP/Components/iis2dlpc/iis2dlpc_reg.c **** 
 702:Drivers/BSP/Components/iis2dlpc/iis2dlpc_reg.c **** /**
 703:Drivers/BSP/Components/iis2dlpc/iis2dlpc_reg.c ****   * @brief  Weight of XL user offset bits of registers X_OFS_USR,
 704:Drivers/BSP/Components/iis2dlpc/iis2dlpc_reg.c ****   *         Y_OFS_USR, Z_OFS_USR.[set]
 705:Drivers/BSP/Components/iis2dlpc/iis2dlpc_reg.c ****   *
 706:Drivers/BSP/Components/iis2dlpc/iis2dlpc_reg.c ****   * @param  ctx      read / write interface definitions
 707:Drivers/BSP/Components/iis2dlpc/iis2dlpc_reg.c ****   * @param  val      change the values of usr_off_w in
 708:Drivers/BSP/Components/iis2dlpc/iis2dlpc_reg.c ****   *                               reg CTRL_REG7
 709:Drivers/BSP/Components/iis2dlpc/iis2dlpc_reg.c ****   * @retval          interface status (MANDATORY: return 0 -> no Error)
 710:Drivers/BSP/Components/iis2dlpc/iis2dlpc_reg.c ****   *
 711:Drivers/BSP/Components/iis2dlpc/iis2dlpc_reg.c ****   */
 712:Drivers/BSP/Components/iis2dlpc/iis2dlpc_reg.c **** int32_t iis2dlpc_offset_weight_set(const stmdev_ctx_t *ctx,
 713:Drivers/BSP/Components/iis2dlpc/iis2dlpc_reg.c ****                                    iis2dlpc_usr_off_w_t val)
 714:Drivers/BSP/Components/iis2dlpc/iis2dlpc_reg.c **** {
 1714              		.loc 1 714 1 is_stmt 1 view -0
 1715              		.cfi_startproc
 1716              		@ args = 0, pretend = 0, frame = 8
ARM GAS  C:\Temp\ccGZlXNO.s 			page 46


 1717              		@ frame_needed = 0, uses_anonymous_args = 0
 1718              		.loc 1 714 1 is_stmt 0 view .LVU435
 1719 0000 30B5     		push	{r4, r5, lr}
 1720              		.cfi_def_cfa_offset 12
 1721              		.cfi_offset 4, -12
 1722              		.cfi_offset 5, -8
 1723              		.cfi_offset 14, -4
 1724 0002 83B0     		sub	sp, sp, #12
 1725              		.cfi_def_cfa_offset 24
 1726 0004 0446     		mov	r4, r0
 1727 0006 0D46     		mov	r5, r1
 715:Drivers/BSP/Components/iis2dlpc/iis2dlpc_reg.c ****   iis2dlpc_ctrl7_t reg;
 1728              		.loc 1 715 3 is_stmt 1 view .LVU436
 716:Drivers/BSP/Components/iis2dlpc/iis2dlpc_reg.c ****   int32_t ret;
 1729              		.loc 1 716 3 view .LVU437
 717:Drivers/BSP/Components/iis2dlpc/iis2dlpc_reg.c **** 
 718:Drivers/BSP/Components/iis2dlpc/iis2dlpc_reg.c ****   ret = iis2dlpc_read_reg(ctx, IIS2DLPC_CTRL7, (uint8_t *) &reg, 1);
 1730              		.loc 1 718 3 view .LVU438
 1731              		.loc 1 718 9 is_stmt 0 view .LVU439
 1732 0008 0123     		movs	r3, #1
 1733 000a 01AA     		add	r2, sp, #4
 1734 000c 3F21     		movs	r1, #63
 1735              	.LVL108:
 1736              		.loc 1 718 9 view .LVU440
 1737 000e FFF7FEFF 		bl	iis2dlpc_read_reg
 1738              	.LVL109:
 719:Drivers/BSP/Components/iis2dlpc/iis2dlpc_reg.c **** 
 720:Drivers/BSP/Components/iis2dlpc/iis2dlpc_reg.c ****   if (ret == 0)
 1739              		.loc 1 720 3 is_stmt 1 view .LVU441
 1740              		.loc 1 720 6 is_stmt 0 view .LVU442
 1741 0012 08B1     		cbz	r0, .L136
 1742              	.LVL110:
 1743              	.L133:
 721:Drivers/BSP/Components/iis2dlpc/iis2dlpc_reg.c ****   {
 722:Drivers/BSP/Components/iis2dlpc/iis2dlpc_reg.c ****     reg.usr_off_w = (uint8_t) val;
 723:Drivers/BSP/Components/iis2dlpc/iis2dlpc_reg.c ****     ret = iis2dlpc_write_reg(ctx, IIS2DLPC_CTRL7, (uint8_t *) &reg, 1);
 724:Drivers/BSP/Components/iis2dlpc/iis2dlpc_reg.c ****   }
 725:Drivers/BSP/Components/iis2dlpc/iis2dlpc_reg.c **** 
 726:Drivers/BSP/Components/iis2dlpc/iis2dlpc_reg.c ****   return ret;
 727:Drivers/BSP/Components/iis2dlpc/iis2dlpc_reg.c **** }
 1744              		.loc 1 727 1 view .LVU443
 1745 0014 03B0     		add	sp, sp, #12
 1746              		.cfi_remember_state
 1747              		.cfi_def_cfa_offset 12
 1748              		@ sp needed
 1749 0016 30BD     		pop	{r4, r5, pc}
 1750              	.LVL111:
 1751              	.L136:
 1752              		.cfi_restore_state
 722:Drivers/BSP/Components/iis2dlpc/iis2dlpc_reg.c ****     ret = iis2dlpc_write_reg(ctx, IIS2DLPC_CTRL7, (uint8_t *) &reg, 1);
 1753              		.loc 1 722 5 is_stmt 1 view .LVU444
 722:Drivers/BSP/Components/iis2dlpc/iis2dlpc_reg.c ****     ret = iis2dlpc_write_reg(ctx, IIS2DLPC_CTRL7, (uint8_t *) &reg, 1);
 1754              		.loc 1 722 19 is_stmt 0 view .LVU445
 1755 0018 9DF80430 		ldrb	r3, [sp, #4]	@ zero_extendqisi2
 1756 001c 65F38203 		bfi	r3, r5, #2, #1
 1757 0020 8DF80430 		strb	r3, [sp, #4]
 723:Drivers/BSP/Components/iis2dlpc/iis2dlpc_reg.c ****   }
ARM GAS  C:\Temp\ccGZlXNO.s 			page 47


 1758              		.loc 1 723 5 is_stmt 1 view .LVU446
 723:Drivers/BSP/Components/iis2dlpc/iis2dlpc_reg.c ****   }
 1759              		.loc 1 723 11 is_stmt 0 view .LVU447
 1760 0024 0123     		movs	r3, #1
 1761              	.LVL112:
 723:Drivers/BSP/Components/iis2dlpc/iis2dlpc_reg.c ****   }
 1762              		.loc 1 723 11 view .LVU448
 1763 0026 01AA     		add	r2, sp, #4
 1764 0028 3F21     		movs	r1, #63
 1765 002a 2046     		mov	r0, r4
 1766 002c FFF7FEFF 		bl	iis2dlpc_write_reg
 1767              	.LVL113:
 726:Drivers/BSP/Components/iis2dlpc/iis2dlpc_reg.c **** }
 1768              		.loc 1 726 3 is_stmt 1 view .LVU449
 726:Drivers/BSP/Components/iis2dlpc/iis2dlpc_reg.c **** }
 1769              		.loc 1 726 10 is_stmt 0 view .LVU450
 1770 0030 F0E7     		b	.L133
 1771              		.cfi_endproc
 1772              	.LFE28:
 1774              		.section	.text.iis2dlpc_offset_weight_get,"ax",%progbits
 1775              		.align	1
 1776              		.global	iis2dlpc_offset_weight_get
 1777              		.syntax unified
 1778              		.thumb
 1779              		.thumb_func
 1781              	iis2dlpc_offset_weight_get:
 1782              	.LVL114:
 1783              	.LFB29:
 728:Drivers/BSP/Components/iis2dlpc/iis2dlpc_reg.c **** 
 729:Drivers/BSP/Components/iis2dlpc/iis2dlpc_reg.c **** /**
 730:Drivers/BSP/Components/iis2dlpc/iis2dlpc_reg.c ****   * @brief  Weight of XL user offset bits of registers X_OFS_USR,
 731:Drivers/BSP/Components/iis2dlpc/iis2dlpc_reg.c ****   *         Y_OFS_USR, Z_OFS_USR.[get]
 732:Drivers/BSP/Components/iis2dlpc/iis2dlpc_reg.c ****   *
 733:Drivers/BSP/Components/iis2dlpc/iis2dlpc_reg.c ****   * @param  ctx      read / write interface definitions
 734:Drivers/BSP/Components/iis2dlpc/iis2dlpc_reg.c ****   * @param  val      Get the values of usr_off_w in reg CTRL_REG7
 735:Drivers/BSP/Components/iis2dlpc/iis2dlpc_reg.c ****   * @retval          interface status (MANDATORY: return 0 -> no Error)
 736:Drivers/BSP/Components/iis2dlpc/iis2dlpc_reg.c ****   *
 737:Drivers/BSP/Components/iis2dlpc/iis2dlpc_reg.c ****   */
 738:Drivers/BSP/Components/iis2dlpc/iis2dlpc_reg.c **** int32_t iis2dlpc_offset_weight_get(const stmdev_ctx_t *ctx,
 739:Drivers/BSP/Components/iis2dlpc/iis2dlpc_reg.c ****                                    iis2dlpc_usr_off_w_t *val)
 740:Drivers/BSP/Components/iis2dlpc/iis2dlpc_reg.c **** {
 1784              		.loc 1 740 1 is_stmt 1 view -0
 1785              		.cfi_startproc
 1786              		@ args = 0, pretend = 0, frame = 8
 1787              		@ frame_needed = 0, uses_anonymous_args = 0
 1788              		.loc 1 740 1 is_stmt 0 view .LVU452
 1789 0000 10B5     		push	{r4, lr}
 1790              		.cfi_def_cfa_offset 8
 1791              		.cfi_offset 4, -8
 1792              		.cfi_offset 14, -4
 1793 0002 82B0     		sub	sp, sp, #8
 1794              		.cfi_def_cfa_offset 16
 1795 0004 0C46     		mov	r4, r1
 741:Drivers/BSP/Components/iis2dlpc/iis2dlpc_reg.c ****   iis2dlpc_ctrl7_t reg;
 1796              		.loc 1 741 3 is_stmt 1 view .LVU453
 742:Drivers/BSP/Components/iis2dlpc/iis2dlpc_reg.c ****   int32_t ret;
 1797              		.loc 1 742 3 view .LVU454
ARM GAS  C:\Temp\ccGZlXNO.s 			page 48


 743:Drivers/BSP/Components/iis2dlpc/iis2dlpc_reg.c **** 
 744:Drivers/BSP/Components/iis2dlpc/iis2dlpc_reg.c ****   ret = iis2dlpc_read_reg(ctx, IIS2DLPC_CTRL7, (uint8_t *) &reg, 1);
 1798              		.loc 1 744 3 view .LVU455
 1799              		.loc 1 744 9 is_stmt 0 view .LVU456
 1800 0006 0123     		movs	r3, #1
 1801 0008 01AA     		add	r2, sp, #4
 1802 000a 3F21     		movs	r1, #63
 1803              	.LVL115:
 1804              		.loc 1 744 9 view .LVU457
 1805 000c FFF7FEFF 		bl	iis2dlpc_read_reg
 1806              	.LVL116:
 745:Drivers/BSP/Components/iis2dlpc/iis2dlpc_reg.c **** 
 746:Drivers/BSP/Components/iis2dlpc/iis2dlpc_reg.c ****   switch (reg.usr_off_w)
 1807              		.loc 1 746 3 is_stmt 1 view .LVU458
 1808              		.loc 1 746 14 is_stmt 0 view .LVU459
 1809 0010 9DF80430 		ldrb	r3, [sp, #4]	@ zero_extendqisi2
 1810 0014 C3F38002 		ubfx	r2, r3, #2, #1
 1811              		.loc 1 746 3 view .LVU460
 1812 0018 13F0040F 		tst	r3, #4
 1813 001c 03D0     		beq	.L138
 1814 001e 32B9     		cbnz	r2, .L139
 747:Drivers/BSP/Components/iis2dlpc/iis2dlpc_reg.c ****   {
 748:Drivers/BSP/Components/iis2dlpc/iis2dlpc_reg.c ****     case IIS2DLPC_LSb_977ug:
 749:Drivers/BSP/Components/iis2dlpc/iis2dlpc_reg.c ****       *val = IIS2DLPC_LSb_977ug;
 750:Drivers/BSP/Components/iis2dlpc/iis2dlpc_reg.c ****       break;
 751:Drivers/BSP/Components/iis2dlpc/iis2dlpc_reg.c **** 
 752:Drivers/BSP/Components/iis2dlpc/iis2dlpc_reg.c ****     case IIS2DLPC_LSb_15mg6:
 753:Drivers/BSP/Components/iis2dlpc/iis2dlpc_reg.c ****       *val = IIS2DLPC_LSb_15mg6;
 754:Drivers/BSP/Components/iis2dlpc/iis2dlpc_reg.c ****       break;
 755:Drivers/BSP/Components/iis2dlpc/iis2dlpc_reg.c **** 
 756:Drivers/BSP/Components/iis2dlpc/iis2dlpc_reg.c ****     default:
 757:Drivers/BSP/Components/iis2dlpc/iis2dlpc_reg.c ****       *val = IIS2DLPC_LSb_977ug;
 1815              		.loc 1 757 7 is_stmt 1 view .LVU461
 1816              		.loc 1 757 12 is_stmt 0 view .LVU462
 1817 0020 0023     		movs	r3, #0
 1818 0022 2370     		strb	r3, [r4]
 758:Drivers/BSP/Components/iis2dlpc/iis2dlpc_reg.c ****       break;
 1819              		.loc 1 758 7 is_stmt 1 view .LVU463
 759:Drivers/BSP/Components/iis2dlpc/iis2dlpc_reg.c ****   }
 760:Drivers/BSP/Components/iis2dlpc/iis2dlpc_reg.c **** 
 761:Drivers/BSP/Components/iis2dlpc/iis2dlpc_reg.c ****   return ret;
 1820              		.loc 1 761 3 view .LVU464
 1821              		.loc 1 761 10 is_stmt 0 view .LVU465
 1822 0024 01E0     		b	.L137
 1823              	.L138:
 749:Drivers/BSP/Components/iis2dlpc/iis2dlpc_reg.c ****       break;
 1824              		.loc 1 749 7 is_stmt 1 view .LVU466
 749:Drivers/BSP/Components/iis2dlpc/iis2dlpc_reg.c ****       break;
 1825              		.loc 1 749 12 is_stmt 0 view .LVU467
 1826 0026 0023     		movs	r3, #0
 1827 0028 2370     		strb	r3, [r4]
 750:Drivers/BSP/Components/iis2dlpc/iis2dlpc_reg.c **** 
 1828              		.loc 1 750 7 is_stmt 1 view .LVU468
 1829              	.L137:
 762:Drivers/BSP/Components/iis2dlpc/iis2dlpc_reg.c **** }
 1830              		.loc 1 762 1 is_stmt 0 view .LVU469
 1831 002a 02B0     		add	sp, sp, #8
ARM GAS  C:\Temp\ccGZlXNO.s 			page 49


 1832              		.cfi_remember_state
 1833              		.cfi_def_cfa_offset 8
 1834              		@ sp needed
 1835 002c 10BD     		pop	{r4, pc}
 1836              	.LVL117:
 1837              	.L139:
 1838              		.cfi_restore_state
 753:Drivers/BSP/Components/iis2dlpc/iis2dlpc_reg.c ****       break;
 1839              		.loc 1 753 7 is_stmt 1 view .LVU470
 753:Drivers/BSP/Components/iis2dlpc/iis2dlpc_reg.c ****       break;
 1840              		.loc 1 753 12 is_stmt 0 view .LVU471
 1841 002e 0123     		movs	r3, #1
 1842 0030 2370     		strb	r3, [r4]
 754:Drivers/BSP/Components/iis2dlpc/iis2dlpc_reg.c **** 
 1843              		.loc 1 754 7 is_stmt 1 view .LVU472
 1844 0032 FAE7     		b	.L137
 1845              		.cfi_endproc
 1846              	.LFE29:
 1848              		.section	.text.iis2dlpc_temperature_raw_get,"ax",%progbits
 1849              		.align	1
 1850              		.global	iis2dlpc_temperature_raw_get
 1851              		.syntax unified
 1852              		.thumb
 1853              		.thumb_func
 1855              	iis2dlpc_temperature_raw_get:
 1856              	.LVL118:
 1857              	.LFB30:
 763:Drivers/BSP/Components/iis2dlpc/iis2dlpc_reg.c **** 
 764:Drivers/BSP/Components/iis2dlpc/iis2dlpc_reg.c **** /**
 765:Drivers/BSP/Components/iis2dlpc/iis2dlpc_reg.c ****   * @}
 766:Drivers/BSP/Components/iis2dlpc/iis2dlpc_reg.c ****   *
 767:Drivers/BSP/Components/iis2dlpc/iis2dlpc_reg.c ****   */
 768:Drivers/BSP/Components/iis2dlpc/iis2dlpc_reg.c **** 
 769:Drivers/BSP/Components/iis2dlpc/iis2dlpc_reg.c **** /**
 770:Drivers/BSP/Components/iis2dlpc/iis2dlpc_reg.c ****   * @defgroup  IIS2DLPC_Data_Output
 771:Drivers/BSP/Components/iis2dlpc/iis2dlpc_reg.c ****   * @brief     This section groups all the data output functions.
 772:Drivers/BSP/Components/iis2dlpc/iis2dlpc_reg.c ****   * @{
 773:Drivers/BSP/Components/iis2dlpc/iis2dlpc_reg.c ****   *
 774:Drivers/BSP/Components/iis2dlpc/iis2dlpc_reg.c ****   */
 775:Drivers/BSP/Components/iis2dlpc/iis2dlpc_reg.c **** 
 776:Drivers/BSP/Components/iis2dlpc/iis2dlpc_reg.c **** /**
 777:Drivers/BSP/Components/iis2dlpc/iis2dlpc_reg.c ****   * @brief  Temperature data output register (r). L and H registers
 778:Drivers/BSP/Components/iis2dlpc/iis2dlpc_reg.c ****   *         together express a 16-bit word in two's complement.[get]
 779:Drivers/BSP/Components/iis2dlpc/iis2dlpc_reg.c ****   *
 780:Drivers/BSP/Components/iis2dlpc/iis2dlpc_reg.c ****   * @param  ctx      read / write interface definitions
 781:Drivers/BSP/Components/iis2dlpc/iis2dlpc_reg.c ****   * @param  buff     buffer that stores data read
 782:Drivers/BSP/Components/iis2dlpc/iis2dlpc_reg.c ****   * @retval          interface status (MANDATORY: return 0 -> no Error)
 783:Drivers/BSP/Components/iis2dlpc/iis2dlpc_reg.c ****   *
 784:Drivers/BSP/Components/iis2dlpc/iis2dlpc_reg.c ****   */
 785:Drivers/BSP/Components/iis2dlpc/iis2dlpc_reg.c **** int32_t iis2dlpc_temperature_raw_get(const stmdev_ctx_t *ctx, int16_t *val)
 786:Drivers/BSP/Components/iis2dlpc/iis2dlpc_reg.c **** {
 1858              		.loc 1 786 1 view -0
 1859              		.cfi_startproc
 1860              		@ args = 0, pretend = 0, frame = 8
 1861              		@ frame_needed = 0, uses_anonymous_args = 0
 1862              		.loc 1 786 1 is_stmt 0 view .LVU474
 1863 0000 10B5     		push	{r4, lr}
ARM GAS  C:\Temp\ccGZlXNO.s 			page 50


 1864              		.cfi_def_cfa_offset 8
 1865              		.cfi_offset 4, -8
 1866              		.cfi_offset 14, -4
 1867 0002 82B0     		sub	sp, sp, #8
 1868              		.cfi_def_cfa_offset 16
 1869 0004 0C46     		mov	r4, r1
 787:Drivers/BSP/Components/iis2dlpc/iis2dlpc_reg.c ****   uint8_t buff[2];
 1870              		.loc 1 787 3 is_stmt 1 view .LVU475
 788:Drivers/BSP/Components/iis2dlpc/iis2dlpc_reg.c ****   int32_t ret;
 1871              		.loc 1 788 3 view .LVU476
 789:Drivers/BSP/Components/iis2dlpc/iis2dlpc_reg.c **** 
 790:Drivers/BSP/Components/iis2dlpc/iis2dlpc_reg.c ****   ret = iis2dlpc_read_reg(ctx, IIS2DLPC_OUT_T_L, buff, 2);
 1872              		.loc 1 790 3 view .LVU477
 1873              		.loc 1 790 9 is_stmt 0 view .LVU478
 1874 0006 0223     		movs	r3, #2
 1875 0008 01AA     		add	r2, sp, #4
 1876 000a 0D21     		movs	r1, #13
 1877              	.LVL119:
 1878              		.loc 1 790 9 view .LVU479
 1879 000c FFF7FEFF 		bl	iis2dlpc_read_reg
 1880              	.LVL120:
 791:Drivers/BSP/Components/iis2dlpc/iis2dlpc_reg.c ****   *val = (int16_t)buff[1];
 1881              		.loc 1 791 3 is_stmt 1 view .LVU480
 1882              		.loc 1 791 23 is_stmt 0 view .LVU481
 1883 0010 9DF80520 		ldrb	r2, [sp, #5]	@ zero_extendqisi2
 1884              		.loc 1 791 8 view .LVU482
 1885 0014 2280     		strh	r2, [r4]	@ movhi
 792:Drivers/BSP/Components/iis2dlpc/iis2dlpc_reg.c ****   *val = (*val * 256) + (int16_t)buff[0];
 1886              		.loc 1 792 3 is_stmt 1 view .LVU483
 1887              		.loc 1 792 38 is_stmt 0 view .LVU484
 1888 0016 9DF80430 		ldrb	r3, [sp, #4]	@ zero_extendqisi2
 1889              		.loc 1 792 23 view .LVU485
 1890 001a 03EB0223 		add	r3, r3, r2, lsl #8
 1891              		.loc 1 792 8 view .LVU486
 1892 001e 2380     		strh	r3, [r4]	@ movhi
 793:Drivers/BSP/Components/iis2dlpc/iis2dlpc_reg.c **** 
 794:Drivers/BSP/Components/iis2dlpc/iis2dlpc_reg.c ****   return ret;
 1893              		.loc 1 794 3 is_stmt 1 view .LVU487
 795:Drivers/BSP/Components/iis2dlpc/iis2dlpc_reg.c **** }
 1894              		.loc 1 795 1 is_stmt 0 view .LVU488
 1895 0020 02B0     		add	sp, sp, #8
 1896              		.cfi_def_cfa_offset 8
 1897              		@ sp needed
 1898 0022 10BD     		pop	{r4, pc}
 1899              		.loc 1 795 1 view .LVU489
 1900              		.cfi_endproc
 1901              	.LFE30:
 1903              		.section	.text.iis2dlpc_acceleration_raw_get,"ax",%progbits
 1904              		.align	1
 1905              		.global	iis2dlpc_acceleration_raw_get
 1906              		.syntax unified
 1907              		.thumb
 1908              		.thumb_func
 1910              	iis2dlpc_acceleration_raw_get:
 1911              	.LVL121:
 1912              	.LFB31:
 796:Drivers/BSP/Components/iis2dlpc/iis2dlpc_reg.c **** 
ARM GAS  C:\Temp\ccGZlXNO.s 			page 51


 797:Drivers/BSP/Components/iis2dlpc/iis2dlpc_reg.c **** /**
 798:Drivers/BSP/Components/iis2dlpc/iis2dlpc_reg.c ****   * @brief  Linear acceleration output register. The value is expressed as
 799:Drivers/BSP/Components/iis2dlpc/iis2dlpc_reg.c ****   *         a 16-bit word in two's complement.[get]
 800:Drivers/BSP/Components/iis2dlpc/iis2dlpc_reg.c ****   *
 801:Drivers/BSP/Components/iis2dlpc/iis2dlpc_reg.c ****   * @param  ctx      read / write interface definitions
 802:Drivers/BSP/Components/iis2dlpc/iis2dlpc_reg.c ****   * @param  buff     buffer that stores data read
 803:Drivers/BSP/Components/iis2dlpc/iis2dlpc_reg.c ****   * @retval          interface status (MANDATORY: return 0 -> no Error)
 804:Drivers/BSP/Components/iis2dlpc/iis2dlpc_reg.c ****   *
 805:Drivers/BSP/Components/iis2dlpc/iis2dlpc_reg.c ****   */
 806:Drivers/BSP/Components/iis2dlpc/iis2dlpc_reg.c **** int32_t iis2dlpc_acceleration_raw_get(const stmdev_ctx_t *ctx, int16_t *val)
 807:Drivers/BSP/Components/iis2dlpc/iis2dlpc_reg.c **** {
 1913              		.loc 1 807 1 is_stmt 1 view -0
 1914              		.cfi_startproc
 1915              		@ args = 0, pretend = 0, frame = 8
 1916              		@ frame_needed = 0, uses_anonymous_args = 0
 1917              		.loc 1 807 1 is_stmt 0 view .LVU491
 1918 0000 10B5     		push	{r4, lr}
 1919              		.cfi_def_cfa_offset 8
 1920              		.cfi_offset 4, -8
 1921              		.cfi_offset 14, -4
 1922 0002 82B0     		sub	sp, sp, #8
 1923              		.cfi_def_cfa_offset 16
 1924 0004 0C46     		mov	r4, r1
 808:Drivers/BSP/Components/iis2dlpc/iis2dlpc_reg.c ****   uint8_t buff[6];
 1925              		.loc 1 808 3 is_stmt 1 view .LVU492
 809:Drivers/BSP/Components/iis2dlpc/iis2dlpc_reg.c ****   int32_t ret;
 1926              		.loc 1 809 3 view .LVU493
 810:Drivers/BSP/Components/iis2dlpc/iis2dlpc_reg.c **** 
 811:Drivers/BSP/Components/iis2dlpc/iis2dlpc_reg.c ****   ret = iis2dlpc_read_reg(ctx, IIS2DLPC_OUT_X_L, buff, 6);
 1927              		.loc 1 811 3 view .LVU494
 1928              		.loc 1 811 9 is_stmt 0 view .LVU495
 1929 0006 0623     		movs	r3, #6
 1930 0008 6A46     		mov	r2, sp
 1931 000a 2821     		movs	r1, #40
 1932              	.LVL122:
 1933              		.loc 1 811 9 view .LVU496
 1934 000c FFF7FEFF 		bl	iis2dlpc_read_reg
 1935              	.LVL123:
 812:Drivers/BSP/Components/iis2dlpc/iis2dlpc_reg.c ****   val[0] = (int16_t)buff[1];
 1936              		.loc 1 812 3 is_stmt 1 view .LVU497
 1937              		.loc 1 812 25 is_stmt 0 view .LVU498
 1938 0010 9DF80120 		ldrb	r2, [sp, #1]	@ zero_extendqisi2
 1939              		.loc 1 812 10 view .LVU499
 1940 0014 2280     		strh	r2, [r4]	@ movhi
 813:Drivers/BSP/Components/iis2dlpc/iis2dlpc_reg.c ****   val[0] = (val[0] * 256) + (int16_t)buff[0];
 1941              		.loc 1 813 3 is_stmt 1 view .LVU500
 1942              		.loc 1 813 42 is_stmt 0 view .LVU501
 1943 0016 9DF80030 		ldrb	r3, [sp]	@ zero_extendqisi2
 1944              		.loc 1 813 27 view .LVU502
 1945 001a 03EB0223 		add	r3, r3, r2, lsl #8
 1946              		.loc 1 813 10 view .LVU503
 1947 001e 2380     		strh	r3, [r4]	@ movhi
 814:Drivers/BSP/Components/iis2dlpc/iis2dlpc_reg.c ****   val[1] = (int16_t)buff[3];
 1948              		.loc 1 814 3 is_stmt 1 view .LVU504
 1949              		.loc 1 814 25 is_stmt 0 view .LVU505
 1950 0020 9DF80320 		ldrb	r2, [sp, #3]	@ zero_extendqisi2
 1951              		.loc 1 814 10 view .LVU506
ARM GAS  C:\Temp\ccGZlXNO.s 			page 52


 1952 0024 6280     		strh	r2, [r4, #2]	@ movhi
 815:Drivers/BSP/Components/iis2dlpc/iis2dlpc_reg.c ****   val[1] = (val[1] * 256) + (int16_t)buff[2];
 1953              		.loc 1 815 3 is_stmt 1 view .LVU507
 1954              		.loc 1 815 42 is_stmt 0 view .LVU508
 1955 0026 9DF80230 		ldrb	r3, [sp, #2]	@ zero_extendqisi2
 1956              		.loc 1 815 27 view .LVU509
 1957 002a 03EB0223 		add	r3, r3, r2, lsl #8
 1958              		.loc 1 815 10 view .LVU510
 1959 002e 6380     		strh	r3, [r4, #2]	@ movhi
 816:Drivers/BSP/Components/iis2dlpc/iis2dlpc_reg.c ****   val[2] = (int16_t)buff[5];
 1960              		.loc 1 816 3 is_stmt 1 view .LVU511
 1961              		.loc 1 816 25 is_stmt 0 view .LVU512
 1962 0030 9DF80520 		ldrb	r2, [sp, #5]	@ zero_extendqisi2
 1963              		.loc 1 816 10 view .LVU513
 1964 0034 A280     		strh	r2, [r4, #4]	@ movhi
 817:Drivers/BSP/Components/iis2dlpc/iis2dlpc_reg.c ****   val[2] = (val[2] * 256) + (int16_t)buff[4];
 1965              		.loc 1 817 3 is_stmt 1 view .LVU514
 1966              		.loc 1 817 42 is_stmt 0 view .LVU515
 1967 0036 9DF80430 		ldrb	r3, [sp, #4]	@ zero_extendqisi2
 1968              		.loc 1 817 27 view .LVU516
 1969 003a 03EB0223 		add	r3, r3, r2, lsl #8
 1970              		.loc 1 817 10 view .LVU517
 1971 003e A380     		strh	r3, [r4, #4]	@ movhi
 818:Drivers/BSP/Components/iis2dlpc/iis2dlpc_reg.c **** 
 819:Drivers/BSP/Components/iis2dlpc/iis2dlpc_reg.c ****   return ret;
 1972              		.loc 1 819 3 is_stmt 1 view .LVU518
 820:Drivers/BSP/Components/iis2dlpc/iis2dlpc_reg.c **** }
 1973              		.loc 1 820 1 is_stmt 0 view .LVU519
 1974 0040 02B0     		add	sp, sp, #8
 1975              		.cfi_def_cfa_offset 8
 1976              		@ sp needed
 1977 0042 10BD     		pop	{r4, pc}
 1978              		.loc 1 820 1 view .LVU520
 1979              		.cfi_endproc
 1980              	.LFE31:
 1982              		.section	.text.iis2dlpc_device_id_get,"ax",%progbits
 1983              		.align	1
 1984              		.global	iis2dlpc_device_id_get
 1985              		.syntax unified
 1986              		.thumb
 1987              		.thumb_func
 1989              	iis2dlpc_device_id_get:
 1990              	.LVL124:
 1991              	.LFB32:
 821:Drivers/BSP/Components/iis2dlpc/iis2dlpc_reg.c **** 
 822:Drivers/BSP/Components/iis2dlpc/iis2dlpc_reg.c **** /**
 823:Drivers/BSP/Components/iis2dlpc/iis2dlpc_reg.c ****   * @}
 824:Drivers/BSP/Components/iis2dlpc/iis2dlpc_reg.c ****   *
 825:Drivers/BSP/Components/iis2dlpc/iis2dlpc_reg.c ****   */
 826:Drivers/BSP/Components/iis2dlpc/iis2dlpc_reg.c **** 
 827:Drivers/BSP/Components/iis2dlpc/iis2dlpc_reg.c **** /**
 828:Drivers/BSP/Components/iis2dlpc/iis2dlpc_reg.c ****   * @defgroup  IIS2DLPC_Common
 829:Drivers/BSP/Components/iis2dlpc/iis2dlpc_reg.c ****   * @brief     This section groups common useful functions.
 830:Drivers/BSP/Components/iis2dlpc/iis2dlpc_reg.c ****   * @{
 831:Drivers/BSP/Components/iis2dlpc/iis2dlpc_reg.c ****   *
 832:Drivers/BSP/Components/iis2dlpc/iis2dlpc_reg.c ****   */
 833:Drivers/BSP/Components/iis2dlpc/iis2dlpc_reg.c **** 
ARM GAS  C:\Temp\ccGZlXNO.s 			page 53


 834:Drivers/BSP/Components/iis2dlpc/iis2dlpc_reg.c **** /**
 835:Drivers/BSP/Components/iis2dlpc/iis2dlpc_reg.c ****   * @brief  Device Who am I.[get]
 836:Drivers/BSP/Components/iis2dlpc/iis2dlpc_reg.c ****   *
 837:Drivers/BSP/Components/iis2dlpc/iis2dlpc_reg.c ****   * @param  ctx      read / write interface definitions
 838:Drivers/BSP/Components/iis2dlpc/iis2dlpc_reg.c ****   * @param  buff     buffer that stores data read
 839:Drivers/BSP/Components/iis2dlpc/iis2dlpc_reg.c ****   * @retval          interface status (MANDATORY: return 0 -> no Error)
 840:Drivers/BSP/Components/iis2dlpc/iis2dlpc_reg.c ****   *
 841:Drivers/BSP/Components/iis2dlpc/iis2dlpc_reg.c ****   */
 842:Drivers/BSP/Components/iis2dlpc/iis2dlpc_reg.c **** int32_t iis2dlpc_device_id_get(const stmdev_ctx_t *ctx, uint8_t *buff)
 843:Drivers/BSP/Components/iis2dlpc/iis2dlpc_reg.c **** {
 1992              		.loc 1 843 1 is_stmt 1 view -0
 1993              		.cfi_startproc
 1994              		@ args = 0, pretend = 0, frame = 0
 1995              		@ frame_needed = 0, uses_anonymous_args = 0
 1996              		.loc 1 843 1 is_stmt 0 view .LVU522
 1997 0000 08B5     		push	{r3, lr}
 1998              		.cfi_def_cfa_offset 8
 1999              		.cfi_offset 3, -8
 2000              		.cfi_offset 14, -4
 2001 0002 0A46     		mov	r2, r1
 844:Drivers/BSP/Components/iis2dlpc/iis2dlpc_reg.c ****   int32_t ret;
 2002              		.loc 1 844 3 is_stmt 1 view .LVU523
 845:Drivers/BSP/Components/iis2dlpc/iis2dlpc_reg.c **** 
 846:Drivers/BSP/Components/iis2dlpc/iis2dlpc_reg.c ****   ret = iis2dlpc_read_reg(ctx, IIS2DLPC_WHO_AM_I, buff, 1);
 2003              		.loc 1 846 3 view .LVU524
 2004              		.loc 1 846 9 is_stmt 0 view .LVU525
 2005 0004 0123     		movs	r3, #1
 2006 0006 0F21     		movs	r1, #15
 2007              	.LVL125:
 2008              		.loc 1 846 9 view .LVU526
 2009 0008 FFF7FEFF 		bl	iis2dlpc_read_reg
 2010              	.LVL126:
 847:Drivers/BSP/Components/iis2dlpc/iis2dlpc_reg.c **** 
 848:Drivers/BSP/Components/iis2dlpc/iis2dlpc_reg.c ****   return ret;
 2011              		.loc 1 848 3 is_stmt 1 view .LVU527
 849:Drivers/BSP/Components/iis2dlpc/iis2dlpc_reg.c **** }
 2012              		.loc 1 849 1 is_stmt 0 view .LVU528
 2013 000c 08BD     		pop	{r3, pc}
 2014              		.cfi_endproc
 2015              	.LFE32:
 2017              		.section	.text.iis2dlpc_auto_increment_set,"ax",%progbits
 2018              		.align	1
 2019              		.global	iis2dlpc_auto_increment_set
 2020              		.syntax unified
 2021              		.thumb
 2022              		.thumb_func
 2024              	iis2dlpc_auto_increment_set:
 2025              	.LVL127:
 2026              	.LFB33:
 850:Drivers/BSP/Components/iis2dlpc/iis2dlpc_reg.c **** 
 851:Drivers/BSP/Components/iis2dlpc/iis2dlpc_reg.c **** /**
 852:Drivers/BSP/Components/iis2dlpc/iis2dlpc_reg.c ****   * @brief  Register address automatically incremented during multiple byte
 853:Drivers/BSP/Components/iis2dlpc/iis2dlpc_reg.c ****   *         access with a serial interface.[set]
 854:Drivers/BSP/Components/iis2dlpc/iis2dlpc_reg.c ****   *
 855:Drivers/BSP/Components/iis2dlpc/iis2dlpc_reg.c ****   * @param  ctx      read / write interface definitions
 856:Drivers/BSP/Components/iis2dlpc/iis2dlpc_reg.c ****   * @param  val      change the values of if_add_inc in reg CTRL2
 857:Drivers/BSP/Components/iis2dlpc/iis2dlpc_reg.c ****   * @retval          interface status (MANDATORY: return 0 -> no Error)
ARM GAS  C:\Temp\ccGZlXNO.s 			page 54


 858:Drivers/BSP/Components/iis2dlpc/iis2dlpc_reg.c ****   *
 859:Drivers/BSP/Components/iis2dlpc/iis2dlpc_reg.c ****   */
 860:Drivers/BSP/Components/iis2dlpc/iis2dlpc_reg.c **** int32_t iis2dlpc_auto_increment_set(const stmdev_ctx_t *ctx, uint8_t val)
 861:Drivers/BSP/Components/iis2dlpc/iis2dlpc_reg.c **** {
 2027              		.loc 1 861 1 is_stmt 1 view -0
 2028              		.cfi_startproc
 2029              		@ args = 0, pretend = 0, frame = 8
 2030              		@ frame_needed = 0, uses_anonymous_args = 0
 2031              		.loc 1 861 1 is_stmt 0 view .LVU530
 2032 0000 30B5     		push	{r4, r5, lr}
 2033              		.cfi_def_cfa_offset 12
 2034              		.cfi_offset 4, -12
 2035              		.cfi_offset 5, -8
 2036              		.cfi_offset 14, -4
 2037 0002 83B0     		sub	sp, sp, #12
 2038              		.cfi_def_cfa_offset 24
 2039 0004 0446     		mov	r4, r0
 2040 0006 0D46     		mov	r5, r1
 862:Drivers/BSP/Components/iis2dlpc/iis2dlpc_reg.c ****   iis2dlpc_ctrl2_t reg;
 2041              		.loc 1 862 3 is_stmt 1 view .LVU531
 863:Drivers/BSP/Components/iis2dlpc/iis2dlpc_reg.c ****   int32_t ret;
 2042              		.loc 1 863 3 view .LVU532
 864:Drivers/BSP/Components/iis2dlpc/iis2dlpc_reg.c **** 
 865:Drivers/BSP/Components/iis2dlpc/iis2dlpc_reg.c ****   ret = iis2dlpc_read_reg(ctx, IIS2DLPC_CTRL2, (uint8_t *) &reg, 1);
 2043              		.loc 1 865 3 view .LVU533
 2044              		.loc 1 865 9 is_stmt 0 view .LVU534
 2045 0008 0123     		movs	r3, #1
 2046 000a 01AA     		add	r2, sp, #4
 2047 000c 2121     		movs	r1, #33
 2048              	.LVL128:
 2049              		.loc 1 865 9 view .LVU535
 2050 000e FFF7FEFF 		bl	iis2dlpc_read_reg
 2051              	.LVL129:
 866:Drivers/BSP/Components/iis2dlpc/iis2dlpc_reg.c **** 
 867:Drivers/BSP/Components/iis2dlpc/iis2dlpc_reg.c ****   if (ret == 0)
 2052              		.loc 1 867 3 is_stmt 1 view .LVU536
 2053              		.loc 1 867 6 is_stmt 0 view .LVU537
 2054 0012 08B1     		cbz	r0, .L153
 2055              	.LVL130:
 2056              	.L150:
 868:Drivers/BSP/Components/iis2dlpc/iis2dlpc_reg.c ****   {
 869:Drivers/BSP/Components/iis2dlpc/iis2dlpc_reg.c ****     reg.if_add_inc = val;
 870:Drivers/BSP/Components/iis2dlpc/iis2dlpc_reg.c ****     ret = iis2dlpc_write_reg(ctx, IIS2DLPC_CTRL2, (uint8_t *) &reg, 1);
 871:Drivers/BSP/Components/iis2dlpc/iis2dlpc_reg.c ****   }
 872:Drivers/BSP/Components/iis2dlpc/iis2dlpc_reg.c **** 
 873:Drivers/BSP/Components/iis2dlpc/iis2dlpc_reg.c ****   return ret;
 874:Drivers/BSP/Components/iis2dlpc/iis2dlpc_reg.c **** }
 2057              		.loc 1 874 1 view .LVU538
 2058 0014 03B0     		add	sp, sp, #12
 2059              		.cfi_remember_state
 2060              		.cfi_def_cfa_offset 12
 2061              		@ sp needed
 2062 0016 30BD     		pop	{r4, r5, pc}
 2063              	.LVL131:
 2064              	.L153:
 2065              		.cfi_restore_state
 869:Drivers/BSP/Components/iis2dlpc/iis2dlpc_reg.c ****     ret = iis2dlpc_write_reg(ctx, IIS2DLPC_CTRL2, (uint8_t *) &reg, 1);
ARM GAS  C:\Temp\ccGZlXNO.s 			page 55


 2066              		.loc 1 869 5 is_stmt 1 view .LVU539
 869:Drivers/BSP/Components/iis2dlpc/iis2dlpc_reg.c ****     ret = iis2dlpc_write_reg(ctx, IIS2DLPC_CTRL2, (uint8_t *) &reg, 1);
 2067              		.loc 1 869 20 is_stmt 0 view .LVU540
 2068 0018 9DF80430 		ldrb	r3, [sp, #4]	@ zero_extendqisi2
 2069 001c 65F38203 		bfi	r3, r5, #2, #1
 2070 0020 8DF80430 		strb	r3, [sp, #4]
 870:Drivers/BSP/Components/iis2dlpc/iis2dlpc_reg.c ****   }
 2071              		.loc 1 870 5 is_stmt 1 view .LVU541
 870:Drivers/BSP/Components/iis2dlpc/iis2dlpc_reg.c ****   }
 2072              		.loc 1 870 11 is_stmt 0 view .LVU542
 2073 0024 0123     		movs	r3, #1
 2074              	.LVL132:
 870:Drivers/BSP/Components/iis2dlpc/iis2dlpc_reg.c ****   }
 2075              		.loc 1 870 11 view .LVU543
 2076 0026 01AA     		add	r2, sp, #4
 2077 0028 2121     		movs	r1, #33
 2078 002a 2046     		mov	r0, r4
 2079 002c FFF7FEFF 		bl	iis2dlpc_write_reg
 2080              	.LVL133:
 873:Drivers/BSP/Components/iis2dlpc/iis2dlpc_reg.c **** }
 2081              		.loc 1 873 3 is_stmt 1 view .LVU544
 873:Drivers/BSP/Components/iis2dlpc/iis2dlpc_reg.c **** }
 2082              		.loc 1 873 10 is_stmt 0 view .LVU545
 2083 0030 F0E7     		b	.L150
 2084              		.cfi_endproc
 2085              	.LFE33:
 2087              		.section	.text.iis2dlpc_auto_increment_get,"ax",%progbits
 2088              		.align	1
 2089              		.global	iis2dlpc_auto_increment_get
 2090              		.syntax unified
 2091              		.thumb
 2092              		.thumb_func
 2094              	iis2dlpc_auto_increment_get:
 2095              	.LVL134:
 2096              	.LFB34:
 875:Drivers/BSP/Components/iis2dlpc/iis2dlpc_reg.c **** 
 876:Drivers/BSP/Components/iis2dlpc/iis2dlpc_reg.c **** /**
 877:Drivers/BSP/Components/iis2dlpc/iis2dlpc_reg.c ****   * @brief  Register address automatically incremented during multiple
 878:Drivers/BSP/Components/iis2dlpc/iis2dlpc_reg.c ****   *         byte access with a serial interface.[get]
 879:Drivers/BSP/Components/iis2dlpc/iis2dlpc_reg.c ****   *
 880:Drivers/BSP/Components/iis2dlpc/iis2dlpc_reg.c ****   * @param  ctx      read / write interface definitions
 881:Drivers/BSP/Components/iis2dlpc/iis2dlpc_reg.c ****   * @param  val      change the values of if_add_inc in reg CTRL2
 882:Drivers/BSP/Components/iis2dlpc/iis2dlpc_reg.c ****   * @retval          interface status (MANDATORY: return 0 -> no Error)
 883:Drivers/BSP/Components/iis2dlpc/iis2dlpc_reg.c ****   *
 884:Drivers/BSP/Components/iis2dlpc/iis2dlpc_reg.c ****   */
 885:Drivers/BSP/Components/iis2dlpc/iis2dlpc_reg.c **** int32_t iis2dlpc_auto_increment_get(const stmdev_ctx_t *ctx, uint8_t *val)
 886:Drivers/BSP/Components/iis2dlpc/iis2dlpc_reg.c **** {
 2097              		.loc 1 886 1 is_stmt 1 view -0
 2098              		.cfi_startproc
 2099              		@ args = 0, pretend = 0, frame = 8
 2100              		@ frame_needed = 0, uses_anonymous_args = 0
 2101              		.loc 1 886 1 is_stmt 0 view .LVU547
 2102 0000 10B5     		push	{r4, lr}
 2103              		.cfi_def_cfa_offset 8
 2104              		.cfi_offset 4, -8
 2105              		.cfi_offset 14, -4
 2106 0002 82B0     		sub	sp, sp, #8
ARM GAS  C:\Temp\ccGZlXNO.s 			page 56


 2107              		.cfi_def_cfa_offset 16
 2108 0004 0C46     		mov	r4, r1
 887:Drivers/BSP/Components/iis2dlpc/iis2dlpc_reg.c ****   iis2dlpc_ctrl2_t reg;
 2109              		.loc 1 887 3 is_stmt 1 view .LVU548
 888:Drivers/BSP/Components/iis2dlpc/iis2dlpc_reg.c ****   int32_t ret;
 2110              		.loc 1 888 3 view .LVU549
 889:Drivers/BSP/Components/iis2dlpc/iis2dlpc_reg.c **** 
 890:Drivers/BSP/Components/iis2dlpc/iis2dlpc_reg.c ****   ret = iis2dlpc_read_reg(ctx, IIS2DLPC_CTRL2, (uint8_t *) &reg, 1);
 2111              		.loc 1 890 3 view .LVU550
 2112              		.loc 1 890 9 is_stmt 0 view .LVU551
 2113 0006 0123     		movs	r3, #1
 2114 0008 01AA     		add	r2, sp, #4
 2115 000a 2121     		movs	r1, #33
 2116              	.LVL135:
 2117              		.loc 1 890 9 view .LVU552
 2118 000c FFF7FEFF 		bl	iis2dlpc_read_reg
 2119              	.LVL136:
 891:Drivers/BSP/Components/iis2dlpc/iis2dlpc_reg.c ****   *val = reg.if_add_inc;
 2120              		.loc 1 891 3 is_stmt 1 view .LVU553
 2121              		.loc 1 891 13 is_stmt 0 view .LVU554
 2122 0010 9DF80430 		ldrb	r3, [sp, #4]	@ zero_extendqisi2
 2123 0014 C3F38003 		ubfx	r3, r3, #2, #1
 2124              		.loc 1 891 8 view .LVU555
 2125 0018 2370     		strb	r3, [r4]
 892:Drivers/BSP/Components/iis2dlpc/iis2dlpc_reg.c **** 
 893:Drivers/BSP/Components/iis2dlpc/iis2dlpc_reg.c ****   return ret;
 2126              		.loc 1 893 3 is_stmt 1 view .LVU556
 894:Drivers/BSP/Components/iis2dlpc/iis2dlpc_reg.c **** }
 2127              		.loc 1 894 1 is_stmt 0 view .LVU557
 2128 001a 02B0     		add	sp, sp, #8
 2129              		.cfi_def_cfa_offset 8
 2130              		@ sp needed
 2131 001c 10BD     		pop	{r4, pc}
 2132              		.loc 1 894 1 view .LVU558
 2133              		.cfi_endproc
 2134              	.LFE34:
 2136              		.section	.text.iis2dlpc_reset_set,"ax",%progbits
 2137              		.align	1
 2138              		.global	iis2dlpc_reset_set
 2139              		.syntax unified
 2140              		.thumb
 2141              		.thumb_func
 2143              	iis2dlpc_reset_set:
 2144              	.LVL137:
 2145              	.LFB35:
 895:Drivers/BSP/Components/iis2dlpc/iis2dlpc_reg.c **** 
 896:Drivers/BSP/Components/iis2dlpc/iis2dlpc_reg.c **** /**
 897:Drivers/BSP/Components/iis2dlpc/iis2dlpc_reg.c ****   * @brief  Software reset. Restore the default values in user registers.[set]
 898:Drivers/BSP/Components/iis2dlpc/iis2dlpc_reg.c ****   *
 899:Drivers/BSP/Components/iis2dlpc/iis2dlpc_reg.c ****   * @param  ctx      read / write interface definitions
 900:Drivers/BSP/Components/iis2dlpc/iis2dlpc_reg.c ****   * @param  val      change the values of soft_reset in reg CTRL2
 901:Drivers/BSP/Components/iis2dlpc/iis2dlpc_reg.c ****   * @retval          interface status (MANDATORY: return 0 -> no Error)
 902:Drivers/BSP/Components/iis2dlpc/iis2dlpc_reg.c ****   *
 903:Drivers/BSP/Components/iis2dlpc/iis2dlpc_reg.c ****   */
 904:Drivers/BSP/Components/iis2dlpc/iis2dlpc_reg.c **** int32_t iis2dlpc_reset_set(const stmdev_ctx_t *ctx, uint8_t val)
 905:Drivers/BSP/Components/iis2dlpc/iis2dlpc_reg.c **** {
 2146              		.loc 1 905 1 is_stmt 1 view -0
ARM GAS  C:\Temp\ccGZlXNO.s 			page 57


 2147              		.cfi_startproc
 2148              		@ args = 0, pretend = 0, frame = 8
 2149              		@ frame_needed = 0, uses_anonymous_args = 0
 2150              		.loc 1 905 1 is_stmt 0 view .LVU560
 2151 0000 30B5     		push	{r4, r5, lr}
 2152              		.cfi_def_cfa_offset 12
 2153              		.cfi_offset 4, -12
 2154              		.cfi_offset 5, -8
 2155              		.cfi_offset 14, -4
 2156 0002 83B0     		sub	sp, sp, #12
 2157              		.cfi_def_cfa_offset 24
 2158 0004 0446     		mov	r4, r0
 2159 0006 0D46     		mov	r5, r1
 906:Drivers/BSP/Components/iis2dlpc/iis2dlpc_reg.c ****   iis2dlpc_ctrl2_t reg;
 2160              		.loc 1 906 3 is_stmt 1 view .LVU561
 907:Drivers/BSP/Components/iis2dlpc/iis2dlpc_reg.c ****   int32_t ret;
 2161              		.loc 1 907 3 view .LVU562
 908:Drivers/BSP/Components/iis2dlpc/iis2dlpc_reg.c **** 
 909:Drivers/BSP/Components/iis2dlpc/iis2dlpc_reg.c ****   ret = iis2dlpc_read_reg(ctx, IIS2DLPC_CTRL2, (uint8_t *) &reg, 1);
 2162              		.loc 1 909 3 view .LVU563
 2163              		.loc 1 909 9 is_stmt 0 view .LVU564
 2164 0008 0123     		movs	r3, #1
 2165 000a 01AA     		add	r2, sp, #4
 2166 000c 2121     		movs	r1, #33
 2167              	.LVL138:
 2168              		.loc 1 909 9 view .LVU565
 2169 000e FFF7FEFF 		bl	iis2dlpc_read_reg
 2170              	.LVL139:
 910:Drivers/BSP/Components/iis2dlpc/iis2dlpc_reg.c **** 
 911:Drivers/BSP/Components/iis2dlpc/iis2dlpc_reg.c ****   if (ret == 0)
 2171              		.loc 1 911 3 is_stmt 1 view .LVU566
 2172              		.loc 1 911 6 is_stmt 0 view .LVU567
 2173 0012 08B1     		cbz	r0, .L159
 2174              	.LVL140:
 2175              	.L156:
 912:Drivers/BSP/Components/iis2dlpc/iis2dlpc_reg.c ****   {
 913:Drivers/BSP/Components/iis2dlpc/iis2dlpc_reg.c ****     reg.soft_reset = val;
 914:Drivers/BSP/Components/iis2dlpc/iis2dlpc_reg.c ****     ret = iis2dlpc_write_reg(ctx, IIS2DLPC_CTRL2, (uint8_t *) &reg, 1);
 915:Drivers/BSP/Components/iis2dlpc/iis2dlpc_reg.c ****   }
 916:Drivers/BSP/Components/iis2dlpc/iis2dlpc_reg.c **** 
 917:Drivers/BSP/Components/iis2dlpc/iis2dlpc_reg.c ****   return ret;
 918:Drivers/BSP/Components/iis2dlpc/iis2dlpc_reg.c **** }
 2176              		.loc 1 918 1 view .LVU568
 2177 0014 03B0     		add	sp, sp, #12
 2178              		.cfi_remember_state
 2179              		.cfi_def_cfa_offset 12
 2180              		@ sp needed
 2181 0016 30BD     		pop	{r4, r5, pc}
 2182              	.LVL141:
 2183              	.L159:
 2184              		.cfi_restore_state
 913:Drivers/BSP/Components/iis2dlpc/iis2dlpc_reg.c ****     ret = iis2dlpc_write_reg(ctx, IIS2DLPC_CTRL2, (uint8_t *) &reg, 1);
 2185              		.loc 1 913 5 is_stmt 1 view .LVU569
 913:Drivers/BSP/Components/iis2dlpc/iis2dlpc_reg.c ****     ret = iis2dlpc_write_reg(ctx, IIS2DLPC_CTRL2, (uint8_t *) &reg, 1);
 2186              		.loc 1 913 20 is_stmt 0 view .LVU570
 2187 0018 9DF80430 		ldrb	r3, [sp, #4]	@ zero_extendqisi2
 2188 001c 65F38613 		bfi	r3, r5, #6, #1
ARM GAS  C:\Temp\ccGZlXNO.s 			page 58


 2189 0020 8DF80430 		strb	r3, [sp, #4]
 914:Drivers/BSP/Components/iis2dlpc/iis2dlpc_reg.c ****   }
 2190              		.loc 1 914 5 is_stmt 1 view .LVU571
 914:Drivers/BSP/Components/iis2dlpc/iis2dlpc_reg.c ****   }
 2191              		.loc 1 914 11 is_stmt 0 view .LVU572
 2192 0024 0123     		movs	r3, #1
 2193              	.LVL142:
 914:Drivers/BSP/Components/iis2dlpc/iis2dlpc_reg.c ****   }
 2194              		.loc 1 914 11 view .LVU573
 2195 0026 01AA     		add	r2, sp, #4
 2196 0028 2121     		movs	r1, #33
 2197 002a 2046     		mov	r0, r4
 2198 002c FFF7FEFF 		bl	iis2dlpc_write_reg
 2199              	.LVL143:
 917:Drivers/BSP/Components/iis2dlpc/iis2dlpc_reg.c **** }
 2200              		.loc 1 917 3 is_stmt 1 view .LVU574
 917:Drivers/BSP/Components/iis2dlpc/iis2dlpc_reg.c **** }
 2201              		.loc 1 917 10 is_stmt 0 view .LVU575
 2202 0030 F0E7     		b	.L156
 2203              		.cfi_endproc
 2204              	.LFE35:
 2206              		.section	.text.iis2dlpc_reset_get,"ax",%progbits
 2207              		.align	1
 2208              		.global	iis2dlpc_reset_get
 2209              		.syntax unified
 2210              		.thumb
 2211              		.thumb_func
 2213              	iis2dlpc_reset_get:
 2214              	.LVL144:
 2215              	.LFB36:
 919:Drivers/BSP/Components/iis2dlpc/iis2dlpc_reg.c **** 
 920:Drivers/BSP/Components/iis2dlpc/iis2dlpc_reg.c **** /**
 921:Drivers/BSP/Components/iis2dlpc/iis2dlpc_reg.c ****   * @brief  Software reset. Restore the default values in user registers.[get]
 922:Drivers/BSP/Components/iis2dlpc/iis2dlpc_reg.c ****   *
 923:Drivers/BSP/Components/iis2dlpc/iis2dlpc_reg.c ****   * @param  ctx      read / write interface definitions
 924:Drivers/BSP/Components/iis2dlpc/iis2dlpc_reg.c ****   * @param  val      change the values of soft_reset in reg CTRL2
 925:Drivers/BSP/Components/iis2dlpc/iis2dlpc_reg.c ****   * @retval          interface status (MANDATORY: return 0 -> no Error)
 926:Drivers/BSP/Components/iis2dlpc/iis2dlpc_reg.c ****   *
 927:Drivers/BSP/Components/iis2dlpc/iis2dlpc_reg.c ****   */
 928:Drivers/BSP/Components/iis2dlpc/iis2dlpc_reg.c **** int32_t iis2dlpc_reset_get(const stmdev_ctx_t *ctx, uint8_t *val)
 929:Drivers/BSP/Components/iis2dlpc/iis2dlpc_reg.c **** {
 2216              		.loc 1 929 1 is_stmt 1 view -0
 2217              		.cfi_startproc
 2218              		@ args = 0, pretend = 0, frame = 8
 2219              		@ frame_needed = 0, uses_anonymous_args = 0
 2220              		.loc 1 929 1 is_stmt 0 view .LVU577
 2221 0000 10B5     		push	{r4, lr}
 2222              		.cfi_def_cfa_offset 8
 2223              		.cfi_offset 4, -8
 2224              		.cfi_offset 14, -4
 2225 0002 82B0     		sub	sp, sp, #8
 2226              		.cfi_def_cfa_offset 16
 2227 0004 0C46     		mov	r4, r1
 930:Drivers/BSP/Components/iis2dlpc/iis2dlpc_reg.c ****   iis2dlpc_ctrl2_t reg;
 2228              		.loc 1 930 3 is_stmt 1 view .LVU578
 931:Drivers/BSP/Components/iis2dlpc/iis2dlpc_reg.c ****   int32_t ret;
 2229              		.loc 1 931 3 view .LVU579
ARM GAS  C:\Temp\ccGZlXNO.s 			page 59


 932:Drivers/BSP/Components/iis2dlpc/iis2dlpc_reg.c **** 
 933:Drivers/BSP/Components/iis2dlpc/iis2dlpc_reg.c ****   ret = iis2dlpc_read_reg(ctx, IIS2DLPC_CTRL2, (uint8_t *) &reg, 1);
 2230              		.loc 1 933 3 view .LVU580
 2231              		.loc 1 933 9 is_stmt 0 view .LVU581
 2232 0006 0123     		movs	r3, #1
 2233 0008 01AA     		add	r2, sp, #4
 2234 000a 2121     		movs	r1, #33
 2235              	.LVL145:
 2236              		.loc 1 933 9 view .LVU582
 2237 000c FFF7FEFF 		bl	iis2dlpc_read_reg
 2238              	.LVL146:
 934:Drivers/BSP/Components/iis2dlpc/iis2dlpc_reg.c ****   *val = reg.soft_reset;
 2239              		.loc 1 934 3 is_stmt 1 view .LVU583
 2240              		.loc 1 934 13 is_stmt 0 view .LVU584
 2241 0010 9DF80430 		ldrb	r3, [sp, #4]	@ zero_extendqisi2
 2242 0014 C3F38013 		ubfx	r3, r3, #6, #1
 2243              		.loc 1 934 8 view .LVU585
 2244 0018 2370     		strb	r3, [r4]
 935:Drivers/BSP/Components/iis2dlpc/iis2dlpc_reg.c **** 
 936:Drivers/BSP/Components/iis2dlpc/iis2dlpc_reg.c ****   return ret;
 2245              		.loc 1 936 3 is_stmt 1 view .LVU586
 937:Drivers/BSP/Components/iis2dlpc/iis2dlpc_reg.c **** }
 2246              		.loc 1 937 1 is_stmt 0 view .LVU587
 2247 001a 02B0     		add	sp, sp, #8
 2248              		.cfi_def_cfa_offset 8
 2249              		@ sp needed
 2250 001c 10BD     		pop	{r4, pc}
 2251              		.loc 1 937 1 view .LVU588
 2252              		.cfi_endproc
 2253              	.LFE36:
 2255              		.section	.text.iis2dlpc_boot_set,"ax",%progbits
 2256              		.align	1
 2257              		.global	iis2dlpc_boot_set
 2258              		.syntax unified
 2259              		.thumb
 2260              		.thumb_func
 2262              	iis2dlpc_boot_set:
 2263              	.LVL147:
 2264              	.LFB37:
 938:Drivers/BSP/Components/iis2dlpc/iis2dlpc_reg.c **** 
 939:Drivers/BSP/Components/iis2dlpc/iis2dlpc_reg.c **** /**
 940:Drivers/BSP/Components/iis2dlpc/iis2dlpc_reg.c ****   * @brief  Reboot memory content. Reload the calibration parameters.[set]
 941:Drivers/BSP/Components/iis2dlpc/iis2dlpc_reg.c ****   *
 942:Drivers/BSP/Components/iis2dlpc/iis2dlpc_reg.c ****   * @param  ctx      read / write interface definitions
 943:Drivers/BSP/Components/iis2dlpc/iis2dlpc_reg.c ****   * @param  val      change the values of boot in reg CTRL2
 944:Drivers/BSP/Components/iis2dlpc/iis2dlpc_reg.c ****   * @retval          interface status (MANDATORY: return 0 -> no Error)
 945:Drivers/BSP/Components/iis2dlpc/iis2dlpc_reg.c ****   *
 946:Drivers/BSP/Components/iis2dlpc/iis2dlpc_reg.c ****   */
 947:Drivers/BSP/Components/iis2dlpc/iis2dlpc_reg.c **** int32_t iis2dlpc_boot_set(const stmdev_ctx_t *ctx, uint8_t val)
 948:Drivers/BSP/Components/iis2dlpc/iis2dlpc_reg.c **** {
 2265              		.loc 1 948 1 is_stmt 1 view -0
 2266              		.cfi_startproc
 2267              		@ args = 0, pretend = 0, frame = 8
 2268              		@ frame_needed = 0, uses_anonymous_args = 0
 2269              		.loc 1 948 1 is_stmt 0 view .LVU590
 2270 0000 30B5     		push	{r4, r5, lr}
 2271              		.cfi_def_cfa_offset 12
ARM GAS  C:\Temp\ccGZlXNO.s 			page 60


 2272              		.cfi_offset 4, -12
 2273              		.cfi_offset 5, -8
 2274              		.cfi_offset 14, -4
 2275 0002 83B0     		sub	sp, sp, #12
 2276              		.cfi_def_cfa_offset 24
 2277 0004 0446     		mov	r4, r0
 2278 0006 0D46     		mov	r5, r1
 949:Drivers/BSP/Components/iis2dlpc/iis2dlpc_reg.c ****   iis2dlpc_ctrl2_t reg;
 2279              		.loc 1 949 3 is_stmt 1 view .LVU591
 950:Drivers/BSP/Components/iis2dlpc/iis2dlpc_reg.c ****   int32_t ret;
 2280              		.loc 1 950 3 view .LVU592
 951:Drivers/BSP/Components/iis2dlpc/iis2dlpc_reg.c **** 
 952:Drivers/BSP/Components/iis2dlpc/iis2dlpc_reg.c ****   ret = iis2dlpc_read_reg(ctx, IIS2DLPC_CTRL2, (uint8_t *) &reg, 1);
 2281              		.loc 1 952 3 view .LVU593
 2282              		.loc 1 952 9 is_stmt 0 view .LVU594
 2283 0008 0123     		movs	r3, #1
 2284 000a 01AA     		add	r2, sp, #4
 2285 000c 2121     		movs	r1, #33
 2286              	.LVL148:
 2287              		.loc 1 952 9 view .LVU595
 2288 000e FFF7FEFF 		bl	iis2dlpc_read_reg
 2289              	.LVL149:
 953:Drivers/BSP/Components/iis2dlpc/iis2dlpc_reg.c **** 
 954:Drivers/BSP/Components/iis2dlpc/iis2dlpc_reg.c ****   if (ret == 0)
 2290              		.loc 1 954 3 is_stmt 1 view .LVU596
 2291              		.loc 1 954 6 is_stmt 0 view .LVU597
 2292 0012 08B1     		cbz	r0, .L165
 2293              	.LVL150:
 2294              	.L162:
 955:Drivers/BSP/Components/iis2dlpc/iis2dlpc_reg.c ****   {
 956:Drivers/BSP/Components/iis2dlpc/iis2dlpc_reg.c ****     reg.boot = val;
 957:Drivers/BSP/Components/iis2dlpc/iis2dlpc_reg.c ****     ret = iis2dlpc_write_reg(ctx, IIS2DLPC_CTRL2, (uint8_t *) &reg, 1);
 958:Drivers/BSP/Components/iis2dlpc/iis2dlpc_reg.c ****   }
 959:Drivers/BSP/Components/iis2dlpc/iis2dlpc_reg.c **** 
 960:Drivers/BSP/Components/iis2dlpc/iis2dlpc_reg.c ****   return ret;
 961:Drivers/BSP/Components/iis2dlpc/iis2dlpc_reg.c **** }
 2295              		.loc 1 961 1 view .LVU598
 2296 0014 03B0     		add	sp, sp, #12
 2297              		.cfi_remember_state
 2298              		.cfi_def_cfa_offset 12
 2299              		@ sp needed
 2300 0016 30BD     		pop	{r4, r5, pc}
 2301              	.LVL151:
 2302              	.L165:
 2303              		.cfi_restore_state
 956:Drivers/BSP/Components/iis2dlpc/iis2dlpc_reg.c ****     ret = iis2dlpc_write_reg(ctx, IIS2DLPC_CTRL2, (uint8_t *) &reg, 1);
 2304              		.loc 1 956 5 is_stmt 1 view .LVU599
 956:Drivers/BSP/Components/iis2dlpc/iis2dlpc_reg.c ****     ret = iis2dlpc_write_reg(ctx, IIS2DLPC_CTRL2, (uint8_t *) &reg, 1);
 2305              		.loc 1 956 14 is_stmt 0 view .LVU600
 2306 0018 9DF80430 		ldrb	r3, [sp, #4]	@ zero_extendqisi2
 2307 001c 65F3C713 		bfi	r3, r5, #7, #1
 2308 0020 8DF80430 		strb	r3, [sp, #4]
 957:Drivers/BSP/Components/iis2dlpc/iis2dlpc_reg.c ****   }
 2309              		.loc 1 957 5 is_stmt 1 view .LVU601
 957:Drivers/BSP/Components/iis2dlpc/iis2dlpc_reg.c ****   }
 2310              		.loc 1 957 11 is_stmt 0 view .LVU602
 2311 0024 0123     		movs	r3, #1
ARM GAS  C:\Temp\ccGZlXNO.s 			page 61


 2312              	.LVL152:
 957:Drivers/BSP/Components/iis2dlpc/iis2dlpc_reg.c ****   }
 2313              		.loc 1 957 11 view .LVU603
 2314 0026 01AA     		add	r2, sp, #4
 2315 0028 2121     		movs	r1, #33
 2316 002a 2046     		mov	r0, r4
 2317 002c FFF7FEFF 		bl	iis2dlpc_write_reg
 2318              	.LVL153:
 960:Drivers/BSP/Components/iis2dlpc/iis2dlpc_reg.c **** }
 2319              		.loc 1 960 3 is_stmt 1 view .LVU604
 960:Drivers/BSP/Components/iis2dlpc/iis2dlpc_reg.c **** }
 2320              		.loc 1 960 10 is_stmt 0 view .LVU605
 2321 0030 F0E7     		b	.L162
 2322              		.cfi_endproc
 2323              	.LFE37:
 2325              		.section	.text.iis2dlpc_boot_get,"ax",%progbits
 2326              		.align	1
 2327              		.global	iis2dlpc_boot_get
 2328              		.syntax unified
 2329              		.thumb
 2330              		.thumb_func
 2332              	iis2dlpc_boot_get:
 2333              	.LVL154:
 2334              	.LFB38:
 962:Drivers/BSP/Components/iis2dlpc/iis2dlpc_reg.c **** 
 963:Drivers/BSP/Components/iis2dlpc/iis2dlpc_reg.c **** /**
 964:Drivers/BSP/Components/iis2dlpc/iis2dlpc_reg.c ****   * @brief  Reboot memory content. Reload the calibration parameters.[get]
 965:Drivers/BSP/Components/iis2dlpc/iis2dlpc_reg.c ****   *
 966:Drivers/BSP/Components/iis2dlpc/iis2dlpc_reg.c ****   * @param  ctx      read / write interface definitions
 967:Drivers/BSP/Components/iis2dlpc/iis2dlpc_reg.c ****   * @param  val      change the values of boot in reg CTRL2
 968:Drivers/BSP/Components/iis2dlpc/iis2dlpc_reg.c ****   * @retval          interface status (MANDATORY: return 0 -> no Error)
 969:Drivers/BSP/Components/iis2dlpc/iis2dlpc_reg.c ****   *
 970:Drivers/BSP/Components/iis2dlpc/iis2dlpc_reg.c ****   */
 971:Drivers/BSP/Components/iis2dlpc/iis2dlpc_reg.c **** int32_t iis2dlpc_boot_get(const stmdev_ctx_t *ctx, uint8_t *val)
 972:Drivers/BSP/Components/iis2dlpc/iis2dlpc_reg.c **** {
 2335              		.loc 1 972 1 is_stmt 1 view -0
 2336              		.cfi_startproc
 2337              		@ args = 0, pretend = 0, frame = 8
 2338              		@ frame_needed = 0, uses_anonymous_args = 0
 2339              		.loc 1 972 1 is_stmt 0 view .LVU607
 2340 0000 10B5     		push	{r4, lr}
 2341              		.cfi_def_cfa_offset 8
 2342              		.cfi_offset 4, -8
 2343              		.cfi_offset 14, -4
 2344 0002 82B0     		sub	sp, sp, #8
 2345              		.cfi_def_cfa_offset 16
 2346 0004 0C46     		mov	r4, r1
 973:Drivers/BSP/Components/iis2dlpc/iis2dlpc_reg.c ****   iis2dlpc_ctrl2_t reg;
 2347              		.loc 1 973 3 is_stmt 1 view .LVU608
 974:Drivers/BSP/Components/iis2dlpc/iis2dlpc_reg.c ****   int32_t ret;
 2348              		.loc 1 974 3 view .LVU609
 975:Drivers/BSP/Components/iis2dlpc/iis2dlpc_reg.c **** 
 976:Drivers/BSP/Components/iis2dlpc/iis2dlpc_reg.c ****   ret = iis2dlpc_read_reg(ctx, IIS2DLPC_CTRL2, (uint8_t *) &reg, 1);
 2349              		.loc 1 976 3 view .LVU610
 2350              		.loc 1 976 9 is_stmt 0 view .LVU611
 2351 0006 0123     		movs	r3, #1
 2352 0008 01AA     		add	r2, sp, #4
ARM GAS  C:\Temp\ccGZlXNO.s 			page 62


 2353 000a 2121     		movs	r1, #33
 2354              	.LVL155:
 2355              		.loc 1 976 9 view .LVU612
 2356 000c FFF7FEFF 		bl	iis2dlpc_read_reg
 2357              	.LVL156:
 977:Drivers/BSP/Components/iis2dlpc/iis2dlpc_reg.c ****   *val = reg.boot;
 2358              		.loc 1 977 3 is_stmt 1 view .LVU613
 2359              		.loc 1 977 13 is_stmt 0 view .LVU614
 2360 0010 9DF80430 		ldrb	r3, [sp, #4]	@ zero_extendqisi2
 2361 0014 C3F3C013 		ubfx	r3, r3, #7, #1
 2362              		.loc 1 977 8 view .LVU615
 2363 0018 2370     		strb	r3, [r4]
 978:Drivers/BSP/Components/iis2dlpc/iis2dlpc_reg.c **** 
 979:Drivers/BSP/Components/iis2dlpc/iis2dlpc_reg.c ****   return ret;
 2364              		.loc 1 979 3 is_stmt 1 view .LVU616
 980:Drivers/BSP/Components/iis2dlpc/iis2dlpc_reg.c **** }
 2365              		.loc 1 980 1 is_stmt 0 view .LVU617
 2366 001a 02B0     		add	sp, sp, #8
 2367              		.cfi_def_cfa_offset 8
 2368              		@ sp needed
 2369 001c 10BD     		pop	{r4, pc}
 2370              		.loc 1 980 1 view .LVU618
 2371              		.cfi_endproc
 2372              	.LFE38:
 2374              		.section	.text.iis2dlpc_self_test_set,"ax",%progbits
 2375              		.align	1
 2376              		.global	iis2dlpc_self_test_set
 2377              		.syntax unified
 2378              		.thumb
 2379              		.thumb_func
 2381              	iis2dlpc_self_test_set:
 2382              	.LVL157:
 2383              	.LFB39:
 981:Drivers/BSP/Components/iis2dlpc/iis2dlpc_reg.c **** 
 982:Drivers/BSP/Components/iis2dlpc/iis2dlpc_reg.c **** /**
 983:Drivers/BSP/Components/iis2dlpc/iis2dlpc_reg.c ****   * @brief  Sensor self-test enable.[set]
 984:Drivers/BSP/Components/iis2dlpc/iis2dlpc_reg.c ****   *
 985:Drivers/BSP/Components/iis2dlpc/iis2dlpc_reg.c ****   * @param  ctx      read / write interface definitions
 986:Drivers/BSP/Components/iis2dlpc/iis2dlpc_reg.c ****   * @param  val      change the values of st in reg CTRL3
 987:Drivers/BSP/Components/iis2dlpc/iis2dlpc_reg.c ****   * @retval          interface status (MANDATORY: return 0 -> no Error)
 988:Drivers/BSP/Components/iis2dlpc/iis2dlpc_reg.c ****   *
 989:Drivers/BSP/Components/iis2dlpc/iis2dlpc_reg.c ****   */
 990:Drivers/BSP/Components/iis2dlpc/iis2dlpc_reg.c **** int32_t iis2dlpc_self_test_set(const stmdev_ctx_t *ctx, iis2dlpc_st_t val)
 991:Drivers/BSP/Components/iis2dlpc/iis2dlpc_reg.c **** {
 2384              		.loc 1 991 1 is_stmt 1 view -0
 2385              		.cfi_startproc
 2386              		@ args = 0, pretend = 0, frame = 8
 2387              		@ frame_needed = 0, uses_anonymous_args = 0
 2388              		.loc 1 991 1 is_stmt 0 view .LVU620
 2389 0000 30B5     		push	{r4, r5, lr}
 2390              		.cfi_def_cfa_offset 12
 2391              		.cfi_offset 4, -12
 2392              		.cfi_offset 5, -8
 2393              		.cfi_offset 14, -4
 2394 0002 83B0     		sub	sp, sp, #12
 2395              		.cfi_def_cfa_offset 24
 2396 0004 0446     		mov	r4, r0
ARM GAS  C:\Temp\ccGZlXNO.s 			page 63


 2397 0006 0D46     		mov	r5, r1
 992:Drivers/BSP/Components/iis2dlpc/iis2dlpc_reg.c ****   iis2dlpc_ctrl3_t reg;
 2398              		.loc 1 992 3 is_stmt 1 view .LVU621
 993:Drivers/BSP/Components/iis2dlpc/iis2dlpc_reg.c ****   int32_t ret;
 2399              		.loc 1 993 3 view .LVU622
 994:Drivers/BSP/Components/iis2dlpc/iis2dlpc_reg.c **** 
 995:Drivers/BSP/Components/iis2dlpc/iis2dlpc_reg.c ****   ret = iis2dlpc_read_reg(ctx, IIS2DLPC_CTRL3, (uint8_t *) &reg, 1);
 2400              		.loc 1 995 3 view .LVU623
 2401              		.loc 1 995 9 is_stmt 0 view .LVU624
 2402 0008 0123     		movs	r3, #1
 2403 000a 01AA     		add	r2, sp, #4
 2404 000c 2221     		movs	r1, #34
 2405              	.LVL158:
 2406              		.loc 1 995 9 view .LVU625
 2407 000e FFF7FEFF 		bl	iis2dlpc_read_reg
 2408              	.LVL159:
 996:Drivers/BSP/Components/iis2dlpc/iis2dlpc_reg.c **** 
 997:Drivers/BSP/Components/iis2dlpc/iis2dlpc_reg.c ****   if (ret == 0)
 2409              		.loc 1 997 3 is_stmt 1 view .LVU626
 2410              		.loc 1 997 6 is_stmt 0 view .LVU627
 2411 0012 08B1     		cbz	r0, .L171
 2412              	.LVL160:
 2413              	.L168:
 998:Drivers/BSP/Components/iis2dlpc/iis2dlpc_reg.c ****   {
 999:Drivers/BSP/Components/iis2dlpc/iis2dlpc_reg.c ****     reg.st = (uint8_t) val;
1000:Drivers/BSP/Components/iis2dlpc/iis2dlpc_reg.c ****     ret = iis2dlpc_write_reg(ctx, IIS2DLPC_CTRL3, (uint8_t *) &reg, 1);
1001:Drivers/BSP/Components/iis2dlpc/iis2dlpc_reg.c ****   }
1002:Drivers/BSP/Components/iis2dlpc/iis2dlpc_reg.c **** 
1003:Drivers/BSP/Components/iis2dlpc/iis2dlpc_reg.c ****   return ret;
1004:Drivers/BSP/Components/iis2dlpc/iis2dlpc_reg.c **** }
 2414              		.loc 1 1004 1 view .LVU628
 2415 0014 03B0     		add	sp, sp, #12
 2416              		.cfi_remember_state
 2417              		.cfi_def_cfa_offset 12
 2418              		@ sp needed
 2419 0016 30BD     		pop	{r4, r5, pc}
 2420              	.LVL161:
 2421              	.L171:
 2422              		.cfi_restore_state
 999:Drivers/BSP/Components/iis2dlpc/iis2dlpc_reg.c ****     ret = iis2dlpc_write_reg(ctx, IIS2DLPC_CTRL3, (uint8_t *) &reg, 1);
 2423              		.loc 1 999 5 is_stmt 1 view .LVU629
 999:Drivers/BSP/Components/iis2dlpc/iis2dlpc_reg.c ****     ret = iis2dlpc_write_reg(ctx, IIS2DLPC_CTRL3, (uint8_t *) &reg, 1);
 2424              		.loc 1 999 12 is_stmt 0 view .LVU630
 2425 0018 9DF80430 		ldrb	r3, [sp, #4]	@ zero_extendqisi2
 2426 001c 65F38713 		bfi	r3, r5, #6, #2
 2427 0020 8DF80430 		strb	r3, [sp, #4]
1000:Drivers/BSP/Components/iis2dlpc/iis2dlpc_reg.c ****   }
 2428              		.loc 1 1000 5 is_stmt 1 view .LVU631
1000:Drivers/BSP/Components/iis2dlpc/iis2dlpc_reg.c ****   }
 2429              		.loc 1 1000 11 is_stmt 0 view .LVU632
 2430 0024 0123     		movs	r3, #1
 2431              	.LVL162:
1000:Drivers/BSP/Components/iis2dlpc/iis2dlpc_reg.c ****   }
 2432              		.loc 1 1000 11 view .LVU633
 2433 0026 01AA     		add	r2, sp, #4
 2434 0028 2221     		movs	r1, #34
 2435 002a 2046     		mov	r0, r4
ARM GAS  C:\Temp\ccGZlXNO.s 			page 64


 2436 002c FFF7FEFF 		bl	iis2dlpc_write_reg
 2437              	.LVL163:
1003:Drivers/BSP/Components/iis2dlpc/iis2dlpc_reg.c **** }
 2438              		.loc 1 1003 3 is_stmt 1 view .LVU634
1003:Drivers/BSP/Components/iis2dlpc/iis2dlpc_reg.c **** }
 2439              		.loc 1 1003 10 is_stmt 0 view .LVU635
 2440 0030 F0E7     		b	.L168
 2441              		.cfi_endproc
 2442              	.LFE39:
 2444              		.section	.text.iis2dlpc_self_test_get,"ax",%progbits
 2445              		.align	1
 2446              		.global	iis2dlpc_self_test_get
 2447              		.syntax unified
 2448              		.thumb
 2449              		.thumb_func
 2451              	iis2dlpc_self_test_get:
 2452              	.LVL164:
 2453              	.LFB40:
1005:Drivers/BSP/Components/iis2dlpc/iis2dlpc_reg.c **** 
1006:Drivers/BSP/Components/iis2dlpc/iis2dlpc_reg.c **** /**
1007:Drivers/BSP/Components/iis2dlpc/iis2dlpc_reg.c ****   * @brief  Sensor self-test enable.[get]
1008:Drivers/BSP/Components/iis2dlpc/iis2dlpc_reg.c ****   *
1009:Drivers/BSP/Components/iis2dlpc/iis2dlpc_reg.c ****   * @param  ctx      read / write interface definitions
1010:Drivers/BSP/Components/iis2dlpc/iis2dlpc_reg.c ****   * @param  val      Get the values of st in reg CTRL3
1011:Drivers/BSP/Components/iis2dlpc/iis2dlpc_reg.c ****   * @retval          interface status (MANDATORY: return 0 -> no Error)
1012:Drivers/BSP/Components/iis2dlpc/iis2dlpc_reg.c ****   *
1013:Drivers/BSP/Components/iis2dlpc/iis2dlpc_reg.c ****   */
1014:Drivers/BSP/Components/iis2dlpc/iis2dlpc_reg.c **** int32_t iis2dlpc_self_test_get(const stmdev_ctx_t *ctx, iis2dlpc_st_t *val)
1015:Drivers/BSP/Components/iis2dlpc/iis2dlpc_reg.c **** {
 2454              		.loc 1 1015 1 is_stmt 1 view -0
 2455              		.cfi_startproc
 2456              		@ args = 0, pretend = 0, frame = 8
 2457              		@ frame_needed = 0, uses_anonymous_args = 0
 2458              		.loc 1 1015 1 is_stmt 0 view .LVU637
 2459 0000 10B5     		push	{r4, lr}
 2460              		.cfi_def_cfa_offset 8
 2461              		.cfi_offset 4, -8
 2462              		.cfi_offset 14, -4
 2463 0002 82B0     		sub	sp, sp, #8
 2464              		.cfi_def_cfa_offset 16
 2465 0004 0C46     		mov	r4, r1
1016:Drivers/BSP/Components/iis2dlpc/iis2dlpc_reg.c ****   iis2dlpc_ctrl3_t reg;
 2466              		.loc 1 1016 3 is_stmt 1 view .LVU638
1017:Drivers/BSP/Components/iis2dlpc/iis2dlpc_reg.c ****   int32_t ret;
 2467              		.loc 1 1017 3 view .LVU639
1018:Drivers/BSP/Components/iis2dlpc/iis2dlpc_reg.c **** 
1019:Drivers/BSP/Components/iis2dlpc/iis2dlpc_reg.c ****   ret = iis2dlpc_read_reg(ctx, IIS2DLPC_CTRL3, (uint8_t *) &reg, 1);
 2468              		.loc 1 1019 3 view .LVU640
 2469              		.loc 1 1019 9 is_stmt 0 view .LVU641
 2470 0006 0123     		movs	r3, #1
 2471 0008 01AA     		add	r2, sp, #4
 2472 000a 2221     		movs	r1, #34
 2473              	.LVL165:
 2474              		.loc 1 1019 9 view .LVU642
 2475 000c FFF7FEFF 		bl	iis2dlpc_read_reg
 2476              	.LVL166:
1020:Drivers/BSP/Components/iis2dlpc/iis2dlpc_reg.c **** 
ARM GAS  C:\Temp\ccGZlXNO.s 			page 65


1021:Drivers/BSP/Components/iis2dlpc/iis2dlpc_reg.c ****   switch (reg.st)
 2477              		.loc 1 1021 3 is_stmt 1 view .LVU643
 2478              		.loc 1 1021 14 is_stmt 0 view .LVU644
 2479 0010 9DF80430 		ldrb	r3, [sp, #4]	@ zero_extendqisi2
 2480 0014 9B09     		lsrs	r3, r3, #6
 2481              		.loc 1 1021 3 view .LVU645
 2482 0016 012B     		cmp	r3, #1
 2483 0018 08D0     		beq	.L173
 2484 001a 022B     		cmp	r3, #2
 2485 001c 09D0     		beq	.L174
 2486 001e 13B1     		cbz	r3, .L178
1022:Drivers/BSP/Components/iis2dlpc/iis2dlpc_reg.c ****   {
1023:Drivers/BSP/Components/iis2dlpc/iis2dlpc_reg.c ****     case IIS2DLPC_XL_ST_DISABLE:
1024:Drivers/BSP/Components/iis2dlpc/iis2dlpc_reg.c ****       *val = IIS2DLPC_XL_ST_DISABLE;
1025:Drivers/BSP/Components/iis2dlpc/iis2dlpc_reg.c ****       break;
1026:Drivers/BSP/Components/iis2dlpc/iis2dlpc_reg.c **** 
1027:Drivers/BSP/Components/iis2dlpc/iis2dlpc_reg.c ****     case IIS2DLPC_XL_ST_POSITIVE:
1028:Drivers/BSP/Components/iis2dlpc/iis2dlpc_reg.c ****       *val = IIS2DLPC_XL_ST_POSITIVE;
1029:Drivers/BSP/Components/iis2dlpc/iis2dlpc_reg.c ****       break;
1030:Drivers/BSP/Components/iis2dlpc/iis2dlpc_reg.c **** 
1031:Drivers/BSP/Components/iis2dlpc/iis2dlpc_reg.c ****     case IIS2DLPC_XL_ST_NEGATIVE:
1032:Drivers/BSP/Components/iis2dlpc/iis2dlpc_reg.c ****       *val = IIS2DLPC_XL_ST_NEGATIVE;
1033:Drivers/BSP/Components/iis2dlpc/iis2dlpc_reg.c ****       break;
1034:Drivers/BSP/Components/iis2dlpc/iis2dlpc_reg.c **** 
1035:Drivers/BSP/Components/iis2dlpc/iis2dlpc_reg.c ****     default:
1036:Drivers/BSP/Components/iis2dlpc/iis2dlpc_reg.c ****       *val = IIS2DLPC_XL_ST_DISABLE;
 2487              		.loc 1 1036 7 is_stmt 1 view .LVU646
 2488              		.loc 1 1036 12 is_stmt 0 view .LVU647
 2489 0020 0023     		movs	r3, #0
 2490 0022 2370     		strb	r3, [r4]
1037:Drivers/BSP/Components/iis2dlpc/iis2dlpc_reg.c ****       break;
 2491              		.loc 1 1037 7 is_stmt 1 view .LVU648
1038:Drivers/BSP/Components/iis2dlpc/iis2dlpc_reg.c ****   }
1039:Drivers/BSP/Components/iis2dlpc/iis2dlpc_reg.c **** 
1040:Drivers/BSP/Components/iis2dlpc/iis2dlpc_reg.c ****   return ret;
 2492              		.loc 1 1040 3 view .LVU649
 2493              		.loc 1 1040 10 is_stmt 0 view .LVU650
 2494 0024 00E0     		b	.L172
 2495              	.L178:
1024:Drivers/BSP/Components/iis2dlpc/iis2dlpc_reg.c ****       break;
 2496              		.loc 1 1024 7 is_stmt 1 view .LVU651
1024:Drivers/BSP/Components/iis2dlpc/iis2dlpc_reg.c ****       break;
 2497              		.loc 1 1024 12 is_stmt 0 view .LVU652
 2498 0026 2370     		strb	r3, [r4]
1025:Drivers/BSP/Components/iis2dlpc/iis2dlpc_reg.c **** 
 2499              		.loc 1 1025 7 is_stmt 1 view .LVU653
 2500              	.L172:
1041:Drivers/BSP/Components/iis2dlpc/iis2dlpc_reg.c **** }
 2501              		.loc 1 1041 1 is_stmt 0 view .LVU654
 2502 0028 02B0     		add	sp, sp, #8
 2503              		.cfi_remember_state
 2504              		.cfi_def_cfa_offset 8
 2505              		@ sp needed
 2506 002a 10BD     		pop	{r4, pc}
 2507              	.LVL167:
 2508              	.L173:
 2509              		.cfi_restore_state
ARM GAS  C:\Temp\ccGZlXNO.s 			page 66


1028:Drivers/BSP/Components/iis2dlpc/iis2dlpc_reg.c ****       break;
 2510              		.loc 1 1028 7 is_stmt 1 view .LVU655
1028:Drivers/BSP/Components/iis2dlpc/iis2dlpc_reg.c ****       break;
 2511              		.loc 1 1028 12 is_stmt 0 view .LVU656
 2512 002c 0123     		movs	r3, #1
 2513 002e 2370     		strb	r3, [r4]
1029:Drivers/BSP/Components/iis2dlpc/iis2dlpc_reg.c **** 
 2514              		.loc 1 1029 7 is_stmt 1 view .LVU657
 2515 0030 FAE7     		b	.L172
 2516              	.L174:
1032:Drivers/BSP/Components/iis2dlpc/iis2dlpc_reg.c ****       break;
 2517              		.loc 1 1032 7 view .LVU658
1032:Drivers/BSP/Components/iis2dlpc/iis2dlpc_reg.c ****       break;
 2518              		.loc 1 1032 12 is_stmt 0 view .LVU659
 2519 0032 0223     		movs	r3, #2
 2520 0034 2370     		strb	r3, [r4]
1033:Drivers/BSP/Components/iis2dlpc/iis2dlpc_reg.c **** 
 2521              		.loc 1 1033 7 is_stmt 1 view .LVU660
 2522 0036 F7E7     		b	.L172
 2523              		.cfi_endproc
 2524              	.LFE40:
 2526              		.section	.text.iis2dlpc_data_ready_mode_set,"ax",%progbits
 2527              		.align	1
 2528              		.global	iis2dlpc_data_ready_mode_set
 2529              		.syntax unified
 2530              		.thumb
 2531              		.thumb_func
 2533              	iis2dlpc_data_ready_mode_set:
 2534              	.LVL168:
 2535              	.LFB41:
1042:Drivers/BSP/Components/iis2dlpc/iis2dlpc_reg.c **** 
1043:Drivers/BSP/Components/iis2dlpc/iis2dlpc_reg.c **** /**
1044:Drivers/BSP/Components/iis2dlpc/iis2dlpc_reg.c ****   * @brief  Data-ready pulsed / letched mode.[set]
1045:Drivers/BSP/Components/iis2dlpc/iis2dlpc_reg.c ****   *
1046:Drivers/BSP/Components/iis2dlpc/iis2dlpc_reg.c ****   * @param  ctx      read / write interface definitions
1047:Drivers/BSP/Components/iis2dlpc/iis2dlpc_reg.c ****   * @param  val      change the values of drdy_pulsed in reg CTRL_REG7
1048:Drivers/BSP/Components/iis2dlpc/iis2dlpc_reg.c ****   * @retval          interface status (MANDATORY: return 0 -> no Error)
1049:Drivers/BSP/Components/iis2dlpc/iis2dlpc_reg.c ****   *
1050:Drivers/BSP/Components/iis2dlpc/iis2dlpc_reg.c ****   */
1051:Drivers/BSP/Components/iis2dlpc/iis2dlpc_reg.c **** int32_t iis2dlpc_data_ready_mode_set(const stmdev_ctx_t *ctx,
1052:Drivers/BSP/Components/iis2dlpc/iis2dlpc_reg.c ****                                      iis2dlpc_drdy_pulsed_t val)
1053:Drivers/BSP/Components/iis2dlpc/iis2dlpc_reg.c **** {
 2536              		.loc 1 1053 1 view -0
 2537              		.cfi_startproc
 2538              		@ args = 0, pretend = 0, frame = 8
 2539              		@ frame_needed = 0, uses_anonymous_args = 0
 2540              		.loc 1 1053 1 is_stmt 0 view .LVU662
 2541 0000 30B5     		push	{r4, r5, lr}
 2542              		.cfi_def_cfa_offset 12
 2543              		.cfi_offset 4, -12
 2544              		.cfi_offset 5, -8
 2545              		.cfi_offset 14, -4
 2546 0002 83B0     		sub	sp, sp, #12
 2547              		.cfi_def_cfa_offset 24
 2548 0004 0446     		mov	r4, r0
 2549 0006 0D46     		mov	r5, r1
1054:Drivers/BSP/Components/iis2dlpc/iis2dlpc_reg.c ****   iis2dlpc_ctrl7_t reg;
ARM GAS  C:\Temp\ccGZlXNO.s 			page 67


 2550              		.loc 1 1054 3 is_stmt 1 view .LVU663
1055:Drivers/BSP/Components/iis2dlpc/iis2dlpc_reg.c ****   int32_t ret;
 2551              		.loc 1 1055 3 view .LVU664
1056:Drivers/BSP/Components/iis2dlpc/iis2dlpc_reg.c **** 
1057:Drivers/BSP/Components/iis2dlpc/iis2dlpc_reg.c ****   ret = iis2dlpc_read_reg(ctx, IIS2DLPC_CTRL7, (uint8_t *) &reg, 1);
 2552              		.loc 1 1057 3 view .LVU665
 2553              		.loc 1 1057 9 is_stmt 0 view .LVU666
 2554 0008 0123     		movs	r3, #1
 2555 000a 01AA     		add	r2, sp, #4
 2556 000c 3F21     		movs	r1, #63
 2557              	.LVL169:
 2558              		.loc 1 1057 9 view .LVU667
 2559 000e FFF7FEFF 		bl	iis2dlpc_read_reg
 2560              	.LVL170:
1058:Drivers/BSP/Components/iis2dlpc/iis2dlpc_reg.c **** 
1059:Drivers/BSP/Components/iis2dlpc/iis2dlpc_reg.c ****   if (ret == 0)
 2561              		.loc 1 1059 3 is_stmt 1 view .LVU668
 2562              		.loc 1 1059 6 is_stmt 0 view .LVU669
 2563 0012 08B1     		cbz	r0, .L182
 2564              	.LVL171:
 2565              	.L179:
1060:Drivers/BSP/Components/iis2dlpc/iis2dlpc_reg.c ****   {
1061:Drivers/BSP/Components/iis2dlpc/iis2dlpc_reg.c ****     reg.drdy_pulsed = (uint8_t) val;
1062:Drivers/BSP/Components/iis2dlpc/iis2dlpc_reg.c ****     ret = iis2dlpc_write_reg(ctx, IIS2DLPC_CTRL7, (uint8_t *) &reg, 1);
1063:Drivers/BSP/Components/iis2dlpc/iis2dlpc_reg.c ****   }
1064:Drivers/BSP/Components/iis2dlpc/iis2dlpc_reg.c **** 
1065:Drivers/BSP/Components/iis2dlpc/iis2dlpc_reg.c ****   return ret;
1066:Drivers/BSP/Components/iis2dlpc/iis2dlpc_reg.c **** }
 2566              		.loc 1 1066 1 view .LVU670
 2567 0014 03B0     		add	sp, sp, #12
 2568              		.cfi_remember_state
 2569              		.cfi_def_cfa_offset 12
 2570              		@ sp needed
 2571 0016 30BD     		pop	{r4, r5, pc}
 2572              	.LVL172:
 2573              	.L182:
 2574              		.cfi_restore_state
1061:Drivers/BSP/Components/iis2dlpc/iis2dlpc_reg.c ****     ret = iis2dlpc_write_reg(ctx, IIS2DLPC_CTRL7, (uint8_t *) &reg, 1);
 2575              		.loc 1 1061 5 is_stmt 1 view .LVU671
1061:Drivers/BSP/Components/iis2dlpc/iis2dlpc_reg.c ****     ret = iis2dlpc_write_reg(ctx, IIS2DLPC_CTRL7, (uint8_t *) &reg, 1);
 2576              		.loc 1 1061 21 is_stmt 0 view .LVU672
 2577 0018 9DF80430 		ldrb	r3, [sp, #4]	@ zero_extendqisi2
 2578 001c 65F3C713 		bfi	r3, r5, #7, #1
 2579 0020 8DF80430 		strb	r3, [sp, #4]
1062:Drivers/BSP/Components/iis2dlpc/iis2dlpc_reg.c ****   }
 2580              		.loc 1 1062 5 is_stmt 1 view .LVU673
1062:Drivers/BSP/Components/iis2dlpc/iis2dlpc_reg.c ****   }
 2581              		.loc 1 1062 11 is_stmt 0 view .LVU674
 2582 0024 0123     		movs	r3, #1
 2583              	.LVL173:
1062:Drivers/BSP/Components/iis2dlpc/iis2dlpc_reg.c ****   }
 2584              		.loc 1 1062 11 view .LVU675
 2585 0026 01AA     		add	r2, sp, #4
 2586 0028 3F21     		movs	r1, #63
 2587 002a 2046     		mov	r0, r4
 2588 002c FFF7FEFF 		bl	iis2dlpc_write_reg
 2589              	.LVL174:
ARM GAS  C:\Temp\ccGZlXNO.s 			page 68


1065:Drivers/BSP/Components/iis2dlpc/iis2dlpc_reg.c **** }
 2590              		.loc 1 1065 3 is_stmt 1 view .LVU676
1065:Drivers/BSP/Components/iis2dlpc/iis2dlpc_reg.c **** }
 2591              		.loc 1 1065 10 is_stmt 0 view .LVU677
 2592 0030 F0E7     		b	.L179
 2593              		.cfi_endproc
 2594              	.LFE41:
 2596              		.section	.text.iis2dlpc_data_ready_mode_get,"ax",%progbits
 2597              		.align	1
 2598              		.global	iis2dlpc_data_ready_mode_get
 2599              		.syntax unified
 2600              		.thumb
 2601              		.thumb_func
 2603              	iis2dlpc_data_ready_mode_get:
 2604              	.LVL175:
 2605              	.LFB42:
1067:Drivers/BSP/Components/iis2dlpc/iis2dlpc_reg.c **** 
1068:Drivers/BSP/Components/iis2dlpc/iis2dlpc_reg.c **** /**
1069:Drivers/BSP/Components/iis2dlpc/iis2dlpc_reg.c ****   * @brief  Data-ready pulsed / letched mode.[get]
1070:Drivers/BSP/Components/iis2dlpc/iis2dlpc_reg.c ****   *
1071:Drivers/BSP/Components/iis2dlpc/iis2dlpc_reg.c ****   * @param  ctx      read / write interface definitions
1072:Drivers/BSP/Components/iis2dlpc/iis2dlpc_reg.c ****   * @param  val      Get the values of drdy_pulsed in reg CTRL_REG7
1073:Drivers/BSP/Components/iis2dlpc/iis2dlpc_reg.c ****   * @retval          interface status (MANDATORY: return 0 -> no Error)
1074:Drivers/BSP/Components/iis2dlpc/iis2dlpc_reg.c ****   *
1075:Drivers/BSP/Components/iis2dlpc/iis2dlpc_reg.c ****   */
1076:Drivers/BSP/Components/iis2dlpc/iis2dlpc_reg.c **** int32_t iis2dlpc_data_ready_mode_get(const stmdev_ctx_t *ctx,
1077:Drivers/BSP/Components/iis2dlpc/iis2dlpc_reg.c ****                                      iis2dlpc_drdy_pulsed_t *val)
1078:Drivers/BSP/Components/iis2dlpc/iis2dlpc_reg.c **** {
 2606              		.loc 1 1078 1 is_stmt 1 view -0
 2607              		.cfi_startproc
 2608              		@ args = 0, pretend = 0, frame = 8
 2609              		@ frame_needed = 0, uses_anonymous_args = 0
 2610              		.loc 1 1078 1 is_stmt 0 view .LVU679
 2611 0000 10B5     		push	{r4, lr}
 2612              		.cfi_def_cfa_offset 8
 2613              		.cfi_offset 4, -8
 2614              		.cfi_offset 14, -4
 2615 0002 82B0     		sub	sp, sp, #8
 2616              		.cfi_def_cfa_offset 16
 2617 0004 0C46     		mov	r4, r1
1079:Drivers/BSP/Components/iis2dlpc/iis2dlpc_reg.c ****   iis2dlpc_ctrl7_t reg;
 2618              		.loc 1 1079 3 is_stmt 1 view .LVU680
1080:Drivers/BSP/Components/iis2dlpc/iis2dlpc_reg.c ****   int32_t ret;
 2619              		.loc 1 1080 3 view .LVU681
1081:Drivers/BSP/Components/iis2dlpc/iis2dlpc_reg.c **** 
1082:Drivers/BSP/Components/iis2dlpc/iis2dlpc_reg.c ****   ret = iis2dlpc_read_reg(ctx, IIS2DLPC_CTRL7, (uint8_t *) &reg, 1);
 2620              		.loc 1 1082 3 view .LVU682
 2621              		.loc 1 1082 9 is_stmt 0 view .LVU683
 2622 0006 0123     		movs	r3, #1
 2623 0008 01AA     		add	r2, sp, #4
 2624 000a 3F21     		movs	r1, #63
 2625              	.LVL176:
 2626              		.loc 1 1082 9 view .LVU684
 2627 000c FFF7FEFF 		bl	iis2dlpc_read_reg
 2628              	.LVL177:
1083:Drivers/BSP/Components/iis2dlpc/iis2dlpc_reg.c **** 
1084:Drivers/BSP/Components/iis2dlpc/iis2dlpc_reg.c ****   switch (reg.drdy_pulsed)
ARM GAS  C:\Temp\ccGZlXNO.s 			page 69


 2629              		.loc 1 1084 3 is_stmt 1 view .LVU685
 2630              		.loc 1 1084 14 is_stmt 0 view .LVU686
 2631 0010 9DF80430 		ldrb	r3, [sp, #4]	@ zero_extendqisi2
 2632              		.loc 1 1084 3 view .LVU687
 2633 0014 DB09     		lsrs	r3, r3, #7
 2634 0016 03D0     		beq	.L184
 2635 0018 33B9     		cbnz	r3, .L185
1085:Drivers/BSP/Components/iis2dlpc/iis2dlpc_reg.c ****   {
1086:Drivers/BSP/Components/iis2dlpc/iis2dlpc_reg.c ****     case IIS2DLPC_DRDY_LATCHED:
1087:Drivers/BSP/Components/iis2dlpc/iis2dlpc_reg.c ****       *val = IIS2DLPC_DRDY_LATCHED;
1088:Drivers/BSP/Components/iis2dlpc/iis2dlpc_reg.c ****       break;
1089:Drivers/BSP/Components/iis2dlpc/iis2dlpc_reg.c **** 
1090:Drivers/BSP/Components/iis2dlpc/iis2dlpc_reg.c ****     case IIS2DLPC_DRDY_PULSED:
1091:Drivers/BSP/Components/iis2dlpc/iis2dlpc_reg.c ****       *val = IIS2DLPC_DRDY_PULSED;
1092:Drivers/BSP/Components/iis2dlpc/iis2dlpc_reg.c ****       break;
1093:Drivers/BSP/Components/iis2dlpc/iis2dlpc_reg.c **** 
1094:Drivers/BSP/Components/iis2dlpc/iis2dlpc_reg.c ****     default:
1095:Drivers/BSP/Components/iis2dlpc/iis2dlpc_reg.c ****       *val = IIS2DLPC_DRDY_LATCHED;
 2636              		.loc 1 1095 7 is_stmt 1 view .LVU688
 2637              		.loc 1 1095 12 is_stmt 0 view .LVU689
 2638 001a 0023     		movs	r3, #0
 2639 001c 2370     		strb	r3, [r4]
1096:Drivers/BSP/Components/iis2dlpc/iis2dlpc_reg.c ****       break;
 2640              		.loc 1 1096 7 is_stmt 1 view .LVU690
1097:Drivers/BSP/Components/iis2dlpc/iis2dlpc_reg.c ****   }
1098:Drivers/BSP/Components/iis2dlpc/iis2dlpc_reg.c **** 
1099:Drivers/BSP/Components/iis2dlpc/iis2dlpc_reg.c ****   return ret;
 2641              		.loc 1 1099 3 view .LVU691
 2642              		.loc 1 1099 10 is_stmt 0 view .LVU692
 2643 001e 01E0     		b	.L183
 2644              	.L184:
1087:Drivers/BSP/Components/iis2dlpc/iis2dlpc_reg.c ****       break;
 2645              		.loc 1 1087 7 is_stmt 1 view .LVU693
1087:Drivers/BSP/Components/iis2dlpc/iis2dlpc_reg.c ****       break;
 2646              		.loc 1 1087 12 is_stmt 0 view .LVU694
 2647 0020 0023     		movs	r3, #0
 2648 0022 2370     		strb	r3, [r4]
1088:Drivers/BSP/Components/iis2dlpc/iis2dlpc_reg.c **** 
 2649              		.loc 1 1088 7 is_stmt 1 view .LVU695
 2650              	.L183:
1100:Drivers/BSP/Components/iis2dlpc/iis2dlpc_reg.c **** }
 2651              		.loc 1 1100 1 is_stmt 0 view .LVU696
 2652 0024 02B0     		add	sp, sp, #8
 2653              		.cfi_remember_state
 2654              		.cfi_def_cfa_offset 8
 2655              		@ sp needed
 2656 0026 10BD     		pop	{r4, pc}
 2657              	.LVL178:
 2658              	.L185:
 2659              		.cfi_restore_state
1091:Drivers/BSP/Components/iis2dlpc/iis2dlpc_reg.c ****       break;
 2660              		.loc 1 1091 7 is_stmt 1 view .LVU697
1091:Drivers/BSP/Components/iis2dlpc/iis2dlpc_reg.c ****       break;
 2661              		.loc 1 1091 12 is_stmt 0 view .LVU698
 2662 0028 0123     		movs	r3, #1
 2663 002a 2370     		strb	r3, [r4]
1092:Drivers/BSP/Components/iis2dlpc/iis2dlpc_reg.c **** 
ARM GAS  C:\Temp\ccGZlXNO.s 			page 70


 2664              		.loc 1 1092 7 is_stmt 1 view .LVU699
 2665 002c FAE7     		b	.L183
 2666              		.cfi_endproc
 2667              	.LFE42:
 2669              		.section	.text.iis2dlpc_filter_path_set,"ax",%progbits
 2670              		.align	1
 2671              		.global	iis2dlpc_filter_path_set
 2672              		.syntax unified
 2673              		.thumb
 2674              		.thumb_func
 2676              	iis2dlpc_filter_path_set:
 2677              	.LVL179:
 2678              	.LFB43:
1101:Drivers/BSP/Components/iis2dlpc/iis2dlpc_reg.c **** 
1102:Drivers/BSP/Components/iis2dlpc/iis2dlpc_reg.c **** /**
1103:Drivers/BSP/Components/iis2dlpc/iis2dlpc_reg.c ****   * @}
1104:Drivers/BSP/Components/iis2dlpc/iis2dlpc_reg.c ****   *
1105:Drivers/BSP/Components/iis2dlpc/iis2dlpc_reg.c ****   */
1106:Drivers/BSP/Components/iis2dlpc/iis2dlpc_reg.c **** 
1107:Drivers/BSP/Components/iis2dlpc/iis2dlpc_reg.c **** /**
1108:Drivers/BSP/Components/iis2dlpc/iis2dlpc_reg.c ****   * @defgroup  IIS2DLPC_Filters
1109:Drivers/BSP/Components/iis2dlpc/iis2dlpc_reg.c ****   * @brief     This section group all the functions concerning the filters
1110:Drivers/BSP/Components/iis2dlpc/iis2dlpc_reg.c ****   *            configuration.
1111:Drivers/BSP/Components/iis2dlpc/iis2dlpc_reg.c ****   * @{
1112:Drivers/BSP/Components/iis2dlpc/iis2dlpc_reg.c ****   *
1113:Drivers/BSP/Components/iis2dlpc/iis2dlpc_reg.c ****   */
1114:Drivers/BSP/Components/iis2dlpc/iis2dlpc_reg.c **** 
1115:Drivers/BSP/Components/iis2dlpc/iis2dlpc_reg.c **** /**
1116:Drivers/BSP/Components/iis2dlpc/iis2dlpc_reg.c ****   * @brief  Accelerometer filtering path for outputs.[set]
1117:Drivers/BSP/Components/iis2dlpc/iis2dlpc_reg.c ****   *
1118:Drivers/BSP/Components/iis2dlpc/iis2dlpc_reg.c ****   * @param  ctx      read / write interface definitions
1119:Drivers/BSP/Components/iis2dlpc/iis2dlpc_reg.c ****   * @param  val      change the values of fds in reg CTRL6
1120:Drivers/BSP/Components/iis2dlpc/iis2dlpc_reg.c ****   * @retval          interface status (MANDATORY: return 0 -> no Error)
1121:Drivers/BSP/Components/iis2dlpc/iis2dlpc_reg.c ****   *
1122:Drivers/BSP/Components/iis2dlpc/iis2dlpc_reg.c ****   */
1123:Drivers/BSP/Components/iis2dlpc/iis2dlpc_reg.c **** int32_t iis2dlpc_filter_path_set(const stmdev_ctx_t *ctx,
1124:Drivers/BSP/Components/iis2dlpc/iis2dlpc_reg.c ****                                  iis2dlpc_fds_t val)
1125:Drivers/BSP/Components/iis2dlpc/iis2dlpc_reg.c **** {
 2679              		.loc 1 1125 1 view -0
 2680              		.cfi_startproc
 2681              		@ args = 0, pretend = 0, frame = 8
 2682              		@ frame_needed = 0, uses_anonymous_args = 0
 2683              		.loc 1 1125 1 is_stmt 0 view .LVU701
 2684 0000 30B5     		push	{r4, r5, lr}
 2685              		.cfi_def_cfa_offset 12
 2686              		.cfi_offset 4, -12
 2687              		.cfi_offset 5, -8
 2688              		.cfi_offset 14, -4
 2689 0002 83B0     		sub	sp, sp, #12
 2690              		.cfi_def_cfa_offset 24
 2691 0004 0546     		mov	r5, r0
 2692 0006 0C46     		mov	r4, r1
1126:Drivers/BSP/Components/iis2dlpc/iis2dlpc_reg.c ****   iis2dlpc_ctrl6_t ctrl6;
 2693              		.loc 1 1126 3 is_stmt 1 view .LVU702
1127:Drivers/BSP/Components/iis2dlpc/iis2dlpc_reg.c ****   iis2dlpc_ctrl7_t ctrl_reg7;
 2694              		.loc 1 1127 3 view .LVU703
1128:Drivers/BSP/Components/iis2dlpc/iis2dlpc_reg.c ****   int32_t ret;
ARM GAS  C:\Temp\ccGZlXNO.s 			page 71


 2695              		.loc 1 1128 3 view .LVU704
1129:Drivers/BSP/Components/iis2dlpc/iis2dlpc_reg.c **** 
1130:Drivers/BSP/Components/iis2dlpc/iis2dlpc_reg.c ****   ret = iis2dlpc_read_reg(ctx, IIS2DLPC_CTRL6, (uint8_t *) &ctrl6, 1);
 2696              		.loc 1 1130 3 view .LVU705
 2697              		.loc 1 1130 9 is_stmt 0 view .LVU706
 2698 0008 0123     		movs	r3, #1
 2699 000a 01AA     		add	r2, sp, #4
 2700 000c 2521     		movs	r1, #37
 2701              	.LVL180:
 2702              		.loc 1 1130 9 view .LVU707
 2703 000e FFF7FEFF 		bl	iis2dlpc_read_reg
 2704              	.LVL181:
1131:Drivers/BSP/Components/iis2dlpc/iis2dlpc_reg.c **** 
1132:Drivers/BSP/Components/iis2dlpc/iis2dlpc_reg.c ****   if (ret == 0)
 2705              		.loc 1 1132 3 is_stmt 1 view .LVU708
 2706              		.loc 1 1132 6 is_stmt 0 view .LVU709
 2707 0012 0346     		mov	r3, r0
 2708 0014 18B1     		cbz	r0, .L194
 2709              	.L191:
1133:Drivers/BSP/Components/iis2dlpc/iis2dlpc_reg.c ****   {
1134:Drivers/BSP/Components/iis2dlpc/iis2dlpc_reg.c ****     ctrl6.fds = ((uint8_t) val & 0x10U) >> 4;
1135:Drivers/BSP/Components/iis2dlpc/iis2dlpc_reg.c ****     ret = iis2dlpc_write_reg(ctx, IIS2DLPC_CTRL6, (uint8_t *) &ctrl6, 1);
1136:Drivers/BSP/Components/iis2dlpc/iis2dlpc_reg.c ****   }
1137:Drivers/BSP/Components/iis2dlpc/iis2dlpc_reg.c **** 
1138:Drivers/BSP/Components/iis2dlpc/iis2dlpc_reg.c ****   if (ret == 0)
1139:Drivers/BSP/Components/iis2dlpc/iis2dlpc_reg.c ****   {
1140:Drivers/BSP/Components/iis2dlpc/iis2dlpc_reg.c ****     ret = iis2dlpc_read_reg(ctx, IIS2DLPC_CTRL7, (uint8_t *) &ctrl_reg7, 1);
1141:Drivers/BSP/Components/iis2dlpc/iis2dlpc_reg.c ****   }
1142:Drivers/BSP/Components/iis2dlpc/iis2dlpc_reg.c **** 
1143:Drivers/BSP/Components/iis2dlpc/iis2dlpc_reg.c ****   if (ret == 0)
 2710              		.loc 1 1143 3 is_stmt 1 view .LVU710
 2711              		.loc 1 1143 6 is_stmt 0 view .LVU711
 2712 0016 DBB1     		cbz	r3, .L195
 2713              	.L190:
1144:Drivers/BSP/Components/iis2dlpc/iis2dlpc_reg.c ****   {
1145:Drivers/BSP/Components/iis2dlpc/iis2dlpc_reg.c ****     ctrl_reg7.usr_off_on_out = (uint8_t) val & 0x01U;
1146:Drivers/BSP/Components/iis2dlpc/iis2dlpc_reg.c ****     ret = iis2dlpc_write_reg(ctx, IIS2DLPC_CTRL7, (uint8_t *) &ctrl_reg7, 1);
1147:Drivers/BSP/Components/iis2dlpc/iis2dlpc_reg.c ****   }
1148:Drivers/BSP/Components/iis2dlpc/iis2dlpc_reg.c **** 
1149:Drivers/BSP/Components/iis2dlpc/iis2dlpc_reg.c ****   else
1150:Drivers/BSP/Components/iis2dlpc/iis2dlpc_reg.c ****   {
1151:Drivers/BSP/Components/iis2dlpc/iis2dlpc_reg.c ****     ret = ret;
1152:Drivers/BSP/Components/iis2dlpc/iis2dlpc_reg.c ****   }
1153:Drivers/BSP/Components/iis2dlpc/iis2dlpc_reg.c **** 
1154:Drivers/BSP/Components/iis2dlpc/iis2dlpc_reg.c ****   return ret;
1155:Drivers/BSP/Components/iis2dlpc/iis2dlpc_reg.c **** }
 2714              		.loc 1 1155 1 view .LVU712
 2715 0018 1846     		mov	r0, r3
 2716              	.LVL182:
 2717              		.loc 1 1155 1 view .LVU713
 2718 001a 03B0     		add	sp, sp, #12
 2719              		.cfi_remember_state
 2720              		.cfi_def_cfa_offset 12
 2721              		@ sp needed
 2722 001c 30BD     		pop	{r4, r5, pc}
 2723              	.LVL183:
 2724              	.L194:
ARM GAS  C:\Temp\ccGZlXNO.s 			page 72


 2725              		.cfi_restore_state
1134:Drivers/BSP/Components/iis2dlpc/iis2dlpc_reg.c ****     ret = iis2dlpc_write_reg(ctx, IIS2DLPC_CTRL6, (uint8_t *) &ctrl6, 1);
 2726              		.loc 1 1134 5 is_stmt 1 view .LVU714
1134:Drivers/BSP/Components/iis2dlpc/iis2dlpc_reg.c ****     ret = iis2dlpc_write_reg(ctx, IIS2DLPC_CTRL6, (uint8_t *) &ctrl6, 1);
 2727              		.loc 1 1134 41 is_stmt 0 view .LVU715
 2728 001e C4F30013 		ubfx	r3, r4, #4, #1
1134:Drivers/BSP/Components/iis2dlpc/iis2dlpc_reg.c ****     ret = iis2dlpc_write_reg(ctx, IIS2DLPC_CTRL6, (uint8_t *) &ctrl6, 1);
 2729              		.loc 1 1134 15 view .LVU716
 2730 0022 9DF80420 		ldrb	r2, [sp, #4]	@ zero_extendqisi2
 2731 0026 63F3C302 		bfi	r2, r3, #3, #1
 2732 002a 8DF80420 		strb	r2, [sp, #4]
1135:Drivers/BSP/Components/iis2dlpc/iis2dlpc_reg.c ****   }
 2733              		.loc 1 1135 5 is_stmt 1 view .LVU717
1135:Drivers/BSP/Components/iis2dlpc/iis2dlpc_reg.c ****   }
 2734              		.loc 1 1135 11 is_stmt 0 view .LVU718
 2735 002e 0123     		movs	r3, #1
 2736 0030 01AA     		add	r2, sp, #4
 2737 0032 2521     		movs	r1, #37
 2738 0034 2846     		mov	r0, r5
 2739              	.LVL184:
1135:Drivers/BSP/Components/iis2dlpc/iis2dlpc_reg.c ****   }
 2740              		.loc 1 1135 11 view .LVU719
 2741 0036 FFF7FEFF 		bl	iis2dlpc_write_reg
 2742              	.LVL185:
1138:Drivers/BSP/Components/iis2dlpc/iis2dlpc_reg.c ****   {
 2743              		.loc 1 1138 3 is_stmt 1 view .LVU720
1138:Drivers/BSP/Components/iis2dlpc/iis2dlpc_reg.c ****   {
 2744              		.loc 1 1138 6 is_stmt 0 view .LVU721
 2745 003a 0346     		mov	r3, r0
 2746 003c 0028     		cmp	r0, #0
 2747 003e EBD1     		bne	.L190
1140:Drivers/BSP/Components/iis2dlpc/iis2dlpc_reg.c ****   }
 2748              		.loc 1 1140 5 is_stmt 1 view .LVU722
1140:Drivers/BSP/Components/iis2dlpc/iis2dlpc_reg.c ****   }
 2749              		.loc 1 1140 11 is_stmt 0 view .LVU723
 2750 0040 0123     		movs	r3, #1
 2751 0042 6A46     		mov	r2, sp
 2752 0044 3F21     		movs	r1, #63
 2753 0046 2846     		mov	r0, r5
 2754              	.LVL186:
1140:Drivers/BSP/Components/iis2dlpc/iis2dlpc_reg.c ****   }
 2755              		.loc 1 1140 11 view .LVU724
 2756 0048 FFF7FEFF 		bl	iis2dlpc_read_reg
 2757              	.LVL187:
 2758 004c 0346     		mov	r3, r0
 2759              	.LVL188:
1140:Drivers/BSP/Components/iis2dlpc/iis2dlpc_reg.c ****   }
 2760              		.loc 1 1140 11 view .LVU725
 2761 004e E2E7     		b	.L191
 2762              	.L195:
1145:Drivers/BSP/Components/iis2dlpc/iis2dlpc_reg.c ****     ret = iis2dlpc_write_reg(ctx, IIS2DLPC_CTRL7, (uint8_t *) &ctrl_reg7, 1);
 2763              		.loc 1 1145 5 is_stmt 1 view .LVU726
1145:Drivers/BSP/Components/iis2dlpc/iis2dlpc_reg.c ****     ret = iis2dlpc_write_reg(ctx, IIS2DLPC_CTRL7, (uint8_t *) &ctrl_reg7, 1);
 2764              		.loc 1 1145 30 is_stmt 0 view .LVU727
 2765 0050 9DF80030 		ldrb	r3, [sp]	@ zero_extendqisi2
 2766 0054 64F30413 		bfi	r3, r4, #4, #1
 2767 0058 8DF80030 		strb	r3, [sp]
ARM GAS  C:\Temp\ccGZlXNO.s 			page 73


1146:Drivers/BSP/Components/iis2dlpc/iis2dlpc_reg.c ****   }
 2768              		.loc 1 1146 5 is_stmt 1 view .LVU728
1146:Drivers/BSP/Components/iis2dlpc/iis2dlpc_reg.c ****   }
 2769              		.loc 1 1146 11 is_stmt 0 view .LVU729
 2770 005c 0123     		movs	r3, #1
 2771 005e 6A46     		mov	r2, sp
 2772 0060 3F21     		movs	r1, #63
 2773 0062 2846     		mov	r0, r5
 2774              	.LVL189:
1146:Drivers/BSP/Components/iis2dlpc/iis2dlpc_reg.c ****   }
 2775              		.loc 1 1146 11 view .LVU730
 2776 0064 FFF7FEFF 		bl	iis2dlpc_write_reg
 2777              	.LVL190:
 2778 0068 0346     		mov	r3, r0
 2779              	.LVL191:
1154:Drivers/BSP/Components/iis2dlpc/iis2dlpc_reg.c **** }
 2780              		.loc 1 1154 3 is_stmt 1 view .LVU731
1154:Drivers/BSP/Components/iis2dlpc/iis2dlpc_reg.c **** }
 2781              		.loc 1 1154 10 is_stmt 0 view .LVU732
 2782 006a D5E7     		b	.L190
 2783              		.cfi_endproc
 2784              	.LFE43:
 2786              		.section	.text.iis2dlpc_filter_path_get,"ax",%progbits
 2787              		.align	1
 2788              		.global	iis2dlpc_filter_path_get
 2789              		.syntax unified
 2790              		.thumb
 2791              		.thumb_func
 2793              	iis2dlpc_filter_path_get:
 2794              	.LVL192:
 2795              	.LFB44:
1156:Drivers/BSP/Components/iis2dlpc/iis2dlpc_reg.c **** 
1157:Drivers/BSP/Components/iis2dlpc/iis2dlpc_reg.c **** /**
1158:Drivers/BSP/Components/iis2dlpc/iis2dlpc_reg.c ****   * @brief  Accelerometer filtering path for outputs.[get]
1159:Drivers/BSP/Components/iis2dlpc/iis2dlpc_reg.c ****   *
1160:Drivers/BSP/Components/iis2dlpc/iis2dlpc_reg.c ****   * @param  ctx      read / write interface definitions
1161:Drivers/BSP/Components/iis2dlpc/iis2dlpc_reg.c ****   * @param  val      Get the values of fds in reg CTRL6
1162:Drivers/BSP/Components/iis2dlpc/iis2dlpc_reg.c ****   * @retval          interface status (MANDATORY: return 0 -> no Error)
1163:Drivers/BSP/Components/iis2dlpc/iis2dlpc_reg.c ****   *
1164:Drivers/BSP/Components/iis2dlpc/iis2dlpc_reg.c ****   */
1165:Drivers/BSP/Components/iis2dlpc/iis2dlpc_reg.c **** int32_t iis2dlpc_filter_path_get(const stmdev_ctx_t *ctx,
1166:Drivers/BSP/Components/iis2dlpc/iis2dlpc_reg.c ****                                  iis2dlpc_fds_t *val)
1167:Drivers/BSP/Components/iis2dlpc/iis2dlpc_reg.c **** {
 2796              		.loc 1 1167 1 is_stmt 1 view -0
 2797              		.cfi_startproc
 2798              		@ args = 0, pretend = 0, frame = 8
 2799              		@ frame_needed = 0, uses_anonymous_args = 0
 2800              		.loc 1 1167 1 is_stmt 0 view .LVU734
 2801 0000 30B5     		push	{r4, r5, lr}
 2802              		.cfi_def_cfa_offset 12
 2803              		.cfi_offset 4, -12
 2804              		.cfi_offset 5, -8
 2805              		.cfi_offset 14, -4
 2806 0002 83B0     		sub	sp, sp, #12
 2807              		.cfi_def_cfa_offset 24
 2808 0004 0446     		mov	r4, r0
 2809 0006 0D46     		mov	r5, r1
ARM GAS  C:\Temp\ccGZlXNO.s 			page 74


1168:Drivers/BSP/Components/iis2dlpc/iis2dlpc_reg.c ****   iis2dlpc_ctrl6_t ctrl6;
 2810              		.loc 1 1168 3 is_stmt 1 view .LVU735
1169:Drivers/BSP/Components/iis2dlpc/iis2dlpc_reg.c ****   iis2dlpc_ctrl7_t ctrl_reg7;
 2811              		.loc 1 1169 3 view .LVU736
1170:Drivers/BSP/Components/iis2dlpc/iis2dlpc_reg.c ****   int32_t ret;
 2812              		.loc 1 1170 3 view .LVU737
1171:Drivers/BSP/Components/iis2dlpc/iis2dlpc_reg.c **** 
1172:Drivers/BSP/Components/iis2dlpc/iis2dlpc_reg.c ****   ret = iis2dlpc_read_reg(ctx, IIS2DLPC_CTRL6, (uint8_t *) &ctrl6, 1);
 2813              		.loc 1 1172 3 view .LVU738
 2814              		.loc 1 1172 9 is_stmt 0 view .LVU739
 2815 0008 0123     		movs	r3, #1
 2816 000a 01AA     		add	r2, sp, #4
 2817 000c 2521     		movs	r1, #37
 2818              	.LVL193:
 2819              		.loc 1 1172 9 view .LVU740
 2820 000e FFF7FEFF 		bl	iis2dlpc_read_reg
 2821              	.LVL194:
1173:Drivers/BSP/Components/iis2dlpc/iis2dlpc_reg.c **** 
1174:Drivers/BSP/Components/iis2dlpc/iis2dlpc_reg.c ****   if (ret == 0)
 2822              		.loc 1 1174 3 is_stmt 1 view .LVU741
 2823              		.loc 1 1174 6 is_stmt 0 view .LVU742
 2824 0012 08B1     		cbz	r0, .L202
 2825              	.LVL195:
 2826              	.L196:
1175:Drivers/BSP/Components/iis2dlpc/iis2dlpc_reg.c ****   {
1176:Drivers/BSP/Components/iis2dlpc/iis2dlpc_reg.c ****     ret = iis2dlpc_read_reg(ctx, IIS2DLPC_CTRL7, (uint8_t *) &ctrl_reg7, 1);
1177:Drivers/BSP/Components/iis2dlpc/iis2dlpc_reg.c **** 
1178:Drivers/BSP/Components/iis2dlpc/iis2dlpc_reg.c ****     switch ((ctrl6.fds << 4) + ctrl_reg7.usr_off_on_out)
1179:Drivers/BSP/Components/iis2dlpc/iis2dlpc_reg.c ****     {
1180:Drivers/BSP/Components/iis2dlpc/iis2dlpc_reg.c ****       case IIS2DLPC_LPF_ON_OUT:
1181:Drivers/BSP/Components/iis2dlpc/iis2dlpc_reg.c ****         *val = IIS2DLPC_LPF_ON_OUT;
1182:Drivers/BSP/Components/iis2dlpc/iis2dlpc_reg.c ****         break;
1183:Drivers/BSP/Components/iis2dlpc/iis2dlpc_reg.c **** 
1184:Drivers/BSP/Components/iis2dlpc/iis2dlpc_reg.c ****       case IIS2DLPC_USER_OFFSET_ON_OUT:
1185:Drivers/BSP/Components/iis2dlpc/iis2dlpc_reg.c ****         *val = IIS2DLPC_USER_OFFSET_ON_OUT;
1186:Drivers/BSP/Components/iis2dlpc/iis2dlpc_reg.c ****         break;
1187:Drivers/BSP/Components/iis2dlpc/iis2dlpc_reg.c **** 
1188:Drivers/BSP/Components/iis2dlpc/iis2dlpc_reg.c ****       case IIS2DLPC_HIGH_PASS_ON_OUT:
1189:Drivers/BSP/Components/iis2dlpc/iis2dlpc_reg.c ****         *val = IIS2DLPC_HIGH_PASS_ON_OUT;
1190:Drivers/BSP/Components/iis2dlpc/iis2dlpc_reg.c ****         break;
1191:Drivers/BSP/Components/iis2dlpc/iis2dlpc_reg.c **** 
1192:Drivers/BSP/Components/iis2dlpc/iis2dlpc_reg.c ****       default:
1193:Drivers/BSP/Components/iis2dlpc/iis2dlpc_reg.c ****         *val = IIS2DLPC_LPF_ON_OUT;
1194:Drivers/BSP/Components/iis2dlpc/iis2dlpc_reg.c ****         break;
1195:Drivers/BSP/Components/iis2dlpc/iis2dlpc_reg.c ****     }
1196:Drivers/BSP/Components/iis2dlpc/iis2dlpc_reg.c ****   }
1197:Drivers/BSP/Components/iis2dlpc/iis2dlpc_reg.c **** 
1198:Drivers/BSP/Components/iis2dlpc/iis2dlpc_reg.c ****   return ret;
1199:Drivers/BSP/Components/iis2dlpc/iis2dlpc_reg.c **** }
 2827              		.loc 1 1199 1 view .LVU743
 2828 0014 03B0     		add	sp, sp, #12
 2829              		.cfi_remember_state
 2830              		.cfi_def_cfa_offset 12
 2831              		@ sp needed
 2832 0016 30BD     		pop	{r4, r5, pc}
 2833              	.LVL196:
 2834              	.L202:
ARM GAS  C:\Temp\ccGZlXNO.s 			page 75


 2835              		.cfi_restore_state
1176:Drivers/BSP/Components/iis2dlpc/iis2dlpc_reg.c **** 
 2836              		.loc 1 1176 5 is_stmt 1 view .LVU744
1176:Drivers/BSP/Components/iis2dlpc/iis2dlpc_reg.c **** 
 2837              		.loc 1 1176 11 is_stmt 0 view .LVU745
 2838 0018 0123     		movs	r3, #1
 2839              	.LVL197:
1176:Drivers/BSP/Components/iis2dlpc/iis2dlpc_reg.c **** 
 2840              		.loc 1 1176 11 view .LVU746
 2841 001a 6A46     		mov	r2, sp
 2842 001c 3F21     		movs	r1, #63
 2843 001e 2046     		mov	r0, r4
 2844 0020 FFF7FEFF 		bl	iis2dlpc_read_reg
 2845              	.LVL198:
1178:Drivers/BSP/Components/iis2dlpc/iis2dlpc_reg.c ****     {
 2846              		.loc 1 1178 5 is_stmt 1 view .LVU747
1178:Drivers/BSP/Components/iis2dlpc/iis2dlpc_reg.c ****     {
 2847              		.loc 1 1178 19 is_stmt 0 view .LVU748
 2848 0024 9DF80420 		ldrb	r2, [sp, #4]	@ zero_extendqisi2
 2849 0028 C2F3C002 		ubfx	r2, r2, #3, #1
1178:Drivers/BSP/Components/iis2dlpc/iis2dlpc_reg.c ****     {
 2850              		.loc 1 1178 41 view .LVU749
 2851 002c 9DF80030 		ldrb	r3, [sp]	@ zero_extendqisi2
 2852 0030 C3F30013 		ubfx	r3, r3, #4, #1
1178:Drivers/BSP/Components/iis2dlpc/iis2dlpc_reg.c ****     {
 2853              		.loc 1 1178 30 view .LVU750
 2854 0034 03EB0213 		add	r3, r3, r2, lsl #4
1178:Drivers/BSP/Components/iis2dlpc/iis2dlpc_reg.c ****     {
 2855              		.loc 1 1178 5 view .LVU751
 2856 0038 012B     		cmp	r3, #1
 2857 003a 07D0     		beq	.L198
 2858 003c 102B     		cmp	r3, #16
 2859 003e 08D0     		beq	.L199
 2860 0040 13B1     		cbz	r3, .L203
1193:Drivers/BSP/Components/iis2dlpc/iis2dlpc_reg.c ****         break;
 2861              		.loc 1 1193 9 is_stmt 1 view .LVU752
1193:Drivers/BSP/Components/iis2dlpc/iis2dlpc_reg.c ****         break;
 2862              		.loc 1 1193 14 is_stmt 0 view .LVU753
 2863 0042 0023     		movs	r3, #0
 2864 0044 2B70     		strb	r3, [r5]
1194:Drivers/BSP/Components/iis2dlpc/iis2dlpc_reg.c ****     }
 2865              		.loc 1 1194 9 is_stmt 1 view .LVU754
1198:Drivers/BSP/Components/iis2dlpc/iis2dlpc_reg.c **** }
 2866              		.loc 1 1198 3 view .LVU755
1198:Drivers/BSP/Components/iis2dlpc/iis2dlpc_reg.c **** }
 2867              		.loc 1 1198 10 is_stmt 0 view .LVU756
 2868 0046 E5E7     		b	.L196
 2869              	.L203:
1181:Drivers/BSP/Components/iis2dlpc/iis2dlpc_reg.c ****         break;
 2870              		.loc 1 1181 9 is_stmt 1 view .LVU757
1181:Drivers/BSP/Components/iis2dlpc/iis2dlpc_reg.c ****         break;
 2871              		.loc 1 1181 14 is_stmt 0 view .LVU758
 2872 0048 2B70     		strb	r3, [r5]
1182:Drivers/BSP/Components/iis2dlpc/iis2dlpc_reg.c **** 
 2873              		.loc 1 1182 9 is_stmt 1 view .LVU759
 2874 004a E3E7     		b	.L196
 2875              	.L198:
ARM GAS  C:\Temp\ccGZlXNO.s 			page 76


1185:Drivers/BSP/Components/iis2dlpc/iis2dlpc_reg.c ****         break;
 2876              		.loc 1 1185 9 view .LVU760
1185:Drivers/BSP/Components/iis2dlpc/iis2dlpc_reg.c ****         break;
 2877              		.loc 1 1185 14 is_stmt 0 view .LVU761
 2878 004c 0123     		movs	r3, #1
 2879 004e 2B70     		strb	r3, [r5]
1186:Drivers/BSP/Components/iis2dlpc/iis2dlpc_reg.c **** 
 2880              		.loc 1 1186 9 is_stmt 1 view .LVU762
 2881 0050 E0E7     		b	.L196
 2882              	.L199:
1189:Drivers/BSP/Components/iis2dlpc/iis2dlpc_reg.c ****         break;
 2883              		.loc 1 1189 9 view .LVU763
1189:Drivers/BSP/Components/iis2dlpc/iis2dlpc_reg.c ****         break;
 2884              		.loc 1 1189 14 is_stmt 0 view .LVU764
 2885 0052 1023     		movs	r3, #16
 2886 0054 2B70     		strb	r3, [r5]
1190:Drivers/BSP/Components/iis2dlpc/iis2dlpc_reg.c **** 
 2887              		.loc 1 1190 9 is_stmt 1 view .LVU765
 2888 0056 DDE7     		b	.L196
 2889              		.cfi_endproc
 2890              	.LFE44:
 2892              		.section	.text.iis2dlpc_filter_bandwidth_set,"ax",%progbits
 2893              		.align	1
 2894              		.global	iis2dlpc_filter_bandwidth_set
 2895              		.syntax unified
 2896              		.thumb
 2897              		.thumb_func
 2899              	iis2dlpc_filter_bandwidth_set:
 2900              	.LVL199:
 2901              	.LFB45:
1200:Drivers/BSP/Components/iis2dlpc/iis2dlpc_reg.c **** 
1201:Drivers/BSP/Components/iis2dlpc/iis2dlpc_reg.c **** /**
1202:Drivers/BSP/Components/iis2dlpc/iis2dlpc_reg.c ****   * @brief   Accelerometer cutoff filter frequency. Valid for low and high
1203:Drivers/BSP/Components/iis2dlpc/iis2dlpc_reg.c ****   *          pass filter.[set]
1204:Drivers/BSP/Components/iis2dlpc/iis2dlpc_reg.c ****   *
1205:Drivers/BSP/Components/iis2dlpc/iis2dlpc_reg.c ****   * @param  ctx      read / write interface definitions
1206:Drivers/BSP/Components/iis2dlpc/iis2dlpc_reg.c ****   * @param  val      change the values of bw_filt in reg CTRL6
1207:Drivers/BSP/Components/iis2dlpc/iis2dlpc_reg.c ****   * @retval          interface status (MANDATORY: return 0 -> no Error)
1208:Drivers/BSP/Components/iis2dlpc/iis2dlpc_reg.c ****   *
1209:Drivers/BSP/Components/iis2dlpc/iis2dlpc_reg.c ****   */
1210:Drivers/BSP/Components/iis2dlpc/iis2dlpc_reg.c **** int32_t iis2dlpc_filter_bandwidth_set(const stmdev_ctx_t *ctx,
1211:Drivers/BSP/Components/iis2dlpc/iis2dlpc_reg.c ****                                       iis2dlpc_bw_filt_t val)
1212:Drivers/BSP/Components/iis2dlpc/iis2dlpc_reg.c **** {
 2902              		.loc 1 1212 1 view -0
 2903              		.cfi_startproc
 2904              		@ args = 0, pretend = 0, frame = 8
 2905              		@ frame_needed = 0, uses_anonymous_args = 0
 2906              		.loc 1 1212 1 is_stmt 0 view .LVU767
 2907 0000 30B5     		push	{r4, r5, lr}
 2908              		.cfi_def_cfa_offset 12
 2909              		.cfi_offset 4, -12
 2910              		.cfi_offset 5, -8
 2911              		.cfi_offset 14, -4
 2912 0002 83B0     		sub	sp, sp, #12
 2913              		.cfi_def_cfa_offset 24
 2914 0004 0446     		mov	r4, r0
 2915 0006 0D46     		mov	r5, r1
ARM GAS  C:\Temp\ccGZlXNO.s 			page 77


1213:Drivers/BSP/Components/iis2dlpc/iis2dlpc_reg.c ****   iis2dlpc_ctrl6_t reg;
 2916              		.loc 1 1213 3 is_stmt 1 view .LVU768
1214:Drivers/BSP/Components/iis2dlpc/iis2dlpc_reg.c ****   int32_t ret;
 2917              		.loc 1 1214 3 view .LVU769
1215:Drivers/BSP/Components/iis2dlpc/iis2dlpc_reg.c **** 
1216:Drivers/BSP/Components/iis2dlpc/iis2dlpc_reg.c ****   ret = iis2dlpc_read_reg(ctx, IIS2DLPC_CTRL6, (uint8_t *) &reg, 1);
 2918              		.loc 1 1216 3 view .LVU770
 2919              		.loc 1 1216 9 is_stmt 0 view .LVU771
 2920 0008 0123     		movs	r3, #1
 2921 000a 01AA     		add	r2, sp, #4
 2922 000c 2521     		movs	r1, #37
 2923              	.LVL200:
 2924              		.loc 1 1216 9 view .LVU772
 2925 000e FFF7FEFF 		bl	iis2dlpc_read_reg
 2926              	.LVL201:
1217:Drivers/BSP/Components/iis2dlpc/iis2dlpc_reg.c **** 
1218:Drivers/BSP/Components/iis2dlpc/iis2dlpc_reg.c ****   if (ret == 0)
 2927              		.loc 1 1218 3 is_stmt 1 view .LVU773
 2928              		.loc 1 1218 6 is_stmt 0 view .LVU774
 2929 0012 08B1     		cbz	r0, .L207
 2930              	.LVL202:
 2931              	.L204:
1219:Drivers/BSP/Components/iis2dlpc/iis2dlpc_reg.c ****   {
1220:Drivers/BSP/Components/iis2dlpc/iis2dlpc_reg.c ****     reg.bw_filt = (uint8_t) val;
1221:Drivers/BSP/Components/iis2dlpc/iis2dlpc_reg.c ****     ret = iis2dlpc_write_reg(ctx, IIS2DLPC_CTRL6, (uint8_t *) &reg, 1);
1222:Drivers/BSP/Components/iis2dlpc/iis2dlpc_reg.c ****   }
1223:Drivers/BSP/Components/iis2dlpc/iis2dlpc_reg.c **** 
1224:Drivers/BSP/Components/iis2dlpc/iis2dlpc_reg.c ****   return ret;
1225:Drivers/BSP/Components/iis2dlpc/iis2dlpc_reg.c **** }
 2932              		.loc 1 1225 1 view .LVU775
 2933 0014 03B0     		add	sp, sp, #12
 2934              		.cfi_remember_state
 2935              		.cfi_def_cfa_offset 12
 2936              		@ sp needed
 2937 0016 30BD     		pop	{r4, r5, pc}
 2938              	.LVL203:
 2939              	.L207:
 2940              		.cfi_restore_state
1220:Drivers/BSP/Components/iis2dlpc/iis2dlpc_reg.c ****     ret = iis2dlpc_write_reg(ctx, IIS2DLPC_CTRL6, (uint8_t *) &reg, 1);
 2941              		.loc 1 1220 5 is_stmt 1 view .LVU776
1220:Drivers/BSP/Components/iis2dlpc/iis2dlpc_reg.c ****     ret = iis2dlpc_write_reg(ctx, IIS2DLPC_CTRL6, (uint8_t *) &reg, 1);
 2942              		.loc 1 1220 17 is_stmt 0 view .LVU777
 2943 0018 9DF80430 		ldrb	r3, [sp, #4]	@ zero_extendqisi2
 2944 001c 65F38713 		bfi	r3, r5, #6, #2
 2945 0020 8DF80430 		strb	r3, [sp, #4]
1221:Drivers/BSP/Components/iis2dlpc/iis2dlpc_reg.c ****   }
 2946              		.loc 1 1221 5 is_stmt 1 view .LVU778
1221:Drivers/BSP/Components/iis2dlpc/iis2dlpc_reg.c ****   }
 2947              		.loc 1 1221 11 is_stmt 0 view .LVU779
 2948 0024 0123     		movs	r3, #1
 2949              	.LVL204:
1221:Drivers/BSP/Components/iis2dlpc/iis2dlpc_reg.c ****   }
 2950              		.loc 1 1221 11 view .LVU780
 2951 0026 01AA     		add	r2, sp, #4
 2952 0028 2521     		movs	r1, #37
 2953 002a 2046     		mov	r0, r4
 2954 002c FFF7FEFF 		bl	iis2dlpc_write_reg
ARM GAS  C:\Temp\ccGZlXNO.s 			page 78


 2955              	.LVL205:
1224:Drivers/BSP/Components/iis2dlpc/iis2dlpc_reg.c **** }
 2956              		.loc 1 1224 3 is_stmt 1 view .LVU781
1224:Drivers/BSP/Components/iis2dlpc/iis2dlpc_reg.c **** }
 2957              		.loc 1 1224 10 is_stmt 0 view .LVU782
 2958 0030 F0E7     		b	.L204
 2959              		.cfi_endproc
 2960              	.LFE45:
 2962              		.section	.text.iis2dlpc_filter_bandwidth_get,"ax",%progbits
 2963              		.align	1
 2964              		.global	iis2dlpc_filter_bandwidth_get
 2965              		.syntax unified
 2966              		.thumb
 2967              		.thumb_func
 2969              	iis2dlpc_filter_bandwidth_get:
 2970              	.LVL206:
 2971              	.LFB46:
1226:Drivers/BSP/Components/iis2dlpc/iis2dlpc_reg.c **** 
1227:Drivers/BSP/Components/iis2dlpc/iis2dlpc_reg.c **** /**
1228:Drivers/BSP/Components/iis2dlpc/iis2dlpc_reg.c ****   * @brief   Accelerometer cutoff filter frequency. Valid for low and
1229:Drivers/BSP/Components/iis2dlpc/iis2dlpc_reg.c ****   *          high pass filter.[get]
1230:Drivers/BSP/Components/iis2dlpc/iis2dlpc_reg.c ****   *
1231:Drivers/BSP/Components/iis2dlpc/iis2dlpc_reg.c ****   * @param  ctx      read / write interface definitions
1232:Drivers/BSP/Components/iis2dlpc/iis2dlpc_reg.c ****   * @param  val      Get the values of bw_filt in reg CTRL6
1233:Drivers/BSP/Components/iis2dlpc/iis2dlpc_reg.c ****   * @retval          interface status (MANDATORY: return 0 -> no Error)
1234:Drivers/BSP/Components/iis2dlpc/iis2dlpc_reg.c ****   *
1235:Drivers/BSP/Components/iis2dlpc/iis2dlpc_reg.c ****   */
1236:Drivers/BSP/Components/iis2dlpc/iis2dlpc_reg.c **** int32_t iis2dlpc_filter_bandwidth_get(const stmdev_ctx_t *ctx,
1237:Drivers/BSP/Components/iis2dlpc/iis2dlpc_reg.c ****                                       iis2dlpc_bw_filt_t *val)
1238:Drivers/BSP/Components/iis2dlpc/iis2dlpc_reg.c **** {
 2972              		.loc 1 1238 1 is_stmt 1 view -0
 2973              		.cfi_startproc
 2974              		@ args = 0, pretend = 0, frame = 8
 2975              		@ frame_needed = 0, uses_anonymous_args = 0
 2976              		.loc 1 1238 1 is_stmt 0 view .LVU784
 2977 0000 10B5     		push	{r4, lr}
 2978              		.cfi_def_cfa_offset 8
 2979              		.cfi_offset 4, -8
 2980              		.cfi_offset 14, -4
 2981 0002 82B0     		sub	sp, sp, #8
 2982              		.cfi_def_cfa_offset 16
 2983 0004 0C46     		mov	r4, r1
1239:Drivers/BSP/Components/iis2dlpc/iis2dlpc_reg.c ****   iis2dlpc_ctrl6_t reg;
 2984              		.loc 1 1239 3 is_stmt 1 view .LVU785
1240:Drivers/BSP/Components/iis2dlpc/iis2dlpc_reg.c ****   int32_t ret;
 2985              		.loc 1 1240 3 view .LVU786
1241:Drivers/BSP/Components/iis2dlpc/iis2dlpc_reg.c **** 
1242:Drivers/BSP/Components/iis2dlpc/iis2dlpc_reg.c ****   ret = iis2dlpc_read_reg(ctx, IIS2DLPC_CTRL6, (uint8_t *) &reg, 1);
 2986              		.loc 1 1242 3 view .LVU787
 2987              		.loc 1 1242 9 is_stmt 0 view .LVU788
 2988 0006 0123     		movs	r3, #1
 2989 0008 01AA     		add	r2, sp, #4
 2990 000a 2521     		movs	r1, #37
 2991              	.LVL207:
 2992              		.loc 1 1242 9 view .LVU789
 2993 000c FFF7FEFF 		bl	iis2dlpc_read_reg
 2994              	.LVL208:
ARM GAS  C:\Temp\ccGZlXNO.s 			page 79


1243:Drivers/BSP/Components/iis2dlpc/iis2dlpc_reg.c **** 
1244:Drivers/BSP/Components/iis2dlpc/iis2dlpc_reg.c ****   switch (reg.bw_filt)
 2995              		.loc 1 1244 3 is_stmt 1 view .LVU790
 2996              		.loc 1 1244 14 is_stmt 0 view .LVU791
 2997 0010 9DF80430 		ldrb	r3, [sp, #4]	@ zero_extendqisi2
 2998 0014 9B09     		lsrs	r3, r3, #6
 2999              		.loc 1 1244 3 view .LVU792
 3000 0016 032B     		cmp	r3, #3
 3001 0018 10D8     		bhi	.L209
 3002 001a DFE803F0 		tbb	[pc, r3]
 3003              	.L211:
 3004 001e 02       		.byte	(.L214-.L211)/2
 3005 001f 06       		.byte	(.L213-.L211)/2
 3006 0020 09       		.byte	(.L212-.L211)/2
 3007 0021 0C       		.byte	(.L210-.L211)/2
 3008              		.p2align 1
 3009              	.L214:
1245:Drivers/BSP/Components/iis2dlpc/iis2dlpc_reg.c ****   {
1246:Drivers/BSP/Components/iis2dlpc/iis2dlpc_reg.c ****     case IIS2DLPC_ODR_DIV_2:
1247:Drivers/BSP/Components/iis2dlpc/iis2dlpc_reg.c ****       *val = IIS2DLPC_ODR_DIV_2;
 3010              		.loc 1 1247 7 is_stmt 1 view .LVU793
 3011              		.loc 1 1247 12 is_stmt 0 view .LVU794
 3012 0022 0023     		movs	r3, #0
 3013 0024 2370     		strb	r3, [r4]
1248:Drivers/BSP/Components/iis2dlpc/iis2dlpc_reg.c ****       break;
 3014              		.loc 1 1248 7 is_stmt 1 view .LVU795
 3015              	.L208:
1249:Drivers/BSP/Components/iis2dlpc/iis2dlpc_reg.c **** 
1250:Drivers/BSP/Components/iis2dlpc/iis2dlpc_reg.c ****     case IIS2DLPC_ODR_DIV_4:
1251:Drivers/BSP/Components/iis2dlpc/iis2dlpc_reg.c ****       *val = IIS2DLPC_ODR_DIV_4;
1252:Drivers/BSP/Components/iis2dlpc/iis2dlpc_reg.c ****       break;
1253:Drivers/BSP/Components/iis2dlpc/iis2dlpc_reg.c **** 
1254:Drivers/BSP/Components/iis2dlpc/iis2dlpc_reg.c ****     case IIS2DLPC_ODR_DIV_10:
1255:Drivers/BSP/Components/iis2dlpc/iis2dlpc_reg.c ****       *val = IIS2DLPC_ODR_DIV_10;
1256:Drivers/BSP/Components/iis2dlpc/iis2dlpc_reg.c ****       break;
1257:Drivers/BSP/Components/iis2dlpc/iis2dlpc_reg.c **** 
1258:Drivers/BSP/Components/iis2dlpc/iis2dlpc_reg.c ****     case IIS2DLPC_ODR_DIV_20:
1259:Drivers/BSP/Components/iis2dlpc/iis2dlpc_reg.c ****       *val = IIS2DLPC_ODR_DIV_20;
1260:Drivers/BSP/Components/iis2dlpc/iis2dlpc_reg.c ****       break;
1261:Drivers/BSP/Components/iis2dlpc/iis2dlpc_reg.c **** 
1262:Drivers/BSP/Components/iis2dlpc/iis2dlpc_reg.c ****     default:
1263:Drivers/BSP/Components/iis2dlpc/iis2dlpc_reg.c ****       *val = IIS2DLPC_ODR_DIV_2;
1264:Drivers/BSP/Components/iis2dlpc/iis2dlpc_reg.c ****       break;
1265:Drivers/BSP/Components/iis2dlpc/iis2dlpc_reg.c ****   }
1266:Drivers/BSP/Components/iis2dlpc/iis2dlpc_reg.c **** 
1267:Drivers/BSP/Components/iis2dlpc/iis2dlpc_reg.c ****   return ret;
1268:Drivers/BSP/Components/iis2dlpc/iis2dlpc_reg.c **** }
 3016              		.loc 1 1268 1 is_stmt 0 view .LVU796
 3017 0026 02B0     		add	sp, sp, #8
 3018              		.cfi_remember_state
 3019              		.cfi_def_cfa_offset 8
 3020              		@ sp needed
 3021 0028 10BD     		pop	{r4, pc}
 3022              	.LVL209:
 3023              	.L213:
 3024              		.cfi_restore_state
1251:Drivers/BSP/Components/iis2dlpc/iis2dlpc_reg.c ****       break;
ARM GAS  C:\Temp\ccGZlXNO.s 			page 80


 3025              		.loc 1 1251 7 is_stmt 1 view .LVU797
1251:Drivers/BSP/Components/iis2dlpc/iis2dlpc_reg.c ****       break;
 3026              		.loc 1 1251 12 is_stmt 0 view .LVU798
 3027 002a 0123     		movs	r3, #1
 3028 002c 2370     		strb	r3, [r4]
1252:Drivers/BSP/Components/iis2dlpc/iis2dlpc_reg.c **** 
 3029              		.loc 1 1252 7 is_stmt 1 view .LVU799
 3030 002e FAE7     		b	.L208
 3031              	.L212:
1255:Drivers/BSP/Components/iis2dlpc/iis2dlpc_reg.c ****       break;
 3032              		.loc 1 1255 7 view .LVU800
1255:Drivers/BSP/Components/iis2dlpc/iis2dlpc_reg.c ****       break;
 3033              		.loc 1 1255 12 is_stmt 0 view .LVU801
 3034 0030 0223     		movs	r3, #2
 3035 0032 2370     		strb	r3, [r4]
1256:Drivers/BSP/Components/iis2dlpc/iis2dlpc_reg.c **** 
 3036              		.loc 1 1256 7 is_stmt 1 view .LVU802
 3037 0034 F7E7     		b	.L208
 3038              	.L210:
1259:Drivers/BSP/Components/iis2dlpc/iis2dlpc_reg.c ****       break;
 3039              		.loc 1 1259 7 view .LVU803
1259:Drivers/BSP/Components/iis2dlpc/iis2dlpc_reg.c ****       break;
 3040              		.loc 1 1259 12 is_stmt 0 view .LVU804
 3041 0036 0323     		movs	r3, #3
 3042 0038 2370     		strb	r3, [r4]
1260:Drivers/BSP/Components/iis2dlpc/iis2dlpc_reg.c **** 
 3043              		.loc 1 1260 7 is_stmt 1 view .LVU805
 3044 003a F4E7     		b	.L208
 3045              	.L209:
1263:Drivers/BSP/Components/iis2dlpc/iis2dlpc_reg.c ****       break;
 3046              		.loc 1 1263 7 view .LVU806
1263:Drivers/BSP/Components/iis2dlpc/iis2dlpc_reg.c ****       break;
 3047              		.loc 1 1263 12 is_stmt 0 view .LVU807
 3048 003c 0023     		movs	r3, #0
 3049 003e 2370     		strb	r3, [r4]
1264:Drivers/BSP/Components/iis2dlpc/iis2dlpc_reg.c ****   }
 3050              		.loc 1 1264 7 is_stmt 1 view .LVU808
1267:Drivers/BSP/Components/iis2dlpc/iis2dlpc_reg.c **** }
 3051              		.loc 1 1267 3 view .LVU809
1267:Drivers/BSP/Components/iis2dlpc/iis2dlpc_reg.c **** }
 3052              		.loc 1 1267 10 is_stmt 0 view .LVU810
 3053 0040 F1E7     		b	.L208
 3054              		.cfi_endproc
 3055              	.LFE46:
 3057              		.section	.text.iis2dlpc_reference_mode_set,"ax",%progbits
 3058              		.align	1
 3059              		.global	iis2dlpc_reference_mode_set
 3060              		.syntax unified
 3061              		.thumb
 3062              		.thumb_func
 3064              	iis2dlpc_reference_mode_set:
 3065              	.LVL210:
 3066              	.LFB47:
1269:Drivers/BSP/Components/iis2dlpc/iis2dlpc_reg.c **** 
1270:Drivers/BSP/Components/iis2dlpc/iis2dlpc_reg.c **** /**
1271:Drivers/BSP/Components/iis2dlpc/iis2dlpc_reg.c ****   * @brief  Enable HP filter reference mode.[set]
1272:Drivers/BSP/Components/iis2dlpc/iis2dlpc_reg.c ****   *
ARM GAS  C:\Temp\ccGZlXNO.s 			page 81


1273:Drivers/BSP/Components/iis2dlpc/iis2dlpc_reg.c ****   * @param  ctx      read / write interface definitions
1274:Drivers/BSP/Components/iis2dlpc/iis2dlpc_reg.c ****   * @param  val      change the values of hp_ref_mode in reg CTRL_REG7
1275:Drivers/BSP/Components/iis2dlpc/iis2dlpc_reg.c ****   * @retval          interface status (MANDATORY: return 0 -> no Error)
1276:Drivers/BSP/Components/iis2dlpc/iis2dlpc_reg.c ****   *
1277:Drivers/BSP/Components/iis2dlpc/iis2dlpc_reg.c ****   */
1278:Drivers/BSP/Components/iis2dlpc/iis2dlpc_reg.c **** int32_t iis2dlpc_reference_mode_set(const stmdev_ctx_t *ctx, uint8_t val)
1279:Drivers/BSP/Components/iis2dlpc/iis2dlpc_reg.c **** {
 3067              		.loc 1 1279 1 is_stmt 1 view -0
 3068              		.cfi_startproc
 3069              		@ args = 0, pretend = 0, frame = 8
 3070              		@ frame_needed = 0, uses_anonymous_args = 0
 3071              		.loc 1 1279 1 is_stmt 0 view .LVU812
 3072 0000 30B5     		push	{r4, r5, lr}
 3073              		.cfi_def_cfa_offset 12
 3074              		.cfi_offset 4, -12
 3075              		.cfi_offset 5, -8
 3076              		.cfi_offset 14, -4
 3077 0002 83B0     		sub	sp, sp, #12
 3078              		.cfi_def_cfa_offset 24
 3079 0004 0446     		mov	r4, r0
 3080 0006 0D46     		mov	r5, r1
1280:Drivers/BSP/Components/iis2dlpc/iis2dlpc_reg.c ****   iis2dlpc_ctrl7_t reg;
 3081              		.loc 1 1280 3 is_stmt 1 view .LVU813
1281:Drivers/BSP/Components/iis2dlpc/iis2dlpc_reg.c ****   int32_t ret;
 3082              		.loc 1 1281 3 view .LVU814
1282:Drivers/BSP/Components/iis2dlpc/iis2dlpc_reg.c **** 
1283:Drivers/BSP/Components/iis2dlpc/iis2dlpc_reg.c ****   ret = iis2dlpc_read_reg(ctx, IIS2DLPC_CTRL7, (uint8_t *) &reg, 1);
 3083              		.loc 1 1283 3 view .LVU815
 3084              		.loc 1 1283 9 is_stmt 0 view .LVU816
 3085 0008 0123     		movs	r3, #1
 3086 000a 01AA     		add	r2, sp, #4
 3087 000c 3F21     		movs	r1, #63
 3088              	.LVL211:
 3089              		.loc 1 1283 9 view .LVU817
 3090 000e FFF7FEFF 		bl	iis2dlpc_read_reg
 3091              	.LVL212:
1284:Drivers/BSP/Components/iis2dlpc/iis2dlpc_reg.c **** 
1285:Drivers/BSP/Components/iis2dlpc/iis2dlpc_reg.c ****   if (ret == 0)
 3092              		.loc 1 1285 3 is_stmt 1 view .LVU818
 3093              		.loc 1 1285 6 is_stmt 0 view .LVU819
 3094 0012 08B1     		cbz	r0, .L220
 3095              	.LVL213:
 3096              	.L217:
1286:Drivers/BSP/Components/iis2dlpc/iis2dlpc_reg.c ****   {
1287:Drivers/BSP/Components/iis2dlpc/iis2dlpc_reg.c ****     reg.hp_ref_mode = val;
1288:Drivers/BSP/Components/iis2dlpc/iis2dlpc_reg.c ****     ret = iis2dlpc_write_reg(ctx, IIS2DLPC_CTRL7, (uint8_t *) &reg, 1);
1289:Drivers/BSP/Components/iis2dlpc/iis2dlpc_reg.c ****   }
1290:Drivers/BSP/Components/iis2dlpc/iis2dlpc_reg.c **** 
1291:Drivers/BSP/Components/iis2dlpc/iis2dlpc_reg.c ****   return ret;
1292:Drivers/BSP/Components/iis2dlpc/iis2dlpc_reg.c **** }
 3097              		.loc 1 1292 1 view .LVU820
 3098 0014 03B0     		add	sp, sp, #12
 3099              		.cfi_remember_state
 3100              		.cfi_def_cfa_offset 12
 3101              		@ sp needed
 3102 0016 30BD     		pop	{r4, r5, pc}
 3103              	.LVL214:
ARM GAS  C:\Temp\ccGZlXNO.s 			page 82


 3104              	.L220:
 3105              		.cfi_restore_state
1287:Drivers/BSP/Components/iis2dlpc/iis2dlpc_reg.c ****     ret = iis2dlpc_write_reg(ctx, IIS2DLPC_CTRL7, (uint8_t *) &reg, 1);
 3106              		.loc 1 1287 5 is_stmt 1 view .LVU821
1287:Drivers/BSP/Components/iis2dlpc/iis2dlpc_reg.c ****     ret = iis2dlpc_write_reg(ctx, IIS2DLPC_CTRL7, (uint8_t *) &reg, 1);
 3107              		.loc 1 1287 21 is_stmt 0 view .LVU822
 3108 0018 9DF80430 		ldrb	r3, [sp, #4]	@ zero_extendqisi2
 3109 001c 65F34103 		bfi	r3, r5, #1, #1
 3110 0020 8DF80430 		strb	r3, [sp, #4]
1288:Drivers/BSP/Components/iis2dlpc/iis2dlpc_reg.c ****   }
 3111              		.loc 1 1288 5 is_stmt 1 view .LVU823
1288:Drivers/BSP/Components/iis2dlpc/iis2dlpc_reg.c ****   }
 3112              		.loc 1 1288 11 is_stmt 0 view .LVU824
 3113 0024 0123     		movs	r3, #1
 3114              	.LVL215:
1288:Drivers/BSP/Components/iis2dlpc/iis2dlpc_reg.c ****   }
 3115              		.loc 1 1288 11 view .LVU825
 3116 0026 01AA     		add	r2, sp, #4
 3117 0028 3F21     		movs	r1, #63
 3118 002a 2046     		mov	r0, r4
 3119 002c FFF7FEFF 		bl	iis2dlpc_write_reg
 3120              	.LVL216:
1291:Drivers/BSP/Components/iis2dlpc/iis2dlpc_reg.c **** }
 3121              		.loc 1 1291 3 is_stmt 1 view .LVU826
1291:Drivers/BSP/Components/iis2dlpc/iis2dlpc_reg.c **** }
 3122              		.loc 1 1291 10 is_stmt 0 view .LVU827
 3123 0030 F0E7     		b	.L217
 3124              		.cfi_endproc
 3125              	.LFE47:
 3127              		.section	.text.iis2dlpc_reference_mode_get,"ax",%progbits
 3128              		.align	1
 3129              		.global	iis2dlpc_reference_mode_get
 3130              		.syntax unified
 3131              		.thumb
 3132              		.thumb_func
 3134              	iis2dlpc_reference_mode_get:
 3135              	.LVL217:
 3136              	.LFB48:
1293:Drivers/BSP/Components/iis2dlpc/iis2dlpc_reg.c **** 
1294:Drivers/BSP/Components/iis2dlpc/iis2dlpc_reg.c **** /**
1295:Drivers/BSP/Components/iis2dlpc/iis2dlpc_reg.c ****   * @brief  Enable HP filter reference mode.[get]
1296:Drivers/BSP/Components/iis2dlpc/iis2dlpc_reg.c ****   *
1297:Drivers/BSP/Components/iis2dlpc/iis2dlpc_reg.c ****   * @param  ctx      read / write interface definitions
1298:Drivers/BSP/Components/iis2dlpc/iis2dlpc_reg.c ****   * @param  val      change the values of hp_ref_mode in reg CTRL_REG7
1299:Drivers/BSP/Components/iis2dlpc/iis2dlpc_reg.c ****   * @retval          interface status (MANDATORY: return 0 -> no Error)
1300:Drivers/BSP/Components/iis2dlpc/iis2dlpc_reg.c ****   *
1301:Drivers/BSP/Components/iis2dlpc/iis2dlpc_reg.c ****   */
1302:Drivers/BSP/Components/iis2dlpc/iis2dlpc_reg.c **** int32_t iis2dlpc_reference_mode_get(const stmdev_ctx_t *ctx, uint8_t *val)
1303:Drivers/BSP/Components/iis2dlpc/iis2dlpc_reg.c **** {
 3137              		.loc 1 1303 1 is_stmt 1 view -0
 3138              		.cfi_startproc
 3139              		@ args = 0, pretend = 0, frame = 8
 3140              		@ frame_needed = 0, uses_anonymous_args = 0
 3141              		.loc 1 1303 1 is_stmt 0 view .LVU829
 3142 0000 10B5     		push	{r4, lr}
 3143              		.cfi_def_cfa_offset 8
 3144              		.cfi_offset 4, -8
ARM GAS  C:\Temp\ccGZlXNO.s 			page 83


 3145              		.cfi_offset 14, -4
 3146 0002 82B0     		sub	sp, sp, #8
 3147              		.cfi_def_cfa_offset 16
 3148 0004 0C46     		mov	r4, r1
1304:Drivers/BSP/Components/iis2dlpc/iis2dlpc_reg.c ****   iis2dlpc_ctrl7_t reg;
 3149              		.loc 1 1304 3 is_stmt 1 view .LVU830
1305:Drivers/BSP/Components/iis2dlpc/iis2dlpc_reg.c ****   int32_t ret;
 3150              		.loc 1 1305 3 view .LVU831
1306:Drivers/BSP/Components/iis2dlpc/iis2dlpc_reg.c **** 
1307:Drivers/BSP/Components/iis2dlpc/iis2dlpc_reg.c ****   ret = iis2dlpc_read_reg(ctx, IIS2DLPC_CTRL7, (uint8_t *) &reg, 1);
 3151              		.loc 1 1307 3 view .LVU832
 3152              		.loc 1 1307 9 is_stmt 0 view .LVU833
 3153 0006 0123     		movs	r3, #1
 3154 0008 01AA     		add	r2, sp, #4
 3155 000a 3F21     		movs	r1, #63
 3156              	.LVL218:
 3157              		.loc 1 1307 9 view .LVU834
 3158 000c FFF7FEFF 		bl	iis2dlpc_read_reg
 3159              	.LVL219:
1308:Drivers/BSP/Components/iis2dlpc/iis2dlpc_reg.c ****   *val = reg.hp_ref_mode;
 3160              		.loc 1 1308 3 is_stmt 1 view .LVU835
 3161              		.loc 1 1308 13 is_stmt 0 view .LVU836
 3162 0010 9DF80430 		ldrb	r3, [sp, #4]	@ zero_extendqisi2
 3163 0014 C3F34003 		ubfx	r3, r3, #1, #1
 3164              		.loc 1 1308 8 view .LVU837
 3165 0018 2370     		strb	r3, [r4]
1309:Drivers/BSP/Components/iis2dlpc/iis2dlpc_reg.c **** 
1310:Drivers/BSP/Components/iis2dlpc/iis2dlpc_reg.c ****   return ret;
 3166              		.loc 1 1310 3 is_stmt 1 view .LVU838
1311:Drivers/BSP/Components/iis2dlpc/iis2dlpc_reg.c **** }
 3167              		.loc 1 1311 1 is_stmt 0 view .LVU839
 3168 001a 02B0     		add	sp, sp, #8
 3169              		.cfi_def_cfa_offset 8
 3170              		@ sp needed
 3171 001c 10BD     		pop	{r4, pc}
 3172              		.loc 1 1311 1 view .LVU840
 3173              		.cfi_endproc
 3174              	.LFE48:
 3176              		.section	.text.iis2dlpc_spi_mode_set,"ax",%progbits
 3177              		.align	1
 3178              		.global	iis2dlpc_spi_mode_set
 3179              		.syntax unified
 3180              		.thumb
 3181              		.thumb_func
 3183              	iis2dlpc_spi_mode_set:
 3184              	.LVL220:
 3185              	.LFB49:
1312:Drivers/BSP/Components/iis2dlpc/iis2dlpc_reg.c **** 
1313:Drivers/BSP/Components/iis2dlpc/iis2dlpc_reg.c **** /**
1314:Drivers/BSP/Components/iis2dlpc/iis2dlpc_reg.c ****   * @}
1315:Drivers/BSP/Components/iis2dlpc/iis2dlpc_reg.c ****   *
1316:Drivers/BSP/Components/iis2dlpc/iis2dlpc_reg.c ****   */
1317:Drivers/BSP/Components/iis2dlpc/iis2dlpc_reg.c **** 
1318:Drivers/BSP/Components/iis2dlpc/iis2dlpc_reg.c **** /**
1319:Drivers/BSP/Components/iis2dlpc/iis2dlpc_reg.c ****   * @defgroup   IIS2DLPC_Serial_Interface
1320:Drivers/BSP/Components/iis2dlpc/iis2dlpc_reg.c ****   * @brief      This section groups all the functions concerning main serial
1321:Drivers/BSP/Components/iis2dlpc/iis2dlpc_reg.c ****   *             interface management (not auxiliary)
ARM GAS  C:\Temp\ccGZlXNO.s 			page 84


1322:Drivers/BSP/Components/iis2dlpc/iis2dlpc_reg.c ****   * @{
1323:Drivers/BSP/Components/iis2dlpc/iis2dlpc_reg.c ****   *
1324:Drivers/BSP/Components/iis2dlpc/iis2dlpc_reg.c ****   */
1325:Drivers/BSP/Components/iis2dlpc/iis2dlpc_reg.c **** 
1326:Drivers/BSP/Components/iis2dlpc/iis2dlpc_reg.c **** /**
1327:Drivers/BSP/Components/iis2dlpc/iis2dlpc_reg.c ****   * @brief  SPI Serial Interface Mode selection.[set]
1328:Drivers/BSP/Components/iis2dlpc/iis2dlpc_reg.c ****   *
1329:Drivers/BSP/Components/iis2dlpc/iis2dlpc_reg.c ****   * @param  ctx      read / write interface definitions
1330:Drivers/BSP/Components/iis2dlpc/iis2dlpc_reg.c ****   * @param  val      change the values of sim in reg CTRL2
1331:Drivers/BSP/Components/iis2dlpc/iis2dlpc_reg.c ****   * @retval          interface status (MANDATORY: return 0 -> no Error)
1332:Drivers/BSP/Components/iis2dlpc/iis2dlpc_reg.c ****   *
1333:Drivers/BSP/Components/iis2dlpc/iis2dlpc_reg.c ****   */
1334:Drivers/BSP/Components/iis2dlpc/iis2dlpc_reg.c **** int32_t iis2dlpc_spi_mode_set(const stmdev_ctx_t *ctx, iis2dlpc_sim_t val)
1335:Drivers/BSP/Components/iis2dlpc/iis2dlpc_reg.c **** {
 3186              		.loc 1 1335 1 is_stmt 1 view -0
 3187              		.cfi_startproc
 3188              		@ args = 0, pretend = 0, frame = 8
 3189              		@ frame_needed = 0, uses_anonymous_args = 0
 3190              		.loc 1 1335 1 is_stmt 0 view .LVU842
 3191 0000 30B5     		push	{r4, r5, lr}
 3192              		.cfi_def_cfa_offset 12
 3193              		.cfi_offset 4, -12
 3194              		.cfi_offset 5, -8
 3195              		.cfi_offset 14, -4
 3196 0002 83B0     		sub	sp, sp, #12
 3197              		.cfi_def_cfa_offset 24
 3198 0004 0446     		mov	r4, r0
 3199 0006 0D46     		mov	r5, r1
1336:Drivers/BSP/Components/iis2dlpc/iis2dlpc_reg.c ****   iis2dlpc_ctrl2_t reg;
 3200              		.loc 1 1336 3 is_stmt 1 view .LVU843
1337:Drivers/BSP/Components/iis2dlpc/iis2dlpc_reg.c ****   int32_t ret;
 3201              		.loc 1 1337 3 view .LVU844
1338:Drivers/BSP/Components/iis2dlpc/iis2dlpc_reg.c **** 
1339:Drivers/BSP/Components/iis2dlpc/iis2dlpc_reg.c ****   ret = iis2dlpc_read_reg(ctx, IIS2DLPC_CTRL2, (uint8_t *) &reg, 1);
 3202              		.loc 1 1339 3 view .LVU845
 3203              		.loc 1 1339 9 is_stmt 0 view .LVU846
 3204 0008 0123     		movs	r3, #1
 3205 000a 01AA     		add	r2, sp, #4
 3206 000c 2121     		movs	r1, #33
 3207              	.LVL221:
 3208              		.loc 1 1339 9 view .LVU847
 3209 000e FFF7FEFF 		bl	iis2dlpc_read_reg
 3210              	.LVL222:
1340:Drivers/BSP/Components/iis2dlpc/iis2dlpc_reg.c **** 
1341:Drivers/BSP/Components/iis2dlpc/iis2dlpc_reg.c ****   if (ret == 0)
 3211              		.loc 1 1341 3 is_stmt 1 view .LVU848
 3212              		.loc 1 1341 6 is_stmt 0 view .LVU849
 3213 0012 08B1     		cbz	r0, .L226
 3214              	.LVL223:
 3215              	.L223:
1342:Drivers/BSP/Components/iis2dlpc/iis2dlpc_reg.c ****   {
1343:Drivers/BSP/Components/iis2dlpc/iis2dlpc_reg.c ****     reg.sim = (uint8_t) val;
1344:Drivers/BSP/Components/iis2dlpc/iis2dlpc_reg.c ****     ret = iis2dlpc_write_reg(ctx, IIS2DLPC_CTRL2, (uint8_t *) &reg, 1);
1345:Drivers/BSP/Components/iis2dlpc/iis2dlpc_reg.c ****   }
1346:Drivers/BSP/Components/iis2dlpc/iis2dlpc_reg.c **** 
1347:Drivers/BSP/Components/iis2dlpc/iis2dlpc_reg.c ****   return ret;
1348:Drivers/BSP/Components/iis2dlpc/iis2dlpc_reg.c **** }
ARM GAS  C:\Temp\ccGZlXNO.s 			page 85


 3216              		.loc 1 1348 1 view .LVU850
 3217 0014 03B0     		add	sp, sp, #12
 3218              		.cfi_remember_state
 3219              		.cfi_def_cfa_offset 12
 3220              		@ sp needed
 3221 0016 30BD     		pop	{r4, r5, pc}
 3222              	.LVL224:
 3223              	.L226:
 3224              		.cfi_restore_state
1343:Drivers/BSP/Components/iis2dlpc/iis2dlpc_reg.c ****     ret = iis2dlpc_write_reg(ctx, IIS2DLPC_CTRL2, (uint8_t *) &reg, 1);
 3225              		.loc 1 1343 5 is_stmt 1 view .LVU851
1343:Drivers/BSP/Components/iis2dlpc/iis2dlpc_reg.c ****     ret = iis2dlpc_write_reg(ctx, IIS2DLPC_CTRL2, (uint8_t *) &reg, 1);
 3226              		.loc 1 1343 13 is_stmt 0 view .LVU852
 3227 0018 9DF80430 		ldrb	r3, [sp, #4]	@ zero_extendqisi2
 3228 001c 65F30003 		bfi	r3, r5, #0, #1
 3229 0020 8DF80430 		strb	r3, [sp, #4]
1344:Drivers/BSP/Components/iis2dlpc/iis2dlpc_reg.c ****   }
 3230              		.loc 1 1344 5 is_stmt 1 view .LVU853
1344:Drivers/BSP/Components/iis2dlpc/iis2dlpc_reg.c ****   }
 3231              		.loc 1 1344 11 is_stmt 0 view .LVU854
 3232 0024 0123     		movs	r3, #1
 3233              	.LVL225:
1344:Drivers/BSP/Components/iis2dlpc/iis2dlpc_reg.c ****   }
 3234              		.loc 1 1344 11 view .LVU855
 3235 0026 01AA     		add	r2, sp, #4
 3236 0028 2121     		movs	r1, #33
 3237 002a 2046     		mov	r0, r4
 3238 002c FFF7FEFF 		bl	iis2dlpc_write_reg
 3239              	.LVL226:
1347:Drivers/BSP/Components/iis2dlpc/iis2dlpc_reg.c **** }
 3240              		.loc 1 1347 3 is_stmt 1 view .LVU856
1347:Drivers/BSP/Components/iis2dlpc/iis2dlpc_reg.c **** }
 3241              		.loc 1 1347 10 is_stmt 0 view .LVU857
 3242 0030 F0E7     		b	.L223
 3243              		.cfi_endproc
 3244              	.LFE49:
 3246              		.section	.text.iis2dlpc_spi_mode_get,"ax",%progbits
 3247              		.align	1
 3248              		.global	iis2dlpc_spi_mode_get
 3249              		.syntax unified
 3250              		.thumb
 3251              		.thumb_func
 3253              	iis2dlpc_spi_mode_get:
 3254              	.LVL227:
 3255              	.LFB50:
1349:Drivers/BSP/Components/iis2dlpc/iis2dlpc_reg.c **** 
1350:Drivers/BSP/Components/iis2dlpc/iis2dlpc_reg.c **** /**
1351:Drivers/BSP/Components/iis2dlpc/iis2dlpc_reg.c ****   * @brief  SPI Serial Interface Mode selection.[get]
1352:Drivers/BSP/Components/iis2dlpc/iis2dlpc_reg.c ****   *
1353:Drivers/BSP/Components/iis2dlpc/iis2dlpc_reg.c ****   * @param  ctx      read / write interface definitions
1354:Drivers/BSP/Components/iis2dlpc/iis2dlpc_reg.c ****   * @param  val      Get the values of sim in reg CTRL2
1355:Drivers/BSP/Components/iis2dlpc/iis2dlpc_reg.c ****   * @retval          interface status (MANDATORY: return 0 -> no Error)
1356:Drivers/BSP/Components/iis2dlpc/iis2dlpc_reg.c ****   *
1357:Drivers/BSP/Components/iis2dlpc/iis2dlpc_reg.c ****   */
1358:Drivers/BSP/Components/iis2dlpc/iis2dlpc_reg.c **** int32_t iis2dlpc_spi_mode_get(const stmdev_ctx_t *ctx, iis2dlpc_sim_t *val)
1359:Drivers/BSP/Components/iis2dlpc/iis2dlpc_reg.c **** {
 3256              		.loc 1 1359 1 is_stmt 1 view -0
ARM GAS  C:\Temp\ccGZlXNO.s 			page 86


 3257              		.cfi_startproc
 3258              		@ args = 0, pretend = 0, frame = 8
 3259              		@ frame_needed = 0, uses_anonymous_args = 0
 3260              		.loc 1 1359 1 is_stmt 0 view .LVU859
 3261 0000 10B5     		push	{r4, lr}
 3262              		.cfi_def_cfa_offset 8
 3263              		.cfi_offset 4, -8
 3264              		.cfi_offset 14, -4
 3265 0002 82B0     		sub	sp, sp, #8
 3266              		.cfi_def_cfa_offset 16
 3267 0004 0C46     		mov	r4, r1
1360:Drivers/BSP/Components/iis2dlpc/iis2dlpc_reg.c ****   iis2dlpc_ctrl2_t reg;
 3268              		.loc 1 1360 3 is_stmt 1 view .LVU860
1361:Drivers/BSP/Components/iis2dlpc/iis2dlpc_reg.c ****   int32_t ret;
 3269              		.loc 1 1361 3 view .LVU861
1362:Drivers/BSP/Components/iis2dlpc/iis2dlpc_reg.c **** 
1363:Drivers/BSP/Components/iis2dlpc/iis2dlpc_reg.c ****   ret = iis2dlpc_read_reg(ctx, IIS2DLPC_CTRL2, (uint8_t *) &reg, 1);
 3270              		.loc 1 1363 3 view .LVU862
 3271              		.loc 1 1363 9 is_stmt 0 view .LVU863
 3272 0006 0123     		movs	r3, #1
 3273 0008 01AA     		add	r2, sp, #4
 3274 000a 2121     		movs	r1, #33
 3275              	.LVL228:
 3276              		.loc 1 1363 9 view .LVU864
 3277 000c FFF7FEFF 		bl	iis2dlpc_read_reg
 3278              	.LVL229:
1364:Drivers/BSP/Components/iis2dlpc/iis2dlpc_reg.c **** 
1365:Drivers/BSP/Components/iis2dlpc/iis2dlpc_reg.c ****   switch (reg.sim)
 3279              		.loc 1 1365 3 is_stmt 1 view .LVU865
 3280              		.loc 1 1365 14 is_stmt 0 view .LVU866
 3281 0010 9DF80430 		ldrb	r3, [sp, #4]	@ zero_extendqisi2
 3282              		.loc 1 1365 3 view .LVU867
 3283 0014 13F00103 		ands	r3, r3, #1
 3284 0018 03D0     		beq	.L228
 3285 001a 33B9     		cbnz	r3, .L229
1366:Drivers/BSP/Components/iis2dlpc/iis2dlpc_reg.c ****   {
1367:Drivers/BSP/Components/iis2dlpc/iis2dlpc_reg.c ****     case IIS2DLPC_SPI_4_WIRE:
1368:Drivers/BSP/Components/iis2dlpc/iis2dlpc_reg.c ****       *val = IIS2DLPC_SPI_4_WIRE;
1369:Drivers/BSP/Components/iis2dlpc/iis2dlpc_reg.c ****       break;
1370:Drivers/BSP/Components/iis2dlpc/iis2dlpc_reg.c **** 
1371:Drivers/BSP/Components/iis2dlpc/iis2dlpc_reg.c ****     case IIS2DLPC_SPI_3_WIRE:
1372:Drivers/BSP/Components/iis2dlpc/iis2dlpc_reg.c ****       *val = IIS2DLPC_SPI_3_WIRE;
1373:Drivers/BSP/Components/iis2dlpc/iis2dlpc_reg.c ****       break;
1374:Drivers/BSP/Components/iis2dlpc/iis2dlpc_reg.c **** 
1375:Drivers/BSP/Components/iis2dlpc/iis2dlpc_reg.c ****     default:
1376:Drivers/BSP/Components/iis2dlpc/iis2dlpc_reg.c ****       *val = IIS2DLPC_SPI_4_WIRE;
 3286              		.loc 1 1376 7 is_stmt 1 view .LVU868
 3287              		.loc 1 1376 12 is_stmt 0 view .LVU869
 3288 001c 0023     		movs	r3, #0
 3289 001e 2370     		strb	r3, [r4]
1377:Drivers/BSP/Components/iis2dlpc/iis2dlpc_reg.c ****       break;
 3290              		.loc 1 1377 7 is_stmt 1 view .LVU870
1378:Drivers/BSP/Components/iis2dlpc/iis2dlpc_reg.c ****   }
1379:Drivers/BSP/Components/iis2dlpc/iis2dlpc_reg.c **** 
1380:Drivers/BSP/Components/iis2dlpc/iis2dlpc_reg.c ****   return ret;
 3291              		.loc 1 1380 3 view .LVU871
 3292              		.loc 1 1380 10 is_stmt 0 view .LVU872
ARM GAS  C:\Temp\ccGZlXNO.s 			page 87


 3293 0020 01E0     		b	.L227
 3294              	.L228:
1368:Drivers/BSP/Components/iis2dlpc/iis2dlpc_reg.c ****       break;
 3295              		.loc 1 1368 7 is_stmt 1 view .LVU873
1368:Drivers/BSP/Components/iis2dlpc/iis2dlpc_reg.c ****       break;
 3296              		.loc 1 1368 12 is_stmt 0 view .LVU874
 3297 0022 0023     		movs	r3, #0
 3298 0024 2370     		strb	r3, [r4]
1369:Drivers/BSP/Components/iis2dlpc/iis2dlpc_reg.c **** 
 3299              		.loc 1 1369 7 is_stmt 1 view .LVU875
 3300              	.L227:
1381:Drivers/BSP/Components/iis2dlpc/iis2dlpc_reg.c **** }
 3301              		.loc 1 1381 1 is_stmt 0 view .LVU876
 3302 0026 02B0     		add	sp, sp, #8
 3303              		.cfi_remember_state
 3304              		.cfi_def_cfa_offset 8
 3305              		@ sp needed
 3306 0028 10BD     		pop	{r4, pc}
 3307              	.LVL230:
 3308              	.L229:
 3309              		.cfi_restore_state
1372:Drivers/BSP/Components/iis2dlpc/iis2dlpc_reg.c ****       break;
 3310              		.loc 1 1372 7 is_stmt 1 view .LVU877
1372:Drivers/BSP/Components/iis2dlpc/iis2dlpc_reg.c ****       break;
 3311              		.loc 1 1372 12 is_stmt 0 view .LVU878
 3312 002a 0123     		movs	r3, #1
 3313 002c 2370     		strb	r3, [r4]
1373:Drivers/BSP/Components/iis2dlpc/iis2dlpc_reg.c **** 
 3314              		.loc 1 1373 7 is_stmt 1 view .LVU879
 3315 002e FAE7     		b	.L227
 3316              		.cfi_endproc
 3317              	.LFE50:
 3319              		.section	.text.iis2dlpc_i2c_interface_set,"ax",%progbits
 3320              		.align	1
 3321              		.global	iis2dlpc_i2c_interface_set
 3322              		.syntax unified
 3323              		.thumb
 3324              		.thumb_func
 3326              	iis2dlpc_i2c_interface_set:
 3327              	.LVL231:
 3328              	.LFB51:
1382:Drivers/BSP/Components/iis2dlpc/iis2dlpc_reg.c **** 
1383:Drivers/BSP/Components/iis2dlpc/iis2dlpc_reg.c **** /**
1384:Drivers/BSP/Components/iis2dlpc/iis2dlpc_reg.c ****   * @brief  Disable / Enable I2C interface.[set]
1385:Drivers/BSP/Components/iis2dlpc/iis2dlpc_reg.c ****   *
1386:Drivers/BSP/Components/iis2dlpc/iis2dlpc_reg.c ****   * @param  ctx      read / write interface definitions
1387:Drivers/BSP/Components/iis2dlpc/iis2dlpc_reg.c ****   * @param  val      change the values of i2c_disable in
1388:Drivers/BSP/Components/iis2dlpc/iis2dlpc_reg.c ****   *                                 reg CTRL2
1389:Drivers/BSP/Components/iis2dlpc/iis2dlpc_reg.c ****   * @retval          interface status (MANDATORY: return 0 -> no Error)
1390:Drivers/BSP/Components/iis2dlpc/iis2dlpc_reg.c ****   *
1391:Drivers/BSP/Components/iis2dlpc/iis2dlpc_reg.c ****   */
1392:Drivers/BSP/Components/iis2dlpc/iis2dlpc_reg.c **** int32_t iis2dlpc_i2c_interface_set(const stmdev_ctx_t *ctx,
1393:Drivers/BSP/Components/iis2dlpc/iis2dlpc_reg.c ****                                    iis2dlpc_i2c_disable_t val)
1394:Drivers/BSP/Components/iis2dlpc/iis2dlpc_reg.c **** {
 3329              		.loc 1 1394 1 view -0
 3330              		.cfi_startproc
 3331              		@ args = 0, pretend = 0, frame = 8
ARM GAS  C:\Temp\ccGZlXNO.s 			page 88


 3332              		@ frame_needed = 0, uses_anonymous_args = 0
 3333              		.loc 1 1394 1 is_stmt 0 view .LVU881
 3334 0000 30B5     		push	{r4, r5, lr}
 3335              		.cfi_def_cfa_offset 12
 3336              		.cfi_offset 4, -12
 3337              		.cfi_offset 5, -8
 3338              		.cfi_offset 14, -4
 3339 0002 83B0     		sub	sp, sp, #12
 3340              		.cfi_def_cfa_offset 24
 3341 0004 0446     		mov	r4, r0
 3342 0006 0D46     		mov	r5, r1
1395:Drivers/BSP/Components/iis2dlpc/iis2dlpc_reg.c ****   iis2dlpc_ctrl2_t reg;
 3343              		.loc 1 1395 3 is_stmt 1 view .LVU882
1396:Drivers/BSP/Components/iis2dlpc/iis2dlpc_reg.c ****   int32_t ret;
 3344              		.loc 1 1396 3 view .LVU883
1397:Drivers/BSP/Components/iis2dlpc/iis2dlpc_reg.c **** 
1398:Drivers/BSP/Components/iis2dlpc/iis2dlpc_reg.c ****   ret = iis2dlpc_read_reg(ctx, IIS2DLPC_CTRL2, (uint8_t *) &reg, 1);
 3345              		.loc 1 1398 3 view .LVU884
 3346              		.loc 1 1398 9 is_stmt 0 view .LVU885
 3347 0008 0123     		movs	r3, #1
 3348 000a 01AA     		add	r2, sp, #4
 3349 000c 2121     		movs	r1, #33
 3350              	.LVL232:
 3351              		.loc 1 1398 9 view .LVU886
 3352 000e FFF7FEFF 		bl	iis2dlpc_read_reg
 3353              	.LVL233:
1399:Drivers/BSP/Components/iis2dlpc/iis2dlpc_reg.c **** 
1400:Drivers/BSP/Components/iis2dlpc/iis2dlpc_reg.c ****   if (ret == 0)
 3354              		.loc 1 1400 3 is_stmt 1 view .LVU887
 3355              		.loc 1 1400 6 is_stmt 0 view .LVU888
 3356 0012 08B1     		cbz	r0, .L237
 3357              	.LVL234:
 3358              	.L234:
1401:Drivers/BSP/Components/iis2dlpc/iis2dlpc_reg.c ****   {
1402:Drivers/BSP/Components/iis2dlpc/iis2dlpc_reg.c ****     reg.i2c_disable = (uint8_t) val;
1403:Drivers/BSP/Components/iis2dlpc/iis2dlpc_reg.c ****     ret = iis2dlpc_write_reg(ctx, IIS2DLPC_CTRL2, (uint8_t *) &reg, 1);
1404:Drivers/BSP/Components/iis2dlpc/iis2dlpc_reg.c ****   }
1405:Drivers/BSP/Components/iis2dlpc/iis2dlpc_reg.c **** 
1406:Drivers/BSP/Components/iis2dlpc/iis2dlpc_reg.c ****   return ret;
1407:Drivers/BSP/Components/iis2dlpc/iis2dlpc_reg.c **** }
 3359              		.loc 1 1407 1 view .LVU889
 3360 0014 03B0     		add	sp, sp, #12
 3361              		.cfi_remember_state
 3362              		.cfi_def_cfa_offset 12
 3363              		@ sp needed
 3364 0016 30BD     		pop	{r4, r5, pc}
 3365              	.LVL235:
 3366              	.L237:
 3367              		.cfi_restore_state
1402:Drivers/BSP/Components/iis2dlpc/iis2dlpc_reg.c ****     ret = iis2dlpc_write_reg(ctx, IIS2DLPC_CTRL2, (uint8_t *) &reg, 1);
 3368              		.loc 1 1402 5 is_stmt 1 view .LVU890
1402:Drivers/BSP/Components/iis2dlpc/iis2dlpc_reg.c ****     ret = iis2dlpc_write_reg(ctx, IIS2DLPC_CTRL2, (uint8_t *) &reg, 1);
 3369              		.loc 1 1402 21 is_stmt 0 view .LVU891
 3370 0018 9DF80430 		ldrb	r3, [sp, #4]	@ zero_extendqisi2
 3371 001c 65F34103 		bfi	r3, r5, #1, #1
 3372 0020 8DF80430 		strb	r3, [sp, #4]
1403:Drivers/BSP/Components/iis2dlpc/iis2dlpc_reg.c ****   }
ARM GAS  C:\Temp\ccGZlXNO.s 			page 89


 3373              		.loc 1 1403 5 is_stmt 1 view .LVU892
1403:Drivers/BSP/Components/iis2dlpc/iis2dlpc_reg.c ****   }
 3374              		.loc 1 1403 11 is_stmt 0 view .LVU893
 3375 0024 0123     		movs	r3, #1
 3376              	.LVL236:
1403:Drivers/BSP/Components/iis2dlpc/iis2dlpc_reg.c ****   }
 3377              		.loc 1 1403 11 view .LVU894
 3378 0026 01AA     		add	r2, sp, #4
 3379 0028 2121     		movs	r1, #33
 3380 002a 2046     		mov	r0, r4
 3381 002c FFF7FEFF 		bl	iis2dlpc_write_reg
 3382              	.LVL237:
1406:Drivers/BSP/Components/iis2dlpc/iis2dlpc_reg.c **** }
 3383              		.loc 1 1406 3 is_stmt 1 view .LVU895
1406:Drivers/BSP/Components/iis2dlpc/iis2dlpc_reg.c **** }
 3384              		.loc 1 1406 10 is_stmt 0 view .LVU896
 3385 0030 F0E7     		b	.L234
 3386              		.cfi_endproc
 3387              	.LFE51:
 3389              		.section	.text.iis2dlpc_i2c_interface_get,"ax",%progbits
 3390              		.align	1
 3391              		.global	iis2dlpc_i2c_interface_get
 3392              		.syntax unified
 3393              		.thumb
 3394              		.thumb_func
 3396              	iis2dlpc_i2c_interface_get:
 3397              	.LVL238:
 3398              	.LFB52:
1408:Drivers/BSP/Components/iis2dlpc/iis2dlpc_reg.c **** 
1409:Drivers/BSP/Components/iis2dlpc/iis2dlpc_reg.c **** /**
1410:Drivers/BSP/Components/iis2dlpc/iis2dlpc_reg.c ****   * @brief  Disable / Enable I2C interface.[get]
1411:Drivers/BSP/Components/iis2dlpc/iis2dlpc_reg.c ****   *
1412:Drivers/BSP/Components/iis2dlpc/iis2dlpc_reg.c ****   * @param  ctx      read / write interface definitions
1413:Drivers/BSP/Components/iis2dlpc/iis2dlpc_reg.c ****   * @param  val      Get the values of i2c_disable in reg CTRL2
1414:Drivers/BSP/Components/iis2dlpc/iis2dlpc_reg.c ****   * @retval          interface status (MANDATORY: return 0 -> no Error)
1415:Drivers/BSP/Components/iis2dlpc/iis2dlpc_reg.c ****   *
1416:Drivers/BSP/Components/iis2dlpc/iis2dlpc_reg.c ****   */
1417:Drivers/BSP/Components/iis2dlpc/iis2dlpc_reg.c **** int32_t iis2dlpc_i2c_interface_get(const stmdev_ctx_t *ctx,
1418:Drivers/BSP/Components/iis2dlpc/iis2dlpc_reg.c ****                                    iis2dlpc_i2c_disable_t *val)
1419:Drivers/BSP/Components/iis2dlpc/iis2dlpc_reg.c **** {
 3399              		.loc 1 1419 1 is_stmt 1 view -0
 3400              		.cfi_startproc
 3401              		@ args = 0, pretend = 0, frame = 8
 3402              		@ frame_needed = 0, uses_anonymous_args = 0
 3403              		.loc 1 1419 1 is_stmt 0 view .LVU898
 3404 0000 10B5     		push	{r4, lr}
 3405              		.cfi_def_cfa_offset 8
 3406              		.cfi_offset 4, -8
 3407              		.cfi_offset 14, -4
 3408 0002 82B0     		sub	sp, sp, #8
 3409              		.cfi_def_cfa_offset 16
 3410 0004 0C46     		mov	r4, r1
1420:Drivers/BSP/Components/iis2dlpc/iis2dlpc_reg.c ****   iis2dlpc_ctrl2_t reg;
 3411              		.loc 1 1420 3 is_stmt 1 view .LVU899
1421:Drivers/BSP/Components/iis2dlpc/iis2dlpc_reg.c ****   int32_t ret;
 3412              		.loc 1 1421 3 view .LVU900
1422:Drivers/BSP/Components/iis2dlpc/iis2dlpc_reg.c **** 
ARM GAS  C:\Temp\ccGZlXNO.s 			page 90


1423:Drivers/BSP/Components/iis2dlpc/iis2dlpc_reg.c ****   ret = iis2dlpc_read_reg(ctx, IIS2DLPC_CTRL2, (uint8_t *) &reg, 1);
 3413              		.loc 1 1423 3 view .LVU901
 3414              		.loc 1 1423 9 is_stmt 0 view .LVU902
 3415 0006 0123     		movs	r3, #1
 3416 0008 01AA     		add	r2, sp, #4
 3417 000a 2121     		movs	r1, #33
 3418              	.LVL239:
 3419              		.loc 1 1423 9 view .LVU903
 3420 000c FFF7FEFF 		bl	iis2dlpc_read_reg
 3421              	.LVL240:
1424:Drivers/BSP/Components/iis2dlpc/iis2dlpc_reg.c **** 
1425:Drivers/BSP/Components/iis2dlpc/iis2dlpc_reg.c ****   switch (reg.i2c_disable)
 3422              		.loc 1 1425 3 is_stmt 1 view .LVU904
 3423              		.loc 1 1425 14 is_stmt 0 view .LVU905
 3424 0010 9DF80430 		ldrb	r3, [sp, #4]	@ zero_extendqisi2
 3425 0014 C3F34002 		ubfx	r2, r3, #1, #1
 3426              		.loc 1 1425 3 view .LVU906
 3427 0018 13F0020F 		tst	r3, #2
 3428 001c 03D0     		beq	.L239
 3429 001e 32B9     		cbnz	r2, .L240
1426:Drivers/BSP/Components/iis2dlpc/iis2dlpc_reg.c ****   {
1427:Drivers/BSP/Components/iis2dlpc/iis2dlpc_reg.c ****     case IIS2DLPC_I2C_ENABLE:
1428:Drivers/BSP/Components/iis2dlpc/iis2dlpc_reg.c ****       *val = IIS2DLPC_I2C_ENABLE;
1429:Drivers/BSP/Components/iis2dlpc/iis2dlpc_reg.c ****       break;
1430:Drivers/BSP/Components/iis2dlpc/iis2dlpc_reg.c **** 
1431:Drivers/BSP/Components/iis2dlpc/iis2dlpc_reg.c ****     case IIS2DLPC_I2C_DISABLE:
1432:Drivers/BSP/Components/iis2dlpc/iis2dlpc_reg.c ****       *val = IIS2DLPC_I2C_DISABLE;
1433:Drivers/BSP/Components/iis2dlpc/iis2dlpc_reg.c ****       break;
1434:Drivers/BSP/Components/iis2dlpc/iis2dlpc_reg.c **** 
1435:Drivers/BSP/Components/iis2dlpc/iis2dlpc_reg.c ****     default:
1436:Drivers/BSP/Components/iis2dlpc/iis2dlpc_reg.c ****       *val = IIS2DLPC_I2C_ENABLE;
 3430              		.loc 1 1436 7 is_stmt 1 view .LVU907
 3431              		.loc 1 1436 12 is_stmt 0 view .LVU908
 3432 0020 0023     		movs	r3, #0
 3433 0022 2370     		strb	r3, [r4]
1437:Drivers/BSP/Components/iis2dlpc/iis2dlpc_reg.c ****       break;
 3434              		.loc 1 1437 7 is_stmt 1 view .LVU909
1438:Drivers/BSP/Components/iis2dlpc/iis2dlpc_reg.c ****   }
1439:Drivers/BSP/Components/iis2dlpc/iis2dlpc_reg.c **** 
1440:Drivers/BSP/Components/iis2dlpc/iis2dlpc_reg.c ****   return ret;
 3435              		.loc 1 1440 3 view .LVU910
 3436              		.loc 1 1440 10 is_stmt 0 view .LVU911
 3437 0024 01E0     		b	.L238
 3438              	.L239:
1428:Drivers/BSP/Components/iis2dlpc/iis2dlpc_reg.c ****       break;
 3439              		.loc 1 1428 7 is_stmt 1 view .LVU912
1428:Drivers/BSP/Components/iis2dlpc/iis2dlpc_reg.c ****       break;
 3440              		.loc 1 1428 12 is_stmt 0 view .LVU913
 3441 0026 0023     		movs	r3, #0
 3442 0028 2370     		strb	r3, [r4]
1429:Drivers/BSP/Components/iis2dlpc/iis2dlpc_reg.c **** 
 3443              		.loc 1 1429 7 is_stmt 1 view .LVU914
 3444              	.L238:
1441:Drivers/BSP/Components/iis2dlpc/iis2dlpc_reg.c **** }
 3445              		.loc 1 1441 1 is_stmt 0 view .LVU915
 3446 002a 02B0     		add	sp, sp, #8
 3447              		.cfi_remember_state
ARM GAS  C:\Temp\ccGZlXNO.s 			page 91


 3448              		.cfi_def_cfa_offset 8
 3449              		@ sp needed
 3450 002c 10BD     		pop	{r4, pc}
 3451              	.LVL241:
 3452              	.L240:
 3453              		.cfi_restore_state
1432:Drivers/BSP/Components/iis2dlpc/iis2dlpc_reg.c ****       break;
 3454              		.loc 1 1432 7 is_stmt 1 view .LVU916
1432:Drivers/BSP/Components/iis2dlpc/iis2dlpc_reg.c ****       break;
 3455              		.loc 1 1432 12 is_stmt 0 view .LVU917
 3456 002e 0123     		movs	r3, #1
 3457 0030 2370     		strb	r3, [r4]
1433:Drivers/BSP/Components/iis2dlpc/iis2dlpc_reg.c **** 
 3458              		.loc 1 1433 7 is_stmt 1 view .LVU918
 3459 0032 FAE7     		b	.L238
 3460              		.cfi_endproc
 3461              	.LFE52:
 3463              		.section	.text.iis2dlpc_cs_mode_set,"ax",%progbits
 3464              		.align	1
 3465              		.global	iis2dlpc_cs_mode_set
 3466              		.syntax unified
 3467              		.thumb
 3468              		.thumb_func
 3470              	iis2dlpc_cs_mode_set:
 3471              	.LVL242:
 3472              	.LFB53:
1442:Drivers/BSP/Components/iis2dlpc/iis2dlpc_reg.c **** 
1443:Drivers/BSP/Components/iis2dlpc/iis2dlpc_reg.c **** /**
1444:Drivers/BSP/Components/iis2dlpc/iis2dlpc_reg.c ****   * @brief  Disconnect CS pull-up.[set]
1445:Drivers/BSP/Components/iis2dlpc/iis2dlpc_reg.c ****   *
1446:Drivers/BSP/Components/iis2dlpc/iis2dlpc_reg.c ****   * @param  ctx      read / write interface definitions
1447:Drivers/BSP/Components/iis2dlpc/iis2dlpc_reg.c ****   * @param  val      change the values of cs_pu_disc in reg CTRL2
1448:Drivers/BSP/Components/iis2dlpc/iis2dlpc_reg.c ****   * @retval          interface status (MANDATORY: return 0 -> no Error)
1449:Drivers/BSP/Components/iis2dlpc/iis2dlpc_reg.c ****   *
1450:Drivers/BSP/Components/iis2dlpc/iis2dlpc_reg.c ****   */
1451:Drivers/BSP/Components/iis2dlpc/iis2dlpc_reg.c **** int32_t iis2dlpc_cs_mode_set(const stmdev_ctx_t *ctx,
1452:Drivers/BSP/Components/iis2dlpc/iis2dlpc_reg.c ****                              iis2dlpc_cs_pu_disc_t val)
1453:Drivers/BSP/Components/iis2dlpc/iis2dlpc_reg.c **** {
 3473              		.loc 1 1453 1 view -0
 3474              		.cfi_startproc
 3475              		@ args = 0, pretend = 0, frame = 8
 3476              		@ frame_needed = 0, uses_anonymous_args = 0
 3477              		.loc 1 1453 1 is_stmt 0 view .LVU920
 3478 0000 30B5     		push	{r4, r5, lr}
 3479              		.cfi_def_cfa_offset 12
 3480              		.cfi_offset 4, -12
 3481              		.cfi_offset 5, -8
 3482              		.cfi_offset 14, -4
 3483 0002 83B0     		sub	sp, sp, #12
 3484              		.cfi_def_cfa_offset 24
 3485 0004 0446     		mov	r4, r0
 3486 0006 0D46     		mov	r5, r1
1454:Drivers/BSP/Components/iis2dlpc/iis2dlpc_reg.c ****   iis2dlpc_ctrl2_t reg;
 3487              		.loc 1 1454 3 is_stmt 1 view .LVU921
1455:Drivers/BSP/Components/iis2dlpc/iis2dlpc_reg.c ****   int32_t ret;
 3488              		.loc 1 1455 3 view .LVU922
1456:Drivers/BSP/Components/iis2dlpc/iis2dlpc_reg.c **** 
ARM GAS  C:\Temp\ccGZlXNO.s 			page 92


1457:Drivers/BSP/Components/iis2dlpc/iis2dlpc_reg.c ****   ret = iis2dlpc_read_reg(ctx, IIS2DLPC_CTRL2, (uint8_t *) &reg, 1);
 3489              		.loc 1 1457 3 view .LVU923
 3490              		.loc 1 1457 9 is_stmt 0 view .LVU924
 3491 0008 0123     		movs	r3, #1
 3492 000a 01AA     		add	r2, sp, #4
 3493 000c 2121     		movs	r1, #33
 3494              	.LVL243:
 3495              		.loc 1 1457 9 view .LVU925
 3496 000e FFF7FEFF 		bl	iis2dlpc_read_reg
 3497              	.LVL244:
1458:Drivers/BSP/Components/iis2dlpc/iis2dlpc_reg.c **** 
1459:Drivers/BSP/Components/iis2dlpc/iis2dlpc_reg.c ****   if (ret == 0)
 3498              		.loc 1 1459 3 is_stmt 1 view .LVU926
 3499              		.loc 1 1459 6 is_stmt 0 view .LVU927
 3500 0012 08B1     		cbz	r0, .L248
 3501              	.LVL245:
 3502              	.L245:
1460:Drivers/BSP/Components/iis2dlpc/iis2dlpc_reg.c ****   {
1461:Drivers/BSP/Components/iis2dlpc/iis2dlpc_reg.c ****     reg.cs_pu_disc = (uint8_t) val;
1462:Drivers/BSP/Components/iis2dlpc/iis2dlpc_reg.c ****     ret = iis2dlpc_write_reg(ctx, IIS2DLPC_CTRL2, (uint8_t *) &reg, 1);
1463:Drivers/BSP/Components/iis2dlpc/iis2dlpc_reg.c ****   }
1464:Drivers/BSP/Components/iis2dlpc/iis2dlpc_reg.c **** 
1465:Drivers/BSP/Components/iis2dlpc/iis2dlpc_reg.c ****   return ret;
1466:Drivers/BSP/Components/iis2dlpc/iis2dlpc_reg.c **** }
 3503              		.loc 1 1466 1 view .LVU928
 3504 0014 03B0     		add	sp, sp, #12
 3505              		.cfi_remember_state
 3506              		.cfi_def_cfa_offset 12
 3507              		@ sp needed
 3508 0016 30BD     		pop	{r4, r5, pc}
 3509              	.LVL246:
 3510              	.L248:
 3511              		.cfi_restore_state
1461:Drivers/BSP/Components/iis2dlpc/iis2dlpc_reg.c ****     ret = iis2dlpc_write_reg(ctx, IIS2DLPC_CTRL2, (uint8_t *) &reg, 1);
 3512              		.loc 1 1461 5 is_stmt 1 view .LVU929
1461:Drivers/BSP/Components/iis2dlpc/iis2dlpc_reg.c ****     ret = iis2dlpc_write_reg(ctx, IIS2DLPC_CTRL2, (uint8_t *) &reg, 1);
 3513              		.loc 1 1461 20 is_stmt 0 view .LVU930
 3514 0018 9DF80430 		ldrb	r3, [sp, #4]	@ zero_extendqisi2
 3515 001c 65F30413 		bfi	r3, r5, #4, #1
 3516 0020 8DF80430 		strb	r3, [sp, #4]
1462:Drivers/BSP/Components/iis2dlpc/iis2dlpc_reg.c ****   }
 3517              		.loc 1 1462 5 is_stmt 1 view .LVU931
1462:Drivers/BSP/Components/iis2dlpc/iis2dlpc_reg.c ****   }
 3518              		.loc 1 1462 11 is_stmt 0 view .LVU932
 3519 0024 0123     		movs	r3, #1
 3520              	.LVL247:
1462:Drivers/BSP/Components/iis2dlpc/iis2dlpc_reg.c ****   }
 3521              		.loc 1 1462 11 view .LVU933
 3522 0026 01AA     		add	r2, sp, #4
 3523 0028 2121     		movs	r1, #33
 3524 002a 2046     		mov	r0, r4
 3525 002c FFF7FEFF 		bl	iis2dlpc_write_reg
 3526              	.LVL248:
1465:Drivers/BSP/Components/iis2dlpc/iis2dlpc_reg.c **** }
 3527              		.loc 1 1465 3 is_stmt 1 view .LVU934
1465:Drivers/BSP/Components/iis2dlpc/iis2dlpc_reg.c **** }
 3528              		.loc 1 1465 10 is_stmt 0 view .LVU935
ARM GAS  C:\Temp\ccGZlXNO.s 			page 93


 3529 0030 F0E7     		b	.L245
 3530              		.cfi_endproc
 3531              	.LFE53:
 3533              		.section	.text.iis2dlpc_cs_mode_get,"ax",%progbits
 3534              		.align	1
 3535              		.global	iis2dlpc_cs_mode_get
 3536              		.syntax unified
 3537              		.thumb
 3538              		.thumb_func
 3540              	iis2dlpc_cs_mode_get:
 3541              	.LVL249:
 3542              	.LFB54:
1467:Drivers/BSP/Components/iis2dlpc/iis2dlpc_reg.c **** 
1468:Drivers/BSP/Components/iis2dlpc/iis2dlpc_reg.c **** /**
1469:Drivers/BSP/Components/iis2dlpc/iis2dlpc_reg.c ****   * @brief  Disconnect CS pull-up.[get]
1470:Drivers/BSP/Components/iis2dlpc/iis2dlpc_reg.c ****   *
1471:Drivers/BSP/Components/iis2dlpc/iis2dlpc_reg.c ****   * @param  ctx      read / write interface definitions
1472:Drivers/BSP/Components/iis2dlpc/iis2dlpc_reg.c ****   * @param  val      Get the values of cs_pu_disc in reg CTRL2
1473:Drivers/BSP/Components/iis2dlpc/iis2dlpc_reg.c ****   * @retval          interface status (MANDATORY: return 0 -> no Error)
1474:Drivers/BSP/Components/iis2dlpc/iis2dlpc_reg.c ****   *
1475:Drivers/BSP/Components/iis2dlpc/iis2dlpc_reg.c ****   */
1476:Drivers/BSP/Components/iis2dlpc/iis2dlpc_reg.c **** int32_t iis2dlpc_cs_mode_get(const stmdev_ctx_t *ctx,
1477:Drivers/BSP/Components/iis2dlpc/iis2dlpc_reg.c ****                              iis2dlpc_cs_pu_disc_t *val)
1478:Drivers/BSP/Components/iis2dlpc/iis2dlpc_reg.c **** {
 3543              		.loc 1 1478 1 is_stmt 1 view -0
 3544              		.cfi_startproc
 3545              		@ args = 0, pretend = 0, frame = 8
 3546              		@ frame_needed = 0, uses_anonymous_args = 0
 3547              		.loc 1 1478 1 is_stmt 0 view .LVU937
 3548 0000 10B5     		push	{r4, lr}
 3549              		.cfi_def_cfa_offset 8
 3550              		.cfi_offset 4, -8
 3551              		.cfi_offset 14, -4
 3552 0002 82B0     		sub	sp, sp, #8
 3553              		.cfi_def_cfa_offset 16
 3554 0004 0C46     		mov	r4, r1
1479:Drivers/BSP/Components/iis2dlpc/iis2dlpc_reg.c ****   iis2dlpc_ctrl2_t reg;
 3555              		.loc 1 1479 3 is_stmt 1 view .LVU938
1480:Drivers/BSP/Components/iis2dlpc/iis2dlpc_reg.c ****   int32_t ret;
 3556              		.loc 1 1480 3 view .LVU939
1481:Drivers/BSP/Components/iis2dlpc/iis2dlpc_reg.c **** 
1482:Drivers/BSP/Components/iis2dlpc/iis2dlpc_reg.c ****   ret = iis2dlpc_read_reg(ctx, IIS2DLPC_CTRL2, (uint8_t *) &reg, 1);
 3557              		.loc 1 1482 3 view .LVU940
 3558              		.loc 1 1482 9 is_stmt 0 view .LVU941
 3559 0006 0123     		movs	r3, #1
 3560 0008 01AA     		add	r2, sp, #4
 3561 000a 2121     		movs	r1, #33
 3562              	.LVL250:
 3563              		.loc 1 1482 9 view .LVU942
 3564 000c FFF7FEFF 		bl	iis2dlpc_read_reg
 3565              	.LVL251:
1483:Drivers/BSP/Components/iis2dlpc/iis2dlpc_reg.c **** 
1484:Drivers/BSP/Components/iis2dlpc/iis2dlpc_reg.c ****   switch (reg.cs_pu_disc)
 3566              		.loc 1 1484 3 is_stmt 1 view .LVU943
 3567              		.loc 1 1484 14 is_stmt 0 view .LVU944
 3568 0010 9DF80430 		ldrb	r3, [sp, #4]	@ zero_extendqisi2
 3569 0014 C3F30012 		ubfx	r2, r3, #4, #1
ARM GAS  C:\Temp\ccGZlXNO.s 			page 94


 3570              		.loc 1 1484 3 view .LVU945
 3571 0018 13F0100F 		tst	r3, #16
 3572 001c 03D0     		beq	.L250
 3573 001e 32B9     		cbnz	r2, .L251
1485:Drivers/BSP/Components/iis2dlpc/iis2dlpc_reg.c ****   {
1486:Drivers/BSP/Components/iis2dlpc/iis2dlpc_reg.c ****     case IIS2DLPC_PULL_UP_CONNECT:
1487:Drivers/BSP/Components/iis2dlpc/iis2dlpc_reg.c ****       *val = IIS2DLPC_PULL_UP_CONNECT;
1488:Drivers/BSP/Components/iis2dlpc/iis2dlpc_reg.c ****       break;
1489:Drivers/BSP/Components/iis2dlpc/iis2dlpc_reg.c **** 
1490:Drivers/BSP/Components/iis2dlpc/iis2dlpc_reg.c ****     case IIS2DLPC_PULL_UP_DISCONNECT:
1491:Drivers/BSP/Components/iis2dlpc/iis2dlpc_reg.c ****       *val = IIS2DLPC_PULL_UP_DISCONNECT;
1492:Drivers/BSP/Components/iis2dlpc/iis2dlpc_reg.c ****       break;
1493:Drivers/BSP/Components/iis2dlpc/iis2dlpc_reg.c **** 
1494:Drivers/BSP/Components/iis2dlpc/iis2dlpc_reg.c ****     default:
1495:Drivers/BSP/Components/iis2dlpc/iis2dlpc_reg.c ****       *val = IIS2DLPC_PULL_UP_CONNECT;
 3574              		.loc 1 1495 7 is_stmt 1 view .LVU946
 3575              		.loc 1 1495 12 is_stmt 0 view .LVU947
 3576 0020 0023     		movs	r3, #0
 3577 0022 2370     		strb	r3, [r4]
1496:Drivers/BSP/Components/iis2dlpc/iis2dlpc_reg.c ****       break;
 3578              		.loc 1 1496 7 is_stmt 1 view .LVU948
1497:Drivers/BSP/Components/iis2dlpc/iis2dlpc_reg.c ****   }
1498:Drivers/BSP/Components/iis2dlpc/iis2dlpc_reg.c **** 
1499:Drivers/BSP/Components/iis2dlpc/iis2dlpc_reg.c ****   return ret;
 3579              		.loc 1 1499 3 view .LVU949
 3580              		.loc 1 1499 10 is_stmt 0 view .LVU950
 3581 0024 01E0     		b	.L249
 3582              	.L250:
1487:Drivers/BSP/Components/iis2dlpc/iis2dlpc_reg.c ****       break;
 3583              		.loc 1 1487 7 is_stmt 1 view .LVU951
1487:Drivers/BSP/Components/iis2dlpc/iis2dlpc_reg.c ****       break;
 3584              		.loc 1 1487 12 is_stmt 0 view .LVU952
 3585 0026 0023     		movs	r3, #0
 3586 0028 2370     		strb	r3, [r4]
1488:Drivers/BSP/Components/iis2dlpc/iis2dlpc_reg.c **** 
 3587              		.loc 1 1488 7 is_stmt 1 view .LVU953
 3588              	.L249:
1500:Drivers/BSP/Components/iis2dlpc/iis2dlpc_reg.c **** }
 3589              		.loc 1 1500 1 is_stmt 0 view .LVU954
 3590 002a 02B0     		add	sp, sp, #8
 3591              		.cfi_remember_state
 3592              		.cfi_def_cfa_offset 8
 3593              		@ sp needed
 3594 002c 10BD     		pop	{r4, pc}
 3595              	.LVL252:
 3596              	.L251:
 3597              		.cfi_restore_state
1491:Drivers/BSP/Components/iis2dlpc/iis2dlpc_reg.c ****       break;
 3598              		.loc 1 1491 7 is_stmt 1 view .LVU955
1491:Drivers/BSP/Components/iis2dlpc/iis2dlpc_reg.c ****       break;
 3599              		.loc 1 1491 12 is_stmt 0 view .LVU956
 3600 002e 0123     		movs	r3, #1
 3601 0030 2370     		strb	r3, [r4]
1492:Drivers/BSP/Components/iis2dlpc/iis2dlpc_reg.c **** 
 3602              		.loc 1 1492 7 is_stmt 1 view .LVU957
 3603 0032 FAE7     		b	.L249
 3604              		.cfi_endproc
ARM GAS  C:\Temp\ccGZlXNO.s 			page 95


 3605              	.LFE54:
 3607              		.section	.text.iis2dlpc_pin_polarity_set,"ax",%progbits
 3608              		.align	1
 3609              		.global	iis2dlpc_pin_polarity_set
 3610              		.syntax unified
 3611              		.thumb
 3612              		.thumb_func
 3614              	iis2dlpc_pin_polarity_set:
 3615              	.LVL253:
 3616              	.LFB55:
1501:Drivers/BSP/Components/iis2dlpc/iis2dlpc_reg.c **** 
1502:Drivers/BSP/Components/iis2dlpc/iis2dlpc_reg.c **** /**
1503:Drivers/BSP/Components/iis2dlpc/iis2dlpc_reg.c ****   * @}
1504:Drivers/BSP/Components/iis2dlpc/iis2dlpc_reg.c ****   *
1505:Drivers/BSP/Components/iis2dlpc/iis2dlpc_reg.c ****   */
1506:Drivers/BSP/Components/iis2dlpc/iis2dlpc_reg.c **** 
1507:Drivers/BSP/Components/iis2dlpc/iis2dlpc_reg.c **** /**
1508:Drivers/BSP/Components/iis2dlpc/iis2dlpc_reg.c ****   * @defgroup  IIS2DLPC_Interrupt_Pins
1509:Drivers/BSP/Components/iis2dlpc/iis2dlpc_reg.c ****   * @brief     This section groups all the functions that manage interrupt pins
1510:Drivers/BSP/Components/iis2dlpc/iis2dlpc_reg.c ****   * @{
1511:Drivers/BSP/Components/iis2dlpc/iis2dlpc_reg.c ****   *
1512:Drivers/BSP/Components/iis2dlpc/iis2dlpc_reg.c ****   */
1513:Drivers/BSP/Components/iis2dlpc/iis2dlpc_reg.c **** 
1514:Drivers/BSP/Components/iis2dlpc/iis2dlpc_reg.c **** /**
1515:Drivers/BSP/Components/iis2dlpc/iis2dlpc_reg.c ****   * @brief  Interrupt active-high/low.[set]
1516:Drivers/BSP/Components/iis2dlpc/iis2dlpc_reg.c ****   *
1517:Drivers/BSP/Components/iis2dlpc/iis2dlpc_reg.c ****   * @param  ctx      read / write interface definitions
1518:Drivers/BSP/Components/iis2dlpc/iis2dlpc_reg.c ****   * @param  val      change the values of h_lactive in reg CTRL3
1519:Drivers/BSP/Components/iis2dlpc/iis2dlpc_reg.c ****   * @retval          interface status (MANDATORY: return 0 -> no Error)
1520:Drivers/BSP/Components/iis2dlpc/iis2dlpc_reg.c ****   *
1521:Drivers/BSP/Components/iis2dlpc/iis2dlpc_reg.c ****   */
1522:Drivers/BSP/Components/iis2dlpc/iis2dlpc_reg.c **** int32_t iis2dlpc_pin_polarity_set(const stmdev_ctx_t *ctx,
1523:Drivers/BSP/Components/iis2dlpc/iis2dlpc_reg.c ****                                   iis2dlpc_h_lactive_t val)
1524:Drivers/BSP/Components/iis2dlpc/iis2dlpc_reg.c **** {
 3617              		.loc 1 1524 1 view -0
 3618              		.cfi_startproc
 3619              		@ args = 0, pretend = 0, frame = 8
 3620              		@ frame_needed = 0, uses_anonymous_args = 0
 3621              		.loc 1 1524 1 is_stmt 0 view .LVU959
 3622 0000 30B5     		push	{r4, r5, lr}
 3623              		.cfi_def_cfa_offset 12
 3624              		.cfi_offset 4, -12
 3625              		.cfi_offset 5, -8
 3626              		.cfi_offset 14, -4
 3627 0002 83B0     		sub	sp, sp, #12
 3628              		.cfi_def_cfa_offset 24
 3629 0004 0446     		mov	r4, r0
 3630 0006 0D46     		mov	r5, r1
1525:Drivers/BSP/Components/iis2dlpc/iis2dlpc_reg.c ****   iis2dlpc_ctrl3_t reg;
 3631              		.loc 1 1525 3 is_stmt 1 view .LVU960
1526:Drivers/BSP/Components/iis2dlpc/iis2dlpc_reg.c ****   int32_t ret;
 3632              		.loc 1 1526 3 view .LVU961
1527:Drivers/BSP/Components/iis2dlpc/iis2dlpc_reg.c **** 
1528:Drivers/BSP/Components/iis2dlpc/iis2dlpc_reg.c ****   ret = iis2dlpc_read_reg(ctx, IIS2DLPC_CTRL3, (uint8_t *) &reg, 1);
 3633              		.loc 1 1528 3 view .LVU962
 3634              		.loc 1 1528 9 is_stmt 0 view .LVU963
 3635 0008 0123     		movs	r3, #1
ARM GAS  C:\Temp\ccGZlXNO.s 			page 96


 3636 000a 01AA     		add	r2, sp, #4
 3637 000c 2221     		movs	r1, #34
 3638              	.LVL254:
 3639              		.loc 1 1528 9 view .LVU964
 3640 000e FFF7FEFF 		bl	iis2dlpc_read_reg
 3641              	.LVL255:
1529:Drivers/BSP/Components/iis2dlpc/iis2dlpc_reg.c **** 
1530:Drivers/BSP/Components/iis2dlpc/iis2dlpc_reg.c ****   if (ret == 0)
 3642              		.loc 1 1530 3 is_stmt 1 view .LVU965
 3643              		.loc 1 1530 6 is_stmt 0 view .LVU966
 3644 0012 08B1     		cbz	r0, .L259
 3645              	.LVL256:
 3646              	.L256:
1531:Drivers/BSP/Components/iis2dlpc/iis2dlpc_reg.c ****   {
1532:Drivers/BSP/Components/iis2dlpc/iis2dlpc_reg.c ****     reg.h_lactive = (uint8_t) val;
1533:Drivers/BSP/Components/iis2dlpc/iis2dlpc_reg.c ****     ret = iis2dlpc_write_reg(ctx, IIS2DLPC_CTRL3, (uint8_t *) &reg, 1);
1534:Drivers/BSP/Components/iis2dlpc/iis2dlpc_reg.c ****   }
1535:Drivers/BSP/Components/iis2dlpc/iis2dlpc_reg.c **** 
1536:Drivers/BSP/Components/iis2dlpc/iis2dlpc_reg.c ****   return ret;
1537:Drivers/BSP/Components/iis2dlpc/iis2dlpc_reg.c **** }
 3647              		.loc 1 1537 1 view .LVU967
 3648 0014 03B0     		add	sp, sp, #12
 3649              		.cfi_remember_state
 3650              		.cfi_def_cfa_offset 12
 3651              		@ sp needed
 3652 0016 30BD     		pop	{r4, r5, pc}
 3653              	.LVL257:
 3654              	.L259:
 3655              		.cfi_restore_state
1532:Drivers/BSP/Components/iis2dlpc/iis2dlpc_reg.c ****     ret = iis2dlpc_write_reg(ctx, IIS2DLPC_CTRL3, (uint8_t *) &reg, 1);
 3656              		.loc 1 1532 5 is_stmt 1 view .LVU968
1532:Drivers/BSP/Components/iis2dlpc/iis2dlpc_reg.c ****     ret = iis2dlpc_write_reg(ctx, IIS2DLPC_CTRL3, (uint8_t *) &reg, 1);
 3657              		.loc 1 1532 19 is_stmt 0 view .LVU969
 3658 0018 9DF80430 		ldrb	r3, [sp, #4]	@ zero_extendqisi2
 3659 001c 65F3C303 		bfi	r3, r5, #3, #1
 3660 0020 8DF80430 		strb	r3, [sp, #4]
1533:Drivers/BSP/Components/iis2dlpc/iis2dlpc_reg.c ****   }
 3661              		.loc 1 1533 5 is_stmt 1 view .LVU970
1533:Drivers/BSP/Components/iis2dlpc/iis2dlpc_reg.c ****   }
 3662              		.loc 1 1533 11 is_stmt 0 view .LVU971
 3663 0024 0123     		movs	r3, #1
 3664              	.LVL258:
1533:Drivers/BSP/Components/iis2dlpc/iis2dlpc_reg.c ****   }
 3665              		.loc 1 1533 11 view .LVU972
 3666 0026 01AA     		add	r2, sp, #4
 3667 0028 2221     		movs	r1, #34
 3668 002a 2046     		mov	r0, r4
 3669 002c FFF7FEFF 		bl	iis2dlpc_write_reg
 3670              	.LVL259:
1536:Drivers/BSP/Components/iis2dlpc/iis2dlpc_reg.c **** }
 3671              		.loc 1 1536 3 is_stmt 1 view .LVU973
1536:Drivers/BSP/Components/iis2dlpc/iis2dlpc_reg.c **** }
 3672              		.loc 1 1536 10 is_stmt 0 view .LVU974
 3673 0030 F0E7     		b	.L256
 3674              		.cfi_endproc
 3675              	.LFE55:
 3677              		.section	.text.iis2dlpc_pin_polarity_get,"ax",%progbits
ARM GAS  C:\Temp\ccGZlXNO.s 			page 97


 3678              		.align	1
 3679              		.global	iis2dlpc_pin_polarity_get
 3680              		.syntax unified
 3681              		.thumb
 3682              		.thumb_func
 3684              	iis2dlpc_pin_polarity_get:
 3685              	.LVL260:
 3686              	.LFB56:
1538:Drivers/BSP/Components/iis2dlpc/iis2dlpc_reg.c **** 
1539:Drivers/BSP/Components/iis2dlpc/iis2dlpc_reg.c **** /**
1540:Drivers/BSP/Components/iis2dlpc/iis2dlpc_reg.c ****   * @brief  Interrupt active-high/low.[get]
1541:Drivers/BSP/Components/iis2dlpc/iis2dlpc_reg.c ****   *
1542:Drivers/BSP/Components/iis2dlpc/iis2dlpc_reg.c ****   * @param  ctx      read / write interface definitions
1543:Drivers/BSP/Components/iis2dlpc/iis2dlpc_reg.c ****   * @param  val      Get the values of h_lactive in reg CTRL3
1544:Drivers/BSP/Components/iis2dlpc/iis2dlpc_reg.c ****   * @retval          interface status (MANDATORY: return 0 -> no Error)
1545:Drivers/BSP/Components/iis2dlpc/iis2dlpc_reg.c ****   *
1546:Drivers/BSP/Components/iis2dlpc/iis2dlpc_reg.c ****   */
1547:Drivers/BSP/Components/iis2dlpc/iis2dlpc_reg.c **** int32_t iis2dlpc_pin_polarity_get(const stmdev_ctx_t *ctx,
1548:Drivers/BSP/Components/iis2dlpc/iis2dlpc_reg.c ****                                   iis2dlpc_h_lactive_t *val)
1549:Drivers/BSP/Components/iis2dlpc/iis2dlpc_reg.c **** {
 3687              		.loc 1 1549 1 is_stmt 1 view -0
 3688              		.cfi_startproc
 3689              		@ args = 0, pretend = 0, frame = 8
 3690              		@ frame_needed = 0, uses_anonymous_args = 0
 3691              		.loc 1 1549 1 is_stmt 0 view .LVU976
 3692 0000 10B5     		push	{r4, lr}
 3693              		.cfi_def_cfa_offset 8
 3694              		.cfi_offset 4, -8
 3695              		.cfi_offset 14, -4
 3696 0002 82B0     		sub	sp, sp, #8
 3697              		.cfi_def_cfa_offset 16
 3698 0004 0C46     		mov	r4, r1
1550:Drivers/BSP/Components/iis2dlpc/iis2dlpc_reg.c ****   iis2dlpc_ctrl3_t reg;
 3699              		.loc 1 1550 3 is_stmt 1 view .LVU977
1551:Drivers/BSP/Components/iis2dlpc/iis2dlpc_reg.c ****   int32_t ret;
 3700              		.loc 1 1551 3 view .LVU978
1552:Drivers/BSP/Components/iis2dlpc/iis2dlpc_reg.c **** 
1553:Drivers/BSP/Components/iis2dlpc/iis2dlpc_reg.c ****   ret = iis2dlpc_read_reg(ctx, IIS2DLPC_CTRL3, (uint8_t *) &reg, 1);
 3701              		.loc 1 1553 3 view .LVU979
 3702              		.loc 1 1553 9 is_stmt 0 view .LVU980
 3703 0006 0123     		movs	r3, #1
 3704 0008 01AA     		add	r2, sp, #4
 3705 000a 2221     		movs	r1, #34
 3706              	.LVL261:
 3707              		.loc 1 1553 9 view .LVU981
 3708 000c FFF7FEFF 		bl	iis2dlpc_read_reg
 3709              	.LVL262:
1554:Drivers/BSP/Components/iis2dlpc/iis2dlpc_reg.c **** 
1555:Drivers/BSP/Components/iis2dlpc/iis2dlpc_reg.c ****   switch (reg.h_lactive)
 3710              		.loc 1 1555 3 is_stmt 1 view .LVU982
 3711              		.loc 1 1555 14 is_stmt 0 view .LVU983
 3712 0010 9DF80430 		ldrb	r3, [sp, #4]	@ zero_extendqisi2
 3713 0014 C3F3C002 		ubfx	r2, r3, #3, #1
 3714              		.loc 1 1555 3 view .LVU984
 3715 0018 13F0080F 		tst	r3, #8
 3716 001c 03D0     		beq	.L261
 3717 001e 32B9     		cbnz	r2, .L262
ARM GAS  C:\Temp\ccGZlXNO.s 			page 98


1556:Drivers/BSP/Components/iis2dlpc/iis2dlpc_reg.c ****   {
1557:Drivers/BSP/Components/iis2dlpc/iis2dlpc_reg.c ****     case IIS2DLPC_ACTIVE_HIGH:
1558:Drivers/BSP/Components/iis2dlpc/iis2dlpc_reg.c ****       *val = IIS2DLPC_ACTIVE_HIGH;
1559:Drivers/BSP/Components/iis2dlpc/iis2dlpc_reg.c ****       break;
1560:Drivers/BSP/Components/iis2dlpc/iis2dlpc_reg.c **** 
1561:Drivers/BSP/Components/iis2dlpc/iis2dlpc_reg.c ****     case IIS2DLPC_ACTIVE_LOW:
1562:Drivers/BSP/Components/iis2dlpc/iis2dlpc_reg.c ****       *val = IIS2DLPC_ACTIVE_LOW;
1563:Drivers/BSP/Components/iis2dlpc/iis2dlpc_reg.c ****       break;
1564:Drivers/BSP/Components/iis2dlpc/iis2dlpc_reg.c **** 
1565:Drivers/BSP/Components/iis2dlpc/iis2dlpc_reg.c ****     default:
1566:Drivers/BSP/Components/iis2dlpc/iis2dlpc_reg.c ****       *val = IIS2DLPC_ACTIVE_HIGH;
 3718              		.loc 1 1566 7 is_stmt 1 view .LVU985
 3719              		.loc 1 1566 12 is_stmt 0 view .LVU986
 3720 0020 0023     		movs	r3, #0
 3721 0022 2370     		strb	r3, [r4]
1567:Drivers/BSP/Components/iis2dlpc/iis2dlpc_reg.c ****       break;
 3722              		.loc 1 1567 7 is_stmt 1 view .LVU987
1568:Drivers/BSP/Components/iis2dlpc/iis2dlpc_reg.c ****   }
1569:Drivers/BSP/Components/iis2dlpc/iis2dlpc_reg.c **** 
1570:Drivers/BSP/Components/iis2dlpc/iis2dlpc_reg.c ****   return ret;
 3723              		.loc 1 1570 3 view .LVU988
 3724              		.loc 1 1570 10 is_stmt 0 view .LVU989
 3725 0024 01E0     		b	.L260
 3726              	.L261:
1558:Drivers/BSP/Components/iis2dlpc/iis2dlpc_reg.c ****       break;
 3727              		.loc 1 1558 7 is_stmt 1 view .LVU990
1558:Drivers/BSP/Components/iis2dlpc/iis2dlpc_reg.c ****       break;
 3728              		.loc 1 1558 12 is_stmt 0 view .LVU991
 3729 0026 0023     		movs	r3, #0
 3730 0028 2370     		strb	r3, [r4]
1559:Drivers/BSP/Components/iis2dlpc/iis2dlpc_reg.c **** 
 3731              		.loc 1 1559 7 is_stmt 1 view .LVU992
 3732              	.L260:
1571:Drivers/BSP/Components/iis2dlpc/iis2dlpc_reg.c **** }
 3733              		.loc 1 1571 1 is_stmt 0 view .LVU993
 3734 002a 02B0     		add	sp, sp, #8
 3735              		.cfi_remember_state
 3736              		.cfi_def_cfa_offset 8
 3737              		@ sp needed
 3738 002c 10BD     		pop	{r4, pc}
 3739              	.LVL263:
 3740              	.L262:
 3741              		.cfi_restore_state
1562:Drivers/BSP/Components/iis2dlpc/iis2dlpc_reg.c ****       break;
 3742              		.loc 1 1562 7 is_stmt 1 view .LVU994
1562:Drivers/BSP/Components/iis2dlpc/iis2dlpc_reg.c ****       break;
 3743              		.loc 1 1562 12 is_stmt 0 view .LVU995
 3744 002e 0123     		movs	r3, #1
 3745 0030 2370     		strb	r3, [r4]
1563:Drivers/BSP/Components/iis2dlpc/iis2dlpc_reg.c **** 
 3746              		.loc 1 1563 7 is_stmt 1 view .LVU996
 3747 0032 FAE7     		b	.L260
 3748              		.cfi_endproc
 3749              	.LFE56:
 3751              		.section	.text.iis2dlpc_int_notification_set,"ax",%progbits
 3752              		.align	1
 3753              		.global	iis2dlpc_int_notification_set
ARM GAS  C:\Temp\ccGZlXNO.s 			page 99


 3754              		.syntax unified
 3755              		.thumb
 3756              		.thumb_func
 3758              	iis2dlpc_int_notification_set:
 3759              	.LVL264:
 3760              	.LFB57:
1572:Drivers/BSP/Components/iis2dlpc/iis2dlpc_reg.c **** 
1573:Drivers/BSP/Components/iis2dlpc/iis2dlpc_reg.c **** /**
1574:Drivers/BSP/Components/iis2dlpc/iis2dlpc_reg.c ****   * @brief  Latched/pulsed interrupt.[set]
1575:Drivers/BSP/Components/iis2dlpc/iis2dlpc_reg.c ****   *
1576:Drivers/BSP/Components/iis2dlpc/iis2dlpc_reg.c ****   * @param  ctx      read / write interface definitions
1577:Drivers/BSP/Components/iis2dlpc/iis2dlpc_reg.c ****   * @param  val      change the values of lir in reg CTRL3
1578:Drivers/BSP/Components/iis2dlpc/iis2dlpc_reg.c ****   * @retval          interface status (MANDATORY: return 0 -> no Error)
1579:Drivers/BSP/Components/iis2dlpc/iis2dlpc_reg.c ****   *
1580:Drivers/BSP/Components/iis2dlpc/iis2dlpc_reg.c ****   */
1581:Drivers/BSP/Components/iis2dlpc/iis2dlpc_reg.c **** int32_t iis2dlpc_int_notification_set(const stmdev_ctx_t *ctx,
1582:Drivers/BSP/Components/iis2dlpc/iis2dlpc_reg.c ****                                       iis2dlpc_lir_t val)
1583:Drivers/BSP/Components/iis2dlpc/iis2dlpc_reg.c **** {
 3761              		.loc 1 1583 1 view -0
 3762              		.cfi_startproc
 3763              		@ args = 0, pretend = 0, frame = 8
 3764              		@ frame_needed = 0, uses_anonymous_args = 0
 3765              		.loc 1 1583 1 is_stmt 0 view .LVU998
 3766 0000 30B5     		push	{r4, r5, lr}
 3767              		.cfi_def_cfa_offset 12
 3768              		.cfi_offset 4, -12
 3769              		.cfi_offset 5, -8
 3770              		.cfi_offset 14, -4
 3771 0002 83B0     		sub	sp, sp, #12
 3772              		.cfi_def_cfa_offset 24
 3773 0004 0446     		mov	r4, r0
 3774 0006 0D46     		mov	r5, r1
1584:Drivers/BSP/Components/iis2dlpc/iis2dlpc_reg.c ****   iis2dlpc_ctrl3_t reg;
 3775              		.loc 1 1584 3 is_stmt 1 view .LVU999
1585:Drivers/BSP/Components/iis2dlpc/iis2dlpc_reg.c ****   int32_t ret;
 3776              		.loc 1 1585 3 view .LVU1000
1586:Drivers/BSP/Components/iis2dlpc/iis2dlpc_reg.c **** 
1587:Drivers/BSP/Components/iis2dlpc/iis2dlpc_reg.c ****   ret = iis2dlpc_read_reg(ctx, IIS2DLPC_CTRL3, (uint8_t *) &reg, 1);
 3777              		.loc 1 1587 3 view .LVU1001
 3778              		.loc 1 1587 9 is_stmt 0 view .LVU1002
 3779 0008 0123     		movs	r3, #1
 3780 000a 01AA     		add	r2, sp, #4
 3781 000c 2221     		movs	r1, #34
 3782              	.LVL265:
 3783              		.loc 1 1587 9 view .LVU1003
 3784 000e FFF7FEFF 		bl	iis2dlpc_read_reg
 3785              	.LVL266:
1588:Drivers/BSP/Components/iis2dlpc/iis2dlpc_reg.c **** 
1589:Drivers/BSP/Components/iis2dlpc/iis2dlpc_reg.c ****   if (ret == 0)
 3786              		.loc 1 1589 3 is_stmt 1 view .LVU1004
 3787              		.loc 1 1589 6 is_stmt 0 view .LVU1005
 3788 0012 08B1     		cbz	r0, .L270
 3789              	.LVL267:
 3790              	.L267:
1590:Drivers/BSP/Components/iis2dlpc/iis2dlpc_reg.c ****   {
1591:Drivers/BSP/Components/iis2dlpc/iis2dlpc_reg.c ****     reg.lir = (uint8_t) val;
1592:Drivers/BSP/Components/iis2dlpc/iis2dlpc_reg.c ****     ret = iis2dlpc_write_reg(ctx, IIS2DLPC_CTRL3, (uint8_t *) &reg, 1);
ARM GAS  C:\Temp\ccGZlXNO.s 			page 100


1593:Drivers/BSP/Components/iis2dlpc/iis2dlpc_reg.c ****   }
1594:Drivers/BSP/Components/iis2dlpc/iis2dlpc_reg.c **** 
1595:Drivers/BSP/Components/iis2dlpc/iis2dlpc_reg.c ****   return ret;
1596:Drivers/BSP/Components/iis2dlpc/iis2dlpc_reg.c **** }
 3791              		.loc 1 1596 1 view .LVU1006
 3792 0014 03B0     		add	sp, sp, #12
 3793              		.cfi_remember_state
 3794              		.cfi_def_cfa_offset 12
 3795              		@ sp needed
 3796 0016 30BD     		pop	{r4, r5, pc}
 3797              	.LVL268:
 3798              	.L270:
 3799              		.cfi_restore_state
1591:Drivers/BSP/Components/iis2dlpc/iis2dlpc_reg.c ****     ret = iis2dlpc_write_reg(ctx, IIS2DLPC_CTRL3, (uint8_t *) &reg, 1);
 3800              		.loc 1 1591 5 is_stmt 1 view .LVU1007
1591:Drivers/BSP/Components/iis2dlpc/iis2dlpc_reg.c ****     ret = iis2dlpc_write_reg(ctx, IIS2DLPC_CTRL3, (uint8_t *) &reg, 1);
 3801              		.loc 1 1591 13 is_stmt 0 view .LVU1008
 3802 0018 9DF80430 		ldrb	r3, [sp, #4]	@ zero_extendqisi2
 3803 001c 65F30413 		bfi	r3, r5, #4, #1
 3804 0020 8DF80430 		strb	r3, [sp, #4]
1592:Drivers/BSP/Components/iis2dlpc/iis2dlpc_reg.c ****   }
 3805              		.loc 1 1592 5 is_stmt 1 view .LVU1009
1592:Drivers/BSP/Components/iis2dlpc/iis2dlpc_reg.c ****   }
 3806              		.loc 1 1592 11 is_stmt 0 view .LVU1010
 3807 0024 0123     		movs	r3, #1
 3808              	.LVL269:
1592:Drivers/BSP/Components/iis2dlpc/iis2dlpc_reg.c ****   }
 3809              		.loc 1 1592 11 view .LVU1011
 3810 0026 01AA     		add	r2, sp, #4
 3811 0028 2221     		movs	r1, #34
 3812 002a 2046     		mov	r0, r4
 3813 002c FFF7FEFF 		bl	iis2dlpc_write_reg
 3814              	.LVL270:
1595:Drivers/BSP/Components/iis2dlpc/iis2dlpc_reg.c **** }
 3815              		.loc 1 1595 3 is_stmt 1 view .LVU1012
1595:Drivers/BSP/Components/iis2dlpc/iis2dlpc_reg.c **** }
 3816              		.loc 1 1595 10 is_stmt 0 view .LVU1013
 3817 0030 F0E7     		b	.L267
 3818              		.cfi_endproc
 3819              	.LFE57:
 3821              		.section	.text.iis2dlpc_int_notification_get,"ax",%progbits
 3822              		.align	1
 3823              		.global	iis2dlpc_int_notification_get
 3824              		.syntax unified
 3825              		.thumb
 3826              		.thumb_func
 3828              	iis2dlpc_int_notification_get:
 3829              	.LVL271:
 3830              	.LFB58:
1597:Drivers/BSP/Components/iis2dlpc/iis2dlpc_reg.c **** 
1598:Drivers/BSP/Components/iis2dlpc/iis2dlpc_reg.c **** /**
1599:Drivers/BSP/Components/iis2dlpc/iis2dlpc_reg.c ****   * @brief  Latched/pulsed interrupt.[get]
1600:Drivers/BSP/Components/iis2dlpc/iis2dlpc_reg.c ****   *
1601:Drivers/BSP/Components/iis2dlpc/iis2dlpc_reg.c ****   * @param  ctx      read / write interface definitions
1602:Drivers/BSP/Components/iis2dlpc/iis2dlpc_reg.c ****   * @param  val      Get the values of lir in reg CTRL3
1603:Drivers/BSP/Components/iis2dlpc/iis2dlpc_reg.c ****   * @retval          interface status (MANDATORY: return 0 -> no Error)
1604:Drivers/BSP/Components/iis2dlpc/iis2dlpc_reg.c ****   *
ARM GAS  C:\Temp\ccGZlXNO.s 			page 101


1605:Drivers/BSP/Components/iis2dlpc/iis2dlpc_reg.c ****   */
1606:Drivers/BSP/Components/iis2dlpc/iis2dlpc_reg.c **** int32_t iis2dlpc_int_notification_get(const stmdev_ctx_t *ctx,
1607:Drivers/BSP/Components/iis2dlpc/iis2dlpc_reg.c ****                                       iis2dlpc_lir_t *val)
1608:Drivers/BSP/Components/iis2dlpc/iis2dlpc_reg.c **** {
 3831              		.loc 1 1608 1 is_stmt 1 view -0
 3832              		.cfi_startproc
 3833              		@ args = 0, pretend = 0, frame = 8
 3834              		@ frame_needed = 0, uses_anonymous_args = 0
 3835              		.loc 1 1608 1 is_stmt 0 view .LVU1015
 3836 0000 10B5     		push	{r4, lr}
 3837              		.cfi_def_cfa_offset 8
 3838              		.cfi_offset 4, -8
 3839              		.cfi_offset 14, -4
 3840 0002 82B0     		sub	sp, sp, #8
 3841              		.cfi_def_cfa_offset 16
 3842 0004 0C46     		mov	r4, r1
1609:Drivers/BSP/Components/iis2dlpc/iis2dlpc_reg.c ****   iis2dlpc_ctrl3_t reg;
 3843              		.loc 1 1609 3 is_stmt 1 view .LVU1016
1610:Drivers/BSP/Components/iis2dlpc/iis2dlpc_reg.c ****   int32_t ret;
 3844              		.loc 1 1610 3 view .LVU1017
1611:Drivers/BSP/Components/iis2dlpc/iis2dlpc_reg.c **** 
1612:Drivers/BSP/Components/iis2dlpc/iis2dlpc_reg.c ****   ret = iis2dlpc_read_reg(ctx, IIS2DLPC_CTRL3, (uint8_t *) &reg, 1);
 3845              		.loc 1 1612 3 view .LVU1018
 3846              		.loc 1 1612 9 is_stmt 0 view .LVU1019
 3847 0006 0123     		movs	r3, #1
 3848 0008 01AA     		add	r2, sp, #4
 3849 000a 2221     		movs	r1, #34
 3850              	.LVL272:
 3851              		.loc 1 1612 9 view .LVU1020
 3852 000c FFF7FEFF 		bl	iis2dlpc_read_reg
 3853              	.LVL273:
1613:Drivers/BSP/Components/iis2dlpc/iis2dlpc_reg.c **** 
1614:Drivers/BSP/Components/iis2dlpc/iis2dlpc_reg.c ****   switch (reg.lir)
 3854              		.loc 1 1614 3 is_stmt 1 view .LVU1021
 3855              		.loc 1 1614 14 is_stmt 0 view .LVU1022
 3856 0010 9DF80430 		ldrb	r3, [sp, #4]	@ zero_extendqisi2
 3857 0014 C3F30012 		ubfx	r2, r3, #4, #1
 3858              		.loc 1 1614 3 view .LVU1023
 3859 0018 13F0100F 		tst	r3, #16
 3860 001c 03D0     		beq	.L272
 3861 001e 32B9     		cbnz	r2, .L273
1615:Drivers/BSP/Components/iis2dlpc/iis2dlpc_reg.c ****   {
1616:Drivers/BSP/Components/iis2dlpc/iis2dlpc_reg.c ****     case IIS2DLPC_INT_PULSED:
1617:Drivers/BSP/Components/iis2dlpc/iis2dlpc_reg.c ****       *val = IIS2DLPC_INT_PULSED;
1618:Drivers/BSP/Components/iis2dlpc/iis2dlpc_reg.c ****       break;
1619:Drivers/BSP/Components/iis2dlpc/iis2dlpc_reg.c **** 
1620:Drivers/BSP/Components/iis2dlpc/iis2dlpc_reg.c ****     case IIS2DLPC_INT_LATCHED:
1621:Drivers/BSP/Components/iis2dlpc/iis2dlpc_reg.c ****       *val = IIS2DLPC_INT_LATCHED;
1622:Drivers/BSP/Components/iis2dlpc/iis2dlpc_reg.c ****       break;
1623:Drivers/BSP/Components/iis2dlpc/iis2dlpc_reg.c **** 
1624:Drivers/BSP/Components/iis2dlpc/iis2dlpc_reg.c ****     default:
1625:Drivers/BSP/Components/iis2dlpc/iis2dlpc_reg.c ****       *val = IIS2DLPC_INT_PULSED;
 3862              		.loc 1 1625 7 is_stmt 1 view .LVU1024
 3863              		.loc 1 1625 12 is_stmt 0 view .LVU1025
 3864 0020 0023     		movs	r3, #0
 3865 0022 2370     		strb	r3, [r4]
1626:Drivers/BSP/Components/iis2dlpc/iis2dlpc_reg.c ****       break;
ARM GAS  C:\Temp\ccGZlXNO.s 			page 102


 3866              		.loc 1 1626 7 is_stmt 1 view .LVU1026
1627:Drivers/BSP/Components/iis2dlpc/iis2dlpc_reg.c ****   }
1628:Drivers/BSP/Components/iis2dlpc/iis2dlpc_reg.c **** 
1629:Drivers/BSP/Components/iis2dlpc/iis2dlpc_reg.c ****   return ret;
 3867              		.loc 1 1629 3 view .LVU1027
 3868              		.loc 1 1629 10 is_stmt 0 view .LVU1028
 3869 0024 01E0     		b	.L271
 3870              	.L272:
1617:Drivers/BSP/Components/iis2dlpc/iis2dlpc_reg.c ****       break;
 3871              		.loc 1 1617 7 is_stmt 1 view .LVU1029
1617:Drivers/BSP/Components/iis2dlpc/iis2dlpc_reg.c ****       break;
 3872              		.loc 1 1617 12 is_stmt 0 view .LVU1030
 3873 0026 0023     		movs	r3, #0
 3874 0028 2370     		strb	r3, [r4]
1618:Drivers/BSP/Components/iis2dlpc/iis2dlpc_reg.c **** 
 3875              		.loc 1 1618 7 is_stmt 1 view .LVU1031
 3876              	.L271:
1630:Drivers/BSP/Components/iis2dlpc/iis2dlpc_reg.c **** }
 3877              		.loc 1 1630 1 is_stmt 0 view .LVU1032
 3878 002a 02B0     		add	sp, sp, #8
 3879              		.cfi_remember_state
 3880              		.cfi_def_cfa_offset 8
 3881              		@ sp needed
 3882 002c 10BD     		pop	{r4, pc}
 3883              	.LVL274:
 3884              	.L273:
 3885              		.cfi_restore_state
1621:Drivers/BSP/Components/iis2dlpc/iis2dlpc_reg.c ****       break;
 3886              		.loc 1 1621 7 is_stmt 1 view .LVU1033
1621:Drivers/BSP/Components/iis2dlpc/iis2dlpc_reg.c ****       break;
 3887              		.loc 1 1621 12 is_stmt 0 view .LVU1034
 3888 002e 0123     		movs	r3, #1
 3889 0030 2370     		strb	r3, [r4]
1622:Drivers/BSP/Components/iis2dlpc/iis2dlpc_reg.c **** 
 3890              		.loc 1 1622 7 is_stmt 1 view .LVU1035
 3891 0032 FAE7     		b	.L271
 3892              		.cfi_endproc
 3893              	.LFE58:
 3895              		.section	.text.iis2dlpc_pin_mode_set,"ax",%progbits
 3896              		.align	1
 3897              		.global	iis2dlpc_pin_mode_set
 3898              		.syntax unified
 3899              		.thumb
 3900              		.thumb_func
 3902              	iis2dlpc_pin_mode_set:
 3903              	.LVL275:
 3904              	.LFB59:
1631:Drivers/BSP/Components/iis2dlpc/iis2dlpc_reg.c **** 
1632:Drivers/BSP/Components/iis2dlpc/iis2dlpc_reg.c **** /**
1633:Drivers/BSP/Components/iis2dlpc/iis2dlpc_reg.c ****   * @brief  Push-pull/open drain selection on interrupt pads.[set]
1634:Drivers/BSP/Components/iis2dlpc/iis2dlpc_reg.c ****   *
1635:Drivers/BSP/Components/iis2dlpc/iis2dlpc_reg.c ****   * @param  ctx      read / write interface definitions
1636:Drivers/BSP/Components/iis2dlpc/iis2dlpc_reg.c ****   * @param  val      change the values of pp_od in reg CTRL3
1637:Drivers/BSP/Components/iis2dlpc/iis2dlpc_reg.c ****   * @retval          interface status (MANDATORY: return 0 -> no Error)
1638:Drivers/BSP/Components/iis2dlpc/iis2dlpc_reg.c ****   *
1639:Drivers/BSP/Components/iis2dlpc/iis2dlpc_reg.c ****   */
1640:Drivers/BSP/Components/iis2dlpc/iis2dlpc_reg.c **** int32_t iis2dlpc_pin_mode_set(const stmdev_ctx_t *ctx, iis2dlpc_pp_od_t val)
ARM GAS  C:\Temp\ccGZlXNO.s 			page 103


1641:Drivers/BSP/Components/iis2dlpc/iis2dlpc_reg.c **** {
 3905              		.loc 1 1641 1 view -0
 3906              		.cfi_startproc
 3907              		@ args = 0, pretend = 0, frame = 8
 3908              		@ frame_needed = 0, uses_anonymous_args = 0
 3909              		.loc 1 1641 1 is_stmt 0 view .LVU1037
 3910 0000 30B5     		push	{r4, r5, lr}
 3911              		.cfi_def_cfa_offset 12
 3912              		.cfi_offset 4, -12
 3913              		.cfi_offset 5, -8
 3914              		.cfi_offset 14, -4
 3915 0002 83B0     		sub	sp, sp, #12
 3916              		.cfi_def_cfa_offset 24
 3917 0004 0446     		mov	r4, r0
 3918 0006 0D46     		mov	r5, r1
1642:Drivers/BSP/Components/iis2dlpc/iis2dlpc_reg.c ****   iis2dlpc_ctrl3_t reg;
 3919              		.loc 1 1642 3 is_stmt 1 view .LVU1038
1643:Drivers/BSP/Components/iis2dlpc/iis2dlpc_reg.c ****   int32_t ret;
 3920              		.loc 1 1643 3 view .LVU1039
1644:Drivers/BSP/Components/iis2dlpc/iis2dlpc_reg.c **** 
1645:Drivers/BSP/Components/iis2dlpc/iis2dlpc_reg.c ****   ret = iis2dlpc_read_reg(ctx, IIS2DLPC_CTRL3, (uint8_t *) &reg, 1);
 3921              		.loc 1 1645 3 view .LVU1040
 3922              		.loc 1 1645 9 is_stmt 0 view .LVU1041
 3923 0008 0123     		movs	r3, #1
 3924 000a 01AA     		add	r2, sp, #4
 3925 000c 2221     		movs	r1, #34
 3926              	.LVL276:
 3927              		.loc 1 1645 9 view .LVU1042
 3928 000e FFF7FEFF 		bl	iis2dlpc_read_reg
 3929              	.LVL277:
1646:Drivers/BSP/Components/iis2dlpc/iis2dlpc_reg.c **** 
1647:Drivers/BSP/Components/iis2dlpc/iis2dlpc_reg.c ****   if (ret == 0)
 3930              		.loc 1 1647 3 is_stmt 1 view .LVU1043
 3931              		.loc 1 1647 6 is_stmt 0 view .LVU1044
 3932 0012 08B1     		cbz	r0, .L281
 3933              	.LVL278:
 3934              	.L278:
1648:Drivers/BSP/Components/iis2dlpc/iis2dlpc_reg.c ****   {
1649:Drivers/BSP/Components/iis2dlpc/iis2dlpc_reg.c ****     reg.pp_od = (uint8_t) val;
1650:Drivers/BSP/Components/iis2dlpc/iis2dlpc_reg.c ****     ret = iis2dlpc_write_reg(ctx, IIS2DLPC_CTRL3, (uint8_t *) &reg, 1);
1651:Drivers/BSP/Components/iis2dlpc/iis2dlpc_reg.c ****   }
1652:Drivers/BSP/Components/iis2dlpc/iis2dlpc_reg.c **** 
1653:Drivers/BSP/Components/iis2dlpc/iis2dlpc_reg.c ****   return ret;
1654:Drivers/BSP/Components/iis2dlpc/iis2dlpc_reg.c **** }
 3935              		.loc 1 1654 1 view .LVU1045
 3936 0014 03B0     		add	sp, sp, #12
 3937              		.cfi_remember_state
 3938              		.cfi_def_cfa_offset 12
 3939              		@ sp needed
 3940 0016 30BD     		pop	{r4, r5, pc}
 3941              	.LVL279:
 3942              	.L281:
 3943              		.cfi_restore_state
1649:Drivers/BSP/Components/iis2dlpc/iis2dlpc_reg.c ****     ret = iis2dlpc_write_reg(ctx, IIS2DLPC_CTRL3, (uint8_t *) &reg, 1);
 3944              		.loc 1 1649 5 is_stmt 1 view .LVU1046
1649:Drivers/BSP/Components/iis2dlpc/iis2dlpc_reg.c ****     ret = iis2dlpc_write_reg(ctx, IIS2DLPC_CTRL3, (uint8_t *) &reg, 1);
 3945              		.loc 1 1649 15 is_stmt 0 view .LVU1047
ARM GAS  C:\Temp\ccGZlXNO.s 			page 104


 3946 0018 9DF80430 		ldrb	r3, [sp, #4]	@ zero_extendqisi2
 3947 001c 65F34513 		bfi	r3, r5, #5, #1
 3948 0020 8DF80430 		strb	r3, [sp, #4]
1650:Drivers/BSP/Components/iis2dlpc/iis2dlpc_reg.c ****   }
 3949              		.loc 1 1650 5 is_stmt 1 view .LVU1048
1650:Drivers/BSP/Components/iis2dlpc/iis2dlpc_reg.c ****   }
 3950              		.loc 1 1650 11 is_stmt 0 view .LVU1049
 3951 0024 0123     		movs	r3, #1
 3952              	.LVL280:
1650:Drivers/BSP/Components/iis2dlpc/iis2dlpc_reg.c ****   }
 3953              		.loc 1 1650 11 view .LVU1050
 3954 0026 01AA     		add	r2, sp, #4
 3955 0028 2221     		movs	r1, #34
 3956 002a 2046     		mov	r0, r4
 3957 002c FFF7FEFF 		bl	iis2dlpc_write_reg
 3958              	.LVL281:
1653:Drivers/BSP/Components/iis2dlpc/iis2dlpc_reg.c **** }
 3959              		.loc 1 1653 3 is_stmt 1 view .LVU1051
1653:Drivers/BSP/Components/iis2dlpc/iis2dlpc_reg.c **** }
 3960              		.loc 1 1653 10 is_stmt 0 view .LVU1052
 3961 0030 F0E7     		b	.L278
 3962              		.cfi_endproc
 3963              	.LFE59:
 3965              		.section	.text.iis2dlpc_pin_mode_get,"ax",%progbits
 3966              		.align	1
 3967              		.global	iis2dlpc_pin_mode_get
 3968              		.syntax unified
 3969              		.thumb
 3970              		.thumb_func
 3972              	iis2dlpc_pin_mode_get:
 3973              	.LVL282:
 3974              	.LFB60:
1655:Drivers/BSP/Components/iis2dlpc/iis2dlpc_reg.c **** 
1656:Drivers/BSP/Components/iis2dlpc/iis2dlpc_reg.c **** /**
1657:Drivers/BSP/Components/iis2dlpc/iis2dlpc_reg.c ****   * @brief  Push-pull/open drain selection on interrupt pads.[get]
1658:Drivers/BSP/Components/iis2dlpc/iis2dlpc_reg.c ****   *
1659:Drivers/BSP/Components/iis2dlpc/iis2dlpc_reg.c ****   * @param  ctx      read / write interface definitions
1660:Drivers/BSP/Components/iis2dlpc/iis2dlpc_reg.c ****   * @param  val      Get the values of pp_od in reg CTRL3
1661:Drivers/BSP/Components/iis2dlpc/iis2dlpc_reg.c ****   * @retval          interface status (MANDATORY: return 0 -> no Error)
1662:Drivers/BSP/Components/iis2dlpc/iis2dlpc_reg.c ****   *
1663:Drivers/BSP/Components/iis2dlpc/iis2dlpc_reg.c ****   */
1664:Drivers/BSP/Components/iis2dlpc/iis2dlpc_reg.c **** int32_t iis2dlpc_pin_mode_get(const stmdev_ctx_t *ctx,
1665:Drivers/BSP/Components/iis2dlpc/iis2dlpc_reg.c ****                               iis2dlpc_pp_od_t *val)
1666:Drivers/BSP/Components/iis2dlpc/iis2dlpc_reg.c **** {
 3975              		.loc 1 1666 1 is_stmt 1 view -0
 3976              		.cfi_startproc
 3977              		@ args = 0, pretend = 0, frame = 8
 3978              		@ frame_needed = 0, uses_anonymous_args = 0
 3979              		.loc 1 1666 1 is_stmt 0 view .LVU1054
 3980 0000 10B5     		push	{r4, lr}
 3981              		.cfi_def_cfa_offset 8
 3982              		.cfi_offset 4, -8
 3983              		.cfi_offset 14, -4
 3984 0002 82B0     		sub	sp, sp, #8
 3985              		.cfi_def_cfa_offset 16
 3986 0004 0C46     		mov	r4, r1
1667:Drivers/BSP/Components/iis2dlpc/iis2dlpc_reg.c ****   iis2dlpc_ctrl3_t reg;
ARM GAS  C:\Temp\ccGZlXNO.s 			page 105


 3987              		.loc 1 1667 3 is_stmt 1 view .LVU1055
1668:Drivers/BSP/Components/iis2dlpc/iis2dlpc_reg.c ****   int32_t ret;
 3988              		.loc 1 1668 3 view .LVU1056
1669:Drivers/BSP/Components/iis2dlpc/iis2dlpc_reg.c **** 
1670:Drivers/BSP/Components/iis2dlpc/iis2dlpc_reg.c ****   ret = iis2dlpc_read_reg(ctx, IIS2DLPC_CTRL3, (uint8_t *) &reg, 1);
 3989              		.loc 1 1670 3 view .LVU1057
 3990              		.loc 1 1670 9 is_stmt 0 view .LVU1058
 3991 0006 0123     		movs	r3, #1
 3992 0008 01AA     		add	r2, sp, #4
 3993 000a 2221     		movs	r1, #34
 3994              	.LVL283:
 3995              		.loc 1 1670 9 view .LVU1059
 3996 000c FFF7FEFF 		bl	iis2dlpc_read_reg
 3997              	.LVL284:
1671:Drivers/BSP/Components/iis2dlpc/iis2dlpc_reg.c **** 
1672:Drivers/BSP/Components/iis2dlpc/iis2dlpc_reg.c ****   switch (reg.pp_od)
 3998              		.loc 1 1672 3 is_stmt 1 view .LVU1060
 3999              		.loc 1 1672 14 is_stmt 0 view .LVU1061
 4000 0010 9DF80430 		ldrb	r3, [sp, #4]	@ zero_extendqisi2
 4001 0014 C3F34012 		ubfx	r2, r3, #5, #1
 4002              		.loc 1 1672 3 view .LVU1062
 4003 0018 13F0200F 		tst	r3, #32
 4004 001c 03D0     		beq	.L283
 4005 001e 32B9     		cbnz	r2, .L284
1673:Drivers/BSP/Components/iis2dlpc/iis2dlpc_reg.c ****   {
1674:Drivers/BSP/Components/iis2dlpc/iis2dlpc_reg.c ****     case IIS2DLPC_PUSH_PULL:
1675:Drivers/BSP/Components/iis2dlpc/iis2dlpc_reg.c ****       *val = IIS2DLPC_PUSH_PULL;
1676:Drivers/BSP/Components/iis2dlpc/iis2dlpc_reg.c ****       break;
1677:Drivers/BSP/Components/iis2dlpc/iis2dlpc_reg.c **** 
1678:Drivers/BSP/Components/iis2dlpc/iis2dlpc_reg.c ****     case IIS2DLPC_OPEN_DRAIN:
1679:Drivers/BSP/Components/iis2dlpc/iis2dlpc_reg.c ****       *val = IIS2DLPC_OPEN_DRAIN;
1680:Drivers/BSP/Components/iis2dlpc/iis2dlpc_reg.c ****       break;
1681:Drivers/BSP/Components/iis2dlpc/iis2dlpc_reg.c **** 
1682:Drivers/BSP/Components/iis2dlpc/iis2dlpc_reg.c ****     default:
1683:Drivers/BSP/Components/iis2dlpc/iis2dlpc_reg.c ****       *val = IIS2DLPC_PUSH_PULL;
 4006              		.loc 1 1683 7 is_stmt 1 view .LVU1063
 4007              		.loc 1 1683 12 is_stmt 0 view .LVU1064
 4008 0020 0023     		movs	r3, #0
 4009 0022 2370     		strb	r3, [r4]
1684:Drivers/BSP/Components/iis2dlpc/iis2dlpc_reg.c ****       break;
 4010              		.loc 1 1684 7 is_stmt 1 view .LVU1065
1685:Drivers/BSP/Components/iis2dlpc/iis2dlpc_reg.c ****   }
1686:Drivers/BSP/Components/iis2dlpc/iis2dlpc_reg.c **** 
1687:Drivers/BSP/Components/iis2dlpc/iis2dlpc_reg.c ****   return ret;
 4011              		.loc 1 1687 3 view .LVU1066
 4012              		.loc 1 1687 10 is_stmt 0 view .LVU1067
 4013 0024 01E0     		b	.L282
 4014              	.L283:
1675:Drivers/BSP/Components/iis2dlpc/iis2dlpc_reg.c ****       break;
 4015              		.loc 1 1675 7 is_stmt 1 view .LVU1068
1675:Drivers/BSP/Components/iis2dlpc/iis2dlpc_reg.c ****       break;
 4016              		.loc 1 1675 12 is_stmt 0 view .LVU1069
 4017 0026 0023     		movs	r3, #0
 4018 0028 2370     		strb	r3, [r4]
1676:Drivers/BSP/Components/iis2dlpc/iis2dlpc_reg.c **** 
 4019              		.loc 1 1676 7 is_stmt 1 view .LVU1070
 4020              	.L282:
ARM GAS  C:\Temp\ccGZlXNO.s 			page 106


1688:Drivers/BSP/Components/iis2dlpc/iis2dlpc_reg.c **** }
 4021              		.loc 1 1688 1 is_stmt 0 view .LVU1071
 4022 002a 02B0     		add	sp, sp, #8
 4023              		.cfi_remember_state
 4024              		.cfi_def_cfa_offset 8
 4025              		@ sp needed
 4026 002c 10BD     		pop	{r4, pc}
 4027              	.LVL285:
 4028              	.L284:
 4029              		.cfi_restore_state
1679:Drivers/BSP/Components/iis2dlpc/iis2dlpc_reg.c ****       break;
 4030              		.loc 1 1679 7 is_stmt 1 view .LVU1072
1679:Drivers/BSP/Components/iis2dlpc/iis2dlpc_reg.c ****       break;
 4031              		.loc 1 1679 12 is_stmt 0 view .LVU1073
 4032 002e 0123     		movs	r3, #1
 4033 0030 2370     		strb	r3, [r4]
1680:Drivers/BSP/Components/iis2dlpc/iis2dlpc_reg.c **** 
 4034              		.loc 1 1680 7 is_stmt 1 view .LVU1074
 4035 0032 FAE7     		b	.L282
 4036              		.cfi_endproc
 4037              	.LFE60:
 4039              		.section	.text.iis2dlpc_pin_int1_route_set,"ax",%progbits
 4040              		.align	1
 4041              		.global	iis2dlpc_pin_int1_route_set
 4042              		.syntax unified
 4043              		.thumb
 4044              		.thumb_func
 4046              	iis2dlpc_pin_int1_route_set:
 4047              	.LVL286:
 4048              	.LFB61:
1689:Drivers/BSP/Components/iis2dlpc/iis2dlpc_reg.c **** 
1690:Drivers/BSP/Components/iis2dlpc/iis2dlpc_reg.c **** /**
1691:Drivers/BSP/Components/iis2dlpc/iis2dlpc_reg.c ****   * @brief  Select the signal that need to route on int1 pad.[set]
1692:Drivers/BSP/Components/iis2dlpc/iis2dlpc_reg.c ****   *
1693:Drivers/BSP/Components/iis2dlpc/iis2dlpc_reg.c ****   * @param  ctx      read / write interface definitions
1694:Drivers/BSP/Components/iis2dlpc/iis2dlpc_reg.c ****   * @param  val      register CTRL4_INT1_PAD_CTRL.
1695:Drivers/BSP/Components/iis2dlpc/iis2dlpc_reg.c ****   * @retval          interface status (MANDATORY: return 0 -> no Error)
1696:Drivers/BSP/Components/iis2dlpc/iis2dlpc_reg.c ****   *
1697:Drivers/BSP/Components/iis2dlpc/iis2dlpc_reg.c ****   */
1698:Drivers/BSP/Components/iis2dlpc/iis2dlpc_reg.c **** int32_t iis2dlpc_pin_int1_route_set(const stmdev_ctx_t *ctx,
1699:Drivers/BSP/Components/iis2dlpc/iis2dlpc_reg.c ****                                     iis2dlpc_ctrl4_int1_pad_ctrl_t *val)
1700:Drivers/BSP/Components/iis2dlpc/iis2dlpc_reg.c **** {
 4049              		.loc 1 1700 1 view -0
 4050              		.cfi_startproc
 4051              		@ args = 0, pretend = 0, frame = 8
 4052              		@ frame_needed = 0, uses_anonymous_args = 0
 4053              		.loc 1 1700 1 is_stmt 0 view .LVU1076
 4054 0000 30B5     		push	{r4, r5, lr}
 4055              		.cfi_def_cfa_offset 12
 4056              		.cfi_offset 4, -12
 4057              		.cfi_offset 5, -8
 4058              		.cfi_offset 14, -4
 4059 0002 83B0     		sub	sp, sp, #12
 4060              		.cfi_def_cfa_offset 24
 4061 0004 0446     		mov	r4, r0
 4062 0006 0D46     		mov	r5, r1
1701:Drivers/BSP/Components/iis2dlpc/iis2dlpc_reg.c ****   iis2dlpc_ctrl5_int2_pad_ctrl_t ctrl5_int2_pad_ctrl;
ARM GAS  C:\Temp\ccGZlXNO.s 			page 107


 4063              		.loc 1 1701 3 is_stmt 1 view .LVU1077
1702:Drivers/BSP/Components/iis2dlpc/iis2dlpc_reg.c ****   iis2dlpc_ctrl7_t reg;
 4064              		.loc 1 1702 3 view .LVU1078
1703:Drivers/BSP/Components/iis2dlpc/iis2dlpc_reg.c ****   int32_t ret;
 4065              		.loc 1 1703 3 view .LVU1079
1704:Drivers/BSP/Components/iis2dlpc/iis2dlpc_reg.c **** 
1705:Drivers/BSP/Components/iis2dlpc/iis2dlpc_reg.c ****   ret = iis2dlpc_read_reg(ctx, IIS2DLPC_CTRL5_INT2_PAD_CTRL,
 4066              		.loc 1 1705 3 view .LVU1080
 4067              		.loc 1 1705 9 is_stmt 0 view .LVU1081
 4068 0008 0123     		movs	r3, #1
 4069 000a 01AA     		add	r2, sp, #4
 4070 000c 2421     		movs	r1, #36
 4071              	.LVL287:
 4072              		.loc 1 1705 9 view .LVU1082
 4073 000e FFF7FEFF 		bl	iis2dlpc_read_reg
 4074              	.LVL288:
1706:Drivers/BSP/Components/iis2dlpc/iis2dlpc_reg.c ****                           (uint8_t *) &ctrl5_int2_pad_ctrl, 1);
1707:Drivers/BSP/Components/iis2dlpc/iis2dlpc_reg.c **** 
1708:Drivers/BSP/Components/iis2dlpc/iis2dlpc_reg.c ****   if (ret == 0)
 4075              		.loc 1 1708 3 is_stmt 1 view .LVU1083
 4076              		.loc 1 1708 6 is_stmt 0 view .LVU1084
 4077 0012 0346     		mov	r3, r0
 4078 0014 18B1     		cbz	r0, .L295
 4079              	.L290:
1709:Drivers/BSP/Components/iis2dlpc/iis2dlpc_reg.c ****   {
1710:Drivers/BSP/Components/iis2dlpc/iis2dlpc_reg.c ****     ret = iis2dlpc_read_reg(ctx, IIS2DLPC_CTRL7, (uint8_t *) &reg, 1);
1711:Drivers/BSP/Components/iis2dlpc/iis2dlpc_reg.c ****   }
1712:Drivers/BSP/Components/iis2dlpc/iis2dlpc_reg.c **** 
1713:Drivers/BSP/Components/iis2dlpc/iis2dlpc_reg.c ****   if (ret == 0)
1714:Drivers/BSP/Components/iis2dlpc/iis2dlpc_reg.c ****   {
1715:Drivers/BSP/Components/iis2dlpc/iis2dlpc_reg.c ****     if ((ctrl5_int2_pad_ctrl.int2_sleep_state
1716:Drivers/BSP/Components/iis2dlpc/iis2dlpc_reg.c ****          | ctrl5_int2_pad_ctrl.int2_sleep_chg
1717:Drivers/BSP/Components/iis2dlpc/iis2dlpc_reg.c ****          | val->int1_tap
1718:Drivers/BSP/Components/iis2dlpc/iis2dlpc_reg.c ****          | val->int1_ff
1719:Drivers/BSP/Components/iis2dlpc/iis2dlpc_reg.c ****          | val->int1_wu
1720:Drivers/BSP/Components/iis2dlpc/iis2dlpc_reg.c ****          | val->int1_single_tap
1721:Drivers/BSP/Components/iis2dlpc/iis2dlpc_reg.c ****          | val->int1_6d) != PROPERTY_DISABLE)
1722:Drivers/BSP/Components/iis2dlpc/iis2dlpc_reg.c ****     {
1723:Drivers/BSP/Components/iis2dlpc/iis2dlpc_reg.c ****       reg.interrupts_enable = PROPERTY_ENABLE;
1724:Drivers/BSP/Components/iis2dlpc/iis2dlpc_reg.c ****     }
1725:Drivers/BSP/Components/iis2dlpc/iis2dlpc_reg.c **** 
1726:Drivers/BSP/Components/iis2dlpc/iis2dlpc_reg.c ****     else
1727:Drivers/BSP/Components/iis2dlpc/iis2dlpc_reg.c ****     {
1728:Drivers/BSP/Components/iis2dlpc/iis2dlpc_reg.c ****       reg.interrupts_enable = PROPERTY_DISABLE;
1729:Drivers/BSP/Components/iis2dlpc/iis2dlpc_reg.c ****     }
1730:Drivers/BSP/Components/iis2dlpc/iis2dlpc_reg.c **** 
1731:Drivers/BSP/Components/iis2dlpc/iis2dlpc_reg.c ****     ret = iis2dlpc_write_reg(ctx, IIS2DLPC_CTRL4_INT1_PAD_CTRL,
1732:Drivers/BSP/Components/iis2dlpc/iis2dlpc_reg.c ****                              (uint8_t *) val, 1);
1733:Drivers/BSP/Components/iis2dlpc/iis2dlpc_reg.c ****   }
1734:Drivers/BSP/Components/iis2dlpc/iis2dlpc_reg.c **** 
1735:Drivers/BSP/Components/iis2dlpc/iis2dlpc_reg.c ****   if (ret == 0)
 4080              		.loc 1 1735 3 is_stmt 1 view .LVU1085
 4081              		.loc 1 1735 6 is_stmt 0 view .LVU1086
 4082 0016 B3B3     		cbz	r3, .L296
 4083              	.L289:
1736:Drivers/BSP/Components/iis2dlpc/iis2dlpc_reg.c ****   {
1737:Drivers/BSP/Components/iis2dlpc/iis2dlpc_reg.c ****     ret = iis2dlpc_write_reg(ctx, IIS2DLPC_CTRL7, (uint8_t *) &reg, 1);
ARM GAS  C:\Temp\ccGZlXNO.s 			page 108


1738:Drivers/BSP/Components/iis2dlpc/iis2dlpc_reg.c ****   }
1739:Drivers/BSP/Components/iis2dlpc/iis2dlpc_reg.c **** 
1740:Drivers/BSP/Components/iis2dlpc/iis2dlpc_reg.c ****   else
1741:Drivers/BSP/Components/iis2dlpc/iis2dlpc_reg.c ****   {
1742:Drivers/BSP/Components/iis2dlpc/iis2dlpc_reg.c ****     ret = ret;
1743:Drivers/BSP/Components/iis2dlpc/iis2dlpc_reg.c ****   }
1744:Drivers/BSP/Components/iis2dlpc/iis2dlpc_reg.c **** 
1745:Drivers/BSP/Components/iis2dlpc/iis2dlpc_reg.c ****   return ret;
1746:Drivers/BSP/Components/iis2dlpc/iis2dlpc_reg.c **** }
 4084              		.loc 1 1746 1 view .LVU1087
 4085 0018 1846     		mov	r0, r3
 4086              	.LVL289:
 4087              		.loc 1 1746 1 view .LVU1088
 4088 001a 03B0     		add	sp, sp, #12
 4089              		.cfi_remember_state
 4090              		.cfi_def_cfa_offset 12
 4091              		@ sp needed
 4092 001c 30BD     		pop	{r4, r5, pc}
 4093              	.LVL290:
 4094              	.L295:
 4095              		.cfi_restore_state
1710:Drivers/BSP/Components/iis2dlpc/iis2dlpc_reg.c ****   }
 4096              		.loc 1 1710 5 is_stmt 1 view .LVU1089
1710:Drivers/BSP/Components/iis2dlpc/iis2dlpc_reg.c ****   }
 4097              		.loc 1 1710 11 is_stmt 0 view .LVU1090
 4098 001e 0123     		movs	r3, #1
 4099 0020 6A46     		mov	r2, sp
 4100 0022 3F21     		movs	r1, #63
 4101 0024 2046     		mov	r0, r4
 4102              	.LVL291:
1710:Drivers/BSP/Components/iis2dlpc/iis2dlpc_reg.c ****   }
 4103              		.loc 1 1710 11 view .LVU1091
 4104 0026 FFF7FEFF 		bl	iis2dlpc_read_reg
 4105              	.LVL292:
1713:Drivers/BSP/Components/iis2dlpc/iis2dlpc_reg.c ****   {
 4106              		.loc 1 1713 3 is_stmt 1 view .LVU1092
1713:Drivers/BSP/Components/iis2dlpc/iis2dlpc_reg.c ****   {
 4107              		.loc 1 1713 6 is_stmt 0 view .LVU1093
 4108 002a 0346     		mov	r3, r0
 4109 002c 0028     		cmp	r0, #0
 4110 002e F3D1     		bne	.L289
1715:Drivers/BSP/Components/iis2dlpc/iis2dlpc_reg.c ****          | ctrl5_int2_pad_ctrl.int2_sleep_chg
 4111              		.loc 1 1715 5 is_stmt 1 view .LVU1094
1715:Drivers/BSP/Components/iis2dlpc/iis2dlpc_reg.c ****          | ctrl5_int2_pad_ctrl.int2_sleep_chg
 4112              		.loc 1 1715 29 is_stmt 0 view .LVU1095
 4113 0030 9DF80420 		ldrb	r2, [sp, #4]	@ zero_extendqisi2
1716:Drivers/BSP/Components/iis2dlpc/iis2dlpc_reg.c ****          | val->int1_tap
 4114              		.loc 1 1716 31 view .LVU1096
 4115 0034 C2F38013 		ubfx	r3, r2, #6, #1
1716:Drivers/BSP/Components/iis2dlpc/iis2dlpc_reg.c ****          | val->int1_tap
 4116              		.loc 1 1716 10 view .LVU1097
 4117 0038 43EAD213 		orr	r3, r3, r2, lsr #7
1717:Drivers/BSP/Components/iis2dlpc/iis2dlpc_reg.c ****          | val->int1_ff
 4118              		.loc 1 1717 15 view .LVU1098
 4119 003c 2A78     		ldrb	r2, [r5]	@ zero_extendqisi2
 4120 003e C2F3C001 		ubfx	r1, r2, #3, #1
1717:Drivers/BSP/Components/iis2dlpc/iis2dlpc_reg.c ****          | val->int1_ff
ARM GAS  C:\Temp\ccGZlXNO.s 			page 109


 4121              		.loc 1 1717 10 view .LVU1099
 4122 0042 0B43     		orrs	r3, r3, r1
1718:Drivers/BSP/Components/iis2dlpc/iis2dlpc_reg.c ****          | val->int1_wu
 4123              		.loc 1 1718 15 view .LVU1100
 4124 0044 C2F30011 		ubfx	r1, r2, #4, #1
1718:Drivers/BSP/Components/iis2dlpc/iis2dlpc_reg.c ****          | val->int1_wu
 4125              		.loc 1 1718 10 view .LVU1101
 4126 0048 0B43     		orrs	r3, r3, r1
1719:Drivers/BSP/Components/iis2dlpc/iis2dlpc_reg.c ****          | val->int1_single_tap
 4127              		.loc 1 1719 15 view .LVU1102
 4128 004a C2F34011 		ubfx	r1, r2, #5, #1
1719:Drivers/BSP/Components/iis2dlpc/iis2dlpc_reg.c ****          | val->int1_single_tap
 4129              		.loc 1 1719 10 view .LVU1103
 4130 004e 0B43     		orrs	r3, r3, r1
1720:Drivers/BSP/Components/iis2dlpc/iis2dlpc_reg.c ****          | val->int1_6d) != PROPERTY_DISABLE)
 4131              		.loc 1 1720 15 view .LVU1104
 4132 0050 C2F38011 		ubfx	r1, r2, #6, #1
1720:Drivers/BSP/Components/iis2dlpc/iis2dlpc_reg.c ****          | val->int1_6d) != PROPERTY_DISABLE)
 4133              		.loc 1 1720 10 view .LVU1105
 4134 0054 0B43     		orrs	r3, r3, r1
1715:Drivers/BSP/Components/iis2dlpc/iis2dlpc_reg.c ****          | ctrl5_int2_pad_ctrl.int2_sleep_chg
 4135              		.loc 1 1715 8 view .LVU1106
 4136 0056 53EAD213 		orrs	r3, r3, r2, lsr #7
 4137 005a 0DD0     		beq	.L292
1723:Drivers/BSP/Components/iis2dlpc/iis2dlpc_reg.c ****     }
 4138              		.loc 1 1723 7 is_stmt 1 view .LVU1107
1723:Drivers/BSP/Components/iis2dlpc/iis2dlpc_reg.c ****     }
 4139              		.loc 1 1723 29 is_stmt 0 view .LVU1108
 4140 005c 9DF80030 		ldrb	r3, [sp]	@ zero_extendqisi2
 4141 0060 43F02003 		orr	r3, r3, #32
 4142 0064 8DF80030 		strb	r3, [sp]
 4143              	.L293:
1731:Drivers/BSP/Components/iis2dlpc/iis2dlpc_reg.c ****                              (uint8_t *) val, 1);
 4144              		.loc 1 1731 5 is_stmt 1 view .LVU1109
1731:Drivers/BSP/Components/iis2dlpc/iis2dlpc_reg.c ****                              (uint8_t *) val, 1);
 4145              		.loc 1 1731 11 is_stmt 0 view .LVU1110
 4146 0068 0123     		movs	r3, #1
 4147 006a 2A46     		mov	r2, r5
 4148 006c 2321     		movs	r1, #35
 4149 006e 2046     		mov	r0, r4
 4150              	.LVL293:
1731:Drivers/BSP/Components/iis2dlpc/iis2dlpc_reg.c ****                              (uint8_t *) val, 1);
 4151              		.loc 1 1731 11 view .LVU1111
 4152 0070 FFF7FEFF 		bl	iis2dlpc_write_reg
 4153              	.LVL294:
 4154 0074 0346     		mov	r3, r0
 4155              	.LVL295:
1731:Drivers/BSP/Components/iis2dlpc/iis2dlpc_reg.c ****                              (uint8_t *) val, 1);
 4156              		.loc 1 1731 11 view .LVU1112
 4157 0076 CEE7     		b	.L290
 4158              	.L292:
1728:Drivers/BSP/Components/iis2dlpc/iis2dlpc_reg.c ****     }
 4159              		.loc 1 1728 7 is_stmt 1 view .LVU1113
1728:Drivers/BSP/Components/iis2dlpc/iis2dlpc_reg.c ****     }
 4160              		.loc 1 1728 29 is_stmt 0 view .LVU1114
 4161 0078 9DF80030 		ldrb	r3, [sp]	@ zero_extendqisi2
 4162 007c 6FF34513 		bfc	r3, #5, #1
ARM GAS  C:\Temp\ccGZlXNO.s 			page 110


 4163 0080 8DF80030 		strb	r3, [sp]
 4164 0084 F0E7     		b	.L293
 4165              	.L296:
1737:Drivers/BSP/Components/iis2dlpc/iis2dlpc_reg.c ****   }
 4166              		.loc 1 1737 5 is_stmt 1 view .LVU1115
1737:Drivers/BSP/Components/iis2dlpc/iis2dlpc_reg.c ****   }
 4167              		.loc 1 1737 11 is_stmt 0 view .LVU1116
 4168 0086 0123     		movs	r3, #1
 4169 0088 6A46     		mov	r2, sp
 4170 008a 3F21     		movs	r1, #63
 4171 008c 2046     		mov	r0, r4
 4172              	.LVL296:
1737:Drivers/BSP/Components/iis2dlpc/iis2dlpc_reg.c ****   }
 4173              		.loc 1 1737 11 view .LVU1117
 4174 008e FFF7FEFF 		bl	iis2dlpc_write_reg
 4175              	.LVL297:
 4176 0092 0346     		mov	r3, r0
 4177              	.LVL298:
1745:Drivers/BSP/Components/iis2dlpc/iis2dlpc_reg.c **** }
 4178              		.loc 1 1745 3 is_stmt 1 view .LVU1118
1745:Drivers/BSP/Components/iis2dlpc/iis2dlpc_reg.c **** }
 4179              		.loc 1 1745 10 is_stmt 0 view .LVU1119
 4180 0094 C0E7     		b	.L289
 4181              		.cfi_endproc
 4182              	.LFE61:
 4184              		.section	.text.iis2dlpc_pin_int1_route_get,"ax",%progbits
 4185              		.align	1
 4186              		.global	iis2dlpc_pin_int1_route_get
 4187              		.syntax unified
 4188              		.thumb
 4189              		.thumb_func
 4191              	iis2dlpc_pin_int1_route_get:
 4192              	.LVL299:
 4193              	.LFB62:
1747:Drivers/BSP/Components/iis2dlpc/iis2dlpc_reg.c **** 
1748:Drivers/BSP/Components/iis2dlpc/iis2dlpc_reg.c **** /**
1749:Drivers/BSP/Components/iis2dlpc/iis2dlpc_reg.c ****   * @brief  Select the signal that need to route on int1 pad.[get]
1750:Drivers/BSP/Components/iis2dlpc/iis2dlpc_reg.c ****   *
1751:Drivers/BSP/Components/iis2dlpc/iis2dlpc_reg.c ****   * @param  ctx      read / write interface definitions
1752:Drivers/BSP/Components/iis2dlpc/iis2dlpc_reg.c ****   * @param  val      register CTRL4_INT1_PAD_CTRL.
1753:Drivers/BSP/Components/iis2dlpc/iis2dlpc_reg.c ****   * @retval          interface status (MANDATORY: return 0 -> no Error)
1754:Drivers/BSP/Components/iis2dlpc/iis2dlpc_reg.c ****   *
1755:Drivers/BSP/Components/iis2dlpc/iis2dlpc_reg.c ****   */
1756:Drivers/BSP/Components/iis2dlpc/iis2dlpc_reg.c **** int32_t iis2dlpc_pin_int1_route_get(const stmdev_ctx_t *ctx,
1757:Drivers/BSP/Components/iis2dlpc/iis2dlpc_reg.c ****                                     iis2dlpc_ctrl4_int1_pad_ctrl_t *val)
1758:Drivers/BSP/Components/iis2dlpc/iis2dlpc_reg.c **** {
 4194              		.loc 1 1758 1 is_stmt 1 view -0
 4195              		.cfi_startproc
 4196              		@ args = 0, pretend = 0, frame = 0
 4197              		@ frame_needed = 0, uses_anonymous_args = 0
 4198              		.loc 1 1758 1 is_stmt 0 view .LVU1121
 4199 0000 08B5     		push	{r3, lr}
 4200              		.cfi_def_cfa_offset 8
 4201              		.cfi_offset 3, -8
 4202              		.cfi_offset 14, -4
 4203 0002 0A46     		mov	r2, r1
1759:Drivers/BSP/Components/iis2dlpc/iis2dlpc_reg.c ****   int32_t ret;
ARM GAS  C:\Temp\ccGZlXNO.s 			page 111


 4204              		.loc 1 1759 3 is_stmt 1 view .LVU1122
1760:Drivers/BSP/Components/iis2dlpc/iis2dlpc_reg.c **** 
1761:Drivers/BSP/Components/iis2dlpc/iis2dlpc_reg.c ****   ret = iis2dlpc_read_reg(ctx, IIS2DLPC_CTRL4_INT1_PAD_CTRL,
 4205              		.loc 1 1761 3 view .LVU1123
 4206              		.loc 1 1761 9 is_stmt 0 view .LVU1124
 4207 0004 0123     		movs	r3, #1
 4208 0006 2321     		movs	r1, #35
 4209              	.LVL300:
 4210              		.loc 1 1761 9 view .LVU1125
 4211 0008 FFF7FEFF 		bl	iis2dlpc_read_reg
 4212              	.LVL301:
1762:Drivers/BSP/Components/iis2dlpc/iis2dlpc_reg.c ****                           (uint8_t *) val, 1);
1763:Drivers/BSP/Components/iis2dlpc/iis2dlpc_reg.c **** 
1764:Drivers/BSP/Components/iis2dlpc/iis2dlpc_reg.c ****   return ret;
 4213              		.loc 1 1764 3 is_stmt 1 view .LVU1126
1765:Drivers/BSP/Components/iis2dlpc/iis2dlpc_reg.c **** }
 4214              		.loc 1 1765 1 is_stmt 0 view .LVU1127
 4215 000c 08BD     		pop	{r3, pc}
 4216              		.cfi_endproc
 4217              	.LFE62:
 4219              		.section	.text.iis2dlpc_pin_int2_route_set,"ax",%progbits
 4220              		.align	1
 4221              		.global	iis2dlpc_pin_int2_route_set
 4222              		.syntax unified
 4223              		.thumb
 4224              		.thumb_func
 4226              	iis2dlpc_pin_int2_route_set:
 4227              	.LVL302:
 4228              	.LFB63:
1766:Drivers/BSP/Components/iis2dlpc/iis2dlpc_reg.c **** 
1767:Drivers/BSP/Components/iis2dlpc/iis2dlpc_reg.c **** /**
1768:Drivers/BSP/Components/iis2dlpc/iis2dlpc_reg.c ****   * @brief   Select the signal that need to route on int2 pad.[set]
1769:Drivers/BSP/Components/iis2dlpc/iis2dlpc_reg.c ****   *
1770:Drivers/BSP/Components/iis2dlpc/iis2dlpc_reg.c ****   * @param  ctx      read / write interface definitions
1771:Drivers/BSP/Components/iis2dlpc/iis2dlpc_reg.c ****   * @param  val      register CTRL5_INT2_PAD_CTRL.
1772:Drivers/BSP/Components/iis2dlpc/iis2dlpc_reg.c ****   * @retval          interface status (MANDATORY: return 0 -> no Error)
1773:Drivers/BSP/Components/iis2dlpc/iis2dlpc_reg.c ****   *
1774:Drivers/BSP/Components/iis2dlpc/iis2dlpc_reg.c ****   */
1775:Drivers/BSP/Components/iis2dlpc/iis2dlpc_reg.c **** int32_t iis2dlpc_pin_int2_route_set(const stmdev_ctx_t *ctx,
1776:Drivers/BSP/Components/iis2dlpc/iis2dlpc_reg.c ****                                     iis2dlpc_ctrl5_int2_pad_ctrl_t *val)
1777:Drivers/BSP/Components/iis2dlpc/iis2dlpc_reg.c **** {
 4229              		.loc 1 1777 1 is_stmt 1 view -0
 4230              		.cfi_startproc
 4231              		@ args = 0, pretend = 0, frame = 8
 4232              		@ frame_needed = 0, uses_anonymous_args = 0
 4233              		.loc 1 1777 1 is_stmt 0 view .LVU1129
 4234 0000 30B5     		push	{r4, r5, lr}
 4235              		.cfi_def_cfa_offset 12
 4236              		.cfi_offset 4, -12
 4237              		.cfi_offset 5, -8
 4238              		.cfi_offset 14, -4
 4239 0002 83B0     		sub	sp, sp, #12
 4240              		.cfi_def_cfa_offset 24
 4241 0004 0446     		mov	r4, r0
 4242 0006 0D46     		mov	r5, r1
1778:Drivers/BSP/Components/iis2dlpc/iis2dlpc_reg.c ****   iis2dlpc_ctrl7_t ctrl_reg7;
 4243              		.loc 1 1778 3 is_stmt 1 view .LVU1130
ARM GAS  C:\Temp\ccGZlXNO.s 			page 112


1779:Drivers/BSP/Components/iis2dlpc/iis2dlpc_reg.c ****   iis2dlpc_ctrl4_int1_pad_ctrl_t  ctrl4_int1_pad;
 4244              		.loc 1 1779 3 view .LVU1131
1780:Drivers/BSP/Components/iis2dlpc/iis2dlpc_reg.c ****   int32_t ret;
 4245              		.loc 1 1780 3 view .LVU1132
1781:Drivers/BSP/Components/iis2dlpc/iis2dlpc_reg.c **** 
1782:Drivers/BSP/Components/iis2dlpc/iis2dlpc_reg.c ****   ret = iis2dlpc_read_reg(ctx, IIS2DLPC_CTRL4_INT1_PAD_CTRL,
 4246              		.loc 1 1782 3 view .LVU1133
 4247              		.loc 1 1782 9 is_stmt 0 view .LVU1134
 4248 0008 0123     		movs	r3, #1
 4249 000a 6A46     		mov	r2, sp
 4250 000c 2321     		movs	r1, #35
 4251              	.LVL303:
 4252              		.loc 1 1782 9 view .LVU1135
 4253 000e FFF7FEFF 		bl	iis2dlpc_read_reg
 4254              	.LVL304:
1783:Drivers/BSP/Components/iis2dlpc/iis2dlpc_reg.c ****                           (uint8_t *)&ctrl4_int1_pad, 1);
1784:Drivers/BSP/Components/iis2dlpc/iis2dlpc_reg.c **** 
1785:Drivers/BSP/Components/iis2dlpc/iis2dlpc_reg.c ****   if (ret == 0)
 4255              		.loc 1 1785 3 is_stmt 1 view .LVU1136
 4256              		.loc 1 1785 6 is_stmt 0 view .LVU1137
 4257 0012 0346     		mov	r3, r0
 4258 0014 18B1     		cbz	r0, .L305
 4259              	.L300:
1786:Drivers/BSP/Components/iis2dlpc/iis2dlpc_reg.c ****   {
1787:Drivers/BSP/Components/iis2dlpc/iis2dlpc_reg.c ****     ret = iis2dlpc_read_reg(ctx, IIS2DLPC_CTRL7, (uint8_t *) &ctrl_reg7, 1);
1788:Drivers/BSP/Components/iis2dlpc/iis2dlpc_reg.c ****   }
1789:Drivers/BSP/Components/iis2dlpc/iis2dlpc_reg.c **** 
1790:Drivers/BSP/Components/iis2dlpc/iis2dlpc_reg.c ****   if (ret == 0)
1791:Drivers/BSP/Components/iis2dlpc/iis2dlpc_reg.c ****   {
1792:Drivers/BSP/Components/iis2dlpc/iis2dlpc_reg.c ****     if ((val->int2_sleep_state
1793:Drivers/BSP/Components/iis2dlpc/iis2dlpc_reg.c ****          | val->int2_sleep_chg
1794:Drivers/BSP/Components/iis2dlpc/iis2dlpc_reg.c ****          | ctrl4_int1_pad.int1_tap
1795:Drivers/BSP/Components/iis2dlpc/iis2dlpc_reg.c ****          | ctrl4_int1_pad.int1_ff
1796:Drivers/BSP/Components/iis2dlpc/iis2dlpc_reg.c ****          | ctrl4_int1_pad.int1_wu
1797:Drivers/BSP/Components/iis2dlpc/iis2dlpc_reg.c ****          | ctrl4_int1_pad.int1_single_tap
1798:Drivers/BSP/Components/iis2dlpc/iis2dlpc_reg.c ****          | ctrl4_int1_pad.int1_6d) != PROPERTY_DISABLE)
1799:Drivers/BSP/Components/iis2dlpc/iis2dlpc_reg.c ****     {
1800:Drivers/BSP/Components/iis2dlpc/iis2dlpc_reg.c ****       ctrl_reg7.interrupts_enable = PROPERTY_ENABLE;
1801:Drivers/BSP/Components/iis2dlpc/iis2dlpc_reg.c ****     }
1802:Drivers/BSP/Components/iis2dlpc/iis2dlpc_reg.c **** 
1803:Drivers/BSP/Components/iis2dlpc/iis2dlpc_reg.c ****     else
1804:Drivers/BSP/Components/iis2dlpc/iis2dlpc_reg.c ****     {
1805:Drivers/BSP/Components/iis2dlpc/iis2dlpc_reg.c ****       ctrl_reg7.interrupts_enable = PROPERTY_DISABLE;
1806:Drivers/BSP/Components/iis2dlpc/iis2dlpc_reg.c ****     }
1807:Drivers/BSP/Components/iis2dlpc/iis2dlpc_reg.c **** 
1808:Drivers/BSP/Components/iis2dlpc/iis2dlpc_reg.c ****     ret = iis2dlpc_write_reg(ctx, IIS2DLPC_CTRL5_INT2_PAD_CTRL,
1809:Drivers/BSP/Components/iis2dlpc/iis2dlpc_reg.c ****                              (uint8_t *) val, 1);
1810:Drivers/BSP/Components/iis2dlpc/iis2dlpc_reg.c ****   }
1811:Drivers/BSP/Components/iis2dlpc/iis2dlpc_reg.c **** 
1812:Drivers/BSP/Components/iis2dlpc/iis2dlpc_reg.c ****   if (ret == 0)
 4260              		.loc 1 1812 3 is_stmt 1 view .LVU1138
 4261              		.loc 1 1812 6 is_stmt 0 view .LVU1139
 4262 0016 B3B3     		cbz	r3, .L306
 4263              	.L299:
1813:Drivers/BSP/Components/iis2dlpc/iis2dlpc_reg.c ****   {
1814:Drivers/BSP/Components/iis2dlpc/iis2dlpc_reg.c ****     ret = iis2dlpc_write_reg(ctx, IIS2DLPC_CTRL7, (uint8_t *) &ctrl_reg7, 1);
1815:Drivers/BSP/Components/iis2dlpc/iis2dlpc_reg.c ****   }
ARM GAS  C:\Temp\ccGZlXNO.s 			page 113


1816:Drivers/BSP/Components/iis2dlpc/iis2dlpc_reg.c **** 
1817:Drivers/BSP/Components/iis2dlpc/iis2dlpc_reg.c ****   else
1818:Drivers/BSP/Components/iis2dlpc/iis2dlpc_reg.c ****   {
1819:Drivers/BSP/Components/iis2dlpc/iis2dlpc_reg.c ****     ret = ret;
1820:Drivers/BSP/Components/iis2dlpc/iis2dlpc_reg.c ****   }
1821:Drivers/BSP/Components/iis2dlpc/iis2dlpc_reg.c **** 
1822:Drivers/BSP/Components/iis2dlpc/iis2dlpc_reg.c ****   return ret;
1823:Drivers/BSP/Components/iis2dlpc/iis2dlpc_reg.c **** }
 4264              		.loc 1 1823 1 view .LVU1140
 4265 0018 1846     		mov	r0, r3
 4266              	.LVL305:
 4267              		.loc 1 1823 1 view .LVU1141
 4268 001a 03B0     		add	sp, sp, #12
 4269              		.cfi_remember_state
 4270              		.cfi_def_cfa_offset 12
 4271              		@ sp needed
 4272 001c 30BD     		pop	{r4, r5, pc}
 4273              	.LVL306:
 4274              	.L305:
 4275              		.cfi_restore_state
1787:Drivers/BSP/Components/iis2dlpc/iis2dlpc_reg.c ****   }
 4276              		.loc 1 1787 5 is_stmt 1 view .LVU1142
1787:Drivers/BSP/Components/iis2dlpc/iis2dlpc_reg.c ****   }
 4277              		.loc 1 1787 11 is_stmt 0 view .LVU1143
 4278 001e 0123     		movs	r3, #1
 4279 0020 01AA     		add	r2, sp, #4
 4280 0022 3F21     		movs	r1, #63
 4281 0024 2046     		mov	r0, r4
 4282              	.LVL307:
1787:Drivers/BSP/Components/iis2dlpc/iis2dlpc_reg.c ****   }
 4283              		.loc 1 1787 11 view .LVU1144
 4284 0026 FFF7FEFF 		bl	iis2dlpc_read_reg
 4285              	.LVL308:
1790:Drivers/BSP/Components/iis2dlpc/iis2dlpc_reg.c ****   {
 4286              		.loc 1 1790 3 is_stmt 1 view .LVU1145
1790:Drivers/BSP/Components/iis2dlpc/iis2dlpc_reg.c ****   {
 4287              		.loc 1 1790 6 is_stmt 0 view .LVU1146
 4288 002a 0346     		mov	r3, r0
 4289 002c 0028     		cmp	r0, #0
 4290 002e F3D1     		bne	.L299
1792:Drivers/BSP/Components/iis2dlpc/iis2dlpc_reg.c ****          | val->int2_sleep_chg
 4291              		.loc 1 1792 5 is_stmt 1 view .LVU1147
1792:Drivers/BSP/Components/iis2dlpc/iis2dlpc_reg.c ****          | val->int2_sleep_chg
 4292              		.loc 1 1792 13 is_stmt 0 view .LVU1148
 4293 0030 2A78     		ldrb	r2, [r5]	@ zero_extendqisi2
1793:Drivers/BSP/Components/iis2dlpc/iis2dlpc_reg.c ****          | ctrl4_int1_pad.int1_tap
 4294              		.loc 1 1793 15 view .LVU1149
 4295 0032 C2F38013 		ubfx	r3, r2, #6, #1
1793:Drivers/BSP/Components/iis2dlpc/iis2dlpc_reg.c ****          | ctrl4_int1_pad.int1_tap
 4296              		.loc 1 1793 10 view .LVU1150
 4297 0036 43EAD213 		orr	r3, r3, r2, lsr #7
1794:Drivers/BSP/Components/iis2dlpc/iis2dlpc_reg.c ****          | ctrl4_int1_pad.int1_ff
 4298              		.loc 1 1794 26 view .LVU1151
 4299 003a 9DF80020 		ldrb	r2, [sp]	@ zero_extendqisi2
 4300 003e C2F3C001 		ubfx	r1, r2, #3, #1
1794:Drivers/BSP/Components/iis2dlpc/iis2dlpc_reg.c ****          | ctrl4_int1_pad.int1_ff
 4301              		.loc 1 1794 10 view .LVU1152
ARM GAS  C:\Temp\ccGZlXNO.s 			page 114


 4302 0042 0B43     		orrs	r3, r3, r1
1795:Drivers/BSP/Components/iis2dlpc/iis2dlpc_reg.c ****          | ctrl4_int1_pad.int1_wu
 4303              		.loc 1 1795 26 view .LVU1153
 4304 0044 C2F30011 		ubfx	r1, r2, #4, #1
1795:Drivers/BSP/Components/iis2dlpc/iis2dlpc_reg.c ****          | ctrl4_int1_pad.int1_wu
 4305              		.loc 1 1795 10 view .LVU1154
 4306 0048 0B43     		orrs	r3, r3, r1
1796:Drivers/BSP/Components/iis2dlpc/iis2dlpc_reg.c ****          | ctrl4_int1_pad.int1_single_tap
 4307              		.loc 1 1796 26 view .LVU1155
 4308 004a C2F34011 		ubfx	r1, r2, #5, #1
1796:Drivers/BSP/Components/iis2dlpc/iis2dlpc_reg.c ****          | ctrl4_int1_pad.int1_single_tap
 4309              		.loc 1 1796 10 view .LVU1156
 4310 004e 0B43     		orrs	r3, r3, r1
1797:Drivers/BSP/Components/iis2dlpc/iis2dlpc_reg.c ****          | ctrl4_int1_pad.int1_6d) != PROPERTY_DISABLE)
 4311              		.loc 1 1797 26 view .LVU1157
 4312 0050 C2F38011 		ubfx	r1, r2, #6, #1
1797:Drivers/BSP/Components/iis2dlpc/iis2dlpc_reg.c ****          | ctrl4_int1_pad.int1_6d) != PROPERTY_DISABLE)
 4313              		.loc 1 1797 10 view .LVU1158
 4314 0054 0B43     		orrs	r3, r3, r1
1792:Drivers/BSP/Components/iis2dlpc/iis2dlpc_reg.c ****          | val->int2_sleep_chg
 4315              		.loc 1 1792 8 view .LVU1159
 4316 0056 53EAD213 		orrs	r3, r3, r2, lsr #7
 4317 005a 0DD0     		beq	.L302
1800:Drivers/BSP/Components/iis2dlpc/iis2dlpc_reg.c ****     }
 4318              		.loc 1 1800 7 is_stmt 1 view .LVU1160
1800:Drivers/BSP/Components/iis2dlpc/iis2dlpc_reg.c ****     }
 4319              		.loc 1 1800 35 is_stmt 0 view .LVU1161
 4320 005c 9DF80430 		ldrb	r3, [sp, #4]	@ zero_extendqisi2
 4321 0060 43F02003 		orr	r3, r3, #32
 4322 0064 8DF80430 		strb	r3, [sp, #4]
 4323              	.L303:
1808:Drivers/BSP/Components/iis2dlpc/iis2dlpc_reg.c ****                              (uint8_t *) val, 1);
 4324              		.loc 1 1808 5 is_stmt 1 view .LVU1162
1808:Drivers/BSP/Components/iis2dlpc/iis2dlpc_reg.c ****                              (uint8_t *) val, 1);
 4325              		.loc 1 1808 11 is_stmt 0 view .LVU1163
 4326 0068 0123     		movs	r3, #1
 4327 006a 2A46     		mov	r2, r5
 4328 006c 2421     		movs	r1, #36
 4329 006e 2046     		mov	r0, r4
 4330              	.LVL309:
1808:Drivers/BSP/Components/iis2dlpc/iis2dlpc_reg.c ****                              (uint8_t *) val, 1);
 4331              		.loc 1 1808 11 view .LVU1164
 4332 0070 FFF7FEFF 		bl	iis2dlpc_write_reg
 4333              	.LVL310:
 4334 0074 0346     		mov	r3, r0
 4335              	.LVL311:
1808:Drivers/BSP/Components/iis2dlpc/iis2dlpc_reg.c ****                              (uint8_t *) val, 1);
 4336              		.loc 1 1808 11 view .LVU1165
 4337 0076 CEE7     		b	.L300
 4338              	.L302:
1805:Drivers/BSP/Components/iis2dlpc/iis2dlpc_reg.c ****     }
 4339              		.loc 1 1805 7 is_stmt 1 view .LVU1166
1805:Drivers/BSP/Components/iis2dlpc/iis2dlpc_reg.c ****     }
 4340              		.loc 1 1805 35 is_stmt 0 view .LVU1167
 4341 0078 9DF80430 		ldrb	r3, [sp, #4]	@ zero_extendqisi2
 4342 007c 6FF34513 		bfc	r3, #5, #1
 4343 0080 8DF80430 		strb	r3, [sp, #4]
ARM GAS  C:\Temp\ccGZlXNO.s 			page 115


 4344 0084 F0E7     		b	.L303
 4345              	.L306:
1814:Drivers/BSP/Components/iis2dlpc/iis2dlpc_reg.c ****   }
 4346              		.loc 1 1814 5 is_stmt 1 view .LVU1168
1814:Drivers/BSP/Components/iis2dlpc/iis2dlpc_reg.c ****   }
 4347              		.loc 1 1814 11 is_stmt 0 view .LVU1169
 4348 0086 0123     		movs	r3, #1
 4349 0088 01AA     		add	r2, sp, #4
 4350 008a 3F21     		movs	r1, #63
 4351 008c 2046     		mov	r0, r4
 4352              	.LVL312:
1814:Drivers/BSP/Components/iis2dlpc/iis2dlpc_reg.c ****   }
 4353              		.loc 1 1814 11 view .LVU1170
 4354 008e FFF7FEFF 		bl	iis2dlpc_write_reg
 4355              	.LVL313:
 4356 0092 0346     		mov	r3, r0
 4357              	.LVL314:
1822:Drivers/BSP/Components/iis2dlpc/iis2dlpc_reg.c **** }
 4358              		.loc 1 1822 3 is_stmt 1 view .LVU1171
1822:Drivers/BSP/Components/iis2dlpc/iis2dlpc_reg.c **** }
 4359              		.loc 1 1822 10 is_stmt 0 view .LVU1172
 4360 0094 C0E7     		b	.L299
 4361              		.cfi_endproc
 4362              	.LFE63:
 4364              		.section	.text.iis2dlpc_pin_int2_route_get,"ax",%progbits
 4365              		.align	1
 4366              		.global	iis2dlpc_pin_int2_route_get
 4367              		.syntax unified
 4368              		.thumb
 4369              		.thumb_func
 4371              	iis2dlpc_pin_int2_route_get:
 4372              	.LVL315:
 4373              	.LFB64:
1824:Drivers/BSP/Components/iis2dlpc/iis2dlpc_reg.c **** 
1825:Drivers/BSP/Components/iis2dlpc/iis2dlpc_reg.c **** /**
1826:Drivers/BSP/Components/iis2dlpc/iis2dlpc_reg.c ****   * @brief  Select the signal that need to route on int2 pad.[get]
1827:Drivers/BSP/Components/iis2dlpc/iis2dlpc_reg.c ****   *
1828:Drivers/BSP/Components/iis2dlpc/iis2dlpc_reg.c ****   * @param  ctx      read / write interface definitions
1829:Drivers/BSP/Components/iis2dlpc/iis2dlpc_reg.c ****   * @param  val      register CTRL5_INT2_PAD_CTRL
1830:Drivers/BSP/Components/iis2dlpc/iis2dlpc_reg.c ****   * @retval          interface status (MANDATORY: return 0 -> no Error)
1831:Drivers/BSP/Components/iis2dlpc/iis2dlpc_reg.c ****   *
1832:Drivers/BSP/Components/iis2dlpc/iis2dlpc_reg.c ****   */
1833:Drivers/BSP/Components/iis2dlpc/iis2dlpc_reg.c **** int32_t iis2dlpc_pin_int2_route_get(const stmdev_ctx_t *ctx,
1834:Drivers/BSP/Components/iis2dlpc/iis2dlpc_reg.c ****                                     iis2dlpc_ctrl5_int2_pad_ctrl_t *val)
1835:Drivers/BSP/Components/iis2dlpc/iis2dlpc_reg.c **** {
 4374              		.loc 1 1835 1 is_stmt 1 view -0
 4375              		.cfi_startproc
 4376              		@ args = 0, pretend = 0, frame = 0
 4377              		@ frame_needed = 0, uses_anonymous_args = 0
 4378              		.loc 1 1835 1 is_stmt 0 view .LVU1174
 4379 0000 08B5     		push	{r3, lr}
 4380              		.cfi_def_cfa_offset 8
 4381              		.cfi_offset 3, -8
 4382              		.cfi_offset 14, -4
 4383 0002 0A46     		mov	r2, r1
1836:Drivers/BSP/Components/iis2dlpc/iis2dlpc_reg.c ****   int32_t ret;
 4384              		.loc 1 1836 3 is_stmt 1 view .LVU1175
ARM GAS  C:\Temp\ccGZlXNO.s 			page 116


1837:Drivers/BSP/Components/iis2dlpc/iis2dlpc_reg.c **** 
1838:Drivers/BSP/Components/iis2dlpc/iis2dlpc_reg.c ****   ret = iis2dlpc_read_reg(ctx, IIS2DLPC_CTRL5_INT2_PAD_CTRL,
 4385              		.loc 1 1838 3 view .LVU1176
 4386              		.loc 1 1838 9 is_stmt 0 view .LVU1177
 4387 0004 0123     		movs	r3, #1
 4388 0006 2421     		movs	r1, #36
 4389              	.LVL316:
 4390              		.loc 1 1838 9 view .LVU1178
 4391 0008 FFF7FEFF 		bl	iis2dlpc_read_reg
 4392              	.LVL317:
1839:Drivers/BSP/Components/iis2dlpc/iis2dlpc_reg.c ****                           (uint8_t *) val, 1);
1840:Drivers/BSP/Components/iis2dlpc/iis2dlpc_reg.c **** 
1841:Drivers/BSP/Components/iis2dlpc/iis2dlpc_reg.c ****   return ret;
 4393              		.loc 1 1841 3 is_stmt 1 view .LVU1179
1842:Drivers/BSP/Components/iis2dlpc/iis2dlpc_reg.c **** }
 4394              		.loc 1 1842 1 is_stmt 0 view .LVU1180
 4395 000c 08BD     		pop	{r3, pc}
 4396              		.cfi_endproc
 4397              	.LFE64:
 4399              		.section	.text.iis2dlpc_all_on_int1_set,"ax",%progbits
 4400              		.align	1
 4401              		.global	iis2dlpc_all_on_int1_set
 4402              		.syntax unified
 4403              		.thumb
 4404              		.thumb_func
 4406              	iis2dlpc_all_on_int1_set:
 4407              	.LVL318:
 4408              	.LFB65:
1843:Drivers/BSP/Components/iis2dlpc/iis2dlpc_reg.c **** /**
1844:Drivers/BSP/Components/iis2dlpc/iis2dlpc_reg.c ****   * @brief All interrupt signals become available on INT1 pin.[set]
1845:Drivers/BSP/Components/iis2dlpc/iis2dlpc_reg.c ****   *
1846:Drivers/BSP/Components/iis2dlpc/iis2dlpc_reg.c ****   * @param  ctx      read / write interface definitions
1847:Drivers/BSP/Components/iis2dlpc/iis2dlpc_reg.c ****   * @param  val      change the values of int2_on_int1 in reg CTRL_REG7
1848:Drivers/BSP/Components/iis2dlpc/iis2dlpc_reg.c ****   * @retval          interface status (MANDATORY: return 0 -> no Error)
1849:Drivers/BSP/Components/iis2dlpc/iis2dlpc_reg.c ****   *
1850:Drivers/BSP/Components/iis2dlpc/iis2dlpc_reg.c ****   */
1851:Drivers/BSP/Components/iis2dlpc/iis2dlpc_reg.c **** int32_t iis2dlpc_all_on_int1_set(const stmdev_ctx_t *ctx, uint8_t val)
1852:Drivers/BSP/Components/iis2dlpc/iis2dlpc_reg.c **** {
 4409              		.loc 1 1852 1 is_stmt 1 view -0
 4410              		.cfi_startproc
 4411              		@ args = 0, pretend = 0, frame = 8
 4412              		@ frame_needed = 0, uses_anonymous_args = 0
 4413              		.loc 1 1852 1 is_stmt 0 view .LVU1182
 4414 0000 30B5     		push	{r4, r5, lr}
 4415              		.cfi_def_cfa_offset 12
 4416              		.cfi_offset 4, -12
 4417              		.cfi_offset 5, -8
 4418              		.cfi_offset 14, -4
 4419 0002 83B0     		sub	sp, sp, #12
 4420              		.cfi_def_cfa_offset 24
 4421 0004 0446     		mov	r4, r0
 4422 0006 0D46     		mov	r5, r1
1853:Drivers/BSP/Components/iis2dlpc/iis2dlpc_reg.c ****   iis2dlpc_ctrl7_t reg;
 4423              		.loc 1 1853 3 is_stmt 1 view .LVU1183
1854:Drivers/BSP/Components/iis2dlpc/iis2dlpc_reg.c ****   int32_t ret;
 4424              		.loc 1 1854 3 view .LVU1184
1855:Drivers/BSP/Components/iis2dlpc/iis2dlpc_reg.c **** 
ARM GAS  C:\Temp\ccGZlXNO.s 			page 117


1856:Drivers/BSP/Components/iis2dlpc/iis2dlpc_reg.c ****   ret = iis2dlpc_read_reg(ctx, IIS2DLPC_CTRL7, (uint8_t *) &reg, 1);
 4425              		.loc 1 1856 3 view .LVU1185
 4426              		.loc 1 1856 9 is_stmt 0 view .LVU1186
 4427 0008 0123     		movs	r3, #1
 4428 000a 01AA     		add	r2, sp, #4
 4429 000c 3F21     		movs	r1, #63
 4430              	.LVL319:
 4431              		.loc 1 1856 9 view .LVU1187
 4432 000e FFF7FEFF 		bl	iis2dlpc_read_reg
 4433              	.LVL320:
1857:Drivers/BSP/Components/iis2dlpc/iis2dlpc_reg.c **** 
1858:Drivers/BSP/Components/iis2dlpc/iis2dlpc_reg.c ****   if (ret == 0)
 4434              		.loc 1 1858 3 is_stmt 1 view .LVU1188
 4435              		.loc 1 1858 6 is_stmt 0 view .LVU1189
 4436 0012 08B1     		cbz	r0, .L312
 4437              	.LVL321:
 4438              	.L309:
1859:Drivers/BSP/Components/iis2dlpc/iis2dlpc_reg.c ****   {
1860:Drivers/BSP/Components/iis2dlpc/iis2dlpc_reg.c ****     reg.int2_on_int1 = val;
1861:Drivers/BSP/Components/iis2dlpc/iis2dlpc_reg.c ****     ret = iis2dlpc_write_reg(ctx, IIS2DLPC_CTRL7, (uint8_t *) &reg, 1);
1862:Drivers/BSP/Components/iis2dlpc/iis2dlpc_reg.c ****   }
1863:Drivers/BSP/Components/iis2dlpc/iis2dlpc_reg.c **** 
1864:Drivers/BSP/Components/iis2dlpc/iis2dlpc_reg.c ****   return ret;
1865:Drivers/BSP/Components/iis2dlpc/iis2dlpc_reg.c **** }
 4439              		.loc 1 1865 1 view .LVU1190
 4440 0014 03B0     		add	sp, sp, #12
 4441              		.cfi_remember_state
 4442              		.cfi_def_cfa_offset 12
 4443              		@ sp needed
 4444 0016 30BD     		pop	{r4, r5, pc}
 4445              	.LVL322:
 4446              	.L312:
 4447              		.cfi_restore_state
1860:Drivers/BSP/Components/iis2dlpc/iis2dlpc_reg.c ****     ret = iis2dlpc_write_reg(ctx, IIS2DLPC_CTRL7, (uint8_t *) &reg, 1);
 4448              		.loc 1 1860 5 is_stmt 1 view .LVU1191
1860:Drivers/BSP/Components/iis2dlpc/iis2dlpc_reg.c ****     ret = iis2dlpc_write_reg(ctx, IIS2DLPC_CTRL7, (uint8_t *) &reg, 1);
 4449              		.loc 1 1860 22 is_stmt 0 view .LVU1192
 4450 0018 9DF80430 		ldrb	r3, [sp, #4]	@ zero_extendqisi2
 4451 001c 65F38613 		bfi	r3, r5, #6, #1
 4452 0020 8DF80430 		strb	r3, [sp, #4]
1861:Drivers/BSP/Components/iis2dlpc/iis2dlpc_reg.c ****   }
 4453              		.loc 1 1861 5 is_stmt 1 view .LVU1193
1861:Drivers/BSP/Components/iis2dlpc/iis2dlpc_reg.c ****   }
 4454              		.loc 1 1861 11 is_stmt 0 view .LVU1194
 4455 0024 0123     		movs	r3, #1
 4456              	.LVL323:
1861:Drivers/BSP/Components/iis2dlpc/iis2dlpc_reg.c ****   }
 4457              		.loc 1 1861 11 view .LVU1195
 4458 0026 01AA     		add	r2, sp, #4
 4459 0028 3F21     		movs	r1, #63
 4460 002a 2046     		mov	r0, r4
 4461 002c FFF7FEFF 		bl	iis2dlpc_write_reg
 4462              	.LVL324:
1864:Drivers/BSP/Components/iis2dlpc/iis2dlpc_reg.c **** }
 4463              		.loc 1 1864 3 is_stmt 1 view .LVU1196
1864:Drivers/BSP/Components/iis2dlpc/iis2dlpc_reg.c **** }
 4464              		.loc 1 1864 10 is_stmt 0 view .LVU1197
ARM GAS  C:\Temp\ccGZlXNO.s 			page 118


 4465 0030 F0E7     		b	.L309
 4466              		.cfi_endproc
 4467              	.LFE65:
 4469              		.section	.text.iis2dlpc_all_on_int1_get,"ax",%progbits
 4470              		.align	1
 4471              		.global	iis2dlpc_all_on_int1_get
 4472              		.syntax unified
 4473              		.thumb
 4474              		.thumb_func
 4476              	iis2dlpc_all_on_int1_get:
 4477              	.LVL325:
 4478              	.LFB66:
1866:Drivers/BSP/Components/iis2dlpc/iis2dlpc_reg.c **** 
1867:Drivers/BSP/Components/iis2dlpc/iis2dlpc_reg.c **** /**
1868:Drivers/BSP/Components/iis2dlpc/iis2dlpc_reg.c ****   * @brief  All interrupt signals become available on INT1 pin.[get]
1869:Drivers/BSP/Components/iis2dlpc/iis2dlpc_reg.c ****   *
1870:Drivers/BSP/Components/iis2dlpc/iis2dlpc_reg.c ****   * @param  ctx      read / write interface definitions
1871:Drivers/BSP/Components/iis2dlpc/iis2dlpc_reg.c ****   * @param  val      change the values of int2_on_int1 in reg CTRL_REG7
1872:Drivers/BSP/Components/iis2dlpc/iis2dlpc_reg.c ****   * @retval          interface status (MANDATORY: return 0 -> no Error)
1873:Drivers/BSP/Components/iis2dlpc/iis2dlpc_reg.c ****   *
1874:Drivers/BSP/Components/iis2dlpc/iis2dlpc_reg.c ****   */
1875:Drivers/BSP/Components/iis2dlpc/iis2dlpc_reg.c **** int32_t iis2dlpc_all_on_int1_get(const stmdev_ctx_t *ctx, uint8_t *val)
1876:Drivers/BSP/Components/iis2dlpc/iis2dlpc_reg.c **** {
 4479              		.loc 1 1876 1 is_stmt 1 view -0
 4480              		.cfi_startproc
 4481              		@ args = 0, pretend = 0, frame = 8
 4482              		@ frame_needed = 0, uses_anonymous_args = 0
 4483              		.loc 1 1876 1 is_stmt 0 view .LVU1199
 4484 0000 10B5     		push	{r4, lr}
 4485              		.cfi_def_cfa_offset 8
 4486              		.cfi_offset 4, -8
 4487              		.cfi_offset 14, -4
 4488 0002 82B0     		sub	sp, sp, #8
 4489              		.cfi_def_cfa_offset 16
 4490 0004 0C46     		mov	r4, r1
1877:Drivers/BSP/Components/iis2dlpc/iis2dlpc_reg.c ****   iis2dlpc_ctrl7_t reg;
 4491              		.loc 1 1877 3 is_stmt 1 view .LVU1200
1878:Drivers/BSP/Components/iis2dlpc/iis2dlpc_reg.c ****   int32_t ret;
 4492              		.loc 1 1878 3 view .LVU1201
1879:Drivers/BSP/Components/iis2dlpc/iis2dlpc_reg.c **** 
1880:Drivers/BSP/Components/iis2dlpc/iis2dlpc_reg.c ****   ret = iis2dlpc_read_reg(ctx, IIS2DLPC_CTRL7, (uint8_t *) &reg, 1);
 4493              		.loc 1 1880 3 view .LVU1202
 4494              		.loc 1 1880 9 is_stmt 0 view .LVU1203
 4495 0006 0123     		movs	r3, #1
 4496 0008 01AA     		add	r2, sp, #4
 4497 000a 3F21     		movs	r1, #63
 4498              	.LVL326:
 4499              		.loc 1 1880 9 view .LVU1204
 4500 000c FFF7FEFF 		bl	iis2dlpc_read_reg
 4501              	.LVL327:
1881:Drivers/BSP/Components/iis2dlpc/iis2dlpc_reg.c ****   *val = reg.int2_on_int1;
 4502              		.loc 1 1881 3 is_stmt 1 view .LVU1205
 4503              		.loc 1 1881 13 is_stmt 0 view .LVU1206
 4504 0010 9DF80430 		ldrb	r3, [sp, #4]	@ zero_extendqisi2
 4505 0014 C3F38013 		ubfx	r3, r3, #6, #1
 4506              		.loc 1 1881 8 view .LVU1207
 4507 0018 2370     		strb	r3, [r4]
ARM GAS  C:\Temp\ccGZlXNO.s 			page 119


1882:Drivers/BSP/Components/iis2dlpc/iis2dlpc_reg.c **** 
1883:Drivers/BSP/Components/iis2dlpc/iis2dlpc_reg.c ****   return ret;
 4508              		.loc 1 1883 3 is_stmt 1 view .LVU1208
1884:Drivers/BSP/Components/iis2dlpc/iis2dlpc_reg.c **** }
 4509              		.loc 1 1884 1 is_stmt 0 view .LVU1209
 4510 001a 02B0     		add	sp, sp, #8
 4511              		.cfi_def_cfa_offset 8
 4512              		@ sp needed
 4513 001c 10BD     		pop	{r4, pc}
 4514              		.loc 1 1884 1 view .LVU1210
 4515              		.cfi_endproc
 4516              	.LFE66:
 4518              		.section	.text.iis2dlpc_wkup_threshold_set,"ax",%progbits
 4519              		.align	1
 4520              		.global	iis2dlpc_wkup_threshold_set
 4521              		.syntax unified
 4522              		.thumb
 4523              		.thumb_func
 4525              	iis2dlpc_wkup_threshold_set:
 4526              	.LVL328:
 4527              	.LFB67:
1885:Drivers/BSP/Components/iis2dlpc/iis2dlpc_reg.c **** 
1886:Drivers/BSP/Components/iis2dlpc/iis2dlpc_reg.c **** /**
1887:Drivers/BSP/Components/iis2dlpc/iis2dlpc_reg.c ****   * @}
1888:Drivers/BSP/Components/iis2dlpc/iis2dlpc_reg.c ****   *
1889:Drivers/BSP/Components/iis2dlpc/iis2dlpc_reg.c ****   */
1890:Drivers/BSP/Components/iis2dlpc/iis2dlpc_reg.c **** 
1891:Drivers/BSP/Components/iis2dlpc/iis2dlpc_reg.c **** /**
1892:Drivers/BSP/Components/iis2dlpc/iis2dlpc_reg.c ****   * @defgroup  IIS2DLPC_Wake_Up_Event
1893:Drivers/BSP/Components/iis2dlpc/iis2dlpc_reg.c ****   * @brief     This section groups all the functions that manage the Wake
1894:Drivers/BSP/Components/iis2dlpc/iis2dlpc_reg.c ****   *            Up event generation.
1895:Drivers/BSP/Components/iis2dlpc/iis2dlpc_reg.c ****   * @{
1896:Drivers/BSP/Components/iis2dlpc/iis2dlpc_reg.c ****   *
1897:Drivers/BSP/Components/iis2dlpc/iis2dlpc_reg.c ****   */
1898:Drivers/BSP/Components/iis2dlpc/iis2dlpc_reg.c **** 
1899:Drivers/BSP/Components/iis2dlpc/iis2dlpc_reg.c **** /**
1900:Drivers/BSP/Components/iis2dlpc/iis2dlpc_reg.c ****   * @brief  Threshold for wakeup.1 LSB = FS_XL / 64.[set]
1901:Drivers/BSP/Components/iis2dlpc/iis2dlpc_reg.c ****   *
1902:Drivers/BSP/Components/iis2dlpc/iis2dlpc_reg.c ****   * @param  ctx      read / write interface definitions
1903:Drivers/BSP/Components/iis2dlpc/iis2dlpc_reg.c ****   * @param  val      change the values of wk_ths in reg WAKE_UP_THS
1904:Drivers/BSP/Components/iis2dlpc/iis2dlpc_reg.c ****   * @retval          interface status (MANDATORY: return 0 -> no Error)
1905:Drivers/BSP/Components/iis2dlpc/iis2dlpc_reg.c ****   *
1906:Drivers/BSP/Components/iis2dlpc/iis2dlpc_reg.c ****   */
1907:Drivers/BSP/Components/iis2dlpc/iis2dlpc_reg.c **** int32_t iis2dlpc_wkup_threshold_set(const stmdev_ctx_t *ctx, uint8_t val)
1908:Drivers/BSP/Components/iis2dlpc/iis2dlpc_reg.c **** {
 4528              		.loc 1 1908 1 is_stmt 1 view -0
 4529              		.cfi_startproc
 4530              		@ args = 0, pretend = 0, frame = 8
 4531              		@ frame_needed = 0, uses_anonymous_args = 0
 4532              		.loc 1 1908 1 is_stmt 0 view .LVU1212
 4533 0000 30B5     		push	{r4, r5, lr}
 4534              		.cfi_def_cfa_offset 12
 4535              		.cfi_offset 4, -12
 4536              		.cfi_offset 5, -8
 4537              		.cfi_offset 14, -4
 4538 0002 83B0     		sub	sp, sp, #12
 4539              		.cfi_def_cfa_offset 24
ARM GAS  C:\Temp\ccGZlXNO.s 			page 120


 4540 0004 0446     		mov	r4, r0
 4541 0006 0D46     		mov	r5, r1
1909:Drivers/BSP/Components/iis2dlpc/iis2dlpc_reg.c ****   iis2dlpc_wake_up_ths_t reg;
 4542              		.loc 1 1909 3 is_stmt 1 view .LVU1213
1910:Drivers/BSP/Components/iis2dlpc/iis2dlpc_reg.c ****   int32_t ret;
 4543              		.loc 1 1910 3 view .LVU1214
1911:Drivers/BSP/Components/iis2dlpc/iis2dlpc_reg.c **** 
1912:Drivers/BSP/Components/iis2dlpc/iis2dlpc_reg.c ****   ret = iis2dlpc_read_reg(ctx, IIS2DLPC_WAKE_UP_THS, (uint8_t *) &reg, 1);
 4544              		.loc 1 1912 3 view .LVU1215
 4545              		.loc 1 1912 9 is_stmt 0 view .LVU1216
 4546 0008 0123     		movs	r3, #1
 4547 000a 01AA     		add	r2, sp, #4
 4548 000c 3421     		movs	r1, #52
 4549              	.LVL329:
 4550              		.loc 1 1912 9 view .LVU1217
 4551 000e FFF7FEFF 		bl	iis2dlpc_read_reg
 4552              	.LVL330:
1913:Drivers/BSP/Components/iis2dlpc/iis2dlpc_reg.c **** 
1914:Drivers/BSP/Components/iis2dlpc/iis2dlpc_reg.c ****   if (ret == 0)
 4553              		.loc 1 1914 3 is_stmt 1 view .LVU1218
 4554              		.loc 1 1914 6 is_stmt 0 view .LVU1219
 4555 0012 08B1     		cbz	r0, .L318
 4556              	.LVL331:
 4557              	.L315:
1915:Drivers/BSP/Components/iis2dlpc/iis2dlpc_reg.c ****   {
1916:Drivers/BSP/Components/iis2dlpc/iis2dlpc_reg.c ****     reg.wk_ths = val;
1917:Drivers/BSP/Components/iis2dlpc/iis2dlpc_reg.c ****     ret = iis2dlpc_write_reg(ctx, IIS2DLPC_WAKE_UP_THS, (uint8_t *) &reg, 1);
1918:Drivers/BSP/Components/iis2dlpc/iis2dlpc_reg.c ****   }
1919:Drivers/BSP/Components/iis2dlpc/iis2dlpc_reg.c **** 
1920:Drivers/BSP/Components/iis2dlpc/iis2dlpc_reg.c ****   return ret;
1921:Drivers/BSP/Components/iis2dlpc/iis2dlpc_reg.c **** }
 4558              		.loc 1 1921 1 view .LVU1220
 4559 0014 03B0     		add	sp, sp, #12
 4560              		.cfi_remember_state
 4561              		.cfi_def_cfa_offset 12
 4562              		@ sp needed
 4563 0016 30BD     		pop	{r4, r5, pc}
 4564              	.LVL332:
 4565              	.L318:
 4566              		.cfi_restore_state
1916:Drivers/BSP/Components/iis2dlpc/iis2dlpc_reg.c ****     ret = iis2dlpc_write_reg(ctx, IIS2DLPC_WAKE_UP_THS, (uint8_t *) &reg, 1);
 4567              		.loc 1 1916 5 is_stmt 1 view .LVU1221
1916:Drivers/BSP/Components/iis2dlpc/iis2dlpc_reg.c ****     ret = iis2dlpc_write_reg(ctx, IIS2DLPC_WAKE_UP_THS, (uint8_t *) &reg, 1);
 4568              		.loc 1 1916 16 is_stmt 0 view .LVU1222
 4569 0018 9DF80430 		ldrb	r3, [sp, #4]	@ zero_extendqisi2
 4570 001c 65F30503 		bfi	r3, r5, #0, #6
 4571 0020 8DF80430 		strb	r3, [sp, #4]
1917:Drivers/BSP/Components/iis2dlpc/iis2dlpc_reg.c ****   }
 4572              		.loc 1 1917 5 is_stmt 1 view .LVU1223
1917:Drivers/BSP/Components/iis2dlpc/iis2dlpc_reg.c ****   }
 4573              		.loc 1 1917 11 is_stmt 0 view .LVU1224
 4574 0024 0123     		movs	r3, #1
 4575              	.LVL333:
1917:Drivers/BSP/Components/iis2dlpc/iis2dlpc_reg.c ****   }
 4576              		.loc 1 1917 11 view .LVU1225
 4577 0026 01AA     		add	r2, sp, #4
 4578 0028 3421     		movs	r1, #52
ARM GAS  C:\Temp\ccGZlXNO.s 			page 121


 4579 002a 2046     		mov	r0, r4
 4580 002c FFF7FEFF 		bl	iis2dlpc_write_reg
 4581              	.LVL334:
1920:Drivers/BSP/Components/iis2dlpc/iis2dlpc_reg.c **** }
 4582              		.loc 1 1920 3 is_stmt 1 view .LVU1226
1920:Drivers/BSP/Components/iis2dlpc/iis2dlpc_reg.c **** }
 4583              		.loc 1 1920 10 is_stmt 0 view .LVU1227
 4584 0030 F0E7     		b	.L315
 4585              		.cfi_endproc
 4586              	.LFE67:
 4588              		.section	.text.iis2dlpc_wkup_threshold_get,"ax",%progbits
 4589              		.align	1
 4590              		.global	iis2dlpc_wkup_threshold_get
 4591              		.syntax unified
 4592              		.thumb
 4593              		.thumb_func
 4595              	iis2dlpc_wkup_threshold_get:
 4596              	.LVL335:
 4597              	.LFB68:
1922:Drivers/BSP/Components/iis2dlpc/iis2dlpc_reg.c **** 
1923:Drivers/BSP/Components/iis2dlpc/iis2dlpc_reg.c **** /**
1924:Drivers/BSP/Components/iis2dlpc/iis2dlpc_reg.c ****   * @brief  Threshold for wakeup.1 LSB = FS_XL / 64.[get]
1925:Drivers/BSP/Components/iis2dlpc/iis2dlpc_reg.c ****   *
1926:Drivers/BSP/Components/iis2dlpc/iis2dlpc_reg.c ****   * @param  ctx      read / write interface definitions
1927:Drivers/BSP/Components/iis2dlpc/iis2dlpc_reg.c ****   * @param  val      change the values of wk_ths in reg WAKE_UP_THS
1928:Drivers/BSP/Components/iis2dlpc/iis2dlpc_reg.c ****   * @retval          interface status (MANDATORY: return 0 -> no Error)
1929:Drivers/BSP/Components/iis2dlpc/iis2dlpc_reg.c ****   *
1930:Drivers/BSP/Components/iis2dlpc/iis2dlpc_reg.c ****   */
1931:Drivers/BSP/Components/iis2dlpc/iis2dlpc_reg.c **** int32_t iis2dlpc_wkup_threshold_get(const stmdev_ctx_t *ctx, uint8_t *val)
1932:Drivers/BSP/Components/iis2dlpc/iis2dlpc_reg.c **** {
 4598              		.loc 1 1932 1 is_stmt 1 view -0
 4599              		.cfi_startproc
 4600              		@ args = 0, pretend = 0, frame = 8
 4601              		@ frame_needed = 0, uses_anonymous_args = 0
 4602              		.loc 1 1932 1 is_stmt 0 view .LVU1229
 4603 0000 10B5     		push	{r4, lr}
 4604              		.cfi_def_cfa_offset 8
 4605              		.cfi_offset 4, -8
 4606              		.cfi_offset 14, -4
 4607 0002 82B0     		sub	sp, sp, #8
 4608              		.cfi_def_cfa_offset 16
 4609 0004 0C46     		mov	r4, r1
1933:Drivers/BSP/Components/iis2dlpc/iis2dlpc_reg.c ****   iis2dlpc_wake_up_ths_t reg;
 4610              		.loc 1 1933 3 is_stmt 1 view .LVU1230
1934:Drivers/BSP/Components/iis2dlpc/iis2dlpc_reg.c ****   int32_t ret;
 4611              		.loc 1 1934 3 view .LVU1231
1935:Drivers/BSP/Components/iis2dlpc/iis2dlpc_reg.c **** 
1936:Drivers/BSP/Components/iis2dlpc/iis2dlpc_reg.c ****   ret = iis2dlpc_read_reg(ctx, IIS2DLPC_WAKE_UP_THS, (uint8_t *) &reg, 1);
 4612              		.loc 1 1936 3 view .LVU1232
 4613              		.loc 1 1936 9 is_stmt 0 view .LVU1233
 4614 0006 0123     		movs	r3, #1
 4615 0008 01AA     		add	r2, sp, #4
 4616 000a 3421     		movs	r1, #52
 4617              	.LVL336:
 4618              		.loc 1 1936 9 view .LVU1234
 4619 000c FFF7FEFF 		bl	iis2dlpc_read_reg
 4620              	.LVL337:
ARM GAS  C:\Temp\ccGZlXNO.s 			page 122


1937:Drivers/BSP/Components/iis2dlpc/iis2dlpc_reg.c ****   *val = reg.wk_ths;
 4621              		.loc 1 1937 3 is_stmt 1 view .LVU1235
 4622              		.loc 1 1937 13 is_stmt 0 view .LVU1236
 4623 0010 9DF80430 		ldrb	r3, [sp, #4]	@ zero_extendqisi2
 4624 0014 C3F30503 		ubfx	r3, r3, #0, #6
 4625              		.loc 1 1937 8 view .LVU1237
 4626 0018 2370     		strb	r3, [r4]
1938:Drivers/BSP/Components/iis2dlpc/iis2dlpc_reg.c **** 
1939:Drivers/BSP/Components/iis2dlpc/iis2dlpc_reg.c ****   return ret;
 4627              		.loc 1 1939 3 is_stmt 1 view .LVU1238
1940:Drivers/BSP/Components/iis2dlpc/iis2dlpc_reg.c **** }
 4628              		.loc 1 1940 1 is_stmt 0 view .LVU1239
 4629 001a 02B0     		add	sp, sp, #8
 4630              		.cfi_def_cfa_offset 8
 4631              		@ sp needed
 4632 001c 10BD     		pop	{r4, pc}
 4633              		.loc 1 1940 1 view .LVU1240
 4634              		.cfi_endproc
 4635              	.LFE68:
 4637              		.section	.text.iis2dlpc_wkup_dur_set,"ax",%progbits
 4638              		.align	1
 4639              		.global	iis2dlpc_wkup_dur_set
 4640              		.syntax unified
 4641              		.thumb
 4642              		.thumb_func
 4644              	iis2dlpc_wkup_dur_set:
 4645              	.LVL338:
 4646              	.LFB69:
1941:Drivers/BSP/Components/iis2dlpc/iis2dlpc_reg.c **** 
1942:Drivers/BSP/Components/iis2dlpc/iis2dlpc_reg.c **** /**
1943:Drivers/BSP/Components/iis2dlpc/iis2dlpc_reg.c ****   * @brief  Wake up duration event.1LSb = 1 / ODR.[set]
1944:Drivers/BSP/Components/iis2dlpc/iis2dlpc_reg.c ****   *
1945:Drivers/BSP/Components/iis2dlpc/iis2dlpc_reg.c ****   * @param  ctx      read / write interface definitions
1946:Drivers/BSP/Components/iis2dlpc/iis2dlpc_reg.c ****   * @param  val      change the values of wake_dur in reg WAKE_UP_DUR
1947:Drivers/BSP/Components/iis2dlpc/iis2dlpc_reg.c ****   * @retval          interface status (MANDATORY: return 0 -> no Error)
1948:Drivers/BSP/Components/iis2dlpc/iis2dlpc_reg.c ****   *
1949:Drivers/BSP/Components/iis2dlpc/iis2dlpc_reg.c ****   */
1950:Drivers/BSP/Components/iis2dlpc/iis2dlpc_reg.c **** int32_t iis2dlpc_wkup_dur_set(const stmdev_ctx_t *ctx, uint8_t val)
1951:Drivers/BSP/Components/iis2dlpc/iis2dlpc_reg.c **** {
 4647              		.loc 1 1951 1 is_stmt 1 view -0
 4648              		.cfi_startproc
 4649              		@ args = 0, pretend = 0, frame = 8
 4650              		@ frame_needed = 0, uses_anonymous_args = 0
 4651              		.loc 1 1951 1 is_stmt 0 view .LVU1242
 4652 0000 30B5     		push	{r4, r5, lr}
 4653              		.cfi_def_cfa_offset 12
 4654              		.cfi_offset 4, -12
 4655              		.cfi_offset 5, -8
 4656              		.cfi_offset 14, -4
 4657 0002 83B0     		sub	sp, sp, #12
 4658              		.cfi_def_cfa_offset 24
 4659 0004 0446     		mov	r4, r0
 4660 0006 0D46     		mov	r5, r1
1952:Drivers/BSP/Components/iis2dlpc/iis2dlpc_reg.c ****   iis2dlpc_wake_up_dur_t reg;
 4661              		.loc 1 1952 3 is_stmt 1 view .LVU1243
1953:Drivers/BSP/Components/iis2dlpc/iis2dlpc_reg.c ****   int32_t ret;
 4662              		.loc 1 1953 3 view .LVU1244
ARM GAS  C:\Temp\ccGZlXNO.s 			page 123


1954:Drivers/BSP/Components/iis2dlpc/iis2dlpc_reg.c **** 
1955:Drivers/BSP/Components/iis2dlpc/iis2dlpc_reg.c ****   ret = iis2dlpc_read_reg(ctx, IIS2DLPC_WAKE_UP_DUR, (uint8_t *) &reg, 1);
 4663              		.loc 1 1955 3 view .LVU1245
 4664              		.loc 1 1955 9 is_stmt 0 view .LVU1246
 4665 0008 0123     		movs	r3, #1
 4666 000a 01AA     		add	r2, sp, #4
 4667 000c 3521     		movs	r1, #53
 4668              	.LVL339:
 4669              		.loc 1 1955 9 view .LVU1247
 4670 000e FFF7FEFF 		bl	iis2dlpc_read_reg
 4671              	.LVL340:
1956:Drivers/BSP/Components/iis2dlpc/iis2dlpc_reg.c **** 
1957:Drivers/BSP/Components/iis2dlpc/iis2dlpc_reg.c ****   if (ret == 0)
 4672              		.loc 1 1957 3 is_stmt 1 view .LVU1248
 4673              		.loc 1 1957 6 is_stmt 0 view .LVU1249
 4674 0012 08B1     		cbz	r0, .L324
 4675              	.LVL341:
 4676              	.L321:
1958:Drivers/BSP/Components/iis2dlpc/iis2dlpc_reg.c ****   {
1959:Drivers/BSP/Components/iis2dlpc/iis2dlpc_reg.c ****     reg.wake_dur = val;
1960:Drivers/BSP/Components/iis2dlpc/iis2dlpc_reg.c ****     ret = iis2dlpc_write_reg(ctx, IIS2DLPC_WAKE_UP_DUR, (uint8_t *) &reg, 1);
1961:Drivers/BSP/Components/iis2dlpc/iis2dlpc_reg.c ****   }
1962:Drivers/BSP/Components/iis2dlpc/iis2dlpc_reg.c **** 
1963:Drivers/BSP/Components/iis2dlpc/iis2dlpc_reg.c ****   return ret;
1964:Drivers/BSP/Components/iis2dlpc/iis2dlpc_reg.c **** }
 4677              		.loc 1 1964 1 view .LVU1250
 4678 0014 03B0     		add	sp, sp, #12
 4679              		.cfi_remember_state
 4680              		.cfi_def_cfa_offset 12
 4681              		@ sp needed
 4682 0016 30BD     		pop	{r4, r5, pc}
 4683              	.LVL342:
 4684              	.L324:
 4685              		.cfi_restore_state
1959:Drivers/BSP/Components/iis2dlpc/iis2dlpc_reg.c ****     ret = iis2dlpc_write_reg(ctx, IIS2DLPC_WAKE_UP_DUR, (uint8_t *) &reg, 1);
 4686              		.loc 1 1959 5 is_stmt 1 view .LVU1251
1959:Drivers/BSP/Components/iis2dlpc/iis2dlpc_reg.c ****     ret = iis2dlpc_write_reg(ctx, IIS2DLPC_WAKE_UP_DUR, (uint8_t *) &reg, 1);
 4687              		.loc 1 1959 18 is_stmt 0 view .LVU1252
 4688 0018 9DF80430 		ldrb	r3, [sp, #4]	@ zero_extendqisi2
 4689 001c 65F34613 		bfi	r3, r5, #5, #2
 4690 0020 8DF80430 		strb	r3, [sp, #4]
1960:Drivers/BSP/Components/iis2dlpc/iis2dlpc_reg.c ****   }
 4691              		.loc 1 1960 5 is_stmt 1 view .LVU1253
1960:Drivers/BSP/Components/iis2dlpc/iis2dlpc_reg.c ****   }
 4692              		.loc 1 1960 11 is_stmt 0 view .LVU1254
 4693 0024 0123     		movs	r3, #1
 4694              	.LVL343:
1960:Drivers/BSP/Components/iis2dlpc/iis2dlpc_reg.c ****   }
 4695              		.loc 1 1960 11 view .LVU1255
 4696 0026 01AA     		add	r2, sp, #4
 4697 0028 3521     		movs	r1, #53
 4698 002a 2046     		mov	r0, r4
 4699 002c FFF7FEFF 		bl	iis2dlpc_write_reg
 4700              	.LVL344:
1963:Drivers/BSP/Components/iis2dlpc/iis2dlpc_reg.c **** }
 4701              		.loc 1 1963 3 is_stmt 1 view .LVU1256
1963:Drivers/BSP/Components/iis2dlpc/iis2dlpc_reg.c **** }
ARM GAS  C:\Temp\ccGZlXNO.s 			page 124


 4702              		.loc 1 1963 10 is_stmt 0 view .LVU1257
 4703 0030 F0E7     		b	.L321
 4704              		.cfi_endproc
 4705              	.LFE69:
 4707              		.section	.text.iis2dlpc_wkup_dur_get,"ax",%progbits
 4708              		.align	1
 4709              		.global	iis2dlpc_wkup_dur_get
 4710              		.syntax unified
 4711              		.thumb
 4712              		.thumb_func
 4714              	iis2dlpc_wkup_dur_get:
 4715              	.LVL345:
 4716              	.LFB70:
1965:Drivers/BSP/Components/iis2dlpc/iis2dlpc_reg.c **** 
1966:Drivers/BSP/Components/iis2dlpc/iis2dlpc_reg.c **** /**
1967:Drivers/BSP/Components/iis2dlpc/iis2dlpc_reg.c ****   * @brief  Wake up duration event.1LSb = 1 / ODR.[get]
1968:Drivers/BSP/Components/iis2dlpc/iis2dlpc_reg.c ****   *
1969:Drivers/BSP/Components/iis2dlpc/iis2dlpc_reg.c ****   * @param  ctx      read / write interface definitions
1970:Drivers/BSP/Components/iis2dlpc/iis2dlpc_reg.c ****   * @param  val      change the values of wake_dur in reg WAKE_UP_DUR
1971:Drivers/BSP/Components/iis2dlpc/iis2dlpc_reg.c ****   * @retval          interface status (MANDATORY: return 0 -> no Error)
1972:Drivers/BSP/Components/iis2dlpc/iis2dlpc_reg.c ****   *
1973:Drivers/BSP/Components/iis2dlpc/iis2dlpc_reg.c ****   */
1974:Drivers/BSP/Components/iis2dlpc/iis2dlpc_reg.c **** int32_t iis2dlpc_wkup_dur_get(const stmdev_ctx_t *ctx, uint8_t *val)
1975:Drivers/BSP/Components/iis2dlpc/iis2dlpc_reg.c **** {
 4717              		.loc 1 1975 1 is_stmt 1 view -0
 4718              		.cfi_startproc
 4719              		@ args = 0, pretend = 0, frame = 8
 4720              		@ frame_needed = 0, uses_anonymous_args = 0
 4721              		.loc 1 1975 1 is_stmt 0 view .LVU1259
 4722 0000 10B5     		push	{r4, lr}
 4723              		.cfi_def_cfa_offset 8
 4724              		.cfi_offset 4, -8
 4725              		.cfi_offset 14, -4
 4726 0002 82B0     		sub	sp, sp, #8
 4727              		.cfi_def_cfa_offset 16
 4728 0004 0C46     		mov	r4, r1
1976:Drivers/BSP/Components/iis2dlpc/iis2dlpc_reg.c ****   iis2dlpc_wake_up_dur_t reg;
 4729              		.loc 1 1976 3 is_stmt 1 view .LVU1260
1977:Drivers/BSP/Components/iis2dlpc/iis2dlpc_reg.c ****   int32_t ret;
 4730              		.loc 1 1977 3 view .LVU1261
1978:Drivers/BSP/Components/iis2dlpc/iis2dlpc_reg.c **** 
1979:Drivers/BSP/Components/iis2dlpc/iis2dlpc_reg.c ****   ret = iis2dlpc_read_reg(ctx, IIS2DLPC_WAKE_UP_DUR, (uint8_t *) &reg, 1);
 4731              		.loc 1 1979 3 view .LVU1262
 4732              		.loc 1 1979 9 is_stmt 0 view .LVU1263
 4733 0006 0123     		movs	r3, #1
 4734 0008 01AA     		add	r2, sp, #4
 4735 000a 3521     		movs	r1, #53
 4736              	.LVL346:
 4737              		.loc 1 1979 9 view .LVU1264
 4738 000c FFF7FEFF 		bl	iis2dlpc_read_reg
 4739              	.LVL347:
1980:Drivers/BSP/Components/iis2dlpc/iis2dlpc_reg.c ****   *val = reg.wake_dur;
 4740              		.loc 1 1980 3 is_stmt 1 view .LVU1265
 4741              		.loc 1 1980 13 is_stmt 0 view .LVU1266
 4742 0010 9DF80430 		ldrb	r3, [sp, #4]	@ zero_extendqisi2
 4743 0014 C3F34113 		ubfx	r3, r3, #5, #2
 4744              		.loc 1 1980 8 view .LVU1267
ARM GAS  C:\Temp\ccGZlXNO.s 			page 125


 4745 0018 2370     		strb	r3, [r4]
1981:Drivers/BSP/Components/iis2dlpc/iis2dlpc_reg.c **** 
1982:Drivers/BSP/Components/iis2dlpc/iis2dlpc_reg.c ****   return ret;
 4746              		.loc 1 1982 3 is_stmt 1 view .LVU1268
1983:Drivers/BSP/Components/iis2dlpc/iis2dlpc_reg.c **** }
 4747              		.loc 1 1983 1 is_stmt 0 view .LVU1269
 4748 001a 02B0     		add	sp, sp, #8
 4749              		.cfi_def_cfa_offset 8
 4750              		@ sp needed
 4751 001c 10BD     		pop	{r4, pc}
 4752              		.loc 1 1983 1 view .LVU1270
 4753              		.cfi_endproc
 4754              	.LFE70:
 4756              		.section	.text.iis2dlpc_wkup_feed_data_set,"ax",%progbits
 4757              		.align	1
 4758              		.global	iis2dlpc_wkup_feed_data_set
 4759              		.syntax unified
 4760              		.thumb
 4761              		.thumb_func
 4763              	iis2dlpc_wkup_feed_data_set:
 4764              	.LVL348:
 4765              	.LFB71:
1984:Drivers/BSP/Components/iis2dlpc/iis2dlpc_reg.c **** 
1985:Drivers/BSP/Components/iis2dlpc/iis2dlpc_reg.c **** /**
1986:Drivers/BSP/Components/iis2dlpc/iis2dlpc_reg.c ****   * @brief  Data sent to wake-up interrupt function.[set]
1987:Drivers/BSP/Components/iis2dlpc/iis2dlpc_reg.c ****   *
1988:Drivers/BSP/Components/iis2dlpc/iis2dlpc_reg.c ****   * @param  ctx      read / write interface definitions
1989:Drivers/BSP/Components/iis2dlpc/iis2dlpc_reg.c ****   * @param  val      change the values of usr_off_on_wu in reg CTRL_REG7
1990:Drivers/BSP/Components/iis2dlpc/iis2dlpc_reg.c ****   * @retval          interface status (MANDATORY: return 0 -> no Error)
1991:Drivers/BSP/Components/iis2dlpc/iis2dlpc_reg.c ****   *
1992:Drivers/BSP/Components/iis2dlpc/iis2dlpc_reg.c ****   */
1993:Drivers/BSP/Components/iis2dlpc/iis2dlpc_reg.c **** int32_t iis2dlpc_wkup_feed_data_set(const stmdev_ctx_t *ctx,
1994:Drivers/BSP/Components/iis2dlpc/iis2dlpc_reg.c ****                                     iis2dlpc_usr_off_on_wu_t val)
1995:Drivers/BSP/Components/iis2dlpc/iis2dlpc_reg.c **** {
 4766              		.loc 1 1995 1 is_stmt 1 view -0
 4767              		.cfi_startproc
 4768              		@ args = 0, pretend = 0, frame = 8
 4769              		@ frame_needed = 0, uses_anonymous_args = 0
 4770              		.loc 1 1995 1 is_stmt 0 view .LVU1272
 4771 0000 30B5     		push	{r4, r5, lr}
 4772              		.cfi_def_cfa_offset 12
 4773              		.cfi_offset 4, -12
 4774              		.cfi_offset 5, -8
 4775              		.cfi_offset 14, -4
 4776 0002 83B0     		sub	sp, sp, #12
 4777              		.cfi_def_cfa_offset 24
 4778 0004 0446     		mov	r4, r0
 4779 0006 0D46     		mov	r5, r1
1996:Drivers/BSP/Components/iis2dlpc/iis2dlpc_reg.c ****   iis2dlpc_ctrl7_t reg;
 4780              		.loc 1 1996 3 is_stmt 1 view .LVU1273
1997:Drivers/BSP/Components/iis2dlpc/iis2dlpc_reg.c ****   int32_t ret;
 4781              		.loc 1 1997 3 view .LVU1274
1998:Drivers/BSP/Components/iis2dlpc/iis2dlpc_reg.c **** 
1999:Drivers/BSP/Components/iis2dlpc/iis2dlpc_reg.c ****   ret = iis2dlpc_read_reg(ctx, IIS2DLPC_CTRL7, (uint8_t *) &reg, 1);
 4782              		.loc 1 1999 3 view .LVU1275
 4783              		.loc 1 1999 9 is_stmt 0 view .LVU1276
 4784 0008 0123     		movs	r3, #1
ARM GAS  C:\Temp\ccGZlXNO.s 			page 126


 4785 000a 01AA     		add	r2, sp, #4
 4786 000c 3F21     		movs	r1, #63
 4787              	.LVL349:
 4788              		.loc 1 1999 9 view .LVU1277
 4789 000e FFF7FEFF 		bl	iis2dlpc_read_reg
 4790              	.LVL350:
2000:Drivers/BSP/Components/iis2dlpc/iis2dlpc_reg.c **** 
2001:Drivers/BSP/Components/iis2dlpc/iis2dlpc_reg.c ****   if (ret == 0)
 4791              		.loc 1 2001 3 is_stmt 1 view .LVU1278
 4792              		.loc 1 2001 6 is_stmt 0 view .LVU1279
 4793 0012 08B1     		cbz	r0, .L330
 4794              	.LVL351:
 4795              	.L327:
2002:Drivers/BSP/Components/iis2dlpc/iis2dlpc_reg.c ****   {
2003:Drivers/BSP/Components/iis2dlpc/iis2dlpc_reg.c ****     reg.usr_off_on_wu = (uint8_t) val;
2004:Drivers/BSP/Components/iis2dlpc/iis2dlpc_reg.c ****     ret = iis2dlpc_write_reg(ctx, IIS2DLPC_CTRL7, (uint8_t *) &reg, 1);
2005:Drivers/BSP/Components/iis2dlpc/iis2dlpc_reg.c ****   }
2006:Drivers/BSP/Components/iis2dlpc/iis2dlpc_reg.c **** 
2007:Drivers/BSP/Components/iis2dlpc/iis2dlpc_reg.c ****   return ret;
2008:Drivers/BSP/Components/iis2dlpc/iis2dlpc_reg.c **** }
 4796              		.loc 1 2008 1 view .LVU1280
 4797 0014 03B0     		add	sp, sp, #12
 4798              		.cfi_remember_state
 4799              		.cfi_def_cfa_offset 12
 4800              		@ sp needed
 4801 0016 30BD     		pop	{r4, r5, pc}
 4802              	.LVL352:
 4803              	.L330:
 4804              		.cfi_restore_state
2003:Drivers/BSP/Components/iis2dlpc/iis2dlpc_reg.c ****     ret = iis2dlpc_write_reg(ctx, IIS2DLPC_CTRL7, (uint8_t *) &reg, 1);
 4805              		.loc 1 2003 5 is_stmt 1 view .LVU1281
2003:Drivers/BSP/Components/iis2dlpc/iis2dlpc_reg.c ****     ret = iis2dlpc_write_reg(ctx, IIS2DLPC_CTRL7, (uint8_t *) &reg, 1);
 4806              		.loc 1 2003 23 is_stmt 0 view .LVU1282
 4807 0018 9DF80430 		ldrb	r3, [sp, #4]	@ zero_extendqisi2
 4808 001c 65F3C303 		bfi	r3, r5, #3, #1
 4809 0020 8DF80430 		strb	r3, [sp, #4]
2004:Drivers/BSP/Components/iis2dlpc/iis2dlpc_reg.c ****   }
 4810              		.loc 1 2004 5 is_stmt 1 view .LVU1283
2004:Drivers/BSP/Components/iis2dlpc/iis2dlpc_reg.c ****   }
 4811              		.loc 1 2004 11 is_stmt 0 view .LVU1284
 4812 0024 0123     		movs	r3, #1
 4813              	.LVL353:
2004:Drivers/BSP/Components/iis2dlpc/iis2dlpc_reg.c ****   }
 4814              		.loc 1 2004 11 view .LVU1285
 4815 0026 01AA     		add	r2, sp, #4
 4816 0028 3F21     		movs	r1, #63
 4817 002a 2046     		mov	r0, r4
 4818 002c FFF7FEFF 		bl	iis2dlpc_write_reg
 4819              	.LVL354:
2007:Drivers/BSP/Components/iis2dlpc/iis2dlpc_reg.c **** }
 4820              		.loc 1 2007 3 is_stmt 1 view .LVU1286
2007:Drivers/BSP/Components/iis2dlpc/iis2dlpc_reg.c **** }
 4821              		.loc 1 2007 10 is_stmt 0 view .LVU1287
 4822 0030 F0E7     		b	.L327
 4823              		.cfi_endproc
 4824              	.LFE71:
 4826              		.section	.text.iis2dlpc_wkup_feed_data_get,"ax",%progbits
ARM GAS  C:\Temp\ccGZlXNO.s 			page 127


 4827              		.align	1
 4828              		.global	iis2dlpc_wkup_feed_data_get
 4829              		.syntax unified
 4830              		.thumb
 4831              		.thumb_func
 4833              	iis2dlpc_wkup_feed_data_get:
 4834              	.LVL355:
 4835              	.LFB72:
2009:Drivers/BSP/Components/iis2dlpc/iis2dlpc_reg.c **** 
2010:Drivers/BSP/Components/iis2dlpc/iis2dlpc_reg.c **** /**
2011:Drivers/BSP/Components/iis2dlpc/iis2dlpc_reg.c ****   * @brief  Data sent to wake-up interrupt function.[get]
2012:Drivers/BSP/Components/iis2dlpc/iis2dlpc_reg.c ****   *
2013:Drivers/BSP/Components/iis2dlpc/iis2dlpc_reg.c ****   * @param  ctx      read / write interface definitions
2014:Drivers/BSP/Components/iis2dlpc/iis2dlpc_reg.c ****   * @param  val      Get the values of usr_off_on_wu in reg CTRL_REG7
2015:Drivers/BSP/Components/iis2dlpc/iis2dlpc_reg.c ****   * @retval          interface status (MANDATORY: return 0 -> no Error)
2016:Drivers/BSP/Components/iis2dlpc/iis2dlpc_reg.c ****   *
2017:Drivers/BSP/Components/iis2dlpc/iis2dlpc_reg.c ****   */
2018:Drivers/BSP/Components/iis2dlpc/iis2dlpc_reg.c **** int32_t iis2dlpc_wkup_feed_data_get(const stmdev_ctx_t *ctx,
2019:Drivers/BSP/Components/iis2dlpc/iis2dlpc_reg.c ****                                     iis2dlpc_usr_off_on_wu_t *val)
2020:Drivers/BSP/Components/iis2dlpc/iis2dlpc_reg.c **** {
 4836              		.loc 1 2020 1 is_stmt 1 view -0
 4837              		.cfi_startproc
 4838              		@ args = 0, pretend = 0, frame = 8
 4839              		@ frame_needed = 0, uses_anonymous_args = 0
 4840              		.loc 1 2020 1 is_stmt 0 view .LVU1289
 4841 0000 10B5     		push	{r4, lr}
 4842              		.cfi_def_cfa_offset 8
 4843              		.cfi_offset 4, -8
 4844              		.cfi_offset 14, -4
 4845 0002 82B0     		sub	sp, sp, #8
 4846              		.cfi_def_cfa_offset 16
 4847 0004 0C46     		mov	r4, r1
2021:Drivers/BSP/Components/iis2dlpc/iis2dlpc_reg.c ****   iis2dlpc_ctrl7_t reg;
 4848              		.loc 1 2021 3 is_stmt 1 view .LVU1290
2022:Drivers/BSP/Components/iis2dlpc/iis2dlpc_reg.c ****   int32_t ret;
 4849              		.loc 1 2022 3 view .LVU1291
2023:Drivers/BSP/Components/iis2dlpc/iis2dlpc_reg.c **** 
2024:Drivers/BSP/Components/iis2dlpc/iis2dlpc_reg.c ****   ret = iis2dlpc_read_reg(ctx, IIS2DLPC_CTRL7, (uint8_t *) &reg, 1);
 4850              		.loc 1 2024 3 view .LVU1292
 4851              		.loc 1 2024 9 is_stmt 0 view .LVU1293
 4852 0006 0123     		movs	r3, #1
 4853 0008 01AA     		add	r2, sp, #4
 4854 000a 3F21     		movs	r1, #63
 4855              	.LVL356:
 4856              		.loc 1 2024 9 view .LVU1294
 4857 000c FFF7FEFF 		bl	iis2dlpc_read_reg
 4858              	.LVL357:
2025:Drivers/BSP/Components/iis2dlpc/iis2dlpc_reg.c **** 
2026:Drivers/BSP/Components/iis2dlpc/iis2dlpc_reg.c ****   switch (reg.usr_off_on_wu)
 4859              		.loc 1 2026 3 is_stmt 1 view .LVU1295
 4860              		.loc 1 2026 14 is_stmt 0 view .LVU1296
 4861 0010 9DF80430 		ldrb	r3, [sp, #4]	@ zero_extendqisi2
 4862 0014 C3F3C002 		ubfx	r2, r3, #3, #1
 4863              		.loc 1 2026 3 view .LVU1297
 4864 0018 13F0080F 		tst	r3, #8
 4865 001c 03D0     		beq	.L332
 4866 001e 32B9     		cbnz	r2, .L333
ARM GAS  C:\Temp\ccGZlXNO.s 			page 128


2027:Drivers/BSP/Components/iis2dlpc/iis2dlpc_reg.c ****   {
2028:Drivers/BSP/Components/iis2dlpc/iis2dlpc_reg.c ****     case IIS2DLPC_HP_FEED:
2029:Drivers/BSP/Components/iis2dlpc/iis2dlpc_reg.c ****       *val = IIS2DLPC_HP_FEED;
2030:Drivers/BSP/Components/iis2dlpc/iis2dlpc_reg.c ****       break;
2031:Drivers/BSP/Components/iis2dlpc/iis2dlpc_reg.c **** 
2032:Drivers/BSP/Components/iis2dlpc/iis2dlpc_reg.c ****     case IIS2DLPC_USER_OFFSET_FEED:
2033:Drivers/BSP/Components/iis2dlpc/iis2dlpc_reg.c ****       *val = IIS2DLPC_USER_OFFSET_FEED;
2034:Drivers/BSP/Components/iis2dlpc/iis2dlpc_reg.c ****       break;
2035:Drivers/BSP/Components/iis2dlpc/iis2dlpc_reg.c **** 
2036:Drivers/BSP/Components/iis2dlpc/iis2dlpc_reg.c ****     default:
2037:Drivers/BSP/Components/iis2dlpc/iis2dlpc_reg.c ****       *val = IIS2DLPC_HP_FEED;
 4867              		.loc 1 2037 7 is_stmt 1 view .LVU1298
 4868              		.loc 1 2037 12 is_stmt 0 view .LVU1299
 4869 0020 0023     		movs	r3, #0
 4870 0022 2370     		strb	r3, [r4]
2038:Drivers/BSP/Components/iis2dlpc/iis2dlpc_reg.c ****       break;
 4871              		.loc 1 2038 7 is_stmt 1 view .LVU1300
2039:Drivers/BSP/Components/iis2dlpc/iis2dlpc_reg.c ****   }
2040:Drivers/BSP/Components/iis2dlpc/iis2dlpc_reg.c **** 
2041:Drivers/BSP/Components/iis2dlpc/iis2dlpc_reg.c ****   return ret;
 4872              		.loc 1 2041 3 view .LVU1301
 4873              		.loc 1 2041 10 is_stmt 0 view .LVU1302
 4874 0024 01E0     		b	.L331
 4875              	.L332:
2029:Drivers/BSP/Components/iis2dlpc/iis2dlpc_reg.c ****       break;
 4876              		.loc 1 2029 7 is_stmt 1 view .LVU1303
2029:Drivers/BSP/Components/iis2dlpc/iis2dlpc_reg.c ****       break;
 4877              		.loc 1 2029 12 is_stmt 0 view .LVU1304
 4878 0026 0023     		movs	r3, #0
 4879 0028 2370     		strb	r3, [r4]
2030:Drivers/BSP/Components/iis2dlpc/iis2dlpc_reg.c **** 
 4880              		.loc 1 2030 7 is_stmt 1 view .LVU1305
 4881              	.L331:
2042:Drivers/BSP/Components/iis2dlpc/iis2dlpc_reg.c **** }
 4882              		.loc 1 2042 1 is_stmt 0 view .LVU1306
 4883 002a 02B0     		add	sp, sp, #8
 4884              		.cfi_remember_state
 4885              		.cfi_def_cfa_offset 8
 4886              		@ sp needed
 4887 002c 10BD     		pop	{r4, pc}
 4888              	.LVL358:
 4889              	.L333:
 4890              		.cfi_restore_state
2033:Drivers/BSP/Components/iis2dlpc/iis2dlpc_reg.c ****       break;
 4891              		.loc 1 2033 7 is_stmt 1 view .LVU1307
2033:Drivers/BSP/Components/iis2dlpc/iis2dlpc_reg.c ****       break;
 4892              		.loc 1 2033 12 is_stmt 0 view .LVU1308
 4893 002e 0123     		movs	r3, #1
 4894 0030 2370     		strb	r3, [r4]
2034:Drivers/BSP/Components/iis2dlpc/iis2dlpc_reg.c **** 
 4895              		.loc 1 2034 7 is_stmt 1 view .LVU1309
 4896 0032 FAE7     		b	.L331
 4897              		.cfi_endproc
 4898              	.LFE72:
 4900              		.section	.text.iis2dlpc_act_mode_set,"ax",%progbits
 4901              		.align	1
 4902              		.global	iis2dlpc_act_mode_set
ARM GAS  C:\Temp\ccGZlXNO.s 			page 129


 4903              		.syntax unified
 4904              		.thumb
 4905              		.thumb_func
 4907              	iis2dlpc_act_mode_set:
 4908              	.LVL359:
 4909              	.LFB73:
2043:Drivers/BSP/Components/iis2dlpc/iis2dlpc_reg.c **** 
2044:Drivers/BSP/Components/iis2dlpc/iis2dlpc_reg.c **** /**
2045:Drivers/BSP/Components/iis2dlpc/iis2dlpc_reg.c ****   * @}
2046:Drivers/BSP/Components/iis2dlpc/iis2dlpc_reg.c ****   *
2047:Drivers/BSP/Components/iis2dlpc/iis2dlpc_reg.c ****   */
2048:Drivers/BSP/Components/iis2dlpc/iis2dlpc_reg.c **** 
2049:Drivers/BSP/Components/iis2dlpc/iis2dlpc_reg.c **** /**
2050:Drivers/BSP/Components/iis2dlpc/iis2dlpc_reg.c ****   * @defgroup   IIS2DLPC_Activity/Inactivity_Detection
2051:Drivers/BSP/Components/iis2dlpc/iis2dlpc_reg.c ****   * @brief      This section groups all the functions concerning
2052:Drivers/BSP/Components/iis2dlpc/iis2dlpc_reg.c ****   *             activity/inactivity detection.
2053:Drivers/BSP/Components/iis2dlpc/iis2dlpc_reg.c ****   * @{
2054:Drivers/BSP/Components/iis2dlpc/iis2dlpc_reg.c ****   *
2055:Drivers/BSP/Components/iis2dlpc/iis2dlpc_reg.c ****   */
2056:Drivers/BSP/Components/iis2dlpc/iis2dlpc_reg.c **** 
2057:Drivers/BSP/Components/iis2dlpc/iis2dlpc_reg.c **** /**
2058:Drivers/BSP/Components/iis2dlpc/iis2dlpc_reg.c ****   * @brief  Config activity / inactivity or
2059:Drivers/BSP/Components/iis2dlpc/iis2dlpc_reg.c ****   *         stationary / motion detection.[set]
2060:Drivers/BSP/Components/iis2dlpc/iis2dlpc_reg.c ****   *
2061:Drivers/BSP/Components/iis2dlpc/iis2dlpc_reg.c ****   * @param  ctx      read / write interface definitions
2062:Drivers/BSP/Components/iis2dlpc/iis2dlpc_reg.c ****   * @param  val      change the values of sleep_on / stationary in
2063:Drivers/BSP/Components/iis2dlpc/iis2dlpc_reg.c ****   *                  reg WAKE_UP_THS / WAKE_UP_DUR
2064:Drivers/BSP/Components/iis2dlpc/iis2dlpc_reg.c ****   * @retval          interface status (MANDATORY: return 0 -> no Error)
2065:Drivers/BSP/Components/iis2dlpc/iis2dlpc_reg.c ****   *
2066:Drivers/BSP/Components/iis2dlpc/iis2dlpc_reg.c ****   */
2067:Drivers/BSP/Components/iis2dlpc/iis2dlpc_reg.c **** int32_t iis2dlpc_act_mode_set(const stmdev_ctx_t *ctx,
2068:Drivers/BSP/Components/iis2dlpc/iis2dlpc_reg.c ****                               iis2dlpc_sleep_on_t val)
2069:Drivers/BSP/Components/iis2dlpc/iis2dlpc_reg.c **** {
 4910              		.loc 1 2069 1 view -0
 4911              		.cfi_startproc
 4912              		@ args = 0, pretend = 0, frame = 8
 4913              		@ frame_needed = 0, uses_anonymous_args = 0
 4914              		.loc 1 2069 1 is_stmt 0 view .LVU1311
 4915 0000 30B5     		push	{r4, r5, lr}
 4916              		.cfi_def_cfa_offset 12
 4917              		.cfi_offset 4, -12
 4918              		.cfi_offset 5, -8
 4919              		.cfi_offset 14, -4
 4920 0002 83B0     		sub	sp, sp, #12
 4921              		.cfi_def_cfa_offset 24
 4922 0004 0546     		mov	r5, r0
 4923 0006 0C46     		mov	r4, r1
2070:Drivers/BSP/Components/iis2dlpc/iis2dlpc_reg.c ****   iis2dlpc_wake_up_ths_t wake_up_ths;
 4924              		.loc 1 2070 3 is_stmt 1 view .LVU1312
2071:Drivers/BSP/Components/iis2dlpc/iis2dlpc_reg.c ****   iis2dlpc_wake_up_dur_t wake_up_dur;
 4925              		.loc 1 2071 3 view .LVU1313
2072:Drivers/BSP/Components/iis2dlpc/iis2dlpc_reg.c ****   int32_t ret;
 4926              		.loc 1 2072 3 view .LVU1314
2073:Drivers/BSP/Components/iis2dlpc/iis2dlpc_reg.c **** 
2074:Drivers/BSP/Components/iis2dlpc/iis2dlpc_reg.c ****   ret = iis2dlpc_read_reg(ctx, IIS2DLPC_WAKE_UP_THS,
 4927              		.loc 1 2074 3 view .LVU1315
 4928              		.loc 1 2074 9 is_stmt 0 view .LVU1316
ARM GAS  C:\Temp\ccGZlXNO.s 			page 130


 4929 0008 0123     		movs	r3, #1
 4930 000a 01AA     		add	r2, sp, #4
 4931 000c 3421     		movs	r1, #52
 4932              	.LVL360:
 4933              		.loc 1 2074 9 view .LVU1317
 4934 000e FFF7FEFF 		bl	iis2dlpc_read_reg
 4935              	.LVL361:
2075:Drivers/BSP/Components/iis2dlpc/iis2dlpc_reg.c ****                           (uint8_t *) &wake_up_ths, 1);
2076:Drivers/BSP/Components/iis2dlpc/iis2dlpc_reg.c **** 
2077:Drivers/BSP/Components/iis2dlpc/iis2dlpc_reg.c ****   if (ret == 0)
 4936              		.loc 1 2077 3 is_stmt 1 view .LVU1318
 4937              		.loc 1 2077 6 is_stmt 0 view .LVU1319
 4938 0012 08B1     		cbz	r0, .L341
 4939              	.LVL362:
 4940              	.L338:
2078:Drivers/BSP/Components/iis2dlpc/iis2dlpc_reg.c ****   {
2079:Drivers/BSP/Components/iis2dlpc/iis2dlpc_reg.c ****     ret = iis2dlpc_read_reg(ctx, IIS2DLPC_WAKE_UP_DUR,
2080:Drivers/BSP/Components/iis2dlpc/iis2dlpc_reg.c ****                             (uint8_t *) &wake_up_dur, 1);
2081:Drivers/BSP/Components/iis2dlpc/iis2dlpc_reg.c ****   }
2082:Drivers/BSP/Components/iis2dlpc/iis2dlpc_reg.c **** 
2083:Drivers/BSP/Components/iis2dlpc/iis2dlpc_reg.c ****   if (ret == 0)
2084:Drivers/BSP/Components/iis2dlpc/iis2dlpc_reg.c ****   {
2085:Drivers/BSP/Components/iis2dlpc/iis2dlpc_reg.c ****     wake_up_ths.sleep_on = (uint8_t) val & 0x01U;
2086:Drivers/BSP/Components/iis2dlpc/iis2dlpc_reg.c ****     wake_up_dur.stationary = ((uint8_t)val & 0x02U) >> 1;
2087:Drivers/BSP/Components/iis2dlpc/iis2dlpc_reg.c ****     ret = iis2dlpc_write_reg(ctx, IIS2DLPC_WAKE_UP_THS,
2088:Drivers/BSP/Components/iis2dlpc/iis2dlpc_reg.c ****                              (uint8_t *) &wake_up_ths, 2);
2089:Drivers/BSP/Components/iis2dlpc/iis2dlpc_reg.c ****   }
2090:Drivers/BSP/Components/iis2dlpc/iis2dlpc_reg.c **** 
2091:Drivers/BSP/Components/iis2dlpc/iis2dlpc_reg.c ****   else
2092:Drivers/BSP/Components/iis2dlpc/iis2dlpc_reg.c ****   {
2093:Drivers/BSP/Components/iis2dlpc/iis2dlpc_reg.c ****     ret = ret;
2094:Drivers/BSP/Components/iis2dlpc/iis2dlpc_reg.c ****   }
2095:Drivers/BSP/Components/iis2dlpc/iis2dlpc_reg.c **** 
2096:Drivers/BSP/Components/iis2dlpc/iis2dlpc_reg.c ****   return ret;
2097:Drivers/BSP/Components/iis2dlpc/iis2dlpc_reg.c **** }
 4941              		.loc 1 2097 1 view .LVU1320
 4942 0014 03B0     		add	sp, sp, #12
 4943              		.cfi_remember_state
 4944              		.cfi_def_cfa_offset 12
 4945              		@ sp needed
 4946 0016 30BD     		pop	{r4, r5, pc}
 4947              	.LVL363:
 4948              	.L341:
 4949              		.cfi_restore_state
2079:Drivers/BSP/Components/iis2dlpc/iis2dlpc_reg.c ****                             (uint8_t *) &wake_up_dur, 1);
 4950              		.loc 1 2079 5 is_stmt 1 view .LVU1321
2079:Drivers/BSP/Components/iis2dlpc/iis2dlpc_reg.c ****                             (uint8_t *) &wake_up_dur, 1);
 4951              		.loc 1 2079 11 is_stmt 0 view .LVU1322
 4952 0018 0123     		movs	r3, #1
 4953              	.LVL364:
2079:Drivers/BSP/Components/iis2dlpc/iis2dlpc_reg.c ****                             (uint8_t *) &wake_up_dur, 1);
 4954              		.loc 1 2079 11 view .LVU1323
 4955 001a 6A46     		mov	r2, sp
 4956 001c 3521     		movs	r1, #53
 4957 001e 2846     		mov	r0, r5
 4958 0020 FFF7FEFF 		bl	iis2dlpc_read_reg
 4959              	.LVL365:
ARM GAS  C:\Temp\ccGZlXNO.s 			page 131


2083:Drivers/BSP/Components/iis2dlpc/iis2dlpc_reg.c ****   {
 4960              		.loc 1 2083 3 is_stmt 1 view .LVU1324
2083:Drivers/BSP/Components/iis2dlpc/iis2dlpc_reg.c ****   {
 4961              		.loc 1 2083 6 is_stmt 0 view .LVU1325
 4962 0024 0028     		cmp	r0, #0
 4963 0026 F5D1     		bne	.L338
2085:Drivers/BSP/Components/iis2dlpc/iis2dlpc_reg.c ****     wake_up_dur.stationary = ((uint8_t)val & 0x02U) >> 1;
 4964              		.loc 1 2085 5 is_stmt 1 view .LVU1326
2085:Drivers/BSP/Components/iis2dlpc/iis2dlpc_reg.c ****     wake_up_dur.stationary = ((uint8_t)val & 0x02U) >> 1;
 4965              		.loc 1 2085 26 is_stmt 0 view .LVU1327
 4966 0028 9DF80430 		ldrb	r3, [sp, #4]	@ zero_extendqisi2
 4967 002c 64F38613 		bfi	r3, r4, #6, #1
 4968 0030 8DF80430 		strb	r3, [sp, #4]
2086:Drivers/BSP/Components/iis2dlpc/iis2dlpc_reg.c ****     ret = iis2dlpc_write_reg(ctx, IIS2DLPC_WAKE_UP_THS,
 4969              		.loc 1 2086 5 is_stmt 1 view .LVU1328
2086:Drivers/BSP/Components/iis2dlpc/iis2dlpc_reg.c ****     ret = iis2dlpc_write_reg(ctx, IIS2DLPC_WAKE_UP_THS,
 4970              		.loc 1 2086 53 is_stmt 0 view .LVU1329
 4971 0034 C4F34001 		ubfx	r1, r4, #1, #1
2086:Drivers/BSP/Components/iis2dlpc/iis2dlpc_reg.c ****     ret = iis2dlpc_write_reg(ctx, IIS2DLPC_WAKE_UP_THS,
 4972              		.loc 1 2086 28 view .LVU1330
 4973 0038 9DF80030 		ldrb	r3, [sp]	@ zero_extendqisi2
 4974 003c 61F30413 		bfi	r3, r1, #4, #1
 4975 0040 8DF80030 		strb	r3, [sp]
2087:Drivers/BSP/Components/iis2dlpc/iis2dlpc_reg.c ****                              (uint8_t *) &wake_up_ths, 2);
 4976              		.loc 1 2087 5 is_stmt 1 view .LVU1331
2087:Drivers/BSP/Components/iis2dlpc/iis2dlpc_reg.c ****                              (uint8_t *) &wake_up_ths, 2);
 4977              		.loc 1 2087 11 is_stmt 0 view .LVU1332
 4978 0044 0223     		movs	r3, #2
 4979 0046 01AA     		add	r2, sp, #4
 4980 0048 3421     		movs	r1, #52
 4981 004a 2846     		mov	r0, r5
 4982              	.LVL366:
2087:Drivers/BSP/Components/iis2dlpc/iis2dlpc_reg.c ****                              (uint8_t *) &wake_up_ths, 2);
 4983              		.loc 1 2087 11 view .LVU1333
 4984 004c FFF7FEFF 		bl	iis2dlpc_write_reg
 4985              	.LVL367:
2096:Drivers/BSP/Components/iis2dlpc/iis2dlpc_reg.c **** }
 4986              		.loc 1 2096 3 is_stmt 1 view .LVU1334
2096:Drivers/BSP/Components/iis2dlpc/iis2dlpc_reg.c **** }
 4987              		.loc 1 2096 10 is_stmt 0 view .LVU1335
 4988 0050 E0E7     		b	.L338
 4989              		.cfi_endproc
 4990              	.LFE73:
 4992              		.section	.text.iis2dlpc_act_mode_get,"ax",%progbits
 4993              		.align	1
 4994              		.global	iis2dlpc_act_mode_get
 4995              		.syntax unified
 4996              		.thumb
 4997              		.thumb_func
 4999              	iis2dlpc_act_mode_get:
 5000              	.LVL368:
 5001              	.LFB74:
2098:Drivers/BSP/Components/iis2dlpc/iis2dlpc_reg.c **** 
2099:Drivers/BSP/Components/iis2dlpc/iis2dlpc_reg.c **** /**
2100:Drivers/BSP/Components/iis2dlpc/iis2dlpc_reg.c ****   * @brief  Config activity / inactivity or
2101:Drivers/BSP/Components/iis2dlpc/iis2dlpc_reg.c ****   *         stationary / motion detection. [get]
2102:Drivers/BSP/Components/iis2dlpc/iis2dlpc_reg.c ****   *
ARM GAS  C:\Temp\ccGZlXNO.s 			page 132


2103:Drivers/BSP/Components/iis2dlpc/iis2dlpc_reg.c ****   * @param  ctx      read / write interface definitions
2104:Drivers/BSP/Components/iis2dlpc/iis2dlpc_reg.c ****   * @param  val      Get the values of sleep_on in reg WAKE_UP_THS
2105:Drivers/BSP/Components/iis2dlpc/iis2dlpc_reg.c ****   * @retval          interface status (MANDATORY: return 0 -> no Error)
2106:Drivers/BSP/Components/iis2dlpc/iis2dlpc_reg.c ****   *
2107:Drivers/BSP/Components/iis2dlpc/iis2dlpc_reg.c ****   */
2108:Drivers/BSP/Components/iis2dlpc/iis2dlpc_reg.c **** int32_t iis2dlpc_act_mode_get(const stmdev_ctx_t *ctx,
2109:Drivers/BSP/Components/iis2dlpc/iis2dlpc_reg.c ****                               iis2dlpc_sleep_on_t *val)
2110:Drivers/BSP/Components/iis2dlpc/iis2dlpc_reg.c **** {
 5002              		.loc 1 2110 1 is_stmt 1 view -0
 5003              		.cfi_startproc
 5004              		@ args = 0, pretend = 0, frame = 8
 5005              		@ frame_needed = 0, uses_anonymous_args = 0
 5006              		.loc 1 2110 1 is_stmt 0 view .LVU1337
 5007 0000 30B5     		push	{r4, r5, lr}
 5008              		.cfi_def_cfa_offset 12
 5009              		.cfi_offset 4, -12
 5010              		.cfi_offset 5, -8
 5011              		.cfi_offset 14, -4
 5012 0002 83B0     		sub	sp, sp, #12
 5013              		.cfi_def_cfa_offset 24
 5014 0004 0446     		mov	r4, r0
 5015 0006 0D46     		mov	r5, r1
2111:Drivers/BSP/Components/iis2dlpc/iis2dlpc_reg.c ****   iis2dlpc_wake_up_ths_t wake_up_ths;
 5016              		.loc 1 2111 3 is_stmt 1 view .LVU1338
2112:Drivers/BSP/Components/iis2dlpc/iis2dlpc_reg.c ****   iis2dlpc_wake_up_dur_t wake_up_dur;;
 5017              		.loc 1 2112 3 view .LVU1339
 5018              		.loc 1 2112 38 view .LVU1340
2113:Drivers/BSP/Components/iis2dlpc/iis2dlpc_reg.c ****   int32_t ret;
 5019              		.loc 1 2113 3 view .LVU1341
2114:Drivers/BSP/Components/iis2dlpc/iis2dlpc_reg.c **** 
2115:Drivers/BSP/Components/iis2dlpc/iis2dlpc_reg.c ****   ret = iis2dlpc_read_reg(ctx, IIS2DLPC_WAKE_UP_THS,
 5020              		.loc 1 2115 3 view .LVU1342
 5021              		.loc 1 2115 9 is_stmt 0 view .LVU1343
 5022 0008 0123     		movs	r3, #1
 5023 000a 01AA     		add	r2, sp, #4
 5024 000c 3421     		movs	r1, #52
 5025              	.LVL369:
 5026              		.loc 1 2115 9 view .LVU1344
 5027 000e FFF7FEFF 		bl	iis2dlpc_read_reg
 5028              	.LVL370:
2116:Drivers/BSP/Components/iis2dlpc/iis2dlpc_reg.c ****                           (uint8_t *) &wake_up_ths, 1);
2117:Drivers/BSP/Components/iis2dlpc/iis2dlpc_reg.c **** 
2118:Drivers/BSP/Components/iis2dlpc/iis2dlpc_reg.c ****   if (ret == 0)
 5029              		.loc 1 2118 3 is_stmt 1 view .LVU1345
 5030              		.loc 1 2118 6 is_stmt 0 view .LVU1346
 5031 0012 08B1     		cbz	r0, .L348
 5032              	.LVL371:
 5033              	.L342:
2119:Drivers/BSP/Components/iis2dlpc/iis2dlpc_reg.c ****   {
2120:Drivers/BSP/Components/iis2dlpc/iis2dlpc_reg.c ****     ret = iis2dlpc_read_reg(ctx, IIS2DLPC_WAKE_UP_DUR,
2121:Drivers/BSP/Components/iis2dlpc/iis2dlpc_reg.c ****                             (uint8_t *) &wake_up_dur, 1);
2122:Drivers/BSP/Components/iis2dlpc/iis2dlpc_reg.c **** 
2123:Drivers/BSP/Components/iis2dlpc/iis2dlpc_reg.c ****     switch ((wake_up_dur.stationary << 1) + wake_up_ths.sleep_on)
2124:Drivers/BSP/Components/iis2dlpc/iis2dlpc_reg.c ****     {
2125:Drivers/BSP/Components/iis2dlpc/iis2dlpc_reg.c ****       case IIS2DLPC_NO_DETECTION:
2126:Drivers/BSP/Components/iis2dlpc/iis2dlpc_reg.c ****         *val = IIS2DLPC_NO_DETECTION;
2127:Drivers/BSP/Components/iis2dlpc/iis2dlpc_reg.c ****         break;
ARM GAS  C:\Temp\ccGZlXNO.s 			page 133


2128:Drivers/BSP/Components/iis2dlpc/iis2dlpc_reg.c **** 
2129:Drivers/BSP/Components/iis2dlpc/iis2dlpc_reg.c ****       case IIS2DLPC_DETECT_ACT_INACT:
2130:Drivers/BSP/Components/iis2dlpc/iis2dlpc_reg.c ****         *val = IIS2DLPC_DETECT_ACT_INACT;
2131:Drivers/BSP/Components/iis2dlpc/iis2dlpc_reg.c ****         break;
2132:Drivers/BSP/Components/iis2dlpc/iis2dlpc_reg.c **** 
2133:Drivers/BSP/Components/iis2dlpc/iis2dlpc_reg.c ****       case IIS2DLPC_DETECT_STAT_MOTION:
2134:Drivers/BSP/Components/iis2dlpc/iis2dlpc_reg.c ****         *val = IIS2DLPC_DETECT_STAT_MOTION;
2135:Drivers/BSP/Components/iis2dlpc/iis2dlpc_reg.c ****         break;
2136:Drivers/BSP/Components/iis2dlpc/iis2dlpc_reg.c **** 
2137:Drivers/BSP/Components/iis2dlpc/iis2dlpc_reg.c ****       default:
2138:Drivers/BSP/Components/iis2dlpc/iis2dlpc_reg.c ****         *val = IIS2DLPC_NO_DETECTION;
2139:Drivers/BSP/Components/iis2dlpc/iis2dlpc_reg.c ****         break;
2140:Drivers/BSP/Components/iis2dlpc/iis2dlpc_reg.c ****     }
2141:Drivers/BSP/Components/iis2dlpc/iis2dlpc_reg.c ****   }
2142:Drivers/BSP/Components/iis2dlpc/iis2dlpc_reg.c **** 
2143:Drivers/BSP/Components/iis2dlpc/iis2dlpc_reg.c ****   return ret;
2144:Drivers/BSP/Components/iis2dlpc/iis2dlpc_reg.c **** }
 5034              		.loc 1 2144 1 view .LVU1347
 5035 0014 03B0     		add	sp, sp, #12
 5036              		.cfi_remember_state
 5037              		.cfi_def_cfa_offset 12
 5038              		@ sp needed
 5039 0016 30BD     		pop	{r4, r5, pc}
 5040              	.LVL372:
 5041              	.L348:
 5042              		.cfi_restore_state
2120:Drivers/BSP/Components/iis2dlpc/iis2dlpc_reg.c ****                             (uint8_t *) &wake_up_dur, 1);
 5043              		.loc 1 2120 5 is_stmt 1 view .LVU1348
2120:Drivers/BSP/Components/iis2dlpc/iis2dlpc_reg.c ****                             (uint8_t *) &wake_up_dur, 1);
 5044              		.loc 1 2120 11 is_stmt 0 view .LVU1349
 5045 0018 0123     		movs	r3, #1
 5046              	.LVL373:
2120:Drivers/BSP/Components/iis2dlpc/iis2dlpc_reg.c ****                             (uint8_t *) &wake_up_dur, 1);
 5047              		.loc 1 2120 11 view .LVU1350
 5048 001a 6A46     		mov	r2, sp
 5049 001c 3521     		movs	r1, #53
 5050 001e 2046     		mov	r0, r4
 5051 0020 FFF7FEFF 		bl	iis2dlpc_read_reg
 5052              	.LVL374:
2123:Drivers/BSP/Components/iis2dlpc/iis2dlpc_reg.c ****     {
 5053              		.loc 1 2123 5 is_stmt 1 view .LVU1351
2123:Drivers/BSP/Components/iis2dlpc/iis2dlpc_reg.c ****     {
 5054              		.loc 1 2123 25 is_stmt 0 view .LVU1352
 5055 0024 9DF80020 		ldrb	r2, [sp]	@ zero_extendqisi2
 5056 0028 C2F30012 		ubfx	r2, r2, #4, #1
2123:Drivers/BSP/Components/iis2dlpc/iis2dlpc_reg.c ****     {
 5057              		.loc 1 2123 56 view .LVU1353
 5058 002c 9DF80430 		ldrb	r3, [sp, #4]	@ zero_extendqisi2
 5059 0030 C3F38013 		ubfx	r3, r3, #6, #1
2123:Drivers/BSP/Components/iis2dlpc/iis2dlpc_reg.c ****     {
 5060              		.loc 1 2123 43 view .LVU1354
 5061 0034 03EB4203 		add	r3, r3, r2, lsl #1
2123:Drivers/BSP/Components/iis2dlpc/iis2dlpc_reg.c ****     {
 5062              		.loc 1 2123 5 view .LVU1355
 5063 0038 012B     		cmp	r3, #1
 5064 003a 07D0     		beq	.L344
 5065 003c 032B     		cmp	r3, #3
ARM GAS  C:\Temp\ccGZlXNO.s 			page 134


 5066 003e 08D0     		beq	.L345
 5067 0040 13B1     		cbz	r3, .L349
2138:Drivers/BSP/Components/iis2dlpc/iis2dlpc_reg.c ****         break;
 5068              		.loc 1 2138 9 is_stmt 1 view .LVU1356
2138:Drivers/BSP/Components/iis2dlpc/iis2dlpc_reg.c ****         break;
 5069              		.loc 1 2138 14 is_stmt 0 view .LVU1357
 5070 0042 0023     		movs	r3, #0
 5071 0044 2B70     		strb	r3, [r5]
2139:Drivers/BSP/Components/iis2dlpc/iis2dlpc_reg.c ****     }
 5072              		.loc 1 2139 9 is_stmt 1 view .LVU1358
2143:Drivers/BSP/Components/iis2dlpc/iis2dlpc_reg.c **** }
 5073              		.loc 1 2143 3 view .LVU1359
2143:Drivers/BSP/Components/iis2dlpc/iis2dlpc_reg.c **** }
 5074              		.loc 1 2143 10 is_stmt 0 view .LVU1360
 5075 0046 E5E7     		b	.L342
 5076              	.L349:
2126:Drivers/BSP/Components/iis2dlpc/iis2dlpc_reg.c ****         break;
 5077              		.loc 1 2126 9 is_stmt 1 view .LVU1361
2126:Drivers/BSP/Components/iis2dlpc/iis2dlpc_reg.c ****         break;
 5078              		.loc 1 2126 14 is_stmt 0 view .LVU1362
 5079 0048 2B70     		strb	r3, [r5]
2127:Drivers/BSP/Components/iis2dlpc/iis2dlpc_reg.c **** 
 5080              		.loc 1 2127 9 is_stmt 1 view .LVU1363
 5081 004a E3E7     		b	.L342
 5082              	.L344:
2130:Drivers/BSP/Components/iis2dlpc/iis2dlpc_reg.c ****         break;
 5083              		.loc 1 2130 9 view .LVU1364
2130:Drivers/BSP/Components/iis2dlpc/iis2dlpc_reg.c ****         break;
 5084              		.loc 1 2130 14 is_stmt 0 view .LVU1365
 5085 004c 0123     		movs	r3, #1
 5086 004e 2B70     		strb	r3, [r5]
2131:Drivers/BSP/Components/iis2dlpc/iis2dlpc_reg.c **** 
 5087              		.loc 1 2131 9 is_stmt 1 view .LVU1366
 5088 0050 E0E7     		b	.L342
 5089              	.L345:
2134:Drivers/BSP/Components/iis2dlpc/iis2dlpc_reg.c ****         break;
 5090              		.loc 1 2134 9 view .LVU1367
2134:Drivers/BSP/Components/iis2dlpc/iis2dlpc_reg.c ****         break;
 5091              		.loc 1 2134 14 is_stmt 0 view .LVU1368
 5092 0052 0323     		movs	r3, #3
 5093 0054 2B70     		strb	r3, [r5]
2135:Drivers/BSP/Components/iis2dlpc/iis2dlpc_reg.c **** 
 5094              		.loc 1 2135 9 is_stmt 1 view .LVU1369
 5095 0056 DDE7     		b	.L342
 5096              		.cfi_endproc
 5097              	.LFE74:
 5099              		.section	.text.iis2dlpc_act_sleep_dur_set,"ax",%progbits
 5100              		.align	1
 5101              		.global	iis2dlpc_act_sleep_dur_set
 5102              		.syntax unified
 5103              		.thumb
 5104              		.thumb_func
 5106              	iis2dlpc_act_sleep_dur_set:
 5107              	.LVL375:
 5108              	.LFB75:
2145:Drivers/BSP/Components/iis2dlpc/iis2dlpc_reg.c **** 
2146:Drivers/BSP/Components/iis2dlpc/iis2dlpc_reg.c **** /**
ARM GAS  C:\Temp\ccGZlXNO.s 			page 135


2147:Drivers/BSP/Components/iis2dlpc/iis2dlpc_reg.c ****   * @brief  Duration to go in sleep mode (1 LSb = 512 / ODR).[set]
2148:Drivers/BSP/Components/iis2dlpc/iis2dlpc_reg.c ****   *
2149:Drivers/BSP/Components/iis2dlpc/iis2dlpc_reg.c ****   * @param  ctx      read / write interface definitions
2150:Drivers/BSP/Components/iis2dlpc/iis2dlpc_reg.c ****   * @param  val      change the values of sleep_dur in reg WAKE_UP_DUR
2151:Drivers/BSP/Components/iis2dlpc/iis2dlpc_reg.c ****   * @retval          interface status (MANDATORY: return 0 -> no Error)
2152:Drivers/BSP/Components/iis2dlpc/iis2dlpc_reg.c ****   *
2153:Drivers/BSP/Components/iis2dlpc/iis2dlpc_reg.c ****   */
2154:Drivers/BSP/Components/iis2dlpc/iis2dlpc_reg.c **** int32_t iis2dlpc_act_sleep_dur_set(const stmdev_ctx_t *ctx, uint8_t val)
2155:Drivers/BSP/Components/iis2dlpc/iis2dlpc_reg.c **** {
 5109              		.loc 1 2155 1 view -0
 5110              		.cfi_startproc
 5111              		@ args = 0, pretend = 0, frame = 8
 5112              		@ frame_needed = 0, uses_anonymous_args = 0
 5113              		.loc 1 2155 1 is_stmt 0 view .LVU1371
 5114 0000 30B5     		push	{r4, r5, lr}
 5115              		.cfi_def_cfa_offset 12
 5116              		.cfi_offset 4, -12
 5117              		.cfi_offset 5, -8
 5118              		.cfi_offset 14, -4
 5119 0002 83B0     		sub	sp, sp, #12
 5120              		.cfi_def_cfa_offset 24
 5121 0004 0446     		mov	r4, r0
 5122 0006 0D46     		mov	r5, r1
2156:Drivers/BSP/Components/iis2dlpc/iis2dlpc_reg.c ****   iis2dlpc_wake_up_dur_t reg;
 5123              		.loc 1 2156 3 is_stmt 1 view .LVU1372
2157:Drivers/BSP/Components/iis2dlpc/iis2dlpc_reg.c ****   int32_t ret;
 5124              		.loc 1 2157 3 view .LVU1373
2158:Drivers/BSP/Components/iis2dlpc/iis2dlpc_reg.c **** 
2159:Drivers/BSP/Components/iis2dlpc/iis2dlpc_reg.c ****   ret = iis2dlpc_read_reg(ctx, IIS2DLPC_WAKE_UP_DUR, (uint8_t *) &reg, 1);
 5125              		.loc 1 2159 3 view .LVU1374
 5126              		.loc 1 2159 9 is_stmt 0 view .LVU1375
 5127 0008 0123     		movs	r3, #1
 5128 000a 01AA     		add	r2, sp, #4
 5129 000c 3521     		movs	r1, #53
 5130              	.LVL376:
 5131              		.loc 1 2159 9 view .LVU1376
 5132 000e FFF7FEFF 		bl	iis2dlpc_read_reg
 5133              	.LVL377:
2160:Drivers/BSP/Components/iis2dlpc/iis2dlpc_reg.c **** 
2161:Drivers/BSP/Components/iis2dlpc/iis2dlpc_reg.c ****   if (ret == 0)
 5134              		.loc 1 2161 3 is_stmt 1 view .LVU1377
 5135              		.loc 1 2161 6 is_stmt 0 view .LVU1378
 5136 0012 08B1     		cbz	r0, .L353
 5137              	.LVL378:
 5138              	.L350:
2162:Drivers/BSP/Components/iis2dlpc/iis2dlpc_reg.c ****   {
2163:Drivers/BSP/Components/iis2dlpc/iis2dlpc_reg.c ****     reg.sleep_dur = val;
2164:Drivers/BSP/Components/iis2dlpc/iis2dlpc_reg.c ****     ret = iis2dlpc_write_reg(ctx, IIS2DLPC_WAKE_UP_DUR, (uint8_t *) &reg, 1);
2165:Drivers/BSP/Components/iis2dlpc/iis2dlpc_reg.c ****   }
2166:Drivers/BSP/Components/iis2dlpc/iis2dlpc_reg.c **** 
2167:Drivers/BSP/Components/iis2dlpc/iis2dlpc_reg.c ****   return ret;
2168:Drivers/BSP/Components/iis2dlpc/iis2dlpc_reg.c **** }
 5139              		.loc 1 2168 1 view .LVU1379
 5140 0014 03B0     		add	sp, sp, #12
 5141              		.cfi_remember_state
 5142              		.cfi_def_cfa_offset 12
 5143              		@ sp needed
ARM GAS  C:\Temp\ccGZlXNO.s 			page 136


 5144 0016 30BD     		pop	{r4, r5, pc}
 5145              	.LVL379:
 5146              	.L353:
 5147              		.cfi_restore_state
2163:Drivers/BSP/Components/iis2dlpc/iis2dlpc_reg.c ****     ret = iis2dlpc_write_reg(ctx, IIS2DLPC_WAKE_UP_DUR, (uint8_t *) &reg, 1);
 5148              		.loc 1 2163 5 is_stmt 1 view .LVU1380
2163:Drivers/BSP/Components/iis2dlpc/iis2dlpc_reg.c ****     ret = iis2dlpc_write_reg(ctx, IIS2DLPC_WAKE_UP_DUR, (uint8_t *) &reg, 1);
 5149              		.loc 1 2163 19 is_stmt 0 view .LVU1381
 5150 0018 9DF80430 		ldrb	r3, [sp, #4]	@ zero_extendqisi2
 5151 001c 65F30303 		bfi	r3, r5, #0, #4
 5152 0020 8DF80430 		strb	r3, [sp, #4]
2164:Drivers/BSP/Components/iis2dlpc/iis2dlpc_reg.c ****   }
 5153              		.loc 1 2164 5 is_stmt 1 view .LVU1382
2164:Drivers/BSP/Components/iis2dlpc/iis2dlpc_reg.c ****   }
 5154              		.loc 1 2164 11 is_stmt 0 view .LVU1383
 5155 0024 0123     		movs	r3, #1
 5156              	.LVL380:
2164:Drivers/BSP/Components/iis2dlpc/iis2dlpc_reg.c ****   }
 5157              		.loc 1 2164 11 view .LVU1384
 5158 0026 01AA     		add	r2, sp, #4
 5159 0028 3521     		movs	r1, #53
 5160 002a 2046     		mov	r0, r4
 5161 002c FFF7FEFF 		bl	iis2dlpc_write_reg
 5162              	.LVL381:
2167:Drivers/BSP/Components/iis2dlpc/iis2dlpc_reg.c **** }
 5163              		.loc 1 2167 3 is_stmt 1 view .LVU1385
2167:Drivers/BSP/Components/iis2dlpc/iis2dlpc_reg.c **** }
 5164              		.loc 1 2167 10 is_stmt 0 view .LVU1386
 5165 0030 F0E7     		b	.L350
 5166              		.cfi_endproc
 5167              	.LFE75:
 5169              		.section	.text.iis2dlpc_act_sleep_dur_get,"ax",%progbits
 5170              		.align	1
 5171              		.global	iis2dlpc_act_sleep_dur_get
 5172              		.syntax unified
 5173              		.thumb
 5174              		.thumb_func
 5176              	iis2dlpc_act_sleep_dur_get:
 5177              	.LVL382:
 5178              	.LFB76:
2169:Drivers/BSP/Components/iis2dlpc/iis2dlpc_reg.c **** 
2170:Drivers/BSP/Components/iis2dlpc/iis2dlpc_reg.c **** /**
2171:Drivers/BSP/Components/iis2dlpc/iis2dlpc_reg.c ****   * @brief  Duration to go in sleep mode (1 LSb = 512 / ODR).[get]
2172:Drivers/BSP/Components/iis2dlpc/iis2dlpc_reg.c ****   *
2173:Drivers/BSP/Components/iis2dlpc/iis2dlpc_reg.c ****   * @param  ctx      read / write interface definitions
2174:Drivers/BSP/Components/iis2dlpc/iis2dlpc_reg.c ****   * @param  val      change the values of sleep_dur in reg WAKE_UP_DUR
2175:Drivers/BSP/Components/iis2dlpc/iis2dlpc_reg.c ****   * @retval          interface status (MANDATORY: return 0 -> no Error)
2176:Drivers/BSP/Components/iis2dlpc/iis2dlpc_reg.c ****   *
2177:Drivers/BSP/Components/iis2dlpc/iis2dlpc_reg.c ****   */
2178:Drivers/BSP/Components/iis2dlpc/iis2dlpc_reg.c **** int32_t iis2dlpc_act_sleep_dur_get(const stmdev_ctx_t *ctx, uint8_t *val)
2179:Drivers/BSP/Components/iis2dlpc/iis2dlpc_reg.c **** {
 5179              		.loc 1 2179 1 is_stmt 1 view -0
 5180              		.cfi_startproc
 5181              		@ args = 0, pretend = 0, frame = 8
 5182              		@ frame_needed = 0, uses_anonymous_args = 0
 5183              		.loc 1 2179 1 is_stmt 0 view .LVU1388
 5184 0000 10B5     		push	{r4, lr}
ARM GAS  C:\Temp\ccGZlXNO.s 			page 137


 5185              		.cfi_def_cfa_offset 8
 5186              		.cfi_offset 4, -8
 5187              		.cfi_offset 14, -4
 5188 0002 82B0     		sub	sp, sp, #8
 5189              		.cfi_def_cfa_offset 16
 5190 0004 0C46     		mov	r4, r1
2180:Drivers/BSP/Components/iis2dlpc/iis2dlpc_reg.c ****   iis2dlpc_wake_up_dur_t reg;
 5191              		.loc 1 2180 3 is_stmt 1 view .LVU1389
2181:Drivers/BSP/Components/iis2dlpc/iis2dlpc_reg.c ****   int32_t ret;
 5192              		.loc 1 2181 3 view .LVU1390
2182:Drivers/BSP/Components/iis2dlpc/iis2dlpc_reg.c **** 
2183:Drivers/BSP/Components/iis2dlpc/iis2dlpc_reg.c ****   ret = iis2dlpc_read_reg(ctx, IIS2DLPC_WAKE_UP_DUR, (uint8_t *) &reg, 1);
 5193              		.loc 1 2183 3 view .LVU1391
 5194              		.loc 1 2183 9 is_stmt 0 view .LVU1392
 5195 0006 0123     		movs	r3, #1
 5196 0008 01AA     		add	r2, sp, #4
 5197 000a 3521     		movs	r1, #53
 5198              	.LVL383:
 5199              		.loc 1 2183 9 view .LVU1393
 5200 000c FFF7FEFF 		bl	iis2dlpc_read_reg
 5201              	.LVL384:
2184:Drivers/BSP/Components/iis2dlpc/iis2dlpc_reg.c ****   *val = reg.sleep_dur;
 5202              		.loc 1 2184 3 is_stmt 1 view .LVU1394
 5203              		.loc 1 2184 13 is_stmt 0 view .LVU1395
 5204 0010 9DF80430 		ldrb	r3, [sp, #4]	@ zero_extendqisi2
 5205 0014 C3F30303 		ubfx	r3, r3, #0, #4
 5206              		.loc 1 2184 8 view .LVU1396
 5207 0018 2370     		strb	r3, [r4]
2185:Drivers/BSP/Components/iis2dlpc/iis2dlpc_reg.c **** 
2186:Drivers/BSP/Components/iis2dlpc/iis2dlpc_reg.c ****   return ret;
 5208              		.loc 1 2186 3 is_stmt 1 view .LVU1397
2187:Drivers/BSP/Components/iis2dlpc/iis2dlpc_reg.c **** }
 5209              		.loc 1 2187 1 is_stmt 0 view .LVU1398
 5210 001a 02B0     		add	sp, sp, #8
 5211              		.cfi_def_cfa_offset 8
 5212              		@ sp needed
 5213 001c 10BD     		pop	{r4, pc}
 5214              		.loc 1 2187 1 view .LVU1399
 5215              		.cfi_endproc
 5216              	.LFE76:
 5218              		.section	.text.iis2dlpc_tap_threshold_x_set,"ax",%progbits
 5219              		.align	1
 5220              		.global	iis2dlpc_tap_threshold_x_set
 5221              		.syntax unified
 5222              		.thumb
 5223              		.thumb_func
 5225              	iis2dlpc_tap_threshold_x_set:
 5226              	.LVL385:
 5227              	.LFB77:
2188:Drivers/BSP/Components/iis2dlpc/iis2dlpc_reg.c **** 
2189:Drivers/BSP/Components/iis2dlpc/iis2dlpc_reg.c **** /**
2190:Drivers/BSP/Components/iis2dlpc/iis2dlpc_reg.c ****   * @}
2191:Drivers/BSP/Components/iis2dlpc/iis2dlpc_reg.c ****   *
2192:Drivers/BSP/Components/iis2dlpc/iis2dlpc_reg.c ****   */
2193:Drivers/BSP/Components/iis2dlpc/iis2dlpc_reg.c **** 
2194:Drivers/BSP/Components/iis2dlpc/iis2dlpc_reg.c **** /**
2195:Drivers/BSP/Components/iis2dlpc/iis2dlpc_reg.c ****   * @defgroup  IIS2DLPC_Tap_Generator
ARM GAS  C:\Temp\ccGZlXNO.s 			page 138


2196:Drivers/BSP/Components/iis2dlpc/iis2dlpc_reg.c ****   * @brief     This section groups all the functions that manage the tap
2197:Drivers/BSP/Components/iis2dlpc/iis2dlpc_reg.c ****   *            and double tap event generation.
2198:Drivers/BSP/Components/iis2dlpc/iis2dlpc_reg.c ****   * @{
2199:Drivers/BSP/Components/iis2dlpc/iis2dlpc_reg.c ****   *
2200:Drivers/BSP/Components/iis2dlpc/iis2dlpc_reg.c ****   */
2201:Drivers/BSP/Components/iis2dlpc/iis2dlpc_reg.c **** 
2202:Drivers/BSP/Components/iis2dlpc/iis2dlpc_reg.c **** /**
2203:Drivers/BSP/Components/iis2dlpc/iis2dlpc_reg.c ****   * @brief  Threshold for tap recognition.[set]
2204:Drivers/BSP/Components/iis2dlpc/iis2dlpc_reg.c ****   *
2205:Drivers/BSP/Components/iis2dlpc/iis2dlpc_reg.c ****   * @param  ctx      read / write interface definitions
2206:Drivers/BSP/Components/iis2dlpc/iis2dlpc_reg.c ****   * @param  val      change the values of tap_thsx in reg TAP_THS_X
2207:Drivers/BSP/Components/iis2dlpc/iis2dlpc_reg.c ****   * @retval          interface status (MANDATORY: return 0 -> no Error)
2208:Drivers/BSP/Components/iis2dlpc/iis2dlpc_reg.c ****   *
2209:Drivers/BSP/Components/iis2dlpc/iis2dlpc_reg.c ****   */
2210:Drivers/BSP/Components/iis2dlpc/iis2dlpc_reg.c **** int32_t iis2dlpc_tap_threshold_x_set(const stmdev_ctx_t *ctx, uint8_t val)
2211:Drivers/BSP/Components/iis2dlpc/iis2dlpc_reg.c **** {
 5228              		.loc 1 2211 1 is_stmt 1 view -0
 5229              		.cfi_startproc
 5230              		@ args = 0, pretend = 0, frame = 8
 5231              		@ frame_needed = 0, uses_anonymous_args = 0
 5232              		.loc 1 2211 1 is_stmt 0 view .LVU1401
 5233 0000 30B5     		push	{r4, r5, lr}
 5234              		.cfi_def_cfa_offset 12
 5235              		.cfi_offset 4, -12
 5236              		.cfi_offset 5, -8
 5237              		.cfi_offset 14, -4
 5238 0002 83B0     		sub	sp, sp, #12
 5239              		.cfi_def_cfa_offset 24
 5240 0004 0446     		mov	r4, r0
 5241 0006 0D46     		mov	r5, r1
2212:Drivers/BSP/Components/iis2dlpc/iis2dlpc_reg.c ****   iis2dlpc_tap_ths_x_t reg;
 5242              		.loc 1 2212 3 is_stmt 1 view .LVU1402
2213:Drivers/BSP/Components/iis2dlpc/iis2dlpc_reg.c ****   int32_t ret;
 5243              		.loc 1 2213 3 view .LVU1403
2214:Drivers/BSP/Components/iis2dlpc/iis2dlpc_reg.c **** 
2215:Drivers/BSP/Components/iis2dlpc/iis2dlpc_reg.c ****   ret = iis2dlpc_read_reg(ctx, IIS2DLPC_TAP_THS_X, (uint8_t *) &reg, 1);
 5244              		.loc 1 2215 3 view .LVU1404
 5245              		.loc 1 2215 9 is_stmt 0 view .LVU1405
 5246 0008 0123     		movs	r3, #1
 5247 000a 01AA     		add	r2, sp, #4
 5248 000c 3021     		movs	r1, #48
 5249              	.LVL386:
 5250              		.loc 1 2215 9 view .LVU1406
 5251 000e FFF7FEFF 		bl	iis2dlpc_read_reg
 5252              	.LVL387:
2216:Drivers/BSP/Components/iis2dlpc/iis2dlpc_reg.c **** 
2217:Drivers/BSP/Components/iis2dlpc/iis2dlpc_reg.c ****   if (ret == 0)
 5253              		.loc 1 2217 3 is_stmt 1 view .LVU1407
 5254              		.loc 1 2217 6 is_stmt 0 view .LVU1408
 5255 0012 08B1     		cbz	r0, .L359
 5256              	.LVL388:
 5257              	.L356:
2218:Drivers/BSP/Components/iis2dlpc/iis2dlpc_reg.c ****   {
2219:Drivers/BSP/Components/iis2dlpc/iis2dlpc_reg.c ****     reg.tap_thsx = val;
2220:Drivers/BSP/Components/iis2dlpc/iis2dlpc_reg.c ****     ret = iis2dlpc_write_reg(ctx, IIS2DLPC_TAP_THS_X, (uint8_t *) &reg, 1);
2221:Drivers/BSP/Components/iis2dlpc/iis2dlpc_reg.c ****   }
2222:Drivers/BSP/Components/iis2dlpc/iis2dlpc_reg.c **** 
ARM GAS  C:\Temp\ccGZlXNO.s 			page 139


2223:Drivers/BSP/Components/iis2dlpc/iis2dlpc_reg.c ****   return ret;
2224:Drivers/BSP/Components/iis2dlpc/iis2dlpc_reg.c **** }
 5258              		.loc 1 2224 1 view .LVU1409
 5259 0014 03B0     		add	sp, sp, #12
 5260              		.cfi_remember_state
 5261              		.cfi_def_cfa_offset 12
 5262              		@ sp needed
 5263 0016 30BD     		pop	{r4, r5, pc}
 5264              	.LVL389:
 5265              	.L359:
 5266              		.cfi_restore_state
2219:Drivers/BSP/Components/iis2dlpc/iis2dlpc_reg.c ****     ret = iis2dlpc_write_reg(ctx, IIS2DLPC_TAP_THS_X, (uint8_t *) &reg, 1);
 5267              		.loc 1 2219 5 is_stmt 1 view .LVU1410
2219:Drivers/BSP/Components/iis2dlpc/iis2dlpc_reg.c ****     ret = iis2dlpc_write_reg(ctx, IIS2DLPC_TAP_THS_X, (uint8_t *) &reg, 1);
 5268              		.loc 1 2219 18 is_stmt 0 view .LVU1411
 5269 0018 9DF80430 		ldrb	r3, [sp, #4]	@ zero_extendqisi2
 5270 001c 65F30403 		bfi	r3, r5, #0, #5
 5271 0020 8DF80430 		strb	r3, [sp, #4]
2220:Drivers/BSP/Components/iis2dlpc/iis2dlpc_reg.c ****   }
 5272              		.loc 1 2220 5 is_stmt 1 view .LVU1412
2220:Drivers/BSP/Components/iis2dlpc/iis2dlpc_reg.c ****   }
 5273              		.loc 1 2220 11 is_stmt 0 view .LVU1413
 5274 0024 0123     		movs	r3, #1
 5275              	.LVL390:
2220:Drivers/BSP/Components/iis2dlpc/iis2dlpc_reg.c ****   }
 5276              		.loc 1 2220 11 view .LVU1414
 5277 0026 01AA     		add	r2, sp, #4
 5278 0028 3021     		movs	r1, #48
 5279 002a 2046     		mov	r0, r4
 5280 002c FFF7FEFF 		bl	iis2dlpc_write_reg
 5281              	.LVL391:
2223:Drivers/BSP/Components/iis2dlpc/iis2dlpc_reg.c **** }
 5282              		.loc 1 2223 3 is_stmt 1 view .LVU1415
2223:Drivers/BSP/Components/iis2dlpc/iis2dlpc_reg.c **** }
 5283              		.loc 1 2223 10 is_stmt 0 view .LVU1416
 5284 0030 F0E7     		b	.L356
 5285              		.cfi_endproc
 5286              	.LFE77:
 5288              		.section	.text.iis2dlpc_tap_threshold_x_get,"ax",%progbits
 5289              		.align	1
 5290              		.global	iis2dlpc_tap_threshold_x_get
 5291              		.syntax unified
 5292              		.thumb
 5293              		.thumb_func
 5295              	iis2dlpc_tap_threshold_x_get:
 5296              	.LVL392:
 5297              	.LFB78:
2225:Drivers/BSP/Components/iis2dlpc/iis2dlpc_reg.c **** 
2226:Drivers/BSP/Components/iis2dlpc/iis2dlpc_reg.c **** /**
2227:Drivers/BSP/Components/iis2dlpc/iis2dlpc_reg.c ****   * @brief  Threshold for tap recognition.[get]
2228:Drivers/BSP/Components/iis2dlpc/iis2dlpc_reg.c ****   *
2229:Drivers/BSP/Components/iis2dlpc/iis2dlpc_reg.c ****   * @param  ctx      read / write interface definitions
2230:Drivers/BSP/Components/iis2dlpc/iis2dlpc_reg.c ****   * @param  val      change the values of tap_thsx in reg TAP_THS_X
2231:Drivers/BSP/Components/iis2dlpc/iis2dlpc_reg.c ****   * @retval          interface status (MANDATORY: return 0 -> no Error)
2232:Drivers/BSP/Components/iis2dlpc/iis2dlpc_reg.c ****   *
2233:Drivers/BSP/Components/iis2dlpc/iis2dlpc_reg.c ****   */
2234:Drivers/BSP/Components/iis2dlpc/iis2dlpc_reg.c **** int32_t iis2dlpc_tap_threshold_x_get(const stmdev_ctx_t *ctx, uint8_t *val)
ARM GAS  C:\Temp\ccGZlXNO.s 			page 140


2235:Drivers/BSP/Components/iis2dlpc/iis2dlpc_reg.c **** {
 5298              		.loc 1 2235 1 is_stmt 1 view -0
 5299              		.cfi_startproc
 5300              		@ args = 0, pretend = 0, frame = 8
 5301              		@ frame_needed = 0, uses_anonymous_args = 0
 5302              		.loc 1 2235 1 is_stmt 0 view .LVU1418
 5303 0000 10B5     		push	{r4, lr}
 5304              		.cfi_def_cfa_offset 8
 5305              		.cfi_offset 4, -8
 5306              		.cfi_offset 14, -4
 5307 0002 82B0     		sub	sp, sp, #8
 5308              		.cfi_def_cfa_offset 16
 5309 0004 0C46     		mov	r4, r1
2236:Drivers/BSP/Components/iis2dlpc/iis2dlpc_reg.c ****   iis2dlpc_tap_ths_x_t reg;
 5310              		.loc 1 2236 3 is_stmt 1 view .LVU1419
2237:Drivers/BSP/Components/iis2dlpc/iis2dlpc_reg.c ****   int32_t ret;
 5311              		.loc 1 2237 3 view .LVU1420
2238:Drivers/BSP/Components/iis2dlpc/iis2dlpc_reg.c **** 
2239:Drivers/BSP/Components/iis2dlpc/iis2dlpc_reg.c ****   ret = iis2dlpc_read_reg(ctx, IIS2DLPC_TAP_THS_X, (uint8_t *) &reg, 1);
 5312              		.loc 1 2239 3 view .LVU1421
 5313              		.loc 1 2239 9 is_stmt 0 view .LVU1422
 5314 0006 0123     		movs	r3, #1
 5315 0008 01AA     		add	r2, sp, #4
 5316 000a 3021     		movs	r1, #48
 5317              	.LVL393:
 5318              		.loc 1 2239 9 view .LVU1423
 5319 000c FFF7FEFF 		bl	iis2dlpc_read_reg
 5320              	.LVL394:
2240:Drivers/BSP/Components/iis2dlpc/iis2dlpc_reg.c ****   *val = reg.tap_thsx;
 5321              		.loc 1 2240 3 is_stmt 1 view .LVU1424
 5322              		.loc 1 2240 13 is_stmt 0 view .LVU1425
 5323 0010 9DF80430 		ldrb	r3, [sp, #4]	@ zero_extendqisi2
 5324 0014 C3F30403 		ubfx	r3, r3, #0, #5
 5325              		.loc 1 2240 8 view .LVU1426
 5326 0018 2370     		strb	r3, [r4]
2241:Drivers/BSP/Components/iis2dlpc/iis2dlpc_reg.c **** 
2242:Drivers/BSP/Components/iis2dlpc/iis2dlpc_reg.c ****   return ret;
 5327              		.loc 1 2242 3 is_stmt 1 view .LVU1427
2243:Drivers/BSP/Components/iis2dlpc/iis2dlpc_reg.c **** }
 5328              		.loc 1 2243 1 is_stmt 0 view .LVU1428
 5329 001a 02B0     		add	sp, sp, #8
 5330              		.cfi_def_cfa_offset 8
 5331              		@ sp needed
 5332 001c 10BD     		pop	{r4, pc}
 5333              		.loc 1 2243 1 view .LVU1429
 5334              		.cfi_endproc
 5335              	.LFE78:
 5337              		.section	.text.iis2dlpc_tap_threshold_y_set,"ax",%progbits
 5338              		.align	1
 5339              		.global	iis2dlpc_tap_threshold_y_set
 5340              		.syntax unified
 5341              		.thumb
 5342              		.thumb_func
 5344              	iis2dlpc_tap_threshold_y_set:
 5345              	.LVL395:
 5346              	.LFB79:
2244:Drivers/BSP/Components/iis2dlpc/iis2dlpc_reg.c **** 
ARM GAS  C:\Temp\ccGZlXNO.s 			page 141


2245:Drivers/BSP/Components/iis2dlpc/iis2dlpc_reg.c **** /**
2246:Drivers/BSP/Components/iis2dlpc/iis2dlpc_reg.c ****   * @brief  Threshold for tap recognition.[set]
2247:Drivers/BSP/Components/iis2dlpc/iis2dlpc_reg.c ****   *
2248:Drivers/BSP/Components/iis2dlpc/iis2dlpc_reg.c ****   * @param  ctx      read / write interface definitions
2249:Drivers/BSP/Components/iis2dlpc/iis2dlpc_reg.c ****   * @param  val      change the values of tap_thsy in reg TAP_THS_Y
2250:Drivers/BSP/Components/iis2dlpc/iis2dlpc_reg.c ****   * @retval          interface status (MANDATORY: return 0 -> no Error)
2251:Drivers/BSP/Components/iis2dlpc/iis2dlpc_reg.c ****   *
2252:Drivers/BSP/Components/iis2dlpc/iis2dlpc_reg.c ****   */
2253:Drivers/BSP/Components/iis2dlpc/iis2dlpc_reg.c **** int32_t iis2dlpc_tap_threshold_y_set(const stmdev_ctx_t *ctx, uint8_t val)
2254:Drivers/BSP/Components/iis2dlpc/iis2dlpc_reg.c **** {
 5347              		.loc 1 2254 1 is_stmt 1 view -0
 5348              		.cfi_startproc
 5349              		@ args = 0, pretend = 0, frame = 8
 5350              		@ frame_needed = 0, uses_anonymous_args = 0
 5351              		.loc 1 2254 1 is_stmt 0 view .LVU1431
 5352 0000 30B5     		push	{r4, r5, lr}
 5353              		.cfi_def_cfa_offset 12
 5354              		.cfi_offset 4, -12
 5355              		.cfi_offset 5, -8
 5356              		.cfi_offset 14, -4
 5357 0002 83B0     		sub	sp, sp, #12
 5358              		.cfi_def_cfa_offset 24
 5359 0004 0446     		mov	r4, r0
 5360 0006 0D46     		mov	r5, r1
2255:Drivers/BSP/Components/iis2dlpc/iis2dlpc_reg.c ****   iis2dlpc_tap_ths_y_t reg;
 5361              		.loc 1 2255 3 is_stmt 1 view .LVU1432
2256:Drivers/BSP/Components/iis2dlpc/iis2dlpc_reg.c ****   int32_t ret;
 5362              		.loc 1 2256 3 view .LVU1433
2257:Drivers/BSP/Components/iis2dlpc/iis2dlpc_reg.c **** 
2258:Drivers/BSP/Components/iis2dlpc/iis2dlpc_reg.c ****   ret = iis2dlpc_read_reg(ctx, IIS2DLPC_TAP_THS_Y, (uint8_t *) &reg, 1);
 5363              		.loc 1 2258 3 view .LVU1434
 5364              		.loc 1 2258 9 is_stmt 0 view .LVU1435
 5365 0008 0123     		movs	r3, #1
 5366 000a 01AA     		add	r2, sp, #4
 5367 000c 3121     		movs	r1, #49
 5368              	.LVL396:
 5369              		.loc 1 2258 9 view .LVU1436
 5370 000e FFF7FEFF 		bl	iis2dlpc_read_reg
 5371              	.LVL397:
2259:Drivers/BSP/Components/iis2dlpc/iis2dlpc_reg.c **** 
2260:Drivers/BSP/Components/iis2dlpc/iis2dlpc_reg.c ****   if (ret == 0)
 5372              		.loc 1 2260 3 is_stmt 1 view .LVU1437
 5373              		.loc 1 2260 6 is_stmt 0 view .LVU1438
 5374 0012 08B1     		cbz	r0, .L365
 5375              	.LVL398:
 5376              	.L362:
2261:Drivers/BSP/Components/iis2dlpc/iis2dlpc_reg.c ****   {
2262:Drivers/BSP/Components/iis2dlpc/iis2dlpc_reg.c ****     reg.tap_thsy = val;
2263:Drivers/BSP/Components/iis2dlpc/iis2dlpc_reg.c ****     ret = iis2dlpc_write_reg(ctx, IIS2DLPC_TAP_THS_Y, (uint8_t *) &reg, 1);
2264:Drivers/BSP/Components/iis2dlpc/iis2dlpc_reg.c ****   }
2265:Drivers/BSP/Components/iis2dlpc/iis2dlpc_reg.c **** 
2266:Drivers/BSP/Components/iis2dlpc/iis2dlpc_reg.c ****   return ret;
2267:Drivers/BSP/Components/iis2dlpc/iis2dlpc_reg.c **** }
 5377              		.loc 1 2267 1 view .LVU1439
 5378 0014 03B0     		add	sp, sp, #12
 5379              		.cfi_remember_state
 5380              		.cfi_def_cfa_offset 12
ARM GAS  C:\Temp\ccGZlXNO.s 			page 142


 5381              		@ sp needed
 5382 0016 30BD     		pop	{r4, r5, pc}
 5383              	.LVL399:
 5384              	.L365:
 5385              		.cfi_restore_state
2262:Drivers/BSP/Components/iis2dlpc/iis2dlpc_reg.c ****     ret = iis2dlpc_write_reg(ctx, IIS2DLPC_TAP_THS_Y, (uint8_t *) &reg, 1);
 5386              		.loc 1 2262 5 is_stmt 1 view .LVU1440
2262:Drivers/BSP/Components/iis2dlpc/iis2dlpc_reg.c ****     ret = iis2dlpc_write_reg(ctx, IIS2DLPC_TAP_THS_Y, (uint8_t *) &reg, 1);
 5387              		.loc 1 2262 18 is_stmt 0 view .LVU1441
 5388 0018 9DF80430 		ldrb	r3, [sp, #4]	@ zero_extendqisi2
 5389 001c 65F30403 		bfi	r3, r5, #0, #5
 5390 0020 8DF80430 		strb	r3, [sp, #4]
2263:Drivers/BSP/Components/iis2dlpc/iis2dlpc_reg.c ****   }
 5391              		.loc 1 2263 5 is_stmt 1 view .LVU1442
2263:Drivers/BSP/Components/iis2dlpc/iis2dlpc_reg.c ****   }
 5392              		.loc 1 2263 11 is_stmt 0 view .LVU1443
 5393 0024 0123     		movs	r3, #1
 5394              	.LVL400:
2263:Drivers/BSP/Components/iis2dlpc/iis2dlpc_reg.c ****   }
 5395              		.loc 1 2263 11 view .LVU1444
 5396 0026 01AA     		add	r2, sp, #4
 5397 0028 3121     		movs	r1, #49
 5398 002a 2046     		mov	r0, r4
 5399 002c FFF7FEFF 		bl	iis2dlpc_write_reg
 5400              	.LVL401:
2266:Drivers/BSP/Components/iis2dlpc/iis2dlpc_reg.c **** }
 5401              		.loc 1 2266 3 is_stmt 1 view .LVU1445
2266:Drivers/BSP/Components/iis2dlpc/iis2dlpc_reg.c **** }
 5402              		.loc 1 2266 10 is_stmt 0 view .LVU1446
 5403 0030 F0E7     		b	.L362
 5404              		.cfi_endproc
 5405              	.LFE79:
 5407              		.section	.text.iis2dlpc_tap_threshold_y_get,"ax",%progbits
 5408              		.align	1
 5409              		.global	iis2dlpc_tap_threshold_y_get
 5410              		.syntax unified
 5411              		.thumb
 5412              		.thumb_func
 5414              	iis2dlpc_tap_threshold_y_get:
 5415              	.LVL402:
 5416              	.LFB80:
2268:Drivers/BSP/Components/iis2dlpc/iis2dlpc_reg.c **** 
2269:Drivers/BSP/Components/iis2dlpc/iis2dlpc_reg.c **** /**
2270:Drivers/BSP/Components/iis2dlpc/iis2dlpc_reg.c ****   * @brief  Threshold for tap recognition.[get]
2271:Drivers/BSP/Components/iis2dlpc/iis2dlpc_reg.c ****   *
2272:Drivers/BSP/Components/iis2dlpc/iis2dlpc_reg.c ****   * @param  ctx      read / write interface definitions
2273:Drivers/BSP/Components/iis2dlpc/iis2dlpc_reg.c ****   * @param  val      change the values of tap_thsy in reg TAP_THS_Y
2274:Drivers/BSP/Components/iis2dlpc/iis2dlpc_reg.c ****   * @retval          interface status (MANDATORY: return 0 -> no Error)
2275:Drivers/BSP/Components/iis2dlpc/iis2dlpc_reg.c ****   *
2276:Drivers/BSP/Components/iis2dlpc/iis2dlpc_reg.c ****   */
2277:Drivers/BSP/Components/iis2dlpc/iis2dlpc_reg.c **** int32_t iis2dlpc_tap_threshold_y_get(const stmdev_ctx_t *ctx, uint8_t *val)
2278:Drivers/BSP/Components/iis2dlpc/iis2dlpc_reg.c **** {
 5417              		.loc 1 2278 1 is_stmt 1 view -0
 5418              		.cfi_startproc
 5419              		@ args = 0, pretend = 0, frame = 8
 5420              		@ frame_needed = 0, uses_anonymous_args = 0
 5421              		.loc 1 2278 1 is_stmt 0 view .LVU1448
ARM GAS  C:\Temp\ccGZlXNO.s 			page 143


 5422 0000 10B5     		push	{r4, lr}
 5423              		.cfi_def_cfa_offset 8
 5424              		.cfi_offset 4, -8
 5425              		.cfi_offset 14, -4
 5426 0002 82B0     		sub	sp, sp, #8
 5427              		.cfi_def_cfa_offset 16
 5428 0004 0C46     		mov	r4, r1
2279:Drivers/BSP/Components/iis2dlpc/iis2dlpc_reg.c ****   iis2dlpc_tap_ths_y_t reg;
 5429              		.loc 1 2279 3 is_stmt 1 view .LVU1449
2280:Drivers/BSP/Components/iis2dlpc/iis2dlpc_reg.c ****   int32_t ret;
 5430              		.loc 1 2280 3 view .LVU1450
2281:Drivers/BSP/Components/iis2dlpc/iis2dlpc_reg.c **** 
2282:Drivers/BSP/Components/iis2dlpc/iis2dlpc_reg.c ****   ret = iis2dlpc_read_reg(ctx, IIS2DLPC_TAP_THS_Y, (uint8_t *) &reg, 1);
 5431              		.loc 1 2282 3 view .LVU1451
 5432              		.loc 1 2282 9 is_stmt 0 view .LVU1452
 5433 0006 0123     		movs	r3, #1
 5434 0008 01AA     		add	r2, sp, #4
 5435 000a 3121     		movs	r1, #49
 5436              	.LVL403:
 5437              		.loc 1 2282 9 view .LVU1453
 5438 000c FFF7FEFF 		bl	iis2dlpc_read_reg
 5439              	.LVL404:
2283:Drivers/BSP/Components/iis2dlpc/iis2dlpc_reg.c ****   *val = reg.tap_thsy;
 5440              		.loc 1 2283 3 is_stmt 1 view .LVU1454
 5441              		.loc 1 2283 13 is_stmt 0 view .LVU1455
 5442 0010 9DF80430 		ldrb	r3, [sp, #4]	@ zero_extendqisi2
 5443 0014 C3F30403 		ubfx	r3, r3, #0, #5
 5444              		.loc 1 2283 8 view .LVU1456
 5445 0018 2370     		strb	r3, [r4]
2284:Drivers/BSP/Components/iis2dlpc/iis2dlpc_reg.c **** 
2285:Drivers/BSP/Components/iis2dlpc/iis2dlpc_reg.c ****   return ret;
 5446              		.loc 1 2285 3 is_stmt 1 view .LVU1457
2286:Drivers/BSP/Components/iis2dlpc/iis2dlpc_reg.c **** }
 5447              		.loc 1 2286 1 is_stmt 0 view .LVU1458
 5448 001a 02B0     		add	sp, sp, #8
 5449              		.cfi_def_cfa_offset 8
 5450              		@ sp needed
 5451 001c 10BD     		pop	{r4, pc}
 5452              		.loc 1 2286 1 view .LVU1459
 5453              		.cfi_endproc
 5454              	.LFE80:
 5456              		.section	.text.iis2dlpc_tap_axis_priority_set,"ax",%progbits
 5457              		.align	1
 5458              		.global	iis2dlpc_tap_axis_priority_set
 5459              		.syntax unified
 5460              		.thumb
 5461              		.thumb_func
 5463              	iis2dlpc_tap_axis_priority_set:
 5464              	.LVL405:
 5465              	.LFB81:
2287:Drivers/BSP/Components/iis2dlpc/iis2dlpc_reg.c **** 
2288:Drivers/BSP/Components/iis2dlpc/iis2dlpc_reg.c **** /**
2289:Drivers/BSP/Components/iis2dlpc/iis2dlpc_reg.c ****   * @brief  Selection of axis priority for TAP detection.[set]
2290:Drivers/BSP/Components/iis2dlpc/iis2dlpc_reg.c ****   *
2291:Drivers/BSP/Components/iis2dlpc/iis2dlpc_reg.c ****   * @param  ctx      read / write interface definitions
2292:Drivers/BSP/Components/iis2dlpc/iis2dlpc_reg.c ****   * @param  val      change the values of tap_prior in reg TAP_THS_Y
2293:Drivers/BSP/Components/iis2dlpc/iis2dlpc_reg.c ****   * @retval          interface status (MANDATORY: return 0 -> no Error)
ARM GAS  C:\Temp\ccGZlXNO.s 			page 144


2294:Drivers/BSP/Components/iis2dlpc/iis2dlpc_reg.c ****   *
2295:Drivers/BSP/Components/iis2dlpc/iis2dlpc_reg.c ****   */
2296:Drivers/BSP/Components/iis2dlpc/iis2dlpc_reg.c **** int32_t iis2dlpc_tap_axis_priority_set(const stmdev_ctx_t *ctx,
2297:Drivers/BSP/Components/iis2dlpc/iis2dlpc_reg.c ****                                        iis2dlpc_tap_prior_t val)
2298:Drivers/BSP/Components/iis2dlpc/iis2dlpc_reg.c **** {
 5466              		.loc 1 2298 1 is_stmt 1 view -0
 5467              		.cfi_startproc
 5468              		@ args = 0, pretend = 0, frame = 8
 5469              		@ frame_needed = 0, uses_anonymous_args = 0
 5470              		.loc 1 2298 1 is_stmt 0 view .LVU1461
 5471 0000 30B5     		push	{r4, r5, lr}
 5472              		.cfi_def_cfa_offset 12
 5473              		.cfi_offset 4, -12
 5474              		.cfi_offset 5, -8
 5475              		.cfi_offset 14, -4
 5476 0002 83B0     		sub	sp, sp, #12
 5477              		.cfi_def_cfa_offset 24
 5478 0004 0446     		mov	r4, r0
 5479 0006 0D46     		mov	r5, r1
2299:Drivers/BSP/Components/iis2dlpc/iis2dlpc_reg.c ****   iis2dlpc_tap_ths_y_t reg;
 5480              		.loc 1 2299 3 is_stmt 1 view .LVU1462
2300:Drivers/BSP/Components/iis2dlpc/iis2dlpc_reg.c ****   int32_t ret;
 5481              		.loc 1 2300 3 view .LVU1463
2301:Drivers/BSP/Components/iis2dlpc/iis2dlpc_reg.c **** 
2302:Drivers/BSP/Components/iis2dlpc/iis2dlpc_reg.c ****   ret = iis2dlpc_read_reg(ctx, IIS2DLPC_TAP_THS_Y, (uint8_t *) &reg, 1);
 5482              		.loc 1 2302 3 view .LVU1464
 5483              		.loc 1 2302 9 is_stmt 0 view .LVU1465
 5484 0008 0123     		movs	r3, #1
 5485 000a 01AA     		add	r2, sp, #4
 5486 000c 3121     		movs	r1, #49
 5487              	.LVL406:
 5488              		.loc 1 2302 9 view .LVU1466
 5489 000e FFF7FEFF 		bl	iis2dlpc_read_reg
 5490              	.LVL407:
2303:Drivers/BSP/Components/iis2dlpc/iis2dlpc_reg.c **** 
2304:Drivers/BSP/Components/iis2dlpc/iis2dlpc_reg.c ****   if (ret == 0)
 5491              		.loc 1 2304 3 is_stmt 1 view .LVU1467
 5492              		.loc 1 2304 6 is_stmt 0 view .LVU1468
 5493 0012 08B1     		cbz	r0, .L371
 5494              	.LVL408:
 5495              	.L368:
2305:Drivers/BSP/Components/iis2dlpc/iis2dlpc_reg.c ****   {
2306:Drivers/BSP/Components/iis2dlpc/iis2dlpc_reg.c ****     reg.tap_prior = (uint8_t) val;
2307:Drivers/BSP/Components/iis2dlpc/iis2dlpc_reg.c ****     ret = iis2dlpc_write_reg(ctx, IIS2DLPC_TAP_THS_Y, (uint8_t *) &reg, 1);
2308:Drivers/BSP/Components/iis2dlpc/iis2dlpc_reg.c ****   }
2309:Drivers/BSP/Components/iis2dlpc/iis2dlpc_reg.c **** 
2310:Drivers/BSP/Components/iis2dlpc/iis2dlpc_reg.c ****   return ret;
2311:Drivers/BSP/Components/iis2dlpc/iis2dlpc_reg.c **** }
 5496              		.loc 1 2311 1 view .LVU1469
 5497 0014 03B0     		add	sp, sp, #12
 5498              		.cfi_remember_state
 5499              		.cfi_def_cfa_offset 12
 5500              		@ sp needed
 5501 0016 30BD     		pop	{r4, r5, pc}
 5502              	.LVL409:
 5503              	.L371:
 5504              		.cfi_restore_state
ARM GAS  C:\Temp\ccGZlXNO.s 			page 145


2306:Drivers/BSP/Components/iis2dlpc/iis2dlpc_reg.c ****     ret = iis2dlpc_write_reg(ctx, IIS2DLPC_TAP_THS_Y, (uint8_t *) &reg, 1);
 5505              		.loc 1 2306 5 is_stmt 1 view .LVU1470
2306:Drivers/BSP/Components/iis2dlpc/iis2dlpc_reg.c ****     ret = iis2dlpc_write_reg(ctx, IIS2DLPC_TAP_THS_Y, (uint8_t *) &reg, 1);
 5506              		.loc 1 2306 19 is_stmt 0 view .LVU1471
 5507 0018 9DF80430 		ldrb	r3, [sp, #4]	@ zero_extendqisi2
 5508 001c 65F34713 		bfi	r3, r5, #5, #3
 5509 0020 8DF80430 		strb	r3, [sp, #4]
2307:Drivers/BSP/Components/iis2dlpc/iis2dlpc_reg.c ****   }
 5510              		.loc 1 2307 5 is_stmt 1 view .LVU1472
2307:Drivers/BSP/Components/iis2dlpc/iis2dlpc_reg.c ****   }
 5511              		.loc 1 2307 11 is_stmt 0 view .LVU1473
 5512 0024 0123     		movs	r3, #1
 5513              	.LVL410:
2307:Drivers/BSP/Components/iis2dlpc/iis2dlpc_reg.c ****   }
 5514              		.loc 1 2307 11 view .LVU1474
 5515 0026 01AA     		add	r2, sp, #4
 5516 0028 3121     		movs	r1, #49
 5517 002a 2046     		mov	r0, r4
 5518 002c FFF7FEFF 		bl	iis2dlpc_write_reg
 5519              	.LVL411:
2310:Drivers/BSP/Components/iis2dlpc/iis2dlpc_reg.c **** }
 5520              		.loc 1 2310 3 is_stmt 1 view .LVU1475
2310:Drivers/BSP/Components/iis2dlpc/iis2dlpc_reg.c **** }
 5521              		.loc 1 2310 10 is_stmt 0 view .LVU1476
 5522 0030 F0E7     		b	.L368
 5523              		.cfi_endproc
 5524              	.LFE81:
 5526              		.section	.text.iis2dlpc_tap_axis_priority_get,"ax",%progbits
 5527              		.align	1
 5528              		.global	iis2dlpc_tap_axis_priority_get
 5529              		.syntax unified
 5530              		.thumb
 5531              		.thumb_func
 5533              	iis2dlpc_tap_axis_priority_get:
 5534              	.LVL412:
 5535              	.LFB82:
2312:Drivers/BSP/Components/iis2dlpc/iis2dlpc_reg.c **** 
2313:Drivers/BSP/Components/iis2dlpc/iis2dlpc_reg.c **** /**
2314:Drivers/BSP/Components/iis2dlpc/iis2dlpc_reg.c ****   * @brief  Selection of axis priority for TAP detection.[get]
2315:Drivers/BSP/Components/iis2dlpc/iis2dlpc_reg.c ****   *
2316:Drivers/BSP/Components/iis2dlpc/iis2dlpc_reg.c ****   * @param  ctx      read / write interface definitions
2317:Drivers/BSP/Components/iis2dlpc/iis2dlpc_reg.c ****   * @param  val      Get the values of tap_prior in reg TAP_THS_Y
2318:Drivers/BSP/Components/iis2dlpc/iis2dlpc_reg.c ****   * @retval          interface status (MANDATORY: return 0 -> no Error)
2319:Drivers/BSP/Components/iis2dlpc/iis2dlpc_reg.c ****   *
2320:Drivers/BSP/Components/iis2dlpc/iis2dlpc_reg.c ****   */
2321:Drivers/BSP/Components/iis2dlpc/iis2dlpc_reg.c **** int32_t iis2dlpc_tap_axis_priority_get(const stmdev_ctx_t *ctx,
2322:Drivers/BSP/Components/iis2dlpc/iis2dlpc_reg.c ****                                        iis2dlpc_tap_prior_t *val)
2323:Drivers/BSP/Components/iis2dlpc/iis2dlpc_reg.c **** {
 5536              		.loc 1 2323 1 is_stmt 1 view -0
 5537              		.cfi_startproc
 5538              		@ args = 0, pretend = 0, frame = 8
 5539              		@ frame_needed = 0, uses_anonymous_args = 0
 5540              		.loc 1 2323 1 is_stmt 0 view .LVU1478
 5541 0000 10B5     		push	{r4, lr}
 5542              		.cfi_def_cfa_offset 8
 5543              		.cfi_offset 4, -8
 5544              		.cfi_offset 14, -4
ARM GAS  C:\Temp\ccGZlXNO.s 			page 146


 5545 0002 82B0     		sub	sp, sp, #8
 5546              		.cfi_def_cfa_offset 16
 5547 0004 0C46     		mov	r4, r1
2324:Drivers/BSP/Components/iis2dlpc/iis2dlpc_reg.c ****   iis2dlpc_tap_ths_y_t reg;
 5548              		.loc 1 2324 3 is_stmt 1 view .LVU1479
2325:Drivers/BSP/Components/iis2dlpc/iis2dlpc_reg.c ****   int32_t ret;
 5549              		.loc 1 2325 3 view .LVU1480
2326:Drivers/BSP/Components/iis2dlpc/iis2dlpc_reg.c **** 
2327:Drivers/BSP/Components/iis2dlpc/iis2dlpc_reg.c ****   ret = iis2dlpc_read_reg(ctx, IIS2DLPC_TAP_THS_Y, (uint8_t *) &reg, 1);
 5550              		.loc 1 2327 3 view .LVU1481
 5551              		.loc 1 2327 9 is_stmt 0 view .LVU1482
 5552 0006 0123     		movs	r3, #1
 5553 0008 01AA     		add	r2, sp, #4
 5554 000a 3121     		movs	r1, #49
 5555              	.LVL413:
 5556              		.loc 1 2327 9 view .LVU1483
 5557 000c FFF7FEFF 		bl	iis2dlpc_read_reg
 5558              	.LVL414:
2328:Drivers/BSP/Components/iis2dlpc/iis2dlpc_reg.c **** 
2329:Drivers/BSP/Components/iis2dlpc/iis2dlpc_reg.c ****   switch (reg.tap_prior)
 5559              		.loc 1 2329 3 is_stmt 1 view .LVU1484
 5560              		.loc 1 2329 14 is_stmt 0 view .LVU1485
 5561 0010 9DF80430 		ldrb	r3, [sp, #4]	@ zero_extendqisi2
 5562 0014 5B09     		lsrs	r3, r3, #5
 5563              		.loc 1 2329 3 view .LVU1486
 5564 0016 062B     		cmp	r3, #6
 5565 0018 18D8     		bhi	.L373
 5566 001a DFE803F0 		tbb	[pc, r3]
 5567              	.L375:
 5568 001e 04       		.byte	(.L380-.L375)/2
 5569 001f 08       		.byte	(.L379-.L375)/2
 5570 0020 0B       		.byte	(.L378-.L375)/2
 5571 0021 0E       		.byte	(.L377-.L375)/2
 5572 0022 17       		.byte	(.L373-.L375)/2
 5573 0023 11       		.byte	(.L376-.L375)/2
 5574 0024 14       		.byte	(.L374-.L375)/2
 5575 0025 00       		.p2align 1
 5576              	.L380:
2330:Drivers/BSP/Components/iis2dlpc/iis2dlpc_reg.c ****   {
2331:Drivers/BSP/Components/iis2dlpc/iis2dlpc_reg.c ****     case IIS2DLPC_XYZ:
2332:Drivers/BSP/Components/iis2dlpc/iis2dlpc_reg.c ****       *val = IIS2DLPC_XYZ;
 5577              		.loc 1 2332 7 is_stmt 1 view .LVU1487
 5578              		.loc 1 2332 12 is_stmt 0 view .LVU1488
 5579 0026 0023     		movs	r3, #0
 5580 0028 2370     		strb	r3, [r4]
2333:Drivers/BSP/Components/iis2dlpc/iis2dlpc_reg.c ****       break;
 5581              		.loc 1 2333 7 is_stmt 1 view .LVU1489
 5582              	.L372:
2334:Drivers/BSP/Components/iis2dlpc/iis2dlpc_reg.c **** 
2335:Drivers/BSP/Components/iis2dlpc/iis2dlpc_reg.c ****     case IIS2DLPC_YXZ:
2336:Drivers/BSP/Components/iis2dlpc/iis2dlpc_reg.c ****       *val = IIS2DLPC_YXZ;
2337:Drivers/BSP/Components/iis2dlpc/iis2dlpc_reg.c ****       break;
2338:Drivers/BSP/Components/iis2dlpc/iis2dlpc_reg.c **** 
2339:Drivers/BSP/Components/iis2dlpc/iis2dlpc_reg.c ****     case IIS2DLPC_XZY:
2340:Drivers/BSP/Components/iis2dlpc/iis2dlpc_reg.c ****       *val = IIS2DLPC_XZY;
2341:Drivers/BSP/Components/iis2dlpc/iis2dlpc_reg.c ****       break;
2342:Drivers/BSP/Components/iis2dlpc/iis2dlpc_reg.c **** 
ARM GAS  C:\Temp\ccGZlXNO.s 			page 147


2343:Drivers/BSP/Components/iis2dlpc/iis2dlpc_reg.c ****     case IIS2DLPC_ZYX:
2344:Drivers/BSP/Components/iis2dlpc/iis2dlpc_reg.c ****       *val = IIS2DLPC_ZYX;
2345:Drivers/BSP/Components/iis2dlpc/iis2dlpc_reg.c ****       break;
2346:Drivers/BSP/Components/iis2dlpc/iis2dlpc_reg.c **** 
2347:Drivers/BSP/Components/iis2dlpc/iis2dlpc_reg.c ****     case IIS2DLPC_YZX:
2348:Drivers/BSP/Components/iis2dlpc/iis2dlpc_reg.c ****       *val = IIS2DLPC_YZX;
2349:Drivers/BSP/Components/iis2dlpc/iis2dlpc_reg.c ****       break;
2350:Drivers/BSP/Components/iis2dlpc/iis2dlpc_reg.c **** 
2351:Drivers/BSP/Components/iis2dlpc/iis2dlpc_reg.c ****     case IIS2DLPC_ZXY:
2352:Drivers/BSP/Components/iis2dlpc/iis2dlpc_reg.c ****       *val = IIS2DLPC_ZXY;
2353:Drivers/BSP/Components/iis2dlpc/iis2dlpc_reg.c ****       break;
2354:Drivers/BSP/Components/iis2dlpc/iis2dlpc_reg.c **** 
2355:Drivers/BSP/Components/iis2dlpc/iis2dlpc_reg.c ****     default:
2356:Drivers/BSP/Components/iis2dlpc/iis2dlpc_reg.c ****       *val = IIS2DLPC_XYZ;
2357:Drivers/BSP/Components/iis2dlpc/iis2dlpc_reg.c ****       break;
2358:Drivers/BSP/Components/iis2dlpc/iis2dlpc_reg.c ****   }
2359:Drivers/BSP/Components/iis2dlpc/iis2dlpc_reg.c **** 
2360:Drivers/BSP/Components/iis2dlpc/iis2dlpc_reg.c ****   return ret;
2361:Drivers/BSP/Components/iis2dlpc/iis2dlpc_reg.c **** }
 5583              		.loc 1 2361 1 is_stmt 0 view .LVU1490
 5584 002a 02B0     		add	sp, sp, #8
 5585              		.cfi_remember_state
 5586              		.cfi_def_cfa_offset 8
 5587              		@ sp needed
 5588 002c 10BD     		pop	{r4, pc}
 5589              	.LVL415:
 5590              	.L379:
 5591              		.cfi_restore_state
2336:Drivers/BSP/Components/iis2dlpc/iis2dlpc_reg.c ****       break;
 5592              		.loc 1 2336 7 is_stmt 1 view .LVU1491
2336:Drivers/BSP/Components/iis2dlpc/iis2dlpc_reg.c ****       break;
 5593              		.loc 1 2336 12 is_stmt 0 view .LVU1492
 5594 002e 0123     		movs	r3, #1
 5595 0030 2370     		strb	r3, [r4]
2337:Drivers/BSP/Components/iis2dlpc/iis2dlpc_reg.c **** 
 5596              		.loc 1 2337 7 is_stmt 1 view .LVU1493
 5597 0032 FAE7     		b	.L372
 5598              	.L378:
2340:Drivers/BSP/Components/iis2dlpc/iis2dlpc_reg.c ****       break;
 5599              		.loc 1 2340 7 view .LVU1494
2340:Drivers/BSP/Components/iis2dlpc/iis2dlpc_reg.c ****       break;
 5600              		.loc 1 2340 12 is_stmt 0 view .LVU1495
 5601 0034 0223     		movs	r3, #2
 5602 0036 2370     		strb	r3, [r4]
2341:Drivers/BSP/Components/iis2dlpc/iis2dlpc_reg.c **** 
 5603              		.loc 1 2341 7 is_stmt 1 view .LVU1496
 5604 0038 F7E7     		b	.L372
 5605              	.L377:
2344:Drivers/BSP/Components/iis2dlpc/iis2dlpc_reg.c ****       break;
 5606              		.loc 1 2344 7 view .LVU1497
2344:Drivers/BSP/Components/iis2dlpc/iis2dlpc_reg.c ****       break;
 5607              		.loc 1 2344 12 is_stmt 0 view .LVU1498
 5608 003a 0323     		movs	r3, #3
 5609 003c 2370     		strb	r3, [r4]
2345:Drivers/BSP/Components/iis2dlpc/iis2dlpc_reg.c **** 
 5610              		.loc 1 2345 7 is_stmt 1 view .LVU1499
 5611 003e F4E7     		b	.L372
ARM GAS  C:\Temp\ccGZlXNO.s 			page 148


 5612              	.L376:
2348:Drivers/BSP/Components/iis2dlpc/iis2dlpc_reg.c ****       break;
 5613              		.loc 1 2348 7 view .LVU1500
2348:Drivers/BSP/Components/iis2dlpc/iis2dlpc_reg.c ****       break;
 5614              		.loc 1 2348 12 is_stmt 0 view .LVU1501
 5615 0040 0523     		movs	r3, #5
 5616 0042 2370     		strb	r3, [r4]
2349:Drivers/BSP/Components/iis2dlpc/iis2dlpc_reg.c **** 
 5617              		.loc 1 2349 7 is_stmt 1 view .LVU1502
 5618 0044 F1E7     		b	.L372
 5619              	.L374:
2352:Drivers/BSP/Components/iis2dlpc/iis2dlpc_reg.c ****       break;
 5620              		.loc 1 2352 7 view .LVU1503
2352:Drivers/BSP/Components/iis2dlpc/iis2dlpc_reg.c ****       break;
 5621              		.loc 1 2352 12 is_stmt 0 view .LVU1504
 5622 0046 0623     		movs	r3, #6
 5623 0048 2370     		strb	r3, [r4]
2353:Drivers/BSP/Components/iis2dlpc/iis2dlpc_reg.c **** 
 5624              		.loc 1 2353 7 is_stmt 1 view .LVU1505
 5625 004a EEE7     		b	.L372
 5626              	.L373:
2356:Drivers/BSP/Components/iis2dlpc/iis2dlpc_reg.c ****       break;
 5627              		.loc 1 2356 7 view .LVU1506
2356:Drivers/BSP/Components/iis2dlpc/iis2dlpc_reg.c ****       break;
 5628              		.loc 1 2356 12 is_stmt 0 view .LVU1507
 5629 004c 0023     		movs	r3, #0
 5630 004e 2370     		strb	r3, [r4]
2357:Drivers/BSP/Components/iis2dlpc/iis2dlpc_reg.c ****   }
 5631              		.loc 1 2357 7 is_stmt 1 view .LVU1508
2360:Drivers/BSP/Components/iis2dlpc/iis2dlpc_reg.c **** }
 5632              		.loc 1 2360 3 view .LVU1509
2360:Drivers/BSP/Components/iis2dlpc/iis2dlpc_reg.c **** }
 5633              		.loc 1 2360 10 is_stmt 0 view .LVU1510
 5634 0050 EBE7     		b	.L372
 5635              		.cfi_endproc
 5636              	.LFE82:
 5638              		.section	.text.iis2dlpc_tap_threshold_z_set,"ax",%progbits
 5639              		.align	1
 5640              		.global	iis2dlpc_tap_threshold_z_set
 5641              		.syntax unified
 5642              		.thumb
 5643              		.thumb_func
 5645              	iis2dlpc_tap_threshold_z_set:
 5646              	.LVL416:
 5647              	.LFB83:
2362:Drivers/BSP/Components/iis2dlpc/iis2dlpc_reg.c **** 
2363:Drivers/BSP/Components/iis2dlpc/iis2dlpc_reg.c **** /**
2364:Drivers/BSP/Components/iis2dlpc/iis2dlpc_reg.c ****   * @brief  Threshold for tap recognition.[set]
2365:Drivers/BSP/Components/iis2dlpc/iis2dlpc_reg.c ****   *
2366:Drivers/BSP/Components/iis2dlpc/iis2dlpc_reg.c ****   * @param  ctx      read / write interface definitions
2367:Drivers/BSP/Components/iis2dlpc/iis2dlpc_reg.c ****   * @param  val      change the values of tap_thsz in reg TAP_THS_Z
2368:Drivers/BSP/Components/iis2dlpc/iis2dlpc_reg.c ****   * @retval          interface status (MANDATORY: return 0 -> no Error)
2369:Drivers/BSP/Components/iis2dlpc/iis2dlpc_reg.c ****   *
2370:Drivers/BSP/Components/iis2dlpc/iis2dlpc_reg.c ****   */
2371:Drivers/BSP/Components/iis2dlpc/iis2dlpc_reg.c **** int32_t iis2dlpc_tap_threshold_z_set(const stmdev_ctx_t *ctx, uint8_t val)
2372:Drivers/BSP/Components/iis2dlpc/iis2dlpc_reg.c **** {
 5648              		.loc 1 2372 1 is_stmt 1 view -0
ARM GAS  C:\Temp\ccGZlXNO.s 			page 149


 5649              		.cfi_startproc
 5650              		@ args = 0, pretend = 0, frame = 8
 5651              		@ frame_needed = 0, uses_anonymous_args = 0
 5652              		.loc 1 2372 1 is_stmt 0 view .LVU1512
 5653 0000 30B5     		push	{r4, r5, lr}
 5654              		.cfi_def_cfa_offset 12
 5655              		.cfi_offset 4, -12
 5656              		.cfi_offset 5, -8
 5657              		.cfi_offset 14, -4
 5658 0002 83B0     		sub	sp, sp, #12
 5659              		.cfi_def_cfa_offset 24
 5660 0004 0446     		mov	r4, r0
 5661 0006 0D46     		mov	r5, r1
2373:Drivers/BSP/Components/iis2dlpc/iis2dlpc_reg.c ****   iis2dlpc_tap_ths_z_t reg;
 5662              		.loc 1 2373 3 is_stmt 1 view .LVU1513
2374:Drivers/BSP/Components/iis2dlpc/iis2dlpc_reg.c ****   int32_t ret;
 5663              		.loc 1 2374 3 view .LVU1514
2375:Drivers/BSP/Components/iis2dlpc/iis2dlpc_reg.c **** 
2376:Drivers/BSP/Components/iis2dlpc/iis2dlpc_reg.c ****   ret = iis2dlpc_read_reg(ctx, IIS2DLPC_TAP_THS_Z, (uint8_t *) &reg, 1);
 5664              		.loc 1 2376 3 view .LVU1515
 5665              		.loc 1 2376 9 is_stmt 0 view .LVU1516
 5666 0008 0123     		movs	r3, #1
 5667 000a 01AA     		add	r2, sp, #4
 5668 000c 3221     		movs	r1, #50
 5669              	.LVL417:
 5670              		.loc 1 2376 9 view .LVU1517
 5671 000e FFF7FEFF 		bl	iis2dlpc_read_reg
 5672              	.LVL418:
2377:Drivers/BSP/Components/iis2dlpc/iis2dlpc_reg.c **** 
2378:Drivers/BSP/Components/iis2dlpc/iis2dlpc_reg.c ****   if (ret == 0)
 5673              		.loc 1 2378 3 is_stmt 1 view .LVU1518
 5674              		.loc 1 2378 6 is_stmt 0 view .LVU1519
 5675 0012 08B1     		cbz	r0, .L386
 5676              	.LVL419:
 5677              	.L383:
2379:Drivers/BSP/Components/iis2dlpc/iis2dlpc_reg.c ****   {
2380:Drivers/BSP/Components/iis2dlpc/iis2dlpc_reg.c ****     reg.tap_thsz = val;
2381:Drivers/BSP/Components/iis2dlpc/iis2dlpc_reg.c ****     ret = iis2dlpc_write_reg(ctx, IIS2DLPC_TAP_THS_Z, (uint8_t *) &reg, 1);
2382:Drivers/BSP/Components/iis2dlpc/iis2dlpc_reg.c ****   }
2383:Drivers/BSP/Components/iis2dlpc/iis2dlpc_reg.c **** 
2384:Drivers/BSP/Components/iis2dlpc/iis2dlpc_reg.c ****   return ret;
2385:Drivers/BSP/Components/iis2dlpc/iis2dlpc_reg.c **** }
 5678              		.loc 1 2385 1 view .LVU1520
 5679 0014 03B0     		add	sp, sp, #12
 5680              		.cfi_remember_state
 5681              		.cfi_def_cfa_offset 12
 5682              		@ sp needed
 5683 0016 30BD     		pop	{r4, r5, pc}
 5684              	.LVL420:
 5685              	.L386:
 5686              		.cfi_restore_state
2380:Drivers/BSP/Components/iis2dlpc/iis2dlpc_reg.c ****     ret = iis2dlpc_write_reg(ctx, IIS2DLPC_TAP_THS_Z, (uint8_t *) &reg, 1);
 5687              		.loc 1 2380 5 is_stmt 1 view .LVU1521
2380:Drivers/BSP/Components/iis2dlpc/iis2dlpc_reg.c ****     ret = iis2dlpc_write_reg(ctx, IIS2DLPC_TAP_THS_Z, (uint8_t *) &reg, 1);
 5688              		.loc 1 2380 18 is_stmt 0 view .LVU1522
 5689 0018 9DF80430 		ldrb	r3, [sp, #4]	@ zero_extendqisi2
 5690 001c 65F30403 		bfi	r3, r5, #0, #5
ARM GAS  C:\Temp\ccGZlXNO.s 			page 150


 5691 0020 8DF80430 		strb	r3, [sp, #4]
2381:Drivers/BSP/Components/iis2dlpc/iis2dlpc_reg.c ****   }
 5692              		.loc 1 2381 5 is_stmt 1 view .LVU1523
2381:Drivers/BSP/Components/iis2dlpc/iis2dlpc_reg.c ****   }
 5693              		.loc 1 2381 11 is_stmt 0 view .LVU1524
 5694 0024 0123     		movs	r3, #1
 5695              	.LVL421:
2381:Drivers/BSP/Components/iis2dlpc/iis2dlpc_reg.c ****   }
 5696              		.loc 1 2381 11 view .LVU1525
 5697 0026 01AA     		add	r2, sp, #4
 5698 0028 3221     		movs	r1, #50
 5699 002a 2046     		mov	r0, r4
 5700 002c FFF7FEFF 		bl	iis2dlpc_write_reg
 5701              	.LVL422:
2384:Drivers/BSP/Components/iis2dlpc/iis2dlpc_reg.c **** }
 5702              		.loc 1 2384 3 is_stmt 1 view .LVU1526
2384:Drivers/BSP/Components/iis2dlpc/iis2dlpc_reg.c **** }
 5703              		.loc 1 2384 10 is_stmt 0 view .LVU1527
 5704 0030 F0E7     		b	.L383
 5705              		.cfi_endproc
 5706              	.LFE83:
 5708              		.section	.text.iis2dlpc_tap_threshold_z_get,"ax",%progbits
 5709              		.align	1
 5710              		.global	iis2dlpc_tap_threshold_z_get
 5711              		.syntax unified
 5712              		.thumb
 5713              		.thumb_func
 5715              	iis2dlpc_tap_threshold_z_get:
 5716              	.LVL423:
 5717              	.LFB84:
2386:Drivers/BSP/Components/iis2dlpc/iis2dlpc_reg.c **** 
2387:Drivers/BSP/Components/iis2dlpc/iis2dlpc_reg.c **** /**
2388:Drivers/BSP/Components/iis2dlpc/iis2dlpc_reg.c ****   * @brief  Threshold for tap recognition.[get]
2389:Drivers/BSP/Components/iis2dlpc/iis2dlpc_reg.c ****   *
2390:Drivers/BSP/Components/iis2dlpc/iis2dlpc_reg.c ****   * @param  ctx      read / write interface definitions
2391:Drivers/BSP/Components/iis2dlpc/iis2dlpc_reg.c ****   * @param  val      change the values of tap_thsz in reg TAP_THS_Z
2392:Drivers/BSP/Components/iis2dlpc/iis2dlpc_reg.c ****   * @retval          interface status (MANDATORY: return 0 -> no Error)
2393:Drivers/BSP/Components/iis2dlpc/iis2dlpc_reg.c ****   *
2394:Drivers/BSP/Components/iis2dlpc/iis2dlpc_reg.c ****   */
2395:Drivers/BSP/Components/iis2dlpc/iis2dlpc_reg.c **** int32_t iis2dlpc_tap_threshold_z_get(const stmdev_ctx_t *ctx, uint8_t *val)
2396:Drivers/BSP/Components/iis2dlpc/iis2dlpc_reg.c **** {
 5718              		.loc 1 2396 1 is_stmt 1 view -0
 5719              		.cfi_startproc
 5720              		@ args = 0, pretend = 0, frame = 8
 5721              		@ frame_needed = 0, uses_anonymous_args = 0
 5722              		.loc 1 2396 1 is_stmt 0 view .LVU1529
 5723 0000 10B5     		push	{r4, lr}
 5724              		.cfi_def_cfa_offset 8
 5725              		.cfi_offset 4, -8
 5726              		.cfi_offset 14, -4
 5727 0002 82B0     		sub	sp, sp, #8
 5728              		.cfi_def_cfa_offset 16
 5729 0004 0C46     		mov	r4, r1
2397:Drivers/BSP/Components/iis2dlpc/iis2dlpc_reg.c ****   iis2dlpc_tap_ths_z_t reg;
 5730              		.loc 1 2397 3 is_stmt 1 view .LVU1530
2398:Drivers/BSP/Components/iis2dlpc/iis2dlpc_reg.c ****   int32_t ret;
 5731              		.loc 1 2398 3 view .LVU1531
ARM GAS  C:\Temp\ccGZlXNO.s 			page 151


2399:Drivers/BSP/Components/iis2dlpc/iis2dlpc_reg.c **** 
2400:Drivers/BSP/Components/iis2dlpc/iis2dlpc_reg.c ****   ret = iis2dlpc_read_reg(ctx, IIS2DLPC_TAP_THS_Z, (uint8_t *) &reg, 1);
 5732              		.loc 1 2400 3 view .LVU1532
 5733              		.loc 1 2400 9 is_stmt 0 view .LVU1533
 5734 0006 0123     		movs	r3, #1
 5735 0008 01AA     		add	r2, sp, #4
 5736 000a 3221     		movs	r1, #50
 5737              	.LVL424:
 5738              		.loc 1 2400 9 view .LVU1534
 5739 000c FFF7FEFF 		bl	iis2dlpc_read_reg
 5740              	.LVL425:
2401:Drivers/BSP/Components/iis2dlpc/iis2dlpc_reg.c ****   *val = reg.tap_thsz;
 5741              		.loc 1 2401 3 is_stmt 1 view .LVU1535
 5742              		.loc 1 2401 13 is_stmt 0 view .LVU1536
 5743 0010 9DF80430 		ldrb	r3, [sp, #4]	@ zero_extendqisi2
 5744 0014 C3F30403 		ubfx	r3, r3, #0, #5
 5745              		.loc 1 2401 8 view .LVU1537
 5746 0018 2370     		strb	r3, [r4]
2402:Drivers/BSP/Components/iis2dlpc/iis2dlpc_reg.c **** 
2403:Drivers/BSP/Components/iis2dlpc/iis2dlpc_reg.c ****   return ret;
 5747              		.loc 1 2403 3 is_stmt 1 view .LVU1538
2404:Drivers/BSP/Components/iis2dlpc/iis2dlpc_reg.c **** }
 5748              		.loc 1 2404 1 is_stmt 0 view .LVU1539
 5749 001a 02B0     		add	sp, sp, #8
 5750              		.cfi_def_cfa_offset 8
 5751              		@ sp needed
 5752 001c 10BD     		pop	{r4, pc}
 5753              		.loc 1 2404 1 view .LVU1540
 5754              		.cfi_endproc
 5755              	.LFE84:
 5757              		.section	.text.iis2dlpc_tap_detection_on_z_set,"ax",%progbits
 5758              		.align	1
 5759              		.global	iis2dlpc_tap_detection_on_z_set
 5760              		.syntax unified
 5761              		.thumb
 5762              		.thumb_func
 5764              	iis2dlpc_tap_detection_on_z_set:
 5765              	.LVL426:
 5766              	.LFB85:
2405:Drivers/BSP/Components/iis2dlpc/iis2dlpc_reg.c **** 
2406:Drivers/BSP/Components/iis2dlpc/iis2dlpc_reg.c **** /**
2407:Drivers/BSP/Components/iis2dlpc/iis2dlpc_reg.c ****   * @brief  Enable Z direction in tap recognition.[set]
2408:Drivers/BSP/Components/iis2dlpc/iis2dlpc_reg.c ****   *
2409:Drivers/BSP/Components/iis2dlpc/iis2dlpc_reg.c ****   * @param  ctx      read / write interface definitions
2410:Drivers/BSP/Components/iis2dlpc/iis2dlpc_reg.c ****   * @param  val      change the values of tap_z_en in reg TAP_THS_Z
2411:Drivers/BSP/Components/iis2dlpc/iis2dlpc_reg.c ****   * @retval          interface status (MANDATORY: return 0 -> no Error)
2412:Drivers/BSP/Components/iis2dlpc/iis2dlpc_reg.c ****   *
2413:Drivers/BSP/Components/iis2dlpc/iis2dlpc_reg.c ****   */
2414:Drivers/BSP/Components/iis2dlpc/iis2dlpc_reg.c **** int32_t iis2dlpc_tap_detection_on_z_set(const stmdev_ctx_t *ctx,
2415:Drivers/BSP/Components/iis2dlpc/iis2dlpc_reg.c ****                                         uint8_t val)
2416:Drivers/BSP/Components/iis2dlpc/iis2dlpc_reg.c **** {
 5767              		.loc 1 2416 1 is_stmt 1 view -0
 5768              		.cfi_startproc
 5769              		@ args = 0, pretend = 0, frame = 8
 5770              		@ frame_needed = 0, uses_anonymous_args = 0
 5771              		.loc 1 2416 1 is_stmt 0 view .LVU1542
 5772 0000 30B5     		push	{r4, r5, lr}
ARM GAS  C:\Temp\ccGZlXNO.s 			page 152


 5773              		.cfi_def_cfa_offset 12
 5774              		.cfi_offset 4, -12
 5775              		.cfi_offset 5, -8
 5776              		.cfi_offset 14, -4
 5777 0002 83B0     		sub	sp, sp, #12
 5778              		.cfi_def_cfa_offset 24
 5779 0004 0446     		mov	r4, r0
 5780 0006 0D46     		mov	r5, r1
2417:Drivers/BSP/Components/iis2dlpc/iis2dlpc_reg.c ****   iis2dlpc_tap_ths_z_t reg;
 5781              		.loc 1 2417 3 is_stmt 1 view .LVU1543
2418:Drivers/BSP/Components/iis2dlpc/iis2dlpc_reg.c ****   int32_t ret;
 5782              		.loc 1 2418 3 view .LVU1544
2419:Drivers/BSP/Components/iis2dlpc/iis2dlpc_reg.c **** 
2420:Drivers/BSP/Components/iis2dlpc/iis2dlpc_reg.c ****   ret = iis2dlpc_read_reg(ctx, IIS2DLPC_TAP_THS_Z, (uint8_t *) &reg, 1);
 5783              		.loc 1 2420 3 view .LVU1545
 5784              		.loc 1 2420 9 is_stmt 0 view .LVU1546
 5785 0008 0123     		movs	r3, #1
 5786 000a 01AA     		add	r2, sp, #4
 5787 000c 3221     		movs	r1, #50
 5788              	.LVL427:
 5789              		.loc 1 2420 9 view .LVU1547
 5790 000e FFF7FEFF 		bl	iis2dlpc_read_reg
 5791              	.LVL428:
2421:Drivers/BSP/Components/iis2dlpc/iis2dlpc_reg.c **** 
2422:Drivers/BSP/Components/iis2dlpc/iis2dlpc_reg.c ****   if (ret == 0)
 5792              		.loc 1 2422 3 is_stmt 1 view .LVU1548
 5793              		.loc 1 2422 6 is_stmt 0 view .LVU1549
 5794 0012 08B1     		cbz	r0, .L392
 5795              	.LVL429:
 5796              	.L389:
2423:Drivers/BSP/Components/iis2dlpc/iis2dlpc_reg.c ****   {
2424:Drivers/BSP/Components/iis2dlpc/iis2dlpc_reg.c ****     reg.tap_z_en = val;
2425:Drivers/BSP/Components/iis2dlpc/iis2dlpc_reg.c ****     ret = iis2dlpc_write_reg(ctx, IIS2DLPC_TAP_THS_Z, (uint8_t *) &reg, 1);
2426:Drivers/BSP/Components/iis2dlpc/iis2dlpc_reg.c ****   }
2427:Drivers/BSP/Components/iis2dlpc/iis2dlpc_reg.c **** 
2428:Drivers/BSP/Components/iis2dlpc/iis2dlpc_reg.c ****   return ret;
2429:Drivers/BSP/Components/iis2dlpc/iis2dlpc_reg.c **** }
 5797              		.loc 1 2429 1 view .LVU1550
 5798 0014 03B0     		add	sp, sp, #12
 5799              		.cfi_remember_state
 5800              		.cfi_def_cfa_offset 12
 5801              		@ sp needed
 5802 0016 30BD     		pop	{r4, r5, pc}
 5803              	.LVL430:
 5804              	.L392:
 5805              		.cfi_restore_state
2424:Drivers/BSP/Components/iis2dlpc/iis2dlpc_reg.c ****     ret = iis2dlpc_write_reg(ctx, IIS2DLPC_TAP_THS_Z, (uint8_t *) &reg, 1);
 5806              		.loc 1 2424 5 is_stmt 1 view .LVU1551
2424:Drivers/BSP/Components/iis2dlpc/iis2dlpc_reg.c ****     ret = iis2dlpc_write_reg(ctx, IIS2DLPC_TAP_THS_Z, (uint8_t *) &reg, 1);
 5807              		.loc 1 2424 18 is_stmt 0 view .LVU1552
 5808 0018 9DF80430 		ldrb	r3, [sp, #4]	@ zero_extendqisi2
 5809 001c 65F34513 		bfi	r3, r5, #5, #1
 5810 0020 8DF80430 		strb	r3, [sp, #4]
2425:Drivers/BSP/Components/iis2dlpc/iis2dlpc_reg.c ****   }
 5811              		.loc 1 2425 5 is_stmt 1 view .LVU1553
2425:Drivers/BSP/Components/iis2dlpc/iis2dlpc_reg.c ****   }
 5812              		.loc 1 2425 11 is_stmt 0 view .LVU1554
ARM GAS  C:\Temp\ccGZlXNO.s 			page 153


 5813 0024 0123     		movs	r3, #1
 5814              	.LVL431:
2425:Drivers/BSP/Components/iis2dlpc/iis2dlpc_reg.c ****   }
 5815              		.loc 1 2425 11 view .LVU1555
 5816 0026 01AA     		add	r2, sp, #4
 5817 0028 3221     		movs	r1, #50
 5818 002a 2046     		mov	r0, r4
 5819 002c FFF7FEFF 		bl	iis2dlpc_write_reg
 5820              	.LVL432:
2428:Drivers/BSP/Components/iis2dlpc/iis2dlpc_reg.c **** }
 5821              		.loc 1 2428 3 is_stmt 1 view .LVU1556
2428:Drivers/BSP/Components/iis2dlpc/iis2dlpc_reg.c **** }
 5822              		.loc 1 2428 10 is_stmt 0 view .LVU1557
 5823 0030 F0E7     		b	.L389
 5824              		.cfi_endproc
 5825              	.LFE85:
 5827              		.section	.text.iis2dlpc_tap_detection_on_z_get,"ax",%progbits
 5828              		.align	1
 5829              		.global	iis2dlpc_tap_detection_on_z_get
 5830              		.syntax unified
 5831              		.thumb
 5832              		.thumb_func
 5834              	iis2dlpc_tap_detection_on_z_get:
 5835              	.LVL433:
 5836              	.LFB86:
2430:Drivers/BSP/Components/iis2dlpc/iis2dlpc_reg.c **** 
2431:Drivers/BSP/Components/iis2dlpc/iis2dlpc_reg.c **** /**
2432:Drivers/BSP/Components/iis2dlpc/iis2dlpc_reg.c ****   * @brief  Enable Z direction in tap recognition.[get]
2433:Drivers/BSP/Components/iis2dlpc/iis2dlpc_reg.c ****   *
2434:Drivers/BSP/Components/iis2dlpc/iis2dlpc_reg.c ****   * @param  ctx      read / write interface definitions
2435:Drivers/BSP/Components/iis2dlpc/iis2dlpc_reg.c ****   * @param  val      change the values of tap_z_en in reg TAP_THS_Z
2436:Drivers/BSP/Components/iis2dlpc/iis2dlpc_reg.c ****   * @retval          interface status (MANDATORY: return 0 -> no Error)
2437:Drivers/BSP/Components/iis2dlpc/iis2dlpc_reg.c ****   *
2438:Drivers/BSP/Components/iis2dlpc/iis2dlpc_reg.c ****   */
2439:Drivers/BSP/Components/iis2dlpc/iis2dlpc_reg.c **** int32_t iis2dlpc_tap_detection_on_z_get(const stmdev_ctx_t *ctx,
2440:Drivers/BSP/Components/iis2dlpc/iis2dlpc_reg.c ****                                         uint8_t *val)
2441:Drivers/BSP/Components/iis2dlpc/iis2dlpc_reg.c **** {
 5837              		.loc 1 2441 1 is_stmt 1 view -0
 5838              		.cfi_startproc
 5839              		@ args = 0, pretend = 0, frame = 8
 5840              		@ frame_needed = 0, uses_anonymous_args = 0
 5841              		.loc 1 2441 1 is_stmt 0 view .LVU1559
 5842 0000 10B5     		push	{r4, lr}
 5843              		.cfi_def_cfa_offset 8
 5844              		.cfi_offset 4, -8
 5845              		.cfi_offset 14, -4
 5846 0002 82B0     		sub	sp, sp, #8
 5847              		.cfi_def_cfa_offset 16
 5848 0004 0C46     		mov	r4, r1
2442:Drivers/BSP/Components/iis2dlpc/iis2dlpc_reg.c ****   iis2dlpc_tap_ths_z_t reg;
 5849              		.loc 1 2442 3 is_stmt 1 view .LVU1560
2443:Drivers/BSP/Components/iis2dlpc/iis2dlpc_reg.c ****   int32_t ret;
 5850              		.loc 1 2443 3 view .LVU1561
2444:Drivers/BSP/Components/iis2dlpc/iis2dlpc_reg.c **** 
2445:Drivers/BSP/Components/iis2dlpc/iis2dlpc_reg.c ****   ret = iis2dlpc_read_reg(ctx, IIS2DLPC_TAP_THS_Z, (uint8_t *) &reg, 1);
 5851              		.loc 1 2445 3 view .LVU1562
 5852              		.loc 1 2445 9 is_stmt 0 view .LVU1563
ARM GAS  C:\Temp\ccGZlXNO.s 			page 154


 5853 0006 0123     		movs	r3, #1
 5854 0008 01AA     		add	r2, sp, #4
 5855 000a 3221     		movs	r1, #50
 5856              	.LVL434:
 5857              		.loc 1 2445 9 view .LVU1564
 5858 000c FFF7FEFF 		bl	iis2dlpc_read_reg
 5859              	.LVL435:
2446:Drivers/BSP/Components/iis2dlpc/iis2dlpc_reg.c ****   *val = reg.tap_z_en;
 5860              		.loc 1 2446 3 is_stmt 1 view .LVU1565
 5861              		.loc 1 2446 13 is_stmt 0 view .LVU1566
 5862 0010 9DF80430 		ldrb	r3, [sp, #4]	@ zero_extendqisi2
 5863 0014 C3F34013 		ubfx	r3, r3, #5, #1
 5864              		.loc 1 2446 8 view .LVU1567
 5865 0018 2370     		strb	r3, [r4]
2447:Drivers/BSP/Components/iis2dlpc/iis2dlpc_reg.c **** 
2448:Drivers/BSP/Components/iis2dlpc/iis2dlpc_reg.c ****   return ret;
 5866              		.loc 1 2448 3 is_stmt 1 view .LVU1568
2449:Drivers/BSP/Components/iis2dlpc/iis2dlpc_reg.c **** }
 5867              		.loc 1 2449 1 is_stmt 0 view .LVU1569
 5868 001a 02B0     		add	sp, sp, #8
 5869              		.cfi_def_cfa_offset 8
 5870              		@ sp needed
 5871 001c 10BD     		pop	{r4, pc}
 5872              		.loc 1 2449 1 view .LVU1570
 5873              		.cfi_endproc
 5874              	.LFE86:
 5876              		.section	.text.iis2dlpc_tap_detection_on_y_set,"ax",%progbits
 5877              		.align	1
 5878              		.global	iis2dlpc_tap_detection_on_y_set
 5879              		.syntax unified
 5880              		.thumb
 5881              		.thumb_func
 5883              	iis2dlpc_tap_detection_on_y_set:
 5884              	.LVL436:
 5885              	.LFB87:
2450:Drivers/BSP/Components/iis2dlpc/iis2dlpc_reg.c **** 
2451:Drivers/BSP/Components/iis2dlpc/iis2dlpc_reg.c **** /**
2452:Drivers/BSP/Components/iis2dlpc/iis2dlpc_reg.c ****   * @brief  Enable Y direction in tap recognition.[set]
2453:Drivers/BSP/Components/iis2dlpc/iis2dlpc_reg.c ****   *
2454:Drivers/BSP/Components/iis2dlpc/iis2dlpc_reg.c ****   * @param  ctx      read / write interface definitions
2455:Drivers/BSP/Components/iis2dlpc/iis2dlpc_reg.c ****   * @param  val      change the values of tap_y_en in reg TAP_THS_Z
2456:Drivers/BSP/Components/iis2dlpc/iis2dlpc_reg.c ****   * @retval          interface status (MANDATORY: return 0 -> no Error)
2457:Drivers/BSP/Components/iis2dlpc/iis2dlpc_reg.c ****   *
2458:Drivers/BSP/Components/iis2dlpc/iis2dlpc_reg.c ****   */
2459:Drivers/BSP/Components/iis2dlpc/iis2dlpc_reg.c **** int32_t iis2dlpc_tap_detection_on_y_set(const stmdev_ctx_t *ctx,
2460:Drivers/BSP/Components/iis2dlpc/iis2dlpc_reg.c ****                                         uint8_t val)
2461:Drivers/BSP/Components/iis2dlpc/iis2dlpc_reg.c **** {
 5886              		.loc 1 2461 1 is_stmt 1 view -0
 5887              		.cfi_startproc
 5888              		@ args = 0, pretend = 0, frame = 8
 5889              		@ frame_needed = 0, uses_anonymous_args = 0
 5890              		.loc 1 2461 1 is_stmt 0 view .LVU1572
 5891 0000 30B5     		push	{r4, r5, lr}
 5892              		.cfi_def_cfa_offset 12
 5893              		.cfi_offset 4, -12
 5894              		.cfi_offset 5, -8
 5895              		.cfi_offset 14, -4
ARM GAS  C:\Temp\ccGZlXNO.s 			page 155


 5896 0002 83B0     		sub	sp, sp, #12
 5897              		.cfi_def_cfa_offset 24
 5898 0004 0446     		mov	r4, r0
 5899 0006 0D46     		mov	r5, r1
2462:Drivers/BSP/Components/iis2dlpc/iis2dlpc_reg.c ****   iis2dlpc_tap_ths_z_t reg;
 5900              		.loc 1 2462 3 is_stmt 1 view .LVU1573
2463:Drivers/BSP/Components/iis2dlpc/iis2dlpc_reg.c ****   int32_t ret;
 5901              		.loc 1 2463 3 view .LVU1574
2464:Drivers/BSP/Components/iis2dlpc/iis2dlpc_reg.c **** 
2465:Drivers/BSP/Components/iis2dlpc/iis2dlpc_reg.c ****   ret = iis2dlpc_read_reg(ctx, IIS2DLPC_TAP_THS_Z, (uint8_t *) &reg, 1);
 5902              		.loc 1 2465 3 view .LVU1575
 5903              		.loc 1 2465 9 is_stmt 0 view .LVU1576
 5904 0008 0123     		movs	r3, #1
 5905 000a 01AA     		add	r2, sp, #4
 5906 000c 3221     		movs	r1, #50
 5907              	.LVL437:
 5908              		.loc 1 2465 9 view .LVU1577
 5909 000e FFF7FEFF 		bl	iis2dlpc_read_reg
 5910              	.LVL438:
2466:Drivers/BSP/Components/iis2dlpc/iis2dlpc_reg.c **** 
2467:Drivers/BSP/Components/iis2dlpc/iis2dlpc_reg.c ****   if (ret == 0)
 5911              		.loc 1 2467 3 is_stmt 1 view .LVU1578
 5912              		.loc 1 2467 6 is_stmt 0 view .LVU1579
 5913 0012 08B1     		cbz	r0, .L398
 5914              	.LVL439:
 5915              	.L395:
2468:Drivers/BSP/Components/iis2dlpc/iis2dlpc_reg.c ****   {
2469:Drivers/BSP/Components/iis2dlpc/iis2dlpc_reg.c ****     reg.tap_y_en = val;
2470:Drivers/BSP/Components/iis2dlpc/iis2dlpc_reg.c ****     ret = iis2dlpc_write_reg(ctx, IIS2DLPC_TAP_THS_Z, (uint8_t *) &reg, 1);
2471:Drivers/BSP/Components/iis2dlpc/iis2dlpc_reg.c ****   }
2472:Drivers/BSP/Components/iis2dlpc/iis2dlpc_reg.c **** 
2473:Drivers/BSP/Components/iis2dlpc/iis2dlpc_reg.c ****   return ret;
2474:Drivers/BSP/Components/iis2dlpc/iis2dlpc_reg.c **** }
 5916              		.loc 1 2474 1 view .LVU1580
 5917 0014 03B0     		add	sp, sp, #12
 5918              		.cfi_remember_state
 5919              		.cfi_def_cfa_offset 12
 5920              		@ sp needed
 5921 0016 30BD     		pop	{r4, r5, pc}
 5922              	.LVL440:
 5923              	.L398:
 5924              		.cfi_restore_state
2469:Drivers/BSP/Components/iis2dlpc/iis2dlpc_reg.c ****     ret = iis2dlpc_write_reg(ctx, IIS2DLPC_TAP_THS_Z, (uint8_t *) &reg, 1);
 5925              		.loc 1 2469 5 is_stmt 1 view .LVU1581
2469:Drivers/BSP/Components/iis2dlpc/iis2dlpc_reg.c ****     ret = iis2dlpc_write_reg(ctx, IIS2DLPC_TAP_THS_Z, (uint8_t *) &reg, 1);
 5926              		.loc 1 2469 18 is_stmt 0 view .LVU1582
 5927 0018 9DF80430 		ldrb	r3, [sp, #4]	@ zero_extendqisi2
 5928 001c 65F38613 		bfi	r3, r5, #6, #1
 5929 0020 8DF80430 		strb	r3, [sp, #4]
2470:Drivers/BSP/Components/iis2dlpc/iis2dlpc_reg.c ****   }
 5930              		.loc 1 2470 5 is_stmt 1 view .LVU1583
2470:Drivers/BSP/Components/iis2dlpc/iis2dlpc_reg.c ****   }
 5931              		.loc 1 2470 11 is_stmt 0 view .LVU1584
 5932 0024 0123     		movs	r3, #1
 5933              	.LVL441:
2470:Drivers/BSP/Components/iis2dlpc/iis2dlpc_reg.c ****   }
 5934              		.loc 1 2470 11 view .LVU1585
ARM GAS  C:\Temp\ccGZlXNO.s 			page 156


 5935 0026 01AA     		add	r2, sp, #4
 5936 0028 3221     		movs	r1, #50
 5937 002a 2046     		mov	r0, r4
 5938 002c FFF7FEFF 		bl	iis2dlpc_write_reg
 5939              	.LVL442:
2473:Drivers/BSP/Components/iis2dlpc/iis2dlpc_reg.c **** }
 5940              		.loc 1 2473 3 is_stmt 1 view .LVU1586
2473:Drivers/BSP/Components/iis2dlpc/iis2dlpc_reg.c **** }
 5941              		.loc 1 2473 10 is_stmt 0 view .LVU1587
 5942 0030 F0E7     		b	.L395
 5943              		.cfi_endproc
 5944              	.LFE87:
 5946              		.section	.text.iis2dlpc_tap_detection_on_y_get,"ax",%progbits
 5947              		.align	1
 5948              		.global	iis2dlpc_tap_detection_on_y_get
 5949              		.syntax unified
 5950              		.thumb
 5951              		.thumb_func
 5953              	iis2dlpc_tap_detection_on_y_get:
 5954              	.LVL443:
 5955              	.LFB88:
2475:Drivers/BSP/Components/iis2dlpc/iis2dlpc_reg.c **** 
2476:Drivers/BSP/Components/iis2dlpc/iis2dlpc_reg.c **** /**
2477:Drivers/BSP/Components/iis2dlpc/iis2dlpc_reg.c ****   * @brief  Enable Y direction in tap recognition.[get]
2478:Drivers/BSP/Components/iis2dlpc/iis2dlpc_reg.c ****   *
2479:Drivers/BSP/Components/iis2dlpc/iis2dlpc_reg.c ****   * @param  ctx      read / write interface definitions
2480:Drivers/BSP/Components/iis2dlpc/iis2dlpc_reg.c ****   * @param  val      change the values of tap_y_en in reg TAP_THS_Z
2481:Drivers/BSP/Components/iis2dlpc/iis2dlpc_reg.c ****   * @retval          interface status (MANDATORY: return 0 -> no Error)
2482:Drivers/BSP/Components/iis2dlpc/iis2dlpc_reg.c ****   *
2483:Drivers/BSP/Components/iis2dlpc/iis2dlpc_reg.c ****   */
2484:Drivers/BSP/Components/iis2dlpc/iis2dlpc_reg.c **** int32_t iis2dlpc_tap_detection_on_y_get(const stmdev_ctx_t *ctx,
2485:Drivers/BSP/Components/iis2dlpc/iis2dlpc_reg.c ****                                         uint8_t *val)
2486:Drivers/BSP/Components/iis2dlpc/iis2dlpc_reg.c **** {
 5956              		.loc 1 2486 1 is_stmt 1 view -0
 5957              		.cfi_startproc
 5958              		@ args = 0, pretend = 0, frame = 8
 5959              		@ frame_needed = 0, uses_anonymous_args = 0
 5960              		.loc 1 2486 1 is_stmt 0 view .LVU1589
 5961 0000 10B5     		push	{r4, lr}
 5962              		.cfi_def_cfa_offset 8
 5963              		.cfi_offset 4, -8
 5964              		.cfi_offset 14, -4
 5965 0002 82B0     		sub	sp, sp, #8
 5966              		.cfi_def_cfa_offset 16
 5967 0004 0C46     		mov	r4, r1
2487:Drivers/BSP/Components/iis2dlpc/iis2dlpc_reg.c ****   iis2dlpc_tap_ths_z_t reg;
 5968              		.loc 1 2487 3 is_stmt 1 view .LVU1590
2488:Drivers/BSP/Components/iis2dlpc/iis2dlpc_reg.c ****   int32_t ret;
 5969              		.loc 1 2488 3 view .LVU1591
2489:Drivers/BSP/Components/iis2dlpc/iis2dlpc_reg.c **** 
2490:Drivers/BSP/Components/iis2dlpc/iis2dlpc_reg.c ****   ret = iis2dlpc_read_reg(ctx, IIS2DLPC_TAP_THS_Z, (uint8_t *) &reg, 1);
 5970              		.loc 1 2490 3 view .LVU1592
 5971              		.loc 1 2490 9 is_stmt 0 view .LVU1593
 5972 0006 0123     		movs	r3, #1
 5973 0008 01AA     		add	r2, sp, #4
 5974 000a 3221     		movs	r1, #50
 5975              	.LVL444:
ARM GAS  C:\Temp\ccGZlXNO.s 			page 157


 5976              		.loc 1 2490 9 view .LVU1594
 5977 000c FFF7FEFF 		bl	iis2dlpc_read_reg
 5978              	.LVL445:
2491:Drivers/BSP/Components/iis2dlpc/iis2dlpc_reg.c ****   *val = reg.tap_y_en;
 5979              		.loc 1 2491 3 is_stmt 1 view .LVU1595
 5980              		.loc 1 2491 13 is_stmt 0 view .LVU1596
 5981 0010 9DF80430 		ldrb	r3, [sp, #4]	@ zero_extendqisi2
 5982 0014 C3F38013 		ubfx	r3, r3, #6, #1
 5983              		.loc 1 2491 8 view .LVU1597
 5984 0018 2370     		strb	r3, [r4]
2492:Drivers/BSP/Components/iis2dlpc/iis2dlpc_reg.c **** 
2493:Drivers/BSP/Components/iis2dlpc/iis2dlpc_reg.c ****   return ret;
 5985              		.loc 1 2493 3 is_stmt 1 view .LVU1598
2494:Drivers/BSP/Components/iis2dlpc/iis2dlpc_reg.c **** }
 5986              		.loc 1 2494 1 is_stmt 0 view .LVU1599
 5987 001a 02B0     		add	sp, sp, #8
 5988              		.cfi_def_cfa_offset 8
 5989              		@ sp needed
 5990 001c 10BD     		pop	{r4, pc}
 5991              		.loc 1 2494 1 view .LVU1600
 5992              		.cfi_endproc
 5993              	.LFE88:
 5995              		.section	.text.iis2dlpc_tap_detection_on_x_set,"ax",%progbits
 5996              		.align	1
 5997              		.global	iis2dlpc_tap_detection_on_x_set
 5998              		.syntax unified
 5999              		.thumb
 6000              		.thumb_func
 6002              	iis2dlpc_tap_detection_on_x_set:
 6003              	.LVL446:
 6004              	.LFB89:
2495:Drivers/BSP/Components/iis2dlpc/iis2dlpc_reg.c **** 
2496:Drivers/BSP/Components/iis2dlpc/iis2dlpc_reg.c **** /**
2497:Drivers/BSP/Components/iis2dlpc/iis2dlpc_reg.c ****   * @brief  Enable X direction in tap recognition.[set]
2498:Drivers/BSP/Components/iis2dlpc/iis2dlpc_reg.c ****   *
2499:Drivers/BSP/Components/iis2dlpc/iis2dlpc_reg.c ****   * @param  ctx      read / write interface definitions
2500:Drivers/BSP/Components/iis2dlpc/iis2dlpc_reg.c ****   * @param  val      change the values of tap_x_en in reg TAP_THS_Z
2501:Drivers/BSP/Components/iis2dlpc/iis2dlpc_reg.c ****   * @retval          interface status (MANDATORY: return 0 -> no Error)
2502:Drivers/BSP/Components/iis2dlpc/iis2dlpc_reg.c ****   *
2503:Drivers/BSP/Components/iis2dlpc/iis2dlpc_reg.c ****   */
2504:Drivers/BSP/Components/iis2dlpc/iis2dlpc_reg.c **** int32_t iis2dlpc_tap_detection_on_x_set(const stmdev_ctx_t *ctx,
2505:Drivers/BSP/Components/iis2dlpc/iis2dlpc_reg.c ****                                         uint8_t val)
2506:Drivers/BSP/Components/iis2dlpc/iis2dlpc_reg.c **** {
 6005              		.loc 1 2506 1 is_stmt 1 view -0
 6006              		.cfi_startproc
 6007              		@ args = 0, pretend = 0, frame = 8
 6008              		@ frame_needed = 0, uses_anonymous_args = 0
 6009              		.loc 1 2506 1 is_stmt 0 view .LVU1602
 6010 0000 30B5     		push	{r4, r5, lr}
 6011              		.cfi_def_cfa_offset 12
 6012              		.cfi_offset 4, -12
 6013              		.cfi_offset 5, -8
 6014              		.cfi_offset 14, -4
 6015 0002 83B0     		sub	sp, sp, #12
 6016              		.cfi_def_cfa_offset 24
 6017 0004 0446     		mov	r4, r0
 6018 0006 0D46     		mov	r5, r1
ARM GAS  C:\Temp\ccGZlXNO.s 			page 158


2507:Drivers/BSP/Components/iis2dlpc/iis2dlpc_reg.c ****   iis2dlpc_tap_ths_z_t reg;
 6019              		.loc 1 2507 3 is_stmt 1 view .LVU1603
2508:Drivers/BSP/Components/iis2dlpc/iis2dlpc_reg.c ****   int32_t ret;
 6020              		.loc 1 2508 3 view .LVU1604
2509:Drivers/BSP/Components/iis2dlpc/iis2dlpc_reg.c **** 
2510:Drivers/BSP/Components/iis2dlpc/iis2dlpc_reg.c ****   ret = iis2dlpc_read_reg(ctx, IIS2DLPC_TAP_THS_Z, (uint8_t *) &reg, 1);
 6021              		.loc 1 2510 3 view .LVU1605
 6022              		.loc 1 2510 9 is_stmt 0 view .LVU1606
 6023 0008 0123     		movs	r3, #1
 6024 000a 01AA     		add	r2, sp, #4
 6025 000c 3221     		movs	r1, #50
 6026              	.LVL447:
 6027              		.loc 1 2510 9 view .LVU1607
 6028 000e FFF7FEFF 		bl	iis2dlpc_read_reg
 6029              	.LVL448:
2511:Drivers/BSP/Components/iis2dlpc/iis2dlpc_reg.c **** 
2512:Drivers/BSP/Components/iis2dlpc/iis2dlpc_reg.c ****   if (ret == 0)
 6030              		.loc 1 2512 3 is_stmt 1 view .LVU1608
 6031              		.loc 1 2512 6 is_stmt 0 view .LVU1609
 6032 0012 08B1     		cbz	r0, .L404
 6033              	.LVL449:
 6034              	.L401:
2513:Drivers/BSP/Components/iis2dlpc/iis2dlpc_reg.c ****   {
2514:Drivers/BSP/Components/iis2dlpc/iis2dlpc_reg.c ****     reg.tap_x_en = val;
2515:Drivers/BSP/Components/iis2dlpc/iis2dlpc_reg.c ****     ret = iis2dlpc_write_reg(ctx, IIS2DLPC_TAP_THS_Z, (uint8_t *) &reg, 1);
2516:Drivers/BSP/Components/iis2dlpc/iis2dlpc_reg.c ****   }
2517:Drivers/BSP/Components/iis2dlpc/iis2dlpc_reg.c **** 
2518:Drivers/BSP/Components/iis2dlpc/iis2dlpc_reg.c ****   return ret;
2519:Drivers/BSP/Components/iis2dlpc/iis2dlpc_reg.c **** }
 6035              		.loc 1 2519 1 view .LVU1610
 6036 0014 03B0     		add	sp, sp, #12
 6037              		.cfi_remember_state
 6038              		.cfi_def_cfa_offset 12
 6039              		@ sp needed
 6040 0016 30BD     		pop	{r4, r5, pc}
 6041              	.LVL450:
 6042              	.L404:
 6043              		.cfi_restore_state
2514:Drivers/BSP/Components/iis2dlpc/iis2dlpc_reg.c ****     ret = iis2dlpc_write_reg(ctx, IIS2DLPC_TAP_THS_Z, (uint8_t *) &reg, 1);
 6044              		.loc 1 2514 5 is_stmt 1 view .LVU1611
2514:Drivers/BSP/Components/iis2dlpc/iis2dlpc_reg.c ****     ret = iis2dlpc_write_reg(ctx, IIS2DLPC_TAP_THS_Z, (uint8_t *) &reg, 1);
 6045              		.loc 1 2514 18 is_stmt 0 view .LVU1612
 6046 0018 9DF80430 		ldrb	r3, [sp, #4]	@ zero_extendqisi2
 6047 001c 65F3C713 		bfi	r3, r5, #7, #1
 6048 0020 8DF80430 		strb	r3, [sp, #4]
2515:Drivers/BSP/Components/iis2dlpc/iis2dlpc_reg.c ****   }
 6049              		.loc 1 2515 5 is_stmt 1 view .LVU1613
2515:Drivers/BSP/Components/iis2dlpc/iis2dlpc_reg.c ****   }
 6050              		.loc 1 2515 11 is_stmt 0 view .LVU1614
 6051 0024 0123     		movs	r3, #1
 6052              	.LVL451:
2515:Drivers/BSP/Components/iis2dlpc/iis2dlpc_reg.c ****   }
 6053              		.loc 1 2515 11 view .LVU1615
 6054 0026 01AA     		add	r2, sp, #4
 6055 0028 3221     		movs	r1, #50
 6056 002a 2046     		mov	r0, r4
 6057 002c FFF7FEFF 		bl	iis2dlpc_write_reg
ARM GAS  C:\Temp\ccGZlXNO.s 			page 159


 6058              	.LVL452:
2518:Drivers/BSP/Components/iis2dlpc/iis2dlpc_reg.c **** }
 6059              		.loc 1 2518 3 is_stmt 1 view .LVU1616
2518:Drivers/BSP/Components/iis2dlpc/iis2dlpc_reg.c **** }
 6060              		.loc 1 2518 10 is_stmt 0 view .LVU1617
 6061 0030 F0E7     		b	.L401
 6062              		.cfi_endproc
 6063              	.LFE89:
 6065              		.section	.text.iis2dlpc_tap_detection_on_x_get,"ax",%progbits
 6066              		.align	1
 6067              		.global	iis2dlpc_tap_detection_on_x_get
 6068              		.syntax unified
 6069              		.thumb
 6070              		.thumb_func
 6072              	iis2dlpc_tap_detection_on_x_get:
 6073              	.LVL453:
 6074              	.LFB90:
2520:Drivers/BSP/Components/iis2dlpc/iis2dlpc_reg.c **** 
2521:Drivers/BSP/Components/iis2dlpc/iis2dlpc_reg.c **** /**
2522:Drivers/BSP/Components/iis2dlpc/iis2dlpc_reg.c ****   * @brief  Enable X direction in tap recognition.[get]
2523:Drivers/BSP/Components/iis2dlpc/iis2dlpc_reg.c ****   *
2524:Drivers/BSP/Components/iis2dlpc/iis2dlpc_reg.c ****   * @param  ctx      read / write interface definitions
2525:Drivers/BSP/Components/iis2dlpc/iis2dlpc_reg.c ****   * @param  val      change the values of tap_x_en in reg TAP_THS_Z
2526:Drivers/BSP/Components/iis2dlpc/iis2dlpc_reg.c ****   * @retval          interface status (MANDATORY: return 0 -> no Error)
2527:Drivers/BSP/Components/iis2dlpc/iis2dlpc_reg.c ****   *
2528:Drivers/BSP/Components/iis2dlpc/iis2dlpc_reg.c ****   */
2529:Drivers/BSP/Components/iis2dlpc/iis2dlpc_reg.c **** int32_t iis2dlpc_tap_detection_on_x_get(const stmdev_ctx_t *ctx,
2530:Drivers/BSP/Components/iis2dlpc/iis2dlpc_reg.c ****                                         uint8_t *val)
2531:Drivers/BSP/Components/iis2dlpc/iis2dlpc_reg.c **** {
 6075              		.loc 1 2531 1 is_stmt 1 view -0
 6076              		.cfi_startproc
 6077              		@ args = 0, pretend = 0, frame = 8
 6078              		@ frame_needed = 0, uses_anonymous_args = 0
 6079              		.loc 1 2531 1 is_stmt 0 view .LVU1619
 6080 0000 10B5     		push	{r4, lr}
 6081              		.cfi_def_cfa_offset 8
 6082              		.cfi_offset 4, -8
 6083              		.cfi_offset 14, -4
 6084 0002 82B0     		sub	sp, sp, #8
 6085              		.cfi_def_cfa_offset 16
 6086 0004 0C46     		mov	r4, r1
2532:Drivers/BSP/Components/iis2dlpc/iis2dlpc_reg.c ****   iis2dlpc_tap_ths_z_t reg;
 6087              		.loc 1 2532 3 is_stmt 1 view .LVU1620
2533:Drivers/BSP/Components/iis2dlpc/iis2dlpc_reg.c ****   int32_t ret;
 6088              		.loc 1 2533 3 view .LVU1621
2534:Drivers/BSP/Components/iis2dlpc/iis2dlpc_reg.c **** 
2535:Drivers/BSP/Components/iis2dlpc/iis2dlpc_reg.c ****   ret = iis2dlpc_read_reg(ctx, IIS2DLPC_TAP_THS_Z, (uint8_t *) &reg, 1);
 6089              		.loc 1 2535 3 view .LVU1622
 6090              		.loc 1 2535 9 is_stmt 0 view .LVU1623
 6091 0006 0123     		movs	r3, #1
 6092 0008 01AA     		add	r2, sp, #4
 6093 000a 3221     		movs	r1, #50
 6094              	.LVL454:
 6095              		.loc 1 2535 9 view .LVU1624
 6096 000c FFF7FEFF 		bl	iis2dlpc_read_reg
 6097              	.LVL455:
2536:Drivers/BSP/Components/iis2dlpc/iis2dlpc_reg.c ****   *val = reg.tap_x_en;
ARM GAS  C:\Temp\ccGZlXNO.s 			page 160


 6098              		.loc 1 2536 3 is_stmt 1 view .LVU1625
 6099              		.loc 1 2536 13 is_stmt 0 view .LVU1626
 6100 0010 9DF80430 		ldrb	r3, [sp, #4]	@ zero_extendqisi2
 6101 0014 C3F3C013 		ubfx	r3, r3, #7, #1
 6102              		.loc 1 2536 8 view .LVU1627
 6103 0018 2370     		strb	r3, [r4]
2537:Drivers/BSP/Components/iis2dlpc/iis2dlpc_reg.c **** 
2538:Drivers/BSP/Components/iis2dlpc/iis2dlpc_reg.c ****   return ret;
 6104              		.loc 1 2538 3 is_stmt 1 view .LVU1628
2539:Drivers/BSP/Components/iis2dlpc/iis2dlpc_reg.c **** }
 6105              		.loc 1 2539 1 is_stmt 0 view .LVU1629
 6106 001a 02B0     		add	sp, sp, #8
 6107              		.cfi_def_cfa_offset 8
 6108              		@ sp needed
 6109 001c 10BD     		pop	{r4, pc}
 6110              		.loc 1 2539 1 view .LVU1630
 6111              		.cfi_endproc
 6112              	.LFE90:
 6114              		.section	.text.iis2dlpc_tap_shock_set,"ax",%progbits
 6115              		.align	1
 6116              		.global	iis2dlpc_tap_shock_set
 6117              		.syntax unified
 6118              		.thumb
 6119              		.thumb_func
 6121              	iis2dlpc_tap_shock_set:
 6122              	.LVL456:
 6123              	.LFB91:
2540:Drivers/BSP/Components/iis2dlpc/iis2dlpc_reg.c **** 
2541:Drivers/BSP/Components/iis2dlpc/iis2dlpc_reg.c **** /**
2542:Drivers/BSP/Components/iis2dlpc/iis2dlpc_reg.c ****   * @brief  Maximum duration is the maximum time of an overthreshold signal
2543:Drivers/BSP/Components/iis2dlpc/iis2dlpc_reg.c ****   *         detection to be recognized as a tap event. The default value
2544:Drivers/BSP/Components/iis2dlpc/iis2dlpc_reg.c ****   *         of these bits is 00b which corresponds to 4*ODR_XL time.
2545:Drivers/BSP/Components/iis2dlpc/iis2dlpc_reg.c ****   *         If the SHOCK[1:0] bits are set to a different value, 1LSB
2546:Drivers/BSP/Components/iis2dlpc/iis2dlpc_reg.c ****   *         corresponds to 8*ODR_XL time.[set]
2547:Drivers/BSP/Components/iis2dlpc/iis2dlpc_reg.c ****   *
2548:Drivers/BSP/Components/iis2dlpc/iis2dlpc_reg.c ****   * @param  ctx      read / write interface definitions
2549:Drivers/BSP/Components/iis2dlpc/iis2dlpc_reg.c ****   * @param  val      change the values of shock in reg INT_DUR
2550:Drivers/BSP/Components/iis2dlpc/iis2dlpc_reg.c ****   * @retval          interface status (MANDATORY: return 0 -> no Error)
2551:Drivers/BSP/Components/iis2dlpc/iis2dlpc_reg.c ****   *
2552:Drivers/BSP/Components/iis2dlpc/iis2dlpc_reg.c ****   */
2553:Drivers/BSP/Components/iis2dlpc/iis2dlpc_reg.c **** int32_t iis2dlpc_tap_shock_set(const stmdev_ctx_t *ctx, uint8_t val)
2554:Drivers/BSP/Components/iis2dlpc/iis2dlpc_reg.c **** {
 6124              		.loc 1 2554 1 is_stmt 1 view -0
 6125              		.cfi_startproc
 6126              		@ args = 0, pretend = 0, frame = 8
 6127              		@ frame_needed = 0, uses_anonymous_args = 0
 6128              		.loc 1 2554 1 is_stmt 0 view .LVU1632
 6129 0000 30B5     		push	{r4, r5, lr}
 6130              		.cfi_def_cfa_offset 12
 6131              		.cfi_offset 4, -12
 6132              		.cfi_offset 5, -8
 6133              		.cfi_offset 14, -4
 6134 0002 83B0     		sub	sp, sp, #12
 6135              		.cfi_def_cfa_offset 24
 6136 0004 0446     		mov	r4, r0
 6137 0006 0D46     		mov	r5, r1
2555:Drivers/BSP/Components/iis2dlpc/iis2dlpc_reg.c ****   iis2dlpc_int_dur_t reg;
ARM GAS  C:\Temp\ccGZlXNO.s 			page 161


 6138              		.loc 1 2555 3 is_stmt 1 view .LVU1633
2556:Drivers/BSP/Components/iis2dlpc/iis2dlpc_reg.c ****   int32_t ret;
 6139              		.loc 1 2556 3 view .LVU1634
2557:Drivers/BSP/Components/iis2dlpc/iis2dlpc_reg.c **** 
2558:Drivers/BSP/Components/iis2dlpc/iis2dlpc_reg.c ****   ret = iis2dlpc_read_reg(ctx, IIS2DLPC_INT_DUR, (uint8_t *) &reg, 1);
 6140              		.loc 1 2558 3 view .LVU1635
 6141              		.loc 1 2558 9 is_stmt 0 view .LVU1636
 6142 0008 0123     		movs	r3, #1
 6143 000a 01AA     		add	r2, sp, #4
 6144 000c 3321     		movs	r1, #51
 6145              	.LVL457:
 6146              		.loc 1 2558 9 view .LVU1637
 6147 000e FFF7FEFF 		bl	iis2dlpc_read_reg
 6148              	.LVL458:
2559:Drivers/BSP/Components/iis2dlpc/iis2dlpc_reg.c **** 
2560:Drivers/BSP/Components/iis2dlpc/iis2dlpc_reg.c ****   if (ret == 0)
 6149              		.loc 1 2560 3 is_stmt 1 view .LVU1638
 6150              		.loc 1 2560 6 is_stmt 0 view .LVU1639
 6151 0012 08B1     		cbz	r0, .L410
 6152              	.LVL459:
 6153              	.L407:
2561:Drivers/BSP/Components/iis2dlpc/iis2dlpc_reg.c ****   {
2562:Drivers/BSP/Components/iis2dlpc/iis2dlpc_reg.c ****     reg.shock = val;
2563:Drivers/BSP/Components/iis2dlpc/iis2dlpc_reg.c ****     ret = iis2dlpc_write_reg(ctx, IIS2DLPC_INT_DUR, (uint8_t *) &reg, 1);
2564:Drivers/BSP/Components/iis2dlpc/iis2dlpc_reg.c ****   }
2565:Drivers/BSP/Components/iis2dlpc/iis2dlpc_reg.c **** 
2566:Drivers/BSP/Components/iis2dlpc/iis2dlpc_reg.c ****   return ret;
2567:Drivers/BSP/Components/iis2dlpc/iis2dlpc_reg.c **** }
 6154              		.loc 1 2567 1 view .LVU1640
 6155 0014 03B0     		add	sp, sp, #12
 6156              		.cfi_remember_state
 6157              		.cfi_def_cfa_offset 12
 6158              		@ sp needed
 6159 0016 30BD     		pop	{r4, r5, pc}
 6160              	.LVL460:
 6161              	.L410:
 6162              		.cfi_restore_state
2562:Drivers/BSP/Components/iis2dlpc/iis2dlpc_reg.c ****     ret = iis2dlpc_write_reg(ctx, IIS2DLPC_INT_DUR, (uint8_t *) &reg, 1);
 6163              		.loc 1 2562 5 is_stmt 1 view .LVU1641
2562:Drivers/BSP/Components/iis2dlpc/iis2dlpc_reg.c ****     ret = iis2dlpc_write_reg(ctx, IIS2DLPC_INT_DUR, (uint8_t *) &reg, 1);
 6164              		.loc 1 2562 15 is_stmt 0 view .LVU1642
 6165 0018 9DF80430 		ldrb	r3, [sp, #4]	@ zero_extendqisi2
 6166 001c 65F30103 		bfi	r3, r5, #0, #2
 6167 0020 8DF80430 		strb	r3, [sp, #4]
2563:Drivers/BSP/Components/iis2dlpc/iis2dlpc_reg.c ****   }
 6168              		.loc 1 2563 5 is_stmt 1 view .LVU1643
2563:Drivers/BSP/Components/iis2dlpc/iis2dlpc_reg.c ****   }
 6169              		.loc 1 2563 11 is_stmt 0 view .LVU1644
 6170 0024 0123     		movs	r3, #1
 6171              	.LVL461:
2563:Drivers/BSP/Components/iis2dlpc/iis2dlpc_reg.c ****   }
 6172              		.loc 1 2563 11 view .LVU1645
 6173 0026 01AA     		add	r2, sp, #4
 6174 0028 3321     		movs	r1, #51
 6175 002a 2046     		mov	r0, r4
 6176 002c FFF7FEFF 		bl	iis2dlpc_write_reg
 6177              	.LVL462:
ARM GAS  C:\Temp\ccGZlXNO.s 			page 162


2566:Drivers/BSP/Components/iis2dlpc/iis2dlpc_reg.c **** }
 6178              		.loc 1 2566 3 is_stmt 1 view .LVU1646
2566:Drivers/BSP/Components/iis2dlpc/iis2dlpc_reg.c **** }
 6179              		.loc 1 2566 10 is_stmt 0 view .LVU1647
 6180 0030 F0E7     		b	.L407
 6181              		.cfi_endproc
 6182              	.LFE91:
 6184              		.section	.text.iis2dlpc_tap_shock_get,"ax",%progbits
 6185              		.align	1
 6186              		.global	iis2dlpc_tap_shock_get
 6187              		.syntax unified
 6188              		.thumb
 6189              		.thumb_func
 6191              	iis2dlpc_tap_shock_get:
 6192              	.LVL463:
 6193              	.LFB92:
2568:Drivers/BSP/Components/iis2dlpc/iis2dlpc_reg.c **** 
2569:Drivers/BSP/Components/iis2dlpc/iis2dlpc_reg.c **** /**
2570:Drivers/BSP/Components/iis2dlpc/iis2dlpc_reg.c ****   * @brief  Maximum duration is the maximum time of an overthreshold signal
2571:Drivers/BSP/Components/iis2dlpc/iis2dlpc_reg.c ****   *         detection to be recognized as a tap event. The default value
2572:Drivers/BSP/Components/iis2dlpc/iis2dlpc_reg.c ****   *         of these bits is 00b which corresponds to 4*ODR_XL time.
2573:Drivers/BSP/Components/iis2dlpc/iis2dlpc_reg.c ****   *         If the SHOCK[1:0] bits are set to a different value, 1LSB
2574:Drivers/BSP/Components/iis2dlpc/iis2dlpc_reg.c ****   *         corresponds to 8*ODR_XL time.[get]
2575:Drivers/BSP/Components/iis2dlpc/iis2dlpc_reg.c ****   *
2576:Drivers/BSP/Components/iis2dlpc/iis2dlpc_reg.c ****   * @param  ctx      read / write interface definitions
2577:Drivers/BSP/Components/iis2dlpc/iis2dlpc_reg.c ****   * @param  val      change the values of shock in reg INT_DUR
2578:Drivers/BSP/Components/iis2dlpc/iis2dlpc_reg.c ****   * @retval          interface status (MANDATORY: return 0 -> no Error)
2579:Drivers/BSP/Components/iis2dlpc/iis2dlpc_reg.c ****   *
2580:Drivers/BSP/Components/iis2dlpc/iis2dlpc_reg.c ****   */
2581:Drivers/BSP/Components/iis2dlpc/iis2dlpc_reg.c **** int32_t iis2dlpc_tap_shock_get(const stmdev_ctx_t *ctx, uint8_t *val)
2582:Drivers/BSP/Components/iis2dlpc/iis2dlpc_reg.c **** {
 6194              		.loc 1 2582 1 is_stmt 1 view -0
 6195              		.cfi_startproc
 6196              		@ args = 0, pretend = 0, frame = 8
 6197              		@ frame_needed = 0, uses_anonymous_args = 0
 6198              		.loc 1 2582 1 is_stmt 0 view .LVU1649
 6199 0000 10B5     		push	{r4, lr}
 6200              		.cfi_def_cfa_offset 8
 6201              		.cfi_offset 4, -8
 6202              		.cfi_offset 14, -4
 6203 0002 82B0     		sub	sp, sp, #8
 6204              		.cfi_def_cfa_offset 16
 6205 0004 0C46     		mov	r4, r1
2583:Drivers/BSP/Components/iis2dlpc/iis2dlpc_reg.c ****   iis2dlpc_int_dur_t reg;
 6206              		.loc 1 2583 3 is_stmt 1 view .LVU1650
2584:Drivers/BSP/Components/iis2dlpc/iis2dlpc_reg.c ****   int32_t ret;
 6207              		.loc 1 2584 3 view .LVU1651
2585:Drivers/BSP/Components/iis2dlpc/iis2dlpc_reg.c **** 
2586:Drivers/BSP/Components/iis2dlpc/iis2dlpc_reg.c ****   ret = iis2dlpc_read_reg(ctx, IIS2DLPC_INT_DUR, (uint8_t *) &reg, 1);
 6208              		.loc 1 2586 3 view .LVU1652
 6209              		.loc 1 2586 9 is_stmt 0 view .LVU1653
 6210 0006 0123     		movs	r3, #1
 6211 0008 01AA     		add	r2, sp, #4
 6212 000a 3321     		movs	r1, #51
 6213              	.LVL464:
 6214              		.loc 1 2586 9 view .LVU1654
 6215 000c FFF7FEFF 		bl	iis2dlpc_read_reg
ARM GAS  C:\Temp\ccGZlXNO.s 			page 163


 6216              	.LVL465:
2587:Drivers/BSP/Components/iis2dlpc/iis2dlpc_reg.c ****   *val = reg.shock;
 6217              		.loc 1 2587 3 is_stmt 1 view .LVU1655
 6218              		.loc 1 2587 13 is_stmt 0 view .LVU1656
 6219 0010 9DF80430 		ldrb	r3, [sp, #4]	@ zero_extendqisi2
 6220 0014 C3F30103 		ubfx	r3, r3, #0, #2
 6221              		.loc 1 2587 8 view .LVU1657
 6222 0018 2370     		strb	r3, [r4]
2588:Drivers/BSP/Components/iis2dlpc/iis2dlpc_reg.c **** 
2589:Drivers/BSP/Components/iis2dlpc/iis2dlpc_reg.c ****   return ret;
 6223              		.loc 1 2589 3 is_stmt 1 view .LVU1658
2590:Drivers/BSP/Components/iis2dlpc/iis2dlpc_reg.c **** }
 6224              		.loc 1 2590 1 is_stmt 0 view .LVU1659
 6225 001a 02B0     		add	sp, sp, #8
 6226              		.cfi_def_cfa_offset 8
 6227              		@ sp needed
 6228 001c 10BD     		pop	{r4, pc}
 6229              		.loc 1 2590 1 view .LVU1660
 6230              		.cfi_endproc
 6231              	.LFE92:
 6233              		.section	.text.iis2dlpc_tap_quiet_set,"ax",%progbits
 6234              		.align	1
 6235              		.global	iis2dlpc_tap_quiet_set
 6236              		.syntax unified
 6237              		.thumb
 6238              		.thumb_func
 6240              	iis2dlpc_tap_quiet_set:
 6241              	.LVL466:
 6242              	.LFB93:
2591:Drivers/BSP/Components/iis2dlpc/iis2dlpc_reg.c **** 
2592:Drivers/BSP/Components/iis2dlpc/iis2dlpc_reg.c **** /**
2593:Drivers/BSP/Components/iis2dlpc/iis2dlpc_reg.c ****   * @brief  Quiet time is the time after the first detected tap in which
2594:Drivers/BSP/Components/iis2dlpc/iis2dlpc_reg.c ****   *         there must not be any overthreshold event.
2595:Drivers/BSP/Components/iis2dlpc/iis2dlpc_reg.c ****   *         The default value of these bits is 00b which corresponds
2596:Drivers/BSP/Components/iis2dlpc/iis2dlpc_reg.c ****   *         to 2*ODR_XL time. If the QUIET[1:0] bits are set to a different
2597:Drivers/BSP/Components/iis2dlpc/iis2dlpc_reg.c ****   *         value, 1LSB corresponds to 4*ODR_XL time.[set]
2598:Drivers/BSP/Components/iis2dlpc/iis2dlpc_reg.c ****   *
2599:Drivers/BSP/Components/iis2dlpc/iis2dlpc_reg.c ****   * @param  ctx      read / write interface definitions
2600:Drivers/BSP/Components/iis2dlpc/iis2dlpc_reg.c ****   * @param  val      change the values of quiet in reg INT_DUR
2601:Drivers/BSP/Components/iis2dlpc/iis2dlpc_reg.c ****   * @retval          interface status (MANDATORY: return 0 -> no Error)
2602:Drivers/BSP/Components/iis2dlpc/iis2dlpc_reg.c ****   *
2603:Drivers/BSP/Components/iis2dlpc/iis2dlpc_reg.c ****   */
2604:Drivers/BSP/Components/iis2dlpc/iis2dlpc_reg.c **** int32_t iis2dlpc_tap_quiet_set(const stmdev_ctx_t *ctx, uint8_t val)
2605:Drivers/BSP/Components/iis2dlpc/iis2dlpc_reg.c **** {
 6243              		.loc 1 2605 1 is_stmt 1 view -0
 6244              		.cfi_startproc
 6245              		@ args = 0, pretend = 0, frame = 8
 6246              		@ frame_needed = 0, uses_anonymous_args = 0
 6247              		.loc 1 2605 1 is_stmt 0 view .LVU1662
 6248 0000 30B5     		push	{r4, r5, lr}
 6249              		.cfi_def_cfa_offset 12
 6250              		.cfi_offset 4, -12
 6251              		.cfi_offset 5, -8
 6252              		.cfi_offset 14, -4
 6253 0002 83B0     		sub	sp, sp, #12
 6254              		.cfi_def_cfa_offset 24
 6255 0004 0446     		mov	r4, r0
ARM GAS  C:\Temp\ccGZlXNO.s 			page 164


 6256 0006 0D46     		mov	r5, r1
2606:Drivers/BSP/Components/iis2dlpc/iis2dlpc_reg.c ****   iis2dlpc_int_dur_t reg;
 6257              		.loc 1 2606 3 is_stmt 1 view .LVU1663
2607:Drivers/BSP/Components/iis2dlpc/iis2dlpc_reg.c ****   int32_t ret;
 6258              		.loc 1 2607 3 view .LVU1664
2608:Drivers/BSP/Components/iis2dlpc/iis2dlpc_reg.c **** 
2609:Drivers/BSP/Components/iis2dlpc/iis2dlpc_reg.c ****   ret = iis2dlpc_read_reg(ctx, IIS2DLPC_INT_DUR, (uint8_t *) &reg, 1);
 6259              		.loc 1 2609 3 view .LVU1665
 6260              		.loc 1 2609 9 is_stmt 0 view .LVU1666
 6261 0008 0123     		movs	r3, #1
 6262 000a 01AA     		add	r2, sp, #4
 6263 000c 3321     		movs	r1, #51
 6264              	.LVL467:
 6265              		.loc 1 2609 9 view .LVU1667
 6266 000e FFF7FEFF 		bl	iis2dlpc_read_reg
 6267              	.LVL468:
2610:Drivers/BSP/Components/iis2dlpc/iis2dlpc_reg.c **** 
2611:Drivers/BSP/Components/iis2dlpc/iis2dlpc_reg.c ****   if (ret == 0)
 6268              		.loc 1 2611 3 is_stmt 1 view .LVU1668
 6269              		.loc 1 2611 6 is_stmt 0 view .LVU1669
 6270 0012 08B1     		cbz	r0, .L416
 6271              	.LVL469:
 6272              	.L413:
2612:Drivers/BSP/Components/iis2dlpc/iis2dlpc_reg.c ****   {
2613:Drivers/BSP/Components/iis2dlpc/iis2dlpc_reg.c ****     reg.quiet = val;
2614:Drivers/BSP/Components/iis2dlpc/iis2dlpc_reg.c ****     ret = iis2dlpc_write_reg(ctx, IIS2DLPC_INT_DUR, (uint8_t *) &reg, 1);
2615:Drivers/BSP/Components/iis2dlpc/iis2dlpc_reg.c ****   }
2616:Drivers/BSP/Components/iis2dlpc/iis2dlpc_reg.c **** 
2617:Drivers/BSP/Components/iis2dlpc/iis2dlpc_reg.c ****   return ret;
2618:Drivers/BSP/Components/iis2dlpc/iis2dlpc_reg.c **** }
 6273              		.loc 1 2618 1 view .LVU1670
 6274 0014 03B0     		add	sp, sp, #12
 6275              		.cfi_remember_state
 6276              		.cfi_def_cfa_offset 12
 6277              		@ sp needed
 6278 0016 30BD     		pop	{r4, r5, pc}
 6279              	.LVL470:
 6280              	.L416:
 6281              		.cfi_restore_state
2613:Drivers/BSP/Components/iis2dlpc/iis2dlpc_reg.c ****     ret = iis2dlpc_write_reg(ctx, IIS2DLPC_INT_DUR, (uint8_t *) &reg, 1);
 6282              		.loc 1 2613 5 is_stmt 1 view .LVU1671
2613:Drivers/BSP/Components/iis2dlpc/iis2dlpc_reg.c ****     ret = iis2dlpc_write_reg(ctx, IIS2DLPC_INT_DUR, (uint8_t *) &reg, 1);
 6283              		.loc 1 2613 15 is_stmt 0 view .LVU1672
 6284 0018 9DF80430 		ldrb	r3, [sp, #4]	@ zero_extendqisi2
 6285 001c 65F38303 		bfi	r3, r5, #2, #2
 6286 0020 8DF80430 		strb	r3, [sp, #4]
2614:Drivers/BSP/Components/iis2dlpc/iis2dlpc_reg.c ****   }
 6287              		.loc 1 2614 5 is_stmt 1 view .LVU1673
2614:Drivers/BSP/Components/iis2dlpc/iis2dlpc_reg.c ****   }
 6288              		.loc 1 2614 11 is_stmt 0 view .LVU1674
 6289 0024 0123     		movs	r3, #1
 6290              	.LVL471:
2614:Drivers/BSP/Components/iis2dlpc/iis2dlpc_reg.c ****   }
 6291              		.loc 1 2614 11 view .LVU1675
 6292 0026 01AA     		add	r2, sp, #4
 6293 0028 3321     		movs	r1, #51
 6294 002a 2046     		mov	r0, r4
ARM GAS  C:\Temp\ccGZlXNO.s 			page 165


 6295 002c FFF7FEFF 		bl	iis2dlpc_write_reg
 6296              	.LVL472:
2617:Drivers/BSP/Components/iis2dlpc/iis2dlpc_reg.c **** }
 6297              		.loc 1 2617 3 is_stmt 1 view .LVU1676
2617:Drivers/BSP/Components/iis2dlpc/iis2dlpc_reg.c **** }
 6298              		.loc 1 2617 10 is_stmt 0 view .LVU1677
 6299 0030 F0E7     		b	.L413
 6300              		.cfi_endproc
 6301              	.LFE93:
 6303              		.section	.text.iis2dlpc_tap_quiet_get,"ax",%progbits
 6304              		.align	1
 6305              		.global	iis2dlpc_tap_quiet_get
 6306              		.syntax unified
 6307              		.thumb
 6308              		.thumb_func
 6310              	iis2dlpc_tap_quiet_get:
 6311              	.LVL473:
 6312              	.LFB94:
2619:Drivers/BSP/Components/iis2dlpc/iis2dlpc_reg.c **** 
2620:Drivers/BSP/Components/iis2dlpc/iis2dlpc_reg.c **** /**
2621:Drivers/BSP/Components/iis2dlpc/iis2dlpc_reg.c ****   * @brief  Quiet time is the time after the first detected tap in which
2622:Drivers/BSP/Components/iis2dlpc/iis2dlpc_reg.c ****   *         there must not be any overthreshold event.
2623:Drivers/BSP/Components/iis2dlpc/iis2dlpc_reg.c ****   *         The default value of these bits is 00b which corresponds
2624:Drivers/BSP/Components/iis2dlpc/iis2dlpc_reg.c ****   *         to 2*ODR_XL time. If the QUIET[1:0] bits are set to a different
2625:Drivers/BSP/Components/iis2dlpc/iis2dlpc_reg.c ****   *         value, 1LSB corresponds to 4*ODR_XL time.[get]
2626:Drivers/BSP/Components/iis2dlpc/iis2dlpc_reg.c ****   *
2627:Drivers/BSP/Components/iis2dlpc/iis2dlpc_reg.c ****   * @param  ctx      read / write interface definitions
2628:Drivers/BSP/Components/iis2dlpc/iis2dlpc_reg.c ****   * @param  val      change the values of quiet in reg INT_DUR
2629:Drivers/BSP/Components/iis2dlpc/iis2dlpc_reg.c ****   * @retval          interface status (MANDATORY: return 0 -> no Error)
2630:Drivers/BSP/Components/iis2dlpc/iis2dlpc_reg.c ****   *
2631:Drivers/BSP/Components/iis2dlpc/iis2dlpc_reg.c ****   */
2632:Drivers/BSP/Components/iis2dlpc/iis2dlpc_reg.c **** int32_t iis2dlpc_tap_quiet_get(const stmdev_ctx_t *ctx, uint8_t *val)
2633:Drivers/BSP/Components/iis2dlpc/iis2dlpc_reg.c **** {
 6313              		.loc 1 2633 1 is_stmt 1 view -0
 6314              		.cfi_startproc
 6315              		@ args = 0, pretend = 0, frame = 8
 6316              		@ frame_needed = 0, uses_anonymous_args = 0
 6317              		.loc 1 2633 1 is_stmt 0 view .LVU1679
 6318 0000 10B5     		push	{r4, lr}
 6319              		.cfi_def_cfa_offset 8
 6320              		.cfi_offset 4, -8
 6321              		.cfi_offset 14, -4
 6322 0002 82B0     		sub	sp, sp, #8
 6323              		.cfi_def_cfa_offset 16
 6324 0004 0C46     		mov	r4, r1
2634:Drivers/BSP/Components/iis2dlpc/iis2dlpc_reg.c ****   iis2dlpc_int_dur_t reg;
 6325              		.loc 1 2634 3 is_stmt 1 view .LVU1680
2635:Drivers/BSP/Components/iis2dlpc/iis2dlpc_reg.c ****   int32_t ret;
 6326              		.loc 1 2635 3 view .LVU1681
2636:Drivers/BSP/Components/iis2dlpc/iis2dlpc_reg.c **** 
2637:Drivers/BSP/Components/iis2dlpc/iis2dlpc_reg.c ****   ret = iis2dlpc_read_reg(ctx, IIS2DLPC_INT_DUR, (uint8_t *) &reg, 1);
 6327              		.loc 1 2637 3 view .LVU1682
 6328              		.loc 1 2637 9 is_stmt 0 view .LVU1683
 6329 0006 0123     		movs	r3, #1
 6330 0008 01AA     		add	r2, sp, #4
 6331 000a 3321     		movs	r1, #51
 6332              	.LVL474:
ARM GAS  C:\Temp\ccGZlXNO.s 			page 166


 6333              		.loc 1 2637 9 view .LVU1684
 6334 000c FFF7FEFF 		bl	iis2dlpc_read_reg
 6335              	.LVL475:
2638:Drivers/BSP/Components/iis2dlpc/iis2dlpc_reg.c ****   *val = reg.quiet;
 6336              		.loc 1 2638 3 is_stmt 1 view .LVU1685
 6337              		.loc 1 2638 13 is_stmt 0 view .LVU1686
 6338 0010 9DF80430 		ldrb	r3, [sp, #4]	@ zero_extendqisi2
 6339 0014 C3F38103 		ubfx	r3, r3, #2, #2
 6340              		.loc 1 2638 8 view .LVU1687
 6341 0018 2370     		strb	r3, [r4]
2639:Drivers/BSP/Components/iis2dlpc/iis2dlpc_reg.c **** 
2640:Drivers/BSP/Components/iis2dlpc/iis2dlpc_reg.c ****   return ret;
 6342              		.loc 1 2640 3 is_stmt 1 view .LVU1688
2641:Drivers/BSP/Components/iis2dlpc/iis2dlpc_reg.c **** }
 6343              		.loc 1 2641 1 is_stmt 0 view .LVU1689
 6344 001a 02B0     		add	sp, sp, #8
 6345              		.cfi_def_cfa_offset 8
 6346              		@ sp needed
 6347 001c 10BD     		pop	{r4, pc}
 6348              		.loc 1 2641 1 view .LVU1690
 6349              		.cfi_endproc
 6350              	.LFE94:
 6352              		.section	.text.iis2dlpc_tap_dur_set,"ax",%progbits
 6353              		.align	1
 6354              		.global	iis2dlpc_tap_dur_set
 6355              		.syntax unified
 6356              		.thumb
 6357              		.thumb_func
 6359              	iis2dlpc_tap_dur_set:
 6360              	.LVL476:
 6361              	.LFB95:
2642:Drivers/BSP/Components/iis2dlpc/iis2dlpc_reg.c **** 
2643:Drivers/BSP/Components/iis2dlpc/iis2dlpc_reg.c **** /**
2644:Drivers/BSP/Components/iis2dlpc/iis2dlpc_reg.c ****   * @brief  When double tap recognition is enabled, this register expresses
2645:Drivers/BSP/Components/iis2dlpc/iis2dlpc_reg.c ****   *         the maximum time between two consecutive detected taps to
2646:Drivers/BSP/Components/iis2dlpc/iis2dlpc_reg.c ****   *         determine a double tap event.
2647:Drivers/BSP/Components/iis2dlpc/iis2dlpc_reg.c ****   *         The default value of these bits is 0000b which corresponds
2648:Drivers/BSP/Components/iis2dlpc/iis2dlpc_reg.c ****   *         to 16*ODR_XL time. If the DUR[3:0] bits are set to a different
2649:Drivers/BSP/Components/iis2dlpc/iis2dlpc_reg.c ****   *         value, 1LSB corresponds to 32*ODR_XL time.[set]
2650:Drivers/BSP/Components/iis2dlpc/iis2dlpc_reg.c ****   *
2651:Drivers/BSP/Components/iis2dlpc/iis2dlpc_reg.c ****   * @param  ctx      read / write interface definitions
2652:Drivers/BSP/Components/iis2dlpc/iis2dlpc_reg.c ****   * @param  val      change the values of latency in reg INT_DUR
2653:Drivers/BSP/Components/iis2dlpc/iis2dlpc_reg.c ****   * @retval          interface status (MANDATORY: return 0 -> no Error)
2654:Drivers/BSP/Components/iis2dlpc/iis2dlpc_reg.c ****   *
2655:Drivers/BSP/Components/iis2dlpc/iis2dlpc_reg.c ****   */
2656:Drivers/BSP/Components/iis2dlpc/iis2dlpc_reg.c **** int32_t iis2dlpc_tap_dur_set(const stmdev_ctx_t *ctx, uint8_t val)
2657:Drivers/BSP/Components/iis2dlpc/iis2dlpc_reg.c **** {
 6362              		.loc 1 2657 1 is_stmt 1 view -0
 6363              		.cfi_startproc
 6364              		@ args = 0, pretend = 0, frame = 8
 6365              		@ frame_needed = 0, uses_anonymous_args = 0
 6366              		.loc 1 2657 1 is_stmt 0 view .LVU1692
 6367 0000 30B5     		push	{r4, r5, lr}
 6368              		.cfi_def_cfa_offset 12
 6369              		.cfi_offset 4, -12
 6370              		.cfi_offset 5, -8
 6371              		.cfi_offset 14, -4
ARM GAS  C:\Temp\ccGZlXNO.s 			page 167


 6372 0002 83B0     		sub	sp, sp, #12
 6373              		.cfi_def_cfa_offset 24
 6374 0004 0446     		mov	r4, r0
 6375 0006 0D46     		mov	r5, r1
2658:Drivers/BSP/Components/iis2dlpc/iis2dlpc_reg.c ****   iis2dlpc_int_dur_t reg;
 6376              		.loc 1 2658 3 is_stmt 1 view .LVU1693
2659:Drivers/BSP/Components/iis2dlpc/iis2dlpc_reg.c ****   int32_t ret;
 6377              		.loc 1 2659 3 view .LVU1694
2660:Drivers/BSP/Components/iis2dlpc/iis2dlpc_reg.c **** 
2661:Drivers/BSP/Components/iis2dlpc/iis2dlpc_reg.c ****   ret = iis2dlpc_read_reg(ctx, IIS2DLPC_INT_DUR, (uint8_t *) &reg, 1);
 6378              		.loc 1 2661 3 view .LVU1695
 6379              		.loc 1 2661 9 is_stmt 0 view .LVU1696
 6380 0008 0123     		movs	r3, #1
 6381 000a 01AA     		add	r2, sp, #4
 6382 000c 3321     		movs	r1, #51
 6383              	.LVL477:
 6384              		.loc 1 2661 9 view .LVU1697
 6385 000e FFF7FEFF 		bl	iis2dlpc_read_reg
 6386              	.LVL478:
2662:Drivers/BSP/Components/iis2dlpc/iis2dlpc_reg.c **** 
2663:Drivers/BSP/Components/iis2dlpc/iis2dlpc_reg.c ****   if (ret == 0)
 6387              		.loc 1 2663 3 is_stmt 1 view .LVU1698
 6388              		.loc 1 2663 6 is_stmt 0 view .LVU1699
 6389 0012 08B1     		cbz	r0, .L422
 6390              	.LVL479:
 6391              	.L419:
2664:Drivers/BSP/Components/iis2dlpc/iis2dlpc_reg.c ****   {
2665:Drivers/BSP/Components/iis2dlpc/iis2dlpc_reg.c ****     reg.latency = val;
2666:Drivers/BSP/Components/iis2dlpc/iis2dlpc_reg.c ****     ret = iis2dlpc_write_reg(ctx, IIS2DLPC_INT_DUR, (uint8_t *) &reg, 1);
2667:Drivers/BSP/Components/iis2dlpc/iis2dlpc_reg.c ****   }
2668:Drivers/BSP/Components/iis2dlpc/iis2dlpc_reg.c **** 
2669:Drivers/BSP/Components/iis2dlpc/iis2dlpc_reg.c ****   return ret;
2670:Drivers/BSP/Components/iis2dlpc/iis2dlpc_reg.c **** }
 6392              		.loc 1 2670 1 view .LVU1700
 6393 0014 03B0     		add	sp, sp, #12
 6394              		.cfi_remember_state
 6395              		.cfi_def_cfa_offset 12
 6396              		@ sp needed
 6397 0016 30BD     		pop	{r4, r5, pc}
 6398              	.LVL480:
 6399              	.L422:
 6400              		.cfi_restore_state
2665:Drivers/BSP/Components/iis2dlpc/iis2dlpc_reg.c ****     ret = iis2dlpc_write_reg(ctx, IIS2DLPC_INT_DUR, (uint8_t *) &reg, 1);
 6401              		.loc 1 2665 5 is_stmt 1 view .LVU1701
2665:Drivers/BSP/Components/iis2dlpc/iis2dlpc_reg.c ****     ret = iis2dlpc_write_reg(ctx, IIS2DLPC_INT_DUR, (uint8_t *) &reg, 1);
 6402              		.loc 1 2665 17 is_stmt 0 view .LVU1702
 6403 0018 9DF80430 		ldrb	r3, [sp, #4]	@ zero_extendqisi2
 6404 001c 65F30713 		bfi	r3, r5, #4, #4
 6405 0020 8DF80430 		strb	r3, [sp, #4]
2666:Drivers/BSP/Components/iis2dlpc/iis2dlpc_reg.c ****   }
 6406              		.loc 1 2666 5 is_stmt 1 view .LVU1703
2666:Drivers/BSP/Components/iis2dlpc/iis2dlpc_reg.c ****   }
 6407              		.loc 1 2666 11 is_stmt 0 view .LVU1704
 6408 0024 0123     		movs	r3, #1
 6409              	.LVL481:
2666:Drivers/BSP/Components/iis2dlpc/iis2dlpc_reg.c ****   }
 6410              		.loc 1 2666 11 view .LVU1705
ARM GAS  C:\Temp\ccGZlXNO.s 			page 168


 6411 0026 01AA     		add	r2, sp, #4
 6412 0028 3321     		movs	r1, #51
 6413 002a 2046     		mov	r0, r4
 6414 002c FFF7FEFF 		bl	iis2dlpc_write_reg
 6415              	.LVL482:
2669:Drivers/BSP/Components/iis2dlpc/iis2dlpc_reg.c **** }
 6416              		.loc 1 2669 3 is_stmt 1 view .LVU1706
2669:Drivers/BSP/Components/iis2dlpc/iis2dlpc_reg.c **** }
 6417              		.loc 1 2669 10 is_stmt 0 view .LVU1707
 6418 0030 F0E7     		b	.L419
 6419              		.cfi_endproc
 6420              	.LFE95:
 6422              		.section	.text.iis2dlpc_tap_dur_get,"ax",%progbits
 6423              		.align	1
 6424              		.global	iis2dlpc_tap_dur_get
 6425              		.syntax unified
 6426              		.thumb
 6427              		.thumb_func
 6429              	iis2dlpc_tap_dur_get:
 6430              	.LVL483:
 6431              	.LFB96:
2671:Drivers/BSP/Components/iis2dlpc/iis2dlpc_reg.c **** 
2672:Drivers/BSP/Components/iis2dlpc/iis2dlpc_reg.c **** /**
2673:Drivers/BSP/Components/iis2dlpc/iis2dlpc_reg.c ****   * @brief  When double tap recognition is enabled, this register expresses
2674:Drivers/BSP/Components/iis2dlpc/iis2dlpc_reg.c ****   *         the maximum time between two consecutive detected taps to
2675:Drivers/BSP/Components/iis2dlpc/iis2dlpc_reg.c ****   *         determine a double tap event.
2676:Drivers/BSP/Components/iis2dlpc/iis2dlpc_reg.c ****   *         The default value of these bits is 0000b which corresponds
2677:Drivers/BSP/Components/iis2dlpc/iis2dlpc_reg.c ****   *         to 16*ODR_XL time. If the DUR[3:0] bits are set to a different
2678:Drivers/BSP/Components/iis2dlpc/iis2dlpc_reg.c ****   *         value, 1LSB corresponds to 32*ODR_XL time.[get]
2679:Drivers/BSP/Components/iis2dlpc/iis2dlpc_reg.c ****   *
2680:Drivers/BSP/Components/iis2dlpc/iis2dlpc_reg.c ****   * @param  ctx      read / write interface definitions
2681:Drivers/BSP/Components/iis2dlpc/iis2dlpc_reg.c ****   * @param  val      change the values of latency in reg INT_DUR
2682:Drivers/BSP/Components/iis2dlpc/iis2dlpc_reg.c ****   * @retval          interface status (MANDATORY: return 0 -> no Error)
2683:Drivers/BSP/Components/iis2dlpc/iis2dlpc_reg.c ****   *
2684:Drivers/BSP/Components/iis2dlpc/iis2dlpc_reg.c ****   */
2685:Drivers/BSP/Components/iis2dlpc/iis2dlpc_reg.c **** int32_t iis2dlpc_tap_dur_get(const stmdev_ctx_t *ctx, uint8_t *val)
2686:Drivers/BSP/Components/iis2dlpc/iis2dlpc_reg.c **** {
 6432              		.loc 1 2686 1 is_stmt 1 view -0
 6433              		.cfi_startproc
 6434              		@ args = 0, pretend = 0, frame = 8
 6435              		@ frame_needed = 0, uses_anonymous_args = 0
 6436              		.loc 1 2686 1 is_stmt 0 view .LVU1709
 6437 0000 10B5     		push	{r4, lr}
 6438              		.cfi_def_cfa_offset 8
 6439              		.cfi_offset 4, -8
 6440              		.cfi_offset 14, -4
 6441 0002 82B0     		sub	sp, sp, #8
 6442              		.cfi_def_cfa_offset 16
 6443 0004 0C46     		mov	r4, r1
2687:Drivers/BSP/Components/iis2dlpc/iis2dlpc_reg.c ****   iis2dlpc_int_dur_t reg;
 6444              		.loc 1 2687 3 is_stmt 1 view .LVU1710
2688:Drivers/BSP/Components/iis2dlpc/iis2dlpc_reg.c ****   int32_t ret;
 6445              		.loc 1 2688 3 view .LVU1711
2689:Drivers/BSP/Components/iis2dlpc/iis2dlpc_reg.c **** 
2690:Drivers/BSP/Components/iis2dlpc/iis2dlpc_reg.c ****   ret = iis2dlpc_read_reg(ctx, IIS2DLPC_INT_DUR, (uint8_t *) &reg, 1);
 6446              		.loc 1 2690 3 view .LVU1712
 6447              		.loc 1 2690 9 is_stmt 0 view .LVU1713
ARM GAS  C:\Temp\ccGZlXNO.s 			page 169


 6448 0006 0123     		movs	r3, #1
 6449 0008 01AA     		add	r2, sp, #4
 6450 000a 3321     		movs	r1, #51
 6451              	.LVL484:
 6452              		.loc 1 2690 9 view .LVU1714
 6453 000c FFF7FEFF 		bl	iis2dlpc_read_reg
 6454              	.LVL485:
2691:Drivers/BSP/Components/iis2dlpc/iis2dlpc_reg.c ****   *val = reg.latency;
 6455              		.loc 1 2691 3 is_stmt 1 view .LVU1715
 6456              		.loc 1 2691 13 is_stmt 0 view .LVU1716
 6457 0010 9DF80430 		ldrb	r3, [sp, #4]	@ zero_extendqisi2
 6458 0014 C3F30313 		ubfx	r3, r3, #4, #4
 6459              		.loc 1 2691 8 view .LVU1717
 6460 0018 2370     		strb	r3, [r4]
2692:Drivers/BSP/Components/iis2dlpc/iis2dlpc_reg.c **** 
2693:Drivers/BSP/Components/iis2dlpc/iis2dlpc_reg.c ****   return ret;
 6461              		.loc 1 2693 3 is_stmt 1 view .LVU1718
2694:Drivers/BSP/Components/iis2dlpc/iis2dlpc_reg.c **** }
 6462              		.loc 1 2694 1 is_stmt 0 view .LVU1719
 6463 001a 02B0     		add	sp, sp, #8
 6464              		.cfi_def_cfa_offset 8
 6465              		@ sp needed
 6466 001c 10BD     		pop	{r4, pc}
 6467              		.loc 1 2694 1 view .LVU1720
 6468              		.cfi_endproc
 6469              	.LFE96:
 6471              		.section	.text.iis2dlpc_tap_mode_set,"ax",%progbits
 6472              		.align	1
 6473              		.global	iis2dlpc_tap_mode_set
 6474              		.syntax unified
 6475              		.thumb
 6476              		.thumb_func
 6478              	iis2dlpc_tap_mode_set:
 6479              	.LVL486:
 6480              	.LFB97:
2695:Drivers/BSP/Components/iis2dlpc/iis2dlpc_reg.c **** 
2696:Drivers/BSP/Components/iis2dlpc/iis2dlpc_reg.c **** /**
2697:Drivers/BSP/Components/iis2dlpc/iis2dlpc_reg.c ****   * @brief  Single/double-tap event enable.[set]
2698:Drivers/BSP/Components/iis2dlpc/iis2dlpc_reg.c ****   *
2699:Drivers/BSP/Components/iis2dlpc/iis2dlpc_reg.c ****   * @param  ctx      read / write interface definitions
2700:Drivers/BSP/Components/iis2dlpc/iis2dlpc_reg.c ****   * @param  val      change the values of single_double_tap in reg WAKE_UP_THS
2701:Drivers/BSP/Components/iis2dlpc/iis2dlpc_reg.c ****   * @retval          interface status (MANDATORY: return 0 -> no Error)
2702:Drivers/BSP/Components/iis2dlpc/iis2dlpc_reg.c ****   *
2703:Drivers/BSP/Components/iis2dlpc/iis2dlpc_reg.c ****   */
2704:Drivers/BSP/Components/iis2dlpc/iis2dlpc_reg.c **** int32_t iis2dlpc_tap_mode_set(const stmdev_ctx_t *ctx,
2705:Drivers/BSP/Components/iis2dlpc/iis2dlpc_reg.c ****                               iis2dlpc_single_double_tap_t val)
2706:Drivers/BSP/Components/iis2dlpc/iis2dlpc_reg.c **** {
 6481              		.loc 1 2706 1 is_stmt 1 view -0
 6482              		.cfi_startproc
 6483              		@ args = 0, pretend = 0, frame = 8
 6484              		@ frame_needed = 0, uses_anonymous_args = 0
 6485              		.loc 1 2706 1 is_stmt 0 view .LVU1722
 6486 0000 30B5     		push	{r4, r5, lr}
 6487              		.cfi_def_cfa_offset 12
 6488              		.cfi_offset 4, -12
 6489              		.cfi_offset 5, -8
 6490              		.cfi_offset 14, -4
ARM GAS  C:\Temp\ccGZlXNO.s 			page 170


 6491 0002 83B0     		sub	sp, sp, #12
 6492              		.cfi_def_cfa_offset 24
 6493 0004 0446     		mov	r4, r0
 6494 0006 0D46     		mov	r5, r1
2707:Drivers/BSP/Components/iis2dlpc/iis2dlpc_reg.c ****   iis2dlpc_wake_up_ths_t reg;
 6495              		.loc 1 2707 3 is_stmt 1 view .LVU1723
2708:Drivers/BSP/Components/iis2dlpc/iis2dlpc_reg.c ****   int32_t ret;
 6496              		.loc 1 2708 3 view .LVU1724
2709:Drivers/BSP/Components/iis2dlpc/iis2dlpc_reg.c **** 
2710:Drivers/BSP/Components/iis2dlpc/iis2dlpc_reg.c ****   ret = iis2dlpc_read_reg(ctx, IIS2DLPC_WAKE_UP_THS, (uint8_t *) &reg, 1);
 6497              		.loc 1 2710 3 view .LVU1725
 6498              		.loc 1 2710 9 is_stmt 0 view .LVU1726
 6499 0008 0123     		movs	r3, #1
 6500 000a 01AA     		add	r2, sp, #4
 6501 000c 3421     		movs	r1, #52
 6502              	.LVL487:
 6503              		.loc 1 2710 9 view .LVU1727
 6504 000e FFF7FEFF 		bl	iis2dlpc_read_reg
 6505              	.LVL488:
2711:Drivers/BSP/Components/iis2dlpc/iis2dlpc_reg.c **** 
2712:Drivers/BSP/Components/iis2dlpc/iis2dlpc_reg.c ****   if (ret == 0)
 6506              		.loc 1 2712 3 is_stmt 1 view .LVU1728
 6507              		.loc 1 2712 6 is_stmt 0 view .LVU1729
 6508 0012 08B1     		cbz	r0, .L428
 6509              	.LVL489:
 6510              	.L425:
2713:Drivers/BSP/Components/iis2dlpc/iis2dlpc_reg.c ****   {
2714:Drivers/BSP/Components/iis2dlpc/iis2dlpc_reg.c ****     reg.single_double_tap = (uint8_t) val;
2715:Drivers/BSP/Components/iis2dlpc/iis2dlpc_reg.c ****     ret = iis2dlpc_write_reg(ctx, IIS2DLPC_WAKE_UP_THS, (uint8_t *) &reg, 1);
2716:Drivers/BSP/Components/iis2dlpc/iis2dlpc_reg.c ****   }
2717:Drivers/BSP/Components/iis2dlpc/iis2dlpc_reg.c **** 
2718:Drivers/BSP/Components/iis2dlpc/iis2dlpc_reg.c ****   return ret;
2719:Drivers/BSP/Components/iis2dlpc/iis2dlpc_reg.c **** }
 6511              		.loc 1 2719 1 view .LVU1730
 6512 0014 03B0     		add	sp, sp, #12
 6513              		.cfi_remember_state
 6514              		.cfi_def_cfa_offset 12
 6515              		@ sp needed
 6516 0016 30BD     		pop	{r4, r5, pc}
 6517              	.LVL490:
 6518              	.L428:
 6519              		.cfi_restore_state
2714:Drivers/BSP/Components/iis2dlpc/iis2dlpc_reg.c ****     ret = iis2dlpc_write_reg(ctx, IIS2DLPC_WAKE_UP_THS, (uint8_t *) &reg, 1);
 6520              		.loc 1 2714 5 is_stmt 1 view .LVU1731
2714:Drivers/BSP/Components/iis2dlpc/iis2dlpc_reg.c ****     ret = iis2dlpc_write_reg(ctx, IIS2DLPC_WAKE_UP_THS, (uint8_t *) &reg, 1);
 6521              		.loc 1 2714 27 is_stmt 0 view .LVU1732
 6522 0018 9DF80430 		ldrb	r3, [sp, #4]	@ zero_extendqisi2
 6523 001c 65F3C713 		bfi	r3, r5, #7, #1
 6524 0020 8DF80430 		strb	r3, [sp, #4]
2715:Drivers/BSP/Components/iis2dlpc/iis2dlpc_reg.c ****   }
 6525              		.loc 1 2715 5 is_stmt 1 view .LVU1733
2715:Drivers/BSP/Components/iis2dlpc/iis2dlpc_reg.c ****   }
 6526              		.loc 1 2715 11 is_stmt 0 view .LVU1734
 6527 0024 0123     		movs	r3, #1
 6528              	.LVL491:
2715:Drivers/BSP/Components/iis2dlpc/iis2dlpc_reg.c ****   }
 6529              		.loc 1 2715 11 view .LVU1735
ARM GAS  C:\Temp\ccGZlXNO.s 			page 171


 6530 0026 01AA     		add	r2, sp, #4
 6531 0028 3421     		movs	r1, #52
 6532 002a 2046     		mov	r0, r4
 6533 002c FFF7FEFF 		bl	iis2dlpc_write_reg
 6534              	.LVL492:
2718:Drivers/BSP/Components/iis2dlpc/iis2dlpc_reg.c **** }
 6535              		.loc 1 2718 3 is_stmt 1 view .LVU1736
2718:Drivers/BSP/Components/iis2dlpc/iis2dlpc_reg.c **** }
 6536              		.loc 1 2718 10 is_stmt 0 view .LVU1737
 6537 0030 F0E7     		b	.L425
 6538              		.cfi_endproc
 6539              	.LFE97:
 6541              		.section	.text.iis2dlpc_tap_mode_get,"ax",%progbits
 6542              		.align	1
 6543              		.global	iis2dlpc_tap_mode_get
 6544              		.syntax unified
 6545              		.thumb
 6546              		.thumb_func
 6548              	iis2dlpc_tap_mode_get:
 6549              	.LVL493:
 6550              	.LFB98:
2720:Drivers/BSP/Components/iis2dlpc/iis2dlpc_reg.c **** 
2721:Drivers/BSP/Components/iis2dlpc/iis2dlpc_reg.c **** /**
2722:Drivers/BSP/Components/iis2dlpc/iis2dlpc_reg.c ****   * @brief  Single/double-tap event enable.[get]
2723:Drivers/BSP/Components/iis2dlpc/iis2dlpc_reg.c ****   *
2724:Drivers/BSP/Components/iis2dlpc/iis2dlpc_reg.c ****   * @param  ctx      read / write interface definitions
2725:Drivers/BSP/Components/iis2dlpc/iis2dlpc_reg.c ****   * @param  val      Get the values of single_double_tap in reg WAKE_UP_THS
2726:Drivers/BSP/Components/iis2dlpc/iis2dlpc_reg.c ****   * @retval          interface status (MANDATORY: return 0 -> no Error)
2727:Drivers/BSP/Components/iis2dlpc/iis2dlpc_reg.c ****   *
2728:Drivers/BSP/Components/iis2dlpc/iis2dlpc_reg.c ****   */
2729:Drivers/BSP/Components/iis2dlpc/iis2dlpc_reg.c **** int32_t iis2dlpc_tap_mode_get(const stmdev_ctx_t *ctx,
2730:Drivers/BSP/Components/iis2dlpc/iis2dlpc_reg.c ****                               iis2dlpc_single_double_tap_t *val)
2731:Drivers/BSP/Components/iis2dlpc/iis2dlpc_reg.c **** {
 6551              		.loc 1 2731 1 is_stmt 1 view -0
 6552              		.cfi_startproc
 6553              		@ args = 0, pretend = 0, frame = 8
 6554              		@ frame_needed = 0, uses_anonymous_args = 0
 6555              		.loc 1 2731 1 is_stmt 0 view .LVU1739
 6556 0000 10B5     		push	{r4, lr}
 6557              		.cfi_def_cfa_offset 8
 6558              		.cfi_offset 4, -8
 6559              		.cfi_offset 14, -4
 6560 0002 82B0     		sub	sp, sp, #8
 6561              		.cfi_def_cfa_offset 16
 6562 0004 0C46     		mov	r4, r1
2732:Drivers/BSP/Components/iis2dlpc/iis2dlpc_reg.c ****   iis2dlpc_wake_up_ths_t reg;
 6563              		.loc 1 2732 3 is_stmt 1 view .LVU1740
2733:Drivers/BSP/Components/iis2dlpc/iis2dlpc_reg.c ****   int32_t ret;
 6564              		.loc 1 2733 3 view .LVU1741
2734:Drivers/BSP/Components/iis2dlpc/iis2dlpc_reg.c **** 
2735:Drivers/BSP/Components/iis2dlpc/iis2dlpc_reg.c ****   ret = iis2dlpc_read_reg(ctx, IIS2DLPC_WAKE_UP_THS, (uint8_t *) &reg, 1);
 6565              		.loc 1 2735 3 view .LVU1742
 6566              		.loc 1 2735 9 is_stmt 0 view .LVU1743
 6567 0006 0123     		movs	r3, #1
 6568 0008 01AA     		add	r2, sp, #4
 6569 000a 3421     		movs	r1, #52
 6570              	.LVL494:
ARM GAS  C:\Temp\ccGZlXNO.s 			page 172


 6571              		.loc 1 2735 9 view .LVU1744
 6572 000c FFF7FEFF 		bl	iis2dlpc_read_reg
 6573              	.LVL495:
2736:Drivers/BSP/Components/iis2dlpc/iis2dlpc_reg.c **** 
2737:Drivers/BSP/Components/iis2dlpc/iis2dlpc_reg.c ****   switch (reg.single_double_tap)
 6574              		.loc 1 2737 3 is_stmt 1 view .LVU1745
 6575              		.loc 1 2737 14 is_stmt 0 view .LVU1746
 6576 0010 9DF80430 		ldrb	r3, [sp, #4]	@ zero_extendqisi2
 6577              		.loc 1 2737 3 view .LVU1747
 6578 0014 DB09     		lsrs	r3, r3, #7
 6579 0016 03D0     		beq	.L430
 6580 0018 33B9     		cbnz	r3, .L431
2738:Drivers/BSP/Components/iis2dlpc/iis2dlpc_reg.c ****   {
2739:Drivers/BSP/Components/iis2dlpc/iis2dlpc_reg.c ****     case IIS2DLPC_ONLY_SINGLE:
2740:Drivers/BSP/Components/iis2dlpc/iis2dlpc_reg.c ****       *val = IIS2DLPC_ONLY_SINGLE;
2741:Drivers/BSP/Components/iis2dlpc/iis2dlpc_reg.c ****       break;
2742:Drivers/BSP/Components/iis2dlpc/iis2dlpc_reg.c **** 
2743:Drivers/BSP/Components/iis2dlpc/iis2dlpc_reg.c ****     case IIS2DLPC_BOTH_SINGLE_DOUBLE:
2744:Drivers/BSP/Components/iis2dlpc/iis2dlpc_reg.c ****       *val = IIS2DLPC_BOTH_SINGLE_DOUBLE;
2745:Drivers/BSP/Components/iis2dlpc/iis2dlpc_reg.c ****       break;
2746:Drivers/BSP/Components/iis2dlpc/iis2dlpc_reg.c **** 
2747:Drivers/BSP/Components/iis2dlpc/iis2dlpc_reg.c ****     default:
2748:Drivers/BSP/Components/iis2dlpc/iis2dlpc_reg.c ****       *val = IIS2DLPC_ONLY_SINGLE;
 6581              		.loc 1 2748 7 is_stmt 1 view .LVU1748
 6582              		.loc 1 2748 12 is_stmt 0 view .LVU1749
 6583 001a 0023     		movs	r3, #0
 6584 001c 2370     		strb	r3, [r4]
2749:Drivers/BSP/Components/iis2dlpc/iis2dlpc_reg.c ****       break;
 6585              		.loc 1 2749 7 is_stmt 1 view .LVU1750
2750:Drivers/BSP/Components/iis2dlpc/iis2dlpc_reg.c ****   }
2751:Drivers/BSP/Components/iis2dlpc/iis2dlpc_reg.c **** 
2752:Drivers/BSP/Components/iis2dlpc/iis2dlpc_reg.c ****   return ret;
 6586              		.loc 1 2752 3 view .LVU1751
 6587              		.loc 1 2752 10 is_stmt 0 view .LVU1752
 6588 001e 01E0     		b	.L429
 6589              	.L430:
2740:Drivers/BSP/Components/iis2dlpc/iis2dlpc_reg.c ****       break;
 6590              		.loc 1 2740 7 is_stmt 1 view .LVU1753
2740:Drivers/BSP/Components/iis2dlpc/iis2dlpc_reg.c ****       break;
 6591              		.loc 1 2740 12 is_stmt 0 view .LVU1754
 6592 0020 0023     		movs	r3, #0
 6593 0022 2370     		strb	r3, [r4]
2741:Drivers/BSP/Components/iis2dlpc/iis2dlpc_reg.c **** 
 6594              		.loc 1 2741 7 is_stmt 1 view .LVU1755
 6595              	.L429:
2753:Drivers/BSP/Components/iis2dlpc/iis2dlpc_reg.c **** }
 6596              		.loc 1 2753 1 is_stmt 0 view .LVU1756
 6597 0024 02B0     		add	sp, sp, #8
 6598              		.cfi_remember_state
 6599              		.cfi_def_cfa_offset 8
 6600              		@ sp needed
 6601 0026 10BD     		pop	{r4, pc}
 6602              	.LVL496:
 6603              	.L431:
 6604              		.cfi_restore_state
2744:Drivers/BSP/Components/iis2dlpc/iis2dlpc_reg.c ****       break;
 6605              		.loc 1 2744 7 is_stmt 1 view .LVU1757
ARM GAS  C:\Temp\ccGZlXNO.s 			page 173


2744:Drivers/BSP/Components/iis2dlpc/iis2dlpc_reg.c ****       break;
 6606              		.loc 1 2744 12 is_stmt 0 view .LVU1758
 6607 0028 0123     		movs	r3, #1
 6608 002a 2370     		strb	r3, [r4]
2745:Drivers/BSP/Components/iis2dlpc/iis2dlpc_reg.c **** 
 6609              		.loc 1 2745 7 is_stmt 1 view .LVU1759
 6610 002c FAE7     		b	.L429
 6611              		.cfi_endproc
 6612              	.LFE98:
 6614              		.section	.text.iis2dlpc_tap_src_get,"ax",%progbits
 6615              		.align	1
 6616              		.global	iis2dlpc_tap_src_get
 6617              		.syntax unified
 6618              		.thumb
 6619              		.thumb_func
 6621              	iis2dlpc_tap_src_get:
 6622              	.LVL497:
 6623              	.LFB99:
2754:Drivers/BSP/Components/iis2dlpc/iis2dlpc_reg.c **** 
2755:Drivers/BSP/Components/iis2dlpc/iis2dlpc_reg.c **** /**
2756:Drivers/BSP/Components/iis2dlpc/iis2dlpc_reg.c ****   * @brief  Read the tap / double tap source register.[get]
2757:Drivers/BSP/Components/iis2dlpc/iis2dlpc_reg.c ****   *
2758:Drivers/BSP/Components/iis2dlpc/iis2dlpc_reg.c ****   * @param  ctx      read / write interface definitions
2759:Drivers/BSP/Components/iis2dlpc/iis2dlpc_reg.c ****   * @param  iis2dlpc_tap_src: union of registers from TAP_SRC to
2760:Drivers/BSP/Components/iis2dlpc/iis2dlpc_reg.c ****   * @retval          interface status (MANDATORY: return 0 -> no Error)
2761:Drivers/BSP/Components/iis2dlpc/iis2dlpc_reg.c ****   *
2762:Drivers/BSP/Components/iis2dlpc/iis2dlpc_reg.c ****   */
2763:Drivers/BSP/Components/iis2dlpc/iis2dlpc_reg.c **** int32_t iis2dlpc_tap_src_get(const stmdev_ctx_t *ctx,
2764:Drivers/BSP/Components/iis2dlpc/iis2dlpc_reg.c ****                              iis2dlpc_tap_src_t *val)
2765:Drivers/BSP/Components/iis2dlpc/iis2dlpc_reg.c **** {
 6624              		.loc 1 2765 1 view -0
 6625              		.cfi_startproc
 6626              		@ args = 0, pretend = 0, frame = 0
 6627              		@ frame_needed = 0, uses_anonymous_args = 0
 6628              		.loc 1 2765 1 is_stmt 0 view .LVU1761
 6629 0000 08B5     		push	{r3, lr}
 6630              		.cfi_def_cfa_offset 8
 6631              		.cfi_offset 3, -8
 6632              		.cfi_offset 14, -4
 6633 0002 0A46     		mov	r2, r1
2766:Drivers/BSP/Components/iis2dlpc/iis2dlpc_reg.c ****   int32_t ret;
 6634              		.loc 1 2766 3 is_stmt 1 view .LVU1762
2767:Drivers/BSP/Components/iis2dlpc/iis2dlpc_reg.c **** 
2768:Drivers/BSP/Components/iis2dlpc/iis2dlpc_reg.c ****   ret = iis2dlpc_read_reg(ctx, IIS2DLPC_TAP_SRC, (uint8_t *) val, 1);
 6635              		.loc 1 2768 3 view .LVU1763
 6636              		.loc 1 2768 9 is_stmt 0 view .LVU1764
 6637 0004 0123     		movs	r3, #1
 6638 0006 3921     		movs	r1, #57
 6639              	.LVL498:
 6640              		.loc 1 2768 9 view .LVU1765
 6641 0008 FFF7FEFF 		bl	iis2dlpc_read_reg
 6642              	.LVL499:
2769:Drivers/BSP/Components/iis2dlpc/iis2dlpc_reg.c **** 
2770:Drivers/BSP/Components/iis2dlpc/iis2dlpc_reg.c ****   return ret;
 6643              		.loc 1 2770 3 is_stmt 1 view .LVU1766
2771:Drivers/BSP/Components/iis2dlpc/iis2dlpc_reg.c **** }
 6644              		.loc 1 2771 1 is_stmt 0 view .LVU1767
ARM GAS  C:\Temp\ccGZlXNO.s 			page 174


 6645 000c 08BD     		pop	{r3, pc}
 6646              		.cfi_endproc
 6647              	.LFE99:
 6649              		.section	.text.iis2dlpc_6d_threshold_set,"ax",%progbits
 6650              		.align	1
 6651              		.global	iis2dlpc_6d_threshold_set
 6652              		.syntax unified
 6653              		.thumb
 6654              		.thumb_func
 6656              	iis2dlpc_6d_threshold_set:
 6657              	.LVL500:
 6658              	.LFB100:
2772:Drivers/BSP/Components/iis2dlpc/iis2dlpc_reg.c **** 
2773:Drivers/BSP/Components/iis2dlpc/iis2dlpc_reg.c **** /**
2774:Drivers/BSP/Components/iis2dlpc/iis2dlpc_reg.c ****   * @}
2775:Drivers/BSP/Components/iis2dlpc/iis2dlpc_reg.c ****   *
2776:Drivers/BSP/Components/iis2dlpc/iis2dlpc_reg.c ****   */
2777:Drivers/BSP/Components/iis2dlpc/iis2dlpc_reg.c **** 
2778:Drivers/BSP/Components/iis2dlpc/iis2dlpc_reg.c **** /**
2779:Drivers/BSP/Components/iis2dlpc/iis2dlpc_reg.c ****   * @defgroup   IIS2DLPC_Six_Position_Detection(6D/4D)
2780:Drivers/BSP/Components/iis2dlpc/iis2dlpc_reg.c ****   * @brief      This section groups all the functions concerning six
2781:Drivers/BSP/Components/iis2dlpc/iis2dlpc_reg.c ****   *             position detection (6D).
2782:Drivers/BSP/Components/iis2dlpc/iis2dlpc_reg.c ****   * @{
2783:Drivers/BSP/Components/iis2dlpc/iis2dlpc_reg.c ****   *
2784:Drivers/BSP/Components/iis2dlpc/iis2dlpc_reg.c ****   */
2785:Drivers/BSP/Components/iis2dlpc/iis2dlpc_reg.c **** 
2786:Drivers/BSP/Components/iis2dlpc/iis2dlpc_reg.c **** /**
2787:Drivers/BSP/Components/iis2dlpc/iis2dlpc_reg.c ****   * @brief  Threshold for 4D/6D function.[set]
2788:Drivers/BSP/Components/iis2dlpc/iis2dlpc_reg.c ****   *
2789:Drivers/BSP/Components/iis2dlpc/iis2dlpc_reg.c ****   * @param  ctx      read / write interface definitions
2790:Drivers/BSP/Components/iis2dlpc/iis2dlpc_reg.c ****   * @param  val      change the values of 6d_ths in reg TAP_THS_X
2791:Drivers/BSP/Components/iis2dlpc/iis2dlpc_reg.c ****   * @retval          interface status (MANDATORY: return 0 -> no Error)
2792:Drivers/BSP/Components/iis2dlpc/iis2dlpc_reg.c ****   *
2793:Drivers/BSP/Components/iis2dlpc/iis2dlpc_reg.c ****   */
2794:Drivers/BSP/Components/iis2dlpc/iis2dlpc_reg.c **** int32_t iis2dlpc_6d_threshold_set(const stmdev_ctx_t *ctx, uint8_t val)
2795:Drivers/BSP/Components/iis2dlpc/iis2dlpc_reg.c **** {
 6659              		.loc 1 2795 1 is_stmt 1 view -0
 6660              		.cfi_startproc
 6661              		@ args = 0, pretend = 0, frame = 8
 6662              		@ frame_needed = 0, uses_anonymous_args = 0
 6663              		.loc 1 2795 1 is_stmt 0 view .LVU1769
 6664 0000 30B5     		push	{r4, r5, lr}
 6665              		.cfi_def_cfa_offset 12
 6666              		.cfi_offset 4, -12
 6667              		.cfi_offset 5, -8
 6668              		.cfi_offset 14, -4
 6669 0002 83B0     		sub	sp, sp, #12
 6670              		.cfi_def_cfa_offset 24
 6671 0004 0446     		mov	r4, r0
 6672 0006 0D46     		mov	r5, r1
2796:Drivers/BSP/Components/iis2dlpc/iis2dlpc_reg.c ****   iis2dlpc_tap_ths_x_t reg;
 6673              		.loc 1 2796 3 is_stmt 1 view .LVU1770
2797:Drivers/BSP/Components/iis2dlpc/iis2dlpc_reg.c ****   int32_t ret;
 6674              		.loc 1 2797 3 view .LVU1771
2798:Drivers/BSP/Components/iis2dlpc/iis2dlpc_reg.c **** 
2799:Drivers/BSP/Components/iis2dlpc/iis2dlpc_reg.c ****   ret = iis2dlpc_read_reg(ctx, IIS2DLPC_TAP_THS_X, (uint8_t *) &reg, 1);
 6675              		.loc 1 2799 3 view .LVU1772
ARM GAS  C:\Temp\ccGZlXNO.s 			page 175


 6676              		.loc 1 2799 9 is_stmt 0 view .LVU1773
 6677 0008 0123     		movs	r3, #1
 6678 000a 01AA     		add	r2, sp, #4
 6679 000c 3021     		movs	r1, #48
 6680              	.LVL501:
 6681              		.loc 1 2799 9 view .LVU1774
 6682 000e FFF7FEFF 		bl	iis2dlpc_read_reg
 6683              	.LVL502:
2800:Drivers/BSP/Components/iis2dlpc/iis2dlpc_reg.c **** 
2801:Drivers/BSP/Components/iis2dlpc/iis2dlpc_reg.c ****   if (ret == 0)
 6684              		.loc 1 2801 3 is_stmt 1 view .LVU1775
 6685              		.loc 1 2801 6 is_stmt 0 view .LVU1776
 6686 0012 08B1     		cbz	r0, .L441
 6687              	.LVL503:
 6688              	.L438:
2802:Drivers/BSP/Components/iis2dlpc/iis2dlpc_reg.c ****   {
2803:Drivers/BSP/Components/iis2dlpc/iis2dlpc_reg.c ****     reg._6d_ths = val;
2804:Drivers/BSP/Components/iis2dlpc/iis2dlpc_reg.c ****     ret = iis2dlpc_write_reg(ctx, IIS2DLPC_TAP_THS_X, (uint8_t *) &reg, 1);
2805:Drivers/BSP/Components/iis2dlpc/iis2dlpc_reg.c ****   }
2806:Drivers/BSP/Components/iis2dlpc/iis2dlpc_reg.c **** 
2807:Drivers/BSP/Components/iis2dlpc/iis2dlpc_reg.c ****   return ret;
2808:Drivers/BSP/Components/iis2dlpc/iis2dlpc_reg.c **** }
 6689              		.loc 1 2808 1 view .LVU1777
 6690 0014 03B0     		add	sp, sp, #12
 6691              		.cfi_remember_state
 6692              		.cfi_def_cfa_offset 12
 6693              		@ sp needed
 6694 0016 30BD     		pop	{r4, r5, pc}
 6695              	.LVL504:
 6696              	.L441:
 6697              		.cfi_restore_state
2803:Drivers/BSP/Components/iis2dlpc/iis2dlpc_reg.c ****     ret = iis2dlpc_write_reg(ctx, IIS2DLPC_TAP_THS_X, (uint8_t *) &reg, 1);
 6698              		.loc 1 2803 5 is_stmt 1 view .LVU1778
2803:Drivers/BSP/Components/iis2dlpc/iis2dlpc_reg.c ****     ret = iis2dlpc_write_reg(ctx, IIS2DLPC_TAP_THS_X, (uint8_t *) &reg, 1);
 6699              		.loc 1 2803 17 is_stmt 0 view .LVU1779
 6700 0018 9DF80430 		ldrb	r3, [sp, #4]	@ zero_extendqisi2
 6701 001c 65F34613 		bfi	r3, r5, #5, #2
 6702 0020 8DF80430 		strb	r3, [sp, #4]
2804:Drivers/BSP/Components/iis2dlpc/iis2dlpc_reg.c ****   }
 6703              		.loc 1 2804 5 is_stmt 1 view .LVU1780
2804:Drivers/BSP/Components/iis2dlpc/iis2dlpc_reg.c ****   }
 6704              		.loc 1 2804 11 is_stmt 0 view .LVU1781
 6705 0024 0123     		movs	r3, #1
 6706              	.LVL505:
2804:Drivers/BSP/Components/iis2dlpc/iis2dlpc_reg.c ****   }
 6707              		.loc 1 2804 11 view .LVU1782
 6708 0026 01AA     		add	r2, sp, #4
 6709 0028 3021     		movs	r1, #48
 6710 002a 2046     		mov	r0, r4
 6711 002c FFF7FEFF 		bl	iis2dlpc_write_reg
 6712              	.LVL506:
2807:Drivers/BSP/Components/iis2dlpc/iis2dlpc_reg.c **** }
 6713              		.loc 1 2807 3 is_stmt 1 view .LVU1783
2807:Drivers/BSP/Components/iis2dlpc/iis2dlpc_reg.c **** }
 6714              		.loc 1 2807 10 is_stmt 0 view .LVU1784
 6715 0030 F0E7     		b	.L438
 6716              		.cfi_endproc
ARM GAS  C:\Temp\ccGZlXNO.s 			page 176


 6717              	.LFE100:
 6719              		.section	.text.iis2dlpc_6d_threshold_get,"ax",%progbits
 6720              		.align	1
 6721              		.global	iis2dlpc_6d_threshold_get
 6722              		.syntax unified
 6723              		.thumb
 6724              		.thumb_func
 6726              	iis2dlpc_6d_threshold_get:
 6727              	.LVL507:
 6728              	.LFB101:
2809:Drivers/BSP/Components/iis2dlpc/iis2dlpc_reg.c **** 
2810:Drivers/BSP/Components/iis2dlpc/iis2dlpc_reg.c **** /**
2811:Drivers/BSP/Components/iis2dlpc/iis2dlpc_reg.c ****   * @brief  Threshold for 4D/6D function.[get]
2812:Drivers/BSP/Components/iis2dlpc/iis2dlpc_reg.c ****   *
2813:Drivers/BSP/Components/iis2dlpc/iis2dlpc_reg.c ****   * @param  ctx      read / write interface definitions
2814:Drivers/BSP/Components/iis2dlpc/iis2dlpc_reg.c ****   * @param  val      change the values of 6d_ths in reg TAP_THS_X
2815:Drivers/BSP/Components/iis2dlpc/iis2dlpc_reg.c ****   * @retval          interface status (MANDATORY: return 0 -> no Error)
2816:Drivers/BSP/Components/iis2dlpc/iis2dlpc_reg.c ****   *
2817:Drivers/BSP/Components/iis2dlpc/iis2dlpc_reg.c ****   */
2818:Drivers/BSP/Components/iis2dlpc/iis2dlpc_reg.c **** int32_t iis2dlpc_6d_threshold_get(const stmdev_ctx_t *ctx, uint8_t *val)
2819:Drivers/BSP/Components/iis2dlpc/iis2dlpc_reg.c **** {
 6729              		.loc 1 2819 1 is_stmt 1 view -0
 6730              		.cfi_startproc
 6731              		@ args = 0, pretend = 0, frame = 8
 6732              		@ frame_needed = 0, uses_anonymous_args = 0
 6733              		.loc 1 2819 1 is_stmt 0 view .LVU1786
 6734 0000 10B5     		push	{r4, lr}
 6735              		.cfi_def_cfa_offset 8
 6736              		.cfi_offset 4, -8
 6737              		.cfi_offset 14, -4
 6738 0002 82B0     		sub	sp, sp, #8
 6739              		.cfi_def_cfa_offset 16
 6740 0004 0C46     		mov	r4, r1
2820:Drivers/BSP/Components/iis2dlpc/iis2dlpc_reg.c ****   iis2dlpc_tap_ths_x_t reg;
 6741              		.loc 1 2820 3 is_stmt 1 view .LVU1787
2821:Drivers/BSP/Components/iis2dlpc/iis2dlpc_reg.c ****   int32_t ret;
 6742              		.loc 1 2821 3 view .LVU1788
2822:Drivers/BSP/Components/iis2dlpc/iis2dlpc_reg.c **** 
2823:Drivers/BSP/Components/iis2dlpc/iis2dlpc_reg.c ****   ret = iis2dlpc_read_reg(ctx, IIS2DLPC_TAP_THS_X, (uint8_t *) &reg, 1);
 6743              		.loc 1 2823 3 view .LVU1789
 6744              		.loc 1 2823 9 is_stmt 0 view .LVU1790
 6745 0006 0123     		movs	r3, #1
 6746 0008 01AA     		add	r2, sp, #4
 6747 000a 3021     		movs	r1, #48
 6748              	.LVL508:
 6749              		.loc 1 2823 9 view .LVU1791
 6750 000c FFF7FEFF 		bl	iis2dlpc_read_reg
 6751              	.LVL509:
2824:Drivers/BSP/Components/iis2dlpc/iis2dlpc_reg.c ****   *val = reg._6d_ths;
 6752              		.loc 1 2824 3 is_stmt 1 view .LVU1792
 6753              		.loc 1 2824 13 is_stmt 0 view .LVU1793
 6754 0010 9DF80430 		ldrb	r3, [sp, #4]	@ zero_extendqisi2
 6755 0014 C3F34113 		ubfx	r3, r3, #5, #2
 6756              		.loc 1 2824 8 view .LVU1794
 6757 0018 2370     		strb	r3, [r4]
2825:Drivers/BSP/Components/iis2dlpc/iis2dlpc_reg.c **** 
2826:Drivers/BSP/Components/iis2dlpc/iis2dlpc_reg.c ****   return ret;
ARM GAS  C:\Temp\ccGZlXNO.s 			page 177


 6758              		.loc 1 2826 3 is_stmt 1 view .LVU1795
2827:Drivers/BSP/Components/iis2dlpc/iis2dlpc_reg.c **** }
 6759              		.loc 1 2827 1 is_stmt 0 view .LVU1796
 6760 001a 02B0     		add	sp, sp, #8
 6761              		.cfi_def_cfa_offset 8
 6762              		@ sp needed
 6763 001c 10BD     		pop	{r4, pc}
 6764              		.loc 1 2827 1 view .LVU1797
 6765              		.cfi_endproc
 6766              	.LFE101:
 6768              		.section	.text.iis2dlpc_4d_mode_set,"ax",%progbits
 6769              		.align	1
 6770              		.global	iis2dlpc_4d_mode_set
 6771              		.syntax unified
 6772              		.thumb
 6773              		.thumb_func
 6775              	iis2dlpc_4d_mode_set:
 6776              	.LVL510:
 6777              	.LFB102:
2828:Drivers/BSP/Components/iis2dlpc/iis2dlpc_reg.c **** 
2829:Drivers/BSP/Components/iis2dlpc/iis2dlpc_reg.c **** /**
2830:Drivers/BSP/Components/iis2dlpc/iis2dlpc_reg.c ****   * @brief  4D orientation detection enable.[set]
2831:Drivers/BSP/Components/iis2dlpc/iis2dlpc_reg.c ****   *
2832:Drivers/BSP/Components/iis2dlpc/iis2dlpc_reg.c ****   * @param  ctx      read / write interface definitions
2833:Drivers/BSP/Components/iis2dlpc/iis2dlpc_reg.c ****   * @param  val      change the values of 4d_en in reg TAP_THS_X
2834:Drivers/BSP/Components/iis2dlpc/iis2dlpc_reg.c ****   * @retval          interface status (MANDATORY: return 0 -> no Error)
2835:Drivers/BSP/Components/iis2dlpc/iis2dlpc_reg.c ****   *
2836:Drivers/BSP/Components/iis2dlpc/iis2dlpc_reg.c ****   */
2837:Drivers/BSP/Components/iis2dlpc/iis2dlpc_reg.c **** int32_t iis2dlpc_4d_mode_set(const stmdev_ctx_t *ctx, uint8_t val)
2838:Drivers/BSP/Components/iis2dlpc/iis2dlpc_reg.c **** {
 6778              		.loc 1 2838 1 is_stmt 1 view -0
 6779              		.cfi_startproc
 6780              		@ args = 0, pretend = 0, frame = 8
 6781              		@ frame_needed = 0, uses_anonymous_args = 0
 6782              		.loc 1 2838 1 is_stmt 0 view .LVU1799
 6783 0000 30B5     		push	{r4, r5, lr}
 6784              		.cfi_def_cfa_offset 12
 6785              		.cfi_offset 4, -12
 6786              		.cfi_offset 5, -8
 6787              		.cfi_offset 14, -4
 6788 0002 83B0     		sub	sp, sp, #12
 6789              		.cfi_def_cfa_offset 24
 6790 0004 0446     		mov	r4, r0
 6791 0006 0D46     		mov	r5, r1
2839:Drivers/BSP/Components/iis2dlpc/iis2dlpc_reg.c ****   iis2dlpc_tap_ths_x_t reg;
 6792              		.loc 1 2839 3 is_stmt 1 view .LVU1800
2840:Drivers/BSP/Components/iis2dlpc/iis2dlpc_reg.c ****   int32_t ret;
 6793              		.loc 1 2840 3 view .LVU1801
2841:Drivers/BSP/Components/iis2dlpc/iis2dlpc_reg.c **** 
2842:Drivers/BSP/Components/iis2dlpc/iis2dlpc_reg.c ****   ret = iis2dlpc_read_reg(ctx, IIS2DLPC_TAP_THS_X, (uint8_t *) &reg, 1);
 6794              		.loc 1 2842 3 view .LVU1802
 6795              		.loc 1 2842 9 is_stmt 0 view .LVU1803
 6796 0008 0123     		movs	r3, #1
 6797 000a 01AA     		add	r2, sp, #4
 6798 000c 3021     		movs	r1, #48
 6799              	.LVL511:
 6800              		.loc 1 2842 9 view .LVU1804
ARM GAS  C:\Temp\ccGZlXNO.s 			page 178


 6801 000e FFF7FEFF 		bl	iis2dlpc_read_reg
 6802              	.LVL512:
2843:Drivers/BSP/Components/iis2dlpc/iis2dlpc_reg.c **** 
2844:Drivers/BSP/Components/iis2dlpc/iis2dlpc_reg.c ****   if (ret == 0)
 6803              		.loc 1 2844 3 is_stmt 1 view .LVU1805
 6804              		.loc 1 2844 6 is_stmt 0 view .LVU1806
 6805 0012 08B1     		cbz	r0, .L447
 6806              	.LVL513:
 6807              	.L444:
2845:Drivers/BSP/Components/iis2dlpc/iis2dlpc_reg.c ****   {
2846:Drivers/BSP/Components/iis2dlpc/iis2dlpc_reg.c ****     reg._4d_en = val;
2847:Drivers/BSP/Components/iis2dlpc/iis2dlpc_reg.c ****     ret = iis2dlpc_write_reg(ctx, IIS2DLPC_TAP_THS_X, (uint8_t *) &reg, 1);
2848:Drivers/BSP/Components/iis2dlpc/iis2dlpc_reg.c ****   }
2849:Drivers/BSP/Components/iis2dlpc/iis2dlpc_reg.c **** 
2850:Drivers/BSP/Components/iis2dlpc/iis2dlpc_reg.c ****   return ret;
2851:Drivers/BSP/Components/iis2dlpc/iis2dlpc_reg.c **** }
 6808              		.loc 1 2851 1 view .LVU1807
 6809 0014 03B0     		add	sp, sp, #12
 6810              		.cfi_remember_state
 6811              		.cfi_def_cfa_offset 12
 6812              		@ sp needed
 6813 0016 30BD     		pop	{r4, r5, pc}
 6814              	.LVL514:
 6815              	.L447:
 6816              		.cfi_restore_state
2846:Drivers/BSP/Components/iis2dlpc/iis2dlpc_reg.c ****     ret = iis2dlpc_write_reg(ctx, IIS2DLPC_TAP_THS_X, (uint8_t *) &reg, 1);
 6817              		.loc 1 2846 5 is_stmt 1 view .LVU1808
2846:Drivers/BSP/Components/iis2dlpc/iis2dlpc_reg.c ****     ret = iis2dlpc_write_reg(ctx, IIS2DLPC_TAP_THS_X, (uint8_t *) &reg, 1);
 6818              		.loc 1 2846 16 is_stmt 0 view .LVU1809
 6819 0018 9DF80430 		ldrb	r3, [sp, #4]	@ zero_extendqisi2
 6820 001c 65F3C713 		bfi	r3, r5, #7, #1
 6821 0020 8DF80430 		strb	r3, [sp, #4]
2847:Drivers/BSP/Components/iis2dlpc/iis2dlpc_reg.c ****   }
 6822              		.loc 1 2847 5 is_stmt 1 view .LVU1810
2847:Drivers/BSP/Components/iis2dlpc/iis2dlpc_reg.c ****   }
 6823              		.loc 1 2847 11 is_stmt 0 view .LVU1811
 6824 0024 0123     		movs	r3, #1
 6825              	.LVL515:
2847:Drivers/BSP/Components/iis2dlpc/iis2dlpc_reg.c ****   }
 6826              		.loc 1 2847 11 view .LVU1812
 6827 0026 01AA     		add	r2, sp, #4
 6828 0028 3021     		movs	r1, #48
 6829 002a 2046     		mov	r0, r4
 6830 002c FFF7FEFF 		bl	iis2dlpc_write_reg
 6831              	.LVL516:
2850:Drivers/BSP/Components/iis2dlpc/iis2dlpc_reg.c **** }
 6832              		.loc 1 2850 3 is_stmt 1 view .LVU1813
2850:Drivers/BSP/Components/iis2dlpc/iis2dlpc_reg.c **** }
 6833              		.loc 1 2850 10 is_stmt 0 view .LVU1814
 6834 0030 F0E7     		b	.L444
 6835              		.cfi_endproc
 6836              	.LFE102:
 6838              		.section	.text.iis2dlpc_4d_mode_get,"ax",%progbits
 6839              		.align	1
 6840              		.global	iis2dlpc_4d_mode_get
 6841              		.syntax unified
 6842              		.thumb
ARM GAS  C:\Temp\ccGZlXNO.s 			page 179


 6843              		.thumb_func
 6845              	iis2dlpc_4d_mode_get:
 6846              	.LVL517:
 6847              	.LFB103:
2852:Drivers/BSP/Components/iis2dlpc/iis2dlpc_reg.c **** 
2853:Drivers/BSP/Components/iis2dlpc/iis2dlpc_reg.c **** /**
2854:Drivers/BSP/Components/iis2dlpc/iis2dlpc_reg.c ****   * @brief  4D orientation detection enable.[get]
2855:Drivers/BSP/Components/iis2dlpc/iis2dlpc_reg.c ****   *
2856:Drivers/BSP/Components/iis2dlpc/iis2dlpc_reg.c ****   * @param  ctx      read / write interface definitions
2857:Drivers/BSP/Components/iis2dlpc/iis2dlpc_reg.c ****   * @param  val      change the values of 4d_en in reg TAP_THS_X
2858:Drivers/BSP/Components/iis2dlpc/iis2dlpc_reg.c ****   * @retval          interface status (MANDATORY: return 0 -> no Error)
2859:Drivers/BSP/Components/iis2dlpc/iis2dlpc_reg.c ****   *
2860:Drivers/BSP/Components/iis2dlpc/iis2dlpc_reg.c ****   */
2861:Drivers/BSP/Components/iis2dlpc/iis2dlpc_reg.c **** int32_t iis2dlpc_4d_mode_get(const stmdev_ctx_t *ctx, uint8_t *val)
2862:Drivers/BSP/Components/iis2dlpc/iis2dlpc_reg.c **** {
 6848              		.loc 1 2862 1 is_stmt 1 view -0
 6849              		.cfi_startproc
 6850              		@ args = 0, pretend = 0, frame = 8
 6851              		@ frame_needed = 0, uses_anonymous_args = 0
 6852              		.loc 1 2862 1 is_stmt 0 view .LVU1816
 6853 0000 10B5     		push	{r4, lr}
 6854              		.cfi_def_cfa_offset 8
 6855              		.cfi_offset 4, -8
 6856              		.cfi_offset 14, -4
 6857 0002 82B0     		sub	sp, sp, #8
 6858              		.cfi_def_cfa_offset 16
 6859 0004 0C46     		mov	r4, r1
2863:Drivers/BSP/Components/iis2dlpc/iis2dlpc_reg.c ****   iis2dlpc_tap_ths_x_t reg;
 6860              		.loc 1 2863 3 is_stmt 1 view .LVU1817
2864:Drivers/BSP/Components/iis2dlpc/iis2dlpc_reg.c ****   int32_t ret;
 6861              		.loc 1 2864 3 view .LVU1818
2865:Drivers/BSP/Components/iis2dlpc/iis2dlpc_reg.c **** 
2866:Drivers/BSP/Components/iis2dlpc/iis2dlpc_reg.c ****   ret = iis2dlpc_read_reg(ctx, IIS2DLPC_TAP_THS_X, (uint8_t *) &reg, 1);
 6862              		.loc 1 2866 3 view .LVU1819
 6863              		.loc 1 2866 9 is_stmt 0 view .LVU1820
 6864 0006 0123     		movs	r3, #1
 6865 0008 01AA     		add	r2, sp, #4
 6866 000a 3021     		movs	r1, #48
 6867              	.LVL518:
 6868              		.loc 1 2866 9 view .LVU1821
 6869 000c FFF7FEFF 		bl	iis2dlpc_read_reg
 6870              	.LVL519:
2867:Drivers/BSP/Components/iis2dlpc/iis2dlpc_reg.c ****   *val = reg._4d_en;
 6871              		.loc 1 2867 3 is_stmt 1 view .LVU1822
 6872              		.loc 1 2867 13 is_stmt 0 view .LVU1823
 6873 0010 9DF80430 		ldrb	r3, [sp, #4]	@ zero_extendqisi2
 6874 0014 C3F3C013 		ubfx	r3, r3, #7, #1
 6875              		.loc 1 2867 8 view .LVU1824
 6876 0018 2370     		strb	r3, [r4]
2868:Drivers/BSP/Components/iis2dlpc/iis2dlpc_reg.c **** 
2869:Drivers/BSP/Components/iis2dlpc/iis2dlpc_reg.c ****   return ret;
 6877              		.loc 1 2869 3 is_stmt 1 view .LVU1825
2870:Drivers/BSP/Components/iis2dlpc/iis2dlpc_reg.c **** }
 6878              		.loc 1 2870 1 is_stmt 0 view .LVU1826
 6879 001a 02B0     		add	sp, sp, #8
 6880              		.cfi_def_cfa_offset 8
 6881              		@ sp needed
ARM GAS  C:\Temp\ccGZlXNO.s 			page 180


 6882 001c 10BD     		pop	{r4, pc}
 6883              		.loc 1 2870 1 view .LVU1827
 6884              		.cfi_endproc
 6885              	.LFE103:
 6887              		.section	.text.iis2dlpc_6d_src_get,"ax",%progbits
 6888              		.align	1
 6889              		.global	iis2dlpc_6d_src_get
 6890              		.syntax unified
 6891              		.thumb
 6892              		.thumb_func
 6894              	iis2dlpc_6d_src_get:
 6895              	.LVL520:
 6896              	.LFB104:
2871:Drivers/BSP/Components/iis2dlpc/iis2dlpc_reg.c **** 
2872:Drivers/BSP/Components/iis2dlpc/iis2dlpc_reg.c **** /**
2873:Drivers/BSP/Components/iis2dlpc/iis2dlpc_reg.c ****   * @brief  Read the 6D tap source register.[get]
2874:Drivers/BSP/Components/iis2dlpc/iis2dlpc_reg.c ****   *
2875:Drivers/BSP/Components/iis2dlpc/iis2dlpc_reg.c ****   * @param  ctx      read / write interface definitions
2876:Drivers/BSP/Components/iis2dlpc/iis2dlpc_reg.c ****   * @param  val      union of registers from SIXD_SRC
2877:Drivers/BSP/Components/iis2dlpc/iis2dlpc_reg.c ****   * @retval          interface status (MANDATORY: return 0 -> no Error)
2878:Drivers/BSP/Components/iis2dlpc/iis2dlpc_reg.c ****   *
2879:Drivers/BSP/Components/iis2dlpc/iis2dlpc_reg.c ****   */
2880:Drivers/BSP/Components/iis2dlpc/iis2dlpc_reg.c **** int32_t iis2dlpc_6d_src_get(const stmdev_ctx_t *ctx,
2881:Drivers/BSP/Components/iis2dlpc/iis2dlpc_reg.c ****                             iis2dlpc_sixd_src_t *val)
2882:Drivers/BSP/Components/iis2dlpc/iis2dlpc_reg.c **** {
 6897              		.loc 1 2882 1 is_stmt 1 view -0
 6898              		.cfi_startproc
 6899              		@ args = 0, pretend = 0, frame = 0
 6900              		@ frame_needed = 0, uses_anonymous_args = 0
 6901              		.loc 1 2882 1 is_stmt 0 view .LVU1829
 6902 0000 08B5     		push	{r3, lr}
 6903              		.cfi_def_cfa_offset 8
 6904              		.cfi_offset 3, -8
 6905              		.cfi_offset 14, -4
 6906 0002 0A46     		mov	r2, r1
2883:Drivers/BSP/Components/iis2dlpc/iis2dlpc_reg.c ****   int32_t ret;
 6907              		.loc 1 2883 3 is_stmt 1 view .LVU1830
2884:Drivers/BSP/Components/iis2dlpc/iis2dlpc_reg.c **** 
2885:Drivers/BSP/Components/iis2dlpc/iis2dlpc_reg.c ****   ret = iis2dlpc_read_reg(ctx, IIS2DLPC_SIXD_SRC, (uint8_t *) val, 1);
 6908              		.loc 1 2885 3 view .LVU1831
 6909              		.loc 1 2885 9 is_stmt 0 view .LVU1832
 6910 0004 0123     		movs	r3, #1
 6911 0006 3A21     		movs	r1, #58
 6912              	.LVL521:
 6913              		.loc 1 2885 9 view .LVU1833
 6914 0008 FFF7FEFF 		bl	iis2dlpc_read_reg
 6915              	.LVL522:
2886:Drivers/BSP/Components/iis2dlpc/iis2dlpc_reg.c **** 
2887:Drivers/BSP/Components/iis2dlpc/iis2dlpc_reg.c ****   return ret;
 6916              		.loc 1 2887 3 is_stmt 1 view .LVU1834
2888:Drivers/BSP/Components/iis2dlpc/iis2dlpc_reg.c **** }
 6917              		.loc 1 2888 1 is_stmt 0 view .LVU1835
 6918 000c 08BD     		pop	{r3, pc}
 6919              		.cfi_endproc
 6920              	.LFE104:
 6922              		.section	.text.iis2dlpc_6d_feed_data_set,"ax",%progbits
 6923              		.align	1
ARM GAS  C:\Temp\ccGZlXNO.s 			page 181


 6924              		.global	iis2dlpc_6d_feed_data_set
 6925              		.syntax unified
 6926              		.thumb
 6927              		.thumb_func
 6929              	iis2dlpc_6d_feed_data_set:
 6930              	.LVL523:
 6931              	.LFB105:
2889:Drivers/BSP/Components/iis2dlpc/iis2dlpc_reg.c **** /**
2890:Drivers/BSP/Components/iis2dlpc/iis2dlpc_reg.c ****   * @brief  Data sent to 6D interrupt function.[set]
2891:Drivers/BSP/Components/iis2dlpc/iis2dlpc_reg.c ****   *
2892:Drivers/BSP/Components/iis2dlpc/iis2dlpc_reg.c ****   * @param  ctx      read / write interface definitions
2893:Drivers/BSP/Components/iis2dlpc/iis2dlpc_reg.c ****   * @param  val      change the values of lpass_on6d in reg CTRL_REG7
2894:Drivers/BSP/Components/iis2dlpc/iis2dlpc_reg.c ****   * @retval          interface status (MANDATORY: return 0 -> no Error)
2895:Drivers/BSP/Components/iis2dlpc/iis2dlpc_reg.c ****   *
2896:Drivers/BSP/Components/iis2dlpc/iis2dlpc_reg.c ****   */
2897:Drivers/BSP/Components/iis2dlpc/iis2dlpc_reg.c **** int32_t iis2dlpc_6d_feed_data_set(const stmdev_ctx_t *ctx,
2898:Drivers/BSP/Components/iis2dlpc/iis2dlpc_reg.c ****                                   iis2dlpc_lpass_on6d_t val)
2899:Drivers/BSP/Components/iis2dlpc/iis2dlpc_reg.c **** {
 6932              		.loc 1 2899 1 is_stmt 1 view -0
 6933              		.cfi_startproc
 6934              		@ args = 0, pretend = 0, frame = 8
 6935              		@ frame_needed = 0, uses_anonymous_args = 0
 6936              		.loc 1 2899 1 is_stmt 0 view .LVU1837
 6937 0000 30B5     		push	{r4, r5, lr}
 6938              		.cfi_def_cfa_offset 12
 6939              		.cfi_offset 4, -12
 6940              		.cfi_offset 5, -8
 6941              		.cfi_offset 14, -4
 6942 0002 83B0     		sub	sp, sp, #12
 6943              		.cfi_def_cfa_offset 24
 6944 0004 0446     		mov	r4, r0
 6945 0006 0D46     		mov	r5, r1
2900:Drivers/BSP/Components/iis2dlpc/iis2dlpc_reg.c ****   iis2dlpc_ctrl7_t reg;
 6946              		.loc 1 2900 3 is_stmt 1 view .LVU1838
2901:Drivers/BSP/Components/iis2dlpc/iis2dlpc_reg.c ****   int32_t ret;
 6947              		.loc 1 2901 3 view .LVU1839
2902:Drivers/BSP/Components/iis2dlpc/iis2dlpc_reg.c **** 
2903:Drivers/BSP/Components/iis2dlpc/iis2dlpc_reg.c ****   ret = iis2dlpc_read_reg(ctx, IIS2DLPC_CTRL7, (uint8_t *) &reg, 1);
 6948              		.loc 1 2903 3 view .LVU1840
 6949              		.loc 1 2903 9 is_stmt 0 view .LVU1841
 6950 0008 0123     		movs	r3, #1
 6951 000a 01AA     		add	r2, sp, #4
 6952 000c 3F21     		movs	r1, #63
 6953              	.LVL524:
 6954              		.loc 1 2903 9 view .LVU1842
 6955 000e FFF7FEFF 		bl	iis2dlpc_read_reg
 6956              	.LVL525:
2904:Drivers/BSP/Components/iis2dlpc/iis2dlpc_reg.c **** 
2905:Drivers/BSP/Components/iis2dlpc/iis2dlpc_reg.c ****   if (ret == 0)
 6957              		.loc 1 2905 3 is_stmt 1 view .LVU1843
 6958              		.loc 1 2905 6 is_stmt 0 view .LVU1844
 6959 0012 08B1     		cbz	r0, .L455
 6960              	.LVL526:
 6961              	.L452:
2906:Drivers/BSP/Components/iis2dlpc/iis2dlpc_reg.c ****   {
2907:Drivers/BSP/Components/iis2dlpc/iis2dlpc_reg.c ****     reg.lpass_on6d = (uint8_t) val;
2908:Drivers/BSP/Components/iis2dlpc/iis2dlpc_reg.c ****     ret = iis2dlpc_write_reg(ctx, IIS2DLPC_CTRL7, (uint8_t *) &reg, 1);
ARM GAS  C:\Temp\ccGZlXNO.s 			page 182


2909:Drivers/BSP/Components/iis2dlpc/iis2dlpc_reg.c ****   }
2910:Drivers/BSP/Components/iis2dlpc/iis2dlpc_reg.c **** 
2911:Drivers/BSP/Components/iis2dlpc/iis2dlpc_reg.c ****   return ret;
2912:Drivers/BSP/Components/iis2dlpc/iis2dlpc_reg.c **** }
 6962              		.loc 1 2912 1 view .LVU1845
 6963 0014 03B0     		add	sp, sp, #12
 6964              		.cfi_remember_state
 6965              		.cfi_def_cfa_offset 12
 6966              		@ sp needed
 6967 0016 30BD     		pop	{r4, r5, pc}
 6968              	.LVL527:
 6969              	.L455:
 6970              		.cfi_restore_state
2907:Drivers/BSP/Components/iis2dlpc/iis2dlpc_reg.c ****     ret = iis2dlpc_write_reg(ctx, IIS2DLPC_CTRL7, (uint8_t *) &reg, 1);
 6971              		.loc 1 2907 5 is_stmt 1 view .LVU1846
2907:Drivers/BSP/Components/iis2dlpc/iis2dlpc_reg.c ****     ret = iis2dlpc_write_reg(ctx, IIS2DLPC_CTRL7, (uint8_t *) &reg, 1);
 6972              		.loc 1 2907 20 is_stmt 0 view .LVU1847
 6973 0018 9DF80430 		ldrb	r3, [sp, #4]	@ zero_extendqisi2
 6974 001c 65F30003 		bfi	r3, r5, #0, #1
 6975 0020 8DF80430 		strb	r3, [sp, #4]
2908:Drivers/BSP/Components/iis2dlpc/iis2dlpc_reg.c ****   }
 6976              		.loc 1 2908 5 is_stmt 1 view .LVU1848
2908:Drivers/BSP/Components/iis2dlpc/iis2dlpc_reg.c ****   }
 6977              		.loc 1 2908 11 is_stmt 0 view .LVU1849
 6978 0024 0123     		movs	r3, #1
 6979              	.LVL528:
2908:Drivers/BSP/Components/iis2dlpc/iis2dlpc_reg.c ****   }
 6980              		.loc 1 2908 11 view .LVU1850
 6981 0026 01AA     		add	r2, sp, #4
 6982 0028 3F21     		movs	r1, #63
 6983 002a 2046     		mov	r0, r4
 6984 002c FFF7FEFF 		bl	iis2dlpc_write_reg
 6985              	.LVL529:
2911:Drivers/BSP/Components/iis2dlpc/iis2dlpc_reg.c **** }
 6986              		.loc 1 2911 3 is_stmt 1 view .LVU1851
2911:Drivers/BSP/Components/iis2dlpc/iis2dlpc_reg.c **** }
 6987              		.loc 1 2911 10 is_stmt 0 view .LVU1852
 6988 0030 F0E7     		b	.L452
 6989              		.cfi_endproc
 6990              	.LFE105:
 6992              		.section	.text.iis2dlpc_6d_feed_data_get,"ax",%progbits
 6993              		.align	1
 6994              		.global	iis2dlpc_6d_feed_data_get
 6995              		.syntax unified
 6996              		.thumb
 6997              		.thumb_func
 6999              	iis2dlpc_6d_feed_data_get:
 7000              	.LVL530:
 7001              	.LFB106:
2913:Drivers/BSP/Components/iis2dlpc/iis2dlpc_reg.c **** 
2914:Drivers/BSP/Components/iis2dlpc/iis2dlpc_reg.c **** /**
2915:Drivers/BSP/Components/iis2dlpc/iis2dlpc_reg.c ****   * @brief  Data sent to 6D interrupt function.[get]
2916:Drivers/BSP/Components/iis2dlpc/iis2dlpc_reg.c ****   *
2917:Drivers/BSP/Components/iis2dlpc/iis2dlpc_reg.c ****   * @param  ctx      read / write interface definitions
2918:Drivers/BSP/Components/iis2dlpc/iis2dlpc_reg.c ****   * @param  val      Get the values of lpass_on6d in reg CTRL_REG7
2919:Drivers/BSP/Components/iis2dlpc/iis2dlpc_reg.c ****   * @retval          interface status (MANDATORY: return 0 -> no Error)
2920:Drivers/BSP/Components/iis2dlpc/iis2dlpc_reg.c ****   *
ARM GAS  C:\Temp\ccGZlXNO.s 			page 183


2921:Drivers/BSP/Components/iis2dlpc/iis2dlpc_reg.c ****   */
2922:Drivers/BSP/Components/iis2dlpc/iis2dlpc_reg.c **** int32_t iis2dlpc_6d_feed_data_get(const stmdev_ctx_t *ctx,
2923:Drivers/BSP/Components/iis2dlpc/iis2dlpc_reg.c ****                                   iis2dlpc_lpass_on6d_t *val)
2924:Drivers/BSP/Components/iis2dlpc/iis2dlpc_reg.c **** {
 7002              		.loc 1 2924 1 is_stmt 1 view -0
 7003              		.cfi_startproc
 7004              		@ args = 0, pretend = 0, frame = 8
 7005              		@ frame_needed = 0, uses_anonymous_args = 0
 7006              		.loc 1 2924 1 is_stmt 0 view .LVU1854
 7007 0000 10B5     		push	{r4, lr}
 7008              		.cfi_def_cfa_offset 8
 7009              		.cfi_offset 4, -8
 7010              		.cfi_offset 14, -4
 7011 0002 82B0     		sub	sp, sp, #8
 7012              		.cfi_def_cfa_offset 16
 7013 0004 0C46     		mov	r4, r1
2925:Drivers/BSP/Components/iis2dlpc/iis2dlpc_reg.c ****   iis2dlpc_ctrl7_t reg;
 7014              		.loc 1 2925 3 is_stmt 1 view .LVU1855
2926:Drivers/BSP/Components/iis2dlpc/iis2dlpc_reg.c ****   int32_t ret;
 7015              		.loc 1 2926 3 view .LVU1856
2927:Drivers/BSP/Components/iis2dlpc/iis2dlpc_reg.c **** 
2928:Drivers/BSP/Components/iis2dlpc/iis2dlpc_reg.c ****   ret = iis2dlpc_read_reg(ctx, IIS2DLPC_CTRL7, (uint8_t *) &reg, 1);
 7016              		.loc 1 2928 3 view .LVU1857
 7017              		.loc 1 2928 9 is_stmt 0 view .LVU1858
 7018 0006 0123     		movs	r3, #1
 7019 0008 01AA     		add	r2, sp, #4
 7020 000a 3F21     		movs	r1, #63
 7021              	.LVL531:
 7022              		.loc 1 2928 9 view .LVU1859
 7023 000c FFF7FEFF 		bl	iis2dlpc_read_reg
 7024              	.LVL532:
2929:Drivers/BSP/Components/iis2dlpc/iis2dlpc_reg.c **** 
2930:Drivers/BSP/Components/iis2dlpc/iis2dlpc_reg.c ****   switch (reg.lpass_on6d)
 7025              		.loc 1 2930 3 is_stmt 1 view .LVU1860
 7026              		.loc 1 2930 14 is_stmt 0 view .LVU1861
 7027 0010 9DF80430 		ldrb	r3, [sp, #4]	@ zero_extendqisi2
 7028              		.loc 1 2930 3 view .LVU1862
 7029 0014 13F00103 		ands	r3, r3, #1
 7030 0018 03D0     		beq	.L457
 7031 001a 33B9     		cbnz	r3, .L458
2931:Drivers/BSP/Components/iis2dlpc/iis2dlpc_reg.c ****   {
2932:Drivers/BSP/Components/iis2dlpc/iis2dlpc_reg.c ****     case IIS2DLPC_ODR_DIV_2_FEED:
2933:Drivers/BSP/Components/iis2dlpc/iis2dlpc_reg.c ****       *val = IIS2DLPC_ODR_DIV_2_FEED;
2934:Drivers/BSP/Components/iis2dlpc/iis2dlpc_reg.c ****       break;
2935:Drivers/BSP/Components/iis2dlpc/iis2dlpc_reg.c **** 
2936:Drivers/BSP/Components/iis2dlpc/iis2dlpc_reg.c ****     case IIS2DLPC_LPF2_FEED:
2937:Drivers/BSP/Components/iis2dlpc/iis2dlpc_reg.c ****       *val = IIS2DLPC_LPF2_FEED;
2938:Drivers/BSP/Components/iis2dlpc/iis2dlpc_reg.c ****       break;
2939:Drivers/BSP/Components/iis2dlpc/iis2dlpc_reg.c **** 
2940:Drivers/BSP/Components/iis2dlpc/iis2dlpc_reg.c ****     default:
2941:Drivers/BSP/Components/iis2dlpc/iis2dlpc_reg.c ****       *val = IIS2DLPC_ODR_DIV_2_FEED;
 7032              		.loc 1 2941 7 is_stmt 1 view .LVU1863
 7033              		.loc 1 2941 12 is_stmt 0 view .LVU1864
 7034 001c 0023     		movs	r3, #0
 7035 001e 2370     		strb	r3, [r4]
2942:Drivers/BSP/Components/iis2dlpc/iis2dlpc_reg.c ****       break;
 7036              		.loc 1 2942 7 is_stmt 1 view .LVU1865
ARM GAS  C:\Temp\ccGZlXNO.s 			page 184


2943:Drivers/BSP/Components/iis2dlpc/iis2dlpc_reg.c ****   }
2944:Drivers/BSP/Components/iis2dlpc/iis2dlpc_reg.c **** 
2945:Drivers/BSP/Components/iis2dlpc/iis2dlpc_reg.c ****   return ret;
 7037              		.loc 1 2945 3 view .LVU1866
 7038              		.loc 1 2945 10 is_stmt 0 view .LVU1867
 7039 0020 01E0     		b	.L456
 7040              	.L457:
2933:Drivers/BSP/Components/iis2dlpc/iis2dlpc_reg.c ****       break;
 7041              		.loc 1 2933 7 is_stmt 1 view .LVU1868
2933:Drivers/BSP/Components/iis2dlpc/iis2dlpc_reg.c ****       break;
 7042              		.loc 1 2933 12 is_stmt 0 view .LVU1869
 7043 0022 0023     		movs	r3, #0
 7044 0024 2370     		strb	r3, [r4]
2934:Drivers/BSP/Components/iis2dlpc/iis2dlpc_reg.c **** 
 7045              		.loc 1 2934 7 is_stmt 1 view .LVU1870
 7046              	.L456:
2946:Drivers/BSP/Components/iis2dlpc/iis2dlpc_reg.c **** }
 7047              		.loc 1 2946 1 is_stmt 0 view .LVU1871
 7048 0026 02B0     		add	sp, sp, #8
 7049              		.cfi_remember_state
 7050              		.cfi_def_cfa_offset 8
 7051              		@ sp needed
 7052 0028 10BD     		pop	{r4, pc}
 7053              	.LVL533:
 7054              	.L458:
 7055              		.cfi_restore_state
2937:Drivers/BSP/Components/iis2dlpc/iis2dlpc_reg.c ****       break;
 7056              		.loc 1 2937 7 is_stmt 1 view .LVU1872
2937:Drivers/BSP/Components/iis2dlpc/iis2dlpc_reg.c ****       break;
 7057              		.loc 1 2937 12 is_stmt 0 view .LVU1873
 7058 002a 0123     		movs	r3, #1
 7059 002c 2370     		strb	r3, [r4]
2938:Drivers/BSP/Components/iis2dlpc/iis2dlpc_reg.c **** 
 7060              		.loc 1 2938 7 is_stmt 1 view .LVU1874
 7061 002e FAE7     		b	.L456
 7062              		.cfi_endproc
 7063              	.LFE106:
 7065              		.section	.text.iis2dlpc_ff_dur_set,"ax",%progbits
 7066              		.align	1
 7067              		.global	iis2dlpc_ff_dur_set
 7068              		.syntax unified
 7069              		.thumb
 7070              		.thumb_func
 7072              	iis2dlpc_ff_dur_set:
 7073              	.LVL534:
 7074              	.LFB107:
2947:Drivers/BSP/Components/iis2dlpc/iis2dlpc_reg.c **** 
2948:Drivers/BSP/Components/iis2dlpc/iis2dlpc_reg.c **** /**
2949:Drivers/BSP/Components/iis2dlpc/iis2dlpc_reg.c ****   * @}
2950:Drivers/BSP/Components/iis2dlpc/iis2dlpc_reg.c ****   *
2951:Drivers/BSP/Components/iis2dlpc/iis2dlpc_reg.c ****   */
2952:Drivers/BSP/Components/iis2dlpc/iis2dlpc_reg.c **** 
2953:Drivers/BSP/Components/iis2dlpc/iis2dlpc_reg.c **** /**
2954:Drivers/BSP/Components/iis2dlpc/iis2dlpc_reg.c ****   * @defgroup  IIS2DLPC_Free_Fall
2955:Drivers/BSP/Components/iis2dlpc/iis2dlpc_reg.c ****   * @brief     This section group all the functions concerning
2956:Drivers/BSP/Components/iis2dlpc/iis2dlpc_reg.c ****   *            the free fall detection.
2957:Drivers/BSP/Components/iis2dlpc/iis2dlpc_reg.c ****   * @{
ARM GAS  C:\Temp\ccGZlXNO.s 			page 185


2958:Drivers/BSP/Components/iis2dlpc/iis2dlpc_reg.c ****   *
2959:Drivers/BSP/Components/iis2dlpc/iis2dlpc_reg.c ****   */
2960:Drivers/BSP/Components/iis2dlpc/iis2dlpc_reg.c **** 
2961:Drivers/BSP/Components/iis2dlpc/iis2dlpc_reg.c **** /**
2962:Drivers/BSP/Components/iis2dlpc/iis2dlpc_reg.c ****   * @brief  Wake up duration event(1LSb = 1 / ODR).[set]
2963:Drivers/BSP/Components/iis2dlpc/iis2dlpc_reg.c ****   *
2964:Drivers/BSP/Components/iis2dlpc/iis2dlpc_reg.c ****   * @param  ctx      read / write interface definitions
2965:Drivers/BSP/Components/iis2dlpc/iis2dlpc_reg.c ****   * @param  val      change the values of ff_dur in reg
2966:Drivers/BSP/Components/iis2dlpc/iis2dlpc_reg.c ****   *                  WAKE_UP_DUR /F REE_FALL
2967:Drivers/BSP/Components/iis2dlpc/iis2dlpc_reg.c ****   * @retval          interface status (MANDATORY: return 0 -> no Error)
2968:Drivers/BSP/Components/iis2dlpc/iis2dlpc_reg.c ****   *
2969:Drivers/BSP/Components/iis2dlpc/iis2dlpc_reg.c ****   */
2970:Drivers/BSP/Components/iis2dlpc/iis2dlpc_reg.c **** int32_t iis2dlpc_ff_dur_set(const stmdev_ctx_t *ctx, uint8_t val)
2971:Drivers/BSP/Components/iis2dlpc/iis2dlpc_reg.c **** {
 7075              		.loc 1 2971 1 view -0
 7076              		.cfi_startproc
 7077              		@ args = 0, pretend = 0, frame = 8
 7078              		@ frame_needed = 0, uses_anonymous_args = 0
 7079              		.loc 1 2971 1 is_stmt 0 view .LVU1876
 7080 0000 30B5     		push	{r4, r5, lr}
 7081              		.cfi_def_cfa_offset 12
 7082              		.cfi_offset 4, -12
 7083              		.cfi_offset 5, -8
 7084              		.cfi_offset 14, -4
 7085 0002 83B0     		sub	sp, sp, #12
 7086              		.cfi_def_cfa_offset 24
 7087 0004 0546     		mov	r5, r0
 7088 0006 0C46     		mov	r4, r1
2972:Drivers/BSP/Components/iis2dlpc/iis2dlpc_reg.c ****   iis2dlpc_wake_up_dur_t wake_up_dur;
 7089              		.loc 1 2972 3 is_stmt 1 view .LVU1877
2973:Drivers/BSP/Components/iis2dlpc/iis2dlpc_reg.c ****   iis2dlpc_free_fall_t free_fall;
 7090              		.loc 1 2973 3 view .LVU1878
2974:Drivers/BSP/Components/iis2dlpc/iis2dlpc_reg.c ****   int32_t ret;
 7091              		.loc 1 2974 3 view .LVU1879
2975:Drivers/BSP/Components/iis2dlpc/iis2dlpc_reg.c **** 
2976:Drivers/BSP/Components/iis2dlpc/iis2dlpc_reg.c ****   ret = iis2dlpc_read_reg(ctx, IIS2DLPC_WAKE_UP_DUR,
 7092              		.loc 1 2976 3 view .LVU1880
 7093              		.loc 1 2976 9 is_stmt 0 view .LVU1881
 7094 0008 0123     		movs	r3, #1
 7095 000a 01AA     		add	r2, sp, #4
 7096 000c 3521     		movs	r1, #53
 7097              	.LVL535:
 7098              		.loc 1 2976 9 view .LVU1882
 7099 000e FFF7FEFF 		bl	iis2dlpc_read_reg
 7100              	.LVL536:
2977:Drivers/BSP/Components/iis2dlpc/iis2dlpc_reg.c ****                           (uint8_t *) &wake_up_dur, 1);
2978:Drivers/BSP/Components/iis2dlpc/iis2dlpc_reg.c **** 
2979:Drivers/BSP/Components/iis2dlpc/iis2dlpc_reg.c ****   if (ret == 0)
 7101              		.loc 1 2979 3 is_stmt 1 view .LVU1883
 7102              		.loc 1 2979 6 is_stmt 0 view .LVU1884
 7103 0012 0346     		mov	r3, r0
 7104 0014 18B1     		cbz	r0, .L467
 7105              	.L464:
2980:Drivers/BSP/Components/iis2dlpc/iis2dlpc_reg.c ****   {
2981:Drivers/BSP/Components/iis2dlpc/iis2dlpc_reg.c ****     ret = iis2dlpc_read_reg(ctx, IIS2DLPC_FREE_FALL,
2982:Drivers/BSP/Components/iis2dlpc/iis2dlpc_reg.c ****                             (uint8_t *) &free_fall, 1);
2983:Drivers/BSP/Components/iis2dlpc/iis2dlpc_reg.c ****   }
ARM GAS  C:\Temp\ccGZlXNO.s 			page 186


2984:Drivers/BSP/Components/iis2dlpc/iis2dlpc_reg.c **** 
2985:Drivers/BSP/Components/iis2dlpc/iis2dlpc_reg.c ****   if (ret == 0)
2986:Drivers/BSP/Components/iis2dlpc/iis2dlpc_reg.c ****   {
2987:Drivers/BSP/Components/iis2dlpc/iis2dlpc_reg.c ****     wake_up_dur.ff_dur = ((uint8_t) val & 0x20U) >> 5;
2988:Drivers/BSP/Components/iis2dlpc/iis2dlpc_reg.c ****     free_fall.ff_dur = (uint8_t) val & 0x1FU;
2989:Drivers/BSP/Components/iis2dlpc/iis2dlpc_reg.c ****     ret = iis2dlpc_write_reg(ctx, IIS2DLPC_WAKE_UP_DUR,
2990:Drivers/BSP/Components/iis2dlpc/iis2dlpc_reg.c ****                              (uint8_t *) &wake_up_dur, 1);
2991:Drivers/BSP/Components/iis2dlpc/iis2dlpc_reg.c ****   }
2992:Drivers/BSP/Components/iis2dlpc/iis2dlpc_reg.c **** 
2993:Drivers/BSP/Components/iis2dlpc/iis2dlpc_reg.c ****   if (ret == 0)
 7106              		.loc 1 2993 3 is_stmt 1 view .LVU1885
 7107              		.loc 1 2993 6 is_stmt 0 view .LVU1886
 7108 0016 0BB3     		cbz	r3, .L468
 7109              	.L463:
2994:Drivers/BSP/Components/iis2dlpc/iis2dlpc_reg.c ****   {
2995:Drivers/BSP/Components/iis2dlpc/iis2dlpc_reg.c ****     ret = iis2dlpc_write_reg(ctx, IIS2DLPC_FREE_FALL,
2996:Drivers/BSP/Components/iis2dlpc/iis2dlpc_reg.c ****                              (uint8_t *) &free_fall, 1);
2997:Drivers/BSP/Components/iis2dlpc/iis2dlpc_reg.c ****   }
2998:Drivers/BSP/Components/iis2dlpc/iis2dlpc_reg.c **** 
2999:Drivers/BSP/Components/iis2dlpc/iis2dlpc_reg.c ****   return ret;
3000:Drivers/BSP/Components/iis2dlpc/iis2dlpc_reg.c **** }
 7110              		.loc 1 3000 1 view .LVU1887
 7111 0018 1846     		mov	r0, r3
 7112              	.LVL537:
 7113              		.loc 1 3000 1 view .LVU1888
 7114 001a 03B0     		add	sp, sp, #12
 7115              		.cfi_remember_state
 7116              		.cfi_def_cfa_offset 12
 7117              		@ sp needed
 7118 001c 30BD     		pop	{r4, r5, pc}
 7119              	.LVL538:
 7120              	.L467:
 7121              		.cfi_restore_state
2981:Drivers/BSP/Components/iis2dlpc/iis2dlpc_reg.c ****                             (uint8_t *) &free_fall, 1);
 7122              		.loc 1 2981 5 is_stmt 1 view .LVU1889
2981:Drivers/BSP/Components/iis2dlpc/iis2dlpc_reg.c ****                             (uint8_t *) &free_fall, 1);
 7123              		.loc 1 2981 11 is_stmt 0 view .LVU1890
 7124 001e 0123     		movs	r3, #1
 7125 0020 6A46     		mov	r2, sp
 7126 0022 3621     		movs	r1, #54
 7127 0024 2846     		mov	r0, r5
 7128              	.LVL539:
2981:Drivers/BSP/Components/iis2dlpc/iis2dlpc_reg.c ****                             (uint8_t *) &free_fall, 1);
 7129              		.loc 1 2981 11 view .LVU1891
 7130 0026 FFF7FEFF 		bl	iis2dlpc_read_reg
 7131              	.LVL540:
2985:Drivers/BSP/Components/iis2dlpc/iis2dlpc_reg.c ****   {
 7132              		.loc 1 2985 3 is_stmt 1 view .LVU1892
2985:Drivers/BSP/Components/iis2dlpc/iis2dlpc_reg.c ****   {
 7133              		.loc 1 2985 6 is_stmt 0 view .LVU1893
 7134 002a 0346     		mov	r3, r0
 7135 002c 0028     		cmp	r0, #0
 7136 002e F3D1     		bne	.L463
2987:Drivers/BSP/Components/iis2dlpc/iis2dlpc_reg.c ****     free_fall.ff_dur = (uint8_t) val & 0x1FU;
 7137              		.loc 1 2987 5 is_stmt 1 view .LVU1894
2987:Drivers/BSP/Components/iis2dlpc/iis2dlpc_reg.c ****     free_fall.ff_dur = (uint8_t) val & 0x1FU;
 7138              		.loc 1 2987 50 is_stmt 0 view .LVU1895
ARM GAS  C:\Temp\ccGZlXNO.s 			page 187


 7139 0030 C4F34012 		ubfx	r2, r4, #5, #1
2987:Drivers/BSP/Components/iis2dlpc/iis2dlpc_reg.c ****     free_fall.ff_dur = (uint8_t) val & 0x1FU;
 7140              		.loc 1 2987 24 view .LVU1896
 7141 0034 9DF80430 		ldrb	r3, [sp, #4]	@ zero_extendqisi2
 7142 0038 62F3C713 		bfi	r3, r2, #7, #1
 7143 003c 8DF80430 		strb	r3, [sp, #4]
2988:Drivers/BSP/Components/iis2dlpc/iis2dlpc_reg.c ****     ret = iis2dlpc_write_reg(ctx, IIS2DLPC_WAKE_UP_DUR,
 7144              		.loc 1 2988 5 is_stmt 1 view .LVU1897
2988:Drivers/BSP/Components/iis2dlpc/iis2dlpc_reg.c ****     ret = iis2dlpc_write_reg(ctx, IIS2DLPC_WAKE_UP_DUR,
 7145              		.loc 1 2988 22 is_stmt 0 view .LVU1898
 7146 0040 9DF80030 		ldrb	r3, [sp]	@ zero_extendqisi2
 7147 0044 64F3C703 		bfi	r3, r4, #3, #5
 7148 0048 8DF80030 		strb	r3, [sp]
2989:Drivers/BSP/Components/iis2dlpc/iis2dlpc_reg.c ****                              (uint8_t *) &wake_up_dur, 1);
 7149              		.loc 1 2989 5 is_stmt 1 view .LVU1899
2989:Drivers/BSP/Components/iis2dlpc/iis2dlpc_reg.c ****                              (uint8_t *) &wake_up_dur, 1);
 7150              		.loc 1 2989 11 is_stmt 0 view .LVU1900
 7151 004c 0123     		movs	r3, #1
 7152 004e 01AA     		add	r2, sp, #4
 7153 0050 3521     		movs	r1, #53
 7154 0052 2846     		mov	r0, r5
 7155              	.LVL541:
2989:Drivers/BSP/Components/iis2dlpc/iis2dlpc_reg.c ****                              (uint8_t *) &wake_up_dur, 1);
 7156              		.loc 1 2989 11 view .LVU1901
 7157 0054 FFF7FEFF 		bl	iis2dlpc_write_reg
 7158              	.LVL542:
 7159 0058 0346     		mov	r3, r0
 7160              	.LVL543:
2989:Drivers/BSP/Components/iis2dlpc/iis2dlpc_reg.c ****                              (uint8_t *) &wake_up_dur, 1);
 7161              		.loc 1 2989 11 view .LVU1902
 7162 005a DCE7     		b	.L464
 7163              	.L468:
2995:Drivers/BSP/Components/iis2dlpc/iis2dlpc_reg.c ****                              (uint8_t *) &free_fall, 1);
 7164              		.loc 1 2995 5 is_stmt 1 view .LVU1903
2995:Drivers/BSP/Components/iis2dlpc/iis2dlpc_reg.c ****                              (uint8_t *) &free_fall, 1);
 7165              		.loc 1 2995 11 is_stmt 0 view .LVU1904
 7166 005c 0123     		movs	r3, #1
 7167 005e 6A46     		mov	r2, sp
 7168 0060 3621     		movs	r1, #54
 7169 0062 2846     		mov	r0, r5
 7170              	.LVL544:
2995:Drivers/BSP/Components/iis2dlpc/iis2dlpc_reg.c ****                              (uint8_t *) &free_fall, 1);
 7171              		.loc 1 2995 11 view .LVU1905
 7172 0064 FFF7FEFF 		bl	iis2dlpc_write_reg
 7173              	.LVL545:
 7174 0068 0346     		mov	r3, r0
 7175              	.LVL546:
2999:Drivers/BSP/Components/iis2dlpc/iis2dlpc_reg.c **** }
 7176              		.loc 1 2999 3 is_stmt 1 view .LVU1906
2999:Drivers/BSP/Components/iis2dlpc/iis2dlpc_reg.c **** }
 7177              		.loc 1 2999 10 is_stmt 0 view .LVU1907
 7178 006a D5E7     		b	.L463
 7179              		.cfi_endproc
 7180              	.LFE107:
 7182              		.section	.text.iis2dlpc_ff_dur_get,"ax",%progbits
 7183              		.align	1
 7184              		.global	iis2dlpc_ff_dur_get
ARM GAS  C:\Temp\ccGZlXNO.s 			page 188


 7185              		.syntax unified
 7186              		.thumb
 7187              		.thumb_func
 7189              	iis2dlpc_ff_dur_get:
 7190              	.LVL547:
 7191              	.LFB108:
3001:Drivers/BSP/Components/iis2dlpc/iis2dlpc_reg.c **** 
3002:Drivers/BSP/Components/iis2dlpc/iis2dlpc_reg.c **** /**
3003:Drivers/BSP/Components/iis2dlpc/iis2dlpc_reg.c ****   * @brief  Wake up duration event(1LSb = 1 / ODR).[get]
3004:Drivers/BSP/Components/iis2dlpc/iis2dlpc_reg.c ****   *
3005:Drivers/BSP/Components/iis2dlpc/iis2dlpc_reg.c ****   * @param  ctx      read / write interface definitions
3006:Drivers/BSP/Components/iis2dlpc/iis2dlpc_reg.c ****   * @param  val      change the values of ff_dur in
3007:Drivers/BSP/Components/iis2dlpc/iis2dlpc_reg.c ****   *                  reg WAKE_UP_DUR /F REE_FALL
3008:Drivers/BSP/Components/iis2dlpc/iis2dlpc_reg.c ****   * @retval          interface status (MANDATORY: return 0 -> no Error)
3009:Drivers/BSP/Components/iis2dlpc/iis2dlpc_reg.c ****   *
3010:Drivers/BSP/Components/iis2dlpc/iis2dlpc_reg.c ****   */
3011:Drivers/BSP/Components/iis2dlpc/iis2dlpc_reg.c **** int32_t iis2dlpc_ff_dur_get(const stmdev_ctx_t *ctx, uint8_t *val)
3012:Drivers/BSP/Components/iis2dlpc/iis2dlpc_reg.c **** {
 7192              		.loc 1 3012 1 is_stmt 1 view -0
 7193              		.cfi_startproc
 7194              		@ args = 0, pretend = 0, frame = 8
 7195              		@ frame_needed = 0, uses_anonymous_args = 0
 7196              		.loc 1 3012 1 is_stmt 0 view .LVU1909
 7197 0000 30B5     		push	{r4, r5, lr}
 7198              		.cfi_def_cfa_offset 12
 7199              		.cfi_offset 4, -12
 7200              		.cfi_offset 5, -8
 7201              		.cfi_offset 14, -4
 7202 0002 83B0     		sub	sp, sp, #12
 7203              		.cfi_def_cfa_offset 24
 7204 0004 0446     		mov	r4, r0
 7205 0006 0D46     		mov	r5, r1
3013:Drivers/BSP/Components/iis2dlpc/iis2dlpc_reg.c ****   iis2dlpc_wake_up_dur_t wake_up_dur;
 7206              		.loc 1 3013 3 is_stmt 1 view .LVU1910
3014:Drivers/BSP/Components/iis2dlpc/iis2dlpc_reg.c ****   iis2dlpc_free_fall_t free_fall;
 7207              		.loc 1 3014 3 view .LVU1911
3015:Drivers/BSP/Components/iis2dlpc/iis2dlpc_reg.c ****   int32_t ret;
 7208              		.loc 1 3015 3 view .LVU1912
3016:Drivers/BSP/Components/iis2dlpc/iis2dlpc_reg.c **** 
3017:Drivers/BSP/Components/iis2dlpc/iis2dlpc_reg.c ****   ret = iis2dlpc_read_reg(ctx, IIS2DLPC_WAKE_UP_DUR,
 7209              		.loc 1 3017 3 view .LVU1913
 7210              		.loc 1 3017 9 is_stmt 0 view .LVU1914
 7211 0008 0123     		movs	r3, #1
 7212 000a 01AA     		add	r2, sp, #4
 7213 000c 3521     		movs	r1, #53
 7214              	.LVL548:
 7215              		.loc 1 3017 9 view .LVU1915
 7216 000e FFF7FEFF 		bl	iis2dlpc_read_reg
 7217              	.LVL549:
3018:Drivers/BSP/Components/iis2dlpc/iis2dlpc_reg.c ****                           (uint8_t *) &wake_up_dur, 1);
3019:Drivers/BSP/Components/iis2dlpc/iis2dlpc_reg.c **** 
3020:Drivers/BSP/Components/iis2dlpc/iis2dlpc_reg.c ****   if (ret == 0)
 7218              		.loc 1 3020 3 is_stmt 1 view .LVU1916
 7219              		.loc 1 3020 6 is_stmt 0 view .LVU1917
 7220 0012 08B1     		cbz	r0, .L472
 7221              	.LVL550:
 7222              	.L469:
ARM GAS  C:\Temp\ccGZlXNO.s 			page 189


3021:Drivers/BSP/Components/iis2dlpc/iis2dlpc_reg.c ****   {
3022:Drivers/BSP/Components/iis2dlpc/iis2dlpc_reg.c ****     ret = iis2dlpc_read_reg(ctx, IIS2DLPC_FREE_FALL,
3023:Drivers/BSP/Components/iis2dlpc/iis2dlpc_reg.c ****                             (uint8_t *) &free_fall, 1);
3024:Drivers/BSP/Components/iis2dlpc/iis2dlpc_reg.c ****     *val = (wake_up_dur.ff_dur << 5) + free_fall.ff_dur;
3025:Drivers/BSP/Components/iis2dlpc/iis2dlpc_reg.c ****   }
3026:Drivers/BSP/Components/iis2dlpc/iis2dlpc_reg.c **** 
3027:Drivers/BSP/Components/iis2dlpc/iis2dlpc_reg.c ****   return ret;
3028:Drivers/BSP/Components/iis2dlpc/iis2dlpc_reg.c **** }
 7223              		.loc 1 3028 1 view .LVU1918
 7224 0014 03B0     		add	sp, sp, #12
 7225              		.cfi_remember_state
 7226              		.cfi_def_cfa_offset 12
 7227              		@ sp needed
 7228 0016 30BD     		pop	{r4, r5, pc}
 7229              	.LVL551:
 7230              	.L472:
 7231              		.cfi_restore_state
3022:Drivers/BSP/Components/iis2dlpc/iis2dlpc_reg.c ****                             (uint8_t *) &free_fall, 1);
 7232              		.loc 1 3022 5 is_stmt 1 view .LVU1919
3022:Drivers/BSP/Components/iis2dlpc/iis2dlpc_reg.c ****                             (uint8_t *) &free_fall, 1);
 7233              		.loc 1 3022 11 is_stmt 0 view .LVU1920
 7234 0018 0123     		movs	r3, #1
 7235              	.LVL552:
3022:Drivers/BSP/Components/iis2dlpc/iis2dlpc_reg.c ****                             (uint8_t *) &free_fall, 1);
 7236              		.loc 1 3022 11 view .LVU1921
 7237 001a 6A46     		mov	r2, sp
 7238 001c 3621     		movs	r1, #54
 7239 001e 2046     		mov	r0, r4
 7240 0020 FFF7FEFF 		bl	iis2dlpc_read_reg
 7241              	.LVL553:
3024:Drivers/BSP/Components/iis2dlpc/iis2dlpc_reg.c ****   }
 7242              		.loc 1 3024 5 is_stmt 1 view .LVU1922
3024:Drivers/BSP/Components/iis2dlpc/iis2dlpc_reg.c ****   }
 7243              		.loc 1 3024 24 is_stmt 0 view .LVU1923
 7244 0024 9DF80420 		ldrb	r2, [sp, #4]	@ zero_extendqisi2
 7245 0028 D209     		lsrs	r2, r2, #7
3024:Drivers/BSP/Components/iis2dlpc/iis2dlpc_reg.c ****   }
 7246              		.loc 1 3024 49 view .LVU1924
 7247 002a 9DF80030 		ldrb	r3, [sp]	@ zero_extendqisi2
 7248 002e DB08     		lsrs	r3, r3, #3
3024:Drivers/BSP/Components/iis2dlpc/iis2dlpc_reg.c ****   }
 7249              		.loc 1 3024 38 view .LVU1925
 7250 0030 03EB4213 		add	r3, r3, r2, lsl #5
3024:Drivers/BSP/Components/iis2dlpc/iis2dlpc_reg.c ****   }
 7251              		.loc 1 3024 10 view .LVU1926
 7252 0034 2B70     		strb	r3, [r5]
3027:Drivers/BSP/Components/iis2dlpc/iis2dlpc_reg.c **** }
 7253              		.loc 1 3027 3 is_stmt 1 view .LVU1927
3027:Drivers/BSP/Components/iis2dlpc/iis2dlpc_reg.c **** }
 7254              		.loc 1 3027 10 is_stmt 0 view .LVU1928
 7255 0036 EDE7     		b	.L469
 7256              		.cfi_endproc
 7257              	.LFE108:
 7259              		.section	.text.iis2dlpc_ff_threshold_set,"ax",%progbits
 7260              		.align	1
 7261              		.global	iis2dlpc_ff_threshold_set
 7262              		.syntax unified
ARM GAS  C:\Temp\ccGZlXNO.s 			page 190


 7263              		.thumb
 7264              		.thumb_func
 7266              	iis2dlpc_ff_threshold_set:
 7267              	.LVL554:
 7268              	.LFB109:
3029:Drivers/BSP/Components/iis2dlpc/iis2dlpc_reg.c **** 
3030:Drivers/BSP/Components/iis2dlpc/iis2dlpc_reg.c **** /**
3031:Drivers/BSP/Components/iis2dlpc/iis2dlpc_reg.c ****   * @brief  Free fall threshold setting.[set]
3032:Drivers/BSP/Components/iis2dlpc/iis2dlpc_reg.c ****   *
3033:Drivers/BSP/Components/iis2dlpc/iis2dlpc_reg.c ****   * @param  ctx      read / write interface definitions
3034:Drivers/BSP/Components/iis2dlpc/iis2dlpc_reg.c ****   * @param  val      change the values of ff_ths in reg FREE_FALL
3035:Drivers/BSP/Components/iis2dlpc/iis2dlpc_reg.c ****   * @retval          interface status (MANDATORY: return 0 -> no Error)
3036:Drivers/BSP/Components/iis2dlpc/iis2dlpc_reg.c ****   *
3037:Drivers/BSP/Components/iis2dlpc/iis2dlpc_reg.c ****   */
3038:Drivers/BSP/Components/iis2dlpc/iis2dlpc_reg.c **** int32_t iis2dlpc_ff_threshold_set(const stmdev_ctx_t *ctx,
3039:Drivers/BSP/Components/iis2dlpc/iis2dlpc_reg.c ****                                   iis2dlpc_ff_ths_t val)
3040:Drivers/BSP/Components/iis2dlpc/iis2dlpc_reg.c **** {
 7269              		.loc 1 3040 1 is_stmt 1 view -0
 7270              		.cfi_startproc
 7271              		@ args = 0, pretend = 0, frame = 8
 7272              		@ frame_needed = 0, uses_anonymous_args = 0
 7273              		.loc 1 3040 1 is_stmt 0 view .LVU1930
 7274 0000 30B5     		push	{r4, r5, lr}
 7275              		.cfi_def_cfa_offset 12
 7276              		.cfi_offset 4, -12
 7277              		.cfi_offset 5, -8
 7278              		.cfi_offset 14, -4
 7279 0002 83B0     		sub	sp, sp, #12
 7280              		.cfi_def_cfa_offset 24
 7281 0004 0446     		mov	r4, r0
 7282 0006 0D46     		mov	r5, r1
3041:Drivers/BSP/Components/iis2dlpc/iis2dlpc_reg.c ****   iis2dlpc_free_fall_t reg;
 7283              		.loc 1 3041 3 is_stmt 1 view .LVU1931
3042:Drivers/BSP/Components/iis2dlpc/iis2dlpc_reg.c ****   int32_t ret;
 7284              		.loc 1 3042 3 view .LVU1932
3043:Drivers/BSP/Components/iis2dlpc/iis2dlpc_reg.c **** 
3044:Drivers/BSP/Components/iis2dlpc/iis2dlpc_reg.c ****   ret = iis2dlpc_read_reg(ctx, IIS2DLPC_FREE_FALL, (uint8_t *) &reg, 1);
 7285              		.loc 1 3044 3 view .LVU1933
 7286              		.loc 1 3044 9 is_stmt 0 view .LVU1934
 7287 0008 0123     		movs	r3, #1
 7288 000a 01AA     		add	r2, sp, #4
 7289 000c 3621     		movs	r1, #54
 7290              	.LVL555:
 7291              		.loc 1 3044 9 view .LVU1935
 7292 000e FFF7FEFF 		bl	iis2dlpc_read_reg
 7293              	.LVL556:
3045:Drivers/BSP/Components/iis2dlpc/iis2dlpc_reg.c **** 
3046:Drivers/BSP/Components/iis2dlpc/iis2dlpc_reg.c ****   if (ret == 0)
 7294              		.loc 1 3046 3 is_stmt 1 view .LVU1936
 7295              		.loc 1 3046 6 is_stmt 0 view .LVU1937
 7296 0012 08B1     		cbz	r0, .L476
 7297              	.LVL557:
 7298              	.L473:
3047:Drivers/BSP/Components/iis2dlpc/iis2dlpc_reg.c ****   {
3048:Drivers/BSP/Components/iis2dlpc/iis2dlpc_reg.c ****     reg.ff_ths = (uint8_t) val;
3049:Drivers/BSP/Components/iis2dlpc/iis2dlpc_reg.c ****     ret = iis2dlpc_write_reg(ctx, IIS2DLPC_FREE_FALL, (uint8_t *) &reg, 1);
3050:Drivers/BSP/Components/iis2dlpc/iis2dlpc_reg.c ****   }
ARM GAS  C:\Temp\ccGZlXNO.s 			page 191


3051:Drivers/BSP/Components/iis2dlpc/iis2dlpc_reg.c **** 
3052:Drivers/BSP/Components/iis2dlpc/iis2dlpc_reg.c ****   return ret;
3053:Drivers/BSP/Components/iis2dlpc/iis2dlpc_reg.c **** }
 7299              		.loc 1 3053 1 view .LVU1938
 7300 0014 03B0     		add	sp, sp, #12
 7301              		.cfi_remember_state
 7302              		.cfi_def_cfa_offset 12
 7303              		@ sp needed
 7304 0016 30BD     		pop	{r4, r5, pc}
 7305              	.LVL558:
 7306              	.L476:
 7307              		.cfi_restore_state
3048:Drivers/BSP/Components/iis2dlpc/iis2dlpc_reg.c ****     ret = iis2dlpc_write_reg(ctx, IIS2DLPC_FREE_FALL, (uint8_t *) &reg, 1);
 7308              		.loc 1 3048 5 is_stmt 1 view .LVU1939
3048:Drivers/BSP/Components/iis2dlpc/iis2dlpc_reg.c ****     ret = iis2dlpc_write_reg(ctx, IIS2DLPC_FREE_FALL, (uint8_t *) &reg, 1);
 7309              		.loc 1 3048 16 is_stmt 0 view .LVU1940
 7310 0018 9DF80430 		ldrb	r3, [sp, #4]	@ zero_extendqisi2
 7311 001c 65F30203 		bfi	r3, r5, #0, #3
 7312 0020 8DF80430 		strb	r3, [sp, #4]
3049:Drivers/BSP/Components/iis2dlpc/iis2dlpc_reg.c ****   }
 7313              		.loc 1 3049 5 is_stmt 1 view .LVU1941
3049:Drivers/BSP/Components/iis2dlpc/iis2dlpc_reg.c ****   }
 7314              		.loc 1 3049 11 is_stmt 0 view .LVU1942
 7315 0024 0123     		movs	r3, #1
 7316              	.LVL559:
3049:Drivers/BSP/Components/iis2dlpc/iis2dlpc_reg.c ****   }
 7317              		.loc 1 3049 11 view .LVU1943
 7318 0026 01AA     		add	r2, sp, #4
 7319 0028 3621     		movs	r1, #54
 7320 002a 2046     		mov	r0, r4
 7321 002c FFF7FEFF 		bl	iis2dlpc_write_reg
 7322              	.LVL560:
3052:Drivers/BSP/Components/iis2dlpc/iis2dlpc_reg.c **** }
 7323              		.loc 1 3052 3 is_stmt 1 view .LVU1944
3052:Drivers/BSP/Components/iis2dlpc/iis2dlpc_reg.c **** }
 7324              		.loc 1 3052 10 is_stmt 0 view .LVU1945
 7325 0030 F0E7     		b	.L473
 7326              		.cfi_endproc
 7327              	.LFE109:
 7329              		.section	.text.iis2dlpc_ff_threshold_get,"ax",%progbits
 7330              		.align	1
 7331              		.global	iis2dlpc_ff_threshold_get
 7332              		.syntax unified
 7333              		.thumb
 7334              		.thumb_func
 7336              	iis2dlpc_ff_threshold_get:
 7337              	.LVL561:
 7338              	.LFB110:
3054:Drivers/BSP/Components/iis2dlpc/iis2dlpc_reg.c **** 
3055:Drivers/BSP/Components/iis2dlpc/iis2dlpc_reg.c **** /**
3056:Drivers/BSP/Components/iis2dlpc/iis2dlpc_reg.c ****   * @brief  Free fall threshold setting.[get]
3057:Drivers/BSP/Components/iis2dlpc/iis2dlpc_reg.c ****   *
3058:Drivers/BSP/Components/iis2dlpc/iis2dlpc_reg.c ****   * @param  ctx      read / write interface definitions
3059:Drivers/BSP/Components/iis2dlpc/iis2dlpc_reg.c ****   * @param  val      Get the values of ff_ths in reg FREE_FALL
3060:Drivers/BSP/Components/iis2dlpc/iis2dlpc_reg.c ****   * @retval          interface status (MANDATORY: return 0 -> no Error)
3061:Drivers/BSP/Components/iis2dlpc/iis2dlpc_reg.c ****   *
3062:Drivers/BSP/Components/iis2dlpc/iis2dlpc_reg.c ****   */
ARM GAS  C:\Temp\ccGZlXNO.s 			page 192


3063:Drivers/BSP/Components/iis2dlpc/iis2dlpc_reg.c **** int32_t iis2dlpc_ff_threshold_get(const stmdev_ctx_t *ctx,
3064:Drivers/BSP/Components/iis2dlpc/iis2dlpc_reg.c ****                                   iis2dlpc_ff_ths_t *val)
3065:Drivers/BSP/Components/iis2dlpc/iis2dlpc_reg.c **** {
 7339              		.loc 1 3065 1 is_stmt 1 view -0
 7340              		.cfi_startproc
 7341              		@ args = 0, pretend = 0, frame = 8
 7342              		@ frame_needed = 0, uses_anonymous_args = 0
 7343              		.loc 1 3065 1 is_stmt 0 view .LVU1947
 7344 0000 10B5     		push	{r4, lr}
 7345              		.cfi_def_cfa_offset 8
 7346              		.cfi_offset 4, -8
 7347              		.cfi_offset 14, -4
 7348 0002 82B0     		sub	sp, sp, #8
 7349              		.cfi_def_cfa_offset 16
 7350 0004 0C46     		mov	r4, r1
3066:Drivers/BSP/Components/iis2dlpc/iis2dlpc_reg.c ****   iis2dlpc_free_fall_t reg;
 7351              		.loc 1 3066 3 is_stmt 1 view .LVU1948
3067:Drivers/BSP/Components/iis2dlpc/iis2dlpc_reg.c ****   int32_t ret;
 7352              		.loc 1 3067 3 view .LVU1949
3068:Drivers/BSP/Components/iis2dlpc/iis2dlpc_reg.c **** 
3069:Drivers/BSP/Components/iis2dlpc/iis2dlpc_reg.c ****   ret = iis2dlpc_read_reg(ctx, IIS2DLPC_FREE_FALL, (uint8_t *) &reg, 1);
 7353              		.loc 1 3069 3 view .LVU1950
 7354              		.loc 1 3069 9 is_stmt 0 view .LVU1951
 7355 0006 0123     		movs	r3, #1
 7356 0008 01AA     		add	r2, sp, #4
 7357 000a 3621     		movs	r1, #54
 7358              	.LVL562:
 7359              		.loc 1 3069 9 view .LVU1952
 7360 000c FFF7FEFF 		bl	iis2dlpc_read_reg
 7361              	.LVL563:
3070:Drivers/BSP/Components/iis2dlpc/iis2dlpc_reg.c **** 
3071:Drivers/BSP/Components/iis2dlpc/iis2dlpc_reg.c ****   switch (reg.ff_ths)
 7362              		.loc 1 3071 3 is_stmt 1 view .LVU1953
 7363              		.loc 1 3071 14 is_stmt 0 view .LVU1954
 7364 0010 9DF80430 		ldrb	r3, [sp, #4]	@ zero_extendqisi2
 7365 0014 03F00703 		and	r3, r3, #7
 7366              		.loc 1 3071 3 view .LVU1955
 7367 0018 072B     		cmp	r3, #7
 7368 001a 1ED8     		bhi	.L478
 7369 001c DFE803F0 		tbb	[pc, r3]
 7370              	.L480:
 7371 0020 04       		.byte	(.L487-.L480)/2
 7372 0021 08       		.byte	(.L486-.L480)/2
 7373 0022 0B       		.byte	(.L485-.L480)/2
 7374 0023 0E       		.byte	(.L484-.L480)/2
 7375 0024 11       		.byte	(.L483-.L480)/2
 7376 0025 14       		.byte	(.L482-.L480)/2
 7377 0026 17       		.byte	(.L481-.L480)/2
 7378 0027 1A       		.byte	(.L479-.L480)/2
 7379              		.p2align 1
 7380              	.L487:
3072:Drivers/BSP/Components/iis2dlpc/iis2dlpc_reg.c ****   {
3073:Drivers/BSP/Components/iis2dlpc/iis2dlpc_reg.c ****     case IIS2DLPC_FF_TSH_5LSb_FS2g:
3074:Drivers/BSP/Components/iis2dlpc/iis2dlpc_reg.c ****       *val = IIS2DLPC_FF_TSH_5LSb_FS2g;
 7381              		.loc 1 3074 7 is_stmt 1 view .LVU1956
 7382              		.loc 1 3074 12 is_stmt 0 view .LVU1957
 7383 0028 0023     		movs	r3, #0
ARM GAS  C:\Temp\ccGZlXNO.s 			page 193


 7384 002a 2370     		strb	r3, [r4]
3075:Drivers/BSP/Components/iis2dlpc/iis2dlpc_reg.c ****       break;
 7385              		.loc 1 3075 7 is_stmt 1 view .LVU1958
 7386              	.L477:
3076:Drivers/BSP/Components/iis2dlpc/iis2dlpc_reg.c **** 
3077:Drivers/BSP/Components/iis2dlpc/iis2dlpc_reg.c ****     case IIS2DLPC_FF_TSH_7LSb_FS2g:
3078:Drivers/BSP/Components/iis2dlpc/iis2dlpc_reg.c ****       *val = IIS2DLPC_FF_TSH_7LSb_FS2g;
3079:Drivers/BSP/Components/iis2dlpc/iis2dlpc_reg.c ****       break;
3080:Drivers/BSP/Components/iis2dlpc/iis2dlpc_reg.c **** 
3081:Drivers/BSP/Components/iis2dlpc/iis2dlpc_reg.c ****     case IIS2DLPC_FF_TSH_8LSb_FS2g:
3082:Drivers/BSP/Components/iis2dlpc/iis2dlpc_reg.c ****       *val = IIS2DLPC_FF_TSH_8LSb_FS2g;
3083:Drivers/BSP/Components/iis2dlpc/iis2dlpc_reg.c ****       break;
3084:Drivers/BSP/Components/iis2dlpc/iis2dlpc_reg.c **** 
3085:Drivers/BSP/Components/iis2dlpc/iis2dlpc_reg.c ****     case IIS2DLPC_FF_TSH_10LSb_FS2g:
3086:Drivers/BSP/Components/iis2dlpc/iis2dlpc_reg.c ****       *val = IIS2DLPC_FF_TSH_10LSb_FS2g;
3087:Drivers/BSP/Components/iis2dlpc/iis2dlpc_reg.c ****       break;
3088:Drivers/BSP/Components/iis2dlpc/iis2dlpc_reg.c **** 
3089:Drivers/BSP/Components/iis2dlpc/iis2dlpc_reg.c ****     case IIS2DLPC_FF_TSH_11LSb_FS2g:
3090:Drivers/BSP/Components/iis2dlpc/iis2dlpc_reg.c ****       *val = IIS2DLPC_FF_TSH_11LSb_FS2g;
3091:Drivers/BSP/Components/iis2dlpc/iis2dlpc_reg.c ****       break;
3092:Drivers/BSP/Components/iis2dlpc/iis2dlpc_reg.c **** 
3093:Drivers/BSP/Components/iis2dlpc/iis2dlpc_reg.c ****     case IIS2DLPC_FF_TSH_13LSb_FS2g:
3094:Drivers/BSP/Components/iis2dlpc/iis2dlpc_reg.c ****       *val = IIS2DLPC_FF_TSH_13LSb_FS2g;
3095:Drivers/BSP/Components/iis2dlpc/iis2dlpc_reg.c ****       break;
3096:Drivers/BSP/Components/iis2dlpc/iis2dlpc_reg.c **** 
3097:Drivers/BSP/Components/iis2dlpc/iis2dlpc_reg.c ****     case IIS2DLPC_FF_TSH_15LSb_FS2g:
3098:Drivers/BSP/Components/iis2dlpc/iis2dlpc_reg.c ****       *val = IIS2DLPC_FF_TSH_15LSb_FS2g;
3099:Drivers/BSP/Components/iis2dlpc/iis2dlpc_reg.c ****       break;
3100:Drivers/BSP/Components/iis2dlpc/iis2dlpc_reg.c **** 
3101:Drivers/BSP/Components/iis2dlpc/iis2dlpc_reg.c ****     case IIS2DLPC_FF_TSH_16LSb_FS2g:
3102:Drivers/BSP/Components/iis2dlpc/iis2dlpc_reg.c ****       *val = IIS2DLPC_FF_TSH_16LSb_FS2g;
3103:Drivers/BSP/Components/iis2dlpc/iis2dlpc_reg.c ****       break;
3104:Drivers/BSP/Components/iis2dlpc/iis2dlpc_reg.c **** 
3105:Drivers/BSP/Components/iis2dlpc/iis2dlpc_reg.c ****     default:
3106:Drivers/BSP/Components/iis2dlpc/iis2dlpc_reg.c ****       *val = IIS2DLPC_FF_TSH_5LSb_FS2g;
3107:Drivers/BSP/Components/iis2dlpc/iis2dlpc_reg.c ****       break;
3108:Drivers/BSP/Components/iis2dlpc/iis2dlpc_reg.c ****   }
3109:Drivers/BSP/Components/iis2dlpc/iis2dlpc_reg.c **** 
3110:Drivers/BSP/Components/iis2dlpc/iis2dlpc_reg.c ****   return ret;
3111:Drivers/BSP/Components/iis2dlpc/iis2dlpc_reg.c **** }
 7387              		.loc 1 3111 1 is_stmt 0 view .LVU1959
 7388 002c 02B0     		add	sp, sp, #8
 7389              		.cfi_remember_state
 7390              		.cfi_def_cfa_offset 8
 7391              		@ sp needed
 7392 002e 10BD     		pop	{r4, pc}
 7393              	.LVL564:
 7394              	.L486:
 7395              		.cfi_restore_state
3078:Drivers/BSP/Components/iis2dlpc/iis2dlpc_reg.c ****       break;
 7396              		.loc 1 3078 7 is_stmt 1 view .LVU1960
3078:Drivers/BSP/Components/iis2dlpc/iis2dlpc_reg.c ****       break;
 7397              		.loc 1 3078 12 is_stmt 0 view .LVU1961
 7398 0030 0123     		movs	r3, #1
 7399 0032 2370     		strb	r3, [r4]
3079:Drivers/BSP/Components/iis2dlpc/iis2dlpc_reg.c **** 
 7400              		.loc 1 3079 7 is_stmt 1 view .LVU1962
ARM GAS  C:\Temp\ccGZlXNO.s 			page 194


 7401 0034 FAE7     		b	.L477
 7402              	.L485:
3082:Drivers/BSP/Components/iis2dlpc/iis2dlpc_reg.c ****       break;
 7403              		.loc 1 3082 7 view .LVU1963
3082:Drivers/BSP/Components/iis2dlpc/iis2dlpc_reg.c ****       break;
 7404              		.loc 1 3082 12 is_stmt 0 view .LVU1964
 7405 0036 0223     		movs	r3, #2
 7406 0038 2370     		strb	r3, [r4]
3083:Drivers/BSP/Components/iis2dlpc/iis2dlpc_reg.c **** 
 7407              		.loc 1 3083 7 is_stmt 1 view .LVU1965
 7408 003a F7E7     		b	.L477
 7409              	.L484:
3086:Drivers/BSP/Components/iis2dlpc/iis2dlpc_reg.c ****       break;
 7410              		.loc 1 3086 7 view .LVU1966
3086:Drivers/BSP/Components/iis2dlpc/iis2dlpc_reg.c ****       break;
 7411              		.loc 1 3086 12 is_stmt 0 view .LVU1967
 7412 003c 0323     		movs	r3, #3
 7413 003e 2370     		strb	r3, [r4]
3087:Drivers/BSP/Components/iis2dlpc/iis2dlpc_reg.c **** 
 7414              		.loc 1 3087 7 is_stmt 1 view .LVU1968
 7415 0040 F4E7     		b	.L477
 7416              	.L483:
3090:Drivers/BSP/Components/iis2dlpc/iis2dlpc_reg.c ****       break;
 7417              		.loc 1 3090 7 view .LVU1969
3090:Drivers/BSP/Components/iis2dlpc/iis2dlpc_reg.c ****       break;
 7418              		.loc 1 3090 12 is_stmt 0 view .LVU1970
 7419 0042 0423     		movs	r3, #4
 7420 0044 2370     		strb	r3, [r4]
3091:Drivers/BSP/Components/iis2dlpc/iis2dlpc_reg.c **** 
 7421              		.loc 1 3091 7 is_stmt 1 view .LVU1971
 7422 0046 F1E7     		b	.L477
 7423              	.L482:
3094:Drivers/BSP/Components/iis2dlpc/iis2dlpc_reg.c ****       break;
 7424              		.loc 1 3094 7 view .LVU1972
3094:Drivers/BSP/Components/iis2dlpc/iis2dlpc_reg.c ****       break;
 7425              		.loc 1 3094 12 is_stmt 0 view .LVU1973
 7426 0048 0523     		movs	r3, #5
 7427 004a 2370     		strb	r3, [r4]
3095:Drivers/BSP/Components/iis2dlpc/iis2dlpc_reg.c **** 
 7428              		.loc 1 3095 7 is_stmt 1 view .LVU1974
 7429 004c EEE7     		b	.L477
 7430              	.L481:
3098:Drivers/BSP/Components/iis2dlpc/iis2dlpc_reg.c ****       break;
 7431              		.loc 1 3098 7 view .LVU1975
3098:Drivers/BSP/Components/iis2dlpc/iis2dlpc_reg.c ****       break;
 7432              		.loc 1 3098 12 is_stmt 0 view .LVU1976
 7433 004e 0623     		movs	r3, #6
 7434 0050 2370     		strb	r3, [r4]
3099:Drivers/BSP/Components/iis2dlpc/iis2dlpc_reg.c **** 
 7435              		.loc 1 3099 7 is_stmt 1 view .LVU1977
 7436 0052 EBE7     		b	.L477
 7437              	.L479:
3102:Drivers/BSP/Components/iis2dlpc/iis2dlpc_reg.c ****       break;
 7438              		.loc 1 3102 7 view .LVU1978
3102:Drivers/BSP/Components/iis2dlpc/iis2dlpc_reg.c ****       break;
 7439              		.loc 1 3102 12 is_stmt 0 view .LVU1979
 7440 0054 0723     		movs	r3, #7
ARM GAS  C:\Temp\ccGZlXNO.s 			page 195


 7441 0056 2370     		strb	r3, [r4]
3103:Drivers/BSP/Components/iis2dlpc/iis2dlpc_reg.c **** 
 7442              		.loc 1 3103 7 is_stmt 1 view .LVU1980
 7443 0058 E8E7     		b	.L477
 7444              	.L478:
3106:Drivers/BSP/Components/iis2dlpc/iis2dlpc_reg.c ****       break;
 7445              		.loc 1 3106 7 view .LVU1981
3106:Drivers/BSP/Components/iis2dlpc/iis2dlpc_reg.c ****       break;
 7446              		.loc 1 3106 12 is_stmt 0 view .LVU1982
 7447 005a 0023     		movs	r3, #0
 7448 005c 2370     		strb	r3, [r4]
3107:Drivers/BSP/Components/iis2dlpc/iis2dlpc_reg.c ****   }
 7449              		.loc 1 3107 7 is_stmt 1 view .LVU1983
3110:Drivers/BSP/Components/iis2dlpc/iis2dlpc_reg.c **** }
 7450              		.loc 1 3110 3 view .LVU1984
3110:Drivers/BSP/Components/iis2dlpc/iis2dlpc_reg.c **** }
 7451              		.loc 1 3110 10 is_stmt 0 view .LVU1985
 7452 005e E5E7     		b	.L477
 7453              		.cfi_endproc
 7454              	.LFE110:
 7456              		.section	.text.iis2dlpc_fifo_watermark_set,"ax",%progbits
 7457              		.align	1
 7458              		.global	iis2dlpc_fifo_watermark_set
 7459              		.syntax unified
 7460              		.thumb
 7461              		.thumb_func
 7463              	iis2dlpc_fifo_watermark_set:
 7464              	.LVL565:
 7465              	.LFB111:
3112:Drivers/BSP/Components/iis2dlpc/iis2dlpc_reg.c **** 
3113:Drivers/BSP/Components/iis2dlpc/iis2dlpc_reg.c **** /**
3114:Drivers/BSP/Components/iis2dlpc/iis2dlpc_reg.c ****   * @}
3115:Drivers/BSP/Components/iis2dlpc/iis2dlpc_reg.c ****   *
3116:Drivers/BSP/Components/iis2dlpc/iis2dlpc_reg.c ****   */
3117:Drivers/BSP/Components/iis2dlpc/iis2dlpc_reg.c **** 
3118:Drivers/BSP/Components/iis2dlpc/iis2dlpc_reg.c **** /**
3119:Drivers/BSP/Components/iis2dlpc/iis2dlpc_reg.c ****   * @defgroup  IIS2DLPC_Fifo
3120:Drivers/BSP/Components/iis2dlpc/iis2dlpc_reg.c ****   * @brief     This section group all the functions concerning the fifo usage
3121:Drivers/BSP/Components/iis2dlpc/iis2dlpc_reg.c ****   * @{
3122:Drivers/BSP/Components/iis2dlpc/iis2dlpc_reg.c ****   *
3123:Drivers/BSP/Components/iis2dlpc/iis2dlpc_reg.c ****   */
3124:Drivers/BSP/Components/iis2dlpc/iis2dlpc_reg.c **** 
3125:Drivers/BSP/Components/iis2dlpc/iis2dlpc_reg.c **** /**
3126:Drivers/BSP/Components/iis2dlpc/iis2dlpc_reg.c ****   * @brief  FIFO watermark level selection.[set]
3127:Drivers/BSP/Components/iis2dlpc/iis2dlpc_reg.c ****   *
3128:Drivers/BSP/Components/iis2dlpc/iis2dlpc_reg.c ****   * @param  ctx      read / write interface definitions
3129:Drivers/BSP/Components/iis2dlpc/iis2dlpc_reg.c ****   * @param  val      change the values of fth in reg FIFO_CTRL
3130:Drivers/BSP/Components/iis2dlpc/iis2dlpc_reg.c ****   * @retval          interface status (MANDATORY: return 0 -> no Error)
3131:Drivers/BSP/Components/iis2dlpc/iis2dlpc_reg.c ****   *
3132:Drivers/BSP/Components/iis2dlpc/iis2dlpc_reg.c ****   */
3133:Drivers/BSP/Components/iis2dlpc/iis2dlpc_reg.c **** int32_t iis2dlpc_fifo_watermark_set(const stmdev_ctx_t *ctx, uint8_t val)
3134:Drivers/BSP/Components/iis2dlpc/iis2dlpc_reg.c **** {
 7466              		.loc 1 3134 1 is_stmt 1 view -0
 7467              		.cfi_startproc
 7468              		@ args = 0, pretend = 0, frame = 8
 7469              		@ frame_needed = 0, uses_anonymous_args = 0
 7470              		.loc 1 3134 1 is_stmt 0 view .LVU1987
ARM GAS  C:\Temp\ccGZlXNO.s 			page 196


 7471 0000 30B5     		push	{r4, r5, lr}
 7472              		.cfi_def_cfa_offset 12
 7473              		.cfi_offset 4, -12
 7474              		.cfi_offset 5, -8
 7475              		.cfi_offset 14, -4
 7476 0002 83B0     		sub	sp, sp, #12
 7477              		.cfi_def_cfa_offset 24
 7478 0004 0446     		mov	r4, r0
 7479 0006 0D46     		mov	r5, r1
3135:Drivers/BSP/Components/iis2dlpc/iis2dlpc_reg.c ****   iis2dlpc_fifo_ctrl_t reg;
 7480              		.loc 1 3135 3 is_stmt 1 view .LVU1988
3136:Drivers/BSP/Components/iis2dlpc/iis2dlpc_reg.c ****   int32_t ret;
 7481              		.loc 1 3136 3 view .LVU1989
3137:Drivers/BSP/Components/iis2dlpc/iis2dlpc_reg.c **** 
3138:Drivers/BSP/Components/iis2dlpc/iis2dlpc_reg.c ****   ret = iis2dlpc_read_reg(ctx, IIS2DLPC_FIFO_CTRL, (uint8_t *) &reg, 1);
 7482              		.loc 1 3138 3 view .LVU1990
 7483              		.loc 1 3138 9 is_stmt 0 view .LVU1991
 7484 0008 0123     		movs	r3, #1
 7485 000a 01AA     		add	r2, sp, #4
 7486 000c 2E21     		movs	r1, #46
 7487              	.LVL566:
 7488              		.loc 1 3138 9 view .LVU1992
 7489 000e FFF7FEFF 		bl	iis2dlpc_read_reg
 7490              	.LVL567:
3139:Drivers/BSP/Components/iis2dlpc/iis2dlpc_reg.c **** 
3140:Drivers/BSP/Components/iis2dlpc/iis2dlpc_reg.c ****   if (ret == 0)
 7491              		.loc 1 3140 3 is_stmt 1 view .LVU1993
 7492              		.loc 1 3140 6 is_stmt 0 view .LVU1994
 7493 0012 08B1     		cbz	r0, .L493
 7494              	.LVL568:
 7495              	.L490:
3141:Drivers/BSP/Components/iis2dlpc/iis2dlpc_reg.c ****   {
3142:Drivers/BSP/Components/iis2dlpc/iis2dlpc_reg.c ****     reg.fth = val;
3143:Drivers/BSP/Components/iis2dlpc/iis2dlpc_reg.c ****     ret = iis2dlpc_write_reg(ctx, IIS2DLPC_FIFO_CTRL, (uint8_t *) &reg, 1);
3144:Drivers/BSP/Components/iis2dlpc/iis2dlpc_reg.c ****   }
3145:Drivers/BSP/Components/iis2dlpc/iis2dlpc_reg.c **** 
3146:Drivers/BSP/Components/iis2dlpc/iis2dlpc_reg.c ****   return ret;
3147:Drivers/BSP/Components/iis2dlpc/iis2dlpc_reg.c **** }
 7496              		.loc 1 3147 1 view .LVU1995
 7497 0014 03B0     		add	sp, sp, #12
 7498              		.cfi_remember_state
 7499              		.cfi_def_cfa_offset 12
 7500              		@ sp needed
 7501 0016 30BD     		pop	{r4, r5, pc}
 7502              	.LVL569:
 7503              	.L493:
 7504              		.cfi_restore_state
3142:Drivers/BSP/Components/iis2dlpc/iis2dlpc_reg.c ****     ret = iis2dlpc_write_reg(ctx, IIS2DLPC_FIFO_CTRL, (uint8_t *) &reg, 1);
 7505              		.loc 1 3142 5 is_stmt 1 view .LVU1996
3142:Drivers/BSP/Components/iis2dlpc/iis2dlpc_reg.c ****     ret = iis2dlpc_write_reg(ctx, IIS2DLPC_FIFO_CTRL, (uint8_t *) &reg, 1);
 7506              		.loc 1 3142 13 is_stmt 0 view .LVU1997
 7507 0018 9DF80430 		ldrb	r3, [sp, #4]	@ zero_extendqisi2
 7508 001c 65F30403 		bfi	r3, r5, #0, #5
 7509 0020 8DF80430 		strb	r3, [sp, #4]
3143:Drivers/BSP/Components/iis2dlpc/iis2dlpc_reg.c ****   }
 7510              		.loc 1 3143 5 is_stmt 1 view .LVU1998
3143:Drivers/BSP/Components/iis2dlpc/iis2dlpc_reg.c ****   }
ARM GAS  C:\Temp\ccGZlXNO.s 			page 197


 7511              		.loc 1 3143 11 is_stmt 0 view .LVU1999
 7512 0024 0123     		movs	r3, #1
 7513              	.LVL570:
3143:Drivers/BSP/Components/iis2dlpc/iis2dlpc_reg.c ****   }
 7514              		.loc 1 3143 11 view .LVU2000
 7515 0026 01AA     		add	r2, sp, #4
 7516 0028 2E21     		movs	r1, #46
 7517 002a 2046     		mov	r0, r4
 7518 002c FFF7FEFF 		bl	iis2dlpc_write_reg
 7519              	.LVL571:
3146:Drivers/BSP/Components/iis2dlpc/iis2dlpc_reg.c **** }
 7520              		.loc 1 3146 3 is_stmt 1 view .LVU2001
3146:Drivers/BSP/Components/iis2dlpc/iis2dlpc_reg.c **** }
 7521              		.loc 1 3146 10 is_stmt 0 view .LVU2002
 7522 0030 F0E7     		b	.L490
 7523              		.cfi_endproc
 7524              	.LFE111:
 7526              		.section	.text.iis2dlpc_fifo_watermark_get,"ax",%progbits
 7527              		.align	1
 7528              		.global	iis2dlpc_fifo_watermark_get
 7529              		.syntax unified
 7530              		.thumb
 7531              		.thumb_func
 7533              	iis2dlpc_fifo_watermark_get:
 7534              	.LVL572:
 7535              	.LFB112:
3148:Drivers/BSP/Components/iis2dlpc/iis2dlpc_reg.c **** 
3149:Drivers/BSP/Components/iis2dlpc/iis2dlpc_reg.c **** /**
3150:Drivers/BSP/Components/iis2dlpc/iis2dlpc_reg.c ****   * @brief  FIFO watermark level selection.[get]
3151:Drivers/BSP/Components/iis2dlpc/iis2dlpc_reg.c ****   *
3152:Drivers/BSP/Components/iis2dlpc/iis2dlpc_reg.c ****   * @param  ctx      read / write interface definitions
3153:Drivers/BSP/Components/iis2dlpc/iis2dlpc_reg.c ****   * @param  val      change the values of fth in reg FIFO_CTRL
3154:Drivers/BSP/Components/iis2dlpc/iis2dlpc_reg.c ****   * @retval          interface status (MANDATORY: return 0 -> no Error)
3155:Drivers/BSP/Components/iis2dlpc/iis2dlpc_reg.c ****   *
3156:Drivers/BSP/Components/iis2dlpc/iis2dlpc_reg.c ****   */
3157:Drivers/BSP/Components/iis2dlpc/iis2dlpc_reg.c **** int32_t iis2dlpc_fifo_watermark_get(const stmdev_ctx_t *ctx, uint8_t *val)
3158:Drivers/BSP/Components/iis2dlpc/iis2dlpc_reg.c **** {
 7536              		.loc 1 3158 1 is_stmt 1 view -0
 7537              		.cfi_startproc
 7538              		@ args = 0, pretend = 0, frame = 8
 7539              		@ frame_needed = 0, uses_anonymous_args = 0
 7540              		.loc 1 3158 1 is_stmt 0 view .LVU2004
 7541 0000 10B5     		push	{r4, lr}
 7542              		.cfi_def_cfa_offset 8
 7543              		.cfi_offset 4, -8
 7544              		.cfi_offset 14, -4
 7545 0002 82B0     		sub	sp, sp, #8
 7546              		.cfi_def_cfa_offset 16
 7547 0004 0C46     		mov	r4, r1
3159:Drivers/BSP/Components/iis2dlpc/iis2dlpc_reg.c ****   iis2dlpc_fifo_ctrl_t reg;
 7548              		.loc 1 3159 3 is_stmt 1 view .LVU2005
3160:Drivers/BSP/Components/iis2dlpc/iis2dlpc_reg.c ****   int32_t ret;
 7549              		.loc 1 3160 3 view .LVU2006
3161:Drivers/BSP/Components/iis2dlpc/iis2dlpc_reg.c **** 
3162:Drivers/BSP/Components/iis2dlpc/iis2dlpc_reg.c ****   ret = iis2dlpc_read_reg(ctx, IIS2DLPC_FIFO_CTRL, (uint8_t *) &reg, 1);
 7550              		.loc 1 3162 3 view .LVU2007
 7551              		.loc 1 3162 9 is_stmt 0 view .LVU2008
ARM GAS  C:\Temp\ccGZlXNO.s 			page 198


 7552 0006 0123     		movs	r3, #1
 7553 0008 01AA     		add	r2, sp, #4
 7554 000a 2E21     		movs	r1, #46
 7555              	.LVL573:
 7556              		.loc 1 3162 9 view .LVU2009
 7557 000c FFF7FEFF 		bl	iis2dlpc_read_reg
 7558              	.LVL574:
3163:Drivers/BSP/Components/iis2dlpc/iis2dlpc_reg.c ****   *val = reg.fth;
 7559              		.loc 1 3163 3 is_stmt 1 view .LVU2010
 7560              		.loc 1 3163 13 is_stmt 0 view .LVU2011
 7561 0010 9DF80430 		ldrb	r3, [sp, #4]	@ zero_extendqisi2
 7562 0014 C3F30403 		ubfx	r3, r3, #0, #5
 7563              		.loc 1 3163 8 view .LVU2012
 7564 0018 2370     		strb	r3, [r4]
3164:Drivers/BSP/Components/iis2dlpc/iis2dlpc_reg.c **** 
3165:Drivers/BSP/Components/iis2dlpc/iis2dlpc_reg.c ****   return ret;
 7565              		.loc 1 3165 3 is_stmt 1 view .LVU2013
3166:Drivers/BSP/Components/iis2dlpc/iis2dlpc_reg.c **** }
 7566              		.loc 1 3166 1 is_stmt 0 view .LVU2014
 7567 001a 02B0     		add	sp, sp, #8
 7568              		.cfi_def_cfa_offset 8
 7569              		@ sp needed
 7570 001c 10BD     		pop	{r4, pc}
 7571              		.loc 1 3166 1 view .LVU2015
 7572              		.cfi_endproc
 7573              	.LFE112:
 7575              		.section	.text.iis2dlpc_fifo_mode_set,"ax",%progbits
 7576              		.align	1
 7577              		.global	iis2dlpc_fifo_mode_set
 7578              		.syntax unified
 7579              		.thumb
 7580              		.thumb_func
 7582              	iis2dlpc_fifo_mode_set:
 7583              	.LVL575:
 7584              	.LFB113:
3167:Drivers/BSP/Components/iis2dlpc/iis2dlpc_reg.c **** 
3168:Drivers/BSP/Components/iis2dlpc/iis2dlpc_reg.c **** /**
3169:Drivers/BSP/Components/iis2dlpc/iis2dlpc_reg.c ****   * @brief  FIFO mode selection.[set]
3170:Drivers/BSP/Components/iis2dlpc/iis2dlpc_reg.c ****   *
3171:Drivers/BSP/Components/iis2dlpc/iis2dlpc_reg.c ****   * @param  ctx      read / write interface definitions
3172:Drivers/BSP/Components/iis2dlpc/iis2dlpc_reg.c ****   * @param  val      change the values of fmode in reg FIFO_CTRL
3173:Drivers/BSP/Components/iis2dlpc/iis2dlpc_reg.c ****   * @retval          interface status (MANDATORY: return 0 -> no Error)
3174:Drivers/BSP/Components/iis2dlpc/iis2dlpc_reg.c ****   *
3175:Drivers/BSP/Components/iis2dlpc/iis2dlpc_reg.c ****   */
3176:Drivers/BSP/Components/iis2dlpc/iis2dlpc_reg.c **** int32_t iis2dlpc_fifo_mode_set(const stmdev_ctx_t *ctx,
3177:Drivers/BSP/Components/iis2dlpc/iis2dlpc_reg.c ****                                iis2dlpc_fmode_t val)
3178:Drivers/BSP/Components/iis2dlpc/iis2dlpc_reg.c **** {
 7585              		.loc 1 3178 1 is_stmt 1 view -0
 7586              		.cfi_startproc
 7587              		@ args = 0, pretend = 0, frame = 8
 7588              		@ frame_needed = 0, uses_anonymous_args = 0
 7589              		.loc 1 3178 1 is_stmt 0 view .LVU2017
 7590 0000 30B5     		push	{r4, r5, lr}
 7591              		.cfi_def_cfa_offset 12
 7592              		.cfi_offset 4, -12
 7593              		.cfi_offset 5, -8
 7594              		.cfi_offset 14, -4
ARM GAS  C:\Temp\ccGZlXNO.s 			page 199


 7595 0002 83B0     		sub	sp, sp, #12
 7596              		.cfi_def_cfa_offset 24
 7597 0004 0446     		mov	r4, r0
 7598 0006 0D46     		mov	r5, r1
3179:Drivers/BSP/Components/iis2dlpc/iis2dlpc_reg.c ****   iis2dlpc_fifo_ctrl_t reg;
 7599              		.loc 1 3179 3 is_stmt 1 view .LVU2018
3180:Drivers/BSP/Components/iis2dlpc/iis2dlpc_reg.c ****   int32_t ret;
 7600              		.loc 1 3180 3 view .LVU2019
3181:Drivers/BSP/Components/iis2dlpc/iis2dlpc_reg.c **** 
3182:Drivers/BSP/Components/iis2dlpc/iis2dlpc_reg.c ****   ret = iis2dlpc_read_reg(ctx, IIS2DLPC_FIFO_CTRL, (uint8_t *) &reg, 1);
 7601              		.loc 1 3182 3 view .LVU2020
 7602              		.loc 1 3182 9 is_stmt 0 view .LVU2021
 7603 0008 0123     		movs	r3, #1
 7604 000a 01AA     		add	r2, sp, #4
 7605 000c 2E21     		movs	r1, #46
 7606              	.LVL576:
 7607              		.loc 1 3182 9 view .LVU2022
 7608 000e FFF7FEFF 		bl	iis2dlpc_read_reg
 7609              	.LVL577:
3183:Drivers/BSP/Components/iis2dlpc/iis2dlpc_reg.c **** 
3184:Drivers/BSP/Components/iis2dlpc/iis2dlpc_reg.c ****   if (ret == 0)
 7610              		.loc 1 3184 3 is_stmt 1 view .LVU2023
 7611              		.loc 1 3184 6 is_stmt 0 view .LVU2024
 7612 0012 08B1     		cbz	r0, .L499
 7613              	.LVL578:
 7614              	.L496:
3185:Drivers/BSP/Components/iis2dlpc/iis2dlpc_reg.c ****   {
3186:Drivers/BSP/Components/iis2dlpc/iis2dlpc_reg.c ****     reg.fmode = (uint8_t) val;
3187:Drivers/BSP/Components/iis2dlpc/iis2dlpc_reg.c ****     ret = iis2dlpc_write_reg(ctx, IIS2DLPC_FIFO_CTRL, (uint8_t *) &reg, 1);
3188:Drivers/BSP/Components/iis2dlpc/iis2dlpc_reg.c ****   }
3189:Drivers/BSP/Components/iis2dlpc/iis2dlpc_reg.c **** 
3190:Drivers/BSP/Components/iis2dlpc/iis2dlpc_reg.c ****   return ret;
3191:Drivers/BSP/Components/iis2dlpc/iis2dlpc_reg.c **** }
 7615              		.loc 1 3191 1 view .LVU2025
 7616 0014 03B0     		add	sp, sp, #12
 7617              		.cfi_remember_state
 7618              		.cfi_def_cfa_offset 12
 7619              		@ sp needed
 7620 0016 30BD     		pop	{r4, r5, pc}
 7621              	.LVL579:
 7622              	.L499:
 7623              		.cfi_restore_state
3186:Drivers/BSP/Components/iis2dlpc/iis2dlpc_reg.c ****     ret = iis2dlpc_write_reg(ctx, IIS2DLPC_FIFO_CTRL, (uint8_t *) &reg, 1);
 7624              		.loc 1 3186 5 is_stmt 1 view .LVU2026
3186:Drivers/BSP/Components/iis2dlpc/iis2dlpc_reg.c ****     ret = iis2dlpc_write_reg(ctx, IIS2DLPC_FIFO_CTRL, (uint8_t *) &reg, 1);
 7625              		.loc 1 3186 15 is_stmt 0 view .LVU2027
 7626 0018 9DF80430 		ldrb	r3, [sp, #4]	@ zero_extendqisi2
 7627 001c 65F34713 		bfi	r3, r5, #5, #3
 7628 0020 8DF80430 		strb	r3, [sp, #4]
3187:Drivers/BSP/Components/iis2dlpc/iis2dlpc_reg.c ****   }
 7629              		.loc 1 3187 5 is_stmt 1 view .LVU2028
3187:Drivers/BSP/Components/iis2dlpc/iis2dlpc_reg.c ****   }
 7630              		.loc 1 3187 11 is_stmt 0 view .LVU2029
 7631 0024 0123     		movs	r3, #1
 7632              	.LVL580:
3187:Drivers/BSP/Components/iis2dlpc/iis2dlpc_reg.c ****   }
 7633              		.loc 1 3187 11 view .LVU2030
ARM GAS  C:\Temp\ccGZlXNO.s 			page 200


 7634 0026 01AA     		add	r2, sp, #4
 7635 0028 2E21     		movs	r1, #46
 7636 002a 2046     		mov	r0, r4
 7637 002c FFF7FEFF 		bl	iis2dlpc_write_reg
 7638              	.LVL581:
3190:Drivers/BSP/Components/iis2dlpc/iis2dlpc_reg.c **** }
 7639              		.loc 1 3190 3 is_stmt 1 view .LVU2031
3190:Drivers/BSP/Components/iis2dlpc/iis2dlpc_reg.c **** }
 7640              		.loc 1 3190 10 is_stmt 0 view .LVU2032
 7641 0030 F0E7     		b	.L496
 7642              		.cfi_endproc
 7643              	.LFE113:
 7645              		.section	.text.iis2dlpc_fifo_mode_get,"ax",%progbits
 7646              		.align	1
 7647              		.global	iis2dlpc_fifo_mode_get
 7648              		.syntax unified
 7649              		.thumb
 7650              		.thumb_func
 7652              	iis2dlpc_fifo_mode_get:
 7653              	.LVL582:
 7654              	.LFB114:
3192:Drivers/BSP/Components/iis2dlpc/iis2dlpc_reg.c **** 
3193:Drivers/BSP/Components/iis2dlpc/iis2dlpc_reg.c **** /**
3194:Drivers/BSP/Components/iis2dlpc/iis2dlpc_reg.c ****   * @brief  FIFO mode selection.[get]
3195:Drivers/BSP/Components/iis2dlpc/iis2dlpc_reg.c ****   *
3196:Drivers/BSP/Components/iis2dlpc/iis2dlpc_reg.c ****   * @param  ctx      read / write interface definitions
3197:Drivers/BSP/Components/iis2dlpc/iis2dlpc_reg.c ****   * @param  val      Get the values of fmode in reg FIFO_CTRL
3198:Drivers/BSP/Components/iis2dlpc/iis2dlpc_reg.c ****   * @retval          interface status (MANDATORY: return 0 -> no Error)
3199:Drivers/BSP/Components/iis2dlpc/iis2dlpc_reg.c ****   *
3200:Drivers/BSP/Components/iis2dlpc/iis2dlpc_reg.c ****   */
3201:Drivers/BSP/Components/iis2dlpc/iis2dlpc_reg.c **** int32_t iis2dlpc_fifo_mode_get(const stmdev_ctx_t *ctx,
3202:Drivers/BSP/Components/iis2dlpc/iis2dlpc_reg.c ****                                iis2dlpc_fmode_t *val)
3203:Drivers/BSP/Components/iis2dlpc/iis2dlpc_reg.c **** {
 7655              		.loc 1 3203 1 is_stmt 1 view -0
 7656              		.cfi_startproc
 7657              		@ args = 0, pretend = 0, frame = 8
 7658              		@ frame_needed = 0, uses_anonymous_args = 0
 7659              		.loc 1 3203 1 is_stmt 0 view .LVU2034
 7660 0000 10B5     		push	{r4, lr}
 7661              		.cfi_def_cfa_offset 8
 7662              		.cfi_offset 4, -8
 7663              		.cfi_offset 14, -4
 7664 0002 82B0     		sub	sp, sp, #8
 7665              		.cfi_def_cfa_offset 16
 7666 0004 0C46     		mov	r4, r1
3204:Drivers/BSP/Components/iis2dlpc/iis2dlpc_reg.c ****   iis2dlpc_fifo_ctrl_t reg;
 7667              		.loc 1 3204 3 is_stmt 1 view .LVU2035
3205:Drivers/BSP/Components/iis2dlpc/iis2dlpc_reg.c ****   int32_t ret;
 7668              		.loc 1 3205 3 view .LVU2036
3206:Drivers/BSP/Components/iis2dlpc/iis2dlpc_reg.c **** 
3207:Drivers/BSP/Components/iis2dlpc/iis2dlpc_reg.c ****   ret = iis2dlpc_read_reg(ctx, IIS2DLPC_FIFO_CTRL, (uint8_t *) &reg, 1);
 7669              		.loc 1 3207 3 view .LVU2037
 7670              		.loc 1 3207 9 is_stmt 0 view .LVU2038
 7671 0006 0123     		movs	r3, #1
 7672 0008 01AA     		add	r2, sp, #4
 7673 000a 2E21     		movs	r1, #46
 7674              	.LVL583:
ARM GAS  C:\Temp\ccGZlXNO.s 			page 201


 7675              		.loc 1 3207 9 view .LVU2039
 7676 000c FFF7FEFF 		bl	iis2dlpc_read_reg
 7677              	.LVL584:
3208:Drivers/BSP/Components/iis2dlpc/iis2dlpc_reg.c **** 
3209:Drivers/BSP/Components/iis2dlpc/iis2dlpc_reg.c ****   switch (reg.fmode)
 7678              		.loc 1 3209 3 is_stmt 1 view .LVU2040
 7679              		.loc 1 3209 14 is_stmt 0 view .LVU2041
 7680 0010 9DF80430 		ldrb	r3, [sp, #4]	@ zero_extendqisi2
 7681 0014 5B09     		lsrs	r3, r3, #5
 7682              		.loc 1 3209 3 view .LVU2042
 7683 0016 062B     		cmp	r3, #6
 7684 0018 15D8     		bhi	.L501
 7685 001a DFE803F0 		tbb	[pc, r3]
 7686              	.L503:
 7687 001e 04       		.byte	(.L507-.L503)/2
 7688 001f 08       		.byte	(.L506-.L503)/2
 7689 0020 14       		.byte	(.L501-.L503)/2
 7690 0021 0B       		.byte	(.L505-.L503)/2
 7691 0022 0E       		.byte	(.L504-.L503)/2
 7692 0023 14       		.byte	(.L501-.L503)/2
 7693 0024 11       		.byte	(.L502-.L503)/2
 7694 0025 00       		.p2align 1
 7695              	.L507:
3210:Drivers/BSP/Components/iis2dlpc/iis2dlpc_reg.c ****   {
3211:Drivers/BSP/Components/iis2dlpc/iis2dlpc_reg.c ****     case IIS2DLPC_BYPASS_MODE:
3212:Drivers/BSP/Components/iis2dlpc/iis2dlpc_reg.c ****       *val = IIS2DLPC_BYPASS_MODE;
 7696              		.loc 1 3212 7 is_stmt 1 view .LVU2043
 7697              		.loc 1 3212 12 is_stmt 0 view .LVU2044
 7698 0026 0023     		movs	r3, #0
 7699 0028 2370     		strb	r3, [r4]
3213:Drivers/BSP/Components/iis2dlpc/iis2dlpc_reg.c ****       break;
 7700              		.loc 1 3213 7 is_stmt 1 view .LVU2045
 7701              	.L500:
3214:Drivers/BSP/Components/iis2dlpc/iis2dlpc_reg.c **** 
3215:Drivers/BSP/Components/iis2dlpc/iis2dlpc_reg.c ****     case IIS2DLPC_FIFO_MODE:
3216:Drivers/BSP/Components/iis2dlpc/iis2dlpc_reg.c ****       *val = IIS2DLPC_FIFO_MODE;
3217:Drivers/BSP/Components/iis2dlpc/iis2dlpc_reg.c ****       break;
3218:Drivers/BSP/Components/iis2dlpc/iis2dlpc_reg.c **** 
3219:Drivers/BSP/Components/iis2dlpc/iis2dlpc_reg.c ****     case IIS2DLPC_STREAM_TO_FIFO_MODE:
3220:Drivers/BSP/Components/iis2dlpc/iis2dlpc_reg.c ****       *val = IIS2DLPC_STREAM_TO_FIFO_MODE;
3221:Drivers/BSP/Components/iis2dlpc/iis2dlpc_reg.c ****       break;
3222:Drivers/BSP/Components/iis2dlpc/iis2dlpc_reg.c **** 
3223:Drivers/BSP/Components/iis2dlpc/iis2dlpc_reg.c ****     case IIS2DLPC_BYPASS_TO_STREAM_MODE:
3224:Drivers/BSP/Components/iis2dlpc/iis2dlpc_reg.c ****       *val = IIS2DLPC_BYPASS_TO_STREAM_MODE;
3225:Drivers/BSP/Components/iis2dlpc/iis2dlpc_reg.c ****       break;
3226:Drivers/BSP/Components/iis2dlpc/iis2dlpc_reg.c **** 
3227:Drivers/BSP/Components/iis2dlpc/iis2dlpc_reg.c ****     case IIS2DLPC_STREAM_MODE:
3228:Drivers/BSP/Components/iis2dlpc/iis2dlpc_reg.c ****       *val = IIS2DLPC_STREAM_MODE;
3229:Drivers/BSP/Components/iis2dlpc/iis2dlpc_reg.c ****       break;
3230:Drivers/BSP/Components/iis2dlpc/iis2dlpc_reg.c **** 
3231:Drivers/BSP/Components/iis2dlpc/iis2dlpc_reg.c ****     default:
3232:Drivers/BSP/Components/iis2dlpc/iis2dlpc_reg.c ****       *val = IIS2DLPC_BYPASS_MODE;
3233:Drivers/BSP/Components/iis2dlpc/iis2dlpc_reg.c ****       break;
3234:Drivers/BSP/Components/iis2dlpc/iis2dlpc_reg.c ****   }
3235:Drivers/BSP/Components/iis2dlpc/iis2dlpc_reg.c **** 
3236:Drivers/BSP/Components/iis2dlpc/iis2dlpc_reg.c ****   return ret;
3237:Drivers/BSP/Components/iis2dlpc/iis2dlpc_reg.c **** }
ARM GAS  C:\Temp\ccGZlXNO.s 			page 202


 7702              		.loc 1 3237 1 is_stmt 0 view .LVU2046
 7703 002a 02B0     		add	sp, sp, #8
 7704              		.cfi_remember_state
 7705              		.cfi_def_cfa_offset 8
 7706              		@ sp needed
 7707 002c 10BD     		pop	{r4, pc}
 7708              	.LVL585:
 7709              	.L506:
 7710              		.cfi_restore_state
3216:Drivers/BSP/Components/iis2dlpc/iis2dlpc_reg.c ****       break;
 7711              		.loc 1 3216 7 is_stmt 1 view .LVU2047
3216:Drivers/BSP/Components/iis2dlpc/iis2dlpc_reg.c ****       break;
 7712              		.loc 1 3216 12 is_stmt 0 view .LVU2048
 7713 002e 0123     		movs	r3, #1
 7714 0030 2370     		strb	r3, [r4]
3217:Drivers/BSP/Components/iis2dlpc/iis2dlpc_reg.c **** 
 7715              		.loc 1 3217 7 is_stmt 1 view .LVU2049
 7716 0032 FAE7     		b	.L500
 7717              	.L505:
3220:Drivers/BSP/Components/iis2dlpc/iis2dlpc_reg.c ****       break;
 7718              		.loc 1 3220 7 view .LVU2050
3220:Drivers/BSP/Components/iis2dlpc/iis2dlpc_reg.c ****       break;
 7719              		.loc 1 3220 12 is_stmt 0 view .LVU2051
 7720 0034 0323     		movs	r3, #3
 7721 0036 2370     		strb	r3, [r4]
3221:Drivers/BSP/Components/iis2dlpc/iis2dlpc_reg.c **** 
 7722              		.loc 1 3221 7 is_stmt 1 view .LVU2052
 7723 0038 F7E7     		b	.L500
 7724              	.L504:
3224:Drivers/BSP/Components/iis2dlpc/iis2dlpc_reg.c ****       break;
 7725              		.loc 1 3224 7 view .LVU2053
3224:Drivers/BSP/Components/iis2dlpc/iis2dlpc_reg.c ****       break;
 7726              		.loc 1 3224 12 is_stmt 0 view .LVU2054
 7727 003a 0423     		movs	r3, #4
 7728 003c 2370     		strb	r3, [r4]
3225:Drivers/BSP/Components/iis2dlpc/iis2dlpc_reg.c **** 
 7729              		.loc 1 3225 7 is_stmt 1 view .LVU2055
 7730 003e F4E7     		b	.L500
 7731              	.L502:
3228:Drivers/BSP/Components/iis2dlpc/iis2dlpc_reg.c ****       break;
 7732              		.loc 1 3228 7 view .LVU2056
3228:Drivers/BSP/Components/iis2dlpc/iis2dlpc_reg.c ****       break;
 7733              		.loc 1 3228 12 is_stmt 0 view .LVU2057
 7734 0040 0623     		movs	r3, #6
 7735 0042 2370     		strb	r3, [r4]
3229:Drivers/BSP/Components/iis2dlpc/iis2dlpc_reg.c **** 
 7736              		.loc 1 3229 7 is_stmt 1 view .LVU2058
 7737 0044 F1E7     		b	.L500
 7738              	.L501:
3232:Drivers/BSP/Components/iis2dlpc/iis2dlpc_reg.c ****       break;
 7739              		.loc 1 3232 7 view .LVU2059
3232:Drivers/BSP/Components/iis2dlpc/iis2dlpc_reg.c ****       break;
 7740              		.loc 1 3232 12 is_stmt 0 view .LVU2060
 7741 0046 0023     		movs	r3, #0
 7742 0048 2370     		strb	r3, [r4]
3233:Drivers/BSP/Components/iis2dlpc/iis2dlpc_reg.c ****   }
 7743              		.loc 1 3233 7 is_stmt 1 view .LVU2061
ARM GAS  C:\Temp\ccGZlXNO.s 			page 203


3236:Drivers/BSP/Components/iis2dlpc/iis2dlpc_reg.c **** }
 7744              		.loc 1 3236 3 view .LVU2062
3236:Drivers/BSP/Components/iis2dlpc/iis2dlpc_reg.c **** }
 7745              		.loc 1 3236 10 is_stmt 0 view .LVU2063
 7746 004a EEE7     		b	.L500
 7747              		.cfi_endproc
 7748              	.LFE114:
 7750              		.section	.text.iis2dlpc_fifo_data_level_get,"ax",%progbits
 7751              		.align	1
 7752              		.global	iis2dlpc_fifo_data_level_get
 7753              		.syntax unified
 7754              		.thumb
 7755              		.thumb_func
 7757              	iis2dlpc_fifo_data_level_get:
 7758              	.LVL586:
 7759              	.LFB115:
3238:Drivers/BSP/Components/iis2dlpc/iis2dlpc_reg.c **** 
3239:Drivers/BSP/Components/iis2dlpc/iis2dlpc_reg.c **** /**
3240:Drivers/BSP/Components/iis2dlpc/iis2dlpc_reg.c ****   * @brief  Number of unread samples stored in FIFO.[get]
3241:Drivers/BSP/Components/iis2dlpc/iis2dlpc_reg.c ****   *
3242:Drivers/BSP/Components/iis2dlpc/iis2dlpc_reg.c ****   * @param  ctx      read / write interface definitions
3243:Drivers/BSP/Components/iis2dlpc/iis2dlpc_reg.c ****   * @param  val      change the values of diff in reg FIFO_SAMPLES
3244:Drivers/BSP/Components/iis2dlpc/iis2dlpc_reg.c ****   * @retval          interface status (MANDATORY: return 0 -> no Error)
3245:Drivers/BSP/Components/iis2dlpc/iis2dlpc_reg.c ****   *
3246:Drivers/BSP/Components/iis2dlpc/iis2dlpc_reg.c ****   */
3247:Drivers/BSP/Components/iis2dlpc/iis2dlpc_reg.c **** int32_t iis2dlpc_fifo_data_level_get(const stmdev_ctx_t *ctx, uint8_t *val)
3248:Drivers/BSP/Components/iis2dlpc/iis2dlpc_reg.c **** {
 7760              		.loc 1 3248 1 is_stmt 1 view -0
 7761              		.cfi_startproc
 7762              		@ args = 0, pretend = 0, frame = 8
 7763              		@ frame_needed = 0, uses_anonymous_args = 0
 7764              		.loc 1 3248 1 is_stmt 0 view .LVU2065
 7765 0000 10B5     		push	{r4, lr}
 7766              		.cfi_def_cfa_offset 8
 7767              		.cfi_offset 4, -8
 7768              		.cfi_offset 14, -4
 7769 0002 82B0     		sub	sp, sp, #8
 7770              		.cfi_def_cfa_offset 16
 7771 0004 0C46     		mov	r4, r1
3249:Drivers/BSP/Components/iis2dlpc/iis2dlpc_reg.c ****   iis2dlpc_fifo_samples_t reg;
 7772              		.loc 1 3249 3 is_stmt 1 view .LVU2066
3250:Drivers/BSP/Components/iis2dlpc/iis2dlpc_reg.c ****   int32_t ret;
 7773              		.loc 1 3250 3 view .LVU2067
3251:Drivers/BSP/Components/iis2dlpc/iis2dlpc_reg.c **** 
3252:Drivers/BSP/Components/iis2dlpc/iis2dlpc_reg.c ****   ret = iis2dlpc_read_reg(ctx, IIS2DLPC_FIFO_SAMPLES, (uint8_t *) &reg, 1);
 7774              		.loc 1 3252 3 view .LVU2068
 7775              		.loc 1 3252 9 is_stmt 0 view .LVU2069
 7776 0006 0123     		movs	r3, #1
 7777 0008 01AA     		add	r2, sp, #4
 7778 000a 2F21     		movs	r1, #47
 7779              	.LVL587:
 7780              		.loc 1 3252 9 view .LVU2070
 7781 000c FFF7FEFF 		bl	iis2dlpc_read_reg
 7782              	.LVL588:
3253:Drivers/BSP/Components/iis2dlpc/iis2dlpc_reg.c ****   *val = reg.diff;
 7783              		.loc 1 3253 3 is_stmt 1 view .LVU2071
 7784              		.loc 1 3253 13 is_stmt 0 view .LVU2072
ARM GAS  C:\Temp\ccGZlXNO.s 			page 204


 7785 0010 9DF80430 		ldrb	r3, [sp, #4]	@ zero_extendqisi2
 7786 0014 C3F30503 		ubfx	r3, r3, #0, #6
 7787              		.loc 1 3253 8 view .LVU2073
 7788 0018 2370     		strb	r3, [r4]
3254:Drivers/BSP/Components/iis2dlpc/iis2dlpc_reg.c **** 
3255:Drivers/BSP/Components/iis2dlpc/iis2dlpc_reg.c ****   return ret;
 7789              		.loc 1 3255 3 is_stmt 1 view .LVU2074
3256:Drivers/BSP/Components/iis2dlpc/iis2dlpc_reg.c **** }
 7790              		.loc 1 3256 1 is_stmt 0 view .LVU2075
 7791 001a 02B0     		add	sp, sp, #8
 7792              		.cfi_def_cfa_offset 8
 7793              		@ sp needed
 7794 001c 10BD     		pop	{r4, pc}
 7795              		.loc 1 3256 1 view .LVU2076
 7796              		.cfi_endproc
 7797              	.LFE115:
 7799              		.section	.text.iis2dlpc_fifo_ovr_flag_get,"ax",%progbits
 7800              		.align	1
 7801              		.global	iis2dlpc_fifo_ovr_flag_get
 7802              		.syntax unified
 7803              		.thumb
 7804              		.thumb_func
 7806              	iis2dlpc_fifo_ovr_flag_get:
 7807              	.LVL589:
 7808              	.LFB116:
3257:Drivers/BSP/Components/iis2dlpc/iis2dlpc_reg.c **** /**
3258:Drivers/BSP/Components/iis2dlpc/iis2dlpc_reg.c ****   * @brief  FIFO overrun status.[get]
3259:Drivers/BSP/Components/iis2dlpc/iis2dlpc_reg.c ****   *
3260:Drivers/BSP/Components/iis2dlpc/iis2dlpc_reg.c ****   * @param  ctx      read / write interface definitions
3261:Drivers/BSP/Components/iis2dlpc/iis2dlpc_reg.c ****   * @param  val      change the values of fifo_ovr in reg FIFO_SAMPLES
3262:Drivers/BSP/Components/iis2dlpc/iis2dlpc_reg.c ****   * @retval          interface status (MANDATORY: return 0 -> no Error)
3263:Drivers/BSP/Components/iis2dlpc/iis2dlpc_reg.c ****   *
3264:Drivers/BSP/Components/iis2dlpc/iis2dlpc_reg.c ****   */
3265:Drivers/BSP/Components/iis2dlpc/iis2dlpc_reg.c **** int32_t iis2dlpc_fifo_ovr_flag_get(const stmdev_ctx_t *ctx, uint8_t *val)
3266:Drivers/BSP/Components/iis2dlpc/iis2dlpc_reg.c **** {
 7809              		.loc 1 3266 1 is_stmt 1 view -0
 7810              		.cfi_startproc
 7811              		@ args = 0, pretend = 0, frame = 8
 7812              		@ frame_needed = 0, uses_anonymous_args = 0
 7813              		.loc 1 3266 1 is_stmt 0 view .LVU2078
 7814 0000 10B5     		push	{r4, lr}
 7815              		.cfi_def_cfa_offset 8
 7816              		.cfi_offset 4, -8
 7817              		.cfi_offset 14, -4
 7818 0002 82B0     		sub	sp, sp, #8
 7819              		.cfi_def_cfa_offset 16
 7820 0004 0C46     		mov	r4, r1
3267:Drivers/BSP/Components/iis2dlpc/iis2dlpc_reg.c ****   iis2dlpc_fifo_samples_t reg;
 7821              		.loc 1 3267 3 is_stmt 1 view .LVU2079
3268:Drivers/BSP/Components/iis2dlpc/iis2dlpc_reg.c ****   int32_t ret;
 7822              		.loc 1 3268 3 view .LVU2080
3269:Drivers/BSP/Components/iis2dlpc/iis2dlpc_reg.c **** 
3270:Drivers/BSP/Components/iis2dlpc/iis2dlpc_reg.c ****   ret = iis2dlpc_read_reg(ctx, IIS2DLPC_FIFO_SAMPLES, (uint8_t *) &reg, 1);
 7823              		.loc 1 3270 3 view .LVU2081
 7824              		.loc 1 3270 9 is_stmt 0 view .LVU2082
 7825 0006 0123     		movs	r3, #1
 7826 0008 01AA     		add	r2, sp, #4
ARM GAS  C:\Temp\ccGZlXNO.s 			page 205


 7827 000a 2F21     		movs	r1, #47
 7828              	.LVL590:
 7829              		.loc 1 3270 9 view .LVU2083
 7830 000c FFF7FEFF 		bl	iis2dlpc_read_reg
 7831              	.LVL591:
3271:Drivers/BSP/Components/iis2dlpc/iis2dlpc_reg.c ****   *val = reg.fifo_ovr;
 7832              		.loc 1 3271 3 is_stmt 1 view .LVU2084
 7833              		.loc 1 3271 13 is_stmt 0 view .LVU2085
 7834 0010 9DF80430 		ldrb	r3, [sp, #4]	@ zero_extendqisi2
 7835 0014 C3F38013 		ubfx	r3, r3, #6, #1
 7836              		.loc 1 3271 8 view .LVU2086
 7837 0018 2370     		strb	r3, [r4]
3272:Drivers/BSP/Components/iis2dlpc/iis2dlpc_reg.c **** 
3273:Drivers/BSP/Components/iis2dlpc/iis2dlpc_reg.c ****   return ret;
 7838              		.loc 1 3273 3 is_stmt 1 view .LVU2087
3274:Drivers/BSP/Components/iis2dlpc/iis2dlpc_reg.c **** }
 7839              		.loc 1 3274 1 is_stmt 0 view .LVU2088
 7840 001a 02B0     		add	sp, sp, #8
 7841              		.cfi_def_cfa_offset 8
 7842              		@ sp needed
 7843 001c 10BD     		pop	{r4, pc}
 7844              		.loc 1 3274 1 view .LVU2089
 7845              		.cfi_endproc
 7846              	.LFE116:
 7848              		.section	.text.iis2dlpc_fifo_wtm_flag_get,"ax",%progbits
 7849              		.align	1
 7850              		.global	iis2dlpc_fifo_wtm_flag_get
 7851              		.syntax unified
 7852              		.thumb
 7853              		.thumb_func
 7855              	iis2dlpc_fifo_wtm_flag_get:
 7856              	.LVL592:
 7857              	.LFB117:
3275:Drivers/BSP/Components/iis2dlpc/iis2dlpc_reg.c **** /**
3276:Drivers/BSP/Components/iis2dlpc/iis2dlpc_reg.c ****   * @brief  FIFO threshold status flag.[get]
3277:Drivers/BSP/Components/iis2dlpc/iis2dlpc_reg.c ****   *
3278:Drivers/BSP/Components/iis2dlpc/iis2dlpc_reg.c ****   * @param  ctx      read / write interface definitions
3279:Drivers/BSP/Components/iis2dlpc/iis2dlpc_reg.c ****   * @param  val      change the values of fifo_fth in reg FIFO_SAMPLES
3280:Drivers/BSP/Components/iis2dlpc/iis2dlpc_reg.c ****   * @retval          interface status (MANDATORY: return 0 -> no Error)
3281:Drivers/BSP/Components/iis2dlpc/iis2dlpc_reg.c ****   *
3282:Drivers/BSP/Components/iis2dlpc/iis2dlpc_reg.c ****   */
3283:Drivers/BSP/Components/iis2dlpc/iis2dlpc_reg.c **** int32_t iis2dlpc_fifo_wtm_flag_get(const stmdev_ctx_t *ctx, uint8_t *val)
3284:Drivers/BSP/Components/iis2dlpc/iis2dlpc_reg.c **** {
 7858              		.loc 1 3284 1 is_stmt 1 view -0
 7859              		.cfi_startproc
 7860              		@ args = 0, pretend = 0, frame = 8
 7861              		@ frame_needed = 0, uses_anonymous_args = 0
 7862              		.loc 1 3284 1 is_stmt 0 view .LVU2091
 7863 0000 10B5     		push	{r4, lr}
 7864              		.cfi_def_cfa_offset 8
 7865              		.cfi_offset 4, -8
 7866              		.cfi_offset 14, -4
 7867 0002 82B0     		sub	sp, sp, #8
 7868              		.cfi_def_cfa_offset 16
 7869 0004 0C46     		mov	r4, r1
3285:Drivers/BSP/Components/iis2dlpc/iis2dlpc_reg.c ****   iis2dlpc_fifo_samples_t reg;
 7870              		.loc 1 3285 3 is_stmt 1 view .LVU2092
ARM GAS  C:\Temp\ccGZlXNO.s 			page 206


3286:Drivers/BSP/Components/iis2dlpc/iis2dlpc_reg.c ****   int32_t ret;
 7871              		.loc 1 3286 3 view .LVU2093
3287:Drivers/BSP/Components/iis2dlpc/iis2dlpc_reg.c **** 
3288:Drivers/BSP/Components/iis2dlpc/iis2dlpc_reg.c ****   ret = iis2dlpc_read_reg(ctx, IIS2DLPC_FIFO_SAMPLES, (uint8_t *) &reg, 1);
 7872              		.loc 1 3288 3 view .LVU2094
 7873              		.loc 1 3288 9 is_stmt 0 view .LVU2095
 7874 0006 0123     		movs	r3, #1
 7875 0008 01AA     		add	r2, sp, #4
 7876 000a 2F21     		movs	r1, #47
 7877              	.LVL593:
 7878              		.loc 1 3288 9 view .LVU2096
 7879 000c FFF7FEFF 		bl	iis2dlpc_read_reg
 7880              	.LVL594:
3289:Drivers/BSP/Components/iis2dlpc/iis2dlpc_reg.c ****   *val = reg.fifo_fth;
 7881              		.loc 1 3289 3 is_stmt 1 view .LVU2097
 7882              		.loc 1 3289 13 is_stmt 0 view .LVU2098
 7883 0010 9DF80430 		ldrb	r3, [sp, #4]	@ zero_extendqisi2
 7884 0014 C3F3C013 		ubfx	r3, r3, #7, #1
 7885              		.loc 1 3289 8 view .LVU2099
 7886 0018 2370     		strb	r3, [r4]
3290:Drivers/BSP/Components/iis2dlpc/iis2dlpc_reg.c **** 
3291:Drivers/BSP/Components/iis2dlpc/iis2dlpc_reg.c ****   return ret;
 7887              		.loc 1 3291 3 is_stmt 1 view .LVU2100
3292:Drivers/BSP/Components/iis2dlpc/iis2dlpc_reg.c **** }
 7888              		.loc 1 3292 1 is_stmt 0 view .LVU2101
 7889 001a 02B0     		add	sp, sp, #8
 7890              		.cfi_def_cfa_offset 8
 7891              		@ sp needed
 7892 001c 10BD     		pop	{r4, pc}
 7893              		.loc 1 3292 1 view .LVU2102
 7894              		.cfi_endproc
 7895              	.LFE117:
 7897              		.text
 7898              	.Letext0:
 7899              		.file 2 "c:\\users\\jessejabezarendse\\appdata\\roaming\\code\\user\\globalstorage\\bmd.stm32-for-
 7900              		.file 3 "c:\\users\\jessejabezarendse\\appdata\\roaming\\code\\user\\globalstorage\\bmd.stm32-for-
 7901              		.file 4 "c:\\users\\jessejabezarendse\\appdata\\roaming\\code\\user\\globalstorage\\bmd.stm32-for-
 7902              		.file 5 "Drivers/BSP/Components/iis2dlpc/iis2dlpc_reg.h"
ARM GAS  C:\Temp\ccGZlXNO.s 			page 207


DEFINED SYMBOLS
                            *ABS*:00000000 iis2dlpc_reg.c
  C:\Temp\ccGZlXNO.s:21     .text.iis2dlpc_read_reg:00000000 $t
  C:\Temp\ccGZlXNO.s:27     .text.iis2dlpc_read_reg:00000000 iis2dlpc_read_reg
  C:\Temp\ccGZlXNO.s:69     .text.iis2dlpc_write_reg:00000000 $t
  C:\Temp\ccGZlXNO.s:75     .text.iis2dlpc_write_reg:00000000 iis2dlpc_write_reg
  C:\Temp\ccGZlXNO.s:117    .text.iis2dlpc_from_fs2_to_mg:00000000 $t
  C:\Temp\ccGZlXNO.s:123    .text.iis2dlpc_from_fs2_to_mg:00000000 iis2dlpc_from_fs2_to_mg
  C:\Temp\ccGZlXNO.s:143    .text.iis2dlpc_from_fs2_to_mg:00000014 $d
  C:\Temp\ccGZlXNO.s:148    .text.iis2dlpc_from_fs4_to_mg:00000000 $t
  C:\Temp\ccGZlXNO.s:154    .text.iis2dlpc_from_fs4_to_mg:00000000 iis2dlpc_from_fs4_to_mg
  C:\Temp\ccGZlXNO.s:174    .text.iis2dlpc_from_fs4_to_mg:00000014 $d
  C:\Temp\ccGZlXNO.s:179    .text.iis2dlpc_from_fs8_to_mg:00000000 $t
  C:\Temp\ccGZlXNO.s:185    .text.iis2dlpc_from_fs8_to_mg:00000000 iis2dlpc_from_fs8_to_mg
  C:\Temp\ccGZlXNO.s:205    .text.iis2dlpc_from_fs8_to_mg:00000014 $d
  C:\Temp\ccGZlXNO.s:210    .text.iis2dlpc_from_fs16_to_mg:00000000 $t
  C:\Temp\ccGZlXNO.s:216    .text.iis2dlpc_from_fs16_to_mg:00000000 iis2dlpc_from_fs16_to_mg
  C:\Temp\ccGZlXNO.s:236    .text.iis2dlpc_from_fs16_to_mg:00000014 $d
  C:\Temp\ccGZlXNO.s:241    .text.iis2dlpc_from_fs2_lp1_to_mg:00000000 $t
  C:\Temp\ccGZlXNO.s:247    .text.iis2dlpc_from_fs2_lp1_to_mg:00000000 iis2dlpc_from_fs2_lp1_to_mg
  C:\Temp\ccGZlXNO.s:267    .text.iis2dlpc_from_fs2_lp1_to_mg:00000014 $d
  C:\Temp\ccGZlXNO.s:272    .text.iis2dlpc_from_fs4_lp1_to_mg:00000000 $t
  C:\Temp\ccGZlXNO.s:278    .text.iis2dlpc_from_fs4_lp1_to_mg:00000000 iis2dlpc_from_fs4_lp1_to_mg
  C:\Temp\ccGZlXNO.s:298    .text.iis2dlpc_from_fs4_lp1_to_mg:00000014 $d
  C:\Temp\ccGZlXNO.s:303    .text.iis2dlpc_from_fs8_lp1_to_mg:00000000 $t
  C:\Temp\ccGZlXNO.s:309    .text.iis2dlpc_from_fs8_lp1_to_mg:00000000 iis2dlpc_from_fs8_lp1_to_mg
  C:\Temp\ccGZlXNO.s:329    .text.iis2dlpc_from_fs8_lp1_to_mg:00000014 $d
  C:\Temp\ccGZlXNO.s:334    .text.iis2dlpc_from_fs16_lp1_to_mg:00000000 $t
  C:\Temp\ccGZlXNO.s:340    .text.iis2dlpc_from_fs16_lp1_to_mg:00000000 iis2dlpc_from_fs16_lp1_to_mg
  C:\Temp\ccGZlXNO.s:360    .text.iis2dlpc_from_fs16_lp1_to_mg:00000014 $d
  C:\Temp\ccGZlXNO.s:365    .text.iis2dlpc_from_lsb_to_celsius:00000000 $t
  C:\Temp\ccGZlXNO.s:371    .text.iis2dlpc_from_lsb_to_celsius:00000000 iis2dlpc_from_lsb_to_celsius
  C:\Temp\ccGZlXNO.s:394    .text.iis2dlpc_from_lsb_to_celsius:0000001c $d
  C:\Temp\ccGZlXNO.s:399    .text.iis2dlpc_power_mode_set:00000000 $t
  C:\Temp\ccGZlXNO.s:405    .text.iis2dlpc_power_mode_set:00000000 iis2dlpc_power_mode_set
  C:\Temp\ccGZlXNO.s:523    .text.iis2dlpc_power_mode_get:00000000 $t
  C:\Temp\ccGZlXNO.s:529    .text.iis2dlpc_power_mode_get:00000000 iis2dlpc_power_mode_get
  C:\Temp\ccGZlXNO.s:601    .text.iis2dlpc_power_mode_get:00000046 $d
  C:\Temp\ccGZlXNO.s:629    .text.iis2dlpc_power_mode_get:00000062 $t
  C:\Temp\ccGZlXNO.s:769    .text.iis2dlpc_data_rate_set:00000000 $t
  C:\Temp\ccGZlXNO.s:775    .text.iis2dlpc_data_rate_set:00000000 iis2dlpc_data_rate_set
  C:\Temp\ccGZlXNO.s:886    .text.iis2dlpc_data_rate_get:00000000 $t
  C:\Temp\ccGZlXNO.s:892    .text.iis2dlpc_data_rate_get:00000000 iis2dlpc_data_rate_get
  C:\Temp\ccGZlXNO.s:959    .text.iis2dlpc_data_rate_get:0000003e $d
  C:\Temp\ccGZlXNO.s:1092   .text.iis2dlpc_block_data_update_set:00000000 $t
  C:\Temp\ccGZlXNO.s:1098   .text.iis2dlpc_block_data_update_set:00000000 iis2dlpc_block_data_update_set
  C:\Temp\ccGZlXNO.s:1162   .text.iis2dlpc_block_data_update_get:00000000 $t
  C:\Temp\ccGZlXNO.s:1168   .text.iis2dlpc_block_data_update_get:00000000 iis2dlpc_block_data_update_get
  C:\Temp\ccGZlXNO.s:1211   .text.iis2dlpc_full_scale_set:00000000 $t
  C:\Temp\ccGZlXNO.s:1217   .text.iis2dlpc_full_scale_set:00000000 iis2dlpc_full_scale_set
  C:\Temp\ccGZlXNO.s:1281   .text.iis2dlpc_full_scale_get:00000000 $t
  C:\Temp\ccGZlXNO.s:1287   .text.iis2dlpc_full_scale_get:00000000 iis2dlpc_full_scale_get
  C:\Temp\ccGZlXNO.s:1322   .text.iis2dlpc_full_scale_get:00000020 $d
  C:\Temp\ccGZlXNO.s:1326   .text.iis2dlpc_full_scale_get:00000024 $t
  C:\Temp\ccGZlXNO.s:1376   .text.iis2dlpc_status_reg_get:00000000 $t
  C:\Temp\ccGZlXNO.s:1382   .text.iis2dlpc_status_reg_get:00000000 iis2dlpc_status_reg_get
  C:\Temp\ccGZlXNO.s:1411   .text.iis2dlpc_flag_data_ready_get:00000000 $t
ARM GAS  C:\Temp\ccGZlXNO.s 			page 208


  C:\Temp\ccGZlXNO.s:1417   .text.iis2dlpc_flag_data_ready_get:00000000 iis2dlpc_flag_data_ready_get
  C:\Temp\ccGZlXNO.s:1460   .text.iis2dlpc_all_sources_get:00000000 $t
  C:\Temp\ccGZlXNO.s:1466   .text.iis2dlpc_all_sources_get:00000000 iis2dlpc_all_sources_get
  C:\Temp\ccGZlXNO.s:1495   .text.iis2dlpc_usr_offset_x_set:00000000 $t
  C:\Temp\ccGZlXNO.s:1501   .text.iis2dlpc_usr_offset_x_set:00000000 iis2dlpc_usr_offset_x_set
  C:\Temp\ccGZlXNO.s:1530   .text.iis2dlpc_usr_offset_x_get:00000000 $t
  C:\Temp\ccGZlXNO.s:1536   .text.iis2dlpc_usr_offset_x_get:00000000 iis2dlpc_usr_offset_x_get
  C:\Temp\ccGZlXNO.s:1565   .text.iis2dlpc_usr_offset_y_set:00000000 $t
  C:\Temp\ccGZlXNO.s:1571   .text.iis2dlpc_usr_offset_y_set:00000000 iis2dlpc_usr_offset_y_set
  C:\Temp\ccGZlXNO.s:1600   .text.iis2dlpc_usr_offset_y_get:00000000 $t
  C:\Temp\ccGZlXNO.s:1606   .text.iis2dlpc_usr_offset_y_get:00000000 iis2dlpc_usr_offset_y_get
  C:\Temp\ccGZlXNO.s:1635   .text.iis2dlpc_usr_offset_z_set:00000000 $t
  C:\Temp\ccGZlXNO.s:1641   .text.iis2dlpc_usr_offset_z_set:00000000 iis2dlpc_usr_offset_z_set
  C:\Temp\ccGZlXNO.s:1670   .text.iis2dlpc_usr_offset_z_get:00000000 $t
  C:\Temp\ccGZlXNO.s:1676   .text.iis2dlpc_usr_offset_z_get:00000000 iis2dlpc_usr_offset_z_get
  C:\Temp\ccGZlXNO.s:1705   .text.iis2dlpc_offset_weight_set:00000000 $t
  C:\Temp\ccGZlXNO.s:1711   .text.iis2dlpc_offset_weight_set:00000000 iis2dlpc_offset_weight_set
  C:\Temp\ccGZlXNO.s:1775   .text.iis2dlpc_offset_weight_get:00000000 $t
  C:\Temp\ccGZlXNO.s:1781   .text.iis2dlpc_offset_weight_get:00000000 iis2dlpc_offset_weight_get
  C:\Temp\ccGZlXNO.s:1849   .text.iis2dlpc_temperature_raw_get:00000000 $t
  C:\Temp\ccGZlXNO.s:1855   .text.iis2dlpc_temperature_raw_get:00000000 iis2dlpc_temperature_raw_get
  C:\Temp\ccGZlXNO.s:1904   .text.iis2dlpc_acceleration_raw_get:00000000 $t
  C:\Temp\ccGZlXNO.s:1910   .text.iis2dlpc_acceleration_raw_get:00000000 iis2dlpc_acceleration_raw_get
  C:\Temp\ccGZlXNO.s:1983   .text.iis2dlpc_device_id_get:00000000 $t
  C:\Temp\ccGZlXNO.s:1989   .text.iis2dlpc_device_id_get:00000000 iis2dlpc_device_id_get
  C:\Temp\ccGZlXNO.s:2018   .text.iis2dlpc_auto_increment_set:00000000 $t
  C:\Temp\ccGZlXNO.s:2024   .text.iis2dlpc_auto_increment_set:00000000 iis2dlpc_auto_increment_set
  C:\Temp\ccGZlXNO.s:2088   .text.iis2dlpc_auto_increment_get:00000000 $t
  C:\Temp\ccGZlXNO.s:2094   .text.iis2dlpc_auto_increment_get:00000000 iis2dlpc_auto_increment_get
  C:\Temp\ccGZlXNO.s:2137   .text.iis2dlpc_reset_set:00000000 $t
  C:\Temp\ccGZlXNO.s:2143   .text.iis2dlpc_reset_set:00000000 iis2dlpc_reset_set
  C:\Temp\ccGZlXNO.s:2207   .text.iis2dlpc_reset_get:00000000 $t
  C:\Temp\ccGZlXNO.s:2213   .text.iis2dlpc_reset_get:00000000 iis2dlpc_reset_get
  C:\Temp\ccGZlXNO.s:2256   .text.iis2dlpc_boot_set:00000000 $t
  C:\Temp\ccGZlXNO.s:2262   .text.iis2dlpc_boot_set:00000000 iis2dlpc_boot_set
  C:\Temp\ccGZlXNO.s:2326   .text.iis2dlpc_boot_get:00000000 $t
  C:\Temp\ccGZlXNO.s:2332   .text.iis2dlpc_boot_get:00000000 iis2dlpc_boot_get
  C:\Temp\ccGZlXNO.s:2375   .text.iis2dlpc_self_test_set:00000000 $t
  C:\Temp\ccGZlXNO.s:2381   .text.iis2dlpc_self_test_set:00000000 iis2dlpc_self_test_set
  C:\Temp\ccGZlXNO.s:2445   .text.iis2dlpc_self_test_get:00000000 $t
  C:\Temp\ccGZlXNO.s:2451   .text.iis2dlpc_self_test_get:00000000 iis2dlpc_self_test_get
  C:\Temp\ccGZlXNO.s:2527   .text.iis2dlpc_data_ready_mode_set:00000000 $t
  C:\Temp\ccGZlXNO.s:2533   .text.iis2dlpc_data_ready_mode_set:00000000 iis2dlpc_data_ready_mode_set
  C:\Temp\ccGZlXNO.s:2597   .text.iis2dlpc_data_ready_mode_get:00000000 $t
  C:\Temp\ccGZlXNO.s:2603   .text.iis2dlpc_data_ready_mode_get:00000000 iis2dlpc_data_ready_mode_get
  C:\Temp\ccGZlXNO.s:2670   .text.iis2dlpc_filter_path_set:00000000 $t
  C:\Temp\ccGZlXNO.s:2676   .text.iis2dlpc_filter_path_set:00000000 iis2dlpc_filter_path_set
  C:\Temp\ccGZlXNO.s:2787   .text.iis2dlpc_filter_path_get:00000000 $t
  C:\Temp\ccGZlXNO.s:2793   .text.iis2dlpc_filter_path_get:00000000 iis2dlpc_filter_path_get
  C:\Temp\ccGZlXNO.s:2893   .text.iis2dlpc_filter_bandwidth_set:00000000 $t
  C:\Temp\ccGZlXNO.s:2899   .text.iis2dlpc_filter_bandwidth_set:00000000 iis2dlpc_filter_bandwidth_set
  C:\Temp\ccGZlXNO.s:2963   .text.iis2dlpc_filter_bandwidth_get:00000000 $t
  C:\Temp\ccGZlXNO.s:2969   .text.iis2dlpc_filter_bandwidth_get:00000000 iis2dlpc_filter_bandwidth_get
  C:\Temp\ccGZlXNO.s:3004   .text.iis2dlpc_filter_bandwidth_get:0000001e $d
  C:\Temp\ccGZlXNO.s:3008   .text.iis2dlpc_filter_bandwidth_get:00000022 $t
  C:\Temp\ccGZlXNO.s:3058   .text.iis2dlpc_reference_mode_set:00000000 $t
  C:\Temp\ccGZlXNO.s:3064   .text.iis2dlpc_reference_mode_set:00000000 iis2dlpc_reference_mode_set
ARM GAS  C:\Temp\ccGZlXNO.s 			page 209


  C:\Temp\ccGZlXNO.s:3128   .text.iis2dlpc_reference_mode_get:00000000 $t
  C:\Temp\ccGZlXNO.s:3134   .text.iis2dlpc_reference_mode_get:00000000 iis2dlpc_reference_mode_get
  C:\Temp\ccGZlXNO.s:3177   .text.iis2dlpc_spi_mode_set:00000000 $t
  C:\Temp\ccGZlXNO.s:3183   .text.iis2dlpc_spi_mode_set:00000000 iis2dlpc_spi_mode_set
  C:\Temp\ccGZlXNO.s:3247   .text.iis2dlpc_spi_mode_get:00000000 $t
  C:\Temp\ccGZlXNO.s:3253   .text.iis2dlpc_spi_mode_get:00000000 iis2dlpc_spi_mode_get
  C:\Temp\ccGZlXNO.s:3320   .text.iis2dlpc_i2c_interface_set:00000000 $t
  C:\Temp\ccGZlXNO.s:3326   .text.iis2dlpc_i2c_interface_set:00000000 iis2dlpc_i2c_interface_set
  C:\Temp\ccGZlXNO.s:3390   .text.iis2dlpc_i2c_interface_get:00000000 $t
  C:\Temp\ccGZlXNO.s:3396   .text.iis2dlpc_i2c_interface_get:00000000 iis2dlpc_i2c_interface_get
  C:\Temp\ccGZlXNO.s:3464   .text.iis2dlpc_cs_mode_set:00000000 $t
  C:\Temp\ccGZlXNO.s:3470   .text.iis2dlpc_cs_mode_set:00000000 iis2dlpc_cs_mode_set
  C:\Temp\ccGZlXNO.s:3534   .text.iis2dlpc_cs_mode_get:00000000 $t
  C:\Temp\ccGZlXNO.s:3540   .text.iis2dlpc_cs_mode_get:00000000 iis2dlpc_cs_mode_get
  C:\Temp\ccGZlXNO.s:3608   .text.iis2dlpc_pin_polarity_set:00000000 $t
  C:\Temp\ccGZlXNO.s:3614   .text.iis2dlpc_pin_polarity_set:00000000 iis2dlpc_pin_polarity_set
  C:\Temp\ccGZlXNO.s:3678   .text.iis2dlpc_pin_polarity_get:00000000 $t
  C:\Temp\ccGZlXNO.s:3684   .text.iis2dlpc_pin_polarity_get:00000000 iis2dlpc_pin_polarity_get
  C:\Temp\ccGZlXNO.s:3752   .text.iis2dlpc_int_notification_set:00000000 $t
  C:\Temp\ccGZlXNO.s:3758   .text.iis2dlpc_int_notification_set:00000000 iis2dlpc_int_notification_set
  C:\Temp\ccGZlXNO.s:3822   .text.iis2dlpc_int_notification_get:00000000 $t
  C:\Temp\ccGZlXNO.s:3828   .text.iis2dlpc_int_notification_get:00000000 iis2dlpc_int_notification_get
  C:\Temp\ccGZlXNO.s:3896   .text.iis2dlpc_pin_mode_set:00000000 $t
  C:\Temp\ccGZlXNO.s:3902   .text.iis2dlpc_pin_mode_set:00000000 iis2dlpc_pin_mode_set
  C:\Temp\ccGZlXNO.s:3966   .text.iis2dlpc_pin_mode_get:00000000 $t
  C:\Temp\ccGZlXNO.s:3972   .text.iis2dlpc_pin_mode_get:00000000 iis2dlpc_pin_mode_get
  C:\Temp\ccGZlXNO.s:4040   .text.iis2dlpc_pin_int1_route_set:00000000 $t
  C:\Temp\ccGZlXNO.s:4046   .text.iis2dlpc_pin_int1_route_set:00000000 iis2dlpc_pin_int1_route_set
  C:\Temp\ccGZlXNO.s:4185   .text.iis2dlpc_pin_int1_route_get:00000000 $t
  C:\Temp\ccGZlXNO.s:4191   .text.iis2dlpc_pin_int1_route_get:00000000 iis2dlpc_pin_int1_route_get
  C:\Temp\ccGZlXNO.s:4220   .text.iis2dlpc_pin_int2_route_set:00000000 $t
  C:\Temp\ccGZlXNO.s:4226   .text.iis2dlpc_pin_int2_route_set:00000000 iis2dlpc_pin_int2_route_set
  C:\Temp\ccGZlXNO.s:4365   .text.iis2dlpc_pin_int2_route_get:00000000 $t
  C:\Temp\ccGZlXNO.s:4371   .text.iis2dlpc_pin_int2_route_get:00000000 iis2dlpc_pin_int2_route_get
  C:\Temp\ccGZlXNO.s:4400   .text.iis2dlpc_all_on_int1_set:00000000 $t
  C:\Temp\ccGZlXNO.s:4406   .text.iis2dlpc_all_on_int1_set:00000000 iis2dlpc_all_on_int1_set
  C:\Temp\ccGZlXNO.s:4470   .text.iis2dlpc_all_on_int1_get:00000000 $t
  C:\Temp\ccGZlXNO.s:4476   .text.iis2dlpc_all_on_int1_get:00000000 iis2dlpc_all_on_int1_get
  C:\Temp\ccGZlXNO.s:4519   .text.iis2dlpc_wkup_threshold_set:00000000 $t
  C:\Temp\ccGZlXNO.s:4525   .text.iis2dlpc_wkup_threshold_set:00000000 iis2dlpc_wkup_threshold_set
  C:\Temp\ccGZlXNO.s:4589   .text.iis2dlpc_wkup_threshold_get:00000000 $t
  C:\Temp\ccGZlXNO.s:4595   .text.iis2dlpc_wkup_threshold_get:00000000 iis2dlpc_wkup_threshold_get
  C:\Temp\ccGZlXNO.s:4638   .text.iis2dlpc_wkup_dur_set:00000000 $t
  C:\Temp\ccGZlXNO.s:4644   .text.iis2dlpc_wkup_dur_set:00000000 iis2dlpc_wkup_dur_set
  C:\Temp\ccGZlXNO.s:4708   .text.iis2dlpc_wkup_dur_get:00000000 $t
  C:\Temp\ccGZlXNO.s:4714   .text.iis2dlpc_wkup_dur_get:00000000 iis2dlpc_wkup_dur_get
  C:\Temp\ccGZlXNO.s:4757   .text.iis2dlpc_wkup_feed_data_set:00000000 $t
  C:\Temp\ccGZlXNO.s:4763   .text.iis2dlpc_wkup_feed_data_set:00000000 iis2dlpc_wkup_feed_data_set
  C:\Temp\ccGZlXNO.s:4827   .text.iis2dlpc_wkup_feed_data_get:00000000 $t
  C:\Temp\ccGZlXNO.s:4833   .text.iis2dlpc_wkup_feed_data_get:00000000 iis2dlpc_wkup_feed_data_get
  C:\Temp\ccGZlXNO.s:4901   .text.iis2dlpc_act_mode_set:00000000 $t
  C:\Temp\ccGZlXNO.s:4907   .text.iis2dlpc_act_mode_set:00000000 iis2dlpc_act_mode_set
  C:\Temp\ccGZlXNO.s:4993   .text.iis2dlpc_act_mode_get:00000000 $t
  C:\Temp\ccGZlXNO.s:4999   .text.iis2dlpc_act_mode_get:00000000 iis2dlpc_act_mode_get
  C:\Temp\ccGZlXNO.s:5100   .text.iis2dlpc_act_sleep_dur_set:00000000 $t
  C:\Temp\ccGZlXNO.s:5106   .text.iis2dlpc_act_sleep_dur_set:00000000 iis2dlpc_act_sleep_dur_set
  C:\Temp\ccGZlXNO.s:5170   .text.iis2dlpc_act_sleep_dur_get:00000000 $t
ARM GAS  C:\Temp\ccGZlXNO.s 			page 210


  C:\Temp\ccGZlXNO.s:5176   .text.iis2dlpc_act_sleep_dur_get:00000000 iis2dlpc_act_sleep_dur_get
  C:\Temp\ccGZlXNO.s:5219   .text.iis2dlpc_tap_threshold_x_set:00000000 $t
  C:\Temp\ccGZlXNO.s:5225   .text.iis2dlpc_tap_threshold_x_set:00000000 iis2dlpc_tap_threshold_x_set
  C:\Temp\ccGZlXNO.s:5289   .text.iis2dlpc_tap_threshold_x_get:00000000 $t
  C:\Temp\ccGZlXNO.s:5295   .text.iis2dlpc_tap_threshold_x_get:00000000 iis2dlpc_tap_threshold_x_get
  C:\Temp\ccGZlXNO.s:5338   .text.iis2dlpc_tap_threshold_y_set:00000000 $t
  C:\Temp\ccGZlXNO.s:5344   .text.iis2dlpc_tap_threshold_y_set:00000000 iis2dlpc_tap_threshold_y_set
  C:\Temp\ccGZlXNO.s:5408   .text.iis2dlpc_tap_threshold_y_get:00000000 $t
  C:\Temp\ccGZlXNO.s:5414   .text.iis2dlpc_tap_threshold_y_get:00000000 iis2dlpc_tap_threshold_y_get
  C:\Temp\ccGZlXNO.s:5457   .text.iis2dlpc_tap_axis_priority_set:00000000 $t
  C:\Temp\ccGZlXNO.s:5463   .text.iis2dlpc_tap_axis_priority_set:00000000 iis2dlpc_tap_axis_priority_set
  C:\Temp\ccGZlXNO.s:5527   .text.iis2dlpc_tap_axis_priority_get:00000000 $t
  C:\Temp\ccGZlXNO.s:5533   .text.iis2dlpc_tap_axis_priority_get:00000000 iis2dlpc_tap_axis_priority_get
  C:\Temp\ccGZlXNO.s:5568   .text.iis2dlpc_tap_axis_priority_get:0000001e $d
  C:\Temp\ccGZlXNO.s:5639   .text.iis2dlpc_tap_threshold_z_set:00000000 $t
  C:\Temp\ccGZlXNO.s:5645   .text.iis2dlpc_tap_threshold_z_set:00000000 iis2dlpc_tap_threshold_z_set
  C:\Temp\ccGZlXNO.s:5709   .text.iis2dlpc_tap_threshold_z_get:00000000 $t
  C:\Temp\ccGZlXNO.s:5715   .text.iis2dlpc_tap_threshold_z_get:00000000 iis2dlpc_tap_threshold_z_get
  C:\Temp\ccGZlXNO.s:5758   .text.iis2dlpc_tap_detection_on_z_set:00000000 $t
  C:\Temp\ccGZlXNO.s:5764   .text.iis2dlpc_tap_detection_on_z_set:00000000 iis2dlpc_tap_detection_on_z_set
  C:\Temp\ccGZlXNO.s:5828   .text.iis2dlpc_tap_detection_on_z_get:00000000 $t
  C:\Temp\ccGZlXNO.s:5834   .text.iis2dlpc_tap_detection_on_z_get:00000000 iis2dlpc_tap_detection_on_z_get
  C:\Temp\ccGZlXNO.s:5877   .text.iis2dlpc_tap_detection_on_y_set:00000000 $t
  C:\Temp\ccGZlXNO.s:5883   .text.iis2dlpc_tap_detection_on_y_set:00000000 iis2dlpc_tap_detection_on_y_set
  C:\Temp\ccGZlXNO.s:5947   .text.iis2dlpc_tap_detection_on_y_get:00000000 $t
  C:\Temp\ccGZlXNO.s:5953   .text.iis2dlpc_tap_detection_on_y_get:00000000 iis2dlpc_tap_detection_on_y_get
  C:\Temp\ccGZlXNO.s:5996   .text.iis2dlpc_tap_detection_on_x_set:00000000 $t
  C:\Temp\ccGZlXNO.s:6002   .text.iis2dlpc_tap_detection_on_x_set:00000000 iis2dlpc_tap_detection_on_x_set
  C:\Temp\ccGZlXNO.s:6066   .text.iis2dlpc_tap_detection_on_x_get:00000000 $t
  C:\Temp\ccGZlXNO.s:6072   .text.iis2dlpc_tap_detection_on_x_get:00000000 iis2dlpc_tap_detection_on_x_get
  C:\Temp\ccGZlXNO.s:6115   .text.iis2dlpc_tap_shock_set:00000000 $t
  C:\Temp\ccGZlXNO.s:6121   .text.iis2dlpc_tap_shock_set:00000000 iis2dlpc_tap_shock_set
  C:\Temp\ccGZlXNO.s:6185   .text.iis2dlpc_tap_shock_get:00000000 $t
  C:\Temp\ccGZlXNO.s:6191   .text.iis2dlpc_tap_shock_get:00000000 iis2dlpc_tap_shock_get
  C:\Temp\ccGZlXNO.s:6234   .text.iis2dlpc_tap_quiet_set:00000000 $t
  C:\Temp\ccGZlXNO.s:6240   .text.iis2dlpc_tap_quiet_set:00000000 iis2dlpc_tap_quiet_set
  C:\Temp\ccGZlXNO.s:6304   .text.iis2dlpc_tap_quiet_get:00000000 $t
  C:\Temp\ccGZlXNO.s:6310   .text.iis2dlpc_tap_quiet_get:00000000 iis2dlpc_tap_quiet_get
  C:\Temp\ccGZlXNO.s:6353   .text.iis2dlpc_tap_dur_set:00000000 $t
  C:\Temp\ccGZlXNO.s:6359   .text.iis2dlpc_tap_dur_set:00000000 iis2dlpc_tap_dur_set
  C:\Temp\ccGZlXNO.s:6423   .text.iis2dlpc_tap_dur_get:00000000 $t
  C:\Temp\ccGZlXNO.s:6429   .text.iis2dlpc_tap_dur_get:00000000 iis2dlpc_tap_dur_get
  C:\Temp\ccGZlXNO.s:6472   .text.iis2dlpc_tap_mode_set:00000000 $t
  C:\Temp\ccGZlXNO.s:6478   .text.iis2dlpc_tap_mode_set:00000000 iis2dlpc_tap_mode_set
  C:\Temp\ccGZlXNO.s:6542   .text.iis2dlpc_tap_mode_get:00000000 $t
  C:\Temp\ccGZlXNO.s:6548   .text.iis2dlpc_tap_mode_get:00000000 iis2dlpc_tap_mode_get
  C:\Temp\ccGZlXNO.s:6615   .text.iis2dlpc_tap_src_get:00000000 $t
  C:\Temp\ccGZlXNO.s:6621   .text.iis2dlpc_tap_src_get:00000000 iis2dlpc_tap_src_get
  C:\Temp\ccGZlXNO.s:6650   .text.iis2dlpc_6d_threshold_set:00000000 $t
  C:\Temp\ccGZlXNO.s:6656   .text.iis2dlpc_6d_threshold_set:00000000 iis2dlpc_6d_threshold_set
  C:\Temp\ccGZlXNO.s:6720   .text.iis2dlpc_6d_threshold_get:00000000 $t
  C:\Temp\ccGZlXNO.s:6726   .text.iis2dlpc_6d_threshold_get:00000000 iis2dlpc_6d_threshold_get
  C:\Temp\ccGZlXNO.s:6769   .text.iis2dlpc_4d_mode_set:00000000 $t
  C:\Temp\ccGZlXNO.s:6775   .text.iis2dlpc_4d_mode_set:00000000 iis2dlpc_4d_mode_set
  C:\Temp\ccGZlXNO.s:6839   .text.iis2dlpc_4d_mode_get:00000000 $t
  C:\Temp\ccGZlXNO.s:6845   .text.iis2dlpc_4d_mode_get:00000000 iis2dlpc_4d_mode_get
  C:\Temp\ccGZlXNO.s:6888   .text.iis2dlpc_6d_src_get:00000000 $t
ARM GAS  C:\Temp\ccGZlXNO.s 			page 211


  C:\Temp\ccGZlXNO.s:6894   .text.iis2dlpc_6d_src_get:00000000 iis2dlpc_6d_src_get
  C:\Temp\ccGZlXNO.s:6923   .text.iis2dlpc_6d_feed_data_set:00000000 $t
  C:\Temp\ccGZlXNO.s:6929   .text.iis2dlpc_6d_feed_data_set:00000000 iis2dlpc_6d_feed_data_set
  C:\Temp\ccGZlXNO.s:6993   .text.iis2dlpc_6d_feed_data_get:00000000 $t
  C:\Temp\ccGZlXNO.s:6999   .text.iis2dlpc_6d_feed_data_get:00000000 iis2dlpc_6d_feed_data_get
  C:\Temp\ccGZlXNO.s:7066   .text.iis2dlpc_ff_dur_set:00000000 $t
  C:\Temp\ccGZlXNO.s:7072   .text.iis2dlpc_ff_dur_set:00000000 iis2dlpc_ff_dur_set
  C:\Temp\ccGZlXNO.s:7183   .text.iis2dlpc_ff_dur_get:00000000 $t
  C:\Temp\ccGZlXNO.s:7189   .text.iis2dlpc_ff_dur_get:00000000 iis2dlpc_ff_dur_get
  C:\Temp\ccGZlXNO.s:7260   .text.iis2dlpc_ff_threshold_set:00000000 $t
  C:\Temp\ccGZlXNO.s:7266   .text.iis2dlpc_ff_threshold_set:00000000 iis2dlpc_ff_threshold_set
  C:\Temp\ccGZlXNO.s:7330   .text.iis2dlpc_ff_threshold_get:00000000 $t
  C:\Temp\ccGZlXNO.s:7336   .text.iis2dlpc_ff_threshold_get:00000000 iis2dlpc_ff_threshold_get
  C:\Temp\ccGZlXNO.s:7371   .text.iis2dlpc_ff_threshold_get:00000020 $d
  C:\Temp\ccGZlXNO.s:7379   .text.iis2dlpc_ff_threshold_get:00000028 $t
  C:\Temp\ccGZlXNO.s:7457   .text.iis2dlpc_fifo_watermark_set:00000000 $t
  C:\Temp\ccGZlXNO.s:7463   .text.iis2dlpc_fifo_watermark_set:00000000 iis2dlpc_fifo_watermark_set
  C:\Temp\ccGZlXNO.s:7527   .text.iis2dlpc_fifo_watermark_get:00000000 $t
  C:\Temp\ccGZlXNO.s:7533   .text.iis2dlpc_fifo_watermark_get:00000000 iis2dlpc_fifo_watermark_get
  C:\Temp\ccGZlXNO.s:7576   .text.iis2dlpc_fifo_mode_set:00000000 $t
  C:\Temp\ccGZlXNO.s:7582   .text.iis2dlpc_fifo_mode_set:00000000 iis2dlpc_fifo_mode_set
  C:\Temp\ccGZlXNO.s:7646   .text.iis2dlpc_fifo_mode_get:00000000 $t
  C:\Temp\ccGZlXNO.s:7652   .text.iis2dlpc_fifo_mode_get:00000000 iis2dlpc_fifo_mode_get
  C:\Temp\ccGZlXNO.s:7687   .text.iis2dlpc_fifo_mode_get:0000001e $d
  C:\Temp\ccGZlXNO.s:7751   .text.iis2dlpc_fifo_data_level_get:00000000 $t
  C:\Temp\ccGZlXNO.s:7757   .text.iis2dlpc_fifo_data_level_get:00000000 iis2dlpc_fifo_data_level_get
  C:\Temp\ccGZlXNO.s:7800   .text.iis2dlpc_fifo_ovr_flag_get:00000000 $t
  C:\Temp\ccGZlXNO.s:7806   .text.iis2dlpc_fifo_ovr_flag_get:00000000 iis2dlpc_fifo_ovr_flag_get
  C:\Temp\ccGZlXNO.s:7849   .text.iis2dlpc_fifo_wtm_flag_get:00000000 $t
  C:\Temp\ccGZlXNO.s:7855   .text.iis2dlpc_fifo_wtm_flag_get:00000000 iis2dlpc_fifo_wtm_flag_get
  C:\Temp\ccGZlXNO.s:994    .text.iis2dlpc_data_rate_get:00000061 $d
  C:\Temp\ccGZlXNO.s:994    .text.iis2dlpc_data_rate_get:00000062 $t
  C:\Temp\ccGZlXNO.s:5575   .text.iis2dlpc_tap_axis_priority_get:00000025 $d
  C:\Temp\ccGZlXNO.s:5575   .text.iis2dlpc_tap_axis_priority_get:00000026 $t
  C:\Temp\ccGZlXNO.s:7694   .text.iis2dlpc_fifo_mode_get:00000025 $d
  C:\Temp\ccGZlXNO.s:7694   .text.iis2dlpc_fifo_mode_get:00000026 $t

NO UNDEFINED SYMBOLS
