ARM GAS  C:\Temp\ccOH3Pt6.s 			page 1


   1              		.cpu cortex-m4
   2              		.arch armv7e-m
   3              		.fpu fpv4-sp-d16
   4              		.eabi_attribute 27, 1
   5              		.eabi_attribute 28, 1
   6              		.eabi_attribute 20, 1
   7              		.eabi_attribute 21, 1
   8              		.eabi_attribute 23, 3
   9              		.eabi_attribute 24, 1
  10              		.eabi_attribute 25, 1
  11              		.eabi_attribute 26, 1
  12              		.eabi_attribute 30, 1
  13              		.eabi_attribute 34, 1
  14              		.eabi_attribute 18, 4
  15              		.file	"ism330dhcx_reg.c"
  16              		.text
  17              		.section	.text.ism330dhcx_read_reg,"ax",%progbits
  18              		.align	1
  19              		.weak	ism330dhcx_read_reg
  20              		.syntax unified
  21              		.thumb
  22              		.thumb_func
  24              	ism330dhcx_read_reg:
  25              		@ args = 0, pretend = 0, frame = 0
  26              		@ frame_needed = 0, uses_anonymous_args = 0
  27 0000 10B5     		push	{r4, lr}
  28 0002 4468     		ldr	r4, [r0, #4]
  29 0004 C068     		ldr	r0, [r0, #12]
  30 0006 A047     		blx	r4
  31 0008 10BD     		pop	{r4, pc}
  33              		.section	.text.ism330dhcx_write_reg,"ax",%progbits
  34              		.align	1
  35              		.weak	ism330dhcx_write_reg
  36              		.syntax unified
  37              		.thumb
  38              		.thumb_func
  40              	ism330dhcx_write_reg:
  41              		@ args = 0, pretend = 0, frame = 0
  42              		@ frame_needed = 0, uses_anonymous_args = 0
  43 0000 10B5     		push	{r4, lr}
  44 0002 0468     		ldr	r4, [r0]
  45 0004 C068     		ldr	r0, [r0, #12]
  46 0006 A047     		blx	r4
  47 0008 10BD     		pop	{r4, pc}
  49              		.section	.text.ism330dhcx_from_fs2g_to_mg,"ax",%progbits
  50              		.align	1
  51              		.global	ism330dhcx_from_fs2g_to_mg
  52              		.syntax unified
  53              		.thumb
  54              		.thumb_func
  56              	ism330dhcx_from_fs2g_to_mg:
  57              		@ args = 0, pretend = 0, frame = 0
  58              		@ frame_needed = 0, uses_anonymous_args = 0
  59              		@ link register save eliminated.
  60 0000 07EE900A 		vmov	s15, r0	@ int
  61 0004 F8EEE77A 		vcvt.f32.s32	s15, s15
  62 0008 9FED020A 		vldr.32	s0, .L6
ARM GAS  C:\Temp\ccOH3Pt6.s 			page 2


  63 000c 27EE800A 		vmul.f32	s0, s15, s0
  64 0010 7047     		bx	lr
  65              	.L7:
  66 0012 00BF     		.align	2
  67              	.L6:
  68 0014 23DB793D 		.word	1031396131
  70              		.section	.text.ism330dhcx_from_fs4g_to_mg,"ax",%progbits
  71              		.align	1
  72              		.global	ism330dhcx_from_fs4g_to_mg
  73              		.syntax unified
  74              		.thumb
  75              		.thumb_func
  77              	ism330dhcx_from_fs4g_to_mg:
  78              		@ args = 0, pretend = 0, frame = 0
  79              		@ frame_needed = 0, uses_anonymous_args = 0
  80              		@ link register save eliminated.
  81 0000 07EE900A 		vmov	s15, r0	@ int
  82 0004 F8EEE77A 		vcvt.f32.s32	s15, s15
  83 0008 9FED020A 		vldr.32	s0, .L9
  84 000c 27EE800A 		vmul.f32	s0, s15, s0
  85 0010 7047     		bx	lr
  86              	.L10:
  87 0012 00BF     		.align	2
  88              	.L9:
  89 0014 23DBF93D 		.word	1039784739
  91              		.section	.text.ism330dhcx_from_fs8g_to_mg,"ax",%progbits
  92              		.align	1
  93              		.global	ism330dhcx_from_fs8g_to_mg
  94              		.syntax unified
  95              		.thumb
  96              		.thumb_func
  98              	ism330dhcx_from_fs8g_to_mg:
  99              		@ args = 0, pretend = 0, frame = 0
 100              		@ frame_needed = 0, uses_anonymous_args = 0
 101              		@ link register save eliminated.
 102 0000 07EE900A 		vmov	s15, r0	@ int
 103 0004 F8EEE77A 		vcvt.f32.s32	s15, s15
 104 0008 9FED020A 		vldr.32	s0, .L12
 105 000c 27EE800A 		vmul.f32	s0, s15, s0
 106 0010 7047     		bx	lr
 107              	.L13:
 108 0012 00BF     		.align	2
 109              	.L12:
 110 0014 23DB793E 		.word	1048173347
 112              		.section	.text.ism330dhcx_from_fs16g_to_mg,"ax",%progbits
 113              		.align	1
 114              		.global	ism330dhcx_from_fs16g_to_mg
 115              		.syntax unified
 116              		.thumb
 117              		.thumb_func
 119              	ism330dhcx_from_fs16g_to_mg:
 120              		@ args = 0, pretend = 0, frame = 0
 121              		@ frame_needed = 0, uses_anonymous_args = 0
 122              		@ link register save eliminated.
 123 0000 07EE900A 		vmov	s15, r0	@ int
 124 0004 F8EEE77A 		vcvt.f32.s32	s15, s15
 125 0008 9FED020A 		vldr.32	s0, .L15
ARM GAS  C:\Temp\ccOH3Pt6.s 			page 3


 126 000c 27EE800A 		vmul.f32	s0, s15, s0
 127 0010 7047     		bx	lr
 128              	.L16:
 129 0012 00BF     		.align	2
 130              	.L15:
 131 0014 23DBF93E 		.word	1056561955
 133              		.section	.text.ism330dhcx_from_fs125dps_to_mdps,"ax",%progbits
 134              		.align	1
 135              		.global	ism330dhcx_from_fs125dps_to_mdps
 136              		.syntax unified
 137              		.thumb
 138              		.thumb_func
 140              	ism330dhcx_from_fs125dps_to_mdps:
 141              		@ args = 0, pretend = 0, frame = 0
 142              		@ frame_needed = 0, uses_anonymous_args = 0
 143              		@ link register save eliminated.
 144 0000 07EE900A 		vmov	s15, r0	@ int
 145 0004 F8EEE77A 		vcvt.f32.s32	s15, s15
 146 0008 9FED020A 		vldr.32	s0, .L18
 147 000c 27EE800A 		vmul.f32	s0, s15, s0
 148 0010 7047     		bx	lr
 149              	.L19:
 150 0012 00BF     		.align	2
 151              	.L18:
 152 0014 00008C40 		.word	1082916864
 154              		.section	.text.ism330dhcx_from_fs250dps_to_mdps,"ax",%progbits
 155              		.align	1
 156              		.global	ism330dhcx_from_fs250dps_to_mdps
 157              		.syntax unified
 158              		.thumb
 159              		.thumb_func
 161              	ism330dhcx_from_fs250dps_to_mdps:
 162              		@ args = 0, pretend = 0, frame = 0
 163              		@ frame_needed = 0, uses_anonymous_args = 0
 164              		@ link register save eliminated.
 165 0000 07EE900A 		vmov	s15, r0	@ int
 166 0004 F8EEE77A 		vcvt.f32.s32	s15, s15
 167 0008 9FED020A 		vldr.32	s0, .L21
 168 000c 27EE800A 		vmul.f32	s0, s15, s0
 169 0010 7047     		bx	lr
 170              	.L22:
 171 0012 00BF     		.align	2
 172              	.L21:
 173 0014 00000C41 		.word	1091305472
 175              		.section	.text.ism330dhcx_from_fs500dps_to_mdps,"ax",%progbits
 176              		.align	1
 177              		.global	ism330dhcx_from_fs500dps_to_mdps
 178              		.syntax unified
 179              		.thumb
 180              		.thumb_func
 182              	ism330dhcx_from_fs500dps_to_mdps:
 183              		@ args = 0, pretend = 0, frame = 0
 184              		@ frame_needed = 0, uses_anonymous_args = 0
 185              		@ link register save eliminated.
 186 0000 07EE900A 		vmov	s15, r0	@ int
 187 0004 F8EEE77A 		vcvt.f32.s32	s15, s15
 188 0008 9FED020A 		vldr.32	s0, .L24
ARM GAS  C:\Temp\ccOH3Pt6.s 			page 4


 189 000c 27EE800A 		vmul.f32	s0, s15, s0
 190 0010 7047     		bx	lr
 191              	.L25:
 192 0012 00BF     		.align	2
 193              	.L24:
 194 0014 00008C41 		.word	1099694080
 196              		.section	.text.ism330dhcx_from_fs1000dps_to_mdps,"ax",%progbits
 197              		.align	1
 198              		.global	ism330dhcx_from_fs1000dps_to_mdps
 199              		.syntax unified
 200              		.thumb
 201              		.thumb_func
 203              	ism330dhcx_from_fs1000dps_to_mdps:
 204              		@ args = 0, pretend = 0, frame = 0
 205              		@ frame_needed = 0, uses_anonymous_args = 0
 206              		@ link register save eliminated.
 207 0000 07EE900A 		vmov	s15, r0	@ int
 208 0004 F8EEE77A 		vcvt.f32.s32	s15, s15
 209 0008 9FED020A 		vldr.32	s0, .L27
 210 000c 27EE800A 		vmul.f32	s0, s15, s0
 211 0010 7047     		bx	lr
 212              	.L28:
 213 0012 00BF     		.align	2
 214              	.L27:
 215 0014 00000C42 		.word	1108082688
 217              		.section	.text.ism330dhcx_from_fs2000dps_to_mdps,"ax",%progbits
 218              		.align	1
 219              		.global	ism330dhcx_from_fs2000dps_to_mdps
 220              		.syntax unified
 221              		.thumb
 222              		.thumb_func
 224              	ism330dhcx_from_fs2000dps_to_mdps:
 225              		@ args = 0, pretend = 0, frame = 0
 226              		@ frame_needed = 0, uses_anonymous_args = 0
 227              		@ link register save eliminated.
 228 0000 07EE900A 		vmov	s15, r0	@ int
 229 0004 F8EEE77A 		vcvt.f32.s32	s15, s15
 230 0008 9FED020A 		vldr.32	s0, .L30
 231 000c 27EE800A 		vmul.f32	s0, s15, s0
 232 0010 7047     		bx	lr
 233              	.L31:
 234 0012 00BF     		.align	2
 235              	.L30:
 236 0014 00008C42 		.word	1116471296
 238              		.section	.text.ism330dhcx_from_fs4000dps_to_mdps,"ax",%progbits
 239              		.align	1
 240              		.global	ism330dhcx_from_fs4000dps_to_mdps
 241              		.syntax unified
 242              		.thumb
 243              		.thumb_func
 245              	ism330dhcx_from_fs4000dps_to_mdps:
 246              		@ args = 0, pretend = 0, frame = 0
 247              		@ frame_needed = 0, uses_anonymous_args = 0
 248              		@ link register save eliminated.
 249 0000 07EE900A 		vmov	s15, r0	@ int
 250 0004 F8EEE77A 		vcvt.f32.s32	s15, s15
 251 0008 9FED020A 		vldr.32	s0, .L33
ARM GAS  C:\Temp\ccOH3Pt6.s 			page 5


 252 000c 27EE800A 		vmul.f32	s0, s15, s0
 253 0010 7047     		bx	lr
 254              	.L34:
 255 0012 00BF     		.align	2
 256              	.L33:
 257 0014 00000C43 		.word	1124859904
 259              		.section	.text.ism330dhcx_from_lsb_to_celsius,"ax",%progbits
 260              		.align	1
 261              		.global	ism330dhcx_from_lsb_to_celsius
 262              		.syntax unified
 263              		.thumb
 264              		.thumb_func
 266              	ism330dhcx_from_lsb_to_celsius:
 267              		@ args = 0, pretend = 0, frame = 0
 268              		@ frame_needed = 0, uses_anonymous_args = 0
 269              		@ link register save eliminated.
 270 0000 07EE900A 		vmov	s15, r0	@ int
 271 0004 F8EEE77A 		vcvt.f32.s32	s15, s15
 272 0008 9FED047A 		vldr.32	s14, .L36
 273 000c 67EE877A 		vmul.f32	s15, s15, s14
 274 0010 B3EE090A 		vmov.f32	s0, #2.5e+1
 275 0014 37EE800A 		vadd.f32	s0, s15, s0
 276 0018 7047     		bx	lr
 277              	.L37:
 278 001a 00BF     		.align	2
 279              	.L36:
 280 001c 0000803B 		.word	998244352
 282              		.section	.text.ism330dhcx_from_lsb_to_nsec,"ax",%progbits
 283              		.align	1
 284              		.global	ism330dhcx_from_lsb_to_nsec
 285              		.syntax unified
 286              		.thumb
 287              		.thumb_func
 289              	ism330dhcx_from_lsb_to_nsec:
 290              		@ args = 0, pretend = 0, frame = 0
 291              		@ frame_needed = 0, uses_anonymous_args = 0
 292              		@ link register save eliminated.
 293 0000 07EE900A 		vmov	s15, r0	@ int
 294 0004 F8EEE77A 		vcvt.f32.s32	s15, s15
 295 0008 9FED020A 		vldr.32	s0, .L39
 296 000c 27EE800A 		vmul.f32	s0, s15, s0
 297 0010 7047     		bx	lr
 298              	.L40:
 299 0012 00BF     		.align	2
 300              	.L39:
 301 0014 0050C346 		.word	1187205120
 303              		.section	.text.ism330dhcx_xl_full_scale_set,"ax",%progbits
 304              		.align	1
 305              		.global	ism330dhcx_xl_full_scale_set
 306              		.syntax unified
 307              		.thumb
 308              		.thumb_func
 310              	ism330dhcx_xl_full_scale_set:
 311              		@ args = 0, pretend = 0, frame = 8
 312              		@ frame_needed = 0, uses_anonymous_args = 0
 313 0000 30B5     		push	{r4, r5, lr}
 314 0002 83B0     		sub	sp, sp, #12
ARM GAS  C:\Temp\ccOH3Pt6.s 			page 6


 315 0004 0446     		mov	r4, r0
 316 0006 0D46     		mov	r5, r1
 317 0008 0123     		movs	r3, #1
 318 000a 01AA     		add	r2, sp, #4
 319 000c 1021     		movs	r1, #16
 320 000e FFF7FEFF 		bl	ism330dhcx_read_reg
 321 0012 08B1     		cbz	r0, .L44
 322              	.L41:
 323 0014 03B0     		add	sp, sp, #12
 324              		@ sp needed
 325 0016 30BD     		pop	{r4, r5, pc}
 326              	.L44:
 327 0018 9DF80430 		ldrb	r3, [sp, #4]	@ zero_extendqisi2
 328 001c 65F38303 		bfi	r3, r5, #2, #2
 329 0020 8DF80430 		strb	r3, [sp, #4]
 330 0024 0123     		movs	r3, #1
 331 0026 01AA     		add	r2, sp, #4
 332 0028 1021     		movs	r1, #16
 333 002a 2046     		mov	r0, r4
 334 002c FFF7FEFF 		bl	ism330dhcx_write_reg
 335 0030 F0E7     		b	.L41
 337              		.section	.text.ism330dhcx_xl_full_scale_get,"ax",%progbits
 338              		.align	1
 339              		.global	ism330dhcx_xl_full_scale_get
 340              		.syntax unified
 341              		.thumb
 342              		.thumb_func
 344              	ism330dhcx_xl_full_scale_get:
 345              		@ args = 0, pretend = 0, frame = 8
 346              		@ frame_needed = 0, uses_anonymous_args = 0
 347 0000 10B5     		push	{r4, lr}
 348 0002 82B0     		sub	sp, sp, #8
 349 0004 0C46     		mov	r4, r1
 350 0006 0123     		movs	r3, #1
 351 0008 01AA     		add	r2, sp, #4
 352 000a 1021     		movs	r1, #16
 353 000c FFF7FEFF 		bl	ism330dhcx_read_reg
 354 0010 9DF80430 		ldrb	r3, [sp, #4]	@ zero_extendqisi2
 355 0014 C3F38103 		ubfx	r3, r3, #2, #2
 356 0018 032B     		cmp	r3, #3
 357 001a 10D8     		bhi	.L46
 358 001c DFE803F0 		tbb	[pc, r3]
 359              	.L48:
 360 0020 02       		.byte	(.L51-.L48)/2
 361 0021 06       		.byte	(.L50-.L48)/2
 362 0022 09       		.byte	(.L49-.L48)/2
 363 0023 0C       		.byte	(.L47-.L48)/2
 364              		.p2align 1
 365              	.L51:
 366 0024 0023     		movs	r3, #0
 367 0026 2370     		strb	r3, [r4]
 368              	.L45:
 369 0028 02B0     		add	sp, sp, #8
 370              		@ sp needed
 371 002a 10BD     		pop	{r4, pc}
 372              	.L50:
 373 002c 0123     		movs	r3, #1
ARM GAS  C:\Temp\ccOH3Pt6.s 			page 7


 374 002e 2370     		strb	r3, [r4]
 375 0030 FAE7     		b	.L45
 376              	.L49:
 377 0032 0223     		movs	r3, #2
 378 0034 2370     		strb	r3, [r4]
 379 0036 F7E7     		b	.L45
 380              	.L47:
 381 0038 0323     		movs	r3, #3
 382 003a 2370     		strb	r3, [r4]
 383 003c F4E7     		b	.L45
 384              	.L46:
 385 003e 0023     		movs	r3, #0
 386 0040 2370     		strb	r3, [r4]
 387 0042 F1E7     		b	.L45
 389              		.section	.text.ism330dhcx_xl_data_rate_get,"ax",%progbits
 390              		.align	1
 391              		.global	ism330dhcx_xl_data_rate_get
 392              		.syntax unified
 393              		.thumb
 394              		.thumb_func
 396              	ism330dhcx_xl_data_rate_get:
 397              		@ args = 0, pretend = 0, frame = 8
 398              		@ frame_needed = 0, uses_anonymous_args = 0
 399 0000 10B5     		push	{r4, lr}
 400 0002 82B0     		sub	sp, sp, #8
 401 0004 0C46     		mov	r4, r1
 402 0006 0123     		movs	r3, #1
 403 0008 01AA     		add	r2, sp, #4
 404 000a 1021     		movs	r1, #16
 405 000c FFF7FEFF 		bl	ism330dhcx_read_reg
 406 0010 9DF80430 		ldrb	r3, [sp, #4]	@ zero_extendqisi2
 407 0014 1B09     		lsrs	r3, r3, #4
 408 0016 0B2B     		cmp	r3, #11
 409 0018 2CD8     		bhi	.L55
 410 001a DFE803F0 		tbb	[pc, r3]
 411              	.L57:
 412 001e 06       		.byte	(.L68-.L57)/2
 413 001f 0A       		.byte	(.L67-.L57)/2
 414 0020 0D       		.byte	(.L66-.L57)/2
 415 0021 10       		.byte	(.L65-.L57)/2
 416 0022 13       		.byte	(.L64-.L57)/2
 417 0023 16       		.byte	(.L63-.L57)/2
 418 0024 19       		.byte	(.L62-.L57)/2
 419 0025 1C       		.byte	(.L61-.L57)/2
 420 0026 1F       		.byte	(.L60-.L57)/2
 421 0027 22       		.byte	(.L59-.L57)/2
 422 0028 25       		.byte	(.L58-.L57)/2
 423 0029 28       		.byte	(.L56-.L57)/2
 424              		.p2align 1
 425              	.L68:
 426 002a 0023     		movs	r3, #0
 427 002c 2370     		strb	r3, [r4]
 428              	.L54:
 429 002e 02B0     		add	sp, sp, #8
 430              		@ sp needed
 431 0030 10BD     		pop	{r4, pc}
 432              	.L67:
ARM GAS  C:\Temp\ccOH3Pt6.s 			page 8


 433 0032 0123     		movs	r3, #1
 434 0034 2370     		strb	r3, [r4]
 435 0036 FAE7     		b	.L54
 436              	.L66:
 437 0038 0223     		movs	r3, #2
 438 003a 2370     		strb	r3, [r4]
 439 003c F7E7     		b	.L54
 440              	.L65:
 441 003e 0323     		movs	r3, #3
 442 0040 2370     		strb	r3, [r4]
 443 0042 F4E7     		b	.L54
 444              	.L64:
 445 0044 0423     		movs	r3, #4
 446 0046 2370     		strb	r3, [r4]
 447 0048 F1E7     		b	.L54
 448              	.L63:
 449 004a 0523     		movs	r3, #5
 450 004c 2370     		strb	r3, [r4]
 451 004e EEE7     		b	.L54
 452              	.L62:
 453 0050 0623     		movs	r3, #6
 454 0052 2370     		strb	r3, [r4]
 455 0054 EBE7     		b	.L54
 456              	.L61:
 457 0056 0723     		movs	r3, #7
 458 0058 2370     		strb	r3, [r4]
 459 005a E8E7     		b	.L54
 460              	.L60:
 461 005c 0823     		movs	r3, #8
 462 005e 2370     		strb	r3, [r4]
 463 0060 E5E7     		b	.L54
 464              	.L59:
 465 0062 0923     		movs	r3, #9
 466 0064 2370     		strb	r3, [r4]
 467 0066 E2E7     		b	.L54
 468              	.L58:
 469 0068 0A23     		movs	r3, #10
 470 006a 2370     		strb	r3, [r4]
 471 006c DFE7     		b	.L54
 472              	.L56:
 473 006e 0B23     		movs	r3, #11
 474 0070 2370     		strb	r3, [r4]
 475 0072 DCE7     		b	.L54
 476              	.L55:
 477 0074 0023     		movs	r3, #0
 478 0076 2370     		strb	r3, [r4]
 479 0078 D9E7     		b	.L54
 481              		.section	.text.ism330dhcx_gy_full_scale_set,"ax",%progbits
 482              		.align	1
 483              		.global	ism330dhcx_gy_full_scale_set
 484              		.syntax unified
 485              		.thumb
 486              		.thumb_func
 488              	ism330dhcx_gy_full_scale_set:
 489              		@ args = 0, pretend = 0, frame = 8
 490              		@ frame_needed = 0, uses_anonymous_args = 0
 491 0000 30B5     		push	{r4, r5, lr}
ARM GAS  C:\Temp\ccOH3Pt6.s 			page 9


 492 0002 83B0     		sub	sp, sp, #12
 493 0004 0446     		mov	r4, r0
 494 0006 0D46     		mov	r5, r1
 495 0008 0123     		movs	r3, #1
 496 000a 01AA     		add	r2, sp, #4
 497 000c 1121     		movs	r1, #17
 498 000e FFF7FEFF 		bl	ism330dhcx_read_reg
 499 0012 08B1     		cbz	r0, .L74
 500              	.L71:
 501 0014 03B0     		add	sp, sp, #12
 502              		@ sp needed
 503 0016 30BD     		pop	{r4, r5, pc}
 504              	.L74:
 505 0018 9DF80430 		ldrb	r3, [sp, #4]	@ zero_extendqisi2
 506 001c 65F30303 		bfi	r3, r5, #0, #4
 507 0020 8DF80430 		strb	r3, [sp, #4]
 508 0024 0123     		movs	r3, #1
 509 0026 01AA     		add	r2, sp, #4
 510 0028 1121     		movs	r1, #17
 511 002a 2046     		mov	r0, r4
 512 002c FFF7FEFF 		bl	ism330dhcx_write_reg
 513 0030 F0E7     		b	.L71
 515              		.section	.text.ism330dhcx_gy_full_scale_get,"ax",%progbits
 516              		.align	1
 517              		.global	ism330dhcx_gy_full_scale_get
 518              		.syntax unified
 519              		.thumb
 520              		.thumb_func
 522              	ism330dhcx_gy_full_scale_get:
 523              		@ args = 0, pretend = 0, frame = 8
 524              		@ frame_needed = 0, uses_anonymous_args = 0
 525 0000 10B5     		push	{r4, lr}
 526 0002 82B0     		sub	sp, sp, #8
 527 0004 0C46     		mov	r4, r1
 528 0006 0123     		movs	r3, #1
 529 0008 01AA     		add	r2, sp, #4
 530 000a 1121     		movs	r1, #17
 531 000c FFF7FEFF 		bl	ism330dhcx_read_reg
 532 0010 9DF80430 		ldrb	r3, [sp, #4]	@ zero_extendqisi2
 533 0014 03F00F03 		and	r3, r3, #15
 534 0018 0C2B     		cmp	r3, #12
 535 001a 1BD8     		bhi	.L76
 536 001c DFE803F0 		tbb	[pc, r3]
 537              	.L78:
 538 0020 0B       		.byte	(.L83-.L78)/2
 539 0021 17       		.byte	(.L82-.L78)/2
 540 0022 07       		.byte	(.L81-.L78)/2
 541 0023 1A       		.byte	(.L76-.L78)/2
 542 0024 0E       		.byte	(.L80-.L78)/2
 543 0025 1A       		.byte	(.L76-.L78)/2
 544 0026 1A       		.byte	(.L76-.L78)/2
 545 0027 1A       		.byte	(.L76-.L78)/2
 546 0028 11       		.byte	(.L79-.L78)/2
 547 0029 1A       		.byte	(.L76-.L78)/2
 548 002a 1A       		.byte	(.L76-.L78)/2
 549 002b 1A       		.byte	(.L76-.L78)/2
 550 002c 14       		.byte	(.L77-.L78)/2
ARM GAS  C:\Temp\ccOH3Pt6.s 			page 10


 551 002d 00       		.p2align 1
 552              	.L81:
 553 002e 0223     		movs	r3, #2
 554 0030 2370     		strb	r3, [r4]
 555              	.L75:
 556 0032 02B0     		add	sp, sp, #8
 557              		@ sp needed
 558 0034 10BD     		pop	{r4, pc}
 559              	.L83:
 560 0036 0023     		movs	r3, #0
 561 0038 2370     		strb	r3, [r4]
 562 003a FAE7     		b	.L75
 563              	.L80:
 564 003c 0423     		movs	r3, #4
 565 003e 2370     		strb	r3, [r4]
 566 0040 F7E7     		b	.L75
 567              	.L79:
 568 0042 0823     		movs	r3, #8
 569 0044 2370     		strb	r3, [r4]
 570 0046 F4E7     		b	.L75
 571              	.L77:
 572 0048 0C23     		movs	r3, #12
 573 004a 2370     		strb	r3, [r4]
 574 004c F1E7     		b	.L75
 575              	.L82:
 576 004e 0123     		movs	r3, #1
 577 0050 2370     		strb	r3, [r4]
 578 0052 EEE7     		b	.L75
 579              	.L76:
 580 0054 0223     		movs	r3, #2
 581 0056 2370     		strb	r3, [r4]
 582 0058 EBE7     		b	.L75
 584              		.section	.text.ism330dhcx_gy_data_rate_get,"ax",%progbits
 585              		.align	1
 586              		.global	ism330dhcx_gy_data_rate_get
 587              		.syntax unified
 588              		.thumb
 589              		.thumb_func
 591              	ism330dhcx_gy_data_rate_get:
 592              		@ args = 0, pretend = 0, frame = 8
 593              		@ frame_needed = 0, uses_anonymous_args = 0
 594 0000 10B5     		push	{r4, lr}
 595 0002 82B0     		sub	sp, sp, #8
 596 0004 0C46     		mov	r4, r1
 597 0006 0123     		movs	r3, #1
 598 0008 01AA     		add	r2, sp, #4
 599 000a 1121     		movs	r1, #17
 600 000c FFF7FEFF 		bl	ism330dhcx_read_reg
 601 0010 9DF80430 		ldrb	r3, [sp, #4]	@ zero_extendqisi2
 602 0014 1B09     		lsrs	r3, r3, #4
 603 0016 0A2B     		cmp	r3, #10
 604 0018 29D8     		bhi	.L87
 605 001a DFE803F0 		tbb	[pc, r3]
 606              	.L89:
 607 001e 06       		.byte	(.L99-.L89)/2
 608 001f 0A       		.byte	(.L98-.L89)/2
 609 0020 0D       		.byte	(.L97-.L89)/2
ARM GAS  C:\Temp\ccOH3Pt6.s 			page 11


 610 0021 10       		.byte	(.L96-.L89)/2
 611 0022 13       		.byte	(.L95-.L89)/2
 612 0023 16       		.byte	(.L94-.L89)/2
 613 0024 19       		.byte	(.L93-.L89)/2
 614 0025 1C       		.byte	(.L92-.L89)/2
 615 0026 1F       		.byte	(.L91-.L89)/2
 616 0027 22       		.byte	(.L90-.L89)/2
 617 0028 25       		.byte	(.L88-.L89)/2
 618 0029 00       		.p2align 1
 619              	.L99:
 620 002a 0023     		movs	r3, #0
 621 002c 2370     		strb	r3, [r4]
 622              	.L86:
 623 002e 02B0     		add	sp, sp, #8
 624              		@ sp needed
 625 0030 10BD     		pop	{r4, pc}
 626              	.L98:
 627 0032 0123     		movs	r3, #1
 628 0034 2370     		strb	r3, [r4]
 629 0036 FAE7     		b	.L86
 630              	.L97:
 631 0038 0223     		movs	r3, #2
 632 003a 2370     		strb	r3, [r4]
 633 003c F7E7     		b	.L86
 634              	.L96:
 635 003e 0323     		movs	r3, #3
 636 0040 2370     		strb	r3, [r4]
 637 0042 F4E7     		b	.L86
 638              	.L95:
 639 0044 0423     		movs	r3, #4
 640 0046 2370     		strb	r3, [r4]
 641 0048 F1E7     		b	.L86
 642              	.L94:
 643 004a 0523     		movs	r3, #5
 644 004c 2370     		strb	r3, [r4]
 645 004e EEE7     		b	.L86
 646              	.L93:
 647 0050 0623     		movs	r3, #6
 648 0052 2370     		strb	r3, [r4]
 649 0054 EBE7     		b	.L86
 650              	.L92:
 651 0056 0723     		movs	r3, #7
 652 0058 2370     		strb	r3, [r4]
 653 005a E8E7     		b	.L86
 654              	.L91:
 655 005c 0823     		movs	r3, #8
 656 005e 2370     		strb	r3, [r4]
 657 0060 E5E7     		b	.L86
 658              	.L90:
 659 0062 0923     		movs	r3, #9
 660 0064 2370     		strb	r3, [r4]
 661 0066 E2E7     		b	.L86
 662              	.L88:
 663 0068 0A23     		movs	r3, #10
 664 006a 2370     		strb	r3, [r4]
 665 006c DFE7     		b	.L86
 666              	.L87:
ARM GAS  C:\Temp\ccOH3Pt6.s 			page 12


 667 006e 0023     		movs	r3, #0
 668 0070 2370     		strb	r3, [r4]
 669 0072 DCE7     		b	.L86
 671              		.section	.text.ism330dhcx_block_data_update_set,"ax",%progbits
 672              		.align	1
 673              		.global	ism330dhcx_block_data_update_set
 674              		.syntax unified
 675              		.thumb
 676              		.thumb_func
 678              	ism330dhcx_block_data_update_set:
 679              		@ args = 0, pretend = 0, frame = 8
 680              		@ frame_needed = 0, uses_anonymous_args = 0
 681 0000 30B5     		push	{r4, r5, lr}
 682 0002 83B0     		sub	sp, sp, #12
 683 0004 0446     		mov	r4, r0
 684 0006 0D46     		mov	r5, r1
 685 0008 0123     		movs	r3, #1
 686 000a 01AA     		add	r2, sp, #4
 687 000c 1221     		movs	r1, #18
 688 000e FFF7FEFF 		bl	ism330dhcx_read_reg
 689 0012 08B1     		cbz	r0, .L105
 690              	.L102:
 691 0014 03B0     		add	sp, sp, #12
 692              		@ sp needed
 693 0016 30BD     		pop	{r4, r5, pc}
 694              	.L105:
 695 0018 9DF80430 		ldrb	r3, [sp, #4]	@ zero_extendqisi2
 696 001c 65F38613 		bfi	r3, r5, #6, #1
 697 0020 8DF80430 		strb	r3, [sp, #4]
 698 0024 0123     		movs	r3, #1
 699 0026 01AA     		add	r2, sp, #4
 700 0028 1221     		movs	r1, #18
 701 002a 2046     		mov	r0, r4
 702 002c FFF7FEFF 		bl	ism330dhcx_write_reg
 703 0030 F0E7     		b	.L102
 705              		.section	.text.ism330dhcx_block_data_update_get,"ax",%progbits
 706              		.align	1
 707              		.global	ism330dhcx_block_data_update_get
 708              		.syntax unified
 709              		.thumb
 710              		.thumb_func
 712              	ism330dhcx_block_data_update_get:
 713              		@ args = 0, pretend = 0, frame = 8
 714              		@ frame_needed = 0, uses_anonymous_args = 0
 715 0000 10B5     		push	{r4, lr}
 716 0002 82B0     		sub	sp, sp, #8
 717 0004 0C46     		mov	r4, r1
 718 0006 0123     		movs	r3, #1
 719 0008 01AA     		add	r2, sp, #4
 720 000a 1221     		movs	r1, #18
 721 000c FFF7FEFF 		bl	ism330dhcx_read_reg
 722 0010 9DF80430 		ldrb	r3, [sp, #4]	@ zero_extendqisi2
 723 0014 C3F38013 		ubfx	r3, r3, #6, #1
 724 0018 2370     		strb	r3, [r4]
 725 001a 02B0     		add	sp, sp, #8
 726              		@ sp needed
 727 001c 10BD     		pop	{r4, pc}
ARM GAS  C:\Temp\ccOH3Pt6.s 			page 13


 729              		.section	.text.ism330dhcx_xl_offset_weight_set,"ax",%progbits
 730              		.align	1
 731              		.global	ism330dhcx_xl_offset_weight_set
 732              		.syntax unified
 733              		.thumb
 734              		.thumb_func
 736              	ism330dhcx_xl_offset_weight_set:
 737              		@ args = 0, pretend = 0, frame = 8
 738              		@ frame_needed = 0, uses_anonymous_args = 0
 739 0000 30B5     		push	{r4, r5, lr}
 740 0002 83B0     		sub	sp, sp, #12
 741 0004 0446     		mov	r4, r0
 742 0006 0D46     		mov	r5, r1
 743 0008 0123     		movs	r3, #1
 744 000a 01AA     		add	r2, sp, #4
 745 000c 1521     		movs	r1, #21
 746 000e FFF7FEFF 		bl	ism330dhcx_read_reg
 747 0012 08B1     		cbz	r0, .L111
 748              	.L108:
 749 0014 03B0     		add	sp, sp, #12
 750              		@ sp needed
 751 0016 30BD     		pop	{r4, r5, pc}
 752              	.L111:
 753 0018 9DF80430 		ldrb	r3, [sp, #4]	@ zero_extendqisi2
 754 001c 65F3C303 		bfi	r3, r5, #3, #1
 755 0020 8DF80430 		strb	r3, [sp, #4]
 756 0024 0123     		movs	r3, #1
 757 0026 01AA     		add	r2, sp, #4
 758 0028 1521     		movs	r1, #21
 759 002a 2046     		mov	r0, r4
 760 002c FFF7FEFF 		bl	ism330dhcx_write_reg
 761 0030 F0E7     		b	.L108
 763              		.section	.text.ism330dhcx_xl_offset_weight_get,"ax",%progbits
 764              		.align	1
 765              		.global	ism330dhcx_xl_offset_weight_get
 766              		.syntax unified
 767              		.thumb
 768              		.thumb_func
 770              	ism330dhcx_xl_offset_weight_get:
 771              		@ args = 0, pretend = 0, frame = 8
 772              		@ frame_needed = 0, uses_anonymous_args = 0
 773 0000 10B5     		push	{r4, lr}
 774 0002 82B0     		sub	sp, sp, #8
 775 0004 0C46     		mov	r4, r1
 776 0006 0123     		movs	r3, #1
 777 0008 01AA     		add	r2, sp, #4
 778 000a 1521     		movs	r1, #21
 779 000c FFF7FEFF 		bl	ism330dhcx_read_reg
 780 0010 9DF80430 		ldrb	r3, [sp, #4]	@ zero_extendqisi2
 781 0014 C3F3C002 		ubfx	r2, r3, #3, #1
 782 0018 13F0080F 		tst	r3, #8
 783 001c 03D0     		beq	.L113
 784 001e 32B9     		cbnz	r2, .L114
 785 0020 0023     		movs	r3, #0
 786 0022 2370     		strb	r3, [r4]
 787 0024 01E0     		b	.L112
 788              	.L113:
ARM GAS  C:\Temp\ccOH3Pt6.s 			page 14


 789 0026 0023     		movs	r3, #0
 790 0028 2370     		strb	r3, [r4]
 791              	.L112:
 792 002a 02B0     		add	sp, sp, #8
 793              		@ sp needed
 794 002c 10BD     		pop	{r4, pc}
 795              	.L114:
 796 002e 0123     		movs	r3, #1
 797 0030 2370     		strb	r3, [r4]
 798 0032 FAE7     		b	.L112
 800              		.section	.text.ism330dhcx_xl_power_mode_set,"ax",%progbits
 801              		.align	1
 802              		.global	ism330dhcx_xl_power_mode_set
 803              		.syntax unified
 804              		.thumb
 805              		.thumb_func
 807              	ism330dhcx_xl_power_mode_set:
 808              		@ args = 0, pretend = 0, frame = 8
 809              		@ frame_needed = 0, uses_anonymous_args = 0
 810 0000 30B5     		push	{r4, r5, lr}
 811 0002 83B0     		sub	sp, sp, #12
 812 0004 0446     		mov	r4, r0
 813 0006 0D46     		mov	r5, r1
 814 0008 0123     		movs	r3, #1
 815 000a 01AA     		add	r2, sp, #4
 816 000c 1521     		movs	r1, #21
 817 000e FFF7FEFF 		bl	ism330dhcx_read_reg
 818 0012 08B1     		cbz	r0, .L122
 819              	.L119:
 820 0014 03B0     		add	sp, sp, #12
 821              		@ sp needed
 822 0016 30BD     		pop	{r4, r5, pc}
 823              	.L122:
 824 0018 9DF80430 		ldrb	r3, [sp, #4]	@ zero_extendqisi2
 825 001c 65F30413 		bfi	r3, r5, #4, #1
 826 0020 8DF80430 		strb	r3, [sp, #4]
 827 0024 0123     		movs	r3, #1
 828 0026 01AA     		add	r2, sp, #4
 829 0028 1521     		movs	r1, #21
 830 002a 2046     		mov	r0, r4
 831 002c FFF7FEFF 		bl	ism330dhcx_write_reg
 832 0030 F0E7     		b	.L119
 834              		.section	.text.ism330dhcx_xl_power_mode_get,"ax",%progbits
 835              		.align	1
 836              		.global	ism330dhcx_xl_power_mode_get
 837              		.syntax unified
 838              		.thumb
 839              		.thumb_func
 841              	ism330dhcx_xl_power_mode_get:
 842              		@ args = 0, pretend = 0, frame = 8
 843              		@ frame_needed = 0, uses_anonymous_args = 0
 844 0000 10B5     		push	{r4, lr}
 845 0002 82B0     		sub	sp, sp, #8
 846 0004 0C46     		mov	r4, r1
 847 0006 0123     		movs	r3, #1
 848 0008 01AA     		add	r2, sp, #4
 849 000a 1521     		movs	r1, #21
ARM GAS  C:\Temp\ccOH3Pt6.s 			page 15


 850 000c FFF7FEFF 		bl	ism330dhcx_read_reg
 851 0010 9DF80430 		ldrb	r3, [sp, #4]	@ zero_extendqisi2
 852 0014 C3F30012 		ubfx	r2, r3, #4, #1
 853 0018 13F0100F 		tst	r3, #16
 854 001c 03D0     		beq	.L124
 855 001e 32B9     		cbnz	r2, .L125
 856 0020 0023     		movs	r3, #0
 857 0022 2370     		strb	r3, [r4]
 858 0024 01E0     		b	.L123
 859              	.L124:
 860 0026 0023     		movs	r3, #0
 861 0028 2370     		strb	r3, [r4]
 862              	.L123:
 863 002a 02B0     		add	sp, sp, #8
 864              		@ sp needed
 865 002c 10BD     		pop	{r4, pc}
 866              	.L125:
 867 002e 0123     		movs	r3, #1
 868 0030 2370     		strb	r3, [r4]
 869 0032 FAE7     		b	.L123
 871              		.section	.text.ism330dhcx_gy_power_mode_set,"ax",%progbits
 872              		.align	1
 873              		.global	ism330dhcx_gy_power_mode_set
 874              		.syntax unified
 875              		.thumb
 876              		.thumb_func
 878              	ism330dhcx_gy_power_mode_set:
 879              		@ args = 0, pretend = 0, frame = 8
 880              		@ frame_needed = 0, uses_anonymous_args = 0
 881 0000 30B5     		push	{r4, r5, lr}
 882 0002 83B0     		sub	sp, sp, #12
 883 0004 0446     		mov	r4, r0
 884 0006 0D46     		mov	r5, r1
 885 0008 0123     		movs	r3, #1
 886 000a 01AA     		add	r2, sp, #4
 887 000c 1621     		movs	r1, #22
 888 000e FFF7FEFF 		bl	ism330dhcx_read_reg
 889 0012 08B1     		cbz	r0, .L133
 890              	.L130:
 891 0014 03B0     		add	sp, sp, #12
 892              		@ sp needed
 893 0016 30BD     		pop	{r4, r5, pc}
 894              	.L133:
 895 0018 9DF80430 		ldrb	r3, [sp, #4]	@ zero_extendqisi2
 896 001c 65F3C713 		bfi	r3, r5, #7, #1
 897 0020 8DF80430 		strb	r3, [sp, #4]
 898 0024 0123     		movs	r3, #1
 899 0026 01AA     		add	r2, sp, #4
 900 0028 1621     		movs	r1, #22
 901 002a 2046     		mov	r0, r4
 902 002c FFF7FEFF 		bl	ism330dhcx_write_reg
 903 0030 F0E7     		b	.L130
 905              		.section	.text.ism330dhcx_gy_power_mode_get,"ax",%progbits
 906              		.align	1
 907              		.global	ism330dhcx_gy_power_mode_get
 908              		.syntax unified
 909              		.thumb
ARM GAS  C:\Temp\ccOH3Pt6.s 			page 16


 910              		.thumb_func
 912              	ism330dhcx_gy_power_mode_get:
 913              		@ args = 0, pretend = 0, frame = 8
 914              		@ frame_needed = 0, uses_anonymous_args = 0
 915 0000 10B5     		push	{r4, lr}
 916 0002 82B0     		sub	sp, sp, #8
 917 0004 0C46     		mov	r4, r1
 918 0006 0123     		movs	r3, #1
 919 0008 01AA     		add	r2, sp, #4
 920 000a 1621     		movs	r1, #22
 921 000c FFF7FEFF 		bl	ism330dhcx_read_reg
 922 0010 9DF80430 		ldrb	r3, [sp, #4]	@ zero_extendqisi2
 923 0014 DB09     		lsrs	r3, r3, #7
 924 0016 03D0     		beq	.L135
 925 0018 33B9     		cbnz	r3, .L136
 926 001a 0023     		movs	r3, #0
 927 001c 2370     		strb	r3, [r4]
 928 001e 01E0     		b	.L134
 929              	.L135:
 930 0020 0023     		movs	r3, #0
 931 0022 2370     		strb	r3, [r4]
 932              	.L134:
 933 0024 02B0     		add	sp, sp, #8
 934              		@ sp needed
 935 0026 10BD     		pop	{r4, pc}
 936              	.L136:
 937 0028 0123     		movs	r3, #1
 938 002a 2370     		strb	r3, [r4]
 939 002c FAE7     		b	.L134
 941              		.section	.text.ism330dhcx_status_reg_get,"ax",%progbits
 942              		.align	1
 943              		.global	ism330dhcx_status_reg_get
 944              		.syntax unified
 945              		.thumb
 946              		.thumb_func
 948              	ism330dhcx_status_reg_get:
 949              		@ args = 0, pretend = 0, frame = 0
 950              		@ frame_needed = 0, uses_anonymous_args = 0
 951 0000 08B5     		push	{r3, lr}
 952 0002 0A46     		mov	r2, r1
 953 0004 0123     		movs	r3, #1
 954 0006 1E21     		movs	r1, #30
 955 0008 FFF7FEFF 		bl	ism330dhcx_read_reg
 956 000c 08BD     		pop	{r3, pc}
 958              		.section	.text.ism330dhcx_xl_flag_data_ready_get,"ax",%progbits
 959              		.align	1
 960              		.global	ism330dhcx_xl_flag_data_ready_get
 961              		.syntax unified
 962              		.thumb
 963              		.thumb_func
 965              	ism330dhcx_xl_flag_data_ready_get:
 966              		@ args = 0, pretend = 0, frame = 8
 967              		@ frame_needed = 0, uses_anonymous_args = 0
 968 0000 10B5     		push	{r4, lr}
 969 0002 82B0     		sub	sp, sp, #8
 970 0004 0C46     		mov	r4, r1
 971 0006 0123     		movs	r3, #1
ARM GAS  C:\Temp\ccOH3Pt6.s 			page 17


 972 0008 01AA     		add	r2, sp, #4
 973 000a 1E21     		movs	r1, #30
 974 000c FFF7FEFF 		bl	ism330dhcx_read_reg
 975 0010 9DF80430 		ldrb	r3, [sp, #4]	@ zero_extendqisi2
 976 0014 C3F30003 		ubfx	r3, r3, #0, #1
 977 0018 2370     		strb	r3, [r4]
 978 001a 02B0     		add	sp, sp, #8
 979              		@ sp needed
 980 001c 10BD     		pop	{r4, pc}
 982              		.section	.text.ism330dhcx_gy_flag_data_ready_get,"ax",%progbits
 983              		.align	1
 984              		.global	ism330dhcx_gy_flag_data_ready_get
 985              		.syntax unified
 986              		.thumb
 987              		.thumb_func
 989              	ism330dhcx_gy_flag_data_ready_get:
 990              		@ args = 0, pretend = 0, frame = 8
 991              		@ frame_needed = 0, uses_anonymous_args = 0
 992 0000 10B5     		push	{r4, lr}
 993 0002 82B0     		sub	sp, sp, #8
 994 0004 0C46     		mov	r4, r1
 995 0006 0123     		movs	r3, #1
 996 0008 01AA     		add	r2, sp, #4
 997 000a 1E21     		movs	r1, #30
 998 000c FFF7FEFF 		bl	ism330dhcx_read_reg
 999 0010 9DF80430 		ldrb	r3, [sp, #4]	@ zero_extendqisi2
 1000 0014 C3F34003 		ubfx	r3, r3, #1, #1
 1001 0018 2370     		strb	r3, [r4]
 1002 001a 02B0     		add	sp, sp, #8
 1003              		@ sp needed
 1004 001c 10BD     		pop	{r4, pc}
 1006              		.section	.text.ism330dhcx_temp_flag_data_ready_get,"ax",%progbits
 1007              		.align	1
 1008              		.global	ism330dhcx_temp_flag_data_ready_get
 1009              		.syntax unified
 1010              		.thumb
 1011              		.thumb_func
 1013              	ism330dhcx_temp_flag_data_ready_get:
 1014              		@ args = 0, pretend = 0, frame = 8
 1015              		@ frame_needed = 0, uses_anonymous_args = 0
 1016 0000 10B5     		push	{r4, lr}
 1017 0002 82B0     		sub	sp, sp, #8
 1018 0004 0C46     		mov	r4, r1
 1019 0006 0123     		movs	r3, #1
 1020 0008 01AA     		add	r2, sp, #4
 1021 000a 1E21     		movs	r1, #30
 1022 000c FFF7FEFF 		bl	ism330dhcx_read_reg
 1023 0010 9DF80430 		ldrb	r3, [sp, #4]	@ zero_extendqisi2
 1024 0014 C3F38003 		ubfx	r3, r3, #2, #1
 1025 0018 2370     		strb	r3, [r4]
 1026 001a 02B0     		add	sp, sp, #8
 1027              		@ sp needed
 1028 001c 10BD     		pop	{r4, pc}
 1030              		.section	.text.ism330dhcx_xl_usr_offset_x_set,"ax",%progbits
 1031              		.align	1
 1032              		.global	ism330dhcx_xl_usr_offset_x_set
 1033              		.syntax unified
ARM GAS  C:\Temp\ccOH3Pt6.s 			page 18


 1034              		.thumb
 1035              		.thumb_func
 1037              	ism330dhcx_xl_usr_offset_x_set:
 1038              		@ args = 0, pretend = 0, frame = 0
 1039              		@ frame_needed = 0, uses_anonymous_args = 0
 1040 0000 08B5     		push	{r3, lr}
 1041 0002 0A46     		mov	r2, r1
 1042 0004 0123     		movs	r3, #1
 1043 0006 7321     		movs	r1, #115
 1044 0008 FFF7FEFF 		bl	ism330dhcx_write_reg
 1045 000c 08BD     		pop	{r3, pc}
 1047              		.section	.text.ism330dhcx_xl_usr_offset_x_get,"ax",%progbits
 1048              		.align	1
 1049              		.global	ism330dhcx_xl_usr_offset_x_get
 1050              		.syntax unified
 1051              		.thumb
 1052              		.thumb_func
 1054              	ism330dhcx_xl_usr_offset_x_get:
 1055              		@ args = 0, pretend = 0, frame = 0
 1056              		@ frame_needed = 0, uses_anonymous_args = 0
 1057 0000 08B5     		push	{r3, lr}
 1058 0002 0A46     		mov	r2, r1
 1059 0004 0123     		movs	r3, #1
 1060 0006 7321     		movs	r1, #115
 1061 0008 FFF7FEFF 		bl	ism330dhcx_read_reg
 1062 000c 08BD     		pop	{r3, pc}
 1064              		.section	.text.ism330dhcx_xl_usr_offset_y_set,"ax",%progbits
 1065              		.align	1
 1066              		.global	ism330dhcx_xl_usr_offset_y_set
 1067              		.syntax unified
 1068              		.thumb
 1069              		.thumb_func
 1071              	ism330dhcx_xl_usr_offset_y_set:
 1072              		@ args = 0, pretend = 0, frame = 0
 1073              		@ frame_needed = 0, uses_anonymous_args = 0
 1074 0000 08B5     		push	{r3, lr}
 1075 0002 0A46     		mov	r2, r1
 1076 0004 0123     		movs	r3, #1
 1077 0006 7421     		movs	r1, #116
 1078 0008 FFF7FEFF 		bl	ism330dhcx_write_reg
 1079 000c 08BD     		pop	{r3, pc}
 1081              		.section	.text.ism330dhcx_xl_usr_offset_y_get,"ax",%progbits
 1082              		.align	1
 1083              		.global	ism330dhcx_xl_usr_offset_y_get
 1084              		.syntax unified
 1085              		.thumb
 1086              		.thumb_func
 1088              	ism330dhcx_xl_usr_offset_y_get:
 1089              		@ args = 0, pretend = 0, frame = 0
 1090              		@ frame_needed = 0, uses_anonymous_args = 0
 1091 0000 08B5     		push	{r3, lr}
 1092 0002 0A46     		mov	r2, r1
 1093 0004 0123     		movs	r3, #1
 1094 0006 7421     		movs	r1, #116
 1095 0008 FFF7FEFF 		bl	ism330dhcx_read_reg
 1096 000c 08BD     		pop	{r3, pc}
 1098              		.section	.text.ism330dhcx_xl_usr_offset_z_set,"ax",%progbits
ARM GAS  C:\Temp\ccOH3Pt6.s 			page 19


 1099              		.align	1
 1100              		.global	ism330dhcx_xl_usr_offset_z_set
 1101              		.syntax unified
 1102              		.thumb
 1103              		.thumb_func
 1105              	ism330dhcx_xl_usr_offset_z_set:
 1106              		@ args = 0, pretend = 0, frame = 0
 1107              		@ frame_needed = 0, uses_anonymous_args = 0
 1108 0000 08B5     		push	{r3, lr}
 1109 0002 0A46     		mov	r2, r1
 1110 0004 0123     		movs	r3, #1
 1111 0006 7521     		movs	r1, #117
 1112 0008 FFF7FEFF 		bl	ism330dhcx_write_reg
 1113 000c 08BD     		pop	{r3, pc}
 1115              		.section	.text.ism330dhcx_xl_usr_offset_z_get,"ax",%progbits
 1116              		.align	1
 1117              		.global	ism330dhcx_xl_usr_offset_z_get
 1118              		.syntax unified
 1119              		.thumb
 1120              		.thumb_func
 1122              	ism330dhcx_xl_usr_offset_z_get:
 1123              		@ args = 0, pretend = 0, frame = 0
 1124              		@ frame_needed = 0, uses_anonymous_args = 0
 1125 0000 08B5     		push	{r3, lr}
 1126 0002 0A46     		mov	r2, r1
 1127 0004 0123     		movs	r3, #1
 1128 0006 7521     		movs	r1, #117
 1129 0008 FFF7FEFF 		bl	ism330dhcx_read_reg
 1130 000c 08BD     		pop	{r3, pc}
 1132              		.section	.text.ism330dhcx_xl_usr_offset_set,"ax",%progbits
 1133              		.align	1
 1134              		.global	ism330dhcx_xl_usr_offset_set
 1135              		.syntax unified
 1136              		.thumb
 1137              		.thumb_func
 1139              	ism330dhcx_xl_usr_offset_set:
 1140              		@ args = 0, pretend = 0, frame = 8
 1141              		@ frame_needed = 0, uses_anonymous_args = 0
 1142 0000 30B5     		push	{r4, r5, lr}
 1143 0002 83B0     		sub	sp, sp, #12
 1144 0004 0446     		mov	r4, r0
 1145 0006 0D46     		mov	r5, r1
 1146 0008 0123     		movs	r3, #1
 1147 000a 01AA     		add	r2, sp, #4
 1148 000c 1621     		movs	r1, #22
 1149 000e FFF7FEFF 		bl	ism330dhcx_read_reg
 1150 0012 08B1     		cbz	r0, .L164
 1151              	.L161:
 1152 0014 03B0     		add	sp, sp, #12
 1153              		@ sp needed
 1154 0016 30BD     		pop	{r4, r5, pc}
 1155              	.L164:
 1156 0018 9DF80430 		ldrb	r3, [sp, #4]	@ zero_extendqisi2
 1157 001c 65F34103 		bfi	r3, r5, #1, #1
 1158 0020 8DF80430 		strb	r3, [sp, #4]
 1159 0024 0123     		movs	r3, #1
 1160 0026 01AA     		add	r2, sp, #4
ARM GAS  C:\Temp\ccOH3Pt6.s 			page 20


 1161 0028 1621     		movs	r1, #22
 1162 002a 2046     		mov	r0, r4
 1163 002c FFF7FEFF 		bl	ism330dhcx_write_reg
 1164 0030 F0E7     		b	.L161
 1166              		.section	.text.ism330dhcx_xl_usr_offset_get,"ax",%progbits
 1167              		.align	1
 1168              		.global	ism330dhcx_xl_usr_offset_get
 1169              		.syntax unified
 1170              		.thumb
 1171              		.thumb_func
 1173              	ism330dhcx_xl_usr_offset_get:
 1174              		@ args = 0, pretend = 0, frame = 8
 1175              		@ frame_needed = 0, uses_anonymous_args = 0
 1176 0000 10B5     		push	{r4, lr}
 1177 0002 82B0     		sub	sp, sp, #8
 1178 0004 0C46     		mov	r4, r1
 1179 0006 0123     		movs	r3, #1
 1180 0008 01AA     		add	r2, sp, #4
 1181 000a 1621     		movs	r1, #22
 1182 000c FFF7FEFF 		bl	ism330dhcx_read_reg
 1183 0010 9DF80430 		ldrb	r3, [sp, #4]	@ zero_extendqisi2
 1184 0014 C3F34003 		ubfx	r3, r3, #1, #1
 1185 0018 2370     		strb	r3, [r4]
 1186 001a 02B0     		add	sp, sp, #8
 1187              		@ sp needed
 1188 001c 10BD     		pop	{r4, pc}
 1190              		.section	.text.ism330dhcx_timestamp_rst,"ax",%progbits
 1191              		.align	1
 1192              		.global	ism330dhcx_timestamp_rst
 1193              		.syntax unified
 1194              		.thumb
 1195              		.thumb_func
 1197              	ism330dhcx_timestamp_rst:
 1198              		@ args = 0, pretend = 0, frame = 8
 1199              		@ frame_needed = 0, uses_anonymous_args = 0
 1200 0000 00B5     		push	{lr}
 1201 0002 83B0     		sub	sp, sp, #12
 1202 0004 AA23     		movs	r3, #170
 1203 0006 8DF80730 		strb	r3, [sp, #7]
 1204 000a 0123     		movs	r3, #1
 1205 000c 0DF10702 		add	r2, sp, #7
 1206 0010 4221     		movs	r1, #66
 1207 0012 FFF7FEFF 		bl	ism330dhcx_write_reg
 1208 0016 03B0     		add	sp, sp, #12
 1209              		@ sp needed
 1210 0018 5DF804FB 		ldr	pc, [sp], #4
 1212              		.section	.text.ism330dhcx_timestamp_set,"ax",%progbits
 1213              		.align	1
 1214              		.global	ism330dhcx_timestamp_set
 1215              		.syntax unified
 1216              		.thumb
 1217              		.thumb_func
 1219              	ism330dhcx_timestamp_set:
 1220              		@ args = 0, pretend = 0, frame = 8
 1221              		@ frame_needed = 0, uses_anonymous_args = 0
 1222 0000 30B5     		push	{r4, r5, lr}
 1223 0002 83B0     		sub	sp, sp, #12
ARM GAS  C:\Temp\ccOH3Pt6.s 			page 21


 1224 0004 0446     		mov	r4, r0
 1225 0006 0D46     		mov	r5, r1
 1226 0008 0123     		movs	r3, #1
 1227 000a 01AA     		add	r2, sp, #4
 1228 000c 1921     		movs	r1, #25
 1229 000e FFF7FEFF 		bl	ism330dhcx_read_reg
 1230 0012 08B1     		cbz	r0, .L172
 1231              	.L169:
 1232 0014 03B0     		add	sp, sp, #12
 1233              		@ sp needed
 1234 0016 30BD     		pop	{r4, r5, pc}
 1235              	.L172:
 1236 0018 9DF80430 		ldrb	r3, [sp, #4]	@ zero_extendqisi2
 1237 001c 65F34513 		bfi	r3, r5, #5, #1
 1238 0020 8DF80430 		strb	r3, [sp, #4]
 1239 0024 0123     		movs	r3, #1
 1240 0026 01AA     		add	r2, sp, #4
 1241 0028 1921     		movs	r1, #25
 1242 002a 2046     		mov	r0, r4
 1243 002c FFF7FEFF 		bl	ism330dhcx_write_reg
 1244 0030 F0E7     		b	.L169
 1246              		.section	.text.ism330dhcx_timestamp_get,"ax",%progbits
 1247              		.align	1
 1248              		.global	ism330dhcx_timestamp_get
 1249              		.syntax unified
 1250              		.thumb
 1251              		.thumb_func
 1253              	ism330dhcx_timestamp_get:
 1254              		@ args = 0, pretend = 0, frame = 8
 1255              		@ frame_needed = 0, uses_anonymous_args = 0
 1256 0000 10B5     		push	{r4, lr}
 1257 0002 82B0     		sub	sp, sp, #8
 1258 0004 0C46     		mov	r4, r1
 1259 0006 0123     		movs	r3, #1
 1260 0008 01AA     		add	r2, sp, #4
 1261 000a 1921     		movs	r1, #25
 1262 000c FFF7FEFF 		bl	ism330dhcx_read_reg
 1263 0010 9DF80430 		ldrb	r3, [sp, #4]	@ zero_extendqisi2
 1264 0014 C3F34013 		ubfx	r3, r3, #5, #1
 1265 0018 2370     		strb	r3, [r4]
 1266 001a 02B0     		add	sp, sp, #8
 1267              		@ sp needed
 1268 001c 10BD     		pop	{r4, pc}
 1270              		.section	.text.ism330dhcx_timestamp_raw_get,"ax",%progbits
 1271              		.align	1
 1272              		.global	ism330dhcx_timestamp_raw_get
 1273              		.syntax unified
 1274              		.thumb
 1275              		.thumb_func
 1277              	ism330dhcx_timestamp_raw_get:
 1278              		@ args = 0, pretend = 0, frame = 8
 1279              		@ frame_needed = 0, uses_anonymous_args = 0
 1280 0000 10B5     		push	{r4, lr}
 1281 0002 82B0     		sub	sp, sp, #8
 1282 0004 0C46     		mov	r4, r1
 1283 0006 0423     		movs	r3, #4
 1284 0008 0DEB0302 		add	r2, sp, r3
ARM GAS  C:\Temp\ccOH3Pt6.s 			page 22


 1285 000c 4021     		movs	r1, #64
 1286 000e FFF7FEFF 		bl	ism330dhcx_read_reg
 1287 0012 9DF80730 		ldrb	r3, [sp, #7]	@ zero_extendqisi2
 1288 0016 2360     		str	r3, [r4]
 1289 0018 9DF80620 		ldrb	r2, [sp, #6]	@ zero_extendqisi2
 1290 001c 02EB0322 		add	r2, r2, r3, lsl #8
 1291 0020 2260     		str	r2, [r4]
 1292 0022 9DF80530 		ldrb	r3, [sp, #5]	@ zero_extendqisi2
 1293 0026 03EB0223 		add	r3, r3, r2, lsl #8
 1294 002a 2360     		str	r3, [r4]
 1295 002c 9DF80420 		ldrb	r2, [sp, #4]	@ zero_extendqisi2
 1296 0030 02EB0323 		add	r3, r2, r3, lsl #8
 1297 0034 2360     		str	r3, [r4]
 1298 0036 02B0     		add	sp, sp, #8
 1299              		@ sp needed
 1300 0038 10BD     		pop	{r4, pc}
 1302              		.section	.text.ism330dhcx_rounding_mode_set,"ax",%progbits
 1303              		.align	1
 1304              		.global	ism330dhcx_rounding_mode_set
 1305              		.syntax unified
 1306              		.thumb
 1307              		.thumb_func
 1309              	ism330dhcx_rounding_mode_set:
 1310              		@ args = 0, pretend = 0, frame = 8
 1311              		@ frame_needed = 0, uses_anonymous_args = 0
 1312 0000 30B5     		push	{r4, r5, lr}
 1313 0002 83B0     		sub	sp, sp, #12
 1314 0004 0446     		mov	r4, r0
 1315 0006 0D46     		mov	r5, r1
 1316 0008 0123     		movs	r3, #1
 1317 000a 01AA     		add	r2, sp, #4
 1318 000c 1421     		movs	r1, #20
 1319 000e FFF7FEFF 		bl	ism330dhcx_read_reg
 1320 0012 08B1     		cbz	r0, .L180
 1321              	.L177:
 1322 0014 03B0     		add	sp, sp, #12
 1323              		@ sp needed
 1324 0016 30BD     		pop	{r4, r5, pc}
 1325              	.L180:
 1326 0018 9DF80430 		ldrb	r3, [sp, #4]	@ zero_extendqisi2
 1327 001c 65F34613 		bfi	r3, r5, #5, #2
 1328 0020 8DF80430 		strb	r3, [sp, #4]
 1329 0024 0123     		movs	r3, #1
 1330 0026 01AA     		add	r2, sp, #4
 1331 0028 1421     		movs	r1, #20
 1332 002a 2046     		mov	r0, r4
 1333 002c FFF7FEFF 		bl	ism330dhcx_write_reg
 1334 0030 F0E7     		b	.L177
 1336              		.section	.text.ism330dhcx_rounding_mode_get,"ax",%progbits
 1337              		.align	1
 1338              		.global	ism330dhcx_rounding_mode_get
 1339              		.syntax unified
 1340              		.thumb
 1341              		.thumb_func
 1343              	ism330dhcx_rounding_mode_get:
 1344              		@ args = 0, pretend = 0, frame = 8
 1345              		@ frame_needed = 0, uses_anonymous_args = 0
ARM GAS  C:\Temp\ccOH3Pt6.s 			page 23


 1346 0000 10B5     		push	{r4, lr}
 1347 0002 82B0     		sub	sp, sp, #8
 1348 0004 0C46     		mov	r4, r1
 1349 0006 0123     		movs	r3, #1
 1350 0008 01AA     		add	r2, sp, #4
 1351 000a 1421     		movs	r1, #20
 1352 000c FFF7FEFF 		bl	ism330dhcx_read_reg
 1353 0010 9DF80430 		ldrb	r3, [sp, #4]	@ zero_extendqisi2
 1354 0014 C3F34113 		ubfx	r3, r3, #5, #2
 1355 0018 032B     		cmp	r3, #3
 1356 001a 10D8     		bhi	.L182
 1357 001c DFE803F0 		tbb	[pc, r3]
 1358              	.L184:
 1359 0020 02       		.byte	(.L187-.L184)/2
 1360 0021 06       		.byte	(.L186-.L184)/2
 1361 0022 09       		.byte	(.L185-.L184)/2
 1362 0023 0C       		.byte	(.L183-.L184)/2
 1363              		.p2align 1
 1364              	.L187:
 1365 0024 0023     		movs	r3, #0
 1366 0026 2370     		strb	r3, [r4]
 1367              	.L181:
 1368 0028 02B0     		add	sp, sp, #8
 1369              		@ sp needed
 1370 002a 10BD     		pop	{r4, pc}
 1371              	.L186:
 1372 002c 0123     		movs	r3, #1
 1373 002e 2370     		strb	r3, [r4]
 1374 0030 FAE7     		b	.L181
 1375              	.L185:
 1376 0032 0223     		movs	r3, #2
 1377 0034 2370     		strb	r3, [r4]
 1378 0036 F7E7     		b	.L181
 1379              	.L183:
 1380 0038 0323     		movs	r3, #3
 1381 003a 2370     		strb	r3, [r4]
 1382 003c F4E7     		b	.L181
 1383              	.L182:
 1384 003e 0023     		movs	r3, #0
 1385 0040 2370     		strb	r3, [r4]
 1386 0042 F1E7     		b	.L181
 1388              		.section	.text.ism330dhcx_temperature_raw_get,"ax",%progbits
 1389              		.align	1
 1390              		.global	ism330dhcx_temperature_raw_get
 1391              		.syntax unified
 1392              		.thumb
 1393              		.thumb_func
 1395              	ism330dhcx_temperature_raw_get:
 1396              		@ args = 0, pretend = 0, frame = 8
 1397              		@ frame_needed = 0, uses_anonymous_args = 0
 1398 0000 10B5     		push	{r4, lr}
 1399 0002 82B0     		sub	sp, sp, #8
 1400 0004 0C46     		mov	r4, r1
 1401 0006 0223     		movs	r3, #2
 1402 0008 01AA     		add	r2, sp, #4
 1403 000a 2021     		movs	r1, #32
 1404 000c FFF7FEFF 		bl	ism330dhcx_read_reg
ARM GAS  C:\Temp\ccOH3Pt6.s 			page 24


 1405 0010 9DF80520 		ldrb	r2, [sp, #5]	@ zero_extendqisi2
 1406 0014 2280     		strh	r2, [r4]	@ movhi
 1407 0016 9DF80430 		ldrb	r3, [sp, #4]	@ zero_extendqisi2
 1408 001a 03EB0223 		add	r3, r3, r2, lsl #8
 1409 001e 2380     		strh	r3, [r4]	@ movhi
 1410 0020 02B0     		add	sp, sp, #8
 1411              		@ sp needed
 1412 0022 10BD     		pop	{r4, pc}
 1414              		.section	.text.ism330dhcx_angular_rate_raw_get,"ax",%progbits
 1415              		.align	1
 1416              		.global	ism330dhcx_angular_rate_raw_get
 1417              		.syntax unified
 1418              		.thumb
 1419              		.thumb_func
 1421              	ism330dhcx_angular_rate_raw_get:
 1422              		@ args = 0, pretend = 0, frame = 8
 1423              		@ frame_needed = 0, uses_anonymous_args = 0
 1424 0000 10B5     		push	{r4, lr}
 1425 0002 82B0     		sub	sp, sp, #8
 1426 0004 0C46     		mov	r4, r1
 1427 0006 0623     		movs	r3, #6
 1428 0008 6A46     		mov	r2, sp
 1429 000a 2221     		movs	r1, #34
 1430 000c FFF7FEFF 		bl	ism330dhcx_read_reg
 1431 0010 9DF80120 		ldrb	r2, [sp, #1]	@ zero_extendqisi2
 1432 0014 2280     		strh	r2, [r4]	@ movhi
 1433 0016 9DF80030 		ldrb	r3, [sp]	@ zero_extendqisi2
 1434 001a 03EB0223 		add	r3, r3, r2, lsl #8
 1435 001e 2380     		strh	r3, [r4]	@ movhi
 1436 0020 9DF80320 		ldrb	r2, [sp, #3]	@ zero_extendqisi2
 1437 0024 6280     		strh	r2, [r4, #2]	@ movhi
 1438 0026 9DF80230 		ldrb	r3, [sp, #2]	@ zero_extendqisi2
 1439 002a 03EB0223 		add	r3, r3, r2, lsl #8
 1440 002e 6380     		strh	r3, [r4, #2]	@ movhi
 1441 0030 9DF80520 		ldrb	r2, [sp, #5]	@ zero_extendqisi2
 1442 0034 A280     		strh	r2, [r4, #4]	@ movhi
 1443 0036 9DF80430 		ldrb	r3, [sp, #4]	@ zero_extendqisi2
 1444 003a 03EB0223 		add	r3, r3, r2, lsl #8
 1445 003e A380     		strh	r3, [r4, #4]	@ movhi
 1446 0040 02B0     		add	sp, sp, #8
 1447              		@ sp needed
 1448 0042 10BD     		pop	{r4, pc}
 1450              		.section	.text.ism330dhcx_acceleration_raw_get,"ax",%progbits
 1451              		.align	1
 1452              		.global	ism330dhcx_acceleration_raw_get
 1453              		.syntax unified
 1454              		.thumb
 1455              		.thumb_func
 1457              	ism330dhcx_acceleration_raw_get:
 1458              		@ args = 0, pretend = 0, frame = 8
 1459              		@ frame_needed = 0, uses_anonymous_args = 0
 1460 0000 10B5     		push	{r4, lr}
 1461 0002 82B0     		sub	sp, sp, #8
 1462 0004 0C46     		mov	r4, r1
 1463 0006 0623     		movs	r3, #6
 1464 0008 6A46     		mov	r2, sp
 1465 000a 2821     		movs	r1, #40
ARM GAS  C:\Temp\ccOH3Pt6.s 			page 25


 1466 000c FFF7FEFF 		bl	ism330dhcx_read_reg
 1467 0010 9DF80120 		ldrb	r2, [sp, #1]	@ zero_extendqisi2
 1468 0014 2280     		strh	r2, [r4]	@ movhi
 1469 0016 9DF80030 		ldrb	r3, [sp]	@ zero_extendqisi2
 1470 001a 03EB0223 		add	r3, r3, r2, lsl #8
 1471 001e 2380     		strh	r3, [r4]	@ movhi
 1472 0020 9DF80320 		ldrb	r2, [sp, #3]	@ zero_extendqisi2
 1473 0024 6280     		strh	r2, [r4, #2]	@ movhi
 1474 0026 9DF80230 		ldrb	r3, [sp, #2]	@ zero_extendqisi2
 1475 002a 03EB0223 		add	r3, r3, r2, lsl #8
 1476 002e 6380     		strh	r3, [r4, #2]	@ movhi
 1477 0030 9DF80520 		ldrb	r2, [sp, #5]	@ zero_extendqisi2
 1478 0034 A280     		strh	r2, [r4, #4]	@ movhi
 1479 0036 9DF80430 		ldrb	r3, [sp, #4]	@ zero_extendqisi2
 1480 003a 03EB0223 		add	r3, r3, r2, lsl #8
 1481 003e A380     		strh	r3, [r4, #4]	@ movhi
 1482 0040 02B0     		add	sp, sp, #8
 1483              		@ sp needed
 1484 0042 10BD     		pop	{r4, pc}
 1486              		.section	.text.ism330dhcx_fifo_out_raw_get,"ax",%progbits
 1487              		.align	1
 1488              		.global	ism330dhcx_fifo_out_raw_get
 1489              		.syntax unified
 1490              		.thumb
 1491              		.thumb_func
 1493              	ism330dhcx_fifo_out_raw_get:
 1494              		@ args = 0, pretend = 0, frame = 0
 1495              		@ frame_needed = 0, uses_anonymous_args = 0
 1496 0000 08B5     		push	{r3, lr}
 1497 0002 0A46     		mov	r2, r1
 1498 0004 0623     		movs	r3, #6
 1499 0006 7921     		movs	r1, #121
 1500 0008 FFF7FEFF 		bl	ism330dhcx_read_reg
 1501 000c 08BD     		pop	{r3, pc}
 1503              		.section	.text.ism330dhcx_device_conf_set,"ax",%progbits
 1504              		.align	1
 1505              		.global	ism330dhcx_device_conf_set
 1506              		.syntax unified
 1507              		.thumb
 1508              		.thumb_func
 1510              	ism330dhcx_device_conf_set:
 1511              		@ args = 0, pretend = 0, frame = 8
 1512              		@ frame_needed = 0, uses_anonymous_args = 0
 1513 0000 30B5     		push	{r4, r5, lr}
 1514 0002 83B0     		sub	sp, sp, #12
 1515 0004 0446     		mov	r4, r0
 1516 0006 0D46     		mov	r5, r1
 1517 0008 0123     		movs	r3, #1
 1518 000a 01AA     		add	r2, sp, #4
 1519 000c 1821     		movs	r1, #24
 1520 000e FFF7FEFF 		bl	ism330dhcx_read_reg
 1521 0012 08B1     		cbz	r0, .L201
 1522              	.L198:
 1523 0014 03B0     		add	sp, sp, #12
 1524              		@ sp needed
 1525 0016 30BD     		pop	{r4, r5, pc}
 1526              	.L201:
ARM GAS  C:\Temp\ccOH3Pt6.s 			page 26


 1527 0018 9DF80430 		ldrb	r3, [sp, #4]	@ zero_extendqisi2
 1528 001c 65F34103 		bfi	r3, r5, #1, #1
 1529 0020 8DF80430 		strb	r3, [sp, #4]
 1530 0024 0123     		movs	r3, #1
 1531 0026 01AA     		add	r2, sp, #4
 1532 0028 1821     		movs	r1, #24
 1533 002a 2046     		mov	r0, r4
 1534 002c FFF7FEFF 		bl	ism330dhcx_write_reg
 1535 0030 F0E7     		b	.L198
 1537              		.section	.text.ism330dhcx_device_conf_get,"ax",%progbits
 1538              		.align	1
 1539              		.global	ism330dhcx_device_conf_get
 1540              		.syntax unified
 1541              		.thumb
 1542              		.thumb_func
 1544              	ism330dhcx_device_conf_get:
 1545              		@ args = 0, pretend = 0, frame = 8
 1546              		@ frame_needed = 0, uses_anonymous_args = 0
 1547 0000 10B5     		push	{r4, lr}
 1548 0002 82B0     		sub	sp, sp, #8
 1549 0004 0C46     		mov	r4, r1
 1550 0006 0123     		movs	r3, #1
 1551 0008 01AA     		add	r2, sp, #4
 1552 000a 1821     		movs	r1, #24
 1553 000c FFF7FEFF 		bl	ism330dhcx_read_reg
 1554 0010 9DF80430 		ldrb	r3, [sp, #4]	@ zero_extendqisi2
 1555 0014 C3F34003 		ubfx	r3, r3, #1, #1
 1556 0018 2370     		strb	r3, [r4]
 1557 001a 02B0     		add	sp, sp, #8
 1558              		@ sp needed
 1559 001c 10BD     		pop	{r4, pc}
 1561              		.section	.text.ism330dhcx_odr_cal_reg_set,"ax",%progbits
 1562              		.align	1
 1563              		.global	ism330dhcx_odr_cal_reg_set
 1564              		.syntax unified
 1565              		.thumb
 1566              		.thumb_func
 1568              	ism330dhcx_odr_cal_reg_set:
 1569              		@ args = 0, pretend = 0, frame = 8
 1570              		@ frame_needed = 0, uses_anonymous_args = 0
 1571 0000 30B5     		push	{r4, r5, lr}
 1572 0002 83B0     		sub	sp, sp, #12
 1573 0004 0446     		mov	r4, r0
 1574 0006 0D46     		mov	r5, r1
 1575 0008 0123     		movs	r3, #1
 1576 000a 01AA     		add	r2, sp, #4
 1577 000c 6321     		movs	r1, #99
 1578 000e FFF7FEFF 		bl	ism330dhcx_read_reg
 1579 0012 08B1     		cbz	r0, .L207
 1580              	.L204:
 1581 0014 03B0     		add	sp, sp, #12
 1582              		@ sp needed
 1583 0016 30BD     		pop	{r4, r5, pc}
 1584              	.L207:
 1585 0018 8DF80450 		strb	r5, [sp, #4]
 1586 001c 0123     		movs	r3, #1
 1587 001e 01AA     		add	r2, sp, #4
ARM GAS  C:\Temp\ccOH3Pt6.s 			page 27


 1588 0020 6321     		movs	r1, #99
 1589 0022 2046     		mov	r0, r4
 1590 0024 FFF7FEFF 		bl	ism330dhcx_write_reg
 1591 0028 F4E7     		b	.L204
 1593              		.section	.text.ism330dhcx_odr_cal_reg_get,"ax",%progbits
 1594              		.align	1
 1595              		.global	ism330dhcx_odr_cal_reg_get
 1596              		.syntax unified
 1597              		.thumb
 1598              		.thumb_func
 1600              	ism330dhcx_odr_cal_reg_get:
 1601              		@ args = 0, pretend = 0, frame = 8
 1602              		@ frame_needed = 0, uses_anonymous_args = 0
 1603 0000 10B5     		push	{r4, lr}
 1604 0002 82B0     		sub	sp, sp, #8
 1605 0004 0C46     		mov	r4, r1
 1606 0006 0123     		movs	r3, #1
 1607 0008 01AA     		add	r2, sp, #4
 1608 000a 6321     		movs	r1, #99
 1609 000c FFF7FEFF 		bl	ism330dhcx_read_reg
 1610 0010 9DF80430 		ldrb	r3, [sp, #4]	@ zero_extendqisi2
 1611 0014 2370     		strb	r3, [r4]
 1612 0016 02B0     		add	sp, sp, #8
 1613              		@ sp needed
 1614 0018 10BD     		pop	{r4, pc}
 1616              		.section	.text.ism330dhcx_mem_bank_set,"ax",%progbits
 1617              		.align	1
 1618              		.global	ism330dhcx_mem_bank_set
 1619              		.syntax unified
 1620              		.thumb
 1621              		.thumb_func
 1623              	ism330dhcx_mem_bank_set:
 1624              		@ args = 0, pretend = 0, frame = 8
 1625              		@ frame_needed = 0, uses_anonymous_args = 0
 1626 0000 30B5     		push	{r4, r5, lr}
 1627 0002 83B0     		sub	sp, sp, #12
 1628 0004 0446     		mov	r4, r0
 1629 0006 0D46     		mov	r5, r1
 1630 0008 0123     		movs	r3, #1
 1631 000a 01AA     		add	r2, sp, #4
 1632 000c 1946     		mov	r1, r3
 1633 000e FFF7FEFF 		bl	ism330dhcx_read_reg
 1634 0012 08B1     		cbz	r0, .L213
 1635              	.L210:
 1636 0014 03B0     		add	sp, sp, #12
 1637              		@ sp needed
 1638 0016 30BD     		pop	{r4, r5, pc}
 1639              	.L213:
 1640 0018 9DF80430 		ldrb	r3, [sp, #4]	@ zero_extendqisi2
 1641 001c 65F38713 		bfi	r3, r5, #6, #2
 1642 0020 8DF80430 		strb	r3, [sp, #4]
 1643 0024 0123     		movs	r3, #1
 1644 0026 01AA     		add	r2, sp, #4
 1645 0028 1946     		mov	r1, r3
 1646 002a 2046     		mov	r0, r4
 1647 002c FFF7FEFF 		bl	ism330dhcx_write_reg
 1648 0030 F0E7     		b	.L210
ARM GAS  C:\Temp\ccOH3Pt6.s 			page 28


 1650              		.section	.text.ism330dhcx_all_sources_get,"ax",%progbits
 1651              		.align	1
 1652              		.global	ism330dhcx_all_sources_get
 1653              		.syntax unified
 1654              		.thumb
 1655              		.thumb_func
 1657              	ism330dhcx_all_sources_get:
 1658              		@ args = 0, pretend = 0, frame = 0
 1659              		@ frame_needed = 0, uses_anonymous_args = 0
 1660 0000 38B5     		push	{r3, r4, r5, lr}
 1661 0002 0546     		mov	r5, r0
 1662 0004 0C46     		mov	r4, r1
 1663 0006 0123     		movs	r3, #1
 1664 0008 0A46     		mov	r2, r1
 1665 000a 1A21     		movs	r1, #26
 1666 000c FFF7FEFF 		bl	ism330dhcx_read_reg
 1667 0010 0346     		mov	r3, r0
 1668 0012 10B1     		cbz	r0, .L218
 1669              	.L215:
 1670 0014 93B1     		cbz	r3, .L219
 1671              	.L214:
 1672 0016 1846     		mov	r0, r3
 1673 0018 38BD     		pop	{r3, r4, r5, pc}
 1674              	.L218:
 1675 001a 0123     		movs	r3, #1
 1676 001c E218     		adds	r2, r4, r3
 1677 001e 1B21     		movs	r1, #27
 1678 0020 2846     		mov	r0, r5
 1679 0022 FFF7FEFF 		bl	ism330dhcx_read_reg
 1680 0026 0346     		mov	r3, r0
 1681 0028 0028     		cmp	r0, #0
 1682 002a F4D1     		bne	.L214
 1683 002c 0123     		movs	r3, #1
 1684 002e A21C     		adds	r2, r4, #2
 1685 0030 1C21     		movs	r1, #28
 1686 0032 2846     		mov	r0, r5
 1687 0034 FFF7FEFF 		bl	ism330dhcx_read_reg
 1688 0038 0346     		mov	r3, r0
 1689 003a EBE7     		b	.L215
 1690              	.L219:
 1691 003c 0123     		movs	r3, #1
 1692 003e E21C     		adds	r2, r4, #3
 1693 0040 1D21     		movs	r1, #29
 1694 0042 2846     		mov	r0, r5
 1695 0044 FFF7FEFF 		bl	ism330dhcx_read_reg
 1696 0048 0346     		mov	r3, r0
 1697 004a 0028     		cmp	r0, #0
 1698 004c E3D1     		bne	.L214
 1699 004e 0123     		movs	r3, #1
 1700 0050 221D     		adds	r2, r4, #4
 1701 0052 1E21     		movs	r1, #30
 1702 0054 2846     		mov	r0, r5
 1703 0056 FFF7FEFF 		bl	ism330dhcx_read_reg
 1704 005a 0346     		mov	r3, r0
 1705 005c 0028     		cmp	r0, #0
 1706 005e DAD1     		bne	.L214
 1707 0060 0221     		movs	r1, #2
ARM GAS  C:\Temp\ccOH3Pt6.s 			page 29


 1708 0062 2846     		mov	r0, r5
 1709 0064 FFF7FEFF 		bl	ism330dhcx_mem_bank_set
 1710 0068 0346     		mov	r3, r0
 1711 006a 0028     		cmp	r0, #0
 1712 006c D3D1     		bne	.L214
 1713 006e 0123     		movs	r3, #1
 1714 0070 621D     		adds	r2, r4, #5
 1715 0072 1221     		movs	r1, #18
 1716 0074 2846     		mov	r0, r5
 1717 0076 FFF7FEFF 		bl	ism330dhcx_read_reg
 1718 007a 0346     		mov	r3, r0
 1719 007c 0028     		cmp	r0, #0
 1720 007e CAD1     		bne	.L214
 1721 0080 0123     		movs	r3, #1
 1722 0082 A21D     		adds	r2, r4, #6
 1723 0084 1321     		movs	r1, #19
 1724 0086 2846     		mov	r0, r5
 1725 0088 FFF7FEFF 		bl	ism330dhcx_read_reg
 1726 008c 0346     		mov	r3, r0
 1727 008e 0028     		cmp	r0, #0
 1728 0090 C1D1     		bne	.L214
 1729 0092 0123     		movs	r3, #1
 1730 0094 E21D     		adds	r2, r4, #7
 1731 0096 1421     		movs	r1, #20
 1732 0098 2846     		mov	r0, r5
 1733 009a FFF7FEFF 		bl	ism330dhcx_read_reg
 1734 009e 0346     		mov	r3, r0
 1735 00a0 0028     		cmp	r0, #0
 1736 00a2 B8D1     		bne	.L214
 1737 00a4 0021     		movs	r1, #0
 1738 00a6 2846     		mov	r0, r5
 1739 00a8 FFF7FEFF 		bl	ism330dhcx_mem_bank_set
 1740 00ac 0346     		mov	r3, r0
 1741 00ae B2E7     		b	.L214
 1743              		.section	.text.ism330dhcx_number_of_steps_get,"ax",%progbits
 1744              		.align	1
 1745              		.global	ism330dhcx_number_of_steps_get
 1746              		.syntax unified
 1747              		.thumb
 1748              		.thumb_func
 1750              	ism330dhcx_number_of_steps_get:
 1751              		@ args = 0, pretend = 0, frame = 8
 1752              		@ frame_needed = 0, uses_anonymous_args = 0
 1753 0000 30B5     		push	{r4, r5, lr}
 1754 0002 83B0     		sub	sp, sp, #12
 1755 0004 0546     		mov	r5, r0
 1756 0006 0C46     		mov	r4, r1
 1757 0008 0221     		movs	r1, #2
 1758 000a FFF7FEFF 		bl	ism330dhcx_mem_bank_set
 1759 000e 08B1     		cbz	r0, .L223
 1760              	.L220:
 1761 0010 03B0     		add	sp, sp, #12
 1762              		@ sp needed
 1763 0012 30BD     		pop	{r4, r5, pc}
 1764              	.L223:
 1765 0014 0223     		movs	r3, #2
 1766 0016 01AA     		add	r2, sp, #4
ARM GAS  C:\Temp\ccOH3Pt6.s 			page 30


 1767 0018 6221     		movs	r1, #98
 1768 001a 2846     		mov	r0, r5
 1769 001c FFF7FEFF 		bl	ism330dhcx_read_reg
 1770 0020 9DF80510 		ldrb	r1, [sp, #5]	@ zero_extendqisi2
 1771 0024 2180     		strh	r1, [r4]	@ movhi
 1772 0026 9DF80430 		ldrb	r3, [sp, #4]	@ zero_extendqisi2
 1773 002a 03EB0123 		add	r3, r3, r1, lsl #8
 1774 002e 2380     		strh	r3, [r4]	@ movhi
 1775 0030 0028     		cmp	r0, #0
 1776 0032 EDD1     		bne	.L220
 1777 0034 0021     		movs	r1, #0
 1778 0036 2846     		mov	r0, r5
 1779 0038 FFF7FEFF 		bl	ism330dhcx_mem_bank_set
 1780 003c E8E7     		b	.L220
 1782              		.section	.text.ism330dhcx_steps_reset,"ax",%progbits
 1783              		.align	1
 1784              		.global	ism330dhcx_steps_reset
 1785              		.syntax unified
 1786              		.thumb
 1787              		.thumb_func
 1789              	ism330dhcx_steps_reset:
 1790              		@ args = 0, pretend = 0, frame = 8
 1791              		@ frame_needed = 0, uses_anonymous_args = 0
 1792 0000 10B5     		push	{r4, lr}
 1793 0002 82B0     		sub	sp, sp, #8
 1794 0004 0446     		mov	r4, r0
 1795 0006 0221     		movs	r1, #2
 1796 0008 FFF7FEFF 		bl	ism330dhcx_mem_bank_set
 1797 000c 0346     		mov	r3, r0
 1798 000e 18B1     		cbz	r0, .L228
 1799              	.L225:
 1800 0010 CBB1     		cbz	r3, .L229
 1801              	.L224:
 1802 0012 1846     		mov	r0, r3
 1803 0014 02B0     		add	sp, sp, #8
 1804              		@ sp needed
 1805 0016 10BD     		pop	{r4, pc}
 1806              	.L228:
 1807 0018 0123     		movs	r3, #1
 1808 001a 01AA     		add	r2, sp, #4
 1809 001c 6421     		movs	r1, #100
 1810 001e 2046     		mov	r0, r4
 1811 0020 FFF7FEFF 		bl	ism330dhcx_read_reg
 1812 0024 0346     		mov	r3, r0
 1813 0026 0028     		cmp	r0, #0
 1814 0028 F3D1     		bne	.L224
 1815 002a 9DF80430 		ldrb	r3, [sp, #4]	@ zero_extendqisi2
 1816 002e 43F08003 		orr	r3, r3, #128
 1817 0032 8DF80430 		strb	r3, [sp, #4]
 1818 0036 0123     		movs	r3, #1
 1819 0038 01AA     		add	r2, sp, #4
 1820 003a 6421     		movs	r1, #100
 1821 003c 2046     		mov	r0, r4
 1822 003e FFF7FEFF 		bl	ism330dhcx_write_reg
 1823 0042 0346     		mov	r3, r0
 1824 0044 E4E7     		b	.L225
 1825              	.L229:
ARM GAS  C:\Temp\ccOH3Pt6.s 			page 31


 1826 0046 0021     		movs	r1, #0
 1827 0048 2046     		mov	r0, r4
 1828 004a FFF7FEFF 		bl	ism330dhcx_mem_bank_set
 1829 004e 0346     		mov	r3, r0
 1830 0050 DFE7     		b	.L224
 1832              		.section	.text.ism330dhcx_mlc_out_get,"ax",%progbits
 1833              		.align	1
 1834              		.global	ism330dhcx_mlc_out_get
 1835              		.syntax unified
 1836              		.thumb
 1837              		.thumb_func
 1839              	ism330dhcx_mlc_out_get:
 1840              		@ args = 0, pretend = 0, frame = 0
 1841              		@ frame_needed = 0, uses_anonymous_args = 0
 1842 0000 38B5     		push	{r3, r4, r5, lr}
 1843 0002 0446     		mov	r4, r0
 1844 0004 0D46     		mov	r5, r1
 1845 0006 0221     		movs	r1, #2
 1846 0008 FFF7FEFF 		bl	ism330dhcx_mem_bank_set
 1847 000c 00B1     		cbz	r0, .L233
 1848              	.L230:
 1849 000e 38BD     		pop	{r3, r4, r5, pc}
 1850              	.L233:
 1851 0010 0823     		movs	r3, #8
 1852 0012 2A46     		mov	r2, r5
 1853 0014 7021     		movs	r1, #112
 1854 0016 2046     		mov	r0, r4
 1855 0018 FFF7FEFF 		bl	ism330dhcx_read_reg
 1856 001c 0028     		cmp	r0, #0
 1857 001e F6D1     		bne	.L230
 1858 0020 0021     		movs	r1, #0
 1859 0022 2046     		mov	r0, r4
 1860 0024 FFF7FEFF 		bl	ism330dhcx_mem_bank_set
 1861 0028 F1E7     		b	.L230
 1863              		.section	.text.ism330dhcx_mem_bank_get,"ax",%progbits
 1864              		.align	1
 1865              		.global	ism330dhcx_mem_bank_get
 1866              		.syntax unified
 1867              		.thumb
 1868              		.thumb_func
 1870              	ism330dhcx_mem_bank_get:
 1871              		@ args = 0, pretend = 0, frame = 8
 1872              		@ frame_needed = 0, uses_anonymous_args = 0
 1873 0000 10B5     		push	{r4, lr}
 1874 0002 82B0     		sub	sp, sp, #8
 1875 0004 0C46     		mov	r4, r1
 1876 0006 0123     		movs	r3, #1
 1877 0008 01AA     		add	r2, sp, #4
 1878 000a 1946     		mov	r1, r3
 1879 000c FFF7FEFF 		bl	ism330dhcx_read_reg
 1880 0010 9DF80430 		ldrb	r3, [sp, #4]	@ zero_extendqisi2
 1881 0014 9B09     		lsrs	r3, r3, #6
 1882 0016 012B     		cmp	r3, #1
 1883 0018 08D0     		beq	.L235
 1884 001a 022B     		cmp	r3, #2
 1885 001c 09D0     		beq	.L236
 1886 001e 13B1     		cbz	r3, .L240
ARM GAS  C:\Temp\ccOH3Pt6.s 			page 32


 1887 0020 0023     		movs	r3, #0
 1888 0022 2370     		strb	r3, [r4]
 1889 0024 00E0     		b	.L234
 1890              	.L240:
 1891 0026 2370     		strb	r3, [r4]
 1892              	.L234:
 1893 0028 02B0     		add	sp, sp, #8
 1894              		@ sp needed
 1895 002a 10BD     		pop	{r4, pc}
 1896              	.L235:
 1897 002c 0123     		movs	r3, #1
 1898 002e 2370     		strb	r3, [r4]
 1899 0030 FAE7     		b	.L234
 1900              	.L236:
 1901 0032 0223     		movs	r3, #2
 1902 0034 2370     		strb	r3, [r4]
 1903 0036 F7E7     		b	.L234
 1905              		.section	.text.ism330dhcx_ln_pg_write_byte,"ax",%progbits
 1906              		.align	1
 1907              		.global	ism330dhcx_ln_pg_write_byte
 1908              		.syntax unified
 1909              		.thumb
 1910              		.thumb_func
 1912              	ism330dhcx_ln_pg_write_byte:
 1913              		@ args = 0, pretend = 0, frame = 16
 1914              		@ frame_needed = 0, uses_anonymous_args = 0
 1915 0000 70B5     		push	{r4, r5, r6, lr}
 1916 0002 84B0     		sub	sp, sp, #16
 1917 0004 0646     		mov	r6, r0
 1918 0006 0D46     		mov	r5, r1
 1919 0008 1446     		mov	r4, r2
 1920 000a 0221     		movs	r1, #2
 1921 000c FFF7FEFF 		bl	ism330dhcx_mem_bank_set
 1922 0010 0346     		mov	r3, r0
 1923 0012 18B1     		cbz	r0, .L245
 1924              	.L242:
 1925 0014 D3B1     		cbz	r3, .L246
 1926              	.L241:
 1927 0016 1846     		mov	r0, r3
 1928 0018 04B0     		add	sp, sp, #16
 1929              		@ sp needed
 1930 001a 70BD     		pop	{r4, r5, r6, pc}
 1931              	.L245:
 1932 001c 0123     		movs	r3, #1
 1933 001e 03AA     		add	r2, sp, #12
 1934 0020 1721     		movs	r1, #23
 1935 0022 3046     		mov	r0, r6
 1936 0024 FFF7FEFF 		bl	ism330dhcx_read_reg
 1937 0028 0346     		mov	r3, r0
 1938 002a 0028     		cmp	r0, #0
 1939 002c F3D1     		bne	.L241
 1940 002e 9DF80C30 		ldrb	r3, [sp, #12]	@ zero_extendqisi2
 1941 0032 0222     		movs	r2, #2
 1942 0034 62F34613 		bfi	r3, r2, #5, #2
 1943 0038 8DF80C30 		strb	r3, [sp, #12]
 1944 003c 0123     		movs	r3, #1
 1945 003e 03AA     		add	r2, sp, #12
ARM GAS  C:\Temp\ccOH3Pt6.s 			page 33


 1946 0040 1721     		movs	r1, #23
 1947 0042 3046     		mov	r0, r6
 1948 0044 FFF7FEFF 		bl	ism330dhcx_write_reg
 1949 0048 0346     		mov	r3, r0
 1950 004a E3E7     		b	.L242
 1951              	.L246:
 1952 004c 0123     		movs	r3, #1
 1953 004e 02AA     		add	r2, sp, #8
 1954 0050 0221     		movs	r1, #2
 1955 0052 3046     		mov	r0, r6
 1956 0054 FFF7FEFF 		bl	ism330dhcx_read_reg
 1957 0058 0346     		mov	r3, r0
 1958 005a 0028     		cmp	r0, #0
 1959 005c DBD1     		bne	.L241
 1960 005e C5F30323 		ubfx	r3, r5, #8, #4
 1961 0062 9DF80820 		ldrb	r2, [sp, #8]	@ zero_extendqisi2
 1962 0066 63F30712 		bfi	r2, r3, #4, #4
 1963 006a 8DF80820 		strb	r2, [sp, #8]
 1964 006e D2B2     		uxtb	r2, r2
 1965 0070 0123     		movs	r3, #1
 1966 0072 63F30302 		bfi	r2, r3, #0, #4
 1967 0076 8DF80820 		strb	r2, [sp, #8]
 1968 007a 02AA     		add	r2, sp, #8
 1969 007c 0221     		movs	r1, #2
 1970 007e 3046     		mov	r0, r6
 1971 0080 FFF7FEFF 		bl	ism330dhcx_write_reg
 1972 0084 0346     		mov	r3, r0
 1973 0086 0028     		cmp	r0, #0
 1974 0088 C5D1     		bne	.L241
 1975 008a 8DF80450 		strb	r5, [sp, #4]
 1976 008e 0123     		movs	r3, #1
 1977 0090 01AA     		add	r2, sp, #4
 1978 0092 0821     		movs	r1, #8
 1979 0094 3046     		mov	r0, r6
 1980 0096 FFF7FEFF 		bl	ism330dhcx_write_reg
 1981 009a 0346     		mov	r3, r0
 1982 009c 0028     		cmp	r0, #0
 1983 009e BAD1     		bne	.L241
 1984 00a0 0123     		movs	r3, #1
 1985 00a2 2246     		mov	r2, r4
 1986 00a4 0921     		movs	r1, #9
 1987 00a6 3046     		mov	r0, r6
 1988 00a8 FFF7FEFF 		bl	ism330dhcx_write_reg
 1989 00ac 0346     		mov	r3, r0
 1990 00ae 0028     		cmp	r0, #0
 1991 00b0 B1D1     		bne	.L241
 1992 00b2 0123     		movs	r3, #1
 1993 00b4 03AA     		add	r2, sp, #12
 1994 00b6 1721     		movs	r1, #23
 1995 00b8 3046     		mov	r0, r6
 1996 00ba FFF7FEFF 		bl	ism330dhcx_read_reg
 1997 00be 0346     		mov	r3, r0
 1998 00c0 0028     		cmp	r0, #0
 1999 00c2 A8D1     		bne	.L241
 2000 00c4 9DF80C30 		ldrb	r3, [sp, #12]	@ zero_extendqisi2
 2001 00c8 6FF34613 		bfc	r3, #5, #2
 2002 00cc 8DF80C30 		strb	r3, [sp, #12]
ARM GAS  C:\Temp\ccOH3Pt6.s 			page 34


 2003 00d0 0123     		movs	r3, #1
 2004 00d2 03AA     		add	r2, sp, #12
 2005 00d4 1721     		movs	r1, #23
 2006 00d6 3046     		mov	r0, r6
 2007 00d8 FFF7FEFF 		bl	ism330dhcx_write_reg
 2008 00dc 0346     		mov	r3, r0
 2009 00de 0028     		cmp	r0, #0
 2010 00e0 99D1     		bne	.L241
 2011 00e2 0021     		movs	r1, #0
 2012 00e4 3046     		mov	r0, r6
 2013 00e6 FFF7FEFF 		bl	ism330dhcx_mem_bank_set
 2014 00ea 0346     		mov	r3, r0
 2015 00ec 93E7     		b	.L241
 2017              		.section	.text.ism330dhcx_ln_pg_write,"ax",%progbits
 2018              		.align	1
 2019              		.global	ism330dhcx_ln_pg_write
 2020              		.syntax unified
 2021              		.thumb
 2022              		.thumb_func
 2024              	ism330dhcx_ln_pg_write:
 2025              		@ args = 0, pretend = 0, frame = 16
 2026              		@ frame_needed = 0, uses_anonymous_args = 0
 2027 0000 2DE9F043 		push	{r4, r5, r6, r7, r8, r9, lr}
 2028 0004 85B0     		sub	sp, sp, #20
 2029 0006 0746     		mov	r7, r0
 2030 0008 9046     		mov	r8, r2
 2031 000a 1E46     		mov	r6, r3
 2032 000c 0C0A     		lsrs	r4, r1, #8
 2033 000e C1F30329 		ubfx	r9, r1, #8, #4
 2034 0012 CDB2     		uxtb	r5, r1
 2035 0014 0221     		movs	r1, #2
 2036 0016 FFF7FEFF 		bl	ism330dhcx_mem_bank_set
 2037 001a 0146     		mov	r1, r0
 2038 001c 10B1     		cbz	r0, .L257
 2039              	.L248:
 2040 001e C9B1     		cbz	r1, .L258
 2041              	.L249:
 2042 0020 0024     		movs	r4, #0
 2043 0022 43E0     		b	.L250
 2044              	.L257:
 2045 0024 0123     		movs	r3, #1
 2046 0026 03AA     		add	r2, sp, #12
 2047 0028 1721     		movs	r1, #23
 2048 002a 3846     		mov	r0, r7
 2049 002c FFF7FEFF 		bl	ism330dhcx_read_reg
 2050 0030 0146     		mov	r1, r0
 2051 0032 0028     		cmp	r0, #0
 2052 0034 F4D1     		bne	.L249
 2053 0036 9DF80C30 		ldrb	r3, [sp, #12]	@ zero_extendqisi2
 2054 003a 0222     		movs	r2, #2
 2055 003c 62F34613 		bfi	r3, r2, #5, #2
 2056 0040 8DF80C30 		strb	r3, [sp, #12]
 2057 0044 0123     		movs	r3, #1
 2058 0046 03AA     		add	r2, sp, #12
 2059 0048 1721     		movs	r1, #23
 2060 004a 3846     		mov	r0, r7
 2061 004c FFF7FEFF 		bl	ism330dhcx_write_reg
ARM GAS  C:\Temp\ccOH3Pt6.s 			page 35


 2062 0050 0146     		mov	r1, r0
 2063 0052 E4E7     		b	.L248
 2064              	.L258:
 2065 0054 0123     		movs	r3, #1
 2066 0056 02AA     		add	r2, sp, #8
 2067 0058 0221     		movs	r1, #2
 2068 005a 3846     		mov	r0, r7
 2069 005c FFF7FEFF 		bl	ism330dhcx_read_reg
 2070 0060 0146     		mov	r1, r0
 2071 0062 0028     		cmp	r0, #0
 2072 0064 DCD1     		bne	.L249
 2073 0066 9DF80830 		ldrb	r3, [sp, #8]	@ zero_extendqisi2
 2074 006a 64F30713 		bfi	r3, r4, #4, #4
 2075 006e 8DF80830 		strb	r3, [sp, #8]
 2076 0072 DAB2     		uxtb	r2, r3
 2077 0074 0123     		movs	r3, #1
 2078 0076 63F30302 		bfi	r2, r3, #0, #4
 2079 007a 8DF80820 		strb	r2, [sp, #8]
 2080 007e 02AA     		add	r2, sp, #8
 2081 0080 0221     		movs	r1, #2
 2082 0082 3846     		mov	r0, r7
 2083 0084 FFF7FEFF 		bl	ism330dhcx_write_reg
 2084 0088 0146     		mov	r1, r0
 2085 008a 0028     		cmp	r0, #0
 2086 008c C8D1     		bne	.L249
 2087 008e 8DF80450 		strb	r5, [sp, #4]
 2088 0092 0123     		movs	r3, #1
 2089 0094 01AA     		add	r2, sp, #4
 2090 0096 0821     		movs	r1, #8
 2091 0098 3846     		mov	r0, r7
 2092 009a FFF7FEFF 		bl	ism330dhcx_write_reg
 2093 009e 0146     		mov	r1, r0
 2094 00a0 BEE7     		b	.L249
 2095              	.L253:
 2096 00a2 0135     		adds	r5, r5, #1
 2097 00a4 EDB2     		uxtb	r5, r5
 2098              	.L252:
 2099 00a6 E9B1     		cbz	r1, .L259
 2100              	.L251:
 2101 00a8 0134     		adds	r4, r4, #1
 2102 00aa E4B2     		uxtb	r4, r4
 2103              	.L250:
 2104 00ac B442     		cmp	r4, r6
 2105 00ae 2CD2     		bcs	.L260
 2106 00b0 0029     		cmp	r1, #0
 2107 00b2 F9D1     		bne	.L251
 2108 00b4 0123     		movs	r3, #1
 2109 00b6 08EB0402 		add	r2, r8, r4
 2110 00ba 0921     		movs	r1, #9
 2111 00bc 3846     		mov	r0, r7
 2112 00be FFF7FEFF 		bl	ism330dhcx_write_reg
 2113 00c2 0146     		mov	r1, r0
 2114 00c4 0028     		cmp	r0, #0
 2115 00c6 EED1     		bne	.L252
 2116 00c8 002D     		cmp	r5, #0
 2117 00ca EAD1     		bne	.L253
 2118 00cc 09F10109 		add	r9, r9, #1
ARM GAS  C:\Temp\ccOH3Pt6.s 			page 36


 2119 00d0 5FFA89F9 		uxtb	r9, r9
 2120 00d4 0123     		movs	r3, #1
 2121 00d6 02AA     		add	r2, sp, #8
 2122 00d8 0221     		movs	r1, #2
 2123 00da 3846     		mov	r0, r7
 2124 00dc FFF7FEFF 		bl	ism330dhcx_read_reg
 2125 00e0 0146     		mov	r1, r0
 2126 00e2 DEE7     		b	.L253
 2127              	.L259:
 2128 00e4 9DF80830 		ldrb	r3, [sp, #8]	@ zero_extendqisi2
 2129 00e8 69F30713 		bfi	r3, r9, #4, #4
 2130 00ec 8DF80830 		strb	r3, [sp, #8]
 2131 00f0 DAB2     		uxtb	r2, r3
 2132 00f2 0123     		movs	r3, #1
 2133 00f4 63F30302 		bfi	r2, r3, #0, #4
 2134 00f8 8DF80820 		strb	r2, [sp, #8]
 2135 00fc 02AA     		add	r2, sp, #8
 2136 00fe 0221     		movs	r1, #2
 2137 0100 3846     		mov	r0, r7
 2138 0102 FFF7FEFF 		bl	ism330dhcx_write_reg
 2139 0106 0146     		mov	r1, r0
 2140 0108 CEE7     		b	.L251
 2141              	.L260:
 2142 010a 19B1     		cbz	r1, .L261
 2143              	.L247:
 2144 010c 0846     		mov	r0, r1
 2145 010e 05B0     		add	sp, sp, #20
 2146              		@ sp needed
 2147 0110 BDE8F083 		pop	{r4, r5, r6, r7, r8, r9, pc}
 2148              	.L261:
 2149 0114 9DF80830 		ldrb	r3, [sp, #8]	@ zero_extendqisi2
 2150 0118 6FF30713 		bfc	r3, #4, #4
 2151 011c 8DF80830 		strb	r3, [sp, #8]
 2152 0120 DAB2     		uxtb	r2, r3
 2153 0122 0123     		movs	r3, #1
 2154 0124 63F30302 		bfi	r2, r3, #0, #4
 2155 0128 8DF80820 		strb	r2, [sp, #8]
 2156 012c 02AA     		add	r2, sp, #8
 2157 012e 0221     		movs	r1, #2
 2158 0130 3846     		mov	r0, r7
 2159 0132 FFF7FEFF 		bl	ism330dhcx_write_reg
 2160 0136 0146     		mov	r1, r0
 2161 0138 0028     		cmp	r0, #0
 2162 013a E7D1     		bne	.L247
 2163 013c 0123     		movs	r3, #1
 2164 013e 03AA     		add	r2, sp, #12
 2165 0140 1721     		movs	r1, #23
 2166 0142 3846     		mov	r0, r7
 2167 0144 FFF7FEFF 		bl	ism330dhcx_read_reg
 2168 0148 0146     		mov	r1, r0
 2169 014a 0028     		cmp	r0, #0
 2170 014c DED1     		bne	.L247
 2171 014e 9DF80C30 		ldrb	r3, [sp, #12]	@ zero_extendqisi2
 2172 0152 6FF34613 		bfc	r3, #5, #2
 2173 0156 8DF80C30 		strb	r3, [sp, #12]
 2174 015a 0123     		movs	r3, #1
 2175 015c 03AA     		add	r2, sp, #12
ARM GAS  C:\Temp\ccOH3Pt6.s 			page 37


 2176 015e 1721     		movs	r1, #23
 2177 0160 3846     		mov	r0, r7
 2178 0162 FFF7FEFF 		bl	ism330dhcx_write_reg
 2179 0166 0146     		mov	r1, r0
 2180 0168 0028     		cmp	r0, #0
 2181 016a CFD1     		bne	.L247
 2182 016c 0021     		movs	r1, #0
 2183 016e 3846     		mov	r0, r7
 2184 0170 FFF7FEFF 		bl	ism330dhcx_mem_bank_set
 2185 0174 0146     		mov	r1, r0
 2186 0176 C9E7     		b	.L247
 2188              		.section	.text.ism330dhcx_ln_pg_read_byte,"ax",%progbits
 2189              		.align	1
 2190              		.global	ism330dhcx_ln_pg_read_byte
 2191              		.syntax unified
 2192              		.thumb
 2193              		.thumb_func
 2195              	ism330dhcx_ln_pg_read_byte:
 2196              		@ args = 0, pretend = 0, frame = 16
 2197              		@ frame_needed = 0, uses_anonymous_args = 0
 2198 0000 70B5     		push	{r4, r5, r6, lr}
 2199 0002 84B0     		sub	sp, sp, #16
 2200 0004 0646     		mov	r6, r0
 2201 0006 0D46     		mov	r5, r1
 2202 0008 1446     		mov	r4, r2
 2203 000a 0221     		movs	r1, #2
 2204 000c FFF7FEFF 		bl	ism330dhcx_mem_bank_set
 2205 0010 0346     		mov	r3, r0
 2206 0012 18B1     		cbz	r0, .L266
 2207              	.L263:
 2208 0014 CBB1     		cbz	r3, .L267
 2209              	.L262:
 2210 0016 1846     		mov	r0, r3
 2211 0018 04B0     		add	sp, sp, #16
 2212              		@ sp needed
 2213 001a 70BD     		pop	{r4, r5, r6, pc}
 2214              	.L266:
 2215 001c 0123     		movs	r3, #1
 2216 001e 03AA     		add	r2, sp, #12
 2217 0020 1721     		movs	r1, #23
 2218 0022 3046     		mov	r0, r6
 2219 0024 FFF7FEFF 		bl	ism330dhcx_read_reg
 2220 0028 0346     		mov	r3, r0
 2221 002a 0028     		cmp	r0, #0
 2222 002c F3D1     		bne	.L262
 2223 002e 9DF80C20 		ldrb	r2, [sp, #12]	@ zero_extendqisi2
 2224 0032 0123     		movs	r3, #1
 2225 0034 63F34612 		bfi	r2, r3, #5, #2
 2226 0038 8DF80C20 		strb	r2, [sp, #12]
 2227 003c 03AA     		add	r2, sp, #12
 2228 003e 1721     		movs	r1, #23
 2229 0040 3046     		mov	r0, r6
 2230 0042 FFF7FEFF 		bl	ism330dhcx_write_reg
 2231 0046 0346     		mov	r3, r0
 2232 0048 E4E7     		b	.L263
 2233              	.L267:
 2234 004a 0123     		movs	r3, #1
ARM GAS  C:\Temp\ccOH3Pt6.s 			page 38


 2235 004c 02AA     		add	r2, sp, #8
 2236 004e 0221     		movs	r1, #2
 2237 0050 3046     		mov	r0, r6
 2238 0052 FFF7FEFF 		bl	ism330dhcx_read_reg
 2239 0056 0346     		mov	r3, r0
 2240 0058 0028     		cmp	r0, #0
 2241 005a DCD1     		bne	.L262
 2242 005c C5F30323 		ubfx	r3, r5, #8, #4
 2243 0060 9DF80820 		ldrb	r2, [sp, #8]	@ zero_extendqisi2
 2244 0064 63F30712 		bfi	r2, r3, #4, #4
 2245 0068 8DF80820 		strb	r2, [sp, #8]
 2246 006c D2B2     		uxtb	r2, r2
 2247 006e 0123     		movs	r3, #1
 2248 0070 63F30302 		bfi	r2, r3, #0, #4
 2249 0074 8DF80820 		strb	r2, [sp, #8]
 2250 0078 02AA     		add	r2, sp, #8
 2251 007a 0221     		movs	r1, #2
 2252 007c 3046     		mov	r0, r6
 2253 007e FFF7FEFF 		bl	ism330dhcx_write_reg
 2254 0082 0346     		mov	r3, r0
 2255 0084 0028     		cmp	r0, #0
 2256 0086 C6D1     		bne	.L262
 2257 0088 8DF80450 		strb	r5, [sp, #4]
 2258 008c 0123     		movs	r3, #1
 2259 008e 01AA     		add	r2, sp, #4
 2260 0090 0821     		movs	r1, #8
 2261 0092 3046     		mov	r0, r6
 2262 0094 FFF7FEFF 		bl	ism330dhcx_write_reg
 2263 0098 0346     		mov	r3, r0
 2264 009a 0028     		cmp	r0, #0
 2265 009c BBD1     		bne	.L262
 2266 009e 0223     		movs	r3, #2
 2267 00a0 2246     		mov	r2, r4
 2268 00a2 0921     		movs	r1, #9
 2269 00a4 3046     		mov	r0, r6
 2270 00a6 FFF7FEFF 		bl	ism330dhcx_read_reg
 2271 00aa 0346     		mov	r3, r0
 2272 00ac 0028     		cmp	r0, #0
 2273 00ae B2D1     		bne	.L262
 2274 00b0 0123     		movs	r3, #1
 2275 00b2 03AA     		add	r2, sp, #12
 2276 00b4 1721     		movs	r1, #23
 2277 00b6 3046     		mov	r0, r6
 2278 00b8 FFF7FEFF 		bl	ism330dhcx_read_reg
 2279 00bc 0346     		mov	r3, r0
 2280 00be 0028     		cmp	r0, #0
 2281 00c0 A9D1     		bne	.L262
 2282 00c2 9DF80C30 		ldrb	r3, [sp, #12]	@ zero_extendqisi2
 2283 00c6 6FF34613 		bfc	r3, #5, #2
 2284 00ca 8DF80C30 		strb	r3, [sp, #12]
 2285 00ce 0123     		movs	r3, #1
 2286 00d0 03AA     		add	r2, sp, #12
 2287 00d2 1721     		movs	r1, #23
 2288 00d4 3046     		mov	r0, r6
 2289 00d6 FFF7FEFF 		bl	ism330dhcx_write_reg
 2290 00da 0346     		mov	r3, r0
 2291 00dc 0028     		cmp	r0, #0
ARM GAS  C:\Temp\ccOH3Pt6.s 			page 39


 2292 00de 9AD1     		bne	.L262
 2293 00e0 0021     		movs	r1, #0
 2294 00e2 3046     		mov	r0, r6
 2295 00e4 FFF7FEFF 		bl	ism330dhcx_mem_bank_set
 2296 00e8 0346     		mov	r3, r0
 2297 00ea 94E7     		b	.L262
 2299              		.section	.text.ism330dhcx_data_ready_mode_set,"ax",%progbits
 2300              		.align	1
 2301              		.global	ism330dhcx_data_ready_mode_set
 2302              		.syntax unified
 2303              		.thumb
 2304              		.thumb_func
 2306              	ism330dhcx_data_ready_mode_set:
 2307              		@ args = 0, pretend = 0, frame = 8
 2308              		@ frame_needed = 0, uses_anonymous_args = 0
 2309 0000 30B5     		push	{r4, r5, lr}
 2310 0002 83B0     		sub	sp, sp, #12
 2311 0004 0446     		mov	r4, r0
 2312 0006 0D46     		mov	r5, r1
 2313 0008 0123     		movs	r3, #1
 2314 000a 01AA     		add	r2, sp, #4
 2315 000c 0B21     		movs	r1, #11
 2316 000e FFF7FEFF 		bl	ism330dhcx_read_reg
 2317 0012 08B1     		cbz	r0, .L271
 2318              	.L268:
 2319 0014 03B0     		add	sp, sp, #12
 2320              		@ sp needed
 2321 0016 30BD     		pop	{r4, r5, pc}
 2322              	.L271:
 2323 0018 9DF80430 		ldrb	r3, [sp, #4]	@ zero_extendqisi2
 2324 001c 65F3C713 		bfi	r3, r5, #7, #1
 2325 0020 8DF80430 		strb	r3, [sp, #4]
 2326 0024 0123     		movs	r3, #1
 2327 0026 01AA     		add	r2, sp, #4
 2328 0028 0B21     		movs	r1, #11
 2329 002a 2046     		mov	r0, r4
 2330 002c FFF7FEFF 		bl	ism330dhcx_write_reg
 2331 0030 F0E7     		b	.L268
 2333              		.section	.text.ism330dhcx_data_ready_mode_get,"ax",%progbits
 2334              		.align	1
 2335              		.global	ism330dhcx_data_ready_mode_get
 2336              		.syntax unified
 2337              		.thumb
 2338              		.thumb_func
 2340              	ism330dhcx_data_ready_mode_get:
 2341              		@ args = 0, pretend = 0, frame = 8
 2342              		@ frame_needed = 0, uses_anonymous_args = 0
 2343 0000 10B5     		push	{r4, lr}
 2344 0002 82B0     		sub	sp, sp, #8
 2345 0004 0C46     		mov	r4, r1
 2346 0006 0123     		movs	r3, #1
 2347 0008 01AA     		add	r2, sp, #4
 2348 000a 0B21     		movs	r1, #11
 2349 000c FFF7FEFF 		bl	ism330dhcx_read_reg
 2350 0010 9DF80430 		ldrb	r3, [sp, #4]	@ zero_extendqisi2
 2351 0014 DB09     		lsrs	r3, r3, #7
 2352 0016 03D0     		beq	.L273
ARM GAS  C:\Temp\ccOH3Pt6.s 			page 40


 2353 0018 33B9     		cbnz	r3, .L274
 2354 001a 0023     		movs	r3, #0
 2355 001c 2370     		strb	r3, [r4]
 2356 001e 01E0     		b	.L272
 2357              	.L273:
 2358 0020 0023     		movs	r3, #0
 2359 0022 2370     		strb	r3, [r4]
 2360              	.L272:
 2361 0024 02B0     		add	sp, sp, #8
 2362              		@ sp needed
 2363 0026 10BD     		pop	{r4, pc}
 2364              	.L274:
 2365 0028 0123     		movs	r3, #1
 2366 002a 2370     		strb	r3, [r4]
 2367 002c FAE7     		b	.L272
 2369              		.section	.text.ism330dhcx_device_id_get,"ax",%progbits
 2370              		.align	1
 2371              		.global	ism330dhcx_device_id_get
 2372              		.syntax unified
 2373              		.thumb
 2374              		.thumb_func
 2376              	ism330dhcx_device_id_get:
 2377              		@ args = 0, pretend = 0, frame = 0
 2378              		@ frame_needed = 0, uses_anonymous_args = 0
 2379 0000 08B5     		push	{r3, lr}
 2380 0002 0A46     		mov	r2, r1
 2381 0004 0123     		movs	r3, #1
 2382 0006 0F21     		movs	r1, #15
 2383 0008 FFF7FEFF 		bl	ism330dhcx_read_reg
 2384 000c 08BD     		pop	{r3, pc}
 2386              		.section	.text.ism330dhcx_reset_set,"ax",%progbits
 2387              		.align	1
 2388              		.global	ism330dhcx_reset_set
 2389              		.syntax unified
 2390              		.thumb
 2391              		.thumb_func
 2393              	ism330dhcx_reset_set:
 2394              		@ args = 0, pretend = 0, frame = 8
 2395              		@ frame_needed = 0, uses_anonymous_args = 0
 2396 0000 30B5     		push	{r4, r5, lr}
 2397 0002 83B0     		sub	sp, sp, #12
 2398 0004 0446     		mov	r4, r0
 2399 0006 0D46     		mov	r5, r1
 2400 0008 0123     		movs	r3, #1
 2401 000a 01AA     		add	r2, sp, #4
 2402 000c 1221     		movs	r1, #18
 2403 000e FFF7FEFF 		bl	ism330dhcx_read_reg
 2404 0012 08B1     		cbz	r0, .L284
 2405              	.L281:
 2406 0014 03B0     		add	sp, sp, #12
 2407              		@ sp needed
 2408 0016 30BD     		pop	{r4, r5, pc}
 2409              	.L284:
 2410 0018 9DF80430 		ldrb	r3, [sp, #4]	@ zero_extendqisi2
 2411 001c 65F30003 		bfi	r3, r5, #0, #1
 2412 0020 8DF80430 		strb	r3, [sp, #4]
 2413 0024 0123     		movs	r3, #1
ARM GAS  C:\Temp\ccOH3Pt6.s 			page 41


 2414 0026 01AA     		add	r2, sp, #4
 2415 0028 1221     		movs	r1, #18
 2416 002a 2046     		mov	r0, r4
 2417 002c FFF7FEFF 		bl	ism330dhcx_write_reg
 2418 0030 F0E7     		b	.L281
 2420              		.section	.text.ism330dhcx_reset_get,"ax",%progbits
 2421              		.align	1
 2422              		.global	ism330dhcx_reset_get
 2423              		.syntax unified
 2424              		.thumb
 2425              		.thumb_func
 2427              	ism330dhcx_reset_get:
 2428              		@ args = 0, pretend = 0, frame = 8
 2429              		@ frame_needed = 0, uses_anonymous_args = 0
 2430 0000 10B5     		push	{r4, lr}
 2431 0002 82B0     		sub	sp, sp, #8
 2432 0004 0C46     		mov	r4, r1
 2433 0006 0123     		movs	r3, #1
 2434 0008 01AA     		add	r2, sp, #4
 2435 000a 1221     		movs	r1, #18
 2436 000c FFF7FEFF 		bl	ism330dhcx_read_reg
 2437 0010 9DF80430 		ldrb	r3, [sp, #4]	@ zero_extendqisi2
 2438 0014 C3F30003 		ubfx	r3, r3, #0, #1
 2439 0018 2370     		strb	r3, [r4]
 2440 001a 02B0     		add	sp, sp, #8
 2441              		@ sp needed
 2442 001c 10BD     		pop	{r4, pc}
 2444              		.section	.text.ism330dhcx_auto_increment_set,"ax",%progbits
 2445              		.align	1
 2446              		.global	ism330dhcx_auto_increment_set
 2447              		.syntax unified
 2448              		.thumb
 2449              		.thumb_func
 2451              	ism330dhcx_auto_increment_set:
 2452              		@ args = 0, pretend = 0, frame = 8
 2453              		@ frame_needed = 0, uses_anonymous_args = 0
 2454 0000 30B5     		push	{r4, r5, lr}
 2455 0002 83B0     		sub	sp, sp, #12
 2456 0004 0446     		mov	r4, r0
 2457 0006 0D46     		mov	r5, r1
 2458 0008 0123     		movs	r3, #1
 2459 000a 01AA     		add	r2, sp, #4
 2460 000c 1221     		movs	r1, #18
 2461 000e FFF7FEFF 		bl	ism330dhcx_read_reg
 2462 0012 08B1     		cbz	r0, .L290
 2463              	.L287:
 2464 0014 03B0     		add	sp, sp, #12
 2465              		@ sp needed
 2466 0016 30BD     		pop	{r4, r5, pc}
 2467              	.L290:
 2468 0018 9DF80430 		ldrb	r3, [sp, #4]	@ zero_extendqisi2
 2469 001c 65F38203 		bfi	r3, r5, #2, #1
 2470 0020 8DF80430 		strb	r3, [sp, #4]
 2471 0024 0123     		movs	r3, #1
 2472 0026 01AA     		add	r2, sp, #4
 2473 0028 1221     		movs	r1, #18
 2474 002a 2046     		mov	r0, r4
ARM GAS  C:\Temp\ccOH3Pt6.s 			page 42


 2475 002c FFF7FEFF 		bl	ism330dhcx_write_reg
 2476 0030 F0E7     		b	.L287
 2478              		.section	.text.ism330dhcx_auto_increment_get,"ax",%progbits
 2479              		.align	1
 2480              		.global	ism330dhcx_auto_increment_get
 2481              		.syntax unified
 2482              		.thumb
 2483              		.thumb_func
 2485              	ism330dhcx_auto_increment_get:
 2486              		@ args = 0, pretend = 0, frame = 8
 2487              		@ frame_needed = 0, uses_anonymous_args = 0
 2488 0000 10B5     		push	{r4, lr}
 2489 0002 82B0     		sub	sp, sp, #8
 2490 0004 0C46     		mov	r4, r1
 2491 0006 0123     		movs	r3, #1
 2492 0008 01AA     		add	r2, sp, #4
 2493 000a 1221     		movs	r1, #18
 2494 000c FFF7FEFF 		bl	ism330dhcx_read_reg
 2495 0010 9DF80430 		ldrb	r3, [sp, #4]	@ zero_extendqisi2
 2496 0014 C3F38003 		ubfx	r3, r3, #2, #1
 2497 0018 2370     		strb	r3, [r4]
 2498 001a 02B0     		add	sp, sp, #8
 2499              		@ sp needed
 2500 001c 10BD     		pop	{r4, pc}
 2502              		.section	.text.ism330dhcx_boot_set,"ax",%progbits
 2503              		.align	1
 2504              		.global	ism330dhcx_boot_set
 2505              		.syntax unified
 2506              		.thumb
 2507              		.thumb_func
 2509              	ism330dhcx_boot_set:
 2510              		@ args = 0, pretend = 0, frame = 8
 2511              		@ frame_needed = 0, uses_anonymous_args = 0
 2512 0000 30B5     		push	{r4, r5, lr}
 2513 0002 83B0     		sub	sp, sp, #12
 2514 0004 0446     		mov	r4, r0
 2515 0006 0D46     		mov	r5, r1
 2516 0008 0123     		movs	r3, #1
 2517 000a 01AA     		add	r2, sp, #4
 2518 000c 1221     		movs	r1, #18
 2519 000e FFF7FEFF 		bl	ism330dhcx_read_reg
 2520 0012 08B1     		cbz	r0, .L296
 2521              	.L293:
 2522 0014 03B0     		add	sp, sp, #12
 2523              		@ sp needed
 2524 0016 30BD     		pop	{r4, r5, pc}
 2525              	.L296:
 2526 0018 9DF80430 		ldrb	r3, [sp, #4]	@ zero_extendqisi2
 2527 001c 65F3C713 		bfi	r3, r5, #7, #1
 2528 0020 8DF80430 		strb	r3, [sp, #4]
 2529 0024 0123     		movs	r3, #1
 2530 0026 01AA     		add	r2, sp, #4
 2531 0028 1221     		movs	r1, #18
 2532 002a 2046     		mov	r0, r4
 2533 002c FFF7FEFF 		bl	ism330dhcx_write_reg
 2534 0030 F0E7     		b	.L293
 2536              		.section	.text.ism330dhcx_boot_get,"ax",%progbits
ARM GAS  C:\Temp\ccOH3Pt6.s 			page 43


 2537              		.align	1
 2538              		.global	ism330dhcx_boot_get
 2539              		.syntax unified
 2540              		.thumb
 2541              		.thumb_func
 2543              	ism330dhcx_boot_get:
 2544              		@ args = 0, pretend = 0, frame = 8
 2545              		@ frame_needed = 0, uses_anonymous_args = 0
 2546 0000 10B5     		push	{r4, lr}
 2547 0002 82B0     		sub	sp, sp, #8
 2548 0004 0C46     		mov	r4, r1
 2549 0006 0123     		movs	r3, #1
 2550 0008 01AA     		add	r2, sp, #4
 2551 000a 1221     		movs	r1, #18
 2552 000c FFF7FEFF 		bl	ism330dhcx_read_reg
 2553 0010 9DF80430 		ldrb	r3, [sp, #4]	@ zero_extendqisi2
 2554 0014 C3F3C013 		ubfx	r3, r3, #7, #1
 2555 0018 2370     		strb	r3, [r4]
 2556 001a 02B0     		add	sp, sp, #8
 2557              		@ sp needed
 2558 001c 10BD     		pop	{r4, pc}
 2560              		.section	.text.ism330dhcx_xl_self_test_set,"ax",%progbits
 2561              		.align	1
 2562              		.global	ism330dhcx_xl_self_test_set
 2563              		.syntax unified
 2564              		.thumb
 2565              		.thumb_func
 2567              	ism330dhcx_xl_self_test_set:
 2568              		@ args = 0, pretend = 0, frame = 8
 2569              		@ frame_needed = 0, uses_anonymous_args = 0
 2570 0000 30B5     		push	{r4, r5, lr}
 2571 0002 83B0     		sub	sp, sp, #12
 2572 0004 0446     		mov	r4, r0
 2573 0006 0D46     		mov	r5, r1
 2574 0008 0123     		movs	r3, #1
 2575 000a 01AA     		add	r2, sp, #4
 2576 000c 1421     		movs	r1, #20
 2577 000e FFF7FEFF 		bl	ism330dhcx_read_reg
 2578 0012 08B1     		cbz	r0, .L302
 2579              	.L299:
 2580 0014 03B0     		add	sp, sp, #12
 2581              		@ sp needed
 2582 0016 30BD     		pop	{r4, r5, pc}
 2583              	.L302:
 2584 0018 9DF80430 		ldrb	r3, [sp, #4]	@ zero_extendqisi2
 2585 001c 65F30103 		bfi	r3, r5, #0, #2
 2586 0020 8DF80430 		strb	r3, [sp, #4]
 2587 0024 0123     		movs	r3, #1
 2588 0026 01AA     		add	r2, sp, #4
 2589 0028 1421     		movs	r1, #20
 2590 002a 2046     		mov	r0, r4
 2591 002c FFF7FEFF 		bl	ism330dhcx_write_reg
 2592 0030 F0E7     		b	.L299
 2594              		.section	.text.ism330dhcx_xl_self_test_get,"ax",%progbits
 2595              		.align	1
 2596              		.global	ism330dhcx_xl_self_test_get
 2597              		.syntax unified
ARM GAS  C:\Temp\ccOH3Pt6.s 			page 44


 2598              		.thumb
 2599              		.thumb_func
 2601              	ism330dhcx_xl_self_test_get:
 2602              		@ args = 0, pretend = 0, frame = 8
 2603              		@ frame_needed = 0, uses_anonymous_args = 0
 2604 0000 10B5     		push	{r4, lr}
 2605 0002 82B0     		sub	sp, sp, #8
 2606 0004 0C46     		mov	r4, r1
 2607 0006 0123     		movs	r3, #1
 2608 0008 01AA     		add	r2, sp, #4
 2609 000a 1421     		movs	r1, #20
 2610 000c FFF7FEFF 		bl	ism330dhcx_read_reg
 2611 0010 9DF80430 		ldrb	r3, [sp, #4]	@ zero_extendqisi2
 2612 0014 03F00303 		and	r3, r3, #3
 2613 0018 012B     		cmp	r3, #1
 2614 001a 08D0     		beq	.L304
 2615 001c 022B     		cmp	r3, #2
 2616 001e 09D0     		beq	.L305
 2617 0020 13B1     		cbz	r3, .L309
 2618 0022 0023     		movs	r3, #0
 2619 0024 2370     		strb	r3, [r4]
 2620 0026 00E0     		b	.L303
 2621              	.L309:
 2622 0028 2370     		strb	r3, [r4]
 2623              	.L303:
 2624 002a 02B0     		add	sp, sp, #8
 2625              		@ sp needed
 2626 002c 10BD     		pop	{r4, pc}
 2627              	.L304:
 2628 002e 0123     		movs	r3, #1
 2629 0030 2370     		strb	r3, [r4]
 2630 0032 FAE7     		b	.L303
 2631              	.L305:
 2632 0034 0223     		movs	r3, #2
 2633 0036 2370     		strb	r3, [r4]
 2634 0038 F7E7     		b	.L303
 2636              		.section	.text.ism330dhcx_gy_self_test_set,"ax",%progbits
 2637              		.align	1
 2638              		.global	ism330dhcx_gy_self_test_set
 2639              		.syntax unified
 2640              		.thumb
 2641              		.thumb_func
 2643              	ism330dhcx_gy_self_test_set:
 2644              		@ args = 0, pretend = 0, frame = 8
 2645              		@ frame_needed = 0, uses_anonymous_args = 0
 2646 0000 30B5     		push	{r4, r5, lr}
 2647 0002 83B0     		sub	sp, sp, #12
 2648 0004 0446     		mov	r4, r0
 2649 0006 0D46     		mov	r5, r1
 2650 0008 0123     		movs	r3, #1
 2651 000a 01AA     		add	r2, sp, #4
 2652 000c 1421     		movs	r1, #20
 2653 000e FFF7FEFF 		bl	ism330dhcx_read_reg
 2654 0012 08B1     		cbz	r0, .L313
 2655              	.L310:
 2656 0014 03B0     		add	sp, sp, #12
 2657              		@ sp needed
ARM GAS  C:\Temp\ccOH3Pt6.s 			page 45


 2658 0016 30BD     		pop	{r4, r5, pc}
 2659              	.L313:
 2660 0018 9DF80430 		ldrb	r3, [sp, #4]	@ zero_extendqisi2
 2661 001c 65F38303 		bfi	r3, r5, #2, #2
 2662 0020 8DF80430 		strb	r3, [sp, #4]
 2663 0024 0123     		movs	r3, #1
 2664 0026 01AA     		add	r2, sp, #4
 2665 0028 1421     		movs	r1, #20
 2666 002a 2046     		mov	r0, r4
 2667 002c FFF7FEFF 		bl	ism330dhcx_write_reg
 2668 0030 F0E7     		b	.L310
 2670              		.section	.text.ism330dhcx_gy_self_test_get,"ax",%progbits
 2671              		.align	1
 2672              		.global	ism330dhcx_gy_self_test_get
 2673              		.syntax unified
 2674              		.thumb
 2675              		.thumb_func
 2677              	ism330dhcx_gy_self_test_get:
 2678              		@ args = 0, pretend = 0, frame = 8
 2679              		@ frame_needed = 0, uses_anonymous_args = 0
 2680 0000 10B5     		push	{r4, lr}
 2681 0002 82B0     		sub	sp, sp, #8
 2682 0004 0C46     		mov	r4, r1
 2683 0006 0123     		movs	r3, #1
 2684 0008 01AA     		add	r2, sp, #4
 2685 000a 1421     		movs	r1, #20
 2686 000c FFF7FEFF 		bl	ism330dhcx_read_reg
 2687 0010 9DF80430 		ldrb	r3, [sp, #4]	@ zero_extendqisi2
 2688 0014 C3F38103 		ubfx	r3, r3, #2, #2
 2689 0018 012B     		cmp	r3, #1
 2690 001a 08D0     		beq	.L315
 2691 001c 032B     		cmp	r3, #3
 2692 001e 09D0     		beq	.L316
 2693 0020 13B1     		cbz	r3, .L320
 2694 0022 0023     		movs	r3, #0
 2695 0024 2370     		strb	r3, [r4]
 2696 0026 00E0     		b	.L314
 2697              	.L320:
 2698 0028 2370     		strb	r3, [r4]
 2699              	.L314:
 2700 002a 02B0     		add	sp, sp, #8
 2701              		@ sp needed
 2702 002c 10BD     		pop	{r4, pc}
 2703              	.L315:
 2704 002e 0123     		movs	r3, #1
 2705 0030 2370     		strb	r3, [r4]
 2706 0032 FAE7     		b	.L314
 2707              	.L316:
 2708 0034 0323     		movs	r3, #3
 2709 0036 2370     		strb	r3, [r4]
 2710 0038 F7E7     		b	.L314
 2712              		.section	.text.ism330dhcx_xl_filter_lp2_set,"ax",%progbits
 2713              		.align	1
 2714              		.global	ism330dhcx_xl_filter_lp2_set
 2715              		.syntax unified
 2716              		.thumb
 2717              		.thumb_func
ARM GAS  C:\Temp\ccOH3Pt6.s 			page 46


 2719              	ism330dhcx_xl_filter_lp2_set:
 2720              		@ args = 0, pretend = 0, frame = 8
 2721              		@ frame_needed = 0, uses_anonymous_args = 0
 2722 0000 30B5     		push	{r4, r5, lr}
 2723 0002 83B0     		sub	sp, sp, #12
 2724 0004 0446     		mov	r4, r0
 2725 0006 0D46     		mov	r5, r1
 2726 0008 0123     		movs	r3, #1
 2727 000a 01AA     		add	r2, sp, #4
 2728 000c 1021     		movs	r1, #16
 2729 000e FFF7FEFF 		bl	ism330dhcx_read_reg
 2730 0012 08B1     		cbz	r0, .L324
 2731              	.L321:
 2732 0014 03B0     		add	sp, sp, #12
 2733              		@ sp needed
 2734 0016 30BD     		pop	{r4, r5, pc}
 2735              	.L324:
 2736 0018 9DF80430 		ldrb	r3, [sp, #4]	@ zero_extendqisi2
 2737 001c 65F34103 		bfi	r3, r5, #1, #1
 2738 0020 8DF80430 		strb	r3, [sp, #4]
 2739 0024 0123     		movs	r3, #1
 2740 0026 01AA     		add	r2, sp, #4
 2741 0028 1021     		movs	r1, #16
 2742 002a 2046     		mov	r0, r4
 2743 002c FFF7FEFF 		bl	ism330dhcx_write_reg
 2744 0030 F0E7     		b	.L321
 2746              		.section	.text.ism330dhcx_xl_filter_lp2_get,"ax",%progbits
 2747              		.align	1
 2748              		.global	ism330dhcx_xl_filter_lp2_get
 2749              		.syntax unified
 2750              		.thumb
 2751              		.thumb_func
 2753              	ism330dhcx_xl_filter_lp2_get:
 2754              		@ args = 0, pretend = 0, frame = 8
 2755              		@ frame_needed = 0, uses_anonymous_args = 0
 2756 0000 10B5     		push	{r4, lr}
 2757 0002 82B0     		sub	sp, sp, #8
 2758 0004 0C46     		mov	r4, r1
 2759 0006 0123     		movs	r3, #1
 2760 0008 01AA     		add	r2, sp, #4
 2761 000a 1021     		movs	r1, #16
 2762 000c FFF7FEFF 		bl	ism330dhcx_read_reg
 2763 0010 9DF80430 		ldrb	r3, [sp, #4]	@ zero_extendqisi2
 2764 0014 C3F34003 		ubfx	r3, r3, #1, #1
 2765 0018 2370     		strb	r3, [r4]
 2766 001a 02B0     		add	sp, sp, #8
 2767              		@ sp needed
 2768 001c 10BD     		pop	{r4, pc}
 2770              		.section	.text.ism330dhcx_gy_filter_lp1_set,"ax",%progbits
 2771              		.align	1
 2772              		.global	ism330dhcx_gy_filter_lp1_set
 2773              		.syntax unified
 2774              		.thumb
 2775              		.thumb_func
 2777              	ism330dhcx_gy_filter_lp1_set:
 2778              		@ args = 0, pretend = 0, frame = 8
 2779              		@ frame_needed = 0, uses_anonymous_args = 0
ARM GAS  C:\Temp\ccOH3Pt6.s 			page 47


 2780 0000 30B5     		push	{r4, r5, lr}
 2781 0002 83B0     		sub	sp, sp, #12
 2782 0004 0446     		mov	r4, r0
 2783 0006 0D46     		mov	r5, r1
 2784 0008 0123     		movs	r3, #1
 2785 000a 01AA     		add	r2, sp, #4
 2786 000c 1321     		movs	r1, #19
 2787 000e FFF7FEFF 		bl	ism330dhcx_read_reg
 2788 0012 08B1     		cbz	r0, .L330
 2789              	.L327:
 2790 0014 03B0     		add	sp, sp, #12
 2791              		@ sp needed
 2792 0016 30BD     		pop	{r4, r5, pc}
 2793              	.L330:
 2794 0018 9DF80430 		ldrb	r3, [sp, #4]	@ zero_extendqisi2
 2795 001c 65F34103 		bfi	r3, r5, #1, #1
 2796 0020 8DF80430 		strb	r3, [sp, #4]
 2797 0024 0123     		movs	r3, #1
 2798 0026 01AA     		add	r2, sp, #4
 2799 0028 1321     		movs	r1, #19
 2800 002a 2046     		mov	r0, r4
 2801 002c FFF7FEFF 		bl	ism330dhcx_write_reg
 2802 0030 F0E7     		b	.L327
 2804              		.section	.text.ism330dhcx_gy_filter_lp1_get,"ax",%progbits
 2805              		.align	1
 2806              		.global	ism330dhcx_gy_filter_lp1_get
 2807              		.syntax unified
 2808              		.thumb
 2809              		.thumb_func
 2811              	ism330dhcx_gy_filter_lp1_get:
 2812              		@ args = 0, pretend = 0, frame = 8
 2813              		@ frame_needed = 0, uses_anonymous_args = 0
 2814 0000 10B5     		push	{r4, lr}
 2815 0002 82B0     		sub	sp, sp, #8
 2816 0004 0C46     		mov	r4, r1
 2817 0006 0123     		movs	r3, #1
 2818 0008 01AA     		add	r2, sp, #4
 2819 000a 1321     		movs	r1, #19
 2820 000c FFF7FEFF 		bl	ism330dhcx_read_reg
 2821 0010 9DF80430 		ldrb	r3, [sp, #4]	@ zero_extendqisi2
 2822 0014 C3F34003 		ubfx	r3, r3, #1, #1
 2823 0018 2370     		strb	r3, [r4]
 2824 001a 02B0     		add	sp, sp, #8
 2825              		@ sp needed
 2826 001c 10BD     		pop	{r4, pc}
 2828              		.section	.text.ism330dhcx_filter_settling_mask_set,"ax",%progbits
 2829              		.align	1
 2830              		.global	ism330dhcx_filter_settling_mask_set
 2831              		.syntax unified
 2832              		.thumb
 2833              		.thumb_func
 2835              	ism330dhcx_filter_settling_mask_set:
 2836              		@ args = 0, pretend = 0, frame = 8
 2837              		@ frame_needed = 0, uses_anonymous_args = 0
 2838 0000 30B5     		push	{r4, r5, lr}
 2839 0002 83B0     		sub	sp, sp, #12
 2840 0004 0446     		mov	r4, r0
ARM GAS  C:\Temp\ccOH3Pt6.s 			page 48


 2841 0006 0D46     		mov	r5, r1
 2842 0008 0123     		movs	r3, #1
 2843 000a 01AA     		add	r2, sp, #4
 2844 000c 1321     		movs	r1, #19
 2845 000e FFF7FEFF 		bl	ism330dhcx_read_reg
 2846 0012 08B1     		cbz	r0, .L336
 2847              	.L333:
 2848 0014 03B0     		add	sp, sp, #12
 2849              		@ sp needed
 2850 0016 30BD     		pop	{r4, r5, pc}
 2851              	.L336:
 2852 0018 9DF80430 		ldrb	r3, [sp, #4]	@ zero_extendqisi2
 2853 001c 65F3C303 		bfi	r3, r5, #3, #1
 2854 0020 8DF80430 		strb	r3, [sp, #4]
 2855 0024 0123     		movs	r3, #1
 2856 0026 01AA     		add	r2, sp, #4
 2857 0028 1321     		movs	r1, #19
 2858 002a 2046     		mov	r0, r4
 2859 002c FFF7FEFF 		bl	ism330dhcx_write_reg
 2860 0030 F0E7     		b	.L333
 2862              		.section	.text.ism330dhcx_filter_settling_mask_get,"ax",%progbits
 2863              		.align	1
 2864              		.global	ism330dhcx_filter_settling_mask_get
 2865              		.syntax unified
 2866              		.thumb
 2867              		.thumb_func
 2869              	ism330dhcx_filter_settling_mask_get:
 2870              		@ args = 0, pretend = 0, frame = 8
 2871              		@ frame_needed = 0, uses_anonymous_args = 0
 2872 0000 10B5     		push	{r4, lr}
 2873 0002 82B0     		sub	sp, sp, #8
 2874 0004 0C46     		mov	r4, r1
 2875 0006 0123     		movs	r3, #1
 2876 0008 01AA     		add	r2, sp, #4
 2877 000a 1321     		movs	r1, #19
 2878 000c FFF7FEFF 		bl	ism330dhcx_read_reg
 2879 0010 9DF80430 		ldrb	r3, [sp, #4]	@ zero_extendqisi2
 2880 0014 C3F3C003 		ubfx	r3, r3, #3, #1
 2881 0018 2370     		strb	r3, [r4]
 2882 001a 02B0     		add	sp, sp, #8
 2883              		@ sp needed
 2884 001c 10BD     		pop	{r4, pc}
 2886              		.section	.text.ism330dhcx_gy_lp1_bandwidth_set,"ax",%progbits
 2887              		.align	1
 2888              		.global	ism330dhcx_gy_lp1_bandwidth_set
 2889              		.syntax unified
 2890              		.thumb
 2891              		.thumb_func
 2893              	ism330dhcx_gy_lp1_bandwidth_set:
 2894              		@ args = 0, pretend = 0, frame = 8
 2895              		@ frame_needed = 0, uses_anonymous_args = 0
 2896 0000 30B5     		push	{r4, r5, lr}
 2897 0002 83B0     		sub	sp, sp, #12
 2898 0004 0446     		mov	r4, r0
 2899 0006 0D46     		mov	r5, r1
 2900 0008 0123     		movs	r3, #1
 2901 000a 01AA     		add	r2, sp, #4
ARM GAS  C:\Temp\ccOH3Pt6.s 			page 49


 2902 000c 1521     		movs	r1, #21
 2903 000e FFF7FEFF 		bl	ism330dhcx_read_reg
 2904 0012 08B1     		cbz	r0, .L342
 2905              	.L339:
 2906 0014 03B0     		add	sp, sp, #12
 2907              		@ sp needed
 2908 0016 30BD     		pop	{r4, r5, pc}
 2909              	.L342:
 2910 0018 9DF80430 		ldrb	r3, [sp, #4]	@ zero_extendqisi2
 2911 001c 65F30203 		bfi	r3, r5, #0, #3
 2912 0020 8DF80430 		strb	r3, [sp, #4]
 2913 0024 0123     		movs	r3, #1
 2914 0026 01AA     		add	r2, sp, #4
 2915 0028 1521     		movs	r1, #21
 2916 002a 2046     		mov	r0, r4
 2917 002c FFF7FEFF 		bl	ism330dhcx_write_reg
 2918 0030 F0E7     		b	.L339
 2920              		.section	.text.ism330dhcx_gy_lp1_bandwidth_get,"ax",%progbits
 2921              		.align	1
 2922              		.global	ism330dhcx_gy_lp1_bandwidth_get
 2923              		.syntax unified
 2924              		.thumb
 2925              		.thumb_func
 2927              	ism330dhcx_gy_lp1_bandwidth_get:
 2928              		@ args = 0, pretend = 0, frame = 8
 2929              		@ frame_needed = 0, uses_anonymous_args = 0
 2930 0000 10B5     		push	{r4, lr}
 2931 0002 82B0     		sub	sp, sp, #8
 2932 0004 0C46     		mov	r4, r1
 2933 0006 0123     		movs	r3, #1
 2934 0008 01AA     		add	r2, sp, #4
 2935 000a 1521     		movs	r1, #21
 2936 000c FFF7FEFF 		bl	ism330dhcx_read_reg
 2937 0010 9DF80430 		ldrb	r3, [sp, #4]	@ zero_extendqisi2
 2938 0014 03F00703 		and	r3, r3, #7
 2939 0018 072B     		cmp	r3, #7
 2940 001a 1ED8     		bhi	.L344
 2941 001c DFE803F0 		tbb	[pc, r3]
 2942              	.L346:
 2943 0020 04       		.byte	(.L353-.L346)/2
 2944 0021 08       		.byte	(.L352-.L346)/2
 2945 0022 0B       		.byte	(.L351-.L346)/2
 2946 0023 0E       		.byte	(.L350-.L346)/2
 2947 0024 11       		.byte	(.L349-.L346)/2
 2948 0025 14       		.byte	(.L348-.L346)/2
 2949 0026 17       		.byte	(.L347-.L346)/2
 2950 0027 1A       		.byte	(.L345-.L346)/2
 2951              		.p2align 1
 2952              	.L353:
 2953 0028 0023     		movs	r3, #0
 2954 002a 2370     		strb	r3, [r4]
 2955              	.L343:
 2956 002c 02B0     		add	sp, sp, #8
 2957              		@ sp needed
 2958 002e 10BD     		pop	{r4, pc}
 2959              	.L352:
 2960 0030 0123     		movs	r3, #1
ARM GAS  C:\Temp\ccOH3Pt6.s 			page 50


 2961 0032 2370     		strb	r3, [r4]
 2962 0034 FAE7     		b	.L343
 2963              	.L351:
 2964 0036 0223     		movs	r3, #2
 2965 0038 2370     		strb	r3, [r4]
 2966 003a F7E7     		b	.L343
 2967              	.L350:
 2968 003c 0323     		movs	r3, #3
 2969 003e 2370     		strb	r3, [r4]
 2970 0040 F4E7     		b	.L343
 2971              	.L349:
 2972 0042 0423     		movs	r3, #4
 2973 0044 2370     		strb	r3, [r4]
 2974 0046 F1E7     		b	.L343
 2975              	.L348:
 2976 0048 0523     		movs	r3, #5
 2977 004a 2370     		strb	r3, [r4]
 2978 004c EEE7     		b	.L343
 2979              	.L347:
 2980 004e 0623     		movs	r3, #6
 2981 0050 2370     		strb	r3, [r4]
 2982 0052 EBE7     		b	.L343
 2983              	.L345:
 2984 0054 0723     		movs	r3, #7
 2985 0056 2370     		strb	r3, [r4]
 2986 0058 E8E7     		b	.L343
 2987              	.L344:
 2988 005a 0023     		movs	r3, #0
 2989 005c 2370     		strb	r3, [r4]
 2990 005e E5E7     		b	.L343
 2992              		.section	.text.ism330dhcx_xl_lp2_on_6d_set,"ax",%progbits
 2993              		.align	1
 2994              		.global	ism330dhcx_xl_lp2_on_6d_set
 2995              		.syntax unified
 2996              		.thumb
 2997              		.thumb_func
 2999              	ism330dhcx_xl_lp2_on_6d_set:
 3000              		@ args = 0, pretend = 0, frame = 8
 3001              		@ frame_needed = 0, uses_anonymous_args = 0
 3002 0000 30B5     		push	{r4, r5, lr}
 3003 0002 83B0     		sub	sp, sp, #12
 3004 0004 0446     		mov	r4, r0
 3005 0006 0D46     		mov	r5, r1
 3006 0008 0123     		movs	r3, #1
 3007 000a 01AA     		add	r2, sp, #4
 3008 000c 1721     		movs	r1, #23
 3009 000e FFF7FEFF 		bl	ism330dhcx_read_reg
 3010 0012 08B1     		cbz	r0, .L359
 3011              	.L356:
 3012 0014 03B0     		add	sp, sp, #12
 3013              		@ sp needed
 3014 0016 30BD     		pop	{r4, r5, pc}
 3015              	.L359:
 3016 0018 9DF80430 		ldrb	r3, [sp, #4]	@ zero_extendqisi2
 3017 001c 65F30003 		bfi	r3, r5, #0, #1
 3018 0020 8DF80430 		strb	r3, [sp, #4]
 3019 0024 0123     		movs	r3, #1
ARM GAS  C:\Temp\ccOH3Pt6.s 			page 51


 3020 0026 01AA     		add	r2, sp, #4
 3021 0028 1721     		movs	r1, #23
 3022 002a 2046     		mov	r0, r4
 3023 002c FFF7FEFF 		bl	ism330dhcx_write_reg
 3024 0030 F0E7     		b	.L356
 3026              		.section	.text.ism330dhcx_xl_lp2_on_6d_get,"ax",%progbits
 3027              		.align	1
 3028              		.global	ism330dhcx_xl_lp2_on_6d_get
 3029              		.syntax unified
 3030              		.thumb
 3031              		.thumb_func
 3033              	ism330dhcx_xl_lp2_on_6d_get:
 3034              		@ args = 0, pretend = 0, frame = 8
 3035              		@ frame_needed = 0, uses_anonymous_args = 0
 3036 0000 10B5     		push	{r4, lr}
 3037 0002 82B0     		sub	sp, sp, #8
 3038 0004 0C46     		mov	r4, r1
 3039 0006 0123     		movs	r3, #1
 3040 0008 01AA     		add	r2, sp, #4
 3041 000a 1721     		movs	r1, #23
 3042 000c FFF7FEFF 		bl	ism330dhcx_read_reg
 3043 0010 9DF80430 		ldrb	r3, [sp, #4]	@ zero_extendqisi2
 3044 0014 C3F30003 		ubfx	r3, r3, #0, #1
 3045 0018 2370     		strb	r3, [r4]
 3046 001a 02B0     		add	sp, sp, #8
 3047              		@ sp needed
 3048 001c 10BD     		pop	{r4, pc}
 3050              		.section	.text.ism330dhcx_xl_hp_path_on_out_set,"ax",%progbits
 3051              		.align	1
 3052              		.global	ism330dhcx_xl_hp_path_on_out_set
 3053              		.syntax unified
 3054              		.thumb
 3055              		.thumb_func
 3057              	ism330dhcx_xl_hp_path_on_out_set:
 3058              		@ args = 0, pretend = 0, frame = 8
 3059              		@ frame_needed = 0, uses_anonymous_args = 0
 3060 0000 30B5     		push	{r4, r5, lr}
 3061 0002 83B0     		sub	sp, sp, #12
 3062 0004 0546     		mov	r5, r0
 3063 0006 0C46     		mov	r4, r1
 3064 0008 0123     		movs	r3, #1
 3065 000a 01AA     		add	r2, sp, #4
 3066 000c 1721     		movs	r1, #23
 3067 000e FFF7FEFF 		bl	ism330dhcx_read_reg
 3068 0012 08B1     		cbz	r0, .L365
 3069              	.L362:
 3070 0014 03B0     		add	sp, sp, #12
 3071              		@ sp needed
 3072 0016 30BD     		pop	{r4, r5, pc}
 3073              	.L365:
 3074 0018 C4F30012 		ubfx	r2, r4, #4, #1
 3075 001c 9DF80430 		ldrb	r3, [sp, #4]	@ zero_extendqisi2
 3076 0020 62F38203 		bfi	r3, r2, #2, #1
 3077 0024 8DF80430 		strb	r3, [sp, #4]
 3078 0028 C4F34012 		ubfx	r2, r4, #5, #1
 3079 002c DBB2     		uxtb	r3, r3
 3080 002e 62F30413 		bfi	r3, r2, #4, #1
ARM GAS  C:\Temp\ccOH3Pt6.s 			page 52


 3081 0032 8DF80430 		strb	r3, [sp, #4]
 3082 0036 DBB2     		uxtb	r3, r3
 3083 0038 64F34713 		bfi	r3, r4, #5, #3
 3084 003c 8DF80430 		strb	r3, [sp, #4]
 3085 0040 0123     		movs	r3, #1
 3086 0042 01AA     		add	r2, sp, #4
 3087 0044 1721     		movs	r1, #23
 3088 0046 2846     		mov	r0, r5
 3089 0048 FFF7FEFF 		bl	ism330dhcx_write_reg
 3090 004c E2E7     		b	.L362
 3092              		.section	.text.ism330dhcx_xl_hp_path_on_out_get,"ax",%progbits
 3093              		.align	1
 3094              		.global	ism330dhcx_xl_hp_path_on_out_get
 3095              		.syntax unified
 3096              		.thumb
 3097              		.thumb_func
 3099              	ism330dhcx_xl_hp_path_on_out_get:
 3100              		@ args = 0, pretend = 0, frame = 8
 3101              		@ frame_needed = 0, uses_anonymous_args = 0
 3102 0000 10B5     		push	{r4, lr}
 3103 0002 82B0     		sub	sp, sp, #8
 3104 0004 0C46     		mov	r4, r1
 3105 0006 0123     		movs	r3, #1
 3106 0008 01AA     		add	r2, sp, #4
 3107 000a 1721     		movs	r1, #23
 3108 000c FFF7FEFF 		bl	ism330dhcx_read_reg
 3109 0010 9DF80420 		ldrb	r2, [sp, #4]	@ zero_extendqisi2
 3110 0014 C2F30011 		ubfx	r1, r2, #4, #1
 3111 0018 C2F38003 		ubfx	r3, r2, #2, #1
 3112 001c 1B01     		lsls	r3, r3, #4
 3113 001e 03EB4113 		add	r3, r3, r1, lsl #5
 3114 0022 03EB5213 		add	r3, r3, r2, lsr #5
 3115 0026 372B     		cmp	r3, #55
 3116 0028 63D8     		bhi	.L367
 3117 002a DFE803F0 		tbb	[pc, r3]
 3118              	.L369:
 3119 002e 1C       		.byte	(.L391-.L369)/2
 3120 002f 4D       		.byte	(.L390-.L369)/2
 3121 0030 50       		.byte	(.L389-.L369)/2
 3122 0031 53       		.byte	(.L388-.L369)/2
 3123 0032 56       		.byte	(.L387-.L369)/2
 3124 0033 59       		.byte	(.L386-.L369)/2
 3125 0034 5C       		.byte	(.L385-.L369)/2
 3126 0035 5F       		.byte	(.L384-.L369)/2
 3127 0036 62       		.byte	(.L367-.L369)/2
 3128 0037 62       		.byte	(.L367-.L369)/2
 3129 0038 62       		.byte	(.L367-.L369)/2
 3130 0039 62       		.byte	(.L367-.L369)/2
 3131 003a 62       		.byte	(.L367-.L369)/2
 3132 003b 62       		.byte	(.L367-.L369)/2
 3133 003c 62       		.byte	(.L367-.L369)/2
 3134 003d 62       		.byte	(.L367-.L369)/2
 3135 003e 20       		.byte	(.L383-.L369)/2
 3136 003f 23       		.byte	(.L382-.L369)/2
 3137 0040 26       		.byte	(.L381-.L369)/2
 3138 0041 29       		.byte	(.L380-.L369)/2
 3139 0042 2C       		.byte	(.L379-.L369)/2
ARM GAS  C:\Temp\ccOH3Pt6.s 			page 53


 3140 0043 2F       		.byte	(.L378-.L369)/2
 3141 0044 32       		.byte	(.L377-.L369)/2
 3142 0045 35       		.byte	(.L376-.L369)/2
 3143 0046 62       		.byte	(.L367-.L369)/2
 3144 0047 62       		.byte	(.L367-.L369)/2
 3145 0048 62       		.byte	(.L367-.L369)/2
 3146 0049 62       		.byte	(.L367-.L369)/2
 3147 004a 62       		.byte	(.L367-.L369)/2
 3148 004b 62       		.byte	(.L367-.L369)/2
 3149 004c 62       		.byte	(.L367-.L369)/2
 3150 004d 62       		.byte	(.L367-.L369)/2
 3151 004e 62       		.byte	(.L367-.L369)/2
 3152 004f 62       		.byte	(.L367-.L369)/2
 3153 0050 62       		.byte	(.L367-.L369)/2
 3154 0051 62       		.byte	(.L367-.L369)/2
 3155 0052 62       		.byte	(.L367-.L369)/2
 3156 0053 62       		.byte	(.L367-.L369)/2
 3157 0054 62       		.byte	(.L367-.L369)/2
 3158 0055 62       		.byte	(.L367-.L369)/2
 3159 0056 62       		.byte	(.L367-.L369)/2
 3160 0057 62       		.byte	(.L367-.L369)/2
 3161 0058 62       		.byte	(.L367-.L369)/2
 3162 0059 62       		.byte	(.L367-.L369)/2
 3163 005a 62       		.byte	(.L367-.L369)/2
 3164 005b 62       		.byte	(.L367-.L369)/2
 3165 005c 62       		.byte	(.L367-.L369)/2
 3166 005d 62       		.byte	(.L367-.L369)/2
 3167 005e 62       		.byte	(.L367-.L369)/2
 3168 005f 38       		.byte	(.L375-.L369)/2
 3169 0060 3B       		.byte	(.L374-.L369)/2
 3170 0061 3E       		.byte	(.L373-.L369)/2
 3171 0062 41       		.byte	(.L372-.L369)/2
 3172 0063 44       		.byte	(.L371-.L369)/2
 3173 0064 47       		.byte	(.L370-.L369)/2
 3174 0065 4A       		.byte	(.L368-.L369)/2
 3175              		.p2align 1
 3176              	.L391:
 3177 0066 0023     		movs	r3, #0
 3178 0068 2370     		strb	r3, [r4]
 3179              	.L366:
 3180 006a 02B0     		add	sp, sp, #8
 3181              		@ sp needed
 3182 006c 10BD     		pop	{r4, pc}
 3183              	.L383:
 3184 006e 1023     		movs	r3, #16
 3185 0070 2370     		strb	r3, [r4]
 3186 0072 FAE7     		b	.L366
 3187              	.L382:
 3188 0074 1123     		movs	r3, #17
 3189 0076 2370     		strb	r3, [r4]
 3190 0078 F7E7     		b	.L366
 3191              	.L381:
 3192 007a 1223     		movs	r3, #18
 3193 007c 2370     		strb	r3, [r4]
 3194 007e F4E7     		b	.L366
 3195              	.L380:
 3196 0080 1323     		movs	r3, #19
ARM GAS  C:\Temp\ccOH3Pt6.s 			page 54


 3197 0082 2370     		strb	r3, [r4]
 3198 0084 F1E7     		b	.L366
 3199              	.L379:
 3200 0086 1423     		movs	r3, #20
 3201 0088 2370     		strb	r3, [r4]
 3202 008a EEE7     		b	.L366
 3203              	.L378:
 3204 008c 1523     		movs	r3, #21
 3205 008e 2370     		strb	r3, [r4]
 3206 0090 EBE7     		b	.L366
 3207              	.L377:
 3208 0092 1623     		movs	r3, #22
 3209 0094 2370     		strb	r3, [r4]
 3210 0096 E8E7     		b	.L366
 3211              	.L376:
 3212 0098 1723     		movs	r3, #23
 3213 009a 2370     		strb	r3, [r4]
 3214 009c E5E7     		b	.L366
 3215              	.L375:
 3216 009e 3123     		movs	r3, #49
 3217 00a0 2370     		strb	r3, [r4]
 3218 00a2 E2E7     		b	.L366
 3219              	.L374:
 3220 00a4 3223     		movs	r3, #50
 3221 00a6 2370     		strb	r3, [r4]
 3222 00a8 DFE7     		b	.L366
 3223              	.L373:
 3224 00aa 3323     		movs	r3, #51
 3225 00ac 2370     		strb	r3, [r4]
 3226 00ae DCE7     		b	.L366
 3227              	.L372:
 3228 00b0 3423     		movs	r3, #52
 3229 00b2 2370     		strb	r3, [r4]
 3230 00b4 D9E7     		b	.L366
 3231              	.L371:
 3232 00b6 3523     		movs	r3, #53
 3233 00b8 2370     		strb	r3, [r4]
 3234 00ba D6E7     		b	.L366
 3235              	.L370:
 3236 00bc 3623     		movs	r3, #54
 3237 00be 2370     		strb	r3, [r4]
 3238 00c0 D3E7     		b	.L366
 3239              	.L368:
 3240 00c2 3723     		movs	r3, #55
 3241 00c4 2370     		strb	r3, [r4]
 3242 00c6 D0E7     		b	.L366
 3243              	.L390:
 3244 00c8 0123     		movs	r3, #1
 3245 00ca 2370     		strb	r3, [r4]
 3246 00cc CDE7     		b	.L366
 3247              	.L389:
 3248 00ce 0223     		movs	r3, #2
 3249 00d0 2370     		strb	r3, [r4]
 3250 00d2 CAE7     		b	.L366
 3251              	.L388:
 3252 00d4 0323     		movs	r3, #3
 3253 00d6 2370     		strb	r3, [r4]
ARM GAS  C:\Temp\ccOH3Pt6.s 			page 55


 3254 00d8 C7E7     		b	.L366
 3255              	.L387:
 3256 00da 0423     		movs	r3, #4
 3257 00dc 2370     		strb	r3, [r4]
 3258 00de C4E7     		b	.L366
 3259              	.L386:
 3260 00e0 0523     		movs	r3, #5
 3261 00e2 2370     		strb	r3, [r4]
 3262 00e4 C1E7     		b	.L366
 3263              	.L385:
 3264 00e6 0623     		movs	r3, #6
 3265 00e8 2370     		strb	r3, [r4]
 3266 00ea BEE7     		b	.L366
 3267              	.L384:
 3268 00ec 0723     		movs	r3, #7
 3269 00ee 2370     		strb	r3, [r4]
 3270 00f0 BBE7     		b	.L366
 3271              	.L367:
 3272 00f2 0023     		movs	r3, #0
 3273 00f4 2370     		strb	r3, [r4]
 3274 00f6 B8E7     		b	.L366
 3276              		.section	.text.ism330dhcx_xl_fast_settling_set,"ax",%progbits
 3277              		.align	1
 3278              		.global	ism330dhcx_xl_fast_settling_set
 3279              		.syntax unified
 3280              		.thumb
 3281              		.thumb_func
 3283              	ism330dhcx_xl_fast_settling_set:
 3284              		@ args = 0, pretend = 0, frame = 8
 3285              		@ frame_needed = 0, uses_anonymous_args = 0
 3286 0000 30B5     		push	{r4, r5, lr}
 3287 0002 83B0     		sub	sp, sp, #12
 3288 0004 0446     		mov	r4, r0
 3289 0006 0D46     		mov	r5, r1
 3290 0008 0123     		movs	r3, #1
 3291 000a 01AA     		add	r2, sp, #4
 3292 000c 1721     		movs	r1, #23
 3293 000e FFF7FEFF 		bl	ism330dhcx_read_reg
 3294 0012 08B1     		cbz	r0, .L397
 3295              	.L394:
 3296 0014 03B0     		add	sp, sp, #12
 3297              		@ sp needed
 3298 0016 30BD     		pop	{r4, r5, pc}
 3299              	.L397:
 3300 0018 9DF80430 		ldrb	r3, [sp, #4]	@ zero_extendqisi2
 3301 001c 65F3C303 		bfi	r3, r5, #3, #1
 3302 0020 8DF80430 		strb	r3, [sp, #4]
 3303 0024 0123     		movs	r3, #1
 3304 0026 01AA     		add	r2, sp, #4
 3305 0028 1721     		movs	r1, #23
 3306 002a 2046     		mov	r0, r4
 3307 002c FFF7FEFF 		bl	ism330dhcx_write_reg
 3308 0030 F0E7     		b	.L394
 3310              		.section	.text.ism330dhcx_xl_fast_settling_get,"ax",%progbits
 3311              		.align	1
 3312              		.global	ism330dhcx_xl_fast_settling_get
 3313              		.syntax unified
ARM GAS  C:\Temp\ccOH3Pt6.s 			page 56


 3314              		.thumb
 3315              		.thumb_func
 3317              	ism330dhcx_xl_fast_settling_get:
 3318              		@ args = 0, pretend = 0, frame = 8
 3319              		@ frame_needed = 0, uses_anonymous_args = 0
 3320 0000 10B5     		push	{r4, lr}
 3321 0002 82B0     		sub	sp, sp, #8
 3322 0004 0C46     		mov	r4, r1
 3323 0006 0123     		movs	r3, #1
 3324 0008 01AA     		add	r2, sp, #4
 3325 000a 1721     		movs	r1, #23
 3326 000c FFF7FEFF 		bl	ism330dhcx_read_reg
 3327 0010 9DF80430 		ldrb	r3, [sp, #4]	@ zero_extendqisi2
 3328 0014 C3F3C003 		ubfx	r3, r3, #3, #1
 3329 0018 2370     		strb	r3, [r4]
 3330 001a 02B0     		add	sp, sp, #8
 3331              		@ sp needed
 3332 001c 10BD     		pop	{r4, pc}
 3334              		.section	.text.ism330dhcx_xl_hp_path_internal_set,"ax",%progbits
 3335              		.align	1
 3336              		.global	ism330dhcx_xl_hp_path_internal_set
 3337              		.syntax unified
 3338              		.thumb
 3339              		.thumb_func
 3341              	ism330dhcx_xl_hp_path_internal_set:
 3342              		@ args = 0, pretend = 0, frame = 8
 3343              		@ frame_needed = 0, uses_anonymous_args = 0
 3344 0000 30B5     		push	{r4, r5, lr}
 3345 0002 83B0     		sub	sp, sp, #12
 3346 0004 0446     		mov	r4, r0
 3347 0006 0D46     		mov	r5, r1
 3348 0008 0123     		movs	r3, #1
 3349 000a 01AA     		add	r2, sp, #4
 3350 000c 5621     		movs	r1, #86
 3351 000e FFF7FEFF 		bl	ism330dhcx_read_reg
 3352 0012 08B1     		cbz	r0, .L403
 3353              	.L400:
 3354 0014 03B0     		add	sp, sp, #12
 3355              		@ sp needed
 3356 0016 30BD     		pop	{r4, r5, pc}
 3357              	.L403:
 3358 0018 9DF80430 		ldrb	r3, [sp, #4]	@ zero_extendqisi2
 3359 001c 65F30413 		bfi	r3, r5, #4, #1
 3360 0020 8DF80430 		strb	r3, [sp, #4]
 3361 0024 0123     		movs	r3, #1
 3362 0026 01AA     		add	r2, sp, #4
 3363 0028 5621     		movs	r1, #86
 3364 002a 2046     		mov	r0, r4
 3365 002c FFF7FEFF 		bl	ism330dhcx_write_reg
 3366 0030 F0E7     		b	.L400
 3368              		.section	.text.ism330dhcx_xl_hp_path_internal_get,"ax",%progbits
 3369              		.align	1
 3370              		.global	ism330dhcx_xl_hp_path_internal_get
 3371              		.syntax unified
 3372              		.thumb
 3373              		.thumb_func
 3375              	ism330dhcx_xl_hp_path_internal_get:
ARM GAS  C:\Temp\ccOH3Pt6.s 			page 57


 3376              		@ args = 0, pretend = 0, frame = 8
 3377              		@ frame_needed = 0, uses_anonymous_args = 0
 3378 0000 10B5     		push	{r4, lr}
 3379 0002 82B0     		sub	sp, sp, #8
 3380 0004 0C46     		mov	r4, r1
 3381 0006 0123     		movs	r3, #1
 3382 0008 01AA     		add	r2, sp, #4
 3383 000a 5621     		movs	r1, #86
 3384 000c FFF7FEFF 		bl	ism330dhcx_read_reg
 3385 0010 9DF80430 		ldrb	r3, [sp, #4]	@ zero_extendqisi2
 3386 0014 C3F30012 		ubfx	r2, r3, #4, #1
 3387 0018 13F0100F 		tst	r3, #16
 3388 001c 03D0     		beq	.L405
 3389 001e 32B9     		cbnz	r2, .L406
 3390 0020 0023     		movs	r3, #0
 3391 0022 2370     		strb	r3, [r4]
 3392 0024 01E0     		b	.L404
 3393              	.L405:
 3394 0026 0023     		movs	r3, #0
 3395 0028 2370     		strb	r3, [r4]
 3396              	.L404:
 3397 002a 02B0     		add	sp, sp, #8
 3398              		@ sp needed
 3399 002c 10BD     		pop	{r4, pc}
 3400              	.L406:
 3401 002e 0123     		movs	r3, #1
 3402 0030 2370     		strb	r3, [r4]
 3403 0032 FAE7     		b	.L404
 3405              		.section	.text.ism330dhcx_gy_hp_path_internal_set,"ax",%progbits
 3406              		.align	1
 3407              		.global	ism330dhcx_gy_hp_path_internal_set
 3408              		.syntax unified
 3409              		.thumb
 3410              		.thumb_func
 3412              	ism330dhcx_gy_hp_path_internal_set:
 3413              		@ args = 0, pretend = 0, frame = 8
 3414              		@ frame_needed = 0, uses_anonymous_args = 0
 3415 0000 30B5     		push	{r4, r5, lr}
 3416 0002 83B0     		sub	sp, sp, #12
 3417 0004 0546     		mov	r5, r0
 3418 0006 0C46     		mov	r4, r1
 3419 0008 0123     		movs	r3, #1
 3420 000a 01AA     		add	r2, sp, #4
 3421 000c 1621     		movs	r1, #22
 3422 000e FFF7FEFF 		bl	ism330dhcx_read_reg
 3423 0012 08B1     		cbz	r0, .L414
 3424              	.L411:
 3425 0014 03B0     		add	sp, sp, #12
 3426              		@ sp needed
 3427 0016 30BD     		pop	{r4, r5, pc}
 3428              	.L414:
 3429 0018 E209     		lsrs	r2, r4, #7
 3430 001a 9DF80430 		ldrb	r3, [sp, #4]	@ zero_extendqisi2
 3431 001e 62F38613 		bfi	r3, r2, #6, #1
 3432 0022 8DF80430 		strb	r3, [sp, #4]
 3433 0026 DBB2     		uxtb	r3, r3
 3434 0028 64F30513 		bfi	r3, r4, #4, #2
ARM GAS  C:\Temp\ccOH3Pt6.s 			page 58


 3435 002c 8DF80430 		strb	r3, [sp, #4]
 3436 0030 0123     		movs	r3, #1
 3437 0032 01AA     		add	r2, sp, #4
 3438 0034 1621     		movs	r1, #22
 3439 0036 2846     		mov	r0, r5
 3440 0038 FFF7FEFF 		bl	ism330dhcx_write_reg
 3441 003c EAE7     		b	.L411
 3443              		.section	.text.ism330dhcx_gy_hp_path_internal_get,"ax",%progbits
 3444              		.align	1
 3445              		.global	ism330dhcx_gy_hp_path_internal_get
 3446              		.syntax unified
 3447              		.thumb
 3448              		.thumb_func
 3450              	ism330dhcx_gy_hp_path_internal_get:
 3451              		@ args = 0, pretend = 0, frame = 8
 3452              		@ frame_needed = 0, uses_anonymous_args = 0
 3453 0000 10B5     		push	{r4, lr}
 3454 0002 82B0     		sub	sp, sp, #8
 3455 0004 0C46     		mov	r4, r1
 3456 0006 0123     		movs	r3, #1
 3457 0008 01AA     		add	r2, sp, #4
 3458 000a 1621     		movs	r1, #22
 3459 000c FFF7FEFF 		bl	ism330dhcx_read_reg
 3460 0010 9DF80430 		ldrb	r3, [sp, #4]	@ zero_extendqisi2
 3461 0014 C3F38012 		ubfx	r2, r3, #6, #1
 3462 0018 C3F30113 		ubfx	r3, r3, #4, #2
 3463 001c 13EBC213 		adds	r3, r3, r2, lsl #7
 3464 0020 0CD0     		beq	.L416
 3465 0022 002B     		cmp	r3, #0
 3466 0024 1ADB     		blt	.L417
 3467 0026 832B     		cmp	r3, #131
 3468 0028 18DC     		bgt	.L417
 3469 002a 802B     		cmp	r3, #128
 3470 002c 16DB     		blt	.L417
 3471 002e 803B     		subs	r3, r3, #128
 3472 0030 032B     		cmp	r3, #3
 3473 0032 13D8     		bhi	.L417
 3474 0034 DFE803F0 		tbb	[pc, r3]
 3475              	.L419:
 3476 0038 06       		.byte	(.L422-.L419)/2
 3477 0039 09       		.byte	(.L421-.L419)/2
 3478 003a 0C       		.byte	(.L420-.L419)/2
 3479 003b 0F       		.byte	(.L418-.L419)/2
 3480              		.p2align 1
 3481              	.L416:
 3482 003c 0023     		movs	r3, #0
 3483 003e 2370     		strb	r3, [r4]
 3484              	.L415:
 3485 0040 02B0     		add	sp, sp, #8
 3486              		@ sp needed
 3487 0042 10BD     		pop	{r4, pc}
 3488              	.L422:
 3489 0044 8023     		movs	r3, #128
 3490 0046 2370     		strb	r3, [r4]
 3491 0048 FAE7     		b	.L415
 3492              	.L421:
 3493 004a 8123     		movs	r3, #129
ARM GAS  C:\Temp\ccOH3Pt6.s 			page 59


 3494 004c 2370     		strb	r3, [r4]
 3495 004e F7E7     		b	.L415
 3496              	.L420:
 3497 0050 8223     		movs	r3, #130
 3498 0052 2370     		strb	r3, [r4]
 3499 0054 F4E7     		b	.L415
 3500              	.L418:
 3501 0056 8323     		movs	r3, #131
 3502 0058 2370     		strb	r3, [r4]
 3503 005a F1E7     		b	.L415
 3504              	.L417:
 3505 005c 0023     		movs	r3, #0
 3506 005e 2370     		strb	r3, [r4]
 3507 0060 EEE7     		b	.L415
 3509              		.section	.text.ism330dhcx_aux_sdo_ocs_mode_set,"ax",%progbits
 3510              		.align	1
 3511              		.global	ism330dhcx_aux_sdo_ocs_mode_set
 3512              		.syntax unified
 3513              		.thumb
 3514              		.thumb_func
 3516              	ism330dhcx_aux_sdo_ocs_mode_set:
 3517              		@ args = 0, pretend = 0, frame = 8
 3518              		@ frame_needed = 0, uses_anonymous_args = 0
 3519 0000 30B5     		push	{r4, r5, lr}
 3520 0002 83B0     		sub	sp, sp, #12
 3521 0004 0446     		mov	r4, r0
 3522 0006 0D46     		mov	r5, r1
 3523 0008 0123     		movs	r3, #1
 3524 000a 01AA     		add	r2, sp, #4
 3525 000c 0221     		movs	r1, #2
 3526 000e FFF7FEFF 		bl	ism330dhcx_read_reg
 3527 0012 08B1     		cbz	r0, .L429
 3528              	.L426:
 3529 0014 03B0     		add	sp, sp, #12
 3530              		@ sp needed
 3531 0016 30BD     		pop	{r4, r5, pc}
 3532              	.L429:
 3533 0018 9DF80430 		ldrb	r3, [sp, #4]	@ zero_extendqisi2
 3534 001c 65F3C713 		bfi	r3, r5, #7, #1
 3535 0020 8DF80430 		strb	r3, [sp, #4]
 3536 0024 0123     		movs	r3, #1
 3537 0026 01AA     		add	r2, sp, #4
 3538 0028 0221     		movs	r1, #2
 3539 002a 2046     		mov	r0, r4
 3540 002c FFF7FEFF 		bl	ism330dhcx_write_reg
 3541 0030 F0E7     		b	.L426
 3543              		.section	.text.ism330dhcx_aux_sdo_ocs_mode_get,"ax",%progbits
 3544              		.align	1
 3545              		.global	ism330dhcx_aux_sdo_ocs_mode_get
 3546              		.syntax unified
 3547              		.thumb
 3548              		.thumb_func
 3550              	ism330dhcx_aux_sdo_ocs_mode_get:
 3551              		@ args = 0, pretend = 0, frame = 8
 3552              		@ frame_needed = 0, uses_anonymous_args = 0
 3553 0000 10B5     		push	{r4, lr}
 3554 0002 82B0     		sub	sp, sp, #8
ARM GAS  C:\Temp\ccOH3Pt6.s 			page 60


 3555 0004 0C46     		mov	r4, r1
 3556 0006 0123     		movs	r3, #1
 3557 0008 01AA     		add	r2, sp, #4
 3558 000a 0221     		movs	r1, #2
 3559 000c FFF7FEFF 		bl	ism330dhcx_read_reg
 3560 0010 9DF80430 		ldrb	r3, [sp, #4]	@ zero_extendqisi2
 3561 0014 DB09     		lsrs	r3, r3, #7
 3562 0016 03D0     		beq	.L431
 3563 0018 33B9     		cbnz	r3, .L432
 3564 001a 0023     		movs	r3, #0
 3565 001c 2370     		strb	r3, [r4]
 3566 001e 01E0     		b	.L430
 3567              	.L431:
 3568 0020 0023     		movs	r3, #0
 3569 0022 2370     		strb	r3, [r4]
 3570              	.L430:
 3571 0024 02B0     		add	sp, sp, #8
 3572              		@ sp needed
 3573 0026 10BD     		pop	{r4, pc}
 3574              	.L432:
 3575 0028 0123     		movs	r3, #1
 3576 002a 2370     		strb	r3, [r4]
 3577 002c FAE7     		b	.L430
 3579              		.section	.text.ism330dhcx_aux_pw_on_ctrl_set,"ax",%progbits
 3580              		.align	1
 3581              		.global	ism330dhcx_aux_pw_on_ctrl_set
 3582              		.syntax unified
 3583              		.thumb
 3584              		.thumb_func
 3586              	ism330dhcx_aux_pw_on_ctrl_set:
 3587              		@ args = 0, pretend = 0, frame = 8
 3588              		@ frame_needed = 0, uses_anonymous_args = 0
 3589 0000 30B5     		push	{r4, r5, lr}
 3590 0002 83B0     		sub	sp, sp, #12
 3591 0004 0546     		mov	r5, r0
 3592 0006 0C46     		mov	r4, r1
 3593 0008 0123     		movs	r3, #1
 3594 000a 01AA     		add	r2, sp, #4
 3595 000c 1621     		movs	r1, #22
 3596 000e FFF7FEFF 		bl	ism330dhcx_read_reg
 3597 0012 08B1     		cbz	r0, .L440
 3598              	.L437:
 3599 0014 03B0     		add	sp, sp, #12
 3600              		@ sp needed
 3601 0016 30BD     		pop	{r4, r5, pc}
 3602              	.L440:
 3603 0018 04F00101 		and	r1, r4, #1
 3604 001c 9DF80430 		ldrb	r3, [sp, #4]	@ zero_extendqisi2
 3605 0020 61F38203 		bfi	r3, r1, #2, #1
 3606 0024 8DF80430 		strb	r3, [sp, #4]
 3607 0028 DBB2     		uxtb	r3, r3
 3608 002a 61F30003 		bfi	r3, r1, #0, #1
 3609 002e 8DF80430 		strb	r3, [sp, #4]
 3610 0032 0123     		movs	r3, #1
 3611 0034 01AA     		add	r2, sp, #4
 3612 0036 1621     		movs	r1, #22
 3613 0038 2846     		mov	r0, r5
ARM GAS  C:\Temp\ccOH3Pt6.s 			page 61


 3614 003a FFF7FEFF 		bl	ism330dhcx_write_reg
 3615 003e E9E7     		b	.L437
 3617              		.section	.text.ism330dhcx_aux_pw_on_ctrl_get,"ax",%progbits
 3618              		.align	1
 3619              		.global	ism330dhcx_aux_pw_on_ctrl_get
 3620              		.syntax unified
 3621              		.thumb
 3622              		.thumb_func
 3624              	ism330dhcx_aux_pw_on_ctrl_get:
 3625              		@ args = 0, pretend = 0, frame = 8
 3626              		@ frame_needed = 0, uses_anonymous_args = 0
 3627 0000 10B5     		push	{r4, lr}
 3628 0002 82B0     		sub	sp, sp, #8
 3629 0004 0C46     		mov	r4, r1
 3630 0006 0123     		movs	r3, #1
 3631 0008 01AA     		add	r2, sp, #4
 3632 000a 1621     		movs	r1, #22
 3633 000c FFF7FEFF 		bl	ism330dhcx_read_reg
 3634 0010 9DF80430 		ldrb	r3, [sp, #4]	@ zero_extendqisi2
 3635 0014 13F00103 		ands	r3, r3, #1
 3636 0018 04D0     		beq	.L442
 3637 001a 33B1     		cbz	r3, .L443
 3638 001c 0123     		movs	r3, #1
 3639 001e 2370     		strb	r3, [r4]
 3640              	.L441:
 3641 0020 02B0     		add	sp, sp, #8
 3642              		@ sp needed
 3643 0022 10BD     		pop	{r4, pc}
 3644              	.L442:
 3645 0024 0023     		movs	r3, #0
 3646 0026 2370     		strb	r3, [r4]
 3647 0028 FAE7     		b	.L441
 3648              	.L443:
 3649 002a 0123     		movs	r3, #1
 3650 002c 2370     		strb	r3, [r4]
 3651 002e F7E7     		b	.L441
 3653              		.section	.text.ism330dhcx_aux_status_reg_get,"ax",%progbits
 3654              		.align	1
 3655              		.global	ism330dhcx_aux_status_reg_get
 3656              		.syntax unified
 3657              		.thumb
 3658              		.thumb_func
 3660              	ism330dhcx_aux_status_reg_get:
 3661              		@ args = 0, pretend = 0, frame = 0
 3662              		@ frame_needed = 0, uses_anonymous_args = 0
 3663 0000 08B5     		push	{r3, lr}
 3664 0002 0A46     		mov	r2, r1
 3665 0004 0123     		movs	r3, #1
 3666 0006 1E21     		movs	r1, #30
 3667 0008 FFF7FEFF 		bl	ism330dhcx_read_reg
 3668 000c 08BD     		pop	{r3, pc}
 3670              		.section	.text.ism330dhcx_aux_xl_flag_data_ready_get,"ax",%progbits
 3671              		.align	1
 3672              		.global	ism330dhcx_aux_xl_flag_data_ready_get
 3673              		.syntax unified
 3674              		.thumb
 3675              		.thumb_func
ARM GAS  C:\Temp\ccOH3Pt6.s 			page 62


 3677              	ism330dhcx_aux_xl_flag_data_ready_get:
 3678              		@ args = 0, pretend = 0, frame = 8
 3679              		@ frame_needed = 0, uses_anonymous_args = 0
 3680 0000 10B5     		push	{r4, lr}
 3681 0002 82B0     		sub	sp, sp, #8
 3682 0004 0C46     		mov	r4, r1
 3683 0006 0123     		movs	r3, #1
 3684 0008 01AA     		add	r2, sp, #4
 3685 000a 1E21     		movs	r1, #30
 3686 000c FFF7FEFF 		bl	ism330dhcx_read_reg
 3687 0010 9DF80430 		ldrb	r3, [sp, #4]	@ zero_extendqisi2
 3688 0014 C3F30003 		ubfx	r3, r3, #0, #1
 3689 0018 2370     		strb	r3, [r4]
 3690 001a 02B0     		add	sp, sp, #8
 3691              		@ sp needed
 3692 001c 10BD     		pop	{r4, pc}
 3694              		.section	.text.ism330dhcx_aux_gy_flag_data_ready_get,"ax",%progbits
 3695              		.align	1
 3696              		.global	ism330dhcx_aux_gy_flag_data_ready_get
 3697              		.syntax unified
 3698              		.thumb
 3699              		.thumb_func
 3701              	ism330dhcx_aux_gy_flag_data_ready_get:
 3702              		@ args = 0, pretend = 0, frame = 8
 3703              		@ frame_needed = 0, uses_anonymous_args = 0
 3704 0000 10B5     		push	{r4, lr}
 3705 0002 82B0     		sub	sp, sp, #8
 3706 0004 0C46     		mov	r4, r1
 3707 0006 0123     		movs	r3, #1
 3708 0008 01AA     		add	r2, sp, #4
 3709 000a 1E21     		movs	r1, #30
 3710 000c FFF7FEFF 		bl	ism330dhcx_read_reg
 3711 0010 9DF80430 		ldrb	r3, [sp, #4]	@ zero_extendqisi2
 3712 0014 C3F34003 		ubfx	r3, r3, #1, #1
 3713 0018 2370     		strb	r3, [r4]
 3714 001a 02B0     		add	sp, sp, #8
 3715              		@ sp needed
 3716 001c 10BD     		pop	{r4, pc}
 3718              		.section	.text.ism330dhcx_aux_gy_flag_settling_get,"ax",%progbits
 3719              		.align	1
 3720              		.global	ism330dhcx_aux_gy_flag_settling_get
 3721              		.syntax unified
 3722              		.thumb
 3723              		.thumb_func
 3725              	ism330dhcx_aux_gy_flag_settling_get:
 3726              		@ args = 0, pretend = 0, frame = 8
 3727              		@ frame_needed = 0, uses_anonymous_args = 0
 3728 0000 10B5     		push	{r4, lr}
 3729 0002 82B0     		sub	sp, sp, #8
 3730 0004 0C46     		mov	r4, r1
 3731 0006 0123     		movs	r3, #1
 3732 0008 01AA     		add	r2, sp, #4
 3733 000a 1E21     		movs	r1, #30
 3734 000c FFF7FEFF 		bl	ism330dhcx_read_reg
 3735 0010 9DF80430 		ldrb	r3, [sp, #4]	@ zero_extendqisi2
 3736 0014 C3F38003 		ubfx	r3, r3, #2, #1
 3737 0018 2370     		strb	r3, [r4]
ARM GAS  C:\Temp\ccOH3Pt6.s 			page 63


 3738 001a 02B0     		add	sp, sp, #8
 3739              		@ sp needed
 3740 001c 10BD     		pop	{r4, pc}
 3742              		.section	.text.ism330dhcx_aux_xl_self_test_set,"ax",%progbits
 3743              		.align	1
 3744              		.global	ism330dhcx_aux_xl_self_test_set
 3745              		.syntax unified
 3746              		.thumb
 3747              		.thumb_func
 3749              	ism330dhcx_aux_xl_self_test_set:
 3750              		@ args = 0, pretend = 0, frame = 8
 3751              		@ frame_needed = 0, uses_anonymous_args = 0
 3752 0000 30B5     		push	{r4, r5, lr}
 3753 0002 83B0     		sub	sp, sp, #12
 3754 0004 0446     		mov	r4, r0
 3755 0006 0D46     		mov	r5, r1
 3756 0008 0123     		movs	r3, #1
 3757 000a 01AA     		add	r2, sp, #4
 3758 000c 6F21     		movs	r1, #111
 3759 000e FFF7FEFF 		bl	ism330dhcx_read_reg
 3760 0012 08B1     		cbz	r0, .L457
 3761              	.L454:
 3762 0014 03B0     		add	sp, sp, #12
 3763              		@ sp needed
 3764 0016 30BD     		pop	{r4, r5, pc}
 3765              	.L457:
 3766 0018 9DF80430 		ldrb	r3, [sp, #4]	@ zero_extendqisi2
 3767 001c 65F30103 		bfi	r3, r5, #0, #2
 3768 0020 8DF80430 		strb	r3, [sp, #4]
 3769 0024 0123     		movs	r3, #1
 3770 0026 01AA     		add	r2, sp, #4
 3771 0028 6F21     		movs	r1, #111
 3772 002a 2046     		mov	r0, r4
 3773 002c FFF7FEFF 		bl	ism330dhcx_write_reg
 3774 0030 F0E7     		b	.L454
 3776              		.section	.text.ism330dhcx_aux_xl_self_test_get,"ax",%progbits
 3777              		.align	1
 3778              		.global	ism330dhcx_aux_xl_self_test_get
 3779              		.syntax unified
 3780              		.thumb
 3781              		.thumb_func
 3783              	ism330dhcx_aux_xl_self_test_get:
 3784              		@ args = 0, pretend = 0, frame = 8
 3785              		@ frame_needed = 0, uses_anonymous_args = 0
 3786 0000 10B5     		push	{r4, lr}
 3787 0002 82B0     		sub	sp, sp, #8
 3788 0004 0C46     		mov	r4, r1
 3789 0006 0123     		movs	r3, #1
 3790 0008 01AA     		add	r2, sp, #4
 3791 000a 6F21     		movs	r1, #111
 3792 000c FFF7FEFF 		bl	ism330dhcx_read_reg
 3793 0010 9DF80430 		ldrb	r3, [sp, #4]	@ zero_extendqisi2
 3794 0014 03F00303 		and	r3, r3, #3
 3795 0018 012B     		cmp	r3, #1
 3796 001a 08D0     		beq	.L459
 3797 001c 022B     		cmp	r3, #2
 3798 001e 09D0     		beq	.L460
ARM GAS  C:\Temp\ccOH3Pt6.s 			page 64


 3799 0020 13B1     		cbz	r3, .L464
 3800 0022 0023     		movs	r3, #0
 3801 0024 2370     		strb	r3, [r4]
 3802 0026 00E0     		b	.L458
 3803              	.L464:
 3804 0028 2370     		strb	r3, [r4]
 3805              	.L458:
 3806 002a 02B0     		add	sp, sp, #8
 3807              		@ sp needed
 3808 002c 10BD     		pop	{r4, pc}
 3809              	.L459:
 3810 002e 0123     		movs	r3, #1
 3811 0030 2370     		strb	r3, [r4]
 3812 0032 FAE7     		b	.L458
 3813              	.L460:
 3814 0034 0223     		movs	r3, #2
 3815 0036 2370     		strb	r3, [r4]
 3816 0038 F7E7     		b	.L458
 3818              		.section	.text.ism330dhcx_aux_den_polarity_set,"ax",%progbits
 3819              		.align	1
 3820              		.global	ism330dhcx_aux_den_polarity_set
 3821              		.syntax unified
 3822              		.thumb
 3823              		.thumb_func
 3825              	ism330dhcx_aux_den_polarity_set:
 3826              		@ args = 0, pretend = 0, frame = 8
 3827              		@ frame_needed = 0, uses_anonymous_args = 0
 3828 0000 30B5     		push	{r4, r5, lr}
 3829 0002 83B0     		sub	sp, sp, #12
 3830 0004 0446     		mov	r4, r0
 3831 0006 0D46     		mov	r5, r1
 3832 0008 0123     		movs	r3, #1
 3833 000a 01AA     		add	r2, sp, #4
 3834 000c 6F21     		movs	r1, #111
 3835 000e FFF7FEFF 		bl	ism330dhcx_read_reg
 3836 0012 08B1     		cbz	r0, .L468
 3837              	.L465:
 3838 0014 03B0     		add	sp, sp, #12
 3839              		@ sp needed
 3840 0016 30BD     		pop	{r4, r5, pc}
 3841              	.L468:
 3842 0018 9DF80430 		ldrb	r3, [sp, #4]	@ zero_extendqisi2
 3843 001c 65F34513 		bfi	r3, r5, #5, #1
 3844 0020 8DF80430 		strb	r3, [sp, #4]
 3845 0024 0123     		movs	r3, #1
 3846 0026 01AA     		add	r2, sp, #4
 3847 0028 6F21     		movs	r1, #111
 3848 002a 2046     		mov	r0, r4
 3849 002c FFF7FEFF 		bl	ism330dhcx_write_reg
 3850 0030 F0E7     		b	.L465
 3852              		.section	.text.ism330dhcx_aux_den_polarity_get,"ax",%progbits
 3853              		.align	1
 3854              		.global	ism330dhcx_aux_den_polarity_get
 3855              		.syntax unified
 3856              		.thumb
 3857              		.thumb_func
 3859              	ism330dhcx_aux_den_polarity_get:
ARM GAS  C:\Temp\ccOH3Pt6.s 			page 65


 3860              		@ args = 0, pretend = 0, frame = 8
 3861              		@ frame_needed = 0, uses_anonymous_args = 0
 3862 0000 10B5     		push	{r4, lr}
 3863 0002 82B0     		sub	sp, sp, #8
 3864 0004 0C46     		mov	r4, r1
 3865 0006 0123     		movs	r3, #1
 3866 0008 01AA     		add	r2, sp, #4
 3867 000a 6F21     		movs	r1, #111
 3868 000c FFF7FEFF 		bl	ism330dhcx_read_reg
 3869 0010 9DF80430 		ldrb	r3, [sp, #4]	@ zero_extendqisi2
 3870 0014 C3F34012 		ubfx	r2, r3, #5, #1
 3871 0018 13F0200F 		tst	r3, #32
 3872 001c 03D0     		beq	.L470
 3873 001e 32B9     		cbnz	r2, .L471
 3874 0020 0023     		movs	r3, #0
 3875 0022 2370     		strb	r3, [r4]
 3876 0024 01E0     		b	.L469
 3877              	.L470:
 3878 0026 0023     		movs	r3, #0
 3879 0028 2370     		strb	r3, [r4]
 3880              	.L469:
 3881 002a 02B0     		add	sp, sp, #8
 3882              		@ sp needed
 3883 002c 10BD     		pop	{r4, pc}
 3884              	.L471:
 3885 002e 0123     		movs	r3, #1
 3886 0030 2370     		strb	r3, [r4]
 3887 0032 FAE7     		b	.L469
 3889              		.section	.text.ism330dhcx_aux_den_mode_set,"ax",%progbits
 3890              		.align	1
 3891              		.global	ism330dhcx_aux_den_mode_set
 3892              		.syntax unified
 3893              		.thumb
 3894              		.thumb_func
 3896              	ism330dhcx_aux_den_mode_set:
 3897              		@ args = 0, pretend = 0, frame = 8
 3898              		@ frame_needed = 0, uses_anonymous_args = 0
 3899 0000 30B5     		push	{r4, r5, lr}
 3900 0002 83B0     		sub	sp, sp, #12
 3901 0004 0546     		mov	r5, r0
 3902 0006 0C46     		mov	r4, r1
 3903 0008 0123     		movs	r3, #1
 3904 000a 01AA     		add	r2, sp, #4
 3905 000c 6F21     		movs	r1, #111
 3906 000e FFF7FEFF 		bl	ism330dhcx_read_reg
 3907 0012 0346     		mov	r3, r0
 3908 0014 18B1     		cbz	r0, .L480
 3909              	.L477:
 3910 0016 CBB1     		cbz	r3, .L481
 3911              	.L476:
 3912 0018 1846     		mov	r0, r3
 3913 001a 03B0     		add	sp, sp, #12
 3914              		@ sp needed
 3915 001c 30BD     		pop	{r4, r5, pc}
 3916              	.L480:
 3917 001e 9DF80430 		ldrb	r3, [sp, #4]	@ zero_extendqisi2
 3918 0022 64F38613 		bfi	r3, r4, #6, #1
ARM GAS  C:\Temp\ccOH3Pt6.s 			page 66


 3919 0026 8DF80430 		strb	r3, [sp, #4]
 3920 002a 0123     		movs	r3, #1
 3921 002c 01AA     		add	r2, sp, #4
 3922 002e 6F21     		movs	r1, #111
 3923 0030 2846     		mov	r0, r5
 3924 0032 FFF7FEFF 		bl	ism330dhcx_write_reg
 3925 0036 0346     		mov	r3, r0
 3926 0038 0028     		cmp	r0, #0
 3927 003a EDD1     		bne	.L476
 3928 003c 0123     		movs	r3, #1
 3929 003e 6A46     		mov	r2, sp
 3930 0040 7021     		movs	r1, #112
 3931 0042 2846     		mov	r0, r5
 3932 0044 FFF7FEFF 		bl	ism330dhcx_read_reg
 3933 0048 0346     		mov	r3, r0
 3934 004a E4E7     		b	.L477
 3935              	.L481:
 3936 004c C4F34001 		ubfx	r1, r4, #1, #1
 3937 0050 9DF80030 		ldrb	r3, [sp]	@ zero_extendqisi2
 3938 0054 61F38613 		bfi	r3, r1, #6, #1
 3939 0058 8DF80030 		strb	r3, [sp]
 3940 005c 0123     		movs	r3, #1
 3941 005e 6A46     		mov	r2, sp
 3942 0060 7021     		movs	r1, #112
 3943 0062 2846     		mov	r0, r5
 3944 0064 FFF7FEFF 		bl	ism330dhcx_write_reg
 3945 0068 0346     		mov	r3, r0
 3946 006a D5E7     		b	.L476
 3948              		.section	.text.ism330dhcx_aux_den_mode_get,"ax",%progbits
 3949              		.align	1
 3950              		.global	ism330dhcx_aux_den_mode_get
 3951              		.syntax unified
 3952              		.thumb
 3953              		.thumb_func
 3955              	ism330dhcx_aux_den_mode_get:
 3956              		@ args = 0, pretend = 0, frame = 8
 3957              		@ frame_needed = 0, uses_anonymous_args = 0
 3958 0000 30B5     		push	{r4, r5, lr}
 3959 0002 83B0     		sub	sp, sp, #12
 3960 0004 0546     		mov	r5, r0
 3961 0006 0C46     		mov	r4, r1
 3962 0008 0123     		movs	r3, #1
 3963 000a 01AA     		add	r2, sp, #4
 3964 000c 6F21     		movs	r1, #111
 3965 000e FFF7FEFF 		bl	ism330dhcx_read_reg
 3966 0012 88B1     		cbz	r0, .L489
 3967              	.L483:
 3968 0014 9DF80020 		ldrb	r2, [sp]	@ zero_extendqisi2
 3969 0018 C2F38012 		ubfx	r2, r2, #6, #1
 3970 001c 9DF80430 		ldrb	r3, [sp, #4]	@ zero_extendqisi2
 3971 0020 C3F38013 		ubfx	r3, r3, #6, #1
 3972 0024 03EB4203 		add	r3, r3, r2, lsl #1
 3973 0028 022B     		cmp	r3, #2
 3974 002a 12D0     		beq	.L484
 3975 002c 032B     		cmp	r3, #3
 3976 002e 0DD0     		beq	.L485
 3977 0030 4BB1     		cbz	r3, .L490
ARM GAS  C:\Temp\ccOH3Pt6.s 			page 67


 3978 0032 0023     		movs	r3, #0
 3979 0034 2370     		strb	r3, [r4]
 3980 0036 07E0     		b	.L482
 3981              	.L489:
 3982 0038 0123     		movs	r3, #1
 3983 003a 6A46     		mov	r2, sp
 3984 003c 7021     		movs	r1, #112
 3985 003e 2846     		mov	r0, r5
 3986 0040 FFF7FEFF 		bl	ism330dhcx_read_reg
 3987 0044 E6E7     		b	.L483
 3988              	.L490:
 3989 0046 2370     		strb	r3, [r4]
 3990              	.L482:
 3991 0048 03B0     		add	sp, sp, #12
 3992              		@ sp needed
 3993 004a 30BD     		pop	{r4, r5, pc}
 3994              	.L485:
 3995 004c 0323     		movs	r3, #3
 3996 004e 2370     		strb	r3, [r4]
 3997 0050 FAE7     		b	.L482
 3998              	.L484:
 3999 0052 0223     		movs	r3, #2
 4000 0054 2370     		strb	r3, [r4]
 4001 0056 F7E7     		b	.L482
 4003              		.section	.text.ism330dhcx_aux_drdy_on_int2_set,"ax",%progbits
 4004              		.align	1
 4005              		.global	ism330dhcx_aux_drdy_on_int2_set
 4006              		.syntax unified
 4007              		.thumb
 4008              		.thumb_func
 4010              	ism330dhcx_aux_drdy_on_int2_set:
 4011              		@ args = 0, pretend = 0, frame = 8
 4012              		@ frame_needed = 0, uses_anonymous_args = 0
 4013 0000 30B5     		push	{r4, r5, lr}
 4014 0002 83B0     		sub	sp, sp, #12
 4015 0004 0446     		mov	r4, r0
 4016 0006 0D46     		mov	r5, r1
 4017 0008 0123     		movs	r3, #1
 4018 000a 01AA     		add	r2, sp, #4
 4019 000c 6F21     		movs	r1, #111
 4020 000e FFF7FEFF 		bl	ism330dhcx_read_reg
 4021 0012 08B1     		cbz	r0, .L494
 4022              	.L491:
 4023 0014 03B0     		add	sp, sp, #12
 4024              		@ sp needed
 4025 0016 30BD     		pop	{r4, r5, pc}
 4026              	.L494:
 4027 0018 9DF80430 		ldrb	r3, [sp, #4]	@ zero_extendqisi2
 4028 001c 65F3C713 		bfi	r3, r5, #7, #1
 4029 0020 8DF80430 		strb	r3, [sp, #4]
 4030 0024 0123     		movs	r3, #1
 4031 0026 01AA     		add	r2, sp, #4
 4032 0028 6F21     		movs	r1, #111
 4033 002a 2046     		mov	r0, r4
 4034 002c FFF7FEFF 		bl	ism330dhcx_write_reg
 4035 0030 F0E7     		b	.L491
 4037              		.section	.text.ism330dhcx_aux_drdy_on_int2_get,"ax",%progbits
ARM GAS  C:\Temp\ccOH3Pt6.s 			page 68


 4038              		.align	1
 4039              		.global	ism330dhcx_aux_drdy_on_int2_get
 4040              		.syntax unified
 4041              		.thumb
 4042              		.thumb_func
 4044              	ism330dhcx_aux_drdy_on_int2_get:
 4045              		@ args = 0, pretend = 0, frame = 8
 4046              		@ frame_needed = 0, uses_anonymous_args = 0
 4047 0000 10B5     		push	{r4, lr}
 4048 0002 82B0     		sub	sp, sp, #8
 4049 0004 0C46     		mov	r4, r1
 4050 0006 0123     		movs	r3, #1
 4051 0008 01AA     		add	r2, sp, #4
 4052 000a 6F21     		movs	r1, #111
 4053 000c FFF7FEFF 		bl	ism330dhcx_read_reg
 4054 0010 9DF80430 		ldrb	r3, [sp, #4]	@ zero_extendqisi2
 4055 0014 C3F3C013 		ubfx	r3, r3, #7, #1
 4056 0018 2370     		strb	r3, [r4]
 4057 001a 02B0     		add	sp, sp, #8
 4058              		@ sp needed
 4059 001c 10BD     		pop	{r4, pc}
 4061              		.section	.text.ism330dhcx_aux_mode_set,"ax",%progbits
 4062              		.align	1
 4063              		.global	ism330dhcx_aux_mode_set
 4064              		.syntax unified
 4065              		.thumb
 4066              		.thumb_func
 4068              	ism330dhcx_aux_mode_set:
 4069              		@ args = 0, pretend = 0, frame = 8
 4070              		@ frame_needed = 0, uses_anonymous_args = 0
 4071 0000 30B5     		push	{r4, r5, lr}
 4072 0002 83B0     		sub	sp, sp, #12
 4073 0004 0546     		mov	r5, r0
 4074 0006 0C46     		mov	r4, r1
 4075 0008 0123     		movs	r3, #1
 4076 000a 01AA     		add	r2, sp, #4
 4077 000c 7021     		movs	r1, #112
 4078 000e FFF7FEFF 		bl	ism330dhcx_read_reg
 4079 0012 08B1     		cbz	r0, .L500
 4080              	.L497:
 4081 0014 03B0     		add	sp, sp, #12
 4082              		@ sp needed
 4083 0016 30BD     		pop	{r4, r5, pc}
 4084              	.L500:
 4085 0018 9DF80430 		ldrb	r3, [sp, #4]	@ zero_extendqisi2
 4086 001c 64F30003 		bfi	r3, r4, #0, #1
 4087 0020 8DF80430 		strb	r3, [sp, #4]
 4088 0024 C4F34001 		ubfx	r1, r4, #1, #1
 4089 0028 DBB2     		uxtb	r3, r3
 4090 002a 61F30413 		bfi	r3, r1, #4, #1
 4091 002e 8DF80430 		strb	r3, [sp, #4]
 4092 0032 0123     		movs	r3, #1
 4093 0034 01AA     		add	r2, sp, #4
 4094 0036 7021     		movs	r1, #112
 4095 0038 2846     		mov	r0, r5
 4096 003a FFF7FEFF 		bl	ism330dhcx_write_reg
 4097 003e E9E7     		b	.L497
ARM GAS  C:\Temp\ccOH3Pt6.s 			page 69


 4099              		.section	.text.ism330dhcx_aux_mode_get,"ax",%progbits
 4100              		.align	1
 4101              		.global	ism330dhcx_aux_mode_get
 4102              		.syntax unified
 4103              		.thumb
 4104              		.thumb_func
 4106              	ism330dhcx_aux_mode_get:
 4107              		@ args = 0, pretend = 0, frame = 8
 4108              		@ frame_needed = 0, uses_anonymous_args = 0
 4109 0000 10B5     		push	{r4, lr}
 4110 0002 82B0     		sub	sp, sp, #8
 4111 0004 0C46     		mov	r4, r1
 4112 0006 0123     		movs	r3, #1
 4113 0008 01AA     		add	r2, sp, #4
 4114 000a 7021     		movs	r1, #112
 4115 000c FFF7FEFF 		bl	ism330dhcx_read_reg
 4116 0010 9DF80430 		ldrb	r3, [sp, #4]	@ zero_extendqisi2
 4117 0014 C3F30012 		ubfx	r2, r3, #4, #1
 4118 0018 03F00103 		and	r3, r3, #1
 4119 001c 03EB4203 		add	r3, r3, r2, lsl #1
 4120 0020 012B     		cmp	r3, #1
 4121 0022 08D0     		beq	.L502
 4122 0024 032B     		cmp	r3, #3
 4123 0026 09D0     		beq	.L503
 4124 0028 13B1     		cbz	r3, .L507
 4125 002a 0023     		movs	r3, #0
 4126 002c 2370     		strb	r3, [r4]
 4127 002e 00E0     		b	.L501
 4128              	.L507:
 4129 0030 2370     		strb	r3, [r4]
 4130              	.L501:
 4131 0032 02B0     		add	sp, sp, #8
 4132              		@ sp needed
 4133 0034 10BD     		pop	{r4, pc}
 4134              	.L502:
 4135 0036 0123     		movs	r3, #1
 4136 0038 2370     		strb	r3, [r4]
 4137 003a FAE7     		b	.L501
 4138              	.L503:
 4139 003c 0323     		movs	r3, #3
 4140 003e 2370     		strb	r3, [r4]
 4141 0040 F7E7     		b	.L501
 4143              		.section	.text.ism330dhcx_aux_gy_full_scale_set,"ax",%progbits
 4144              		.align	1
 4145              		.global	ism330dhcx_aux_gy_full_scale_set
 4146              		.syntax unified
 4147              		.thumb
 4148              		.thumb_func
 4150              	ism330dhcx_aux_gy_full_scale_set:
 4151              		@ args = 0, pretend = 0, frame = 8
 4152              		@ frame_needed = 0, uses_anonymous_args = 0
 4153 0000 30B5     		push	{r4, r5, lr}
 4154 0002 83B0     		sub	sp, sp, #12
 4155 0004 0546     		mov	r5, r0
 4156 0006 0C46     		mov	r4, r1
 4157 0008 0123     		movs	r3, #1
 4158 000a 01AA     		add	r2, sp, #4
ARM GAS  C:\Temp\ccOH3Pt6.s 			page 70


 4159 000c 7021     		movs	r1, #112
 4160 000e FFF7FEFF 		bl	ism330dhcx_read_reg
 4161 0012 08B1     		cbz	r0, .L511
 4162              	.L508:
 4163 0014 03B0     		add	sp, sp, #12
 4164              		@ sp needed
 4165 0016 30BD     		pop	{r4, r5, pc}
 4166              	.L511:
 4167 0018 9DF80430 		ldrb	r3, [sp, #4]	@ zero_extendqisi2
 4168 001c 64F38303 		bfi	r3, r4, #2, #2
 4169 0020 8DF80430 		strb	r3, [sp, #4]
 4170 0024 C4F38001 		ubfx	r1, r4, #2, #1
 4171 0028 DBB2     		uxtb	r3, r3
 4172 002a 61F34103 		bfi	r3, r1, #1, #1
 4173 002e 8DF80430 		strb	r3, [sp, #4]
 4174 0032 0123     		movs	r3, #1
 4175 0034 01AA     		add	r2, sp, #4
 4176 0036 7021     		movs	r1, #112
 4177 0038 2846     		mov	r0, r5
 4178 003a FFF7FEFF 		bl	ism330dhcx_write_reg
 4179 003e E9E7     		b	.L508
 4181              		.section	.text.ism330dhcx_aux_gy_full_scale_get,"ax",%progbits
 4182              		.align	1
 4183              		.global	ism330dhcx_aux_gy_full_scale_get
 4184              		.syntax unified
 4185              		.thumb
 4186              		.thumb_func
 4188              	ism330dhcx_aux_gy_full_scale_get:
 4189              		@ args = 0, pretend = 0, frame = 8
 4190              		@ frame_needed = 0, uses_anonymous_args = 0
 4191 0000 10B5     		push	{r4, lr}
 4192 0002 82B0     		sub	sp, sp, #8
 4193 0004 0C46     		mov	r4, r1
 4194 0006 0123     		movs	r3, #1
 4195 0008 01AA     		add	r2, sp, #4
 4196 000a 7021     		movs	r1, #112
 4197 000c FFF7FEFF 		bl	ism330dhcx_read_reg
 4198 0010 9DF80430 		ldrb	r3, [sp, #4]	@ zero_extendqisi2
 4199 0014 C3F34002 		ubfx	r2, r3, #1, #1
 4200 0018 C3F38103 		ubfx	r3, r3, #2, #2
 4201 001c 03EB8203 		add	r3, r3, r2, lsl #2
 4202 0020 042B     		cmp	r3, #4
 4203 0022 14D8     		bhi	.L513
 4204 0024 DFE803F0 		tbb	[pc, r3]
 4205              	.L515:
 4206 0028 03       		.byte	(.L519-.L515)/2
 4207 0029 0A       		.byte	(.L518-.L515)/2
 4208 002a 0D       		.byte	(.L517-.L515)/2
 4209 002b 10       		.byte	(.L516-.L515)/2
 4210 002c 07       		.byte	(.L514-.L515)/2
 4211 002d 00       		.p2align 1
 4212              	.L519:
 4213 002e 0023     		movs	r3, #0
 4214 0030 2370     		strb	r3, [r4]
 4215              	.L512:
 4216 0032 02B0     		add	sp, sp, #8
 4217              		@ sp needed
ARM GAS  C:\Temp\ccOH3Pt6.s 			page 71


 4218 0034 10BD     		pop	{r4, pc}
 4219              	.L514:
 4220 0036 0423     		movs	r3, #4
 4221 0038 2370     		strb	r3, [r4]
 4222 003a FAE7     		b	.L512
 4223              	.L518:
 4224 003c 0123     		movs	r3, #1
 4225 003e 2370     		strb	r3, [r4]
 4226 0040 F7E7     		b	.L512
 4227              	.L517:
 4228 0042 0223     		movs	r3, #2
 4229 0044 2370     		strb	r3, [r4]
 4230 0046 F4E7     		b	.L512
 4231              	.L516:
 4232 0048 0323     		movs	r3, #3
 4233 004a 2370     		strb	r3, [r4]
 4234 004c F1E7     		b	.L512
 4235              	.L513:
 4236 004e 0023     		movs	r3, #0
 4237 0050 2370     		strb	r3, [r4]
 4238 0052 EEE7     		b	.L512
 4240              		.section	.text.ism330dhcx_aux_spi_mode_set,"ax",%progbits
 4241              		.align	1
 4242              		.global	ism330dhcx_aux_spi_mode_set
 4243              		.syntax unified
 4244              		.thumb
 4245              		.thumb_func
 4247              	ism330dhcx_aux_spi_mode_set:
 4248              		@ args = 0, pretend = 0, frame = 8
 4249              		@ frame_needed = 0, uses_anonymous_args = 0
 4250 0000 30B5     		push	{r4, r5, lr}
 4251 0002 83B0     		sub	sp, sp, #12
 4252 0004 0446     		mov	r4, r0
 4253 0006 0D46     		mov	r5, r1
 4254 0008 0123     		movs	r3, #1
 4255 000a 01AA     		add	r2, sp, #4
 4256 000c 7021     		movs	r1, #112
 4257 000e FFF7FEFF 		bl	ism330dhcx_read_reg
 4258 0012 08B1     		cbz	r0, .L525
 4259              	.L522:
 4260 0014 03B0     		add	sp, sp, #12
 4261              		@ sp needed
 4262 0016 30BD     		pop	{r4, r5, pc}
 4263              	.L525:
 4264 0018 9DF80430 		ldrb	r3, [sp, #4]	@ zero_extendqisi2
 4265 001c 65F34513 		bfi	r3, r5, #5, #1
 4266 0020 8DF80430 		strb	r3, [sp, #4]
 4267 0024 0123     		movs	r3, #1
 4268 0026 01AA     		add	r2, sp, #4
 4269 0028 7021     		movs	r1, #112
 4270 002a 2046     		mov	r0, r4
 4271 002c FFF7FEFF 		bl	ism330dhcx_write_reg
 4272 0030 F0E7     		b	.L522
 4274              		.section	.text.ism330dhcx_aux_spi_mode_get,"ax",%progbits
 4275              		.align	1
 4276              		.global	ism330dhcx_aux_spi_mode_get
 4277              		.syntax unified
ARM GAS  C:\Temp\ccOH3Pt6.s 			page 72


 4278              		.thumb
 4279              		.thumb_func
 4281              	ism330dhcx_aux_spi_mode_get:
 4282              		@ args = 0, pretend = 0, frame = 8
 4283              		@ frame_needed = 0, uses_anonymous_args = 0
 4284 0000 10B5     		push	{r4, lr}
 4285 0002 82B0     		sub	sp, sp, #8
 4286 0004 0C46     		mov	r4, r1
 4287 0006 0123     		movs	r3, #1
 4288 0008 01AA     		add	r2, sp, #4
 4289 000a 7021     		movs	r1, #112
 4290 000c FFF7FEFF 		bl	ism330dhcx_read_reg
 4291 0010 9DF80430 		ldrb	r3, [sp, #4]	@ zero_extendqisi2
 4292 0014 C3F34012 		ubfx	r2, r3, #5, #1
 4293 0018 13F0200F 		tst	r3, #32
 4294 001c 03D0     		beq	.L527
 4295 001e 32B9     		cbnz	r2, .L528
 4296 0020 0023     		movs	r3, #0
 4297 0022 2370     		strb	r3, [r4]
 4298 0024 01E0     		b	.L526
 4299              	.L527:
 4300 0026 0023     		movs	r3, #0
 4301 0028 2370     		strb	r3, [r4]
 4302              	.L526:
 4303 002a 02B0     		add	sp, sp, #8
 4304              		@ sp needed
 4305 002c 10BD     		pop	{r4, pc}
 4306              	.L528:
 4307 002e 0123     		movs	r3, #1
 4308 0030 2370     		strb	r3, [r4]
 4309 0032 FAE7     		b	.L526
 4311              		.section	.text.ism330dhcx_aux_gy_lp1_bandwidth_set,"ax",%progbits
 4312              		.align	1
 4313              		.global	ism330dhcx_aux_gy_lp1_bandwidth_set
 4314              		.syntax unified
 4315              		.thumb
 4316              		.thumb_func
 4318              	ism330dhcx_aux_gy_lp1_bandwidth_set:
 4319              		@ args = 0, pretend = 0, frame = 8
 4320              		@ frame_needed = 0, uses_anonymous_args = 0
 4321 0000 30B5     		push	{r4, r5, lr}
 4322 0002 83B0     		sub	sp, sp, #12
 4323 0004 0446     		mov	r4, r0
 4324 0006 0D46     		mov	r5, r1
 4325 0008 0123     		movs	r3, #1
 4326 000a 01AA     		add	r2, sp, #4
 4327 000c 7121     		movs	r1, #113
 4328 000e FFF7FEFF 		bl	ism330dhcx_read_reg
 4329 0012 08B1     		cbz	r0, .L536
 4330              	.L533:
 4331 0014 03B0     		add	sp, sp, #12
 4332              		@ sp needed
 4333 0016 30BD     		pop	{r4, r5, pc}
 4334              	.L536:
 4335 0018 9DF80430 		ldrb	r3, [sp, #4]	@ zero_extendqisi2
 4336 001c 65F34203 		bfi	r3, r5, #1, #2
 4337 0020 8DF80430 		strb	r3, [sp, #4]
ARM GAS  C:\Temp\ccOH3Pt6.s 			page 73


 4338 0024 0123     		movs	r3, #1
 4339 0026 01AA     		add	r2, sp, #4
 4340 0028 7121     		movs	r1, #113
 4341 002a 2046     		mov	r0, r4
 4342 002c FFF7FEFF 		bl	ism330dhcx_write_reg
 4343 0030 F0E7     		b	.L533
 4345              		.section	.text.ism330dhcx_aux_gy_lp1_bandwidth_get,"ax",%progbits
 4346              		.align	1
 4347              		.global	ism330dhcx_aux_gy_lp1_bandwidth_get
 4348              		.syntax unified
 4349              		.thumb
 4350              		.thumb_func
 4352              	ism330dhcx_aux_gy_lp1_bandwidth_get:
 4353              		@ args = 0, pretend = 0, frame = 8
 4354              		@ frame_needed = 0, uses_anonymous_args = 0
 4355 0000 10B5     		push	{r4, lr}
 4356 0002 82B0     		sub	sp, sp, #8
 4357 0004 0C46     		mov	r4, r1
 4358 0006 0123     		movs	r3, #1
 4359 0008 01AA     		add	r2, sp, #4
 4360 000a 7121     		movs	r1, #113
 4361 000c FFF7FEFF 		bl	ism330dhcx_read_reg
 4362 0010 9DF80430 		ldrb	r3, [sp, #4]	@ zero_extendqisi2
 4363 0014 C3F34103 		ubfx	r3, r3, #1, #2
 4364 0018 032B     		cmp	r3, #3
 4365 001a 10D8     		bhi	.L538
 4366 001c DFE803F0 		tbb	[pc, r3]
 4367              	.L540:
 4368 0020 02       		.byte	(.L543-.L540)/2
 4369 0021 06       		.byte	(.L542-.L540)/2
 4370 0022 09       		.byte	(.L541-.L540)/2
 4371 0023 0C       		.byte	(.L539-.L540)/2
 4372              		.p2align 1
 4373              	.L543:
 4374 0024 0023     		movs	r3, #0
 4375 0026 2370     		strb	r3, [r4]
 4376              	.L537:
 4377 0028 02B0     		add	sp, sp, #8
 4378              		@ sp needed
 4379 002a 10BD     		pop	{r4, pc}
 4380              	.L542:
 4381 002c 0123     		movs	r3, #1
 4382 002e 2370     		strb	r3, [r4]
 4383 0030 FAE7     		b	.L537
 4384              	.L541:
 4385 0032 0223     		movs	r3, #2
 4386 0034 2370     		strb	r3, [r4]
 4387 0036 F7E7     		b	.L537
 4388              	.L539:
 4389 0038 0323     		movs	r3, #3
 4390 003a 2370     		strb	r3, [r4]
 4391 003c F4E7     		b	.L537
 4392              	.L538:
 4393 003e 0023     		movs	r3, #0
 4394 0040 2370     		strb	r3, [r4]
 4395 0042 F1E7     		b	.L537
 4397              		.section	.text.ism330dhcx_aux_gy_hp_bandwidth_set,"ax",%progbits
ARM GAS  C:\Temp\ccOH3Pt6.s 			page 74


 4398              		.align	1
 4399              		.global	ism330dhcx_aux_gy_hp_bandwidth_set
 4400              		.syntax unified
 4401              		.thumb
 4402              		.thumb_func
 4404              	ism330dhcx_aux_gy_hp_bandwidth_set:
 4405              		@ args = 0, pretend = 0, frame = 8
 4406              		@ frame_needed = 0, uses_anonymous_args = 0
 4407 0000 30B5     		push	{r4, r5, lr}
 4408 0002 83B0     		sub	sp, sp, #12
 4409 0004 0546     		mov	r5, r0
 4410 0006 0C46     		mov	r4, r1
 4411 0008 0123     		movs	r3, #1
 4412 000a 01AA     		add	r2, sp, #4
 4413 000c 7121     		movs	r1, #113
 4414 000e FFF7FEFF 		bl	ism330dhcx_read_reg
 4415 0012 08B1     		cbz	r0, .L549
 4416              	.L546:
 4417 0014 03B0     		add	sp, sp, #12
 4418              		@ sp needed
 4419 0016 30BD     		pop	{r4, r5, pc}
 4420              	.L549:
 4421 0018 9DF80430 		ldrb	r3, [sp, #4]	@ zero_extendqisi2
 4422 001c 64F30513 		bfi	r3, r4, #4, #2
 4423 0020 8DF80430 		strb	r3, [sp, #4]
 4424 0024 C4F30011 		ubfx	r1, r4, #4, #1
 4425 0028 DBB2     		uxtb	r3, r3
 4426 002a 61F30003 		bfi	r3, r1, #0, #1
 4427 002e 8DF80430 		strb	r3, [sp, #4]
 4428 0032 0123     		movs	r3, #1
 4429 0034 01AA     		add	r2, sp, #4
 4430 0036 7121     		movs	r1, #113
 4431 0038 2846     		mov	r0, r5
 4432 003a FFF7FEFF 		bl	ism330dhcx_write_reg
 4433 003e E9E7     		b	.L546
 4435              		.section	.text.ism330dhcx_aux_gy_hp_bandwidth_get,"ax",%progbits
 4436              		.align	1
 4437              		.global	ism330dhcx_aux_gy_hp_bandwidth_get
 4438              		.syntax unified
 4439              		.thumb
 4440              		.thumb_func
 4442              	ism330dhcx_aux_gy_hp_bandwidth_get:
 4443              		@ args = 0, pretend = 0, frame = 8
 4444              		@ frame_needed = 0, uses_anonymous_args = 0
 4445 0000 10B5     		push	{r4, lr}
 4446 0002 82B0     		sub	sp, sp, #8
 4447 0004 0C46     		mov	r4, r1
 4448 0006 0123     		movs	r3, #1
 4449 0008 01AA     		add	r2, sp, #4
 4450 000a 7121     		movs	r1, #113
 4451 000c FFF7FEFF 		bl	ism330dhcx_read_reg
 4452 0010 9DF80430 		ldrb	r3, [sp, #4]	@ zero_extendqisi2
 4453 0014 03F00102 		and	r2, r3, #1
 4454 0018 C3F30113 		ubfx	r3, r3, #4, #2
 4455 001c 03EB0213 		add	r3, r3, r2, lsl #4
 4456 0020 132B     		cmp	r3, #19
 4457 0022 1BD8     		bhi	.L551
ARM GAS  C:\Temp\ccOH3Pt6.s 			page 75


 4458 0024 DFE803F0 		tbb	[pc, r3]
 4459              	.L553:
 4460 0028 0A       		.byte	(.L557-.L553)/2
 4461 0029 1A       		.byte	(.L551-.L553)/2
 4462 002a 1A       		.byte	(.L551-.L553)/2
 4463 002b 1A       		.byte	(.L551-.L553)/2
 4464 002c 1A       		.byte	(.L551-.L553)/2
 4465 002d 1A       		.byte	(.L551-.L553)/2
 4466 002e 1A       		.byte	(.L551-.L553)/2
 4467 002f 1A       		.byte	(.L551-.L553)/2
 4468 0030 1A       		.byte	(.L551-.L553)/2
 4469 0031 1A       		.byte	(.L551-.L553)/2
 4470 0032 1A       		.byte	(.L551-.L553)/2
 4471 0033 1A       		.byte	(.L551-.L553)/2
 4472 0034 1A       		.byte	(.L551-.L553)/2
 4473 0035 1A       		.byte	(.L551-.L553)/2
 4474 0036 1A       		.byte	(.L551-.L553)/2
 4475 0037 1A       		.byte	(.L551-.L553)/2
 4476 0038 0E       		.byte	(.L556-.L553)/2
 4477 0039 11       		.byte	(.L555-.L553)/2
 4478 003a 14       		.byte	(.L554-.L553)/2
 4479 003b 17       		.byte	(.L552-.L553)/2
 4480              		.p2align 1
 4481              	.L557:
 4482 003c 0023     		movs	r3, #0
 4483 003e 2370     		strb	r3, [r4]
 4484              	.L550:
 4485 0040 02B0     		add	sp, sp, #8
 4486              		@ sp needed
 4487 0042 10BD     		pop	{r4, pc}
 4488              	.L556:
 4489 0044 1023     		movs	r3, #16
 4490 0046 2370     		strb	r3, [r4]
 4491 0048 FAE7     		b	.L550
 4492              	.L555:
 4493 004a 1123     		movs	r3, #17
 4494 004c 2370     		strb	r3, [r4]
 4495 004e F7E7     		b	.L550
 4496              	.L554:
 4497 0050 1223     		movs	r3, #18
 4498 0052 2370     		strb	r3, [r4]
 4499 0054 F4E7     		b	.L550
 4500              	.L552:
 4501 0056 1323     		movs	r3, #19
 4502 0058 2370     		strb	r3, [r4]
 4503 005a F1E7     		b	.L550
 4504              	.L551:
 4505 005c 0023     		movs	r3, #0
 4506 005e 2370     		strb	r3, [r4]
 4507 0060 EEE7     		b	.L550
 4509              		.section	.text.ism330dhcx_aux_gy_clamp_set,"ax",%progbits
 4510              		.align	1
 4511              		.global	ism330dhcx_aux_gy_clamp_set
 4512              		.syntax unified
 4513              		.thumb
 4514              		.thumb_func
 4516              	ism330dhcx_aux_gy_clamp_set:
ARM GAS  C:\Temp\ccOH3Pt6.s 			page 76


 4517              		@ args = 0, pretend = 0, frame = 8
 4518              		@ frame_needed = 0, uses_anonymous_args = 0
 4519 0000 30B5     		push	{r4, r5, lr}
 4520 0002 83B0     		sub	sp, sp, #12
 4521 0004 0446     		mov	r4, r0
 4522 0006 0D46     		mov	r5, r1
 4523 0008 0123     		movs	r3, #1
 4524 000a 01AA     		add	r2, sp, #4
 4525 000c 7221     		movs	r1, #114
 4526 000e FFF7FEFF 		bl	ism330dhcx_read_reg
 4527 0012 08B1     		cbz	r0, .L563
 4528              	.L560:
 4529 0014 03B0     		add	sp, sp, #12
 4530              		@ sp needed
 4531 0016 30BD     		pop	{r4, r5, pc}
 4532              	.L563:
 4533 0018 9DF80430 		ldrb	r3, [sp, #4]	@ zero_extendqisi2
 4534 001c 65F30003 		bfi	r3, r5, #0, #1
 4535 0020 8DF80430 		strb	r3, [sp, #4]
 4536 0024 0123     		movs	r3, #1
 4537 0026 01AA     		add	r2, sp, #4
 4538 0028 7221     		movs	r1, #114
 4539 002a 2046     		mov	r0, r4
 4540 002c FFF7FEFF 		bl	ism330dhcx_write_reg
 4541 0030 F0E7     		b	.L560
 4543              		.section	.text.ism330dhcx_aux_gy_clamp_get,"ax",%progbits
 4544              		.align	1
 4545              		.global	ism330dhcx_aux_gy_clamp_get
 4546              		.syntax unified
 4547              		.thumb
 4548              		.thumb_func
 4550              	ism330dhcx_aux_gy_clamp_get:
 4551              		@ args = 0, pretend = 0, frame = 8
 4552              		@ frame_needed = 0, uses_anonymous_args = 0
 4553 0000 10B5     		push	{r4, lr}
 4554 0002 82B0     		sub	sp, sp, #8
 4555 0004 0C46     		mov	r4, r1
 4556 0006 0123     		movs	r3, #1
 4557 0008 01AA     		add	r2, sp, #4
 4558 000a 7221     		movs	r1, #114
 4559 000c FFF7FEFF 		bl	ism330dhcx_read_reg
 4560 0010 9DF80430 		ldrb	r3, [sp, #4]	@ zero_extendqisi2
 4561 0014 13F00103 		ands	r3, r3, #1
 4562 0018 03D0     		beq	.L565
 4563 001a 33B9     		cbnz	r3, .L566
 4564 001c 0023     		movs	r3, #0
 4565 001e 2370     		strb	r3, [r4]
 4566 0020 01E0     		b	.L564
 4567              	.L565:
 4568 0022 0023     		movs	r3, #0
 4569 0024 2370     		strb	r3, [r4]
 4570              	.L564:
 4571 0026 02B0     		add	sp, sp, #8
 4572              		@ sp needed
 4573 0028 10BD     		pop	{r4, pc}
 4574              	.L566:
 4575 002a 0123     		movs	r3, #1
ARM GAS  C:\Temp\ccOH3Pt6.s 			page 77


 4576 002c 2370     		strb	r3, [r4]
 4577 002e FAE7     		b	.L564
 4579              		.section	.text.ism330dhcx_aux_gy_self_test_set,"ax",%progbits
 4580              		.align	1
 4581              		.global	ism330dhcx_aux_gy_self_test_set
 4582              		.syntax unified
 4583              		.thumb
 4584              		.thumb_func
 4586              	ism330dhcx_aux_gy_self_test_set:
 4587              		@ args = 0, pretend = 0, frame = 8
 4588              		@ frame_needed = 0, uses_anonymous_args = 0
 4589 0000 30B5     		push	{r4, r5, lr}
 4590 0002 83B0     		sub	sp, sp, #12
 4591 0004 0446     		mov	r4, r0
 4592 0006 0D46     		mov	r5, r1
 4593 0008 0123     		movs	r3, #1
 4594 000a 01AA     		add	r2, sp, #4
 4595 000c 7221     		movs	r1, #114
 4596 000e FFF7FEFF 		bl	ism330dhcx_read_reg
 4597 0012 08B1     		cbz	r0, .L574
 4598              	.L571:
 4599 0014 03B0     		add	sp, sp, #12
 4600              		@ sp needed
 4601 0016 30BD     		pop	{r4, r5, pc}
 4602              	.L574:
 4603 0018 9DF80430 		ldrb	r3, [sp, #4]	@ zero_extendqisi2
 4604 001c 65F34203 		bfi	r3, r5, #1, #2
 4605 0020 8DF80430 		strb	r3, [sp, #4]
 4606 0024 0123     		movs	r3, #1
 4607 0026 01AA     		add	r2, sp, #4
 4608 0028 7221     		movs	r1, #114
 4609 002a 2046     		mov	r0, r4
 4610 002c FFF7FEFF 		bl	ism330dhcx_write_reg
 4611 0030 F0E7     		b	.L571
 4613              		.section	.text.ism330dhcx_aux_gy_self_test_get,"ax",%progbits
 4614              		.align	1
 4615              		.global	ism330dhcx_aux_gy_self_test_get
 4616              		.syntax unified
 4617              		.thumb
 4618              		.thumb_func
 4620              	ism330dhcx_aux_gy_self_test_get:
 4621              		@ args = 0, pretend = 0, frame = 8
 4622              		@ frame_needed = 0, uses_anonymous_args = 0
 4623 0000 10B5     		push	{r4, lr}
 4624 0002 82B0     		sub	sp, sp, #8
 4625 0004 0C46     		mov	r4, r1
 4626 0006 0123     		movs	r3, #1
 4627 0008 01AA     		add	r2, sp, #4
 4628 000a 7221     		movs	r1, #114
 4629 000c FFF7FEFF 		bl	ism330dhcx_read_reg
 4630 0010 9DF80430 		ldrb	r3, [sp, #4]	@ zero_extendqisi2
 4631 0014 C3F34103 		ubfx	r3, r3, #1, #2
 4632 0018 012B     		cmp	r3, #1
 4633 001a 08D0     		beq	.L576
 4634 001c 032B     		cmp	r3, #3
 4635 001e 09D0     		beq	.L577
 4636 0020 13B1     		cbz	r3, .L581
ARM GAS  C:\Temp\ccOH3Pt6.s 			page 78


 4637 0022 0023     		movs	r3, #0
 4638 0024 2370     		strb	r3, [r4]
 4639 0026 00E0     		b	.L575
 4640              	.L581:
 4641 0028 2370     		strb	r3, [r4]
 4642              	.L575:
 4643 002a 02B0     		add	sp, sp, #8
 4644              		@ sp needed
 4645 002c 10BD     		pop	{r4, pc}
 4646              	.L576:
 4647 002e 0123     		movs	r3, #1
 4648 0030 2370     		strb	r3, [r4]
 4649 0032 FAE7     		b	.L575
 4650              	.L577:
 4651 0034 0323     		movs	r3, #3
 4652 0036 2370     		strb	r3, [r4]
 4653 0038 F7E7     		b	.L575
 4655              		.section	.text.ism330dhcx_aux_xl_bandwidth_set,"ax",%progbits
 4656              		.align	1
 4657              		.global	ism330dhcx_aux_xl_bandwidth_set
 4658              		.syntax unified
 4659              		.thumb
 4660              		.thumb_func
 4662              	ism330dhcx_aux_xl_bandwidth_set:
 4663              		@ args = 0, pretend = 0, frame = 8
 4664              		@ frame_needed = 0, uses_anonymous_args = 0
 4665 0000 30B5     		push	{r4, r5, lr}
 4666 0002 83B0     		sub	sp, sp, #12
 4667 0004 0446     		mov	r4, r0
 4668 0006 0D46     		mov	r5, r1
 4669 0008 0123     		movs	r3, #1
 4670 000a 01AA     		add	r2, sp, #4
 4671 000c 7221     		movs	r1, #114
 4672 000e FFF7FEFF 		bl	ism330dhcx_read_reg
 4673 0012 08B1     		cbz	r0, .L585
 4674              	.L582:
 4675 0014 03B0     		add	sp, sp, #12
 4676              		@ sp needed
 4677 0016 30BD     		pop	{r4, r5, pc}
 4678              	.L585:
 4679 0018 9DF80430 		ldrb	r3, [sp, #4]	@ zero_extendqisi2
 4680 001c 65F3C503 		bfi	r3, r5, #3, #3
 4681 0020 8DF80430 		strb	r3, [sp, #4]
 4682 0024 0123     		movs	r3, #1
 4683 0026 01AA     		add	r2, sp, #4
 4684 0028 7221     		movs	r1, #114
 4685 002a 2046     		mov	r0, r4
 4686 002c FFF7FEFF 		bl	ism330dhcx_write_reg
 4687 0030 F0E7     		b	.L582
 4689              		.section	.text.ism330dhcx_aux_xl_bandwidth_get,"ax",%progbits
 4690              		.align	1
 4691              		.global	ism330dhcx_aux_xl_bandwidth_get
 4692              		.syntax unified
 4693              		.thumb
 4694              		.thumb_func
 4696              	ism330dhcx_aux_xl_bandwidth_get:
 4697              		@ args = 0, pretend = 0, frame = 8
ARM GAS  C:\Temp\ccOH3Pt6.s 			page 79


 4698              		@ frame_needed = 0, uses_anonymous_args = 0
 4699 0000 10B5     		push	{r4, lr}
 4700 0002 82B0     		sub	sp, sp, #8
 4701 0004 0C46     		mov	r4, r1
 4702 0006 0123     		movs	r3, #1
 4703 0008 01AA     		add	r2, sp, #4
 4704 000a 7221     		movs	r1, #114
 4705 000c FFF7FEFF 		bl	ism330dhcx_read_reg
 4706 0010 9DF80430 		ldrb	r3, [sp, #4]	@ zero_extendqisi2
 4707 0014 C3F3C203 		ubfx	r3, r3, #3, #3
 4708 0018 072B     		cmp	r3, #7
 4709 001a 1ED8     		bhi	.L587
 4710 001c DFE803F0 		tbb	[pc, r3]
 4711              	.L589:
 4712 0020 04       		.byte	(.L596-.L589)/2
 4713 0021 08       		.byte	(.L595-.L589)/2
 4714 0022 0B       		.byte	(.L594-.L589)/2
 4715 0023 0E       		.byte	(.L593-.L589)/2
 4716 0024 11       		.byte	(.L592-.L589)/2
 4717 0025 14       		.byte	(.L591-.L589)/2
 4718 0026 17       		.byte	(.L590-.L589)/2
 4719 0027 1A       		.byte	(.L588-.L589)/2
 4720              		.p2align 1
 4721              	.L596:
 4722 0028 0023     		movs	r3, #0
 4723 002a 2370     		strb	r3, [r4]
 4724              	.L586:
 4725 002c 02B0     		add	sp, sp, #8
 4726              		@ sp needed
 4727 002e 10BD     		pop	{r4, pc}
 4728              	.L595:
 4729 0030 0123     		movs	r3, #1
 4730 0032 2370     		strb	r3, [r4]
 4731 0034 FAE7     		b	.L586
 4732              	.L594:
 4733 0036 0223     		movs	r3, #2
 4734 0038 2370     		strb	r3, [r4]
 4735 003a F7E7     		b	.L586
 4736              	.L593:
 4737 003c 0323     		movs	r3, #3
 4738 003e 2370     		strb	r3, [r4]
 4739 0040 F4E7     		b	.L586
 4740              	.L592:
 4741 0042 0423     		movs	r3, #4
 4742 0044 2370     		strb	r3, [r4]
 4743 0046 F1E7     		b	.L586
 4744              	.L591:
 4745 0048 0523     		movs	r3, #5
 4746 004a 2370     		strb	r3, [r4]
 4747 004c EEE7     		b	.L586
 4748              	.L590:
 4749 004e 0623     		movs	r3, #6
 4750 0050 2370     		strb	r3, [r4]
 4751 0052 EBE7     		b	.L586
 4752              	.L588:
 4753 0054 0723     		movs	r3, #7
 4754 0056 2370     		strb	r3, [r4]
ARM GAS  C:\Temp\ccOH3Pt6.s 			page 80


 4755 0058 E8E7     		b	.L586
 4756              	.L587:
 4757 005a 0023     		movs	r3, #0
 4758 005c 2370     		strb	r3, [r4]
 4759 005e E5E7     		b	.L586
 4761              		.section	.text.ism330dhcx_aux_xl_full_scale_set,"ax",%progbits
 4762              		.align	1
 4763              		.global	ism330dhcx_aux_xl_full_scale_set
 4764              		.syntax unified
 4765              		.thumb
 4766              		.thumb_func
 4768              	ism330dhcx_aux_xl_full_scale_set:
 4769              		@ args = 0, pretend = 0, frame = 8
 4770              		@ frame_needed = 0, uses_anonymous_args = 0
 4771 0000 30B5     		push	{r4, r5, lr}
 4772 0002 83B0     		sub	sp, sp, #12
 4773 0004 0446     		mov	r4, r0
 4774 0006 0D46     		mov	r5, r1
 4775 0008 0123     		movs	r3, #1
 4776 000a 01AA     		add	r2, sp, #4
 4777 000c 7221     		movs	r1, #114
 4778 000e FFF7FEFF 		bl	ism330dhcx_read_reg
 4779 0012 08B1     		cbz	r0, .L602
 4780              	.L599:
 4781 0014 03B0     		add	sp, sp, #12
 4782              		@ sp needed
 4783 0016 30BD     		pop	{r4, r5, pc}
 4784              	.L602:
 4785 0018 9DF80430 		ldrb	r3, [sp, #4]	@ zero_extendqisi2
 4786 001c 65F38713 		bfi	r3, r5, #6, #2
 4787 0020 8DF80430 		strb	r3, [sp, #4]
 4788 0024 0123     		movs	r3, #1
 4789 0026 01AA     		add	r2, sp, #4
 4790 0028 7221     		movs	r1, #114
 4791 002a 2046     		mov	r0, r4
 4792 002c FFF7FEFF 		bl	ism330dhcx_write_reg
 4793 0030 F0E7     		b	.L599
 4795              		.section	.text.ism330dhcx_aux_xl_full_scale_get,"ax",%progbits
 4796              		.align	1
 4797              		.global	ism330dhcx_aux_xl_full_scale_get
 4798              		.syntax unified
 4799              		.thumb
 4800              		.thumb_func
 4802              	ism330dhcx_aux_xl_full_scale_get:
 4803              		@ args = 0, pretend = 0, frame = 8
 4804              		@ frame_needed = 0, uses_anonymous_args = 0
 4805 0000 10B5     		push	{r4, lr}
 4806 0002 82B0     		sub	sp, sp, #8
 4807 0004 0C46     		mov	r4, r1
 4808 0006 0123     		movs	r3, #1
 4809 0008 01AA     		add	r2, sp, #4
 4810 000a 7221     		movs	r1, #114
 4811 000c FFF7FEFF 		bl	ism330dhcx_read_reg
 4812 0010 9DF80430 		ldrb	r3, [sp, #4]	@ zero_extendqisi2
 4813 0014 9B09     		lsrs	r3, r3, #6
 4814 0016 032B     		cmp	r3, #3
 4815 0018 10D8     		bhi	.L604
ARM GAS  C:\Temp\ccOH3Pt6.s 			page 81


 4816 001a DFE803F0 		tbb	[pc, r3]
 4817              	.L606:
 4818 001e 02       		.byte	(.L609-.L606)/2
 4819 001f 06       		.byte	(.L608-.L606)/2
 4820 0020 09       		.byte	(.L607-.L606)/2
 4821 0021 0C       		.byte	(.L605-.L606)/2
 4822              		.p2align 1
 4823              	.L609:
 4824 0022 0023     		movs	r3, #0
 4825 0024 2370     		strb	r3, [r4]
 4826              	.L603:
 4827 0026 02B0     		add	sp, sp, #8
 4828              		@ sp needed
 4829 0028 10BD     		pop	{r4, pc}
 4830              	.L608:
 4831 002a 0123     		movs	r3, #1
 4832 002c 2370     		strb	r3, [r4]
 4833 002e FAE7     		b	.L603
 4834              	.L607:
 4835 0030 0223     		movs	r3, #2
 4836 0032 2370     		strb	r3, [r4]
 4837 0034 F7E7     		b	.L603
 4838              	.L605:
 4839 0036 0323     		movs	r3, #3
 4840 0038 2370     		strb	r3, [r4]
 4841 003a F4E7     		b	.L603
 4842              	.L604:
 4843 003c 0023     		movs	r3, #0
 4844 003e 2370     		strb	r3, [r4]
 4845 0040 F1E7     		b	.L603
 4847              		.section	.text.ism330dhcx_sdo_sa0_mode_set,"ax",%progbits
 4848              		.align	1
 4849              		.global	ism330dhcx_sdo_sa0_mode_set
 4850              		.syntax unified
 4851              		.thumb
 4852              		.thumb_func
 4854              	ism330dhcx_sdo_sa0_mode_set:
 4855              		@ args = 0, pretend = 0, frame = 8
 4856              		@ frame_needed = 0, uses_anonymous_args = 0
 4857 0000 30B5     		push	{r4, r5, lr}
 4858 0002 83B0     		sub	sp, sp, #12
 4859 0004 0446     		mov	r4, r0
 4860 0006 0D46     		mov	r5, r1
 4861 0008 0123     		movs	r3, #1
 4862 000a 01AA     		add	r2, sp, #4
 4863 000c 0221     		movs	r1, #2
 4864 000e FFF7FEFF 		bl	ism330dhcx_read_reg
 4865 0012 08B1     		cbz	r0, .L615
 4866              	.L612:
 4867 0014 03B0     		add	sp, sp, #12
 4868              		@ sp needed
 4869 0016 30BD     		pop	{r4, r5, pc}
 4870              	.L615:
 4871 0018 9DF80430 		ldrb	r3, [sp, #4]	@ zero_extendqisi2
 4872 001c 65F38613 		bfi	r3, r5, #6, #1
 4873 0020 8DF80430 		strb	r3, [sp, #4]
 4874 0024 0123     		movs	r3, #1
ARM GAS  C:\Temp\ccOH3Pt6.s 			page 82


 4875 0026 01AA     		add	r2, sp, #4
 4876 0028 0221     		movs	r1, #2
 4877 002a 2046     		mov	r0, r4
 4878 002c FFF7FEFF 		bl	ism330dhcx_write_reg
 4879 0030 F0E7     		b	.L612
 4881              		.section	.text.ism330dhcx_sdo_sa0_mode_get,"ax",%progbits
 4882              		.align	1
 4883              		.global	ism330dhcx_sdo_sa0_mode_get
 4884              		.syntax unified
 4885              		.thumb
 4886              		.thumb_func
 4888              	ism330dhcx_sdo_sa0_mode_get:
 4889              		@ args = 0, pretend = 0, frame = 8
 4890              		@ frame_needed = 0, uses_anonymous_args = 0
 4891 0000 10B5     		push	{r4, lr}
 4892 0002 82B0     		sub	sp, sp, #8
 4893 0004 0C46     		mov	r4, r1
 4894 0006 0123     		movs	r3, #1
 4895 0008 01AA     		add	r2, sp, #4
 4896 000a 0221     		movs	r1, #2
 4897 000c FFF7FEFF 		bl	ism330dhcx_read_reg
 4898 0010 9DF80430 		ldrb	r3, [sp, #4]	@ zero_extendqisi2
 4899 0014 C3F38012 		ubfx	r2, r3, #6, #1
 4900 0018 13F0400F 		tst	r3, #64
 4901 001c 03D0     		beq	.L617
 4902 001e 32B9     		cbnz	r2, .L618
 4903 0020 0023     		movs	r3, #0
 4904 0022 2370     		strb	r3, [r4]
 4905 0024 01E0     		b	.L616
 4906              	.L617:
 4907 0026 0023     		movs	r3, #0
 4908 0028 2370     		strb	r3, [r4]
 4909              	.L616:
 4910 002a 02B0     		add	sp, sp, #8
 4911              		@ sp needed
 4912 002c 10BD     		pop	{r4, pc}
 4913              	.L618:
 4914 002e 0123     		movs	r3, #1
 4915 0030 2370     		strb	r3, [r4]
 4916 0032 FAE7     		b	.L616
 4918              		.section	.text.ism330dhcx_spi_mode_set,"ax",%progbits
 4919              		.align	1
 4920              		.global	ism330dhcx_spi_mode_set
 4921              		.syntax unified
 4922              		.thumb
 4923              		.thumb_func
 4925              	ism330dhcx_spi_mode_set:
 4926              		@ args = 0, pretend = 0, frame = 8
 4927              		@ frame_needed = 0, uses_anonymous_args = 0
 4928 0000 30B5     		push	{r4, r5, lr}
 4929 0002 83B0     		sub	sp, sp, #12
 4930 0004 0446     		mov	r4, r0
 4931 0006 0D46     		mov	r5, r1
 4932 0008 0123     		movs	r3, #1
 4933 000a 01AA     		add	r2, sp, #4
 4934 000c 1221     		movs	r1, #18
 4935 000e FFF7FEFF 		bl	ism330dhcx_read_reg
ARM GAS  C:\Temp\ccOH3Pt6.s 			page 83


 4936 0012 08B1     		cbz	r0, .L626
 4937              	.L623:
 4938 0014 03B0     		add	sp, sp, #12
 4939              		@ sp needed
 4940 0016 30BD     		pop	{r4, r5, pc}
 4941              	.L626:
 4942 0018 9DF80430 		ldrb	r3, [sp, #4]	@ zero_extendqisi2
 4943 001c 65F3C303 		bfi	r3, r5, #3, #1
 4944 0020 8DF80430 		strb	r3, [sp, #4]
 4945 0024 0123     		movs	r3, #1
 4946 0026 01AA     		add	r2, sp, #4
 4947 0028 1221     		movs	r1, #18
 4948 002a 2046     		mov	r0, r4
 4949 002c FFF7FEFF 		bl	ism330dhcx_write_reg
 4950 0030 F0E7     		b	.L623
 4952              		.section	.text.ism330dhcx_spi_mode_get,"ax",%progbits
 4953              		.align	1
 4954              		.global	ism330dhcx_spi_mode_get
 4955              		.syntax unified
 4956              		.thumb
 4957              		.thumb_func
 4959              	ism330dhcx_spi_mode_get:
 4960              		@ args = 0, pretend = 0, frame = 8
 4961              		@ frame_needed = 0, uses_anonymous_args = 0
 4962 0000 10B5     		push	{r4, lr}
 4963 0002 82B0     		sub	sp, sp, #8
 4964 0004 0C46     		mov	r4, r1
 4965 0006 0123     		movs	r3, #1
 4966 0008 01AA     		add	r2, sp, #4
 4967 000a 1221     		movs	r1, #18
 4968 000c FFF7FEFF 		bl	ism330dhcx_read_reg
 4969 0010 9DF80430 		ldrb	r3, [sp, #4]	@ zero_extendqisi2
 4970 0014 C3F3C002 		ubfx	r2, r3, #3, #1
 4971 0018 13F0080F 		tst	r3, #8
 4972 001c 03D0     		beq	.L628
 4973 001e 32B9     		cbnz	r2, .L629
 4974 0020 0023     		movs	r3, #0
 4975 0022 2370     		strb	r3, [r4]
 4976 0024 01E0     		b	.L627
 4977              	.L628:
 4978 0026 0023     		movs	r3, #0
 4979 0028 2370     		strb	r3, [r4]
 4980              	.L627:
 4981 002a 02B0     		add	sp, sp, #8
 4982              		@ sp needed
 4983 002c 10BD     		pop	{r4, pc}
 4984              	.L629:
 4985 002e 0123     		movs	r3, #1
 4986 0030 2370     		strb	r3, [r4]
 4987 0032 FAE7     		b	.L627
 4989              		.section	.text.ism330dhcx_i2c_interface_set,"ax",%progbits
 4990              		.align	1
 4991              		.global	ism330dhcx_i2c_interface_set
 4992              		.syntax unified
 4993              		.thumb
 4994              		.thumb_func
 4996              	ism330dhcx_i2c_interface_set:
ARM GAS  C:\Temp\ccOH3Pt6.s 			page 84


 4997              		@ args = 0, pretend = 0, frame = 8
 4998              		@ frame_needed = 0, uses_anonymous_args = 0
 4999 0000 30B5     		push	{r4, r5, lr}
 5000 0002 83B0     		sub	sp, sp, #12
 5001 0004 0446     		mov	r4, r0
 5002 0006 0D46     		mov	r5, r1
 5003 0008 0123     		movs	r3, #1
 5004 000a 01AA     		add	r2, sp, #4
 5005 000c 1321     		movs	r1, #19
 5006 000e FFF7FEFF 		bl	ism330dhcx_read_reg
 5007 0012 08B1     		cbz	r0, .L637
 5008              	.L634:
 5009 0014 03B0     		add	sp, sp, #12
 5010              		@ sp needed
 5011 0016 30BD     		pop	{r4, r5, pc}
 5012              	.L637:
 5013 0018 9DF80430 		ldrb	r3, [sp, #4]	@ zero_extendqisi2
 5014 001c 65F38203 		bfi	r3, r5, #2, #1
 5015 0020 8DF80430 		strb	r3, [sp, #4]
 5016 0024 0123     		movs	r3, #1
 5017 0026 01AA     		add	r2, sp, #4
 5018 0028 1321     		movs	r1, #19
 5019 002a 2046     		mov	r0, r4
 5020 002c FFF7FEFF 		bl	ism330dhcx_write_reg
 5021 0030 F0E7     		b	.L634
 5023              		.section	.text.ism330dhcx_i2c_interface_get,"ax",%progbits
 5024              		.align	1
 5025              		.global	ism330dhcx_i2c_interface_get
 5026              		.syntax unified
 5027              		.thumb
 5028              		.thumb_func
 5030              	ism330dhcx_i2c_interface_get:
 5031              		@ args = 0, pretend = 0, frame = 8
 5032              		@ frame_needed = 0, uses_anonymous_args = 0
 5033 0000 10B5     		push	{r4, lr}
 5034 0002 82B0     		sub	sp, sp, #8
 5035 0004 0C46     		mov	r4, r1
 5036 0006 0123     		movs	r3, #1
 5037 0008 01AA     		add	r2, sp, #4
 5038 000a 1321     		movs	r1, #19
 5039 000c FFF7FEFF 		bl	ism330dhcx_read_reg
 5040 0010 9DF80430 		ldrb	r3, [sp, #4]	@ zero_extendqisi2
 5041 0014 C3F38002 		ubfx	r2, r3, #2, #1
 5042 0018 13F0040F 		tst	r3, #4
 5043 001c 03D0     		beq	.L639
 5044 001e 32B9     		cbnz	r2, .L640
 5045 0020 0023     		movs	r3, #0
 5046 0022 2370     		strb	r3, [r4]
 5047 0024 01E0     		b	.L638
 5048              	.L639:
 5049 0026 0023     		movs	r3, #0
 5050 0028 2370     		strb	r3, [r4]
 5051              	.L638:
 5052 002a 02B0     		add	sp, sp, #8
 5053              		@ sp needed
 5054 002c 10BD     		pop	{r4, pc}
 5055              	.L640:
ARM GAS  C:\Temp\ccOH3Pt6.s 			page 85


 5056 002e 0123     		movs	r3, #1
 5057 0030 2370     		strb	r3, [r4]
 5058 0032 FAE7     		b	.L638
 5060              		.section	.text.ism330dhcx_pin_int1_route_set,"ax",%progbits
 5061              		.align	1
 5062              		.global	ism330dhcx_pin_int1_route_set
 5063              		.syntax unified
 5064              		.thumb
 5065              		.thumb_func
 5067              	ism330dhcx_pin_int1_route_set:
 5068              		@ args = 0, pretend = 0, frame = 8
 5069              		@ frame_needed = 0, uses_anonymous_args = 0
 5070 0000 30B5     		push	{r4, r5, lr}
 5071 0002 83B0     		sub	sp, sp, #12
 5072 0004 0546     		mov	r5, r0
 5073 0006 0C46     		mov	r4, r1
 5074 0008 0221     		movs	r1, #2
 5075 000a FFF7FEFF 		bl	ism330dhcx_mem_bank_set
 5076 000e 0346     		mov	r3, r0
 5077 0010 18B1     		cbz	r0, .L653
 5078              	.L646:
 5079 0012 9BB1     		cbz	r3, .L654
 5080              	.L645:
 5081 0014 1846     		mov	r0, r3
 5082 0016 03B0     		add	sp, sp, #12
 5083              		@ sp needed
 5084 0018 30BD     		pop	{r4, r5, pc}
 5085              	.L653:
 5086 001a 0123     		movs	r3, #1
 5087 001c 621D     		adds	r2, r4, #5
 5088 001e 0D21     		movs	r1, #13
 5089 0020 2846     		mov	r0, r5
 5090 0022 FFF7FEFF 		bl	ism330dhcx_write_reg
 5091 0026 0346     		mov	r3, r0
 5092 0028 0028     		cmp	r0, #0
 5093 002a F3D1     		bne	.L645
 5094 002c 0123     		movs	r3, #1
 5095 002e A21C     		adds	r2, r4, #2
 5096 0030 0A21     		movs	r1, #10
 5097 0032 2846     		mov	r0, r5
 5098 0034 FFF7FEFF 		bl	ism330dhcx_write_reg
 5099 0038 0346     		mov	r3, r0
 5100 003a EAE7     		b	.L646
 5101              	.L654:
 5102 003c 0123     		movs	r3, #1
 5103 003e E21C     		adds	r2, r4, #3
 5104 0040 0B21     		movs	r1, #11
 5105 0042 2846     		mov	r0, r5
 5106 0044 FFF7FEFF 		bl	ism330dhcx_write_reg
 5107 0048 0346     		mov	r3, r0
 5108 004a 0028     		cmp	r0, #0
 5109 004c E2D1     		bne	.L645
 5110 004e 0123     		movs	r3, #1
 5111 0050 221D     		adds	r2, r4, #4
 5112 0052 0C21     		movs	r1, #12
 5113 0054 2846     		mov	r0, r5
 5114 0056 FFF7FEFF 		bl	ism330dhcx_write_reg
ARM GAS  C:\Temp\ccOH3Pt6.s 			page 86


 5115 005a 0346     		mov	r3, r0
 5116 005c 0028     		cmp	r0, #0
 5117 005e D9D1     		bne	.L645
 5118 0060 0021     		movs	r1, #0
 5119 0062 2846     		mov	r0, r5
 5120 0064 FFF7FEFF 		bl	ism330dhcx_mem_bank_set
 5121 0068 0346     		mov	r3, r0
 5122 006a 0028     		cmp	r0, #0
 5123 006c D2D1     		bne	.L645
 5124 006e A278     		ldrb	r2, [r4, #2]	@ zero_extendqisi2
 5125 0070 C2F34013 		ubfx	r3, r2, #5, #1
 5126 0074 43EAD213 		orr	r3, r3, r2, lsr #7
 5127 0078 C2F3C001 		ubfx	r1, r2, #3, #1
 5128 007c 0B43     		orrs	r3, r3, r1
 5129 007e C2F30012 		ubfx	r2, r2, #4, #1
 5130 0082 1343     		orrs	r3, r3, r2
 5131 0084 E278     		ldrb	r2, [r4, #3]	@ zero_extendqisi2
 5132 0086 02F00101 		and	r1, r2, #1
 5133 008a 0B43     		orrs	r3, r3, r1
 5134 008c C2F34001 		ubfx	r1, r2, #1, #1
 5135 0090 0B43     		orrs	r3, r3, r1
 5136 0092 C2F38001 		ubfx	r1, r2, #2, #1
 5137 0096 0B43     		orrs	r3, r3, r1
 5138 0098 C2F3C001 		ubfx	r1, r2, #3, #1
 5139 009c 0B43     		orrs	r3, r3, r1
 5140 009e C2F30011 		ubfx	r1, r2, #4, #1
 5141 00a2 0B43     		orrs	r3, r3, r1
 5142 00a4 C2F34011 		ubfx	r1, r2, #5, #1
 5143 00a8 0B43     		orrs	r3, r3, r1
 5144 00aa C2F38011 		ubfx	r1, r2, #6, #1
 5145 00ae 0B43     		orrs	r3, r3, r1
 5146 00b0 43EAD213 		orr	r3, r3, r2, lsr #7
 5147 00b4 2279     		ldrb	r2, [r4, #4]	@ zero_extendqisi2
 5148 00b6 02F00101 		and	r1, r2, #1
 5149 00ba 0B43     		orrs	r3, r3, r1
 5150 00bc C2F34001 		ubfx	r1, r2, #1, #1
 5151 00c0 0B43     		orrs	r3, r3, r1
 5152 00c2 C2F38001 		ubfx	r1, r2, #2, #1
 5153 00c6 0B43     		orrs	r3, r3, r1
 5154 00c8 C2F3C001 		ubfx	r1, r2, #3, #1
 5155 00cc 0B43     		orrs	r3, r3, r1
 5156 00ce C2F30011 		ubfx	r1, r2, #4, #1
 5157 00d2 0B43     		orrs	r3, r3, r1
 5158 00d4 C2F34011 		ubfx	r1, r2, #5, #1
 5159 00d8 0B43     		orrs	r3, r3, r1
 5160 00da C2F38011 		ubfx	r1, r2, #6, #1
 5161 00de 0B43     		orrs	r3, r3, r1
 5162 00e0 43EAD213 		orr	r3, r3, r2, lsr #7
 5163 00e4 6279     		ldrb	r2, [r4, #5]	@ zero_extendqisi2
 5164 00e6 02F00101 		and	r1, r2, #1
 5165 00ea 0B43     		orrs	r3, r3, r1
 5166 00ec C2F34001 		ubfx	r1, r2, #1, #1
 5167 00f0 0B43     		orrs	r3, r3, r1
 5168 00f2 C2F38001 		ubfx	r1, r2, #2, #1
 5169 00f6 0B43     		orrs	r3, r3, r1
 5170 00f8 C2F3C001 		ubfx	r1, r2, #3, #1
 5171 00fc 0B43     		orrs	r3, r3, r1
ARM GAS  C:\Temp\ccOH3Pt6.s 			page 87


 5172 00fe C2F30011 		ubfx	r1, r2, #4, #1
 5173 0102 0B43     		orrs	r3, r3, r1
 5174 0104 C2F34011 		ubfx	r1, r2, #5, #1
 5175 0108 0B43     		orrs	r3, r3, r1
 5176 010a C2F38011 		ubfx	r1, r2, #6, #1
 5177 010e 0B43     		orrs	r3, r3, r1
 5178 0110 53EAD213 		orrs	r3, r3, r2, lsr #7
 5179 0114 5CD0     		beq	.L648
 5180 0116 6378     		ldrb	r3, [r4, #1]	@ zero_extendqisi2
 5181 0118 43F00203 		orr	r3, r3, #2
 5182 011c 6370     		strb	r3, [r4, #1]
 5183              	.L649:
 5184 011e 0123     		movs	r3, #1
 5185 0120 2246     		mov	r2, r4
 5186 0122 0D21     		movs	r1, #13
 5187 0124 2846     		mov	r0, r5
 5188 0126 FFF7FEFF 		bl	ism330dhcx_write_reg
 5189 012a 0346     		mov	r3, r0
 5190 012c 0028     		cmp	r0, #0
 5191 012e 7FF471AF 		bne	.L645
 5192 0132 0123     		movs	r3, #1
 5193 0134 E218     		adds	r2, r4, r3
 5194 0136 5E21     		movs	r1, #94
 5195 0138 2846     		mov	r0, r5
 5196 013a FFF7FEFF 		bl	ism330dhcx_write_reg
 5197 013e 0346     		mov	r3, r0
 5198 0140 0028     		cmp	r0, #0
 5199 0142 7FF467AF 		bne	.L645
 5200 0146 0123     		movs	r3, #1
 5201 0148 01AA     		add	r2, sp, #4
 5202 014a 5821     		movs	r1, #88
 5203 014c 2846     		mov	r0, r5
 5204 014e FFF7FEFF 		bl	ism330dhcx_read_reg
 5205 0152 0346     		mov	r3, r0
 5206 0154 2178     		ldrb	r1, [r4]	@ zero_extendqisi2
 5207 0156 C1F38002 		ubfx	r2, r1, #2, #1
 5208 015a 42EAD112 		orr	r2, r2, r1, lsr #7
 5209 015e C1F38010 		ubfx	r0, r1, #6, #1
 5210 0162 0243     		orrs	r2, r2, r0
 5211 0164 C1F34000 		ubfx	r0, r1, #1, #1
 5212 0168 0243     		orrs	r2, r2, r0
 5213 016a 01F00100 		and	r0, r1, #1
 5214 016e 0243     		orrs	r2, r2, r0
 5215 0170 C1F34010 		ubfx	r0, r1, #5, #1
 5216 0174 0243     		orrs	r2, r2, r0
 5217 0176 C1F30010 		ubfx	r0, r1, #4, #1
 5218 017a 0243     		orrs	r2, r2, r0
 5219 017c C1F3C001 		ubfx	r1, r1, #3, #1
 5220 0180 0A43     		orrs	r2, r2, r1
 5221 0182 6178     		ldrb	r1, [r4, #1]	@ zero_extendqisi2
 5222 0184 01F00100 		and	r0, r1, #1
 5223 0188 0243     		orrs	r2, r2, r0
 5224 018a C1F38000 		ubfx	r0, r1, #2, #1
 5225 018e 0243     		orrs	r2, r2, r0
 5226 0190 C1F3C000 		ubfx	r0, r1, #3, #1
 5227 0194 0243     		orrs	r2, r2, r0
 5228 0196 C1F30010 		ubfx	r0, r1, #4, #1
ARM GAS  C:\Temp\ccOH3Pt6.s 			page 88


 5229 019a 0243     		orrs	r2, r2, r0
 5230 019c C1F34010 		ubfx	r0, r1, #5, #1
 5231 01a0 0243     		orrs	r2, r2, r0
 5232 01a2 C1F38010 		ubfx	r0, r1, #6, #1
 5233 01a6 0243     		orrs	r2, r2, r0
 5234 01a8 52EAD112 		orrs	r2, r2, r1, lsr #7
 5235 01ac 15D0     		beq	.L650
 5236 01ae 9DF80420 		ldrb	r2, [sp, #4]	@ zero_extendqisi2
 5237 01b2 42F08002 		orr	r2, r2, #128
 5238 01b6 8DF80420 		strb	r2, [sp, #4]
 5239              	.L651:
 5240 01ba 002B     		cmp	r3, #0
 5241 01bc 7FF42AAF 		bne	.L645
 5242 01c0 0123     		movs	r3, #1
 5243 01c2 01AA     		add	r2, sp, #4
 5244 01c4 5821     		movs	r1, #88
 5245 01c6 2846     		mov	r0, r5
 5246 01c8 FFF7FEFF 		bl	ism330dhcx_write_reg
 5247 01cc 0346     		mov	r3, r0
 5248 01ce 21E7     		b	.L645
 5249              	.L648:
 5250 01d0 6378     		ldrb	r3, [r4, #1]	@ zero_extendqisi2
 5251 01d2 6FF34103 		bfc	r3, #1, #1
 5252 01d6 6370     		strb	r3, [r4, #1]
 5253 01d8 A1E7     		b	.L649
 5254              	.L650:
 5255 01da 9DF80420 		ldrb	r2, [sp, #4]	@ zero_extendqisi2
 5256 01de 6FF3C712 		bfc	r2, #7, #1
 5257 01e2 8DF80420 		strb	r2, [sp, #4]
 5258 01e6 E8E7     		b	.L651
 5260              		.section	.text.ism330dhcx_pin_int1_route_get,"ax",%progbits
 5261              		.align	1
 5262              		.global	ism330dhcx_pin_int1_route_get
 5263              		.syntax unified
 5264              		.thumb
 5265              		.thumb_func
 5267              	ism330dhcx_pin_int1_route_get:
 5268              		@ args = 0, pretend = 0, frame = 0
 5269              		@ frame_needed = 0, uses_anonymous_args = 0
 5270 0000 38B5     		push	{r3, r4, r5, lr}
 5271 0002 0546     		mov	r5, r0
 5272 0004 0C46     		mov	r4, r1
 5273 0006 0221     		movs	r1, #2
 5274 0008 FFF7FEFF 		bl	ism330dhcx_mem_bank_set
 5275 000c 0346     		mov	r3, r0
 5276 000e 10B1     		cbz	r0, .L659
 5277              	.L656:
 5278 0010 93B1     		cbz	r3, .L660
 5279              	.L655:
 5280 0012 1846     		mov	r0, r3
 5281 0014 38BD     		pop	{r3, r4, r5, pc}
 5282              	.L659:
 5283 0016 0123     		movs	r3, #1
 5284 0018 621D     		adds	r2, r4, #5
 5285 001a 0D21     		movs	r1, #13
 5286 001c 2846     		mov	r0, r5
 5287 001e FFF7FEFF 		bl	ism330dhcx_read_reg
ARM GAS  C:\Temp\ccOH3Pt6.s 			page 89


 5288 0022 0346     		mov	r3, r0
 5289 0024 0028     		cmp	r0, #0
 5290 0026 F4D1     		bne	.L655
 5291 0028 0123     		movs	r3, #1
 5292 002a A21C     		adds	r2, r4, #2
 5293 002c 0A21     		movs	r1, #10
 5294 002e 2846     		mov	r0, r5
 5295 0030 FFF7FEFF 		bl	ism330dhcx_read_reg
 5296 0034 0346     		mov	r3, r0
 5297 0036 EBE7     		b	.L656
 5298              	.L660:
 5299 0038 0123     		movs	r3, #1
 5300 003a E21C     		adds	r2, r4, #3
 5301 003c 0B21     		movs	r1, #11
 5302 003e 2846     		mov	r0, r5
 5303 0040 FFF7FEFF 		bl	ism330dhcx_read_reg
 5304 0044 0346     		mov	r3, r0
 5305 0046 0028     		cmp	r0, #0
 5306 0048 E3D1     		bne	.L655
 5307 004a 0123     		movs	r3, #1
 5308 004c 221D     		adds	r2, r4, #4
 5309 004e 0C21     		movs	r1, #12
 5310 0050 2846     		mov	r0, r5
 5311 0052 FFF7FEFF 		bl	ism330dhcx_read_reg
 5312 0056 0346     		mov	r3, r0
 5313 0058 0028     		cmp	r0, #0
 5314 005a DAD1     		bne	.L655
 5315 005c 0021     		movs	r1, #0
 5316 005e 2846     		mov	r0, r5
 5317 0060 FFF7FEFF 		bl	ism330dhcx_mem_bank_set
 5318 0064 0346     		mov	r3, r0
 5319 0066 0028     		cmp	r0, #0
 5320 0068 D3D1     		bne	.L655
 5321 006a 0123     		movs	r3, #1
 5322 006c 2246     		mov	r2, r4
 5323 006e 0D21     		movs	r1, #13
 5324 0070 2846     		mov	r0, r5
 5325 0072 FFF7FEFF 		bl	ism330dhcx_read_reg
 5326 0076 0346     		mov	r3, r0
 5327 0078 0028     		cmp	r0, #0
 5328 007a CAD1     		bne	.L655
 5329 007c 0123     		movs	r3, #1
 5330 007e E218     		adds	r2, r4, r3
 5331 0080 5E21     		movs	r1, #94
 5332 0082 2846     		mov	r0, r5
 5333 0084 FFF7FEFF 		bl	ism330dhcx_read_reg
 5334 0088 0346     		mov	r3, r0
 5335 008a C2E7     		b	.L655
 5337              		.section	.text.ism330dhcx_pin_int2_route_set,"ax",%progbits
 5338              		.align	1
 5339              		.global	ism330dhcx_pin_int2_route_set
 5340              		.syntax unified
 5341              		.thumb
 5342              		.thumb_func
 5344              	ism330dhcx_pin_int2_route_set:
 5345              		@ args = 0, pretend = 0, frame = 8
 5346              		@ frame_needed = 0, uses_anonymous_args = 0
ARM GAS  C:\Temp\ccOH3Pt6.s 			page 90


 5347 0000 30B5     		push	{r4, r5, lr}
 5348 0002 83B0     		sub	sp, sp, #12
 5349 0004 0546     		mov	r5, r0
 5350 0006 0C46     		mov	r4, r1
 5351 0008 0221     		movs	r1, #2
 5352 000a FFF7FEFF 		bl	ism330dhcx_mem_bank_set
 5353 000e 0346     		mov	r3, r0
 5354 0010 18B1     		cbz	r0, .L669
 5355              	.L662:
 5356 0012 9BB1     		cbz	r3, .L670
 5357              	.L661:
 5358 0014 1846     		mov	r0, r3
 5359 0016 03B0     		add	sp, sp, #12
 5360              		@ sp needed
 5361 0018 30BD     		pop	{r4, r5, pc}
 5362              	.L669:
 5363 001a 0123     		movs	r3, #1
 5364 001c 621D     		adds	r2, r4, #5
 5365 001e 1121     		movs	r1, #17
 5366 0020 2846     		mov	r0, r5
 5367 0022 FFF7FEFF 		bl	ism330dhcx_write_reg
 5368 0026 0346     		mov	r3, r0
 5369 0028 0028     		cmp	r0, #0
 5370 002a F3D1     		bne	.L661
 5371 002c 0123     		movs	r3, #1
 5372 002e A21C     		adds	r2, r4, #2
 5373 0030 0E21     		movs	r1, #14
 5374 0032 2846     		mov	r0, r5
 5375 0034 FFF7FEFF 		bl	ism330dhcx_write_reg
 5376 0038 0346     		mov	r3, r0
 5377 003a EAE7     		b	.L662
 5378              	.L670:
 5379 003c 0123     		movs	r3, #1
 5380 003e E21C     		adds	r2, r4, #3
 5381 0040 0F21     		movs	r1, #15
 5382 0042 2846     		mov	r0, r5
 5383 0044 FFF7FEFF 		bl	ism330dhcx_write_reg
 5384 0048 0346     		mov	r3, r0
 5385 004a 0028     		cmp	r0, #0
 5386 004c E2D1     		bne	.L661
 5387 004e 0123     		movs	r3, #1
 5388 0050 221D     		adds	r2, r4, #4
 5389 0052 1021     		movs	r1, #16
 5390 0054 2846     		mov	r0, r5
 5391 0056 FFF7FEFF 		bl	ism330dhcx_write_reg
 5392 005a 0346     		mov	r3, r0
 5393 005c 0028     		cmp	r0, #0
 5394 005e D9D1     		bne	.L661
 5395 0060 0021     		movs	r1, #0
 5396 0062 2846     		mov	r0, r5
 5397 0064 FFF7FEFF 		bl	ism330dhcx_mem_bank_set
 5398 0068 0346     		mov	r3, r0
 5399 006a 0028     		cmp	r0, #0
 5400 006c D2D1     		bne	.L661
 5401 006e A278     		ldrb	r2, [r4, #2]	@ zero_extendqisi2
 5402 0070 C2F3C003 		ubfx	r3, r2, #3, #1
 5403 0074 C2F30011 		ubfx	r1, r2, #4, #1
ARM GAS  C:\Temp\ccOH3Pt6.s 			page 91


 5404 0078 0B43     		orrs	r3, r3, r1
 5405 007a C2F34011 		ubfx	r1, r2, #5, #1
 5406 007e 0B43     		orrs	r3, r3, r1
 5407 0080 43EAD213 		orr	r3, r3, r2, lsr #7
 5408 0084 E278     		ldrb	r2, [r4, #3]	@ zero_extendqisi2
 5409 0086 02F00101 		and	r1, r2, #1
 5410 008a 0B43     		orrs	r3, r3, r1
 5411 008c C2F34001 		ubfx	r1, r2, #1, #1
 5412 0090 0B43     		orrs	r3, r3, r1
 5413 0092 C2F38001 		ubfx	r1, r2, #2, #1
 5414 0096 0B43     		orrs	r3, r3, r1
 5415 0098 C2F3C001 		ubfx	r1, r2, #3, #1
 5416 009c 0B43     		orrs	r3, r3, r1
 5417 009e C2F30011 		ubfx	r1, r2, #4, #1
 5418 00a2 0B43     		orrs	r3, r3, r1
 5419 00a4 C2F34011 		ubfx	r1, r2, #5, #1
 5420 00a8 0B43     		orrs	r3, r3, r1
 5421 00aa C2F38011 		ubfx	r1, r2, #6, #1
 5422 00ae 0B43     		orrs	r3, r3, r1
 5423 00b0 43EAD213 		orr	r3, r3, r2, lsr #7
 5424 00b4 2279     		ldrb	r2, [r4, #4]	@ zero_extendqisi2
 5425 00b6 02F00101 		and	r1, r2, #1
 5426 00ba 0B43     		orrs	r3, r3, r1
 5427 00bc C2F34001 		ubfx	r1, r2, #1, #1
 5428 00c0 0B43     		orrs	r3, r3, r1
 5429 00c2 C2F38001 		ubfx	r1, r2, #2, #1
 5430 00c6 0B43     		orrs	r3, r3, r1
 5431 00c8 C2F3C001 		ubfx	r1, r2, #3, #1
 5432 00cc 0B43     		orrs	r3, r3, r1
 5433 00ce C2F30011 		ubfx	r1, r2, #4, #1
 5434 00d2 0B43     		orrs	r3, r3, r1
 5435 00d4 C2F34011 		ubfx	r1, r2, #5, #1
 5436 00d8 0B43     		orrs	r3, r3, r1
 5437 00da C2F38011 		ubfx	r1, r2, #6, #1
 5438 00de 0B43     		orrs	r3, r3, r1
 5439 00e0 43EAD213 		orr	r3, r3, r2, lsr #7
 5440 00e4 6279     		ldrb	r2, [r4, #5]	@ zero_extendqisi2
 5441 00e6 02F00101 		and	r1, r2, #1
 5442 00ea 0B43     		orrs	r3, r3, r1
 5443 00ec C2F34001 		ubfx	r1, r2, #1, #1
 5444 00f0 0B43     		orrs	r3, r3, r1
 5445 00f2 C2F38001 		ubfx	r1, r2, #2, #1
 5446 00f6 0B43     		orrs	r3, r3, r1
 5447 00f8 C2F3C001 		ubfx	r1, r2, #3, #1
 5448 00fc 0B43     		orrs	r3, r3, r1
 5449 00fe C2F30011 		ubfx	r1, r2, #4, #1
 5450 0102 0B43     		orrs	r3, r3, r1
 5451 0104 C2F34011 		ubfx	r1, r2, #5, #1
 5452 0108 0B43     		orrs	r3, r3, r1
 5453 010a C2F38011 		ubfx	r1, r2, #6, #1
 5454 010e 0B43     		orrs	r3, r3, r1
 5455 0110 53EAD213 		orrs	r3, r3, r2, lsr #7
 5456 0114 57D0     		beq	.L664
 5457 0116 6378     		ldrb	r3, [r4, #1]	@ zero_extendqisi2
 5458 0118 43F00203 		orr	r3, r3, #2
 5459 011c 6370     		strb	r3, [r4, #1]
 5460              	.L665:
ARM GAS  C:\Temp\ccOH3Pt6.s 			page 92


 5461 011e 0123     		movs	r3, #1
 5462 0120 2246     		mov	r2, r4
 5463 0122 0E21     		movs	r1, #14
 5464 0124 2846     		mov	r0, r5
 5465 0126 FFF7FEFF 		bl	ism330dhcx_write_reg
 5466 012a 0346     		mov	r3, r0
 5467 012c 0028     		cmp	r0, #0
 5468 012e 7FF471AF 		bne	.L661
 5469 0132 0123     		movs	r3, #1
 5470 0134 E218     		adds	r2, r4, r3
 5471 0136 5F21     		movs	r1, #95
 5472 0138 2846     		mov	r0, r5
 5473 013a FFF7FEFF 		bl	ism330dhcx_write_reg
 5474 013e 0346     		mov	r3, r0
 5475 0140 0028     		cmp	r0, #0
 5476 0142 7FF467AF 		bne	.L661
 5477 0146 0123     		movs	r3, #1
 5478 0148 01AA     		add	r2, sp, #4
 5479 014a 5821     		movs	r1, #88
 5480 014c 2846     		mov	r0, r5
 5481 014e FFF7FEFF 		bl	ism330dhcx_read_reg
 5482 0152 0346     		mov	r3, r0
 5483 0154 0028     		cmp	r0, #0
 5484 0156 7FF45DAF 		bne	.L661
 5485 015a 2278     		ldrb	r2, [r4]	@ zero_extendqisi2
 5486 015c 02F00103 		and	r3, r2, #1
 5487 0160 C2F34001 		ubfx	r1, r2, #1, #1
 5488 0164 0B43     		orrs	r3, r3, r1
 5489 0166 C2F38001 		ubfx	r1, r2, #2, #1
 5490 016a 0B43     		orrs	r3, r3, r1
 5491 016c C2F3C001 		ubfx	r1, r2, #3, #1
 5492 0170 0B43     		orrs	r3, r3, r1
 5493 0172 C2F30011 		ubfx	r1, r2, #4, #1
 5494 0176 0B43     		orrs	r3, r3, r1
 5495 0178 C2F34011 		ubfx	r1, r2, #5, #1
 5496 017c 0B43     		orrs	r3, r3, r1
 5497 017e C2F38012 		ubfx	r2, r2, #6, #1
 5498 0182 1343     		orrs	r3, r3, r2
 5499 0184 6278     		ldrb	r2, [r4, #1]	@ zero_extendqisi2
 5500 0186 C2F38001 		ubfx	r1, r2, #2, #1
 5501 018a 0B43     		orrs	r3, r3, r1
 5502 018c C2F3C001 		ubfx	r1, r2, #3, #1
 5503 0190 0B43     		orrs	r3, r3, r1
 5504 0192 C2F30011 		ubfx	r1, r2, #4, #1
 5505 0196 0B43     		orrs	r3, r3, r1
 5506 0198 C2F34011 		ubfx	r1, r2, #5, #1
 5507 019c 0B43     		orrs	r3, r3, r1
 5508 019e C2F38011 		ubfx	r1, r2, #6, #1
 5509 01a2 0B43     		orrs	r3, r3, r1
 5510 01a4 53EAD213 		orrs	r3, r3, r2, lsr #7
 5511 01a8 12D0     		beq	.L666
 5512 01aa 9DF80430 		ldrb	r3, [sp, #4]	@ zero_extendqisi2
 5513 01ae 43F08003 		orr	r3, r3, #128
 5514 01b2 8DF80430 		strb	r3, [sp, #4]
 5515              	.L667:
 5516 01b6 0123     		movs	r3, #1
 5517 01b8 01AA     		add	r2, sp, #4
ARM GAS  C:\Temp\ccOH3Pt6.s 			page 93


 5518 01ba 5821     		movs	r1, #88
 5519 01bc 2846     		mov	r0, r5
 5520 01be FFF7FEFF 		bl	ism330dhcx_write_reg
 5521 01c2 0346     		mov	r3, r0
 5522 01c4 26E7     		b	.L661
 5523              	.L664:
 5524 01c6 6378     		ldrb	r3, [r4, #1]	@ zero_extendqisi2
 5525 01c8 6FF34103 		bfc	r3, #1, #1
 5526 01cc 6370     		strb	r3, [r4, #1]
 5527 01ce A6E7     		b	.L665
 5528              	.L666:
 5529 01d0 9DF80430 		ldrb	r3, [sp, #4]	@ zero_extendqisi2
 5530 01d4 6FF3C713 		bfc	r3, #7, #1
 5531 01d8 8DF80430 		strb	r3, [sp, #4]
 5532 01dc EBE7     		b	.L667
 5534              		.section	.text.ism330dhcx_pin_int2_route_get,"ax",%progbits
 5535              		.align	1
 5536              		.global	ism330dhcx_pin_int2_route_get
 5537              		.syntax unified
 5538              		.thumb
 5539              		.thumb_func
 5541              	ism330dhcx_pin_int2_route_get:
 5542              		@ args = 0, pretend = 0, frame = 0
 5543              		@ frame_needed = 0, uses_anonymous_args = 0
 5544 0000 38B5     		push	{r3, r4, r5, lr}
 5545 0002 0546     		mov	r5, r0
 5546 0004 0C46     		mov	r4, r1
 5547 0006 0221     		movs	r1, #2
 5548 0008 FFF7FEFF 		bl	ism330dhcx_mem_bank_set
 5549 000c 0346     		mov	r3, r0
 5550 000e 10B1     		cbz	r0, .L675
 5551              	.L672:
 5552 0010 93B1     		cbz	r3, .L676
 5553              	.L671:
 5554 0012 1846     		mov	r0, r3
 5555 0014 38BD     		pop	{r3, r4, r5, pc}
 5556              	.L675:
 5557 0016 0123     		movs	r3, #1
 5558 0018 621D     		adds	r2, r4, #5
 5559 001a 1121     		movs	r1, #17
 5560 001c 2846     		mov	r0, r5
 5561 001e FFF7FEFF 		bl	ism330dhcx_read_reg
 5562 0022 0346     		mov	r3, r0
 5563 0024 0028     		cmp	r0, #0
 5564 0026 F4D1     		bne	.L671
 5565 0028 0123     		movs	r3, #1
 5566 002a A21C     		adds	r2, r4, #2
 5567 002c 0E21     		movs	r1, #14
 5568 002e 2846     		mov	r0, r5
 5569 0030 FFF7FEFF 		bl	ism330dhcx_read_reg
 5570 0034 0346     		mov	r3, r0
 5571 0036 EBE7     		b	.L672
 5572              	.L676:
 5573 0038 0123     		movs	r3, #1
 5574 003a E21C     		adds	r2, r4, #3
 5575 003c 0F21     		movs	r1, #15
 5576 003e 2846     		mov	r0, r5
ARM GAS  C:\Temp\ccOH3Pt6.s 			page 94


 5577 0040 FFF7FEFF 		bl	ism330dhcx_read_reg
 5578 0044 0346     		mov	r3, r0
 5579 0046 0028     		cmp	r0, #0
 5580 0048 E3D1     		bne	.L671
 5581 004a 0123     		movs	r3, #1
 5582 004c 221D     		adds	r2, r4, #4
 5583 004e 1021     		movs	r1, #16
 5584 0050 2846     		mov	r0, r5
 5585 0052 FFF7FEFF 		bl	ism330dhcx_read_reg
 5586 0056 0346     		mov	r3, r0
 5587 0058 0028     		cmp	r0, #0
 5588 005a DAD1     		bne	.L671
 5589 005c 0021     		movs	r1, #0
 5590 005e 2846     		mov	r0, r5
 5591 0060 FFF7FEFF 		bl	ism330dhcx_mem_bank_set
 5592 0064 0346     		mov	r3, r0
 5593 0066 0028     		cmp	r0, #0
 5594 0068 D3D1     		bne	.L671
 5595 006a 0123     		movs	r3, #1
 5596 006c 2246     		mov	r2, r4
 5597 006e 0E21     		movs	r1, #14
 5598 0070 2846     		mov	r0, r5
 5599 0072 FFF7FEFF 		bl	ism330dhcx_read_reg
 5600 0076 0346     		mov	r3, r0
 5601 0078 0028     		cmp	r0, #0
 5602 007a CAD1     		bne	.L671
 5603 007c 0123     		movs	r3, #1
 5604 007e E218     		adds	r2, r4, r3
 5605 0080 5F21     		movs	r1, #95
 5606 0082 2846     		mov	r0, r5
 5607 0084 FFF7FEFF 		bl	ism330dhcx_read_reg
 5608 0088 0346     		mov	r3, r0
 5609 008a C2E7     		b	.L671
 5611              		.section	.text.ism330dhcx_pin_mode_set,"ax",%progbits
 5612              		.align	1
 5613              		.global	ism330dhcx_pin_mode_set
 5614              		.syntax unified
 5615              		.thumb
 5616              		.thumb_func
 5618              	ism330dhcx_pin_mode_set:
 5619              		@ args = 0, pretend = 0, frame = 8
 5620              		@ frame_needed = 0, uses_anonymous_args = 0
 5621 0000 30B5     		push	{r4, r5, lr}
 5622 0002 83B0     		sub	sp, sp, #12
 5623 0004 0446     		mov	r4, r0
 5624 0006 0D46     		mov	r5, r1
 5625 0008 0123     		movs	r3, #1
 5626 000a 01AA     		add	r2, sp, #4
 5627 000c 1221     		movs	r1, #18
 5628 000e FFF7FEFF 		bl	ism330dhcx_read_reg
 5629 0012 08B1     		cbz	r0, .L680
 5630              	.L677:
 5631 0014 03B0     		add	sp, sp, #12
 5632              		@ sp needed
 5633 0016 30BD     		pop	{r4, r5, pc}
 5634              	.L680:
 5635 0018 9DF80430 		ldrb	r3, [sp, #4]	@ zero_extendqisi2
ARM GAS  C:\Temp\ccOH3Pt6.s 			page 95


 5636 001c 65F30413 		bfi	r3, r5, #4, #1
 5637 0020 8DF80430 		strb	r3, [sp, #4]
 5638 0024 0123     		movs	r3, #1
 5639 0026 01AA     		add	r2, sp, #4
 5640 0028 1221     		movs	r1, #18
 5641 002a 2046     		mov	r0, r4
 5642 002c FFF7FEFF 		bl	ism330dhcx_write_reg
 5643 0030 F0E7     		b	.L677
 5645              		.section	.text.ism330dhcx_pin_mode_get,"ax",%progbits
 5646              		.align	1
 5647              		.global	ism330dhcx_pin_mode_get
 5648              		.syntax unified
 5649              		.thumb
 5650              		.thumb_func
 5652              	ism330dhcx_pin_mode_get:
 5653              		@ args = 0, pretend = 0, frame = 8
 5654              		@ frame_needed = 0, uses_anonymous_args = 0
 5655 0000 10B5     		push	{r4, lr}
 5656 0002 82B0     		sub	sp, sp, #8
 5657 0004 0C46     		mov	r4, r1
 5658 0006 0123     		movs	r3, #1
 5659 0008 01AA     		add	r2, sp, #4
 5660 000a 1221     		movs	r1, #18
 5661 000c FFF7FEFF 		bl	ism330dhcx_read_reg
 5662 0010 9DF80430 		ldrb	r3, [sp, #4]	@ zero_extendqisi2
 5663 0014 C3F30012 		ubfx	r2, r3, #4, #1
 5664 0018 13F0100F 		tst	r3, #16
 5665 001c 03D0     		beq	.L682
 5666 001e 32B9     		cbnz	r2, .L683
 5667 0020 0023     		movs	r3, #0
 5668 0022 2370     		strb	r3, [r4]
 5669 0024 01E0     		b	.L681
 5670              	.L682:
 5671 0026 0023     		movs	r3, #0
 5672 0028 2370     		strb	r3, [r4]
 5673              	.L681:
 5674 002a 02B0     		add	sp, sp, #8
 5675              		@ sp needed
 5676 002c 10BD     		pop	{r4, pc}
 5677              	.L683:
 5678 002e 0123     		movs	r3, #1
 5679 0030 2370     		strb	r3, [r4]
 5680 0032 FAE7     		b	.L681
 5682              		.section	.text.ism330dhcx_pin_polarity_set,"ax",%progbits
 5683              		.align	1
 5684              		.global	ism330dhcx_pin_polarity_set
 5685              		.syntax unified
 5686              		.thumb
 5687              		.thumb_func
 5689              	ism330dhcx_pin_polarity_set:
 5690              		@ args = 0, pretend = 0, frame = 8
 5691              		@ frame_needed = 0, uses_anonymous_args = 0
 5692 0000 30B5     		push	{r4, r5, lr}
 5693 0002 83B0     		sub	sp, sp, #12
 5694 0004 0446     		mov	r4, r0
 5695 0006 0D46     		mov	r5, r1
 5696 0008 0123     		movs	r3, #1
ARM GAS  C:\Temp\ccOH3Pt6.s 			page 96


 5697 000a 01AA     		add	r2, sp, #4
 5698 000c 1221     		movs	r1, #18
 5699 000e FFF7FEFF 		bl	ism330dhcx_read_reg
 5700 0012 08B1     		cbz	r0, .L691
 5701              	.L688:
 5702 0014 03B0     		add	sp, sp, #12
 5703              		@ sp needed
 5704 0016 30BD     		pop	{r4, r5, pc}
 5705              	.L691:
 5706 0018 9DF80430 		ldrb	r3, [sp, #4]	@ zero_extendqisi2
 5707 001c 65F34513 		bfi	r3, r5, #5, #1
 5708 0020 8DF80430 		strb	r3, [sp, #4]
 5709 0024 0123     		movs	r3, #1
 5710 0026 01AA     		add	r2, sp, #4
 5711 0028 1221     		movs	r1, #18
 5712 002a 2046     		mov	r0, r4
 5713 002c FFF7FEFF 		bl	ism330dhcx_write_reg
 5714 0030 F0E7     		b	.L688
 5716              		.section	.text.ism330dhcx_pin_polarity_get,"ax",%progbits
 5717              		.align	1
 5718              		.global	ism330dhcx_pin_polarity_get
 5719              		.syntax unified
 5720              		.thumb
 5721              		.thumb_func
 5723              	ism330dhcx_pin_polarity_get:
 5724              		@ args = 0, pretend = 0, frame = 8
 5725              		@ frame_needed = 0, uses_anonymous_args = 0
 5726 0000 10B5     		push	{r4, lr}
 5727 0002 82B0     		sub	sp, sp, #8
 5728 0004 0C46     		mov	r4, r1
 5729 0006 0123     		movs	r3, #1
 5730 0008 01AA     		add	r2, sp, #4
 5731 000a 1221     		movs	r1, #18
 5732 000c FFF7FEFF 		bl	ism330dhcx_read_reg
 5733 0010 9DF80430 		ldrb	r3, [sp, #4]	@ zero_extendqisi2
 5734 0014 C3F34012 		ubfx	r2, r3, #5, #1
 5735 0018 13F0200F 		tst	r3, #32
 5736 001c 03D0     		beq	.L693
 5737 001e 32B9     		cbnz	r2, .L694
 5738 0020 0023     		movs	r3, #0
 5739 0022 2370     		strb	r3, [r4]
 5740 0024 01E0     		b	.L692
 5741              	.L693:
 5742 0026 0023     		movs	r3, #0
 5743 0028 2370     		strb	r3, [r4]
 5744              	.L692:
 5745 002a 02B0     		add	sp, sp, #8
 5746              		@ sp needed
 5747 002c 10BD     		pop	{r4, pc}
 5748              	.L694:
 5749 002e 0123     		movs	r3, #1
 5750 0030 2370     		strb	r3, [r4]
 5751 0032 FAE7     		b	.L692
 5753              		.section	.text.ism330dhcx_all_on_int1_set,"ax",%progbits
 5754              		.align	1
 5755              		.global	ism330dhcx_all_on_int1_set
 5756              		.syntax unified
ARM GAS  C:\Temp\ccOH3Pt6.s 			page 97


 5757              		.thumb
 5758              		.thumb_func
 5760              	ism330dhcx_all_on_int1_set:
 5761              		@ args = 0, pretend = 0, frame = 8
 5762              		@ frame_needed = 0, uses_anonymous_args = 0
 5763 0000 30B5     		push	{r4, r5, lr}
 5764 0002 83B0     		sub	sp, sp, #12
 5765 0004 0446     		mov	r4, r0
 5766 0006 0D46     		mov	r5, r1
 5767 0008 0123     		movs	r3, #1
 5768 000a 01AA     		add	r2, sp, #4
 5769 000c 1321     		movs	r1, #19
 5770 000e FFF7FEFF 		bl	ism330dhcx_read_reg
 5771 0012 08B1     		cbz	r0, .L702
 5772              	.L699:
 5773 0014 03B0     		add	sp, sp, #12
 5774              		@ sp needed
 5775 0016 30BD     		pop	{r4, r5, pc}
 5776              	.L702:
 5777 0018 9DF80430 		ldrb	r3, [sp, #4]	@ zero_extendqisi2
 5778 001c 65F34513 		bfi	r3, r5, #5, #1
 5779 0020 8DF80430 		strb	r3, [sp, #4]
 5780 0024 0123     		movs	r3, #1
 5781 0026 01AA     		add	r2, sp, #4
 5782 0028 1321     		movs	r1, #19
 5783 002a 2046     		mov	r0, r4
 5784 002c FFF7FEFF 		bl	ism330dhcx_write_reg
 5785 0030 F0E7     		b	.L699
 5787              		.section	.text.ism330dhcx_all_on_int1_get,"ax",%progbits
 5788              		.align	1
 5789              		.global	ism330dhcx_all_on_int1_get
 5790              		.syntax unified
 5791              		.thumb
 5792              		.thumb_func
 5794              	ism330dhcx_all_on_int1_get:
 5795              		@ args = 0, pretend = 0, frame = 8
 5796              		@ frame_needed = 0, uses_anonymous_args = 0
 5797 0000 10B5     		push	{r4, lr}
 5798 0002 82B0     		sub	sp, sp, #8
 5799 0004 0C46     		mov	r4, r1
 5800 0006 0123     		movs	r3, #1
 5801 0008 01AA     		add	r2, sp, #4
 5802 000a 1321     		movs	r1, #19
 5803 000c FFF7FEFF 		bl	ism330dhcx_read_reg
 5804 0010 9DF80430 		ldrb	r3, [sp, #4]	@ zero_extendqisi2
 5805 0014 C3F34013 		ubfx	r3, r3, #5, #1
 5806 0018 2370     		strb	r3, [r4]
 5807 001a 02B0     		add	sp, sp, #8
 5808              		@ sp needed
 5809 001c 10BD     		pop	{r4, pc}
 5811              		.section	.text.ism330dhcx_int_notification_set,"ax",%progbits
 5812              		.align	1
 5813              		.global	ism330dhcx_int_notification_set
 5814              		.syntax unified
 5815              		.thumb
 5816              		.thumb_func
 5818              	ism330dhcx_int_notification_set:
ARM GAS  C:\Temp\ccOH3Pt6.s 			page 98


 5819              		@ args = 0, pretend = 0, frame = 8
 5820              		@ frame_needed = 0, uses_anonymous_args = 0
 5821 0000 30B5     		push	{r4, r5, lr}
 5822 0002 83B0     		sub	sp, sp, #12
 5823 0004 0546     		mov	r5, r0
 5824 0006 0C46     		mov	r4, r1
 5825 0008 0123     		movs	r3, #1
 5826 000a 01AA     		add	r2, sp, #4
 5827 000c 5621     		movs	r1, #86
 5828 000e FFF7FEFF 		bl	ism330dhcx_read_reg
 5829 0012 0346     		mov	r3, r0
 5830 0014 18B1     		cbz	r0, .L709
 5831              	.L706:
 5832 0016 F3B1     		cbz	r3, .L710
 5833              	.L705:
 5834 0018 1846     		mov	r0, r3
 5835 001a 03B0     		add	sp, sp, #12
 5836              		@ sp needed
 5837 001c 30BD     		pop	{r4, r5, pc}
 5838              	.L709:
 5839 001e 04F00103 		and	r3, r4, #1
 5840 0022 9DF80420 		ldrb	r2, [sp, #4]	@ zero_extendqisi2
 5841 0026 63F30002 		bfi	r2, r3, #0, #1
 5842 002a 8DF80420 		strb	r2, [sp, #4]
 5843 002e D2B2     		uxtb	r2, r2
 5844 0030 63F38612 		bfi	r2, r3, #6, #1
 5845 0034 8DF80420 		strb	r2, [sp, #4]
 5846 0038 0123     		movs	r3, #1
 5847 003a 01AA     		add	r2, sp, #4
 5848 003c 5621     		movs	r1, #86
 5849 003e 2846     		mov	r0, r5
 5850 0040 FFF7FEFF 		bl	ism330dhcx_write_reg
 5851 0044 0346     		mov	r3, r0
 5852 0046 0028     		cmp	r0, #0
 5853 0048 E6D1     		bne	.L705
 5854 004a 0221     		movs	r1, #2
 5855 004c 2846     		mov	r0, r5
 5856 004e FFF7FEFF 		bl	ism330dhcx_mem_bank_set
 5857 0052 0346     		mov	r3, r0
 5858 0054 DFE7     		b	.L706
 5859              	.L710:
 5860 0056 0123     		movs	r3, #1
 5861 0058 6A46     		mov	r2, sp
 5862 005a 1721     		movs	r1, #23
 5863 005c 2846     		mov	r0, r5
 5864 005e FFF7FEFF 		bl	ism330dhcx_read_reg
 5865 0062 0346     		mov	r3, r0
 5866 0064 0028     		cmp	r0, #0
 5867 0066 D7D1     		bne	.L705
 5868 0068 C4F34001 		ubfx	r1, r4, #1, #1
 5869 006c 9DF80030 		ldrb	r3, [sp]	@ zero_extendqisi2
 5870 0070 61F3C713 		bfi	r3, r1, #7, #1
 5871 0074 8DF80030 		strb	r3, [sp]
 5872 0078 0123     		movs	r3, #1
 5873 007a 6A46     		mov	r2, sp
 5874 007c 1721     		movs	r1, #23
 5875 007e 2846     		mov	r0, r5
ARM GAS  C:\Temp\ccOH3Pt6.s 			page 99


 5876 0080 FFF7FEFF 		bl	ism330dhcx_write_reg
 5877 0084 0346     		mov	r3, r0
 5878 0086 0028     		cmp	r0, #0
 5879 0088 C6D1     		bne	.L705
 5880 008a 0021     		movs	r1, #0
 5881 008c 2846     		mov	r0, r5
 5882 008e FFF7FEFF 		bl	ism330dhcx_mem_bank_set
 5883 0092 0346     		mov	r3, r0
 5884 0094 C0E7     		b	.L705
 5886              		.section	.text.ism330dhcx_int_notification_get,"ax",%progbits
 5887              		.align	1
 5888              		.global	ism330dhcx_int_notification_get
 5889              		.syntax unified
 5890              		.thumb
 5891              		.thumb_func
 5893              	ism330dhcx_int_notification_get:
 5894              		@ args = 0, pretend = 0, frame = 8
 5895              		@ frame_needed = 0, uses_anonymous_args = 0
 5896 0000 30B5     		push	{r4, r5, lr}
 5897 0002 83B0     		sub	sp, sp, #12
 5898 0004 0546     		mov	r5, r0
 5899 0006 0C46     		mov	r4, r1
 5900 0008 0023     		movs	r3, #0
 5901 000a 0B70     		strb	r3, [r1]
 5902 000c 0123     		movs	r3, #1
 5903 000e 01AA     		add	r2, sp, #4
 5904 0010 5621     		movs	r1, #86
 5905 0012 FFF7FEFF 		bl	ism330dhcx_read_reg
 5906 0016 0246     		mov	r2, r0
 5907 0018 78B1     		cbz	r0, .L722
 5908              	.L712:
 5909 001a EAB1     		cbz	r2, .L723
 5910              	.L713:
 5911 001c 9DF80010 		ldrb	r1, [sp]	@ zero_extendqisi2
 5912 0020 C909     		lsrs	r1, r1, #7
 5913 0022 9DF80430 		ldrb	r3, [sp, #4]	@ zero_extendqisi2
 5914 0026 03F00103 		and	r3, r3, #1
 5915 002a 03EB4103 		add	r3, r3, r1, lsl #1
 5916 002e 032B     		cmp	r3, #3
 5917 0030 26D8     		bhi	.L714
 5918 0032 DFE803F0 		tbb	[pc, r3]
 5919              	.L716:
 5920 0036 17       		.byte	(.L719-.L716)/2
 5921 0037 1C       		.byte	(.L718-.L716)/2
 5922 0038 1F       		.byte	(.L717-.L716)/2
 5923 0039 22       		.byte	(.L715-.L716)/2
 5924              		.p2align 1
 5925              	.L722:
 5926 003a 0221     		movs	r1, #2
 5927 003c 2846     		mov	r0, r5
 5928 003e FFF7FEFF 		bl	ism330dhcx_mem_bank_set
 5929 0042 0246     		mov	r2, r0
 5930 0044 0028     		cmp	r0, #0
 5931 0046 E9D1     		bne	.L713
 5932 0048 0123     		movs	r3, #1
 5933 004a 6A46     		mov	r2, sp
 5934 004c 1721     		movs	r1, #23
ARM GAS  C:\Temp\ccOH3Pt6.s 			page 100


 5935 004e 2846     		mov	r0, r5
 5936 0050 FFF7FEFF 		bl	ism330dhcx_read_reg
 5937 0054 0246     		mov	r2, r0
 5938 0056 E0E7     		b	.L712
 5939              	.L723:
 5940 0058 0021     		movs	r1, #0
 5941 005a 2846     		mov	r0, r5
 5942 005c FFF7FEFF 		bl	ism330dhcx_mem_bank_set
 5943 0060 0246     		mov	r2, r0
 5944 0062 DBE7     		b	.L713
 5945              	.L719:
 5946 0064 0023     		movs	r3, #0
 5947 0066 2370     		strb	r3, [r4]
 5948              	.L711:
 5949 0068 1046     		mov	r0, r2
 5950 006a 03B0     		add	sp, sp, #12
 5951              		@ sp needed
 5952 006c 30BD     		pop	{r4, r5, pc}
 5953              	.L718:
 5954 006e 0123     		movs	r3, #1
 5955 0070 2370     		strb	r3, [r4]
 5956 0072 F9E7     		b	.L711
 5957              	.L717:
 5958 0074 0223     		movs	r3, #2
 5959 0076 2370     		strb	r3, [r4]
 5960 0078 F6E7     		b	.L711
 5961              	.L715:
 5962 007a 0323     		movs	r3, #3
 5963 007c 2370     		strb	r3, [r4]
 5964 007e F3E7     		b	.L711
 5965              	.L714:
 5966 0080 0023     		movs	r3, #0
 5967 0082 2370     		strb	r3, [r4]
 5968 0084 F0E7     		b	.L711
 5970              		.section	.text.ism330dhcx_wkup_ths_weight_set,"ax",%progbits
 5971              		.align	1
 5972              		.global	ism330dhcx_wkup_ths_weight_set
 5973              		.syntax unified
 5974              		.thumb
 5975              		.thumb_func
 5977              	ism330dhcx_wkup_ths_weight_set:
 5978              		@ args = 0, pretend = 0, frame = 8
 5979              		@ frame_needed = 0, uses_anonymous_args = 0
 5980 0000 30B5     		push	{r4, r5, lr}
 5981 0002 83B0     		sub	sp, sp, #12
 5982 0004 0446     		mov	r4, r0
 5983 0006 0D46     		mov	r5, r1
 5984 0008 0123     		movs	r3, #1
 5985 000a 01AA     		add	r2, sp, #4
 5986 000c 5C21     		movs	r1, #92
 5987 000e FFF7FEFF 		bl	ism330dhcx_read_reg
 5988 0012 08B1     		cbz	r0, .L727
 5989              	.L724:
 5990 0014 03B0     		add	sp, sp, #12
 5991              		@ sp needed
 5992 0016 30BD     		pop	{r4, r5, pc}
 5993              	.L727:
ARM GAS  C:\Temp\ccOH3Pt6.s 			page 101


 5994 0018 9DF80430 		ldrb	r3, [sp, #4]	@ zero_extendqisi2
 5995 001c 65F30413 		bfi	r3, r5, #4, #1
 5996 0020 8DF80430 		strb	r3, [sp, #4]
 5997 0024 0123     		movs	r3, #1
 5998 0026 01AA     		add	r2, sp, #4
 5999 0028 5C21     		movs	r1, #92
 6000 002a 2046     		mov	r0, r4
 6001 002c FFF7FEFF 		bl	ism330dhcx_write_reg
 6002 0030 F0E7     		b	.L724
 6004              		.section	.text.ism330dhcx_wkup_ths_weight_get,"ax",%progbits
 6005              		.align	1
 6006              		.global	ism330dhcx_wkup_ths_weight_get
 6007              		.syntax unified
 6008              		.thumb
 6009              		.thumb_func
 6011              	ism330dhcx_wkup_ths_weight_get:
 6012              		@ args = 0, pretend = 0, frame = 8
 6013              		@ frame_needed = 0, uses_anonymous_args = 0
 6014 0000 10B5     		push	{r4, lr}
 6015 0002 82B0     		sub	sp, sp, #8
 6016 0004 0C46     		mov	r4, r1
 6017 0006 0123     		movs	r3, #1
 6018 0008 01AA     		add	r2, sp, #4
 6019 000a 5C21     		movs	r1, #92
 6020 000c FFF7FEFF 		bl	ism330dhcx_read_reg
 6021 0010 9DF80430 		ldrb	r3, [sp, #4]	@ zero_extendqisi2
 6022 0014 C3F30012 		ubfx	r2, r3, #4, #1
 6023 0018 13F0100F 		tst	r3, #16
 6024 001c 03D0     		beq	.L729
 6025 001e 32B9     		cbnz	r2, .L730
 6026 0020 0023     		movs	r3, #0
 6027 0022 2370     		strb	r3, [r4]
 6028 0024 01E0     		b	.L728
 6029              	.L729:
 6030 0026 0023     		movs	r3, #0
 6031 0028 2370     		strb	r3, [r4]
 6032              	.L728:
 6033 002a 02B0     		add	sp, sp, #8
 6034              		@ sp needed
 6035 002c 10BD     		pop	{r4, pc}
 6036              	.L730:
 6037 002e 0123     		movs	r3, #1
 6038 0030 2370     		strb	r3, [r4]
 6039 0032 FAE7     		b	.L728
 6041              		.section	.text.ism330dhcx_wkup_threshold_set,"ax",%progbits
 6042              		.align	1
 6043              		.global	ism330dhcx_wkup_threshold_set
 6044              		.syntax unified
 6045              		.thumb
 6046              		.thumb_func
 6048              	ism330dhcx_wkup_threshold_set:
 6049              		@ args = 0, pretend = 0, frame = 8
 6050              		@ frame_needed = 0, uses_anonymous_args = 0
 6051 0000 30B5     		push	{r4, r5, lr}
 6052 0002 83B0     		sub	sp, sp, #12
 6053 0004 0446     		mov	r4, r0
 6054 0006 0D46     		mov	r5, r1
ARM GAS  C:\Temp\ccOH3Pt6.s 			page 102


 6055 0008 0123     		movs	r3, #1
 6056 000a 01AA     		add	r2, sp, #4
 6057 000c 5B21     		movs	r1, #91
 6058 000e FFF7FEFF 		bl	ism330dhcx_read_reg
 6059 0012 08B1     		cbz	r0, .L738
 6060              	.L735:
 6061 0014 03B0     		add	sp, sp, #12
 6062              		@ sp needed
 6063 0016 30BD     		pop	{r4, r5, pc}
 6064              	.L738:
 6065 0018 9DF80430 		ldrb	r3, [sp, #4]	@ zero_extendqisi2
 6066 001c 65F30503 		bfi	r3, r5, #0, #6
 6067 0020 8DF80430 		strb	r3, [sp, #4]
 6068 0024 0123     		movs	r3, #1
 6069 0026 01AA     		add	r2, sp, #4
 6070 0028 5B21     		movs	r1, #91
 6071 002a 2046     		mov	r0, r4
 6072 002c FFF7FEFF 		bl	ism330dhcx_write_reg
 6073 0030 F0E7     		b	.L735
 6075              		.section	.text.ism330dhcx_wkup_threshold_get,"ax",%progbits
 6076              		.align	1
 6077              		.global	ism330dhcx_wkup_threshold_get
 6078              		.syntax unified
 6079              		.thumb
 6080              		.thumb_func
 6082              	ism330dhcx_wkup_threshold_get:
 6083              		@ args = 0, pretend = 0, frame = 8
 6084              		@ frame_needed = 0, uses_anonymous_args = 0
 6085 0000 10B5     		push	{r4, lr}
 6086 0002 82B0     		sub	sp, sp, #8
 6087 0004 0C46     		mov	r4, r1
 6088 0006 0123     		movs	r3, #1
 6089 0008 01AA     		add	r2, sp, #4
 6090 000a 5B21     		movs	r1, #91
 6091 000c FFF7FEFF 		bl	ism330dhcx_read_reg
 6092 0010 9DF80430 		ldrb	r3, [sp, #4]	@ zero_extendqisi2
 6093 0014 C3F30503 		ubfx	r3, r3, #0, #6
 6094 0018 2370     		strb	r3, [r4]
 6095 001a 02B0     		add	sp, sp, #8
 6096              		@ sp needed
 6097 001c 10BD     		pop	{r4, pc}
 6099              		.section	.text.ism330dhcx_xl_usr_offset_on_wkup_set,"ax",%progbits
 6100              		.align	1
 6101              		.global	ism330dhcx_xl_usr_offset_on_wkup_set
 6102              		.syntax unified
 6103              		.thumb
 6104              		.thumb_func
 6106              	ism330dhcx_xl_usr_offset_on_wkup_set:
 6107              		@ args = 0, pretend = 0, frame = 8
 6108              		@ frame_needed = 0, uses_anonymous_args = 0
 6109 0000 30B5     		push	{r4, r5, lr}
 6110 0002 83B0     		sub	sp, sp, #12
 6111 0004 0446     		mov	r4, r0
 6112 0006 0D46     		mov	r5, r1
 6113 0008 0123     		movs	r3, #1
 6114 000a 01AA     		add	r2, sp, #4
 6115 000c 5B21     		movs	r1, #91
ARM GAS  C:\Temp\ccOH3Pt6.s 			page 103


 6116 000e FFF7FEFF 		bl	ism330dhcx_read_reg
 6117 0012 08B1     		cbz	r0, .L744
 6118              	.L741:
 6119 0014 03B0     		add	sp, sp, #12
 6120              		@ sp needed
 6121 0016 30BD     		pop	{r4, r5, pc}
 6122              	.L744:
 6123 0018 9DF80430 		ldrb	r3, [sp, #4]	@ zero_extendqisi2
 6124 001c 65F38613 		bfi	r3, r5, #6, #1
 6125 0020 8DF80430 		strb	r3, [sp, #4]
 6126 0024 0123     		movs	r3, #1
 6127 0026 01AA     		add	r2, sp, #4
 6128 0028 5B21     		movs	r1, #91
 6129 002a 2046     		mov	r0, r4
 6130 002c FFF7FEFF 		bl	ism330dhcx_write_reg
 6131 0030 F0E7     		b	.L741
 6133              		.section	.text.ism330dhcx_xl_usr_offset_on_wkup_get,"ax",%progbits
 6134              		.align	1
 6135              		.global	ism330dhcx_xl_usr_offset_on_wkup_get
 6136              		.syntax unified
 6137              		.thumb
 6138              		.thumb_func
 6140              	ism330dhcx_xl_usr_offset_on_wkup_get:
 6141              		@ args = 0, pretend = 0, frame = 8
 6142              		@ frame_needed = 0, uses_anonymous_args = 0
 6143 0000 10B5     		push	{r4, lr}
 6144 0002 82B0     		sub	sp, sp, #8
 6145 0004 0C46     		mov	r4, r1
 6146 0006 0123     		movs	r3, #1
 6147 0008 01AA     		add	r2, sp, #4
 6148 000a 5B21     		movs	r1, #91
 6149 000c FFF7FEFF 		bl	ism330dhcx_read_reg
 6150 0010 9DF80430 		ldrb	r3, [sp, #4]	@ zero_extendqisi2
 6151 0014 C3F38013 		ubfx	r3, r3, #6, #1
 6152 0018 2370     		strb	r3, [r4]
 6153 001a 02B0     		add	sp, sp, #8
 6154              		@ sp needed
 6155 001c 10BD     		pop	{r4, pc}
 6157              		.section	.text.ism330dhcx_wkup_dur_set,"ax",%progbits
 6158              		.align	1
 6159              		.global	ism330dhcx_wkup_dur_set
 6160              		.syntax unified
 6161              		.thumb
 6162              		.thumb_func
 6164              	ism330dhcx_wkup_dur_set:
 6165              		@ args = 0, pretend = 0, frame = 8
 6166              		@ frame_needed = 0, uses_anonymous_args = 0
 6167 0000 30B5     		push	{r4, r5, lr}
 6168 0002 83B0     		sub	sp, sp, #12
 6169 0004 0446     		mov	r4, r0
 6170 0006 0D46     		mov	r5, r1
 6171 0008 0123     		movs	r3, #1
 6172 000a 01AA     		add	r2, sp, #4
 6173 000c 5C21     		movs	r1, #92
 6174 000e FFF7FEFF 		bl	ism330dhcx_read_reg
 6175 0012 08B1     		cbz	r0, .L750
 6176              	.L747:
ARM GAS  C:\Temp\ccOH3Pt6.s 			page 104


 6177 0014 03B0     		add	sp, sp, #12
 6178              		@ sp needed
 6179 0016 30BD     		pop	{r4, r5, pc}
 6180              	.L750:
 6181 0018 9DF80430 		ldrb	r3, [sp, #4]	@ zero_extendqisi2
 6182 001c 65F34613 		bfi	r3, r5, #5, #2
 6183 0020 8DF80430 		strb	r3, [sp, #4]
 6184 0024 0123     		movs	r3, #1
 6185 0026 01AA     		add	r2, sp, #4
 6186 0028 5C21     		movs	r1, #92
 6187 002a 2046     		mov	r0, r4
 6188 002c FFF7FEFF 		bl	ism330dhcx_write_reg
 6189 0030 F0E7     		b	.L747
 6191              		.section	.text.ism330dhcx_wkup_dur_get,"ax",%progbits
 6192              		.align	1
 6193              		.global	ism330dhcx_wkup_dur_get
 6194              		.syntax unified
 6195              		.thumb
 6196              		.thumb_func
 6198              	ism330dhcx_wkup_dur_get:
 6199              		@ args = 0, pretend = 0, frame = 8
 6200              		@ frame_needed = 0, uses_anonymous_args = 0
 6201 0000 10B5     		push	{r4, lr}
 6202 0002 82B0     		sub	sp, sp, #8
 6203 0004 0C46     		mov	r4, r1
 6204 0006 0123     		movs	r3, #1
 6205 0008 01AA     		add	r2, sp, #4
 6206 000a 5C21     		movs	r1, #92
 6207 000c FFF7FEFF 		bl	ism330dhcx_read_reg
 6208 0010 9DF80430 		ldrb	r3, [sp, #4]	@ zero_extendqisi2
 6209 0014 C3F34113 		ubfx	r3, r3, #5, #2
 6210 0018 2370     		strb	r3, [r4]
 6211 001a 02B0     		add	sp, sp, #8
 6212              		@ sp needed
 6213 001c 10BD     		pop	{r4, pc}
 6215              		.section	.text.ism330dhcx_gy_sleep_mode_set,"ax",%progbits
 6216              		.align	1
 6217              		.global	ism330dhcx_gy_sleep_mode_set
 6218              		.syntax unified
 6219              		.thumb
 6220              		.thumb_func
 6222              	ism330dhcx_gy_sleep_mode_set:
 6223              		@ args = 0, pretend = 0, frame = 8
 6224              		@ frame_needed = 0, uses_anonymous_args = 0
 6225 0000 30B5     		push	{r4, r5, lr}
 6226 0002 83B0     		sub	sp, sp, #12
 6227 0004 0446     		mov	r4, r0
 6228 0006 0D46     		mov	r5, r1
 6229 0008 0123     		movs	r3, #1
 6230 000a 01AA     		add	r2, sp, #4
 6231 000c 1321     		movs	r1, #19
 6232 000e FFF7FEFF 		bl	ism330dhcx_read_reg
 6233 0012 08B1     		cbz	r0, .L756
 6234              	.L753:
 6235 0014 03B0     		add	sp, sp, #12
 6236              		@ sp needed
 6237 0016 30BD     		pop	{r4, r5, pc}
ARM GAS  C:\Temp\ccOH3Pt6.s 			page 105


 6238              	.L756:
 6239 0018 9DF80430 		ldrb	r3, [sp, #4]	@ zero_extendqisi2
 6240 001c 65F38613 		bfi	r3, r5, #6, #1
 6241 0020 8DF80430 		strb	r3, [sp, #4]
 6242 0024 0123     		movs	r3, #1
 6243 0026 01AA     		add	r2, sp, #4
 6244 0028 1321     		movs	r1, #19
 6245 002a 2046     		mov	r0, r4
 6246 002c FFF7FEFF 		bl	ism330dhcx_write_reg
 6247 0030 F0E7     		b	.L753
 6249              		.section	.text.ism330dhcx_gy_sleep_mode_get,"ax",%progbits
 6250              		.align	1
 6251              		.global	ism330dhcx_gy_sleep_mode_get
 6252              		.syntax unified
 6253              		.thumb
 6254              		.thumb_func
 6256              	ism330dhcx_gy_sleep_mode_get:
 6257              		@ args = 0, pretend = 0, frame = 8
 6258              		@ frame_needed = 0, uses_anonymous_args = 0
 6259 0000 10B5     		push	{r4, lr}
 6260 0002 82B0     		sub	sp, sp, #8
 6261 0004 0C46     		mov	r4, r1
 6262 0006 0123     		movs	r3, #1
 6263 0008 01AA     		add	r2, sp, #4
 6264 000a 1321     		movs	r1, #19
 6265 000c FFF7FEFF 		bl	ism330dhcx_read_reg
 6266 0010 9DF80430 		ldrb	r3, [sp, #4]	@ zero_extendqisi2
 6267 0014 C3F38013 		ubfx	r3, r3, #6, #1
 6268 0018 2370     		strb	r3, [r4]
 6269 001a 02B0     		add	sp, sp, #8
 6270              		@ sp needed
 6271 001c 10BD     		pop	{r4, pc}
 6273              		.section	.text.ism330dhcx_act_pin_notification_set,"ax",%progbits
 6274              		.align	1
 6275              		.global	ism330dhcx_act_pin_notification_set
 6276              		.syntax unified
 6277              		.thumb
 6278              		.thumb_func
 6280              	ism330dhcx_act_pin_notification_set:
 6281              		@ args = 0, pretend = 0, frame = 8
 6282              		@ frame_needed = 0, uses_anonymous_args = 0
 6283 0000 30B5     		push	{r4, r5, lr}
 6284 0002 83B0     		sub	sp, sp, #12
 6285 0004 0446     		mov	r4, r0
 6286 0006 0D46     		mov	r5, r1
 6287 0008 0123     		movs	r3, #1
 6288 000a 01AA     		add	r2, sp, #4
 6289 000c 5621     		movs	r1, #86
 6290 000e FFF7FEFF 		bl	ism330dhcx_read_reg
 6291 0012 08B1     		cbz	r0, .L762
 6292              	.L759:
 6293 0014 03B0     		add	sp, sp, #12
 6294              		@ sp needed
 6295 0016 30BD     		pop	{r4, r5, pc}
 6296              	.L762:
 6297 0018 9DF80430 		ldrb	r3, [sp, #4]	@ zero_extendqisi2
 6298 001c 65F34513 		bfi	r3, r5, #5, #1
ARM GAS  C:\Temp\ccOH3Pt6.s 			page 106


 6299 0020 8DF80430 		strb	r3, [sp, #4]
 6300 0024 0123     		movs	r3, #1
 6301 0026 01AA     		add	r2, sp, #4
 6302 0028 5621     		movs	r1, #86
 6303 002a 2046     		mov	r0, r4
 6304 002c FFF7FEFF 		bl	ism330dhcx_write_reg
 6305 0030 F0E7     		b	.L759
 6307              		.section	.text.ism330dhcx_act_pin_notification_get,"ax",%progbits
 6308              		.align	1
 6309              		.global	ism330dhcx_act_pin_notification_get
 6310              		.syntax unified
 6311              		.thumb
 6312              		.thumb_func
 6314              	ism330dhcx_act_pin_notification_get:
 6315              		@ args = 0, pretend = 0, frame = 8
 6316              		@ frame_needed = 0, uses_anonymous_args = 0
 6317 0000 10B5     		push	{r4, lr}
 6318 0002 82B0     		sub	sp, sp, #8
 6319 0004 0C46     		mov	r4, r1
 6320 0006 0123     		movs	r3, #1
 6321 0008 01AA     		add	r2, sp, #4
 6322 000a 5621     		movs	r1, #86
 6323 000c FFF7FEFF 		bl	ism330dhcx_read_reg
 6324 0010 9DF80430 		ldrb	r3, [sp, #4]	@ zero_extendqisi2
 6325 0014 C3F34012 		ubfx	r2, r3, #5, #1
 6326 0018 13F0200F 		tst	r3, #32
 6327 001c 03D0     		beq	.L764
 6328 001e 32B9     		cbnz	r2, .L765
 6329 0020 0023     		movs	r3, #0
 6330 0022 2370     		strb	r3, [r4]
 6331 0024 01E0     		b	.L763
 6332              	.L764:
 6333 0026 0023     		movs	r3, #0
 6334 0028 2370     		strb	r3, [r4]
 6335              	.L763:
 6336 002a 02B0     		add	sp, sp, #8
 6337              		@ sp needed
 6338 002c 10BD     		pop	{r4, pc}
 6339              	.L765:
 6340 002e 0123     		movs	r3, #1
 6341 0030 2370     		strb	r3, [r4]
 6342 0032 FAE7     		b	.L763
 6344              		.section	.text.ism330dhcx_act_mode_set,"ax",%progbits
 6345              		.align	1
 6346              		.global	ism330dhcx_act_mode_set
 6347              		.syntax unified
 6348              		.thumb
 6349              		.thumb_func
 6351              	ism330dhcx_act_mode_set:
 6352              		@ args = 0, pretend = 0, frame = 8
 6353              		@ frame_needed = 0, uses_anonymous_args = 0
 6354 0000 30B5     		push	{r4, r5, lr}
 6355 0002 83B0     		sub	sp, sp, #12
 6356 0004 0446     		mov	r4, r0
 6357 0006 0D46     		mov	r5, r1
 6358 0008 0123     		movs	r3, #1
 6359 000a 01AA     		add	r2, sp, #4
ARM GAS  C:\Temp\ccOH3Pt6.s 			page 107


 6360 000c 5821     		movs	r1, #88
 6361 000e FFF7FEFF 		bl	ism330dhcx_read_reg
 6362 0012 08B1     		cbz	r0, .L773
 6363              	.L770:
 6364 0014 03B0     		add	sp, sp, #12
 6365              		@ sp needed
 6366 0016 30BD     		pop	{r4, r5, pc}
 6367              	.L773:
 6368 0018 9DF80430 		ldrb	r3, [sp, #4]	@ zero_extendqisi2
 6369 001c 65F34613 		bfi	r3, r5, #5, #2
 6370 0020 8DF80430 		strb	r3, [sp, #4]
 6371 0024 0123     		movs	r3, #1
 6372 0026 01AA     		add	r2, sp, #4
 6373 0028 5821     		movs	r1, #88
 6374 002a 2046     		mov	r0, r4
 6375 002c FFF7FEFF 		bl	ism330dhcx_write_reg
 6376 0030 F0E7     		b	.L770
 6378              		.section	.text.ism330dhcx_act_mode_get,"ax",%progbits
 6379              		.align	1
 6380              		.global	ism330dhcx_act_mode_get
 6381              		.syntax unified
 6382              		.thumb
 6383              		.thumb_func
 6385              	ism330dhcx_act_mode_get:
 6386              		@ args = 0, pretend = 0, frame = 8
 6387              		@ frame_needed = 0, uses_anonymous_args = 0
 6388 0000 10B5     		push	{r4, lr}
 6389 0002 82B0     		sub	sp, sp, #8
 6390 0004 0C46     		mov	r4, r1
 6391 0006 0123     		movs	r3, #1
 6392 0008 01AA     		add	r2, sp, #4
 6393 000a 5821     		movs	r1, #88
 6394 000c FFF7FEFF 		bl	ism330dhcx_read_reg
 6395 0010 9DF80430 		ldrb	r3, [sp, #4]	@ zero_extendqisi2
 6396 0014 C3F34113 		ubfx	r3, r3, #5, #2
 6397 0018 032B     		cmp	r3, #3
 6398 001a 10D8     		bhi	.L775
 6399 001c DFE803F0 		tbb	[pc, r3]
 6400              	.L777:
 6401 0020 02       		.byte	(.L780-.L777)/2
 6402 0021 06       		.byte	(.L779-.L777)/2
 6403 0022 09       		.byte	(.L778-.L777)/2
 6404 0023 0C       		.byte	(.L776-.L777)/2
 6405              		.p2align 1
 6406              	.L780:
 6407 0024 0023     		movs	r3, #0
 6408 0026 2370     		strb	r3, [r4]
 6409              	.L774:
 6410 0028 02B0     		add	sp, sp, #8
 6411              		@ sp needed
 6412 002a 10BD     		pop	{r4, pc}
 6413              	.L779:
 6414 002c 0123     		movs	r3, #1
 6415 002e 2370     		strb	r3, [r4]
 6416 0030 FAE7     		b	.L774
 6417              	.L778:
 6418 0032 0223     		movs	r3, #2
ARM GAS  C:\Temp\ccOH3Pt6.s 			page 108


 6419 0034 2370     		strb	r3, [r4]
 6420 0036 F7E7     		b	.L774
 6421              	.L776:
 6422 0038 0323     		movs	r3, #3
 6423 003a 2370     		strb	r3, [r4]
 6424 003c F4E7     		b	.L774
 6425              	.L775:
 6426 003e 0023     		movs	r3, #0
 6427 0040 2370     		strb	r3, [r4]
 6428 0042 F1E7     		b	.L774
 6430              		.section	.text.ism330dhcx_act_sleep_dur_set,"ax",%progbits
 6431              		.align	1
 6432              		.global	ism330dhcx_act_sleep_dur_set
 6433              		.syntax unified
 6434              		.thumb
 6435              		.thumb_func
 6437              	ism330dhcx_act_sleep_dur_set:
 6438              		@ args = 0, pretend = 0, frame = 8
 6439              		@ frame_needed = 0, uses_anonymous_args = 0
 6440 0000 30B5     		push	{r4, r5, lr}
 6441 0002 83B0     		sub	sp, sp, #12
 6442 0004 0446     		mov	r4, r0
 6443 0006 0D46     		mov	r5, r1
 6444 0008 0123     		movs	r3, #1
 6445 000a 01AA     		add	r2, sp, #4
 6446 000c 5C21     		movs	r1, #92
 6447 000e FFF7FEFF 		bl	ism330dhcx_read_reg
 6448 0012 08B1     		cbz	r0, .L786
 6449              	.L783:
 6450 0014 03B0     		add	sp, sp, #12
 6451              		@ sp needed
 6452 0016 30BD     		pop	{r4, r5, pc}
 6453              	.L786:
 6454 0018 9DF80430 		ldrb	r3, [sp, #4]	@ zero_extendqisi2
 6455 001c 65F30303 		bfi	r3, r5, #0, #4
 6456 0020 8DF80430 		strb	r3, [sp, #4]
 6457 0024 0123     		movs	r3, #1
 6458 0026 01AA     		add	r2, sp, #4
 6459 0028 5C21     		movs	r1, #92
 6460 002a 2046     		mov	r0, r4
 6461 002c FFF7FEFF 		bl	ism330dhcx_write_reg
 6462 0030 F0E7     		b	.L783
 6464              		.section	.text.ism330dhcx_act_sleep_dur_get,"ax",%progbits
 6465              		.align	1
 6466              		.global	ism330dhcx_act_sleep_dur_get
 6467              		.syntax unified
 6468              		.thumb
 6469              		.thumb_func
 6471              	ism330dhcx_act_sleep_dur_get:
 6472              		@ args = 0, pretend = 0, frame = 8
 6473              		@ frame_needed = 0, uses_anonymous_args = 0
 6474 0000 10B5     		push	{r4, lr}
 6475 0002 82B0     		sub	sp, sp, #8
 6476 0004 0C46     		mov	r4, r1
 6477 0006 0123     		movs	r3, #1
 6478 0008 01AA     		add	r2, sp, #4
 6479 000a 5C21     		movs	r1, #92
ARM GAS  C:\Temp\ccOH3Pt6.s 			page 109


 6480 000c FFF7FEFF 		bl	ism330dhcx_read_reg
 6481 0010 9DF80430 		ldrb	r3, [sp, #4]	@ zero_extendqisi2
 6482 0014 C3F30303 		ubfx	r3, r3, #0, #4
 6483 0018 2370     		strb	r3, [r4]
 6484 001a 02B0     		add	sp, sp, #8
 6485              		@ sp needed
 6486 001c 10BD     		pop	{r4, pc}
 6488              		.section	.text.ism330dhcx_tap_detection_on_z_set,"ax",%progbits
 6489              		.align	1
 6490              		.global	ism330dhcx_tap_detection_on_z_set
 6491              		.syntax unified
 6492              		.thumb
 6493              		.thumb_func
 6495              	ism330dhcx_tap_detection_on_z_set:
 6496              		@ args = 0, pretend = 0, frame = 8
 6497              		@ frame_needed = 0, uses_anonymous_args = 0
 6498 0000 30B5     		push	{r4, r5, lr}
 6499 0002 83B0     		sub	sp, sp, #12
 6500 0004 0446     		mov	r4, r0
 6501 0006 0D46     		mov	r5, r1
 6502 0008 0123     		movs	r3, #1
 6503 000a 01AA     		add	r2, sp, #4
 6504 000c 5621     		movs	r1, #86
 6505 000e FFF7FEFF 		bl	ism330dhcx_read_reg
 6506 0012 08B1     		cbz	r0, .L792
 6507              	.L789:
 6508 0014 03B0     		add	sp, sp, #12
 6509              		@ sp needed
 6510 0016 30BD     		pop	{r4, r5, pc}
 6511              	.L792:
 6512 0018 9DF80430 		ldrb	r3, [sp, #4]	@ zero_extendqisi2
 6513 001c 65F34103 		bfi	r3, r5, #1, #1
 6514 0020 8DF80430 		strb	r3, [sp, #4]
 6515 0024 0123     		movs	r3, #1
 6516 0026 01AA     		add	r2, sp, #4
 6517 0028 5621     		movs	r1, #86
 6518 002a 2046     		mov	r0, r4
 6519 002c FFF7FEFF 		bl	ism330dhcx_write_reg
 6520 0030 F0E7     		b	.L789
 6522              		.section	.text.ism330dhcx_tap_detection_on_z_get,"ax",%progbits
 6523              		.align	1
 6524              		.global	ism330dhcx_tap_detection_on_z_get
 6525              		.syntax unified
 6526              		.thumb
 6527              		.thumb_func
 6529              	ism330dhcx_tap_detection_on_z_get:
 6530              		@ args = 0, pretend = 0, frame = 8
 6531              		@ frame_needed = 0, uses_anonymous_args = 0
 6532 0000 10B5     		push	{r4, lr}
 6533 0002 82B0     		sub	sp, sp, #8
 6534 0004 0C46     		mov	r4, r1
 6535 0006 0123     		movs	r3, #1
 6536 0008 01AA     		add	r2, sp, #4
 6537 000a 5621     		movs	r1, #86
 6538 000c FFF7FEFF 		bl	ism330dhcx_read_reg
 6539 0010 9DF80430 		ldrb	r3, [sp, #4]	@ zero_extendqisi2
 6540 0014 C3F34003 		ubfx	r3, r3, #1, #1
ARM GAS  C:\Temp\ccOH3Pt6.s 			page 110


 6541 0018 2370     		strb	r3, [r4]
 6542 001a 02B0     		add	sp, sp, #8
 6543              		@ sp needed
 6544 001c 10BD     		pop	{r4, pc}
 6546              		.section	.text.ism330dhcx_tap_detection_on_y_set,"ax",%progbits
 6547              		.align	1
 6548              		.global	ism330dhcx_tap_detection_on_y_set
 6549              		.syntax unified
 6550              		.thumb
 6551              		.thumb_func
 6553              	ism330dhcx_tap_detection_on_y_set:
 6554              		@ args = 0, pretend = 0, frame = 8
 6555              		@ frame_needed = 0, uses_anonymous_args = 0
 6556 0000 30B5     		push	{r4, r5, lr}
 6557 0002 83B0     		sub	sp, sp, #12
 6558 0004 0446     		mov	r4, r0
 6559 0006 0D46     		mov	r5, r1
 6560 0008 0123     		movs	r3, #1
 6561 000a 01AA     		add	r2, sp, #4
 6562 000c 5621     		movs	r1, #86
 6563 000e FFF7FEFF 		bl	ism330dhcx_read_reg
 6564 0012 08B1     		cbz	r0, .L798
 6565              	.L795:
 6566 0014 03B0     		add	sp, sp, #12
 6567              		@ sp needed
 6568 0016 30BD     		pop	{r4, r5, pc}
 6569              	.L798:
 6570 0018 9DF80430 		ldrb	r3, [sp, #4]	@ zero_extendqisi2
 6571 001c 65F38203 		bfi	r3, r5, #2, #1
 6572 0020 8DF80430 		strb	r3, [sp, #4]
 6573 0024 0123     		movs	r3, #1
 6574 0026 01AA     		add	r2, sp, #4
 6575 0028 5621     		movs	r1, #86
 6576 002a 2046     		mov	r0, r4
 6577 002c FFF7FEFF 		bl	ism330dhcx_write_reg
 6578 0030 F0E7     		b	.L795
 6580              		.section	.text.ism330dhcx_tap_detection_on_y_get,"ax",%progbits
 6581              		.align	1
 6582              		.global	ism330dhcx_tap_detection_on_y_get
 6583              		.syntax unified
 6584              		.thumb
 6585              		.thumb_func
 6587              	ism330dhcx_tap_detection_on_y_get:
 6588              		@ args = 0, pretend = 0, frame = 8
 6589              		@ frame_needed = 0, uses_anonymous_args = 0
 6590 0000 10B5     		push	{r4, lr}
 6591 0002 82B0     		sub	sp, sp, #8
 6592 0004 0C46     		mov	r4, r1
 6593 0006 0123     		movs	r3, #1
 6594 0008 01AA     		add	r2, sp, #4
 6595 000a 5621     		movs	r1, #86
 6596 000c FFF7FEFF 		bl	ism330dhcx_read_reg
 6597 0010 9DF80430 		ldrb	r3, [sp, #4]	@ zero_extendqisi2
 6598 0014 C3F38003 		ubfx	r3, r3, #2, #1
 6599 0018 2370     		strb	r3, [r4]
 6600 001a 02B0     		add	sp, sp, #8
 6601              		@ sp needed
ARM GAS  C:\Temp\ccOH3Pt6.s 			page 111


 6602 001c 10BD     		pop	{r4, pc}
 6604              		.section	.text.ism330dhcx_tap_detection_on_x_set,"ax",%progbits
 6605              		.align	1
 6606              		.global	ism330dhcx_tap_detection_on_x_set
 6607              		.syntax unified
 6608              		.thumb
 6609              		.thumb_func
 6611              	ism330dhcx_tap_detection_on_x_set:
 6612              		@ args = 0, pretend = 0, frame = 8
 6613              		@ frame_needed = 0, uses_anonymous_args = 0
 6614 0000 30B5     		push	{r4, r5, lr}
 6615 0002 83B0     		sub	sp, sp, #12
 6616 0004 0446     		mov	r4, r0
 6617 0006 0D46     		mov	r5, r1
 6618 0008 0123     		movs	r3, #1
 6619 000a 01AA     		add	r2, sp, #4
 6620 000c 5621     		movs	r1, #86
 6621 000e FFF7FEFF 		bl	ism330dhcx_read_reg
 6622 0012 08B1     		cbz	r0, .L804
 6623              	.L801:
 6624 0014 03B0     		add	sp, sp, #12
 6625              		@ sp needed
 6626 0016 30BD     		pop	{r4, r5, pc}
 6627              	.L804:
 6628 0018 9DF80430 		ldrb	r3, [sp, #4]	@ zero_extendqisi2
 6629 001c 65F3C303 		bfi	r3, r5, #3, #1
 6630 0020 8DF80430 		strb	r3, [sp, #4]
 6631 0024 0123     		movs	r3, #1
 6632 0026 01AA     		add	r2, sp, #4
 6633 0028 5621     		movs	r1, #86
 6634 002a 2046     		mov	r0, r4
 6635 002c FFF7FEFF 		bl	ism330dhcx_write_reg
 6636 0030 F0E7     		b	.L801
 6638              		.section	.text.ism330dhcx_tap_detection_on_x_get,"ax",%progbits
 6639              		.align	1
 6640              		.global	ism330dhcx_tap_detection_on_x_get
 6641              		.syntax unified
 6642              		.thumb
 6643              		.thumb_func
 6645              	ism330dhcx_tap_detection_on_x_get:
 6646              		@ args = 0, pretend = 0, frame = 8
 6647              		@ frame_needed = 0, uses_anonymous_args = 0
 6648 0000 10B5     		push	{r4, lr}
 6649 0002 82B0     		sub	sp, sp, #8
 6650 0004 0C46     		mov	r4, r1
 6651 0006 0123     		movs	r3, #1
 6652 0008 01AA     		add	r2, sp, #4
 6653 000a 5621     		movs	r1, #86
 6654 000c FFF7FEFF 		bl	ism330dhcx_read_reg
 6655 0010 9DF80430 		ldrb	r3, [sp, #4]	@ zero_extendqisi2
 6656 0014 C3F3C003 		ubfx	r3, r3, #3, #1
 6657 0018 2370     		strb	r3, [r4]
 6658 001a 02B0     		add	sp, sp, #8
 6659              		@ sp needed
 6660 001c 10BD     		pop	{r4, pc}
 6662              		.section	.text.ism330dhcx_tap_threshold_x_set,"ax",%progbits
 6663              		.align	1
ARM GAS  C:\Temp\ccOH3Pt6.s 			page 112


 6664              		.global	ism330dhcx_tap_threshold_x_set
 6665              		.syntax unified
 6666              		.thumb
 6667              		.thumb_func
 6669              	ism330dhcx_tap_threshold_x_set:
 6670              		@ args = 0, pretend = 0, frame = 8
 6671              		@ frame_needed = 0, uses_anonymous_args = 0
 6672 0000 30B5     		push	{r4, r5, lr}
 6673 0002 83B0     		sub	sp, sp, #12
 6674 0004 0446     		mov	r4, r0
 6675 0006 0D46     		mov	r5, r1
 6676 0008 0123     		movs	r3, #1
 6677 000a 01AA     		add	r2, sp, #4
 6678 000c 5721     		movs	r1, #87
 6679 000e FFF7FEFF 		bl	ism330dhcx_read_reg
 6680 0012 08B1     		cbz	r0, .L810
 6681              	.L807:
 6682 0014 03B0     		add	sp, sp, #12
 6683              		@ sp needed
 6684 0016 30BD     		pop	{r4, r5, pc}
 6685              	.L810:
 6686 0018 9DF80430 		ldrb	r3, [sp, #4]	@ zero_extendqisi2
 6687 001c 65F30403 		bfi	r3, r5, #0, #5
 6688 0020 8DF80430 		strb	r3, [sp, #4]
 6689 0024 0123     		movs	r3, #1
 6690 0026 01AA     		add	r2, sp, #4
 6691 0028 5721     		movs	r1, #87
 6692 002a 2046     		mov	r0, r4
 6693 002c FFF7FEFF 		bl	ism330dhcx_write_reg
 6694 0030 F0E7     		b	.L807
 6696              		.section	.text.ism330dhcx_tap_threshold_x_get,"ax",%progbits
 6697              		.align	1
 6698              		.global	ism330dhcx_tap_threshold_x_get
 6699              		.syntax unified
 6700              		.thumb
 6701              		.thumb_func
 6703              	ism330dhcx_tap_threshold_x_get:
 6704              		@ args = 0, pretend = 0, frame = 8
 6705              		@ frame_needed = 0, uses_anonymous_args = 0
 6706 0000 10B5     		push	{r4, lr}
 6707 0002 82B0     		sub	sp, sp, #8
 6708 0004 0C46     		mov	r4, r1
 6709 0006 0123     		movs	r3, #1
 6710 0008 01AA     		add	r2, sp, #4
 6711 000a 5721     		movs	r1, #87
 6712 000c FFF7FEFF 		bl	ism330dhcx_read_reg
 6713 0010 9DF80430 		ldrb	r3, [sp, #4]	@ zero_extendqisi2
 6714 0014 C3F30403 		ubfx	r3, r3, #0, #5
 6715 0018 2370     		strb	r3, [r4]
 6716 001a 02B0     		add	sp, sp, #8
 6717              		@ sp needed
 6718 001c 10BD     		pop	{r4, pc}
 6720              		.section	.text.ism330dhcx_tap_axis_priority_set,"ax",%progbits
 6721              		.align	1
 6722              		.global	ism330dhcx_tap_axis_priority_set
 6723              		.syntax unified
 6724              		.thumb
ARM GAS  C:\Temp\ccOH3Pt6.s 			page 113


 6725              		.thumb_func
 6727              	ism330dhcx_tap_axis_priority_set:
 6728              		@ args = 0, pretend = 0, frame = 8
 6729              		@ frame_needed = 0, uses_anonymous_args = 0
 6730 0000 30B5     		push	{r4, r5, lr}
 6731 0002 83B0     		sub	sp, sp, #12
 6732 0004 0446     		mov	r4, r0
 6733 0006 0D46     		mov	r5, r1
 6734 0008 0123     		movs	r3, #1
 6735 000a 01AA     		add	r2, sp, #4
 6736 000c 5721     		movs	r1, #87
 6737 000e FFF7FEFF 		bl	ism330dhcx_read_reg
 6738 0012 08B1     		cbz	r0, .L816
 6739              	.L813:
 6740 0014 03B0     		add	sp, sp, #12
 6741              		@ sp needed
 6742 0016 30BD     		pop	{r4, r5, pc}
 6743              	.L816:
 6744 0018 9DF80430 		ldrb	r3, [sp, #4]	@ zero_extendqisi2
 6745 001c 65F34713 		bfi	r3, r5, #5, #3
 6746 0020 8DF80430 		strb	r3, [sp, #4]
 6747 0024 0123     		movs	r3, #1
 6748 0026 01AA     		add	r2, sp, #4
 6749 0028 5721     		movs	r1, #87
 6750 002a 2046     		mov	r0, r4
 6751 002c FFF7FEFF 		bl	ism330dhcx_write_reg
 6752 0030 F0E7     		b	.L813
 6754              		.section	.text.ism330dhcx_tap_axis_priority_get,"ax",%progbits
 6755              		.align	1
 6756              		.global	ism330dhcx_tap_axis_priority_get
 6757              		.syntax unified
 6758              		.thumb
 6759              		.thumb_func
 6761              	ism330dhcx_tap_axis_priority_get:
 6762              		@ args = 0, pretend = 0, frame = 8
 6763              		@ frame_needed = 0, uses_anonymous_args = 0
 6764 0000 10B5     		push	{r4, lr}
 6765 0002 82B0     		sub	sp, sp, #8
 6766 0004 0C46     		mov	r4, r1
 6767 0006 0123     		movs	r3, #1
 6768 0008 01AA     		add	r2, sp, #4
 6769 000a 5721     		movs	r1, #87
 6770 000c FFF7FEFF 		bl	ism330dhcx_read_reg
 6771 0010 9DF80430 		ldrb	r3, [sp, #4]	@ zero_extendqisi2
 6772 0014 5B09     		lsrs	r3, r3, #5
 6773 0016 062B     		cmp	r3, #6
 6774 0018 18D8     		bhi	.L818
 6775 001a DFE803F0 		tbb	[pc, r3]
 6776              	.L820:
 6777 001e 04       		.byte	(.L825-.L820)/2
 6778 001f 08       		.byte	(.L824-.L820)/2
 6779 0020 0B       		.byte	(.L823-.L820)/2
 6780 0021 0E       		.byte	(.L822-.L820)/2
 6781 0022 17       		.byte	(.L818-.L820)/2
 6782 0023 11       		.byte	(.L821-.L820)/2
 6783 0024 14       		.byte	(.L819-.L820)/2
 6784 0025 00       		.p2align 1
ARM GAS  C:\Temp\ccOH3Pt6.s 			page 114


 6785              	.L825:
 6786 0026 0023     		movs	r3, #0
 6787 0028 2370     		strb	r3, [r4]
 6788              	.L817:
 6789 002a 02B0     		add	sp, sp, #8
 6790              		@ sp needed
 6791 002c 10BD     		pop	{r4, pc}
 6792              	.L824:
 6793 002e 0123     		movs	r3, #1
 6794 0030 2370     		strb	r3, [r4]
 6795 0032 FAE7     		b	.L817
 6796              	.L823:
 6797 0034 0223     		movs	r3, #2
 6798 0036 2370     		strb	r3, [r4]
 6799 0038 F7E7     		b	.L817
 6800              	.L822:
 6801 003a 0323     		movs	r3, #3
 6802 003c 2370     		strb	r3, [r4]
 6803 003e F4E7     		b	.L817
 6804              	.L821:
 6805 0040 0523     		movs	r3, #5
 6806 0042 2370     		strb	r3, [r4]
 6807 0044 F1E7     		b	.L817
 6808              	.L819:
 6809 0046 0623     		movs	r3, #6
 6810 0048 2370     		strb	r3, [r4]
 6811 004a EEE7     		b	.L817
 6812              	.L818:
 6813 004c 0023     		movs	r3, #0
 6814 004e 2370     		strb	r3, [r4]
 6815 0050 EBE7     		b	.L817
 6817              		.section	.text.ism330dhcx_tap_threshold_y_set,"ax",%progbits
 6818              		.align	1
 6819              		.global	ism330dhcx_tap_threshold_y_set
 6820              		.syntax unified
 6821              		.thumb
 6822              		.thumb_func
 6824              	ism330dhcx_tap_threshold_y_set:
 6825              		@ args = 0, pretend = 0, frame = 8
 6826              		@ frame_needed = 0, uses_anonymous_args = 0
 6827 0000 30B5     		push	{r4, r5, lr}
 6828 0002 83B0     		sub	sp, sp, #12
 6829 0004 0446     		mov	r4, r0
 6830 0006 0D46     		mov	r5, r1
 6831 0008 0123     		movs	r3, #1
 6832 000a 01AA     		add	r2, sp, #4
 6833 000c 5821     		movs	r1, #88
 6834 000e FFF7FEFF 		bl	ism330dhcx_read_reg
 6835 0012 08B1     		cbz	r0, .L831
 6836              	.L828:
 6837 0014 03B0     		add	sp, sp, #12
 6838              		@ sp needed
 6839 0016 30BD     		pop	{r4, r5, pc}
 6840              	.L831:
 6841 0018 9DF80430 		ldrb	r3, [sp, #4]	@ zero_extendqisi2
 6842 001c 65F30403 		bfi	r3, r5, #0, #5
 6843 0020 8DF80430 		strb	r3, [sp, #4]
ARM GAS  C:\Temp\ccOH3Pt6.s 			page 115


 6844 0024 0123     		movs	r3, #1
 6845 0026 01AA     		add	r2, sp, #4
 6846 0028 5821     		movs	r1, #88
 6847 002a 2046     		mov	r0, r4
 6848 002c FFF7FEFF 		bl	ism330dhcx_write_reg
 6849 0030 F0E7     		b	.L828
 6851              		.section	.text.ism330dhcx_tap_threshold_y_get,"ax",%progbits
 6852              		.align	1
 6853              		.global	ism330dhcx_tap_threshold_y_get
 6854              		.syntax unified
 6855              		.thumb
 6856              		.thumb_func
 6858              	ism330dhcx_tap_threshold_y_get:
 6859              		@ args = 0, pretend = 0, frame = 8
 6860              		@ frame_needed = 0, uses_anonymous_args = 0
 6861 0000 10B5     		push	{r4, lr}
 6862 0002 82B0     		sub	sp, sp, #8
 6863 0004 0C46     		mov	r4, r1
 6864 0006 0123     		movs	r3, #1
 6865 0008 01AA     		add	r2, sp, #4
 6866 000a 5821     		movs	r1, #88
 6867 000c FFF7FEFF 		bl	ism330dhcx_read_reg
 6868 0010 9DF80430 		ldrb	r3, [sp, #4]	@ zero_extendqisi2
 6869 0014 C3F30403 		ubfx	r3, r3, #0, #5
 6870 0018 2370     		strb	r3, [r4]
 6871 001a 02B0     		add	sp, sp, #8
 6872              		@ sp needed
 6873 001c 10BD     		pop	{r4, pc}
 6875              		.section	.text.ism330dhcx_tap_threshold_z_set,"ax",%progbits
 6876              		.align	1
 6877              		.global	ism330dhcx_tap_threshold_z_set
 6878              		.syntax unified
 6879              		.thumb
 6880              		.thumb_func
 6882              	ism330dhcx_tap_threshold_z_set:
 6883              		@ args = 0, pretend = 0, frame = 8
 6884              		@ frame_needed = 0, uses_anonymous_args = 0
 6885 0000 30B5     		push	{r4, r5, lr}
 6886 0002 83B0     		sub	sp, sp, #12
 6887 0004 0446     		mov	r4, r0
 6888 0006 0D46     		mov	r5, r1
 6889 0008 0123     		movs	r3, #1
 6890 000a 01AA     		add	r2, sp, #4
 6891 000c 5921     		movs	r1, #89
 6892 000e FFF7FEFF 		bl	ism330dhcx_read_reg
 6893 0012 08B1     		cbz	r0, .L837
 6894              	.L834:
 6895 0014 03B0     		add	sp, sp, #12
 6896              		@ sp needed
 6897 0016 30BD     		pop	{r4, r5, pc}
 6898              	.L837:
 6899 0018 9DF80430 		ldrb	r3, [sp, #4]	@ zero_extendqisi2
 6900 001c 65F30403 		bfi	r3, r5, #0, #5
 6901 0020 8DF80430 		strb	r3, [sp, #4]
 6902 0024 0123     		movs	r3, #1
 6903 0026 01AA     		add	r2, sp, #4
 6904 0028 5921     		movs	r1, #89
ARM GAS  C:\Temp\ccOH3Pt6.s 			page 116


 6905 002a 2046     		mov	r0, r4
 6906 002c FFF7FEFF 		bl	ism330dhcx_write_reg
 6907 0030 F0E7     		b	.L834
 6909              		.section	.text.ism330dhcx_tap_threshold_z_get,"ax",%progbits
 6910              		.align	1
 6911              		.global	ism330dhcx_tap_threshold_z_get
 6912              		.syntax unified
 6913              		.thumb
 6914              		.thumb_func
 6916              	ism330dhcx_tap_threshold_z_get:
 6917              		@ args = 0, pretend = 0, frame = 8
 6918              		@ frame_needed = 0, uses_anonymous_args = 0
 6919 0000 10B5     		push	{r4, lr}
 6920 0002 82B0     		sub	sp, sp, #8
 6921 0004 0C46     		mov	r4, r1
 6922 0006 0123     		movs	r3, #1
 6923 0008 01AA     		add	r2, sp, #4
 6924 000a 5921     		movs	r1, #89
 6925 000c FFF7FEFF 		bl	ism330dhcx_read_reg
 6926 0010 9DF80430 		ldrb	r3, [sp, #4]	@ zero_extendqisi2
 6927 0014 C3F30403 		ubfx	r3, r3, #0, #5
 6928 0018 2370     		strb	r3, [r4]
 6929 001a 02B0     		add	sp, sp, #8
 6930              		@ sp needed
 6931 001c 10BD     		pop	{r4, pc}
 6933              		.section	.text.ism330dhcx_tap_shock_set,"ax",%progbits
 6934              		.align	1
 6935              		.global	ism330dhcx_tap_shock_set
 6936              		.syntax unified
 6937              		.thumb
 6938              		.thumb_func
 6940              	ism330dhcx_tap_shock_set:
 6941              		@ args = 0, pretend = 0, frame = 8
 6942              		@ frame_needed = 0, uses_anonymous_args = 0
 6943 0000 30B5     		push	{r4, r5, lr}
 6944 0002 83B0     		sub	sp, sp, #12
 6945 0004 0446     		mov	r4, r0
 6946 0006 0D46     		mov	r5, r1
 6947 0008 0123     		movs	r3, #1
 6948 000a 01AA     		add	r2, sp, #4
 6949 000c 5A21     		movs	r1, #90
 6950 000e FFF7FEFF 		bl	ism330dhcx_read_reg
 6951 0012 08B1     		cbz	r0, .L843
 6952              	.L840:
 6953 0014 03B0     		add	sp, sp, #12
 6954              		@ sp needed
 6955 0016 30BD     		pop	{r4, r5, pc}
 6956              	.L843:
 6957 0018 9DF80430 		ldrb	r3, [sp, #4]	@ zero_extendqisi2
 6958 001c 65F30103 		bfi	r3, r5, #0, #2
 6959 0020 8DF80430 		strb	r3, [sp, #4]
 6960 0024 0123     		movs	r3, #1
 6961 0026 01AA     		add	r2, sp, #4
 6962 0028 5A21     		movs	r1, #90
 6963 002a 2046     		mov	r0, r4
 6964 002c FFF7FEFF 		bl	ism330dhcx_write_reg
 6965 0030 F0E7     		b	.L840
ARM GAS  C:\Temp\ccOH3Pt6.s 			page 117


 6967              		.section	.text.ism330dhcx_tap_shock_get,"ax",%progbits
 6968              		.align	1
 6969              		.global	ism330dhcx_tap_shock_get
 6970              		.syntax unified
 6971              		.thumb
 6972              		.thumb_func
 6974              	ism330dhcx_tap_shock_get:
 6975              		@ args = 0, pretend = 0, frame = 8
 6976              		@ frame_needed = 0, uses_anonymous_args = 0
 6977 0000 10B5     		push	{r4, lr}
 6978 0002 82B0     		sub	sp, sp, #8
 6979 0004 0C46     		mov	r4, r1
 6980 0006 0123     		movs	r3, #1
 6981 0008 01AA     		add	r2, sp, #4
 6982 000a 5A21     		movs	r1, #90
 6983 000c FFF7FEFF 		bl	ism330dhcx_read_reg
 6984 0010 9DF80430 		ldrb	r3, [sp, #4]	@ zero_extendqisi2
 6985 0014 C3F30103 		ubfx	r3, r3, #0, #2
 6986 0018 2370     		strb	r3, [r4]
 6987 001a 02B0     		add	sp, sp, #8
 6988              		@ sp needed
 6989 001c 10BD     		pop	{r4, pc}
 6991              		.section	.text.ism330dhcx_tap_quiet_set,"ax",%progbits
 6992              		.align	1
 6993              		.global	ism330dhcx_tap_quiet_set
 6994              		.syntax unified
 6995              		.thumb
 6996              		.thumb_func
 6998              	ism330dhcx_tap_quiet_set:
 6999              		@ args = 0, pretend = 0, frame = 8
 7000              		@ frame_needed = 0, uses_anonymous_args = 0
 7001 0000 30B5     		push	{r4, r5, lr}
 7002 0002 83B0     		sub	sp, sp, #12
 7003 0004 0446     		mov	r4, r0
 7004 0006 0D46     		mov	r5, r1
 7005 0008 0123     		movs	r3, #1
 7006 000a 01AA     		add	r2, sp, #4
 7007 000c 5A21     		movs	r1, #90
 7008 000e FFF7FEFF 		bl	ism330dhcx_read_reg
 7009 0012 08B1     		cbz	r0, .L849
 7010              	.L846:
 7011 0014 03B0     		add	sp, sp, #12
 7012              		@ sp needed
 7013 0016 30BD     		pop	{r4, r5, pc}
 7014              	.L849:
 7015 0018 9DF80430 		ldrb	r3, [sp, #4]	@ zero_extendqisi2
 7016 001c 65F38303 		bfi	r3, r5, #2, #2
 7017 0020 8DF80430 		strb	r3, [sp, #4]
 7018 0024 0123     		movs	r3, #1
 7019 0026 01AA     		add	r2, sp, #4
 7020 0028 5A21     		movs	r1, #90
 7021 002a 2046     		mov	r0, r4
 7022 002c FFF7FEFF 		bl	ism330dhcx_write_reg
 7023 0030 F0E7     		b	.L846
 7025              		.section	.text.ism330dhcx_tap_quiet_get,"ax",%progbits
 7026              		.align	1
 7027              		.global	ism330dhcx_tap_quiet_get
ARM GAS  C:\Temp\ccOH3Pt6.s 			page 118


 7028              		.syntax unified
 7029              		.thumb
 7030              		.thumb_func
 7032              	ism330dhcx_tap_quiet_get:
 7033              		@ args = 0, pretend = 0, frame = 8
 7034              		@ frame_needed = 0, uses_anonymous_args = 0
 7035 0000 10B5     		push	{r4, lr}
 7036 0002 82B0     		sub	sp, sp, #8
 7037 0004 0C46     		mov	r4, r1
 7038 0006 0123     		movs	r3, #1
 7039 0008 01AA     		add	r2, sp, #4
 7040 000a 5A21     		movs	r1, #90
 7041 000c FFF7FEFF 		bl	ism330dhcx_read_reg
 7042 0010 9DF80430 		ldrb	r3, [sp, #4]	@ zero_extendqisi2
 7043 0014 C3F38103 		ubfx	r3, r3, #2, #2
 7044 0018 2370     		strb	r3, [r4]
 7045 001a 02B0     		add	sp, sp, #8
 7046              		@ sp needed
 7047 001c 10BD     		pop	{r4, pc}
 7049              		.section	.text.ism330dhcx_tap_dur_set,"ax",%progbits
 7050              		.align	1
 7051              		.global	ism330dhcx_tap_dur_set
 7052              		.syntax unified
 7053              		.thumb
 7054              		.thumb_func
 7056              	ism330dhcx_tap_dur_set:
 7057              		@ args = 0, pretend = 0, frame = 8
 7058              		@ frame_needed = 0, uses_anonymous_args = 0
 7059 0000 30B5     		push	{r4, r5, lr}
 7060 0002 83B0     		sub	sp, sp, #12
 7061 0004 0446     		mov	r4, r0
 7062 0006 0D46     		mov	r5, r1
 7063 0008 0123     		movs	r3, #1
 7064 000a 01AA     		add	r2, sp, #4
 7065 000c 5A21     		movs	r1, #90
 7066 000e FFF7FEFF 		bl	ism330dhcx_read_reg
 7067 0012 08B1     		cbz	r0, .L855
 7068              	.L852:
 7069 0014 03B0     		add	sp, sp, #12
 7070              		@ sp needed
 7071 0016 30BD     		pop	{r4, r5, pc}
 7072              	.L855:
 7073 0018 9DF80430 		ldrb	r3, [sp, #4]	@ zero_extendqisi2
 7074 001c 65F30713 		bfi	r3, r5, #4, #4
 7075 0020 8DF80430 		strb	r3, [sp, #4]
 7076 0024 0123     		movs	r3, #1
 7077 0026 01AA     		add	r2, sp, #4
 7078 0028 5A21     		movs	r1, #90
 7079 002a 2046     		mov	r0, r4
 7080 002c FFF7FEFF 		bl	ism330dhcx_write_reg
 7081 0030 F0E7     		b	.L852
 7083              		.section	.text.ism330dhcx_tap_dur_get,"ax",%progbits
 7084              		.align	1
 7085              		.global	ism330dhcx_tap_dur_get
 7086              		.syntax unified
 7087              		.thumb
 7088              		.thumb_func
ARM GAS  C:\Temp\ccOH3Pt6.s 			page 119


 7090              	ism330dhcx_tap_dur_get:
 7091              		@ args = 0, pretend = 0, frame = 8
 7092              		@ frame_needed = 0, uses_anonymous_args = 0
 7093 0000 10B5     		push	{r4, lr}
 7094 0002 82B0     		sub	sp, sp, #8
 7095 0004 0C46     		mov	r4, r1
 7096 0006 0123     		movs	r3, #1
 7097 0008 01AA     		add	r2, sp, #4
 7098 000a 5A21     		movs	r1, #90
 7099 000c FFF7FEFF 		bl	ism330dhcx_read_reg
 7100 0010 9DF80430 		ldrb	r3, [sp, #4]	@ zero_extendqisi2
 7101 0014 C3F30313 		ubfx	r3, r3, #4, #4
 7102 0018 2370     		strb	r3, [r4]
 7103 001a 02B0     		add	sp, sp, #8
 7104              		@ sp needed
 7105 001c 10BD     		pop	{r4, pc}
 7107              		.section	.text.ism330dhcx_tap_mode_set,"ax",%progbits
 7108              		.align	1
 7109              		.global	ism330dhcx_tap_mode_set
 7110              		.syntax unified
 7111              		.thumb
 7112              		.thumb_func
 7114              	ism330dhcx_tap_mode_set:
 7115              		@ args = 0, pretend = 0, frame = 8
 7116              		@ frame_needed = 0, uses_anonymous_args = 0
 7117 0000 30B5     		push	{r4, r5, lr}
 7118 0002 83B0     		sub	sp, sp, #12
 7119 0004 0446     		mov	r4, r0
 7120 0006 0D46     		mov	r5, r1
 7121 0008 0123     		movs	r3, #1
 7122 000a 01AA     		add	r2, sp, #4
 7123 000c 5B21     		movs	r1, #91
 7124 000e FFF7FEFF 		bl	ism330dhcx_read_reg
 7125 0012 08B1     		cbz	r0, .L861
 7126              	.L858:
 7127 0014 03B0     		add	sp, sp, #12
 7128              		@ sp needed
 7129 0016 30BD     		pop	{r4, r5, pc}
 7130              	.L861:
 7131 0018 9DF80430 		ldrb	r3, [sp, #4]	@ zero_extendqisi2
 7132 001c 65F3C713 		bfi	r3, r5, #7, #1
 7133 0020 8DF80430 		strb	r3, [sp, #4]
 7134 0024 0123     		movs	r3, #1
 7135 0026 01AA     		add	r2, sp, #4
 7136 0028 5B21     		movs	r1, #91
 7137 002a 2046     		mov	r0, r4
 7138 002c FFF7FEFF 		bl	ism330dhcx_write_reg
 7139 0030 F0E7     		b	.L858
 7141              		.section	.text.ism330dhcx_tap_mode_get,"ax",%progbits
 7142              		.align	1
 7143              		.global	ism330dhcx_tap_mode_get
 7144              		.syntax unified
 7145              		.thumb
 7146              		.thumb_func
 7148              	ism330dhcx_tap_mode_get:
 7149              		@ args = 0, pretend = 0, frame = 8
 7150              		@ frame_needed = 0, uses_anonymous_args = 0
ARM GAS  C:\Temp\ccOH3Pt6.s 			page 120


 7151 0000 10B5     		push	{r4, lr}
 7152 0002 82B0     		sub	sp, sp, #8
 7153 0004 0C46     		mov	r4, r1
 7154 0006 0123     		movs	r3, #1
 7155 0008 01AA     		add	r2, sp, #4
 7156 000a 5B21     		movs	r1, #91
 7157 000c FFF7FEFF 		bl	ism330dhcx_read_reg
 7158 0010 9DF80430 		ldrb	r3, [sp, #4]	@ zero_extendqisi2
 7159 0014 DB09     		lsrs	r3, r3, #7
 7160 0016 03D0     		beq	.L863
 7161 0018 33B9     		cbnz	r3, .L864
 7162 001a 0023     		movs	r3, #0
 7163 001c 2370     		strb	r3, [r4]
 7164 001e 01E0     		b	.L862
 7165              	.L863:
 7166 0020 0023     		movs	r3, #0
 7167 0022 2370     		strb	r3, [r4]
 7168              	.L862:
 7169 0024 02B0     		add	sp, sp, #8
 7170              		@ sp needed
 7171 0026 10BD     		pop	{r4, pc}
 7172              	.L864:
 7173 0028 0123     		movs	r3, #1
 7174 002a 2370     		strb	r3, [r4]
 7175 002c FAE7     		b	.L862
 7177              		.section	.text.ism330dhcx_6d_threshold_set,"ax",%progbits
 7178              		.align	1
 7179              		.global	ism330dhcx_6d_threshold_set
 7180              		.syntax unified
 7181              		.thumb
 7182              		.thumb_func
 7184              	ism330dhcx_6d_threshold_set:
 7185              		@ args = 0, pretend = 0, frame = 8
 7186              		@ frame_needed = 0, uses_anonymous_args = 0
 7187 0000 30B5     		push	{r4, r5, lr}
 7188 0002 83B0     		sub	sp, sp, #12
 7189 0004 0446     		mov	r4, r0
 7190 0006 0D46     		mov	r5, r1
 7191 0008 0123     		movs	r3, #1
 7192 000a 01AA     		add	r2, sp, #4
 7193 000c 5921     		movs	r1, #89
 7194 000e FFF7FEFF 		bl	ism330dhcx_read_reg
 7195 0012 08B1     		cbz	r0, .L872
 7196              	.L869:
 7197 0014 03B0     		add	sp, sp, #12
 7198              		@ sp needed
 7199 0016 30BD     		pop	{r4, r5, pc}
 7200              	.L872:
 7201 0018 9DF80430 		ldrb	r3, [sp, #4]	@ zero_extendqisi2
 7202 001c 65F34613 		bfi	r3, r5, #5, #2
 7203 0020 8DF80430 		strb	r3, [sp, #4]
 7204 0024 0123     		movs	r3, #1
 7205 0026 01AA     		add	r2, sp, #4
 7206 0028 5921     		movs	r1, #89
 7207 002a 2046     		mov	r0, r4
 7208 002c FFF7FEFF 		bl	ism330dhcx_write_reg
 7209 0030 F0E7     		b	.L869
ARM GAS  C:\Temp\ccOH3Pt6.s 			page 121


 7211              		.section	.text.ism330dhcx_6d_threshold_get,"ax",%progbits
 7212              		.align	1
 7213              		.global	ism330dhcx_6d_threshold_get
 7214              		.syntax unified
 7215              		.thumb
 7216              		.thumb_func
 7218              	ism330dhcx_6d_threshold_get:
 7219              		@ args = 0, pretend = 0, frame = 8
 7220              		@ frame_needed = 0, uses_anonymous_args = 0
 7221 0000 10B5     		push	{r4, lr}
 7222 0002 82B0     		sub	sp, sp, #8
 7223 0004 0C46     		mov	r4, r1
 7224 0006 0123     		movs	r3, #1
 7225 0008 01AA     		add	r2, sp, #4
 7226 000a 5921     		movs	r1, #89
 7227 000c FFF7FEFF 		bl	ism330dhcx_read_reg
 7228 0010 9DF80430 		ldrb	r3, [sp, #4]	@ zero_extendqisi2
 7229 0014 C3F34113 		ubfx	r3, r3, #5, #2
 7230 0018 032B     		cmp	r3, #3
 7231 001a 10D8     		bhi	.L874
 7232 001c DFE803F0 		tbb	[pc, r3]
 7233              	.L876:
 7234 0020 02       		.byte	(.L879-.L876)/2
 7235 0021 06       		.byte	(.L878-.L876)/2
 7236 0022 09       		.byte	(.L877-.L876)/2
 7237 0023 0C       		.byte	(.L875-.L876)/2
 7238              		.p2align 1
 7239              	.L879:
 7240 0024 0023     		movs	r3, #0
 7241 0026 2370     		strb	r3, [r4]
 7242              	.L873:
 7243 0028 02B0     		add	sp, sp, #8
 7244              		@ sp needed
 7245 002a 10BD     		pop	{r4, pc}
 7246              	.L878:
 7247 002c 0123     		movs	r3, #1
 7248 002e 2370     		strb	r3, [r4]
 7249 0030 FAE7     		b	.L873
 7250              	.L877:
 7251 0032 0223     		movs	r3, #2
 7252 0034 2370     		strb	r3, [r4]
 7253 0036 F7E7     		b	.L873
 7254              	.L875:
 7255 0038 0323     		movs	r3, #3
 7256 003a 2370     		strb	r3, [r4]
 7257 003c F4E7     		b	.L873
 7258              	.L874:
 7259 003e 0023     		movs	r3, #0
 7260 0040 2370     		strb	r3, [r4]
 7261 0042 F1E7     		b	.L873
 7263              		.section	.text.ism330dhcx_4d_mode_set,"ax",%progbits
 7264              		.align	1
 7265              		.global	ism330dhcx_4d_mode_set
 7266              		.syntax unified
 7267              		.thumb
 7268              		.thumb_func
 7270              	ism330dhcx_4d_mode_set:
ARM GAS  C:\Temp\ccOH3Pt6.s 			page 122


 7271              		@ args = 0, pretend = 0, frame = 8
 7272              		@ frame_needed = 0, uses_anonymous_args = 0
 7273 0000 30B5     		push	{r4, r5, lr}
 7274 0002 83B0     		sub	sp, sp, #12
 7275 0004 0446     		mov	r4, r0
 7276 0006 0D46     		mov	r5, r1
 7277 0008 0123     		movs	r3, #1
 7278 000a 01AA     		add	r2, sp, #4
 7279 000c 5921     		movs	r1, #89
 7280 000e FFF7FEFF 		bl	ism330dhcx_read_reg
 7281 0012 08B1     		cbz	r0, .L885
 7282              	.L882:
 7283 0014 03B0     		add	sp, sp, #12
 7284              		@ sp needed
 7285 0016 30BD     		pop	{r4, r5, pc}
 7286              	.L885:
 7287 0018 9DF80430 		ldrb	r3, [sp, #4]	@ zero_extendqisi2
 7288 001c 65F3C713 		bfi	r3, r5, #7, #1
 7289 0020 8DF80430 		strb	r3, [sp, #4]
 7290 0024 0123     		movs	r3, #1
 7291 0026 01AA     		add	r2, sp, #4
 7292 0028 5921     		movs	r1, #89
 7293 002a 2046     		mov	r0, r4
 7294 002c FFF7FEFF 		bl	ism330dhcx_write_reg
 7295 0030 F0E7     		b	.L882
 7297              		.section	.text.ism330dhcx_4d_mode_get,"ax",%progbits
 7298              		.align	1
 7299              		.global	ism330dhcx_4d_mode_get
 7300              		.syntax unified
 7301              		.thumb
 7302              		.thumb_func
 7304              	ism330dhcx_4d_mode_get:
 7305              		@ args = 0, pretend = 0, frame = 8
 7306              		@ frame_needed = 0, uses_anonymous_args = 0
 7307 0000 10B5     		push	{r4, lr}
 7308 0002 82B0     		sub	sp, sp, #8
 7309 0004 0C46     		mov	r4, r1
 7310 0006 0123     		movs	r3, #1
 7311 0008 01AA     		add	r2, sp, #4
 7312 000a 5921     		movs	r1, #89
 7313 000c FFF7FEFF 		bl	ism330dhcx_read_reg
 7314 0010 9DF80430 		ldrb	r3, [sp, #4]	@ zero_extendqisi2
 7315 0014 C3F3C013 		ubfx	r3, r3, #7, #1
 7316 0018 2370     		strb	r3, [r4]
 7317 001a 02B0     		add	sp, sp, #8
 7318              		@ sp needed
 7319 001c 10BD     		pop	{r4, pc}
 7321              		.section	.text.ism330dhcx_ff_threshold_set,"ax",%progbits
 7322              		.align	1
 7323              		.global	ism330dhcx_ff_threshold_set
 7324              		.syntax unified
 7325              		.thumb
 7326              		.thumb_func
 7328              	ism330dhcx_ff_threshold_set:
 7329              		@ args = 0, pretend = 0, frame = 8
 7330              		@ frame_needed = 0, uses_anonymous_args = 0
 7331 0000 30B5     		push	{r4, r5, lr}
ARM GAS  C:\Temp\ccOH3Pt6.s 			page 123


 7332 0002 83B0     		sub	sp, sp, #12
 7333 0004 0446     		mov	r4, r0
 7334 0006 0D46     		mov	r5, r1
 7335 0008 0123     		movs	r3, #1
 7336 000a 01AA     		add	r2, sp, #4
 7337 000c 5D21     		movs	r1, #93
 7338 000e FFF7FEFF 		bl	ism330dhcx_read_reg
 7339 0012 08B1     		cbz	r0, .L891
 7340              	.L888:
 7341 0014 03B0     		add	sp, sp, #12
 7342              		@ sp needed
 7343 0016 30BD     		pop	{r4, r5, pc}
 7344              	.L891:
 7345 0018 9DF80430 		ldrb	r3, [sp, #4]	@ zero_extendqisi2
 7346 001c 65F30203 		bfi	r3, r5, #0, #3
 7347 0020 8DF80430 		strb	r3, [sp, #4]
 7348 0024 0123     		movs	r3, #1
 7349 0026 01AA     		add	r2, sp, #4
 7350 0028 5D21     		movs	r1, #93
 7351 002a 2046     		mov	r0, r4
 7352 002c FFF7FEFF 		bl	ism330dhcx_write_reg
 7353 0030 F0E7     		b	.L888
 7355              		.section	.text.ism330dhcx_ff_threshold_get,"ax",%progbits
 7356              		.align	1
 7357              		.global	ism330dhcx_ff_threshold_get
 7358              		.syntax unified
 7359              		.thumb
 7360              		.thumb_func
 7362              	ism330dhcx_ff_threshold_get:
 7363              		@ args = 0, pretend = 0, frame = 8
 7364              		@ frame_needed = 0, uses_anonymous_args = 0
 7365 0000 10B5     		push	{r4, lr}
 7366 0002 82B0     		sub	sp, sp, #8
 7367 0004 0C46     		mov	r4, r1
 7368 0006 0123     		movs	r3, #1
 7369 0008 01AA     		add	r2, sp, #4
 7370 000a 5D21     		movs	r1, #93
 7371 000c FFF7FEFF 		bl	ism330dhcx_read_reg
 7372 0010 9DF80430 		ldrb	r3, [sp, #4]	@ zero_extendqisi2
 7373 0014 03F00703 		and	r3, r3, #7
 7374 0018 072B     		cmp	r3, #7
 7375 001a 1ED8     		bhi	.L893
 7376 001c DFE803F0 		tbb	[pc, r3]
 7377              	.L895:
 7378 0020 04       		.byte	(.L902-.L895)/2
 7379 0021 08       		.byte	(.L901-.L895)/2
 7380 0022 0B       		.byte	(.L900-.L895)/2
 7381 0023 0E       		.byte	(.L899-.L895)/2
 7382 0024 11       		.byte	(.L898-.L895)/2
 7383 0025 14       		.byte	(.L897-.L895)/2
 7384 0026 17       		.byte	(.L896-.L895)/2
 7385 0027 1A       		.byte	(.L894-.L895)/2
 7386              		.p2align 1
 7387              	.L902:
 7388 0028 0023     		movs	r3, #0
 7389 002a 2370     		strb	r3, [r4]
 7390              	.L892:
ARM GAS  C:\Temp\ccOH3Pt6.s 			page 124


 7391 002c 02B0     		add	sp, sp, #8
 7392              		@ sp needed
 7393 002e 10BD     		pop	{r4, pc}
 7394              	.L901:
 7395 0030 0123     		movs	r3, #1
 7396 0032 2370     		strb	r3, [r4]
 7397 0034 FAE7     		b	.L892
 7398              	.L900:
 7399 0036 0223     		movs	r3, #2
 7400 0038 2370     		strb	r3, [r4]
 7401 003a F7E7     		b	.L892
 7402              	.L899:
 7403 003c 0323     		movs	r3, #3
 7404 003e 2370     		strb	r3, [r4]
 7405 0040 F4E7     		b	.L892
 7406              	.L898:
 7407 0042 0423     		movs	r3, #4
 7408 0044 2370     		strb	r3, [r4]
 7409 0046 F1E7     		b	.L892
 7410              	.L897:
 7411 0048 0523     		movs	r3, #5
 7412 004a 2370     		strb	r3, [r4]
 7413 004c EEE7     		b	.L892
 7414              	.L896:
 7415 004e 0623     		movs	r3, #6
 7416 0050 2370     		strb	r3, [r4]
 7417 0052 EBE7     		b	.L892
 7418              	.L894:
 7419 0054 0723     		movs	r3, #7
 7420 0056 2370     		strb	r3, [r4]
 7421 0058 E8E7     		b	.L892
 7422              	.L893:
 7423 005a 0023     		movs	r3, #0
 7424 005c 2370     		strb	r3, [r4]
 7425 005e E5E7     		b	.L892
 7427              		.section	.text.ism330dhcx_ff_dur_set,"ax",%progbits
 7428              		.align	1
 7429              		.global	ism330dhcx_ff_dur_set
 7430              		.syntax unified
 7431              		.thumb
 7432              		.thumb_func
 7434              	ism330dhcx_ff_dur_set:
 7435              		@ args = 0, pretend = 0, frame = 8
 7436              		@ frame_needed = 0, uses_anonymous_args = 0
 7437 0000 30B5     		push	{r4, r5, lr}
 7438 0002 83B0     		sub	sp, sp, #12
 7439 0004 0546     		mov	r5, r0
 7440 0006 0C46     		mov	r4, r1
 7441 0008 0123     		movs	r3, #1
 7442 000a 01AA     		add	r2, sp, #4
 7443 000c 5C21     		movs	r1, #92
 7444 000e FFF7FEFF 		bl	ism330dhcx_read_reg
 7445 0012 0346     		mov	r3, r0
 7446 0014 18B1     		cbz	r0, .L909
 7447              	.L906:
 7448 0016 DBB1     		cbz	r3, .L910
 7449              	.L905:
ARM GAS  C:\Temp\ccOH3Pt6.s 			page 125


 7450 0018 1846     		mov	r0, r3
 7451 001a 03B0     		add	sp, sp, #12
 7452              		@ sp needed
 7453 001c 30BD     		pop	{r4, r5, pc}
 7454              	.L909:
 7455 001e C4F34013 		ubfx	r3, r4, #5, #1
 7456 0022 9DF80420 		ldrb	r2, [sp, #4]	@ zero_extendqisi2
 7457 0026 63F3C712 		bfi	r2, r3, #7, #1
 7458 002a 8DF80420 		strb	r2, [sp, #4]
 7459 002e 0123     		movs	r3, #1
 7460 0030 01AA     		add	r2, sp, #4
 7461 0032 5C21     		movs	r1, #92
 7462 0034 2846     		mov	r0, r5
 7463 0036 FFF7FEFF 		bl	ism330dhcx_write_reg
 7464 003a 0346     		mov	r3, r0
 7465 003c 0028     		cmp	r0, #0
 7466 003e EBD1     		bne	.L905
 7467 0040 0123     		movs	r3, #1
 7468 0042 6A46     		mov	r2, sp
 7469 0044 5D21     		movs	r1, #93
 7470 0046 2846     		mov	r0, r5
 7471 0048 FFF7FEFF 		bl	ism330dhcx_read_reg
 7472 004c 0346     		mov	r3, r0
 7473 004e E2E7     		b	.L906
 7474              	.L910:
 7475 0050 9DF80030 		ldrb	r3, [sp]	@ zero_extendqisi2
 7476 0054 64F3C703 		bfi	r3, r4, #3, #5
 7477 0058 8DF80030 		strb	r3, [sp]
 7478 005c 0123     		movs	r3, #1
 7479 005e 6A46     		mov	r2, sp
 7480 0060 5D21     		movs	r1, #93
 7481 0062 2846     		mov	r0, r5
 7482 0064 FFF7FEFF 		bl	ism330dhcx_write_reg
 7483 0068 0346     		mov	r3, r0
 7484 006a D5E7     		b	.L905
 7486              		.section	.text.ism330dhcx_ff_dur_get,"ax",%progbits
 7487              		.align	1
 7488              		.global	ism330dhcx_ff_dur_get
 7489              		.syntax unified
 7490              		.thumb
 7491              		.thumb_func
 7493              	ism330dhcx_ff_dur_get:
 7494              		@ args = 0, pretend = 0, frame = 8
 7495              		@ frame_needed = 0, uses_anonymous_args = 0
 7496 0000 30B5     		push	{r4, r5, lr}
 7497 0002 83B0     		sub	sp, sp, #12
 7498 0004 0546     		mov	r5, r0
 7499 0006 0C46     		mov	r4, r1
 7500 0008 0123     		movs	r3, #1
 7501 000a 01AA     		add	r2, sp, #4
 7502 000c 5C21     		movs	r1, #92
 7503 000e FFF7FEFF 		bl	ism330dhcx_read_reg
 7504 0012 50B1     		cbz	r0, .L914
 7505              	.L912:
 7506 0014 9DF80420 		ldrb	r2, [sp, #4]	@ zero_extendqisi2
 7507 0018 D209     		lsrs	r2, r2, #7
 7508 001a 9DF80030 		ldrb	r3, [sp]	@ zero_extendqisi2
ARM GAS  C:\Temp\ccOH3Pt6.s 			page 126


 7509 001e DB08     		lsrs	r3, r3, #3
 7510 0020 03EB4213 		add	r3, r3, r2, lsl #5
 7511 0024 2370     		strb	r3, [r4]
 7512 0026 03B0     		add	sp, sp, #12
 7513              		@ sp needed
 7514 0028 30BD     		pop	{r4, r5, pc}
 7515              	.L914:
 7516 002a 0123     		movs	r3, #1
 7517 002c 6A46     		mov	r2, sp
 7518 002e 5D21     		movs	r1, #93
 7519 0030 2846     		mov	r0, r5
 7520 0032 FFF7FEFF 		bl	ism330dhcx_read_reg
 7521 0036 EDE7     		b	.L912
 7523              		.section	.text.ism330dhcx_fifo_watermark_set,"ax",%progbits
 7524              		.align	1
 7525              		.global	ism330dhcx_fifo_watermark_set
 7526              		.syntax unified
 7527              		.thumb
 7528              		.thumb_func
 7530              	ism330dhcx_fifo_watermark_set:
 7531              		@ args = 0, pretend = 0, frame = 8
 7532              		@ frame_needed = 0, uses_anonymous_args = 0
 7533 0000 30B5     		push	{r4, r5, lr}
 7534 0002 83B0     		sub	sp, sp, #12
 7535 0004 0546     		mov	r5, r0
 7536 0006 0C46     		mov	r4, r1
 7537 0008 0123     		movs	r3, #1
 7538 000a 6A46     		mov	r2, sp
 7539 000c 0821     		movs	r1, #8
 7540 000e FFF7FEFF 		bl	ism330dhcx_read_reg
 7541 0012 08B1     		cbz	r0, .L918
 7542              	.L915:
 7543 0014 03B0     		add	sp, sp, #12
 7544              		@ sp needed
 7545 0016 30BD     		pop	{r4, r5, pc}
 7546              	.L918:
 7547 0018 C4F30023 		ubfx	r3, r4, #8, #1
 7548 001c 9DF80020 		ldrb	r2, [sp]	@ zero_extendqisi2
 7549 0020 63F30002 		bfi	r2, r3, #0, #1
 7550 0024 8DF80020 		strb	r2, [sp]
 7551 0028 0123     		movs	r3, #1
 7552 002a 6A46     		mov	r2, sp
 7553 002c 0821     		movs	r1, #8
 7554 002e 2846     		mov	r0, r5
 7555 0030 FFF7FEFF 		bl	ism330dhcx_write_reg
 7556 0034 0028     		cmp	r0, #0
 7557 0036 EDD1     		bne	.L915
 7558 0038 8DF80440 		strb	r4, [sp, #4]
 7559 003c 0123     		movs	r3, #1
 7560 003e 01AA     		add	r2, sp, #4
 7561 0040 0721     		movs	r1, #7
 7562 0042 2846     		mov	r0, r5
 7563 0044 FFF7FEFF 		bl	ism330dhcx_write_reg
 7564 0048 E4E7     		b	.L915
 7566              		.section	.text.ism330dhcx_fifo_watermark_get,"ax",%progbits
 7567              		.align	1
 7568              		.global	ism330dhcx_fifo_watermark_get
ARM GAS  C:\Temp\ccOH3Pt6.s 			page 127


 7569              		.syntax unified
 7570              		.thumb
 7571              		.thumb_func
 7573              	ism330dhcx_fifo_watermark_get:
 7574              		@ args = 0, pretend = 0, frame = 8
 7575              		@ frame_needed = 0, uses_anonymous_args = 0
 7576 0000 30B5     		push	{r4, r5, lr}
 7577 0002 83B0     		sub	sp, sp, #12
 7578 0004 0546     		mov	r5, r0
 7579 0006 0C46     		mov	r4, r1
 7580 0008 0123     		movs	r3, #1
 7581 000a 6A46     		mov	r2, sp
 7582 000c 0821     		movs	r1, #8
 7583 000e FFF7FEFF 		bl	ism330dhcx_read_reg
 7584 0012 58B1     		cbz	r0, .L922
 7585              	.L920:
 7586 0014 9DF80030 		ldrb	r3, [sp]	@ zero_extendqisi2
 7587 0018 03F00103 		and	r3, r3, #1
 7588 001c 2380     		strh	r3, [r4]	@ movhi
 7589 001e 9DF80420 		ldrb	r2, [sp, #4]	@ zero_extendqisi2
 7590 0022 02EB0323 		add	r3, r2, r3, lsl #8
 7591 0026 2380     		strh	r3, [r4]	@ movhi
 7592 0028 03B0     		add	sp, sp, #12
 7593              		@ sp needed
 7594 002a 30BD     		pop	{r4, r5, pc}
 7595              	.L922:
 7596 002c 0123     		movs	r3, #1
 7597 002e 01AA     		add	r2, sp, #4
 7598 0030 0721     		movs	r1, #7
 7599 0032 2846     		mov	r0, r5
 7600 0034 FFF7FEFF 		bl	ism330dhcx_read_reg
 7601 0038 ECE7     		b	.L920
 7603              		.section	.text.ism330dhcx_compression_algo_init_set,"ax",%progbits
 7604              		.align	1
 7605              		.global	ism330dhcx_compression_algo_init_set
 7606              		.syntax unified
 7607              		.thumb
 7608              		.thumb_func
 7610              	ism330dhcx_compression_algo_init_set:
 7611              		@ args = 0, pretend = 0, frame = 8
 7612              		@ frame_needed = 0, uses_anonymous_args = 0
 7613 0000 30B5     		push	{r4, r5, lr}
 7614 0002 83B0     		sub	sp, sp, #12
 7615 0004 0446     		mov	r4, r0
 7616 0006 0D46     		mov	r5, r1
 7617 0008 0221     		movs	r1, #2
 7618 000a FFF7FEFF 		bl	ism330dhcx_mem_bank_set
 7619 000e 0346     		mov	r3, r0
 7620 0010 18B1     		cbz	r0, .L927
 7621              	.L924:
 7622 0012 CBB1     		cbz	r3, .L928
 7623              	.L923:
 7624 0014 1846     		mov	r0, r3
 7625 0016 03B0     		add	sp, sp, #12
 7626              		@ sp needed
 7627 0018 30BD     		pop	{r4, r5, pc}
 7628              	.L927:
ARM GAS  C:\Temp\ccOH3Pt6.s 			page 128


 7629 001a 0123     		movs	r3, #1
 7630 001c 01AA     		add	r2, sp, #4
 7631 001e 6721     		movs	r1, #103
 7632 0020 2046     		mov	r0, r4
 7633 0022 FFF7FEFF 		bl	ism330dhcx_read_reg
 7634 0026 0346     		mov	r3, r0
 7635 0028 0028     		cmp	r0, #0
 7636 002a F3D1     		bne	.L923
 7637 002c 9DF80430 		ldrb	r3, [sp, #4]	@ zero_extendqisi2
 7638 0030 65F3C303 		bfi	r3, r5, #3, #1
 7639 0034 8DF80430 		strb	r3, [sp, #4]
 7640 0038 0123     		movs	r3, #1
 7641 003a 01AA     		add	r2, sp, #4
 7642 003c 6721     		movs	r1, #103
 7643 003e 2046     		mov	r0, r4
 7644 0040 FFF7FEFF 		bl	ism330dhcx_write_reg
 7645 0044 0346     		mov	r3, r0
 7646 0046 E4E7     		b	.L924
 7647              	.L928:
 7648 0048 0021     		movs	r1, #0
 7649 004a 2046     		mov	r0, r4
 7650 004c FFF7FEFF 		bl	ism330dhcx_mem_bank_set
 7651 0050 0346     		mov	r3, r0
 7652 0052 DFE7     		b	.L923
 7654              		.section	.text.ism330dhcx_compression_algo_init_get,"ax",%progbits
 7655              		.align	1
 7656              		.global	ism330dhcx_compression_algo_init_get
 7657              		.syntax unified
 7658              		.thumb
 7659              		.thumb_func
 7661              	ism330dhcx_compression_algo_init_get:
 7662              		@ args = 0, pretend = 0, frame = 8
 7663              		@ frame_needed = 0, uses_anonymous_args = 0
 7664 0000 30B5     		push	{r4, r5, lr}
 7665 0002 83B0     		sub	sp, sp, #12
 7666 0004 0446     		mov	r4, r0
 7667 0006 0D46     		mov	r5, r1
 7668 0008 0221     		movs	r1, #2
 7669 000a FFF7FEFF 		bl	ism330dhcx_mem_bank_set
 7670 000e 08B1     		cbz	r0, .L932
 7671              	.L929:
 7672 0010 03B0     		add	sp, sp, #12
 7673              		@ sp needed
 7674 0012 30BD     		pop	{r4, r5, pc}
 7675              	.L932:
 7676 0014 0123     		movs	r3, #1
 7677 0016 01AA     		add	r2, sp, #4
 7678 0018 6721     		movs	r1, #103
 7679 001a 2046     		mov	r0, r4
 7680 001c FFF7FEFF 		bl	ism330dhcx_read_reg
 7681 0020 0028     		cmp	r0, #0
 7682 0022 F5D1     		bne	.L929
 7683 0024 9DF80430 		ldrb	r3, [sp, #4]	@ zero_extendqisi2
 7684 0028 C3F3C003 		ubfx	r3, r3, #3, #1
 7685 002c 2B70     		strb	r3, [r5]
 7686 002e 0021     		movs	r1, #0
 7687 0030 2046     		mov	r0, r4
ARM GAS  C:\Temp\ccOH3Pt6.s 			page 129


 7688 0032 FFF7FEFF 		bl	ism330dhcx_mem_bank_set
 7689 0036 EBE7     		b	.L929
 7691              		.section	.text.ism330dhcx_compression_algo_set,"ax",%progbits
 7692              		.align	1
 7693              		.global	ism330dhcx_compression_algo_set
 7694              		.syntax unified
 7695              		.thumb
 7696              		.thumb_func
 7698              	ism330dhcx_compression_algo_set:
 7699              		@ args = 0, pretend = 0, frame = 8
 7700              		@ frame_needed = 0, uses_anonymous_args = 0
 7701 0000 30B5     		push	{r4, r5, lr}
 7702 0002 83B0     		sub	sp, sp, #12
 7703 0004 0546     		mov	r5, r0
 7704 0006 0C46     		mov	r4, r1
 7705 0008 0221     		movs	r1, #2
 7706 000a FFF7FEFF 		bl	ism330dhcx_mem_bank_set
 7707 000e 0346     		mov	r3, r0
 7708 0010 18B1     		cbz	r0, .L937
 7709              	.L934:
 7710 0012 DBB1     		cbz	r3, .L938
 7711              	.L933:
 7712 0014 1846     		mov	r0, r3
 7713 0016 03B0     		add	sp, sp, #12
 7714              		@ sp needed
 7715 0018 30BD     		pop	{r4, r5, pc}
 7716              	.L937:
 7717 001a 0123     		movs	r3, #1
 7718 001c 6A46     		mov	r2, sp
 7719 001e 0521     		movs	r1, #5
 7720 0020 2846     		mov	r0, r5
 7721 0022 FFF7FEFF 		bl	ism330dhcx_read_reg
 7722 0026 0346     		mov	r3, r0
 7723 0028 0028     		cmp	r0, #0
 7724 002a F3D1     		bne	.L933
 7725 002c C4F38003 		ubfx	r3, r4, #2, #1
 7726 0030 9DF80020 		ldrb	r2, [sp]	@ zero_extendqisi2
 7727 0034 63F3C302 		bfi	r2, r3, #3, #1
 7728 0038 8DF80020 		strb	r2, [sp]
 7729 003c 0123     		movs	r3, #1
 7730 003e 6A46     		mov	r2, sp
 7731 0040 0521     		movs	r1, #5
 7732 0042 2846     		mov	r0, r5
 7733 0044 FFF7FEFF 		bl	ism330dhcx_write_reg
 7734 0048 0346     		mov	r3, r0
 7735 004a E2E7     		b	.L934
 7736              	.L938:
 7737 004c 0021     		movs	r1, #0
 7738 004e 2846     		mov	r0, r5
 7739 0050 FFF7FEFF 		bl	ism330dhcx_mem_bank_set
 7740 0054 0346     		mov	r3, r0
 7741 0056 0028     		cmp	r0, #0
 7742 0058 DCD1     		bne	.L933
 7743 005a 0123     		movs	r3, #1
 7744 005c 01AA     		add	r2, sp, #4
 7745 005e 0821     		movs	r1, #8
 7746 0060 2846     		mov	r0, r5
ARM GAS  C:\Temp\ccOH3Pt6.s 			page 130


 7747 0062 FFF7FEFF 		bl	ism330dhcx_read_reg
 7748 0066 0346     		mov	r3, r0
 7749 0068 0028     		cmp	r0, #0
 7750 006a D3D1     		bne	.L933
 7751 006c C4F38002 		ubfx	r2, r4, #2, #1
 7752 0070 9DF80430 		ldrb	r3, [sp, #4]	@ zero_extendqisi2
 7753 0074 62F38613 		bfi	r3, r2, #6, #1
 7754 0078 8DF80430 		strb	r3, [sp, #4]
 7755 007c DBB2     		uxtb	r3, r3
 7756 007e 64F34203 		bfi	r3, r4, #1, #2
 7757 0082 8DF80430 		strb	r3, [sp, #4]
 7758 0086 0123     		movs	r3, #1
 7759 0088 01AA     		add	r2, sp, #4
 7760 008a 0821     		movs	r1, #8
 7761 008c 2846     		mov	r0, r5
 7762 008e FFF7FEFF 		bl	ism330dhcx_write_reg
 7763 0092 0346     		mov	r3, r0
 7764 0094 BEE7     		b	.L933
 7766              		.section	.text.ism330dhcx_compression_algo_get,"ax",%progbits
 7767              		.align	1
 7768              		.global	ism330dhcx_compression_algo_get
 7769              		.syntax unified
 7770              		.thumb
 7771              		.thumb_func
 7773              	ism330dhcx_compression_algo_get:
 7774              		@ args = 0, pretend = 0, frame = 8
 7775              		@ frame_needed = 0, uses_anonymous_args = 0
 7776 0000 10B5     		push	{r4, lr}
 7777 0002 82B0     		sub	sp, sp, #8
 7778 0004 0C46     		mov	r4, r1
 7779 0006 0123     		movs	r3, #1
 7780 0008 01AA     		add	r2, sp, #4
 7781 000a 0821     		movs	r1, #8
 7782 000c FFF7FEFF 		bl	ism330dhcx_read_reg
 7783 0010 9DF80430 		ldrb	r3, [sp, #4]	@ zero_extendqisi2
 7784 0014 C3F38012 		ubfx	r2, r3, #6, #1
 7785 0018 C3F34103 		ubfx	r3, r3, #1, #2
 7786 001c 03EB8203 		add	r3, r3, r2, lsl #2
 7787 0020 072B     		cmp	r3, #7
 7788 0022 15D8     		bhi	.L940
 7789 0024 DFE803F0 		tbb	[pc, r3]
 7790              	.L942:
 7791 0028 04       		.byte	(.L946-.L942)/2
 7792 0029 14       		.byte	(.L940-.L942)/2
 7793 002a 14       		.byte	(.L940-.L942)/2
 7794 002b 14       		.byte	(.L940-.L942)/2
 7795 002c 08       		.byte	(.L945-.L942)/2
 7796 002d 0B       		.byte	(.L944-.L942)/2
 7797 002e 0E       		.byte	(.L943-.L942)/2
 7798 002f 11       		.byte	(.L941-.L942)/2
 7799              		.p2align 1
 7800              	.L946:
 7801 0030 0023     		movs	r3, #0
 7802 0032 2370     		strb	r3, [r4]
 7803              	.L939:
 7804 0034 02B0     		add	sp, sp, #8
 7805              		@ sp needed
ARM GAS  C:\Temp\ccOH3Pt6.s 			page 131


 7806 0036 10BD     		pop	{r4, pc}
 7807              	.L945:
 7808 0038 0423     		movs	r3, #4
 7809 003a 2370     		strb	r3, [r4]
 7810 003c FAE7     		b	.L939
 7811              	.L944:
 7812 003e 0523     		movs	r3, #5
 7813 0040 2370     		strb	r3, [r4]
 7814 0042 F7E7     		b	.L939
 7815              	.L943:
 7816 0044 0623     		movs	r3, #6
 7817 0046 2370     		strb	r3, [r4]
 7818 0048 F4E7     		b	.L939
 7819              	.L941:
 7820 004a 0723     		movs	r3, #7
 7821 004c 2370     		strb	r3, [r4]
 7822 004e F1E7     		b	.L939
 7823              	.L940:
 7824 0050 0023     		movs	r3, #0
 7825 0052 2370     		strb	r3, [r4]
 7826 0054 EEE7     		b	.L939
 7828              		.section	.text.ism330dhcx_fifo_virtual_sens_odr_chg_set,"ax",%progbits
 7829              		.align	1
 7830              		.global	ism330dhcx_fifo_virtual_sens_odr_chg_set
 7831              		.syntax unified
 7832              		.thumb
 7833              		.thumb_func
 7835              	ism330dhcx_fifo_virtual_sens_odr_chg_set:
 7836              		@ args = 0, pretend = 0, frame = 8
 7837              		@ frame_needed = 0, uses_anonymous_args = 0
 7838 0000 30B5     		push	{r4, r5, lr}
 7839 0002 83B0     		sub	sp, sp, #12
 7840 0004 0446     		mov	r4, r0
 7841 0006 0D46     		mov	r5, r1
 7842 0008 0123     		movs	r3, #1
 7843 000a 01AA     		add	r2, sp, #4
 7844 000c 0821     		movs	r1, #8
 7845 000e FFF7FEFF 		bl	ism330dhcx_read_reg
 7846 0012 08B1     		cbz	r0, .L952
 7847              	.L949:
 7848 0014 03B0     		add	sp, sp, #12
 7849              		@ sp needed
 7850 0016 30BD     		pop	{r4, r5, pc}
 7851              	.L952:
 7852 0018 9DF80430 		ldrb	r3, [sp, #4]	@ zero_extendqisi2
 7853 001c 65F30413 		bfi	r3, r5, #4, #1
 7854 0020 8DF80430 		strb	r3, [sp, #4]
 7855 0024 0123     		movs	r3, #1
 7856 0026 01AA     		add	r2, sp, #4
 7857 0028 0821     		movs	r1, #8
 7858 002a 2046     		mov	r0, r4
 7859 002c FFF7FEFF 		bl	ism330dhcx_write_reg
 7860 0030 F0E7     		b	.L949
 7862              		.section	.text.ism330dhcx_fifo_virtual_sens_odr_chg_get,"ax",%progbits
 7863              		.align	1
 7864              		.global	ism330dhcx_fifo_virtual_sens_odr_chg_get
 7865              		.syntax unified
ARM GAS  C:\Temp\ccOH3Pt6.s 			page 132


 7866              		.thumb
 7867              		.thumb_func
 7869              	ism330dhcx_fifo_virtual_sens_odr_chg_get:
 7870              		@ args = 0, pretend = 0, frame = 8
 7871              		@ frame_needed = 0, uses_anonymous_args = 0
 7872 0000 10B5     		push	{r4, lr}
 7873 0002 82B0     		sub	sp, sp, #8
 7874 0004 0C46     		mov	r4, r1
 7875 0006 0123     		movs	r3, #1
 7876 0008 01AA     		add	r2, sp, #4
 7877 000a 0821     		movs	r1, #8
 7878 000c FFF7FEFF 		bl	ism330dhcx_read_reg
 7879 0010 9DF80430 		ldrb	r3, [sp, #4]	@ zero_extendqisi2
 7880 0014 C3F30013 		ubfx	r3, r3, #4, #1
 7881 0018 2370     		strb	r3, [r4]
 7882 001a 02B0     		add	sp, sp, #8
 7883              		@ sp needed
 7884 001c 10BD     		pop	{r4, pc}
 7886              		.section	.text.ism330dhcx_compression_algo_real_time_set,"ax",%progbits
 7887              		.align	1
 7888              		.global	ism330dhcx_compression_algo_real_time_set
 7889              		.syntax unified
 7890              		.thumb
 7891              		.thumb_func
 7893              	ism330dhcx_compression_algo_real_time_set:
 7894              		@ args = 0, pretend = 0, frame = 8
 7895              		@ frame_needed = 0, uses_anonymous_args = 0
 7896 0000 30B5     		push	{r4, r5, lr}
 7897 0002 83B0     		sub	sp, sp, #12
 7898 0004 0446     		mov	r4, r0
 7899 0006 0D46     		mov	r5, r1
 7900 0008 0123     		movs	r3, #1
 7901 000a 01AA     		add	r2, sp, #4
 7902 000c 0821     		movs	r1, #8
 7903 000e FFF7FEFF 		bl	ism330dhcx_read_reg
 7904 0012 08B1     		cbz	r0, .L958
 7905              	.L955:
 7906 0014 03B0     		add	sp, sp, #12
 7907              		@ sp needed
 7908 0016 30BD     		pop	{r4, r5, pc}
 7909              	.L958:
 7910 0018 9DF80430 		ldrb	r3, [sp, #4]	@ zero_extendqisi2
 7911 001c 65F38613 		bfi	r3, r5, #6, #1
 7912 0020 8DF80430 		strb	r3, [sp, #4]
 7913 0024 0123     		movs	r3, #1
 7914 0026 01AA     		add	r2, sp, #4
 7915 0028 0821     		movs	r1, #8
 7916 002a 2046     		mov	r0, r4
 7917 002c FFF7FEFF 		bl	ism330dhcx_write_reg
 7918 0030 F0E7     		b	.L955
 7920              		.section	.text.ism330dhcx_compression_algo_real_time_get,"ax",%progbits
 7921              		.align	1
 7922              		.global	ism330dhcx_compression_algo_real_time_get
 7923              		.syntax unified
 7924              		.thumb
 7925              		.thumb_func
 7927              	ism330dhcx_compression_algo_real_time_get:
ARM GAS  C:\Temp\ccOH3Pt6.s 			page 133


 7928              		@ args = 0, pretend = 0, frame = 8
 7929              		@ frame_needed = 0, uses_anonymous_args = 0
 7930 0000 10B5     		push	{r4, lr}
 7931 0002 82B0     		sub	sp, sp, #8
 7932 0004 0C46     		mov	r4, r1
 7933 0006 0123     		movs	r3, #1
 7934 0008 01AA     		add	r2, sp, #4
 7935 000a 0821     		movs	r1, #8
 7936 000c FFF7FEFF 		bl	ism330dhcx_read_reg
 7937 0010 9DF80430 		ldrb	r3, [sp, #4]	@ zero_extendqisi2
 7938 0014 C3F38013 		ubfx	r3, r3, #6, #1
 7939 0018 2370     		strb	r3, [r4]
 7940 001a 02B0     		add	sp, sp, #8
 7941              		@ sp needed
 7942 001c 10BD     		pop	{r4, pc}
 7944              		.section	.text.ism330dhcx_fifo_stop_on_wtm_set,"ax",%progbits
 7945              		.align	1
 7946              		.global	ism330dhcx_fifo_stop_on_wtm_set
 7947              		.syntax unified
 7948              		.thumb
 7949              		.thumb_func
 7951              	ism330dhcx_fifo_stop_on_wtm_set:
 7952              		@ args = 0, pretend = 0, frame = 8
 7953              		@ frame_needed = 0, uses_anonymous_args = 0
 7954 0000 30B5     		push	{r4, r5, lr}
 7955 0002 83B0     		sub	sp, sp, #12
 7956 0004 0446     		mov	r4, r0
 7957 0006 0D46     		mov	r5, r1
 7958 0008 0123     		movs	r3, #1
 7959 000a 01AA     		add	r2, sp, #4
 7960 000c 0821     		movs	r1, #8
 7961 000e FFF7FEFF 		bl	ism330dhcx_read_reg
 7962 0012 08B1     		cbz	r0, .L964
 7963              	.L961:
 7964 0014 03B0     		add	sp, sp, #12
 7965              		@ sp needed
 7966 0016 30BD     		pop	{r4, r5, pc}
 7967              	.L964:
 7968 0018 9DF80430 		ldrb	r3, [sp, #4]	@ zero_extendqisi2
 7969 001c 65F3C713 		bfi	r3, r5, #7, #1
 7970 0020 8DF80430 		strb	r3, [sp, #4]
 7971 0024 0123     		movs	r3, #1
 7972 0026 01AA     		add	r2, sp, #4
 7973 0028 0821     		movs	r1, #8
 7974 002a 2046     		mov	r0, r4
 7975 002c FFF7FEFF 		bl	ism330dhcx_write_reg
 7976 0030 F0E7     		b	.L961
 7978              		.section	.text.ism330dhcx_fifo_stop_on_wtm_get,"ax",%progbits
 7979              		.align	1
 7980              		.global	ism330dhcx_fifo_stop_on_wtm_get
 7981              		.syntax unified
 7982              		.thumb
 7983              		.thumb_func
 7985              	ism330dhcx_fifo_stop_on_wtm_get:
 7986              		@ args = 0, pretend = 0, frame = 8
 7987              		@ frame_needed = 0, uses_anonymous_args = 0
 7988 0000 10B5     		push	{r4, lr}
ARM GAS  C:\Temp\ccOH3Pt6.s 			page 134


 7989 0002 82B0     		sub	sp, sp, #8
 7990 0004 0C46     		mov	r4, r1
 7991 0006 0123     		movs	r3, #1
 7992 0008 01AA     		add	r2, sp, #4
 7993 000a 0821     		movs	r1, #8
 7994 000c FFF7FEFF 		bl	ism330dhcx_read_reg
 7995 0010 9DF80430 		ldrb	r3, [sp, #4]	@ zero_extendqisi2
 7996 0014 C3F3C013 		ubfx	r3, r3, #7, #1
 7997 0018 2370     		strb	r3, [r4]
 7998 001a 02B0     		add	sp, sp, #8
 7999              		@ sp needed
 8000 001c 10BD     		pop	{r4, pc}
 8002              		.section	.text.ism330dhcx_fifo_xl_batch_set,"ax",%progbits
 8003              		.align	1
 8004              		.global	ism330dhcx_fifo_xl_batch_set
 8005              		.syntax unified
 8006              		.thumb
 8007              		.thumb_func
 8009              	ism330dhcx_fifo_xl_batch_set:
 8010              		@ args = 0, pretend = 0, frame = 8
 8011              		@ frame_needed = 0, uses_anonymous_args = 0
 8012 0000 30B5     		push	{r4, r5, lr}
 8013 0002 83B0     		sub	sp, sp, #12
 8014 0004 0446     		mov	r4, r0
 8015 0006 0D46     		mov	r5, r1
 8016 0008 0123     		movs	r3, #1
 8017 000a 01AA     		add	r2, sp, #4
 8018 000c 0921     		movs	r1, #9
 8019 000e FFF7FEFF 		bl	ism330dhcx_read_reg
 8020 0012 08B1     		cbz	r0, .L970
 8021              	.L967:
 8022 0014 03B0     		add	sp, sp, #12
 8023              		@ sp needed
 8024 0016 30BD     		pop	{r4, r5, pc}
 8025              	.L970:
 8026 0018 9DF80430 		ldrb	r3, [sp, #4]	@ zero_extendqisi2
 8027 001c 65F30303 		bfi	r3, r5, #0, #4
 8028 0020 8DF80430 		strb	r3, [sp, #4]
 8029 0024 0123     		movs	r3, #1
 8030 0026 01AA     		add	r2, sp, #4
 8031 0028 0921     		movs	r1, #9
 8032 002a 2046     		mov	r0, r4
 8033 002c FFF7FEFF 		bl	ism330dhcx_write_reg
 8034 0030 F0E7     		b	.L967
 8036              		.section	.text.ism330dhcx_fifo_xl_batch_get,"ax",%progbits
 8037              		.align	1
 8038              		.global	ism330dhcx_fifo_xl_batch_get
 8039              		.syntax unified
 8040              		.thumb
 8041              		.thumb_func
 8043              	ism330dhcx_fifo_xl_batch_get:
 8044              		@ args = 0, pretend = 0, frame = 8
 8045              		@ frame_needed = 0, uses_anonymous_args = 0
 8046 0000 10B5     		push	{r4, lr}
 8047 0002 82B0     		sub	sp, sp, #8
 8048 0004 0C46     		mov	r4, r1
 8049 0006 0123     		movs	r3, #1
ARM GAS  C:\Temp\ccOH3Pt6.s 			page 135


 8050 0008 01AA     		add	r2, sp, #4
 8051 000a 0921     		movs	r1, #9
 8052 000c FFF7FEFF 		bl	ism330dhcx_read_reg
 8053 0010 9DF80430 		ldrb	r3, [sp, #4]	@ zero_extendqisi2
 8054 0014 03F00F03 		and	r3, r3, #15
 8055 0018 0B2B     		cmp	r3, #11
 8056 001a 2CD8     		bhi	.L972
 8057 001c DFE803F0 		tbb	[pc, r3]
 8058              	.L974:
 8059 0020 06       		.byte	(.L985-.L974)/2
 8060 0021 0A       		.byte	(.L984-.L974)/2
 8061 0022 0D       		.byte	(.L983-.L974)/2
 8062 0023 10       		.byte	(.L982-.L974)/2
 8063 0024 13       		.byte	(.L981-.L974)/2
 8064 0025 16       		.byte	(.L980-.L974)/2
 8065 0026 19       		.byte	(.L979-.L974)/2
 8066 0027 1C       		.byte	(.L978-.L974)/2
 8067 0028 1F       		.byte	(.L977-.L974)/2
 8068 0029 22       		.byte	(.L976-.L974)/2
 8069 002a 25       		.byte	(.L975-.L974)/2
 8070 002b 28       		.byte	(.L973-.L974)/2
 8071              		.p2align 1
 8072              	.L985:
 8073 002c 0023     		movs	r3, #0
 8074 002e 2370     		strb	r3, [r4]
 8075              	.L971:
 8076 0030 02B0     		add	sp, sp, #8
 8077              		@ sp needed
 8078 0032 10BD     		pop	{r4, pc}
 8079              	.L984:
 8080 0034 0123     		movs	r3, #1
 8081 0036 2370     		strb	r3, [r4]
 8082 0038 FAE7     		b	.L971
 8083              	.L983:
 8084 003a 0223     		movs	r3, #2
 8085 003c 2370     		strb	r3, [r4]
 8086 003e F7E7     		b	.L971
 8087              	.L982:
 8088 0040 0323     		movs	r3, #3
 8089 0042 2370     		strb	r3, [r4]
 8090 0044 F4E7     		b	.L971
 8091              	.L981:
 8092 0046 0423     		movs	r3, #4
 8093 0048 2370     		strb	r3, [r4]
 8094 004a F1E7     		b	.L971
 8095              	.L980:
 8096 004c 0523     		movs	r3, #5
 8097 004e 2370     		strb	r3, [r4]
 8098 0050 EEE7     		b	.L971
 8099              	.L979:
 8100 0052 0623     		movs	r3, #6
 8101 0054 2370     		strb	r3, [r4]
 8102 0056 EBE7     		b	.L971
 8103              	.L978:
 8104 0058 0723     		movs	r3, #7
 8105 005a 2370     		strb	r3, [r4]
 8106 005c E8E7     		b	.L971
ARM GAS  C:\Temp\ccOH3Pt6.s 			page 136


 8107              	.L977:
 8108 005e 0823     		movs	r3, #8
 8109 0060 2370     		strb	r3, [r4]
 8110 0062 E5E7     		b	.L971
 8111              	.L976:
 8112 0064 0923     		movs	r3, #9
 8113 0066 2370     		strb	r3, [r4]
 8114 0068 E2E7     		b	.L971
 8115              	.L975:
 8116 006a 0A23     		movs	r3, #10
 8117 006c 2370     		strb	r3, [r4]
 8118 006e DFE7     		b	.L971
 8119              	.L973:
 8120 0070 0B23     		movs	r3, #11
 8121 0072 2370     		strb	r3, [r4]
 8122 0074 DCE7     		b	.L971
 8123              	.L972:
 8124 0076 0023     		movs	r3, #0
 8125 0078 2370     		strb	r3, [r4]
 8126 007a D9E7     		b	.L971
 8128              		.section	.text.ism330dhcx_fifo_gy_batch_set,"ax",%progbits
 8129              		.align	1
 8130              		.global	ism330dhcx_fifo_gy_batch_set
 8131              		.syntax unified
 8132              		.thumb
 8133              		.thumb_func
 8135              	ism330dhcx_fifo_gy_batch_set:
 8136              		@ args = 0, pretend = 0, frame = 8
 8137              		@ frame_needed = 0, uses_anonymous_args = 0
 8138 0000 30B5     		push	{r4, r5, lr}
 8139 0002 83B0     		sub	sp, sp, #12
 8140 0004 0446     		mov	r4, r0
 8141 0006 0D46     		mov	r5, r1
 8142 0008 0123     		movs	r3, #1
 8143 000a 01AA     		add	r2, sp, #4
 8144 000c 0921     		movs	r1, #9
 8145 000e FFF7FEFF 		bl	ism330dhcx_read_reg
 8146 0012 08B1     		cbz	r0, .L991
 8147              	.L988:
 8148 0014 03B0     		add	sp, sp, #12
 8149              		@ sp needed
 8150 0016 30BD     		pop	{r4, r5, pc}
 8151              	.L991:
 8152 0018 9DF80430 		ldrb	r3, [sp, #4]	@ zero_extendqisi2
 8153 001c 65F30713 		bfi	r3, r5, #4, #4
 8154 0020 8DF80430 		strb	r3, [sp, #4]
 8155 0024 0123     		movs	r3, #1
 8156 0026 01AA     		add	r2, sp, #4
 8157 0028 0921     		movs	r1, #9
 8158 002a 2046     		mov	r0, r4
 8159 002c FFF7FEFF 		bl	ism330dhcx_write_reg
 8160 0030 F0E7     		b	.L988
 8162              		.section	.text.ism330dhcx_fifo_gy_batch_get,"ax",%progbits
 8163              		.align	1
 8164              		.global	ism330dhcx_fifo_gy_batch_get
 8165              		.syntax unified
 8166              		.thumb
ARM GAS  C:\Temp\ccOH3Pt6.s 			page 137


 8167              		.thumb_func
 8169              	ism330dhcx_fifo_gy_batch_get:
 8170              		@ args = 0, pretend = 0, frame = 8
 8171              		@ frame_needed = 0, uses_anonymous_args = 0
 8172 0000 10B5     		push	{r4, lr}
 8173 0002 82B0     		sub	sp, sp, #8
 8174 0004 0C46     		mov	r4, r1
 8175 0006 0123     		movs	r3, #1
 8176 0008 01AA     		add	r2, sp, #4
 8177 000a 0921     		movs	r1, #9
 8178 000c FFF7FEFF 		bl	ism330dhcx_read_reg
 8179 0010 9DF80430 		ldrb	r3, [sp, #4]	@ zero_extendqisi2
 8180 0014 1B09     		lsrs	r3, r3, #4
 8181 0016 0B2B     		cmp	r3, #11
 8182 0018 2CD8     		bhi	.L993
 8183 001a DFE803F0 		tbb	[pc, r3]
 8184              	.L995:
 8185 001e 06       		.byte	(.L1006-.L995)/2
 8186 001f 0A       		.byte	(.L1005-.L995)/2
 8187 0020 0D       		.byte	(.L1004-.L995)/2
 8188 0021 10       		.byte	(.L1003-.L995)/2
 8189 0022 13       		.byte	(.L1002-.L995)/2
 8190 0023 16       		.byte	(.L1001-.L995)/2
 8191 0024 19       		.byte	(.L1000-.L995)/2
 8192 0025 1C       		.byte	(.L999-.L995)/2
 8193 0026 1F       		.byte	(.L998-.L995)/2
 8194 0027 22       		.byte	(.L997-.L995)/2
 8195 0028 25       		.byte	(.L996-.L995)/2
 8196 0029 28       		.byte	(.L994-.L995)/2
 8197              		.p2align 1
 8198              	.L1006:
 8199 002a 0023     		movs	r3, #0
 8200 002c 2370     		strb	r3, [r4]
 8201              	.L992:
 8202 002e 02B0     		add	sp, sp, #8
 8203              		@ sp needed
 8204 0030 10BD     		pop	{r4, pc}
 8205              	.L1005:
 8206 0032 0123     		movs	r3, #1
 8207 0034 2370     		strb	r3, [r4]
 8208 0036 FAE7     		b	.L992
 8209              	.L1004:
 8210 0038 0223     		movs	r3, #2
 8211 003a 2370     		strb	r3, [r4]
 8212 003c F7E7     		b	.L992
 8213              	.L1003:
 8214 003e 0323     		movs	r3, #3
 8215 0040 2370     		strb	r3, [r4]
 8216 0042 F4E7     		b	.L992
 8217              	.L1002:
 8218 0044 0423     		movs	r3, #4
 8219 0046 2370     		strb	r3, [r4]
 8220 0048 F1E7     		b	.L992
 8221              	.L1001:
 8222 004a 0523     		movs	r3, #5
 8223 004c 2370     		strb	r3, [r4]
 8224 004e EEE7     		b	.L992
ARM GAS  C:\Temp\ccOH3Pt6.s 			page 138


 8225              	.L1000:
 8226 0050 0623     		movs	r3, #6
 8227 0052 2370     		strb	r3, [r4]
 8228 0054 EBE7     		b	.L992
 8229              	.L999:
 8230 0056 0723     		movs	r3, #7
 8231 0058 2370     		strb	r3, [r4]
 8232 005a E8E7     		b	.L992
 8233              	.L998:
 8234 005c 0823     		movs	r3, #8
 8235 005e 2370     		strb	r3, [r4]
 8236 0060 E5E7     		b	.L992
 8237              	.L997:
 8238 0062 0923     		movs	r3, #9
 8239 0064 2370     		strb	r3, [r4]
 8240 0066 E2E7     		b	.L992
 8241              	.L996:
 8242 0068 0A23     		movs	r3, #10
 8243 006a 2370     		strb	r3, [r4]
 8244 006c DFE7     		b	.L992
 8245              	.L994:
 8246 006e 0B23     		movs	r3, #11
 8247 0070 2370     		strb	r3, [r4]
 8248 0072 DCE7     		b	.L992
 8249              	.L993:
 8250 0074 0023     		movs	r3, #0
 8251 0076 2370     		strb	r3, [r4]
 8252 0078 D9E7     		b	.L992
 8254              		.section	.text.ism330dhcx_fifo_mode_set,"ax",%progbits
 8255              		.align	1
 8256              		.global	ism330dhcx_fifo_mode_set
 8257              		.syntax unified
 8258              		.thumb
 8259              		.thumb_func
 8261              	ism330dhcx_fifo_mode_set:
 8262              		@ args = 0, pretend = 0, frame = 8
 8263              		@ frame_needed = 0, uses_anonymous_args = 0
 8264 0000 30B5     		push	{r4, r5, lr}
 8265 0002 83B0     		sub	sp, sp, #12
 8266 0004 0446     		mov	r4, r0
 8267 0006 0D46     		mov	r5, r1
 8268 0008 0123     		movs	r3, #1
 8269 000a 01AA     		add	r2, sp, #4
 8270 000c 0A21     		movs	r1, #10
 8271 000e FFF7FEFF 		bl	ism330dhcx_read_reg
 8272 0012 08B1     		cbz	r0, .L1012
 8273              	.L1009:
 8274 0014 03B0     		add	sp, sp, #12
 8275              		@ sp needed
 8276 0016 30BD     		pop	{r4, r5, pc}
 8277              	.L1012:
 8278 0018 9DF80430 		ldrb	r3, [sp, #4]	@ zero_extendqisi2
 8279 001c 65F30203 		bfi	r3, r5, #0, #3
 8280 0020 8DF80430 		strb	r3, [sp, #4]
 8281 0024 0123     		movs	r3, #1
 8282 0026 01AA     		add	r2, sp, #4
 8283 0028 0A21     		movs	r1, #10
ARM GAS  C:\Temp\ccOH3Pt6.s 			page 139


 8284 002a 2046     		mov	r0, r4
 8285 002c FFF7FEFF 		bl	ism330dhcx_write_reg
 8286 0030 F0E7     		b	.L1009
 8288              		.section	.text.ism330dhcx_fifo_mode_get,"ax",%progbits
 8289              		.align	1
 8290              		.global	ism330dhcx_fifo_mode_get
 8291              		.syntax unified
 8292              		.thumb
 8293              		.thumb_func
 8295              	ism330dhcx_fifo_mode_get:
 8296              		@ args = 0, pretend = 0, frame = 8
 8297              		@ frame_needed = 0, uses_anonymous_args = 0
 8298 0000 10B5     		push	{r4, lr}
 8299 0002 82B0     		sub	sp, sp, #8
 8300 0004 0C46     		mov	r4, r1
 8301 0006 0123     		movs	r3, #1
 8302 0008 01AA     		add	r2, sp, #4
 8303 000a 0A21     		movs	r1, #10
 8304 000c FFF7FEFF 		bl	ism330dhcx_read_reg
 8305 0010 9DF80430 		ldrb	r3, [sp, #4]	@ zero_extendqisi2
 8306 0014 03F00703 		and	r3, r3, #7
 8307 0018 072B     		cmp	r3, #7
 8308 001a 18D8     		bhi	.L1014
 8309 001c DFE803F0 		tbb	[pc, r3]
 8310              	.L1016:
 8311 0020 04       		.byte	(.L1021-.L1016)/2
 8312 0021 08       		.byte	(.L1020-.L1016)/2
 8313 0022 17       		.byte	(.L1014-.L1016)/2
 8314 0023 0B       		.byte	(.L1019-.L1016)/2
 8315 0024 0E       		.byte	(.L1018-.L1016)/2
 8316 0025 17       		.byte	(.L1014-.L1016)/2
 8317 0026 11       		.byte	(.L1017-.L1016)/2
 8318 0027 14       		.byte	(.L1015-.L1016)/2
 8319              		.p2align 1
 8320              	.L1021:
 8321 0028 0023     		movs	r3, #0
 8322 002a 2370     		strb	r3, [r4]
 8323              	.L1013:
 8324 002c 02B0     		add	sp, sp, #8
 8325              		@ sp needed
 8326 002e 10BD     		pop	{r4, pc}
 8327              	.L1020:
 8328 0030 0123     		movs	r3, #1
 8329 0032 2370     		strb	r3, [r4]
 8330 0034 FAE7     		b	.L1013
 8331              	.L1019:
 8332 0036 0323     		movs	r3, #3
 8333 0038 2370     		strb	r3, [r4]
 8334 003a F7E7     		b	.L1013
 8335              	.L1018:
 8336 003c 0423     		movs	r3, #4
 8337 003e 2370     		strb	r3, [r4]
 8338 0040 F4E7     		b	.L1013
 8339              	.L1017:
 8340 0042 0623     		movs	r3, #6
 8341 0044 2370     		strb	r3, [r4]
 8342 0046 F1E7     		b	.L1013
ARM GAS  C:\Temp\ccOH3Pt6.s 			page 140


 8343              	.L1015:
 8344 0048 0723     		movs	r3, #7
 8345 004a 2370     		strb	r3, [r4]
 8346 004c EEE7     		b	.L1013
 8347              	.L1014:
 8348 004e 0023     		movs	r3, #0
 8349 0050 2370     		strb	r3, [r4]
 8350 0052 EBE7     		b	.L1013
 8352              		.section	.text.ism330dhcx_fifo_temp_batch_set,"ax",%progbits
 8353              		.align	1
 8354              		.global	ism330dhcx_fifo_temp_batch_set
 8355              		.syntax unified
 8356              		.thumb
 8357              		.thumb_func
 8359              	ism330dhcx_fifo_temp_batch_set:
 8360              		@ args = 0, pretend = 0, frame = 8
 8361              		@ frame_needed = 0, uses_anonymous_args = 0
 8362 0000 30B5     		push	{r4, r5, lr}
 8363 0002 83B0     		sub	sp, sp, #12
 8364 0004 0446     		mov	r4, r0
 8365 0006 0D46     		mov	r5, r1
 8366 0008 0123     		movs	r3, #1
 8367 000a 01AA     		add	r2, sp, #4
 8368 000c 0A21     		movs	r1, #10
 8369 000e FFF7FEFF 		bl	ism330dhcx_read_reg
 8370 0012 08B1     		cbz	r0, .L1027
 8371              	.L1024:
 8372 0014 03B0     		add	sp, sp, #12
 8373              		@ sp needed
 8374 0016 30BD     		pop	{r4, r5, pc}
 8375              	.L1027:
 8376 0018 9DF80430 		ldrb	r3, [sp, #4]	@ zero_extendqisi2
 8377 001c 65F30513 		bfi	r3, r5, #4, #2
 8378 0020 8DF80430 		strb	r3, [sp, #4]
 8379 0024 0123     		movs	r3, #1
 8380 0026 01AA     		add	r2, sp, #4
 8381 0028 0A21     		movs	r1, #10
 8382 002a 2046     		mov	r0, r4
 8383 002c FFF7FEFF 		bl	ism330dhcx_write_reg
 8384 0030 F0E7     		b	.L1024
 8386              		.section	.text.ism330dhcx_fifo_temp_batch_get,"ax",%progbits
 8387              		.align	1
 8388              		.global	ism330dhcx_fifo_temp_batch_get
 8389              		.syntax unified
 8390              		.thumb
 8391              		.thumb_func
 8393              	ism330dhcx_fifo_temp_batch_get:
 8394              		@ args = 0, pretend = 0, frame = 8
 8395              		@ frame_needed = 0, uses_anonymous_args = 0
 8396 0000 10B5     		push	{r4, lr}
 8397 0002 82B0     		sub	sp, sp, #8
 8398 0004 0C46     		mov	r4, r1
 8399 0006 0123     		movs	r3, #1
 8400 0008 01AA     		add	r2, sp, #4
 8401 000a 0A21     		movs	r1, #10
 8402 000c FFF7FEFF 		bl	ism330dhcx_read_reg
 8403 0010 9DF80430 		ldrb	r3, [sp, #4]	@ zero_extendqisi2
ARM GAS  C:\Temp\ccOH3Pt6.s 			page 141


 8404 0014 C3F30113 		ubfx	r3, r3, #4, #2
 8405 0018 032B     		cmp	r3, #3
 8406 001a 10D8     		bhi	.L1029
 8407 001c DFE803F0 		tbb	[pc, r3]
 8408              	.L1031:
 8409 0020 02       		.byte	(.L1034-.L1031)/2
 8410 0021 06       		.byte	(.L1033-.L1031)/2
 8411 0022 09       		.byte	(.L1032-.L1031)/2
 8412 0023 0C       		.byte	(.L1030-.L1031)/2
 8413              		.p2align 1
 8414              	.L1034:
 8415 0024 0023     		movs	r3, #0
 8416 0026 2370     		strb	r3, [r4]
 8417              	.L1028:
 8418 0028 02B0     		add	sp, sp, #8
 8419              		@ sp needed
 8420 002a 10BD     		pop	{r4, pc}
 8421              	.L1033:
 8422 002c 0123     		movs	r3, #1
 8423 002e 2370     		strb	r3, [r4]
 8424 0030 FAE7     		b	.L1028
 8425              	.L1032:
 8426 0032 0223     		movs	r3, #2
 8427 0034 2370     		strb	r3, [r4]
 8428 0036 F7E7     		b	.L1028
 8429              	.L1030:
 8430 0038 0323     		movs	r3, #3
 8431 003a 2370     		strb	r3, [r4]
 8432 003c F4E7     		b	.L1028
 8433              	.L1029:
 8434 003e 0023     		movs	r3, #0
 8435 0040 2370     		strb	r3, [r4]
 8436 0042 F1E7     		b	.L1028
 8438              		.section	.text.ism330dhcx_fifo_timestamp_decimation_set,"ax",%progbits
 8439              		.align	1
 8440              		.global	ism330dhcx_fifo_timestamp_decimation_set
 8441              		.syntax unified
 8442              		.thumb
 8443              		.thumb_func
 8445              	ism330dhcx_fifo_timestamp_decimation_set:
 8446              		@ args = 0, pretend = 0, frame = 8
 8447              		@ frame_needed = 0, uses_anonymous_args = 0
 8448 0000 30B5     		push	{r4, r5, lr}
 8449 0002 83B0     		sub	sp, sp, #12
 8450 0004 0446     		mov	r4, r0
 8451 0006 0D46     		mov	r5, r1
 8452 0008 0123     		movs	r3, #1
 8453 000a 01AA     		add	r2, sp, #4
 8454 000c 0A21     		movs	r1, #10
 8455 000e FFF7FEFF 		bl	ism330dhcx_read_reg
 8456 0012 08B1     		cbz	r0, .L1040
 8457              	.L1037:
 8458 0014 03B0     		add	sp, sp, #12
 8459              		@ sp needed
 8460 0016 30BD     		pop	{r4, r5, pc}
 8461              	.L1040:
 8462 0018 9DF80430 		ldrb	r3, [sp, #4]	@ zero_extendqisi2
ARM GAS  C:\Temp\ccOH3Pt6.s 			page 142


 8463 001c 65F38713 		bfi	r3, r5, #6, #2
 8464 0020 8DF80430 		strb	r3, [sp, #4]
 8465 0024 0123     		movs	r3, #1
 8466 0026 01AA     		add	r2, sp, #4
 8467 0028 0A21     		movs	r1, #10
 8468 002a 2046     		mov	r0, r4
 8469 002c FFF7FEFF 		bl	ism330dhcx_write_reg
 8470 0030 F0E7     		b	.L1037
 8472              		.section	.text.ism330dhcx_fifo_timestamp_decimation_get,"ax",%progbits
 8473              		.align	1
 8474              		.global	ism330dhcx_fifo_timestamp_decimation_get
 8475              		.syntax unified
 8476              		.thumb
 8477              		.thumb_func
 8479              	ism330dhcx_fifo_timestamp_decimation_get:
 8480              		@ args = 0, pretend = 0, frame = 8
 8481              		@ frame_needed = 0, uses_anonymous_args = 0
 8482 0000 10B5     		push	{r4, lr}
 8483 0002 82B0     		sub	sp, sp, #8
 8484 0004 0C46     		mov	r4, r1
 8485 0006 0123     		movs	r3, #1
 8486 0008 01AA     		add	r2, sp, #4
 8487 000a 0A21     		movs	r1, #10
 8488 000c FFF7FEFF 		bl	ism330dhcx_read_reg
 8489 0010 9DF80430 		ldrb	r3, [sp, #4]	@ zero_extendqisi2
 8490 0014 9B09     		lsrs	r3, r3, #6
 8491 0016 032B     		cmp	r3, #3
 8492 0018 10D8     		bhi	.L1042
 8493 001a DFE803F0 		tbb	[pc, r3]
 8494              	.L1044:
 8495 001e 02       		.byte	(.L1047-.L1044)/2
 8496 001f 06       		.byte	(.L1046-.L1044)/2
 8497 0020 09       		.byte	(.L1045-.L1044)/2
 8498 0021 0C       		.byte	(.L1043-.L1044)/2
 8499              		.p2align 1
 8500              	.L1047:
 8501 0022 0023     		movs	r3, #0
 8502 0024 2370     		strb	r3, [r4]
 8503              	.L1041:
 8504 0026 02B0     		add	sp, sp, #8
 8505              		@ sp needed
 8506 0028 10BD     		pop	{r4, pc}
 8507              	.L1046:
 8508 002a 0123     		movs	r3, #1
 8509 002c 2370     		strb	r3, [r4]
 8510 002e FAE7     		b	.L1041
 8511              	.L1045:
 8512 0030 0223     		movs	r3, #2
 8513 0032 2370     		strb	r3, [r4]
 8514 0034 F7E7     		b	.L1041
 8515              	.L1043:
 8516 0036 0323     		movs	r3, #3
 8517 0038 2370     		strb	r3, [r4]
 8518 003a F4E7     		b	.L1041
 8519              	.L1042:
 8520 003c 0023     		movs	r3, #0
 8521 003e 2370     		strb	r3, [r4]
ARM GAS  C:\Temp\ccOH3Pt6.s 			page 143


 8522 0040 F1E7     		b	.L1041
 8524              		.section	.text.ism330dhcx_fifo_cnt_event_batch_set,"ax",%progbits
 8525              		.align	1
 8526              		.global	ism330dhcx_fifo_cnt_event_batch_set
 8527              		.syntax unified
 8528              		.thumb
 8529              		.thumb_func
 8531              	ism330dhcx_fifo_cnt_event_batch_set:
 8532              		@ args = 0, pretend = 0, frame = 8
 8533              		@ frame_needed = 0, uses_anonymous_args = 0
 8534 0000 30B5     		push	{r4, r5, lr}
 8535 0002 83B0     		sub	sp, sp, #12
 8536 0004 0446     		mov	r4, r0
 8537 0006 0D46     		mov	r5, r1
 8538 0008 0123     		movs	r3, #1
 8539 000a 01AA     		add	r2, sp, #4
 8540 000c 0B21     		movs	r1, #11
 8541 000e FFF7FEFF 		bl	ism330dhcx_read_reg
 8542 0012 08B1     		cbz	r0, .L1053
 8543              	.L1050:
 8544 0014 03B0     		add	sp, sp, #12
 8545              		@ sp needed
 8546 0016 30BD     		pop	{r4, r5, pc}
 8547              	.L1053:
 8548 0018 9DF80430 		ldrb	r3, [sp, #4]	@ zero_extendqisi2
 8549 001c 65F34513 		bfi	r3, r5, #5, #1
 8550 0020 8DF80430 		strb	r3, [sp, #4]
 8551 0024 0123     		movs	r3, #1
 8552 0026 01AA     		add	r2, sp, #4
 8553 0028 0B21     		movs	r1, #11
 8554 002a 2046     		mov	r0, r4
 8555 002c FFF7FEFF 		bl	ism330dhcx_write_reg
 8556 0030 F0E7     		b	.L1050
 8558              		.section	.text.ism330dhcx_fifo_cnt_event_batch_get,"ax",%progbits
 8559              		.align	1
 8560              		.global	ism330dhcx_fifo_cnt_event_batch_get
 8561              		.syntax unified
 8562              		.thumb
 8563              		.thumb_func
 8565              	ism330dhcx_fifo_cnt_event_batch_get:
 8566              		@ args = 0, pretend = 0, frame = 8
 8567              		@ frame_needed = 0, uses_anonymous_args = 0
 8568 0000 10B5     		push	{r4, lr}
 8569 0002 82B0     		sub	sp, sp, #8
 8570 0004 0C46     		mov	r4, r1
 8571 0006 0123     		movs	r3, #1
 8572 0008 01AA     		add	r2, sp, #4
 8573 000a 0B21     		movs	r1, #11
 8574 000c FFF7FEFF 		bl	ism330dhcx_read_reg
 8575 0010 9DF80430 		ldrb	r3, [sp, #4]	@ zero_extendqisi2
 8576 0014 C3F34012 		ubfx	r2, r3, #5, #1
 8577 0018 13F0200F 		tst	r3, #32
 8578 001c 03D0     		beq	.L1055
 8579 001e 32B9     		cbnz	r2, .L1056
 8580 0020 0023     		movs	r3, #0
 8581 0022 2370     		strb	r3, [r4]
 8582 0024 01E0     		b	.L1054
ARM GAS  C:\Temp\ccOH3Pt6.s 			page 144


 8583              	.L1055:
 8584 0026 0023     		movs	r3, #0
 8585 0028 2370     		strb	r3, [r4]
 8586              	.L1054:
 8587 002a 02B0     		add	sp, sp, #8
 8588              		@ sp needed
 8589 002c 10BD     		pop	{r4, pc}
 8590              	.L1056:
 8591 002e 0123     		movs	r3, #1
 8592 0030 2370     		strb	r3, [r4]
 8593 0032 FAE7     		b	.L1054
 8595              		.section	.text.ism330dhcx_rst_batch_counter_set,"ax",%progbits
 8596              		.align	1
 8597              		.global	ism330dhcx_rst_batch_counter_set
 8598              		.syntax unified
 8599              		.thumb
 8600              		.thumb_func
 8602              	ism330dhcx_rst_batch_counter_set:
 8603              		@ args = 0, pretend = 0, frame = 8
 8604              		@ frame_needed = 0, uses_anonymous_args = 0
 8605 0000 30B5     		push	{r4, r5, lr}
 8606 0002 83B0     		sub	sp, sp, #12
 8607 0004 0446     		mov	r4, r0
 8608 0006 0D46     		mov	r5, r1
 8609 0008 0123     		movs	r3, #1
 8610 000a 01AA     		add	r2, sp, #4
 8611 000c 0B21     		movs	r1, #11
 8612 000e FFF7FEFF 		bl	ism330dhcx_read_reg
 8613 0012 08B1     		cbz	r0, .L1064
 8614              	.L1061:
 8615 0014 03B0     		add	sp, sp, #12
 8616              		@ sp needed
 8617 0016 30BD     		pop	{r4, r5, pc}
 8618              	.L1064:
 8619 0018 9DF80430 		ldrb	r3, [sp, #4]	@ zero_extendqisi2
 8620 001c 65F38613 		bfi	r3, r5, #6, #1
 8621 0020 8DF80430 		strb	r3, [sp, #4]
 8622 0024 0123     		movs	r3, #1
 8623 0026 01AA     		add	r2, sp, #4
 8624 0028 0B21     		movs	r1, #11
 8625 002a 2046     		mov	r0, r4
 8626 002c FFF7FEFF 		bl	ism330dhcx_write_reg
 8627 0030 F0E7     		b	.L1061
 8629              		.section	.text.ism330dhcx_rst_batch_counter_get,"ax",%progbits
 8630              		.align	1
 8631              		.global	ism330dhcx_rst_batch_counter_get
 8632              		.syntax unified
 8633              		.thumb
 8634              		.thumb_func
 8636              	ism330dhcx_rst_batch_counter_get:
 8637              		@ args = 0, pretend = 0, frame = 8
 8638              		@ frame_needed = 0, uses_anonymous_args = 0
 8639 0000 10B5     		push	{r4, lr}
 8640 0002 82B0     		sub	sp, sp, #8
 8641 0004 0C46     		mov	r4, r1
 8642 0006 0123     		movs	r3, #1
 8643 0008 01AA     		add	r2, sp, #4
ARM GAS  C:\Temp\ccOH3Pt6.s 			page 145


 8644 000a 0B21     		movs	r1, #11
 8645 000c FFF7FEFF 		bl	ism330dhcx_read_reg
 8646 0010 9DF80430 		ldrb	r3, [sp, #4]	@ zero_extendqisi2
 8647 0014 C3F38013 		ubfx	r3, r3, #6, #1
 8648 0018 2370     		strb	r3, [r4]
 8649 001a 02B0     		add	sp, sp, #8
 8650              		@ sp needed
 8651 001c 10BD     		pop	{r4, pc}
 8653              		.section	.text.ism330dhcx_batch_counter_threshold_set,"ax",%progbits
 8654              		.align	1
 8655              		.global	ism330dhcx_batch_counter_threshold_set
 8656              		.syntax unified
 8657              		.thumb
 8658              		.thumb_func
 8660              	ism330dhcx_batch_counter_threshold_set:
 8661              		@ args = 0, pretend = 0, frame = 8
 8662              		@ frame_needed = 0, uses_anonymous_args = 0
 8663 0000 30B5     		push	{r4, r5, lr}
 8664 0002 83B0     		sub	sp, sp, #12
 8665 0004 0446     		mov	r4, r0
 8666 0006 0D46     		mov	r5, r1
 8667 0008 0123     		movs	r3, #1
 8668 000a 01AA     		add	r2, sp, #4
 8669 000c 0B21     		movs	r1, #11
 8670 000e FFF7FEFF 		bl	ism330dhcx_read_reg
 8671 0012 08B1     		cbz	r0, .L1070
 8672              	.L1067:
 8673 0014 03B0     		add	sp, sp, #12
 8674              		@ sp needed
 8675 0016 30BD     		pop	{r4, r5, pc}
 8676              	.L1070:
 8677 0018 C5F30223 		ubfx	r3, r5, #8, #3
 8678 001c 8DF80430 		strb	r3, [sp, #4]
 8679 0020 0123     		movs	r3, #1
 8680 0022 01AA     		add	r2, sp, #4
 8681 0024 0B21     		movs	r1, #11
 8682 0026 2046     		mov	r0, r4
 8683 0028 FFF7FEFF 		bl	ism330dhcx_write_reg
 8684 002c 0028     		cmp	r0, #0
 8685 002e F1D1     		bne	.L1067
 8686 0030 8DF80050 		strb	r5, [sp]
 8687 0034 0123     		movs	r3, #1
 8688 0036 6A46     		mov	r2, sp
 8689 0038 0C21     		movs	r1, #12
 8690 003a 2046     		mov	r0, r4
 8691 003c FFF7FEFF 		bl	ism330dhcx_write_reg
 8692 0040 E8E7     		b	.L1067
 8694              		.section	.text.ism330dhcx_batch_counter_threshold_get,"ax",%progbits
 8695              		.align	1
 8696              		.global	ism330dhcx_batch_counter_threshold_get
 8697              		.syntax unified
 8698              		.thumb
 8699              		.thumb_func
 8701              	ism330dhcx_batch_counter_threshold_get:
 8702              		@ args = 0, pretend = 0, frame = 8
 8703              		@ frame_needed = 0, uses_anonymous_args = 0
 8704 0000 30B5     		push	{r4, r5, lr}
ARM GAS  C:\Temp\ccOH3Pt6.s 			page 146


 8705 0002 83B0     		sub	sp, sp, #12
 8706 0004 0546     		mov	r5, r0
 8707 0006 0C46     		mov	r4, r1
 8708 0008 0123     		movs	r3, #1
 8709 000a 01AA     		add	r2, sp, #4
 8710 000c 0B21     		movs	r1, #11
 8711 000e FFF7FEFF 		bl	ism330dhcx_read_reg
 8712 0012 58B1     		cbz	r0, .L1074
 8713              	.L1072:
 8714 0014 9DF80430 		ldrb	r3, [sp, #4]	@ zero_extendqisi2
 8715 0018 03F00703 		and	r3, r3, #7
 8716 001c 2380     		strh	r3, [r4]	@ movhi
 8717 001e 9DF80020 		ldrb	r2, [sp]	@ zero_extendqisi2
 8718 0022 02EB0323 		add	r3, r2, r3, lsl #8
 8719 0026 2380     		strh	r3, [r4]	@ movhi
 8720 0028 03B0     		add	sp, sp, #12
 8721              		@ sp needed
 8722 002a 30BD     		pop	{r4, r5, pc}
 8723              	.L1074:
 8724 002c 0123     		movs	r3, #1
 8725 002e 6A46     		mov	r2, sp
 8726 0030 0C21     		movs	r1, #12
 8727 0032 2846     		mov	r0, r5
 8728 0034 FFF7FEFF 		bl	ism330dhcx_read_reg
 8729 0038 ECE7     		b	.L1072
 8731              		.section	.text.ism330dhcx_fifo_data_level_get,"ax",%progbits
 8732              		.align	1
 8733              		.global	ism330dhcx_fifo_data_level_get
 8734              		.syntax unified
 8735              		.thumb
 8736              		.thumb_func
 8738              	ism330dhcx_fifo_data_level_get:
 8739              		@ args = 0, pretend = 0, frame = 8
 8740              		@ frame_needed = 0, uses_anonymous_args = 0
 8741 0000 30B5     		push	{r4, r5, lr}
 8742 0002 83B0     		sub	sp, sp, #12
 8743 0004 0446     		mov	r4, r0
 8744 0006 0D46     		mov	r5, r1
 8745 0008 0123     		movs	r3, #1
 8746 000a 01AA     		add	r2, sp, #4
 8747 000c 3A21     		movs	r1, #58
 8748 000e FFF7FEFF 		bl	ism330dhcx_read_reg
 8749 0012 08B1     		cbz	r0, .L1078
 8750              	.L1075:
 8751 0014 03B0     		add	sp, sp, #12
 8752              		@ sp needed
 8753 0016 30BD     		pop	{r4, r5, pc}
 8754              	.L1078:
 8755 0018 0123     		movs	r3, #1
 8756 001a 6A46     		mov	r2, sp
 8757 001c 3B21     		movs	r1, #59
 8758 001e 2046     		mov	r0, r4
 8759 0020 FFF7FEFF 		bl	ism330dhcx_read_reg
 8760 0024 9DF80030 		ldrb	r3, [sp]	@ zero_extendqisi2
 8761 0028 03F00303 		and	r3, r3, #3
 8762 002c 2B80     		strh	r3, [r5]	@ movhi
 8763 002e 9DF80420 		ldrb	r2, [sp, #4]	@ zero_extendqisi2
ARM GAS  C:\Temp\ccOH3Pt6.s 			page 147


 8764 0032 02EB0323 		add	r3, r2, r3, lsl #8
 8765 0036 2B80     		strh	r3, [r5]	@ movhi
 8766 0038 ECE7     		b	.L1075
 8768              		.section	.text.ism330dhcx_fifo_status_get,"ax",%progbits
 8769              		.align	1
 8770              		.global	ism330dhcx_fifo_status_get
 8771              		.syntax unified
 8772              		.thumb
 8773              		.thumb_func
 8775              	ism330dhcx_fifo_status_get:
 8776              		@ args = 0, pretend = 0, frame = 0
 8777              		@ frame_needed = 0, uses_anonymous_args = 0
 8778 0000 08B5     		push	{r3, lr}
 8779 0002 0A46     		mov	r2, r1
 8780 0004 0123     		movs	r3, #1
 8781 0006 3B21     		movs	r1, #59
 8782 0008 FFF7FEFF 		bl	ism330dhcx_read_reg
 8783 000c 08BD     		pop	{r3, pc}
 8785              		.section	.text.ism330dhcx_fifo_full_flag_get,"ax",%progbits
 8786              		.align	1
 8787              		.global	ism330dhcx_fifo_full_flag_get
 8788              		.syntax unified
 8789              		.thumb
 8790              		.thumb_func
 8792              	ism330dhcx_fifo_full_flag_get:
 8793              		@ args = 0, pretend = 0, frame = 8
 8794              		@ frame_needed = 0, uses_anonymous_args = 0
 8795 0000 10B5     		push	{r4, lr}
 8796 0002 82B0     		sub	sp, sp, #8
 8797 0004 0C46     		mov	r4, r1
 8798 0006 0123     		movs	r3, #1
 8799 0008 01AA     		add	r2, sp, #4
 8800 000a 3B21     		movs	r1, #59
 8801 000c FFF7FEFF 		bl	ism330dhcx_read_reg
 8802 0010 9DF80430 		ldrb	r3, [sp, #4]	@ zero_extendqisi2
 8803 0014 C3F34013 		ubfx	r3, r3, #5, #1
 8804 0018 2370     		strb	r3, [r4]
 8805 001a 02B0     		add	sp, sp, #8
 8806              		@ sp needed
 8807 001c 10BD     		pop	{r4, pc}
 8809              		.section	.text.ism330dhcx_fifo_ovr_flag_get,"ax",%progbits
 8810              		.align	1
 8811              		.global	ism330dhcx_fifo_ovr_flag_get
 8812              		.syntax unified
 8813              		.thumb
 8814              		.thumb_func
 8816              	ism330dhcx_fifo_ovr_flag_get:
 8817              		@ args = 0, pretend = 0, frame = 8
 8818              		@ frame_needed = 0, uses_anonymous_args = 0
 8819 0000 10B5     		push	{r4, lr}
 8820 0002 82B0     		sub	sp, sp, #8
 8821 0004 0C46     		mov	r4, r1
 8822 0006 0123     		movs	r3, #1
 8823 0008 01AA     		add	r2, sp, #4
 8824 000a 3B21     		movs	r1, #59
 8825 000c FFF7FEFF 		bl	ism330dhcx_read_reg
 8826 0010 9DF80430 		ldrb	r3, [sp, #4]	@ zero_extendqisi2
ARM GAS  C:\Temp\ccOH3Pt6.s 			page 148


 8827 0014 C3F38013 		ubfx	r3, r3, #6, #1
 8828 0018 2370     		strb	r3, [r4]
 8829 001a 02B0     		add	sp, sp, #8
 8830              		@ sp needed
 8831 001c 10BD     		pop	{r4, pc}
 8833              		.section	.text.ism330dhcx_fifo_wtm_flag_get,"ax",%progbits
 8834              		.align	1
 8835              		.global	ism330dhcx_fifo_wtm_flag_get
 8836              		.syntax unified
 8837              		.thumb
 8838              		.thumb_func
 8840              	ism330dhcx_fifo_wtm_flag_get:
 8841              		@ args = 0, pretend = 0, frame = 8
 8842              		@ frame_needed = 0, uses_anonymous_args = 0
 8843 0000 10B5     		push	{r4, lr}
 8844 0002 82B0     		sub	sp, sp, #8
 8845 0004 0C46     		mov	r4, r1
 8846 0006 0123     		movs	r3, #1
 8847 0008 01AA     		add	r2, sp, #4
 8848 000a 3B21     		movs	r1, #59
 8849 000c FFF7FEFF 		bl	ism330dhcx_read_reg
 8850 0010 9DF80430 		ldrb	r3, [sp, #4]	@ zero_extendqisi2
 8851 0014 C3F3C013 		ubfx	r3, r3, #7, #1
 8852 0018 2370     		strb	r3, [r4]
 8853 001a 02B0     		add	sp, sp, #8
 8854              		@ sp needed
 8855 001c 10BD     		pop	{r4, pc}
 8857              		.section	.text.ism330dhcx_fifo_sensor_tag_get,"ax",%progbits
 8858              		.align	1
 8859              		.global	ism330dhcx_fifo_sensor_tag_get
 8860              		.syntax unified
 8861              		.thumb
 8862              		.thumb_func
 8864              	ism330dhcx_fifo_sensor_tag_get:
 8865              		@ args = 0, pretend = 0, frame = 8
 8866              		@ frame_needed = 0, uses_anonymous_args = 0
 8867 0000 10B5     		push	{r4, lr}
 8868 0002 82B0     		sub	sp, sp, #8
 8869 0004 0C46     		mov	r4, r1
 8870 0006 0123     		movs	r3, #1
 8871 0008 01AA     		add	r2, sp, #4
 8872 000a 7821     		movs	r1, #120
 8873 000c FFF7FEFF 		bl	ism330dhcx_read_reg
 8874 0010 9DF80430 		ldrb	r3, [sp, #4]	@ zero_extendqisi2
 8875 0014 DB08     		lsrs	r3, r3, #3
 8876 0016 013B     		subs	r3, r3, #1
 8877 0018 182B     		cmp	r3, #24
 8878 001a 51D8     		bhi	.L1088
 8879 001c DFE803F0 		tbb	[pc, r3]
 8880              	.L1090:
 8881 0020 0D       		.byte	(.L1111-.L1090)/2
 8882 0021 11       		.byte	(.L1110-.L1090)/2
 8883 0022 14       		.byte	(.L1109-.L1090)/2
 8884 0023 17       		.byte	(.L1108-.L1090)/2
 8885 0024 1A       		.byte	(.L1107-.L1090)/2
 8886 0025 1D       		.byte	(.L1106-.L1090)/2
 8887 0026 20       		.byte	(.L1105-.L1090)/2
ARM GAS  C:\Temp\ccOH3Pt6.s 			page 149


 8888 0027 23       		.byte	(.L1104-.L1090)/2
 8889 0028 26       		.byte	(.L1103-.L1090)/2
 8890 0029 29       		.byte	(.L1102-.L1090)/2
 8891 002a 2C       		.byte	(.L1101-.L1090)/2
 8892 002b 2F       		.byte	(.L1100-.L1090)/2
 8893 002c 32       		.byte	(.L1099-.L1090)/2
 8894 002d 35       		.byte	(.L1098-.L1090)/2
 8895 002e 38       		.byte	(.L1097-.L1090)/2
 8896 002f 3B       		.byte	(.L1096-.L1090)/2
 8897 0030 3E       		.byte	(.L1095-.L1090)/2
 8898 0031 41       		.byte	(.L1094-.L1090)/2
 8899 0032 44       		.byte	(.L1093-.L1090)/2
 8900 0033 47       		.byte	(.L1092-.L1090)/2
 8901 0034 4A       		.byte	(.L1091-.L1090)/2
 8902 0035 50       		.byte	(.L1088-.L1090)/2
 8903 0036 50       		.byte	(.L1088-.L1090)/2
 8904 0037 50       		.byte	(.L1088-.L1090)/2
 8905 0038 4D       		.byte	(.L1089-.L1090)/2
 8906 0039 00       		.p2align 1
 8907              	.L1111:
 8908 003a 0123     		movs	r3, #1
 8909 003c 2370     		strb	r3, [r4]
 8910              	.L1087:
 8911 003e 02B0     		add	sp, sp, #8
 8912              		@ sp needed
 8913 0040 10BD     		pop	{r4, pc}
 8914              	.L1110:
 8915 0042 0223     		movs	r3, #2
 8916 0044 2370     		strb	r3, [r4]
 8917 0046 FAE7     		b	.L1087
 8918              	.L1109:
 8919 0048 0323     		movs	r3, #3
 8920 004a 2370     		strb	r3, [r4]
 8921 004c F7E7     		b	.L1087
 8922              	.L1108:
 8923 004e 0423     		movs	r3, #4
 8924 0050 2370     		strb	r3, [r4]
 8925 0052 F4E7     		b	.L1087
 8926              	.L1107:
 8927 0054 0523     		movs	r3, #5
 8928 0056 2370     		strb	r3, [r4]
 8929 0058 F1E7     		b	.L1087
 8930              	.L1106:
 8931 005a 0623     		movs	r3, #6
 8932 005c 2370     		strb	r3, [r4]
 8933 005e EEE7     		b	.L1087
 8934              	.L1105:
 8935 0060 0723     		movs	r3, #7
 8936 0062 2370     		strb	r3, [r4]
 8937 0064 EBE7     		b	.L1087
 8938              	.L1104:
 8939 0066 0823     		movs	r3, #8
 8940 0068 2370     		strb	r3, [r4]
 8941 006a E8E7     		b	.L1087
 8942              	.L1103:
 8943 006c 0923     		movs	r3, #9
 8944 006e 2370     		strb	r3, [r4]
ARM GAS  C:\Temp\ccOH3Pt6.s 			page 150


 8945 0070 E5E7     		b	.L1087
 8946              	.L1102:
 8947 0072 0A23     		movs	r3, #10
 8948 0074 2370     		strb	r3, [r4]
 8949 0076 E2E7     		b	.L1087
 8950              	.L1101:
 8951 0078 0B23     		movs	r3, #11
 8952 007a 2370     		strb	r3, [r4]
 8953 007c DFE7     		b	.L1087
 8954              	.L1100:
 8955 007e 0C23     		movs	r3, #12
 8956 0080 2370     		strb	r3, [r4]
 8957 0082 DCE7     		b	.L1087
 8958              	.L1099:
 8959 0084 0D23     		movs	r3, #13
 8960 0086 2370     		strb	r3, [r4]
 8961 0088 D9E7     		b	.L1087
 8962              	.L1098:
 8963 008a 0E23     		movs	r3, #14
 8964 008c 2370     		strb	r3, [r4]
 8965 008e D6E7     		b	.L1087
 8966              	.L1097:
 8967 0090 0F23     		movs	r3, #15
 8968 0092 2370     		strb	r3, [r4]
 8969 0094 D3E7     		b	.L1087
 8970              	.L1096:
 8971 0096 1023     		movs	r3, #16
 8972 0098 2370     		strb	r3, [r4]
 8973 009a D0E7     		b	.L1087
 8974              	.L1095:
 8975 009c 1123     		movs	r3, #17
 8976 009e 2370     		strb	r3, [r4]
 8977 00a0 CDE7     		b	.L1087
 8978              	.L1094:
 8979 00a2 1223     		movs	r3, #18
 8980 00a4 2370     		strb	r3, [r4]
 8981 00a6 CAE7     		b	.L1087
 8982              	.L1093:
 8983 00a8 1323     		movs	r3, #19
 8984 00aa 2370     		strb	r3, [r4]
 8985 00ac C7E7     		b	.L1087
 8986              	.L1092:
 8987 00ae 1423     		movs	r3, #20
 8988 00b0 2370     		strb	r3, [r4]
 8989 00b2 C4E7     		b	.L1087
 8990              	.L1091:
 8991 00b4 1523     		movs	r3, #21
 8992 00b6 2370     		strb	r3, [r4]
 8993 00b8 C1E7     		b	.L1087
 8994              	.L1089:
 8995 00ba 1923     		movs	r3, #25
 8996 00bc 2370     		strb	r3, [r4]
 8997 00be BEE7     		b	.L1087
 8998              	.L1088:
 8999 00c0 1923     		movs	r3, #25
 9000 00c2 2370     		strb	r3, [r4]
 9001 00c4 BBE7     		b	.L1087
ARM GAS  C:\Temp\ccOH3Pt6.s 			page 151


 9003              		.section	.text.ism330dhcx_fifo_pedo_batch_set,"ax",%progbits
 9004              		.align	1
 9005              		.global	ism330dhcx_fifo_pedo_batch_set
 9006              		.syntax unified
 9007              		.thumb
 9008              		.thumb_func
 9010              	ism330dhcx_fifo_pedo_batch_set:
 9011              		@ args = 0, pretend = 0, frame = 8
 9012              		@ frame_needed = 0, uses_anonymous_args = 0
 9013 0000 30B5     		push	{r4, r5, lr}
 9014 0002 83B0     		sub	sp, sp, #12
 9015 0004 0446     		mov	r4, r0
 9016 0006 0D46     		mov	r5, r1
 9017 0008 0221     		movs	r1, #2
 9018 000a FFF7FEFF 		bl	ism330dhcx_mem_bank_set
 9019 000e 0346     		mov	r3, r0
 9020 0010 18B1     		cbz	r0, .L1118
 9021              	.L1115:
 9022 0012 CBB1     		cbz	r3, .L1119
 9023              	.L1114:
 9024 0014 1846     		mov	r0, r3
 9025 0016 03B0     		add	sp, sp, #12
 9026              		@ sp needed
 9027 0018 30BD     		pop	{r4, r5, pc}
 9028              	.L1118:
 9029 001a 0123     		movs	r3, #1
 9030 001c 01AA     		add	r2, sp, #4
 9031 001e 4421     		movs	r1, #68
 9032 0020 2046     		mov	r0, r4
 9033 0022 FFF7FEFF 		bl	ism330dhcx_read_reg
 9034 0026 0346     		mov	r3, r0
 9035 0028 0028     		cmp	r0, #0
 9036 002a F3D1     		bne	.L1114
 9037 002c 9DF80430 		ldrb	r3, [sp, #4]	@ zero_extendqisi2
 9038 0030 65F38613 		bfi	r3, r5, #6, #1
 9039 0034 8DF80430 		strb	r3, [sp, #4]
 9040 0038 0123     		movs	r3, #1
 9041 003a 01AA     		add	r2, sp, #4
 9042 003c 4421     		movs	r1, #68
 9043 003e 2046     		mov	r0, r4
 9044 0040 FFF7FEFF 		bl	ism330dhcx_write_reg
 9045 0044 0346     		mov	r3, r0
 9046 0046 E4E7     		b	.L1115
 9047              	.L1119:
 9048 0048 0021     		movs	r1, #0
 9049 004a 2046     		mov	r0, r4
 9050 004c FFF7FEFF 		bl	ism330dhcx_mem_bank_set
 9051 0050 0346     		mov	r3, r0
 9052 0052 DFE7     		b	.L1114
 9054              		.section	.text.ism330dhcx_fifo_pedo_batch_get,"ax",%progbits
 9055              		.align	1
 9056              		.global	ism330dhcx_fifo_pedo_batch_get
 9057              		.syntax unified
 9058              		.thumb
 9059              		.thumb_func
 9061              	ism330dhcx_fifo_pedo_batch_get:
 9062              		@ args = 0, pretend = 0, frame = 8
ARM GAS  C:\Temp\ccOH3Pt6.s 			page 152


 9063              		@ frame_needed = 0, uses_anonymous_args = 0
 9064 0000 30B5     		push	{r4, r5, lr}
 9065 0002 83B0     		sub	sp, sp, #12
 9066 0004 0446     		mov	r4, r0
 9067 0006 0D46     		mov	r5, r1
 9068 0008 0221     		movs	r1, #2
 9069 000a FFF7FEFF 		bl	ism330dhcx_mem_bank_set
 9070 000e 08B1     		cbz	r0, .L1123
 9071              	.L1120:
 9072 0010 03B0     		add	sp, sp, #12
 9073              		@ sp needed
 9074 0012 30BD     		pop	{r4, r5, pc}
 9075              	.L1123:
 9076 0014 0123     		movs	r3, #1
 9077 0016 01AA     		add	r2, sp, #4
 9078 0018 4421     		movs	r1, #68
 9079 001a 2046     		mov	r0, r4
 9080 001c FFF7FEFF 		bl	ism330dhcx_read_reg
 9081 0020 9DF80430 		ldrb	r3, [sp, #4]	@ zero_extendqisi2
 9082 0024 C3F38013 		ubfx	r3, r3, #6, #1
 9083 0028 2B70     		strb	r3, [r5]
 9084 002a 0028     		cmp	r0, #0
 9085 002c F0D1     		bne	.L1120
 9086 002e 0021     		movs	r1, #0
 9087 0030 2046     		mov	r0, r4
 9088 0032 FFF7FEFF 		bl	ism330dhcx_mem_bank_set
 9089 0036 EBE7     		b	.L1120
 9091              		.section	.text.ism330dhcx_sh_batch_slave_0_set,"ax",%progbits
 9092              		.align	1
 9093              		.global	ism330dhcx_sh_batch_slave_0_set
 9094              		.syntax unified
 9095              		.thumb
 9096              		.thumb_func
 9098              	ism330dhcx_sh_batch_slave_0_set:
 9099              		@ args = 0, pretend = 0, frame = 8
 9100              		@ frame_needed = 0, uses_anonymous_args = 0
 9101 0000 30B5     		push	{r4, r5, lr}
 9102 0002 83B0     		sub	sp, sp, #12
 9103 0004 0446     		mov	r4, r0
 9104 0006 0D46     		mov	r5, r1
 9105 0008 0121     		movs	r1, #1
 9106 000a FFF7FEFF 		bl	ism330dhcx_mem_bank_set
 9107 000e 0346     		mov	r3, r0
 9108 0010 18B1     		cbz	r0, .L1128
 9109              	.L1125:
 9110 0012 CBB1     		cbz	r3, .L1129
 9111              	.L1124:
 9112 0014 1846     		mov	r0, r3
 9113 0016 03B0     		add	sp, sp, #12
 9114              		@ sp needed
 9115 0018 30BD     		pop	{r4, r5, pc}
 9116              	.L1128:
 9117 001a 0123     		movs	r3, #1
 9118 001c 01AA     		add	r2, sp, #4
 9119 001e 1721     		movs	r1, #23
 9120 0020 2046     		mov	r0, r4
 9121 0022 FFF7FEFF 		bl	ism330dhcx_read_reg
ARM GAS  C:\Temp\ccOH3Pt6.s 			page 153


 9122 0026 0346     		mov	r3, r0
 9123 0028 0028     		cmp	r0, #0
 9124 002a F3D1     		bne	.L1124
 9125 002c 9DF80430 		ldrb	r3, [sp, #4]	@ zero_extendqisi2
 9126 0030 65F3C303 		bfi	r3, r5, #3, #1
 9127 0034 8DF80430 		strb	r3, [sp, #4]
 9128 0038 0123     		movs	r3, #1
 9129 003a 01AA     		add	r2, sp, #4
 9130 003c 1721     		movs	r1, #23
 9131 003e 2046     		mov	r0, r4
 9132 0040 FFF7FEFF 		bl	ism330dhcx_write_reg
 9133 0044 0346     		mov	r3, r0
 9134 0046 E4E7     		b	.L1125
 9135              	.L1129:
 9136 0048 0021     		movs	r1, #0
 9137 004a 2046     		mov	r0, r4
 9138 004c FFF7FEFF 		bl	ism330dhcx_mem_bank_set
 9139 0050 0346     		mov	r3, r0
 9140 0052 DFE7     		b	.L1124
 9142              		.section	.text.ism330dhcx_sh_batch_slave_0_get,"ax",%progbits
 9143              		.align	1
 9144              		.global	ism330dhcx_sh_batch_slave_0_get
 9145              		.syntax unified
 9146              		.thumb
 9147              		.thumb_func
 9149              	ism330dhcx_sh_batch_slave_0_get:
 9150              		@ args = 0, pretend = 0, frame = 8
 9151              		@ frame_needed = 0, uses_anonymous_args = 0
 9152 0000 30B5     		push	{r4, r5, lr}
 9153 0002 83B0     		sub	sp, sp, #12
 9154 0004 0446     		mov	r4, r0
 9155 0006 0D46     		mov	r5, r1
 9156 0008 0121     		movs	r1, #1
 9157 000a FFF7FEFF 		bl	ism330dhcx_mem_bank_set
 9158 000e 08B1     		cbz	r0, .L1133
 9159              	.L1130:
 9160 0010 03B0     		add	sp, sp, #12
 9161              		@ sp needed
 9162 0012 30BD     		pop	{r4, r5, pc}
 9163              	.L1133:
 9164 0014 0123     		movs	r3, #1
 9165 0016 01AA     		add	r2, sp, #4
 9166 0018 1721     		movs	r1, #23
 9167 001a 2046     		mov	r0, r4
 9168 001c FFF7FEFF 		bl	ism330dhcx_read_reg
 9169 0020 0028     		cmp	r0, #0
 9170 0022 F5D1     		bne	.L1130
 9171 0024 9DF80430 		ldrb	r3, [sp, #4]	@ zero_extendqisi2
 9172 0028 C3F3C003 		ubfx	r3, r3, #3, #1
 9173 002c 2B70     		strb	r3, [r5]
 9174 002e 0021     		movs	r1, #0
 9175 0030 2046     		mov	r0, r4
 9176 0032 FFF7FEFF 		bl	ism330dhcx_mem_bank_set
 9177 0036 EBE7     		b	.L1130
 9179              		.section	.text.ism330dhcx_sh_batch_slave_1_set,"ax",%progbits
 9180              		.align	1
 9181              		.global	ism330dhcx_sh_batch_slave_1_set
ARM GAS  C:\Temp\ccOH3Pt6.s 			page 154


 9182              		.syntax unified
 9183              		.thumb
 9184              		.thumb_func
 9186              	ism330dhcx_sh_batch_slave_1_set:
 9187              		@ args = 0, pretend = 0, frame = 8
 9188              		@ frame_needed = 0, uses_anonymous_args = 0
 9189 0000 30B5     		push	{r4, r5, lr}
 9190 0002 83B0     		sub	sp, sp, #12
 9191 0004 0446     		mov	r4, r0
 9192 0006 0D46     		mov	r5, r1
 9193 0008 0121     		movs	r1, #1
 9194 000a FFF7FEFF 		bl	ism330dhcx_mem_bank_set
 9195 000e 0346     		mov	r3, r0
 9196 0010 18B1     		cbz	r0, .L1138
 9197              	.L1135:
 9198 0012 CBB1     		cbz	r3, .L1139
 9199              	.L1134:
 9200 0014 1846     		mov	r0, r3
 9201 0016 03B0     		add	sp, sp, #12
 9202              		@ sp needed
 9203 0018 30BD     		pop	{r4, r5, pc}
 9204              	.L1138:
 9205 001a 0123     		movs	r3, #1
 9206 001c 01AA     		add	r2, sp, #4
 9207 001e 1A21     		movs	r1, #26
 9208 0020 2046     		mov	r0, r4
 9209 0022 FFF7FEFF 		bl	ism330dhcx_read_reg
 9210 0026 0346     		mov	r3, r0
 9211 0028 0028     		cmp	r0, #0
 9212 002a F3D1     		bne	.L1134
 9213 002c 9DF80430 		ldrb	r3, [sp, #4]	@ zero_extendqisi2
 9214 0030 65F3C303 		bfi	r3, r5, #3, #1
 9215 0034 8DF80430 		strb	r3, [sp, #4]
 9216 0038 0123     		movs	r3, #1
 9217 003a 01AA     		add	r2, sp, #4
 9218 003c 1A21     		movs	r1, #26
 9219 003e 2046     		mov	r0, r4
 9220 0040 FFF7FEFF 		bl	ism330dhcx_write_reg
 9221 0044 0346     		mov	r3, r0
 9222 0046 E4E7     		b	.L1135
 9223              	.L1139:
 9224 0048 0021     		movs	r1, #0
 9225 004a 2046     		mov	r0, r4
 9226 004c FFF7FEFF 		bl	ism330dhcx_mem_bank_set
 9227 0050 0346     		mov	r3, r0
 9228 0052 DFE7     		b	.L1134
 9230              		.section	.text.ism330dhcx_sh_batch_slave_1_get,"ax",%progbits
 9231              		.align	1
 9232              		.global	ism330dhcx_sh_batch_slave_1_get
 9233              		.syntax unified
 9234              		.thumb
 9235              		.thumb_func
 9237              	ism330dhcx_sh_batch_slave_1_get:
 9238              		@ args = 0, pretend = 0, frame = 8
 9239              		@ frame_needed = 0, uses_anonymous_args = 0
 9240 0000 30B5     		push	{r4, r5, lr}
 9241 0002 83B0     		sub	sp, sp, #12
ARM GAS  C:\Temp\ccOH3Pt6.s 			page 155


 9242 0004 0446     		mov	r4, r0
 9243 0006 0D46     		mov	r5, r1
 9244 0008 0121     		movs	r1, #1
 9245 000a FFF7FEFF 		bl	ism330dhcx_mem_bank_set
 9246 000e 08B1     		cbz	r0, .L1143
 9247              	.L1140:
 9248 0010 03B0     		add	sp, sp, #12
 9249              		@ sp needed
 9250 0012 30BD     		pop	{r4, r5, pc}
 9251              	.L1143:
 9252 0014 0123     		movs	r3, #1
 9253 0016 01AA     		add	r2, sp, #4
 9254 0018 1A21     		movs	r1, #26
 9255 001a 2046     		mov	r0, r4
 9256 001c FFF7FEFF 		bl	ism330dhcx_read_reg
 9257 0020 9DF80430 		ldrb	r3, [sp, #4]	@ zero_extendqisi2
 9258 0024 C3F3C003 		ubfx	r3, r3, #3, #1
 9259 0028 2B70     		strb	r3, [r5]
 9260 002a 0028     		cmp	r0, #0
 9261 002c F0D1     		bne	.L1140
 9262 002e 0021     		movs	r1, #0
 9263 0030 2046     		mov	r0, r4
 9264 0032 FFF7FEFF 		bl	ism330dhcx_mem_bank_set
 9265 0036 EBE7     		b	.L1140
 9267              		.section	.text.ism330dhcx_sh_batch_slave_2_set,"ax",%progbits
 9268              		.align	1
 9269              		.global	ism330dhcx_sh_batch_slave_2_set
 9270              		.syntax unified
 9271              		.thumb
 9272              		.thumb_func
 9274              	ism330dhcx_sh_batch_slave_2_set:
 9275              		@ args = 0, pretend = 0, frame = 8
 9276              		@ frame_needed = 0, uses_anonymous_args = 0
 9277 0000 30B5     		push	{r4, r5, lr}
 9278 0002 83B0     		sub	sp, sp, #12
 9279 0004 0446     		mov	r4, r0
 9280 0006 0D46     		mov	r5, r1
 9281 0008 0121     		movs	r1, #1
 9282 000a FFF7FEFF 		bl	ism330dhcx_mem_bank_set
 9283 000e 0346     		mov	r3, r0
 9284 0010 18B1     		cbz	r0, .L1148
 9285              	.L1145:
 9286 0012 CBB1     		cbz	r3, .L1149
 9287              	.L1144:
 9288 0014 1846     		mov	r0, r3
 9289 0016 03B0     		add	sp, sp, #12
 9290              		@ sp needed
 9291 0018 30BD     		pop	{r4, r5, pc}
 9292              	.L1148:
 9293 001a 0123     		movs	r3, #1
 9294 001c 01AA     		add	r2, sp, #4
 9295 001e 1D21     		movs	r1, #29
 9296 0020 2046     		mov	r0, r4
 9297 0022 FFF7FEFF 		bl	ism330dhcx_read_reg
 9298 0026 0346     		mov	r3, r0
 9299 0028 0028     		cmp	r0, #0
 9300 002a F3D1     		bne	.L1144
ARM GAS  C:\Temp\ccOH3Pt6.s 			page 156


 9301 002c 9DF80430 		ldrb	r3, [sp, #4]	@ zero_extendqisi2
 9302 0030 65F3C303 		bfi	r3, r5, #3, #1
 9303 0034 8DF80430 		strb	r3, [sp, #4]
 9304 0038 0123     		movs	r3, #1
 9305 003a 01AA     		add	r2, sp, #4
 9306 003c 1D21     		movs	r1, #29
 9307 003e 2046     		mov	r0, r4
 9308 0040 FFF7FEFF 		bl	ism330dhcx_write_reg
 9309 0044 0346     		mov	r3, r0
 9310 0046 E4E7     		b	.L1145
 9311              	.L1149:
 9312 0048 0021     		movs	r1, #0
 9313 004a 2046     		mov	r0, r4
 9314 004c FFF7FEFF 		bl	ism330dhcx_mem_bank_set
 9315 0050 0346     		mov	r3, r0
 9316 0052 DFE7     		b	.L1144
 9318              		.section	.text.ism330dhcx_sh_batch_slave_2_get,"ax",%progbits
 9319              		.align	1
 9320              		.global	ism330dhcx_sh_batch_slave_2_get
 9321              		.syntax unified
 9322              		.thumb
 9323              		.thumb_func
 9325              	ism330dhcx_sh_batch_slave_2_get:
 9326              		@ args = 0, pretend = 0, frame = 8
 9327              		@ frame_needed = 0, uses_anonymous_args = 0
 9328 0000 30B5     		push	{r4, r5, lr}
 9329 0002 83B0     		sub	sp, sp, #12
 9330 0004 0446     		mov	r4, r0
 9331 0006 0D46     		mov	r5, r1
 9332 0008 0121     		movs	r1, #1
 9333 000a FFF7FEFF 		bl	ism330dhcx_mem_bank_set
 9334 000e 08B1     		cbz	r0, .L1153
 9335              	.L1150:
 9336 0010 03B0     		add	sp, sp, #12
 9337              		@ sp needed
 9338 0012 30BD     		pop	{r4, r5, pc}
 9339              	.L1153:
 9340 0014 0123     		movs	r3, #1
 9341 0016 01AA     		add	r2, sp, #4
 9342 0018 1D21     		movs	r1, #29
 9343 001a 2046     		mov	r0, r4
 9344 001c FFF7FEFF 		bl	ism330dhcx_read_reg
 9345 0020 0028     		cmp	r0, #0
 9346 0022 F5D1     		bne	.L1150
 9347 0024 9DF80430 		ldrb	r3, [sp, #4]	@ zero_extendqisi2
 9348 0028 C3F3C003 		ubfx	r3, r3, #3, #1
 9349 002c 2B70     		strb	r3, [r5]
 9350 002e 0021     		movs	r1, #0
 9351 0030 2046     		mov	r0, r4
 9352 0032 FFF7FEFF 		bl	ism330dhcx_mem_bank_set
 9353 0036 EBE7     		b	.L1150
 9355              		.section	.text.ism330dhcx_sh_batch_slave_3_set,"ax",%progbits
 9356              		.align	1
 9357              		.global	ism330dhcx_sh_batch_slave_3_set
 9358              		.syntax unified
 9359              		.thumb
 9360              		.thumb_func
ARM GAS  C:\Temp\ccOH3Pt6.s 			page 157


 9362              	ism330dhcx_sh_batch_slave_3_set:
 9363              		@ args = 0, pretend = 0, frame = 8
 9364              		@ frame_needed = 0, uses_anonymous_args = 0
 9365 0000 30B5     		push	{r4, r5, lr}
 9366 0002 83B0     		sub	sp, sp, #12
 9367 0004 0446     		mov	r4, r0
 9368 0006 0D46     		mov	r5, r1
 9369 0008 0121     		movs	r1, #1
 9370 000a FFF7FEFF 		bl	ism330dhcx_mem_bank_set
 9371 000e 0346     		mov	r3, r0
 9372 0010 18B1     		cbz	r0, .L1158
 9373              	.L1155:
 9374 0012 CBB1     		cbz	r3, .L1159
 9375              	.L1154:
 9376 0014 1846     		mov	r0, r3
 9377 0016 03B0     		add	sp, sp, #12
 9378              		@ sp needed
 9379 0018 30BD     		pop	{r4, r5, pc}
 9380              	.L1158:
 9381 001a 0123     		movs	r3, #1
 9382 001c 01AA     		add	r2, sp, #4
 9383 001e 2021     		movs	r1, #32
 9384 0020 2046     		mov	r0, r4
 9385 0022 FFF7FEFF 		bl	ism330dhcx_read_reg
 9386 0026 0346     		mov	r3, r0
 9387 0028 0028     		cmp	r0, #0
 9388 002a F3D1     		bne	.L1154
 9389 002c 9DF80430 		ldrb	r3, [sp, #4]	@ zero_extendqisi2
 9390 0030 65F3C303 		bfi	r3, r5, #3, #1
 9391 0034 8DF80430 		strb	r3, [sp, #4]
 9392 0038 0123     		movs	r3, #1
 9393 003a 01AA     		add	r2, sp, #4
 9394 003c 2021     		movs	r1, #32
 9395 003e 2046     		mov	r0, r4
 9396 0040 FFF7FEFF 		bl	ism330dhcx_write_reg
 9397 0044 0346     		mov	r3, r0
 9398 0046 E4E7     		b	.L1155
 9399              	.L1159:
 9400 0048 0021     		movs	r1, #0
 9401 004a 2046     		mov	r0, r4
 9402 004c FFF7FEFF 		bl	ism330dhcx_mem_bank_set
 9403 0050 0346     		mov	r3, r0
 9404 0052 DFE7     		b	.L1154
 9406              		.section	.text.ism330dhcx_sh_batch_slave_3_get,"ax",%progbits
 9407              		.align	1
 9408              		.global	ism330dhcx_sh_batch_slave_3_get
 9409              		.syntax unified
 9410              		.thumb
 9411              		.thumb_func
 9413              	ism330dhcx_sh_batch_slave_3_get:
 9414              		@ args = 0, pretend = 0, frame = 8
 9415              		@ frame_needed = 0, uses_anonymous_args = 0
 9416 0000 30B5     		push	{r4, r5, lr}
 9417 0002 83B0     		sub	sp, sp, #12
 9418 0004 0446     		mov	r4, r0
 9419 0006 0D46     		mov	r5, r1
 9420 0008 0121     		movs	r1, #1
ARM GAS  C:\Temp\ccOH3Pt6.s 			page 158


 9421 000a FFF7FEFF 		bl	ism330dhcx_mem_bank_set
 9422 000e 08B1     		cbz	r0, .L1163
 9423              	.L1160:
 9424 0010 03B0     		add	sp, sp, #12
 9425              		@ sp needed
 9426 0012 30BD     		pop	{r4, r5, pc}
 9427              	.L1163:
 9428 0014 0123     		movs	r3, #1
 9429 0016 01AA     		add	r2, sp, #4
 9430 0018 2021     		movs	r1, #32
 9431 001a 2046     		mov	r0, r4
 9432 001c FFF7FEFF 		bl	ism330dhcx_read_reg
 9433 0020 9DF80430 		ldrb	r3, [sp, #4]	@ zero_extendqisi2
 9434 0024 C3F3C003 		ubfx	r3, r3, #3, #1
 9435 0028 2B70     		strb	r3, [r5]
 9436 002a 0028     		cmp	r0, #0
 9437 002c F0D1     		bne	.L1160
 9438 002e 0021     		movs	r1, #0
 9439 0030 2046     		mov	r0, r4
 9440 0032 FFF7FEFF 		bl	ism330dhcx_mem_bank_set
 9441 0036 EBE7     		b	.L1160
 9443              		.section	.text.ism330dhcx_den_mode_set,"ax",%progbits
 9444              		.align	1
 9445              		.global	ism330dhcx_den_mode_set
 9446              		.syntax unified
 9447              		.thumb
 9448              		.thumb_func
 9450              	ism330dhcx_den_mode_set:
 9451              		@ args = 0, pretend = 0, frame = 8
 9452              		@ frame_needed = 0, uses_anonymous_args = 0
 9453 0000 30B5     		push	{r4, r5, lr}
 9454 0002 83B0     		sub	sp, sp, #12
 9455 0004 0446     		mov	r4, r0
 9456 0006 0D46     		mov	r5, r1
 9457 0008 0123     		movs	r3, #1
 9458 000a 01AA     		add	r2, sp, #4
 9459 000c 1521     		movs	r1, #21
 9460 000e FFF7FEFF 		bl	ism330dhcx_read_reg
 9461 0012 08B1     		cbz	r0, .L1167
 9462              	.L1164:
 9463 0014 03B0     		add	sp, sp, #12
 9464              		@ sp needed
 9465 0016 30BD     		pop	{r4, r5, pc}
 9466              	.L1167:
 9467 0018 9DF80430 		ldrb	r3, [sp, #4]	@ zero_extendqisi2
 9468 001c 65F34713 		bfi	r3, r5, #5, #3
 9469 0020 8DF80430 		strb	r3, [sp, #4]
 9470 0024 0123     		movs	r3, #1
 9471 0026 01AA     		add	r2, sp, #4
 9472 0028 1521     		movs	r1, #21
 9473 002a 2046     		mov	r0, r4
 9474 002c FFF7FEFF 		bl	ism330dhcx_write_reg
 9475 0030 F0E7     		b	.L1164
 9477              		.section	.text.ism330dhcx_den_mode_get,"ax",%progbits
 9478              		.align	1
 9479              		.global	ism330dhcx_den_mode_get
 9480              		.syntax unified
ARM GAS  C:\Temp\ccOH3Pt6.s 			page 159


 9481              		.thumb
 9482              		.thumb_func
 9484              	ism330dhcx_den_mode_get:
 9485              		@ args = 0, pretend = 0, frame = 8
 9486              		@ frame_needed = 0, uses_anonymous_args = 0
 9487 0000 10B5     		push	{r4, lr}
 9488 0002 82B0     		sub	sp, sp, #8
 9489 0004 0C46     		mov	r4, r1
 9490 0006 0123     		movs	r3, #1
 9491 0008 01AA     		add	r2, sp, #4
 9492 000a 1521     		movs	r1, #21
 9493 000c FFF7FEFF 		bl	ism330dhcx_read_reg
 9494 0010 9DF80430 		ldrb	r3, [sp, #4]	@ zero_extendqisi2
 9495 0014 5B09     		lsrs	r3, r3, #5
 9496 0016 062B     		cmp	r3, #6
 9497 0018 15D8     		bhi	.L1169
 9498 001a DFE803F0 		tbb	[pc, r3]
 9499              	.L1171:
 9500 001e 04       		.byte	(.L1175-.L1171)/2
 9501 001f 14       		.byte	(.L1169-.L1171)/2
 9502 0020 0E       		.byte	(.L1174-.L1171)/2
 9503 0021 0B       		.byte	(.L1173-.L1171)/2
 9504 0022 11       		.byte	(.L1172-.L1171)/2
 9505 0023 14       		.byte	(.L1169-.L1171)/2
 9506 0024 08       		.byte	(.L1170-.L1171)/2
 9507 0025 00       		.p2align 1
 9508              	.L1175:
 9509 0026 0023     		movs	r3, #0
 9510 0028 2370     		strb	r3, [r4]
 9511              	.L1168:
 9512 002a 02B0     		add	sp, sp, #8
 9513              		@ sp needed
 9514 002c 10BD     		pop	{r4, pc}
 9515              	.L1170:
 9516 002e 0623     		movs	r3, #6
 9517 0030 2370     		strb	r3, [r4]
 9518 0032 FAE7     		b	.L1168
 9519              	.L1173:
 9520 0034 0323     		movs	r3, #3
 9521 0036 2370     		strb	r3, [r4]
 9522 0038 F7E7     		b	.L1168
 9523              	.L1174:
 9524 003a 0223     		movs	r3, #2
 9525 003c 2370     		strb	r3, [r4]
 9526 003e F4E7     		b	.L1168
 9527              	.L1172:
 9528 0040 0423     		movs	r3, #4
 9529 0042 2370     		strb	r3, [r4]
 9530 0044 F1E7     		b	.L1168
 9531              	.L1169:
 9532 0046 0023     		movs	r3, #0
 9533 0048 2370     		strb	r3, [r4]
 9534 004a EEE7     		b	.L1168
 9536              		.section	.text.ism330dhcx_den_polarity_set,"ax",%progbits
 9537              		.align	1
 9538              		.global	ism330dhcx_den_polarity_set
 9539              		.syntax unified
ARM GAS  C:\Temp\ccOH3Pt6.s 			page 160


 9540              		.thumb
 9541              		.thumb_func
 9543              	ism330dhcx_den_polarity_set:
 9544              		@ args = 0, pretend = 0, frame = 8
 9545              		@ frame_needed = 0, uses_anonymous_args = 0
 9546 0000 30B5     		push	{r4, r5, lr}
 9547 0002 83B0     		sub	sp, sp, #12
 9548 0004 0446     		mov	r4, r0
 9549 0006 0D46     		mov	r5, r1
 9550 0008 0123     		movs	r3, #1
 9551 000a 01AA     		add	r2, sp, #4
 9552 000c 1821     		movs	r1, #24
 9553 000e FFF7FEFF 		bl	ism330dhcx_read_reg
 9554 0012 08B1     		cbz	r0, .L1181
 9555              	.L1178:
 9556 0014 03B0     		add	sp, sp, #12
 9557              		@ sp needed
 9558 0016 30BD     		pop	{r4, r5, pc}
 9559              	.L1181:
 9560 0018 9DF80430 		ldrb	r3, [sp, #4]	@ zero_extendqisi2
 9561 001c 65F38203 		bfi	r3, r5, #2, #1
 9562 0020 8DF80430 		strb	r3, [sp, #4]
 9563 0024 0123     		movs	r3, #1
 9564 0026 01AA     		add	r2, sp, #4
 9565 0028 1821     		movs	r1, #24
 9566 002a 2046     		mov	r0, r4
 9567 002c FFF7FEFF 		bl	ism330dhcx_write_reg
 9568 0030 F0E7     		b	.L1178
 9570              		.section	.text.ism330dhcx_den_polarity_get,"ax",%progbits
 9571              		.align	1
 9572              		.global	ism330dhcx_den_polarity_get
 9573              		.syntax unified
 9574              		.thumb
 9575              		.thumb_func
 9577              	ism330dhcx_den_polarity_get:
 9578              		@ args = 0, pretend = 0, frame = 8
 9579              		@ frame_needed = 0, uses_anonymous_args = 0
 9580 0000 10B5     		push	{r4, lr}
 9581 0002 82B0     		sub	sp, sp, #8
 9582 0004 0C46     		mov	r4, r1
 9583 0006 0123     		movs	r3, #1
 9584 0008 01AA     		add	r2, sp, #4
 9585 000a 1821     		movs	r1, #24
 9586 000c FFF7FEFF 		bl	ism330dhcx_read_reg
 9587 0010 9DF80430 		ldrb	r3, [sp, #4]	@ zero_extendqisi2
 9588 0014 C3F38002 		ubfx	r2, r3, #2, #1
 9589 0018 13F0040F 		tst	r3, #4
 9590 001c 03D0     		beq	.L1183
 9591 001e 32B9     		cbnz	r2, .L1184
 9592 0020 0023     		movs	r3, #0
 9593 0022 2370     		strb	r3, [r4]
 9594 0024 01E0     		b	.L1182
 9595              	.L1183:
 9596 0026 0023     		movs	r3, #0
 9597 0028 2370     		strb	r3, [r4]
 9598              	.L1182:
 9599 002a 02B0     		add	sp, sp, #8
ARM GAS  C:\Temp\ccOH3Pt6.s 			page 161


 9600              		@ sp needed
 9601 002c 10BD     		pop	{r4, pc}
 9602              	.L1184:
 9603 002e 0123     		movs	r3, #1
 9604 0030 2370     		strb	r3, [r4]
 9605 0032 FAE7     		b	.L1182
 9607              		.section	.text.ism330dhcx_den_enable_set,"ax",%progbits
 9608              		.align	1
 9609              		.global	ism330dhcx_den_enable_set
 9610              		.syntax unified
 9611              		.thumb
 9612              		.thumb_func
 9614              	ism330dhcx_den_enable_set:
 9615              		@ args = 0, pretend = 0, frame = 8
 9616              		@ frame_needed = 0, uses_anonymous_args = 0
 9617 0000 30B5     		push	{r4, r5, lr}
 9618 0002 83B0     		sub	sp, sp, #12
 9619 0004 0446     		mov	r4, r0
 9620 0006 0D46     		mov	r5, r1
 9621 0008 0123     		movs	r3, #1
 9622 000a 01AA     		add	r2, sp, #4
 9623 000c 1821     		movs	r1, #24
 9624 000e FFF7FEFF 		bl	ism330dhcx_read_reg
 9625 0012 08B1     		cbz	r0, .L1192
 9626              	.L1189:
 9627 0014 03B0     		add	sp, sp, #12
 9628              		@ sp needed
 9629 0016 30BD     		pop	{r4, r5, pc}
 9630              	.L1192:
 9631 0018 9DF80430 		ldrb	r3, [sp, #4]	@ zero_extendqisi2
 9632 001c 65F3C403 		bfi	r3, r5, #3, #2
 9633 0020 8DF80430 		strb	r3, [sp, #4]
 9634 0024 0123     		movs	r3, #1
 9635 0026 01AA     		add	r2, sp, #4
 9636 0028 1821     		movs	r1, #24
 9637 002a 2046     		mov	r0, r4
 9638 002c FFF7FEFF 		bl	ism330dhcx_write_reg
 9639 0030 F0E7     		b	.L1189
 9641              		.section	.text.ism330dhcx_den_enable_get,"ax",%progbits
 9642              		.align	1
 9643              		.global	ism330dhcx_den_enable_get
 9644              		.syntax unified
 9645              		.thumb
 9646              		.thumb_func
 9648              	ism330dhcx_den_enable_get:
 9649              		@ args = 0, pretend = 0, frame = 8
 9650              		@ frame_needed = 0, uses_anonymous_args = 0
 9651 0000 10B5     		push	{r4, lr}
 9652 0002 82B0     		sub	sp, sp, #8
 9653 0004 0C46     		mov	r4, r1
 9654 0006 0123     		movs	r3, #1
 9655 0008 01AA     		add	r2, sp, #4
 9656 000a 1821     		movs	r1, #24
 9657 000c FFF7FEFF 		bl	ism330dhcx_read_reg
 9658 0010 9DF80430 		ldrb	r3, [sp, #4]	@ zero_extendqisi2
 9659 0014 C3F3C103 		ubfx	r3, r3, #3, #2
 9660 0018 012B     		cmp	r3, #1
ARM GAS  C:\Temp\ccOH3Pt6.s 			page 162


 9661 001a 08D0     		beq	.L1194
 9662 001c 022B     		cmp	r3, #2
 9663 001e 09D0     		beq	.L1195
 9664 0020 13B1     		cbz	r3, .L1199
 9665 0022 0023     		movs	r3, #0
 9666 0024 2370     		strb	r3, [r4]
 9667 0026 00E0     		b	.L1193
 9668              	.L1199:
 9669 0028 2370     		strb	r3, [r4]
 9670              	.L1193:
 9671 002a 02B0     		add	sp, sp, #8
 9672              		@ sp needed
 9673 002c 10BD     		pop	{r4, pc}
 9674              	.L1194:
 9675 002e 0123     		movs	r3, #1
 9676 0030 2370     		strb	r3, [r4]
 9677 0032 FAE7     		b	.L1193
 9678              	.L1195:
 9679 0034 0223     		movs	r3, #2
 9680 0036 2370     		strb	r3, [r4]
 9681 0038 F7E7     		b	.L1193
 9683              		.section	.text.ism330dhcx_den_mark_axis_x_set,"ax",%progbits
 9684              		.align	1
 9685              		.global	ism330dhcx_den_mark_axis_x_set
 9686              		.syntax unified
 9687              		.thumb
 9688              		.thumb_func
 9690              	ism330dhcx_den_mark_axis_x_set:
 9691              		@ args = 0, pretend = 0, frame = 8
 9692              		@ frame_needed = 0, uses_anonymous_args = 0
 9693 0000 30B5     		push	{r4, r5, lr}
 9694 0002 83B0     		sub	sp, sp, #12
 9695 0004 0446     		mov	r4, r0
 9696 0006 0D46     		mov	r5, r1
 9697 0008 0123     		movs	r3, #1
 9698 000a 01AA     		add	r2, sp, #4
 9699 000c 1821     		movs	r1, #24
 9700 000e FFF7FEFF 		bl	ism330dhcx_read_reg
 9701 0012 08B1     		cbz	r0, .L1203
 9702              	.L1200:
 9703 0014 03B0     		add	sp, sp, #12
 9704              		@ sp needed
 9705 0016 30BD     		pop	{r4, r5, pc}
 9706              	.L1203:
 9707 0018 9DF80430 		ldrb	r3, [sp, #4]	@ zero_extendqisi2
 9708 001c 65F34513 		bfi	r3, r5, #5, #1
 9709 0020 8DF80430 		strb	r3, [sp, #4]
 9710 0024 0123     		movs	r3, #1
 9711 0026 01AA     		add	r2, sp, #4
 9712 0028 1821     		movs	r1, #24
 9713 002a 2046     		mov	r0, r4
 9714 002c FFF7FEFF 		bl	ism330dhcx_write_reg
 9715 0030 F0E7     		b	.L1200
 9717              		.section	.text.ism330dhcx_den_mark_axis_x_get,"ax",%progbits
 9718              		.align	1
 9719              		.global	ism330dhcx_den_mark_axis_x_get
 9720              		.syntax unified
ARM GAS  C:\Temp\ccOH3Pt6.s 			page 163


 9721              		.thumb
 9722              		.thumb_func
 9724              	ism330dhcx_den_mark_axis_x_get:
 9725              		@ args = 0, pretend = 0, frame = 8
 9726              		@ frame_needed = 0, uses_anonymous_args = 0
 9727 0000 10B5     		push	{r4, lr}
 9728 0002 82B0     		sub	sp, sp, #8
 9729 0004 0C46     		mov	r4, r1
 9730 0006 0123     		movs	r3, #1
 9731 0008 01AA     		add	r2, sp, #4
 9732 000a 1821     		movs	r1, #24
 9733 000c FFF7FEFF 		bl	ism330dhcx_read_reg
 9734 0010 9DF80430 		ldrb	r3, [sp, #4]	@ zero_extendqisi2
 9735 0014 C3F34013 		ubfx	r3, r3, #5, #1
 9736 0018 2370     		strb	r3, [r4]
 9737 001a 02B0     		add	sp, sp, #8
 9738              		@ sp needed
 9739 001c 10BD     		pop	{r4, pc}
 9741              		.section	.text.ism330dhcx_den_mark_axis_y_set,"ax",%progbits
 9742              		.align	1
 9743              		.global	ism330dhcx_den_mark_axis_y_set
 9744              		.syntax unified
 9745              		.thumb
 9746              		.thumb_func
 9748              	ism330dhcx_den_mark_axis_y_set:
 9749              		@ args = 0, pretend = 0, frame = 8
 9750              		@ frame_needed = 0, uses_anonymous_args = 0
 9751 0000 30B5     		push	{r4, r5, lr}
 9752 0002 83B0     		sub	sp, sp, #12
 9753 0004 0446     		mov	r4, r0
 9754 0006 0D46     		mov	r5, r1
 9755 0008 0123     		movs	r3, #1
 9756 000a 01AA     		add	r2, sp, #4
 9757 000c 1821     		movs	r1, #24
 9758 000e FFF7FEFF 		bl	ism330dhcx_read_reg
 9759 0012 08B1     		cbz	r0, .L1209
 9760              	.L1206:
 9761 0014 03B0     		add	sp, sp, #12
 9762              		@ sp needed
 9763 0016 30BD     		pop	{r4, r5, pc}
 9764              	.L1209:
 9765 0018 9DF80430 		ldrb	r3, [sp, #4]	@ zero_extendqisi2
 9766 001c 65F38613 		bfi	r3, r5, #6, #1
 9767 0020 8DF80430 		strb	r3, [sp, #4]
 9768 0024 0123     		movs	r3, #1
 9769 0026 01AA     		add	r2, sp, #4
 9770 0028 1821     		movs	r1, #24
 9771 002a 2046     		mov	r0, r4
 9772 002c FFF7FEFF 		bl	ism330dhcx_write_reg
 9773 0030 F0E7     		b	.L1206
 9775              		.section	.text.ism330dhcx_den_mark_axis_y_get,"ax",%progbits
 9776              		.align	1
 9777              		.global	ism330dhcx_den_mark_axis_y_get
 9778              		.syntax unified
 9779              		.thumb
 9780              		.thumb_func
 9782              	ism330dhcx_den_mark_axis_y_get:
ARM GAS  C:\Temp\ccOH3Pt6.s 			page 164


 9783              		@ args = 0, pretend = 0, frame = 8
 9784              		@ frame_needed = 0, uses_anonymous_args = 0
 9785 0000 10B5     		push	{r4, lr}
 9786 0002 82B0     		sub	sp, sp, #8
 9787 0004 0C46     		mov	r4, r1
 9788 0006 0123     		movs	r3, #1
 9789 0008 01AA     		add	r2, sp, #4
 9790 000a 1821     		movs	r1, #24
 9791 000c FFF7FEFF 		bl	ism330dhcx_read_reg
 9792 0010 9DF80430 		ldrb	r3, [sp, #4]	@ zero_extendqisi2
 9793 0014 C3F38013 		ubfx	r3, r3, #6, #1
 9794 0018 2370     		strb	r3, [r4]
 9795 001a 02B0     		add	sp, sp, #8
 9796              		@ sp needed
 9797 001c 10BD     		pop	{r4, pc}
 9799              		.section	.text.ism330dhcx_den_mark_axis_z_set,"ax",%progbits
 9800              		.align	1
 9801              		.global	ism330dhcx_den_mark_axis_z_set
 9802              		.syntax unified
 9803              		.thumb
 9804              		.thumb_func
 9806              	ism330dhcx_den_mark_axis_z_set:
 9807              		@ args = 0, pretend = 0, frame = 8
 9808              		@ frame_needed = 0, uses_anonymous_args = 0
 9809 0000 30B5     		push	{r4, r5, lr}
 9810 0002 83B0     		sub	sp, sp, #12
 9811 0004 0446     		mov	r4, r0
 9812 0006 0D46     		mov	r5, r1
 9813 0008 0123     		movs	r3, #1
 9814 000a 01AA     		add	r2, sp, #4
 9815 000c 1821     		movs	r1, #24
 9816 000e FFF7FEFF 		bl	ism330dhcx_read_reg
 9817 0012 08B1     		cbz	r0, .L1215
 9818              	.L1212:
 9819 0014 03B0     		add	sp, sp, #12
 9820              		@ sp needed
 9821 0016 30BD     		pop	{r4, r5, pc}
 9822              	.L1215:
 9823 0018 9DF80430 		ldrb	r3, [sp, #4]	@ zero_extendqisi2
 9824 001c 65F3C713 		bfi	r3, r5, #7, #1
 9825 0020 8DF80430 		strb	r3, [sp, #4]
 9826 0024 0123     		movs	r3, #1
 9827 0026 01AA     		add	r2, sp, #4
 9828 0028 1821     		movs	r1, #24
 9829 002a 2046     		mov	r0, r4
 9830 002c FFF7FEFF 		bl	ism330dhcx_write_reg
 9831 0030 F0E7     		b	.L1212
 9833              		.section	.text.ism330dhcx_den_mark_axis_z_get,"ax",%progbits
 9834              		.align	1
 9835              		.global	ism330dhcx_den_mark_axis_z_get
 9836              		.syntax unified
 9837              		.thumb
 9838              		.thumb_func
 9840              	ism330dhcx_den_mark_axis_z_get:
 9841              		@ args = 0, pretend = 0, frame = 8
 9842              		@ frame_needed = 0, uses_anonymous_args = 0
 9843 0000 10B5     		push	{r4, lr}
ARM GAS  C:\Temp\ccOH3Pt6.s 			page 165


 9844 0002 82B0     		sub	sp, sp, #8
 9845 0004 0C46     		mov	r4, r1
 9846 0006 0123     		movs	r3, #1
 9847 0008 01AA     		add	r2, sp, #4
 9848 000a 1821     		movs	r1, #24
 9849 000c FFF7FEFF 		bl	ism330dhcx_read_reg
 9850 0010 9DF80430 		ldrb	r3, [sp, #4]	@ zero_extendqisi2
 9851 0014 C3F3C013 		ubfx	r3, r3, #7, #1
 9852 0018 2370     		strb	r3, [r4]
 9853 001a 02B0     		add	sp, sp, #8
 9854              		@ sp needed
 9855 001c 10BD     		pop	{r4, pc}
 9857              		.section	.text.ism330dhcx_pedo_sens_set,"ax",%progbits
 9858              		.align	1
 9859              		.global	ism330dhcx_pedo_sens_set
 9860              		.syntax unified
 9861              		.thumb
 9862              		.thumb_func
 9864              	ism330dhcx_pedo_sens_set:
 9865              		@ args = 0, pretend = 0, frame = 8
 9866              		@ frame_needed = 0, uses_anonymous_args = 0
 9867 0000 30B5     		push	{r4, r5, lr}
 9868 0002 83B0     		sub	sp, sp, #12
 9869 0004 0446     		mov	r4, r0
 9870 0006 0D46     		mov	r5, r1
 9871 0008 0221     		movs	r1, #2
 9872 000a FFF7FEFF 		bl	ism330dhcx_mem_bank_set
 9873 000e 0346     		mov	r3, r0
 9874 0010 18B1     		cbz	r0, .L1222
 9875              	.L1219:
 9876 0012 CBB1     		cbz	r3, .L1223
 9877              	.L1218:
 9878 0014 1846     		mov	r0, r3
 9879 0016 03B0     		add	sp, sp, #12
 9880              		@ sp needed
 9881 0018 30BD     		pop	{r4, r5, pc}
 9882              	.L1222:
 9883 001a 0123     		movs	r3, #1
 9884 001c 01AA     		add	r2, sp, #4
 9885 001e 0421     		movs	r1, #4
 9886 0020 2046     		mov	r0, r4
 9887 0022 FFF7FEFF 		bl	ism330dhcx_read_reg
 9888 0026 0346     		mov	r3, r0
 9889 0028 0028     		cmp	r0, #0
 9890 002a F3D1     		bne	.L1218
 9891 002c 9DF80430 		ldrb	r3, [sp, #4]	@ zero_extendqisi2
 9892 0030 65F3C303 		bfi	r3, r5, #3, #1
 9893 0034 8DF80430 		strb	r3, [sp, #4]
 9894 0038 0123     		movs	r3, #1
 9895 003a 01AA     		add	r2, sp, #4
 9896 003c 0421     		movs	r1, #4
 9897 003e 2046     		mov	r0, r4
 9898 0040 FFF7FEFF 		bl	ism330dhcx_write_reg
 9899 0044 0346     		mov	r3, r0
 9900 0046 E4E7     		b	.L1219
 9901              	.L1223:
 9902 0048 0021     		movs	r1, #0
ARM GAS  C:\Temp\ccOH3Pt6.s 			page 166


 9903 004a 2046     		mov	r0, r4
 9904 004c FFF7FEFF 		bl	ism330dhcx_mem_bank_set
 9905 0050 0346     		mov	r3, r0
 9906 0052 DFE7     		b	.L1218
 9908              		.section	.text.ism330dhcx_pedo_sens_get,"ax",%progbits
 9909              		.align	1
 9910              		.global	ism330dhcx_pedo_sens_get
 9911              		.syntax unified
 9912              		.thumb
 9913              		.thumb_func
 9915              	ism330dhcx_pedo_sens_get:
 9916              		@ args = 0, pretend = 0, frame = 8
 9917              		@ frame_needed = 0, uses_anonymous_args = 0
 9918 0000 30B5     		push	{r4, r5, lr}
 9919 0002 83B0     		sub	sp, sp, #12
 9920 0004 0446     		mov	r4, r0
 9921 0006 0D46     		mov	r5, r1
 9922 0008 0221     		movs	r1, #2
 9923 000a FFF7FEFF 		bl	ism330dhcx_mem_bank_set
 9924 000e 08B1     		cbz	r0, .L1227
 9925              	.L1224:
 9926 0010 03B0     		add	sp, sp, #12
 9927              		@ sp needed
 9928 0012 30BD     		pop	{r4, r5, pc}
 9929              	.L1227:
 9930 0014 0123     		movs	r3, #1
 9931 0016 01AA     		add	r2, sp, #4
 9932 0018 0421     		movs	r1, #4
 9933 001a 2046     		mov	r0, r4
 9934 001c FFF7FEFF 		bl	ism330dhcx_read_reg
 9935 0020 9DF80430 		ldrb	r3, [sp, #4]	@ zero_extendqisi2
 9936 0024 C3F3C003 		ubfx	r3, r3, #3, #1
 9937 0028 2B70     		strb	r3, [r5]
 9938 002a 0028     		cmp	r0, #0
 9939 002c F0D1     		bne	.L1224
 9940 002e 0021     		movs	r1, #0
 9941 0030 2046     		mov	r0, r4
 9942 0032 FFF7FEFF 		bl	ism330dhcx_mem_bank_set
 9943 0036 EBE7     		b	.L1224
 9945              		.section	.text.ism330dhcx_pedo_step_detect_get,"ax",%progbits
 9946              		.align	1
 9947              		.global	ism330dhcx_pedo_step_detect_get
 9948              		.syntax unified
 9949              		.thumb
 9950              		.thumb_func
 9952              	ism330dhcx_pedo_step_detect_get:
 9953              		@ args = 0, pretend = 0, frame = 8
 9954              		@ frame_needed = 0, uses_anonymous_args = 0
 9955 0000 30B5     		push	{r4, r5, lr}
 9956 0002 83B0     		sub	sp, sp, #12
 9957 0004 0446     		mov	r4, r0
 9958 0006 0D46     		mov	r5, r1
 9959 0008 0221     		movs	r1, #2
 9960 000a FFF7FEFF 		bl	ism330dhcx_mem_bank_set
 9961 000e 08B1     		cbz	r0, .L1231
 9962              	.L1228:
 9963 0010 03B0     		add	sp, sp, #12
ARM GAS  C:\Temp\ccOH3Pt6.s 			page 167


 9964              		@ sp needed
 9965 0012 30BD     		pop	{r4, r5, pc}
 9966              	.L1231:
 9967 0014 0123     		movs	r3, #1
 9968 0016 01AA     		add	r2, sp, #4
 9969 0018 1221     		movs	r1, #18
 9970 001a 2046     		mov	r0, r4
 9971 001c FFF7FEFF 		bl	ism330dhcx_read_reg
 9972 0020 9DF80430 		ldrb	r3, [sp, #4]	@ zero_extendqisi2
 9973 0024 C3F3C003 		ubfx	r3, r3, #3, #1
 9974 0028 2B70     		strb	r3, [r5]
 9975 002a 0028     		cmp	r0, #0
 9976 002c F0D1     		bne	.L1228
 9977 002e 0021     		movs	r1, #0
 9978 0030 2046     		mov	r0, r4
 9979 0032 FFF7FEFF 		bl	ism330dhcx_mem_bank_set
 9980 0036 EBE7     		b	.L1228
 9982              		.section	.text.ism330dhcx_pedo_debounce_steps_set,"ax",%progbits
 9983              		.align	1
 9984              		.global	ism330dhcx_pedo_debounce_steps_set
 9985              		.syntax unified
 9986              		.thumb
 9987              		.thumb_func
 9989              	ism330dhcx_pedo_debounce_steps_set:
 9990              		@ args = 0, pretend = 0, frame = 0
 9991              		@ frame_needed = 0, uses_anonymous_args = 0
 9992 0000 08B5     		push	{r3, lr}
 9993 0002 0A46     		mov	r2, r1
 9994 0004 4FF4C271 		mov	r1, #388
 9995 0008 FFF7FEFF 		bl	ism330dhcx_ln_pg_write_byte
 9996 000c 08BD     		pop	{r3, pc}
 9998              		.section	.text.ism330dhcx_pedo_debounce_steps_get,"ax",%progbits
 9999              		.align	1
 10000              		.global	ism330dhcx_pedo_debounce_steps_get
 10001              		.syntax unified
 10002              		.thumb
 10003              		.thumb_func
 10005              	ism330dhcx_pedo_debounce_steps_get:
 10006              		@ args = 0, pretend = 0, frame = 0
 10007              		@ frame_needed = 0, uses_anonymous_args = 0
 10008 0000 08B5     		push	{r3, lr}
 10009 0002 0A46     		mov	r2, r1
 10010 0004 4FF4C271 		mov	r1, #388
 10011 0008 FFF7FEFF 		bl	ism330dhcx_ln_pg_read_byte
 10012 000c 08BD     		pop	{r3, pc}
 10014              		.section	.text.ism330dhcx_pedo_steps_period_set,"ax",%progbits
 10015              		.align	1
 10016              		.global	ism330dhcx_pedo_steps_period_set
 10017              		.syntax unified
 10018              		.thumb
 10019              		.thumb_func
 10021              	ism330dhcx_pedo_steps_period_set:
 10022              		@ args = 0, pretend = 0, frame = 8
 10023              		@ frame_needed = 0, uses_anonymous_args = 0
 10024 0000 10B5     		push	{r4, lr}
 10025 0002 82B0     		sub	sp, sp, #8
 10026 0004 0446     		mov	r4, r0
ARM GAS  C:\Temp\ccOH3Pt6.s 			page 168


 10027 0006 0B0A     		lsrs	r3, r1, #8
 10028 0008 8DF80530 		strb	r3, [sp, #5]
 10029 000c 8DF80410 		strb	r1, [sp, #4]
 10030 0010 01AA     		add	r2, sp, #4
 10031 0012 4FF4E871 		mov	r1, #464
 10032 0016 FFF7FEFF 		bl	ism330dhcx_ln_pg_write_byte
 10033 001a 08B1     		cbz	r0, .L1239
 10034              	.L1236:
 10035 001c 02B0     		add	sp, sp, #8
 10036              		@ sp needed
 10037 001e 10BD     		pop	{r4, pc}
 10038              	.L1239:
 10039 0020 0DF10502 		add	r2, sp, #5
 10040 0024 40F2D111 		movw	r1, #465
 10041 0028 2046     		mov	r0, r4
 10042 002a FFF7FEFF 		bl	ism330dhcx_ln_pg_write_byte
 10043 002e F5E7     		b	.L1236
 10045              		.section	.text.ism330dhcx_pedo_steps_period_get,"ax",%progbits
 10046              		.align	1
 10047              		.global	ism330dhcx_pedo_steps_period_get
 10048              		.syntax unified
 10049              		.thumb
 10050              		.thumb_func
 10052              	ism330dhcx_pedo_steps_period_get:
 10053              		@ args = 0, pretend = 0, frame = 8
 10054              		@ frame_needed = 0, uses_anonymous_args = 0
 10055 0000 30B5     		push	{r4, r5, lr}
 10056 0002 83B0     		sub	sp, sp, #12
 10057 0004 0546     		mov	r5, r0
 10058 0006 0C46     		mov	r4, r1
 10059 0008 01AA     		add	r2, sp, #4
 10060 000a 4FF4E871 		mov	r1, #464
 10061 000e FFF7FEFF 		bl	ism330dhcx_ln_pg_read_byte
 10062 0012 08B1     		cbz	r0, .L1243
 10063              	.L1240:
 10064 0014 03B0     		add	sp, sp, #12
 10065              		@ sp needed
 10066 0016 30BD     		pop	{r4, r5, pc}
 10067              	.L1243:
 10068 0018 0DF10502 		add	r2, sp, #5
 10069 001c 40F2D111 		movw	r1, #465
 10070 0020 2846     		mov	r0, r5
 10071 0022 FFF7FEFF 		bl	ism330dhcx_ln_pg_read_byte
 10072 0026 9DF80520 		ldrb	r2, [sp, #5]	@ zero_extendqisi2
 10073 002a 2280     		strh	r2, [r4]	@ movhi
 10074 002c 9DF80430 		ldrb	r3, [sp, #4]	@ zero_extendqisi2
 10075 0030 03EB0223 		add	r3, r3, r2, lsl #8
 10076 0034 2380     		strh	r3, [r4]	@ movhi
 10077 0036 EDE7     		b	.L1240
 10079              		.section	.text.ism330dhcx_pedo_int_mode_set,"ax",%progbits
 10080              		.align	1
 10081              		.global	ism330dhcx_pedo_int_mode_set
 10082              		.syntax unified
 10083              		.thumb
 10084              		.thumb_func
 10086              	ism330dhcx_pedo_int_mode_set:
 10087              		@ args = 0, pretend = 0, frame = 8
ARM GAS  C:\Temp\ccOH3Pt6.s 			page 169


 10088              		@ frame_needed = 0, uses_anonymous_args = 0
 10089 0000 30B5     		push	{r4, r5, lr}
 10090 0002 83B0     		sub	sp, sp, #12
 10091 0004 0446     		mov	r4, r0
 10092 0006 0D46     		mov	r5, r1
 10093 0008 01AA     		add	r2, sp, #4
 10094 000a 40F28311 		movw	r1, #387
 10095 000e FFF7FEFF 		bl	ism330dhcx_ln_pg_read_byte
 10096 0012 08B1     		cbz	r0, .L1247
 10097              	.L1244:
 10098 0014 03B0     		add	sp, sp, #12
 10099              		@ sp needed
 10100 0016 30BD     		pop	{r4, r5, pc}
 10101              	.L1247:
 10102 0018 9DF80430 		ldrb	r3, [sp, #4]	@ zero_extendqisi2
 10103 001c 65F3C303 		bfi	r3, r5, #3, #1
 10104 0020 8DF80430 		strb	r3, [sp, #4]
 10105 0024 01AA     		add	r2, sp, #4
 10106 0026 40F28311 		movw	r1, #387
 10107 002a 2046     		mov	r0, r4
 10108 002c FFF7FEFF 		bl	ism330dhcx_ln_pg_write_byte
 10109 0030 F0E7     		b	.L1244
 10111              		.section	.text.ism330dhcx_pedo_int_mode_get,"ax",%progbits
 10112              		.align	1
 10113              		.global	ism330dhcx_pedo_int_mode_get
 10114              		.syntax unified
 10115              		.thumb
 10116              		.thumb_func
 10118              	ism330dhcx_pedo_int_mode_get:
 10119              		@ args = 0, pretend = 0, frame = 8
 10120              		@ frame_needed = 0, uses_anonymous_args = 0
 10121 0000 10B5     		push	{r4, lr}
 10122 0002 82B0     		sub	sp, sp, #8
 10123 0004 0C46     		mov	r4, r1
 10124 0006 01AA     		add	r2, sp, #4
 10125 0008 40F28311 		movw	r1, #387
 10126 000c FFF7FEFF 		bl	ism330dhcx_ln_pg_read_byte
 10127 0010 9DF80430 		ldrb	r3, [sp, #4]	@ zero_extendqisi2
 10128 0014 C3F3C002 		ubfx	r2, r3, #3, #1
 10129 0018 13F0080F 		tst	r3, #8
 10130 001c 03D0     		beq	.L1249
 10131 001e 32B9     		cbnz	r2, .L1250
 10132 0020 0023     		movs	r3, #0
 10133 0022 2370     		strb	r3, [r4]
 10134 0024 01E0     		b	.L1248
 10135              	.L1249:
 10136 0026 0023     		movs	r3, #0
 10137 0028 2370     		strb	r3, [r4]
 10138              	.L1248:
 10139 002a 02B0     		add	sp, sp, #8
 10140              		@ sp needed
 10141 002c 10BD     		pop	{r4, pc}
 10142              	.L1250:
 10143 002e 0123     		movs	r3, #1
 10144 0030 2370     		strb	r3, [r4]
 10145 0032 FAE7     		b	.L1248
 10147              		.section	.text.ism330dhcx_motion_sens_set,"ax",%progbits
ARM GAS  C:\Temp\ccOH3Pt6.s 			page 170


 10148              		.align	1
 10149              		.global	ism330dhcx_motion_sens_set
 10150              		.syntax unified
 10151              		.thumb
 10152              		.thumb_func
 10154              	ism330dhcx_motion_sens_set:
 10155              		@ args = 0, pretend = 0, frame = 8
 10156              		@ frame_needed = 0, uses_anonymous_args = 0
 10157 0000 30B5     		push	{r4, r5, lr}
 10158 0002 83B0     		sub	sp, sp, #12
 10159 0004 0446     		mov	r4, r0
 10160 0006 0D46     		mov	r5, r1
 10161 0008 0221     		movs	r1, #2
 10162 000a FFF7FEFF 		bl	ism330dhcx_mem_bank_set
 10163 000e 0346     		mov	r3, r0
 10164 0010 18B1     		cbz	r0, .L1259
 10165              	.L1256:
 10166 0012 CBB1     		cbz	r3, .L1260
 10167              	.L1255:
 10168 0014 1846     		mov	r0, r3
 10169 0016 03B0     		add	sp, sp, #12
 10170              		@ sp needed
 10171 0018 30BD     		pop	{r4, r5, pc}
 10172              	.L1259:
 10173 001a 0123     		movs	r3, #1
 10174 001c 01AA     		add	r2, sp, #4
 10175 001e 0421     		movs	r1, #4
 10176 0020 2046     		mov	r0, r4
 10177 0022 FFF7FEFF 		bl	ism330dhcx_read_reg
 10178 0026 0346     		mov	r3, r0
 10179 0028 0028     		cmp	r0, #0
 10180 002a F3D1     		bne	.L1255
 10181 002c 9DF80430 		ldrb	r3, [sp, #4]	@ zero_extendqisi2
 10182 0030 65F34513 		bfi	r3, r5, #5, #1
 10183 0034 8DF80430 		strb	r3, [sp, #4]
 10184 0038 0123     		movs	r3, #1
 10185 003a 01AA     		add	r2, sp, #4
 10186 003c 0421     		movs	r1, #4
 10187 003e 2046     		mov	r0, r4
 10188 0040 FFF7FEFF 		bl	ism330dhcx_write_reg
 10189 0044 0346     		mov	r3, r0
 10190 0046 E4E7     		b	.L1256
 10191              	.L1260:
 10192 0048 0021     		movs	r1, #0
 10193 004a 2046     		mov	r0, r4
 10194 004c FFF7FEFF 		bl	ism330dhcx_mem_bank_set
 10195 0050 0346     		mov	r3, r0
 10196 0052 DFE7     		b	.L1255
 10198              		.section	.text.ism330dhcx_motion_sens_get,"ax",%progbits
 10199              		.align	1
 10200              		.global	ism330dhcx_motion_sens_get
 10201              		.syntax unified
 10202              		.thumb
 10203              		.thumb_func
 10205              	ism330dhcx_motion_sens_get:
 10206              		@ args = 0, pretend = 0, frame = 8
 10207              		@ frame_needed = 0, uses_anonymous_args = 0
ARM GAS  C:\Temp\ccOH3Pt6.s 			page 171


 10208 0000 30B5     		push	{r4, r5, lr}
 10209 0002 83B0     		sub	sp, sp, #12
 10210 0004 0446     		mov	r4, r0
 10211 0006 0D46     		mov	r5, r1
 10212 0008 0221     		movs	r1, #2
 10213 000a FFF7FEFF 		bl	ism330dhcx_mem_bank_set
 10214 000e 08B1     		cbz	r0, .L1264
 10215              	.L1261:
 10216 0010 03B0     		add	sp, sp, #12
 10217              		@ sp needed
 10218 0012 30BD     		pop	{r4, r5, pc}
 10219              	.L1264:
 10220 0014 0123     		movs	r3, #1
 10221 0016 01AA     		add	r2, sp, #4
 10222 0018 0421     		movs	r1, #4
 10223 001a 2046     		mov	r0, r4
 10224 001c FFF7FEFF 		bl	ism330dhcx_read_reg
 10225 0020 0028     		cmp	r0, #0
 10226 0022 F5D1     		bne	.L1261
 10227 0024 9DF80430 		ldrb	r3, [sp, #4]	@ zero_extendqisi2
 10228 0028 C3F34013 		ubfx	r3, r3, #5, #1
 10229 002c 2B70     		strb	r3, [r5]
 10230 002e 0021     		movs	r1, #0
 10231 0030 2046     		mov	r0, r4
 10232 0032 FFF7FEFF 		bl	ism330dhcx_mem_bank_set
 10233 0036 EBE7     		b	.L1261
 10235              		.section	.text.ism330dhcx_motion_flag_data_ready_get,"ax",%progbits
 10236              		.align	1
 10237              		.global	ism330dhcx_motion_flag_data_ready_get
 10238              		.syntax unified
 10239              		.thumb
 10240              		.thumb_func
 10242              	ism330dhcx_motion_flag_data_ready_get:
 10243              		@ args = 0, pretend = 0, frame = 8
 10244              		@ frame_needed = 0, uses_anonymous_args = 0
 10245 0000 30B5     		push	{r4, r5, lr}
 10246 0002 83B0     		sub	sp, sp, #12
 10247 0004 0446     		mov	r4, r0
 10248 0006 0D46     		mov	r5, r1
 10249 0008 0221     		movs	r1, #2
 10250 000a FFF7FEFF 		bl	ism330dhcx_mem_bank_set
 10251 000e 08B1     		cbz	r0, .L1268
 10252              	.L1265:
 10253 0010 03B0     		add	sp, sp, #12
 10254              		@ sp needed
 10255 0012 30BD     		pop	{r4, r5, pc}
 10256              	.L1268:
 10257 0014 0123     		movs	r3, #1
 10258 0016 01AA     		add	r2, sp, #4
 10259 0018 1221     		movs	r1, #18
 10260 001a 2046     		mov	r0, r4
 10261 001c FFF7FEFF 		bl	ism330dhcx_read_reg
 10262 0020 0028     		cmp	r0, #0
 10263 0022 F5D1     		bne	.L1265
 10264 0024 9DF80430 		ldrb	r3, [sp, #4]	@ zero_extendqisi2
 10265 0028 C3F34013 		ubfx	r3, r3, #5, #1
 10266 002c 2B70     		strb	r3, [r5]
ARM GAS  C:\Temp\ccOH3Pt6.s 			page 172


 10267 002e 0021     		movs	r1, #0
 10268 0030 2046     		mov	r0, r4
 10269 0032 FFF7FEFF 		bl	ism330dhcx_mem_bank_set
 10270 0036 EBE7     		b	.L1265
 10272              		.section	.text.ism330dhcx_tilt_sens_set,"ax",%progbits
 10273              		.align	1
 10274              		.global	ism330dhcx_tilt_sens_set
 10275              		.syntax unified
 10276              		.thumb
 10277              		.thumb_func
 10279              	ism330dhcx_tilt_sens_set:
 10280              		@ args = 0, pretend = 0, frame = 8
 10281              		@ frame_needed = 0, uses_anonymous_args = 0
 10282 0000 30B5     		push	{r4, r5, lr}
 10283 0002 83B0     		sub	sp, sp, #12
 10284 0004 0446     		mov	r4, r0
 10285 0006 0D46     		mov	r5, r1
 10286 0008 0221     		movs	r1, #2
 10287 000a FFF7FEFF 		bl	ism330dhcx_mem_bank_set
 10288 000e 0346     		mov	r3, r0
 10289 0010 18B1     		cbz	r0, .L1273
 10290              	.L1270:
 10291 0012 CBB1     		cbz	r3, .L1274
 10292              	.L1269:
 10293 0014 1846     		mov	r0, r3
 10294 0016 03B0     		add	sp, sp, #12
 10295              		@ sp needed
 10296 0018 30BD     		pop	{r4, r5, pc}
 10297              	.L1273:
 10298 001a 0123     		movs	r3, #1
 10299 001c 01AA     		add	r2, sp, #4
 10300 001e 0421     		movs	r1, #4
 10301 0020 2046     		mov	r0, r4
 10302 0022 FFF7FEFF 		bl	ism330dhcx_read_reg
 10303 0026 0346     		mov	r3, r0
 10304 0028 0028     		cmp	r0, #0
 10305 002a F3D1     		bne	.L1269
 10306 002c 9DF80430 		ldrb	r3, [sp, #4]	@ zero_extendqisi2
 10307 0030 65F30413 		bfi	r3, r5, #4, #1
 10308 0034 8DF80430 		strb	r3, [sp, #4]
 10309 0038 0123     		movs	r3, #1
 10310 003a 01AA     		add	r2, sp, #4
 10311 003c 0421     		movs	r1, #4
 10312 003e 2046     		mov	r0, r4
 10313 0040 FFF7FEFF 		bl	ism330dhcx_write_reg
 10314 0044 0346     		mov	r3, r0
 10315 0046 E4E7     		b	.L1270
 10316              	.L1274:
 10317 0048 0021     		movs	r1, #0
 10318 004a 2046     		mov	r0, r4
 10319 004c FFF7FEFF 		bl	ism330dhcx_mem_bank_set
 10320 0050 0346     		mov	r3, r0
 10321 0052 DFE7     		b	.L1269
 10323              		.section	.text.ism330dhcx_tilt_sens_get,"ax",%progbits
 10324              		.align	1
 10325              		.global	ism330dhcx_tilt_sens_get
 10326              		.syntax unified
ARM GAS  C:\Temp\ccOH3Pt6.s 			page 173


 10327              		.thumb
 10328              		.thumb_func
 10330              	ism330dhcx_tilt_sens_get:
 10331              		@ args = 0, pretend = 0, frame = 8
 10332              		@ frame_needed = 0, uses_anonymous_args = 0
 10333 0000 30B5     		push	{r4, r5, lr}
 10334 0002 83B0     		sub	sp, sp, #12
 10335 0004 0446     		mov	r4, r0
 10336 0006 0D46     		mov	r5, r1
 10337 0008 0221     		movs	r1, #2
 10338 000a FFF7FEFF 		bl	ism330dhcx_mem_bank_set
 10339 000e 08B1     		cbz	r0, .L1278
 10340              	.L1275:
 10341 0010 03B0     		add	sp, sp, #12
 10342              		@ sp needed
 10343 0012 30BD     		pop	{r4, r5, pc}
 10344              	.L1278:
 10345 0014 0123     		movs	r3, #1
 10346 0016 01AA     		add	r2, sp, #4
 10347 0018 0421     		movs	r1, #4
 10348 001a 2046     		mov	r0, r4
 10349 001c FFF7FEFF 		bl	ism330dhcx_read_reg
 10350 0020 0028     		cmp	r0, #0
 10351 0022 F5D1     		bne	.L1275
 10352 0024 9DF80430 		ldrb	r3, [sp, #4]	@ zero_extendqisi2
 10353 0028 C3F30013 		ubfx	r3, r3, #4, #1
 10354 002c 2B70     		strb	r3, [r5]
 10355 002e 0021     		movs	r1, #0
 10356 0030 2046     		mov	r0, r4
 10357 0032 FFF7FEFF 		bl	ism330dhcx_mem_bank_set
 10358 0036 EBE7     		b	.L1275
 10360              		.section	.text.ism330dhcx_tilt_flag_data_ready_get,"ax",%progbits
 10361              		.align	1
 10362              		.global	ism330dhcx_tilt_flag_data_ready_get
 10363              		.syntax unified
 10364              		.thumb
 10365              		.thumb_func
 10367              	ism330dhcx_tilt_flag_data_ready_get:
 10368              		@ args = 0, pretend = 0, frame = 8
 10369              		@ frame_needed = 0, uses_anonymous_args = 0
 10370 0000 30B5     		push	{r4, r5, lr}
 10371 0002 83B0     		sub	sp, sp, #12
 10372 0004 0446     		mov	r4, r0
 10373 0006 0D46     		mov	r5, r1
 10374 0008 0221     		movs	r1, #2
 10375 000a FFF7FEFF 		bl	ism330dhcx_mem_bank_set
 10376 000e 08B1     		cbz	r0, .L1282
 10377              	.L1279:
 10378 0010 03B0     		add	sp, sp, #12
 10379              		@ sp needed
 10380 0012 30BD     		pop	{r4, r5, pc}
 10381              	.L1282:
 10382 0014 0123     		movs	r3, #1
 10383 0016 01AA     		add	r2, sp, #4
 10384 0018 1221     		movs	r1, #18
 10385 001a 2046     		mov	r0, r4
 10386 001c FFF7FEFF 		bl	ism330dhcx_read_reg
ARM GAS  C:\Temp\ccOH3Pt6.s 			page 174


 10387 0020 0028     		cmp	r0, #0
 10388 0022 F5D1     		bne	.L1279
 10389 0024 9DF80430 		ldrb	r3, [sp, #4]	@ zero_extendqisi2
 10390 0028 C3F30013 		ubfx	r3, r3, #4, #1
 10391 002c 2B70     		strb	r3, [r5]
 10392 002e 0021     		movs	r1, #0
 10393 0030 2046     		mov	r0, r4
 10394 0032 FFF7FEFF 		bl	ism330dhcx_mem_bank_set
 10395 0036 EBE7     		b	.L1279
 10397              		.section	.text.ism330dhcx_mag_sensitivity_set,"ax",%progbits
 10398              		.align	1
 10399              		.global	ism330dhcx_mag_sensitivity_set
 10400              		.syntax unified
 10401              		.thumb
 10402              		.thumb_func
 10404              	ism330dhcx_mag_sensitivity_set:
 10405              		@ args = 0, pretend = 0, frame = 8
 10406              		@ frame_needed = 0, uses_anonymous_args = 0
 10407 0000 10B5     		push	{r4, lr}
 10408 0002 82B0     		sub	sp, sp, #8
 10409 0004 0446     		mov	r4, r0
 10410 0006 0B0A     		lsrs	r3, r1, #8
 10411 0008 8DF80530 		strb	r3, [sp, #5]
 10412 000c 8DF80410 		strb	r1, [sp, #4]
 10413 0010 01AA     		add	r2, sp, #4
 10414 0012 BA21     		movs	r1, #186
 10415 0014 FFF7FEFF 		bl	ism330dhcx_ln_pg_write_byte
 10416 0018 08B1     		cbz	r0, .L1286
 10417              	.L1283:
 10418 001a 02B0     		add	sp, sp, #8
 10419              		@ sp needed
 10420 001c 10BD     		pop	{r4, pc}
 10421              	.L1286:
 10422 001e 0DF10502 		add	r2, sp, #5
 10423 0022 BB21     		movs	r1, #187
 10424 0024 2046     		mov	r0, r4
 10425 0026 FFF7FEFF 		bl	ism330dhcx_ln_pg_write_byte
 10426 002a F6E7     		b	.L1283
 10428              		.section	.text.ism330dhcx_mag_sensitivity_get,"ax",%progbits
 10429              		.align	1
 10430              		.global	ism330dhcx_mag_sensitivity_get
 10431              		.syntax unified
 10432              		.thumb
 10433              		.thumb_func
 10435              	ism330dhcx_mag_sensitivity_get:
 10436              		@ args = 0, pretend = 0, frame = 8
 10437              		@ frame_needed = 0, uses_anonymous_args = 0
 10438 0000 30B5     		push	{r4, r5, lr}
 10439 0002 83B0     		sub	sp, sp, #12
 10440 0004 0546     		mov	r5, r0
 10441 0006 0C46     		mov	r4, r1
 10442 0008 01AA     		add	r2, sp, #4
 10443 000a BA21     		movs	r1, #186
 10444 000c FFF7FEFF 		bl	ism330dhcx_ln_pg_read_byte
 10445 0010 08B1     		cbz	r0, .L1290
 10446              	.L1287:
 10447 0012 03B0     		add	sp, sp, #12
ARM GAS  C:\Temp\ccOH3Pt6.s 			page 175


 10448              		@ sp needed
 10449 0014 30BD     		pop	{r4, r5, pc}
 10450              	.L1290:
 10451 0016 0DF10502 		add	r2, sp, #5
 10452 001a BB21     		movs	r1, #187
 10453 001c 2846     		mov	r0, r5
 10454 001e FFF7FEFF 		bl	ism330dhcx_ln_pg_read_byte
 10455 0022 9DF80520 		ldrb	r2, [sp, #5]	@ zero_extendqisi2
 10456 0026 2280     		strh	r2, [r4]	@ movhi
 10457 0028 9DF80430 		ldrb	r3, [sp, #4]	@ zero_extendqisi2
 10458 002c 03EB0223 		add	r3, r3, r2, lsl #8
 10459 0030 2380     		strh	r3, [r4]	@ movhi
 10460 0032 EEE7     		b	.L1287
 10462              		.section	.text.ism330dhcx_mag_offset_set,"ax",%progbits
 10463              		.align	1
 10464              		.global	ism330dhcx_mag_offset_set
 10465              		.syntax unified
 10466              		.thumb
 10467              		.thumb_func
 10469              	ism330dhcx_mag_offset_set:
 10470              		@ args = 0, pretend = 0, frame = 8
 10471              		@ frame_needed = 0, uses_anonymous_args = 0
 10472 0000 30B5     		push	{r4, r5, lr}
 10473 0002 83B0     		sub	sp, sp, #12
 10474 0004 0446     		mov	r4, r0
 10475 0006 B1F90030 		ldrsh	r3, [r1]
 10476 000a C3F30722 		ubfx	r2, r3, #8, #8
 10477 000e 8DF80120 		strb	r2, [sp, #1]
 10478 0012 8DF80030 		strb	r3, [sp]
 10479 0016 B1F90230 		ldrsh	r3, [r1, #2]
 10480 001a C3F30722 		ubfx	r2, r3, #8, #8
 10481 001e 8DF80320 		strb	r2, [sp, #3]
 10482 0022 8DF80230 		strb	r3, [sp, #2]
 10483 0026 B1F90430 		ldrsh	r3, [r1, #4]
 10484 002a C3F30722 		ubfx	r2, r3, #8, #8
 10485 002e 8DF80520 		strb	r2, [sp, #5]
 10486 0032 8DF80430 		strb	r3, [sp, #4]
 10487 0036 6A46     		mov	r2, sp
 10488 0038 C021     		movs	r1, #192
 10489 003a FFF7FEFF 		bl	ism330dhcx_ln_pg_write_byte
 10490 003e 28B1     		cbz	r0, .L1296
 10491 0040 0346     		mov	r3, r0
 10492 0042 0022     		movs	r2, #0
 10493              	.L1292:
 10494 0044 A3B1     		cbz	r3, .L1297
 10495              	.L1291:
 10496 0046 1846     		mov	r0, r3
 10497 0048 03B0     		add	sp, sp, #12
 10498              		@ sp needed
 10499 004a 30BD     		pop	{r4, r5, pc}
 10500              	.L1296:
 10501 004c 0DF10102 		add	r2, sp, #1
 10502 0050 C121     		movs	r1, #193
 10503 0052 2046     		mov	r0, r4
 10504 0054 FFF7FEFF 		bl	ism330dhcx_ln_pg_write_byte
 10505 0058 0346     		mov	r3, r0
 10506 005a 0028     		cmp	r0, #0
ARM GAS  C:\Temp\ccOH3Pt6.s 			page 176


 10507 005c F3D1     		bne	.L1291
 10508 005e 0DF10202 		add	r2, sp, #2
 10509 0062 C221     		movs	r1, #194
 10510 0064 2046     		mov	r0, r4
 10511 0066 FFF7FEFF 		bl	ism330dhcx_ln_pg_write_byte
 10512 006a 0346     		mov	r3, r0
 10513 006c 0222     		movs	r2, #2
 10514 006e E9E7     		b	.L1292
 10515              	.L1297:
 10516 0070 551C     		adds	r5, r2, #1
 10517 0072 0DEB0502 		add	r2, sp, r5
 10518 0076 C321     		movs	r1, #195
 10519 0078 2046     		mov	r0, r4
 10520 007a FFF7FEFF 		bl	ism330dhcx_ln_pg_write_byte
 10521 007e 0346     		mov	r3, r0
 10522 0080 0028     		cmp	r0, #0
 10523 0082 E0D1     		bne	.L1291
 10524 0084 0135     		adds	r5, r5, #1
 10525 0086 EDB2     		uxtb	r5, r5
 10526 0088 0DEB0502 		add	r2, sp, r5
 10527 008c C421     		movs	r1, #196
 10528 008e 2046     		mov	r0, r4
 10529 0090 FFF7FEFF 		bl	ism330dhcx_ln_pg_write_byte
 10530 0094 0346     		mov	r3, r0
 10531 0096 0028     		cmp	r0, #0
 10532 0098 D5D1     		bne	.L1291
 10533 009a 6A1C     		adds	r2, r5, #1
 10534 009c 6B46     		mov	r3, sp
 10535 009e 53FA82F2 		uxtab	r2, r3, r2
 10536 00a2 C521     		movs	r1, #197
 10537 00a4 2046     		mov	r0, r4
 10538 00a6 FFF7FEFF 		bl	ism330dhcx_ln_pg_write_byte
 10539 00aa 0346     		mov	r3, r0
 10540 00ac CBE7     		b	.L1291
 10542              		.section	.text.ism330dhcx_mag_offset_get,"ax",%progbits
 10543              		.align	1
 10544              		.global	ism330dhcx_mag_offset_get
 10545              		.syntax unified
 10546              		.thumb
 10547              		.thumb_func
 10549              	ism330dhcx_mag_offset_get:
 10550              		@ args = 0, pretend = 0, frame = 8
 10551              		@ frame_needed = 0, uses_anonymous_args = 0
 10552 0000 70B5     		push	{r4, r5, r6, lr}
 10553 0002 82B0     		sub	sp, sp, #8
 10554 0004 0546     		mov	r5, r0
 10555 0006 0C46     		mov	r4, r1
 10556 0008 6A46     		mov	r2, sp
 10557 000a C021     		movs	r1, #192
 10558 000c FFF7FEFF 		bl	ism330dhcx_ln_pg_read_byte
 10559 0010 E8B1     		cbz	r0, .L1303
 10560 0012 0246     		mov	r2, r0
 10561 0014 0023     		movs	r3, #0
 10562              	.L1299:
 10563 0016 62B3     		cbz	r2, .L1304
 10564              	.L1300:
 10565 0018 9DF80110 		ldrb	r1, [sp, #1]	@ zero_extendqisi2
ARM GAS  C:\Temp\ccOH3Pt6.s 			page 177


 10566 001c 2180     		strh	r1, [r4]	@ movhi
 10567 001e 9DF80030 		ldrb	r3, [sp]	@ zero_extendqisi2
 10568 0022 03EB0123 		add	r3, r3, r1, lsl #8
 10569 0026 2380     		strh	r3, [r4]	@ movhi
 10570 0028 9DF80310 		ldrb	r1, [sp, #3]	@ zero_extendqisi2
 10571 002c 6180     		strh	r1, [r4, #2]	@ movhi
 10572 002e 9DF80230 		ldrb	r3, [sp, #2]	@ zero_extendqisi2
 10573 0032 03EB0123 		add	r3, r3, r1, lsl #8
 10574 0036 6380     		strh	r3, [r4, #2]	@ movhi
 10575 0038 9DF80510 		ldrb	r1, [sp, #5]	@ zero_extendqisi2
 10576 003c A180     		strh	r1, [r4, #4]	@ movhi
 10577 003e 9DF80430 		ldrb	r3, [sp, #4]	@ zero_extendqisi2
 10578 0042 03EB0123 		add	r3, r3, r1, lsl #8
 10579 0046 A380     		strh	r3, [r4, #4]	@ movhi
 10580 0048 1046     		mov	r0, r2
 10581 004a 02B0     		add	sp, sp, #8
 10582              		@ sp needed
 10583 004c 70BD     		pop	{r4, r5, r6, pc}
 10584              	.L1303:
 10585 004e 0DF10102 		add	r2, sp, #1
 10586 0052 C121     		movs	r1, #193
 10587 0054 2846     		mov	r0, r5
 10588 0056 FFF7FEFF 		bl	ism330dhcx_ln_pg_read_byte
 10589 005a 0246     		mov	r2, r0
 10590 005c 0028     		cmp	r0, #0
 10591 005e DBD1     		bne	.L1300
 10592 0060 0DF10202 		add	r2, sp, #2
 10593 0064 C221     		movs	r1, #194
 10594 0066 2846     		mov	r0, r5
 10595 0068 FFF7FEFF 		bl	ism330dhcx_ln_pg_read_byte
 10596 006c 0246     		mov	r2, r0
 10597 006e 0223     		movs	r3, #2
 10598 0070 D1E7     		b	.L1299
 10599              	.L1304:
 10600 0072 5E1C     		adds	r6, r3, #1
 10601 0074 0DEB0602 		add	r2, sp, r6
 10602 0078 C321     		movs	r1, #195
 10603 007a 2846     		mov	r0, r5
 10604 007c FFF7FEFF 		bl	ism330dhcx_ln_pg_read_byte
 10605 0080 0246     		mov	r2, r0
 10606 0082 0028     		cmp	r0, #0
 10607 0084 C8D1     		bne	.L1300
 10608 0086 0136     		adds	r6, r6, #1
 10609 0088 F6B2     		uxtb	r6, r6
 10610 008a 0DEB0602 		add	r2, sp, r6
 10611 008e C421     		movs	r1, #196
 10612 0090 2846     		mov	r0, r5
 10613 0092 FFF7FEFF 		bl	ism330dhcx_ln_pg_read_byte
 10614 0096 0246     		mov	r2, r0
 10615 0098 0028     		cmp	r0, #0
 10616 009a BDD1     		bne	.L1300
 10617 009c 721C     		adds	r2, r6, #1
 10618 009e 6B46     		mov	r3, sp
 10619 00a0 53FA82F2 		uxtab	r2, r3, r2
 10620 00a4 C521     		movs	r1, #197
 10621 00a6 2846     		mov	r0, r5
 10622 00a8 FFF7FEFF 		bl	ism330dhcx_ln_pg_read_byte
ARM GAS  C:\Temp\ccOH3Pt6.s 			page 178


 10623 00ac 0246     		mov	r2, r0
 10624 00ae B3E7     		b	.L1300
 10626              		.section	.text.ism330dhcx_mag_soft_iron_set,"ax",%progbits
 10627              		.align	1
 10628              		.global	ism330dhcx_mag_soft_iron_set
 10629              		.syntax unified
 10630              		.thumb
 10631              		.thumb_func
 10633              	ism330dhcx_mag_soft_iron_set:
 10634              		@ args = 0, pretend = 0, frame = 16
 10635              		@ frame_needed = 0, uses_anonymous_args = 0
 10636 0000 30B5     		push	{r4, r5, lr}
 10637 0002 85B0     		sub	sp, sp, #20
 10638 0004 0446     		mov	r4, r0
 10639 0006 0B88     		ldrh	r3, [r1]
 10640 0008 1A0A     		lsrs	r2, r3, #8
 10641 000a 8DF80520 		strb	r2, [sp, #5]
 10642 000e 8DF80430 		strb	r3, [sp, #4]
 10643 0012 4B88     		ldrh	r3, [r1, #2]
 10644 0014 1A0A     		lsrs	r2, r3, #8
 10645 0016 8DF80720 		strb	r2, [sp, #7]
 10646 001a 8DF80630 		strb	r3, [sp, #6]
 10647 001e 8B88     		ldrh	r3, [r1, #4]
 10648 0020 1A0A     		lsrs	r2, r3, #8
 10649 0022 8DF80920 		strb	r2, [sp, #9]
 10650 0026 8DF80830 		strb	r3, [sp, #8]
 10651 002a CB88     		ldrh	r3, [r1, #6]
 10652 002c 1A0A     		lsrs	r2, r3, #8
 10653 002e 8DF80B20 		strb	r2, [sp, #11]
 10654 0032 8DF80A30 		strb	r3, [sp, #10]
 10655 0036 0B89     		ldrh	r3, [r1, #8]
 10656 0038 1A0A     		lsrs	r2, r3, #8
 10657 003a 8DF80D20 		strb	r2, [sp, #13]
 10658 003e 8DF80C30 		strb	r3, [sp, #12]
 10659 0042 4B89     		ldrh	r3, [r1, #10]
 10660 0044 1A0A     		lsrs	r2, r3, #8
 10661 0046 8DF80F20 		strb	r2, [sp, #15]
 10662 004a 8DF80E30 		strb	r3, [sp, #14]
 10663 004e 01AA     		add	r2, sp, #4
 10664 0050 C621     		movs	r1, #198
 10665 0052 FFF7FEFF 		bl	ism330dhcx_ln_pg_write_byte
 10666 0056 28B1     		cbz	r0, .L1310
 10667 0058 0346     		mov	r3, r0
 10668 005a 0022     		movs	r2, #0
 10669              	.L1306:
 10670 005c A3B1     		cbz	r3, .L1311
 10671              	.L1305:
 10672 005e 1846     		mov	r0, r3
 10673 0060 05B0     		add	sp, sp, #20
 10674              		@ sp needed
 10675 0062 30BD     		pop	{r4, r5, pc}
 10676              	.L1310:
 10677 0064 0DF10502 		add	r2, sp, #5
 10678 0068 C721     		movs	r1, #199
 10679 006a 2046     		mov	r0, r4
 10680 006c FFF7FEFF 		bl	ism330dhcx_ln_pg_write_byte
 10681 0070 0346     		mov	r3, r0
ARM GAS  C:\Temp\ccOH3Pt6.s 			page 179


 10682 0072 0028     		cmp	r0, #0
 10683 0074 F3D1     		bne	.L1305
 10684 0076 0DF10602 		add	r2, sp, #6
 10685 007a C821     		movs	r1, #200
 10686 007c 2046     		mov	r0, r4
 10687 007e FFF7FEFF 		bl	ism330dhcx_ln_pg_write_byte
 10688 0082 0346     		mov	r3, r0
 10689 0084 0222     		movs	r2, #2
 10690 0086 E9E7     		b	.L1306
 10691              	.L1311:
 10692 0088 551C     		adds	r5, r2, #1
 10693 008a 01AB     		add	r3, sp, #4
 10694 008c 5A19     		adds	r2, r3, r5
 10695 008e C921     		movs	r1, #201
 10696 0090 2046     		mov	r0, r4
 10697 0092 FFF7FEFF 		bl	ism330dhcx_ln_pg_write_byte
 10698 0096 0346     		mov	r3, r0
 10699 0098 0028     		cmp	r0, #0
 10700 009a E0D1     		bne	.L1305
 10701 009c 0135     		adds	r5, r5, #1
 10702 009e EDB2     		uxtb	r5, r5
 10703 00a0 01AB     		add	r3, sp, #4
 10704 00a2 5A19     		adds	r2, r3, r5
 10705 00a4 CA21     		movs	r1, #202
 10706 00a6 2046     		mov	r0, r4
 10707 00a8 FFF7FEFF 		bl	ism330dhcx_ln_pg_write_byte
 10708 00ac 0346     		mov	r3, r0
 10709 00ae 0028     		cmp	r0, #0
 10710 00b0 D5D1     		bne	.L1305
 10711 00b2 0135     		adds	r5, r5, #1
 10712 00b4 EDB2     		uxtb	r5, r5
 10713 00b6 01AB     		add	r3, sp, #4
 10714 00b8 5A19     		adds	r2, r3, r5
 10715 00ba CB21     		movs	r1, #203
 10716 00bc 2046     		mov	r0, r4
 10717 00be FFF7FEFF 		bl	ism330dhcx_ln_pg_write_byte
 10718 00c2 0346     		mov	r3, r0
 10719 00c4 0028     		cmp	r0, #0
 10720 00c6 CAD1     		bne	.L1305
 10721 00c8 0135     		adds	r5, r5, #1
 10722 00ca EDB2     		uxtb	r5, r5
 10723 00cc 01AB     		add	r3, sp, #4
 10724 00ce 5A19     		adds	r2, r3, r5
 10725 00d0 CC21     		movs	r1, #204
 10726 00d2 2046     		mov	r0, r4
 10727 00d4 FFF7FEFF 		bl	ism330dhcx_ln_pg_write_byte
 10728 00d8 0346     		mov	r3, r0
 10729 00da 0028     		cmp	r0, #0
 10730 00dc BFD1     		bne	.L1305
 10731 00de 0135     		adds	r5, r5, #1
 10732 00e0 EDB2     		uxtb	r5, r5
 10733 00e2 01AB     		add	r3, sp, #4
 10734 00e4 5A19     		adds	r2, r3, r5
 10735 00e6 CD21     		movs	r1, #205
 10736 00e8 2046     		mov	r0, r4
 10737 00ea FFF7FEFF 		bl	ism330dhcx_ln_pg_write_byte
 10738 00ee 0346     		mov	r3, r0
ARM GAS  C:\Temp\ccOH3Pt6.s 			page 180


 10739 00f0 0028     		cmp	r0, #0
 10740 00f2 B4D1     		bne	.L1305
 10741 00f4 0135     		adds	r5, r5, #1
 10742 00f6 EDB2     		uxtb	r5, r5
 10743 00f8 01AB     		add	r3, sp, #4
 10744 00fa 5A19     		adds	r2, r3, r5
 10745 00fc CE21     		movs	r1, #206
 10746 00fe 2046     		mov	r0, r4
 10747 0100 FFF7FEFF 		bl	ism330dhcx_ln_pg_write_byte
 10748 0104 0346     		mov	r3, r0
 10749 0106 0028     		cmp	r0, #0
 10750 0108 A9D1     		bne	.L1305
 10751 010a 6A1C     		adds	r2, r5, #1
 10752 010c D5B2     		uxtb	r5, r2
 10753 010e 01AB     		add	r3, sp, #4
 10754 0110 53FA82F2 		uxtab	r2, r3, r2
 10755 0114 CF21     		movs	r1, #207
 10756 0116 2046     		mov	r0, r4
 10757 0118 FFF7FEFF 		bl	ism330dhcx_ln_pg_write_byte
 10758 011c 0346     		mov	r3, r0
 10759 011e 0028     		cmp	r0, #0
 10760 0120 9DD1     		bne	.L1305
 10761 0122 6A1C     		adds	r2, r5, #1
 10762 0124 D5B2     		uxtb	r5, r2
 10763 0126 01AB     		add	r3, sp, #4
 10764 0128 53FA82F2 		uxtab	r2, r3, r2
 10765 012c D021     		movs	r1, #208
 10766 012e 2046     		mov	r0, r4
 10767 0130 FFF7FEFF 		bl	ism330dhcx_ln_pg_write_byte
 10768 0134 0346     		mov	r3, r0
 10769 0136 0028     		cmp	r0, #0
 10770 0138 91D1     		bne	.L1305
 10771 013a 6A1C     		adds	r2, r5, #1
 10772 013c 01AB     		add	r3, sp, #4
 10773 013e 53FA82F2 		uxtab	r2, r3, r2
 10774 0142 D121     		movs	r1, #209
 10775 0144 2046     		mov	r0, r4
 10776 0146 FFF7FEFF 		bl	ism330dhcx_ln_pg_write_byte
 10777 014a 0346     		mov	r3, r0
 10778 014c 87E7     		b	.L1305
 10780              		.section	.text.ism330dhcx_mag_soft_iron_get,"ax",%progbits
 10781              		.align	1
 10782              		.global	ism330dhcx_mag_soft_iron_get
 10783              		.syntax unified
 10784              		.thumb
 10785              		.thumb_func
 10787              	ism330dhcx_mag_soft_iron_get:
 10788              		@ args = 0, pretend = 0, frame = 16
 10789              		@ frame_needed = 0, uses_anonymous_args = 0
 10790 0000 70B5     		push	{r4, r5, r6, lr}
 10791 0002 84B0     		sub	sp, sp, #16
 10792 0004 0546     		mov	r5, r0
 10793 0006 0C46     		mov	r4, r1
 10794 0008 01AA     		add	r2, sp, #4
 10795 000a C621     		movs	r1, #198
 10796 000c FFF7FEFF 		bl	ism330dhcx_ln_pg_read_byte
 10797 0010 0028     		cmp	r0, #0
ARM GAS  C:\Temp\ccOH3Pt6.s 			page 181


 10798 0012 36D0     		beq	.L1317
 10799 0014 0246     		mov	r2, r0
 10800 0016 0023     		movs	r3, #0
 10801              	.L1313:
 10802 0018 002A     		cmp	r2, #0
 10803 001a 44D0     		beq	.L1318
 10804              	.L1314:
 10805 001c 9DF80510 		ldrb	r1, [sp, #5]	@ zero_extendqisi2
 10806 0020 2180     		strh	r1, [r4]	@ movhi
 10807 0022 9DF80430 		ldrb	r3, [sp, #4]	@ zero_extendqisi2
 10808 0026 03EB0123 		add	r3, r3, r1, lsl #8
 10809 002a 2380     		strh	r3, [r4]	@ movhi
 10810 002c 9DF80710 		ldrb	r1, [sp, #7]	@ zero_extendqisi2
 10811 0030 6180     		strh	r1, [r4, #2]	@ movhi
 10812 0032 9DF80630 		ldrb	r3, [sp, #6]	@ zero_extendqisi2
 10813 0036 03EB0123 		add	r3, r3, r1, lsl #8
 10814 003a 6380     		strh	r3, [r4, #2]	@ movhi
 10815 003c 9DF80910 		ldrb	r1, [sp, #9]	@ zero_extendqisi2
 10816 0040 A180     		strh	r1, [r4, #4]	@ movhi
 10817 0042 9DF80830 		ldrb	r3, [sp, #8]	@ zero_extendqisi2
 10818 0046 03EB0123 		add	r3, r3, r1, lsl #8
 10819 004a A380     		strh	r3, [r4, #4]	@ movhi
 10820 004c 9DF80B10 		ldrb	r1, [sp, #11]	@ zero_extendqisi2
 10821 0050 E180     		strh	r1, [r4, #6]	@ movhi
 10822 0052 9DF80A30 		ldrb	r3, [sp, #10]	@ zero_extendqisi2
 10823 0056 03EB0123 		add	r3, r3, r1, lsl #8
 10824 005a E380     		strh	r3, [r4, #6]	@ movhi
 10825 005c 9DF80D10 		ldrb	r1, [sp, #13]	@ zero_extendqisi2
 10826 0060 2181     		strh	r1, [r4, #8]	@ movhi
 10827 0062 9DF80C30 		ldrb	r3, [sp, #12]	@ zero_extendqisi2
 10828 0066 03EB0123 		add	r3, r3, r1, lsl #8
 10829 006a 2381     		strh	r3, [r4, #8]	@ movhi
 10830 006c 9DF80F10 		ldrb	r1, [sp, #15]	@ zero_extendqisi2
 10831 0070 6181     		strh	r1, [r4, #10]	@ movhi
 10832 0072 9DF80E30 		ldrb	r3, [sp, #14]	@ zero_extendqisi2
 10833 0076 03EB0123 		add	r3, r3, r1, lsl #8
 10834 007a A381     		strh	r3, [r4, #12]	@ movhi
 10835 007c 1046     		mov	r0, r2
 10836 007e 04B0     		add	sp, sp, #16
 10837              		@ sp needed
 10838 0080 70BD     		pop	{r4, r5, r6, pc}
 10839              	.L1317:
 10840 0082 0DF10502 		add	r2, sp, #5
 10841 0086 C721     		movs	r1, #199
 10842 0088 2846     		mov	r0, r5
 10843 008a FFF7FEFF 		bl	ism330dhcx_ln_pg_read_byte
 10844 008e 0246     		mov	r2, r0
 10845 0090 0028     		cmp	r0, #0
 10846 0092 C3D1     		bne	.L1314
 10847 0094 0DF10602 		add	r2, sp, #6
 10848 0098 C821     		movs	r1, #200
 10849 009a 2846     		mov	r0, r5
 10850 009c FFF7FEFF 		bl	ism330dhcx_ln_pg_read_byte
 10851 00a0 0246     		mov	r2, r0
 10852 00a2 0223     		movs	r3, #2
 10853 00a4 B8E7     		b	.L1313
 10854              	.L1318:
ARM GAS  C:\Temp\ccOH3Pt6.s 			page 182


 10855 00a6 5E1C     		adds	r6, r3, #1
 10856 00a8 01AB     		add	r3, sp, #4
 10857 00aa 9A19     		adds	r2, r3, r6
 10858 00ac C921     		movs	r1, #201
 10859 00ae 2846     		mov	r0, r5
 10860 00b0 FFF7FEFF 		bl	ism330dhcx_ln_pg_read_byte
 10861 00b4 0246     		mov	r2, r0
 10862 00b6 0028     		cmp	r0, #0
 10863 00b8 B0D1     		bne	.L1314
 10864 00ba 0136     		adds	r6, r6, #1
 10865 00bc F6B2     		uxtb	r6, r6
 10866 00be 01AB     		add	r3, sp, #4
 10867 00c0 9A19     		adds	r2, r3, r6
 10868 00c2 CA21     		movs	r1, #202
 10869 00c4 2846     		mov	r0, r5
 10870 00c6 FFF7FEFF 		bl	ism330dhcx_ln_pg_read_byte
 10871 00ca 0246     		mov	r2, r0
 10872 00cc 0028     		cmp	r0, #0
 10873 00ce A5D1     		bne	.L1314
 10874 00d0 0136     		adds	r6, r6, #1
 10875 00d2 F6B2     		uxtb	r6, r6
 10876 00d4 01AB     		add	r3, sp, #4
 10877 00d6 9A19     		adds	r2, r3, r6
 10878 00d8 CB21     		movs	r1, #203
 10879 00da 2846     		mov	r0, r5
 10880 00dc FFF7FEFF 		bl	ism330dhcx_ln_pg_read_byte
 10881 00e0 0246     		mov	r2, r0
 10882 00e2 0028     		cmp	r0, #0
 10883 00e4 9AD1     		bne	.L1314
 10884 00e6 0136     		adds	r6, r6, #1
 10885 00e8 F6B2     		uxtb	r6, r6
 10886 00ea 01AB     		add	r3, sp, #4
 10887 00ec 9A19     		adds	r2, r3, r6
 10888 00ee CC21     		movs	r1, #204
 10889 00f0 2846     		mov	r0, r5
 10890 00f2 FFF7FEFF 		bl	ism330dhcx_ln_pg_read_byte
 10891 00f6 0246     		mov	r2, r0
 10892 00f8 0028     		cmp	r0, #0
 10893 00fa 8FD1     		bne	.L1314
 10894 00fc 0136     		adds	r6, r6, #1
 10895 00fe F6B2     		uxtb	r6, r6
 10896 0100 01AB     		add	r3, sp, #4
 10897 0102 9A19     		adds	r2, r3, r6
 10898 0104 CD21     		movs	r1, #205
 10899 0106 2846     		mov	r0, r5
 10900 0108 FFF7FEFF 		bl	ism330dhcx_ln_pg_read_byte
 10901 010c 0246     		mov	r2, r0
 10902 010e 0028     		cmp	r0, #0
 10903 0110 84D1     		bne	.L1314
 10904 0112 0136     		adds	r6, r6, #1
 10905 0114 F6B2     		uxtb	r6, r6
 10906 0116 01AB     		add	r3, sp, #4
 10907 0118 9A19     		adds	r2, r3, r6
 10908 011a CE21     		movs	r1, #206
 10909 011c 2846     		mov	r0, r5
 10910 011e FFF7FEFF 		bl	ism330dhcx_ln_pg_read_byte
 10911 0122 0246     		mov	r2, r0
ARM GAS  C:\Temp\ccOH3Pt6.s 			page 183


 10912 0124 0028     		cmp	r0, #0
 10913 0126 7FF479AF 		bne	.L1314
 10914 012a 721C     		adds	r2, r6, #1
 10915 012c D6B2     		uxtb	r6, r2
 10916 012e 01AB     		add	r3, sp, #4
 10917 0130 53FA82F2 		uxtab	r2, r3, r2
 10918 0134 CF21     		movs	r1, #207
 10919 0136 2846     		mov	r0, r5
 10920 0138 FFF7FEFF 		bl	ism330dhcx_ln_pg_read_byte
 10921 013c 0246     		mov	r2, r0
 10922 013e 0028     		cmp	r0, #0
 10923 0140 7FF46CAF 		bne	.L1314
 10924 0144 721C     		adds	r2, r6, #1
 10925 0146 D6B2     		uxtb	r6, r2
 10926 0148 01AB     		add	r3, sp, #4
 10927 014a 53FA82F2 		uxtab	r2, r3, r2
 10928 014e D021     		movs	r1, #208
 10929 0150 2846     		mov	r0, r5
 10930 0152 FFF7FEFF 		bl	ism330dhcx_ln_pg_read_byte
 10931 0156 0246     		mov	r2, r0
 10932 0158 0028     		cmp	r0, #0
 10933 015a 7FF45FAF 		bne	.L1314
 10934 015e 721C     		adds	r2, r6, #1
 10935 0160 01AB     		add	r3, sp, #4
 10936 0162 53FA82F2 		uxtab	r2, r3, r2
 10937 0166 D121     		movs	r1, #209
 10938 0168 2846     		mov	r0, r5
 10939 016a FFF7FEFF 		bl	ism330dhcx_ln_pg_read_byte
 10940 016e 0246     		mov	r2, r0
 10941 0170 54E7     		b	.L1314
 10943              		.section	.text.ism330dhcx_mag_z_orient_set,"ax",%progbits
 10944              		.align	1
 10945              		.global	ism330dhcx_mag_z_orient_set
 10946              		.syntax unified
 10947              		.thumb
 10948              		.thumb_func
 10950              	ism330dhcx_mag_z_orient_set:
 10951              		@ args = 0, pretend = 0, frame = 8
 10952              		@ frame_needed = 0, uses_anonymous_args = 0
 10953 0000 30B5     		push	{r4, r5, lr}
 10954 0002 83B0     		sub	sp, sp, #12
 10955 0004 0446     		mov	r4, r0
 10956 0006 0D46     		mov	r5, r1
 10957 0008 01AA     		add	r2, sp, #4
 10958 000a D421     		movs	r1, #212
 10959 000c FFF7FEFF 		bl	ism330dhcx_ln_pg_read_byte
 10960 0010 08B1     		cbz	r0, .L1322
 10961              	.L1319:
 10962 0012 03B0     		add	sp, sp, #12
 10963              		@ sp needed
 10964 0014 30BD     		pop	{r4, r5, pc}
 10965              	.L1322:
 10966 0016 9DF80430 		ldrb	r3, [sp, #4]	@ zero_extendqisi2
 10967 001a 65F30203 		bfi	r3, r5, #0, #3
 10968 001e 8DF80430 		strb	r3, [sp, #4]
 10969 0022 01AA     		add	r2, sp, #4
 10970 0024 D421     		movs	r1, #212
ARM GAS  C:\Temp\ccOH3Pt6.s 			page 184


 10971 0026 2046     		mov	r0, r4
 10972 0028 FFF7FEFF 		bl	ism330dhcx_ln_pg_write_byte
 10973 002c F1E7     		b	.L1319
 10975              		.section	.text.ism330dhcx_mag_z_orient_get,"ax",%progbits
 10976              		.align	1
 10977              		.global	ism330dhcx_mag_z_orient_get
 10978              		.syntax unified
 10979              		.thumb
 10980              		.thumb_func
 10982              	ism330dhcx_mag_z_orient_get:
 10983              		@ args = 0, pretend = 0, frame = 8
 10984              		@ frame_needed = 0, uses_anonymous_args = 0
 10985 0000 10B5     		push	{r4, lr}
 10986 0002 82B0     		sub	sp, sp, #8
 10987 0004 0C46     		mov	r4, r1
 10988 0006 01AA     		add	r2, sp, #4
 10989 0008 D421     		movs	r1, #212
 10990 000a FFF7FEFF 		bl	ism330dhcx_ln_pg_read_byte
 10991 000e 9DF80430 		ldrb	r3, [sp, #4]	@ zero_extendqisi2
 10992 0012 03F00703 		and	r3, r3, #7
 10993 0016 052B     		cmp	r3, #5
 10994 0018 17D8     		bhi	.L1324
 10995 001a DFE803F0 		tbb	[pc, r3]
 10996              	.L1326:
 10997 001e 03       		.byte	(.L1331-.L1326)/2
 10998 001f 07       		.byte	(.L1330-.L1326)/2
 10999 0020 0A       		.byte	(.L1329-.L1326)/2
 11000 0021 0D       		.byte	(.L1328-.L1326)/2
 11001 0022 10       		.byte	(.L1327-.L1326)/2
 11002 0023 13       		.byte	(.L1325-.L1326)/2
 11003              		.p2align 1
 11004              	.L1331:
 11005 0024 0023     		movs	r3, #0
 11006 0026 2370     		strb	r3, [r4]
 11007              	.L1323:
 11008 0028 02B0     		add	sp, sp, #8
 11009              		@ sp needed
 11010 002a 10BD     		pop	{r4, pc}
 11011              	.L1330:
 11012 002c 0123     		movs	r3, #1
 11013 002e 2370     		strb	r3, [r4]
 11014 0030 FAE7     		b	.L1323
 11015              	.L1329:
 11016 0032 0223     		movs	r3, #2
 11017 0034 2370     		strb	r3, [r4]
 11018 0036 F7E7     		b	.L1323
 11019              	.L1328:
 11020 0038 0323     		movs	r3, #3
 11021 003a 2370     		strb	r3, [r4]
 11022 003c F4E7     		b	.L1323
 11023              	.L1327:
 11024 003e 0423     		movs	r3, #4
 11025 0040 2370     		strb	r3, [r4]
 11026 0042 F1E7     		b	.L1323
 11027              	.L1325:
 11028 0044 0523     		movs	r3, #5
 11029 0046 2370     		strb	r3, [r4]
ARM GAS  C:\Temp\ccOH3Pt6.s 			page 185


 11030 0048 EEE7     		b	.L1323
 11031              	.L1324:
 11032 004a 0023     		movs	r3, #0
 11033 004c 2370     		strb	r3, [r4]
 11034 004e EBE7     		b	.L1323
 11036              		.section	.text.ism330dhcx_mag_y_orient_set,"ax",%progbits
 11037              		.align	1
 11038              		.global	ism330dhcx_mag_y_orient_set
 11039              		.syntax unified
 11040              		.thumb
 11041              		.thumb_func
 11043              	ism330dhcx_mag_y_orient_set:
 11044              		@ args = 0, pretend = 0, frame = 8
 11045              		@ frame_needed = 0, uses_anonymous_args = 0
 11046 0000 30B5     		push	{r4, r5, lr}
 11047 0002 83B0     		sub	sp, sp, #12
 11048 0004 0446     		mov	r4, r0
 11049 0006 0D46     		mov	r5, r1
 11050 0008 01AA     		add	r2, sp, #4
 11051 000a D421     		movs	r1, #212
 11052 000c FFF7FEFF 		bl	ism330dhcx_ln_pg_read_byte
 11053 0010 08B1     		cbz	r0, .L1337
 11054              	.L1334:
 11055 0012 03B0     		add	sp, sp, #12
 11056              		@ sp needed
 11057 0014 30BD     		pop	{r4, r5, pc}
 11058              	.L1337:
 11059 0016 9DF80430 		ldrb	r3, [sp, #4]	@ zero_extendqisi2
 11060 001a 65F30613 		bfi	r3, r5, #4, #3
 11061 001e 8DF80430 		strb	r3, [sp, #4]
 11062 0022 01AA     		add	r2, sp, #4
 11063 0024 D421     		movs	r1, #212
 11064 0026 2046     		mov	r0, r4
 11065 0028 FFF7FEFF 		bl	ism330dhcx_ln_pg_write_byte
 11066 002c F1E7     		b	.L1334
 11068              		.section	.text.ism330dhcx_mag_y_orient_get,"ax",%progbits
 11069              		.align	1
 11070              		.global	ism330dhcx_mag_y_orient_get
 11071              		.syntax unified
 11072              		.thumb
 11073              		.thumb_func
 11075              	ism330dhcx_mag_y_orient_get:
 11076              		@ args = 0, pretend = 0, frame = 8
 11077              		@ frame_needed = 0, uses_anonymous_args = 0
 11078 0000 10B5     		push	{r4, lr}
 11079 0002 82B0     		sub	sp, sp, #8
 11080 0004 0C46     		mov	r4, r1
 11081 0006 01AA     		add	r2, sp, #4
 11082 0008 D421     		movs	r1, #212
 11083 000a FFF7FEFF 		bl	ism330dhcx_ln_pg_read_byte
 11084 000e 9DF80430 		ldrb	r3, [sp, #4]	@ zero_extendqisi2
 11085 0012 C3F30213 		ubfx	r3, r3, #4, #3
 11086 0016 052B     		cmp	r3, #5
 11087 0018 17D8     		bhi	.L1339
 11088 001a DFE803F0 		tbb	[pc, r3]
 11089              	.L1341:
 11090 001e 03       		.byte	(.L1346-.L1341)/2
ARM GAS  C:\Temp\ccOH3Pt6.s 			page 186


 11091 001f 07       		.byte	(.L1345-.L1341)/2
 11092 0020 0A       		.byte	(.L1344-.L1341)/2
 11093 0021 0D       		.byte	(.L1343-.L1341)/2
 11094 0022 10       		.byte	(.L1342-.L1341)/2
 11095 0023 13       		.byte	(.L1340-.L1341)/2
 11096              		.p2align 1
 11097              	.L1346:
 11098 0024 0023     		movs	r3, #0
 11099 0026 2370     		strb	r3, [r4]
 11100              	.L1338:
 11101 0028 02B0     		add	sp, sp, #8
 11102              		@ sp needed
 11103 002a 10BD     		pop	{r4, pc}
 11104              	.L1345:
 11105 002c 0123     		movs	r3, #1
 11106 002e 2370     		strb	r3, [r4]
 11107 0030 FAE7     		b	.L1338
 11108              	.L1344:
 11109 0032 0223     		movs	r3, #2
 11110 0034 2370     		strb	r3, [r4]
 11111 0036 F7E7     		b	.L1338
 11112              	.L1343:
 11113 0038 0323     		movs	r3, #3
 11114 003a 2370     		strb	r3, [r4]
 11115 003c F4E7     		b	.L1338
 11116              	.L1342:
 11117 003e 0423     		movs	r3, #4
 11118 0040 2370     		strb	r3, [r4]
 11119 0042 F1E7     		b	.L1338
 11120              	.L1340:
 11121 0044 0523     		movs	r3, #5
 11122 0046 2370     		strb	r3, [r4]
 11123 0048 EEE7     		b	.L1338
 11124              	.L1339:
 11125 004a 0023     		movs	r3, #0
 11126 004c 2370     		strb	r3, [r4]
 11127 004e EBE7     		b	.L1338
 11129              		.section	.text.ism330dhcx_mag_x_orient_set,"ax",%progbits
 11130              		.align	1
 11131              		.global	ism330dhcx_mag_x_orient_set
 11132              		.syntax unified
 11133              		.thumb
 11134              		.thumb_func
 11136              	ism330dhcx_mag_x_orient_set:
 11137              		@ args = 0, pretend = 0, frame = 8
 11138              		@ frame_needed = 0, uses_anonymous_args = 0
 11139 0000 30B5     		push	{r4, r5, lr}
 11140 0002 83B0     		sub	sp, sp, #12
 11141 0004 0446     		mov	r4, r0
 11142 0006 0D46     		mov	r5, r1
 11143 0008 01AA     		add	r2, sp, #4
 11144 000a D521     		movs	r1, #213
 11145 000c FFF7FEFF 		bl	ism330dhcx_ln_pg_read_byte
 11146 0010 08B1     		cbz	r0, .L1352
 11147              	.L1349:
 11148 0012 03B0     		add	sp, sp, #12
 11149              		@ sp needed
ARM GAS  C:\Temp\ccOH3Pt6.s 			page 187


 11150 0014 30BD     		pop	{r4, r5, pc}
 11151              	.L1352:
 11152 0016 9DF80430 		ldrb	r3, [sp, #4]	@ zero_extendqisi2
 11153 001a 65F30203 		bfi	r3, r5, #0, #3
 11154 001e 8DF80430 		strb	r3, [sp, #4]
 11155 0022 01AA     		add	r2, sp, #4
 11156 0024 D521     		movs	r1, #213
 11157 0026 2046     		mov	r0, r4
 11158 0028 FFF7FEFF 		bl	ism330dhcx_ln_pg_write_byte
 11159 002c F1E7     		b	.L1349
 11161              		.section	.text.ism330dhcx_mag_x_orient_get,"ax",%progbits
 11162              		.align	1
 11163              		.global	ism330dhcx_mag_x_orient_get
 11164              		.syntax unified
 11165              		.thumb
 11166              		.thumb_func
 11168              	ism330dhcx_mag_x_orient_get:
 11169              		@ args = 0, pretend = 0, frame = 8
 11170              		@ frame_needed = 0, uses_anonymous_args = 0
 11171 0000 10B5     		push	{r4, lr}
 11172 0002 82B0     		sub	sp, sp, #8
 11173 0004 0C46     		mov	r4, r1
 11174 0006 01AA     		add	r2, sp, #4
 11175 0008 D521     		movs	r1, #213
 11176 000a FFF7FEFF 		bl	ism330dhcx_ln_pg_read_byte
 11177 000e 9DF80430 		ldrb	r3, [sp, #4]	@ zero_extendqisi2
 11178 0012 03F00703 		and	r3, r3, #7
 11179 0016 052B     		cmp	r3, #5
 11180 0018 17D8     		bhi	.L1354
 11181 001a DFE803F0 		tbb	[pc, r3]
 11182              	.L1356:
 11183 001e 03       		.byte	(.L1361-.L1356)/2
 11184 001f 07       		.byte	(.L1360-.L1356)/2
 11185 0020 0A       		.byte	(.L1359-.L1356)/2
 11186 0021 0D       		.byte	(.L1358-.L1356)/2
 11187 0022 10       		.byte	(.L1357-.L1356)/2
 11188 0023 13       		.byte	(.L1355-.L1356)/2
 11189              		.p2align 1
 11190              	.L1361:
 11191 0024 0023     		movs	r3, #0
 11192 0026 2370     		strb	r3, [r4]
 11193              	.L1353:
 11194 0028 02B0     		add	sp, sp, #8
 11195              		@ sp needed
 11196 002a 10BD     		pop	{r4, pc}
 11197              	.L1360:
 11198 002c 0123     		movs	r3, #1
 11199 002e 2370     		strb	r3, [r4]
 11200 0030 FAE7     		b	.L1353
 11201              	.L1359:
 11202 0032 0223     		movs	r3, #2
 11203 0034 2370     		strb	r3, [r4]
 11204 0036 F7E7     		b	.L1353
 11205              	.L1358:
 11206 0038 0323     		movs	r3, #3
 11207 003a 2370     		strb	r3, [r4]
 11208 003c F4E7     		b	.L1353
ARM GAS  C:\Temp\ccOH3Pt6.s 			page 188


 11209              	.L1357:
 11210 003e 0423     		movs	r3, #4
 11211 0040 2370     		strb	r3, [r4]
 11212 0042 F1E7     		b	.L1353
 11213              	.L1355:
 11214 0044 0523     		movs	r3, #5
 11215 0046 2370     		strb	r3, [r4]
 11216 0048 EEE7     		b	.L1353
 11217              	.L1354:
 11218 004a 0023     		movs	r3, #0
 11219 004c 2370     		strb	r3, [r4]
 11220 004e EBE7     		b	.L1353
 11222              		.section	.text.ism330dhcx_long_cnt_flag_data_ready_get,"ax",%progbits
 11223              		.align	1
 11224              		.global	ism330dhcx_long_cnt_flag_data_ready_get
 11225              		.syntax unified
 11226              		.thumb
 11227              		.thumb_func
 11229              	ism330dhcx_long_cnt_flag_data_ready_get:
 11230              		@ args = 0, pretend = 0, frame = 8
 11231              		@ frame_needed = 0, uses_anonymous_args = 0
 11232 0000 30B5     		push	{r4, r5, lr}
 11233 0002 83B0     		sub	sp, sp, #12
 11234 0004 0446     		mov	r4, r0
 11235 0006 0D46     		mov	r5, r1
 11236 0008 0221     		movs	r1, #2
 11237 000a FFF7FEFF 		bl	ism330dhcx_mem_bank_set
 11238 000e 08B1     		cbz	r0, .L1367
 11239              	.L1364:
 11240 0010 03B0     		add	sp, sp, #12
 11241              		@ sp needed
 11242 0012 30BD     		pop	{r4, r5, pc}
 11243              	.L1367:
 11244 0014 0123     		movs	r3, #1
 11245 0016 01AA     		add	r2, sp, #4
 11246 0018 1221     		movs	r1, #18
 11247 001a 2046     		mov	r0, r4
 11248 001c FFF7FEFF 		bl	ism330dhcx_read_reg
 11249 0020 0028     		cmp	r0, #0
 11250 0022 F5D1     		bne	.L1364
 11251 0024 9DF80430 		ldrb	r3, [sp, #4]	@ zero_extendqisi2
 11252 0028 C3F3C013 		ubfx	r3, r3, #7, #1
 11253 002c 2B70     		strb	r3, [r5]
 11254 002e 0021     		movs	r1, #0
 11255 0030 2046     		mov	r0, r4
 11256 0032 FFF7FEFF 		bl	ism330dhcx_mem_bank_set
 11257 0036 EBE7     		b	.L1364
 11259              		.section	.text.ism330dhcx_emb_fsm_en_set,"ax",%progbits
 11260              		.align	1
 11261              		.global	ism330dhcx_emb_fsm_en_set
 11262              		.syntax unified
 11263              		.thumb
 11264              		.thumb_func
 11266              	ism330dhcx_emb_fsm_en_set:
 11267              		@ args = 0, pretend = 0, frame = 8
 11268              		@ frame_needed = 0, uses_anonymous_args = 0
 11269 0000 30B5     		push	{r4, r5, lr}
ARM GAS  C:\Temp\ccOH3Pt6.s 			page 189


 11270 0002 83B0     		sub	sp, sp, #12
 11271 0004 0446     		mov	r4, r0
 11272 0006 0D46     		mov	r5, r1
 11273 0008 0221     		movs	r1, #2
 11274 000a FFF7FEFF 		bl	ism330dhcx_mem_bank_set
 11275 000e 0346     		mov	r3, r0
 11276 0010 18B1     		cbz	r0, .L1372
 11277              	.L1369:
 11278 0012 CBB1     		cbz	r3, .L1373
 11279              	.L1368:
 11280 0014 1846     		mov	r0, r3
 11281 0016 03B0     		add	sp, sp, #12
 11282              		@ sp needed
 11283 0018 30BD     		pop	{r4, r5, pc}
 11284              	.L1372:
 11285 001a 0123     		movs	r3, #1
 11286 001c 01AA     		add	r2, sp, #4
 11287 001e 0521     		movs	r1, #5
 11288 0020 2046     		mov	r0, r4
 11289 0022 FFF7FEFF 		bl	ism330dhcx_read_reg
 11290 0026 0346     		mov	r3, r0
 11291 0028 0028     		cmp	r0, #0
 11292 002a F3D1     		bne	.L1368
 11293 002c 9DF80430 		ldrb	r3, [sp, #4]	@ zero_extendqisi2
 11294 0030 65F30003 		bfi	r3, r5, #0, #1
 11295 0034 8DF80430 		strb	r3, [sp, #4]
 11296 0038 0123     		movs	r3, #1
 11297 003a 01AA     		add	r2, sp, #4
 11298 003c 0521     		movs	r1, #5
 11299 003e 2046     		mov	r0, r4
 11300 0040 FFF7FEFF 		bl	ism330dhcx_write_reg
 11301 0044 0346     		mov	r3, r0
 11302 0046 E4E7     		b	.L1369
 11303              	.L1373:
 11304 0048 0021     		movs	r1, #0
 11305 004a 2046     		mov	r0, r4
 11306 004c FFF7FEFF 		bl	ism330dhcx_mem_bank_set
 11307 0050 0346     		mov	r3, r0
 11308 0052 DFE7     		b	.L1368
 11310              		.section	.text.ism330dhcx_emb_fsm_en_get,"ax",%progbits
 11311              		.align	1
 11312              		.global	ism330dhcx_emb_fsm_en_get
 11313              		.syntax unified
 11314              		.thumb
 11315              		.thumb_func
 11317              	ism330dhcx_emb_fsm_en_get:
 11318              		@ args = 0, pretend = 0, frame = 8
 11319              		@ frame_needed = 0, uses_anonymous_args = 0
 11320 0000 30B5     		push	{r4, r5, lr}
 11321 0002 83B0     		sub	sp, sp, #12
 11322 0004 0546     		mov	r5, r0
 11323 0006 0C46     		mov	r4, r1
 11324 0008 0221     		movs	r1, #2
 11325 000a FFF7FEFF 		bl	ism330dhcx_mem_bank_set
 11326 000e 0346     		mov	r3, r0
 11327 0010 18B1     		cbz	r0, .L1378
 11328              	.L1375:
ARM GAS  C:\Temp\ccOH3Pt6.s 			page 190


 11329 0012 C3B1     		cbz	r3, .L1379
 11330              	.L1374:
 11331 0014 1846     		mov	r0, r3
 11332 0016 03B0     		add	sp, sp, #12
 11333              		@ sp needed
 11334 0018 30BD     		pop	{r4, r5, pc}
 11335              	.L1378:
 11336 001a 0123     		movs	r3, #1
 11337 001c 01AA     		add	r2, sp, #4
 11338 001e 0521     		movs	r1, #5
 11339 0020 2846     		mov	r0, r5
 11340 0022 FFF7FEFF 		bl	ism330dhcx_read_reg
 11341 0026 0346     		mov	r3, r0
 11342 0028 0028     		cmp	r0, #0
 11343 002a F3D1     		bne	.L1374
 11344 002c 9DF80430 		ldrb	r3, [sp, #4]	@ zero_extendqisi2
 11345 0030 C3F30003 		ubfx	r3, r3, #0, #1
 11346 0034 2370     		strb	r3, [r4]
 11347 0036 0123     		movs	r3, #1
 11348 0038 01AA     		add	r2, sp, #4
 11349 003a 0521     		movs	r1, #5
 11350 003c 2846     		mov	r0, r5
 11351 003e FFF7FEFF 		bl	ism330dhcx_write_reg
 11352 0042 0346     		mov	r3, r0
 11353 0044 E5E7     		b	.L1375
 11354              	.L1379:
 11355 0046 0021     		movs	r1, #0
 11356 0048 2846     		mov	r0, r5
 11357 004a FFF7FEFF 		bl	ism330dhcx_mem_bank_set
 11358 004e 0346     		mov	r3, r0
 11359 0050 E0E7     		b	.L1374
 11361              		.section	.text.ism330dhcx_fsm_enable_set,"ax",%progbits
 11362              		.align	1
 11363              		.global	ism330dhcx_fsm_enable_set
 11364              		.syntax unified
 11365              		.thumb
 11366              		.thumb_func
 11368              	ism330dhcx_fsm_enable_set:
 11369              		@ args = 0, pretend = 0, frame = 8
 11370              		@ frame_needed = 0, uses_anonymous_args = 0
 11371 0000 30B5     		push	{r4, r5, lr}
 11372 0002 83B0     		sub	sp, sp, #12
 11373 0004 0446     		mov	r4, r0
 11374 0006 0D46     		mov	r5, r1
 11375 0008 0221     		movs	r1, #2
 11376 000a FFF7FEFF 		bl	ism330dhcx_mem_bank_set
 11377 000e 0346     		mov	r3, r0
 11378 0010 18B1     		cbz	r0, .L1386
 11379              	.L1381:
 11380 0012 9BB1     		cbz	r3, .L1387
 11381              	.L1380:
 11382 0014 1846     		mov	r0, r3
 11383 0016 03B0     		add	sp, sp, #12
 11384              		@ sp needed
 11385 0018 30BD     		pop	{r4, r5, pc}
 11386              	.L1386:
 11387 001a 0123     		movs	r3, #1
ARM GAS  C:\Temp\ccOH3Pt6.s 			page 191


 11388 001c 2A46     		mov	r2, r5
 11389 001e 4621     		movs	r1, #70
 11390 0020 2046     		mov	r0, r4
 11391 0022 FFF7FEFF 		bl	ism330dhcx_write_reg
 11392 0026 0346     		mov	r3, r0
 11393 0028 0028     		cmp	r0, #0
 11394 002a F3D1     		bne	.L1380
 11395 002c 0123     		movs	r3, #1
 11396 002e EA18     		adds	r2, r5, r3
 11397 0030 4721     		movs	r1, #71
 11398 0032 2046     		mov	r0, r4
 11399 0034 FFF7FEFF 		bl	ism330dhcx_write_reg
 11400 0038 0346     		mov	r3, r0
 11401 003a EAE7     		b	.L1381
 11402              	.L1387:
 11403 003c 0123     		movs	r3, #1
 11404 003e 01AA     		add	r2, sp, #4
 11405 0040 0521     		movs	r1, #5
 11406 0042 2046     		mov	r0, r4
 11407 0044 FFF7FEFF 		bl	ism330dhcx_read_reg
 11408 0048 0346     		mov	r3, r0
 11409 004a 0028     		cmp	r0, #0
 11410 004c E2D1     		bne	.L1380
 11411 004e 2A78     		ldrb	r2, [r5]	@ zero_extendqisi2
 11412 0050 02F00103 		and	r3, r2, #1
 11413 0054 C2F34001 		ubfx	r1, r2, #1, #1
 11414 0058 0B43     		orrs	r3, r3, r1
 11415 005a C2F38001 		ubfx	r1, r2, #2, #1
 11416 005e 0B43     		orrs	r3, r3, r1
 11417 0060 C2F3C001 		ubfx	r1, r2, #3, #1
 11418 0064 0B43     		orrs	r3, r3, r1
 11419 0066 C2F30011 		ubfx	r1, r2, #4, #1
 11420 006a 0B43     		orrs	r3, r3, r1
 11421 006c C2F34011 		ubfx	r1, r2, #5, #1
 11422 0070 0B43     		orrs	r3, r3, r1
 11423 0072 C2F38011 		ubfx	r1, r2, #6, #1
 11424 0076 0B43     		orrs	r3, r3, r1
 11425 0078 43EAD213 		orr	r3, r3, r2, lsr #7
 11426 007c 6A78     		ldrb	r2, [r5, #1]	@ zero_extendqisi2
 11427 007e 02F00101 		and	r1, r2, #1
 11428 0082 0B43     		orrs	r3, r3, r1
 11429 0084 C2F34001 		ubfx	r1, r2, #1, #1
 11430 0088 0B43     		orrs	r3, r3, r1
 11431 008a C2F38001 		ubfx	r1, r2, #2, #1
 11432 008e 0B43     		orrs	r3, r3, r1
 11433 0090 C2F3C001 		ubfx	r1, r2, #3, #1
 11434 0094 0B43     		orrs	r3, r3, r1
 11435 0096 C2F30011 		ubfx	r1, r2, #4, #1
 11436 009a 0B43     		orrs	r3, r3, r1
 11437 009c C2F34011 		ubfx	r1, r2, #5, #1
 11438 00a0 0B43     		orrs	r3, r3, r1
 11439 00a2 C2F38011 		ubfx	r1, r2, #6, #1
 11440 00a6 0B43     		orrs	r3, r3, r1
 11441 00a8 53EAD213 		orrs	r3, r3, r2, lsr #7
 11442 00ac 14D0     		beq	.L1383
 11443 00ae 9DF80430 		ldrb	r3, [sp, #4]	@ zero_extendqisi2
 11444 00b2 43F00103 		orr	r3, r3, #1
ARM GAS  C:\Temp\ccOH3Pt6.s 			page 192


 11445 00b6 8DF80430 		strb	r3, [sp, #4]
 11446              	.L1384:
 11447 00ba 0123     		movs	r3, #1
 11448 00bc 01AA     		add	r2, sp, #4
 11449 00be 0521     		movs	r1, #5
 11450 00c0 2046     		mov	r0, r4
 11451 00c2 FFF7FEFF 		bl	ism330dhcx_write_reg
 11452 00c6 0346     		mov	r3, r0
 11453 00c8 0028     		cmp	r0, #0
 11454 00ca A3D1     		bne	.L1380
 11455 00cc 0021     		movs	r1, #0
 11456 00ce 2046     		mov	r0, r4
 11457 00d0 FFF7FEFF 		bl	ism330dhcx_mem_bank_set
 11458 00d4 0346     		mov	r3, r0
 11459 00d6 9DE7     		b	.L1380
 11460              	.L1383:
 11461 00d8 9DF80430 		ldrb	r3, [sp, #4]	@ zero_extendqisi2
 11462 00dc 6FF30003 		bfc	r3, #0, #1
 11463 00e0 8DF80430 		strb	r3, [sp, #4]
 11464 00e4 E9E7     		b	.L1384
 11466              		.section	.text.ism330dhcx_fsm_enable_get,"ax",%progbits
 11467              		.align	1
 11468              		.global	ism330dhcx_fsm_enable_get
 11469              		.syntax unified
 11470              		.thumb
 11471              		.thumb_func
 11473              	ism330dhcx_fsm_enable_get:
 11474              		@ args = 0, pretend = 0, frame = 0
 11475              		@ frame_needed = 0, uses_anonymous_args = 0
 11476 0000 38B5     		push	{r3, r4, r5, lr}
 11477 0002 0446     		mov	r4, r0
 11478 0004 0D46     		mov	r5, r1
 11479 0006 0221     		movs	r1, #2
 11480 0008 FFF7FEFF 		bl	ism330dhcx_mem_bank_set
 11481 000c 0346     		mov	r3, r0
 11482 000e 10B1     		cbz	r0, .L1392
 11483              	.L1389:
 11484 0010 93B1     		cbz	r3, .L1393
 11485              	.L1388:
 11486 0012 1846     		mov	r0, r3
 11487 0014 38BD     		pop	{r3, r4, r5, pc}
 11488              	.L1392:
 11489 0016 0123     		movs	r3, #1
 11490 0018 2A46     		mov	r2, r5
 11491 001a 4621     		movs	r1, #70
 11492 001c 2046     		mov	r0, r4
 11493 001e FFF7FEFF 		bl	ism330dhcx_read_reg
 11494 0022 0346     		mov	r3, r0
 11495 0024 0028     		cmp	r0, #0
 11496 0026 F4D1     		bne	.L1388
 11497 0028 0123     		movs	r3, #1
 11498 002a EA18     		adds	r2, r5, r3
 11499 002c 4721     		movs	r1, #71
 11500 002e 2046     		mov	r0, r4
 11501 0030 FFF7FEFF 		bl	ism330dhcx_read_reg
 11502 0034 0346     		mov	r3, r0
 11503 0036 EBE7     		b	.L1389
ARM GAS  C:\Temp\ccOH3Pt6.s 			page 193


 11504              	.L1393:
 11505 0038 0021     		movs	r1, #0
 11506 003a 2046     		mov	r0, r4
 11507 003c FFF7FEFF 		bl	ism330dhcx_mem_bank_set
 11508 0040 0346     		mov	r3, r0
 11509 0042 E6E7     		b	.L1388
 11511              		.section	.text.ism330dhcx_long_cnt_set,"ax",%progbits
 11512              		.align	1
 11513              		.global	ism330dhcx_long_cnt_set
 11514              		.syntax unified
 11515              		.thumb
 11516              		.thumb_func
 11518              	ism330dhcx_long_cnt_set:
 11519              		@ args = 0, pretend = 0, frame = 8
 11520              		@ frame_needed = 0, uses_anonymous_args = 0
 11521 0000 10B5     		push	{r4, lr}
 11522 0002 82B0     		sub	sp, sp, #8
 11523 0004 0446     		mov	r4, r0
 11524 0006 0B0A     		lsrs	r3, r1, #8
 11525 0008 8DF80530 		strb	r3, [sp, #5]
 11526 000c 8DF80410 		strb	r1, [sp, #4]
 11527 0010 0221     		movs	r1, #2
 11528 0012 FFF7FEFF 		bl	ism330dhcx_mem_bank_set
 11529 0016 08B1     		cbz	r0, .L1397
 11530              	.L1394:
 11531 0018 02B0     		add	sp, sp, #8
 11532              		@ sp needed
 11533 001a 10BD     		pop	{r4, pc}
 11534              	.L1397:
 11535 001c 0223     		movs	r3, #2
 11536 001e 01AA     		add	r2, sp, #4
 11537 0020 4821     		movs	r1, #72
 11538 0022 2046     		mov	r0, r4
 11539 0024 FFF7FEFF 		bl	ism330dhcx_write_reg
 11540 0028 0028     		cmp	r0, #0
 11541 002a F5D1     		bne	.L1394
 11542 002c 0021     		movs	r1, #0
 11543 002e 2046     		mov	r0, r4
 11544 0030 FFF7FEFF 		bl	ism330dhcx_mem_bank_set
 11545 0034 F0E7     		b	.L1394
 11547              		.section	.text.ism330dhcx_long_cnt_get,"ax",%progbits
 11548              		.align	1
 11549              		.global	ism330dhcx_long_cnt_get
 11550              		.syntax unified
 11551              		.thumb
 11552              		.thumb_func
 11554              	ism330dhcx_long_cnt_get:
 11555              		@ args = 0, pretend = 0, frame = 8
 11556              		@ frame_needed = 0, uses_anonymous_args = 0
 11557 0000 30B5     		push	{r4, r5, lr}
 11558 0002 83B0     		sub	sp, sp, #12
 11559 0004 0546     		mov	r5, r0
 11560 0006 0C46     		mov	r4, r1
 11561 0008 0221     		movs	r1, #2
 11562 000a FFF7FEFF 		bl	ism330dhcx_mem_bank_set
 11563 000e 08B1     		cbz	r0, .L1401
 11564              	.L1398:
ARM GAS  C:\Temp\ccOH3Pt6.s 			page 194


 11565 0010 03B0     		add	sp, sp, #12
 11566              		@ sp needed
 11567 0012 30BD     		pop	{r4, r5, pc}
 11568              	.L1401:
 11569 0014 0223     		movs	r3, #2
 11570 0016 01AA     		add	r2, sp, #4
 11571 0018 4821     		movs	r1, #72
 11572 001a 2846     		mov	r0, r5
 11573 001c FFF7FEFF 		bl	ism330dhcx_read_reg
 11574 0020 9DF80510 		ldrb	r1, [sp, #5]	@ zero_extendqisi2
 11575 0024 2180     		strh	r1, [r4]	@ movhi
 11576 0026 9DF80430 		ldrb	r3, [sp, #4]	@ zero_extendqisi2
 11577 002a 03EB0123 		add	r3, r3, r1, lsl #8
 11578 002e 2380     		strh	r3, [r4]	@ movhi
 11579 0030 0028     		cmp	r0, #0
 11580 0032 EDD1     		bne	.L1398
 11581 0034 0021     		movs	r1, #0
 11582 0036 2846     		mov	r0, r5
 11583 0038 FFF7FEFF 		bl	ism330dhcx_mem_bank_set
 11584 003c E8E7     		b	.L1398
 11586              		.section	.text.ism330dhcx_long_clr_set,"ax",%progbits
 11587              		.align	1
 11588              		.global	ism330dhcx_long_clr_set
 11589              		.syntax unified
 11590              		.thumb
 11591              		.thumb_func
 11593              	ism330dhcx_long_clr_set:
 11594              		@ args = 0, pretend = 0, frame = 8
 11595              		@ frame_needed = 0, uses_anonymous_args = 0
 11596 0000 30B5     		push	{r4, r5, lr}
 11597 0002 83B0     		sub	sp, sp, #12
 11598 0004 0446     		mov	r4, r0
 11599 0006 0D46     		mov	r5, r1
 11600 0008 0221     		movs	r1, #2
 11601 000a FFF7FEFF 		bl	ism330dhcx_mem_bank_set
 11602 000e 0346     		mov	r3, r0
 11603 0010 18B1     		cbz	r0, .L1406
 11604              	.L1403:
 11605 0012 CBB1     		cbz	r3, .L1407
 11606              	.L1402:
 11607 0014 1846     		mov	r0, r3
 11608 0016 03B0     		add	sp, sp, #12
 11609              		@ sp needed
 11610 0018 30BD     		pop	{r4, r5, pc}
 11611              	.L1406:
 11612 001a 0123     		movs	r3, #1
 11613 001c 01AA     		add	r2, sp, #4
 11614 001e 4A21     		movs	r1, #74
 11615 0020 2046     		mov	r0, r4
 11616 0022 FFF7FEFF 		bl	ism330dhcx_read_reg
 11617 0026 0346     		mov	r3, r0
 11618 0028 0028     		cmp	r0, #0
 11619 002a F3D1     		bne	.L1402
 11620 002c 9DF80430 		ldrb	r3, [sp, #4]	@ zero_extendqisi2
 11621 0030 65F30103 		bfi	r3, r5, #0, #2
 11622 0034 8DF80430 		strb	r3, [sp, #4]
 11623 0038 0123     		movs	r3, #1
ARM GAS  C:\Temp\ccOH3Pt6.s 			page 195


 11624 003a 01AA     		add	r2, sp, #4
 11625 003c 4A21     		movs	r1, #74
 11626 003e 2046     		mov	r0, r4
 11627 0040 FFF7FEFF 		bl	ism330dhcx_write_reg
 11628 0044 0346     		mov	r3, r0
 11629 0046 E4E7     		b	.L1403
 11630              	.L1407:
 11631 0048 0021     		movs	r1, #0
 11632 004a 2046     		mov	r0, r4
 11633 004c FFF7FEFF 		bl	ism330dhcx_mem_bank_set
 11634 0050 0346     		mov	r3, r0
 11635 0052 DFE7     		b	.L1402
 11637              		.section	.text.ism330dhcx_long_clr_get,"ax",%progbits
 11638              		.align	1
 11639              		.global	ism330dhcx_long_clr_get
 11640              		.syntax unified
 11641              		.thumb
 11642              		.thumb_func
 11644              	ism330dhcx_long_clr_get:
 11645              		@ args = 0, pretend = 0, frame = 8
 11646              		@ frame_needed = 0, uses_anonymous_args = 0
 11647 0000 30B5     		push	{r4, r5, lr}
 11648 0002 83B0     		sub	sp, sp, #12
 11649 0004 0546     		mov	r5, r0
 11650 0006 0C46     		mov	r4, r1
 11651 0008 0221     		movs	r1, #2
 11652 000a FFF7FEFF 		bl	ism330dhcx_mem_bank_set
 11653 000e 58B1     		cbz	r0, .L1415
 11654              	.L1409:
 11655 0010 9DF80430 		ldrb	r3, [sp, #4]	@ zero_extendqisi2
 11656 0014 03F00303 		and	r3, r3, #3
 11657 0018 012B     		cmp	r3, #1
 11658 001a 15D0     		beq	.L1410
 11659 001c 022B     		cmp	r3, #2
 11660 001e 16D0     		beq	.L1411
 11661 0020 7BB1     		cbz	r3, .L1416
 11662 0022 0023     		movs	r3, #0
 11663 0024 2370     		strb	r3, [r4]
 11664 0026 0DE0     		b	.L1408
 11665              	.L1415:
 11666 0028 0123     		movs	r3, #1
 11667 002a 01AA     		add	r2, sp, #4
 11668 002c 4A21     		movs	r1, #74
 11669 002e 2846     		mov	r0, r5
 11670 0030 FFF7FEFF 		bl	ism330dhcx_read_reg
 11671 0034 0028     		cmp	r0, #0
 11672 0036 EBD1     		bne	.L1409
 11673 0038 0021     		movs	r1, #0
 11674 003a 2846     		mov	r0, r5
 11675 003c FFF7FEFF 		bl	ism330dhcx_mem_bank_set
 11676 0040 E6E7     		b	.L1409
 11677              	.L1416:
 11678 0042 2370     		strb	r3, [r4]
 11679              	.L1408:
 11680 0044 03B0     		add	sp, sp, #12
 11681              		@ sp needed
 11682 0046 30BD     		pop	{r4, r5, pc}
ARM GAS  C:\Temp\ccOH3Pt6.s 			page 196


 11683              	.L1410:
 11684 0048 0123     		movs	r3, #1
 11685 004a 2370     		strb	r3, [r4]
 11686 004c FAE7     		b	.L1408
 11687              	.L1411:
 11688 004e 0223     		movs	r3, #2
 11689 0050 2370     		strb	r3, [r4]
 11690 0052 F7E7     		b	.L1408
 11692              		.section	.text.ism330dhcx_fsm_out_get,"ax",%progbits
 11693              		.align	1
 11694              		.global	ism330dhcx_fsm_out_get
 11695              		.syntax unified
 11696              		.thumb
 11697              		.thumb_func
 11699              	ism330dhcx_fsm_out_get:
 11700              		@ args = 0, pretend = 0, frame = 0
 11701              		@ frame_needed = 0, uses_anonymous_args = 0
 11702 0000 38B5     		push	{r3, r4, r5, lr}
 11703 0002 0446     		mov	r4, r0
 11704 0004 0D46     		mov	r5, r1
 11705 0006 0221     		movs	r1, #2
 11706 0008 FFF7FEFF 		bl	ism330dhcx_mem_bank_set
 11707 000c 00B1     		cbz	r0, .L1420
 11708              	.L1417:
 11709 000e 38BD     		pop	{r3, r4, r5, pc}
 11710              	.L1420:
 11711 0010 1023     		movs	r3, #16
 11712 0012 2A46     		mov	r2, r5
 11713 0014 4C21     		movs	r1, #76
 11714 0016 2046     		mov	r0, r4
 11715 0018 FFF7FEFF 		bl	ism330dhcx_read_reg
 11716 001c 0028     		cmp	r0, #0
 11717 001e F6D1     		bne	.L1417
 11718 0020 0021     		movs	r1, #0
 11719 0022 2046     		mov	r0, r4
 11720 0024 FFF7FEFF 		bl	ism330dhcx_mem_bank_set
 11721 0028 F1E7     		b	.L1417
 11723              		.section	.text.ism330dhcx_fsm_data_rate_set,"ax",%progbits
 11724              		.align	1
 11725              		.global	ism330dhcx_fsm_data_rate_set
 11726              		.syntax unified
 11727              		.thumb
 11728              		.thumb_func
 11730              	ism330dhcx_fsm_data_rate_set:
 11731              		@ args = 0, pretend = 0, frame = 8
 11732              		@ frame_needed = 0, uses_anonymous_args = 0
 11733 0000 30B5     		push	{r4, r5, lr}
 11734 0002 83B0     		sub	sp, sp, #12
 11735 0004 0546     		mov	r5, r0
 11736 0006 0C46     		mov	r4, r1
 11737 0008 0221     		movs	r1, #2
 11738 000a FFF7FEFF 		bl	ism330dhcx_mem_bank_set
 11739 000e 0346     		mov	r3, r0
 11740 0010 18B1     		cbz	r0, .L1425
 11741              	.L1422:
 11742 0012 23B3     		cbz	r3, .L1426
 11743              	.L1421:
ARM GAS  C:\Temp\ccOH3Pt6.s 			page 197


 11744 0014 1846     		mov	r0, r3
 11745 0016 03B0     		add	sp, sp, #12
 11746              		@ sp needed
 11747 0018 30BD     		pop	{r4, r5, pc}
 11748              	.L1425:
 11749 001a 0123     		movs	r3, #1
 11750 001c 01AA     		add	r2, sp, #4
 11751 001e 5F21     		movs	r1, #95
 11752 0020 2846     		mov	r0, r5
 11753 0022 FFF7FEFF 		bl	ism330dhcx_read_reg
 11754 0026 0346     		mov	r3, r0
 11755 0028 0028     		cmp	r0, #0
 11756 002a F3D1     		bne	.L1421
 11757 002c 9DF80430 		ldrb	r3, [sp, #4]	@ zero_extendqisi2
 11758 0030 0322     		movs	r2, #3
 11759 0032 62F30203 		bfi	r3, r2, #0, #3
 11760 0036 8DF80430 		strb	r3, [sp, #4]
 11761 003a DAB2     		uxtb	r2, r3
 11762 003c 0123     		movs	r3, #1
 11763 003e 63F34712 		bfi	r2, r3, #5, #3
 11764 0042 8DF80420 		strb	r2, [sp, #4]
 11765 0046 D2B2     		uxtb	r2, r2
 11766 0048 64F3C402 		bfi	r2, r4, #3, #2
 11767 004c 8DF80420 		strb	r2, [sp, #4]
 11768 0050 01AA     		add	r2, sp, #4
 11769 0052 5F21     		movs	r1, #95
 11770 0054 2846     		mov	r0, r5
 11771 0056 FFF7FEFF 		bl	ism330dhcx_write_reg
 11772 005a 0346     		mov	r3, r0
 11773 005c D9E7     		b	.L1422
 11774              	.L1426:
 11775 005e 0021     		movs	r1, #0
 11776 0060 2846     		mov	r0, r5
 11777 0062 FFF7FEFF 		bl	ism330dhcx_mem_bank_set
 11778 0066 0346     		mov	r3, r0
 11779 0068 D4E7     		b	.L1421
 11781              		.section	.text.ism330dhcx_fsm_data_rate_get,"ax",%progbits
 11782              		.align	1
 11783              		.global	ism330dhcx_fsm_data_rate_get
 11784              		.syntax unified
 11785              		.thumb
 11786              		.thumb_func
 11788              	ism330dhcx_fsm_data_rate_get:
 11789              		@ args = 0, pretend = 0, frame = 8
 11790              		@ frame_needed = 0, uses_anonymous_args = 0
 11791 0000 30B5     		push	{r4, r5, lr}
 11792 0002 83B0     		sub	sp, sp, #12
 11793 0004 0446     		mov	r4, r0
 11794 0006 0D46     		mov	r5, r1
 11795 0008 0221     		movs	r1, #2
 11796 000a FFF7FEFF 		bl	ism330dhcx_mem_bank_set
 11797 000e 48B1     		cbz	r0, .L1437
 11798              	.L1428:
 11799 0010 9DF80430 		ldrb	r3, [sp, #4]	@ zero_extendqisi2
 11800 0014 C3F3C103 		ubfx	r3, r3, #3, #2
 11801 0018 032B     		cmp	r3, #3
 11802 001a 1DD8     		bhi	.L1429
ARM GAS  C:\Temp\ccOH3Pt6.s 			page 198


 11803 001c DFE803F0 		tbb	[pc, r3]
 11804              	.L1431:
 11805 0020 0F       		.byte	(.L1434-.L1431)/2
 11806 0021 13       		.byte	(.L1433-.L1431)/2
 11807 0022 16       		.byte	(.L1432-.L1431)/2
 11808 0023 19       		.byte	(.L1430-.L1431)/2
 11809              		.p2align 1
 11810              	.L1437:
 11811 0024 0123     		movs	r3, #1
 11812 0026 01AA     		add	r2, sp, #4
 11813 0028 5F21     		movs	r1, #95
 11814 002a 2046     		mov	r0, r4
 11815 002c FFF7FEFF 		bl	ism330dhcx_read_reg
 11816 0030 0028     		cmp	r0, #0
 11817 0032 EDD1     		bne	.L1428
 11818 0034 0021     		movs	r1, #0
 11819 0036 2046     		mov	r0, r4
 11820 0038 FFF7FEFF 		bl	ism330dhcx_mem_bank_set
 11821 003c E8E7     		b	.L1428
 11822              	.L1434:
 11823 003e 0023     		movs	r3, #0
 11824 0040 2B70     		strb	r3, [r5]
 11825              	.L1427:
 11826 0042 03B0     		add	sp, sp, #12
 11827              		@ sp needed
 11828 0044 30BD     		pop	{r4, r5, pc}
 11829              	.L1433:
 11830 0046 0123     		movs	r3, #1
 11831 0048 2B70     		strb	r3, [r5]
 11832 004a FAE7     		b	.L1427
 11833              	.L1432:
 11834 004c 0223     		movs	r3, #2
 11835 004e 2B70     		strb	r3, [r5]
 11836 0050 F7E7     		b	.L1427
 11837              	.L1430:
 11838 0052 0323     		movs	r3, #3
 11839 0054 2B70     		strb	r3, [r5]
 11840 0056 F4E7     		b	.L1427
 11841              	.L1429:
 11842 0058 0023     		movs	r3, #0
 11843 005a 2B70     		strb	r3, [r5]
 11844 005c F1E7     		b	.L1427
 11846              		.section	.text.ism330dhcx_fsm_init_set,"ax",%progbits
 11847              		.align	1
 11848              		.global	ism330dhcx_fsm_init_set
 11849              		.syntax unified
 11850              		.thumb
 11851              		.thumb_func
 11853              	ism330dhcx_fsm_init_set:
 11854              		@ args = 0, pretend = 0, frame = 8
 11855              		@ frame_needed = 0, uses_anonymous_args = 0
 11856 0000 30B5     		push	{r4, r5, lr}
 11857 0002 83B0     		sub	sp, sp, #12
 11858 0004 0446     		mov	r4, r0
 11859 0006 0D46     		mov	r5, r1
 11860 0008 0221     		movs	r1, #2
 11861 000a FFF7FEFF 		bl	ism330dhcx_mem_bank_set
ARM GAS  C:\Temp\ccOH3Pt6.s 			page 199


 11862 000e 0346     		mov	r3, r0
 11863 0010 18B1     		cbz	r0, .L1442
 11864              	.L1439:
 11865 0012 CBB1     		cbz	r3, .L1443
 11866              	.L1438:
 11867 0014 1846     		mov	r0, r3
 11868 0016 03B0     		add	sp, sp, #12
 11869              		@ sp needed
 11870 0018 30BD     		pop	{r4, r5, pc}
 11871              	.L1442:
 11872 001a 0123     		movs	r3, #1
 11873 001c 01AA     		add	r2, sp, #4
 11874 001e 6721     		movs	r1, #103
 11875 0020 2046     		mov	r0, r4
 11876 0022 FFF7FEFF 		bl	ism330dhcx_read_reg
 11877 0026 0346     		mov	r3, r0
 11878 0028 0028     		cmp	r0, #0
 11879 002a F3D1     		bne	.L1438
 11880 002c 9DF80430 		ldrb	r3, [sp, #4]	@ zero_extendqisi2
 11881 0030 65F30003 		bfi	r3, r5, #0, #1
 11882 0034 8DF80430 		strb	r3, [sp, #4]
 11883 0038 0123     		movs	r3, #1
 11884 003a 01AA     		add	r2, sp, #4
 11885 003c 6721     		movs	r1, #103
 11886 003e 2046     		mov	r0, r4
 11887 0040 FFF7FEFF 		bl	ism330dhcx_write_reg
 11888 0044 0346     		mov	r3, r0
 11889 0046 E4E7     		b	.L1439
 11890              	.L1443:
 11891 0048 0021     		movs	r1, #0
 11892 004a 2046     		mov	r0, r4
 11893 004c FFF7FEFF 		bl	ism330dhcx_mem_bank_set
 11894 0050 0346     		mov	r3, r0
 11895 0052 DFE7     		b	.L1438
 11897              		.section	.text.ism330dhcx_fsm_init_get,"ax",%progbits
 11898              		.align	1
 11899              		.global	ism330dhcx_fsm_init_get
 11900              		.syntax unified
 11901              		.thumb
 11902              		.thumb_func
 11904              	ism330dhcx_fsm_init_get:
 11905              		@ args = 0, pretend = 0, frame = 8
 11906              		@ frame_needed = 0, uses_anonymous_args = 0
 11907 0000 30B5     		push	{r4, r5, lr}
 11908 0002 83B0     		sub	sp, sp, #12
 11909 0004 0446     		mov	r4, r0
 11910 0006 0D46     		mov	r5, r1
 11911 0008 0221     		movs	r1, #2
 11912 000a FFF7FEFF 		bl	ism330dhcx_mem_bank_set
 11913 000e 08B1     		cbz	r0, .L1447
 11914              	.L1444:
 11915 0010 03B0     		add	sp, sp, #12
 11916              		@ sp needed
 11917 0012 30BD     		pop	{r4, r5, pc}
 11918              	.L1447:
 11919 0014 0123     		movs	r3, #1
 11920 0016 01AA     		add	r2, sp, #4
ARM GAS  C:\Temp\ccOH3Pt6.s 			page 200


 11921 0018 6721     		movs	r1, #103
 11922 001a 2046     		mov	r0, r4
 11923 001c FFF7FEFF 		bl	ism330dhcx_read_reg
 11924 0020 0028     		cmp	r0, #0
 11925 0022 F5D1     		bne	.L1444
 11926 0024 9DF80430 		ldrb	r3, [sp, #4]	@ zero_extendqisi2
 11927 0028 C3F30003 		ubfx	r3, r3, #0, #1
 11928 002c 2B70     		strb	r3, [r5]
 11929 002e 0021     		movs	r1, #0
 11930 0030 2046     		mov	r0, r4
 11931 0032 FFF7FEFF 		bl	ism330dhcx_mem_bank_set
 11932 0036 EBE7     		b	.L1444
 11934              		.section	.text.ism330dhcx_long_cnt_int_value_set,"ax",%progbits
 11935              		.align	1
 11936              		.global	ism330dhcx_long_cnt_int_value_set
 11937              		.syntax unified
 11938              		.thumb
 11939              		.thumb_func
 11941              	ism330dhcx_long_cnt_int_value_set:
 11942              		@ args = 0, pretend = 0, frame = 8
 11943              		@ frame_needed = 0, uses_anonymous_args = 0
 11944 0000 10B5     		push	{r4, lr}
 11945 0002 82B0     		sub	sp, sp, #8
 11946 0004 0446     		mov	r4, r0
 11947 0006 0B0A     		lsrs	r3, r1, #8
 11948 0008 8DF80530 		strb	r3, [sp, #5]
 11949 000c 8DF80410 		strb	r1, [sp, #4]
 11950 0010 01AA     		add	r2, sp, #4
 11951 0012 4FF4BD71 		mov	r1, #378
 11952 0016 FFF7FEFF 		bl	ism330dhcx_ln_pg_write_byte
 11953 001a 08B1     		cbz	r0, .L1451
 11954              	.L1448:
 11955 001c 02B0     		add	sp, sp, #8
 11956              		@ sp needed
 11957 001e 10BD     		pop	{r4, pc}
 11958              	.L1451:
 11959 0020 0DF10502 		add	r2, sp, #5
 11960 0024 40F27B11 		movw	r1, #379
 11961 0028 2046     		mov	r0, r4
 11962 002a FFF7FEFF 		bl	ism330dhcx_ln_pg_write_byte
 11963 002e F5E7     		b	.L1448
 11965              		.section	.text.ism330dhcx_long_cnt_int_value_get,"ax",%progbits
 11966              		.align	1
 11967              		.global	ism330dhcx_long_cnt_int_value_get
 11968              		.syntax unified
 11969              		.thumb
 11970              		.thumb_func
 11972              	ism330dhcx_long_cnt_int_value_get:
 11973              		@ args = 0, pretend = 0, frame = 8
 11974              		@ frame_needed = 0, uses_anonymous_args = 0
 11975 0000 30B5     		push	{r4, r5, lr}
 11976 0002 83B0     		sub	sp, sp, #12
 11977 0004 0546     		mov	r5, r0
 11978 0006 0C46     		mov	r4, r1
 11979 0008 01AA     		add	r2, sp, #4
 11980 000a 4FF4BD71 		mov	r1, #378
 11981 000e FFF7FEFF 		bl	ism330dhcx_ln_pg_read_byte
ARM GAS  C:\Temp\ccOH3Pt6.s 			page 201


 11982 0012 08B1     		cbz	r0, .L1455
 11983              	.L1452:
 11984 0014 03B0     		add	sp, sp, #12
 11985              		@ sp needed
 11986 0016 30BD     		pop	{r4, r5, pc}
 11987              	.L1455:
 11988 0018 0DF10502 		add	r2, sp, #5
 11989 001c 40F27B11 		movw	r1, #379
 11990 0020 2846     		mov	r0, r5
 11991 0022 FFF7FEFF 		bl	ism330dhcx_ln_pg_read_byte
 11992 0026 9DF80520 		ldrb	r2, [sp, #5]	@ zero_extendqisi2
 11993 002a 2280     		strh	r2, [r4]	@ movhi
 11994 002c 9DF80430 		ldrb	r3, [sp, #4]	@ zero_extendqisi2
 11995 0030 03EB0223 		add	r3, r3, r2, lsl #8
 11996 0034 2380     		strh	r3, [r4]	@ movhi
 11997 0036 EDE7     		b	.L1452
 11999              		.section	.text.ism330dhcx_fsm_number_of_programs_set,"ax",%progbits
 12000              		.align	1
 12001              		.global	ism330dhcx_fsm_number_of_programs_set
 12002              		.syntax unified
 12003              		.thumb
 12004              		.thumb_func
 12006              	ism330dhcx_fsm_number_of_programs_set:
 12007              		@ args = 0, pretend = 0, frame = 0
 12008              		@ frame_needed = 0, uses_anonymous_args = 0
 12009 0000 38B5     		push	{r3, r4, r5, lr}
 12010 0002 0546     		mov	r5, r0
 12011 0004 0C46     		mov	r4, r1
 12012 0006 0A46     		mov	r2, r1
 12013 0008 4FF4BE71 		mov	r1, #380
 12014 000c FFF7FEFF 		bl	ism330dhcx_ln_pg_write_byte
 12015 0010 00B1     		cbz	r0, .L1459
 12016              	.L1456:
 12017 0012 38BD     		pop	{r3, r4, r5, pc}
 12018              	.L1459:
 12019 0014 2246     		mov	r2, r4
 12020 0016 40F27D11 		movw	r1, #381
 12021 001a 2846     		mov	r0, r5
 12022 001c FFF7FEFF 		bl	ism330dhcx_ln_pg_write_byte
 12023 0020 F7E7     		b	.L1456
 12025              		.section	.text.ism330dhcx_fsm_number_of_programs_get,"ax",%progbits
 12026              		.align	1
 12027              		.global	ism330dhcx_fsm_number_of_programs_get
 12028              		.syntax unified
 12029              		.thumb
 12030              		.thumb_func
 12032              	ism330dhcx_fsm_number_of_programs_get:
 12033              		@ args = 0, pretend = 0, frame = 0
 12034              		@ frame_needed = 0, uses_anonymous_args = 0
 12035 0000 08B5     		push	{r3, lr}
 12036 0002 0A46     		mov	r2, r1
 12037 0004 4FF4BE71 		mov	r1, #380
 12038 0008 FFF7FEFF 		bl	ism330dhcx_ln_pg_read_byte
 12039 000c 08BD     		pop	{r3, pc}
 12041              		.section	.text.ism330dhcx_fsm_start_address_set,"ax",%progbits
 12042              		.align	1
 12043              		.global	ism330dhcx_fsm_start_address_set
ARM GAS  C:\Temp\ccOH3Pt6.s 			page 202


 12044              		.syntax unified
 12045              		.thumb
 12046              		.thumb_func
 12048              	ism330dhcx_fsm_start_address_set:
 12049              		@ args = 0, pretend = 0, frame = 8
 12050              		@ frame_needed = 0, uses_anonymous_args = 0
 12051 0000 10B5     		push	{r4, lr}
 12052 0002 82B0     		sub	sp, sp, #8
 12053 0004 0446     		mov	r4, r0
 12054 0006 0B0A     		lsrs	r3, r1, #8
 12055 0008 8DF80530 		strb	r3, [sp, #5]
 12056 000c 8DF80410 		strb	r1, [sp, #4]
 12057 0010 01AA     		add	r2, sp, #4
 12058 0012 4FF4BF71 		mov	r1, #382
 12059 0016 FFF7FEFF 		bl	ism330dhcx_ln_pg_write_byte
 12060 001a 08B1     		cbz	r0, .L1465
 12061              	.L1462:
 12062 001c 02B0     		add	sp, sp, #8
 12063              		@ sp needed
 12064 001e 10BD     		pop	{r4, pc}
 12065              	.L1465:
 12066 0020 0DF10502 		add	r2, sp, #5
 12067 0024 40F27F11 		movw	r1, #383
 12068 0028 2046     		mov	r0, r4
 12069 002a FFF7FEFF 		bl	ism330dhcx_ln_pg_write_byte
 12070 002e F5E7     		b	.L1462
 12072              		.section	.text.ism330dhcx_fsm_start_address_get,"ax",%progbits
 12073              		.align	1
 12074              		.global	ism330dhcx_fsm_start_address_get
 12075              		.syntax unified
 12076              		.thumb
 12077              		.thumb_func
 12079              	ism330dhcx_fsm_start_address_get:
 12080              		@ args = 0, pretend = 0, frame = 8
 12081              		@ frame_needed = 0, uses_anonymous_args = 0
 12082 0000 30B5     		push	{r4, r5, lr}
 12083 0002 83B0     		sub	sp, sp, #12
 12084 0004 0546     		mov	r5, r0
 12085 0006 0C46     		mov	r4, r1
 12086 0008 01AA     		add	r2, sp, #4
 12087 000a 4FF4BF71 		mov	r1, #382
 12088 000e FFF7FEFF 		bl	ism330dhcx_ln_pg_read_byte
 12089 0012 08B1     		cbz	r0, .L1469
 12090              	.L1466:
 12091 0014 03B0     		add	sp, sp, #12
 12092              		@ sp needed
 12093 0016 30BD     		pop	{r4, r5, pc}
 12094              	.L1469:
 12095 0018 0DF10502 		add	r2, sp, #5
 12096 001c 40F27F11 		movw	r1, #383
 12097 0020 2846     		mov	r0, r5
 12098 0022 FFF7FEFF 		bl	ism330dhcx_ln_pg_read_byte
 12099 0026 9DF80520 		ldrb	r2, [sp, #5]	@ zero_extendqisi2
 12100 002a 2280     		strh	r2, [r4]	@ movhi
 12101 002c 9DF80430 		ldrb	r3, [sp, #4]	@ zero_extendqisi2
 12102 0030 03EB0223 		add	r3, r3, r2, lsl #8
 12103 0034 2380     		strh	r3, [r4]	@ movhi
ARM GAS  C:\Temp\ccOH3Pt6.s 			page 203


 12104 0036 EDE7     		b	.L1466
 12106              		.section	.text.ism330dhcx_mlc_set,"ax",%progbits
 12107              		.align	1
 12108              		.global	ism330dhcx_mlc_set
 12109              		.syntax unified
 12110              		.thumb
 12111              		.thumb_func
 12113              	ism330dhcx_mlc_set:
 12114              		@ args = 0, pretend = 0, frame = 8
 12115              		@ frame_needed = 0, uses_anonymous_args = 0
 12116 0000 30B5     		push	{r4, r5, lr}
 12117 0002 83B0     		sub	sp, sp, #12
 12118 0004 0546     		mov	r5, r0
 12119 0006 0C46     		mov	r4, r1
 12120 0008 0221     		movs	r1, #2
 12121 000a FFF7FEFF 		bl	ism330dhcx_mem_bank_set
 12122 000e 0346     		mov	r3, r0
 12123 0010 D0B1     		cbz	r0, .L1475
 12124              	.L1471:
 12125 0012 ACB1     		cbz	r4, .L1472
 12126 0014 ABB9     		cbnz	r3, .L1470
 12127 0016 0123     		movs	r3, #1
 12128 0018 01AA     		add	r2, sp, #4
 12129 001a 6721     		movs	r1, #103
 12130 001c 2846     		mov	r0, r5
 12131 001e FFF7FEFF 		bl	ism330dhcx_read_reg
 12132 0022 0346     		mov	r3, r0
 12133 0024 68B9     		cbnz	r0, .L1470
 12134 0026 9DF80430 		ldrb	r3, [sp, #4]	@ zero_extendqisi2
 12135 002a 64F30413 		bfi	r3, r4, #4, #1
 12136 002e 8DF80430 		strb	r3, [sp, #4]
 12137 0032 0123     		movs	r3, #1
 12138 0034 01AA     		add	r2, sp, #4
 12139 0036 6721     		movs	r1, #103
 12140 0038 2846     		mov	r0, r5
 12141 003a FFF7FEFF 		bl	ism330dhcx_write_reg
 12142 003e 0346     		mov	r3, r0
 12143              	.L1472:
 12144 0040 CBB1     		cbz	r3, .L1476
 12145              	.L1470:
 12146 0042 1846     		mov	r0, r3
 12147 0044 03B0     		add	sp, sp, #12
 12148              		@ sp needed
 12149 0046 30BD     		pop	{r4, r5, pc}
 12150              	.L1475:
 12151 0048 0123     		movs	r3, #1
 12152 004a 01AA     		add	r2, sp, #4
 12153 004c 0521     		movs	r1, #5
 12154 004e 2846     		mov	r0, r5
 12155 0050 FFF7FEFF 		bl	ism330dhcx_read_reg
 12156 0054 0346     		mov	r3, r0
 12157 0056 0028     		cmp	r0, #0
 12158 0058 DBD1     		bne	.L1471
 12159 005a 9DF80430 		ldrb	r3, [sp, #4]	@ zero_extendqisi2
 12160 005e 64F30413 		bfi	r3, r4, #4, #1
 12161 0062 8DF80430 		strb	r3, [sp, #4]
 12162 0066 0123     		movs	r3, #1
ARM GAS  C:\Temp\ccOH3Pt6.s 			page 204


 12163 0068 01AA     		add	r2, sp, #4
 12164 006a 0521     		movs	r1, #5
 12165 006c 2846     		mov	r0, r5
 12166 006e FFF7FEFF 		bl	ism330dhcx_write_reg
 12167 0072 0346     		mov	r3, r0
 12168 0074 CDE7     		b	.L1471
 12169              	.L1476:
 12170 0076 0021     		movs	r1, #0
 12171 0078 2846     		mov	r0, r5
 12172 007a FFF7FEFF 		bl	ism330dhcx_mem_bank_set
 12173 007e 0346     		mov	r3, r0
 12174 0080 DFE7     		b	.L1470
 12176              		.section	.text.ism330dhcx_mlc_get,"ax",%progbits
 12177              		.align	1
 12178              		.global	ism330dhcx_mlc_get
 12179              		.syntax unified
 12180              		.thumb
 12181              		.thumb_func
 12183              	ism330dhcx_mlc_get:
 12184              		@ args = 0, pretend = 0, frame = 8
 12185              		@ frame_needed = 0, uses_anonymous_args = 0
 12186 0000 30B5     		push	{r4, r5, lr}
 12187 0002 83B0     		sub	sp, sp, #12
 12188 0004 0446     		mov	r4, r0
 12189 0006 0D46     		mov	r5, r1
 12190 0008 0221     		movs	r1, #2
 12191 000a FFF7FEFF 		bl	ism330dhcx_mem_bank_set
 12192 000e 08B1     		cbz	r0, .L1480
 12193              	.L1477:
 12194 0010 03B0     		add	sp, sp, #12
 12195              		@ sp needed
 12196 0012 30BD     		pop	{r4, r5, pc}
 12197              	.L1480:
 12198 0014 0123     		movs	r3, #1
 12199 0016 01AA     		add	r2, sp, #4
 12200 0018 0521     		movs	r1, #5
 12201 001a 2046     		mov	r0, r4
 12202 001c FFF7FEFF 		bl	ism330dhcx_read_reg
 12203 0020 0028     		cmp	r0, #0
 12204 0022 F5D1     		bne	.L1477
 12205 0024 0021     		movs	r1, #0
 12206 0026 2046     		mov	r0, r4
 12207 0028 FFF7FEFF 		bl	ism330dhcx_mem_bank_set
 12208 002c 9DF80430 		ldrb	r3, [sp, #4]	@ zero_extendqisi2
 12209 0030 C3F30013 		ubfx	r3, r3, #4, #1
 12210 0034 2B70     		strb	r3, [r5]
 12211 0036 EBE7     		b	.L1477
 12213              		.section	.text.ism330dhcx_mlc_status_get,"ax",%progbits
 12214              		.align	1
 12215              		.global	ism330dhcx_mlc_status_get
 12216              		.syntax unified
 12217              		.thumb
 12218              		.thumb_func
 12220              	ism330dhcx_mlc_status_get:
 12221              		@ args = 0, pretend = 0, frame = 0
 12222              		@ frame_needed = 0, uses_anonymous_args = 0
 12223 0000 08B5     		push	{r3, lr}
ARM GAS  C:\Temp\ccOH3Pt6.s 			page 205


 12224 0002 0A46     		mov	r2, r1
 12225 0004 0123     		movs	r3, #1
 12226 0006 3821     		movs	r1, #56
 12227 0008 FFF7FEFF 		bl	ism330dhcx_read_reg
 12228 000c 08BD     		pop	{r3, pc}
 12230              		.section	.text.ism330dhcx_mlc_data_rate_set,"ax",%progbits
 12231              		.align	1
 12232              		.global	ism330dhcx_mlc_data_rate_set
 12233              		.syntax unified
 12234              		.thumb
 12235              		.thumb_func
 12237              	ism330dhcx_mlc_data_rate_set:
 12238              		@ args = 0, pretend = 0, frame = 8
 12239              		@ frame_needed = 0, uses_anonymous_args = 0
 12240 0000 30B5     		push	{r4, r5, lr}
 12241 0002 83B0     		sub	sp, sp, #12
 12242 0004 0446     		mov	r4, r0
 12243 0006 0D46     		mov	r5, r1
 12244 0008 0221     		movs	r1, #2
 12245 000a FFF7FEFF 		bl	ism330dhcx_mem_bank_set
 12246 000e 0346     		mov	r3, r0
 12247 0010 18B1     		cbz	r0, .L1487
 12248              	.L1484:
 12249 0012 CBB1     		cbz	r3, .L1488
 12250              	.L1483:
 12251 0014 1846     		mov	r0, r3
 12252 0016 03B0     		add	sp, sp, #12
 12253              		@ sp needed
 12254 0018 30BD     		pop	{r4, r5, pc}
 12255              	.L1487:
 12256 001a 0123     		movs	r3, #1
 12257 001c 01AA     		add	r2, sp, #4
 12258 001e 6021     		movs	r1, #96
 12259 0020 2046     		mov	r0, r4
 12260 0022 FFF7FEFF 		bl	ism330dhcx_read_reg
 12261 0026 0346     		mov	r3, r0
 12262 0028 0028     		cmp	r0, #0
 12263 002a F3D1     		bne	.L1483
 12264 002c 9DF80430 		ldrb	r3, [sp, #4]	@ zero_extendqisi2
 12265 0030 65F30513 		bfi	r3, r5, #4, #2
 12266 0034 8DF80430 		strb	r3, [sp, #4]
 12267 0038 0123     		movs	r3, #1
 12268 003a 01AA     		add	r2, sp, #4
 12269 003c 6021     		movs	r1, #96
 12270 003e 2046     		mov	r0, r4
 12271 0040 FFF7FEFF 		bl	ism330dhcx_write_reg
 12272 0044 0346     		mov	r3, r0
 12273 0046 E4E7     		b	.L1484
 12274              	.L1488:
 12275 0048 0021     		movs	r1, #0
 12276 004a 2046     		mov	r0, r4
 12277 004c FFF7FEFF 		bl	ism330dhcx_mem_bank_set
 12278 0050 0346     		mov	r3, r0
 12279 0052 DFE7     		b	.L1483
 12281              		.section	.text.ism330dhcx_mlc_data_rate_get,"ax",%progbits
 12282              		.align	1
 12283              		.global	ism330dhcx_mlc_data_rate_get
ARM GAS  C:\Temp\ccOH3Pt6.s 			page 206


 12284              		.syntax unified
 12285              		.thumb
 12286              		.thumb_func
 12288              	ism330dhcx_mlc_data_rate_get:
 12289              		@ args = 0, pretend = 0, frame = 8
 12290              		@ frame_needed = 0, uses_anonymous_args = 0
 12291 0000 30B5     		push	{r4, r5, lr}
 12292 0002 83B0     		sub	sp, sp, #12
 12293 0004 0546     		mov	r5, r0
 12294 0006 0C46     		mov	r4, r1
 12295 0008 0221     		movs	r1, #2
 12296 000a FFF7FEFF 		bl	ism330dhcx_mem_bank_set
 12297 000e 08B1     		cbz	r0, .L1499
 12298              	.L1489:
 12299 0010 03B0     		add	sp, sp, #12
 12300              		@ sp needed
 12301 0012 30BD     		pop	{r4, r5, pc}
 12302              	.L1499:
 12303 0014 0123     		movs	r3, #1
 12304 0016 01AA     		add	r2, sp, #4
 12305 0018 6021     		movs	r1, #96
 12306 001a 2846     		mov	r0, r5
 12307 001c FFF7FEFF 		bl	ism330dhcx_read_reg
 12308 0020 0028     		cmp	r0, #0
 12309 0022 F5D1     		bne	.L1489
 12310 0024 9DF80430 		ldrb	r3, [sp, #4]	@ zero_extendqisi2
 12311 0028 C3F30113 		ubfx	r3, r3, #4, #2
 12312 002c 032B     		cmp	r3, #3
 12313 002e 13D8     		bhi	.L1491
 12314 0030 DFE803F0 		tbb	[pc, r3]
 12315              	.L1493:
 12316 0034 02       		.byte	(.L1496-.L1493)/2
 12317 0035 09       		.byte	(.L1495-.L1493)/2
 12318 0036 0C       		.byte	(.L1494-.L1493)/2
 12319 0037 0F       		.byte	(.L1492-.L1493)/2
 12320              		.p2align 1
 12321              	.L1496:
 12322 0038 0023     		movs	r3, #0
 12323 003a 2370     		strb	r3, [r4]
 12324              	.L1497:
 12325 003c 0021     		movs	r1, #0
 12326 003e 2846     		mov	r0, r5
 12327 0040 FFF7FEFF 		bl	ism330dhcx_mem_bank_set
 12328 0044 E4E7     		b	.L1489
 12329              	.L1495:
 12330 0046 0123     		movs	r3, #1
 12331 0048 2370     		strb	r3, [r4]
 12332 004a F7E7     		b	.L1497
 12333              	.L1494:
 12334 004c 0223     		movs	r3, #2
 12335 004e 2370     		strb	r3, [r4]
 12336 0050 F4E7     		b	.L1497
 12337              	.L1492:
 12338 0052 0323     		movs	r3, #3
 12339 0054 2370     		strb	r3, [r4]
 12340 0056 F1E7     		b	.L1497
 12341              	.L1491:
ARM GAS  C:\Temp\ccOH3Pt6.s 			page 207


 12342 0058 0023     		movs	r3, #0
 12343 005a 2370     		strb	r3, [r4]
 12344 005c EEE7     		b	.L1497
 12346              		.section	.text.ism330dhcx_xl_data_rate_set,"ax",%progbits
 12347              		.align	1
 12348              		.global	ism330dhcx_xl_data_rate_set
 12349              		.syntax unified
 12350              		.thumb
 12351              		.thumb_func
 12353              	ism330dhcx_xl_data_rate_set:
 12354              		@ args = 0, pretend = 0, frame = 8
 12355              		@ frame_needed = 0, uses_anonymous_args = 0
 12356 0000 F0B5     		push	{r4, r5, r6, r7, lr}
 12357 0002 83B0     		sub	sp, sp, #12
 12358 0004 0546     		mov	r5, r0
 12359 0006 0C46     		mov	r4, r1
 12360 0008 01A9     		add	r1, sp, #4
 12361 000a FFF7FEFF 		bl	ism330dhcx_fsm_enable_get
 12362 000e 0246     		mov	r2, r0
 12363 0010 0028     		cmp	r0, #0
 12364 0012 60D1     		bne	.L1515
 12365 0014 9DF80410 		ldrb	r1, [sp, #4]	@ zero_extendqisi2
 12366 0018 01F00103 		and	r3, r1, #1
 12367 001c C1F34000 		ubfx	r0, r1, #1, #1
 12368 0020 0343     		orrs	r3, r3, r0
 12369 0022 C1F38000 		ubfx	r0, r1, #2, #1
 12370 0026 0343     		orrs	r3, r3, r0
 12371 0028 C1F3C000 		ubfx	r0, r1, #3, #1
 12372 002c 0343     		orrs	r3, r3, r0
 12373 002e C1F30010 		ubfx	r0, r1, #4, #1
 12374 0032 0343     		orrs	r3, r3, r0
 12375 0034 C1F34010 		ubfx	r0, r1, #5, #1
 12376 0038 0343     		orrs	r3, r3, r0
 12377 003a C1F38010 		ubfx	r0, r1, #6, #1
 12378 003e 0343     		orrs	r3, r3, r0
 12379 0040 43EAD113 		orr	r3, r3, r1, lsr #7
 12380 0044 9DF80510 		ldrb	r1, [sp, #5]	@ zero_extendqisi2
 12381 0048 01F00100 		and	r0, r1, #1
 12382 004c 0343     		orrs	r3, r3, r0
 12383 004e C1F34000 		ubfx	r0, r1, #1, #1
 12384 0052 0343     		orrs	r3, r3, r0
 12385 0054 C1F38000 		ubfx	r0, r1, #2, #1
 12386 0058 0343     		orrs	r3, r3, r0
 12387 005a C1F3C000 		ubfx	r0, r1, #3, #1
 12388 005e 0343     		orrs	r3, r3, r0
 12389 0060 C1F30010 		ubfx	r0, r1, #4, #1
 12390 0064 0343     		orrs	r3, r3, r0
 12391 0066 C1F34010 		ubfx	r0, r1, #5, #1
 12392 006a 0343     		orrs	r3, r3, r0
 12393 006c C1F38010 		ubfx	r0, r1, #6, #1
 12394 0070 0343     		orrs	r3, r3, r0
 12395 0072 53EAD113 		orrs	r3, r3, r1, lsr #7
 12396 0076 01D1     		bne	.L1541
 12397 0078 2646     		mov	r6, r4
 12398 007a 2DE0     		b	.L1501
 12399              	.L1541:
 12400 007c 0DF10301 		add	r1, sp, #3
ARM GAS  C:\Temp\ccOH3Pt6.s 			page 208


 12401 0080 2846     		mov	r0, r5
 12402 0082 FFF7FEFF 		bl	ism330dhcx_fsm_data_rate_get
 12403 0086 0246     		mov	r2, r0
 12404 0088 78BB     		cbnz	r0, .L1517
 12405 008a 9DF80330 		ldrb	r3, [sp, #3]	@ zero_extendqisi2
 12406 008e 032B     		cmp	r3, #3
 12407 0090 2DD8     		bhi	.L1518
 12408 0092 DFE803F0 		tbb	[pc, r3]
 12409              	.L1503:
 12410 0096 02       		.byte	(.L1506-.L1503)/2
 12411 0097 05       		.byte	(.L1505-.L1503)/2
 12412 0098 0C       		.byte	(.L1504-.L1503)/2
 12413 0099 15       		.byte	(.L1502-.L1503)/2
 12414              		.p2align 1
 12415              	.L1506:
 12416 009a 54BB     		cbnz	r4, .L1519
 12417 009c 0126     		movs	r6, #1
 12418 009e 1BE0     		b	.L1501
 12419              	.L1505:
 12420 00a0 4CB3     		cbz	r4, .L1520
 12421 00a2 012C     		cmp	r4, #1
 12422 00a4 01D0     		beq	.L1542
 12423 00a6 2646     		mov	r6, r4
 12424 00a8 16E0     		b	.L1501
 12425              	.L1542:
 12426 00aa 0226     		movs	r6, #2
 12427 00ac 14E0     		b	.L1501
 12428              	.L1504:
 12429 00ae 24B3     		cbz	r4, .L1522
 12430 00b0 012C     		cmp	r4, #1
 12431 00b2 24D0     		beq	.L1523
 12432 00b4 022C     		cmp	r4, #2
 12433 00b6 01D0     		beq	.L1543
 12434 00b8 2646     		mov	r6, r4
 12435 00ba 0DE0     		b	.L1501
 12436              	.L1543:
 12437 00bc 0326     		movs	r6, #3
 12438 00be 0BE0     		b	.L1501
 12439              	.L1502:
 12440 00c0 FCB1     		cbz	r4, .L1525
 12441 00c2 022C     		cmp	r4, #2
 12442 00c4 1FD0     		beq	.L1526
 12443 00c6 032C     		cmp	r4, #3
 12444 00c8 1FD0     		beq	.L1527
 12445 00ca 012C     		cmp	r4, #1
 12446 00cc 01D0     		beq	.L1544
 12447 00ce 2646     		mov	r6, r4
 12448 00d0 02E0     		b	.L1501
 12449              	.L1544:
 12450 00d2 0426     		movs	r6, #4
 12451 00d4 00E0     		b	.L1501
 12452              	.L1515:
 12453 00d6 2646     		mov	r6, r4
 12454              	.L1501:
 12455 00d8 0023     		movs	r3, #0
 12456 00da 8DF80230 		strb	r3, [sp, #2]
 12457 00de B2B1     		cbz	r2, .L1545
ARM GAS  C:\Temp\ccOH3Pt6.s 			page 209


 12458              	.L1507:
 12459 00e0 002A     		cmp	r2, #0
 12460 00e2 66D0     		beq	.L1546
 12461              	.L1500:
 12462 00e4 1046     		mov	r0, r2
 12463 00e6 03B0     		add	sp, sp, #12
 12464              		@ sp needed
 12465 00e8 F0BD     		pop	{r4, r5, r6, r7, pc}
 12466              	.L1517:
 12467 00ea 2646     		mov	r6, r4
 12468 00ec F4E7     		b	.L1501
 12469              	.L1518:
 12470 00ee 2646     		mov	r6, r4
 12471 00f0 F2E7     		b	.L1501
 12472              	.L1519:
 12473 00f2 2646     		mov	r6, r4
 12474 00f4 F0E7     		b	.L1501
 12475              	.L1520:
 12476 00f6 0226     		movs	r6, #2
 12477 00f8 EEE7     		b	.L1501
 12478              	.L1522:
 12479 00fa 0326     		movs	r6, #3
 12480 00fc ECE7     		b	.L1501
 12481              	.L1523:
 12482 00fe 0326     		movs	r6, #3
 12483 0100 EAE7     		b	.L1501
 12484              	.L1525:
 12485 0102 0426     		movs	r6, #4
 12486 0104 E8E7     		b	.L1501
 12487              	.L1526:
 12488 0106 0426     		movs	r6, #4
 12489 0108 E6E7     		b	.L1501
 12490              	.L1527:
 12491 010a 0426     		movs	r6, #4
 12492 010c E4E7     		b	.L1501
 12493              	.L1545:
 12494 010e 0DF10201 		add	r1, sp, #2
 12495 0112 2846     		mov	r0, r5
 12496 0114 FFF7FEFF 		bl	ism330dhcx_mlc_get
 12497 0118 0246     		mov	r2, r0
 12498 011a 9DF80270 		ldrb	r7, [sp, #2]	@ zero_extendqisi2
 12499 011e 012F     		cmp	r7, #1
 12500 0120 09D0     		beq	.L1547
 12501              	.L1508:
 12502 0122 002A     		cmp	r2, #0
 12503 0124 DED1     		bne	.L1500
 12504 0126 0123     		movs	r3, #1
 12505 0128 6A46     		mov	r2, sp
 12506 012a 1021     		movs	r1, #16
 12507 012c 2846     		mov	r0, r5
 12508 012e FFF7FEFF 		bl	ism330dhcx_read_reg
 12509 0132 0246     		mov	r2, r0
 12510 0134 D4E7     		b	.L1507
 12511              	.L1547:
 12512 0136 0DF10101 		add	r1, sp, #1
 12513 013a 2846     		mov	r0, r5
 12514 013c FFF7FEFF 		bl	ism330dhcx_mlc_data_rate_get
ARM GAS  C:\Temp\ccOH3Pt6.s 			page 210


 12515 0140 0246     		mov	r2, r0
 12516 0142 0028     		cmp	r0, #0
 12517 0144 CED1     		bne	.L1500
 12518 0146 9DF80130 		ldrb	r3, [sp, #1]	@ zero_extendqisi2
 12519 014a 032B     		cmp	r3, #3
 12520 014c 21D8     		bhi	.L1529
 12521 014e DFE803F0 		tbb	[pc, r3]
 12522              	.L1511:
 12523 0152 02       		.byte	(.L1514-.L1511)/2
 12524 0153 05       		.byte	(.L1513-.L1511)/2
 12525 0154 0C       		.byte	(.L1512-.L1511)/2
 12526 0155 15       		.byte	(.L1510-.L1511)/2
 12527              		.p2align 1
 12528              	.L1514:
 12529 0156 F4B9     		cbnz	r4, .L1530
 12530 0158 3E46     		mov	r6, r7
 12531 015a E2E7     		b	.L1508
 12532              	.L1513:
 12533 015c ECB1     		cbz	r4, .L1531
 12534 015e 012C     		cmp	r4, #1
 12535 0160 01D0     		beq	.L1548
 12536 0162 2646     		mov	r6, r4
 12537 0164 DDE7     		b	.L1508
 12538              	.L1548:
 12539 0166 0226     		movs	r6, #2
 12540 0168 DBE7     		b	.L1508
 12541              	.L1512:
 12542 016a C4B1     		cbz	r4, .L1533
 12543 016c 012C     		cmp	r4, #1
 12544 016e 18D0     		beq	.L1534
 12545 0170 022C     		cmp	r4, #2
 12546 0172 01D0     		beq	.L1549
 12547 0174 2646     		mov	r6, r4
 12548 0176 D4E7     		b	.L1508
 12549              	.L1549:
 12550 0178 0326     		movs	r6, #3
 12551 017a D2E7     		b	.L1508
 12552              	.L1510:
 12553 017c 9CB1     		cbz	r4, .L1536
 12554 017e 022C     		cmp	r4, #2
 12555 0180 13D0     		beq	.L1537
 12556 0182 032C     		cmp	r4, #3
 12557 0184 13D0     		beq	.L1538
 12558 0186 012C     		cmp	r4, #1
 12559 0188 01D0     		beq	.L1550
 12560 018a 2646     		mov	r6, r4
 12561 018c C9E7     		b	.L1508
 12562              	.L1550:
 12563 018e 0426     		movs	r6, #4
 12564 0190 C7E7     		b	.L1508
 12565              	.L1529:
 12566 0192 2646     		mov	r6, r4
 12567 0194 C5E7     		b	.L1508
 12568              	.L1530:
 12569 0196 2646     		mov	r6, r4
 12570 0198 C3E7     		b	.L1508
 12571              	.L1531:
ARM GAS  C:\Temp\ccOH3Pt6.s 			page 211


 12572 019a 0226     		movs	r6, #2
 12573 019c C1E7     		b	.L1508
 12574              	.L1533:
 12575 019e 0326     		movs	r6, #3
 12576 01a0 BFE7     		b	.L1508
 12577              	.L1534:
 12578 01a2 0326     		movs	r6, #3
 12579 01a4 BDE7     		b	.L1508
 12580              	.L1536:
 12581 01a6 0426     		movs	r6, #4
 12582 01a8 BBE7     		b	.L1508
 12583              	.L1537:
 12584 01aa 0426     		movs	r6, #4
 12585 01ac B9E7     		b	.L1508
 12586              	.L1538:
 12587 01ae 0426     		movs	r6, #4
 12588 01b0 B7E7     		b	.L1508
 12589              	.L1546:
 12590 01b2 9DF80030 		ldrb	r3, [sp]	@ zero_extendqisi2
 12591 01b6 66F30713 		bfi	r3, r6, #4, #4
 12592 01ba 8DF80030 		strb	r3, [sp]
 12593 01be 0123     		movs	r3, #1
 12594 01c0 6A46     		mov	r2, sp
 12595 01c2 1021     		movs	r1, #16
 12596 01c4 2846     		mov	r0, r5
 12597 01c6 FFF7FEFF 		bl	ism330dhcx_write_reg
 12598 01ca 0246     		mov	r2, r0
 12599 01cc 8AE7     		b	.L1500
 12601              		.section	.text.ism330dhcx_gy_data_rate_set,"ax",%progbits
 12602              		.align	1
 12603              		.global	ism330dhcx_gy_data_rate_set
 12604              		.syntax unified
 12605              		.thumb
 12606              		.thumb_func
 12608              	ism330dhcx_gy_data_rate_set:
 12609              		@ args = 0, pretend = 0, frame = 8
 12610              		@ frame_needed = 0, uses_anonymous_args = 0
 12611 0000 F0B5     		push	{r4, r5, r6, r7, lr}
 12612 0002 83B0     		sub	sp, sp, #12
 12613 0004 0546     		mov	r5, r0
 12614 0006 0C46     		mov	r4, r1
 12615 0008 01A9     		add	r1, sp, #4
 12616 000a FFF7FEFF 		bl	ism330dhcx_fsm_enable_get
 12617 000e 0246     		mov	r2, r0
 12618 0010 0028     		cmp	r0, #0
 12619 0012 60D1     		bne	.L1566
 12620 0014 9DF80410 		ldrb	r1, [sp, #4]	@ zero_extendqisi2
 12621 0018 01F00103 		and	r3, r1, #1
 12622 001c C1F34000 		ubfx	r0, r1, #1, #1
 12623 0020 0343     		orrs	r3, r3, r0
 12624 0022 C1F38000 		ubfx	r0, r1, #2, #1
 12625 0026 0343     		orrs	r3, r3, r0
 12626 0028 C1F3C000 		ubfx	r0, r1, #3, #1
 12627 002c 0343     		orrs	r3, r3, r0
 12628 002e C1F30010 		ubfx	r0, r1, #4, #1
 12629 0032 0343     		orrs	r3, r3, r0
 12630 0034 C1F34010 		ubfx	r0, r1, #5, #1
ARM GAS  C:\Temp\ccOH3Pt6.s 			page 212


 12631 0038 0343     		orrs	r3, r3, r0
 12632 003a C1F38010 		ubfx	r0, r1, #6, #1
 12633 003e 0343     		orrs	r3, r3, r0
 12634 0040 43EAD113 		orr	r3, r3, r1, lsr #7
 12635 0044 9DF80510 		ldrb	r1, [sp, #5]	@ zero_extendqisi2
 12636 0048 01F00100 		and	r0, r1, #1
 12637 004c 0343     		orrs	r3, r3, r0
 12638 004e C1F34000 		ubfx	r0, r1, #1, #1
 12639 0052 0343     		orrs	r3, r3, r0
 12640 0054 C1F38000 		ubfx	r0, r1, #2, #1
 12641 0058 0343     		orrs	r3, r3, r0
 12642 005a C1F3C000 		ubfx	r0, r1, #3, #1
 12643 005e 0343     		orrs	r3, r3, r0
 12644 0060 C1F30010 		ubfx	r0, r1, #4, #1
 12645 0064 0343     		orrs	r3, r3, r0
 12646 0066 C1F34010 		ubfx	r0, r1, #5, #1
 12647 006a 0343     		orrs	r3, r3, r0
 12648 006c C1F38010 		ubfx	r0, r1, #6, #1
 12649 0070 0343     		orrs	r3, r3, r0
 12650 0072 53EAD113 		orrs	r3, r3, r1, lsr #7
 12651 0076 01D1     		bne	.L1592
 12652 0078 2646     		mov	r6, r4
 12653 007a 2DE0     		b	.L1552
 12654              	.L1592:
 12655 007c 0DF10301 		add	r1, sp, #3
 12656 0080 2846     		mov	r0, r5
 12657 0082 FFF7FEFF 		bl	ism330dhcx_fsm_data_rate_get
 12658 0086 0246     		mov	r2, r0
 12659 0088 78BB     		cbnz	r0, .L1568
 12660 008a 9DF80330 		ldrb	r3, [sp, #3]	@ zero_extendqisi2
 12661 008e 032B     		cmp	r3, #3
 12662 0090 2DD8     		bhi	.L1569
 12663 0092 DFE803F0 		tbb	[pc, r3]
 12664              	.L1554:
 12665 0096 02       		.byte	(.L1557-.L1554)/2
 12666 0097 05       		.byte	(.L1556-.L1554)/2
 12667 0098 0C       		.byte	(.L1555-.L1554)/2
 12668 0099 15       		.byte	(.L1553-.L1554)/2
 12669              		.p2align 1
 12670              	.L1557:
 12671 009a 54BB     		cbnz	r4, .L1570
 12672 009c 0126     		movs	r6, #1
 12673 009e 1BE0     		b	.L1552
 12674              	.L1556:
 12675 00a0 4CB3     		cbz	r4, .L1571
 12676 00a2 012C     		cmp	r4, #1
 12677 00a4 01D0     		beq	.L1593
 12678 00a6 2646     		mov	r6, r4
 12679 00a8 16E0     		b	.L1552
 12680              	.L1593:
 12681 00aa 0226     		movs	r6, #2
 12682 00ac 14E0     		b	.L1552
 12683              	.L1555:
 12684 00ae 24B3     		cbz	r4, .L1573
 12685 00b0 012C     		cmp	r4, #1
 12686 00b2 24D0     		beq	.L1574
 12687 00b4 022C     		cmp	r4, #2
ARM GAS  C:\Temp\ccOH3Pt6.s 			page 213


 12688 00b6 01D0     		beq	.L1594
 12689 00b8 2646     		mov	r6, r4
 12690 00ba 0DE0     		b	.L1552
 12691              	.L1594:
 12692 00bc 0326     		movs	r6, #3
 12693 00be 0BE0     		b	.L1552
 12694              	.L1553:
 12695 00c0 FCB1     		cbz	r4, .L1576
 12696 00c2 022C     		cmp	r4, #2
 12697 00c4 1FD0     		beq	.L1577
 12698 00c6 032C     		cmp	r4, #3
 12699 00c8 1FD0     		beq	.L1578
 12700 00ca 012C     		cmp	r4, #1
 12701 00cc 01D0     		beq	.L1595
 12702 00ce 2646     		mov	r6, r4
 12703 00d0 02E0     		b	.L1552
 12704              	.L1595:
 12705 00d2 0426     		movs	r6, #4
 12706 00d4 00E0     		b	.L1552
 12707              	.L1566:
 12708 00d6 2646     		mov	r6, r4
 12709              	.L1552:
 12710 00d8 0023     		movs	r3, #0
 12711 00da 8DF80230 		strb	r3, [sp, #2]
 12712 00de B2B1     		cbz	r2, .L1596
 12713              	.L1558:
 12714 00e0 002A     		cmp	r2, #0
 12715 00e2 66D0     		beq	.L1597
 12716              	.L1551:
 12717 00e4 1046     		mov	r0, r2
 12718 00e6 03B0     		add	sp, sp, #12
 12719              		@ sp needed
 12720 00e8 F0BD     		pop	{r4, r5, r6, r7, pc}
 12721              	.L1568:
 12722 00ea 2646     		mov	r6, r4
 12723 00ec F4E7     		b	.L1552
 12724              	.L1569:
 12725 00ee 2646     		mov	r6, r4
 12726 00f0 F2E7     		b	.L1552
 12727              	.L1570:
 12728 00f2 2646     		mov	r6, r4
 12729 00f4 F0E7     		b	.L1552
 12730              	.L1571:
 12731 00f6 0226     		movs	r6, #2
 12732 00f8 EEE7     		b	.L1552
 12733              	.L1573:
 12734 00fa 0326     		movs	r6, #3
 12735 00fc ECE7     		b	.L1552
 12736              	.L1574:
 12737 00fe 0326     		movs	r6, #3
 12738 0100 EAE7     		b	.L1552
 12739              	.L1576:
 12740 0102 0426     		movs	r6, #4
 12741 0104 E8E7     		b	.L1552
 12742              	.L1577:
 12743 0106 0426     		movs	r6, #4
 12744 0108 E6E7     		b	.L1552
ARM GAS  C:\Temp\ccOH3Pt6.s 			page 214


 12745              	.L1578:
 12746 010a 0426     		movs	r6, #4
 12747 010c E4E7     		b	.L1552
 12748              	.L1596:
 12749 010e 0DF10201 		add	r1, sp, #2
 12750 0112 2846     		mov	r0, r5
 12751 0114 FFF7FEFF 		bl	ism330dhcx_mlc_get
 12752 0118 0246     		mov	r2, r0
 12753 011a 9DF80270 		ldrb	r7, [sp, #2]	@ zero_extendqisi2
 12754 011e 012F     		cmp	r7, #1
 12755 0120 09D0     		beq	.L1598
 12756              	.L1559:
 12757 0122 002A     		cmp	r2, #0
 12758 0124 DED1     		bne	.L1551
 12759 0126 0123     		movs	r3, #1
 12760 0128 6A46     		mov	r2, sp
 12761 012a 1121     		movs	r1, #17
 12762 012c 2846     		mov	r0, r5
 12763 012e FFF7FEFF 		bl	ism330dhcx_read_reg
 12764 0132 0246     		mov	r2, r0
 12765 0134 D4E7     		b	.L1558
 12766              	.L1598:
 12767 0136 0DF10101 		add	r1, sp, #1
 12768 013a 2846     		mov	r0, r5
 12769 013c FFF7FEFF 		bl	ism330dhcx_mlc_data_rate_get
 12770 0140 0246     		mov	r2, r0
 12771 0142 0028     		cmp	r0, #0
 12772 0144 CED1     		bne	.L1551
 12773 0146 9DF80130 		ldrb	r3, [sp, #1]	@ zero_extendqisi2
 12774 014a 032B     		cmp	r3, #3
 12775 014c 21D8     		bhi	.L1580
 12776 014e DFE803F0 		tbb	[pc, r3]
 12777              	.L1562:
 12778 0152 02       		.byte	(.L1565-.L1562)/2
 12779 0153 05       		.byte	(.L1564-.L1562)/2
 12780 0154 0C       		.byte	(.L1563-.L1562)/2
 12781 0155 15       		.byte	(.L1561-.L1562)/2
 12782              		.p2align 1
 12783              	.L1565:
 12784 0156 F4B9     		cbnz	r4, .L1581
 12785 0158 3E46     		mov	r6, r7
 12786 015a E2E7     		b	.L1559
 12787              	.L1564:
 12788 015c ECB1     		cbz	r4, .L1582
 12789 015e 012C     		cmp	r4, #1
 12790 0160 01D0     		beq	.L1599
 12791 0162 2646     		mov	r6, r4
 12792 0164 DDE7     		b	.L1559
 12793              	.L1599:
 12794 0166 0226     		movs	r6, #2
 12795 0168 DBE7     		b	.L1559
 12796              	.L1563:
 12797 016a C4B1     		cbz	r4, .L1584
 12798 016c 012C     		cmp	r4, #1
 12799 016e 18D0     		beq	.L1585
 12800 0170 022C     		cmp	r4, #2
 12801 0172 01D0     		beq	.L1600
ARM GAS  C:\Temp\ccOH3Pt6.s 			page 215


 12802 0174 2646     		mov	r6, r4
 12803 0176 D4E7     		b	.L1559
 12804              	.L1600:
 12805 0178 0326     		movs	r6, #3
 12806 017a D2E7     		b	.L1559
 12807              	.L1561:
 12808 017c 9CB1     		cbz	r4, .L1587
 12809 017e 022C     		cmp	r4, #2
 12810 0180 13D0     		beq	.L1588
 12811 0182 032C     		cmp	r4, #3
 12812 0184 13D0     		beq	.L1589
 12813 0186 012C     		cmp	r4, #1
 12814 0188 01D0     		beq	.L1601
 12815 018a 2646     		mov	r6, r4
 12816 018c C9E7     		b	.L1559
 12817              	.L1601:
 12818 018e 0426     		movs	r6, #4
 12819 0190 C7E7     		b	.L1559
 12820              	.L1580:
 12821 0192 2646     		mov	r6, r4
 12822 0194 C5E7     		b	.L1559
 12823              	.L1581:
 12824 0196 2646     		mov	r6, r4
 12825 0198 C3E7     		b	.L1559
 12826              	.L1582:
 12827 019a 0226     		movs	r6, #2
 12828 019c C1E7     		b	.L1559
 12829              	.L1584:
 12830 019e 0326     		movs	r6, #3
 12831 01a0 BFE7     		b	.L1559
 12832              	.L1585:
 12833 01a2 0326     		movs	r6, #3
 12834 01a4 BDE7     		b	.L1559
 12835              	.L1587:
 12836 01a6 0426     		movs	r6, #4
 12837 01a8 BBE7     		b	.L1559
 12838              	.L1588:
 12839 01aa 0426     		movs	r6, #4
 12840 01ac B9E7     		b	.L1559
 12841              	.L1589:
 12842 01ae 0426     		movs	r6, #4
 12843 01b0 B7E7     		b	.L1559
 12844              	.L1597:
 12845 01b2 9DF80030 		ldrb	r3, [sp]	@ zero_extendqisi2
 12846 01b6 66F30713 		bfi	r3, r6, #4, #4
 12847 01ba 8DF80030 		strb	r3, [sp]
 12848 01be 0123     		movs	r3, #1
 12849 01c0 6A46     		mov	r2, sp
 12850 01c2 1121     		movs	r1, #17
 12851 01c4 2846     		mov	r0, r5
 12852 01c6 FFF7FEFF 		bl	ism330dhcx_write_reg
 12853 01ca 0246     		mov	r2, r0
 12854 01cc 8AE7     		b	.L1551
 12856              		.section	.text.ism330dhcx_sh_read_data_raw_get,"ax",%progbits
 12857              		.align	1
 12858              		.global	ism330dhcx_sh_read_data_raw_get
 12859              		.syntax unified
ARM GAS  C:\Temp\ccOH3Pt6.s 			page 216


 12860              		.thumb
 12861              		.thumb_func
 12863              	ism330dhcx_sh_read_data_raw_get:
 12864              		@ args = 0, pretend = 0, frame = 0
 12865              		@ frame_needed = 0, uses_anonymous_args = 0
 12866 0000 70B5     		push	{r4, r5, r6, lr}
 12867 0002 0446     		mov	r4, r0
 12868 0004 0D46     		mov	r5, r1
 12869 0006 1646     		mov	r6, r2
 12870 0008 0121     		movs	r1, #1
 12871 000a FFF7FEFF 		bl	ism330dhcx_mem_bank_set
 12872 000e 00B1     		cbz	r0, .L1605
 12873              	.L1602:
 12874 0010 70BD     		pop	{r4, r5, r6, pc}
 12875              	.L1605:
 12876 0012 3346     		mov	r3, r6
 12877 0014 2A46     		mov	r2, r5
 12878 0016 0221     		movs	r1, #2
 12879 0018 2046     		mov	r0, r4
 12880 001a FFF7FEFF 		bl	ism330dhcx_read_reg
 12881 001e 0028     		cmp	r0, #0
 12882 0020 F6D1     		bne	.L1602
 12883 0022 0021     		movs	r1, #0
 12884 0024 2046     		mov	r0, r4
 12885 0026 FFF7FEFF 		bl	ism330dhcx_mem_bank_set
 12886 002a F1E7     		b	.L1602
 12888              		.section	.text.ism330dhcx_sh_slave_connected_set,"ax",%progbits
 12889              		.align	1
 12890              		.global	ism330dhcx_sh_slave_connected_set
 12891              		.syntax unified
 12892              		.thumb
 12893              		.thumb_func
 12895              	ism330dhcx_sh_slave_connected_set:
 12896              		@ args = 0, pretend = 0, frame = 8
 12897              		@ frame_needed = 0, uses_anonymous_args = 0
 12898 0000 30B5     		push	{r4, r5, lr}
 12899 0002 83B0     		sub	sp, sp, #12
 12900 0004 0446     		mov	r4, r0
 12901 0006 0D46     		mov	r5, r1
 12902 0008 0121     		movs	r1, #1
 12903 000a FFF7FEFF 		bl	ism330dhcx_mem_bank_set
 12904 000e 0346     		mov	r3, r0
 12905 0010 18B1     		cbz	r0, .L1610
 12906              	.L1607:
 12907 0012 CBB1     		cbz	r3, .L1611
 12908              	.L1606:
 12909 0014 1846     		mov	r0, r3
 12910 0016 03B0     		add	sp, sp, #12
 12911              		@ sp needed
 12912 0018 30BD     		pop	{r4, r5, pc}
 12913              	.L1610:
 12914 001a 0123     		movs	r3, #1
 12915 001c 01AA     		add	r2, sp, #4
 12916 001e 1421     		movs	r1, #20
 12917 0020 2046     		mov	r0, r4
 12918 0022 FFF7FEFF 		bl	ism330dhcx_read_reg
 12919 0026 0346     		mov	r3, r0
ARM GAS  C:\Temp\ccOH3Pt6.s 			page 217


 12920 0028 0028     		cmp	r0, #0
 12921 002a F3D1     		bne	.L1606
 12922 002c 9DF80430 		ldrb	r3, [sp, #4]	@ zero_extendqisi2
 12923 0030 65F30103 		bfi	r3, r5, #0, #2
 12924 0034 8DF80430 		strb	r3, [sp, #4]
 12925 0038 0123     		movs	r3, #1
 12926 003a 01AA     		add	r2, sp, #4
 12927 003c 1421     		movs	r1, #20
 12928 003e 2046     		mov	r0, r4
 12929 0040 FFF7FEFF 		bl	ism330dhcx_write_reg
 12930 0044 0346     		mov	r3, r0
 12931 0046 E4E7     		b	.L1607
 12932              	.L1611:
 12933 0048 0021     		movs	r1, #0
 12934 004a 2046     		mov	r0, r4
 12935 004c FFF7FEFF 		bl	ism330dhcx_mem_bank_set
 12936 0050 0346     		mov	r3, r0
 12937 0052 DFE7     		b	.L1606
 12939              		.section	.text.ism330dhcx_sh_slave_connected_get,"ax",%progbits
 12940              		.align	1
 12941              		.global	ism330dhcx_sh_slave_connected_get
 12942              		.syntax unified
 12943              		.thumb
 12944              		.thumb_func
 12946              	ism330dhcx_sh_slave_connected_get:
 12947              		@ args = 0, pretend = 0, frame = 8
 12948              		@ frame_needed = 0, uses_anonymous_args = 0
 12949 0000 30B5     		push	{r4, r5, lr}
 12950 0002 83B0     		sub	sp, sp, #12
 12951 0004 0446     		mov	r4, r0
 12952 0006 0D46     		mov	r5, r1
 12953 0008 0121     		movs	r1, #1
 12954 000a FFF7FEFF 		bl	ism330dhcx_mem_bank_set
 12955 000e 48B1     		cbz	r0, .L1622
 12956              	.L1613:
 12957 0010 9DF80430 		ldrb	r3, [sp, #4]	@ zero_extendqisi2
 12958 0014 03F00303 		and	r3, r3, #3
 12959 0018 032B     		cmp	r3, #3
 12960 001a 1DD8     		bhi	.L1614
 12961 001c DFE803F0 		tbb	[pc, r3]
 12962              	.L1616:
 12963 0020 0F       		.byte	(.L1619-.L1616)/2
 12964 0021 13       		.byte	(.L1618-.L1616)/2
 12965 0022 16       		.byte	(.L1617-.L1616)/2
 12966 0023 19       		.byte	(.L1615-.L1616)/2
 12967              		.p2align 1
 12968              	.L1622:
 12969 0024 0123     		movs	r3, #1
 12970 0026 01AA     		add	r2, sp, #4
 12971 0028 1421     		movs	r1, #20
 12972 002a 2046     		mov	r0, r4
 12973 002c FFF7FEFF 		bl	ism330dhcx_read_reg
 12974 0030 0028     		cmp	r0, #0
 12975 0032 EDD1     		bne	.L1613
 12976 0034 0021     		movs	r1, #0
 12977 0036 2046     		mov	r0, r4
 12978 0038 FFF7FEFF 		bl	ism330dhcx_mem_bank_set
ARM GAS  C:\Temp\ccOH3Pt6.s 			page 218


 12979 003c E8E7     		b	.L1613
 12980              	.L1619:
 12981 003e 0023     		movs	r3, #0
 12982 0040 2B70     		strb	r3, [r5]
 12983              	.L1612:
 12984 0042 03B0     		add	sp, sp, #12
 12985              		@ sp needed
 12986 0044 30BD     		pop	{r4, r5, pc}
 12987              	.L1618:
 12988 0046 0123     		movs	r3, #1
 12989 0048 2B70     		strb	r3, [r5]
 12990 004a FAE7     		b	.L1612
 12991              	.L1617:
 12992 004c 0223     		movs	r3, #2
 12993 004e 2B70     		strb	r3, [r5]
 12994 0050 F7E7     		b	.L1612
 12995              	.L1615:
 12996 0052 0323     		movs	r3, #3
 12997 0054 2B70     		strb	r3, [r5]
 12998 0056 F4E7     		b	.L1612
 12999              	.L1614:
 13000 0058 0023     		movs	r3, #0
 13001 005a 2B70     		strb	r3, [r5]
 13002 005c F1E7     		b	.L1612
 13004              		.section	.text.ism330dhcx_sh_master_set,"ax",%progbits
 13005              		.align	1
 13006              		.global	ism330dhcx_sh_master_set
 13007              		.syntax unified
 13008              		.thumb
 13009              		.thumb_func
 13011              	ism330dhcx_sh_master_set:
 13012              		@ args = 0, pretend = 0, frame = 8
 13013              		@ frame_needed = 0, uses_anonymous_args = 0
 13014 0000 30B5     		push	{r4, r5, lr}
 13015 0002 83B0     		sub	sp, sp, #12
 13016 0004 0446     		mov	r4, r0
 13017 0006 0D46     		mov	r5, r1
 13018 0008 0121     		movs	r1, #1
 13019 000a FFF7FEFF 		bl	ism330dhcx_mem_bank_set
 13020 000e 0346     		mov	r3, r0
 13021 0010 18B1     		cbz	r0, .L1627
 13022              	.L1624:
 13023 0012 CBB1     		cbz	r3, .L1628
 13024              	.L1623:
 13025 0014 1846     		mov	r0, r3
 13026 0016 03B0     		add	sp, sp, #12
 13027              		@ sp needed
 13028 0018 30BD     		pop	{r4, r5, pc}
 13029              	.L1627:
 13030 001a 0123     		movs	r3, #1
 13031 001c 01AA     		add	r2, sp, #4
 13032 001e 1421     		movs	r1, #20
 13033 0020 2046     		mov	r0, r4
 13034 0022 FFF7FEFF 		bl	ism330dhcx_read_reg
 13035 0026 0346     		mov	r3, r0
 13036 0028 0028     		cmp	r0, #0
 13037 002a F3D1     		bne	.L1623
ARM GAS  C:\Temp\ccOH3Pt6.s 			page 219


 13038 002c 9DF80430 		ldrb	r3, [sp, #4]	@ zero_extendqisi2
 13039 0030 65F38203 		bfi	r3, r5, #2, #1
 13040 0034 8DF80430 		strb	r3, [sp, #4]
 13041 0038 0123     		movs	r3, #1
 13042 003a 01AA     		add	r2, sp, #4
 13043 003c 1421     		movs	r1, #20
 13044 003e 2046     		mov	r0, r4
 13045 0040 FFF7FEFF 		bl	ism330dhcx_write_reg
 13046 0044 0346     		mov	r3, r0
 13047 0046 E4E7     		b	.L1624
 13048              	.L1628:
 13049 0048 0021     		movs	r1, #0
 13050 004a 2046     		mov	r0, r4
 13051 004c FFF7FEFF 		bl	ism330dhcx_mem_bank_set
 13052 0050 0346     		mov	r3, r0
 13053 0052 DFE7     		b	.L1623
 13055              		.section	.text.ism330dhcx_sh_master_get,"ax",%progbits
 13056              		.align	1
 13057              		.global	ism330dhcx_sh_master_get
 13058              		.syntax unified
 13059              		.thumb
 13060              		.thumb_func
 13062              	ism330dhcx_sh_master_get:
 13063              		@ args = 0, pretend = 0, frame = 8
 13064              		@ frame_needed = 0, uses_anonymous_args = 0
 13065 0000 30B5     		push	{r4, r5, lr}
 13066 0002 83B0     		sub	sp, sp, #12
 13067 0004 0446     		mov	r4, r0
 13068 0006 0D46     		mov	r5, r1
 13069 0008 0121     		movs	r1, #1
 13070 000a FFF7FEFF 		bl	ism330dhcx_mem_bank_set
 13071 000e 08B1     		cbz	r0, .L1632
 13072              	.L1629:
 13073 0010 03B0     		add	sp, sp, #12
 13074              		@ sp needed
 13075 0012 30BD     		pop	{r4, r5, pc}
 13076              	.L1632:
 13077 0014 0123     		movs	r3, #1
 13078 0016 01AA     		add	r2, sp, #4
 13079 0018 1421     		movs	r1, #20
 13080 001a 2046     		mov	r0, r4
 13081 001c FFF7FEFF 		bl	ism330dhcx_read_reg
 13082 0020 0028     		cmp	r0, #0
 13083 0022 F5D1     		bne	.L1629
 13084 0024 9DF80430 		ldrb	r3, [sp, #4]	@ zero_extendqisi2
 13085 0028 C3F38003 		ubfx	r3, r3, #2, #1
 13086 002c 2B70     		strb	r3, [r5]
 13087 002e 0021     		movs	r1, #0
 13088 0030 2046     		mov	r0, r4
 13089 0032 FFF7FEFF 		bl	ism330dhcx_mem_bank_set
 13090 0036 EBE7     		b	.L1629
 13092              		.section	.text.ism330dhcx_sh_pin_mode_set,"ax",%progbits
 13093              		.align	1
 13094              		.global	ism330dhcx_sh_pin_mode_set
 13095              		.syntax unified
 13096              		.thumb
 13097              		.thumb_func
ARM GAS  C:\Temp\ccOH3Pt6.s 			page 220


 13099              	ism330dhcx_sh_pin_mode_set:
 13100              		@ args = 0, pretend = 0, frame = 8
 13101              		@ frame_needed = 0, uses_anonymous_args = 0
 13102 0000 30B5     		push	{r4, r5, lr}
 13103 0002 83B0     		sub	sp, sp, #12
 13104 0004 0446     		mov	r4, r0
 13105 0006 0D46     		mov	r5, r1
 13106 0008 0121     		movs	r1, #1
 13107 000a FFF7FEFF 		bl	ism330dhcx_mem_bank_set
 13108 000e 0346     		mov	r3, r0
 13109 0010 18B1     		cbz	r0, .L1637
 13110              	.L1634:
 13111 0012 CBB1     		cbz	r3, .L1638
 13112              	.L1633:
 13113 0014 1846     		mov	r0, r3
 13114 0016 03B0     		add	sp, sp, #12
 13115              		@ sp needed
 13116 0018 30BD     		pop	{r4, r5, pc}
 13117              	.L1637:
 13118 001a 0123     		movs	r3, #1
 13119 001c 01AA     		add	r2, sp, #4
 13120 001e 1421     		movs	r1, #20
 13121 0020 2046     		mov	r0, r4
 13122 0022 FFF7FEFF 		bl	ism330dhcx_read_reg
 13123 0026 0346     		mov	r3, r0
 13124 0028 0028     		cmp	r0, #0
 13125 002a F3D1     		bne	.L1633
 13126 002c 9DF80430 		ldrb	r3, [sp, #4]	@ zero_extendqisi2
 13127 0030 65F3C303 		bfi	r3, r5, #3, #1
 13128 0034 8DF80430 		strb	r3, [sp, #4]
 13129 0038 0123     		movs	r3, #1
 13130 003a 01AA     		add	r2, sp, #4
 13131 003c 1421     		movs	r1, #20
 13132 003e 2046     		mov	r0, r4
 13133 0040 FFF7FEFF 		bl	ism330dhcx_write_reg
 13134 0044 0346     		mov	r3, r0
 13135 0046 E4E7     		b	.L1634
 13136              	.L1638:
 13137 0048 0021     		movs	r1, #0
 13138 004a 2046     		mov	r0, r4
 13139 004c FFF7FEFF 		bl	ism330dhcx_mem_bank_set
 13140 0050 0346     		mov	r3, r0
 13141 0052 DFE7     		b	.L1633
 13143              		.section	.text.ism330dhcx_sh_pin_mode_get,"ax",%progbits
 13144              		.align	1
 13145              		.global	ism330dhcx_sh_pin_mode_get
 13146              		.syntax unified
 13147              		.thumb
 13148              		.thumb_func
 13150              	ism330dhcx_sh_pin_mode_get:
 13151              		@ args = 0, pretend = 0, frame = 8
 13152              		@ frame_needed = 0, uses_anonymous_args = 0
 13153 0000 30B5     		push	{r4, r5, lr}
 13154 0002 83B0     		sub	sp, sp, #12
 13155 0004 0446     		mov	r4, r0
 13156 0006 0D46     		mov	r5, r1
 13157 0008 0121     		movs	r1, #1
ARM GAS  C:\Temp\ccOH3Pt6.s 			page 221


 13158 000a FFF7FEFF 		bl	ism330dhcx_mem_bank_set
 13159 000e 50B1     		cbz	r0, .L1647
 13160              	.L1640:
 13161 0010 9DF80430 		ldrb	r3, [sp, #4]	@ zero_extendqisi2
 13162 0014 C3F3C002 		ubfx	r2, r3, #3, #1
 13163 0018 13F0080F 		tst	r3, #8
 13164 001c 10D0     		beq	.L1641
 13165 001e 9AB9     		cbnz	r2, .L1642
 13166 0020 0023     		movs	r3, #0
 13167 0022 2B70     		strb	r3, [r5]
 13168 0024 0EE0     		b	.L1639
 13169              	.L1647:
 13170 0026 0123     		movs	r3, #1
 13171 0028 01AA     		add	r2, sp, #4
 13172 002a 1421     		movs	r1, #20
 13173 002c 2046     		mov	r0, r4
 13174 002e FFF7FEFF 		bl	ism330dhcx_read_reg
 13175 0032 0028     		cmp	r0, #0
 13176 0034 ECD1     		bne	.L1640
 13177 0036 0021     		movs	r1, #0
 13178 0038 2046     		mov	r0, r4
 13179 003a FFF7FEFF 		bl	ism330dhcx_mem_bank_set
 13180 003e E7E7     		b	.L1640
 13181              	.L1641:
 13182 0040 0023     		movs	r3, #0
 13183 0042 2B70     		strb	r3, [r5]
 13184              	.L1639:
 13185 0044 03B0     		add	sp, sp, #12
 13186              		@ sp needed
 13187 0046 30BD     		pop	{r4, r5, pc}
 13188              	.L1642:
 13189 0048 0123     		movs	r3, #1
 13190 004a 2B70     		strb	r3, [r5]
 13191 004c FAE7     		b	.L1639
 13193              		.section	.text.ism330dhcx_sh_pass_through_set,"ax",%progbits
 13194              		.align	1
 13195              		.global	ism330dhcx_sh_pass_through_set
 13196              		.syntax unified
 13197              		.thumb
 13198              		.thumb_func
 13200              	ism330dhcx_sh_pass_through_set:
 13201              		@ args = 0, pretend = 0, frame = 8
 13202              		@ frame_needed = 0, uses_anonymous_args = 0
 13203 0000 30B5     		push	{r4, r5, lr}
 13204 0002 83B0     		sub	sp, sp, #12
 13205 0004 0446     		mov	r4, r0
 13206 0006 0D46     		mov	r5, r1
 13207 0008 0121     		movs	r1, #1
 13208 000a FFF7FEFF 		bl	ism330dhcx_mem_bank_set
 13209 000e 0346     		mov	r3, r0
 13210 0010 18B1     		cbz	r0, .L1652
 13211              	.L1649:
 13212 0012 CBB1     		cbz	r3, .L1653
 13213              	.L1648:
 13214 0014 1846     		mov	r0, r3
 13215 0016 03B0     		add	sp, sp, #12
 13216              		@ sp needed
ARM GAS  C:\Temp\ccOH3Pt6.s 			page 222


 13217 0018 30BD     		pop	{r4, r5, pc}
 13218              	.L1652:
 13219 001a 0123     		movs	r3, #1
 13220 001c 01AA     		add	r2, sp, #4
 13221 001e 1421     		movs	r1, #20
 13222 0020 2046     		mov	r0, r4
 13223 0022 FFF7FEFF 		bl	ism330dhcx_read_reg
 13224 0026 0346     		mov	r3, r0
 13225 0028 0028     		cmp	r0, #0
 13226 002a F3D1     		bne	.L1648
 13227 002c 9DF80430 		ldrb	r3, [sp, #4]	@ zero_extendqisi2
 13228 0030 65F30413 		bfi	r3, r5, #4, #1
 13229 0034 8DF80430 		strb	r3, [sp, #4]
 13230 0038 0123     		movs	r3, #1
 13231 003a 01AA     		add	r2, sp, #4
 13232 003c 1421     		movs	r1, #20
 13233 003e 2046     		mov	r0, r4
 13234 0040 FFF7FEFF 		bl	ism330dhcx_write_reg
 13235 0044 0346     		mov	r3, r0
 13236 0046 E4E7     		b	.L1649
 13237              	.L1653:
 13238 0048 0021     		movs	r1, #0
 13239 004a 2046     		mov	r0, r4
 13240 004c FFF7FEFF 		bl	ism330dhcx_mem_bank_set
 13241 0050 0346     		mov	r3, r0
 13242 0052 DFE7     		b	.L1648
 13244              		.section	.text.ism330dhcx_sh_pass_through_get,"ax",%progbits
 13245              		.align	1
 13246              		.global	ism330dhcx_sh_pass_through_get
 13247              		.syntax unified
 13248              		.thumb
 13249              		.thumb_func
 13251              	ism330dhcx_sh_pass_through_get:
 13252              		@ args = 0, pretend = 0, frame = 8
 13253              		@ frame_needed = 0, uses_anonymous_args = 0
 13254 0000 30B5     		push	{r4, r5, lr}
 13255 0002 83B0     		sub	sp, sp, #12
 13256 0004 0446     		mov	r4, r0
 13257 0006 0D46     		mov	r5, r1
 13258 0008 0121     		movs	r1, #1
 13259 000a FFF7FEFF 		bl	ism330dhcx_mem_bank_set
 13260 000e 08B1     		cbz	r0, .L1657
 13261              	.L1654:
 13262 0010 03B0     		add	sp, sp, #12
 13263              		@ sp needed
 13264 0012 30BD     		pop	{r4, r5, pc}
 13265              	.L1657:
 13266 0014 0123     		movs	r3, #1
 13267 0016 01AA     		add	r2, sp, #4
 13268 0018 1421     		movs	r1, #20
 13269 001a 2046     		mov	r0, r4
 13270 001c FFF7FEFF 		bl	ism330dhcx_read_reg
 13271 0020 0028     		cmp	r0, #0
 13272 0022 F5D1     		bne	.L1654
 13273 0024 9DF80430 		ldrb	r3, [sp, #4]	@ zero_extendqisi2
 13274 0028 C3F30013 		ubfx	r3, r3, #4, #1
 13275 002c 2B70     		strb	r3, [r5]
ARM GAS  C:\Temp\ccOH3Pt6.s 			page 223


 13276 002e 0021     		movs	r1, #0
 13277 0030 2046     		mov	r0, r4
 13278 0032 FFF7FEFF 		bl	ism330dhcx_mem_bank_set
 13279 0036 EBE7     		b	.L1654
 13281              		.section	.text.ism330dhcx_sh_syncro_mode_set,"ax",%progbits
 13282              		.align	1
 13283              		.global	ism330dhcx_sh_syncro_mode_set
 13284              		.syntax unified
 13285              		.thumb
 13286              		.thumb_func
 13288              	ism330dhcx_sh_syncro_mode_set:
 13289              		@ args = 0, pretend = 0, frame = 8
 13290              		@ frame_needed = 0, uses_anonymous_args = 0
 13291 0000 30B5     		push	{r4, r5, lr}
 13292 0002 83B0     		sub	sp, sp, #12
 13293 0004 0446     		mov	r4, r0
 13294 0006 0D46     		mov	r5, r1
 13295 0008 0121     		movs	r1, #1
 13296 000a FFF7FEFF 		bl	ism330dhcx_mem_bank_set
 13297 000e 0346     		mov	r3, r0
 13298 0010 18B1     		cbz	r0, .L1662
 13299              	.L1659:
 13300 0012 CBB1     		cbz	r3, .L1663
 13301              	.L1658:
 13302 0014 1846     		mov	r0, r3
 13303 0016 03B0     		add	sp, sp, #12
 13304              		@ sp needed
 13305 0018 30BD     		pop	{r4, r5, pc}
 13306              	.L1662:
 13307 001a 0123     		movs	r3, #1
 13308 001c 01AA     		add	r2, sp, #4
 13309 001e 1421     		movs	r1, #20
 13310 0020 2046     		mov	r0, r4
 13311 0022 FFF7FEFF 		bl	ism330dhcx_read_reg
 13312 0026 0346     		mov	r3, r0
 13313 0028 0028     		cmp	r0, #0
 13314 002a F3D1     		bne	.L1658
 13315 002c 9DF80430 		ldrb	r3, [sp, #4]	@ zero_extendqisi2
 13316 0030 65F34513 		bfi	r3, r5, #5, #1
 13317 0034 8DF80430 		strb	r3, [sp, #4]
 13318 0038 0123     		movs	r3, #1
 13319 003a 01AA     		add	r2, sp, #4
 13320 003c 1421     		movs	r1, #20
 13321 003e 2046     		mov	r0, r4
 13322 0040 FFF7FEFF 		bl	ism330dhcx_write_reg
 13323 0044 0346     		mov	r3, r0
 13324 0046 E4E7     		b	.L1659
 13325              	.L1663:
 13326 0048 0021     		movs	r1, #0
 13327 004a 2046     		mov	r0, r4
 13328 004c FFF7FEFF 		bl	ism330dhcx_mem_bank_set
 13329 0050 0346     		mov	r3, r0
 13330 0052 DFE7     		b	.L1658
 13332              		.section	.text.ism330dhcx_sh_syncro_mode_get,"ax",%progbits
 13333              		.align	1
 13334              		.global	ism330dhcx_sh_syncro_mode_get
 13335              		.syntax unified
ARM GAS  C:\Temp\ccOH3Pt6.s 			page 224


 13336              		.thumb
 13337              		.thumb_func
 13339              	ism330dhcx_sh_syncro_mode_get:
 13340              		@ args = 0, pretend = 0, frame = 8
 13341              		@ frame_needed = 0, uses_anonymous_args = 0
 13342 0000 30B5     		push	{r4, r5, lr}
 13343 0002 83B0     		sub	sp, sp, #12
 13344 0004 0446     		mov	r4, r0
 13345 0006 0D46     		mov	r5, r1
 13346 0008 0121     		movs	r1, #1
 13347 000a FFF7FEFF 		bl	ism330dhcx_mem_bank_set
 13348 000e 58B1     		cbz	r0, .L1670
 13349              	.L1665:
 13350 0010 9DF80430 		ldrb	r3, [sp, #4]	@ zero_extendqisi2
 13351 0014 C3F34012 		ubfx	r2, r3, #5, #1
 13352 0018 13F0200F 		tst	r3, #32
 13353 001c 11D0     		beq	.L1666
 13354 001e 9AB1     		cbz	r2, .L1667
 13355 0020 0123     		movs	r3, #1
 13356 0022 2B70     		strb	r3, [r5]
 13357              	.L1664:
 13358 0024 03B0     		add	sp, sp, #12
 13359              		@ sp needed
 13360 0026 30BD     		pop	{r4, r5, pc}
 13361              	.L1670:
 13362 0028 0123     		movs	r3, #1
 13363 002a 01AA     		add	r2, sp, #4
 13364 002c 1421     		movs	r1, #20
 13365 002e 2046     		mov	r0, r4
 13366 0030 FFF7FEFF 		bl	ism330dhcx_read_reg
 13367 0034 0028     		cmp	r0, #0
 13368 0036 EBD1     		bne	.L1665
 13369 0038 0021     		movs	r1, #0
 13370 003a 2046     		mov	r0, r4
 13371 003c FFF7FEFF 		bl	ism330dhcx_mem_bank_set
 13372 0040 E6E7     		b	.L1665
 13373              	.L1666:
 13374 0042 0023     		movs	r3, #0
 13375 0044 2B70     		strb	r3, [r5]
 13376 0046 EDE7     		b	.L1664
 13377              	.L1667:
 13378 0048 0123     		movs	r3, #1
 13379 004a 2B70     		strb	r3, [r5]
 13380 004c EAE7     		b	.L1664
 13382              		.section	.text.ism330dhcx_sh_write_mode_set,"ax",%progbits
 13383              		.align	1
 13384              		.global	ism330dhcx_sh_write_mode_set
 13385              		.syntax unified
 13386              		.thumb
 13387              		.thumb_func
 13389              	ism330dhcx_sh_write_mode_set:
 13390              		@ args = 0, pretend = 0, frame = 8
 13391              		@ frame_needed = 0, uses_anonymous_args = 0
 13392 0000 30B5     		push	{r4, r5, lr}
 13393 0002 83B0     		sub	sp, sp, #12
 13394 0004 0446     		mov	r4, r0
 13395 0006 0D46     		mov	r5, r1
ARM GAS  C:\Temp\ccOH3Pt6.s 			page 225


 13396 0008 0121     		movs	r1, #1
 13397 000a FFF7FEFF 		bl	ism330dhcx_mem_bank_set
 13398 000e 0346     		mov	r3, r0
 13399 0010 18B1     		cbz	r0, .L1675
 13400              	.L1672:
 13401 0012 CBB1     		cbz	r3, .L1676
 13402              	.L1671:
 13403 0014 1846     		mov	r0, r3
 13404 0016 03B0     		add	sp, sp, #12
 13405              		@ sp needed
 13406 0018 30BD     		pop	{r4, r5, pc}
 13407              	.L1675:
 13408 001a 0123     		movs	r3, #1
 13409 001c 01AA     		add	r2, sp, #4
 13410 001e 1421     		movs	r1, #20
 13411 0020 2046     		mov	r0, r4
 13412 0022 FFF7FEFF 		bl	ism330dhcx_read_reg
 13413 0026 0346     		mov	r3, r0
 13414 0028 0028     		cmp	r0, #0
 13415 002a F3D1     		bne	.L1671
 13416 002c 9DF80430 		ldrb	r3, [sp, #4]	@ zero_extendqisi2
 13417 0030 65F38613 		bfi	r3, r5, #6, #1
 13418 0034 8DF80430 		strb	r3, [sp, #4]
 13419 0038 0123     		movs	r3, #1
 13420 003a 01AA     		add	r2, sp, #4
 13421 003c 1421     		movs	r1, #20
 13422 003e 2046     		mov	r0, r4
 13423 0040 FFF7FEFF 		bl	ism330dhcx_write_reg
 13424 0044 0346     		mov	r3, r0
 13425 0046 E4E7     		b	.L1672
 13426              	.L1676:
 13427 0048 0021     		movs	r1, #0
 13428 004a 2046     		mov	r0, r4
 13429 004c FFF7FEFF 		bl	ism330dhcx_mem_bank_set
 13430 0050 0346     		mov	r3, r0
 13431 0052 DFE7     		b	.L1671
 13433              		.section	.text.ism330dhcx_sh_write_mode_get,"ax",%progbits
 13434              		.align	1
 13435              		.global	ism330dhcx_sh_write_mode_get
 13436              		.syntax unified
 13437              		.thumb
 13438              		.thumb_func
 13440              	ism330dhcx_sh_write_mode_get:
 13441              		@ args = 0, pretend = 0, frame = 8
 13442              		@ frame_needed = 0, uses_anonymous_args = 0
 13443 0000 30B5     		push	{r4, r5, lr}
 13444 0002 83B0     		sub	sp, sp, #12
 13445 0004 0446     		mov	r4, r0
 13446 0006 0D46     		mov	r5, r1
 13447 0008 0121     		movs	r1, #1
 13448 000a FFF7FEFF 		bl	ism330dhcx_mem_bank_set
 13449 000e 50B1     		cbz	r0, .L1685
 13450              	.L1678:
 13451 0010 9DF80430 		ldrb	r3, [sp, #4]	@ zero_extendqisi2
 13452 0014 C3F38012 		ubfx	r2, r3, #6, #1
 13453 0018 13F0400F 		tst	r3, #64
 13454 001c 10D0     		beq	.L1679
ARM GAS  C:\Temp\ccOH3Pt6.s 			page 226


 13455 001e 9AB9     		cbnz	r2, .L1680
 13456 0020 0023     		movs	r3, #0
 13457 0022 2B70     		strb	r3, [r5]
 13458 0024 0EE0     		b	.L1677
 13459              	.L1685:
 13460 0026 0123     		movs	r3, #1
 13461 0028 01AA     		add	r2, sp, #4
 13462 002a 1421     		movs	r1, #20
 13463 002c 2046     		mov	r0, r4
 13464 002e FFF7FEFF 		bl	ism330dhcx_read_reg
 13465 0032 0028     		cmp	r0, #0
 13466 0034 ECD1     		bne	.L1678
 13467 0036 0021     		movs	r1, #0
 13468 0038 2046     		mov	r0, r4
 13469 003a FFF7FEFF 		bl	ism330dhcx_mem_bank_set
 13470 003e E7E7     		b	.L1678
 13471              	.L1679:
 13472 0040 0023     		movs	r3, #0
 13473 0042 2B70     		strb	r3, [r5]
 13474              	.L1677:
 13475 0044 03B0     		add	sp, sp, #12
 13476              		@ sp needed
 13477 0046 30BD     		pop	{r4, r5, pc}
 13478              	.L1680:
 13479 0048 0123     		movs	r3, #1
 13480 004a 2B70     		strb	r3, [r5]
 13481 004c FAE7     		b	.L1677
 13483              		.section	.text.ism330dhcx_sh_reset_set,"ax",%progbits
 13484              		.align	1
 13485              		.global	ism330dhcx_sh_reset_set
 13486              		.syntax unified
 13487              		.thumb
 13488              		.thumb_func
 13490              	ism330dhcx_sh_reset_set:
 13491              		@ args = 0, pretend = 0, frame = 8
 13492              		@ frame_needed = 0, uses_anonymous_args = 0
 13493 0000 10B5     		push	{r4, lr}
 13494 0002 82B0     		sub	sp, sp, #8
 13495 0004 0446     		mov	r4, r0
 13496 0006 0121     		movs	r1, #1
 13497 0008 FFF7FEFF 		bl	ism330dhcx_mem_bank_set
 13498 000c 0346     		mov	r3, r0
 13499 000e 18B1     		cbz	r0, .L1690
 13500              	.L1687:
 13501 0010 CBB1     		cbz	r3, .L1691
 13502              	.L1686:
 13503 0012 1846     		mov	r0, r3
 13504 0014 02B0     		add	sp, sp, #8
 13505              		@ sp needed
 13506 0016 10BD     		pop	{r4, pc}
 13507              	.L1690:
 13508 0018 0123     		movs	r3, #1
 13509 001a 01AA     		add	r2, sp, #4
 13510 001c 1421     		movs	r1, #20
 13511 001e 2046     		mov	r0, r4
 13512 0020 FFF7FEFF 		bl	ism330dhcx_read_reg
 13513 0024 0346     		mov	r3, r0
ARM GAS  C:\Temp\ccOH3Pt6.s 			page 227


 13514 0026 0028     		cmp	r0, #0
 13515 0028 F3D1     		bne	.L1686
 13516 002a 9DF80430 		ldrb	r3, [sp, #4]	@ zero_extendqisi2
 13517 002e 43F08003 		orr	r3, r3, #128
 13518 0032 8DF80430 		strb	r3, [sp, #4]
 13519 0036 0123     		movs	r3, #1
 13520 0038 01AA     		add	r2, sp, #4
 13521 003a 1421     		movs	r1, #20
 13522 003c 2046     		mov	r0, r4
 13523 003e FFF7FEFF 		bl	ism330dhcx_write_reg
 13524 0042 0346     		mov	r3, r0
 13525 0044 E4E7     		b	.L1687
 13526              	.L1691:
 13527 0046 9DF80430 		ldrb	r3, [sp, #4]	@ zero_extendqisi2
 13528 004a 6FF3C713 		bfc	r3, #7, #1
 13529 004e 8DF80430 		strb	r3, [sp, #4]
 13530 0052 0123     		movs	r3, #1
 13531 0054 01AA     		add	r2, sp, #4
 13532 0056 1421     		movs	r1, #20
 13533 0058 2046     		mov	r0, r4
 13534 005a FFF7FEFF 		bl	ism330dhcx_write_reg
 13535 005e 0346     		mov	r3, r0
 13536 0060 0028     		cmp	r0, #0
 13537 0062 D6D1     		bne	.L1686
 13538 0064 0021     		movs	r1, #0
 13539 0066 2046     		mov	r0, r4
 13540 0068 FFF7FEFF 		bl	ism330dhcx_mem_bank_set
 13541 006c 0346     		mov	r3, r0
 13542 006e D0E7     		b	.L1686
 13544              		.section	.text.ism330dhcx_sh_reset_get,"ax",%progbits
 13545              		.align	1
 13546              		.global	ism330dhcx_sh_reset_get
 13547              		.syntax unified
 13548              		.thumb
 13549              		.thumb_func
 13551              	ism330dhcx_sh_reset_get:
 13552              		@ args = 0, pretend = 0, frame = 8
 13553              		@ frame_needed = 0, uses_anonymous_args = 0
 13554 0000 30B5     		push	{r4, r5, lr}
 13555 0002 83B0     		sub	sp, sp, #12
 13556 0004 0446     		mov	r4, r0
 13557 0006 0D46     		mov	r5, r1
 13558 0008 0121     		movs	r1, #1
 13559 000a FFF7FEFF 		bl	ism330dhcx_mem_bank_set
 13560 000e 08B1     		cbz	r0, .L1695
 13561              	.L1692:
 13562 0010 03B0     		add	sp, sp, #12
 13563              		@ sp needed
 13564 0012 30BD     		pop	{r4, r5, pc}
 13565              	.L1695:
 13566 0014 0123     		movs	r3, #1
 13567 0016 01AA     		add	r2, sp, #4
 13568 0018 1421     		movs	r1, #20
 13569 001a 2046     		mov	r0, r4
 13570 001c FFF7FEFF 		bl	ism330dhcx_read_reg
 13571 0020 9DF80430 		ldrb	r3, [sp, #4]	@ zero_extendqisi2
 13572 0024 C3F3C013 		ubfx	r3, r3, #7, #1
ARM GAS  C:\Temp\ccOH3Pt6.s 			page 228


 13573 0028 2B70     		strb	r3, [r5]
 13574 002a 0028     		cmp	r0, #0
 13575 002c F0D1     		bne	.L1692
 13576 002e 0021     		movs	r1, #0
 13577 0030 2046     		mov	r0, r4
 13578 0032 FFF7FEFF 		bl	ism330dhcx_mem_bank_set
 13579 0036 EBE7     		b	.L1692
 13581              		.section	.text.ism330dhcx_sh_data_rate_set,"ax",%progbits
 13582              		.align	1
 13583              		.global	ism330dhcx_sh_data_rate_set
 13584              		.syntax unified
 13585              		.thumb
 13586              		.thumb_func
 13588              	ism330dhcx_sh_data_rate_set:
 13589              		@ args = 0, pretend = 0, frame = 8
 13590              		@ frame_needed = 0, uses_anonymous_args = 0
 13591 0000 30B5     		push	{r4, r5, lr}
 13592 0002 83B0     		sub	sp, sp, #12
 13593 0004 0446     		mov	r4, r0
 13594 0006 0D46     		mov	r5, r1
 13595 0008 0121     		movs	r1, #1
 13596 000a FFF7FEFF 		bl	ism330dhcx_mem_bank_set
 13597 000e 0346     		mov	r3, r0
 13598 0010 18B1     		cbz	r0, .L1700
 13599              	.L1697:
 13600 0012 CBB1     		cbz	r3, .L1701
 13601              	.L1696:
 13602 0014 1846     		mov	r0, r3
 13603 0016 03B0     		add	sp, sp, #12
 13604              		@ sp needed
 13605 0018 30BD     		pop	{r4, r5, pc}
 13606              	.L1700:
 13607 001a 0123     		movs	r3, #1
 13608 001c 01AA     		add	r2, sp, #4
 13609 001e 1721     		movs	r1, #23
 13610 0020 2046     		mov	r0, r4
 13611 0022 FFF7FEFF 		bl	ism330dhcx_read_reg
 13612 0026 0346     		mov	r3, r0
 13613 0028 0028     		cmp	r0, #0
 13614 002a F3D1     		bne	.L1696
 13615 002c 9DF80430 		ldrb	r3, [sp, #4]	@ zero_extendqisi2
 13616 0030 65F38713 		bfi	r3, r5, #6, #2
 13617 0034 8DF80430 		strb	r3, [sp, #4]
 13618 0038 0123     		movs	r3, #1
 13619 003a 01AA     		add	r2, sp, #4
 13620 003c 1721     		movs	r1, #23
 13621 003e 2046     		mov	r0, r4
 13622 0040 FFF7FEFF 		bl	ism330dhcx_write_reg
 13623 0044 0346     		mov	r3, r0
 13624 0046 E4E7     		b	.L1697
 13625              	.L1701:
 13626 0048 0021     		movs	r1, #0
 13627 004a 2046     		mov	r0, r4
 13628 004c FFF7FEFF 		bl	ism330dhcx_mem_bank_set
 13629 0050 0346     		mov	r3, r0
 13630 0052 DFE7     		b	.L1696
 13632              		.section	.text.ism330dhcx_sh_data_rate_get,"ax",%progbits
ARM GAS  C:\Temp\ccOH3Pt6.s 			page 229


 13633              		.align	1
 13634              		.global	ism330dhcx_sh_data_rate_get
 13635              		.syntax unified
 13636              		.thumb
 13637              		.thumb_func
 13639              	ism330dhcx_sh_data_rate_get:
 13640              		@ args = 0, pretend = 0, frame = 8
 13641              		@ frame_needed = 0, uses_anonymous_args = 0
 13642 0000 30B5     		push	{r4, r5, lr}
 13643 0002 83B0     		sub	sp, sp, #12
 13644 0004 0446     		mov	r4, r0
 13645 0006 0D46     		mov	r5, r1
 13646 0008 0121     		movs	r1, #1
 13647 000a FFF7FEFF 		bl	ism330dhcx_mem_bank_set
 13648 000e 40B1     		cbz	r0, .L1712
 13649              	.L1703:
 13650 0010 9DF80430 		ldrb	r3, [sp, #4]	@ zero_extendqisi2
 13651 0014 9B09     		lsrs	r3, r3, #6
 13652 0016 032B     		cmp	r3, #3
 13653 0018 1DD8     		bhi	.L1704
 13654 001a DFE803F0 		tbb	[pc, r3]
 13655              	.L1706:
 13656 001e 0F       		.byte	(.L1709-.L1706)/2
 13657 001f 13       		.byte	(.L1708-.L1706)/2
 13658 0020 16       		.byte	(.L1707-.L1706)/2
 13659 0021 19       		.byte	(.L1705-.L1706)/2
 13660              		.p2align 1
 13661              	.L1712:
 13662 0022 0123     		movs	r3, #1
 13663 0024 01AA     		add	r2, sp, #4
 13664 0026 1721     		movs	r1, #23
 13665 0028 2046     		mov	r0, r4
 13666 002a FFF7FEFF 		bl	ism330dhcx_read_reg
 13667 002e 0028     		cmp	r0, #0
 13668 0030 EED1     		bne	.L1703
 13669 0032 0021     		movs	r1, #0
 13670 0034 2046     		mov	r0, r4
 13671 0036 FFF7FEFF 		bl	ism330dhcx_mem_bank_set
 13672 003a E9E7     		b	.L1703
 13673              	.L1709:
 13674 003c 0023     		movs	r3, #0
 13675 003e 2B70     		strb	r3, [r5]
 13676              	.L1702:
 13677 0040 03B0     		add	sp, sp, #12
 13678              		@ sp needed
 13679 0042 30BD     		pop	{r4, r5, pc}
 13680              	.L1708:
 13681 0044 0123     		movs	r3, #1
 13682 0046 2B70     		strb	r3, [r5]
 13683 0048 FAE7     		b	.L1702
 13684              	.L1707:
 13685 004a 0223     		movs	r3, #2
 13686 004c 2B70     		strb	r3, [r5]
 13687 004e F7E7     		b	.L1702
 13688              	.L1705:
 13689 0050 0323     		movs	r3, #3
 13690 0052 2B70     		strb	r3, [r5]
ARM GAS  C:\Temp\ccOH3Pt6.s 			page 230


 13691 0054 F4E7     		b	.L1702
 13692              	.L1704:
 13693 0056 0023     		movs	r3, #0
 13694 0058 2B70     		strb	r3, [r5]
 13695 005a F1E7     		b	.L1702
 13697              		.section	.text.ism330dhcx_sh_cfg_write,"ax",%progbits
 13698              		.align	1
 13699              		.global	ism330dhcx_sh_cfg_write
 13700              		.syntax unified
 13701              		.thumb
 13702              		.thumb_func
 13704              	ism330dhcx_sh_cfg_write:
 13705              		@ args = 0, pretend = 0, frame = 8
 13706              		@ frame_needed = 0, uses_anonymous_args = 0
 13707 0000 30B5     		push	{r4, r5, lr}
 13708 0002 83B0     		sub	sp, sp, #12
 13709 0004 0546     		mov	r5, r0
 13710 0006 0C46     		mov	r4, r1
 13711 0008 0121     		movs	r1, #1
 13712 000a FFF7FEFF 		bl	ism330dhcx_mem_bank_set
 13713 000e 0346     		mov	r3, r0
 13714 0010 18B1     		cbz	r0, .L1717
 13715              	.L1714:
 13716 0012 03B3     		cbz	r3, .L1718
 13717              	.L1713:
 13718 0014 1846     		mov	r0, r3
 13719 0016 03B0     		add	sp, sp, #12
 13720              		@ sp needed
 13721 0018 30BD     		pop	{r4, r5, pc}
 13722              	.L1717:
 13723 001a 2378     		ldrb	r3, [r4]	@ zero_extendqisi2
 13724 001c 5B08     		lsrs	r3, r3, #1
 13725 001e 9DF80420 		ldrb	r2, [sp, #4]	@ zero_extendqisi2
 13726 0022 63F34702 		bfi	r2, r3, #1, #7
 13727 0026 8DF80420 		strb	r2, [sp, #4]
 13728 002a D3B2     		uxtb	r3, r2
 13729 002c 6FF30003 		bfc	r3, #0, #1
 13730 0030 8DF80430 		strb	r3, [sp, #4]
 13731 0034 0123     		movs	r3, #1
 13732 0036 01AA     		add	r2, sp, #4
 13733 0038 1521     		movs	r1, #21
 13734 003a 2846     		mov	r0, r5
 13735 003c FFF7FEFF 		bl	ism330dhcx_write_reg
 13736 0040 0346     		mov	r3, r0
 13737 0042 0028     		cmp	r0, #0
 13738 0044 E6D1     		bne	.L1713
 13739 0046 0123     		movs	r3, #1
 13740 0048 E218     		adds	r2, r4, r3
 13741 004a 1621     		movs	r1, #22
 13742 004c 2846     		mov	r0, r5
 13743 004e FFF7FEFF 		bl	ism330dhcx_write_reg
 13744 0052 0346     		mov	r3, r0
 13745 0054 DDE7     		b	.L1714
 13746              	.L1718:
 13747 0056 0123     		movs	r3, #1
 13748 0058 A21C     		adds	r2, r4, #2
 13749 005a 2121     		movs	r1, #33
ARM GAS  C:\Temp\ccOH3Pt6.s 			page 231


 13750 005c 2846     		mov	r0, r5
 13751 005e FFF7FEFF 		bl	ism330dhcx_write_reg
 13752 0062 0346     		mov	r3, r0
 13753 0064 0028     		cmp	r0, #0
 13754 0066 D5D1     		bne	.L1713
 13755 0068 0021     		movs	r1, #0
 13756 006a 2846     		mov	r0, r5
 13757 006c FFF7FEFF 		bl	ism330dhcx_mem_bank_set
 13758 0070 0346     		mov	r3, r0
 13759 0072 CFE7     		b	.L1713
 13761              		.section	.text.ism330dhcx_sh_slv0_cfg_read,"ax",%progbits
 13762              		.align	1
 13763              		.global	ism330dhcx_sh_slv0_cfg_read
 13764              		.syntax unified
 13765              		.thumb
 13766              		.thumb_func
 13768              	ism330dhcx_sh_slv0_cfg_read:
 13769              		@ args = 0, pretend = 0, frame = 8
 13770              		@ frame_needed = 0, uses_anonymous_args = 0
 13771 0000 30B5     		push	{r4, r5, lr}
 13772 0002 83B0     		sub	sp, sp, #12
 13773 0004 0546     		mov	r5, r0
 13774 0006 0C46     		mov	r4, r1
 13775 0008 0121     		movs	r1, #1
 13776 000a FFF7FEFF 		bl	ism330dhcx_mem_bank_set
 13777 000e 0346     		mov	r3, r0
 13778 0010 18B1     		cbz	r0, .L1723
 13779              	.L1720:
 13780 0012 03B3     		cbz	r3, .L1724
 13781              	.L1719:
 13782 0014 1846     		mov	r0, r3
 13783 0016 03B0     		add	sp, sp, #12
 13784              		@ sp needed
 13785 0018 30BD     		pop	{r4, r5, pc}
 13786              	.L1723:
 13787 001a 2378     		ldrb	r3, [r4]	@ zero_extendqisi2
 13788 001c 5B08     		lsrs	r3, r3, #1
 13789 001e 9DF80020 		ldrb	r2, [sp]	@ zero_extendqisi2
 13790 0022 63F34702 		bfi	r2, r3, #1, #7
 13791 0026 8DF80020 		strb	r2, [sp]
 13792 002a D3B2     		uxtb	r3, r2
 13793 002c 43F00103 		orr	r3, r3, #1
 13794 0030 8DF80030 		strb	r3, [sp]
 13795 0034 0123     		movs	r3, #1
 13796 0036 6A46     		mov	r2, sp
 13797 0038 1521     		movs	r1, #21
 13798 003a 2846     		mov	r0, r5
 13799 003c FFF7FEFF 		bl	ism330dhcx_write_reg
 13800 0040 0346     		mov	r3, r0
 13801 0042 0028     		cmp	r0, #0
 13802 0044 E6D1     		bne	.L1719
 13803 0046 0123     		movs	r3, #1
 13804 0048 E218     		adds	r2, r4, r3
 13805 004a 1621     		movs	r1, #22
 13806 004c 2846     		mov	r0, r5
 13807 004e FFF7FEFF 		bl	ism330dhcx_write_reg
 13808 0052 0346     		mov	r3, r0
ARM GAS  C:\Temp\ccOH3Pt6.s 			page 232


 13809 0054 DDE7     		b	.L1720
 13810              	.L1724:
 13811 0056 0123     		movs	r3, #1
 13812 0058 01AA     		add	r2, sp, #4
 13813 005a 1721     		movs	r1, #23
 13814 005c 2846     		mov	r0, r5
 13815 005e FFF7FEFF 		bl	ism330dhcx_read_reg
 13816 0062 0346     		mov	r3, r0
 13817 0064 0028     		cmp	r0, #0
 13818 0066 D5D1     		bne	.L1719
 13819 0068 A278     		ldrb	r2, [r4, #2]	@ zero_extendqisi2
 13820 006a 9DF80430 		ldrb	r3, [sp, #4]	@ zero_extendqisi2
 13821 006e 62F30203 		bfi	r3, r2, #0, #3
 13822 0072 8DF80430 		strb	r3, [sp, #4]
 13823 0076 0123     		movs	r3, #1
 13824 0078 01AA     		add	r2, sp, #4
 13825 007a 1721     		movs	r1, #23
 13826 007c 2846     		mov	r0, r5
 13827 007e FFF7FEFF 		bl	ism330dhcx_write_reg
 13828 0082 0346     		mov	r3, r0
 13829 0084 0028     		cmp	r0, #0
 13830 0086 C5D1     		bne	.L1719
 13831 0088 0021     		movs	r1, #0
 13832 008a 2846     		mov	r0, r5
 13833 008c FFF7FEFF 		bl	ism330dhcx_mem_bank_set
 13834 0090 0346     		mov	r3, r0
 13835 0092 BFE7     		b	.L1719
 13837              		.section	.text.ism330dhcx_sh_slv1_cfg_read,"ax",%progbits
 13838              		.align	1
 13839              		.global	ism330dhcx_sh_slv1_cfg_read
 13840              		.syntax unified
 13841              		.thumb
 13842              		.thumb_func
 13844              	ism330dhcx_sh_slv1_cfg_read:
 13845              		@ args = 0, pretend = 0, frame = 8
 13846              		@ frame_needed = 0, uses_anonymous_args = 0
 13847 0000 30B5     		push	{r4, r5, lr}
 13848 0002 83B0     		sub	sp, sp, #12
 13849 0004 0546     		mov	r5, r0
 13850 0006 0C46     		mov	r4, r1
 13851 0008 0121     		movs	r1, #1
 13852 000a FFF7FEFF 		bl	ism330dhcx_mem_bank_set
 13853 000e 0346     		mov	r3, r0
 13854 0010 18B1     		cbz	r0, .L1729
 13855              	.L1726:
 13856 0012 03B3     		cbz	r3, .L1730
 13857              	.L1725:
 13858 0014 1846     		mov	r0, r3
 13859 0016 03B0     		add	sp, sp, #12
 13860              		@ sp needed
 13861 0018 30BD     		pop	{r4, r5, pc}
 13862              	.L1729:
 13863 001a 2378     		ldrb	r3, [r4]	@ zero_extendqisi2
 13864 001c 5B08     		lsrs	r3, r3, #1
 13865 001e 9DF80020 		ldrb	r2, [sp]	@ zero_extendqisi2
 13866 0022 63F34702 		bfi	r2, r3, #1, #7
 13867 0026 8DF80020 		strb	r2, [sp]
ARM GAS  C:\Temp\ccOH3Pt6.s 			page 233


 13868 002a D3B2     		uxtb	r3, r2
 13869 002c 43F00103 		orr	r3, r3, #1
 13870 0030 8DF80030 		strb	r3, [sp]
 13871 0034 0123     		movs	r3, #1
 13872 0036 6A46     		mov	r2, sp
 13873 0038 1821     		movs	r1, #24
 13874 003a 2846     		mov	r0, r5
 13875 003c FFF7FEFF 		bl	ism330dhcx_write_reg
 13876 0040 0346     		mov	r3, r0
 13877 0042 0028     		cmp	r0, #0
 13878 0044 E6D1     		bne	.L1725
 13879 0046 0123     		movs	r3, #1
 13880 0048 E218     		adds	r2, r4, r3
 13881 004a 1921     		movs	r1, #25
 13882 004c 2846     		mov	r0, r5
 13883 004e FFF7FEFF 		bl	ism330dhcx_write_reg
 13884 0052 0346     		mov	r3, r0
 13885 0054 DDE7     		b	.L1726
 13886              	.L1730:
 13887 0056 0123     		movs	r3, #1
 13888 0058 01AA     		add	r2, sp, #4
 13889 005a 1A21     		movs	r1, #26
 13890 005c 2846     		mov	r0, r5
 13891 005e FFF7FEFF 		bl	ism330dhcx_read_reg
 13892 0062 0346     		mov	r3, r0
 13893 0064 0028     		cmp	r0, #0
 13894 0066 D5D1     		bne	.L1725
 13895 0068 A278     		ldrb	r2, [r4, #2]	@ zero_extendqisi2
 13896 006a 9DF80430 		ldrb	r3, [sp, #4]	@ zero_extendqisi2
 13897 006e 62F30203 		bfi	r3, r2, #0, #3
 13898 0072 8DF80430 		strb	r3, [sp, #4]
 13899 0076 0123     		movs	r3, #1
 13900 0078 01AA     		add	r2, sp, #4
 13901 007a 1A21     		movs	r1, #26
 13902 007c 2846     		mov	r0, r5
 13903 007e FFF7FEFF 		bl	ism330dhcx_write_reg
 13904 0082 0346     		mov	r3, r0
 13905 0084 0028     		cmp	r0, #0
 13906 0086 C5D1     		bne	.L1725
 13907 0088 0021     		movs	r1, #0
 13908 008a 2846     		mov	r0, r5
 13909 008c FFF7FEFF 		bl	ism330dhcx_mem_bank_set
 13910 0090 0346     		mov	r3, r0
 13911 0092 BFE7     		b	.L1725
 13913              		.section	.text.ism330dhcx_sh_slv2_cfg_read,"ax",%progbits
 13914              		.align	1
 13915              		.global	ism330dhcx_sh_slv2_cfg_read
 13916              		.syntax unified
 13917              		.thumb
 13918              		.thumb_func
 13920              	ism330dhcx_sh_slv2_cfg_read:
 13921              		@ args = 0, pretend = 0, frame = 8
 13922              		@ frame_needed = 0, uses_anonymous_args = 0
 13923 0000 30B5     		push	{r4, r5, lr}
 13924 0002 83B0     		sub	sp, sp, #12
 13925 0004 0546     		mov	r5, r0
 13926 0006 0C46     		mov	r4, r1
ARM GAS  C:\Temp\ccOH3Pt6.s 			page 234


 13927 0008 0121     		movs	r1, #1
 13928 000a FFF7FEFF 		bl	ism330dhcx_mem_bank_set
 13929 000e 0346     		mov	r3, r0
 13930 0010 18B1     		cbz	r0, .L1735
 13931              	.L1732:
 13932 0012 03B3     		cbz	r3, .L1736
 13933              	.L1731:
 13934 0014 1846     		mov	r0, r3
 13935 0016 03B0     		add	sp, sp, #12
 13936              		@ sp needed
 13937 0018 30BD     		pop	{r4, r5, pc}
 13938              	.L1735:
 13939 001a 2378     		ldrb	r3, [r4]	@ zero_extendqisi2
 13940 001c 5B08     		lsrs	r3, r3, #1
 13941 001e 9DF80020 		ldrb	r2, [sp]	@ zero_extendqisi2
 13942 0022 63F34702 		bfi	r2, r3, #1, #7
 13943 0026 8DF80020 		strb	r2, [sp]
 13944 002a D3B2     		uxtb	r3, r2
 13945 002c 43F00103 		orr	r3, r3, #1
 13946 0030 8DF80030 		strb	r3, [sp]
 13947 0034 0123     		movs	r3, #1
 13948 0036 6A46     		mov	r2, sp
 13949 0038 1B21     		movs	r1, #27
 13950 003a 2846     		mov	r0, r5
 13951 003c FFF7FEFF 		bl	ism330dhcx_write_reg
 13952 0040 0346     		mov	r3, r0
 13953 0042 0028     		cmp	r0, #0
 13954 0044 E6D1     		bne	.L1731
 13955 0046 0123     		movs	r3, #1
 13956 0048 E218     		adds	r2, r4, r3
 13957 004a 1C21     		movs	r1, #28
 13958 004c 2846     		mov	r0, r5
 13959 004e FFF7FEFF 		bl	ism330dhcx_write_reg
 13960 0052 0346     		mov	r3, r0
 13961 0054 DDE7     		b	.L1732
 13962              	.L1736:
 13963 0056 0123     		movs	r3, #1
 13964 0058 01AA     		add	r2, sp, #4
 13965 005a 1D21     		movs	r1, #29
 13966 005c 2846     		mov	r0, r5
 13967 005e FFF7FEFF 		bl	ism330dhcx_read_reg
 13968 0062 0346     		mov	r3, r0
 13969 0064 0028     		cmp	r0, #0
 13970 0066 D5D1     		bne	.L1731
 13971 0068 A278     		ldrb	r2, [r4, #2]	@ zero_extendqisi2
 13972 006a 9DF80430 		ldrb	r3, [sp, #4]	@ zero_extendqisi2
 13973 006e 62F30203 		bfi	r3, r2, #0, #3
 13974 0072 8DF80430 		strb	r3, [sp, #4]
 13975 0076 0123     		movs	r3, #1
 13976 0078 01AA     		add	r2, sp, #4
 13977 007a 1D21     		movs	r1, #29
 13978 007c 2846     		mov	r0, r5
 13979 007e FFF7FEFF 		bl	ism330dhcx_write_reg
 13980 0082 0346     		mov	r3, r0
 13981 0084 0028     		cmp	r0, #0
 13982 0086 C5D1     		bne	.L1731
 13983 0088 0021     		movs	r1, #0
ARM GAS  C:\Temp\ccOH3Pt6.s 			page 235


 13984 008a 2846     		mov	r0, r5
 13985 008c FFF7FEFF 		bl	ism330dhcx_mem_bank_set
 13986 0090 0346     		mov	r3, r0
 13987 0092 BFE7     		b	.L1731
 13989              		.section	.text.ism330dhcx_sh_slv3_cfg_read,"ax",%progbits
 13990              		.align	1
 13991              		.global	ism330dhcx_sh_slv3_cfg_read
 13992              		.syntax unified
 13993              		.thumb
 13994              		.thumb_func
 13996              	ism330dhcx_sh_slv3_cfg_read:
 13997              		@ args = 0, pretend = 0, frame = 8
 13998              		@ frame_needed = 0, uses_anonymous_args = 0
 13999 0000 30B5     		push	{r4, r5, lr}
 14000 0002 83B0     		sub	sp, sp, #12
 14001 0004 0546     		mov	r5, r0
 14002 0006 0C46     		mov	r4, r1
 14003 0008 0121     		movs	r1, #1
 14004 000a FFF7FEFF 		bl	ism330dhcx_mem_bank_set
 14005 000e 0346     		mov	r3, r0
 14006 0010 18B1     		cbz	r0, .L1741
 14007              	.L1738:
 14008 0012 03B3     		cbz	r3, .L1742
 14009              	.L1737:
 14010 0014 1846     		mov	r0, r3
 14011 0016 03B0     		add	sp, sp, #12
 14012              		@ sp needed
 14013 0018 30BD     		pop	{r4, r5, pc}
 14014              	.L1741:
 14015 001a 2378     		ldrb	r3, [r4]	@ zero_extendqisi2
 14016 001c 5B08     		lsrs	r3, r3, #1
 14017 001e 9DF80020 		ldrb	r2, [sp]	@ zero_extendqisi2
 14018 0022 63F34702 		bfi	r2, r3, #1, #7
 14019 0026 8DF80020 		strb	r2, [sp]
 14020 002a D3B2     		uxtb	r3, r2
 14021 002c 43F00103 		orr	r3, r3, #1
 14022 0030 8DF80030 		strb	r3, [sp]
 14023 0034 0123     		movs	r3, #1
 14024 0036 6A46     		mov	r2, sp
 14025 0038 1E21     		movs	r1, #30
 14026 003a 2846     		mov	r0, r5
 14027 003c FFF7FEFF 		bl	ism330dhcx_write_reg
 14028 0040 0346     		mov	r3, r0
 14029 0042 0028     		cmp	r0, #0
 14030 0044 E6D1     		bne	.L1737
 14031 0046 0123     		movs	r3, #1
 14032 0048 E218     		adds	r2, r4, r3
 14033 004a 1F21     		movs	r1, #31
 14034 004c 2846     		mov	r0, r5
 14035 004e FFF7FEFF 		bl	ism330dhcx_write_reg
 14036 0052 0346     		mov	r3, r0
 14037 0054 DDE7     		b	.L1738
 14038              	.L1742:
 14039 0056 0123     		movs	r3, #1
 14040 0058 01AA     		add	r2, sp, #4
 14041 005a 2021     		movs	r1, #32
 14042 005c 2846     		mov	r0, r5
ARM GAS  C:\Temp\ccOH3Pt6.s 			page 236


 14043 005e FFF7FEFF 		bl	ism330dhcx_read_reg
 14044 0062 0346     		mov	r3, r0
 14045 0064 0028     		cmp	r0, #0
 14046 0066 D5D1     		bne	.L1737
 14047 0068 A278     		ldrb	r2, [r4, #2]	@ zero_extendqisi2
 14048 006a 9DF80430 		ldrb	r3, [sp, #4]	@ zero_extendqisi2
 14049 006e 62F30203 		bfi	r3, r2, #0, #3
 14050 0072 8DF80430 		strb	r3, [sp, #4]
 14051 0076 0123     		movs	r3, #1
 14052 0078 01AA     		add	r2, sp, #4
 14053 007a 2021     		movs	r1, #32
 14054 007c 2846     		mov	r0, r5
 14055 007e FFF7FEFF 		bl	ism330dhcx_write_reg
 14056 0082 0346     		mov	r3, r0
 14057 0084 0028     		cmp	r0, #0
 14058 0086 C5D1     		bne	.L1737
 14059 0088 0021     		movs	r1, #0
 14060 008a 2846     		mov	r0, r5
 14061 008c FFF7FEFF 		bl	ism330dhcx_mem_bank_set
 14062 0090 0346     		mov	r3, r0
 14063 0092 BFE7     		b	.L1737
 14065              		.section	.text.ism330dhcx_sh_status_get,"ax",%progbits
 14066              		.align	1
 14067              		.global	ism330dhcx_sh_status_get
 14068              		.syntax unified
 14069              		.thumb
 14070              		.thumb_func
 14072              	ism330dhcx_sh_status_get:
 14073              		@ args = 0, pretend = 0, frame = 0
 14074              		@ frame_needed = 0, uses_anonymous_args = 0
 14075 0000 38B5     		push	{r3, r4, r5, lr}
 14076 0002 0446     		mov	r4, r0
 14077 0004 0D46     		mov	r5, r1
 14078 0006 0121     		movs	r1, #1
 14079 0008 FFF7FEFF 		bl	ism330dhcx_mem_bank_set
 14080 000c 00B1     		cbz	r0, .L1746
 14081              	.L1743:
 14082 000e 38BD     		pop	{r3, r4, r5, pc}
 14083              	.L1746:
 14084 0010 0123     		movs	r3, #1
 14085 0012 2A46     		mov	r2, r5
 14086 0014 2221     		movs	r1, #34
 14087 0016 2046     		mov	r0, r4
 14088 0018 FFF7FEFF 		bl	ism330dhcx_read_reg
 14089 001c 0028     		cmp	r0, #0
 14090 001e F6D1     		bne	.L1743
 14091 0020 0021     		movs	r1, #0
 14092 0022 2046     		mov	r0, r4
 14093 0024 FFF7FEFF 		bl	ism330dhcx_mem_bank_set
 14094 0028 F1E7     		b	.L1743
 14096              		.ident	"GCC: (xPack GNU Arm Embedded GCC x86_64) 12.3.1 20230626"
ARM GAS  C:\Temp\ccOH3Pt6.s 			page 237


DEFINED SYMBOLS
                            *ABS*:00000000 ism330dhcx_reg.c
  C:\Temp\ccOH3Pt6.s:18     .text.ism330dhcx_read_reg:00000000 $t
  C:\Temp\ccOH3Pt6.s:24     .text.ism330dhcx_read_reg:00000000 ism330dhcx_read_reg
  C:\Temp\ccOH3Pt6.s:34     .text.ism330dhcx_write_reg:00000000 $t
  C:\Temp\ccOH3Pt6.s:40     .text.ism330dhcx_write_reg:00000000 ism330dhcx_write_reg
  C:\Temp\ccOH3Pt6.s:50     .text.ism330dhcx_from_fs2g_to_mg:00000000 $t
  C:\Temp\ccOH3Pt6.s:56     .text.ism330dhcx_from_fs2g_to_mg:00000000 ism330dhcx_from_fs2g_to_mg
  C:\Temp\ccOH3Pt6.s:68     .text.ism330dhcx_from_fs2g_to_mg:00000014 $d
  C:\Temp\ccOH3Pt6.s:71     .text.ism330dhcx_from_fs4g_to_mg:00000000 $t
  C:\Temp\ccOH3Pt6.s:77     .text.ism330dhcx_from_fs4g_to_mg:00000000 ism330dhcx_from_fs4g_to_mg
  C:\Temp\ccOH3Pt6.s:89     .text.ism330dhcx_from_fs4g_to_mg:00000014 $d
  C:\Temp\ccOH3Pt6.s:92     .text.ism330dhcx_from_fs8g_to_mg:00000000 $t
  C:\Temp\ccOH3Pt6.s:98     .text.ism330dhcx_from_fs8g_to_mg:00000000 ism330dhcx_from_fs8g_to_mg
  C:\Temp\ccOH3Pt6.s:110    .text.ism330dhcx_from_fs8g_to_mg:00000014 $d
  C:\Temp\ccOH3Pt6.s:113    .text.ism330dhcx_from_fs16g_to_mg:00000000 $t
  C:\Temp\ccOH3Pt6.s:119    .text.ism330dhcx_from_fs16g_to_mg:00000000 ism330dhcx_from_fs16g_to_mg
  C:\Temp\ccOH3Pt6.s:131    .text.ism330dhcx_from_fs16g_to_mg:00000014 $d
  C:\Temp\ccOH3Pt6.s:134    .text.ism330dhcx_from_fs125dps_to_mdps:00000000 $t
  C:\Temp\ccOH3Pt6.s:140    .text.ism330dhcx_from_fs125dps_to_mdps:00000000 ism330dhcx_from_fs125dps_to_mdps
  C:\Temp\ccOH3Pt6.s:152    .text.ism330dhcx_from_fs125dps_to_mdps:00000014 $d
  C:\Temp\ccOH3Pt6.s:155    .text.ism330dhcx_from_fs250dps_to_mdps:00000000 $t
  C:\Temp\ccOH3Pt6.s:161    .text.ism330dhcx_from_fs250dps_to_mdps:00000000 ism330dhcx_from_fs250dps_to_mdps
  C:\Temp\ccOH3Pt6.s:173    .text.ism330dhcx_from_fs250dps_to_mdps:00000014 $d
  C:\Temp\ccOH3Pt6.s:176    .text.ism330dhcx_from_fs500dps_to_mdps:00000000 $t
  C:\Temp\ccOH3Pt6.s:182    .text.ism330dhcx_from_fs500dps_to_mdps:00000000 ism330dhcx_from_fs500dps_to_mdps
  C:\Temp\ccOH3Pt6.s:194    .text.ism330dhcx_from_fs500dps_to_mdps:00000014 $d
  C:\Temp\ccOH3Pt6.s:197    .text.ism330dhcx_from_fs1000dps_to_mdps:00000000 $t
  C:\Temp\ccOH3Pt6.s:203    .text.ism330dhcx_from_fs1000dps_to_mdps:00000000 ism330dhcx_from_fs1000dps_to_mdps
  C:\Temp\ccOH3Pt6.s:215    .text.ism330dhcx_from_fs1000dps_to_mdps:00000014 $d
  C:\Temp\ccOH3Pt6.s:218    .text.ism330dhcx_from_fs2000dps_to_mdps:00000000 $t
  C:\Temp\ccOH3Pt6.s:224    .text.ism330dhcx_from_fs2000dps_to_mdps:00000000 ism330dhcx_from_fs2000dps_to_mdps
  C:\Temp\ccOH3Pt6.s:236    .text.ism330dhcx_from_fs2000dps_to_mdps:00000014 $d
  C:\Temp\ccOH3Pt6.s:239    .text.ism330dhcx_from_fs4000dps_to_mdps:00000000 $t
  C:\Temp\ccOH3Pt6.s:245    .text.ism330dhcx_from_fs4000dps_to_mdps:00000000 ism330dhcx_from_fs4000dps_to_mdps
  C:\Temp\ccOH3Pt6.s:257    .text.ism330dhcx_from_fs4000dps_to_mdps:00000014 $d
  C:\Temp\ccOH3Pt6.s:260    .text.ism330dhcx_from_lsb_to_celsius:00000000 $t
  C:\Temp\ccOH3Pt6.s:266    .text.ism330dhcx_from_lsb_to_celsius:00000000 ism330dhcx_from_lsb_to_celsius
  C:\Temp\ccOH3Pt6.s:280    .text.ism330dhcx_from_lsb_to_celsius:0000001c $d
  C:\Temp\ccOH3Pt6.s:283    .text.ism330dhcx_from_lsb_to_nsec:00000000 $t
  C:\Temp\ccOH3Pt6.s:289    .text.ism330dhcx_from_lsb_to_nsec:00000000 ism330dhcx_from_lsb_to_nsec
  C:\Temp\ccOH3Pt6.s:301    .text.ism330dhcx_from_lsb_to_nsec:00000014 $d
  C:\Temp\ccOH3Pt6.s:304    .text.ism330dhcx_xl_full_scale_set:00000000 $t
  C:\Temp\ccOH3Pt6.s:310    .text.ism330dhcx_xl_full_scale_set:00000000 ism330dhcx_xl_full_scale_set
  C:\Temp\ccOH3Pt6.s:338    .text.ism330dhcx_xl_full_scale_get:00000000 $t
  C:\Temp\ccOH3Pt6.s:344    .text.ism330dhcx_xl_full_scale_get:00000000 ism330dhcx_xl_full_scale_get
  C:\Temp\ccOH3Pt6.s:360    .text.ism330dhcx_xl_full_scale_get:00000020 $d
  C:\Temp\ccOH3Pt6.s:364    .text.ism330dhcx_xl_full_scale_get:00000024 $t
  C:\Temp\ccOH3Pt6.s:390    .text.ism330dhcx_xl_data_rate_get:00000000 $t
  C:\Temp\ccOH3Pt6.s:396    .text.ism330dhcx_xl_data_rate_get:00000000 ism330dhcx_xl_data_rate_get
  C:\Temp\ccOH3Pt6.s:412    .text.ism330dhcx_xl_data_rate_get:0000001e $d
  C:\Temp\ccOH3Pt6.s:424    .text.ism330dhcx_xl_data_rate_get:0000002a $t
  C:\Temp\ccOH3Pt6.s:482    .text.ism330dhcx_gy_full_scale_set:00000000 $t
  C:\Temp\ccOH3Pt6.s:488    .text.ism330dhcx_gy_full_scale_set:00000000 ism330dhcx_gy_full_scale_set
  C:\Temp\ccOH3Pt6.s:516    .text.ism330dhcx_gy_full_scale_get:00000000 $t
  C:\Temp\ccOH3Pt6.s:522    .text.ism330dhcx_gy_full_scale_get:00000000 ism330dhcx_gy_full_scale_get
  C:\Temp\ccOH3Pt6.s:538    .text.ism330dhcx_gy_full_scale_get:00000020 $d
ARM GAS  C:\Temp\ccOH3Pt6.s 			page 238


  C:\Temp\ccOH3Pt6.s:585    .text.ism330dhcx_gy_data_rate_get:00000000 $t
  C:\Temp\ccOH3Pt6.s:591    .text.ism330dhcx_gy_data_rate_get:00000000 ism330dhcx_gy_data_rate_get
  C:\Temp\ccOH3Pt6.s:607    .text.ism330dhcx_gy_data_rate_get:0000001e $d
  C:\Temp\ccOH3Pt6.s:672    .text.ism330dhcx_block_data_update_set:00000000 $t
  C:\Temp\ccOH3Pt6.s:678    .text.ism330dhcx_block_data_update_set:00000000 ism330dhcx_block_data_update_set
  C:\Temp\ccOH3Pt6.s:706    .text.ism330dhcx_block_data_update_get:00000000 $t
  C:\Temp\ccOH3Pt6.s:712    .text.ism330dhcx_block_data_update_get:00000000 ism330dhcx_block_data_update_get
  C:\Temp\ccOH3Pt6.s:730    .text.ism330dhcx_xl_offset_weight_set:00000000 $t
  C:\Temp\ccOH3Pt6.s:736    .text.ism330dhcx_xl_offset_weight_set:00000000 ism330dhcx_xl_offset_weight_set
  C:\Temp\ccOH3Pt6.s:764    .text.ism330dhcx_xl_offset_weight_get:00000000 $t
  C:\Temp\ccOH3Pt6.s:770    .text.ism330dhcx_xl_offset_weight_get:00000000 ism330dhcx_xl_offset_weight_get
  C:\Temp\ccOH3Pt6.s:801    .text.ism330dhcx_xl_power_mode_set:00000000 $t
  C:\Temp\ccOH3Pt6.s:807    .text.ism330dhcx_xl_power_mode_set:00000000 ism330dhcx_xl_power_mode_set
  C:\Temp\ccOH3Pt6.s:835    .text.ism330dhcx_xl_power_mode_get:00000000 $t
  C:\Temp\ccOH3Pt6.s:841    .text.ism330dhcx_xl_power_mode_get:00000000 ism330dhcx_xl_power_mode_get
  C:\Temp\ccOH3Pt6.s:872    .text.ism330dhcx_gy_power_mode_set:00000000 $t
  C:\Temp\ccOH3Pt6.s:878    .text.ism330dhcx_gy_power_mode_set:00000000 ism330dhcx_gy_power_mode_set
  C:\Temp\ccOH3Pt6.s:906    .text.ism330dhcx_gy_power_mode_get:00000000 $t
  C:\Temp\ccOH3Pt6.s:912    .text.ism330dhcx_gy_power_mode_get:00000000 ism330dhcx_gy_power_mode_get
  C:\Temp\ccOH3Pt6.s:942    .text.ism330dhcx_status_reg_get:00000000 $t
  C:\Temp\ccOH3Pt6.s:948    .text.ism330dhcx_status_reg_get:00000000 ism330dhcx_status_reg_get
  C:\Temp\ccOH3Pt6.s:959    .text.ism330dhcx_xl_flag_data_ready_get:00000000 $t
  C:\Temp\ccOH3Pt6.s:965    .text.ism330dhcx_xl_flag_data_ready_get:00000000 ism330dhcx_xl_flag_data_ready_get
  C:\Temp\ccOH3Pt6.s:983    .text.ism330dhcx_gy_flag_data_ready_get:00000000 $t
  C:\Temp\ccOH3Pt6.s:989    .text.ism330dhcx_gy_flag_data_ready_get:00000000 ism330dhcx_gy_flag_data_ready_get
  C:\Temp\ccOH3Pt6.s:1007   .text.ism330dhcx_temp_flag_data_ready_get:00000000 $t
  C:\Temp\ccOH3Pt6.s:1013   .text.ism330dhcx_temp_flag_data_ready_get:00000000 ism330dhcx_temp_flag_data_ready_get
  C:\Temp\ccOH3Pt6.s:1031   .text.ism330dhcx_xl_usr_offset_x_set:00000000 $t
  C:\Temp\ccOH3Pt6.s:1037   .text.ism330dhcx_xl_usr_offset_x_set:00000000 ism330dhcx_xl_usr_offset_x_set
  C:\Temp\ccOH3Pt6.s:1048   .text.ism330dhcx_xl_usr_offset_x_get:00000000 $t
  C:\Temp\ccOH3Pt6.s:1054   .text.ism330dhcx_xl_usr_offset_x_get:00000000 ism330dhcx_xl_usr_offset_x_get
  C:\Temp\ccOH3Pt6.s:1065   .text.ism330dhcx_xl_usr_offset_y_set:00000000 $t
  C:\Temp\ccOH3Pt6.s:1071   .text.ism330dhcx_xl_usr_offset_y_set:00000000 ism330dhcx_xl_usr_offset_y_set
  C:\Temp\ccOH3Pt6.s:1082   .text.ism330dhcx_xl_usr_offset_y_get:00000000 $t
  C:\Temp\ccOH3Pt6.s:1088   .text.ism330dhcx_xl_usr_offset_y_get:00000000 ism330dhcx_xl_usr_offset_y_get
  C:\Temp\ccOH3Pt6.s:1099   .text.ism330dhcx_xl_usr_offset_z_set:00000000 $t
  C:\Temp\ccOH3Pt6.s:1105   .text.ism330dhcx_xl_usr_offset_z_set:00000000 ism330dhcx_xl_usr_offset_z_set
  C:\Temp\ccOH3Pt6.s:1116   .text.ism330dhcx_xl_usr_offset_z_get:00000000 $t
  C:\Temp\ccOH3Pt6.s:1122   .text.ism330dhcx_xl_usr_offset_z_get:00000000 ism330dhcx_xl_usr_offset_z_get
  C:\Temp\ccOH3Pt6.s:1133   .text.ism330dhcx_xl_usr_offset_set:00000000 $t
  C:\Temp\ccOH3Pt6.s:1139   .text.ism330dhcx_xl_usr_offset_set:00000000 ism330dhcx_xl_usr_offset_set
  C:\Temp\ccOH3Pt6.s:1167   .text.ism330dhcx_xl_usr_offset_get:00000000 $t
  C:\Temp\ccOH3Pt6.s:1173   .text.ism330dhcx_xl_usr_offset_get:00000000 ism330dhcx_xl_usr_offset_get
  C:\Temp\ccOH3Pt6.s:1191   .text.ism330dhcx_timestamp_rst:00000000 $t
  C:\Temp\ccOH3Pt6.s:1197   .text.ism330dhcx_timestamp_rst:00000000 ism330dhcx_timestamp_rst
  C:\Temp\ccOH3Pt6.s:1213   .text.ism330dhcx_timestamp_set:00000000 $t
  C:\Temp\ccOH3Pt6.s:1219   .text.ism330dhcx_timestamp_set:00000000 ism330dhcx_timestamp_set
  C:\Temp\ccOH3Pt6.s:1247   .text.ism330dhcx_timestamp_get:00000000 $t
  C:\Temp\ccOH3Pt6.s:1253   .text.ism330dhcx_timestamp_get:00000000 ism330dhcx_timestamp_get
  C:\Temp\ccOH3Pt6.s:1271   .text.ism330dhcx_timestamp_raw_get:00000000 $t
  C:\Temp\ccOH3Pt6.s:1277   .text.ism330dhcx_timestamp_raw_get:00000000 ism330dhcx_timestamp_raw_get
  C:\Temp\ccOH3Pt6.s:1303   .text.ism330dhcx_rounding_mode_set:00000000 $t
  C:\Temp\ccOH3Pt6.s:1309   .text.ism330dhcx_rounding_mode_set:00000000 ism330dhcx_rounding_mode_set
  C:\Temp\ccOH3Pt6.s:1337   .text.ism330dhcx_rounding_mode_get:00000000 $t
  C:\Temp\ccOH3Pt6.s:1343   .text.ism330dhcx_rounding_mode_get:00000000 ism330dhcx_rounding_mode_get
  C:\Temp\ccOH3Pt6.s:1359   .text.ism330dhcx_rounding_mode_get:00000020 $d
  C:\Temp\ccOH3Pt6.s:1363   .text.ism330dhcx_rounding_mode_get:00000024 $t
ARM GAS  C:\Temp\ccOH3Pt6.s 			page 239


  C:\Temp\ccOH3Pt6.s:1389   .text.ism330dhcx_temperature_raw_get:00000000 $t
  C:\Temp\ccOH3Pt6.s:1395   .text.ism330dhcx_temperature_raw_get:00000000 ism330dhcx_temperature_raw_get
  C:\Temp\ccOH3Pt6.s:1415   .text.ism330dhcx_angular_rate_raw_get:00000000 $t
  C:\Temp\ccOH3Pt6.s:1421   .text.ism330dhcx_angular_rate_raw_get:00000000 ism330dhcx_angular_rate_raw_get
  C:\Temp\ccOH3Pt6.s:1451   .text.ism330dhcx_acceleration_raw_get:00000000 $t
  C:\Temp\ccOH3Pt6.s:1457   .text.ism330dhcx_acceleration_raw_get:00000000 ism330dhcx_acceleration_raw_get
  C:\Temp\ccOH3Pt6.s:1487   .text.ism330dhcx_fifo_out_raw_get:00000000 $t
  C:\Temp\ccOH3Pt6.s:1493   .text.ism330dhcx_fifo_out_raw_get:00000000 ism330dhcx_fifo_out_raw_get
  C:\Temp\ccOH3Pt6.s:1504   .text.ism330dhcx_device_conf_set:00000000 $t
  C:\Temp\ccOH3Pt6.s:1510   .text.ism330dhcx_device_conf_set:00000000 ism330dhcx_device_conf_set
  C:\Temp\ccOH3Pt6.s:1538   .text.ism330dhcx_device_conf_get:00000000 $t
  C:\Temp\ccOH3Pt6.s:1544   .text.ism330dhcx_device_conf_get:00000000 ism330dhcx_device_conf_get
  C:\Temp\ccOH3Pt6.s:1562   .text.ism330dhcx_odr_cal_reg_set:00000000 $t
  C:\Temp\ccOH3Pt6.s:1568   .text.ism330dhcx_odr_cal_reg_set:00000000 ism330dhcx_odr_cal_reg_set
  C:\Temp\ccOH3Pt6.s:1594   .text.ism330dhcx_odr_cal_reg_get:00000000 $t
  C:\Temp\ccOH3Pt6.s:1600   .text.ism330dhcx_odr_cal_reg_get:00000000 ism330dhcx_odr_cal_reg_get
  C:\Temp\ccOH3Pt6.s:1617   .text.ism330dhcx_mem_bank_set:00000000 $t
  C:\Temp\ccOH3Pt6.s:1623   .text.ism330dhcx_mem_bank_set:00000000 ism330dhcx_mem_bank_set
  C:\Temp\ccOH3Pt6.s:1651   .text.ism330dhcx_all_sources_get:00000000 $t
  C:\Temp\ccOH3Pt6.s:1657   .text.ism330dhcx_all_sources_get:00000000 ism330dhcx_all_sources_get
  C:\Temp\ccOH3Pt6.s:1744   .text.ism330dhcx_number_of_steps_get:00000000 $t
  C:\Temp\ccOH3Pt6.s:1750   .text.ism330dhcx_number_of_steps_get:00000000 ism330dhcx_number_of_steps_get
  C:\Temp\ccOH3Pt6.s:1783   .text.ism330dhcx_steps_reset:00000000 $t
  C:\Temp\ccOH3Pt6.s:1789   .text.ism330dhcx_steps_reset:00000000 ism330dhcx_steps_reset
  C:\Temp\ccOH3Pt6.s:1833   .text.ism330dhcx_mlc_out_get:00000000 $t
  C:\Temp\ccOH3Pt6.s:1839   .text.ism330dhcx_mlc_out_get:00000000 ism330dhcx_mlc_out_get
  C:\Temp\ccOH3Pt6.s:1864   .text.ism330dhcx_mem_bank_get:00000000 $t
  C:\Temp\ccOH3Pt6.s:1870   .text.ism330dhcx_mem_bank_get:00000000 ism330dhcx_mem_bank_get
  C:\Temp\ccOH3Pt6.s:1906   .text.ism330dhcx_ln_pg_write_byte:00000000 $t
  C:\Temp\ccOH3Pt6.s:1912   .text.ism330dhcx_ln_pg_write_byte:00000000 ism330dhcx_ln_pg_write_byte
  C:\Temp\ccOH3Pt6.s:2018   .text.ism330dhcx_ln_pg_write:00000000 $t
  C:\Temp\ccOH3Pt6.s:2024   .text.ism330dhcx_ln_pg_write:00000000 ism330dhcx_ln_pg_write
  C:\Temp\ccOH3Pt6.s:2189   .text.ism330dhcx_ln_pg_read_byte:00000000 $t
  C:\Temp\ccOH3Pt6.s:2195   .text.ism330dhcx_ln_pg_read_byte:00000000 ism330dhcx_ln_pg_read_byte
  C:\Temp\ccOH3Pt6.s:2300   .text.ism330dhcx_data_ready_mode_set:00000000 $t
  C:\Temp\ccOH3Pt6.s:2306   .text.ism330dhcx_data_ready_mode_set:00000000 ism330dhcx_data_ready_mode_set
  C:\Temp\ccOH3Pt6.s:2334   .text.ism330dhcx_data_ready_mode_get:00000000 $t
  C:\Temp\ccOH3Pt6.s:2340   .text.ism330dhcx_data_ready_mode_get:00000000 ism330dhcx_data_ready_mode_get
  C:\Temp\ccOH3Pt6.s:2370   .text.ism330dhcx_device_id_get:00000000 $t
  C:\Temp\ccOH3Pt6.s:2376   .text.ism330dhcx_device_id_get:00000000 ism330dhcx_device_id_get
  C:\Temp\ccOH3Pt6.s:2387   .text.ism330dhcx_reset_set:00000000 $t
  C:\Temp\ccOH3Pt6.s:2393   .text.ism330dhcx_reset_set:00000000 ism330dhcx_reset_set
  C:\Temp\ccOH3Pt6.s:2421   .text.ism330dhcx_reset_get:00000000 $t
  C:\Temp\ccOH3Pt6.s:2427   .text.ism330dhcx_reset_get:00000000 ism330dhcx_reset_get
  C:\Temp\ccOH3Pt6.s:2445   .text.ism330dhcx_auto_increment_set:00000000 $t
  C:\Temp\ccOH3Pt6.s:2451   .text.ism330dhcx_auto_increment_set:00000000 ism330dhcx_auto_increment_set
  C:\Temp\ccOH3Pt6.s:2479   .text.ism330dhcx_auto_increment_get:00000000 $t
  C:\Temp\ccOH3Pt6.s:2485   .text.ism330dhcx_auto_increment_get:00000000 ism330dhcx_auto_increment_get
  C:\Temp\ccOH3Pt6.s:2503   .text.ism330dhcx_boot_set:00000000 $t
  C:\Temp\ccOH3Pt6.s:2509   .text.ism330dhcx_boot_set:00000000 ism330dhcx_boot_set
  C:\Temp\ccOH3Pt6.s:2537   .text.ism330dhcx_boot_get:00000000 $t
  C:\Temp\ccOH3Pt6.s:2543   .text.ism330dhcx_boot_get:00000000 ism330dhcx_boot_get
  C:\Temp\ccOH3Pt6.s:2561   .text.ism330dhcx_xl_self_test_set:00000000 $t
  C:\Temp\ccOH3Pt6.s:2567   .text.ism330dhcx_xl_self_test_set:00000000 ism330dhcx_xl_self_test_set
  C:\Temp\ccOH3Pt6.s:2595   .text.ism330dhcx_xl_self_test_get:00000000 $t
  C:\Temp\ccOH3Pt6.s:2601   .text.ism330dhcx_xl_self_test_get:00000000 ism330dhcx_xl_self_test_get
  C:\Temp\ccOH3Pt6.s:2637   .text.ism330dhcx_gy_self_test_set:00000000 $t
ARM GAS  C:\Temp\ccOH3Pt6.s 			page 240


  C:\Temp\ccOH3Pt6.s:2643   .text.ism330dhcx_gy_self_test_set:00000000 ism330dhcx_gy_self_test_set
  C:\Temp\ccOH3Pt6.s:2671   .text.ism330dhcx_gy_self_test_get:00000000 $t
  C:\Temp\ccOH3Pt6.s:2677   .text.ism330dhcx_gy_self_test_get:00000000 ism330dhcx_gy_self_test_get
  C:\Temp\ccOH3Pt6.s:2713   .text.ism330dhcx_xl_filter_lp2_set:00000000 $t
  C:\Temp\ccOH3Pt6.s:2719   .text.ism330dhcx_xl_filter_lp2_set:00000000 ism330dhcx_xl_filter_lp2_set
  C:\Temp\ccOH3Pt6.s:2747   .text.ism330dhcx_xl_filter_lp2_get:00000000 $t
  C:\Temp\ccOH3Pt6.s:2753   .text.ism330dhcx_xl_filter_lp2_get:00000000 ism330dhcx_xl_filter_lp2_get
  C:\Temp\ccOH3Pt6.s:2771   .text.ism330dhcx_gy_filter_lp1_set:00000000 $t
  C:\Temp\ccOH3Pt6.s:2777   .text.ism330dhcx_gy_filter_lp1_set:00000000 ism330dhcx_gy_filter_lp1_set
  C:\Temp\ccOH3Pt6.s:2805   .text.ism330dhcx_gy_filter_lp1_get:00000000 $t
  C:\Temp\ccOH3Pt6.s:2811   .text.ism330dhcx_gy_filter_lp1_get:00000000 ism330dhcx_gy_filter_lp1_get
  C:\Temp\ccOH3Pt6.s:2829   .text.ism330dhcx_filter_settling_mask_set:00000000 $t
  C:\Temp\ccOH3Pt6.s:2835   .text.ism330dhcx_filter_settling_mask_set:00000000 ism330dhcx_filter_settling_mask_set
  C:\Temp\ccOH3Pt6.s:2863   .text.ism330dhcx_filter_settling_mask_get:00000000 $t
  C:\Temp\ccOH3Pt6.s:2869   .text.ism330dhcx_filter_settling_mask_get:00000000 ism330dhcx_filter_settling_mask_get
  C:\Temp\ccOH3Pt6.s:2887   .text.ism330dhcx_gy_lp1_bandwidth_set:00000000 $t
  C:\Temp\ccOH3Pt6.s:2893   .text.ism330dhcx_gy_lp1_bandwidth_set:00000000 ism330dhcx_gy_lp1_bandwidth_set
  C:\Temp\ccOH3Pt6.s:2921   .text.ism330dhcx_gy_lp1_bandwidth_get:00000000 $t
  C:\Temp\ccOH3Pt6.s:2927   .text.ism330dhcx_gy_lp1_bandwidth_get:00000000 ism330dhcx_gy_lp1_bandwidth_get
  C:\Temp\ccOH3Pt6.s:2943   .text.ism330dhcx_gy_lp1_bandwidth_get:00000020 $d
  C:\Temp\ccOH3Pt6.s:2951   .text.ism330dhcx_gy_lp1_bandwidth_get:00000028 $t
  C:\Temp\ccOH3Pt6.s:2993   .text.ism330dhcx_xl_lp2_on_6d_set:00000000 $t
  C:\Temp\ccOH3Pt6.s:2999   .text.ism330dhcx_xl_lp2_on_6d_set:00000000 ism330dhcx_xl_lp2_on_6d_set
  C:\Temp\ccOH3Pt6.s:3027   .text.ism330dhcx_xl_lp2_on_6d_get:00000000 $t
  C:\Temp\ccOH3Pt6.s:3033   .text.ism330dhcx_xl_lp2_on_6d_get:00000000 ism330dhcx_xl_lp2_on_6d_get
  C:\Temp\ccOH3Pt6.s:3051   .text.ism330dhcx_xl_hp_path_on_out_set:00000000 $t
  C:\Temp\ccOH3Pt6.s:3057   .text.ism330dhcx_xl_hp_path_on_out_set:00000000 ism330dhcx_xl_hp_path_on_out_set
  C:\Temp\ccOH3Pt6.s:3093   .text.ism330dhcx_xl_hp_path_on_out_get:00000000 $t
  C:\Temp\ccOH3Pt6.s:3099   .text.ism330dhcx_xl_hp_path_on_out_get:00000000 ism330dhcx_xl_hp_path_on_out_get
  C:\Temp\ccOH3Pt6.s:3119   .text.ism330dhcx_xl_hp_path_on_out_get:0000002e $d
  C:\Temp\ccOH3Pt6.s:3175   .text.ism330dhcx_xl_hp_path_on_out_get:00000066 $t
  C:\Temp\ccOH3Pt6.s:3277   .text.ism330dhcx_xl_fast_settling_set:00000000 $t
  C:\Temp\ccOH3Pt6.s:3283   .text.ism330dhcx_xl_fast_settling_set:00000000 ism330dhcx_xl_fast_settling_set
  C:\Temp\ccOH3Pt6.s:3311   .text.ism330dhcx_xl_fast_settling_get:00000000 $t
  C:\Temp\ccOH3Pt6.s:3317   .text.ism330dhcx_xl_fast_settling_get:00000000 ism330dhcx_xl_fast_settling_get
  C:\Temp\ccOH3Pt6.s:3335   .text.ism330dhcx_xl_hp_path_internal_set:00000000 $t
  C:\Temp\ccOH3Pt6.s:3341   .text.ism330dhcx_xl_hp_path_internal_set:00000000 ism330dhcx_xl_hp_path_internal_set
  C:\Temp\ccOH3Pt6.s:3369   .text.ism330dhcx_xl_hp_path_internal_get:00000000 $t
  C:\Temp\ccOH3Pt6.s:3375   .text.ism330dhcx_xl_hp_path_internal_get:00000000 ism330dhcx_xl_hp_path_internal_get
  C:\Temp\ccOH3Pt6.s:3406   .text.ism330dhcx_gy_hp_path_internal_set:00000000 $t
  C:\Temp\ccOH3Pt6.s:3412   .text.ism330dhcx_gy_hp_path_internal_set:00000000 ism330dhcx_gy_hp_path_internal_set
  C:\Temp\ccOH3Pt6.s:3444   .text.ism330dhcx_gy_hp_path_internal_get:00000000 $t
  C:\Temp\ccOH3Pt6.s:3450   .text.ism330dhcx_gy_hp_path_internal_get:00000000 ism330dhcx_gy_hp_path_internal_get
  C:\Temp\ccOH3Pt6.s:3476   .text.ism330dhcx_gy_hp_path_internal_get:00000038 $d
  C:\Temp\ccOH3Pt6.s:3480   .text.ism330dhcx_gy_hp_path_internal_get:0000003c $t
  C:\Temp\ccOH3Pt6.s:3510   .text.ism330dhcx_aux_sdo_ocs_mode_set:00000000 $t
  C:\Temp\ccOH3Pt6.s:3516   .text.ism330dhcx_aux_sdo_ocs_mode_set:00000000 ism330dhcx_aux_sdo_ocs_mode_set
  C:\Temp\ccOH3Pt6.s:3544   .text.ism330dhcx_aux_sdo_ocs_mode_get:00000000 $t
  C:\Temp\ccOH3Pt6.s:3550   .text.ism330dhcx_aux_sdo_ocs_mode_get:00000000 ism330dhcx_aux_sdo_ocs_mode_get
  C:\Temp\ccOH3Pt6.s:3580   .text.ism330dhcx_aux_pw_on_ctrl_set:00000000 $t
  C:\Temp\ccOH3Pt6.s:3586   .text.ism330dhcx_aux_pw_on_ctrl_set:00000000 ism330dhcx_aux_pw_on_ctrl_set
  C:\Temp\ccOH3Pt6.s:3618   .text.ism330dhcx_aux_pw_on_ctrl_get:00000000 $t
  C:\Temp\ccOH3Pt6.s:3624   .text.ism330dhcx_aux_pw_on_ctrl_get:00000000 ism330dhcx_aux_pw_on_ctrl_get
  C:\Temp\ccOH3Pt6.s:3654   .text.ism330dhcx_aux_status_reg_get:00000000 $t
  C:\Temp\ccOH3Pt6.s:3660   .text.ism330dhcx_aux_status_reg_get:00000000 ism330dhcx_aux_status_reg_get
  C:\Temp\ccOH3Pt6.s:3671   .text.ism330dhcx_aux_xl_flag_data_ready_get:00000000 $t
  C:\Temp\ccOH3Pt6.s:3677   .text.ism330dhcx_aux_xl_flag_data_ready_get:00000000 ism330dhcx_aux_xl_flag_data_ready_get
ARM GAS  C:\Temp\ccOH3Pt6.s 			page 241


  C:\Temp\ccOH3Pt6.s:3695   .text.ism330dhcx_aux_gy_flag_data_ready_get:00000000 $t
  C:\Temp\ccOH3Pt6.s:3701   .text.ism330dhcx_aux_gy_flag_data_ready_get:00000000 ism330dhcx_aux_gy_flag_data_ready_get
  C:\Temp\ccOH3Pt6.s:3719   .text.ism330dhcx_aux_gy_flag_settling_get:00000000 $t
  C:\Temp\ccOH3Pt6.s:3725   .text.ism330dhcx_aux_gy_flag_settling_get:00000000 ism330dhcx_aux_gy_flag_settling_get
  C:\Temp\ccOH3Pt6.s:3743   .text.ism330dhcx_aux_xl_self_test_set:00000000 $t
  C:\Temp\ccOH3Pt6.s:3749   .text.ism330dhcx_aux_xl_self_test_set:00000000 ism330dhcx_aux_xl_self_test_set
  C:\Temp\ccOH3Pt6.s:3777   .text.ism330dhcx_aux_xl_self_test_get:00000000 $t
  C:\Temp\ccOH3Pt6.s:3783   .text.ism330dhcx_aux_xl_self_test_get:00000000 ism330dhcx_aux_xl_self_test_get
  C:\Temp\ccOH3Pt6.s:3819   .text.ism330dhcx_aux_den_polarity_set:00000000 $t
  C:\Temp\ccOH3Pt6.s:3825   .text.ism330dhcx_aux_den_polarity_set:00000000 ism330dhcx_aux_den_polarity_set
  C:\Temp\ccOH3Pt6.s:3853   .text.ism330dhcx_aux_den_polarity_get:00000000 $t
  C:\Temp\ccOH3Pt6.s:3859   .text.ism330dhcx_aux_den_polarity_get:00000000 ism330dhcx_aux_den_polarity_get
  C:\Temp\ccOH3Pt6.s:3890   .text.ism330dhcx_aux_den_mode_set:00000000 $t
  C:\Temp\ccOH3Pt6.s:3896   .text.ism330dhcx_aux_den_mode_set:00000000 ism330dhcx_aux_den_mode_set
  C:\Temp\ccOH3Pt6.s:3949   .text.ism330dhcx_aux_den_mode_get:00000000 $t
  C:\Temp\ccOH3Pt6.s:3955   .text.ism330dhcx_aux_den_mode_get:00000000 ism330dhcx_aux_den_mode_get
  C:\Temp\ccOH3Pt6.s:4004   .text.ism330dhcx_aux_drdy_on_int2_set:00000000 $t
  C:\Temp\ccOH3Pt6.s:4010   .text.ism330dhcx_aux_drdy_on_int2_set:00000000 ism330dhcx_aux_drdy_on_int2_set
  C:\Temp\ccOH3Pt6.s:4038   .text.ism330dhcx_aux_drdy_on_int2_get:00000000 $t
  C:\Temp\ccOH3Pt6.s:4044   .text.ism330dhcx_aux_drdy_on_int2_get:00000000 ism330dhcx_aux_drdy_on_int2_get
  C:\Temp\ccOH3Pt6.s:4062   .text.ism330dhcx_aux_mode_set:00000000 $t
  C:\Temp\ccOH3Pt6.s:4068   .text.ism330dhcx_aux_mode_set:00000000 ism330dhcx_aux_mode_set
  C:\Temp\ccOH3Pt6.s:4100   .text.ism330dhcx_aux_mode_get:00000000 $t
  C:\Temp\ccOH3Pt6.s:4106   .text.ism330dhcx_aux_mode_get:00000000 ism330dhcx_aux_mode_get
  C:\Temp\ccOH3Pt6.s:4144   .text.ism330dhcx_aux_gy_full_scale_set:00000000 $t
  C:\Temp\ccOH3Pt6.s:4150   .text.ism330dhcx_aux_gy_full_scale_set:00000000 ism330dhcx_aux_gy_full_scale_set
  C:\Temp\ccOH3Pt6.s:4182   .text.ism330dhcx_aux_gy_full_scale_get:00000000 $t
  C:\Temp\ccOH3Pt6.s:4188   .text.ism330dhcx_aux_gy_full_scale_get:00000000 ism330dhcx_aux_gy_full_scale_get
  C:\Temp\ccOH3Pt6.s:4206   .text.ism330dhcx_aux_gy_full_scale_get:00000028 $d
  C:\Temp\ccOH3Pt6.s:4241   .text.ism330dhcx_aux_spi_mode_set:00000000 $t
  C:\Temp\ccOH3Pt6.s:4247   .text.ism330dhcx_aux_spi_mode_set:00000000 ism330dhcx_aux_spi_mode_set
  C:\Temp\ccOH3Pt6.s:4275   .text.ism330dhcx_aux_spi_mode_get:00000000 $t
  C:\Temp\ccOH3Pt6.s:4281   .text.ism330dhcx_aux_spi_mode_get:00000000 ism330dhcx_aux_spi_mode_get
  C:\Temp\ccOH3Pt6.s:4312   .text.ism330dhcx_aux_gy_lp1_bandwidth_set:00000000 $t
  C:\Temp\ccOH3Pt6.s:4318   .text.ism330dhcx_aux_gy_lp1_bandwidth_set:00000000 ism330dhcx_aux_gy_lp1_bandwidth_set
  C:\Temp\ccOH3Pt6.s:4346   .text.ism330dhcx_aux_gy_lp1_bandwidth_get:00000000 $t
  C:\Temp\ccOH3Pt6.s:4352   .text.ism330dhcx_aux_gy_lp1_bandwidth_get:00000000 ism330dhcx_aux_gy_lp1_bandwidth_get
  C:\Temp\ccOH3Pt6.s:4368   .text.ism330dhcx_aux_gy_lp1_bandwidth_get:00000020 $d
  C:\Temp\ccOH3Pt6.s:4372   .text.ism330dhcx_aux_gy_lp1_bandwidth_get:00000024 $t
  C:\Temp\ccOH3Pt6.s:4398   .text.ism330dhcx_aux_gy_hp_bandwidth_set:00000000 $t
  C:\Temp\ccOH3Pt6.s:4404   .text.ism330dhcx_aux_gy_hp_bandwidth_set:00000000 ism330dhcx_aux_gy_hp_bandwidth_set
  C:\Temp\ccOH3Pt6.s:4436   .text.ism330dhcx_aux_gy_hp_bandwidth_get:00000000 $t
  C:\Temp\ccOH3Pt6.s:4442   .text.ism330dhcx_aux_gy_hp_bandwidth_get:00000000 ism330dhcx_aux_gy_hp_bandwidth_get
  C:\Temp\ccOH3Pt6.s:4460   .text.ism330dhcx_aux_gy_hp_bandwidth_get:00000028 $d
  C:\Temp\ccOH3Pt6.s:4480   .text.ism330dhcx_aux_gy_hp_bandwidth_get:0000003c $t
  C:\Temp\ccOH3Pt6.s:4510   .text.ism330dhcx_aux_gy_clamp_set:00000000 $t
  C:\Temp\ccOH3Pt6.s:4516   .text.ism330dhcx_aux_gy_clamp_set:00000000 ism330dhcx_aux_gy_clamp_set
  C:\Temp\ccOH3Pt6.s:4544   .text.ism330dhcx_aux_gy_clamp_get:00000000 $t
  C:\Temp\ccOH3Pt6.s:4550   .text.ism330dhcx_aux_gy_clamp_get:00000000 ism330dhcx_aux_gy_clamp_get
  C:\Temp\ccOH3Pt6.s:4580   .text.ism330dhcx_aux_gy_self_test_set:00000000 $t
  C:\Temp\ccOH3Pt6.s:4586   .text.ism330dhcx_aux_gy_self_test_set:00000000 ism330dhcx_aux_gy_self_test_set
  C:\Temp\ccOH3Pt6.s:4614   .text.ism330dhcx_aux_gy_self_test_get:00000000 $t
  C:\Temp\ccOH3Pt6.s:4620   .text.ism330dhcx_aux_gy_self_test_get:00000000 ism330dhcx_aux_gy_self_test_get
  C:\Temp\ccOH3Pt6.s:4656   .text.ism330dhcx_aux_xl_bandwidth_set:00000000 $t
  C:\Temp\ccOH3Pt6.s:4662   .text.ism330dhcx_aux_xl_bandwidth_set:00000000 ism330dhcx_aux_xl_bandwidth_set
  C:\Temp\ccOH3Pt6.s:4690   .text.ism330dhcx_aux_xl_bandwidth_get:00000000 $t
  C:\Temp\ccOH3Pt6.s:4696   .text.ism330dhcx_aux_xl_bandwidth_get:00000000 ism330dhcx_aux_xl_bandwidth_get
ARM GAS  C:\Temp\ccOH3Pt6.s 			page 242


  C:\Temp\ccOH3Pt6.s:4712   .text.ism330dhcx_aux_xl_bandwidth_get:00000020 $d
  C:\Temp\ccOH3Pt6.s:4720   .text.ism330dhcx_aux_xl_bandwidth_get:00000028 $t
  C:\Temp\ccOH3Pt6.s:4762   .text.ism330dhcx_aux_xl_full_scale_set:00000000 $t
  C:\Temp\ccOH3Pt6.s:4768   .text.ism330dhcx_aux_xl_full_scale_set:00000000 ism330dhcx_aux_xl_full_scale_set
  C:\Temp\ccOH3Pt6.s:4796   .text.ism330dhcx_aux_xl_full_scale_get:00000000 $t
  C:\Temp\ccOH3Pt6.s:4802   .text.ism330dhcx_aux_xl_full_scale_get:00000000 ism330dhcx_aux_xl_full_scale_get
  C:\Temp\ccOH3Pt6.s:4818   .text.ism330dhcx_aux_xl_full_scale_get:0000001e $d
  C:\Temp\ccOH3Pt6.s:4822   .text.ism330dhcx_aux_xl_full_scale_get:00000022 $t
  C:\Temp\ccOH3Pt6.s:4848   .text.ism330dhcx_sdo_sa0_mode_set:00000000 $t
  C:\Temp\ccOH3Pt6.s:4854   .text.ism330dhcx_sdo_sa0_mode_set:00000000 ism330dhcx_sdo_sa0_mode_set
  C:\Temp\ccOH3Pt6.s:4882   .text.ism330dhcx_sdo_sa0_mode_get:00000000 $t
  C:\Temp\ccOH3Pt6.s:4888   .text.ism330dhcx_sdo_sa0_mode_get:00000000 ism330dhcx_sdo_sa0_mode_get
  C:\Temp\ccOH3Pt6.s:4919   .text.ism330dhcx_spi_mode_set:00000000 $t
  C:\Temp\ccOH3Pt6.s:4925   .text.ism330dhcx_spi_mode_set:00000000 ism330dhcx_spi_mode_set
  C:\Temp\ccOH3Pt6.s:4953   .text.ism330dhcx_spi_mode_get:00000000 $t
  C:\Temp\ccOH3Pt6.s:4959   .text.ism330dhcx_spi_mode_get:00000000 ism330dhcx_spi_mode_get
  C:\Temp\ccOH3Pt6.s:4990   .text.ism330dhcx_i2c_interface_set:00000000 $t
  C:\Temp\ccOH3Pt6.s:4996   .text.ism330dhcx_i2c_interface_set:00000000 ism330dhcx_i2c_interface_set
  C:\Temp\ccOH3Pt6.s:5024   .text.ism330dhcx_i2c_interface_get:00000000 $t
  C:\Temp\ccOH3Pt6.s:5030   .text.ism330dhcx_i2c_interface_get:00000000 ism330dhcx_i2c_interface_get
  C:\Temp\ccOH3Pt6.s:5061   .text.ism330dhcx_pin_int1_route_set:00000000 $t
  C:\Temp\ccOH3Pt6.s:5067   .text.ism330dhcx_pin_int1_route_set:00000000 ism330dhcx_pin_int1_route_set
  C:\Temp\ccOH3Pt6.s:5261   .text.ism330dhcx_pin_int1_route_get:00000000 $t
  C:\Temp\ccOH3Pt6.s:5267   .text.ism330dhcx_pin_int1_route_get:00000000 ism330dhcx_pin_int1_route_get
  C:\Temp\ccOH3Pt6.s:5338   .text.ism330dhcx_pin_int2_route_set:00000000 $t
  C:\Temp\ccOH3Pt6.s:5344   .text.ism330dhcx_pin_int2_route_set:00000000 ism330dhcx_pin_int2_route_set
  C:\Temp\ccOH3Pt6.s:5535   .text.ism330dhcx_pin_int2_route_get:00000000 $t
  C:\Temp\ccOH3Pt6.s:5541   .text.ism330dhcx_pin_int2_route_get:00000000 ism330dhcx_pin_int2_route_get
  C:\Temp\ccOH3Pt6.s:5612   .text.ism330dhcx_pin_mode_set:00000000 $t
  C:\Temp\ccOH3Pt6.s:5618   .text.ism330dhcx_pin_mode_set:00000000 ism330dhcx_pin_mode_set
  C:\Temp\ccOH3Pt6.s:5646   .text.ism330dhcx_pin_mode_get:00000000 $t
  C:\Temp\ccOH3Pt6.s:5652   .text.ism330dhcx_pin_mode_get:00000000 ism330dhcx_pin_mode_get
  C:\Temp\ccOH3Pt6.s:5683   .text.ism330dhcx_pin_polarity_set:00000000 $t
  C:\Temp\ccOH3Pt6.s:5689   .text.ism330dhcx_pin_polarity_set:00000000 ism330dhcx_pin_polarity_set
  C:\Temp\ccOH3Pt6.s:5717   .text.ism330dhcx_pin_polarity_get:00000000 $t
  C:\Temp\ccOH3Pt6.s:5723   .text.ism330dhcx_pin_polarity_get:00000000 ism330dhcx_pin_polarity_get
  C:\Temp\ccOH3Pt6.s:5754   .text.ism330dhcx_all_on_int1_set:00000000 $t
  C:\Temp\ccOH3Pt6.s:5760   .text.ism330dhcx_all_on_int1_set:00000000 ism330dhcx_all_on_int1_set
  C:\Temp\ccOH3Pt6.s:5788   .text.ism330dhcx_all_on_int1_get:00000000 $t
  C:\Temp\ccOH3Pt6.s:5794   .text.ism330dhcx_all_on_int1_get:00000000 ism330dhcx_all_on_int1_get
  C:\Temp\ccOH3Pt6.s:5812   .text.ism330dhcx_int_notification_set:00000000 $t
  C:\Temp\ccOH3Pt6.s:5818   .text.ism330dhcx_int_notification_set:00000000 ism330dhcx_int_notification_set
  C:\Temp\ccOH3Pt6.s:5887   .text.ism330dhcx_int_notification_get:00000000 $t
  C:\Temp\ccOH3Pt6.s:5893   .text.ism330dhcx_int_notification_get:00000000 ism330dhcx_int_notification_get
  C:\Temp\ccOH3Pt6.s:5920   .text.ism330dhcx_int_notification_get:00000036 $d
  C:\Temp\ccOH3Pt6.s:5924   .text.ism330dhcx_int_notification_get:0000003a $t
  C:\Temp\ccOH3Pt6.s:5971   .text.ism330dhcx_wkup_ths_weight_set:00000000 $t
  C:\Temp\ccOH3Pt6.s:5977   .text.ism330dhcx_wkup_ths_weight_set:00000000 ism330dhcx_wkup_ths_weight_set
  C:\Temp\ccOH3Pt6.s:6005   .text.ism330dhcx_wkup_ths_weight_get:00000000 $t
  C:\Temp\ccOH3Pt6.s:6011   .text.ism330dhcx_wkup_ths_weight_get:00000000 ism330dhcx_wkup_ths_weight_get
  C:\Temp\ccOH3Pt6.s:6042   .text.ism330dhcx_wkup_threshold_set:00000000 $t
  C:\Temp\ccOH3Pt6.s:6048   .text.ism330dhcx_wkup_threshold_set:00000000 ism330dhcx_wkup_threshold_set
  C:\Temp\ccOH3Pt6.s:6076   .text.ism330dhcx_wkup_threshold_get:00000000 $t
  C:\Temp\ccOH3Pt6.s:6082   .text.ism330dhcx_wkup_threshold_get:00000000 ism330dhcx_wkup_threshold_get
  C:\Temp\ccOH3Pt6.s:6100   .text.ism330dhcx_xl_usr_offset_on_wkup_set:00000000 $t
  C:\Temp\ccOH3Pt6.s:6106   .text.ism330dhcx_xl_usr_offset_on_wkup_set:00000000 ism330dhcx_xl_usr_offset_on_wkup_set
  C:\Temp\ccOH3Pt6.s:6134   .text.ism330dhcx_xl_usr_offset_on_wkup_get:00000000 $t
ARM GAS  C:\Temp\ccOH3Pt6.s 			page 243


  C:\Temp\ccOH3Pt6.s:6140   .text.ism330dhcx_xl_usr_offset_on_wkup_get:00000000 ism330dhcx_xl_usr_offset_on_wkup_get
  C:\Temp\ccOH3Pt6.s:6158   .text.ism330dhcx_wkup_dur_set:00000000 $t
  C:\Temp\ccOH3Pt6.s:6164   .text.ism330dhcx_wkup_dur_set:00000000 ism330dhcx_wkup_dur_set
  C:\Temp\ccOH3Pt6.s:6192   .text.ism330dhcx_wkup_dur_get:00000000 $t
  C:\Temp\ccOH3Pt6.s:6198   .text.ism330dhcx_wkup_dur_get:00000000 ism330dhcx_wkup_dur_get
  C:\Temp\ccOH3Pt6.s:6216   .text.ism330dhcx_gy_sleep_mode_set:00000000 $t
  C:\Temp\ccOH3Pt6.s:6222   .text.ism330dhcx_gy_sleep_mode_set:00000000 ism330dhcx_gy_sleep_mode_set
  C:\Temp\ccOH3Pt6.s:6250   .text.ism330dhcx_gy_sleep_mode_get:00000000 $t
  C:\Temp\ccOH3Pt6.s:6256   .text.ism330dhcx_gy_sleep_mode_get:00000000 ism330dhcx_gy_sleep_mode_get
  C:\Temp\ccOH3Pt6.s:6274   .text.ism330dhcx_act_pin_notification_set:00000000 $t
  C:\Temp\ccOH3Pt6.s:6280   .text.ism330dhcx_act_pin_notification_set:00000000 ism330dhcx_act_pin_notification_set
  C:\Temp\ccOH3Pt6.s:6308   .text.ism330dhcx_act_pin_notification_get:00000000 $t
  C:\Temp\ccOH3Pt6.s:6314   .text.ism330dhcx_act_pin_notification_get:00000000 ism330dhcx_act_pin_notification_get
  C:\Temp\ccOH3Pt6.s:6345   .text.ism330dhcx_act_mode_set:00000000 $t
  C:\Temp\ccOH3Pt6.s:6351   .text.ism330dhcx_act_mode_set:00000000 ism330dhcx_act_mode_set
  C:\Temp\ccOH3Pt6.s:6379   .text.ism330dhcx_act_mode_get:00000000 $t
  C:\Temp\ccOH3Pt6.s:6385   .text.ism330dhcx_act_mode_get:00000000 ism330dhcx_act_mode_get
  C:\Temp\ccOH3Pt6.s:6401   .text.ism330dhcx_act_mode_get:00000020 $d
  C:\Temp\ccOH3Pt6.s:6405   .text.ism330dhcx_act_mode_get:00000024 $t
  C:\Temp\ccOH3Pt6.s:6431   .text.ism330dhcx_act_sleep_dur_set:00000000 $t
  C:\Temp\ccOH3Pt6.s:6437   .text.ism330dhcx_act_sleep_dur_set:00000000 ism330dhcx_act_sleep_dur_set
  C:\Temp\ccOH3Pt6.s:6465   .text.ism330dhcx_act_sleep_dur_get:00000000 $t
  C:\Temp\ccOH3Pt6.s:6471   .text.ism330dhcx_act_sleep_dur_get:00000000 ism330dhcx_act_sleep_dur_get
  C:\Temp\ccOH3Pt6.s:6489   .text.ism330dhcx_tap_detection_on_z_set:00000000 $t
  C:\Temp\ccOH3Pt6.s:6495   .text.ism330dhcx_tap_detection_on_z_set:00000000 ism330dhcx_tap_detection_on_z_set
  C:\Temp\ccOH3Pt6.s:6523   .text.ism330dhcx_tap_detection_on_z_get:00000000 $t
  C:\Temp\ccOH3Pt6.s:6529   .text.ism330dhcx_tap_detection_on_z_get:00000000 ism330dhcx_tap_detection_on_z_get
  C:\Temp\ccOH3Pt6.s:6547   .text.ism330dhcx_tap_detection_on_y_set:00000000 $t
  C:\Temp\ccOH3Pt6.s:6553   .text.ism330dhcx_tap_detection_on_y_set:00000000 ism330dhcx_tap_detection_on_y_set
  C:\Temp\ccOH3Pt6.s:6581   .text.ism330dhcx_tap_detection_on_y_get:00000000 $t
  C:\Temp\ccOH3Pt6.s:6587   .text.ism330dhcx_tap_detection_on_y_get:00000000 ism330dhcx_tap_detection_on_y_get
  C:\Temp\ccOH3Pt6.s:6605   .text.ism330dhcx_tap_detection_on_x_set:00000000 $t
  C:\Temp\ccOH3Pt6.s:6611   .text.ism330dhcx_tap_detection_on_x_set:00000000 ism330dhcx_tap_detection_on_x_set
  C:\Temp\ccOH3Pt6.s:6639   .text.ism330dhcx_tap_detection_on_x_get:00000000 $t
  C:\Temp\ccOH3Pt6.s:6645   .text.ism330dhcx_tap_detection_on_x_get:00000000 ism330dhcx_tap_detection_on_x_get
  C:\Temp\ccOH3Pt6.s:6663   .text.ism330dhcx_tap_threshold_x_set:00000000 $t
  C:\Temp\ccOH3Pt6.s:6669   .text.ism330dhcx_tap_threshold_x_set:00000000 ism330dhcx_tap_threshold_x_set
  C:\Temp\ccOH3Pt6.s:6697   .text.ism330dhcx_tap_threshold_x_get:00000000 $t
  C:\Temp\ccOH3Pt6.s:6703   .text.ism330dhcx_tap_threshold_x_get:00000000 ism330dhcx_tap_threshold_x_get
  C:\Temp\ccOH3Pt6.s:6721   .text.ism330dhcx_tap_axis_priority_set:00000000 $t
  C:\Temp\ccOH3Pt6.s:6727   .text.ism330dhcx_tap_axis_priority_set:00000000 ism330dhcx_tap_axis_priority_set
  C:\Temp\ccOH3Pt6.s:6755   .text.ism330dhcx_tap_axis_priority_get:00000000 $t
  C:\Temp\ccOH3Pt6.s:6761   .text.ism330dhcx_tap_axis_priority_get:00000000 ism330dhcx_tap_axis_priority_get
  C:\Temp\ccOH3Pt6.s:6777   .text.ism330dhcx_tap_axis_priority_get:0000001e $d
  C:\Temp\ccOH3Pt6.s:6818   .text.ism330dhcx_tap_threshold_y_set:00000000 $t
  C:\Temp\ccOH3Pt6.s:6824   .text.ism330dhcx_tap_threshold_y_set:00000000 ism330dhcx_tap_threshold_y_set
  C:\Temp\ccOH3Pt6.s:6852   .text.ism330dhcx_tap_threshold_y_get:00000000 $t
  C:\Temp\ccOH3Pt6.s:6858   .text.ism330dhcx_tap_threshold_y_get:00000000 ism330dhcx_tap_threshold_y_get
  C:\Temp\ccOH3Pt6.s:6876   .text.ism330dhcx_tap_threshold_z_set:00000000 $t
  C:\Temp\ccOH3Pt6.s:6882   .text.ism330dhcx_tap_threshold_z_set:00000000 ism330dhcx_tap_threshold_z_set
  C:\Temp\ccOH3Pt6.s:6910   .text.ism330dhcx_tap_threshold_z_get:00000000 $t
  C:\Temp\ccOH3Pt6.s:6916   .text.ism330dhcx_tap_threshold_z_get:00000000 ism330dhcx_tap_threshold_z_get
  C:\Temp\ccOH3Pt6.s:6934   .text.ism330dhcx_tap_shock_set:00000000 $t
  C:\Temp\ccOH3Pt6.s:6940   .text.ism330dhcx_tap_shock_set:00000000 ism330dhcx_tap_shock_set
  C:\Temp\ccOH3Pt6.s:6968   .text.ism330dhcx_tap_shock_get:00000000 $t
  C:\Temp\ccOH3Pt6.s:6974   .text.ism330dhcx_tap_shock_get:00000000 ism330dhcx_tap_shock_get
  C:\Temp\ccOH3Pt6.s:6992   .text.ism330dhcx_tap_quiet_set:00000000 $t
ARM GAS  C:\Temp\ccOH3Pt6.s 			page 244


  C:\Temp\ccOH3Pt6.s:6998   .text.ism330dhcx_tap_quiet_set:00000000 ism330dhcx_tap_quiet_set
  C:\Temp\ccOH3Pt6.s:7026   .text.ism330dhcx_tap_quiet_get:00000000 $t
  C:\Temp\ccOH3Pt6.s:7032   .text.ism330dhcx_tap_quiet_get:00000000 ism330dhcx_tap_quiet_get
  C:\Temp\ccOH3Pt6.s:7050   .text.ism330dhcx_tap_dur_set:00000000 $t
  C:\Temp\ccOH3Pt6.s:7056   .text.ism330dhcx_tap_dur_set:00000000 ism330dhcx_tap_dur_set
  C:\Temp\ccOH3Pt6.s:7084   .text.ism330dhcx_tap_dur_get:00000000 $t
  C:\Temp\ccOH3Pt6.s:7090   .text.ism330dhcx_tap_dur_get:00000000 ism330dhcx_tap_dur_get
  C:\Temp\ccOH3Pt6.s:7108   .text.ism330dhcx_tap_mode_set:00000000 $t
  C:\Temp\ccOH3Pt6.s:7114   .text.ism330dhcx_tap_mode_set:00000000 ism330dhcx_tap_mode_set
  C:\Temp\ccOH3Pt6.s:7142   .text.ism330dhcx_tap_mode_get:00000000 $t
  C:\Temp\ccOH3Pt6.s:7148   .text.ism330dhcx_tap_mode_get:00000000 ism330dhcx_tap_mode_get
  C:\Temp\ccOH3Pt6.s:7178   .text.ism330dhcx_6d_threshold_set:00000000 $t
  C:\Temp\ccOH3Pt6.s:7184   .text.ism330dhcx_6d_threshold_set:00000000 ism330dhcx_6d_threshold_set
  C:\Temp\ccOH3Pt6.s:7212   .text.ism330dhcx_6d_threshold_get:00000000 $t
  C:\Temp\ccOH3Pt6.s:7218   .text.ism330dhcx_6d_threshold_get:00000000 ism330dhcx_6d_threshold_get
  C:\Temp\ccOH3Pt6.s:7234   .text.ism330dhcx_6d_threshold_get:00000020 $d
  C:\Temp\ccOH3Pt6.s:7238   .text.ism330dhcx_6d_threshold_get:00000024 $t
  C:\Temp\ccOH3Pt6.s:7264   .text.ism330dhcx_4d_mode_set:00000000 $t
  C:\Temp\ccOH3Pt6.s:7270   .text.ism330dhcx_4d_mode_set:00000000 ism330dhcx_4d_mode_set
  C:\Temp\ccOH3Pt6.s:7298   .text.ism330dhcx_4d_mode_get:00000000 $t
  C:\Temp\ccOH3Pt6.s:7304   .text.ism330dhcx_4d_mode_get:00000000 ism330dhcx_4d_mode_get
  C:\Temp\ccOH3Pt6.s:7322   .text.ism330dhcx_ff_threshold_set:00000000 $t
  C:\Temp\ccOH3Pt6.s:7328   .text.ism330dhcx_ff_threshold_set:00000000 ism330dhcx_ff_threshold_set
  C:\Temp\ccOH3Pt6.s:7356   .text.ism330dhcx_ff_threshold_get:00000000 $t
  C:\Temp\ccOH3Pt6.s:7362   .text.ism330dhcx_ff_threshold_get:00000000 ism330dhcx_ff_threshold_get
  C:\Temp\ccOH3Pt6.s:7378   .text.ism330dhcx_ff_threshold_get:00000020 $d
  C:\Temp\ccOH3Pt6.s:7386   .text.ism330dhcx_ff_threshold_get:00000028 $t
  C:\Temp\ccOH3Pt6.s:7428   .text.ism330dhcx_ff_dur_set:00000000 $t
  C:\Temp\ccOH3Pt6.s:7434   .text.ism330dhcx_ff_dur_set:00000000 ism330dhcx_ff_dur_set
  C:\Temp\ccOH3Pt6.s:7487   .text.ism330dhcx_ff_dur_get:00000000 $t
  C:\Temp\ccOH3Pt6.s:7493   .text.ism330dhcx_ff_dur_get:00000000 ism330dhcx_ff_dur_get
  C:\Temp\ccOH3Pt6.s:7524   .text.ism330dhcx_fifo_watermark_set:00000000 $t
  C:\Temp\ccOH3Pt6.s:7530   .text.ism330dhcx_fifo_watermark_set:00000000 ism330dhcx_fifo_watermark_set
  C:\Temp\ccOH3Pt6.s:7567   .text.ism330dhcx_fifo_watermark_get:00000000 $t
  C:\Temp\ccOH3Pt6.s:7573   .text.ism330dhcx_fifo_watermark_get:00000000 ism330dhcx_fifo_watermark_get
  C:\Temp\ccOH3Pt6.s:7604   .text.ism330dhcx_compression_algo_init_set:00000000 $t
  C:\Temp\ccOH3Pt6.s:7610   .text.ism330dhcx_compression_algo_init_set:00000000 ism330dhcx_compression_algo_init_set
  C:\Temp\ccOH3Pt6.s:7655   .text.ism330dhcx_compression_algo_init_get:00000000 $t
  C:\Temp\ccOH3Pt6.s:7661   .text.ism330dhcx_compression_algo_init_get:00000000 ism330dhcx_compression_algo_init_get
  C:\Temp\ccOH3Pt6.s:7692   .text.ism330dhcx_compression_algo_set:00000000 $t
  C:\Temp\ccOH3Pt6.s:7698   .text.ism330dhcx_compression_algo_set:00000000 ism330dhcx_compression_algo_set
  C:\Temp\ccOH3Pt6.s:7767   .text.ism330dhcx_compression_algo_get:00000000 $t
  C:\Temp\ccOH3Pt6.s:7773   .text.ism330dhcx_compression_algo_get:00000000 ism330dhcx_compression_algo_get
  C:\Temp\ccOH3Pt6.s:7791   .text.ism330dhcx_compression_algo_get:00000028 $d
  C:\Temp\ccOH3Pt6.s:7799   .text.ism330dhcx_compression_algo_get:00000030 $t
  C:\Temp\ccOH3Pt6.s:7829   .text.ism330dhcx_fifo_virtual_sens_odr_chg_set:00000000 $t
  C:\Temp\ccOH3Pt6.s:7835   .text.ism330dhcx_fifo_virtual_sens_odr_chg_set:00000000 ism330dhcx_fifo_virtual_sens_odr_chg_set
  C:\Temp\ccOH3Pt6.s:7863   .text.ism330dhcx_fifo_virtual_sens_odr_chg_get:00000000 $t
  C:\Temp\ccOH3Pt6.s:7869   .text.ism330dhcx_fifo_virtual_sens_odr_chg_get:00000000 ism330dhcx_fifo_virtual_sens_odr_chg_get
  C:\Temp\ccOH3Pt6.s:7887   .text.ism330dhcx_compression_algo_real_time_set:00000000 $t
  C:\Temp\ccOH3Pt6.s:7893   .text.ism330dhcx_compression_algo_real_time_set:00000000 ism330dhcx_compression_algo_real_time_set
  C:\Temp\ccOH3Pt6.s:7921   .text.ism330dhcx_compression_algo_real_time_get:00000000 $t
  C:\Temp\ccOH3Pt6.s:7927   .text.ism330dhcx_compression_algo_real_time_get:00000000 ism330dhcx_compression_algo_real_time_get
  C:\Temp\ccOH3Pt6.s:7945   .text.ism330dhcx_fifo_stop_on_wtm_set:00000000 $t
  C:\Temp\ccOH3Pt6.s:7951   .text.ism330dhcx_fifo_stop_on_wtm_set:00000000 ism330dhcx_fifo_stop_on_wtm_set
  C:\Temp\ccOH3Pt6.s:7979   .text.ism330dhcx_fifo_stop_on_wtm_get:00000000 $t
  C:\Temp\ccOH3Pt6.s:7985   .text.ism330dhcx_fifo_stop_on_wtm_get:00000000 ism330dhcx_fifo_stop_on_wtm_get
ARM GAS  C:\Temp\ccOH3Pt6.s 			page 245


  C:\Temp\ccOH3Pt6.s:8003   .text.ism330dhcx_fifo_xl_batch_set:00000000 $t
  C:\Temp\ccOH3Pt6.s:8009   .text.ism330dhcx_fifo_xl_batch_set:00000000 ism330dhcx_fifo_xl_batch_set
  C:\Temp\ccOH3Pt6.s:8037   .text.ism330dhcx_fifo_xl_batch_get:00000000 $t
  C:\Temp\ccOH3Pt6.s:8043   .text.ism330dhcx_fifo_xl_batch_get:00000000 ism330dhcx_fifo_xl_batch_get
  C:\Temp\ccOH3Pt6.s:8059   .text.ism330dhcx_fifo_xl_batch_get:00000020 $d
  C:\Temp\ccOH3Pt6.s:8071   .text.ism330dhcx_fifo_xl_batch_get:0000002c $t
  C:\Temp\ccOH3Pt6.s:8129   .text.ism330dhcx_fifo_gy_batch_set:00000000 $t
  C:\Temp\ccOH3Pt6.s:8135   .text.ism330dhcx_fifo_gy_batch_set:00000000 ism330dhcx_fifo_gy_batch_set
  C:\Temp\ccOH3Pt6.s:8163   .text.ism330dhcx_fifo_gy_batch_get:00000000 $t
  C:\Temp\ccOH3Pt6.s:8169   .text.ism330dhcx_fifo_gy_batch_get:00000000 ism330dhcx_fifo_gy_batch_get
  C:\Temp\ccOH3Pt6.s:8185   .text.ism330dhcx_fifo_gy_batch_get:0000001e $d
  C:\Temp\ccOH3Pt6.s:8197   .text.ism330dhcx_fifo_gy_batch_get:0000002a $t
  C:\Temp\ccOH3Pt6.s:8255   .text.ism330dhcx_fifo_mode_set:00000000 $t
  C:\Temp\ccOH3Pt6.s:8261   .text.ism330dhcx_fifo_mode_set:00000000 ism330dhcx_fifo_mode_set
  C:\Temp\ccOH3Pt6.s:8289   .text.ism330dhcx_fifo_mode_get:00000000 $t
  C:\Temp\ccOH3Pt6.s:8295   .text.ism330dhcx_fifo_mode_get:00000000 ism330dhcx_fifo_mode_get
  C:\Temp\ccOH3Pt6.s:8311   .text.ism330dhcx_fifo_mode_get:00000020 $d
  C:\Temp\ccOH3Pt6.s:8319   .text.ism330dhcx_fifo_mode_get:00000028 $t
  C:\Temp\ccOH3Pt6.s:8353   .text.ism330dhcx_fifo_temp_batch_set:00000000 $t
  C:\Temp\ccOH3Pt6.s:8359   .text.ism330dhcx_fifo_temp_batch_set:00000000 ism330dhcx_fifo_temp_batch_set
  C:\Temp\ccOH3Pt6.s:8387   .text.ism330dhcx_fifo_temp_batch_get:00000000 $t
  C:\Temp\ccOH3Pt6.s:8393   .text.ism330dhcx_fifo_temp_batch_get:00000000 ism330dhcx_fifo_temp_batch_get
  C:\Temp\ccOH3Pt6.s:8409   .text.ism330dhcx_fifo_temp_batch_get:00000020 $d
  C:\Temp\ccOH3Pt6.s:8413   .text.ism330dhcx_fifo_temp_batch_get:00000024 $t
  C:\Temp\ccOH3Pt6.s:8439   .text.ism330dhcx_fifo_timestamp_decimation_set:00000000 $t
  C:\Temp\ccOH3Pt6.s:8445   .text.ism330dhcx_fifo_timestamp_decimation_set:00000000 ism330dhcx_fifo_timestamp_decimation_set
  C:\Temp\ccOH3Pt6.s:8473   .text.ism330dhcx_fifo_timestamp_decimation_get:00000000 $t
  C:\Temp\ccOH3Pt6.s:8479   .text.ism330dhcx_fifo_timestamp_decimation_get:00000000 ism330dhcx_fifo_timestamp_decimation_get
  C:\Temp\ccOH3Pt6.s:8495   .text.ism330dhcx_fifo_timestamp_decimation_get:0000001e $d
  C:\Temp\ccOH3Pt6.s:8499   .text.ism330dhcx_fifo_timestamp_decimation_get:00000022 $t
  C:\Temp\ccOH3Pt6.s:8525   .text.ism330dhcx_fifo_cnt_event_batch_set:00000000 $t
  C:\Temp\ccOH3Pt6.s:8531   .text.ism330dhcx_fifo_cnt_event_batch_set:00000000 ism330dhcx_fifo_cnt_event_batch_set
  C:\Temp\ccOH3Pt6.s:8559   .text.ism330dhcx_fifo_cnt_event_batch_get:00000000 $t
  C:\Temp\ccOH3Pt6.s:8565   .text.ism330dhcx_fifo_cnt_event_batch_get:00000000 ism330dhcx_fifo_cnt_event_batch_get
  C:\Temp\ccOH3Pt6.s:8596   .text.ism330dhcx_rst_batch_counter_set:00000000 $t
  C:\Temp\ccOH3Pt6.s:8602   .text.ism330dhcx_rst_batch_counter_set:00000000 ism330dhcx_rst_batch_counter_set
  C:\Temp\ccOH3Pt6.s:8630   .text.ism330dhcx_rst_batch_counter_get:00000000 $t
  C:\Temp\ccOH3Pt6.s:8636   .text.ism330dhcx_rst_batch_counter_get:00000000 ism330dhcx_rst_batch_counter_get
  C:\Temp\ccOH3Pt6.s:8654   .text.ism330dhcx_batch_counter_threshold_set:00000000 $t
  C:\Temp\ccOH3Pt6.s:8660   .text.ism330dhcx_batch_counter_threshold_set:00000000 ism330dhcx_batch_counter_threshold_set
  C:\Temp\ccOH3Pt6.s:8695   .text.ism330dhcx_batch_counter_threshold_get:00000000 $t
  C:\Temp\ccOH3Pt6.s:8701   .text.ism330dhcx_batch_counter_threshold_get:00000000 ism330dhcx_batch_counter_threshold_get
  C:\Temp\ccOH3Pt6.s:8732   .text.ism330dhcx_fifo_data_level_get:00000000 $t
  C:\Temp\ccOH3Pt6.s:8738   .text.ism330dhcx_fifo_data_level_get:00000000 ism330dhcx_fifo_data_level_get
  C:\Temp\ccOH3Pt6.s:8769   .text.ism330dhcx_fifo_status_get:00000000 $t
  C:\Temp\ccOH3Pt6.s:8775   .text.ism330dhcx_fifo_status_get:00000000 ism330dhcx_fifo_status_get
  C:\Temp\ccOH3Pt6.s:8786   .text.ism330dhcx_fifo_full_flag_get:00000000 $t
  C:\Temp\ccOH3Pt6.s:8792   .text.ism330dhcx_fifo_full_flag_get:00000000 ism330dhcx_fifo_full_flag_get
  C:\Temp\ccOH3Pt6.s:8810   .text.ism330dhcx_fifo_ovr_flag_get:00000000 $t
  C:\Temp\ccOH3Pt6.s:8816   .text.ism330dhcx_fifo_ovr_flag_get:00000000 ism330dhcx_fifo_ovr_flag_get
  C:\Temp\ccOH3Pt6.s:8834   .text.ism330dhcx_fifo_wtm_flag_get:00000000 $t
  C:\Temp\ccOH3Pt6.s:8840   .text.ism330dhcx_fifo_wtm_flag_get:00000000 ism330dhcx_fifo_wtm_flag_get
  C:\Temp\ccOH3Pt6.s:8858   .text.ism330dhcx_fifo_sensor_tag_get:00000000 $t
  C:\Temp\ccOH3Pt6.s:8864   .text.ism330dhcx_fifo_sensor_tag_get:00000000 ism330dhcx_fifo_sensor_tag_get
  C:\Temp\ccOH3Pt6.s:8881   .text.ism330dhcx_fifo_sensor_tag_get:00000020 $d
  C:\Temp\ccOH3Pt6.s:9004   .text.ism330dhcx_fifo_pedo_batch_set:00000000 $t
  C:\Temp\ccOH3Pt6.s:9010   .text.ism330dhcx_fifo_pedo_batch_set:00000000 ism330dhcx_fifo_pedo_batch_set
ARM GAS  C:\Temp\ccOH3Pt6.s 			page 246


  C:\Temp\ccOH3Pt6.s:9055   .text.ism330dhcx_fifo_pedo_batch_get:00000000 $t
  C:\Temp\ccOH3Pt6.s:9061   .text.ism330dhcx_fifo_pedo_batch_get:00000000 ism330dhcx_fifo_pedo_batch_get
  C:\Temp\ccOH3Pt6.s:9092   .text.ism330dhcx_sh_batch_slave_0_set:00000000 $t
  C:\Temp\ccOH3Pt6.s:9098   .text.ism330dhcx_sh_batch_slave_0_set:00000000 ism330dhcx_sh_batch_slave_0_set
  C:\Temp\ccOH3Pt6.s:9143   .text.ism330dhcx_sh_batch_slave_0_get:00000000 $t
  C:\Temp\ccOH3Pt6.s:9149   .text.ism330dhcx_sh_batch_slave_0_get:00000000 ism330dhcx_sh_batch_slave_0_get
  C:\Temp\ccOH3Pt6.s:9180   .text.ism330dhcx_sh_batch_slave_1_set:00000000 $t
  C:\Temp\ccOH3Pt6.s:9186   .text.ism330dhcx_sh_batch_slave_1_set:00000000 ism330dhcx_sh_batch_slave_1_set
  C:\Temp\ccOH3Pt6.s:9231   .text.ism330dhcx_sh_batch_slave_1_get:00000000 $t
  C:\Temp\ccOH3Pt6.s:9237   .text.ism330dhcx_sh_batch_slave_1_get:00000000 ism330dhcx_sh_batch_slave_1_get
  C:\Temp\ccOH3Pt6.s:9268   .text.ism330dhcx_sh_batch_slave_2_set:00000000 $t
  C:\Temp\ccOH3Pt6.s:9274   .text.ism330dhcx_sh_batch_slave_2_set:00000000 ism330dhcx_sh_batch_slave_2_set
  C:\Temp\ccOH3Pt6.s:9319   .text.ism330dhcx_sh_batch_slave_2_get:00000000 $t
  C:\Temp\ccOH3Pt6.s:9325   .text.ism330dhcx_sh_batch_slave_2_get:00000000 ism330dhcx_sh_batch_slave_2_get
  C:\Temp\ccOH3Pt6.s:9356   .text.ism330dhcx_sh_batch_slave_3_set:00000000 $t
  C:\Temp\ccOH3Pt6.s:9362   .text.ism330dhcx_sh_batch_slave_3_set:00000000 ism330dhcx_sh_batch_slave_3_set
  C:\Temp\ccOH3Pt6.s:9407   .text.ism330dhcx_sh_batch_slave_3_get:00000000 $t
  C:\Temp\ccOH3Pt6.s:9413   .text.ism330dhcx_sh_batch_slave_3_get:00000000 ism330dhcx_sh_batch_slave_3_get
  C:\Temp\ccOH3Pt6.s:9444   .text.ism330dhcx_den_mode_set:00000000 $t
  C:\Temp\ccOH3Pt6.s:9450   .text.ism330dhcx_den_mode_set:00000000 ism330dhcx_den_mode_set
  C:\Temp\ccOH3Pt6.s:9478   .text.ism330dhcx_den_mode_get:00000000 $t
  C:\Temp\ccOH3Pt6.s:9484   .text.ism330dhcx_den_mode_get:00000000 ism330dhcx_den_mode_get
  C:\Temp\ccOH3Pt6.s:9500   .text.ism330dhcx_den_mode_get:0000001e $d
  C:\Temp\ccOH3Pt6.s:9537   .text.ism330dhcx_den_polarity_set:00000000 $t
  C:\Temp\ccOH3Pt6.s:9543   .text.ism330dhcx_den_polarity_set:00000000 ism330dhcx_den_polarity_set
  C:\Temp\ccOH3Pt6.s:9571   .text.ism330dhcx_den_polarity_get:00000000 $t
  C:\Temp\ccOH3Pt6.s:9577   .text.ism330dhcx_den_polarity_get:00000000 ism330dhcx_den_polarity_get
  C:\Temp\ccOH3Pt6.s:9608   .text.ism330dhcx_den_enable_set:00000000 $t
  C:\Temp\ccOH3Pt6.s:9614   .text.ism330dhcx_den_enable_set:00000000 ism330dhcx_den_enable_set
  C:\Temp\ccOH3Pt6.s:9642   .text.ism330dhcx_den_enable_get:00000000 $t
  C:\Temp\ccOH3Pt6.s:9648   .text.ism330dhcx_den_enable_get:00000000 ism330dhcx_den_enable_get
  C:\Temp\ccOH3Pt6.s:9684   .text.ism330dhcx_den_mark_axis_x_set:00000000 $t
  C:\Temp\ccOH3Pt6.s:9690   .text.ism330dhcx_den_mark_axis_x_set:00000000 ism330dhcx_den_mark_axis_x_set
  C:\Temp\ccOH3Pt6.s:9718   .text.ism330dhcx_den_mark_axis_x_get:00000000 $t
  C:\Temp\ccOH3Pt6.s:9724   .text.ism330dhcx_den_mark_axis_x_get:00000000 ism330dhcx_den_mark_axis_x_get
  C:\Temp\ccOH3Pt6.s:9742   .text.ism330dhcx_den_mark_axis_y_set:00000000 $t
  C:\Temp\ccOH3Pt6.s:9748   .text.ism330dhcx_den_mark_axis_y_set:00000000 ism330dhcx_den_mark_axis_y_set
  C:\Temp\ccOH3Pt6.s:9776   .text.ism330dhcx_den_mark_axis_y_get:00000000 $t
  C:\Temp\ccOH3Pt6.s:9782   .text.ism330dhcx_den_mark_axis_y_get:00000000 ism330dhcx_den_mark_axis_y_get
  C:\Temp\ccOH3Pt6.s:9800   .text.ism330dhcx_den_mark_axis_z_set:00000000 $t
  C:\Temp\ccOH3Pt6.s:9806   .text.ism330dhcx_den_mark_axis_z_set:00000000 ism330dhcx_den_mark_axis_z_set
  C:\Temp\ccOH3Pt6.s:9834   .text.ism330dhcx_den_mark_axis_z_get:00000000 $t
  C:\Temp\ccOH3Pt6.s:9840   .text.ism330dhcx_den_mark_axis_z_get:00000000 ism330dhcx_den_mark_axis_z_get
  C:\Temp\ccOH3Pt6.s:9858   .text.ism330dhcx_pedo_sens_set:00000000 $t
  C:\Temp\ccOH3Pt6.s:9864   .text.ism330dhcx_pedo_sens_set:00000000 ism330dhcx_pedo_sens_set
  C:\Temp\ccOH3Pt6.s:9909   .text.ism330dhcx_pedo_sens_get:00000000 $t
  C:\Temp\ccOH3Pt6.s:9915   .text.ism330dhcx_pedo_sens_get:00000000 ism330dhcx_pedo_sens_get
  C:\Temp\ccOH3Pt6.s:9946   .text.ism330dhcx_pedo_step_detect_get:00000000 $t
  C:\Temp\ccOH3Pt6.s:9952   .text.ism330dhcx_pedo_step_detect_get:00000000 ism330dhcx_pedo_step_detect_get
  C:\Temp\ccOH3Pt6.s:9983   .text.ism330dhcx_pedo_debounce_steps_set:00000000 $t
  C:\Temp\ccOH3Pt6.s:9989   .text.ism330dhcx_pedo_debounce_steps_set:00000000 ism330dhcx_pedo_debounce_steps_set
  C:\Temp\ccOH3Pt6.s:9999   .text.ism330dhcx_pedo_debounce_steps_get:00000000 $t
  C:\Temp\ccOH3Pt6.s:10005  .text.ism330dhcx_pedo_debounce_steps_get:00000000 ism330dhcx_pedo_debounce_steps_get
  C:\Temp\ccOH3Pt6.s:10015  .text.ism330dhcx_pedo_steps_period_set:00000000 $t
  C:\Temp\ccOH3Pt6.s:10021  .text.ism330dhcx_pedo_steps_period_set:00000000 ism330dhcx_pedo_steps_period_set
  C:\Temp\ccOH3Pt6.s:10046  .text.ism330dhcx_pedo_steps_period_get:00000000 $t
  C:\Temp\ccOH3Pt6.s:10052  .text.ism330dhcx_pedo_steps_period_get:00000000 ism330dhcx_pedo_steps_period_get
ARM GAS  C:\Temp\ccOH3Pt6.s 			page 247


  C:\Temp\ccOH3Pt6.s:10080  .text.ism330dhcx_pedo_int_mode_set:00000000 $t
  C:\Temp\ccOH3Pt6.s:10086  .text.ism330dhcx_pedo_int_mode_set:00000000 ism330dhcx_pedo_int_mode_set
  C:\Temp\ccOH3Pt6.s:10112  .text.ism330dhcx_pedo_int_mode_get:00000000 $t
  C:\Temp\ccOH3Pt6.s:10118  .text.ism330dhcx_pedo_int_mode_get:00000000 ism330dhcx_pedo_int_mode_get
  C:\Temp\ccOH3Pt6.s:10148  .text.ism330dhcx_motion_sens_set:00000000 $t
  C:\Temp\ccOH3Pt6.s:10154  .text.ism330dhcx_motion_sens_set:00000000 ism330dhcx_motion_sens_set
  C:\Temp\ccOH3Pt6.s:10199  .text.ism330dhcx_motion_sens_get:00000000 $t
  C:\Temp\ccOH3Pt6.s:10205  .text.ism330dhcx_motion_sens_get:00000000 ism330dhcx_motion_sens_get
  C:\Temp\ccOH3Pt6.s:10236  .text.ism330dhcx_motion_flag_data_ready_get:00000000 $t
  C:\Temp\ccOH3Pt6.s:10242  .text.ism330dhcx_motion_flag_data_ready_get:00000000 ism330dhcx_motion_flag_data_ready_get
  C:\Temp\ccOH3Pt6.s:10273  .text.ism330dhcx_tilt_sens_set:00000000 $t
  C:\Temp\ccOH3Pt6.s:10279  .text.ism330dhcx_tilt_sens_set:00000000 ism330dhcx_tilt_sens_set
  C:\Temp\ccOH3Pt6.s:10324  .text.ism330dhcx_tilt_sens_get:00000000 $t
  C:\Temp\ccOH3Pt6.s:10330  .text.ism330dhcx_tilt_sens_get:00000000 ism330dhcx_tilt_sens_get
  C:\Temp\ccOH3Pt6.s:10361  .text.ism330dhcx_tilt_flag_data_ready_get:00000000 $t
  C:\Temp\ccOH3Pt6.s:10367  .text.ism330dhcx_tilt_flag_data_ready_get:00000000 ism330dhcx_tilt_flag_data_ready_get
  C:\Temp\ccOH3Pt6.s:10398  .text.ism330dhcx_mag_sensitivity_set:00000000 $t
  C:\Temp\ccOH3Pt6.s:10404  .text.ism330dhcx_mag_sensitivity_set:00000000 ism330dhcx_mag_sensitivity_set
  C:\Temp\ccOH3Pt6.s:10429  .text.ism330dhcx_mag_sensitivity_get:00000000 $t
  C:\Temp\ccOH3Pt6.s:10435  .text.ism330dhcx_mag_sensitivity_get:00000000 ism330dhcx_mag_sensitivity_get
  C:\Temp\ccOH3Pt6.s:10463  .text.ism330dhcx_mag_offset_set:00000000 $t
  C:\Temp\ccOH3Pt6.s:10469  .text.ism330dhcx_mag_offset_set:00000000 ism330dhcx_mag_offset_set
  C:\Temp\ccOH3Pt6.s:10543  .text.ism330dhcx_mag_offset_get:00000000 $t
  C:\Temp\ccOH3Pt6.s:10549  .text.ism330dhcx_mag_offset_get:00000000 ism330dhcx_mag_offset_get
  C:\Temp\ccOH3Pt6.s:10627  .text.ism330dhcx_mag_soft_iron_set:00000000 $t
  C:\Temp\ccOH3Pt6.s:10633  .text.ism330dhcx_mag_soft_iron_set:00000000 ism330dhcx_mag_soft_iron_set
  C:\Temp\ccOH3Pt6.s:10781  .text.ism330dhcx_mag_soft_iron_get:00000000 $t
  C:\Temp\ccOH3Pt6.s:10787  .text.ism330dhcx_mag_soft_iron_get:00000000 ism330dhcx_mag_soft_iron_get
  C:\Temp\ccOH3Pt6.s:10944  .text.ism330dhcx_mag_z_orient_set:00000000 $t
  C:\Temp\ccOH3Pt6.s:10950  .text.ism330dhcx_mag_z_orient_set:00000000 ism330dhcx_mag_z_orient_set
  C:\Temp\ccOH3Pt6.s:10976  .text.ism330dhcx_mag_z_orient_get:00000000 $t
  C:\Temp\ccOH3Pt6.s:10982  .text.ism330dhcx_mag_z_orient_get:00000000 ism330dhcx_mag_z_orient_get
  C:\Temp\ccOH3Pt6.s:10997  .text.ism330dhcx_mag_z_orient_get:0000001e $d
  C:\Temp\ccOH3Pt6.s:11003  .text.ism330dhcx_mag_z_orient_get:00000024 $t
  C:\Temp\ccOH3Pt6.s:11037  .text.ism330dhcx_mag_y_orient_set:00000000 $t
  C:\Temp\ccOH3Pt6.s:11043  .text.ism330dhcx_mag_y_orient_set:00000000 ism330dhcx_mag_y_orient_set
  C:\Temp\ccOH3Pt6.s:11069  .text.ism330dhcx_mag_y_orient_get:00000000 $t
  C:\Temp\ccOH3Pt6.s:11075  .text.ism330dhcx_mag_y_orient_get:00000000 ism330dhcx_mag_y_orient_get
  C:\Temp\ccOH3Pt6.s:11090  .text.ism330dhcx_mag_y_orient_get:0000001e $d
  C:\Temp\ccOH3Pt6.s:11096  .text.ism330dhcx_mag_y_orient_get:00000024 $t
  C:\Temp\ccOH3Pt6.s:11130  .text.ism330dhcx_mag_x_orient_set:00000000 $t
  C:\Temp\ccOH3Pt6.s:11136  .text.ism330dhcx_mag_x_orient_set:00000000 ism330dhcx_mag_x_orient_set
  C:\Temp\ccOH3Pt6.s:11162  .text.ism330dhcx_mag_x_orient_get:00000000 $t
  C:\Temp\ccOH3Pt6.s:11168  .text.ism330dhcx_mag_x_orient_get:00000000 ism330dhcx_mag_x_orient_get
  C:\Temp\ccOH3Pt6.s:11183  .text.ism330dhcx_mag_x_orient_get:0000001e $d
  C:\Temp\ccOH3Pt6.s:11189  .text.ism330dhcx_mag_x_orient_get:00000024 $t
  C:\Temp\ccOH3Pt6.s:11223  .text.ism330dhcx_long_cnt_flag_data_ready_get:00000000 $t
  C:\Temp\ccOH3Pt6.s:11229  .text.ism330dhcx_long_cnt_flag_data_ready_get:00000000 ism330dhcx_long_cnt_flag_data_ready_get
  C:\Temp\ccOH3Pt6.s:11260  .text.ism330dhcx_emb_fsm_en_set:00000000 $t
  C:\Temp\ccOH3Pt6.s:11266  .text.ism330dhcx_emb_fsm_en_set:00000000 ism330dhcx_emb_fsm_en_set
  C:\Temp\ccOH3Pt6.s:11311  .text.ism330dhcx_emb_fsm_en_get:00000000 $t
  C:\Temp\ccOH3Pt6.s:11317  .text.ism330dhcx_emb_fsm_en_get:00000000 ism330dhcx_emb_fsm_en_get
  C:\Temp\ccOH3Pt6.s:11362  .text.ism330dhcx_fsm_enable_set:00000000 $t
  C:\Temp\ccOH3Pt6.s:11368  .text.ism330dhcx_fsm_enable_set:00000000 ism330dhcx_fsm_enable_set
  C:\Temp\ccOH3Pt6.s:11467  .text.ism330dhcx_fsm_enable_get:00000000 $t
  C:\Temp\ccOH3Pt6.s:11473  .text.ism330dhcx_fsm_enable_get:00000000 ism330dhcx_fsm_enable_get
  C:\Temp\ccOH3Pt6.s:11512  .text.ism330dhcx_long_cnt_set:00000000 $t
ARM GAS  C:\Temp\ccOH3Pt6.s 			page 248


  C:\Temp\ccOH3Pt6.s:11518  .text.ism330dhcx_long_cnt_set:00000000 ism330dhcx_long_cnt_set
  C:\Temp\ccOH3Pt6.s:11548  .text.ism330dhcx_long_cnt_get:00000000 $t
  C:\Temp\ccOH3Pt6.s:11554  .text.ism330dhcx_long_cnt_get:00000000 ism330dhcx_long_cnt_get
  C:\Temp\ccOH3Pt6.s:11587  .text.ism330dhcx_long_clr_set:00000000 $t
  C:\Temp\ccOH3Pt6.s:11593  .text.ism330dhcx_long_clr_set:00000000 ism330dhcx_long_clr_set
  C:\Temp\ccOH3Pt6.s:11638  .text.ism330dhcx_long_clr_get:00000000 $t
  C:\Temp\ccOH3Pt6.s:11644  .text.ism330dhcx_long_clr_get:00000000 ism330dhcx_long_clr_get
  C:\Temp\ccOH3Pt6.s:11693  .text.ism330dhcx_fsm_out_get:00000000 $t
  C:\Temp\ccOH3Pt6.s:11699  .text.ism330dhcx_fsm_out_get:00000000 ism330dhcx_fsm_out_get
  C:\Temp\ccOH3Pt6.s:11724  .text.ism330dhcx_fsm_data_rate_set:00000000 $t
  C:\Temp\ccOH3Pt6.s:11730  .text.ism330dhcx_fsm_data_rate_set:00000000 ism330dhcx_fsm_data_rate_set
  C:\Temp\ccOH3Pt6.s:11782  .text.ism330dhcx_fsm_data_rate_get:00000000 $t
  C:\Temp\ccOH3Pt6.s:11788  .text.ism330dhcx_fsm_data_rate_get:00000000 ism330dhcx_fsm_data_rate_get
  C:\Temp\ccOH3Pt6.s:11805  .text.ism330dhcx_fsm_data_rate_get:00000020 $d
  C:\Temp\ccOH3Pt6.s:11809  .text.ism330dhcx_fsm_data_rate_get:00000024 $t
  C:\Temp\ccOH3Pt6.s:11847  .text.ism330dhcx_fsm_init_set:00000000 $t
  C:\Temp\ccOH3Pt6.s:11853  .text.ism330dhcx_fsm_init_set:00000000 ism330dhcx_fsm_init_set
  C:\Temp\ccOH3Pt6.s:11898  .text.ism330dhcx_fsm_init_get:00000000 $t
  C:\Temp\ccOH3Pt6.s:11904  .text.ism330dhcx_fsm_init_get:00000000 ism330dhcx_fsm_init_get
  C:\Temp\ccOH3Pt6.s:11935  .text.ism330dhcx_long_cnt_int_value_set:00000000 $t
  C:\Temp\ccOH3Pt6.s:11941  .text.ism330dhcx_long_cnt_int_value_set:00000000 ism330dhcx_long_cnt_int_value_set
  C:\Temp\ccOH3Pt6.s:11966  .text.ism330dhcx_long_cnt_int_value_get:00000000 $t
  C:\Temp\ccOH3Pt6.s:11972  .text.ism330dhcx_long_cnt_int_value_get:00000000 ism330dhcx_long_cnt_int_value_get
  C:\Temp\ccOH3Pt6.s:12000  .text.ism330dhcx_fsm_number_of_programs_set:00000000 $t
  C:\Temp\ccOH3Pt6.s:12006  .text.ism330dhcx_fsm_number_of_programs_set:00000000 ism330dhcx_fsm_number_of_programs_set
  C:\Temp\ccOH3Pt6.s:12026  .text.ism330dhcx_fsm_number_of_programs_get:00000000 $t
  C:\Temp\ccOH3Pt6.s:12032  .text.ism330dhcx_fsm_number_of_programs_get:00000000 ism330dhcx_fsm_number_of_programs_get
  C:\Temp\ccOH3Pt6.s:12042  .text.ism330dhcx_fsm_start_address_set:00000000 $t
  C:\Temp\ccOH3Pt6.s:12048  .text.ism330dhcx_fsm_start_address_set:00000000 ism330dhcx_fsm_start_address_set
  C:\Temp\ccOH3Pt6.s:12073  .text.ism330dhcx_fsm_start_address_get:00000000 $t
  C:\Temp\ccOH3Pt6.s:12079  .text.ism330dhcx_fsm_start_address_get:00000000 ism330dhcx_fsm_start_address_get
  C:\Temp\ccOH3Pt6.s:12107  .text.ism330dhcx_mlc_set:00000000 $t
  C:\Temp\ccOH3Pt6.s:12113  .text.ism330dhcx_mlc_set:00000000 ism330dhcx_mlc_set
  C:\Temp\ccOH3Pt6.s:12177  .text.ism330dhcx_mlc_get:00000000 $t
  C:\Temp\ccOH3Pt6.s:12183  .text.ism330dhcx_mlc_get:00000000 ism330dhcx_mlc_get
  C:\Temp\ccOH3Pt6.s:12214  .text.ism330dhcx_mlc_status_get:00000000 $t
  C:\Temp\ccOH3Pt6.s:12220  .text.ism330dhcx_mlc_status_get:00000000 ism330dhcx_mlc_status_get
  C:\Temp\ccOH3Pt6.s:12231  .text.ism330dhcx_mlc_data_rate_set:00000000 $t
  C:\Temp\ccOH3Pt6.s:12237  .text.ism330dhcx_mlc_data_rate_set:00000000 ism330dhcx_mlc_data_rate_set
  C:\Temp\ccOH3Pt6.s:12282  .text.ism330dhcx_mlc_data_rate_get:00000000 $t
  C:\Temp\ccOH3Pt6.s:12288  .text.ism330dhcx_mlc_data_rate_get:00000000 ism330dhcx_mlc_data_rate_get
  C:\Temp\ccOH3Pt6.s:12316  .text.ism330dhcx_mlc_data_rate_get:00000034 $d
  C:\Temp\ccOH3Pt6.s:12320  .text.ism330dhcx_mlc_data_rate_get:00000038 $t
  C:\Temp\ccOH3Pt6.s:12347  .text.ism330dhcx_xl_data_rate_set:00000000 $t
  C:\Temp\ccOH3Pt6.s:12353  .text.ism330dhcx_xl_data_rate_set:00000000 ism330dhcx_xl_data_rate_set
  C:\Temp\ccOH3Pt6.s:12410  .text.ism330dhcx_xl_data_rate_set:00000096 $d
  C:\Temp\ccOH3Pt6.s:12414  .text.ism330dhcx_xl_data_rate_set:0000009a $t
  C:\Temp\ccOH3Pt6.s:12523  .text.ism330dhcx_xl_data_rate_set:00000152 $d
  C:\Temp\ccOH3Pt6.s:12527  .text.ism330dhcx_xl_data_rate_set:00000156 $t
  C:\Temp\ccOH3Pt6.s:12602  .text.ism330dhcx_gy_data_rate_set:00000000 $t
  C:\Temp\ccOH3Pt6.s:12608  .text.ism330dhcx_gy_data_rate_set:00000000 ism330dhcx_gy_data_rate_set
  C:\Temp\ccOH3Pt6.s:12665  .text.ism330dhcx_gy_data_rate_set:00000096 $d
  C:\Temp\ccOH3Pt6.s:12669  .text.ism330dhcx_gy_data_rate_set:0000009a $t
  C:\Temp\ccOH3Pt6.s:12778  .text.ism330dhcx_gy_data_rate_set:00000152 $d
  C:\Temp\ccOH3Pt6.s:12782  .text.ism330dhcx_gy_data_rate_set:00000156 $t
  C:\Temp\ccOH3Pt6.s:12857  .text.ism330dhcx_sh_read_data_raw_get:00000000 $t
  C:\Temp\ccOH3Pt6.s:12863  .text.ism330dhcx_sh_read_data_raw_get:00000000 ism330dhcx_sh_read_data_raw_get
ARM GAS  C:\Temp\ccOH3Pt6.s 			page 249


  C:\Temp\ccOH3Pt6.s:12889  .text.ism330dhcx_sh_slave_connected_set:00000000 $t
  C:\Temp\ccOH3Pt6.s:12895  .text.ism330dhcx_sh_slave_connected_set:00000000 ism330dhcx_sh_slave_connected_set
  C:\Temp\ccOH3Pt6.s:12940  .text.ism330dhcx_sh_slave_connected_get:00000000 $t
  C:\Temp\ccOH3Pt6.s:12946  .text.ism330dhcx_sh_slave_connected_get:00000000 ism330dhcx_sh_slave_connected_get
  C:\Temp\ccOH3Pt6.s:12963  .text.ism330dhcx_sh_slave_connected_get:00000020 $d
  C:\Temp\ccOH3Pt6.s:12967  .text.ism330dhcx_sh_slave_connected_get:00000024 $t
  C:\Temp\ccOH3Pt6.s:13005  .text.ism330dhcx_sh_master_set:00000000 $t
  C:\Temp\ccOH3Pt6.s:13011  .text.ism330dhcx_sh_master_set:00000000 ism330dhcx_sh_master_set
  C:\Temp\ccOH3Pt6.s:13056  .text.ism330dhcx_sh_master_get:00000000 $t
  C:\Temp\ccOH3Pt6.s:13062  .text.ism330dhcx_sh_master_get:00000000 ism330dhcx_sh_master_get
  C:\Temp\ccOH3Pt6.s:13093  .text.ism330dhcx_sh_pin_mode_set:00000000 $t
  C:\Temp\ccOH3Pt6.s:13099  .text.ism330dhcx_sh_pin_mode_set:00000000 ism330dhcx_sh_pin_mode_set
  C:\Temp\ccOH3Pt6.s:13144  .text.ism330dhcx_sh_pin_mode_get:00000000 $t
  C:\Temp\ccOH3Pt6.s:13150  .text.ism330dhcx_sh_pin_mode_get:00000000 ism330dhcx_sh_pin_mode_get
  C:\Temp\ccOH3Pt6.s:13194  .text.ism330dhcx_sh_pass_through_set:00000000 $t
  C:\Temp\ccOH3Pt6.s:13200  .text.ism330dhcx_sh_pass_through_set:00000000 ism330dhcx_sh_pass_through_set
  C:\Temp\ccOH3Pt6.s:13245  .text.ism330dhcx_sh_pass_through_get:00000000 $t
  C:\Temp\ccOH3Pt6.s:13251  .text.ism330dhcx_sh_pass_through_get:00000000 ism330dhcx_sh_pass_through_get
  C:\Temp\ccOH3Pt6.s:13282  .text.ism330dhcx_sh_syncro_mode_set:00000000 $t
  C:\Temp\ccOH3Pt6.s:13288  .text.ism330dhcx_sh_syncro_mode_set:00000000 ism330dhcx_sh_syncro_mode_set
  C:\Temp\ccOH3Pt6.s:13333  .text.ism330dhcx_sh_syncro_mode_get:00000000 $t
  C:\Temp\ccOH3Pt6.s:13339  .text.ism330dhcx_sh_syncro_mode_get:00000000 ism330dhcx_sh_syncro_mode_get
  C:\Temp\ccOH3Pt6.s:13383  .text.ism330dhcx_sh_write_mode_set:00000000 $t
  C:\Temp\ccOH3Pt6.s:13389  .text.ism330dhcx_sh_write_mode_set:00000000 ism330dhcx_sh_write_mode_set
  C:\Temp\ccOH3Pt6.s:13434  .text.ism330dhcx_sh_write_mode_get:00000000 $t
  C:\Temp\ccOH3Pt6.s:13440  .text.ism330dhcx_sh_write_mode_get:00000000 ism330dhcx_sh_write_mode_get
  C:\Temp\ccOH3Pt6.s:13484  .text.ism330dhcx_sh_reset_set:00000000 $t
  C:\Temp\ccOH3Pt6.s:13490  .text.ism330dhcx_sh_reset_set:00000000 ism330dhcx_sh_reset_set
  C:\Temp\ccOH3Pt6.s:13545  .text.ism330dhcx_sh_reset_get:00000000 $t
  C:\Temp\ccOH3Pt6.s:13551  .text.ism330dhcx_sh_reset_get:00000000 ism330dhcx_sh_reset_get
  C:\Temp\ccOH3Pt6.s:13582  .text.ism330dhcx_sh_data_rate_set:00000000 $t
  C:\Temp\ccOH3Pt6.s:13588  .text.ism330dhcx_sh_data_rate_set:00000000 ism330dhcx_sh_data_rate_set
  C:\Temp\ccOH3Pt6.s:13633  .text.ism330dhcx_sh_data_rate_get:00000000 $t
  C:\Temp\ccOH3Pt6.s:13639  .text.ism330dhcx_sh_data_rate_get:00000000 ism330dhcx_sh_data_rate_get
  C:\Temp\ccOH3Pt6.s:13656  .text.ism330dhcx_sh_data_rate_get:0000001e $d
  C:\Temp\ccOH3Pt6.s:13660  .text.ism330dhcx_sh_data_rate_get:00000022 $t
  C:\Temp\ccOH3Pt6.s:13698  .text.ism330dhcx_sh_cfg_write:00000000 $t
  C:\Temp\ccOH3Pt6.s:13704  .text.ism330dhcx_sh_cfg_write:00000000 ism330dhcx_sh_cfg_write
  C:\Temp\ccOH3Pt6.s:13762  .text.ism330dhcx_sh_slv0_cfg_read:00000000 $t
  C:\Temp\ccOH3Pt6.s:13768  .text.ism330dhcx_sh_slv0_cfg_read:00000000 ism330dhcx_sh_slv0_cfg_read
  C:\Temp\ccOH3Pt6.s:13838  .text.ism330dhcx_sh_slv1_cfg_read:00000000 $t
  C:\Temp\ccOH3Pt6.s:13844  .text.ism330dhcx_sh_slv1_cfg_read:00000000 ism330dhcx_sh_slv1_cfg_read
  C:\Temp\ccOH3Pt6.s:13914  .text.ism330dhcx_sh_slv2_cfg_read:00000000 $t
  C:\Temp\ccOH3Pt6.s:13920  .text.ism330dhcx_sh_slv2_cfg_read:00000000 ism330dhcx_sh_slv2_cfg_read
  C:\Temp\ccOH3Pt6.s:13990  .text.ism330dhcx_sh_slv3_cfg_read:00000000 $t
  C:\Temp\ccOH3Pt6.s:13996  .text.ism330dhcx_sh_slv3_cfg_read:00000000 ism330dhcx_sh_slv3_cfg_read
  C:\Temp\ccOH3Pt6.s:14066  .text.ism330dhcx_sh_status_get:00000000 $t
  C:\Temp\ccOH3Pt6.s:14072  .text.ism330dhcx_sh_status_get:00000000 ism330dhcx_sh_status_get
  C:\Temp\ccOH3Pt6.s:551    .text.ism330dhcx_gy_full_scale_get:0000002d $d
  C:\Temp\ccOH3Pt6.s:551    .text.ism330dhcx_gy_full_scale_get:0000002e $t
  C:\Temp\ccOH3Pt6.s:618    .text.ism330dhcx_gy_data_rate_get:00000029 $d
  C:\Temp\ccOH3Pt6.s:618    .text.ism330dhcx_gy_data_rate_get:0000002a $t
  C:\Temp\ccOH3Pt6.s:4211   .text.ism330dhcx_aux_gy_full_scale_get:0000002d $d
  C:\Temp\ccOH3Pt6.s:4211   .text.ism330dhcx_aux_gy_full_scale_get:0000002e $t
  C:\Temp\ccOH3Pt6.s:6784   .text.ism330dhcx_tap_axis_priority_get:00000025 $d
  C:\Temp\ccOH3Pt6.s:6784   .text.ism330dhcx_tap_axis_priority_get:00000026 $t
  C:\Temp\ccOH3Pt6.s:8906   .text.ism330dhcx_fifo_sensor_tag_get:00000039 $d
ARM GAS  C:\Temp\ccOH3Pt6.s 			page 250


  C:\Temp\ccOH3Pt6.s:8906   .text.ism330dhcx_fifo_sensor_tag_get:0000003a $t
  C:\Temp\ccOH3Pt6.s:9507   .text.ism330dhcx_den_mode_get:00000025 $d
  C:\Temp\ccOH3Pt6.s:9507   .text.ism330dhcx_den_mode_get:00000026 $t

NO UNDEFINED SYMBOLS
