ARM GAS  C:\Temp\ccOH3Pt6.s 			page 1


   1              		.cpu cortex-m4
   2              		.arch armv7e-m
   3              		.fpu fpv4-sp-d16
   4              		.eabi_attribute 27, 1
   5              		.eabi_attribute 28, 1
   6              		.eabi_attribute 20, 1
   7              		.eabi_attribute 21, 1
   8              		.eabi_attribute 23, 3
   9              		.eabi_attribute 24, 1
  10              		.eabi_attribute 25, 1
  11              		.eabi_attribute 26, 1
  12              		.eabi_attribute 30, 1
  13              		.eabi_attribute 34, 1
  14              		.eabi_attribute 18, 4
  15              		.file	"ism330dhcx_reg.c"
  16              		.text
  17              		.section	.text.ism330dhcx_read_reg,"ax",%progbits
  18              		.align	1
  19              		.weak	ism330dhcx_read_reg
  20              		.syntax unified
  21              		.thumb
  22              		.thumb_func
  24              	ism330dhcx_read_reg:
  25              		@ args = 0, pretend = 0, frame = 0
  26              		@ frame_needed = 0, uses_anonymous_args = 0
  27 0000 10B5     		push	{r4, lr}
  28 0002 4468     		ldr	r4, [r0, #4]
  29 0004 C068     		ldr	r0, [r0, #12]
  30 0006 A047     		blx	r4
  31 0008 10BD     		pop	{r4, pc}
  33              		.section	.text.ism330dhcx_write_reg,"ax",%progbits
  34              		.align	1
  35              		.weak	ism330dhcx_write_reg
  36              		.syntax unified
  37              		.thumb
  38              		.thumb_func
  40              	ism330dhcx_write_reg:
  41              		@ args = 0, pretend = 0, frame = 0
  42              		@ frame_needed = 0, uses_anonymous_args = 0
  43 0000 10B5     		push	{r4, lr}
  44 0002 0468     		ldr	r4, [r0]
  45 0004 C068     		ldr	r0, [r0, #12]
  46 0006 A047     		blx	r4
  47 0008 10BD     		pop	{r4, pc}
  49              		.section	.text.ism330dhcx_from_fs2g_to_mg,"ax",%progbits
  50              		.align	1
  51              		.global	ism330dhcx_from_fs2g_to_mg
  52              		.syntax unified
  53              		.thumb
  54              		.thumb_func
  56              	ism330dhcx_from_fs2g_to_mg:
  57              		@ args = 0, pretend = 0, frame = 0
  58              		@ frame_needed = 0, uses_anonymous_args = 0
  59              		@ link register save eliminated.
  60 0000 07EE900A 		vmov	s15, r0	@ int
  61 0004 F8EEE77A 		vcvt.f32.s32	s15, s15
  62 0008 9FED020A 		vldr.32	s0, .L6
ARM GAS  C:\Temp\ccOH3Pt6.s 			page 2


  63 000c 27EE800A 		vmul.f32	s0, s15, s0
  64 0010 7047     		bx	lr
  65              	.L7:
  66 0012 00BF     		.align	2
  67              	.L6:
  68 0014 23DB793D 		.word	1031396131
  70              		.section	.text.ism330dhcx_from_fs4g_to_mg,"ax",%progbits
  71              		.align	1
  72              		.global	ism330dhcx_from_fs4g_to_mg
  73              		.syntax unified
  74              		.thumb
  75              		.thumb_func
  77              	ism330dhcx_from_fs4g_to_mg:
  78              		@ args = 0, pretend = 0, frame = 0
  79              		@ frame_needed = 0, uses_anonymous_args = 0
  80              		@ link register save eliminated.
  81 0000 07EE900A 		vmov	s15, r0	@ int
  82 0004 F8EEE77A 		vcvt.f32.s32	s15, s15
  83 0008 9FED020A 		vldr.32	s0, .L9
  84 000c 27EE800A 		vmul.f32	s0, s15, s0
  85 0010 7047     		bx	lr
  86              	.L10:
  87 0012 00BF     		.align	2
  88              	.L9:
  89 0014 23DBF93D 		.word	1039784739
  91              		.section	.text.ism330dhcx_from_fs8g_to_mg,"ax",%progbits
  92              		.align	1
  93              		.global	ism330dhcx_from_fs8g_to_mg
  94              		.syntax unified
  95              		.thumb
  96              		.thumb_func
  98              	ism330dhcx_from_fs8g_to_mg:
  99              		@ args = 0, pretend = 0, frame = 0
 100              		@ frame_needed = 0, uses_anonymous_args = 0
 101              		@ link register save eliminated.
 102 0000 07EE900A 		vmov	s15, r0	@ int
 103 0004 F8EEE77A 		vcvt.f32.s32	s15, s15
 104 0008 9FED020A 		vldr.32	s0, .L12
 105 000c 27EE800A 		vmul.f32	s0, s15, s0
 106 0010 7047     		bx	lr
 107              	.L13:
 108 0012 00BF     		.align	2
 109              	.L12:
 110 0014 23DB793E 		.word	1048173347
 112              		.section	.text.ism330dhcx_from_fs16g_to_mg,"ax",%progbits
 113              		.align	1
 114              		.global	ism330dhcx_from_fs16g_to_mg
 115              		.syntax unified
 116              		.thumb
 117              		.thumb_func
 119              	ism330dhcx_from_fs16g_to_mg:
 120              		@ args = 0, pretend = 0, frame = 0
 121              		@ frame_needed = 0, uses_anonymous_args = 0
 122              		@ link register save eliminated.
 123 0000 07EE900A 		vmov	s15, r0	@ int
 124 0004 F8EEE77A 		vcvt.f32.s32	s15, s15
 125 0008 9FED020A 		vldr.32	s0, .L15
ARM GAS  C:\Temp\ccOH3Pt6.s 			page 3


 126 000c 27EE800A 		vmul.f32	s0, s15, s0
 127 0010 7047     		bx	lr
 128              	.L16:
 129 0012 00BF     		.align	2
 130              	.L15:
 131 0014 23DBF93E 		.word	1056561955
 133              		.section	.text.ism330dhcx_from_fs125dps_to_mdps,"ax",%progbits
 134              		.align	1
 135              		.global	ism330dhcx_from_fs125dps_to_mdps
 136              		.syntax unified
 137              		.thumb
 138              		.thumb_func
 140              	ism330dhcx_from_fs125dps_to_mdps:
 141              		@ args = 0, pretend = 0, frame = 0
 142              		@ frame_needed = 0, uses_anonymous_args = 0
 143              		@ link register save eliminated.
 144 0000 07EE900A 		vmov	s15, r0	@ int
 145 0004 F8EEE77A 		vcvt.f32.s32	s15, s15
 146 0008 9FED020A 		vldr.32	s0, .L18
 147 000c 27EE800A 		vmul.f32	s0, s15, s0
 148 0010 7047     		bx	lr
 149              	.L19:
 150 0012 00BF     		.align	2
 151              	.L18:
 152 0014 00008C40 		.word	1082916864
 154              		.section	.text.ism330dhcx_from_fs250dps_to_mdps,"ax",%progbits
 155              		.align	1
 156              		.global	ism330dhcx_from_fs250dps_to_mdps
 157              		.syntax unified
 158              		.thumb
 159              		.thumb_func
 161              	ism330dhcx_from_fs250dps_to_mdps:
 162              		@ args = 0, pretend = 0, frame = 0
 163              		@ frame_needed = 0, uses_anonymous_args = 0
 164              		@ link register save eliminated.
 165 0000 07EE900A 		vmov	s15, r0	@ int
 166 0004 F8EEE77A 		vcvt.f32.s32	s15, s15
 167 0008 9FED020A 		vldr.32	s0, .L21
 168 000c 27EE800A 		vmul.f32	s0, s15, s0
 169 0010 7047     		bx	lr
 170              	.L22:
 171 0012 00BF     		.align	2
 172              	.L21:
 173 0014 00000C41 		.word	1091305472
 175              		.section	.text.ism330dhcx_from_fs500dps_to_mdps,"ax",%progbits
 176              		.align	1
 177              		.global	ism330dhcx_from_fs500dps_to_mdps
 178              		.syntax unified
 179              		.thumb
 180              		.thumb_func
 182              	ism330dhcx_from_fs500dps_to_mdps:
 183              		@ args = 0, pretend = 0, frame = 0
 184              		@ frame_needed = 0, uses_anonymous_args = 0
 185              		@ link register save eliminated.
 186 0000 07EE900A 		vmov	s15, r0	@ int
 187 0004 F8EEE77A 		vcvt.f32.s32	s15, s15
 188 0008 9FED020A 		vldr.32	s0, .L24
ARM GAS  C:\Temp\ccOH3Pt6.s 			page 4


 189 000c 27EE800A 		vmul.f32	s0, s15, s0
 190 0010 7047     		bx	lr
 191              	.L25:
 192 0012 00BF     		.align	2
 193              	.L24:
 194 0014 00008C41 		.word	1099694080
 196              		.section	.text.ism330dhcx_from_fs1000dps_to_mdps,"ax",%progbits
 197              		.align	1
 198              		.global	ism330dhcx_from_fs1000dps_to_mdps
 199              		.syntax unified
 200              		.thumb
 201              		.thumb_func
 203              	ism330dhcx_from_fs1000dps_to_mdps:
 204              		@ args = 0, pretend = 0, frame = 0
 205              		@ frame_needed = 0, uses_anonymous_args = 0
 206              		@ link register save eliminated.
 207 0000 07EE900A 		vmov	s15, r0	@ int
 208 0004 F8EEE77A 		vcvt.f32.s32	s15, s15
 209 0008 9FED020A 		vldr.32	s0, .L27
 210 000c 27EE800A 		vmul.f32	s0, s15, s0
 211 0010 7047     		bx	lr
 212              	.L28:
 213 0012 00BF     		.align	2
 214              	.L27:
 215 0014 00000C42 		.word	1108082688
 217              		.section	.text.ism330dhcx_from_fs2000dps_to_mdps,"ax",%progbits
 218              		.align	1
 219              		.global	ism330dhcx_from_fs2000dps_to_mdps
 220              		.syntax unified
 221              		.thumb
 222              		.thumb_func
 224              	ism330dhcx_from_fs2000dps_to_mdps:
 225              		@ args = 0, pretend = 0, frame = 0
 226              		@ frame_needed = 0, uses_anonymous_args = 0
 227              		@ link register save eliminated.
 228 0000 07EE900A 		vmov	s15, r0	@ int
 229 0004 F8EEE77A 		vcvt.f32.s32	s15, s15
 230 0008 9FED020A 		vldr.32	s0, .L30
 231 000c 27EE800A 		vmul.f32	s0, s15, s0
 232 0010 7047     		bx	lr
 233              	.L31:
 234 0012 00BF     		.align	2
 235              	.L30:
 236 0014 00008C42 		.word	1116471296
 238              		.section	.text.ism330dhcx_from_fs4000dps_to_mdps,"ax",%progbits
 239              		.align	1
 240              		.global	ism330dhcx_from_fs4000dps_to_mdps
 241              		.syntax unified
 242              		.thumb
 243              		.thumb_func
 245              	ism330dhcx_from_fs4000dps_to_mdps:
 246              		@ args = 0, pretend = 0, frame = 0
 247              		@ frame_needed = 0, uses_anonymous_args = 0
 248              		@ link register save eliminated.
 249 0000 07EE900A 		vmov	s15, r0	@ int
 250 0004 F8EEE77A 		vcvt.f32.s32	s15, s15
 251 0008 9FED020A 		vldr.32	s0, .L33
ARM GAS  C:\Temp\ccOH3Pt6.s 			page 5


 252 000c 27EE800A 		vmul.f32	s0, s15, s0
 253 0010 7047     		bx	lr
 254              	.L34:
 255 0012 00BF     		.align	2
 256              	.L33:
 257 0014 00000C43 		.word	1124859904
 259              		.section	.text.ism330dhcx_from_lsb_to_celsius,"ax",%progbits
 260              		.align	1
 261              		.global	ism330dhcx_from_lsb_to_celsius
 262              		.syntax unified
 263              		.thumb
 264              		.thumb_func
 266              	ism330dhcx_from_lsb_to_celsius:
 267              		@ args = 0, pretend = 0, frame = 0
 268              		@ frame_needed = 0, uses_anonymous_args = 0
 269              		@ link register save eliminated.
 270 0000 07EE900A 		vmov	s15, r0	@ int
 271 0004 F8EEE77A 		vcvt.f32.s32	s15, s15
 272 0008 9FED047A 		vldr.32	s14, .L36
 273 000c 67EE877A 		vmul.f32	s15, s15, s14
 274 0010 B3EE090A 		vmov.f32	s0, #2.5e+1
 275 0014 37EE800A 		vadd.f32	s0, s15, s0
 276 0018 7047     		bx	lr
 277              	.L37:
 278 001a 00BF     		.align	2
 279              	.L36:
 280 001c 0000803B 		.word	998244352
 282              		.section	.text.ism330dhcx_from_lsb_to_nsec,"ax",%progbits
 283              		.align	1
 284              		.global	ism330dhcx_from_lsb_to_nsec
 285              		.syntax unified
 286              		.thumb
 287              		.thumb_func
 289              	ism330dhcx_from_lsb_to_nsec:
 290              		@ args = 0, pretend = 0, frame = 0
 291              		@ frame_needed = 0, uses_anonymous_args = 0
 292              		@ link register save eliminated.
 293 0000 07EE900A 		vmov	s15, r0	@ int
 294 0004 F8EEE77A 		vcvt.f32.s32	s15, s15
 295 0008 9FED020A 		vldr.32	s0, .L39
 296 000c 27EE800A 		vmul.f32	s0, s15, s0
 297 0010 7047     		bx	lr
 298              	.L40:
 299 0012 00BF     		.align	2
 300              	.L39:
 301 0014 0050C346 		.word	1187205120
 303              		.section	.text.ism330dhcx_xl_full_scale_set,"ax",%progbits
 304              		.align	1
 305              		.global	ism330dhcx_xl_full_scale_set
 306              		.syntax unified
 307              		.thumb
 308              		.thumb_func
 310              	ism330dhcx_xl_full_scale_set:
 311              		@ args = 0, pretend = 0, frame = 8
 312              		@ frame_needed = 0, uses_anonymous_args = 0
 313 0000 30B5     		push	{r4, r5, lr}
 314 0002 83B0     		sub	sp, sp, #12
ARM GAS  C:\Temp\ccOH3Pt6.s 			page 6


 315 0004 0446     		mov	r4, r0
 316 0006 0D46     		mov	r5, r1
 317 0008 0123     		movs	r3, #1
 318 000a 01AA     		add	r2, sp, #4
 319 000c 1021     		movs	r1, #16
 320 000e FFF7FEFF 		bl	ism330dhcx_read_reg
 321 0012 08B1     		cbz	r0, .L44
 322              	.L41:
 323 0014 03B0     		add	sp, sp, #12
 324              		@ sp needed
 325 0016 30BD     		pop	{r4, r5, pc}
 326              	.L44:
 327 0018 9DF80430 		ldrb	r3, [sp, #4]	@ zero_extendqisi2
 328 001c 65F38303 		bfi	r3, r5, #2, #2
 329 0020 8DF80430 		strb	r3, [sp, #4]
 330 0024 0123     		movs	r3, #1
 331 0026 01AA     		add	r2, sp, #4
 332 0028 1021     		movs	r1, #16
 333 002a 2046     		mov	r0, r4
 334 002c FFF7FEFF 		bl	ism330dhcx_write_reg
 335 0030 F0E7     		b	.L41
 337              		.section	.text.ism330dhcx_xl_full_scale_get,"ax",%progbits
 338              		.align	1
 339              		.global	ism330dhcx_xl_full_scale_get
 340              		.syntax unified
 341              		.thumb
 342              		.thumb_func
 344              	ism330dhcx_xl_full_scale_get:
 345              		@ args = 0, pretend = 0, frame = 8
 346              		@ frame_needed = 0, uses_anonymous_args = 0
 347 0000 10B5     		push	{r4, lr}
 348 0002 82B0     		sub	sp, sp, #8
 349 0004 0C46     		mov	r4, r1
 350 0006 0123     		movs	r3, #1
 351 0008 01AA     		add	r2, sp, #4
 352 000a 1021     		movs	r1, #16
 353 000c FFF7FEFF 		bl	ism330dhcx_read_reg
 354 0010 9DF80430 		ldrb	r3, [sp, #4]	@ zero_extendqisi2
 355 0014 C3F38103 		ubfx	r3, r3, #2, #2
 356 0018 032B     		cmp	r3, #3
 357 001a 10D8     		bhi	.L46
 358 001c DFE803F0 		tbb	[pc, r3]
 359              	.L48:
 360 0020 02       		.byte	(.L51-.L48)/2
 361 0021 06       		.byte	(.L50-.L48)/2
 362 0022 09       		.byte	(.L49-.L48)/2
 363 0023 0C       		.byte	(.L47-.L48)/2
 364              		.p2align 1
 365              	.L51:
 366 0024 0023     		movs	r3, #0
 367 0026 2370     		strb	r3, [r4]
 368              	.L45:
 369 0028 02B0     		add	sp, sp, #8
 370              		@ sp needed
 371 002a 10BD     		pop	{r4, pc}
 372              	.L50:
 373 002c 0123     		movs	r3, #1
ARM GAS  C:\Temp\ccOH3Pt6.s 			page 7


 374 002e 2370     		strb	r3, [r4]
 375 0030 FAE7     		b	.L45
 376              	.L49:
 377 0032 0223     		movs	r3, #2
 378 0034 2370     		strb	r3, [r4]
 379 0036 F7E7     		b	.L45
 380              	.L47:
 381 0038 0323     		movs	r3, #3
 382 003a 2370     		strb	r3, [r4]
 383 003c F4E7     		b	.L45
 384              	.L46:
 385 003e 0023     		movs	r3, #0
 386 0040 2370     		strb	r3, [r4]
 387 0042 F1E7     		b	.L45
 389              		.section	.text.ism330dhcx_xl_data_rate_get,"ax",%progbits
 390              		.align	1
 391              		.global	ism330dhcx_xl_data_rate_get
 392              		.syntax unified
 393              		.thumb
 394              		.thumb_func
 396              	ism330dhcx_xl_data_rate_get:
 397              		@ args = 0, pretend = 0, frame = 8
 398              		@ frame_needed = 0, uses_anonymous_args = 0
 399 0000 10B5     		push	{r4, lr}
 400 0002 82B0     		sub	sp, sp, #8
 401 0004 0C46     		mov	r4, r1
 402 0006 0123     		movs	r3, #1
 403 0008 01AA     		add	r2, sp, #4
 404 000a 1021     		movs	r1, #16
 405 000c FFF7FEFF 		bl	ism330dhcx_read_reg
 406 0010 9DF80430 		ldrb	r3, [sp, #4]	@ zero_extendqisi2
 407 0014 1B09     		lsrs	r3, r3, #4
 408 0016 0B2B     		cmp	r3, #11
 409 0018 2CD8     		bhi	.L55
 410 001a DFE803F0 		tbb	[pc, r3]
 411              	.L57:
 412 001e 06       		.byte	(.L68-.L57)/2
 413 001f 0A       		.byte	(.L67-.L57)/2
 414 0020 0D       		.byte	(.L66-.L57)/2
 415 0021 10       		.byte	(.L65-.L57)/2
 416 0022 13       		.byte	(.L64-.L57)/2
 417 0023 16       		.byte	(.L63-.L57)/2
 418 0024 19       		.byte	(.L62-.L57)/2
 419 0025 1C       		.byte	(.L61-.L57)/2
 420 0026 1F       		.byte	(.L60-.L57)/2
 421 0027 22       		.byte	(.L59-.L57)/2
 422 0028 25       		.byte	(.L58-.L57)/2
 423 0029 28       		.byte	(.L56-.L57)/2
 424              		.p2align 1
 425              	.L68:
 426 002a 0023     		movs	r3, #0
 427 002c 2370     		strb	r3, [r4]
 428              	.L54:
 429 002e 02B0     		add	sp, sp, #8
 430              		@ sp needed
 431 0030 10BD     		pop	{r4, pc}
 432              	.L67:
ARM GAS  C:\Temp\ccOH3Pt6.s 			page 8


 433 0032 0123     		movs	r3, #1
 434 0034 2370     		strb	r3, [r4]
 435 0036 FAE7     		b	.L54
 436              	.L66:
 437 0038 0223     		movs	r3, #2
 438 003a 2370     		strb	r3, [r4]
 439 003c F7E7     		b	.L54
 440              	.L65:
 441 003e 0323     		movs	r3, #3
 442 0040 2370     		strb	r3, [r4]
 443 0042 F4E7     		b	.L54
 444              	.L64:
 445 0044 0423     		movs	r3, #4
 446 0046 2370     		strb	r3, [r4]
 447 0048 F1E7     		b	.L54
 448              	.L63:
 449 004a 0523     		movs	r3, #5
 450 004c 2370     		strb	r3, [r4]
 451 004e EEE7     		b	.L54
 452              	.L62:
 453 0050 0623     		movs	r3, #6
 454 0052 2370     		strb	r3, [r4]
 455 0054 EBE7     		b	.L54
 456              	.L61:
 457 0056 0723     		movs	r3, #7
 458 0058 2370     		strb	r3, [r4]
 459 005a E8E7     		b	.L54
 460              	.L60:
 461 005c 0823     		movs	r3, #8
 462 005e 2370     		strb	r3, [r4]
 463 0060 E5E7     		b	.L54
 464              	.L59:
 465 0062 0923     		movs	r3, #9
 466 0064 2370     		strb	r3, [r4]
 467 0066 E2E7     		b	.L54
 468              	.L58:
 469 0068 0A23     		movs	r3, #10
 470 006a 2370     		strb	r3, [r4]
 471 006c DFE7     		b	.L54
 472              	.L56:
 473 006e 0B23     		movs	r3, #11
 474 0070 2370     		strb	r3, [r4]
 475 0072 DCE7     		b	.L54
 476              	.L55:
 477 0074 0023     		movs	r3, #0
 478 0076 2370     		strb	r3, [r4]
 479 0078 D9E7     		b	.L54
 481              		.section	.text.ism330dhcx_gy_full_scale_set,"ax",%progbits
 482              		.align	1
 483              		.global	ism330dhcx_gy_full_scale_set
 484              		.syntax unified
 485              		.thumb
 486              		.thumb_func
 488              	ism330dhcx_gy_full_scale_set:
 489              		@ args = 0, pretend = 0, frame = 8
 490              		@ frame_needed = 0, uses_anonymous_args = 0
 491 0000 30B5     		push	{r4, r5, lr}
ARM GAS  C:\Temp\ccOH3Pt6.s 			page 9


 492 0002 83B0     		sub	sp, sp, #12
 493 0004 0446     		mov	r4, r0
 494 0006 0D46     		mov	r5, r1
 495 0008 0123     		movs	r3, #1
 496 000a 01AA     		add	r2, sp, #4
 497 000c 1121     		movs	r1, #17
 498 000e FFF7FEFF 		bl	ism330dhcx_read_reg
 499 0012 08B1     		cbz	r0, .L74
 500              	.L71:
 501 0014 03B0     		add	sp, sp, #12
 502              		@ sp needed
 503 0016 30BD     		pop	{r4, r5, pc}
 504              	.L74:
 505 0018 9DF80430 		ldrb	r3, [sp, #4]	@ zero_extendqisi2
 506 001c 65F30303 		bfi	r3, r5, #0, #4
 507 0020 8DF80430 		strb	r3, [sp, #4]
 508 0024 0123     		movs	r3, #1
 509 0026 01AA     		add	r2, sp, #4
 510 0028 1121     		movs	r1, #17
 511 002a 2046     		mov	r0, r4
 512 002c FFF7FEFF 		bl	ism330dhcx_write_reg
 513 0030 F0E7     		b	.L71
 515              		.section	.text.ism330dhcx_gy_full_scale_get,"ax",%progbits
 516              		.align	1
 517              		.global	ism330dhcx_gy_full_scale_get
 518              		.syntax unified
 519              		.thumb
 520              		.thumb_func
 522              	ism330dhcx_gy_full_scale_get:
 523              		@ args = 0, pretend = 0, frame = 8
 524              		@ frame_needed = 0, uses_anonymous_args = 0
 525 0000 10B5     		push	{r4, lr}
 526 0002 82B0     		sub	sp, sp, #8
 527 0004 0C46     		mov	r4, r1
 528 0006 0123     		movs	r3, #1
 529 0008 01AA     		add	r2, sp, #4
 530 000a 1121     		movs	r1, #17
 531 000c FFF7FEFF 		bl	ism330dhcx_read_reg
 532 0010 9DF80430 		ldrb	r3, [sp, #4]	@ zero_extendqisi2
 533 0014 03F00F03 		and	r3, r3, #15
 534 0018 0C2B     		cmp	r3, #12
 535 001a 1BD8     		bhi	.L76
 536 001c DFE803F0 		tbb	[pc, r3]
 537              	.L78:
 538 0020 0B       		.byte	(.L83-.L78)/2
 539 0021 17       		.byte	(.L82-.L78)/2
 540 0022 07       		.byte	(.L81-.L78)/2
 541 0023 1A       		.byte	(.L76-.L78)/2
 542 0024 0E       		.byte	(.L80-.L78)/2
 543 0025 1A       		.byte	(.L76-.L78)/2
 544 0026 1A       		.byte	(.L76-.L78)/2
 545 0027 1A       		.byte	(.L76-.L78)/2
 546 0028 11       		.byte	(.L79-.L78)/2
 547 0029 1A       		.byte	(.L76-.L78)/2
 548 002a 1A       		.byte	(.L76-.L78)/2
 549 002b 1A       		.byte	(.L76-.L78)/2
 550 002c 14       		.byte	(.L77-.L78)/2
ARM GAS  C:\Temp\ccOH3Pt6.s 			page 10


 551 002d 00       		.p2align 1
 552              	.L81:
 553 002e 0223     		movs	r3, #2
 554 0030 2370     		strb	r3, [r4]
 555              	.L75:
 556 0032 02B0     		add	sp, sp, #8
 557              		@ sp needed
 558 0034 10BD     		pop	{r4, pc}
 559              	.L83:
 560 0036 0023     		movs	r3, #0
 561 0038 2370     		strb	r3, [r4]
 562 003a FAE7     		b	.L75
 563              	.L80:
 564 003c 0423     		movs	r3, #4
 565 003e 2370     		strb	r3, [r4]
 566 0040 F7E7     		b	.L75
 567              	.L79:
 568 0042 0823     		movs	r3, #8
 569 0044 2370     		strb	r3, [r4]
 570 0046 F4E7     		b	.L75
 571              	.L77:
 572 0048 0C23     		movs	r3, #12
 573 004a 2370     		strb	r3, [r4]
 574 004c F1E7     		b	.L75
 575              	.L82:
 576 004e 0123     		movs	r3, #1
 577 0050 2370     		strb	r3, [r4]
 578 0052 EEE7     		b	.L75
 579              	.L76:
 580 0054 0223     		movs	r3, #2
 581 0056 2370     		strb	r3, [r4]
 582 0058 EBE7     		b	.L75
 584              		.section	.text.ism330dhcx_gy_data_rate_get,"ax",%progbits
 585              		.align	1
 586              		.global	ism330dhcx_gy_data_rate_get
 587              		.syntax unified
 588              		.thumb
 589              		.thumb_func
 591              	ism330dhcx_gy_data_rate_get:
 592              		@ args = 0, pretend = 0, frame = 8
 593              		@ frame_needed = 0, uses_anonymous_args = 0
 594 0000 10B5     		push	{r4, lr}
 595 0002 82B0     		sub	sp, sp, #8
 596 0004 0C46     		mov	r4, r1
 597 0006 0123     		movs	r3, #1
 598 0008 01AA     		add	r2, sp, #4
 599 000a 1121     		movs	r1, #17
 600 000c FFF7FEFF 		bl	ism330dhcx_read_reg
 601 0010 9DF80430 		ldrb	r3, [sp, #4]	@ zero_extendqisi2
 602 0014 1B09     		lsrs	r3, r3, #4
 603 0016 0A2B     		cmp	r3, #10
 604 0018 29D8     		bhi	.L87
 605 001a DFE803F0 		tbb	[pc, r3]
 606              	.L89:
 607 001e 06       		.byte	(.L99-.L89)/2
 608 001f 0A       		.byte	(.L98-.L89)/2
 609 0020 0D       		.byte	(.L97-.L89)/2
ARM GAS  C:\Temp\ccOH3Pt6.s 			page 11


 610 0021 10       		.byte	(.L96-.L89)/2
 611 0022 13       		.byte	(.L95-.L89)/2
 612 0023 16       		.byte	(.L94-.L89)/2
 613 0024 19       		.byte	(.L93-.L89)/2
 614 0025 1C       		.byte	(.L92-.L89)/2
 615 0026 1F       		.byte	(.L91-.L89)/2
 616 0027 22       		.byte	(.L90-.L89)/2
 617 0028 25       		.byte	(.L88-.L89)/2
 618 0029 00       		.p2align 1
 619              	.L99:
 620 002a 0023     		movs	r3, #0
 621 002c 2370     		strb	r3, [r4]
 622              	.L86:
 623 002e 02B0     		add	sp, sp, #8
 624              		@ sp needed
 625 0030 10BD     		pop	{r4, pc}
 626              	.L98:
 627 0032 0123     		movs	r3, #1
 628 0034 2370     		strb	r3, [r4]
 629 0036 FAE7     		b	.L86
 630              	.L97:
 631 0038 0223     		movs	r3, #2
 632 003a 2370     		strb	r3, [r4]
 633 003c F7E7     		b	.L86
 634              	.L96:
 635 003e 0323     		movs	r3, #3
 636 0040 2370     		strb	r3, [r4]
 637 0042 F4E7     		b	.L86
 638              	.L95:
 639 0044 0423     		movs	r3, #4
 640 0046 2370     		strb	r3, [r4]
 641 0048 F1E7     		b	.L86
 642              	.L94:
 643 004a 0523     		movs	r3, #5
 644 004c 2370     		strb	r3, [r4]
 645 004e EEE7     		b	.L86
 646              	.L93:
 647 0050 0623     		movs	r3, #6
 648 0052 2370     		strb	r3, [r4]
 649 0054 EBE7     		b	.L86
 650              	.L92:
 651 0056 0723     		movs	r3, #7
 652 0058 2370     		strb	r3, [r4]
 653 005a E8E7     		b	.L86
 654              	.L91:
 655 005c 0823     		movs	r3, #8
 656 005e 2370     		strb	r3, [r4]
 657 0060 E5E7     		b	.L86
 658              	.L90:
 659 0062 0923     		movs	r3, #9
 660 0064 2370     		strb	r3, [r4]
 661 0066 E2E7     		b	.L86
 662              	.L88:
 663 0068 0A23     		movs	r3, #10
 664 006a 2370     		strb	r3, [r4]
 665 006c DFE7     		b	.L86
 666              	.L87:
ARM GAS  C:\Temp\ccOH3Pt6.s 			page 12


 667 006e 0023     		movs	r3, #0
 668 0070 2370     		strb	r3, [r4]
 669 0072 DCE7     		b	.L86
 671              		.section	.text.ism330dhcx_block_data_update_set,"ax",%progbits
 672              		.align	1
 673              		.global	ism330dhcx_block_data_update_set
 674              		.syntax unified
 675              		.thumb
 676              		.thumb_func
 678              	ism330dhcx_block_data_update_set:
 679              		@ args = 0, pretend = 0, frame = 8
 680              		@ frame_needed = 0, uses_anonymous_args = 0
 681 0000 30B5     		push	{r4, r5, lr}
 682 0002 83B0     		sub	sp, sp, #12
 683 0004 0446     		mov	r4, r0
 684 0006 0D46     		mov	r5, r1
 685 0008 0123     		movs	r3, #1
 686 000a 01AA     		add	r2, sp, #4
 687 000c 1221     		movs	r1, #18
 688 000e FFF7FEFF 		bl	ism330dhcx_read_reg
 689 0012 08B1     		cbz	r0, .L105
 690              	.L102:
 691 0014 03B0     		add	sp, sp, #12
 692              		@ sp needed
 693 0016 30BD     		pop	{r4, r5, pc}
 694              	.L105:
 695 0018 9DF80430 		ldrb	r3, [sp, #4]	@ zero_extendqisi2
 696 001c 65F38613 		bfi	r3, r5, #6, #1
 697 0020 8DF80430 		strb	r3, [sp, #4]
 698 0024 0123     		movs	r3, #1
 699 0026 01AA     		add	r2, sp, #4
 700 0028 1221     		movs	r1, #18
 701 002a 2046     		mov	r0, r4
 702 002c FFF7FEFF 		bl	ism330dhcx_write_reg
 703 0030 F0E7     		b	.L102
 705              		.section	.text.ism330dhcx_block_data_update_get,"ax",%progbits
 706              		.align	1
 707              		.global	ism330dhcx_block_data_update_get
 708              		.syntax unified
 709              		.thumb
 710              		.thumb_func
 712              	ism330dhcx_block_data_update_get:
 713              		@ args = 0, pretend = 0, frame = 8
 714              		@ frame_needed = 0, uses_anonymous_args = 0
 715 0000 10B5     		push	{r4, lr}
 716 0002 82B0     		sub	sp, sp, #8
 717 0004 0C46     		mov	r4, r1
 718 0006 0123     		movs	r3, #1
 719 0008 01AA     		add	r2, sp, #4
 720 000a 1221     		movs	r1, #18
 721 000c FFF7FEFF 		bl	ism330dhcx_read_reg
 722 0010 9DF80430 		ldrb	r3, [sp, #4]	@ zero_extendqisi2
 723 0014 C3F38013 		ubfx	r3, r3, #6, #1
 724 0018 2370     		strb	r3, [r4]
 725 001a 02B0     		add	sp, sp, #8
 726              		@ sp needed
 727 001c 10BD     		pop	{r4, pc}
ARM GAS  C:\Temp\ccOH3Pt6.s 			page 13


 729              		.section	.text.ism330dhcx_xl_offset_weight_set,"ax",%progbits
 730              		.align	1
 731              		.global	ism330dhcx_xl_offset_weight_set
 732              		.syntax unified
 733              		.thumb
 734              		.thumb_func
 736              	ism330dhcx_xl_offset_weight_set:
 737              		@ args = 0, pretend = 0, frame = 8
 738              		@ frame_needed = 0, uses_anonymous_args = 0
 739 0000 30B5     		push	{r4, r5, lr}
 740 0002 83B0     		sub	sp, sp, #12
 741 0004 0446     		mov	r4, r0
 742 0006 0D46     		mov	r5, r1
 743 0008 0123     		movs	r3, #1
 744 000a 01AA     		add	r2, sp, #4
 745 000c 1521     		movs	r1, #21
 746 000e FFF7FEFF 		bl	ism330dhcx_read_reg
 747 0012 08B1     		cbz	r0, .L111
 748              	.L108:
 749 0014 03B0     		add	sp, sp, #12
 750              		@ sp needed
 751 0016 30BD     		pop	{r4, r5, pc}
 752              	.L111:
 753 0018 9DF80430 		ldrb	r3, [sp, #4]	@ zero_extendqisi2
 754 001c 65F3C303 		bfi	r3, r5, #3, #1
 755 0020 8DF80430 		strb	r3, [sp, #4]
 756 0024 0123     		movs	r3, #1
 757 0026 01AA     		add	r2, sp, #4
 758 0028 1521     		movs	r1, #21
 759 002a 2046     		mov	r0, r4
 760 002c FFF7FEFF 		bl	ism330dhcx_write_reg
 761 0030 F0E7     		b	.L108
 763              		.section	.text.ism330dhcx_xl_offset_weight_get,"ax",%progbits
 764              		.align	1
 765              		.global	ism330dhcx_xl_offset_weight_get
 766              		.syntax unified
 767              		.thumb
 768              		.thumb_func
 770              	ism330dhcx_xl_offset_weight_get:
 771              		@ args = 0, pretend = 0, frame = 8
 772              		@ frame_needed = 0, uses_anonymous_args = 0
 773 0000 10B5     		push	{r4, lr}
 774 0002 82B0     		sub	sp, sp, #8
 775 0004 0C46     		mov	r4, r1
 776 0006 0123     		movs	r3, #1
 777 0008 01AA     		add	r2, sp, #4
 778 000a 1521     		movs	r1, #21
 779 000c FFF7FEFF 		bl	ism330dhcx_read_reg
 780 0010 9DF80430 		ldrb	r3, [sp, #4]	@ zero_extendqisi2
 781 0014 C3F3C002 		ubfx	r2, r3, #3, #1
 782 0018 13F0080F 		tst	r3, #8
 783 001c 03D0     		beq	.L113
 784 001e 32B9     		cbnz	r2, .L114
 785 0020 0023     		movs	r3, #0
 786 0022 2370     		strb	r3, [r4]
 787 0024 01E0     		b	.L112
 788              	.L113:
ARM GAS  C:\Temp\ccOH3Pt6.s 			page 14


 789 0026 0023     		movs	r3, #0
 790 0028 2370     		strb	r3, [r4]
 791              	.L112:
 792 002a 02B0     		add	sp, sp, #8
 793              		@ sp needed
 794 002c 10BD     		pop	{r4, pc}
 795              	.L114:
 796 002e 0123     		movs	r3, #1
 797 0030 2370     		strb	r3, [r4]
 798 0032 FAE7     		b	.L112
 800              		.section	.text.ism330dhcx_xl_power_mode_set,"ax",%progbits
 801              		.align	1
 802              		.global	ism330dhcx_xl_power_mode_set
 803              		.syntax unified
 804              		.thumb
 805              		.thumb_func
 807              	ism330dhcx_xl_power_mode_set:
 808              		@ args = 0, pretend = 0, frame = 8
 809              		@ frame_needed = 0, uses_anonymous_args = 0
 810 0000 30B5     		push	{r4, r5, lr}
 811 0002 83B0     		sub	sp, sp, #12
 812 0004 0446     		mov	r4, r0
 813 0006 0D46     		mov	r5, r1
 814 0008 0123     		movs	r3, #1
 815 000a 01AA     		add	r2, sp, #4
 816 000c 1521     		movs	r1, #21
 817 000e FFF7FEFF 		bl	ism330dhcx_read_reg
 818 0012 08B1     		cbz	r0, .L122
 819              	.L119:
 820 0014 03B0     		add	sp, sp, #12
 821              		@ sp needed
 822 0016 30BD     		pop	{r4, r5, pc}
 823              	.L122:
 824 0018 9DF80430 		ldrb	r3, [sp, #4]	@ zero_extendqisi2
 825 001c 65F30413 		bfi	r3, r5, #4, #1
 826 0020 8DF80430 		strb	r3, [sp, #4]
 827 0024 0123     		movs	r3, #1
 828 0026 01AA     		add	r2, sp, #4
 829 0028 1521     		movs	r1, #21
 830 002a 2046     		mov	r0, r4
 831 002c FFF7FEFF 		bl	ism330dhcx_write_reg
 832 0030 F0E7     		b	.L119
 834              		.section	.text.ism330dhcx_xl_power_mode_get,"ax",%progbits
 835              		.align	1
 836              		.global	ism330dhcx_xl_power_mode_get
 837              		.syntax unified
 838              		.thumb
 839              		.thumb_func
 841              	ism330dhcx_xl_power_mode_get:
 842              		@ args = 0, pretend = 0, frame = 8
 843              		@ frame_needed = 0, uses_anonymous_args = 0
 844 0000 10B5     		push	{r4, lr}
 845 0002 82B0     		sub	sp, sp, #8
 846 0004 0C46     		mov	r4, r1
 847 0006 0123     		movs	r3, #1
 848 0008 01AA     		add	r2, sp, #4
 849 000a 1521     		movs	r1, #21
ARM GAS  C:\Temp\ccOH3Pt6.s 			page 15


 850 000c FFF7FEFF 		bl	ism330dhcx_read_reg
 851 0010 9DF80430 		ldrb	r3, [sp, #4]	@ zero_extendqisi2
 852 0014 C3F30012 		ubfx	r2, r3, #4, #1
 853 0018 13F0100F 		tst	r3, #16
 854 001c 03D0     		beq	.L124
 855 001e 32B9     		cbnz	r2, .L125
 856 0020 0023     		movs	r3, #0
 857 0022 2370     		strb	r3, [r4]
 858 0024 01E0     		b	.L123
 859              	.L124:
 860 0026 0023     		movs	r3, #0
 861 0028 2370     		strb	r3, [r4]
 862              	.L123:
 863 002a 02B0     		add	sp, sp, #8
 864              		@ sp needed
 865 002c 10BD     		pop	{r4, pc}
 866              	.L125:
 867 002e 0123     		movs	r3, #1
 868 0030 2370     		strb	r3, [r4]
 869 0032 FAE7     		b	.L123
 871              		.section	.text.ism330dhcx_gy_power_mode_set,"ax",%progbits
 872              		.align	1
 873              		.global	ism330dhcx_gy_power_mode_set
 874              		.syntax unified
 875              		.thumb
 876              		.thumb_func
 878              	ism330dhcx_gy_power_mode_set:
 879              		@ args = 0, pretend = 0, frame = 8
 880              		@ frame_needed = 0, uses_anonymous_args = 0
 881 0000 30B5     		push	{r4, r5, lr}
 882 0002 83B0     		sub	sp, sp, #12
 883 0004 0446     		mov	r4, r0
 884 0006 0D46     		mov	r5, r1
 885 0008 0123     		movs	r3, #1
 886 000a 01AA     		add	r2, sp, #4
 887 000c 1621     		movs	r1, #22
 888 000e FFF7FEFF 		bl	ism330dhcx_read_reg
 889 0012 08B1     		cbz	r0, .L133
 890              	.L130:
 891 0014 03B0     		add	sp, sp, #12
 892              		@ sp needed
 893 0016 30BD     		pop	{r4, r5, pc}
 894              	.L133:
 895 0018 9DF80430 		ldrb	r3, [sp, #4]	@ zero_extendqisi2
 896 001c 65F3C713 		bfi	r3, r5, #7, #1
 897 0020 8DF80430 		strb	r3, [sp, #4]
 898 0024 0123     		movs	r3, #1
 899 0026 01AA     		add	r2, sp, #4
 900 0028 1621     		movs	r1, #22
 901 002a 2046     		mov	r0, r4
 902 002c FFF7FEFF 		bl	ism330dhcx_write_reg
 903 0030 F0E7     		b	.L130
 905              		.section	.text.ism330dhcx_gy_power_mode_get,"ax",%progbits
 906              		.align	1
 907              		.global	ism330dhcx_gy_power_mode_get
 908              		.syntax unified
 909              		.thumb
ARM GAS  C:\Temp\ccOH3Pt6.s 			page 16


 910              		.thumb_func
 912              	ism330dhcx_gy_power_mode_get:
 913              		@ args = 0, pretend = 0, frame = 8
 914              		@ frame_needed = 0, uses_anonymous_args = 0
 915 0000 10B5     		push	{r4, lr}
 916 0002 82B0     		sub	sp, sp, #8
 917 0004 0C46     		mov	r4, r1
 918 0006 0123     		movs	r3, #1
 919 0008 01AA     		add	r2, sp, #4
 920 000a 1621     		movs	r1, #22
 921 000c FFF7FEFF 		bl	ism330dhcx_read_reg
 922 0010 9DF80430 		ldrb	r3, [sp, #4]	@ zero_extendqisi2
 923 0014 DB09     		lsrs	r3, r3, #7
 924 0016 03D0     		beq	.L135
 925 0018 33B9     		cbnz	r3, .L136
 926 001a 0023     		movs	r3, #0
 927 001c 2370     		strb	r3, [r4]
 928 001e 01E0     		b	.L134
 929              	.L135:
 930 0020 0023     		movs	r3, #0
 931 0022 2370     		strb	r3, [r4]
 932              	.L134:
 933 0024 02B0     		add	sp, sp, #8
 934              		@ sp needed
 935 0026 10BD     		pop	{r4, pc}
 936              	.L136:
 937 0028 0123     		movs	r3, #1
 938 002a 2370     		strb	r3, [r4]
 939 002c FAE7     		b	.L134
 941              		.section	.text.ism330dhcx_status_reg_get,"ax",%progbits
 942              		.align	1
 943              		.global	ism330dhcx_status_reg_get
 944              		.syntax unified
 945              		.thumb
 946              		.thumb_func
 948              	ism330dhcx_status_reg_get:
 949              		@ args = 0, pretend = 0, frame = 0
 950              		@ frame_needed = 0, uses_anonymous_args = 0
 951 0000 08B5     		push	{r3, lr}
 952 0002 0A46     		mov	r2, r1
 953 0004 0123     		movs	r3, #1
 954 0006 1E21     		movs	r1, #30
 955 0008 FFF7FEFF 		bl	ism330dhcx_read_reg
 956 000c 08BD     		pop	{r3, pc}
 958              		.section	.text.ism330dhcx_xl_flag_data_ready_get,"ax",%progbits
 959              		.align	1
 960              		.global	ism330dhcx_xl_flag_data_ready_get
 961              		.syntax unified
 962              		.thumb
 963              		.thumb_func
 965              	ism330dhcx_xl_flag_data_ready_get:
 966              		@ args = 0, pretend = 0, frame = 8
 967              		@ frame_needed = 0, uses_anonymous_args = 0
 968 0000 10B5     		push	{r4, lr}
 969 0002 82B0     		sub	sp, sp, #8
 970 0004 0C46     		mov	r4, r1
 971 0006 0123     		movs	r3, #1
ARM GAS  C:\Temp\ccOH3Pt6.s 			page 17


 972 0008 01AA     		add	r2, sp, #4
 973 000a 1E21     		movs	r1, #30
 974 000c FFF7FEFF 		bl	ism330dhcx_read_reg
 975 0010 9DF80430 		ldrb	r3, [sp, #4]	@ zero_extendqisi2
 976 0014 C3F30003 		ubfx	r3, r3, #0, #1
 977 0018 2370     		strb	r3, [r4]
 978 001a 02B0     		add	sp, sp, #8
 979              		@ sp needed
 980 001c 10BD     		pop	{r4, pc}
 982              		.section	.text.ism330dhcx_gy_flag_data_ready_get,"ax",%progbits
 983              		.align	1
 984              		.global	ism330dhcx_gy_flag_data_ready_get
 985              		.syntax unified
 986              		.thumb
 987              		.thumb_func
 989              	ism330dhcx_gy_flag_data_ready_get:
 990              		@ args = 0, pretend = 0, frame = 8
 991              		@ frame_needed = 0, uses_anonymous_args = 0
 992 0000 10B5     		push	{r4, lr}
 993 0002 82B0     		sub	sp, sp, #8
 994 0004 0C46     		mov	r4, r1
 995 0006 0123     		movs	r3, #1
 996 0008 01AA     		add	r2, sp, #4
 997 000a 1E21     		movs	r1, #30
 998 000c FFF7FEFF 		bl	ism330dhcx_read_reg
 999 0010 9DF80430 		ldrb	r3, [sp, #4]	@ zero_extendqisi2
 1000 0014 C3F34003 		ubfx	r3, r3, #1, #1
 1001 0018 2370     		strb	r3, [r4]
 1002 001a 02B0     		add	sp, sp, #8
 1003              		@ sp needed
 1004 001c 10BD     		pop	{r4, pc}
 1006              		.section	.text.ism330dhcx_temp_flag_data_ready_get,"ax",%progbits
 1007              		.align	1
 1008              		.global	ism330dhcx_temp_flag_data_ready_get
 1009              		.syntax unified
 1010              		.thumb
 1011              		.thumb_func
 1013              	ism330dhcx_temp_flag_data_ready_get:
 1014              		@ args = 0, pretend = 0, frame = 8
 1015              		@ frame_needed = 0, uses_anonymous_args = 0
 1016 0000 10B5     		push	{r4, lr}
 1017 0002 82B0     		sub	sp, sp, #8
 1018 0004 0C46     		mov	r4, r1
 1019 0006 0123     		movs	r3, #1
 1020 0008 01AA     		add	r2, sp, #4
 1021 000a 1E21     		movs	r1, #30
 1022 000c FFF7FEFF 		bl	ism330dhcx_read_reg
 1023 0010 9DF80430 		ldrb	r3, [sp, #4]	@ zero_extendqisi2
 1024 0014 C3F38003 		ubfx	r3, r3, #2, #1
 1025 0018 2370     		strb	r3, [r4]
 1026 001a 02B0     		add	sp, sp, #8
 1027              		@ sp needed
 1028 001c 10BD     		pop	{r4, pc}
 1030              		.section	.text.ism330dhcx_xl_usr_offset_x_set,"ax",%progbits
 1031              		.align	1
 1032              		.global	ism330dhcx_xl_usr_offset_x_set
 1033              		.syntax unified
ARM GAS  C:\Temp\ccOH3Pt6.s 			page 18


 1034              		.thumb
 1035              		.thumb_func
 1037              	ism330dhcx_xl_usr_offset_x_set:
 1038              		@ args = 0, pretend = 0, frame = 0
 1039              		@ frame_needed = 0, uses_anonymous_args = 0
 1040 0000 08B5     		push	{r3, lr}
 1041 0002 0A46     		mov	r2, r1
 1042 0004 0123     		movs	r3, #1
 1043 0006 7321     		movs	r1, #115
 1044 0008 FFF7FEFF 		bl	ism330dhcx_write_reg
 1045 000c 08BD     		pop	{r3, pc}
 1047              		.section	.text.ism330dhcx_xl_usr_offset_x_get,"ax",%progbits
 1048              		.align	1
 1049              		.global	ism330dhcx_xl_usr_offset_x_get
 1050              		.syntax unified
 1051              		.thumb
 1052              		.thumb_func
 1054              	ism330dhcx_xl_usr_offset_x_get:
 1055              		@ args = 0, pretend = 0, frame = 0
 1056              		@ frame_needed = 0, uses_anonymous_args = 0
 1057 0000 08B5     		push	{r3, lr}
 1058 0002 0A46     		mov	r2, r1
 1059 0004 0123     		movs	r3, #1
 1060 0006 7321     		movs	r1, #115
 1061 0008 FFF7FEFF 		bl	ism330dhcx_read_reg
 1062 000c 08BD     		pop	{r3, pc}
 1064              		.section	.text.ism330dhcx_xl_usr_offset_y_set,"ax",%progbits
 1065              		.align	1
 1066              		.global	ism330dhcx_xl_usr_offset_y_set
 1067              		.syntax unified
 1068              		.thumb
 1069              		.thumb_func
 1071              	ism330dhcx_xl_usr_offset_y_set:
 1072              		@ args = 0, pretend = 0, frame = 0
 1073              		@ frame_needed = 0, uses_anonymous_args = 0
 1074 0000 08B5     		push	{r3, lr}
 1075 0002 0A46     		mov	r2, r1
 1076 0004 0123     		movs	r3, #1
 1077 0006 7421     		movs	r1, #116
 1078 0008 FFF7FEFF 		bl	ism330dhcx_write_reg
 1079 000c 08BD     		pop	{r3, pc}
 1081              		.section	.text.ism330dhcx_xl_usr_offset_y_get,"ax",%progbits
 1082              		.align	1
 1083              		.global	ism330dhcx_xl_usr_offset_y_get
 1084              		.syntax unified
 1085              		.thumb
 1086              		.thumb_func
 1088              	ism330dhcx_xl_usr_offset_y_get:
 1089              		@ args = 0, pretend = 0, frame = 0
 1090              		@ frame_needed = 0, uses_anonymous_args = 0
 1091 0000 08B5     		push	{r3, lr}
 1092 0002 0A46     		mov	r2, r1
 1093 0004 0123     		movs	r3, #1
 1094 0006 7421     		movs	r1, #116
 1095 0008 FFF7FEFF 		bl	ism330dhcx_read_reg
 1096 000c 08BD     		pop	{r3, pc}
 1098              		.section	.text.ism330dhcx_xl_usr_offset_z_set,"ax",%progbits
ARM GAS  C:\Temp\ccOH3Pt6.s 			page 19


 1099              		.align	1
 1100              		.global	ism330dhcx_xl_usr_offset_z_set
 1101              		.syntax unified
 1102              		.thumb
 1103              		.thumb_func
 1105              	ism330dhcx_xl_usr_offset_z_set:
 1106              		@ args = 0, pretend = 0, frame = 0
 1107              		@ frame_needed = 0, uses_anonymous_args = 0
 1108 0000 08B5     		push	{r3, lr}
 1109 0002 0A46     		mov	r2, r1
 1110 0004 0123     		movs	r3, #1
 1111 0006 7521     		movs	r1, #117
 1112 0008 FFF7FEFF 		bl	ism330dhcx_write_reg
 1113 000c 08BD     		pop	{r3, pc}
 1115              		.section	.text.ism330dhcx_xl_usr_offset_z_get,"ax",%progbits
 1116              		.align	1
 1117              		.global	ism330dhcx_xl_usr_offset_z_get
 1118              		.syntax unified
 1119              		.thumb
 1120              		.thumb_func
 1122              	ism330dhcx_xl_usr_offset_z_get:
 1123              		@ args = 0, pretend = 0, frame = 0
 1124              		@ frame_needed = 0, uses_anonymous_args = 0
 1125 0000 08B5     		push	{r3, lr}
 1126 0002 0A46     		mov	r2, r1
 1127 0004 0123     		movs	r3, #1
 1128 0006 7521     		movs	r1, #117
 1129 0008 FFF7FEFF 		bl	ism330dhcx_read_reg
 1130 000c 08BD     		pop	{r3, pc}
 1132              		.section	.text.ism330dhcx_xl_usr_offset_set,"ax",%progbits
 1133              		.align	1
 1134              		.global	ism330dhcx_xl_usr_offset_set
 1135              		.syntax unified
 1136              		.thumb
 1137              		.thumb_func
 1139              	ism330dhcx_xl_usr_offset_set:
 1140              		@ args = 0, pretend = 0, frame = 8
 1141              		@ frame_needed = 0, uses_anonymous_args = 0
 1142 0000 30B5     		push	{r4, r5, lr}
 1143 0002 83B0     		sub	sp, sp, #12
 1144 0004 0446     		mov	r4, r0
 1145 0006 0D46     		mov	r5, r1
 1146 0008 0123     		movs	r3, #1
 1147 000a 01AA     		add	r2, sp, #4
 1148 000c 1621     		movs	r1, #22
 1149 000e FFF7FEFF 		bl	ism330dhcx_read_reg
 1150 0012 08B1     		cbz	r0, .L164
 1151              	.L161:
 1152 0014 03B0     		add	sp, sp, #12
 1153              		@ sp needed
 1154 0016 30BD     		pop	{r4, r5, pc}
 1155              	.L164:
 1156 0018 9DF80430 		ldrb	r3, [sp, #4]	@ zero_extendqisi2
 1157 001c 65F34103 		bfi	r3, r5, #1, #1
 1158 0020 8DF80430 		strb	r3, [sp, #4]
 1159 0024 0123     		movs	r3, #1
 1160 0026 01AA     		add	r2, sp, #4
ARM GAS  C:\Temp\ccOH3Pt6.s 			page 20


 1161 0028 1621     		movs	r1, #22
 1162 002a 2046     		mov	r0, r4
 1163 002c FFF7FEFF 		bl	ism330dhcx_write_reg
 1164 0030 F0E7     		b	.L161
 1166              		.section	.text.ism330dhcx_xl_usr_offset_get,"ax",%progbits
 1167              		.align	1
 1168              		.global	ism330dhcx_xl_usr_offset_get
 1169              		.syntax unified
 1170              		.thumb
 1171              		.thumb_func
 1173              	ism330dhcx_xl_usr_offset_get:
 1174              		@ args = 0, pretend = 0, frame = 8
 1175              		@ frame_needed = 0, uses_anonymous_args = 0
 1176 0000 10B5     		push	{r4, lr}
 1177 0002 82B0     		sub	sp, sp, #8
 1178 0004 0C46     		mov	r4, r1
 1179 0006 0123     		movs	r3, #1
 1180 0008 01AA     		add	r2, sp, #4
 1181 000a 1621     		movs	r1, #22
 1182 000c FFF7FEFF 		bl	ism330dhcx_read_reg
 1183 0010 9DF80430 		ldrb	r3, [sp, #4]	@ zero_extendqisi2
 1184 0014 C3F34003 		ubfx	r3, r3, #1, #1
 1185 0018 2370     		strb	r3, [r4]
 1186 001a 02B0     		add	sp, sp, #8
 1187              		@ sp needed
 1188 001c 10BD     		pop	{r4, pc}
 1190              		.section	.text.ism330dhcx_timestamp_rst,"ax",%progbits
 1191              		.align	1
 1192              		.global	ism330dhcx_timestamp_rst
 1193              		.syntax unified
 1194              		.thumb
 1195              		.thumb_func
 1197              	ism330dhcx_timestamp_rst:
 1198              		@ args = 0, pretend = 0, frame = 8
 1199              		@ frame_needed = 0, uses_anonymous_args = 0
 1200 0000 00B5     		push	{lr}
 1201 0002 83B0     		sub	sp, sp, #12
 1202 0004 AA23     		movs	r3, #170
 1203 0006 8DF80730 		strb	r3, [sp, #7]
 1204 000a 0123     		movs	r3, #1
 1205 000c 0DF10702 		add	r2, sp, #7
 1206 0010 4221     		movs	r1, #66
 1207 0012 FFF7FEFF 		bl	ism330dhcx_write_reg
 1208 0016 03B0     		add	sp, sp, #12
 1209              		@ sp needed
 1210 0018 5DF804FB 		ldr	pc, [sp], #4
 1212              		.section	.text.ism330dhcx_timestamp_set,"ax",%progbits
 1213              		.align	1
 1214              		.global	ism330dhcx_timestamp_set
 1215              		.syntax unified
 1216              		.thumb
 1217              		.thumb_func
 1219              	ism330dhcx_timestamp_set:
 1220              		@ args = 0, pretend = 0, frame = 8
 1221              		@ frame_needed = 0, uses_anonymous_args = 0
 1222 0000 30B5     		push	{r4, r5, lr}
 1223 0002 83B0     		sub	sp, sp, #12
ARM GAS  C:\Temp\ccOH3Pt6.s 			page 21


 1224 0004 0446     		mov	r4, r0
 1225 0006 0D46     		mov	r5, r1
 1226 0008 0123     		movs	r3, #1
 1227 000a 01AA     		add	r2, sp, #4
 1228 000c 1921     		movs	r1, #25
 1229 000e FFF7FEFF 		bl	ism330dhcx_read_reg
 1230 0012 08B1     		cbz	r0, .L172
 1231              	.L169:
 1232 0014 03B0     		add	sp, sp, #12
 1233              		@ sp needed
 1234 0016 30BD     		pop	{r4, r5, pc}
 1235              	.L172:
 1236 0018 9DF80430 		ldrb	r3, [sp, #4]	@ zero_extendqisi2
 1237 001c 65F34513 		bfi	r3, r5, #5, #1
 1238 0020 8DF80430 		strb	r3, [sp, #4]
 1239 0024 0123     		movs	r3, #1
 1240 0026 01AA     		add	r2, sp, #4
 1241 0028 1921     		movs	r1, #25
 1242 002a 2046     		mov	r0, r4
 1243 002c FFF7FEFF 		bl	ism330dhcx_write_reg
 1244 0030 F0E7     		b	.L169
 1246              		.section	.text.ism330dhcx_timestamp_get,"ax",%progbits
 1247              		.align	1
 1248              		.global	ism330dhcx_timestamp_get
 1249              		.syntax unified
 1250              		.thumb
 1251              		.thumb_func
 1253              	ism330dhcx_timestamp_get:
 1254              		@ args = 0, pretend = 0, frame = 8
 1255              		@ frame_needed = 0, uses_anonymous_args = 0
 1256 0000 10B5     		push	{r4, lr}
 1257 0002 82B0     		sub	sp, sp, #8
 1258 0004 0C46     		mov	r4, r1
 1259 0006 0123     		movs	r3, #1
 1260 0008 01AA     		add	r2, sp, #4
 1261 000a 1921     		movs	r1, #25
 1262 000c FFF7FEFF 		bl	ism330dhcx_read_reg
 1263 0010 9DF80430 		ldrb	r3, [sp, #4]	@ zero_extendqisi2
 1264 0014 C3F34013 		ubfx	r3, r3, #5, #1
 1265 0018 2370     		strb	r3, [r4]
 1266 001a 02B0     		add	sp, sp, #8
 1267              		@ sp needed
 1268 001c 10BD     		pop	{r4, pc}
 1270              		.section	.text.ism330dhcx_timestamp_raw_get,"ax",%progbits
 1271              		.align	1
 1272              		.global	ism330dhcx_timestamp_raw_get
 1273              		.syntax unified
 1274              		.thumb
 1275              		.thumb_func
 1277              	ism330dhcx_timestamp_raw_get:
 1278              		@ args = 0, pretend = 0, frame = 8
 1279              		@ frame_needed = 0, uses_anonymous_args = 0
 1280 0000 10B5     		push	{r4, lr}
 1281 0002 82B0     		sub	sp, sp, #8
 1282 0004 0C46     		mov	r4, r1
 1283 0006 0423     		movs	r3, #4
 1284 0008 0DEB0302 		add	r2, sp, r3
ARM GAS  C:\Temp\ccOH3Pt6.s 			page 22


 1285 000c 4021     		movs	r1, #64
 1286 000e FFF7FEFF 		bl	ism330dhcx_read_reg
 1287 0012 9DF80730 		ldrb	r3, [sp, #7]	@ zero_extendqisi2
 1288 0016 2360     		str	r3, [r4]
 1289 0018 9DF80620 		ldrb	r2, [sp, #6]	@ zero_extendqisi2
 1290 001c 02EB0322 		add	r2, r2, r3, lsl #8
 1291 0020 2260     		str	r2, [r4]
 1292 0022 9DF80530 		ldrb	r3, [sp, #5]	@ zero_extendqisi2
 1293 0026 03EB0223 		add	r3, r3, r2, lsl #8
 1294 002a 2360     		str	r3, [r4]
 1295 002c 9DF80420 		ldrb	r2, [sp, #4]	@ zero_extendqisi2
 1296 0030 02EB0323 		add	r3, r2, r3, lsl #8
 1297 0034 2360     		str	r3, [r4]
 1298 0036 02B0     		add	sp, sp, #8
 1299              		@ sp needed
 1300 0038 10BD     		pop	{r4, pc}
 1302              		.section	.text.ism330dhcx_rounding_mode_set,"ax",%progbits
 1303              		.align	1
 1304              		.global	ism330dhcx_rounding_mode_set
 1305              		.syntax unified
 1306              		.thumb
 1307              		.thumb_func
 1309              	ism330dhcx_rounding_mode_set:
 1310              		@ args = 0, pretend = 0, frame = 8
 1311              		@ frame_needed = 0, uses_anonymous_args = 0
 1312 0000 30B5     		push	{r4, r5, lr}
 1313 0002 83B0     		sub	sp, sp, #12
 1314 0004 0446     		mov	r4, r0
 1315 0006 0D46     		mov	r5, r1
 1316 0008 0123     		movs	r3, #1
 1317 000a 01AA     		add	r2, sp, #4
 1318 000c 1421     		movs	r1, #20
 1319 000e FFF7FEFF 		bl	ism330dhcx_read_reg
 1320 0012 08B1     		cbz	r0, .L180
 1321              	.L177:
 1322 0014 03B0     		add	sp, sp, #12
 1323              		@ sp needed
 1324 0016 30BD     		pop	{r4, r5, pc}
 1325              	.L180:
 1326 0018 9DF80430 		ldrb	r3, [sp, #4]	@ zero_extendqisi2
 1327 001c 65F34613 		bfi	r3, r5, #5, #2
 1328 0020 8DF80430 		strb	r3, [sp, #4]
 1329 0024 0123     		movs	r3, #1
 1330 0026 01AA     		add	r2, sp, #4
 1331 0028 1421     		movs	r1, #20
 1332 002a 2046     		mov	r0, r4
 1333 002c FFF7FEFF 		bl	ism330dhcx_write_reg
 1334 0030 F0E7     		b	.L177
 1336              		.section	.text.ism330dhcx_rounding_mode_get,"ax",%progbits
 1337              		.align	1
 1338              		.global	ism330dhcx_rounding_mode_get
 1339              		.syntax unified
 1340              		.thumb
 1341              		.thumb_func
 1343              	ism330dhcx_rounding_mode_get:
 1344              		@ args = 0, pretend = 0, frame = 8
 1345              		@ frame_needed = 0, uses_anonymous_args = 0
ARM GAS  C:\Temp\ccOH3Pt6.s 			page 23


 1346 0000 10B5     		push	{r4, lr}
 1347 0002 82B0     		sub	sp, sp, #8
 1348 0004 0C46     		mov	r4, r1
 1349 0006 0123     		movs	r3, #1
 1350 0008 01AA     		add	r2, sp, #4
 1351 000a 1421     		movs	r1, #20
 1352 000c FFF7FEFF 		bl	ism330dhcx_read_reg
 1353 0010 9DF80430 		ldrb	r3, [sp, #4]	@ zero_extendqisi2
 1354 0014 C3F34113 		ubfx	r3, r3, #5, #2
 1355 0018 032B     		cmp	r3, #3
 1356 001a 10D8     		bhi	.L182
 1357 001c DFE803F0 		tbb	[pc, r3]
 1358              	.L184:
 1359 0020 02       		.byte	(.L187-.L184)/2
 1360 0021 06       		.byte	(.L186-.L184)/2
 1361 0022 09       		.byte	(.L185-.L184)/2
 1362 0023 0C       		.byte	(.L183-.L184)/2
 1363              		.p2align 1
 1364              	.L187:
 1365 0024 0023     		movs	r3, #0
 1366 0026 2370     		strb	r3, [r4]
 1367              	.L181:
 1368 0028 02B0     		add	sp, sp, #8
 1369              		@ sp needed
 1370 002a 10BD     		pop	{r4, pc}
 1371              	.L186:
 1372 002c 0123     		movs	r3, #1
 1373 002e 2370     		strb	r3, [r4]
 1374 0030 FAE7     		b	.L181
 1375              	.L185:
 1376 0032 0223     		movs	r3, #2
 1377 0034 2370     		strb	r3, [r4]
 1378 0036 F7E7     		b	.L181
 1379              	.L183:
 1380 0038 0323     		movs	r3, #3
 1381 003a 2370     		strb	r3, [r4]
 1382 003c F4E7     		b	.L181
 1383              	.L182:
 1384 003e 0023     		movs	r3, #0
 1385 0040 2370     		strb	r3, [r4]
 1386 0042 F1E7     		b	.L181
 1388              		.section	.text.ism330dhcx_temperature_raw_get,"ax",%progbits
 1389              		.align	1
 1390              		.global	ism330dhcx_temperature_raw_get
 1391              		.syntax unified
 1392              		.thumb
 1393              		.thumb_func
 1395              	ism330dhcx_temperature_raw_get:
 1396              		@ args = 0, pretend = 0, frame = 8
 1397              		@ frame_needed = 0, uses_anonymous_args = 0
 1398 0000 10B5     		push	{r4, lr}
 1399 0002 82B0     		sub	sp, sp, #8
 1400 0004 0C46     		mov	r4, r1
 1401 0006 0223     		movs	r3, #2
 1402 0008 01AA     		add	r2, sp, #4
 1403 000a 2021     		movs	r1, #32
 1404 000c FFF7FEFF 		bl	ism330dhcx_read_reg
ARM GAS  C:\Temp\ccOH3Pt6.s 			page 24


 1405 0010 9DF80520 		ldrb	r2, [sp, #5]	@ zero_extendqisi2
 1406 0014 2280     		strh	r2, [r4]	@ movhi
 1407 0016 9DF80430 		ldrb	r3, [sp, #4]	@ zero_extendqisi2
 1408 001a 03EB0223 		add	r3, r3, r2, lsl #8
 1409 001e 2380     		strh	r3, [r4]	@ movhi
 1410 0020 02B0     		add	sp, sp, #8
 1411              		@ sp needed
 1412 0022 10BD     		pop	{r4, pc}
 1414              		.section	.text.ism330dhcx_angular_rate_raw_get,"ax",%progbits
 1415              		.align	1
 1416              		.global	ism330dhcx_angular_rate_raw_get
 1417              		.syntax unified
 1418              		.thumb
 1419              		.thumb_func
 1421              	ism330dhcx_angular_rate_raw_get:
 1422              		@ args = 0, pretend = 0, frame = 8
 1423              		@ frame_needed = 0, uses_anonymous_args = 0
 1424 0000 10B5     		push	{r4, lr}
 1425 0002 82B0     		sub	sp, sp, #8
 1426 0004 0C46     		mov	r4, r1
 1427 0006 0623     		movs	r3, #6
 1428 0008 6A46     		mov	r2, sp
 1429 000a 2221     		movs	r1, #34
 1430 000c FFF7FEFF 		bl	ism330dhcx_read_reg
 1431 0010 9DF80120 		ldrb	r2, [sp, #1]	@ zero_extendqisi2
 1432 0014 2280     		strh	r2, [r4]	@ movhi
 1433 0016 9DF80030 		ldrb	r3, [sp]	@ zero_extendqisi2
 1434 001a 03EB0223 		add	r3, r3, r2, lsl #8
 1435 001e 2380     		strh	r3, [r4]	@ movhi
 1436 0020 9DF80320 		ldrb	r2, [sp, #3]	@ zero_extendqisi2
 1437 0024 6280     		strh	r2, [r4, #2]	@ movhi
 1438 0026 9DF80230 		ldrb	r3, [sp, #2]	@ zero_extendqisi2
 1439 002a 03EB0223 		add	r3, r3, r2, lsl #8
 1440 002e 6380     		strh	r3, [r4, #2]	@ movhi
 1441 0030 9DF80520 		ldrb	r2, [sp, #5]	@ zero_extendqisi2
 1442 0034 A280     		strh	r2, [r4, #4]	@ movhi
 1443 0036 9DF80430 		ldrb	r3, [sp, #4]	@ zero_extendqisi2
 1444 003a 03EB0223 		add	r3, r3, r2, lsl #8
 1445 003e A380     		strh	r3, [r4, #4]	@ movhi
 1446 0040 02B0     		add	sp, sp, #8
 1447              		@ sp needed
 1448 0042 10BD     		pop	{r4, pc}
 1450              		.section	.text.ism330dhcx_acceleration_raw_get,"ax",%progbits
 1451              		.align	1
 1452              		.global	ism330dhcx_acceleration_raw_get
 1453              		.syntax unified
 1454              		.thumb
 1455              		.thumb_func
 1457              	ism330dhcx_acceleration_raw_get:
 1458              		@ args = 0, pretend = 0, frame = 8
 1459              		@ frame_needed = 0, uses_anonymous_args = 0
 1460 0000 10B5     		push	{r4, lr}
 1461 0002 82B0     		sub	sp, sp, #8
 1462 0004 0C46     		mov	r4, r1
 1463 0006 0623     		movs	r3, #6
 1464 0008 6A46     		mov	r2, sp
 1465 000a 2821     		movs	r1, #40
ARM GAS  C:\Temp\ccOH3Pt6.s 			page 25


 1466 000c FFF7FEFF 		bl	ism330dhcx_read_reg
 1467 0010 9DF80120 		ldrb	r2, [sp, #1]	@ zero_extendqisi2
 1468 0014 2280     		strh	r2, [r4]	@ movhi
 1469 0016 9DF80030 		ldrb	r3, [sp]	@ zero_extendqisi2
 1470 001a 03EB0223 		add	r3, r3, r2, lsl #8
 1471 001e 2380     		strh	r3, [r4]	@ movhi
 1472 0020 9DF80320 		ldrb	r2, [sp, #3]	@ zero_extendqisi2
 1473 0024 6280     		strh	r2, [r4, #2]	@ movhi
 1474 0026 9DF80230 		ldrb	r3, [sp, #2]	@ zero_extendqisi2
 1475 002a 03EB0223 		add	r3, r3, r2, lsl #8
 1476 002e 6380     		strh	r3, [r4, #2]	@ movhi
 1477 0030 9DF80520 		ldrb	r2, [sp, #5]	@ zero_extendqisi2
 1478 0034 A280     		strh	r2, [r4, #4]	@ movhi
 1479 0036 9DF80430 		ldrb	r3, [sp, #4]	@ zero_extendqisi2
 1480 003a 03EB0223 		add	r3, r3, r2, lsl #8
 1481 003e A380     		strh	r3, [r4, #4]	@ movhi
 1482 0040 02B0     		add	sp, sp, #8
 1483              		@ sp needed
 1484 0042 10BD     		pop	{r4, pc}
 1486              		.section	.text.ism330dhcx_fifo_out_raw_get,"ax",%progbits
 1487              		.align	1
 1488              		.global	ism330dhcx_fifo_out_raw_get
 1489              		.syntax unified
 1490              		.thumb
 1491              		.thumb_func
 1493              	ism330dhcx_fifo_out_raw_get:
 1494              		@ args = 0, pretend = 0, frame = 0
 1495              		@ frame_needed = 0, uses_anonymous_args = 0
 1496 0000 08B5     		push	{r3, lr}
 1497 0002 0A46     		mov	r2, r1
 1498 0004 0623     		movs	r3, #6
 1499 0006 7921     		movs	r1, #121
 1500 0008 FFF7FEFF 		bl	ism330dhcx_read_reg
 1501 000c 08BD     		pop	{r3, pc}
 1503              		.section	.text.ism330dhcx_device_conf_set,"ax",%progbits
 1504              		.align	1
 1505              		.global	ism330dhcx_device_conf_set
 1506              		.syntax unified
 1507              		.thumb
 1508              		.thumb_func
 1510              	ism330dhcx_device_conf_set:
 1511              		@ args = 0, pretend = 0, frame = 8
 1512              		@ frame_needed = 0, uses_anonymous_args = 0
 1513 0000 30B5     		push	{r4, r5, lr}
 1514 0002 83B0     		sub	sp, sp, #12
 1515 0004 0446     		mov	r4, r0
 1516 0006 0D46     		mov	r5, r1
 1517 0008 0123     		movs	r3, #1
 1518 000a 01AA     		add	r2, sp, #4
 1519 000c 1821     		movs	r1, #24
 1520 000e FFF7FEFF 		bl	ism330dhcx_read_reg
 1521 0012 08B1     		cbz	r0, .L201
 1522              	.L198:
 1523 0014 03B0     		add	sp, sp, #12
 1524              		@ sp needed
 1525 0016 30BD     		pop	{r4, r5, pc}
 1526              	.L201:
ARM GAS  C:\Temp\ccOH3Pt6.s 			page 26


 1527 0018 9DF80430 		ldrb	r3, [sp, #4]	@ zero_extendqisi2
 1528 001c 65F34103 		bfi	r3, r5, #1, #1
 1529 0020 8DF80430 		strb	r3, [sp, #4]
 1530 0024 0123     		movs	r3, #1
 1531 0026 01AA     		add	r2, sp, #4
 1532 0028 1821     		movs	r1, #24
 1533 002a 2046     		mov	r0, r4
 1534 002c FFF7FEFF 		bl	ism330dhcx_write_reg
 1535 0030 F0E7     		b	.L198
 1537              		.section	.text.ism330dhcx_device_conf_get,"ax",%progbits
 1538              		.align	1
 1539              		.global	ism330dhcx_device_conf_get
 1540              		.syntax unified
 1541              		.thumb
 1542              		.thumb_func
 1544              	ism330dhcx_device_conf_get:
 1545              		@ args = 0, pretend = 0, frame = 8
 1546              		@ frame_needed = 0, uses_anonymous_args = 0
 1547 0000 10B5     		push	{r4, lr}
 1548 0002 82B0     		sub	sp, sp, #8
 1549 0004 0C46     		mov	r4, r1
 1550 0006 0123     		movs	r3, #1
 1551 0008 01AA     		add	r2, sp, #4
 1552 000a 1821     		movs	r1, #24
 1553 000c FFF7FEFF 		bl	ism330dhcx_read_reg
 1554 0010 9DF80430 		ldrb	r3, [sp, #4]	@ zero_extendqisi2
 1555 0014 C3F34003 		ubfx	r3, r3, #1, #1
 1556 0018 2370     		strb	r3, [r4]
 1557 001a 02B0     		add	sp, sp, #8
 1558              		@ sp needed
 1559 001c 10BD     		pop	{r4, pc}
 1561              		.section	.text.ism330dhcx_odr_cal_reg_set,"ax",%progbits
 1562              		.align	1
 1563              		.global	ism330dhcx_odr_cal_reg_set
 1564              		.syntax unified
 1565              		.thumb
 1566              		.thumb_func
 1568              	ism330dhcx_odr_cal_reg_set:
 1569              		@ args = 0, pretend = 0, frame = 8
 1570              		@ frame_needed = 0, uses_anonymous_args = 0
 1571 0000 30B5     		push	{r4, r5, lr}
 1572 0002 83B0     		sub	sp, sp, #12
 1573 0004 0446     		mov	r4, r0
 1574 0006 0D46     		mov	r5, r1
 1575 0008 0123     		movs	r3, #1
 1576 000a 01AA     		add	r2, sp, #4
 1577 000c 6321     		movs	r1, #99
 1578 000e FFF7FEFF 		bl	ism330dhcx_read_reg
 1579 0012 08B1     		cbz	r0, .L207
 1580              	.L204:
 1581 0014 03B0     		add	sp, sp, #12
 1582              		@ sp needed
 1583 0016 30BD     		pop	{r4, r5, pc}
 1584              	.L207:
 1585 0018 8DF80450 		strb	r5, [sp, #4]
 1586 001c 0123     		movs	r3, #1
 1587 001e 01AA     		add	r2, sp, #4
ARM GAS  C:\Temp\ccOH3Pt6.s 			page 27


 1588 0020 6321     		movs	r1, #99
 1589 0022 2046     		mov	r0, r4
 1590 0024 FFF7FEFF 		bl	ism330dhcx_write_reg
 1591 0028 F4E7     		b	.L204
 1593              		.section	.text.ism330dhcx_odr_cal_reg_get,"ax",%progbits
 1594              		.align	1
 1595              		.global	ism330dhcx_odr_cal_reg_get
 1596              		.syntax unified
 1597              		.thumb
 1598              		.thumb_func
 1600              	ism330dhcx_odr_cal_reg_get:
 1601              		@ args = 0, pretend = 0, frame = 8
 1602              		@ frame_needed = 0, uses_anonymous_args = 0
 1603 0000 10B5     		push	{r4, lr}
 1604 0002 82B0     		sub	sp, sp, #8
 1605 0004 0C46     		mov	r4, r1
 1606 0006 0123     		movs	r3, #1
 1607 0008 01AA     		add	r2, sp, #4
 1608 000a 6321     		movs	r1, #99
 1609 000c FFF7FEFF 		bl	ism330dhcx_read_reg
 1610 0010 9DF80430 		ldrb	r3, [sp, #4]	@ zero_extendqisi2
 1611 0014 2370     		strb	r3, [r4]
 1612 0016 02B0     		add	sp, sp, #8
 1613              		@ sp needed
 1614 0018 10BD     		pop	{r4, pc}
 1616              		.section	.text.ism330dhcx_mem_bank_set,"ax",%progbits
 1617              		.align	1
 1618              		.global	ism330dhcx_mem_bank_set
 1619              		.syntax unified
 1620              		.thumb
 1621              		.thumb_func
 1623              	ism330dhcx_mem_bank_set:
 1624              		@ args = 0, pretend = 0, frame = 8
 1625              		@ frame_needed = 0, uses_anonymous_args = 0
 1626 0000 30B5     		push	{r4, r5, lr}
 1627 0002 83B0     		sub	sp, sp, #12
 1628 0004 0446     		mov	r4, r0
 1629 0006 0D46     		mov	r5, r1
 1630 0008 0123     		movs	r3, #1
 1631 000a 01AA     		add	r2, sp, #4
 1632 000c 1946     		mov	r1, r3
 1633 000e FFF7FEFF 		bl	ism330dhcx_read_reg
 1634 0012 08B1     		cbz	r0, .L213
 1635              	.L210:
 1636 0014 03B0     		add	sp, sp, #12
 1637              		@ sp needed
 1638 0016 30BD     		pop	{r4, r5, pc}
 1639              	.L213:
 1640 0018 9DF80430 		ldrb	r3, [sp, #4]	@ zero_extendqisi2
 1641 001c 65F38713 		bfi	r3, r5, #6, #2
 1642 0020 8DF80430 		strb	r3, [sp, #4]
 1643 0024 0123     		movs	r3, #1
 1644 0026 01AA     		add	r2, sp, #4
 1645 0028 1946     		mov	r1, r3
 1646 002a 2046     		mov	r0, r4
 1647 002c FFF7FEFF 		bl	ism330dhcx_write_reg
 1648 0030 F0E7     		b	.L210
ARM GAS  C:\Temp\ccOH3Pt6.s 			page 28


 1650              		.section	.text.ism330dhcx_all_sources_get,"ax",%progbits
 1651              		.align	1
 1652              		.global	ism330dhcx_all_sources_get
 1653              		.syntax unified
 1654              		.thumb
 1655              		.thumb_func
 1657              	ism330dhcx_all_sources_get:
 1658              		@ args = 0, pretend = 0, frame = 0
 1659              		@ frame_needed = 0, uses_anonymous_args = 0
 1660 0000 38B5     		push	{r3, r4, r5, lr}
 1661 0002 0546     		mov	r5, r0
 1662 0004 0C46     		mov	r4, r1
 1663 0006 0123     		movs	r3, #1
 1664 0008 0A46     		mov	r2, r1
 1665 000a 1A21     		movs	r1, #26
 1666 000c FFF7FEFF 		bl	ism330dhcx_read_reg
 1667 0010 0346     		mov	r3, r0
 1668 0012 10B1     		cbz	r0, .L218
 1669              	.L215:
 1670 0014 93B1     		cbz	r3, .L219
 1671              	.L214:
 1672 0016 1846     		mov	r0, r3
 1673 0018 38BD     		pop	{r3, r4, r5, pc}
 1674              	.L218:
 1675 001a 0123     		movs	r3, #1
 1676 001c E218     		adds	r2, r4, r3
 1677 001e 1B21     		movs	r1, #27
 1678 0020 2846     		mov	r0, r5
 1679 0022 FFF7FEFF 		bl	ism330dhcx_read_reg
 1680 0026 0346     		mov	r3, r0
 1681 0028 0028     		cmp	r0, #0
 1682 002a F4D1     		bne	.L214
 1683 002c 0123     		movs	r3, #1
 1684 002e A21C     		adds	r2, r4, #2
 1685 0030 1C21     		movs	r1, #28
 1686 0032 2846     		mov	r0, r5
 1687 0034 FFF7FEFF 		bl	ism330dhcx_read_reg
 1688 0038 0346     		mov	r3, r0
 1689 003a EBE7     		b	.L215
 1690              	.L219:
 1691 003c 0123     		movs	r3, #1
 1692 003e E21C     		adds	r2, r4, #3
 1693 0040 1D21     		movs	r1, #29
 1694 0042 2846     		mov	r0, r5
 1695 0044 FFF7FEFF 		bl	ism330dhcx_read_reg
 1696 0048 0346     		mov	r3, r0
 1697 004a 0028     		cmp	r0, #0
 1698 004c E3D1     		bne	.L214
 1699 004e 0123     		movs	r3, #1
 1700 0050 221D     		adds	r2, r4, #4
 1701 0052 1E21     		movs	r1, #30
 1702 0054 2846     		mov	r0, r5
 1703 0056 FFF7FEFF 		bl	ism330dhcx_read_reg
 1704 005a 0346     		mov	r3, r0
 1705 005c 0028     		cmp	r0, #0
 1706 005e DAD1     		bne	.L214
 1707 0060 0221     		movs	r1, #2
ARM GAS  C:\Temp\ccOH3Pt6.s 			page 29


 1708 0062 2846     		mov	r0, r5
 1709 0064 FFF7FEFF 		bl	ism330dhcx_mem_bank_set
 1710 0068 0346     		mov	r3, r0
 1711 006a 0028     		cmp	r0, #0
 1712 006c D3D1     		bne	.L214
 1713 006e 0123     		movs	r3, #1
 1714 0070 621D     		adds	r2, r4, #5
 1715 0072 1221     		movs	r1, #18
 1716 0074 2846     		mov	r0, r5
 1717 0076 FFF7FEFF 		bl	ism330dhcx_read_reg
 1718 007a 0346     		mov	r3, r0
 1719 007c 0028     		cmp	r0, #0
 1720 007e CAD1     		bne	.L214
 1721 0080 0123     		movs	r3, #1
 1722 0082 A21D     		adds	r2, r4, #6
 1723 0084 1321     		movs	r1, #19
 1724 0086 2846     		mov	r0, r5
 1725 0088 FFF7FEFF 		bl	ism330dhcx_read_reg
 1726 008c 0346     		mov	r3, r0
 1727 008e 0028     		cmp	r0, #0
 1728 0090 C1D1     		bne	.L214
 1729 0092 0123     		movs	r3, #1
 1730 0094 E21D     		adds	r2, r4, #7
 1731 0096 1421     		movs	r1, #20
 1732 0098 2846     		mov	r0, r5
 1733 009a FFF7FEFF 		bl	ism330dhcx_read_reg
 1734 009e 0346     		mov	r3, r0
 1735 00a0 0028     		cmp	r0, #0
 1736 00a2 B8D1     		bne	.L214
 1737 00a4 0021     		movs	r1, #0
 1738 00a6 2846     		mov	r0, r5
 1739 00a8 FFF7FEFF 		bl	ism330dhcx_mem_bank_set
 1740 00ac 0346     		mov	r3, r0
 1741 00ae B2E7     		b	.L214
 1743              		.section	.text.ism330dhcx_number_of_steps_get,"ax",%progbits
 1744              		.align	1
 1745              		.global	ism330dhcx_number_of_steps_get
 1746              		.syntax unified
 1747              		.thumb
 1748              		.thumb_func
 1750              	ism330dhcx_number_of_steps_get:
 1751              		@ args = 0, pretend = 0, frame = 8
 1752              		@ frame_needed = 0, uses_anonymous_args = 0
 1753 0000 30B5     		push	{r4, r5, lr}
 1754 0002 83B0     		sub	sp, sp, #12
 1755 0004 0546     		mov	r5, r0
 1756 0006 0C46     		mov	r4, r1
 1757 0008 0221     		movs	r1, #2
 1758 000a FFF7FEFF 		bl	ism330dhcx_mem_bank_set
 1759 000e 08B1     		cbz	r0, .L223
 1760              	.L220:
 1761 0010 03B0     		add	sp, sp, #12
 1762              		@ sp needed
 1763 0012 30BD     		pop	{r4, r5, pc}
 1764              	.L223:
 1765 0014 0223     		movs	r3, #2
 1766 0016 01AA     		add	r2, sp, #4
ARM GAS  C:\Temp\ccOH3Pt6.s 			page 30


 1767 0018 6221     		movs	r1, #98
 1768 001a 2846     		mov	r0, r5
 1769 001c FFF7FEFF 		bl	ism330dhcx_read_reg
 1770 0020 9DF80510 		ldrb	r1, [sp, #5]	@ zero_extendqisi2
 1771 0024 2180     		strh	r1, [r4]	@ movhi
 1772 0026 9DF80430 		ldrb	r3, [sp, #4]	@ zero_extendqisi2
 1773 002a 03EB0123 		add	r3, r3, r1, lsl #8
 1774 002e 2380     		strh	r3, [r4]	@ movhi
 1775 0030 0028     		cmp	r0, #0
 1776 0032 EDD1     		bne	.L220
 1777 0034 0021     		movs	r1, #0
 1778 0036 2846     		mov	r0, r5
 1779 0038 FFF7FEFF 		bl	ism330dhcx_mem_bank_set
 1780 003c E8E7     		b	.L220
 1782              		.section	.text.ism330dhcx_steps_reset,"ax",%progbits
 1783              		.align	1
 1784              		.global	ism330dhcx_steps_reset
 1785              		.syntax unified
 1786              		.thumb
 1787              		.thumb_func
 1789              	ism330dhcx_steps_reset:
 1790              		@ args = 0, pretend = 0, frame = 8
 1791              		@ frame_needed = 0, uses_anonymous_args = 0
 1792 0000 10B5     		push	{r4, lr}
 1793 0002 82B0     		sub	sp, sp, #8
 1794 0004 0446     		mov	r4, r0
 1795 0006 0221     		movs	r1, #2
 1796 0008 FFF7FEFF 		bl	ism330dhcx_mem_bank_set
 1797 000c 0346     		mov	r3, r0
 1798 000e 18B1     		cbz	r0, .L228
 1799              	.L225:
 1800 0010 CBB1     		cbz	r3, .L229
 1801              	.L224:
 1802 0012 1846     		mov	r0, r3
 1803 0014 02B0     		add	sp, sp, #8
 1804              		@ sp needed
 1805 0016 10BD     		pop	{r4, pc}
 1806              	.L228:
 1807 0018 0123     		movs	r3, #1
 1808 001a 01AA     		add	r2, sp, #4
 1809 001c 6421     		movs	r1, #100
 1810 001e 2046     		mov	r0, r4
 1811 0020 FFF7FEFF 		bl	ism330dhcx_read_reg
 1812 0024 0346     		mov	r3, r0
 1813 0026 0028     		cmp	r0, #0
 1814 0028 F3D1     		bne	.L224
 1815 002a 9DF80430 		ldrb	r3, [sp, #4]	@ zero_extendqisi2
 1816 002e 43F08003 		orr	r3, r3, #128
 1817 0032 8DF80430 		strb	r3, [sp, #4]
 1818 0036 0123     		movs	r3, #1
 1819 0038 01AA     		add	r2, sp, #4
 1820 003a 6421     		movs	r1, #100
 1821 003c 2046     		mov	r0, r4
 1822 003e FFF7FEFF 		bl	ism330dhcx_write_reg
 1823 0042 0346     		mov	r3, r0
 1824 0044 E4E7     		b	.L225
 1825              	.L229:
ARM GAS  C:\Temp\ccOH3Pt6.s 			page 31


 1826 0046 0021     		movs	r1, #0
 1827 0048 2046     		mov	r0, r4
 1828 004a FFF7FEFF 		bl	ism330dhcx_mem_bank_set
 1829 004e 0346     		mov	r3, r0
 1830 0050 DFE7     		b	.L224
 1832              		.section	.text.ism330dhcx_mlc_out_get,"ax",%progbits
 1833              		.align	1
 1834              		.global	ism330dhcx_mlc_out_get
 1835              		.syntax unified
 1836              		.thumb
 1837              		.thumb_func
 1839              	ism330dhcx_mlc_out_get:
 1840              		@ args = 0, pretend = 0, frame = 0
 1841              		@ frame_needed = 0, uses_anonymous_args = 0
 1842 0000 38B5     		push	{r3, r4, r5, lr}
 1843 0002 0446     		mov	r4, r0
 1844 0004 0D46     		mov	r5, r1
 1845 0006 0221     		movs	r1, #2
 1846 0008 FFF7FEFF 		bl	ism330dhcx_mem_bank_set
 1847 000c 00B1     		cbz	r0, .L233
 1848              	.L230:
 1849 000e 38BD     		pop	{r3, r4, r5, pc}
 1850              	.L233:
 1851 0010 0823     		movs	r3, #8
 1852 0012 2A46     		mov	r2, r5
 1853 0014 7021     		movs	r1, #112
 1854 0016 2046     		mov	r0, r4
 1855 0018 FFF7FEFF 		bl	ism330dhcx_read_reg
 1856 001c 0028     		cmp	r0, #0
 1857 001e F6D1     		bne	.L230
 1858 0020 0021     		movs	r1, #0
 1859 0022 2046     		mov	r0, r4
 1860 0024 FFF7FEFF 		bl	ism330dhcx_mem_bank_set
 1861 0028 F1E7     		b	.L230
 1863              		.section	.text.ism330dhcx_mem_bank_get,"ax",%progbits
 1864              		.align	1
 1865              		.global	ism330dhcx_mem_bank_get
 1866              		.syntax unified
 1867              		.thumb
 1868              		.thumb_func
 1870              	ism330dhcx_mem_bank_get:
 1871              		@ args = 0, pretend = 0, frame = 8
 1872              		@ frame_needed = 0, uses_anonymous_args = 0
 1873 0000 10B5     		push	{r4, lr}
 1874 0002 82B0     		sub	sp, sp, #8
 1875 0004 0C46     		mov	r4, r1
 1876 0006 0123     		movs	r3, #1
 1877 0008 01AA     		add	r2, sp, #4
 1878 000a 1946     		mov	r1, r3
 1879 000c FFF7FEFF 		bl	ism330dhcx_read_reg
 1880 0010 9DF80430 		ldrb	r3, [sp, #4]	@ zero_extendqisi2
 1881 0014 9B09     		lsrs	r3, r3, #6
 1882 0016 012B     		cmp	r3, #1
 1883 0018 08D0     		beq	.L235
 1884 001a 022B     		cmp	r3, #2
 1885 001c 09D0     		beq	.L236
 1886 001e 13B1     		cbz	r3, .L240
ARM GAS  C:\Temp\ccOH3Pt6.s 			page 32


 1887 0020 0023     		movs	r3, #0
 1888 0022 2370     		strb	r3, [r4]
 1889 0024 00E0     		b	.L234
 1890              	.L240:
 1891 0026 2370     		strb	r3, [r4]
 1892              	.L234:
 1893 0028 02B0     		add	sp, sp, #8
 1894              		@ sp needed
 1895 002a 10BD     		pop	{r4, pc}
 1896              	.L235:
 1897 002c 0123     		movs	r3, #1
 1898 002e 2370     		strb	r3, [r4]
 1899 0030 FAE7     		b	.L234
 1900              	.L236:
 1901 0032 0223     		movs	r3, #2
 1902 0034 2370     		strb	r3, [r4]
 1903 0036 F7E7     		b	.L234
 1905              		.section	.text.ism330dhcx_ln_pg_write_byte,"ax",%progbits
 1906              		.align	1
 1907              		.global	ism330dhcx_ln_pg_write_byte
 1908              		.syntax unified
 1909              		.thumb
 1910              		.thumb_func
 1912              	ism330dhcx_ln_pg_write_byte:
 1913              		@ args = 0, pretend = 0, frame = 16
 1914              		@ frame_needed = 0, uses_anonymous_args = 0
 1915 0000 70B5     		push	{r4, r5, r6, lr}
 1916 0002 84B0     		sub	sp, sp, #16
 1917 0004 0646     		mov	r6, r0
 1918 0006 0D46     		mov	r5, r1
 1919 0008 1446     		mov	r4, r2
 1920 000a 0221     		movs	r1, #2
 1921 000c FFF7FEFF 		bl	ism330dhcx_mem_bank_set
 1922 0010 0346     		mov	r3, r0
 1923 0012 18B1     		cbz	r0, .L245
 1924              	.L242:
 1925 0014 D3B1     		cbz	r3, .L246
 1926              	.L241:
 1927 0016 1846     		mov	r0, r3
 1928 0018 04B0     		add	sp, sp, #16
 1929              		@ sp needed
 1930 001a 70BD     		pop	{r4, r5, r6, pc}
 1931              	.L245:
 1932 001c 0123     		movs	r3, #1
 1933 001e 03AA     		add	r2, sp, #12
 1934 0020 1721     		movs	r1, #23
 1935 0022 3046     		mov	r0, r6
 1936 0024 FFF7FEFF 		bl	ism330dhcx_read_reg
 1937 0028 0346     		mov	r3, r0
 1938 002a 0028     		cmp	r0, #0
 1939 002c F3D1     		bne	.L241
 1940 002e 9DF80C30 		ldrb	r3, [sp, #12]	@ zero_extendqisi2
 1941 0032 0222     		movs	r2, #2
 1942 0034 62F34613 		bfi	r3, r2, #5, #2
 1943 0038 8DF80C30 		strb	r3, [sp, #12]
 1944 003c 0123     		movs	r3, #1
 1945 003e 03AA     		add	r2, sp, #12
ARM GAS  C:\Temp\ccOH3Pt6.s 			page 33


 1946 0040 1721     		movs	r1, #23
 1947 0042 3046     		mov	r0, r6
 1948 0044 FFF7FEFF 		bl	ism330dhcx_write_reg
 1949 0048 0346     		mov	r3, r0
 1950 004a E3E7     		b	.L242
 1951              	.L246:
 1952 004c 0123     		movs	r3, #1
 1953 004e 02AA     		add	r2, sp, #8
 1954 0050 0221     		movs	r1, #2
 1955 0052 3046     		mov	r0, r6
 1956 0054 FFF7FEFF 		bl	ism330dhcx_read_reg
 1957 0058 0346     		mov	r3, r0
 1958 005a 0028     		cmp	r0, #0
 1959 005c DBD1     		bne	.L241
 1960 005e C5F30323 		ubfx	r3, r5, #8, #4
 1961 0062 9DF80820 		ldrb	r2, [sp, #8]	@ zero_extendqisi2
 1962 0066 63F30712 		bfi	r2, r3, #4, #4
 1963 006a 8DF80820 		strb	r2, [sp, #8]
 1964 006e D2B2     		uxtb	r2, r2
 1965 0070 0123     		movs	r3, #1
 1966 0072 63F30302 		bfi	r2, r3, #0, #4
 1967 0076 8DF80820 		strb	r2, [sp, #8]
 1968 007a 02AA     		add	r2, sp, #8
 1969 007c 0221     		movs	r1, #2
 1970 007e 3046     		mov	r0, r6
 1971 0080 FFF7FEFF 		bl	ism330dhcx_write_reg
 1972 0084 0346     		mov	r3, r0
 1973 0086 0028     		cmp	r0, #0
 1974 0088 C5D1     		bne	.L241
 1975 008a 8DF80450 		strb	r5, [sp, #4]
 1976 008e 0123     		movs	r3, #1
 1977 0090 01AA     		add	r2, sp, #4
 1978 0092 0821     		movs	r1, #8
 1979 0094 3046     		mov	r0, r6
 1980 0096 FFF7FEFF 		bl	ism330dhcx_write_reg
 1981 009a 0346     		mov	r3, r0
 1982 009c 0028     		cmp	r0, #0
 1983 009e BAD1     		bne	.L241
 1984 00a0 0123     		movs	r3, #1
 1985 00a2 2246     		mov	r2, r4
 1986 00a4 0921     		movs	r1, #9
 1987 00a6 3046     		mov	r0, r6
 1988 00a8 FFF7FEFF 		bl	ism330dhcx_write_reg
 1989 00ac 0346     		mov	r3, r0
 1990 00ae 0028     		cmp	r0, #0
 1991 00b0 B1D1     		bne	.L241
 1992 00b2 0123     		movs	r3, #1
 1993 00b4 03AA     		add	r2, sp, #12
 1994 00b6 1721     		movs	r1, #23
 1995 00b8 3046     		mov	r0, r6
 1996 00ba FFF7FEFF 		bl	ism330dhcx_read_reg
 1997 00be 0346     		mov	r3, r0
 1998 00c0 0028     		cmp	r0, #0
 1999 00c2 A8D1     		bne	.L241
 2000 00c4 9DF80C30 		ldrb	r3, [sp, #12]	@ zero_extendqisi2
 2001 00c8 6FF34613 		bfc	r3, #5, #2
 2002 00cc 8DF80C30 		strb	r3, [sp, #12]
ARM GAS  C:\Temp\ccOH3Pt6.s 			page 34


 2003 00d0 0123     		movs	r3, #1
 2004 00d2 03AA     		add	r2, sp, #12
 2005 00d4 1721     		movs	r1, #23
 2006 00d6 3046     		mov	r0, r6
 2007 00d8 FFF7FEFF 		bl	ism330dhcx_write_reg
 2008 00dc 0346     		mov	r3, r0
 2009 00de 0028     		cmp	r0, #0
 2010 00e0 99D1     		bne	.L241
 2011 00e2 0021     		movs	r1, #0
 2012 00e4 3046     		mov	r0, r6
 2013 00e6 FFF7FEFF 		bl	ism330dhcx_mem_bank_set
 2014 00ea 0346     		mov	r3, r0
 2015 00ec 93E7     		b	.L241
 2017              		.section	.text.ism330dhcx_ln_pg_write,"ax",%progbits
 2018              		.align	1
 2019              		.global	ism330dhcx_ln_pg_write
 2020              		.syntax unified
 2021              		.thumb
 2022              		.thumb_func
 2024              	ism330dhcx_ln_pg_write:
 2025              		@ args = 0, pretend = 0, frame = 16
 2026              		@ frame_needed = 0, uses_anonymous_args = 0
 2027 0000 2DE9F043 		push	{r4, r5, r6, r7, r8, r9, lr}
 2028 0004 85B0     		sub	sp, sp, #20
 2029 0006 0746     		mov	r7, r0
 2030 0008 9046     		mov	r8, r2
 2031 000a 1E46     		mov	r6, r3
 2032 000c 0C0A     		lsrs	r4, r1, #8
 2033 000e C1F30329 		ubfx	r9, r1, #8, #4
 2034 0012 CDB2     		uxtb	r5, r1
 2035 0014 0221     		movs	r1, #2
 2036 0016 FFF7FEFF 		bl	ism330dhcx_mem_bank_set
 2037 001a 0146     		mov	r1, r0
 2038 001c 10B1     		cbz	r0, .L257
 2039              	.L248:
 2040 001e C9B1     		cbz	r1, .L258
 2041              	.L249:
 2042 0020 0024     		movs	r4, #0
 2043 0022 43E0     		b	.L250
 2044              	.L257:
 2045 0024 0123     		movs	r3, #1
 2046 0026 03AA     		add	r2, sp, #12
 2047 0028 1721     		movs	r1, #23
 2048 002a 3846     		mov	r0, r7
 2049 002c FFF7FEFF 		bl	ism330dhcx_read_reg
 2050 0030 0146     		mov	r1, r0
 2051 0032 0028     		cmp	r0, #0
 2052 0034 F4D1     		bne	.L249
 2053 0036 9DF80C30 		ldrb	r3, [sp, #12]	@ zero_extendqisi2
 2054 003a 0222     		movs	r2, #2
 2055 003c 62F34613 		bfi	r3, r2, #5, #2
 2056 0040 8DF80C30 		strb	r3, [sp, #12]
 2057 0044 0123     		movs	r3, #1
 2058 0046 03AA     		add	r2, sp, #12
 2059 0048 1721     		movs	r1, #23
 2060 004a 3846     		mov	r0, r7
 2061 004c FFF7FEFF 		bl	ism330dhcx_write_reg
ARM GAS  C:\Temp\ccOH3Pt6.s 			page 35


 2062 0050 0146     		mov	r1, r0
 2063 0052 E4E7     		b	.L248
 2064              	.L258:
 2065 0054 0123     		movs	r3, #1
 2066 0056 02AA     		add	r2, sp, #8
 2067 0058 0221     		movs	r1, #2
 2068 005a 3846     		mov	r0, r7
 2069 005c FFF7FEFF 		bl	ism330dhcx_read_reg
 2070 0060 0146     		mov	r1, r0
 2071 0062 0028     		cmp	r0, #0
 2072 0064 DCD1     		bne	.L249
 2073 0066 9DF80830 		ldrb	r3, [sp, #8]	@ zero_extendqisi2
 2074 006a 64F30713 		bfi	r3, r4, #4, #4
 2075 006e 8DF80830 		strb	r3, [sp, #8]
 2076 0072 DAB2     		uxtb	r2, r3
 2077 0074 0123     		movs	r3, #1
 2078 0076 63F30302 		bfi	r2, r3, #0, #4
 2079 007a 8DF80820 		strb	r2, [sp, #8]
 2080 007e 02AA     		add	r2, sp, #8
 2081 0080 0221     		movs	r1, #2
 2082 0082 3846     		mov	r0, r7
 2083 0084 FFF7FEFF 		bl	ism330dhcx_write_reg
 2084 0088 0146     		mov	r1, r0
 2085 008a 0028     		cmp	r0, #0
 2086 008c C8D1     		bne	.L249
 2087 008e 8DF80450 		strb	r5, [sp, #4]
 2088 0092 0123     		movs	r3, #1
 2089 0094 01AA     		add	r2, sp, #4
 2090 0096 0821     		movs	r1, #8
 2091 0098 3846     		mov	r0, r7
 2092 009a FFF7FEFF 		bl	ism330dhcx_write_reg
 2093 009e 0146     		mov	r1, r0
 2094 00a0 BEE7     		b	.L249
 2095              	.L253:
 2096 00a2 0135     		adds	r5, r5, #1
 2097 00a4 EDB2     		uxtb	r5, r5
 2098              	.L252:
 2099 00a6 E9B1     		cbz	r1, .L259
 2100              	.L251:
 2101 00a8 0134     		adds	r4, r4, #1
 2102 00aa E4B2     		uxtb	r4, r4
 2103              	.L250:
 2104 00ac B442     		cmp	r4, r6
 2105 00ae 2CD2     		bcs	.L260
 2106 00b0 0029     		cmp	r1, #0
 2107 00b2 F9D1     		bne	.L251
 2108 00b4 0123     		movs	r3, #1
 2109 00b6 08EB0402 		add	r2, r8, r4
 2110 00ba 0921     		movs	r1, #9
 2111 00bc 3846     		mov	r0, r7
 2112 00be FFF7FEFF 		bl	ism330dhcx_write_reg
 2113 00c2 0146     		mov	r1, r0
 2114 00c4 0028     		cmp	r0, #0
 2115 00c6 EED1     		bne	.L252
 2116 00c8 002D     		cmp	r5, #0
 2117 00ca EAD1     		bne	.L253
 2118 00cc 09F10109 		add	r9, r9, #1
ARM GAS  C:\Temp\ccOH3Pt6.s 			page 36


 2119 00d0 5FFA89F9 		uxtb	r9, r9
 2120 00d4 0123     		movs	r3, #1
 2121 00d6 02AA     		add	r2, sp, #8
 2122 00d8 0221     		movs	r1, #2
 2123 00da 3846     		mov	r0, r7
 2124 00dc FFF7FEFF 		bl	ism330dhcx_read_reg
 2125 00e0 0146     		mov	r1, r0
 2126 00e2 DEE7     		b	.L253
 2127              	.L259:
 2128 00e4 9DF80830 		ldrb	r3, [sp, #8]	@ zero_extendqisi2
 2129 00e8 69F30713 		bfi	r3, r9, #4, #4
 2130 00ec 8DF80830 		strb	r3, [sp, #8]
 2131 00f0 DAB2     		uxtb	r2, r3
 2132 00f2 0123     		movs	r3, #1
 2133 00f4 63F30302 		bfi	r2, r3, #0, #4
 2134 00f8 8DF80820 		strb	r2, [sp, #8]
 2135 00fc 02AA     		add	r2, sp, #8
 2136 00fe 0221     		movs	r1, #2
 2137 0100 3846     		mov	r0, r7
 2138 0102 FFF7FEFF 		bl	ism330dhcx_write_reg
 2139 0106 0146     		mov	r1, r0
 2140 0108 CEE7     		b	.L251
 2141              	.L260:
 2142 010a 19B1     		cbz	r1, .L261
 2143              	.L247:
 2144 010c 0846     		mov	r0, r1
 2145 010e 05B0     		add	sp, sp, #20
 2146              		@ sp needed
 2147 0110 BDE8F083 		pop	{r4, r5, r6, r7, r8, r9, pc}
 2148              	.L261:
 2149 0114 9DF80830 		ldrb	r3, [sp, #8]	@ zero_extendqisi2
 2150 0118 6FF30713 		bfc	r3, #4, #4
 2151 011c 8DF80830 		strb	r3, [sp, #8]
 2152 0120 DAB2     		uxtb	r2, r3
 2153 0122 0123     		movs	r3, #1
 2154 0124 63F30302 		bfi	r2, r3, #0, #4
 2155 0128 8DF80820 		strb	r2, [sp, #8]
 2156 012c 02AA     		add	r2, sp, #8
 2157 012e 0221     		movs	r1, #2
 2158 0130 3846     		mov	r0, r7
 2159 0132 FFF7FEFF 		bl	ism330dhcx_write_reg
 2160 0136 0146     		mov	r1, r0
 2161 0138 0028     		cmp	r0, #0
 2162 013a E7D1     		bne	.L247
 2163 013c 0123     		movs	r3, #1
 2164 013e 03AA     		add	r2, sp, #12
 2165 0140 1721     		movs	r1, #23
 2166 0142 3846     		mov	r0, r7
 2167 0144 FFF7FEFF 		bl	ism330dhcx_read_reg
 2168 0148 0146     		mov	r1, r0
 2169 014a 0028     		cmp	r0, #0
 2170 014c DED1     		bne	.L247
 2171 014e 9DF80C30 		ldrb	r3, [sp, #12]	@ zero_extendqisi2
 2172 0152 6FF34613 		bfc	r3, #5, #2
 2173 0156 8DF80C30 		strb	r3, [sp, #12]
 2174 015a 0123     		movs	r3, #1
 2175 015c 03AA     		add	r2, sp, #12
ARM GAS  C:\Temp\ccOH3Pt6.s 			page 37


 2176 015e 1721     		movs	r1, #23
 2177 0160 3846     		mov	r0, r7
 2178 0162 FFF7FEFF 		bl	ism330dhcx_write_reg
 2179 0166 0146     		mov	r1, r0
 2180 0168 0028     		cmp	r0, #0
 2181 016a CFD1     		bne	.L247
 2182 016c 0021     		movs	r1, #0
 2183 016e 3846     		mov	r0, r7
 2184 0170 FFF7FEFF 		bl	ism330dhcx_mem_bank_set
 2185 0174 0146     		mov	r1, r0
 2186 0176 C9E7     		b	.L247
 2188              		.section	.text.ism330dhcx_ln_pg_read_byte,"ax",%progbits
 2189              		.align	1
 2190              		.global	ism330dhcx_ln_pg_read_byte
 2191              		.syntax unified
 2192              		.thumb
 2193              		.thumb_func
 2195              	ism330dhcx_ln_pg_read_byte:
 2196              		@ args = 0, pretend = 0, frame = 16
 2197              		@ frame_needed = 0, uses_anonymous_args = 0
 2198 0000 70B5     		push	{r4, r5, r6, lr}
 2199 0002 84B0     		sub	sp, sp, #16
 2200 0004 0646     		mov	r6, r0
 2201 0006 0D46     		mov	r5, r1
 2202 0008 1446     		mov	r4, r2
 2203 000a 0221     		movs	r1, #2
 2204 000c FFF7FEFF 		bl	ism330dhcx_mem_bank_set
 2205 0010 0346     		mov	r3, r0
 2206 0012 18B1     		cbz	r0, .L266
 2207              	.L263:
 2208 0014 CBB1     		cbz	r3, .L267
 2209              	.L262:
 2210 0016 1846     		mov	r0, r3
 2211 0018 04B0     		add	sp, sp, #16
 2212              		@ sp needed
 2213 001a 70BD     		pop	{r4, r5, r6, pc}
 2214              	.L266:
 2215 001c 0123     		movs	r3, #1
 2216 001e 03AA     		add	r2, sp, #12
 2217 0020 1721     		movs	r1, #23
 2218 0022 3046     		mov	r0, r6
 2219 0024 FFF7FEFF 		bl	ism330dhcx_read_reg
 2220 0028 0346     		mov	r3, r0
 2221 002a 0028     		cmp	r0, #0
 2222 002c F3D1     		bne	.L262
 2223 002e 9DF80C20 		ldrb	r2, [sp, #12]	@ zero_extendqisi2
 2224 0032 0123     		movs	r3, #1
 2225 0034 63F34612 		bfi	r2, r3, #5, #2
 2226 0038 8DF80C20 		strb	r2, [sp, #12]
 2227 003c 03AA     		add	r2, sp, #12
 2228 003e 1721     		movs	r1, #23
 2229 0040 3046     		mov	r0, r6
 2230 0042 FFF7FEFF 		bl	ism330dhcx_write_reg
 2231 0046 0346     		mov	r3, r0
 2232 0048 E4E7     		b	.L263
 2233              	.L267:
 2234 004a 0123     		movs	r3, #1
ARM GAS  C:\Temp\ccOH3Pt6.s 			page 38


 2235 004c 02AA     		add	r2, sp, #8
 2236 004e 0221     		movs	r1, #2
 2237 0050 3046     		mov	r0, r6
 2238 0052 FFF7FEFF 		bl	ism330dhcx_read_reg
 2239 0056 0346     		mov	r3, r0
 2240 0058 0028     		cmp	r0, #0
 2241 005a DCD1     		bne	.L262
 2242 005c C5F30323 		ubfx	r3, r5, #8, #4
 2243 0060 9DF80820 		ldrb	r2, [sp, #8]	@ zero_extendqisi2
 2244 0064 63F30712 		bfi	r2, r3, #4, #4
 2245 0068 8DF80820 		strb	r2, [sp, #8]
 2246 006c D2B2     		uxtb	r2, r2
 2247 006e 0123     		movs	r3, #1
 2248 0070 63F30302 		bfi	r2, r3, #0, #4
 2249 0074 8DF80820 		strb	r2, [sp, #8]
 2250 0078 02AA     		add	r2, sp, #8
 2251 007a 0221     		movs	r1, #2
 2252 007c 3046     		mov	r0, r6
 2253 007e FFF7FEFF 		bl	ism330dhcx_write_reg
 2254 0082 0346     		mov	r3, r0
 2255 0084 0028     		cmp	r0, #0
 2256 0086 C6D1     		bne	.L262
 2257 0088 8DF80450 		strb	r5, [sp, #4]
 2258 008c 0123     		movs	r3, #1
 2259 008e 01AA     		add	r2, sp, #4
 2260 0090 0821     		movs	r1, #8
 2261 0092 3046     		mov	r0, r6
 2262 0094 FFF7FEFF 		bl	ism330dhcx_write_reg
 2263 0098 0346     		mov	r3, r0
 2264 009a 0028     		cmp	r0, #0
 2265 009c BBD1     		bne	.L262
 2266 009e 0223     		movs	r3, #2
 2267 00a0 2246     		mov	r2, r4
 2268 00a2 0921     		movs	r1, #9
 2269 00a4 3046     		mov	r0, r6
 2270 00a6 FFF7FEFF 		bl	ism330dhcx_read_reg
 2271 00aa 0346     		mov	r3, r0
 2272 00ac 0028     		cmp	r0, #0
 2273 00ae B2D1     		bne	.L262
 2274 00b0 0123     		movs	r3, #1
 2275 00b2 03AA     		add	r2, sp, #12
 2276 00b4 1721     		movs	r1, #23
 2277 00b6 3046     		mov	r0, r6
 2278 00b8 FFF7FEFF 		bl	ism330dhcx_read_reg
 2279 00bc 0346     		mov	r3, r0
 2280 00be 0028     		cmp	r0, #0
 2281 00c0 A9D1     		bne	.L262
 2282 00c2 9DF80C30 		ldrb	r3, [sp, #12]	@ zero_extendqisi2
 2283 00c6 6FF34613 		bfc	r3, #5, #2
 2284 00ca 8DF80C30 		strb	r3, [sp, #12]
 2285 00ce 0123     		movs	r3, #1
 2286 00d0 03AA     		add	r2, sp, #12
 2287 00d2 1721     		movs	r1, #23
 2288 00d4 3046     		mov	r0, r6
 2289 00d6 FFF7FEFF 		bl	ism330dhcx_write_reg
 2290 00da 0346     		mov	r3, r0
 2291 00dc 0028     		cmp	r0, #0
ARM GAS  C:\Temp\ccOH3Pt6.s 			page 39


 2292 00de 9AD1     		bne	.L262
 2293 00e0 0021     		movs	r1, #0
 2294 00e2 3046     		mov	r0, r6
 2295 00e4 FFF7FEFF 		bl	ism330dhcx_mem_bank_set
 2296 00e8 0346     		mov	r3, r0
 2297 00ea 94E7     		b	.L262
 2299              		.section	.text.ism330dhcx_data_ready_mode_set,"ax",%progbits
 2300              		.align	1
 2301              		.global	ism330dhcx_data_ready_mode_set
 2302              		.syntax unified
 2303              		.thumb
 2304              		.thumb_func
 2306              	ism330dhcx_data_ready_mode_set:
 2307              		@ args = 0, pretend = 0, frame = 8
 2308              		@ frame_needed = 0, uses_anonymous_args = 0
 2309 0000 30B5     		push	{r4, r5, lr}
 2310 0002 83B0     		sub	sp, sp, #12
 2311 0004 0446     		mov	r4, r0
 2312 0006 0D46     		mov	r5, r1
 2313 0008 0123     		movs	r3, #1
 2314 000a 01AA     		add	r2, sp, #4
 2315 000c 0B21     		movs	r1, #11
 2316 000e FFF7FEFF 		bl	ism330dhcx_read_reg
 2317 0012 08B1     		cbz	r0, .L271
 2318              	.L268:
 2319 0014 03B0     		add	sp, sp, #12
 2320              		@ sp needed
 2321 0016 30BD     		pop	{r4, r5, pc}
 2322              	.L271:
 2323 0018 9DF80430 		ldrb	r3, [sp, #4]	@ zero_extendqisi2
 2324 001c 65F3C713 		bfi	r3, r5, #7, #1
 2325 0020 8DF80430 		strb	r3, [sp, #4]
 2326 0024 0123     		movs	r3, #1
 2327 0026 01AA     		add	r2, sp, #4
 2328 0028 0B21     		movs	r1, #11
 2329 002a 2046     		mov	r0, r4
 2330 002c FFF7FEFF 		bl	ism330dhcx_write_reg
 2331 0030 F0E7     		b	.L268
 2333              		.section	.text.ism330dhcx_data_ready_mode_get,"ax",%progbits
 2334              		.align	1
 2335              		.global	ism330dhcx_data_ready_mode_get
 2336              		.syntax unified
 2337              		.thumb
 2338              		.thumb_func
 2340              	ism330dhcx_data_ready_mode_get:
 2341              		@ args = 0, pretend = 0, frame = 8
 2342              		@ frame_needed = 0, uses_anonymous_args = 0
 2343 0000 10B5     		push	{r4, lr}
 2344 0002 82B0     		sub	sp, sp, #8
 2345 0004 0C46     		mov	r4, r1
 2346 0006 0123     		movs	r3, #1
 2347 0008 01AA     		add	r2, sp, #4
 2348 000a 0B21     		movs	r1, #11
 2349 000c FFF7FEFF 		bl	ism330dhcx_read_reg
 2350 0010 9DF80430 		ldrb	r3, [sp, #4]	@ zero_extendqisi2
 2351 0014 DB09     		lsrs	r3, r3, #7
 2352 0016 03D0     		beq	.L273
ARM GAS  C:\Temp\ccOH3Pt6.s 			page 40


 2353 0018 33B9     		cbnz	r3, .L274
 2354 001a 0023     		movs	r3, #0
 2355 001c 2370     		strb	r3, [r4]
 2356 001e 01E0     		b	.L272
 2357              	.L273:
 2358 0020 0023     		movs	r3, #0
 2359 0022 2370     		strb	r3, [r4]
 2360              	.L272:
 2361 0024 02B0     		add	sp, sp, #8
 2362              		@ sp needed
 2363 0026 10BD     		pop	{r4, pc}
 2364              	.L274:
 2365 0028 0123     		movs	r3, #1
 2366 002a 2370     		strb	r3, [r4]
 2367 002c FAE7     		b	.L272
 2369              		.section	.text.ism330dhcx_device_id_get,"ax",%progbits
 2370              		.align	1
 2371              		.global	ism330dhcx_device_id_get
 2372              		.syntax unified
 2373              		.thumb
 2374              		.thumb_func
 2376              	ism330dhcx_device_id_get:
 2377              		@ args = 0, pretend = 0, frame = 0
 2378              		@ frame_needed = 0, uses_anonymous_args = 0
 2379 0000 08B5     		push	{r3, lr}
 2380 0002 0A46     		mov	r2, r1
 2381 0004 0123     		movs	r3, #1
 2382 0006 0F21     		movs	r1, #15
 2383 0008 FFF7FEFF 		bl	ism330dhcx_read_reg
 2384 000c 08BD     		pop	{r3, pc}
 2386              		.section	.text.ism330dhcx_reset_set,"ax",%progbits
 2387              		.align	1
 2388              		.global	ism330dhcx_reset_set
 2389              		.syntax unified
 2390              		.thumb
 2391              		.thumb_func
 2393              	ism330dhcx_reset_set:
 2394              		@ args = 0, pretend = 0, frame = 8
 2395              		@ frame_needed = 0, uses_anonymous_args = 0
 2396 0000 30B5     		push	{r4, r5, lr}
 2397 0002 83B0     		sub	sp, sp, #12
 2398 0004 0446     		mov	r4, r0
 2399 0006 0D46     		mov	r5, r1
 2400 0008 0123     		movs	r3, #1
 2401 000a 01AA     		add	r2, sp, #4
 2402 000c 1221     		movs	r1, #18
 2403 000e FFF7FEFF 		bl	ism330dhcx_read_reg
 2404 0012 08B1     		cbz	r0, .L284
 2405              	.L281:
 2406 0014 03B0     		add	sp, sp, #12
 2407              		@ sp needed
 2408 0016 30BD     		pop	{r4, r5, pc}
 2409              	.L284:
 2410 0018 9DF80430 		ldrb	r3, [sp, #4]	@ zero_extendqisi2
 2411 001c 65F30003 		bfi	r3, r5, #0, #1
 2412 0020 8DF80430 		strb	r3, [sp, #4]
 2413 0024 0123     		movs	r3, #1
ARM GAS  C:\Temp\ccOH3Pt6.s 			page 41


 2414 0026 01AA     		add	r2, sp, #4
 2415 0028 1221     		movs	r1, #18
 2416 002a 2046     		mov	r0, r4
 2417 002c FFF7FEFF 		bl	ism330dhcx_write_reg
 2418 0030 F0E7     		b	.L281
 2420              		.section	.text.ism330dhcx_reset_get,"ax",%progbits
 2421              		.align	1
 2422              		.global	ism330dhcx_reset_get
 2423              		.syntax unified
 2424              		.thumb
 2425              		.thumb_func
 2427              	ism330dhcx_reset_get:
 2428              		@ args = 0, pretend = 0, frame = 8
 2429              		@ frame_needed = 0, uses_anonymous_args = 0
 2430 0000 10B5     		push	{r4, lr}
 2431 0002 82B0     		sub	sp, sp, #8
 2432 0004 0C46     		mov	r4, r1
 2433 0006 0123     		movs	r3, #1
 2434 0008 01AA     		add	r2, sp, #4
 2435 000a 1221     		movs	r1, #18
 2436 000c FFF7FEFF 		bl	ism330dhcx_read_reg
 2437 0010 9DF80430 		ldrb	r3, [sp, #4]	@ zero_extendqisi2
 2438 0014 C3F30003 		ubfx	r3, r3, #0, #1
 2439 0018 2370     		strb	r3, [r4]
 2440 001a 02B0     		add	sp, sp, #8
 2441              		@ sp needed
 2442 001c 10BD     		pop	{r4, pc}
 2444              		.section	.text.ism330dhcx_auto_increment_set,"ax",%progbits
 2445              		.align	1
 2446              		.global	ism330dhcx_auto_increment_set
 2447              		.syntax unified
 2448              		.thumb
 2449              		.thumb_func
 2451              	ism330dhcx_auto_increment_set:
 2452              		@ args = 0, pretend = 0, frame = 8
 2453              		@ frame_needed = 0, uses_anonymous_args = 0
 2454 0000 30B5     		push	{r4, r5, lr}
 2455 0002 83B0     		sub	sp, sp, #12
 2456 0004 0446     		mov	r4, r0
 2457 0006 0D46     		mov	r5, r1
 2458 0008 0123     		movs	r3, #1
 2459 000a 01AA     		add	r2, sp, #4
 2460 000c 1221     		movs	r1, #18
 2461 000e FFF7FEFF 		bl	ism330dhcx_read_reg
 2462 0012 08B1     		cbz	r0, .L290
 2463              	.L287:
 2464 0014 03B0     		add	sp, sp, #12
 2465              		@ sp needed
 2466 0016 30BD     		pop	{r4, r5, pc}
 2467              	.L290:
 2468 0018 9DF80430 		ldrb	r3, [sp, #4]	@ zero_extendqisi2
 2469 001c 65F38203 		bfi	r3, r5, #2, #1
 2470 0020 8DF80430 		strb	r3, [sp, #4]
 2471 0024 0123     		movs	r3, #1
 2472 0026 01AA     		add	r2, sp, #4
 2473 0028 1221     		movs	r1, #18
 2474 002a 2046     		mov	r0, r4
ARM GAS  C:\Temp\ccOH3Pt6.s 			page 42


 2475 002c FFF7FEFF 		bl	ism330dhcx_write_reg
 2476 0030 F0E7     		b	.L287
 2478              		.section	.text.ism330dhcx_auto_increment_get,"ax",%progbits
 2479              		.align	1
 2480              		.global	ism330dhcx_auto_increment_get
 2481              		.syntax unified
 2482              		.thumb
 2483              		.thumb_func
 2485              	ism330dhcx_auto_increment_get:
 2486              		@ args = 0, pretend = 0, frame = 8
 2487              		@ frame_needed = 0, uses_anonymous_args = 0
 2488 0000 10B5     		push	{r4, lr}
 2489 0002 82B0     		sub	sp, sp, #8
 2490 0004 0C46     		mov	r4, r1
 2491 0006 0123     		movs	r3, #1
 2492 0008 01AA     		add	r2, sp, #4
 2493 000a 1221     		movs	r1, #18
 2494 000c FFF7FEFF 		bl	ism330dhcx_read_reg
 2495 0010 9DF80430 		ldrb	r3, [sp, #4]	@ zero_extendqisi2
 2496 0014 C3F38003 		ubfx	r3, r3, #2, #1
 2497 0018 2370     		strb	r3, [r4]
 2498 001a 02B0     		add	sp, sp, #8
 2499              		@ sp needed
 2500 001c 10BD     		pop	{r4, pc}
 2502              		.section	.text.ism330dhcx_boot_set,"ax",%progbits
 2503              		.align	1
 2504              		.global	ism330dhcx_boot_set
 2505              		.syntax unified
 2506              		.thumb
 2507              		.thumb_func
 2509              	ism330dhcx_boot_set:
 2510              		@ args = 0, pretend = 0, frame = 8
 2511              		@ frame_needed = 0, uses_anonymous_args = 0
 2512 0000 30B5     		push	{r4, r5, lr}
 2513 0002 83B0     		sub	sp, sp, #12
 2514 0004 0446     		mov	r4, r0
 2515 0006 0D46     		mov	r5, r1
 2516 0008 0123     		movs	r3, #1
 2517 000a 01AA     		add	r2, sp, #4
 2518 000c 1221     		movs	r1, #18
 2519 000e FFF7FEFF 		bl	ism330dhcx_read_reg
 2520 0012 08B1     		cbz	r0, .L296
 2521              	.L293:
 2522 0014 03B0     		add	sp, sp, #12
 2523              		@ sp needed
 2524 0016 30BD     		pop	{r4, r5, pc}
 2525              	.L296:
 2526 0018 9DF80430 		ldrb	r3, [sp, #4]	@ zero_extendqisi2
 2527 001c 65F3C713 		bfi	r3, r5, #7, #1
 2528 0020 8DF80430 		strb	r3, [sp, #4]
 2529 0024 0123     		movs	r3, #1
 2530 0026 01AA     		add	r2, sp, #4
 2531 0028 1221     		movs	r1, #18
 2532 002a 2046     		mov	r0, r4
 2533 002c FFF7FEFF 		bl	ism330dhcx_write_reg
 2534 0030 F0E7     		b	.L293
 2536              		.section	.text.ism330dhcx_boot_get,"ax",%progbits
ARM GAS  C:\Temp\ccOH3Pt6.s 			page 43


 2537              		.align	1
 2538              		.global	ism330dhcx_boot_get
 2539              		.syntax unified
 2540              		.thumb
 2541              		.thumb_func
 2543              	ism330dhcx_boot_get:
 2544              		@ args = 0, pretend = 0, frame = 8
 2545              		@ frame_needed = 0, uses_anonymous_args = 0
 2546 0000 10B5     		push	{r4, lr}
 2547 0002 82B0     		sub	sp, sp, #8
 2548 0004 0C46     		mov	r4, r1
 2549 0006 0123     		movs	r3, #1
 2550 0008 01AA     		add	r2, sp, #4
 2551 000a 1221     		movs	r1, #18
 2552 000c FFF7FEFF 		bl	ism330dhcx_read_reg
 2553 0010 9DF80430 		ldrb	r3, [sp, #4]	@ zero_extendqisi2
 2554 0014 C3F3C013 		ubfx	r3, r3, #7, #1
 2555 0018 2370     		strb	r3, [r4]
 2556 001a 02B0     		add	sp, sp, #8
 2557              		@ sp needed
 2558 001c 10BD     		pop	{r4, pc}
 2560              		.section	.text.ism330dhcx_xl_self_test_set,"ax",%progbits
 2561              		.align	1
 2562              		.global	ism330dhcx_xl_self_test_set
 2563              		.syntax unified
 2564              		.thumb
 2565              		.thumb_func
 2567              	ism330dhcx_xl_self_test_set:
 2568              		@ args = 0, pretend = 0, frame = 8
 2569              		@ frame_needed = 0, uses_anonymous_args = 0
 2570 0000 30B5     		push	{r4, r5, lr}
 2571 0002 83B0     		sub	sp, sp, #12
 2572 0004 0446     		mov	r4, r0
 2573 0006 0D46     		mov	r5, r1
 2574 0008 0123     		movs	r3, #1
 2575 000a 01AA     		add	r2, sp, #4
 2576 000c 1421     		movs	r1, #20
 2577 000e FFF7FEFF 		bl	ism330dhcx_read_reg
 2578 0012 08B1     		cbz	r0, .L302
 2579              	.L299:
 2580 0014 03B0     		add	sp, sp, #12
 2581              		@ sp needed
 2582 0016 30BD     		pop	{r4, r5, pc}
 2583              	.L302:
 2584 0018 9DF80430 		ldrb	r3, [sp, #4]	@ zero_extendqisi2
 2585 001c 65F30103 		bfi	r3, r5, #0, #2
 2586 0020 8DF80430 		strb	r3, [sp, #4]
 2587 0024 0123     		movs	r3, #1
 2588 0026 01AA     		add	r2, sp, #4
 2589 0028 1421     		movs	r1, #20
 2590 002a 2046     		mov	r0, r4
 2591 002c FFF7FEFF 		bl	ism330dhcx_write_reg
 2592 0030 F0E7     		b	.L299
 2594              		.section	.text.ism330dhcx_xl_self_test_get,"ax",%progbits
 2595              		.align	1
 2596              		.global	ism330dhcx_xl_self_test_get
 2597              		.syntax unified
ARM GAS  C:\Temp\ccOH3Pt6.s 			page 44


 2598              		.thumb
 2599              		.thumb_func
 2601              	ism330dhcx_xl_self_test_get:
 2602              		@ args = 0, pretend = 0, frame = 8
 2603              		@ frame_needed = 0, uses_anonymous_args = 0
 2604 0000 10B5     		push	{r4, lr}
 2605 0002 82B0     		sub	sp, sp, #8
 2606 0004 0C46     		mov	r4, r1
 2607 0006 0123     		movs	r3, #1
 2608 0008 01AA     		add	r2, sp, #4
 2609 000a 1421     		movs	r1, #20
 2610 000c FFF7FEFF 		bl	ism330dhcx_read_reg
 2611 0010 9DF80430 		ldrb	r3, [sp, #4]	@ zero_extendqisi2
 2612 0014 03F00303 		and	r3, r3, #3
 2613 0018 012B     		cmp	r3, #1
 2614 001a 08D0     		beq	.L304
 2615 001c 022B     		cmp	r3, #2
 2616 001e 09D0     		beq	.L305
 2617 0020 13B1     		cbz	r3, .L309
 2618 0022 0023     		movs	r3, #0
 2619 0024 2370     		strb	r3, [r4]
 2620 0026 00E0     		b	.L303
 2621              	.L309:
 2622 0028 2370     		strb	r3, [r4]
 2623              	.L303:
 2624 002a 02B0     		add	sp, sp, #8
 2625              		@ sp needed
 2626 002c 10BD     		pop	{r4, pc}
 2627              	.L304:
 2628 002e 0123     		movs	r3, #1
 2629 0030 2370     		strb	r3, [r4]
 2630 0032 FAE7     		b	.L303
 2631              	.L305:
 2632 0034 0223     		movs	r3, #2
 2633 0036 2370     		strb	r3, [r4]
 2634 0038 F7E7     		b	.L303
 2636              		.section	.text.ism330dhcx_gy_self_test_set,"ax",%progbits
 2637              		.align	1
 2638              		.global	ism330dhcx_gy_self_test_set
 2639              		.syntax unified
 2640              		.thumb
 2641              		.thumb_func
 2643              	ism330dhcx_gy_self_test_set:
 2644              		@ args = 0, pretend = 0, frame = 8
 2645              		@ frame_needed = 0, uses_anonymous_args = 0
 2646 0000 30B5     		push	{r4, r5, lr}
 2647 0002 83B0     		sub	sp, sp, #12
 2648 0004 0446     		mov	r4, r0
 2649 0006 0D46     		mov	r5, r1
 2650 0008 0123     		movs	r3, #1
 2651 000a 01AA     		add	r2, sp, #4
 2652 000c 1421     		movs	r1, #20
 2653 000e FFF7FEFF 		bl	ism330dhcx_read_reg
 2654 0012 08B1     		cbz	r0, .L313
 2655              	.L310:
 2656 0014 03B0     		add	sp, sp, #12
 2657              		@ sp needed
ARM GAS  C:\Temp\ccOH3Pt6.s 			page 45


 2658 0016 30BD     		pop	{r4, r5, pc}
 2659              	.L313:
 2660 0018 9DF80430 		ldrb	r3, [sp, #4]	@ zero_extendqisi2
 2661 001c 65F38303 		bfi	r3, r5, #2, #2
 2662 0020 8DF80430 		strb	r3, [sp, #4]
 2663 0024 0123     		movs	r3, #1
 2664 0026 01AA     		add	r2, sp, #4
 2665 0028 1421     		movs	r1, #20
 2666 002a 2046     		mov	r0, r4
 2667 002c FFF7FEFF 		bl	ism330dhcx_write_reg
 2668 0030 F0E7     		b	.L310
 2670              		.section	.text.ism330dhcx_gy_self_test_get,"ax",%progbits
 2671              		.align	1
 2672              		.global	ism330dhcx_gy_self_test_get
 2673              		.syntax unified
 2674              		.thumb
 2675              		.thumb_func
 2677              	ism330dhcx_gy_self_test_get:
 2678              		@ args = 0, pretend = 0, frame = 8
 2679              		@ frame_needed = 0, uses_anonymous_args = 0
 2680 0000 10B5     		push	{r4, lr}
 2681 0002 82B0     		sub	sp, sp, #8
 2682 0004 0C46     		mov	r4, r1
 2683 0006 0123     		movs	r3, #1
 2684 0008 01AA     		add	r2, sp, #4
 2685 000a 1421     		movs	r1, #20
 2686 000c FFF7FEFF 		bl	ism330dhcx_read_reg
 2687 0010 9DF80430 		ldrb	r3, [sp, #4]	@ zero_extendqisi2
 2688 0014 C3F38103 		ubfx	r3, r3, #2, #2
 2689 0018 012B     		cmp	r3, #1
 2690 001a 08D0     		beq	.L315
 2691 001c 032B     		cmp	r3, #3
 2692 001e 09D0     		beq	.L316
 2693 0020 13B1     		cbz	r3, .L320
 2694 0022 0023     		movs	r3, #0
 2695 0024 2370     		strb	r3, [r4]
 2696 0026 00E0     		b	.L314
 2697              	.L320:
 2698 0028 2370     		strb	r3, [r4]
 2699              	.L314:
 2700 002a 02B0     		add	sp, sp, #8
 2701              		@ sp needed
 2702 002c 10BD     		pop	{r4, pc}
 2703              	.L315:
 2704 002e 0123     		movs	r3, #1
 2705 0030 2370     		strb	r3, [r4]
 2706 0032 FAE7     		b	.L314
 2707              	.L316:
 2708 0034 0323     		movs	r3, #3
 2709 0036 2370     		strb	r3, [r4]
 2710 0038 F7E7     		b	.L314
 2712              		.section	.text.ism330dhcx_xl_filter_lp2_set,"ax",%progbits
 2713              		.align	1
 2714              		.global	ism330dhcx_xl_filter_lp2_set
 2715              		.syntax unified
 2716              		.thumb
 2717              		.thumb_func
ARM GAS  C:\Temp\ccOH3Pt6.s 			page 46


 2719              	ism330dhcx_xl_filter_lp2_set:
 2720              		@ args = 0, pretend = 0, frame = 8
 2721              		@ frame_needed = 0, uses_anonymous_args = 0
 2722 0000 30B5     		push	{r4, r5, lr}
 2723 0002 83B0     		sub	sp, sp, #12
 2724 0004 0446     		mov	r4, r0
 2725 0006 0D46     		mov	r5, r1
 2726 0008 0123     		movs	r3, #1
 2727 000a 01AA     		add	r2, sp, #4
 2728 000c 1021     		movs	r1, #16
 2729 000e FFF7FEFF 		bl	ism330dhcx_read_reg
 2730 0012 08B1     		cbz	r0, .L324
 2731              	.L321:
 2732 0014 03B0     		add	sp, sp, #12
 2733              		@ sp needed
 2734 0016 30BD     		pop	{r4, r5, pc}
 2735              	.L324:
 2736 0018 9DF80430 		ldrb	r3, [sp, #4]	@ zero_extendqisi2
 2737 001c 65F34103 		bfi	r3, r5, #1, #1
 2738 0020 8DF80430 		strb	r3, [sp, #4]
 2739 0024 0123     		movs	r3, #1
 2740 0026 01AA     		add	r2, sp, #4
 2741 0028 1021     		movs	r1, #16
 2742 002a 2046     		mov	r0, r4
 2743 002c FFF7FEFF 		bl	ism330dhcx_write_reg
 2744 0030 F0E7     		b	.L321
 2746              		.section	.text.ism330dhcx_xl_filter_lp2_get,"ax",%progbits
 2747              		.align	1
 2748              		.global	ism330dhcx_xl_filter_lp2_get
 2749              		.syntax unified
 2750              		.thumb
 2751              		.thumb_func
 2753              	ism330dhcx_xl_filter_lp2_get:
 2754              		@ args = 0, pretend = 0, frame = 8
 2755              		@ frame_needed = 0, uses_anonymous_args = 0
 2756 0000 10B5     		push	{r4, lr}
 2757 0002 82B0     		sub	sp, sp, #8
 2758 0004 0C46     		mov	r4, r1
 2759 0006 0123     		movs	r3, #1
 2760 0008 01AA     		add	r2, sp, #4
 2761 000a 1021     		movs	r1, #16
 2762 000c FFF7FEFF 		bl	ism330dhcx_read_reg
 2763 0010 9DF80430 		ldrb	r3, [sp, #4]	@ zero_extendqisi2
 2764 0014 C3F34003 		ubfx	r3, r3, #1, #1
 2765 0018 2370     		strb	r3, [r4]
 2766 001a 02B0     		add	sp, sp, #8
 2767              		@ sp needed
 2768 001c 10BD     		pop	{r4, pc}
 2770              		.section	.text.ism330dhcx_gy_filter_lp1_set,"ax",%progbits
 2771              		.align	1
 2772              		.global	ism330dhcx_gy_filter_lp1_set
 2773              		.syntax unified
 2774              		.thumb
 2775              		.thumb_func
 2777              	ism330dhcx_gy_filter_lp1_set:
 2778              		@ args = 0, pretend = 0, frame = 8
 2779              		@ frame_needed = 0, uses_anonymous_args = 0
ARM GAS  C:\Temp\ccOH3Pt6.s 			page 47


 2780 0000 30B5     		push	{r4, r5, lr}
 2781 0002 83B0     		sub	sp, sp, #12
 2782 0004 0446     		mov	r4, r0
 2783 0006 0D46     		mov	r5, r1
 2784 0008 0123     		movs	r3, #1
 2785 000a 01AA     		add	r2, sp, #4
 2786 000c 1321     		movs	r1, #19
 2787 000e FFF7FEFF 		bl	ism330dhcx_read_reg
 2788 0012 08B1     		cbz	r0, .L330
 2789              	.L327:
 2790 0014 03B0     		add	sp, sp, #12
 2791              		@ sp needed
 2792 0016 30BD     		pop	{r4, r5, pc}
 2793              	.L330:
 2794 0018 9DF80430 		ldrb	r3, [sp, #4]	@ zero_extendqisi2
 2795 001c 65F34103 		bfi	r3, r5, #1, #1
 2796 0020 8DF80430 		strb	r3, [sp, #4]
 2797 0024 0123     		movs	r3, #1
 2798 0026 01AA     		add	r2, sp, #4
 2799 0028 1321     		movs	r1, #19
 2800 002a 2046     		mov	r0, r4
 2801 002c FFF7FEFF 		bl	ism330dhcx_write_reg
 2802 0030 F0E7     		b	.L327
 2804              		.section	.text.ism330dhcx_gy_filter_lp1_get,"ax",%progbits
 2805              		.align	1
 2806              		.global	ism330dhcx_gy_filter_lp1_get
 2807              		.syntax unified
 2808              		.thumb
 2809              		.thumb_func
 2811              	ism330dhcx_gy_filter_lp1_get:
 2812              		@ args = 0, pretend = 0, frame = 8
 2813              		@ frame_needed = 0, uses_anonymous_args = 0
 2814 0000 10B5     		push	{r4, lr}
 2815 0002 82B0     		sub	sp, sp, #8
 2816 0004 0C46     		mov	r4, r1
 2817 0006 0123     		movs	r3, #1
 2818 0008 01AA     		add	r2, sp, #4
 2819 000a 1321     		movs	r1, #19
 2820 000c FFF7FEFF 		bl	ism330dhcx_read_reg
 2821 0010 9DF80430 		ldrb	r3, [sp, #4]	@ zero_extendqisi2
 2822 0014 C3F34003 		ubfx	r3, r3, #1, #1
 2823 0018 2370     		strb	r3, [r4]
 2824 001a 02B0     		add	sp, sp, #8
 2825              		@ sp needed
 2826 001c 10BD     		pop	{r4, pc}
 2828              		.section	.text.ism330dhcx_filter_settling_mask_set,"ax",%progbits
 2829              		.align	1
 2830              		.global	ism330dhcx_filter_settling_mask_set
 2831              		.syntax unified
 2832              		.thumb
 2833              		.thumb_func
 2835              	ism330dhcx_filter_settling_mask_set:
 2836              		@ args = 0, pretend = 0, frame = 8
 2837              		@ frame_needed = 0, uses_anonymous_args = 0
 2838 0000 30B5     		push	{r4, r5, lr}
 2839 0002 83B0     		sub	sp, sp, #12
 2840 0004 0446     		mov	r4, r0
ARM GAS  C:\Temp\ccOH3Pt6.s 			page 48


 2841 0006 0D46     		mov	r5, r1
 2842 0008 0123     		movs	r3, #1
 2843 000a 01AA     		add	r2, sp, #4
 2844 000c 1321     		movs	r1, #19
 2845 000e FFF7FEFF 		bl	ism330dhcx_read_reg
 2846 0012 08B1     		cbz	r0, .L336
 2847              	.L333:
 2848 0014 03B0     		add	sp, sp, #12
 2849              		@ sp needed
 2850 0016 30BD     		pop	{r4, r5, pc}
 2851              	.L336:
 2852 0018 9DF80430 		ldrb	r3, [sp, #4]	@ zero_extendqisi2
 2853 001c 65F3C303 		bfi	r3, r5, #3, #1
 2854 0020 8DF80430 		strb	r3, [sp, #4]
 2855 0024 0123     		movs	r3, #1
 2856 0026 01AA     		add	r2, sp, #4
 2857 0028 1321     		movs	r1, #19
 2858 002a 2046     		mov	r0, r4
 2859 002c FFF7FEFF 		bl	ism330dhcx_write_reg
 2860 0030 F0E7     		b	.L333
 2862              		.section	.text.ism330dhcx_filter_settling_mask_get,"ax",%progbits
 2863              		.align	1
 2864              		.global	ism330dhcx_filter_settling_mask_get
 2865              		.syntax unified
 2866              		.thumb
 2867              		.thumb_func
 2869              	ism330dhcx_filter_settling_mask_get:
 2870              		@ args = 0, pretend = 0, frame = 8
 2871              		@ frame_needed = 0, uses_anonymous_args = 0
 2872 0000 10B5     		push	{r4, lr}
 2873 0002 82B0     		sub	sp, sp, #8
 2874 0004 0C46     		mov	r4, r1
 2875 0006 0123     		movs	r3, #1
 2876 0008 01AA     		add	r2, sp, #4
 2877 000a 1321     		movs	r1, #19
 2878 000c FFF7FEFF 		bl	ism330dhcx_read_reg
 2879 0010 9DF80430 		ldrb	r3, [sp, #4]	@ zero_extendqisi2
 2880 0014 C3F3C003 		ubfx	r3, r3, #3, #1
 2881 0018 2370     		strb	r3, [r4]
 2882 001a 02B0     		add	sp, sp, #8
 2883              		@ sp needed
 2884 001c 10BD     		pop	{r4, pc}
 2886              		.section	.text.ism330dhcx_gy_lp1_bandwidth_set,"ax",%progbits
 2887              		.align	1
 2888              		.global	ism330dhcx_gy_lp1_bandwidth_set
 2889              		.syntax unified
 2890              		.thumb
 2891              		.thumb_func
 2893              	ism330dhcx_gy_lp1_bandwidth_set:
 2894              		@ args = 0, pretend = 0, frame = 8
 2895              		@ frame_needed = 0, uses_anonymous_args = 0
 2896 0000 30B5     		push	{r4, r5, lr}
 2897 0002 83B0     		sub	sp, sp, #12
 2898 0004 0446     		mov	r4, r0
 2899 0006 0D46     		mov	r5, r1
 2900 0008 0123     		movs	r3, #1
 2901 000a 01AA     		add	r2, sp, #4
ARM GAS  C:\Temp\ccOH3Pt6.s 			page 49


 2902 000c 1521     		movs	r1, #21
 2903 000e FFF7FEFF 		bl	ism330dhcx_read_reg
 2904 0012 08B1     		cbz	r0, .L342
 2905              	.L339:
 2906 0014 03B0     		add	sp, sp, #12
 2907              		@ sp needed
 2908 0016 30BD     		pop	{r4, r5, pc}
 2909              	.L342:
 2910 0018 9DF80430 		ldrb	r3, [sp, #4]	@ zero_extendqisi2
 2911 001c 65F30203 		bfi	r3, r5, #0, #3
 2912 0020 8DF80430 		strb	r3, [sp, #4]
 2913 0024 0123     		movs	r3, #1
 2914 0026 01AA     		add	r2, sp, #4
 2915 0028 1521     		movs	r1, #21
 2916 002a 2046     		mov	r0, r4
 2917 002c FFF7FEFF 		bl	ism330dhcx_write_reg
 2918 0030 F0E7     		b	.L339
 2920              		.section	.text.ism330dhcx_gy_lp1_bandwidth_get,"ax",%progbits
 2921              		.align	1
 2922              		.global	ism330dhcx_gy_lp1_bandwidth_get
 2923              		.syntax unified
 2924              		.thumb
 2925              		.thumb_func
 2927              	ism330dhcx_gy_lp1_bandwidth_get:
 2928              		@ args = 0, pretend = 0, frame = 8
 2929              		@ frame_needed = 0, uses_anonymous_args = 0
 2930 0000 10B5     		push	{r4, lr}
 2931 0002 82B0     		sub	sp, sp, #8
 2932 0004 0C46     		mov	r4, r1
 2933 0006 0123     		movs	r3, #1
 2934 0008 01AA     		add	r2, sp, #4
 2935 000a 1521     		movs	r1, #21
 2936 000c FFF7FEFF 		bl	ism330dhcx_read_reg
 2937 0010 9DF80430 		ldrb	r3, [sp, #4]	@ zero_extendqisi2
 2938 0014 03F00703 		and	r3, r3, #7
 2939 0018 072B     		cmp	r3, #7
 2940 001a 1ED8     		bhi	.L344
 2941 001c DFE803F0 		tbb	[pc, r3]
 2942              	.L346:
 2943 0020 04       		.byte	(.L353-.L346)/2
 2944 0021 08       		.byte	(.L352-.L346)/2
 2945 0022 0B       		.byte	(.L351-.L346)/2
 2946 0023 0E       		.byte	(.L350-.L346)/2
 2947 0024 11       		.byte	(.L349-.L346)/2
 2948 0025 14       		.byte	(.L348-.L346)/2
 2949 0026 17       		.byte	(.L347-.L346)/2
 2950 0027 1A       		.byte	(.L345-.L346)/2
 2951              		.p2align 1
 2952              	.L353:
 2953 0028 0023     		movs	r3, #0
 2954 002a 2370     		strb	r3, [r4]
 2955              	.L343:
 2956 002c 02B0     		add	sp, sp, #8
 2957              		@ sp needed
 2958 002e 10BD     		pop	{r4, pc}
 2959              	.L352:
 2960 0030 0123     		movs	r3, #1
ARM GAS  C:\Temp\ccOH3Pt6.s 			page 50


 2961 0032 2370     		strb	r3, [r4]
 2962 0034 FAE7     		b	.L343
 2963              	.L351:
 2964 0036 0223     		movs	r3, #2
 2965 0038 2370     		strb	r3, [r4]
 2966 003a F7E7     		b	.L343
 2967              	.L350:
 2968 003c 0323     		movs	r3, #3
 2969 003e 2370     		strb	r3, [r4]
 2970 0040 F4E7     		b	.L343
 2971              	.L349:
 2972 0042 0423     		movs	r3, #4
 2973 0044 2370     		strb	r3, [r4]
 2974 0046 F1E7     		b	.L343
 2975              	.L348:
 2976 0048 0523     		movs	r3, #5
 2977 004a 2370     		strb	r3, [r4]
 2978 004c EEE7     		b	.L343
 2979              	.L347:
 2980 004e 0623     		movs	r3, #6
 2981 0050 2370     		strb	r3, [r4]
 2982 0052 EBE7     		b	.L343
 2983              	.L345:
 2984 0054 0723     		movs	r3, #7
 2985 0056 2370     		strb	r3, [r4]
 2986 0058 E8E7     		b	.L343
 2987              	.L344:
 2988 005a 0023     		movs	r3, #0
 2989 005c 2370     		strb	r3, [r4]
 2990 005e E5E7     		b	.L343
 2992              		.section	.text.ism330dhcx_xl_lp2_on_6d_set,"ax",%progbits
 2993              		.align	1
 2994              		.global	ism330dhcx_xl_lp2_on_6d_set
 2995              		.syntax unified
 2996              		.thumb
 2997              		.thumb_func
 2999              	ism330dhcx_xl_lp2_on_6d_set:
 3000              		@ args = 0, pretend = 0, frame = 8
 3001              		@ frame_needed = 0, uses_anonymous_args = 0
 3002 0000 30B5     		push	{r4, r5, lr}
 3003 0002 83B0     		sub	sp, sp, #12
 3004 0004 0446     		mov	r4, r0
 3005 0006 0D46     		mov	r5, r1
 3006 0008 0123     		movs	r3, #1
 3007 000a 01AA     		add	r2, sp, #4
 3008 000c 1721     		movs	r1, #23
 3009 000e FFF7FEFF 		bl	ism330dhcx_read_reg
 3010 0012 08B1     		cbz	r0, .L359
 3011              	.L356:
 3012 0014 03B0     		add	sp, sp, #12
 3013              		@ sp needed
 3014 0016 30BD     		pop	{r4, r5, pc}
 3015              	.L359:
 3016 0018 9DF80430 		ldrb	r3, [sp, #4]	@ zero_extendqisi2
 3017 001c 65F30003 		bfi	r3, r5, #0, #1
 3018 0020 8DF80430 		strb	r3, [sp, #4]
 3019 0024 0123     		movs	r3, #1
ARM GAS  C:\Temp\ccOH3Pt6.s 			page 51


 3020 0026 01AA     		add	r2, sp, #4
 3021 0028 1721     		movs	r1, #23
 3022 002a 2046     		mov	r0, r4
 3023 002c FFF7FEFF 		bl	ism330dhcx_write_reg
 3024 0030 F0E7     		b	.L356
 3026              		.section	.text.ism330dhcx_xl_lp2_on_6d_get,"ax",%progbits
 3027              		.align	1
 3028              		.global	ism330dhcx_xl_lp2_on_6d_get
 3029              		.syntax unified
 3030              		.thumb
 3031              		.thumb_func
 3033              	ism330dhcx_xl_lp2_on_6d_get:
 3034              		@ args = 0, pretend = 0, frame = 8
 3035              		@ frame_needed = 0, uses_anonymous_args = 0
 3036 0000 10B5     		push	{r4, lr}
 3037 0002 82B0     		sub	sp, sp, #8
 3038 0004 0C46     		mov	r4, r1
 3039 0006 0123     		movs	r3, #1
 3040 0008 01AA     		add	r2, sp, #4
 3041 000a 1721     		movs	r1, #23
 3042 000c FFF7FEFF 		bl	ism330dhcx_read_reg
 3043 0010 9DF80430 		ldrb	r3, [sp, #4]	@ zero_extendqisi2
 3044 0014 C3F30003 		ubfx	r3, r3, #0, #1
 3045 0018 2370     		strb	r3, [r4]
 3046 001a 02B0     		add	sp, sp, #8
 3047              		@ sp needed
 3048 001c 10BD     		pop	{r4, pc}
 3050              		.section	.text.ism330dhcx_xl_hp_path_on_out_set,"ax",%progbits
 3051              		.align	1
 3052              		.global	ism330dhcx_xl_hp_path_on_out_set
 3053              		.syntax unified
 3054              		.thumb
 3055              		.thumb_func
 3057              	ism330dhcx_xl_hp_path_on_out_set:
 3058              		@ args = 0, pretend = 0, frame = 8
 3059              		@ frame_needed = 0, uses_anonymous_args = 0
 3060 0000 30B5     		push	{r4, r5, lr}
 3061 0002 83B0     		sub	sp, sp, #12
 3062 0004 0546     		mov	r5, r0
 3063 0006 0C46     		mov	r4, r1
 3064 0008 0123     		movs	r3, #1
 3065 000a 01AA     		add	r2, sp, #4
 3066 000c 1721     		movs	r1, #23
 3067 000e FFF7FEFF 		bl	ism330dhcx_read_reg
 3068 0012 08B1     		cbz	r0, .L365
 3069              	.L362:
 3070 0014 03B0     		add	sp, sp, #12
 3071              		@ sp needed
 3072 0016 30BD     		pop	{r4, r5, pc}
 3073              	.L365:
 3074 0018 C4F30012 		ubfx	r2, r4, #4, #1
 3075 001c 9DF80430 		ldrb	r3, [sp, #4]	@ zero_extendqisi2
 3076 0020 62F38203 		bfi	r3, r2, #2, #1
 3077 0024 8DF80430 		strb	r3, [sp, #4]
 3078 0028 C4F34012 		ubfx	r2, r4, #5, #1
 3079 002c DBB2     		uxtb	r3, r3
 3080 002e 62F30413 		bfi	r3, r2, #4, #1
ARM GAS  C:\Temp\ccOH3Pt6.s 			page 52


 3081 0032 8DF80430 		strb	r3, [sp, #4]
 3082 0036 DBB2     		uxtb	r3, r3
 3083 0038 64F34713 		bfi	r3, r4, #5, #3
 3084 003c 8DF80430 		strb	r3, [sp, #4]
 3085 0040 0123     		movs	r3, #1
 3086 0042 01AA     		add	r2, sp, #4
 3087 0044 1721     		movs	r1, #23
 3088 0046 2846     		mov	r0, r5
 3089 0048 FFF7FEFF 		bl	ism330dhcx_write_reg
 3090 004c E2E7     		b	.L362
 3092              		.section	.text.ism330dhcx_xl_hp_path_on_out_get,"ax",%progbits
 3093              		.align	1
 3094              		.global	ism330dhcx_xl_hp_path_on_out_get
 3095              		.syntax unified
 3096              		.thumb
 3097              		.thumb_func
 3099              	ism330dhcx_xl_hp_path_on_out_get:
 3100              		@ args = 0, pretend = 0, frame = 8
 3101              		@ frame_needed = 0, uses_anonymous_args = 0
 3102 0000 10B5     		push	{r4, lr}
 3103 0002 82B0     		sub	sp, sp, #8
 3104 0004 0C46     		mov	r4, r1
 3105 0006 0123     		movs	r3, #1
 3106 0008 01AA     		add	r2, sp, #4
 3107 000a 1721     		movs	r1, #23
 3108 000c FFF7FEFF 		bl	ism330dhcx_read_reg
 3109 0010 9DF80420 		ldrb	r2, [sp, #4]	@ zero_extendqisi2
 3110 0014 C2F30011 		ubfx	r1, r2, #4, #1
 3111 0018 C2F38003 		ubfx	r3, r2, #2, #1
 3112 001c 1B01     		lsls	r3, r3, #4
 3113 001e 03EB4113 		add	r3, r3, r1, lsl #5
 3114 0022 03EB5213 		add	r3, r3, r2, lsr #5
 3115 0026 372B     		cmp	r3, #55
 3116 0028 63D8     		bhi	.L367
 3117 002a DFE803F0 		tbb	[pc, r3]
 3118              	.L369:
 3119 002e 1C       		.byte	(.L391-.L369)/2
 3120 002f 4D       		.byte	(.L390-.L369)/2
 3121 0030 50       		.byte	(.L389-.L369)/2
 3122 0031 53       		.byte	(.L388-.L369)/2
 3123 0032 56       		.byte	(.L387-.L369)/2
 3124 0033 59       		.byte	(.L386-.L369)/2
 3125 0034 5C       		.byte	(.L385-.L369)/2
 3126 0035 5F       		.byte	(.L384-.L369)/2
 3127 0036 62       		.byte	(.L367-.L369)/2
 3128 0037 62       		.byte	(.L367-.L369)/2
 3129 0038 62       		.byte	(.L367-.L369)/2
 3130 0039 62       		.byte	(.L367-.L369)/2
 3131 003a 62       		.byte	(.L367-.L369)/2
 3132 003b 62       		.byte	(.L367-.L369)/2
 3133 003c 62       		.byte	(.L367-.L369)/2
 3134 003d 62       		.byte	(.L367-.L369)/2
 3135 003e 20       		.byte	(.L383-.L369)/2
 3136 003f 23       		.byte	(.L382-.L369)/2
 3137 0040 26       		.byte	(.L381-.L369)/2
 3138 0041 29       		.byte	(.L380-.L369)/2
 3139 0042 2C       		.byte	(.L379-.L369)/2
ARM GAS  C:\Temp\ccOH3Pt6.s 			page 53


 3140 0043 2F       		.byte	(.L378-.L369)/2
 3141 0044 32       		.byte	(.L377-.L369)/2
 3142 0045 35       		.byte	(.L376-.L369)/2
 3143 0046 62       		.byte	(.L367-.L369)/2
 3144 0047 62       		.byte	(.L367-.L369)/2
 3145 0048 62       		.byte	(.L367-.L369)/2
 3146 0049 62       		.byte	(.L367-.L369)/2
 3147 004a 62       		.byte	(.L367-.L369)/2
 3148 004b 62       		.byte	(.L367-.L369)/2
 3149 004c 62       		.byte	(.L367-.L369)/2
 3150 004d 62       		.byte	(.L367-.L369)/2
 3151 004e 62       		.byte	(.L367-.L369)/2
 3152 004f 62       		.byte	(.L367-.L369)/2
 3153 0050 62       		.byte	(.L367-.L369)/2
 3154 0051 62       		.byte	(.L367-.L369)/2
 3155 0052 62       		.byte	(.L367-.L369)/2
 3156 0053 62       		.byte	(.L367-.L369)/2
 3157 0054 62       		.byte	(.L367-.L369)/2
 3158 0055 62       		.byte	(.L367-.L369)/2
 3159 0056 62       		.byte	(.L367-.L369)/2
 3160 0057 62       		.byte	(.L367-.L369)/2
 3161 0058 62       		.byte	(.L367-.L369)/2
 3162 0059 62       		.byte	(.L367-.L369)/2
 3163 005a 62       		.byte	(.L367-.L369)/2
 3164 005b 62       		.byte	(.L367-.L369)/2
 3165 005c 62       		.byte	(.L367-.L369)/2
 3166 005d 62       		.byte	(.L367-.L369)/2
 3167 005e 62       		.byte	(.L367-.L369)/2
 3168 005f 38       		.byte	(.L375-.L369)/2
 3169 0060 3B       		.byte	(.L374-.L369)/2
 3170 0061 3E       		.byte	(.L373-.L369)/2
 3171 0062 41       		.byte	(.L372-.L369)/2
 3172 0063 44       		.byte	(.L371-.L369)/2
 3173 0064 47       		.byte	(.L370-.L369)/2
 3174 0065 4A       		.byte	(.L368-.L369)/2
 3175              		.p2align 1
 3176              	.L391:
 3177 0066 0023     		movs	r3, #0
 3178 0068 2370     		strb	r3, [r4]
 3179              	.L366:
 3180 006a 02B0     		add	sp, sp, #8
 3181              		@ sp needed
 3182 006c 10BD     		pop	{r4, pc}
 3183              	.L383:
 3184 006e 1023     		movs	r3, #16
 3185 0070 2370     		strb	r3, [r4]
 3186 0072 FAE7     		b	.L366
 3187              	.L382:
 3188 0074 1123     		movs	r3, #17
 3189 0076 2370     		strb	r3, [r4]
 3190 0078 F7E7     		b	.L366
 3191              	.L381:
 3192 007a 1223     		movs	r3, #18
 3193 007c 2370     		strb	r3, [r4]
 3194 007e F4E7     		b	.L366
 3195              	.L380:
 3196 0080 1323     		movs	r3, #19
ARM GAS  C:\Temp\ccOH3Pt6.s 			page 54


 3197 0082 2370     		strb	r3, [r4]
 3198 0084 F1E7     		b	.L366
 3199              	.L379:
 3200 0086 1423     		movs	r3, #20
 3201 0088 2370     		strb	r3, [r4]
 3202 008a EEE7     		b	.L366
 3203              	.L378:
 3204 008c 1523     		movs	r3, #21
 3205 008e 2370     		strb	r3, [r4]
 3206 0090 EBE7     		b	.L366
 3207              	.L377:
 3208 0092 1623     		movs	r3, #22
 3209 0094 2370     		strb	r3, [r4]
 3210 0096 E8E7     		b	.L366
 3211              	.L376:
 3212 0098 1723     		movs	r3, #23
 3213 009a 2370     		strb	r3, [r4]
 3214 009c E5E7     		b	.L366
 3215              	.L375:
 3216 009e 3123     		movs	r3, #49
 3217 00a0 2370     		strb	r3, [r4]
 3218 00a2 E2E7     		b	.L366
 3219              	.L374:
 3220 00a4 3223     		movs	r3, #50
 3221 00a6 2370     		strb	r3, [r4]
 3222 00a8 DFE7     		b	.L366
 3223              	.L373:
 3224 00aa 3323     		movs	r3, #51
 3225 00ac 2370     		strb	r3, [r4]
 3226 00ae DCE7     		b	.L366
 3227              	.L372:
 3228 00b0 3423     		movs	r3, #52
 3229 00b2 2370     		strb	r3, [r4]
 3230 00b4 D9E7     		b	.L366
 3231              	.L371:
 3232 00b6 3523     		movs	r3, #53
 3233 00b8 2370     		strb	r3, [r4]
 3234 00ba D6E7     		b	.L366
 3235              	.L370:
 3236 00bc 3623     		movs	r3, #54
 3237 00be 2370     		strb	r3, [r4]
 3238 00c0 D3E7     		b	.L366
 3239              	.L368:
 3240 00c2 3723     		movs	r3, #55
 3241 00c4 2370     		strb	r3, [r4]
 3242 00c6 D0E7     		b	.L366
 3243              	.L390:
 3244 00c8 0123     		movs	r3, #1
 3245 00ca 2370     		strb	r3, [r4]
 3246 00cc CDE7     		b	.L366
 3247              	.L389:
 3248 00ce 0223     		movs	r3, #2
 3249 00d0 2370     		strb	r3, [r4]
 3250 00d2 CAE7     		b	.L366
 3251              	.L388:
 3252 00d4 0323     		movs	r3, #3
 3253 00d6 2370     		strb	r3, [r4]
ARM GAS  C:\Temp\ccOH3Pt6.s 			page 55


 3254 00d8 C7E7     		b	.L366
 3255              	.L387:
 3256 00da 0423     		movs	r3, #4
 3257 00dc 2370     		strb	r3, [r4]
 3258 00de C4E7     		b	.L366
 3259              	.L386:
 3260 00e0 0523     		movs	r3, #5
 3261 00e2 2370     		strb	r3, [r4]
 3262 00e4 C1E7     		b	.L366
 3263              	.L385:
 3264 00e6 0623     		movs	r3, #6
 3265 00e8 2370     		strb	r3, [r4]
 3266 00ea BEE7     		b	.L366
 3267              	.L384:
 3268 00ec 0723     		movs	r3, #7
 3269 00ee 2370     		strb	r3, [r4]
 3270 00f0 BBE7     		b	.L366
 3271              	.L367:
 3272 00f2 0023     		movs	r3, #0
 3273 00f4 2370     		strb	r3, [r4]
 3274 00f6 B8E7     		b	.L366
 3276              		.section	.text.ism330dhcx_xl_fast_settling_set,"ax",%progbits
 3277              		.align	1
 3278              		.global	ism330dhcx_xl_fast_settling_set
 3279              		.syntax unified
 3280              		.thumb
 3281              		.thumb_func
 3283              	ism330dhcx_xl_fast_settling_set:
 3284              		@ args = 0, pretend = 0, frame = 8
 3285              		@ frame_needed = 0, uses_anonymous_args = 0
 3286 0000 30B5     		push	{r4, r5, lr}
 3287 0002 83B0     		sub	sp, sp, #12
 3288 0004 0446     		mov	r4, r0
 3289 0006 0D46     		mov	r5, r1
 3290 0008 0123     		movs	r3, #1
 3291 000a 01AA     		add	r2, sp, #4
 3292 000c 1721     		movs	r1, #23
 3293 000e FFF7FEFF 		bl	ism330dhcx_read_reg
 3294 0012 08B1     		cbz	r0, .L397
 3295              	.L394:
 3296 0014 03B0     		add	sp, sp, #12
 3297              		@ sp needed
 3298 0016 30BD     		pop	{r4, r5, pc}
 3299              	.L397:
 3300 0018 9DF80430 		ldrb	r3, [sp, #4]	@ zero_extendqisi2
 3301 001c 65F3C303 		bfi	r3, r5, #3, #1
 3302 0020 8DF80430 		strb	r3, [sp, #4]
 3303 0024 0123     		movs	r3, #1
 3304 0026 01AA     		add	r2, sp, #4
 3305 0028 1721     		movs	r1, #23
 3306 002a 2046     		mov	r0, r4
 3307 002c FFF7FEFF 		bl	ism330dhcx_write_reg
 3308 0030 F0E7     		b	.L394
 3310              		.section	.text.ism330dhcx_xl_fast_settling_get,"ax",%progbits
 3311              		.align	1
 3312              		.global	ism330dhcx_xl_fast_settling_get
 3313              		.syntax unified
ARM GAS  C:\Temp\ccOH3Pt6.s 			page 56


 3314              		.thumb
 3315              		.thumb_func
 3317              	ism330dhcx_xl_fast_settling_get:
 3318              		@ args = 0, pretend = 0, frame = 8
 3319              		@ frame_needed = 0, uses_anonymous_args = 0
 3320 0000 10B5     		push	{r4, lr}
 3321 0002 82B0     		sub	sp, sp, #8
 3322 0004 0C46     		mov	r4, r1
 3323 0006 0123     		movs	r3, #1
 3324 0008 01AA     		add	r2, sp, #4
 3325 000a 1721     		movs	r1, #23
 3326 000c FFF7FEFF 		bl	ism330dhcx_read_reg
 3327 0010 9DF80430 		ldrb	r3, [sp, #4]	@ zero_extendqisi2
 3328 0014 C3F3C003 		ubfx	r3, r3, #3, #1
 3329 0018 2370     		strb	r3, [r4]
 3330 001a 02B0     		add	sp, sp, #8
 3331              		@ sp needed
 3332 001c 10BD     		pop	{r4, pc}
 3334              		.section	.text.ism330dhcx_xl_hp_path_internal_set,"ax",%progbits
 3335              		.align	1
 3336              		.global	ism330dhcx_xl_hp_path_internal_set
 3337              		.syntax unified
 3338              		.thumb
 3339              		.thumb_func
 3341              	ism330dhcx_xl_hp_path_internal_set:
 3342              		@ args = 0, pretend = 0, frame = 8
 3343              		@ frame_needed = 0, uses_anonymous_args = 0
 3344 0000 30B5     		push	{r4, r5, lr}
 3345 0002 83B0     		sub	sp, sp, #12
 3346 0004 0446     		mov	r4, r0
 3347 0006 0D46     		mov	r5, r1
 3348 0008 0123     		movs	r3, #1
 3349 000a 01AA     		add	r2, sp, #4
 3350 000c 5621     		movs	r1, #86
 3351 000e FFF7FEFF 		bl	ism330dhcx_read_reg
 3352 0012 08B1     		cbz	r0, .L403
 3353              	.L400:
 3354 0014 03B0     		add	sp, sp, #12
 3355              		@ sp needed
 3356 0016 30BD     		pop	{r4, r5, pc}
 3357              	.L403:
 3358 0018 9DF80430 		ldrb	r3, [sp, #4]	@ zero_extendqisi2
 3359 001c 65F30413 		bfi	r3, r5, #4, #1
 3360 0020 8DF80430 		strb	r3, [sp, #4]
 3361 0024 0123     		movs	r3, #1
 3362 0026 01AA     		add	r2, sp, #4
 3363 0028 5621     		movs	r1, #86
 3364 002a 2046     		mov	r0, r4
 3365 002c FFF7FEFF 		bl	ism330dhcx_write_reg
 3366 0030 F0E7     		b	.L400
 3368              		.section	.text.ism330dhcx_xl_hp_path_internal_get,"ax",%progbits
 3369              		.align	1
 3370              		.global	ism330dhcx_xl_hp_path_internal_get
 3371              		.syntax unified
 3372              		.thumb
 3373              		.thumb_func
 3375              	ism330dhcx_xl_hp_path_internal_get:
ARM GAS  C:\Temp\ccOH3Pt6.s 			page 57


 3376              		@ args = 0, pretend = 0, frame = 8
 3377              		@ frame_needed = 0, uses_anonymous_args = 0
 3378 0000 10B5     		push	{r4, lr}
 3379 0002 82B0     		sub	sp, sp, #8
 3380 0004 0C46     		mov	r4, r1
 3381 0006 0123     		movs	r3, #1
 3382 0008 01AA     		add	r2, sp, #4
 3383 000a 5621     		movs	r1, #86
 3384 000c FFF7FEFF 		bl	ism330dhcx_read_reg
 3385 0010 9DF80430 		ldrb	r3, [sp, #4]	@ zero_extendqisi2
 3386 0014 C3F30012 		ubfx	r2, r3, #4, #1
 3387 0018 13F0100F 		tst	r3, #16
 3388 001c 03D0     		beq	.L405
 3389 001e 32B9     		cbnz	r2, .L406
 3390 0020 0023     		movs	r3, #0
 3391 0022 2370     		strb	r3, [r4]
 3392 0024 01E0     		b	.L404
 3393              	.L405:
 3394 0026 0023     		movs	r3, #0
 3395 0028 2370     		strb	r3, [r4]
 3396              	.L404:
 3397 002a 02B0     		add	sp, sp, #8
 3398              		@ sp needed
 3399 002c 10BD     		pop	{r4, pc}
 3400              	.L406:
 3401 002e 0123     		movs	r3, #1
 3402 0030 2370     		strb	r3, [r4]
 3403 0032 FAE7     		b	.L404
 3405              		.section	.text.ism330dhcx_gy_hp_path_internal_set,"ax",%progbits
 3406              		.align	1
 3407              		.global	ism330dhcx_gy_hp_path_internal_set
 3408              		.syntax unified
 3409              		.thumb
 3410              		.thumb_func
 3412              	ism330dhcx_gy_hp_path_internal_set:
 3413              		@ args = 0, pretend = 0, frame = 8
 3414              		@ frame_needed = 0, uses_anonymous_args = 0
 3415 0000 30B5     		push	{r4, r5, lr}
 3416 0002 83B0     		sub	sp, sp, #12
 3417 0004 0546     		mov	r5, r0
 3418 0006 0C46     		mov	r4, r1
 3419 0008 0123     		movs	r3, #1
 3420 000a 01AA     		add	r2, sp, #4
 3421 000c 1621     		movs	r1, #22
 3422 000e FFF7FEFF 		bl	ism330dhcx_read_reg
 3423 0012 08B1     		cbz	r0, .L414
 3424              	.L411:
 3425 0014 03B0     		add	sp, sp, #12
 3426              		@ sp needed
 3427 0016 30BD     		pop	{r4, r5, pc}
 3428              	.L414:
 3429 0018 E209     		lsrs	r2, r4, #7
 3430 001a 9DF80430 		ldrb	r3, [sp, #4]	@ zero_extendqisi2
 3431 001e 62F38613 		bfi	r3, r2, #6, #1
 3432 0022 8DF80430 		strb	r3, [sp, #4]
 3433 0026 DBB2     		uxtb	r3, r3
 3434 0028 64F30513 		bfi	r3, r4, #4, #2
ARM GAS  C:\Temp\ccOH3Pt6.s 			page 58


 3435 002c 8DF80430 		strb	r3, [sp, #4]
 3436 0030 0123     		movs	r3, #1
 3437 0032 01AA     		add	r2, sp, #4
 3438 0034 1621     		movs	r1, #22
 3439 0036 2846     		mov	r0, r5
 3440 0038 FFF7FEFF 		bl	ism330dhcx_write_reg
 3441 003c EAE7     		b	.L411
 3443              		.section	.text.ism330dhcx_gy_hp_path_internal_get,"ax",%progbits
 3444              		.align	1
 3445              		.global	ism330dhcx_gy_hp_path_internal_get
 3446              		.syntax unified
 3447              		.thumb
 3448              		.thumb_func
 3450              	ism330dhcx_gy_hp_path_internal_get:
 3451              		@ args = 0, pretend = 0, frame = 8
 3452              		@ frame_needed = 0, uses_anonymous_args = 0
 3453 0000 10B5     		push	{r4, lr}
 3454 0002 82B0     		sub	sp, sp, #8
 3455 0004 0C46     		mov	r4, r1
 3456 0006 0123     		movs	r3, #1
 3457 0008 01AA     		add	r2, sp, #4
 3458 000a 1621     		movs	r1, #22
 3459 000c FFF7FEFF 		bl	ism330dhcx_read_reg
 3460 0010 9DF80430 		ldrb	r3, [sp, #4]	@ zero_extendqisi2
 3461 0014 C3F38012 		ubfx	r2, r3, #6, #1
 3462 0018 C3F30113 		ubfx	r3, r3, #4, #2
 3463 001c 13EBC213 		adds	r3, r3, r2, lsl #7
 3464 0020 0CD0     		beq	.L416
 3465 0022 002B     		cmp	r3, #0
 3466 0024 1ADB     		blt	.L417
 3467 0026 832B     		cmp	r3, #131
 3468 0028 18DC     		bgt	.L417
 3469 002a 802B     		cmp	r3, #128
 3470 002c 16DB     		blt	.L417
 3471 002e 803B     		subs	r3, r3, #128
 3472 0030 032B     		cmp	r3, #3
 3473 0032 13D8     		bhi	.L417
 3474 0034 DFE803F0 		tbb	[pc, r3]
 3475              	.L419:
 3476 0038 06       		.byte	(.L422-.L419)/2
 3477 0039 09       		.byte	(.L421-.L419)/2
 3478 003a 0C       		.byte	(.L420-.L419)/2
 3479 003b 0F       		.byte	(.L418-.L419)/2
 3480              		.p2align 1
 3481              	.L416:
 3482 003c 0023     		movs	r3, #0
 3483 003e 2370     		strb	r3, [r4]
 3484              	.L415:
 3485 0040 02B0     		add	sp, sp, #8
 3486              		@ sp needed
 3487 0042 10BD     		pop	{r4, pc}
 3488              	.L422:
 3489 0044 8023     		movs	r3, #128
 3490 0046 2370     		strb	r3, [r4]
 3491 0048 FAE7     		b	.L415
 3492              	.L421:
 3493 004a 8123     		movs	r3, #129
ARM GAS  C:\Temp\ccOH3Pt6.s 			page 59


 3494 004c 2370     		strb	r3, [r4]
 3495 004e F7E7     		b	.L415
 3496              	.L420:
 3497 0050 8223     		movs	r3, #130
 3498 0052 2370     		strb	r3, [r4]
 3499 0054 F4E7     		b	.L415
 3500              	.L418:
 3501 0056 8323     		movs	r3, #131
 3502 0058 2370     		strb	r3, [r4]
 3503 005a F1E7     		b	.L415
 3504              	.L417:
 3505 005c 0023     		movs	r3, #0
 3506 005e 2370     		strb	r3, [r4]
 3507 0060 EEE7     		b	.L415
 3509              		.section	.text.ism330dhcx_aux_sdo_ocs_mode_set,"ax",%progbits
 3510              		.align	1
 3511              		.global	ism330dhcx_aux_sdo_ocs_mode_set
 3512              		.syntax unified
 3513              		.thumb
 3514              		.thumb_func
 3516              	ism330dhcx_aux_sdo_ocs_mode_set:
 3517              		@ args = 0, pretend = 0, frame = 8
 3518              		@ frame_needed = 0, uses_anonymous_args = 0
 3519 0000 30B5     		push	{r4, r5, lr}
 3520 0002 83B0     		sub	sp, sp, #12
 3521 0004 0446     		mov	r4, r0
 3522 0006 0D46     		mov	r5, r1
 3523 0008 0123     		movs	r3, #1
 3524 000a 01AA     		add	r2, sp, #4
 3525 000c 0221     		movs	r1, #2
 3526 000e FFF7FEFF 		bl	ism330dhcx_read_reg
 3527 0012 08B1     		cbz	r0, .L429
 3528              	.L426:
 3529 0014 03B0     		add	sp, sp, #12
 3530              		@ sp needed
 3531 0016 30BD     		pop	{r4, r5, pc}
 3532              	.L429:
 3533 0018 9DF80430 		ldrb	r3, [sp, #4]	@ zero_extendqisi2
 3534 001c 65F3C713 		bfi	r3, r5, #7, #1
 3535 0020 8DF80430 		strb	r3, [sp, #4]
 3536 0024 0123     		movs	r3, #1
 3537 0026 01AA     		add	r2, sp, #4
 3538 0028 0221     		movs	r1, #2
 3539 002a 2046     		mov	r0, r4
 3540 002c FFF7FEFF 		bl	ism330dhcx_write_reg
 3541 0030 F0E7     		b	.L426
 3543              		.section	.text.ism330dhcx_aux_sdo_ocs_mode_get,"ax",%progbits
 3544              		.align	1
 3545              		.global	ism330dhcx_aux_sdo_ocs_mode_get
 3546              		.syntax unified
 3547              		.thumb
 3548              		.thumb_func
 3550              	ism330dhcx_aux_sdo_ocs_mode_get:
 3551              		@ args = 0, pretend = 0, frame = 8
 3552              		@ frame_needed = 0, uses_anonymous_args = 0
 3553 0000 10B5     		push	{r4, lr}
 3554 0002 82B0     		sub	sp, sp, #8
ARM GAS  C:\Temp\ccOH3Pt6.s 			page 60


 3555 0004 0C46     		mov	r4, r1
 3556 0006 0123     		movs	r3, #1
 3557 0008 01AA     		add	r2, sp, #4
 3558 000a 0221     		movs	r1, #2
 3559 000c FFF7FEFF 		bl	ism330dhcx_read_reg
 3560 0010 9DF80430 		ldrb	r3, [sp, #4]	@ zero_extendqisi2
 3561 0014 DB09     		lsrs	r3, r3, #7
 3562 0016 03D0     		beq	.L431
 3563 0018 33B9     		cbnz	r3, .L432
 3564 001a 0023     		movs	r3, #0
 3565 001c 2370     		strb	r3, [r4]
 3566 001e 01E0     		b	.L430
 3567              	.L431:
 3568 0020 0023     		movs	r3, #0
 3569 0022 2370     		strb	r3, [r4]
 3570              	.L430:
 3571 0024 02B0     		add	sp, sp, #8
 3572              		@ sp needed
 3573 0026 10BD     		pop	{r4, pc}
 3574              	.L432:
 3575 0028 0123     		movs	r3, #1
 3576 002a 2370     		strb	r3, [r4]
 3577 002c FAE7     		b	.L430
 3579              		.section	.text.ism330dhcx_aux_pw_on_ctrl_set,"ax",%progbits
 3580              		.align	1
 3581              		.global	ism330dhcx_aux_pw_on_ctrl_set
 3582              		.syntax unified
 3583              		.thumb
 3584              		.thumb_func
 3586              	ism330dhcx_aux_pw_on_ctrl_set:
 3587              		@ args = 0, pretend = 0, frame = 8
 3588              		@ frame_needed = 0, uses_anonymous_args = 0
 3589 0000 30B5     		push	{r4, r5, lr}
 3590 0002 83B0     		sub	sp, sp, #12
 3591 0004 0546     		mov	r5, r0
 3592 0006 0C46     		mov	r4, r1
 3593 0008 0123     		movs	r3, #1
 3594 000a 01AA     		add	r2, sp, #4
 3595 000c 1621     		movs	r1, #22
 3596 000e FFF7FEFF 		bl	ism330dhcx_read_reg
 3597 0012 08B1     		cbz	r0, .L440
 3598              	.L437:
 3599 0014 03B0     		add	sp, sp, #12
 3600              		@ sp needed
 3601 0016 30BD     		pop	{r4, r5, pc}
 3602              	.L440:
 3603 0018 04F00101 		and	r1, r4, #1
 3604 001c 9DF80430 		ldrb	r3, [sp, #4]	@ zero_extendqisi2
 3605 0020 61F38203 		bfi	r3, r1, #2, #1
 3606 0024 8DF80430 		strb	r3, [sp, #4]
 3607 0028 DBB2     		uxtb	r3, r3
 3608 002a 61F30003 		bfi	r3, r1, #0, #1
 3609 002e 8DF80430 		strb	r3, [sp, #4]
 3610 0032 0123     		movs	r3, #1
 3611 0034 01AA     		add	r2, sp, #4
 3612 0036 1621     		movs	r1, #22
 3613 0038 2846     		mov	r0, r5
ARM GAS  C:\Temp\ccOH3Pt6.s 			page 61


 3614 003a FFF7FEFF 		bl	ism330dhcx_write_reg
 3615 003e E9E7     		b	.L437
 3617              		.section	.text.ism330dhcx_aux_pw_on_ctrl_get,"ax",%progbits
 3618              		.align	1
 3619              		.global	ism330dhcx_aux_pw_on_ctrl_get
 3620              		.syntax unified
 3621              		.thumb
 3622              		.thumb_func
 3624              	ism330dhcx_aux_pw_on_ctrl_get:
 3625              		@ args = 0, pretend = 0, frame = 8
 3626              		@ frame_needed = 0, uses_anonymous_args = 0
 3627 0000 10B5     		push	{r4, lr}
 3628 0002 82B0     		sub	sp, sp, #8
 3629 0004 0C46     		mov	r4, r1
 3630 0006 0123     		movs	r3, #1
 3631 0008 01AA     		add	r2, sp, #4
 3632 000a 1621     		movs	r1, #22
 3633 000c FFF7FEFF 		bl	ism330dhcx_read_reg
 3634 0010 9DF80430 		ldrb	r3, [sp, #4]	@ zero_extendqisi2
 3635 0014 13F00103 		ands	r3, r3, #1
 3636 0018 04D0     		beq	.L442
 3637 001a 33B1     		cbz	r3, .L443
 3638 001c 0123     		movs	r3, #1
 3639 001e 2370     		strb	r3, [r4]
 3640              	.L441:
 3641 0020 02B0     		add	sp, sp, #8
 3642              		@ sp needed
 3643 0022 10BD     		pop	{r4, pc}
 3644              	.L442:
 3645 0024 0023     		movs	r3, #0
 3646 0026 2370     		strb	r3, [r4]
 3647 0028 FAE7     		b	.L441
 3648              	.L443:
 3649 002a 0123     		movs	r3, #1
 3650 002c 2370     		strb	r3, [r4]
 3651 002e F7E7     		b	.L441
 3653              		.section	.text.ism330dhcx_aux_status_reg_get,"ax",%progbits
 3654              		.align	1
 3655              		.global	ism330dhcx_aux_status_reg_get
 3656              		.syntax unified
 3657              		.thumb
 3658              		.thumb_func
 3660              	ism330dhcx_aux_status_reg_get:
 3661              		@ args = 0, pretend = 0, frame = 0
 3662              		@ frame_needed = 0, uses_anonymous_args = 0
 3663 0000 08B5     		push	{r3, lr}
 3664 0002 0A46     		mov	r2, r1
 3665 0004 0123     		movs	r3, #1
 3666 0006 1E21     		movs	r1, #30
 3667 0008 FFF7FEFF 		bl	ism330dhcx_read_reg
 3668 000c 08BD     		pop	{r3, pc}
 3670              		.section	.text.ism330dhcx_aux_xl_flag_data_ready_get,"ax",%progbits
 3671              		.align	1
 3672              		.global	ism330dhcx_aux_xl_flag_data_ready_get
 3673              		.syntax unified
 3674              		.thumb
 3675              		.thumb_func
ARM GAS  C:\Temp\ccOH3Pt6.s 			page 62


 3677              	ism330dhcx_aux_xl_flag_data_ready_get:
 3678              		@ args = 0, pretend = 0, frame = 8
 3679              		@ frame_needed = 0, uses_anonymous_args = 0
 3680 0000 10B5     		push	{r4, lr}
 3681 0002 82B0     		sub	sp, sp, #8
 3682 0004 0C46     		mov	r4, r1
 3683 0006 0123     		movs	r3, #1
 3684 0008 01AA     		add	r2, sp, #4
 3685 000a 1E21     		movs	r1, #30
 3686 000c FFF7FEFF 		bl	ism330dhcx_read_reg
 3687 0010 9DF80430 		ldrb	r3, [sp, #4]	@ zero_extendqisi2
 3688 0014 C3F30003 		ubfx	r3, r3, #0, #1
 3689 0018 2370     		strb	r3, [r4]
 3690 001a 02B0     		add	sp, sp, #8
 3691              		@ sp needed
 3692 001c 10BD     		pop	{r4, pc}
 3694              		.section	.text.ism330dhcx_aux_gy_flag_data_ready_get,"ax",%progbits
 3695              		.align	1
 3696              		.global	ism330dhcx_aux_gy_flag_data_ready_get
 3697              		.syntax unified
 3698              		.thumb
 3699              		.thumb_func
 3701              	ism330dhcx_aux_gy_flag_data_ready_get:
 3702              		@ args = 0, pretend = 0, frame = 8
 3703              		@ frame_needed = 0, uses_anonymous_args = 0
 3704 0000 10B5     		push	{r4, lr}
 3705 0002 82B0     		sub	sp, sp, #8
 3706 0004 0C46     		mov	r4, r1
 3707 0006 0123     		movs	r3, #1
 3708 0008 01AA     		add	r2, sp, #4
 3709 000a 1E21     		movs	r1, #30
 3710 000c FFF7FEFF 		bl	ism330dhcx_read_reg
 3711 0010 9DF80430 		ldrb	r3, [sp, #4]	@ zero_extendqisi2
 3712 0014 C3F34003 		ubfx	r3, r3, #1, #1
 3713 0018 2370     		strb	r3, [r4]
 3714 001a 02B0     		add	sp, sp, #8
 3715              		@ sp needed
 3716 001c 10BD     		pop	{r4, pc}
 3718              		.section	.text.ism330dhcx_aux_gy_flag_settling_get,"ax",%progbits
 3719              		.align	1
 3720              		.global	ism330dhcx_aux_gy_flag_settling_get
 3721              		.syntax unified
 3722              		.thumb
 3723              		.thumb_func
 3725              	ism330dhcx_aux_gy_flag_settling_get:
 3726              		@ args = 0, pretend = 0, frame = 8
 3727              		@ frame_needed = 0, uses_anonymous_args = 0
 3728 0000 10B5     		push	{r4, lr}
 3729 0002 82B0     		sub	sp, sp, #8
 3730 0004 0C46     		mov	r4, r1
 3731 0006 0123     		movs	r3, #1
 3732 0008 01AA     		add	r2, sp, #4
 3733 000a 1E21     		movs	r1, #30
 3734 000c FFF7FEFF 		bl	ism330dhcx_read_reg
 3735 0010 9DF80430 		ldrb	r3, [sp, #4]	@ zero_extendqisi2
 3736 0014 C3F38003 		ubfx	r3, r3, #2, #1
 3737 0018 2370     		strb	r3, [r4]
ARM GAS  C:\Temp\ccOH3Pt6.s 			page 63


 3738 001a 02B0     		add	sp, sp, #8
 3739              		@ sp needed
 3740 001c 10BD     		pop	{r4, pc}
 3742              		.section	.text.ism330dhcx_aux_xl_self_test_set,"ax",%progbits
 3743              		.align	1
 3744              		.global	ism330dhcx_aux_xl_self_test_set
 3745              		.syntax unified
 3746              		.thumb
 3747              		.thumb_func
 3749              	ism330dhcx_aux_xl_self_test_set:
 3750              		@ args = 0, pretend = 0, frame = 8
 3751              		@ frame_needed = 0, uses_anonymous_args = 0
 3752 0000 30B5     		push	{r4, r5, lr}
 3753 0002 83B0     		sub	sp, sp, #12
 3754 0004 0446     		mov	r4, r0
 3755 0006 0D46     		mov	r5, r1
 3756 0008 0123     		movs	r3, #1
 3757 000a 01AA     		add	r2, sp, #4
 3758 000c 6F21     		movs	r1, #111
 3759 000e FFF7FEFF 		bl	ism330dhcx_read_reg
 3760 0012 08B1     		cbz	r0, .L457
 3761              	.L454:
 3762 0014 03B0     		add	sp, sp, #12
 3763              		@ sp needed
 3764 0016 30BD     		pop	{r4, r5, pc}
 3765              	.L457:
 3766 0018 9DF80430 		ldrb	r3, [sp, #4]	@ zero_extendqisi2
 3767 001c 65F30103 		bfi	r3, r5, #0, #2
 3768 0020 8DF80430 		strb	r3, [sp, #4]
 3769 0024 0123     		movs	r3, #1
 3770 0026 01AA     		add	r2, sp, #4
 3771 0028 6F21     		movs	r1, #111
 3772 002a 2046     		mov	r0, r4
 3773 002c FFF7FEFF 		bl	ism330dhcx_write_reg
 3774 0030 F0E7     		b	.L454
 3776              		.section	.text.ism330dhcx_aux_xl_self_test_get,"ax",%progbits
 3777              		.align	1
 3778              		.global	ism330dhcx_aux_xl_self_test_get
 3779              		.syntax unified
 3780              		.thumb
 3781              		.thumb_func
 3783              	ism330dhcx_aux_xl_self_test_get:
 3784              		@ args = 0, pretend = 0, frame = 8
 3785              		@ frame_needed = 0, uses_anonymous_args = 0
 3786 0000 10B5     		push	{r4, lr}
 3787 0002 82B0     		sub	sp, sp, #8
 3788 0004 0C46     		mov	r4, r1
 3789 0006 0123     		movs	r3, #1
 3790 0008 01AA     		add	r2, sp, #4
 3791 000a 6F21     		movs	r1, #111
 3792 000c FFF7FEFF 		bl	ism330dhcx_read_reg
 3793 0010 9DF80430 		ldrb	r3, [sp, #4]	@ zero_extendqisi2
 3794 0014 03F00303 		and	r3, r3, #3
 3795 0018 012B     		cmp	r3, #1
 3796 001a 08D0     		beq	.L459
 3797 001c 022B     		cmp	r3, #2
 3798 001e 09D0     		beq	.L460
ARM GAS  C:\Temp\ccOH3Pt6.s 			page 64


 3799 0020 13B1     		cbz	r3, .L464
 3800 0022 0023     		movs	r3, #0
 3801 0024 2370     		strb	r3, [r4]
 3802 0026 00E0     		b	.L458
 3803              	.L464:
 3804 0028 2370     		strb	r3, [r4]
 3805              	.L458:
 3806 002a 02B0     		add	sp, sp, #8
 3807              		@ sp needed
 3808 002c 10BD     		pop	{r4, pc}
 3809              	.L459:
 3810 002e 0123     		movs	r3, #1
 3811 0030 2370     		strb	r3, [r4]
 3812 0032 FAE7     		b	.L458
 3813              	.L460:
 3814 0034 0223     		movs	r3, #2
 3815 0036 2370     		strb	r3, [r4]
 3816 0038 F7E7     		b	.L458
 3818              		.section	.text.ism330dhcx_aux_den_polarity_set,"ax",%progbits
 3819              		.align	1
 3820              		.global	ism330dhcx_aux_den_polarity_set
 3821              		.syntax unified
 3822              		.thumb
 3823              		.thumb_func
 3825              	ism330dhcx_aux_den_polarity_set:
 3826              		@ args = 0, pretend = 0, frame = 8
 3827              		@ frame_needed = 0, uses_anonymous_args = 0
 3828 0000 30B5     		push	{r4, r5, lr}
 3829 0002 83B0     		sub	sp, sp, #12
 3830 0004 0446     		mov	r4, r0
 3831 0006 0D46     		mov	r5, r1
 3832 0008 0123     		movs	r3, #1
 3833 000a 01AA     		add	r2, sp, #4
 3834 000c 6F21     		movs	r1, #111
 3835 000e FFF7FEFF 		bl	ism330dhcx_read_reg
 3836 0012 08B1     		cbz	r0, .L468
 3837              	.L465:
 3838 0014 03B0     		add	sp, sp, #12
 3839              		@ sp needed
 3840 0016 30BD     		pop	{r4, r5, pc}
 3841              	.L468:
 3842 0018 9DF80430 		ldrb	r3, [sp, #4]	@ zero_extendqisi2
 3843 001c 65F34513 		bfi	r3, r5, #5, #1
 3844 0020 8DF80430 		strb	r3, [sp, #4]
 3845 0024 0123     		movs	r3, #1
 3846 0026 01AA     		add	r2, sp, #4
 3847 0028 6F21     		movs	r1, #111
 3848 002a 2046     		mov	r0, r4
 3849 002c FFF7FEFF 		bl	ism330dhcx_write_reg
 3850 0030 F0E7     		b	.L465
 3852              		.section	.text.ism330dhcx_aux_den_polarity_get,"ax",%progbits
 3853              		.align	1
 3854              		.global	ism330dhcx_aux_den_polarity_get
 3855              		.syntax unified
 3856              		.thumb
 3857              		.thumb_func
 3859              	ism330dhcx_aux_den_polarity_get:
ARM GAS  C:\Temp\ccOH3Pt6.s 			page 65


 3860              		@ args = 0, pretend = 0, frame = 8
 3861              		@ frame_needed = 0, uses_anonymous_args = 0
 3862 0000 10B5     		push	{r4, lr}
 3863 0002 82B0     		sub	sp, sp, #8
 3864 0004 0C46     		mov	r4, r1
 3865 0006 0123     		movs	r3, #1
 3866 0008 01AA     		add	r2, sp, #4
 3867 000a 6F21     		movs	r1, #111
 3868 000c FFF7FEFF 		bl	ism330dhcx_read_reg
 3869 0010 9DF80430 		ldrb	r3, [sp, #4]	@ zero_extendqisi2
 3870 0014 C3F34012 		ubfx	r2, r3, #5, #1
 3871 0018 13F0200F 		tst	r3, #32
 3872 001c 03D0     		beq	.L470
 3873 001e 32B9     		cbnz	r2, .L471
 3874 0020 0023     		movs	r3, #0
 3875 0022 2370     		strb	r3, [r4]
 3876 0024 01E0     		b	.L469
 3877              	.L470:
 3878 0026 0023     		movs	r3, #0
 3879 0028 2370     		strb	r3, [r4]
 3880              	.L469:
 3881 002a 02B0     		add	sp, sp, #8
 3882              		@ sp needed
 3883 002c 10BD     		pop	{r4, pc}
 3884              	.L471:
 3885 002e 0123     		movs	r3, #1
 3886 0030 2370     		strb	r3, [r4]
 3887 0032 FAE7     		b	.L469
 3889              		.section	.text.ism330dhcx_aux_den_mode_set,"ax",%progbits
 3890              		.align	1
 3891              		.global	ism330dhcx_aux_den_mode_set
 3892              		.syntax unified
 3893              		.thumb
 3894              		.thumb_func
 3896              	ism330dhcx_aux_den_mode_set:
 3897              		@ args = 0, pretend = 0, frame = 8
 3898              		@ frame_needed = 0, uses_anonymous_args = 0
 3899 0000 30B5     		push	{r4, r5, lr}
 3900 0002 83B0     		sub	sp, sp, #12
 3901 0004 0546     		mov	r5, r0
 3902 0006 0C46     		mov	r4, r1
 3903 0008 0123     		movs	r3, #1
 3904 000a 01AA     		add	r2, sp, #4
 3905 000c 6F21     		movs	r1, #111
 3906 000e FFF7FEFF 		bl	ism330dhcx_read_reg
 3907 0012 0346     		mov	r3, r0
 3908 0014 18B1     		cbz	r0, .L480
 3909              	.L477:
 3910 0016 CBB1     		cbz	r3, .L481
 3911              	.L476:
 3912 0018 1846     		mov	r0, r3
 3913 001a 03B0     		add	sp, sp, #12
 3914              		@ sp needed
 3915 001c 30BD     		pop	{r4, r5, pc}
 3916              	.L480:
 3917 001e 9DF80430 		ldrb	r3, [sp, #4]	@ zero_extendqisi2
 3918 0022 64F38613 		bfi	r3, r4, #6, #1
ARM GAS  C:\Temp\ccOH3Pt6.s 			page 66


 3919 0026 8DF80430 		strb	r3, [sp, #4]
 3920 002a 0123     		movs	r3, #1
 3921 002c 01AA     		add	r2, sp, #4
 3922 002e 6F21     		movs	r1, #111
 3923 0030 2846     		mov	r0, r5
 3924 0032 FFF7FEFF 		bl	ism330dhcx_write_reg
 3925 0036 0346     		mov	r3, r0
 3926 0038 0028     		cmp	r0, #0
 3927 003a EDD1     		bne	.L476
 3928 003c 0123     		movs	r3, #1
 3929 003e 6A46     		mov	r2, sp
 3930 0040 7021     		movs	r1, #112
 3931 0042 2846     		mov	r0, r5
 3932 0044 FFF7FEFF 		bl	ism330dhcx_read_reg
 3933 0048 0346     		mov	r3, r0
 3934 004a E4E7     		b	.L477
 3935              	.L481:
 3936 004c C4F34001 		ubfx	r1, r4, #1, #1
 3937 0050 9DF80030 		ldrb	r3, [sp]	@ zero_extendqisi2
 3938 0054 61F38613 		bfi	r3, r1, #6, #1
 3939 0058 8DF80030 		strb	r3, [sp]
 3940 005c 0123     		movs	r3, #1
 3941 005e 6A46     		mov	r2, sp
 3942 0060 7021     		movs	r1, #112
 3943 0062 2846     		mov	r0, r5
 3944 0064 FFF7FEFF 		bl	ism330dhcx_write_reg
 3945 0068 0346     		mov	r3, r0
 3946 006a D5E7     		b	.L476
 3948              		.section	.text.ism330dhcx_aux_den_mode_get,"ax",%progbits
 3949              		.align	1
 3950              		.global	ism330dhcx_aux_den_mode_get
 3951              		.syntax unified
 3952              		.thumb
 3953              		.thumb_func
 3955              	ism330dhcx_aux_den_mode_get:
 3956              		@ args = 0, pretend = 0, frame = 8
 3957              		@ frame_needed = 0, uses_anonymous_args = 0
 3958 0000 30B5     		push	{r4, r5, lr}
 3959 0002 83B0     		sub	sp, sp, #12
 3960 0004 0546     		mov	r5, r0
 3961 0006 0C46     		mov	r4, r1
 3962 0008 0123     		movs	r3, #1
 3963 000a 01AA     		add	r2, sp, #4
 3964 000c 6F21     		movs	r1, #111
 3965 000e FFF7FEFF 		bl	ism330dhcx_read_reg
 3966 0012 88B1     		cbz	r0, .L489
 3967              	.L483:
 3968 0014 9DF80020 		ldrb	r2, [sp]	@ zero_extendqisi2
 3969 0018 C2F38012 		ubfx	r2, r2, #6, #1
 3970 001c 9DF80430 		ldrb	r3, [sp, #4]	@ zero_extendqisi2
 3971 0020 C3F38013 		ubfx	r3, r3, #6, #1
 3972 0024 03EB4203 		add	r3, r3, r2, lsl #1
 3973 0028 022B     		cmp	r3, #2
 3974 002a 12D0     		beq	.L484
 3975 002c 032B     		cmp	r3, #3
 3976 002e 0DD0     		beq	.L485
 3977 0030 4BB1     		cbz	r3, .L490
ARM GAS  C:\Temp\ccOH3Pt6.s 			page 67


 3978 0032 0023     		movs	r3, #0
 3979 0034 2370     		strb	r3, [r4]
 3980 0036 07E0     		b	.L482
 3981              	.L489:
 3982 0038 0123     		movs	r3, #1
 3983 003a 6A46     		mov	r2, sp
 3984 003c 7021     		movs	r1, #112
 3985 003e 2846     		mov	r0, r5
 3986 0040 FFF7FEFF 		bl	ism330dhcx_read_reg
 3987 0044 E6E7     		b	.L483
 3988              	.L490:
 3989 0046 2370     		strb	r3, [r4]
 3990              	.L482:
 3991 0048 03B0     		add	sp, sp, #12
 3992              		@ sp needed
 3993 004a 30BD     		pop	{r4, r5, pc}
 3994              	.L485:
 3995 004c 0323     		movs	r3, #3
 3996 004e 2370     		strb	r3, [r4]
 3997 0050 FAE7     		b	.L482
 3998              	.L484:
 3999 0052 0223     		movs	r3, #2
 4000 0054 2370     		strb	r3, [r4]
 4001 0056 F7E7     		b	.L482
 4003              		.section	.text.ism330dhcx_aux_drdy_on_int2_set,"ax",%progbits
 4004              		.align	1
 4005              		.global	ism330dhcx_aux_drdy_on_int2_set
 4006              		.syntax unified
 4007              		.thumb
 4008              		.thumb_func
 4010              	ism330dhcx_aux_drdy_on_int2_set:
 4011              		@ args = 0, pretend = 0, frame = 8
 4012              		@ frame_needed = 0, uses_anonymous_args = 0
 4013 0000 30B5     		push	{r4, r5, lr}
 4014 0002 83B0     		sub	sp, sp, #12
 4015 0004 0446     		mov	r4, r0
 4016 0006 0D46     		mov	r5, r1
 4017 0008 0123     		movs	r3, #1
 4018 000a 01AA     		add	r2, sp, #4
 4019 000c 6F21     		movs	r1, #111
 4020 000e FFF7FEFF 		bl	ism330dhcx_read_reg
 4021 0012 08B1     		cbz	r0, .L494
 4022              	.L491:
 4023 0014 03B0     		add	sp, sp, #12
 4024              		@ sp needed
 4025 0016 30BD     		pop	{r4, r5, pc}
 4026              	.L494:
 4027 0018 9DF80430 		ldrb	r3, [sp, #4]	@ zero_extendqisi2
 4028 001c 65F3C713 		bfi	r3, r5, #7, #1
 4029 0020 8DF80430 		strb	r3, [sp, #4]
 4030 0024 0123     		movs	r3, #1
 4031 0026 01AA     		add	r2, sp, #4
 4032 0028 6F21     		movs	r1, #111
 4033 002a 2046     		mov	r0, r4
 4034 002c FFF7FEFF 		bl	ism330dhcx_write_reg
 4035 0030 F0E7     		b	.L491
 4037              		.section	.text.ism330dhcx_aux_drdy_on_int2_get,"ax",%progbits
ARM GAS  C:\Temp\ccOH3Pt6.s 			page 68


 4038              		.align	1
 4039              		.global	ism330dhcx_aux_drdy_on_int2_get
 4040              		.syntax unified
 4041              		.thumb
 4042              		.thumb_func
 4044              	ism330dhcx_aux_drdy_on_int2_get:
 4045              		@ args = 0, pretend = 0, frame = 8
 4046              		@ frame_needed = 0, uses_anonymous_args = 0
 4047 0000 10B5     		push	{r4, lr}
 4048 0002 82B0     		sub	sp, sp, #8
 4049 0004 0C46     		mov	r4, r1
 4050 0006 0123     		movs	r3, #1
 4051 0008 01AA     		add	r2, sp, #4
 4052 000a 6F21     		movs	r1, #111
 4053 000c FFF7FEFF 		bl	ism330dhcx_read_reg
 4054 0010 9DF80430 		ldrb	r3, [sp, #4]	@ zero_extendqisi2
 4055 0014 C3F3C013 		ubfx	r3, r3, #7, #1
 4056 0018 2370     		strb	r3, [r4]
 4057 001a 02B0     		add	sp, sp, #8
 4058              		@ sp needed
 4059 001c 10BD     		pop	{r4, pc}
 4061              		.section	.text.ism330dhcx_aux_mode_set,"ax",%progbits
 4062              		.align	1
 4063              		.global	ism330dhcx_aux_mode_set
 4064              		.syntax unified
 4065              		.thumb
 4066              		.thumb_func
 4068              	ism330dhcx_aux_mode_set:
 4069              		@ args = 0, pretend = 0, frame = 8
 4070              		@ frame_needed = 0, uses_anonymous_args = 0
 4071 0000 30B5     		push	{r4, r5, lr}
 4072 0002 83B0     		sub	sp, sp, #12
 4073 0004 0546     		mov	r5, r0
 4074 0006 0C46     		mov	r4, r1
 4075 0008 0123     		movs	r3, #1
 4076 000a 01AA     		add	r2, sp, #4
 4077 000c 7021     		movs	r1, #112
 4078 000e FFF7FEFF 		bl	ism330dhcx_read_reg
 4079 0012 08B1     		cbz	r0, .L500
 4080              	.L497:
 4081 0014 03B0     		add	sp, sp, #12
 4082              		@ sp needed
 4083 0016 30BD     		pop	{r4, r5, pc}
 4084              	.L500:
 4085 0018 9DF80430 		ldrb	r3, [sp, #4]	@ zero_extendqisi2
 4086 001c 64F30003 		bfi	r3, r4, #0, #1
 4087 0020 8DF80430 		strb	r3, [sp, #4]
 4088 0024 C4F34001 		ubfx	r1, r4, #1, #1
 4089 0028 DBB2     		uxtb	r3, r3
 4090 002a 61F30413 		bfi	r3, r1, #4, #1
 4091 002e 8DF80430 		strb	r3, [sp, #4]
 4092 0032 0123     		movs	r3, #1
 4093 0034 01AA     		add	r2, sp, #4
 4094 0036 7021     		movs	r1, #112
 4095 0038 2846     		mov	r0, r5
 4096 003a FFF7FEFF 		bl	ism330dhcx_write_reg
 4097 003e E9E7     		b	.L497
ARM GAS  C:\Temp\ccOH3Pt6.s 			page 69


 4099              		.section	.text.ism330dhcx_aux_mode_get,"ax",%progbits
 4100              		.align	1
 4101              		.global	ism330dhcx_aux_mode_get
 4102              		.syntax unified
 4103              		.thumb
 4104              		.thumb_func
 4106              	ism330dhcx_aux_mode_get:
 4107              		@ args = 0, pretend = 0, frame = 8
 4108              		@ frame_needed = 0, uses_anonymous_args = 0
 4109 0000 10B5     		push	{r4, lr}
 4110 0002 82B0     		sub	sp, sp, #8
 4111 0004 0C46     		mov	r4, r1
 4112 0006 0123     		movs	r3, #1
 4113 0008 01AA     		add	r2, sp, #4
 4114 000a 7021     		movs	r1, #112
 4115 000c FFF7FEFF 		bl	ism330dhcx_read_reg
 4116 0010 9DF80430 		ldrb	r3, [sp, #4]	@ zero_extendqisi2
 4117 0014 C3F30012 		ubfx	r2, r3, #4, #1
 4118 0018 03F00103 		and	r3, r3, #1
 4119 001c 03EB4203 		add	r3, r3, r2, lsl #1
 4120 0020 012B     		cmp	r3, #1
 4121 0022 08D0     		beq	.L502
 4122 0024 032B     		cmp	r3, #3
 4123 0026 09D0     		beq	.L503
 4124 0028 13B1     		cbz	r3, .L507
 4125 002a 0023     		movs	r3, #0
 4126 002c 2370     		strb	r3, [r4]
 4127 002e 00E0     		b	.L501
 4128              	.L507:
 4129 0030 2370     		strb	r3, [r4]
 4130              	.L501:
 4131 0032 02B0     		add	sp, sp, #8
 4132              		@ sp needed
 4133 0034 10BD     		pop	{r4, pc}
 4134              	.L502:
 4135 0036 0123     		movs	r3, #1
 4136 0038 2370     		strb	r3, [r4]
 4137 003a FAE7     		b	.L501
 4138              	.L503:
 4139 003c 0323     		movs	r3, #3
 4140 003e 2370     		strb	r3, [r4]
 4141 0040 F7E7     		b	.L501
 4143              		.section	.text.ism330dhcx_aux_gy_full_scale_set,"ax",%progbits
 4144              		.align	1
 4145              		.global	ism330dhcx_aux_gy_full_scale_set
 4146              		.syntax unified
 4147              		.thumb
 4148              		.thumb_func
 4150              	ism330dhcx_aux_gy_full_scale_set:
 4151              		@ args = 0, pretend = 0, frame = 8
 4152              		@ frame_needed = 0, uses_anonymous_args = 0
 4153 0000 30B5     		push	{r4, r5, lr}
 4154 0002 83B0     		sub	sp, sp, #12
 4155 0004 0546     		mov	r5, r0
 4156 0006 0C46     		mov	r4, r1
 4157 0008 0123     		movs	r3, #1
 4158 000a 01AA     		add	r2, sp, #4
ARM GAS  C:\Temp\ccOH3Pt6.s 			page 70


 4159 000c 7021     		movs	r1, #112
 4160 000e FFF7FEFF 		bl	ism330dhcx_read_reg
 4161 0012 08B1     		cbz	r0, .L511
 4162              	.L508:
 4163 0014 03B0     		add	sp, sp, #12
 4164              		@ sp needed
 4165 0016 30BD     		pop	{r4, r5, pc}
 4166              	.L511:
 4167 0018 9DF80430 		ldrb	r3, [sp, #4]	@ zero_extendqisi2
 4168 001c 64F38303 		bfi	r3, r4, #2, #2
 4169 0020 8DF80430 		strb	r3, [sp, #4]
 4170 0024 C4F38001 		ubfx	r1, r4, #2, #1
 4171 0028 DBB2     		uxtb	r3, r3
 4172 002a 61F34103 		bfi	r3, r1, #1, #1
 4173 002e 8DF80430 		strb	r3, [sp, #4]
 4174 0032 0123     		movs	r3, #1
 4175 0034 01AA     		add	r2, sp, #4
 4176 0036 7021     		movs	r1, #112
 4177 0038 2846     		mov	r0, r5
 4178 003a FFF7FEFF 		bl	ism330dhcx_write_reg
 4179 003e E9E7     		b	.L508
 4181              		.section	.text.ism330dhcx_aux_gy_full_scale_get,"ax",%progbits
 4182              		.align	1
 4183              		.global	ism330dhcx_aux_gy_full_scale_get
 4184              		.syntax unified
 4185              		.thumb
 4186              		.thumb_func
 4188              	ism330dhcx_aux_gy_full_scale_get:
 4189              		@ args = 0, pretend = 0, frame = 8
 4190              		@ frame_needed = 0, uses_anonymous_args = 0
 4191 0000 10B5     		push	{r4, lr}
 4192 0002 82B0     		sub	sp, sp, #8
 4193 0004 0C46     		mov	r4, r1
 4194 0006 0123     		movs	r3, #1
 4195 0008 01AA     		add	r2, sp, #4
 4196 000a 7021     		movs	r1, #112
 4197 000c FFF7FEFF 		bl	ism330dhcx_read_reg
 4198 0010 9DF80430 		ldrb	r3, [sp, #4]	@ zero_extendqisi2
 4199 0014 C3F34002 		ubfx	r2, r3, #1, #1
 4200 0018 C3F38103 		ubfx	r3, r3, #2, #2
 4201 001c 03EB8203 		add	r3, r3, r2, lsl #2
 4202 0020 042B     		cmp	r3, #4
 4203 0022 14D8     		bhi	.L513
 4204 0024 DFE803F0 		tbb	[pc, r3]
 4205              	.L515:
 4206 0028 03       		.byte	(.L519-.L515)/2
 4207 0029 0A       		.byte	(.L518-.L515)/2
 4208 002a 0D       		.byte	(.L517-.L515)/2
 4209 002b 10       		.byte	(.L516-.L515)/2
 4210 002c 07       		.byte	(.L514-.L515)/2
 4211 002d 00       		.p2align 1
 4212              	.L519:
 4213 002e 0023     		movs	r3, #0
 4214 0030 2370     		strb	r3, [r4]
 4215              	.L512:
 4216 0032 02B0     		add	sp, sp, #8
 4217              		@ sp needed
ARM GAS  C:\Temp\ccOH3Pt6.s 			page 71


 4218 0034 10BD     		pop	{r4, pc}
 4219              	.L514:
 4220 0036 0423     		movs	r3, #4
 4221 0038 2370     		strb	r3, [r4]
 4222 003a FAE7     		b	.L512
 4223              	.L518:
 4224 003c 0123     		movs	r3, #1
 4225 003e 2370     		strb	r3, [r4]
 4226 0040 F7E7     		b	.L512
 4227              	.L517:
 4228 0042 0223     		movs	r3, #2
 4229 0044 2370     		strb	r3, [r4]
 4230 0046 F4E7     		b	.L512
 4231              	.L516:
 4232 0048 0323     		movs	r3, #3
 4233 004a 2370     		strb	r3, [r4]
 4234 004c F1E7     		b	.L512
 4235              	.L513:
 4236 004e 0023     		movs	r3, #0
 4237 0050 2370     		strb	r3, [r4]
 4238 0052 EEE7     		b	.L512
 4240              		.section	.text.ism330dhcx_aux_spi_mode_set,"ax",%progbits
 4241              		.align	1
 4242              		.global	ism330dhcx_aux_spi_mode_set
 4243              		.syntax unified
 4244              		.thumb
 4245              		.thumb_func
 4247              	ism330dhcx_aux_spi_mode_set:
 4248              		@ args = 0, pretend = 0, frame = 8
 4249              		@ frame_needed = 0, uses_anonymous_args = 0
 4250 0000 30B5     		push	{r4, r5, lr}
 4251 0002 83B0     		sub	sp, sp, #12
 4252 0004 0446     		mov	r4, r0
 4253 0006 0D46     		mov	r5, r1
 4254 0008 0123     		movs	r3, #1
 4255 000a 01AA     		add	r2, sp, #4
 4256 000c 7021     		movs	r1, #112
 4257 000e FFF7FEFF 		bl	ism330dhcx_read_reg
 4258 0012 08B1     		cbz	r0, .L525
 4259              	.L522:
 4260 0014 03B0     		add	sp, sp, #12
 4261              		@ sp needed
 4262 0016 30BD     		pop	{r4, r5, pc}
 4263              	.L525:
 4264 0018 9DF80430 		ldrb	r3, [sp, #4]	@ zero_extendqisi2
 4265 001c 65F34513 		bfi	r3, r5, #5, #1
 4266 0020 8DF80430 		strb	r3, [sp, #4]
 4267 0024 0123     		movs	r3, #1
 4268 0026 01AA     		add	r2, sp, #4
 4269 0028 7021     		movs	r1, #112
 4270 002a 2046     		mov	r0, r4
 4271 002c FFF7FEFF 		bl	ism330dhcx_write_reg
 4272 0030 F0E7     		b	.L522
 4274              		.section	.text.ism330dhcx_aux_spi_mode_get,"ax",%progbits
 4275              		.align	1
 4276              		.global	ism330dhcx_aux_spi_mode_get
 4277              		.syntax unified
ARM GAS  C:\Temp\ccOH3Pt6.s 			page 72


 4278              		.thumb
 4279              		.thumb_func
 4281              	ism330dhcx_aux_spi_mode_get:
 4282              		@ args = 0, pretend = 0, frame = 8
 4283              		@ frame_needed = 0, uses_anonymous_args = 0
 4284 0000 10B5     		push	{r4, lr}
 4285 0002 82B0     		sub	sp, sp, #8
 4286 0004 0C46     		mov	r4, r1
 4287 0006 0123     		movs	r3, #1
 4288 0008 01AA     		add	r2, sp, #4
 4289 000a 7021     		movs	r1, #112
 4290 000c FFF7FEFF 		bl	ism330dhcx_read_reg
 4291 0010 9DF80430 		ldrb	r3, [sp, #4]	@ zero_extendqisi2
 4292 0014 C3F34012 		ubfx	r2, r3, #5, #1
 4293 0018 13F0200F 		tst	r3, #32
 4294 001c 03D0     		beq	.L527
 4295 001e 32B9     		cbnz	r2, .L528
 4296 0020 0023     		movs	r3, #0
 4297 0022 2370     		strb	r3, [r4]
 4298 0024 01E0     		b	.L526
 4299              	.L527:
 4300 0026 0023     		movs	r3, #0
 4301 0028 2370     		strb	r3, [r4]
 4302              	.L526:
 4303 002a 02B0     		add	sp, sp, #8
 4304              		@ sp needed
 4305 002c 10BD     		pop	{r4, pc}
 4306              	.L528:
 4307 002e 0123     		movs	r3, #1
 4308 0030 2370     		strb	r3, [r4]
 4309 0032 FAE7     		b	.L526
 4311              		.section	.text.ism330dhcx_aux_gy_lp1_bandwidth_set,"ax",%progbits
 4312              		.align	1
 4313              		.global	ism330dhcx_aux_gy_lp1_bandwidth_set
 4314              		.syntax unified
 4315              		.thumb
 4316              		.thumb_func
 4318              	ism330dhcx_aux_gy_lp1_bandwidth_set:
 4319              		@ args = 0, pretend = 0, frame = 8
 4320              		@ frame_needed = 0, uses_anonymous_args = 0
 4321 0000 30B5     		push	{r4, r5, lr}
 4322 0002 83B0     		sub	sp, sp, #12
 4323 0004 0446     		mov	r4, r0
 4324 0006 0D46     		mov	r5, r1
 4325 0008 0123     		movs	r3, #1
 4326 000a 01AA     		add	r2, sp, #4
 4327 000c 7121     		movs	r1, #113
 4328 000e FFF7FEFF 		bl	ism330dhcx_read_reg
 4329 0012 08B1     		cbz	r0, .L536
 4330              	.L533:
 4331 0014 03B0     		add	sp, sp, #12
 4332              		@ sp needed
 4333 0016 30BD     		pop	{r4, r5, pc}
 4334              	.L536:
 4335 0018 9DF80430 		ldrb	r3, [sp, #4]	@ zero_extendqisi2
 4336 001c 65F34203 		bfi	r3, r5, #1, #2
 4337 0020 8DF80430 		strb	r3, [sp, #4]
ARM GAS  C:\Temp\ccOH3Pt6.s 			page 73


 4338 0024 0123     		movs	r3, #1
 4339 0026 01AA     		add	r2, sp, #4
 4340 0028 7121     		movs	r1, #113
 4341 002a 2046     		mov	r0, r4
 4342 002c FFF7FEFF 		bl	ism330dhcx_write_reg
 4343 0030 F0E7     		b	.L533
 4345              		.section	.text.ism330dhcx_aux_gy_lp1_bandwidth_get,"ax",%progbits
 4346              		.align	1
 4347              		.global	ism330dhcx_aux_gy_lp1_bandwidth_get
 4348              		.syntax unified
 4349              		.thumb
 4350              		.thumb_func
 4352              	ism330dhcx_aux_gy_lp1_bandwidth_get:
 4353              		@ args = 0, pretend = 0, frame = 8
 4354              		@ frame_needed = 0, uses_anonymous_args = 0
 4355 0000 10B5     		push	{r4, lr}
 4356 0002 82B0     		sub	sp, sp, #8
 4357 0004 0C46     		mov	r4, r1
 4358 0006 0123     		movs	r3, #1
 4359 0008 01AA     		add	r2, sp, #4
 4360 000a 7121     		movs	r1, #113
 4361 000c FFF7FEFF 		bl	ism330dhcx_read_reg
 4362 0010 9DF80430 		ldrb	r3, [sp, #4]	@ zero_extendqisi2
 4363 0014 C3F34103 		ubfx	r3, r3, #1, #2
 4364 0018 032B     		cmp	r3, #3
 4365 001a 10D8     		bhi	.L538
 4366 001c DFE803F0 		tbb	[pc, r3]
 4367              	.L540:
 4368 0020 02       		.byte	(.L543-.L540)/2
 4369 0021 06       		.byte	(.L542-.L540)/2
 4370 0022 09       		.byte	(.L541-.L540)/2
 4371 0023 0C       		.byte	(.L539-.L540)/2
 4372              		.p2align 1
 4373              	.L543:
 4374 0024 0023     		movs	r3, #0
 4375 0026 2370     		strb	r3, [r4]
 4376              	.L537:
 4377 0028 02B0     		add	sp, sp, #8
 4378              		@ sp needed
 4379 002a 10BD     		pop	{r4, pc}
 4380              	.L542:
 4381 002c 0123     		movs	r3, #1
 4382 002e 2370     		strb	r3, [r4]
 4383 0030 FAE7     		b	.L537
 4384              	.L541:
 4385 0032 0223     		movs	r3, #2
 4386 0034 2370     		strb	r3, [r4]
 4387 0036 F7E7     		b	.L537
 4388              	.L539:
 4389 0038 0323     		movs	r3, #3
 4390 003a 2370     		strb	r3, [r4]
 4391 003c F4E7     		b	.L537
 4392              	.L538:
 4393 003e 0023     		movs	r3, #0
 4394 0040 2370     		strb	r3, [r4]
 4395 0042 F1E7     		b	.L537
 4397              		.section	.text.ism330dhcx_aux_gy_hp_bandwidth_set,"ax",%progbits
ARM GAS  C:\Temp\ccOH3Pt6.s 			page 74


 4398              		.align	1
 4399              		.global	ism330dhcx_aux_gy_hp_bandwidth_set
 4400              		.syntax unified
 4401              		.thumb
 4402              		.thumb_func
 4404              	ism330dhcx_aux_gy_hp_bandwidth_set:
 4405              		@ args = 0, pretend = 0, frame = 8
 4406              		@ frame_needed = 0, uses_anonymous_args = 0
 4407 0000 30B5     		push	{r4, r5, lr}
 4408 0002 83B0     		sub	sp, sp, #12
 4409 0004 0546     		mov	r5, r0
 4410 0006 0C46     		mov	r4, r1
 4411 0008 0123     		movs	r3, #1
 4412 000a 01AA     		add	r2, sp, #4
 4413 000c 7121     		movs	r1, #113
 4414 000e FFF7FEFF 		bl	ism330dhcx_read_reg
 4415 0012 08B1     		cbz	r0, .L549
 4416              	.L546:
 4417 0014 03B0     		add	sp, sp, #12
 4418              		@ sp needed
 4419 0016 30BD     		pop	{r4, r5, pc}
 4420              	.L549:
 4421 0018 9DF80430 		ldrb	r3, [sp, #4]	@ zero_extendqisi2
 4422 001c 64F30513 		bfi	r3, r4, #4, #2
 4423 0020 8DF80430 		strb	r3, [sp, #4]
 4424 0024 C4F30011 		ubfx	r1, r4, #4, #1
 4425 0028 DBB2     		uxtb	r3, r3
 4426 002a 61F30003 		bfi	r3, r1, #0, #1
 4427 002e 8DF80430 		strb	r3, [sp, #4]
 4428 0032 0123     		movs	r3, #1
 4429 0034 01AA     		add	r2, sp, #4
 4430 0036 7121     		movs	r1, #113
 4431 0038 2846     		mov	r0, r5
 4432 003a FFF7FEFF 		bl	ism330dhcx_write_reg
 4433 003e E9E7     		b	.L546
 4435              		.section	.text.ism330dhcx_aux_gy_hp_bandwidth_get,"ax",%progbits
 4436              		.align	1
 4437              		.global	ism330dhcx_aux_gy_hp_bandwidth_get
 4438              		.syntax unified
 4439              		.thumb
 4440              		.thumb_func
 4442              	ism330dhcx_aux_gy_hp_bandwidth_get:
 4443              		@ args = 0, pretend = 0, frame = 8
 4444              		@ frame_needed = 0, uses_anonymous_args = 0
 4445 0000 10B5     		push	{r4, lr}
 4446 0002 82B0     		sub	sp, sp, #8
 4447 0004 0C46     		mov	r4, r1
 4448 0006 0123     		movs	r3, #1
 4449 0008 01AA     		add	r2, sp, #4
 4450 000a 7121     		movs	r1, #113
 4451 000c FFF7FEFF 		bl	ism330dhcx_read_reg
 4452 0010 9DF80430 		ldrb	r3, [sp, #4]	@ zero_extendqisi2
 4453 0014 03F00102 		and	r2, r3, #1
 4454 0018 C3F30113 		ubfx	r3, r3, #4, #2
 4455 001c 03EB0213 		add	r3, r3, r2, lsl #4
 4456 0020 132B     		cmp	r3, #19
 4457 0022 1BD8     		bhi	.L551
ARM GAS  C:\Temp\ccOH3Pt6.s 			page 75


 4458 0024 DFE803F0 		tbb	[pc, r3]
 4459              	.L553:
 4460 0028 0A       		.byte	(.L557-.L553)/2
 4461 0029 1A       		.byte	(.L551-.L553)/2
 4462 002a 1A       		.byte	(.L551-.L553)/2
 4463 002b 1A       		.byte	(.L551-.L553)/2
 4464 002c 1A       		.byte	(.L551-.L553)/2
 4465 002d 1A       		.byte	(.L551-.L553)/2
 4466 002e 1A       		.byte	(.L551-.L553)/2
 4467 002f 1A       		.byte	(.L551-.L553)/2
 4468 0030 1A       		.byte	(.L551-.L553)/2
 4469 0031 1A       		.byte	(.L551-.L553)/2
 4470 0032 1A       		.byte	(.L551-.L553)/2
 4471 0033 1A       		.byte	(.L551-.L553)/2
 4472 0034 1A       		.byte	(.L551-.L553)/2
 4473 0035 1A       		.byte	(.L551-.L553)/2
 4474 0036 1A       		.byte	(.L551-.L553)/2
 4475 0037 1A       		.byte	(.L551-.L553)/2
 4476 0038 0E       		.byte	(.L556-.L553)/2
 4477 0039 11       		.byte	(.L555-.L553)/2
 4478 003a 14       		.byte	(.L554-.L553)/2
 4479 003b 17       		.byte	(.L552-.L553)/2
 4480              		.p2align 1
 4481              	.L557:
 4482 003c 0023     		movs	r3, #0
 4483 003e 2370     		strb	r3, [r4]
 4484              	.L550:
 4485 0040 02B0     		add	sp, sp, #8
 4486              		@ sp needed
 4487 0042 10BD     		pop	{r4, pc}
 4488              	.L556:
 4489 0044 1023     		movs	r3, #16
 4490 0046 2370     		strb	r3, [r4]
 4491 0048 FAE7     		b	.L550
 4492              	.L555:
 4493 004a 1123     		movs	r3, #17
 4494 004c 2370     		strb	r3, [r4]
 4495 004e F7E7     		b	.L550
 4496              	.L554:
 4497 0050 1223     		movs	r3, #18
 4498 0052 2370     		strb	r3, [r4]
 4499 0054 F4E7     		b	.L550
 4500              	.L552:
 4501 0056 1323     		movs	r3, #19
 4502 0058 2370     		strb	r3, [r4]
 4503 005a F1E7     		b	.L550
 4504              	.L551:
 4505 005c 0023     		movs	r3, #0
 4506 005e 2370     		strb	r3, [r4]
 4507 0060 EEE7     		b	.L550
 4509              		.section	.text.ism330dhcx_aux_gy_clamp_set,"ax",%progbits
 4510              		.align	1
 4511              		.global	ism330dhcx_aux_gy_clamp_set
 4512              		.syntax unified
 4513              		.thumb
 4514              		.thumb_func
 4516              	ism330dhcx_aux_gy_clamp_set:
ARM GAS  C:\Temp\ccOH3Pt6.s 			page 76


 4517              		@ args = 0, pretend = 0, frame = 8
 4518              		@ frame_needed = 0, uses_anonymous_args = 0
 4519 0000 30B5     		push	{r4, r5, lr}
 4520 0002 83B0     		sub	sp, sp, #12
 4521 0004 0446     		mov	r4, r0
 4522 0006 0D46     		mov	r5, r1
 4523 0008 0123     		movs	r3, #1
 4524 000a 01AA     		add	r2, sp, #4
 4525 000c 7221     		movs	r1, #114
 4526 000e FFF7FEFF 		bl	ism330dhcx_read_reg
 4527 0012 08B1     		cbz	r0, .L563
 4528              	.L560:
 4529 0014 03B0     		add	sp, sp, #12
 4530              		@ sp needed
 4531 0016 30BD     		pop	{r4, r5, pc}
 4532              	.L563:
 4533 0018 9DF80430 		ldrb	r3, [sp, #4]	@ zero_extendqisi2
 4534 001c 65F30003 		bfi	r3, r5, #0, #1
 4535 0020 8DF80430 		strb	r3, [sp, #4]
 4536 0024 0123     		movs	r3, #1
 4537 0026 01AA     		add	r2, sp, #4
 4538 0028 7221     		movs	r1, #114
 4539 002a 2046     		mov	r0, r4
 4540 002c FFF7FEFF 		bl	ism330dhcx_write_reg
 4541 0030 F0E7     		b	.L560
 4543              		.section	.text.ism330dhcx_aux_gy_clamp_get,"ax",%progbits
 4544              		.align	1
 4545              		.global	ism330dhcx_aux_gy_clamp_get
 4546              		.syntax unified
 4547              		.thumb
 4548              		.thumb_func
 4550              	ism330dhcx_aux_gy_clamp_get:
 4551              		@ args = 0, pretend = 0, frame = 8
 4552              		@ frame_needed = 0, uses_anonymous_args = 0
 4553 0000 10B5     		push	{r4, lr}
 4554 0002 82B0     		sub	sp, sp, #8
 4555 0004 0C46     		mov	r4, r1
 4556 0006 0123     		movs	r3, #1
 4557 0008 01AA     		add	r2, sp, #4
 4558 000a 7221     		movs	r1, #114
 4559 000c FFF7FEFF 		bl	ism330dhcx_read_reg
 4560 0010 9DF80430 		ldrb	r3, [sp, #4]	@ zero_extendqisi2
 4561 0014 13F00103 		ands	r3, r3, #1
 4562 0018 03D0     		beq	.L565
 4563 001a 33B9     		cbnz	r3, .L566
 4564 001c 0023     		movs	r3, #0
 4565 001e 2370     		strb	r3, [r4]
 4566 0020 01E0     		b	.L564
 4567              	.L565:
 4568 0022 0023     		movs	r3, #0
 4569 0024 2370     		strb	r3, [r4]
 4570              	.L564:
 4571 0026 02B0     		add	sp, sp, #8
 4572              		@ sp needed
 4573 0028 10BD     		pop	{r4, pc}
 4574              	.L566:
 4575 002a 0123     		movs	r3, #1
ARM GAS  C:\Temp\ccOH3Pt6.s 			page 77


 4576 002c 2370     		strb	r3, [r4]
 4577 002e FAE7     		b	.L564
 4579              		.section	.text.ism330dhcx_aux_gy_self_test_set,"ax",%progbits
 4580              		.align	1
 4581              		.global	ism330dhcx_aux_gy_self_test_set
 4582              		.syntax unified
 4583              		.thumb
 4584              		.thumb_func
 4586              	ism330dhcx_aux_gy_self_test_set:
 4587              		@ args = 0, pretend = 0, frame = 8
 4588              		@ frame_needed = 0, uses_anonymous_args = 0
 4589 0000 30B5     		push	{r4, r5, lr}
 4590 0002 83B0     		sub	sp, sp, #12
 4591 0004 0446     		mov	r4, r0
 4592 0006 0D46     		mov	r5, r1
 4593 0008 0123     		movs	r3, #1
 4594 000a 01AA     		add	r2, sp, #4
 4595 000c 7221     		movs	r1, #114
 4596 000e FFF7FEFF 		bl	ism330dhcx_read_reg
 4597 0012 08B1     		cbz	r0, .L574
 4598              	.L571:
 4599 0014 03B0     		add	sp, sp, #12
 4600              		@ sp needed
 4601 0016 30BD     		pop	{r4, r5, pc}
 4602              	.L574:
 4603 0018 9DF80430 		ldrb	r3, [sp, #4]	@ zero_extendqisi2
 4604 001c 65F34203 		bfi	r3, r5, #1, #2
 4605 0020 8DF80430 		strb	r3, [sp, #4]
 4606 0024 0123     		movs	r3, #1
 4607 0026 01AA     		add	r2, sp, #4
 4608 0028 7221     		movs	r1, #114
 4609 002a 2046     		mov	r0, r4
 4610 002c FFF7FEFF 		bl	ism330dhcx_write_reg
 4611 0030 F0E7     		b	.L571
 4613              		.section	.text.ism330dhcx_aux_gy_self_test_get,"ax",%progbits
 4614              		.align	1
 4615              		.global	ism330dhcx_aux_gy_self_test_get
 4616              		.syntax unified
 4617              		.thumb
 4618              		.thumb_func
 4620              	ism330dhcx_aux_gy_self_test_get:
 4621              		@ args = 0, pretend = 0, frame = 8
 4622              		@ frame_needed = 0, uses_anonymous_args = 0
 4623 0000 10B5     		push	{r4, lr}
 4624 0002 82B0     		sub	sp, sp, #8
 4625 0004 0C46     		mov	r4, r1
 4626 0006 0123     		movs	r3, #1
 4627 0008 01AA     		add	r2, sp, #4
 4628 000a 7221     		movs	r1, #114
 4629 000c FFF7FEFF 		bl	ism330dhcx_read_reg
 4630 0010 9DF80430 		ldrb	r3, [sp, #4]	@ zero_extendqisi2
 4631 0014 C3F34103 		ubfx	r3, r3, #1, #2
 4632 0018 012B     		cmp	r3, #1
 4633 001a 08D0     		beq	.L576
 4634 001c 032B     		cmp	r3, #3
 4635 001e 09D0     		beq	.L577
 4636 0020 13B1     		cbz	r3, .L581
ARM GAS  C:\Temp\ccOH3Pt6.s 			page 78


 4637 0022 0023     		movs	r3, #0
 4638 0024 2370     		strb	r3, [r4]
 4639 0026 00E0     		b	.L575
 4640              	.L581:
 4641 0028 2370     		strb	r3, [r4]
 4642              	.L575:
 4643 002a 02B0     		add	sp, sp, #8
 4644              		@ sp needed
 4645 002c 10BD     		pop	{r4, pc}
 4646              	.L576:
 4647 002e 0123     		movs	r3, #1
 4648 0030 2370     		strb	r3, [r4]
 4649 0032 FAE7     		b	.L575
 4650              	.L577:
 4651 0034 0323     		movs	r3, #3
 4652 0036 2370     		strb	r3, [r4]
 4653 0038 F7E7     		b	.L575
 4655              		.section	.text.ism330dhcx_aux_xl_bandwidth_set,"ax",%progbits
 4656              		.align	1
 4657              		.global	ism330dhcx_aux_xl_bandwidth_set
 4658              		.syntax unified
 4659              		.thumb
 4660              		.thumb_func
 4662              	ism330dhcx_aux_xl_bandwidth_set:
 4663              		@ args = 0, pretend = 0, frame = 8
 4664              		@ frame_needed = 0, uses_anonymous_args = 0
 4665 0000 30B5     		push	{r4, r5, lr}
 4666 0002 83B0     		sub	sp, sp, #12
 4667 0004 0446     		mov	r4, r0
 4668 0006 0D46     		mov	r5, r1
 4669 0008 0123     		movs	r3, #1
 4670 000a 01AA     		add	r2, sp, #4
 4671 000c 7221     		movs	r1, #114
 4672 000e FFF7FEFF 		bl	ism330dhcx_read_reg
 4673 0012 08B1     		cbz	r0, .L585
 4674              	.L582:
 4675 0014 03B0     		add	sp, sp, #12
 4676              		@ sp needed
 4677 0016 30BD     		pop	{r4, r5, pc}
 4678              	.L585:
 4679 0018 9DF80430 		ldrb	r3, [sp, #4]	@ zero_extendqisi2
 4680 001c 65F3C503 		bfi	r3, r5, #3, #3
 4681 0020 8DF80430 		strb	r3, [sp, #4]
 4682 0024 0123     		movs	r3, #1
 4683 0026 01AA     		add	r2, sp, #4
 4684 0028 7221     		movs	r1, #114
 4685 002a 2046     		mov	r0, r4
 4686 002c FFF7FEFF 		bl	ism330dhcx_write_reg
 4687 0030 F0E7     		b	.L582
 4689              		.section	.text.ism330dhcx_aux_xl_bandwidth_get,"ax",%progbits
 4690              		.align	1
 4691              		.global	ism330dhcx_aux_xl_bandwidth_get
 4692              		.syntax unified
 4693              		.thumb
 4694              		.thumb_func
 4696              	ism330dhcx_aux_xl_bandwidth_get:
 4697              		@ args = 0, pretend = 0, frame = 8
ARM GAS  C:\Temp\ccOH3Pt6.s 			page 79


 4698              		@ frame_needed = 0, uses_anonymous_args = 0
 4699 0000 10B5     		push	{r4, lr}
 4700 0002 82B0     		sub	sp, sp, #8
 4701 0004 0C46     		mov	r4, r1
 4702 0006 0123     		movs	r3, #1
 4703 0008 01AA     		add	r2, sp, #4
 4704 000a 7221     		movs	r1, #114
 4705 000c FFF7FEFF 		bl	ism330dhcx_read_reg
 4706 0010 9DF80430 		ldrb	r3, [sp, #4]	@ zero_extendqisi2
 4707 0014 C3F3C203 		ubfx	r3, r3, #3, #3
 4708 0018 072B     		cmp	r3, #7
 4709 001a 1ED8     		bhi	.L587
 4710 001c DFE803F0 		tbb	[pc, r3]
 4711              	.L589:
 4712 0020 04       		.byte	(.L596-.L589)/2
 4713 0021 08       		.byte	(.L595-.L589)/2
 4714 0022 0B       		.byte	(.L594-.L589)/2
 4715 0023 0E       		.byte	(.L593-.L589)/2
 4716 0024 11       		.byte	(.L592-.L589)/2
 4717 0025 14       		.byte	(.L591-.L589)/2
 4718 0026 17       		.byte	(.L590-.L589)/2
 4719 0027 1A       		.byte	(.L588-.L589)/2
 4720              		.p2align 1
 4721              	.L596:
 4722 0028 0023     		movs	r3, #0
 4723 002a 2370     		strb	r3, [r4]
 4724              	.L586:
 4725 002c 02B0     		add	sp, sp, #8
 4726              		@ sp needed
 4727 002e 10BD     		pop	{r4, pc}
 4728              	.L595:
 4729 0030 0123     		movs	r3, #1
 4730 0032 2370     		strb	r3, [r4]
 4731 0034 FAE7     		b	.L586
 4732              	.L594:
 4733 0036 0223     		movs	r3, #2
 4734 0038 2370     		strb	r3, [r4]
 4735 003a F7E7     		b	.L586
 4736              	.L593:
 4737 003c 0323     		movs	r3, #3
 4738 003e 2370     		strb	r3, [r4]
 4739 0040 F4E7     		b	.L586
 4740              	.L592:
 4741 0042 0423     		movs	r3, #4
 4742 0044 2370     		strb	r3, [r4]
 4743 0046 F1E7     		b	.L586
 4744              	.L591:
 4745 0048 0523     		movs	r3, #5
 4746 004a 2370     		strb	r3, [r4]
 4747 004c EEE7     		b	.L586
 4748              	.L590:
 4749 004e 0623     		movs	r3, #6
 4750 0050 2370     		strb	r3, [r4]
 4751 0052 EBE7     		b	.L586
 4752              	.L588:
 4753 0054 0723     		movs	r3, #7
 4754 0056 2370     		strb	r3, [r4]
ARM GAS  C:\Temp\ccOH3Pt6.s 			page 80


 4755 0058 E8E7     		b	.L586
 4756              	.L587:
 4757 005a 0023     		movs	r3, #0
 4758 005c 2370     		strb	r3, [r4]
 4759 005e E5E7     		b	.L586
 4761              		.section	.text.ism330dhcx_aux_xl_full_scale_set,"ax",%progbits
 4762              		.align	1
 4763              		.global	ism330dhcx_aux_xl_full_scale_set
 4764              		.syntax unified
 4765              		.thumb
 4766              		.thumb_func
 4768              	ism330dhcx_aux_xl_full_scale_set:
 4769              		@ args = 0, pretend = 0, frame = 8
 4770              		@ frame_needed = 0, uses_anonymous_args = 0
 4771 0000 30B5     		push	{r4, r5, lr}
 4772 0002 83B0     		sub	sp, sp, #12
 4773 0004 0446     		mov	r4, r0
 4774 0006 0D46     		mov	r5, r1
 4775 0008 0123     		movs	r3, #1
 4776 000a 01AA     		add	r2, sp, #4
 4777 000c 7221     		movs	r1, #114
 4778 000e FFF7FEFF 		bl	ism330dhcx_read_reg
 4779 0012 08B1     		cbz	r0, .L602
 4780              	.L599:
 4781 0014 03B0     		add	sp, sp, #12
 4782              		@ sp needed
 4783 0016 30BD     		pop	{r4, r5, pc}
 4784              	.L602:
 4785 0018 9DF80430 		ldrb	r3, [sp, #4]	@ zero_extendqisi2
 4786 001c 65F38713 		bfi	r3, r5, #6, #2
 4787 0020 8DF80430 		strb	r3, [sp, #4]
 4788 0024 0123     		movs	r3, #1
 4789 0026 01AA     		add	r2, sp, #4
 4790 0028 7221     		movs	r1, #114
 4791 002a 2046     		mov	r0, r4
 4792 002c FFF7FEFF 		bl	ism330dhcx_write_reg
 4793 0030 F0E7     		b	.L599
 4795              		.section	.text.ism330dhcx_aux_xl_full_scale_get,"ax",%progbits
 4796              		.align	1
 4797              		.global	ism330dhcx_aux_xl_full_scale_get
 4798              		.syntax unified
 4799              		.thumb
 4800              		.thumb_func
 4802              	ism330dhcx_aux_xl_full_scale_get:
 4803              		@ args = 0, pretend = 0, frame = 8
 4804              		@ frame_needed = 0, uses_anonymous_args = 0
 4805 0000 10B5     		push	{r4, lr}
 4806 0002 82B0     		sub	sp, sp, #8
 4807 0004 0C46     		mov	r4, r1
 4808 0006 0123     		movs	r3, #1
 4809 0008 01AA     		add	r2, sp, #4
 4810 000a 7221     		movs	r1, #114
 4811 000c FFF7FEFF 		bl	ism330dhcx_read_reg
 4812 0010 9DF80430 		ldrb	r3, [sp, #4]	@ zero_extendqisi2
 4813 0014 9B09     		lsrs	r3, r3, #6
 4814 0016 032B     		cmp	r3, #3
 4815 0018 10D8     		bhi	.L604
ARM GAS  C:\Temp\ccOH3Pt6.s 			page 81


 4816 001a DFE803F0 		tbb	[pc, r3]
 4817              	.L606:
 4818 001e 02       		.byte	(.L609-.L606)/2
 4819 001f 06       		.byte	(.L608-.L606)/2
 4820 0020 09       		.byte	(.L607-.L606)/2
 4821 0021 0C       		.byte	(.L605-.L606)/2
 4822              		.p2align 1
 4823              	.L609:
 4824 0022 0023     		movs	r3, #0
 4825 0024 2370     		strb	r3, [r4]
 4826              	.L603:
 4827 0026 02B0     		add	sp, sp, #8
 4828              		@ sp needed
 4829 0028 10BD     		pop	{r4, pc}
 4830              	.L608:
 4831 002a 0123     		movs	r3, #1
 4832 002c 2370     		strb	r3, [r4]
 4833 002e FAE7     		b	.L603
 4834              	.L607:
 4835 0030 0223     		movs	r3, #2
 4836 0032 2370     		strb	r3, [r4]
 4837 0034 F7E7     		b	.L603
 4838              	.L605:
 4839 0036 0323     		movs	r3, #3
 4840 0038 2370     		strb	r3, [r4]
 4841 003a F4E7     		b	.L603
 4842              	.L604:
 4843 003c 0023     		movs	r3, #0
 4844 003e 2370     		strb	r3, [r4]
 4845 0040 F1E7     		b	.L603
 4847              		.section	.text.ism330dhcx_sdo_sa0_mode_set,"ax",%progbits
 4848              		.align	1
 4849              		.global	ism330dhcx_sdo_sa0_mode_set
 4850              		.syntax unified
 4851              		.thumb
 4852              		.thumb_func
 4854              	ism330dhcx_sdo_sa0_mode_set:
 4855              		@ args = 0, pretend = 0, frame = 8
 4856              		@ frame_needed = 0, uses_anonymous_args = 0
 4857 0000 30B5     		push	{r4, r5, lr}
 4858 0002 83B0     		sub	sp, sp, #12
 4859 0004 0446     		mov	r4, r0
 4860 0006 0D46     		mov	r5, r1
 4861 0008 0123     		movs	r3, #1
 4862 000a 01AA     		add	r2, sp, #4
 4863 000c 0221     		movs	r1, #2
 4864 000e FFF7FEFF 		bl	ism330dhcx_read_reg
 4865 0012 08B1     		cbz	r0, .L615
 4866              	.L612:
 4867 0014 03B0     		add	sp, sp, #12
 4868              		@ sp needed
 4869 0016 30BD     		pop	{r4, r5, pc}
 4870              	.L615:
 4871 0018 9DF80430 		ldrb	r3, [sp, #4]	@ zero_extendqisi2
 4872 001c 65F38613 		bfi	r3, r5, #6, #1
 4873 0020 8DF80430 		strb	r3, [sp, #4]
 4874 0024 0123     		movs	r3, #1
ARM GAS  C:\Temp\ccOH3Pt6.s 			page 82


 4875 0026 01AA     		add	r2, sp, #4
 4876 0028 0221     		movs	r1, #2
 4877 002a 2046     		mov	r0, r4
 4878 002c FFF7FEFF 		bl	ism330dhcx_write_reg
 4879 0030 F0E7     		b	.L612
 4881              		.section	.text.ism330dhcx_sdo_sa0_mode_get,"ax",%progbits
 4882              		.align	1
 4883              		.global	ism330dhcx_sdo_sa0_mode_get
 4884              		.syntax unified
 4885              		.thumb
 4886              		.thumb_func
 4888              	ism330dhcx_sdo_sa0_mode_get:
 4889              		@ args = 0, pretend = 0, frame = 8
 4890              		@ frame_needed = 0, uses_anonymous_args = 0
 4891 0000 10B5     		push	{r4, lr}
 4892 0002 82B0     		sub	sp, sp, #8
 4893 0004 0C46     		mov	r4, r1
 4894 0006 0123     		movs	r3, #1
 4895 0008 01AA     		add	r2, sp, #4
 4896 000a 0221     		movs	r1, #2
 4897 000c FFF7FEFF 		bl	ism330dhcx_read_reg
 4898 0010 9DF80430 		ldrb	r3, [sp, #4]	@ zero_extendqisi2
 4899 0014 C3F38012 		ubfx	r2, r3, #6, #1
 4900 0018 13F0400F 		tst	r3, #64
 4901 001c 03D0     		beq	.L617
 4902 001e 32B9     		cbnz	r2, .L618
 4903 0020 0023     		movs	r3, #0
 4904 0022 2370     		strb	r3, [r4]
 4905 0024 01E0     		b	.L616
 4906              	.L617:
 4907 0026 0023     		movs	r3, #0
 4908 0028 2370     		strb	r3, [r4]
 4909              	.L616:
 4910 002a 02B0     		add	sp, sp, #8
 4911              		@ sp needed
 4912 002c 10BD     		pop	{r4, pc}
 4913              	.L618:
 4914 002e 0123     		movs	r3, #1
 4915 0030 2370     		strb	r3, [r4]
 4916 0032 FAE7     		b	.L616
 4918              		.section	.text.ism330dhcx_spi_mode_set,"ax",%progbits
 4919              		.align	1
 4920              		.global	ism330dhcx_spi_mode_set
 4921              		.syntax unified
 4922              		.thumb
 4923              		.thumb_func
 4925              	ism330dhcx_spi_mode_set:
 4926              		@ args = 0, pretend = 0, frame = 8
 4927              		@ frame_needed = 0, uses_anonymous_args = 0
 4928 0000 30B5     		push	{r4, r5, lr}
 4929 0002 83B0     		sub	sp, sp, #12
 4930 0004 0446     		mov	r4, r0
 4931 0006 0D46     		mov	r5, r1
 4932 0008 0123     		movs	r3, #1
 4933 000a 01AA     		add	r2, sp, #4
 4934 000c 1221     		movs	r1, #18
 4935 000e FFF7FEFF 		bl	ism330dhcx_read_reg
ARM GAS  C:\Temp\ccOH3Pt6.s 			page 83


 4936 0012 08B1     		cbz	r0, .L626
 4937              	.L623:
 4938 0014 03B0     		add	sp, sp, #12
 4939              		@ sp needed
 4940 0016 30BD     		pop	{r4, r5, pc}
 4941              	.L626:
 4942 0018 9DF80430 		ldrb	r3, [sp, #4]	@ zero_extendqisi2
 4943 001c 65F3C303 		bfi	r3, r5, #3, #1
 4944 0020 8DF80430 		strb	r3, [sp, #4]
 4945 0024 0123     		movs	r3, #1
 4946 0026 01AA     		add	r2, sp, #4
 4947 0028 1221     		movs	r1, #18
 4948 002a 2046     		mov	r0, r4
 4949 002c FFF7FEFF 		bl	ism330dhcx_write_reg
 4950 0030 F0E7     		b	.L623
 4952              		.section	.text.ism330dhcx_spi_mode_get,"ax",%progbits
 4953              		.align	1
 4954              		.global	ism330dhcx_spi_mode_get
 4955              		.syntax unified
 4956              		.thumb
 4957              		.thumb_func
 4959              	ism330dhcx_spi_mode_get:
 4960              		@ args = 0, pretend = 0, frame = 8
 4961              		@ frame_needed = 0, uses_anonymous_args = 0
 4962 0000 10B5     		push	{r4, lr}
 4963 0002 82B0     		sub	sp, sp, #8
 4964 0004 0C46     		mov	r4, r1
 4965 0006 0123     		movs	r3, #1
 4966 0008 01AA     		add	r2, sp, #4
 4967 000a 1221     		movs	r1, #18
 4968 000c FFF7FEFF 		bl	ism330dhcx_read_reg
 4969 0010 9DF80430 		ldrb	r3, [sp, #4]	@ zero_extendqisi2
 4970 0014 C3F3C002 		ubfx	r2, r3, #3, #1
 4971 0018 13F0080F 		tst	r3, #8
 4972 001c 03D0     		beq	.L628
 4973 001e 32B9     		cbnz	r2, .L629
 4974 0020 0023     		movs	r3, #0
 4975 0022 2370     		strb	r3, [r4]
 4976 0024 01E0     		b	.L627
 4977              	.L628:
 4978 0026 0023     		movs	r3, #0
 4979 0028 2370     		strb	r3, [r4]
 4980              	.L627:
 4981 002a 02B0     		add	sp, sp, #8
 4982              		@ sp needed
 4983 002c 10BD     		pop	{r4, pc}
 4984              	.L629:
 4985 002e 0123     		movs	r3, #1
 4986 0030 2370     		strb	r3, [r4]
 4987 0032 FAE7     		b	.L627
 4989              		.section	.text.ism330dhcx_i2c_interface_set,"ax",%progbits
 4990              		.align	1
 4991              		.global	ism330dhcx_i2c_interface_set
 4992              		.syntax unified
 4993              		.thumb
 4994              		.thumb_func
 4996              	ism330dhcx_i2c_interface_set:
ARM GAS  C:\Temp\ccOH3Pt6.s 			page 84


 4997              		@ args = 0, pretend = 0, frame = 8
 4998              		@ frame_needed = 0, uses_anonymous_args = 0
 4999 0000 30B5     		push	{r4, r5, lr}
 5000 0002 83B0     		sub	sp, sp, #12
 5001 0004 0446     		mov	r4, r0
 5002 0006 0D46     		mov	r5, r1
 5003 0008 0123     		movs	r3, #1
 5004 000a 01AA     		add	r2, sp, #4
 5005 000c 1321     		movs	r1, #19
 5006 000e FFF7FEFF 		bl	ism330dhcx_read_reg
 5007 0012 08B1     		cbz	r0, .L637
 5008              	.L634:
 5009 0014 03B0     		add	sp, sp, #12
 5010              		@ sp needed
 5011 0016 30BD     		pop	{r4, r5, pc}
 5012              	.L637:
 5013 0018 9DF80430 		ldrb	r3, [sp, #4]	@ zero_extendqisi2
 5014 001c 65F38203 		bfi	r3, r5, #2, #1
 5015 0020 8DF80430 		strb	r3, [sp, #4]
 5016 0024 0123     		movs	r3, #1
 5017 0026 01AA     		add	r2, sp, #4
 5018 0028 1321     		movs	r1, #19
 5019 002a 2046     		mov	r0, r4
 5020 002c FFF7FEFF 		bl	ism330dhcx_write_reg
 5021 0030 F0E7     		b	.L634
 5023              		.section	.text.ism330dhcx_i2c_interface_get,"ax",%progbits
 5024              		.align	1
 5025              		.global	ism330dhcx_i2c_interface_get
 5026              		.syntax unified
 5027              		.thumb
 5028              		.thumb_func
 5030              	ism330dhcx_i2c_interface_get:
 5031              		@ args = 0, pretend = 0, frame = 8
 5032              		@ frame_needed = 0, uses_anonymous_args = 0
 5033 0000 10B5     		push	{r4, lr}
 5034 0002 82B0     		sub	sp, sp, #8
 5035 0004 0C46     		mov	r4, r1
 5036 0006 0123     		movs	r3, #1
 5037 0008 01AA     		add	r2, sp, #4
 5038 000a 1321     		movs	r1, #19
 5039 000c FFF7FEFF 		bl	ism330dhcx_read_reg
 5040 0010 9DF80430 		ldrb	r3, [sp, #4]	@ zero_extendqisi2
 5041 0014 C3F38002 		ubfx	r2, r3, #2, #1
 5042 0018 13F0040F 		tst	r3, #4
 5043 001c 03D0     		beq	.L639
 5044 001e 32B9     		cbnz	r2, .L640
 5045 0020 0023     		movs	r3, #0
 5046 0022 2370     		strb	r3, [r4]
 5047 0024 01E0     		b	.L638
 5048              	.L639:
 5049 0026 0023     		movs	r3, #0
 5050 0028 2370     		strb	r3, [r4]
 5051              	.L638:
 5052 002a 02B0     		add	sp, sp, #8
 5053              		@ sp needed
 5054 002c 10BD     		pop	{r4, pc}
 5055              	.L640:
ARM GAS  C:\Temp\ccOH3Pt6.s 			page 85


 5056 002e 0123     		movs	r3, #1
 5057 0030 2370     		strb	r3, [r4]
 5058 0032 FAE7     		b	.L638
 5060              		.section	.text.ism330dhcx_pin_int1_route_set,"ax",%progbits
 5061              		.align	1
 5062              		.global	ism330dhcx_pin_int1_route_set
 5063              		.syntax unified
 5064              		.thumb
 5065              		.thumb_func
 5067              	ism330dhcx_pin_int1_route_set:
 5068              		@ args = 0, pretend = 0, frame = 8
 5069              		@ frame_needed = 0, uses_anonymous_args = 0
 5070 0000 30B5     		push	{r4, r5, lr}
 5071 0002 83B0     		sub	sp, sp, #12
 5072 0004 0546     		mov	r5, r0
 5073 0006 0C46     		mov	r4, r1
 5074 0008 0221     		movs	r1, #2
 5075 000a FFF7FEFF 		bl	ism330dhcx_mem_bank_set
 5076 000e 0346     		mov	r3, r0
 5077 0010 18B1     		cbz	r0, .L653
 5078              	.L646:
 5079 0012 9BB1     		cbz	r3, .L654
 5080              	.L645:
 5081 0014 1846     		mov	r0, r3
 5082 0016 03B0     		add	sp, sp, #12
 5083              		@ sp needed
 5084 0018 30BD     		pop	{r4, r5, pc}
 5085              	.L653:
 5086 001a 0123     		movs	r3, #1
 5087 001c 621D     		adds	r2, r4, #5
 5088 001e 0D21     		movs	r1, #13
 5089 0020 2846     		mov	r0, r5
 5090 0022 FFF7FEFF 		bl	ism330dhcx_write_reg
 5091 0026 0346     		mov	r3, r0
 5092 0028 0028     		cmp	r0, #0
 5093 002a F3D1     		bne	.L645
 5094 002c 0123     		movs	r3, #1
 5095 002e A21C     		adds	r2, r4, #2
 5096 0030 0A21     		movs	r1, #10
 5097 0032 2846     		mov	r0, r5
 5098 0034 FFF7FEFF 		bl	ism330dhcx_write_reg
 5099 0038 0346     		mov	r3, r0
 5100 003a EAE7     		b	.L646
 5101              	.L654:
 5102 003c 0123     		movs	r3, #1
 5103 003e E21C     		adds	r2, r4, #3
 5104 0040 0B21     		movs	r1, #11
 5105 0042 2846     		mov	r0, r5
 5106 0044 FFF7FEFF 		bl	ism330dhcx_write_reg
 5107 0048 0346     		mov	r3, r0
 5108 004a 0028     		cmp	r0, #0
 5109 004c E2D1     		bne	.L645
 5110 004e 0123     		movs	r3, #1
 5111 0050 221D     		adds	r2, r4, #4
 5112 0052 0C21     		movs	r1, #12
 5113 0054 2846     		mov	r0, r5
 5114 0056 FFF7FEFF 		bl	ism330dhcx_write_reg
ARM GAS  C:\Temp\ccOH3Pt6.s 			page 86


 5115 005a 0346     		mov	r3, r0
 5116 005c 0028     		cmp	r0, #0
 5117 005e D9D1     		bne	.L645
 5118 0060 0021     		movs	r1, #0
 5119 0062 2846     		mov	r0, r5
 5120 0064 FFF7FEFF 		bl	ism330dhcx_mem_bank_set
 5121 0068 0346     		mov	r3, r0
 5122 006a 0028     		cmp	r0, #0
 5123 006c D2D1     		bne	.L645
 5124 006e A278     		ldrb	r2, [r4, #2]	@ zero_extendqisi2
 5125 0070 C2F34013 		ubfx	r3, r2, #5, #1
 5126 0074 43EAD213 		orr	r3, r3, r2, lsr #7
 5127 0078 C2F3C001 		ubfx	r1, r2, #3, #1
 5128 007c 0B43     		orrs	r3, r3, r1
 5129 007e C2F30012 		ubfx	r2, r2, #4, #1
 5130 0082 1343     		orrs	r3, r3, r2
 5131 0084 E278     		ldrb	r2, [r4, #3]	@ zero_extendqisi2
 5132 0086 02F00101 		and	r1, r2, #1
 5133 008a 0B43     		orrs	r3, r3, r1
 5134 008c C2F34001 		ubfx	r1, r2, #1, #1
 5135 0090 0B43     		orrs	r3, r3, r1
 5136 0092 C2F38001 		ubfx	r1, r2, #2, #1
 5137 0096 0B43     		orrs	r3, r3, r1
 5138 0098 C2F3C001 		ubfx	r1, r2, #3, #1
 5139 009c 0B43     		orrs	r3, r3, r1
 5140 009e C2F30011 		ubfx	r1, r2, #4, #1
 5141 00a2 0B43     		orrs	r3, r3, r1
 5142 00a4 C2F34011 		ubfx	r1, r2, #5, #1
 5143 00a8 0B43     		orrs	r3, r3, r1
 5144 00aa C2F38011 		ubfx	r1, r2, #6, #1
 5145 00ae 0B43     		orrs	r3, r3, r1
 5146 00b0 43EAD213 		orr	r3, r3, r2, lsr #7
 5147 00b4 2279     		ldrb	r2, [r4, #4]	@ zero_extendqisi2
 5148 00b6 02F00101 		and	r1, r2, #1
 5149 00ba 0B43     		orrs	r3, r3, r1
 5150 00bc C2F34001 		ubfx	r1, r2, #1, #1
 5151 00c0 0B43     		orrs	r3, r3, r1
 5152 00c2 C2F38001 		ubfx	r1, r2, #2, #1
 5153 00c6 0B43     		orrs	r3, r3, r1
 5154 00c8 C2F3C001 		ubfx	r1, r2, #3, #1
 5155 00cc 0B43     		orrs	r3, r3, r1
 5156 00ce C2F30011 		ubfx	r1, r2, #4, #1
 5157 00d2 0B43     		orrs	r3, r3, r1
 5158 00d4 C2F34011 		ubfx	r1, r2, #5, #1
 5159 00d8 0B43     		orrs	r3, r3, r1
 5160 00da C2F38011 		ubfx	r1, r2, #6, #1
 5161 00de 0B43     		orrs	r3, r3, r1
 5162 00e0 43EAD213 		orr	r3, r3, r2, lsr #7
 5163 00e4 6279     		ldrb	r2, [r4, #5]	@ zero_extendqisi2
 5164 00e6 02F00101 		and	r1, r2, #1
 5165 00ea 0B43     		orrs	r3, r3, r1
 5166 00ec C2F34001 		ubfx	r1, r2, #1, #1
 5167 00f0 0B43     		orrs	r3, r3, r1
 5168 00f2 C2F38001 		ubfx	r1, r2, #2, #1
 5169 00f6 0B43     		orrs	r3, r3, r1
 5170 00f8 C2F3C001 		ubfx	r1, r2, #3, #1
 5171 00fc 0B43     		orrs	r3, r3, r1
ARM GAS  C:\Temp\ccOH3Pt6.s 			page 87


 5172 00fe C2F30011 		ubfx	r1, r2, #4, #1
 5173 0102 0B43     		orrs	r3, r3, r1
 5174 0104 C2F34011 		ubfx	r1, r2, #5, #1
 5175 0108 0B43     		orrs	r3, r3, r1
 5176 010a C2F38011 		ubfx	r1, r2, #6, #1
 5177 010e 0B43     		orrs	r3, r3, r1
 5178 0110 53EAD213 		orrs	r3, r3, r2, lsr #7
 5179 0114 5CD0     		beq	.L648
 5180 0116 6378     		ldrb	r3, [r4, #1]	@ zero_extendqisi2
 5181 0118 43F00203 		orr	r3, r3, #2
 5182 011c 6370     		strb	r3, [r4, #1]
 5183              	.L649:
 5184 011e 0123     		movs	r3, #1
 5185 0120 2246     		mov	r2, r4
 5186 0122 0D21     		movs	r1, #13
 5187 0124 2846     		mov	r0, r5
 5188 0126 FFF7FEFF 		bl	ism330dhcx_write_reg
 5189 012a 0346     		mov	r3, r0
 5190 012c 0028     		cmp	r0, #0
 5191 012e 7FF471AF 		bne	.L645
 5192 0132 0123     		movs	r3, #1
 5193 0134 E218     		adds	r2, r4, r3
 5194 0136 5E21     		movs	r1, #94
 5195 0138 2846     		mov	r0, r5
 5196 013a FFF7FEFF 		bl	ism330dhcx_write_reg
 5197 013e 0346     		mov	r3, r0
 5198 0140 0028     		cmp	r0, #0
 5199 0142 7FF467AF 		bne	.L645
 5200 0146 0123     		movs	r3, #1
 5201 0148 01AA     		add	r2, sp, #4
 5202 014a 5821     		movs	r1, #88
 5203 014c 2846     		mov	r0, r5
 5204 014e FFF7FEFF 		bl	ism330dhcx_read_reg
 5205 0152 0346     		mov	r3, r0
 5206 0154 2178     		ldrb	r1, [r4]	@ zero_extendqisi2
 5207 0156 C1F38002 		ubfx	r2, r1, #2, #1
 5208 015a 42EAD112 		orr	r2, r2, r1, lsr #7
 5209 015e C1F38010 		ubfx	r0, r1, #6, #1
 5210 0162 0243     		orrs	r2, r2, r0
 5211 0164 C1F34000 		ubfx	r0, r1, #1, #1
 5212 0168 0243     		orrs	r2, r2, r0
 5213 016a 01F00100 		and	r0, r1, #1
 5214 016e 0243     		orrs	r2, r2, r0
 5215 0170 C1F34010 		ubfx	r0, r1, #5, #1
 5216 0174 0243     		orrs	r2, r2, r0
 5217 0176 C1F30010 		ubfx	r0, r1, #4, #1
 5218 017a 0243     		orrs	r2, r2, r0
 5219 017c C1F3C001 		ubfx	r1, r1, #3, #1
 5220 0180 0A43     		orrs	r2, r2, r1
 5221 0182 6178     		ldrb	r1, [r4, #1]	@ zero_extendqisi2
 5222 0184 01F00100 		and	r0, r1, #1
 5223 0188 0243     		orrs	r2, r2, r0
 5224 018a C1F38000 		ubfx	r0, r1, #2, #1
 5225 018e 0243     		orrs	r2, r2, r0
 5226 0190 C1F3C000 		ubfx	r0, r1, #3, #1
 5227 0194 0243     		orrs	r2, r2, r0
 5228 0196 C1F30010 		ubfx	r0, r1, #4, #1
ARM GAS  C:\Temp\ccOH3Pt6.s 			page 88


 5229 019a 0243     		orrs	r2, r2, r0
 5230 019c C1F34010 		ubfx	r0, r1, #5, #1
 5231 01a0 0243     		orrs	r2, r2, r0
 5232 01a2 C1F38010 		ubfx	r0, r1, #6, #1
 5233 01a6 0243     		orrs	r2, r2, r0
 5234 01a8 52EAD112 		orrs	r2, r2, r1, lsr #7
 5235 01ac 15D0     		beq	.L650
 5236 01ae 9DF80420 		ldrb	r2, [sp, #4]	@ zero_extendqisi2
 5237 01b2 42F08002 		orr	r2, r2, #128
 5238 01b6 8DF80420 		strb	r2, [sp, #4]
 5239              	.L651:
 5240 01ba 002B     		cmp	r3, #0
 5241 01bc 7FF42AAF 		bne	.L645
 5242 01c0 0123     		movs	r3, #1
 5243 01c2 01AA     		add	r2, sp, #4
 5244 01c4 5821     		movs	r1, #88
 5245 01c6 2846     		mov	r0, r5
 5246 01c8 FFF7FEFF 		bl	ism330dhcx_write_reg
 5247 01cc 0346     		mov	r3, r0
 5248 01ce 21E7     		b	.L645
 5249              	.L648:
 5250 01d0 6378     		ldrb	r3, [r4, #1]	@ zero_extendqisi2
 5251 01d2 6FF34103 		bfc	r3, #1, #1
 5252 01d6 6370     		strb	r3, [r4, #1]
 5253 01d8 A1E7     		b	.L649
 5254              	.L650:
 5255 01da 9DF80420 		ldrb	r2, [sp, #4]	@ zero_extendqisi2
 5256 01de 6FF3C712 		bfc	r2, #7, #1
 5257 01e2 8DF80420 		strb	r2, [sp, #4]
 5258 01e6 E8E7     		b	.L651
 5260              		.section	.text.ism330dhcx_pin_int1_route_get,"ax",%progbits
 5261              		.align	1
 5262              		.global	ism330dhcx_pin_int1_route_get
 5263              		.syntax unified
 5264              		.thumb
 5265              		.thumb_func
 5267              	ism330dhcx_pin_int1_route_get:
 5268              		@ args = 0, pretend = 0, frame = 0
 5269              		@ frame_needed = 0, uses_anonymous_args = 0
 5270 0000 38B5     		push	{r3, r4, r5, lr}
 5271 0002 0546     		mov	r5, r0
 5272 0004 0C46     		mov	r4, r1
 5273 0006 0221     		movs	r1, #2
 5274 0008 FFF7FEFF 		bl	ism330dhcx_mem_bank_set
 5275 000c 0346     		mov	r3, r0
 5276 000e 10B1     		cbz	r0, .L659
 5277              	.L656:
 5278 0010 93B1     		cbz	r3, .L660
 5279              	.L655:
 5280 0012 1846     		mov	r0, r3
 5281 0014 38BD     		pop	{r3, r4, r5, pc}
 5282              	.L659:
 5283 0016 0123     		movs	r3, #1
 5284 0018 621D     		adds	r2, r4, #5
 5285 001a 0D21     		movs	r1, #13
 5286 001c 2846     		mov	r0, r5
 5287 001e FFF7FEFF 		bl	ism330dhcx_read_reg
ARM GAS  C:\Temp\ccOH3Pt6.s 			page 89


 5288 0022 0346     		mov	r3, r0
 5289 0024 0028     		cmp	r0, #0
 5290 0026 F4D1     		bne	.L655
 5291 0028 0123     		movs	r3, #1
 5292 002a A21C     		adds	r2, r4, #2
 5293 002c 0A21     		movs	r1, #10
 5294 002e 2846     		mov	r0, r5
 5295 0030 FFF7FEFF 		bl	ism330dhcx_read_reg
 5296 0034 0346     		mov	r3, r0
 5297 0036 EBE7     		b	.L656
 5298              	.L660:
 5299 0038 0123     		movs	r3, #1
 5300 003a E21C     		adds	r2, r4, #3
 5301 003c 0B21     		movs	r1, #11
 5302 003e 2846     		mov	r0, r5
 5303 0040 FFF7FEFF 		bl	ism330dhcx_read_reg
 5304 0044 0346     		mov	r3, r0
 5305 0046 0028     		cmp	r0, #0
 5306 0048 E3D1     		bne	.L655
 5307 004a 0123     		movs	r3, #1
 5308 004c 221D     		adds	r2, r4, #4
 5309 004e 0C21     		movs	r1, #12
 5310 0050 2846     		mov	r0, r5
 5311 0052 FFF7FEFF 		bl	ism330dhcx_read_reg
 5312 0056 0346     		mov	r3, r0
 5313 0058 0028     		cmp	r0, #0
 5314 005a DAD1     		bne	.L655
 5315 005c 0021     		movs	r1, #0
 5316 005e 2846     		mov	r0, r5
 5317 0060 FFF7FEFF 		bl	ism330dhcx_mem_bank_set
 5318 0064 0346     		mov	r3, r0
 5319 0066 0028     		cmp	r0, #0
 5320 0068 D3D1     		bne	.L655
 5321 006a 0123     		movs	r3, #1
 5322 006c 2246     		mov	r2, r4
 5323 006e 0D21     		movs	r1, #13
 5324 0070 2846     		mov	r0, r5
 5325 0072 FFF7FEFF 		bl	ism330dhcx_read_reg
 5326 0076 0346     		mov	r3, r0
 5327 0078 0028     		cmp	r0, #0
 5328 007a CAD1     		bne	.L655
 5329 007c 0123     		movs	r3, #1
 5330 007e E218     		adds	r2, r4, r3
 5331 0080 5E21     		movs	r1, #94
 5332 0082 2846     		mov	r0, r5
 5333 0084 FFF7FEFF 		bl	ism330dhcx_read_reg
 5334 0088 0346     		mov	r3, r0
 5335 008a C2E7     		b	.L655
 5337              		.section	.text.ism330dhcx_pin_int2_route_set,"ax",%progbits
 5338              		.align	1
 5339              		.global	ism330dhcx_pin_int2_route_set
 5340              		.syntax unified
 5341              		.thumb
 5342              		.thumb_func
 5344              	ism330dhcx_pin_int2_route_set:
 5345              		@ args = 0, pretend = 0, frame = 8
 5346              		@ frame_needed = 0, uses_anonymous_args = 0
ARM GAS  C:\Temp\ccOH3Pt6.s 			page 90


 5347 0000 30B5     		push	{r4, r5, lr}
 5348 0002 83B0     		sub	sp, sp, #12
 5349 0004 0546     		mov	r5, r0
 5350 0006 0C46     		mov	r4, r1
 5351 0008 0221     		movs	r1, #2
 5352 000a FFF7FEFF 		bl	ism330dhcx_mem_bank_set
 5353 000e 0346     		mov	r3, r0
 5354 0010 18B1     		cbz	r0, .L669
 5355              	.L662:
 5356 0012 9BB1     		cbz	r3, .L670
 5357              	.L661:
 5358 0014 1846     		mov	r0, r3
 5359 0016 03B0     		add	sp, sp, #12
 5360              		@ sp needed
 5361 0018 30BD     		pop	{r4, r5, pc}
 5362              	.L669:
 5363 001a 0123     		movs	r3, #1
 5364 001c 621D     		adds	r2, r4, #5
 5365 001e 1121     		movs	r1, #17
 5366 0020 2846     		mov	r0, r5
 5367 0022 FFF7FEFF 		bl	ism330dhcx_write_reg
 5368 0026 0346     		mov	r3, r0
 5369 0028 0028     		cmp	r0, #0
 5370 002a F3D1     		bne	.L661
 5371 002c 0123     		movs	r3, #1
 5372 002e A21C     		adds	r2, r4, #2
 5373 0030 0E21     		movs	r1, #14
 5374 0032 2846     		mov	r0, r5
 5375 0034 FFF7FEFF 		bl	ism330dhcx_write_reg
 5376 0038 0346     		mov	r3, r0
 5377 003a EAE7     		b	.L662
 5378              	.L670:
 5379 003c 0123     		movs	r3, #1
 5380 003e E21C     		adds	r2, r4, #3
 5381 0040 0F21     		movs	r1, #15
 5382 0042 2846     		mov	r0, r5
 5383 0044 FFF7FEFF 		bl	ism330dhcx_write_reg
 5384 0048 0346     		mov	r3, r0
 5385 004a 0028     		cmp	r0, #0
 5386 004c E2D1     		bne	.L661
 5387 004e 0123     		movs	r3, #1
 5388 0050 221D     		adds	r2, r4, #4
 5389 0052 1021     		movs	r1, #16
 5390 0054 2846     		mov	r0, r5
 5391 0056 FFF7FEFF 		bl	ism330dhcx_write_reg
 5392 005a 0346     		mov	r3, r0
 5393 005c 0028     		cmp	r0, #0
 5394 005e D9D1     		bne	.L661
 5395 0060 0021     		movs	r1, #0
 5396 0062 2846     		mov	r0, r5
 5397 0064 FFF7FEFF 		bl	ism330dhcx_mem_bank_set
 5398 0068 0346     		mov	r3, r0
 5399 006a 0028     		cmp	r0, #0
 5400 006c D2D1     		bne	.L661
 5401 006e A278     		ldrb	r2, [r4, #2]	@ zero_extendqisi2
 5402 0070 C2F3C003 		ubfx	r3, r2, #3, #1
 5403 0074 C2F30011 		ubfx	r1, r2, #4, #1
ARM GAS  C:\Temp\ccOH3Pt6.s 			page 91


 5404 0078 0B43     		orrs	r3, r3, r1
 5405 007a C2F34011 		ubfx	r1, r2, #5, #1
 5406 007e 0B43     		orrs	r3, r3, r1
 5407 0080 43EAD213 		orr	r3, r3, r2, lsr #7
 5408 0084 E278     		ldrb	r2, [r4, #3]	@ zero_extendqisi2
 5409 0086 02F00101 		and	r1, r2, #1
 5410 008a 0B43     		orrs	r3, r3, r1
 5411 008c C2F34001 		ubfx	r1, r2, #1, #1
 5412 0090 0B43     		orrs	r3, r3, r1
 5413 0092 C2F38001 		ubfx	r1, r2, #2, #1
 5414 0096 0B43     		orrs	r3, r3, r1
 5415 0098 C2F3C001 		ubfx	r1, r2, #3, #1
 5416 009c 0B43     		orrs	r3, r3, r1
 5417 009e C2F30011 		ubfx	r1, r2, #4, #1
 5418 00a2 0B43     		orrs	r3, r3, r1
 5419 00a4 C2F34011 		ubfx	r1, r2, #5, #1
 5420 00a8 0B43     		orrs	r3, r3, r1
 5421 00aa C2F38011 		ubfx	r1, r2, #6, #1
 5422 00ae 0B43     		orrs	r3, r3, r1
 5423 00b0 43EAD213 		orr	r3, r3, r2, lsr #7
 5424 00b4 2279     		ldrb	r2, [r4, #4]	@ zero_extendqisi2
 5425 00b6 02F00101 		and	r1, r2, #1
 5426 00ba 0B43     		orrs	r3, r3, r1
 5427 00bc C2F34001 		ubfx	r1, r2, #1, #1
 5428 00c0 0B43     		orrs	r3, r3, r1
 5429 00c2 C2F38001 		ubfx	r1, r2, #2, #1
 5430 00c6 0B43     		orrs	r3, r3, r1
 5431 00c8 C2F3C001 		ubfx	r1, r2, #3, #1
 5432 00cc 0B43     		orrs	r3, r3, r1
 5433 00ce C2F30011 		ubfx	r1, r2, #4, #1
 5434 00d2 0B43     		orrs	r3, r3, r1
 5435 00d4 C2F34011 		ubfx	r1, r2, #5, #1
 5436 00d8 0B43     		orrs	r3, r3, r1
 5437 00da C2F38011 		ubfx	r1, r2, #6, #1
 5438 00de 0B43     		orrs	r3, r3, r1
 5439 00e0 43EAD213 		orr	r3, r3, r2, lsr #7
 5440 00e4 6279     		ldrb	r2, [r4, #5]	@ zero_extendqisi2
 5441 00e6 02F00101 		and	r1, r2, #1
 5442 00ea 0B43     		orrs	r3, r3, r1
 5443 00ec C2F34001 		ubfx	r1, r2, #1, #1
 5444 00f0 0B43     		orrs	r3, r3, r1
 5445 00f2 C2F38001 		ubfx	r1, r2, #2, #1
 5446 00f6 0B43     		orrs	r3, r3, r1
 5447 00f8 C2F3C001 		ubfx	r1, r2, #3, #1
 5448 00fc 0B43     		orrs	r3, r3, r1
 5449 00fe C2F30011 		ubfx	r1, r2, #4, #1
 5450 0102 0B43     		orrs	r3, r3, r1
 5451 0104 C2F34011 		ubfx	r1, r2, #5, #1
 5452 0108 0B43     		orrs	r3, r3, r1
 5453 010a C2F38011 		ubfx	r1, r2, #6, #1
 5454 010e 0B43     		orrs	r3, r3, r1
 5455 0110 53EAD213 		orrs	r3, r3, r2, lsr #7
 5456 0114 57D0     		beq	.L664
 5457 0116 6378     		ldrb	r3, [r4, #1]	@ zero_extendqisi2
 5458 0118 43F00203 		orr	r3, r3, #2
 5459 011c 6370     		strb	r3, [r4, #1]
 5460              	.L665:
ARM GAS  C:\Temp\ccOH3Pt6.s 			page 92


 5461 011e 0123     		movs	r3, #1
 5462 0120 2246     		mov	r2, r4
 5463 0122 0E21     		movs	r1, #14
 5464 0124 2846     		mov	r0, r5
 5465 0126 FFF7FEFF 		bl	ism330dhcx_write_reg
 5466 012a 0346     		mov	r3, r0
 5467 012c 0028     		cmp	r0, #0
 5468 012e 7FF471AF 		bne	.L661
 5469 0132 0123     		movs	r3, #1
 5470 0134 E218     		adds	r2, r4, r3
 5471 0136 5F21     		movs	r1, #95
 5472 0138 2846     		mov	r0, r5
 5473 013a FFF7FEFF 		bl	ism330dhcx_write_reg
 5474 013e 0346     		mov	r3, r0
 5475 0140 0028     		cmp	r0, #0
 5476 0142 7FF467AF 		bne	.L661
 5477 0146 0123     		movs	r3, #1
 5478 0148 01AA     		add	r2, sp, #4
 5479 014a 5821     		movs	r1, #88
 5480 014c 2846     		mov	r0, r5
 5481 014e FFF7FEFF 		bl	ism330dhcx_read_reg
 5482 0152 0346     		mov	r3, r0
 5483 0154 0028     		cmp	r0, #0
 5484 0156 7FF45DAF 		bne	.L661
 5485 015a 2278     		ldrb	r2, [r4]	@ zero_extendqisi2
 5486 015c 02F00103 		and	r3, r2, #1
 5487 0160 C2F34001 		ubfx	r1, r2, #1, #1
 5488 0164 0B43     		orrs	r3, r3, r1
 5489 0166 C2F38001 		ubfx	r1, r2, #2, #1
 5490 016a 0B43     		orrs	r3, r3, r1
 5491 016c C2F3C001 		ubfx	r1, r2, #3, #1
 5492 0170 0B43     		orrs	r3, r3, r1
 5493 0172 C2F30011 		ubfx	r1, r2, #4, #1
 5494 0176 0B43     		orrs	r3, r3, r1
 5495 0178 C2F34011 		ubfx	r1, r2, #5, #1
 5496 017c 0B43     		orrs	r3, r3, r1
 5497 017e C2F38012 		ubfx	r2, r2, #6, #1
 5498 0182 1343     		orrs	r3, r3, r2
 5499 0184 6278     		ldrb	r2, [r4, #1]	@ zero_extendqisi2
 5500 0186 C2F38001 		ubfx	r1, r2, #2, #1
 5501 018a 0B43     		orrs	r3, r3, r1
 5502 018c C2F3C001 		ubfx	r1, r2, #3, #1
 5503 0190 0B43     		orrs	r3, r3, r1
 5504 0192 C2F30011 		ubfx	r1, r2, #4, #1
 5505 0196 0B43     		orrs	r3, r3, r1
 5506 0198 C2F34011 		ubfx	r1, r2, #5, #1
 5507 019c 0B43     		orrs	r3, r3, r1
 5508 019e C2F38011 		ubfx	r1, r2, #6, #1
 5509 01a2 0B43     		orrs	r3, r3, r1
 5510 01a4 53EAD213 		orrs	r3, r3, r2, lsr #7
 5511 01a8 12D0     		beq	.L666
 5512 01aa 9DF80430 		ldrb	r3, [sp, #4]	@ zero_extendqisi2
 5513 01ae 43F08003 		orr	r3, r3, #128
 5514 01b2 8DF80430 		strb	r3, [sp, #4]
 5515              	.L667:
 5516 01b6 0123     		movs	r3, #1
 5517 01b8 01AA     		add	r2, sp, #4
ARM GAS  C:\Temp\ccOH3Pt6.s 			page 93


 5518 01ba 5821     		movs	r1, #88
 5519 01bc 2846     		mov	r0, r5
 5520 01be FFF7FEFF 		bl	ism330dhcx_write_reg
 5521 01c2 0346     		mov	r3, r0
 5522 01c4 26E7     		b	.L661
 5523              	.L664:
 5524 01c6 6378     		ldrb	r3, [r4, #1]	@ zero_extendqisi2
 5525 01c8 6FF34103 		bfc	r3, #1, #1
 5526 01cc 6370     		strb	r3, [r4, #1]
 5527 01ce A6E7     		b	.L665
 5528              	.L666:
 5529 01d0 9DF80430 		ldrb	r3, [sp, #4]	@ zero_extendqisi2
 5530 01d4 6FF3C713 		bfc	r3, #7, #1
 5531 01d8 8DF80430 		strb	r3, [sp, #4]
 5532 01dc EBE7     		b	.L667
 5534              		.section	.text.ism330dhcx_pin_int2_route_get,"ax",%progbits
 5535              		.align	1
 5536              		.global	ism330dhcx_pin_int2_route_get
 5537              		.syntax unified
 5538              		.thumb
 5539              		.thumb_func
 5541              	ism330dhcx_pin_int2_route_get:
 5542              		@ args = 0, pretend = 0, frame = 0
 5543              		@ frame_needed = 0, uses_anonymous_args = 0
 5544 0000 38B5     		push	{r3, r4, r5, lr}
 5545 0002 0546     		mov	r5, r0
 5546 0004 0C46     		mov	r4, r1
 5547 0006 0221     		movs	r1, #2
 5548 0008 FFF7FEFF 		bl	ism330dhcx_mem_bank_set
 5549 000c 0346     		mov	r3, r0
 5550 000e 10B1     		cbz	r0, .L675
 5551              	.L672:
 5552 0010 93B1     		cbz	r3, .L676
 5553              	.L671:
 5554 0012 1846     		mov	r0, r3
 5555 0014 38BD     		pop	{r3, r4, r5, pc}
 5556              	.L675:
 5557 0016 0123     		movs	r3, #1
 5558 0018 621D     		adds	r2, r4, #5
 5559 001a 1121     		movs	r1, #17
 5560 001c 2846     		mov	r0, r5
 5561 001e FFF7FEFF 		bl	ism330dhcx_read_reg
 5562 0022 0346     		mov	r3, r0
 5563 0024 0028     		cmp	r0, #0
 5564 0026 F4D1     		bne	.L671
 5565 0028 0123     		movs	r3, #1
 5566 002a A21C     		adds	r2, r4, #2
 5567 002c 0E21     		movs	r1, #14
 5568 002e 2846     		mov	r0, r5
 5569 0030 FFF7FEFF 		bl	ism330dhcx_read_reg
 5570 0034 0346     		mov	r3, r0
 5571 0036 EBE7     		b	.L672
 5572              	.L676:
 5573 0038 0123     		movs	r3, #1
 5574 003a E21C     		adds	r2, r4, #3
 5575 003c 0F21     		movs	r1, #15
 5576 003e 2846     		mov	r0, r5
ARM GAS  C:\Temp\ccOH3Pt6.s 			page 94


 5577 0040 FFF7FEFF 		bl	ism330dhcx_read_reg
 5578 0044 0346     		mov	r3, r0
 5579 0046 0028     		cmp	r0, #0
 5580 0048 E3D1     		bne	.L671
 5581 004a 0123     		movs	r3, #1
 5582 004c 221D     		adds	r2, r4, #4
 5583 004e 1021     		movs	r1, #16
 5584 0050 2846     		mov	r0, r5
 5585 0052 FFF7FEFF 		bl	ism330dhcx_read_reg
 5586 0056 0346     		mov	r3, r0
 5587 0058 0028     		cmp	r0, #0
 5588 005a DAD1     		bne	.L671
 5589 005c 0021     		movs	r1, #0
 5590 005e 2846     		mov	r0, r5
 5591 0060 FFF7FEFF 		bl	ism330dhcx_mem_bank_set
 5592 0064 0346     		mov	r3, r0
 5593 0066 0028     		cmp	r0, #0
 5594 0068 D3D1     		bne	.L671
 5595 006a 0123     		movs	r3, #1
 5596 006c 2246     		mov	r2, r4
 5597 006e 0E21     		movs	r1, #14
 5598 0070 2846     		mov	r0, r5
 5599 0072 FFF7FEFF 		bl	ism330dhcx_read_reg
 5600 0076 0346     		mov	r3, r0
 5601 0078 0028     		cmp	r0, #0
 5602 007a CAD1     		bne	.L671
 5603 007c 0123     		movs	r3, #1
 5604 007e E218     		adds	r2, r4, r3
 5605 0080 5F21     		movs	r1, #95
 5606 0082 2846     		mov	r0, r5
 5607 0084 FFF7FEFF 		bl	ism330dhcx_read_reg
 5608 0088 0346     		mov	r3, r0
 5609 008a C2E7     		b	.L671
 5611              		.section	.text.ism330dhcx_pin_mode_set,"ax",%progbits
 5612              		.align	1
 5613              		.global	ism330dhcx_pin_mode_set
 5614              		.syntax unified
 5615              		.thumb
 5616              		.thumb_func
 5618              	ism330dhcx_pin_mode_set:
 5619              		@ args = 0, pretend = 0, frame = 8
 5620              		@ frame_needed = 0, uses_anonymous_args = 0
 5621 0000 30B5     		push	{r4, r5, lr}
 5622 0002 83B0     		sub	sp, sp, #12
 5623 0004 0446     		mov	r4, r0
 5624 0006 0D46     		mov	r5, r1
 5625 0008 0123     		movs	r3, #1
 5626 000a 01AA     		add	r2, sp, #4
 5627 000c 1221     		movs	r1, #18
 5628 000e FFF7FEFF 		bl	ism330dhcx_read_reg
 5629 0012 08B1     		cbz	r0, .L680
 5630              	.L677:
 5631 0014 03B0     		add	sp, sp, #12
 5632              		@ sp needed
 5633 0016 30BD     		pop	{r4, r5, pc}
 5634              	.L680:
 5635 0018 9DF80430 		ldrb	r3, [sp, #4]	@ zero_extendqisi2
ARM GAS  C:\Temp\ccOH3Pt6.s 			page 95


 5636 001c 65F30413 		bfi	r3, r5, #4, #1
 5637 0020 8DF80430 		strb	r3, [sp, #4]
 5638 0024 0123     		movs	r3, #1
 5639 0026 01AA     		add	r2, sp, #4
 5640 0028 1221     		movs	r1, #18
 5641 002a 2046     		mov	r0, r4
 5642 002c FFF7FEFF 		bl	ism330dhcx_write_reg
 5643 0030 F0E7     		b	.L677
 5645              		.section	.text.ism330dhcx_pin_mode_get,"ax",%progbits
 5646              		.align	1
 5647              		.global	ism330dhcx_pin_mode_get
 5648              		.syntax unified
 5649              		.thumb
 5650              		.thumb_func
 5652              	ism330dhcx_pin_mode_get:
 5653              		@ args = 0, pretend = 0, frame = 8
 5654              		@ frame_needed = 0, uses_anonymous_args = 0
 5655 0000 10B5     		push	{r4, lr}
 5656 0002 82B0     		sub	sp, sp, #8
 5657 0004 0C46     		mov	r4, r1
 5658 0006 0123     		movs	r3, #1
 5659 0008 01AA     		add	r2, sp, #4
 5660 000a 1221     		movs	r1, #18
 5661 000c FFF7FEFF 		bl	ism330dhcx_read_reg
 5662 0010 9DF80430 		ldrb	r3, [sp, #4]	@ zero_extendqisi2
 5663 0014 C3F30012 		ubfx	r2, r3, #4, #1
 5664 0018 13F0100F 		tst	r3, #16
 5665 001c 03D0     		beq	.L682
 5666 001e 32B9     		cbnz	r2, .L683
 5667 0020 0023     		movs	r3, #0
 5668 0022 2370     		strb	r3, [r4]
 5669 0024 01E0     		b	.L681
 5670              	.L682:
 5671 0026 0023     		movs	r3, #0
 5672 0028 2370     		strb	r3, [r4]
 5673              	.L681:
 5674 002a 02B0     		add	sp, sp, #8
 5675              		@ sp needed
 5676 002c 10BD     		pop	{r4, pc}
 5677              	.L683:
 5678 002e 0123     		movs	r3, #1
 5679 0030 2370     		strb	r3, [r4]
 5680 0032 FAE7     		b	.L681
 5682              		.section	.text.ism330dhcx_pin_polarity_set,"ax",%progbits
 5683              		.align	1
 5684              		.global	ism330dhcx_pin_polarity_set
 5685              		.syntax unified
 5686              		.thumb
 5687              		.thumb_func
 5689              	ism330dhcx_pin_polarity_set:
 5690              		@ args = 0, pretend = 0, frame = 8
 5691              		@ frame_needed = 0, uses_anonymous_args = 0
 5692 0000 30B5     		push	{r4, r5, lr}
 5693 0002 83B0     		sub	sp, sp, #12
 5694 0004 0446     		mov	r4, r0
 5695 0006 0D46     		mov	r5, r1
 5696 0008 0123     		movs	r3, #1
ARM GAS  C:\Temp\ccOH3Pt6.s 			page 96


 5697 000a 01AA     		add	r2, sp, #4
 5698 000c 1221     		movs	r1, #18
 5699 000e FFF7FEFF 		bl	ism330dhcx_read_reg
 5700 0012 08B1     		cbz	r0, .L691
 5701              	.L688:
 5702 0014 03B0     		add	sp, sp, #12
 5703              		@ sp needed
 5704 0016 30BD     		pop	{r4, r5, pc}
 5705              	.L691:
 5706 0018 9DF80430 		ldrb	r3, [sp, #4]	@ zero_extendqisi2
 5707 001c 65F34513 		bfi	r3, r5, #5, #1
 5708 0020 8DF80430 		strb	r3, [sp, #4]
 5709 0024 0123     		movs	r3, #1
 5710 0026 01AA     		add	r2, sp, #4
 5711 0028 1221     		movs	r1, #18
 5712 002a 2046     		mov	r0, r4
 5713 002c FFF7FEFF 		bl	ism330dhcx_write_reg
 5714 0030 F0E7     		b	.L688
 5716              		.section	.text.ism330dhcx_pin_polarity_get,"ax",%progbits
 5717              		.align	1
 5718              		.global	ism330dhcx_pin_polarity_get
 5719              		.syntax unified
 5720              		.thumb
 5721              		.thumb_func
 5723              	ism330dhcx_pin_polarity_get:
 5724              		@ args = 0, pretend = 0, frame = 8
 5725              		@ frame_needed = 0, uses_anonymous_args = 0
 5726 0000 10B5     		push	{r4, lr}
 5727 0002 82B0     		sub	sp, sp, #8
 5728 0004 0C46     		mov	r4, r1
 5729 0006 0123     		movs	r3, #1
 5730 0008 01AA     		add	r2, sp, #4
 5731 000a 1221     		movs	r1, #18
 5732 000c FFF7FEFF 		bl	ism330dhcx_read_reg
 5733 0010 9DF80430 		ldrb	r3, [sp, #4]	@ zero_extendqisi2
 5734 0014 C3F34012 		ubfx	r2, r3, #5, #1
 5735 0018 13F0200F 		tst	r3, #32
 5736 001c 03D0     		beq	.L693
 5737 001e 32B9     		cbnz	r2, .L694
 5738 0020 0023     		movs	r3, #0
 5739 0022 2370     		strb	r3, [r4]
 5740 0024 01E0     		b	.L692
 5741              	.L693:
 5742 0026 0023     		movs	r3, #0
 5743 0028 2370     		strb	r3, [r4]
 5744              	.L692:
 5745 002a 02B0     		add	sp, sp, #8
 5746              		@ sp needed
 5747 002c 10BD     		pop	{r4, pc}
 5748              	.L694:
 5749 002e 0123     		movs	r3, #1
 5750 0030 2370     		strb	r3, [r4]
 5751 0032 FAE7     		b	.L692
 5753              		.section	.text.ism330dhcx_all_on_int1_set,"ax",%progbits
 5754              		.align	1
 5755              		.global	ism330dhcx_all_on_int1_set
 5756              		.syntax unified
ARM GAS  C:\Temp\ccOH3Pt6.s 			page 97


 5757              		.thumb
 5758              		.thumb_func
 5760              	ism330dhcx_all_on_int1_set:
 5761              		@ args = 0, pretend = 0, frame = 8
 5762              		@ frame_needed = 0, uses_anonymous_args = 0
 5763 0000 30B5     		push	{r4, r5, lr}
 5764 0002 83B0     		sub	sp, sp, #12
 5765 0004 0446     		mov	r4, r0
 5766 0006 0D46     		mov	r5, r1
 5767 0008 0123     		movs	r3, #1
 5768 000a 01AA     		add	r2, sp, #4
 5769 000c 1321     		movs	r1, #19
 5770 000e FFF7FEFF 		bl	ism330dhcx_read_reg
 5771 0012 08B1     		cbz	r0, .L702
 5772              	.L699:
 5773 0014 03B0     		add	sp, sp, #12
 5774              		@ sp needed
 5775 0016 30BD     		pop	{r4, r5, pc}
 5776              	.L702:
 5777 0018 9DF80430 		ldrb	r3, [sp, #4]	@ zero_extendqisi2
 5778 001c 65F34513 		bfi	r3, r5, #5, #1
 5779 0020 8DF80430 		strb	r3, [sp, #4]
 5780 0024 0123     		movs	r3, #1
 5781 0026 01AA     		add	r2, sp, #4
 5782 0028 1321     		movs	r1, #19
 5783 002a 2046     		mov	r0, r4
 5784 002c FFF7FEFF 		bl	ism330dhcx_write_reg
 5785 0030 F0E7     		b	.L699
 5787              		.section	.text.ism330dhcx_all_on_int1_get,"ax",%progbits
 5788              		.align	1
 5789              		.global	ism330dhcx_all_on_int1_get
 5790              		.syntax unified
 5791              		.thumb
 5792              		.thumb_func
 5794              	ism330dhcx_all_on_int1_get:
 5795              		@ args = 0, pretend = 0, frame = 8
 5796              		@ frame_needed = 0, uses_anonymous_args = 0
 5797 0000 10B5     		push	{r4, lr}
 5798 0002 82B0     		sub	sp, sp, #8
 5799 0004 0C46     		mov	r4, r1
 5800 0006 0123     		movs	r3, #1
 5801 0008 01AA     		add	r2, sp, #4
 5802 000a 1321     		movs	r1, #19
 5803 000c FFF7FEFF 		bl	ism330dhcx_read_reg
 5804 0010 9DF80430 		ldrb	r3, [sp, #4]	@ zero_extendqisi2
 5805 0014 C3F34013 		ubfx	r3, r3, #5, #1
 5806 0018 2370     		strb	r3, [r4]
 5807 001a 02B0     		add	sp, sp, #8
 5808              		@ sp needed
 5809 001c 10BD     		pop	{r4, pc}
 5811              		.section	.text.ism330dhcx_int_notification_set,"ax",%progbits
 5812              		.align	1
 5813              		.global	ism330dhcx_int_notification_set
 5814              		.syntax unified
 5815              		.thumb
 5816              		.thumb_func
 5818              	ism330dhcx_int_notification_set:
ARM GAS  C:\Temp\ccOH3Pt6.s 			page 98


 5819              		@ args = 0, pretend = 0, frame = 8
 5820              		@ frame_needed = 0, uses_anonymous_args = 0
 5821 0000 30B5     		push	{r4, r5, lr}
 5822 0002 83B0     		sub	sp, sp, #12
 5823 0004 0546     		mov	r5, r0
 5824 0006 0C46     		mov	r4, r1
 5825 0008 0123     		movs	r3, #1
 5826 000a 01AA     		add	r2, sp, #4
 5827 000c 5621     		movs	r1, #86
 5828 000e FFF7FEFF 		bl	ism330dhcx_read_reg
 5829 0012 0346     		mov	r3, r0
 5830 0014 18B1     		cbz	r0, .L709
 5831              	.L706:
 5832 0016 F3B1     		cbz	r3, .L710
 5833              	.L705:
 5834 0018 1846     		mov	r0, r3
 5835 001a 03B0     		add	sp, sp, #12
 5836              		@ sp needed
 5837 001c 30BD     		pop	{r4, r5, pc}
 5838              	.L709:
 5839 001e 04F00103 		and	r3, r4, #1
 5840 0022 9DF80420 		ldrb	r2, [sp, #4]	@ zero_extendqisi2
 5841 0026 63F30002 		bfi	r2, r3, #0, #1
 5842 002a 8DF80420 		strb	r2, [sp, #4]
 5843 002e D2B2     		uxtb	r2, r2
 5844 0030 63F38612 		bfi	r2, r3, #6, #1
 5845 0034 8DF80420 		strb	r2, [sp, #4]
 5846 0038 0123     		movs	r3, #1
 5847 003a 01AA     		add	r2, sp, #4
 5848 003c 5621     		movs	r1, #86
 5849 003e 2846     		mov	r0, r5
 5850 0040 FFF7FEFF 		bl	ism330dhcx_write_reg
 5851 0044 0346     		mov	r3, r0
 5852 0046 0028     		cmp	r0, #0
 5853 0048 E6D1     		bne	.L705
 5854 004a 0221     		movs	r1, #2
 5855 004c 2846     		mov	r0, r5
 5856 004e FFF7FEFF 		bl	ism330dhcx_mem_bank_set
 5857 0052 0346     		mov	r3, r0
 5858 0054 DFE7     		b	.L706
 5859              	.L710:
 5860 0056 0123     		movs	r3, #1
 5861 0058 6A46     		mov	r2, sp
 5862 005a 1721     		movs	r1, #23
 5863 005c 2846     		mov	r0, r5
 5864 005e FFF7FEFF 		bl	ism330dhcx_read_reg
 5865 0062 0346     		mov	r3, r0
 5866 0064 0028     		cmp	r0, #0
 5867 0066 D7D1     		bne	.L705
 5868 0068 C4F34001 		ubfx	r1, r4, #1, #1
 5869 006c 9DF80030 		ldrb	r3, [sp]	@ zero_extendqisi2
 5870 0070 61F3C713 		bfi	r3, r1, #7, #1
 5871 0074 8DF80030 		strb	r3, [sp]
 5872 0078 0123     		movs	r3, #1
 5873 007a 6A46     		mov	r2, sp
 5874 007c 1721     		movs	r1, #23
 5875 007e 2846     		mov	r0, r5
ARM GAS  C:\Temp\ccOH3Pt6.s 			page 99


 5876 0080 FFF7FEFF 		bl	ism330dhcx_write_reg
 5877 0084 0346     		mov	r3, r0
 5878 0086 0028     		cmp	r0, #0
 5879 0088 C6D1     		bne	.L705
 5880 008a 0021     		movs	r1, #0
 5881 008c 2846     		mov	r0, r5
 5882 008e FFF7FEFF 		bl	ism330dhcx_mem_bank_set
 5883 0092 0346     		mov	r3, r0
 5884 0094 C0E7     		b	.L705
 5886              		.section	.text.ism330dhcx_int_notification_get,"ax",%progbits
 5887              		.align	1
 5888              		.global	ism330dhcx_int_notification_get
 5889              		.syntax unified
 5890              		.thumb
 5891              		.thumb_func
 5893              	ism330dhcx_int_notification_get:
 5894              		@ args = 0, pretend = 0, frame = 8
 5895              		@ frame_needed = 0, uses_anonymous_args = 0
 5896 0000 30B5     		push	{r4, r5, lr}
 5897 0002 83B0     		sub	sp, sp, #12
 5898 0004 0546     		mov	r5, r0
 5899 0006 0C46     		mov	r4, r1
 5900 0008 0023     		movs	r3, #0
 5901 000a 0B70     		strb	r3, [r1]
 5902 000c 0123     		movs	r3, #1
 5903 000e 01AA     		add	r2, sp, #4
 5904 0010 5621     		movs	r1, #86
 5905 0012 FFF7FEFF 		bl	ism330dhcx_read_reg
 5906 0016 0246     		mov	r2, r0
 5907 0018 78B1     		cbz	r0, .L722
 5908              	.L712:
 5909 001a EAB1     		cbz	r2, .L723
 5910              	.L713:
 5911 001c 9DF80010 		ldrb	r1, [sp]	@ zero_extendqisi2
 5912 0020 C909     		lsrs	r1, r1, #7
 5913 0022 9DF80430 		ldrb	r3, [sp, #4]	@ zero_extendqisi2
 5914 0026 03F00103 		and	r3, r3, #1
 5915 002a 03EB4103 		add	r3, r3, r1, lsl #1
 5916 002e 032B     		cmp	r3, #3
 5917 0030 26D8     		bhi	.L714
 5918 0032 DFE803F0 		tbb	[pc, r3]
 5919              	.L716:
 5920 0036 17       		.byte	(.L719-.L716)/2
 5921 0037 1C       		.byte	(.L718-.L716)/2
 5922 0038 1F       		.byte	(.L717-.L716)/2
 5923 0039 22       		.byte	(.L715-.L716)/2
 5924              		.p2align 1
 5925              	.L722:
 5926 003a 0221     		movs	r1, #2
 5927 003c 2846     		mov	r0, r5
 5928 003e FFF7FEFF 		bl	ism330dhcx_mem_bank_set
 5929 0042 0246     		mov	r2, r0
 5930 0044 0028     		cmp	r0, #0
 5931 0046 E9D1     		bne	.L713
 5932 0048 0123     		movs	r3, #1
 5933 004a 6A46     		mov	r2, sp
 5934 004c 1721     		movs	r1, #23
ARM GAS  C:\Temp\ccOH3Pt6.s 			page 100


 5935 004e 2846     		mov	r0, r5
 5936 0050 FFF7FEFF 		bl	ism330dhcx_read_reg
 5937 0054 0246     		mov	r2, r0
 5938 0056 E0E7     		b	.L712
 5939              	.L723:
 5940 0058 0021     		movs	r1, #0
 5941 005a 2846     		mov	r0, r5
 5942 005c FFF7FEFF 		bl	ism330dhcx_mem_bank_set
 5943 0060 0246     		mov	r2, r0
 5944 0062 DBE7     		b	.L713
 5945              	.L719:
 5946 0064 0023     		movs	r3, #0
 5947 0066 2370     		strb	r3, [r4]
 5948              	.L711:
 5949 0068 1046     		mov	r0, r2
 5950 006a 03B0     		add	sp, sp, #12
 5951              		@ sp needed
 5952 006c 30BD     		pop	{r4, r5, pc}
 5953              	.L718:
 5954 006e 0123     		movs	r3, #1
 5955 0070 2370     		strb	r3, [r4]
 5956 0072 F9E7     		b	.L711
 5957              	.L717:
 5958 0074 0223     		movs	r3, #2
 5959 0076 2370     		strb	r3, [r4]
 5960 0078 F6E7     		b	.L711
 5961              	.L715:
 5962 007a 0323     		movs	r3, #3
 5963 007c 2370     		strb	r3, [r4]
 5964 007e F3E7     		b	.L711
 5965              	.L714:
 5966 0080 0023     		movs	r3, #0
 5967 0082 2370     		strb	r3, [r4]
 5968 0084 F0E7     		b	.L711
 5970              		.section	.text.ism330dhcx_wkup_ths_weight_set,"ax",%progbits
 5971              		.align	1
 5972              		.global	ism330dhcx_wkup_ths_weight_set
 5973              		.syntax unified
 5974              		.thumb
 5975              		.thumb_func
 5977              	ism330dhcx_wkup_ths_weight_set:
 5978              		@ args = 0, pretend = 0, frame = 8
 5979              		@ frame_needed = 0, uses_anonymous_args = 0
 5980 0000 30B5     		push	{r4, r5, lr}
 5981 0002 83B0     		sub	sp, sp, #12
 5982 0004 0446     		mov	r4, r0
 5983 0006 0D46     		mov	r5, r1
 5984 0008 0123     		movs	r3, #1
 5985 000a 01AA     		add	r2, sp, #4
 5986 000c 5C21     		movs	r1, #92
 5987 000e FFF7FEFF 		bl	ism330dhcx_read_reg
 5988 0012 08B1     		cbz	r0, .L727
 5989              	.L724:
 5990 0014 03B0     		add	sp, sp, #12
 5991              		@ sp needed
 5992 0016 30BD     		pop	{r4, r5, pc}
 5993              	.L727:
ARM GAS  C:\Temp\ccOH3Pt6.s 			page 101


 5994 0018 9DF80430 		ldrb	r3, [sp, #4]	@ zero_extendqisi2
 5995 001c 65F30413 		bfi	r3, r5, #4, #1
 5996 0020 8DF80430 		strb	r3, [sp, #4]
 5997 0024 0123     		movs	r3, #1
 5998 0026 01AA     		add	r2, sp, #4
 5999 0028 5C21     		movs	r1, #92
 6000 002a 2046     		mov	r0, r4
 6001 002c FFF7FEFF 		bl	ism330dhcx_write_reg
 6002 0030 F0E7     		b	.L724
 6004              		.section	.text.ism330dhcx_wkup_ths_weight_get,"ax",%progbits
 6005              		.align	1
 6006              		.global	ism330dhcx_wkup_ths_weight_get
 6007              		.syntax unified
 6008              		.thumb
 6009              		.thumb_func
 6011              	ism330dhcx_wkup_ths_weight_get:
 6012              		@ args = 0, pretend = 0, frame = 8
 6013              		@ frame_needed = 0, uses_anonymous_args = 0
 6014 0000 10B5     		push	{r4, lr}
 6015 0002 82B0     		sub	sp, sp, #8
 6016 0004 0C46     		mov	r4, r1
 6017 0006 0123     		movs	r3, #1
 6018 0008 01AA     		add	r2, sp, #4
 6019 000a 5C21     		movs	r1, #92
 6020 000c FFF7FEFF 		bl	ism330dhcx_read_reg
 6021 0010 9DF80430 		ldrb	r3, [sp, #4]	@ zero_extendqisi2
 6022 0014 C3F30012 		ubfx	r2, r3, #4, #1
 6023 0018 13F0100F 		tst	r3, #16
 6024 001c 03D0     		beq	.L729
 6025 001e 32B9     		cbnz	r2, .L730
 6026 0020 0023     		movs	r3, #0
 6027 0022 2370     		strb	r3, [r4]
 6028 0024 01E0     		b	.L728
 6029              	.L729:
 6030 0026 0023     		movs	r3, #0
 6031 0028 2370     		strb	r3, [r4]
 6032              	.L728:
 6033 002a 02B0     		add	sp, sp, #8
 6034              		@ sp needed
 6035 002c 10BD     		pop	{r4, pc}
 6036              	.L730:
 6037 002e 0123     		movs	r3, #1
 6038 0030 2370     		strb	r3, [r4]
 6039 0032 FAE7     		b	.L728
 6041              		.section	.text.ism330dhcx_wkup_threshold_set,"ax",%progbits
 6042              		.align	1
 6043              		.global	ism330dhcx_wkup_threshold_set
 6044              		.syntax unified
 6045              		.thumb
 6046              		.thumb_func
 6048              	ism330dhcx_wkup_threshold_set:
 6049              		@ args = 0, pretend = 0, frame = 8
 6050              		@ frame_needed = 0, uses_anonymous_args = 0
 6051 0000 30B5     		push	{r4, r5, lr}
 6052 0002 83B0     		sub	sp, sp, #12
 6053 0004 0446     		mov	r4, r0
 6054 0006 0D46     		mov	r5, r1
ARM GAS  C:\Temp\ccOH3Pt6.s 			page 102


 6055 0008 0123     		movs	r3, #1
 6056 000a 01AA     		add	r2, sp, #4
 6057 000c 5B21     		movs	r1, #91
 6058 000e FFF7FEFF 		bl	ism330dhcx_read_reg
 6059 0012 08B1     		cbz	r0, .L738
 6060              	.L735:
 6061 0014 03B0     		add	sp, sp, #12
 6062              		@ sp needed
 6063 0016 30BD     		pop	{r4, r5, pc}
 6064              	.L738:
 6065 0018 9DF80430 		ldrb	r3, [sp, #4]	@ zero_extendqisi2
 6066 001c 65F30503 		bfi	r3, r5, #0, #6
 6067 0020 8DF80430 		strb	r3, [sp, #4]
 6068 0024 0123     		movs	r3, #1
 6069 0026 01AA     		add	r2, sp, #4
 6070 0028 5B21     		movs	r1, #91
 6071 002a 2046     		mov	r0, r4
 6072 002c FFF7FEFF 		bl	ism330dhcx_write_reg
 6073 0030 F0E7     		b	.L735
 6075              		.section	.text.ism330dhcx_wkup_threshold_get,"ax",%progbits
 6076              		.align	1
 6077              		.global	ism330dhcx_wkup_threshold_get
 6078              		.syntax unified
 6079              		.thumb
 6080              		.thumb_func
 6082              	ism330dhcx_wkup_threshold_get:
 6083              		@ args = 0, pretend = 0, frame = 8
 6084              		@ frame_needed = 0, uses_anonymous_args = 0
 6085 0000 10B5     		push	{r4, lr}
 6086 0002 82B0     		sub	sp, sp, #8
 6087 0004 0C46     		mov	r4, r1
 6088 0006 0123     		movs	r3, #1
 6089 0008 01AA     		add	r2, sp, #4
 6090 000a 5B21     		movs	r1, #91
 6091 000c FFF7FEFF 		bl	ism330dhcx_read_reg
 6092 0010 9DF80430 		ldrb	r3, [sp, #4]	@ zero_extendqisi2
 6093 0014 C3F30503 		ubfx	r3, r3, #0, #6
 6094 0018 2370     		strb	r3, [r4]
 6095 001a 02B0     		add	sp, sp, #8
 6096              		@ sp needed
 6097 001c 10BD     		pop	{r4, pc}
 6099              		.section	.text.ism330dhcx_xl_usr_offset_on_wkup_set,"ax",%progbits
 6100              		.align	1
 6101              		.global	ism330dhcx_xl_usr_offset_on_wkup_set
 6102              		.syntax unified
 6103              		.thumb
 6104              		.thumb_func
 6106              	ism330dhcx_xl_usr_offset_on_wkup_set:
 6107              		@ args = 0, pretend = 0, frame = 8
 6108              		@ frame_needed = 0, uses_anonymous_args = 0
 6109 0000 30B5     		push	{r4, r5, lr}
 6110 0002 83B0     		sub	sp, sp, #12
 6111 0004 0446     		mov	r4, r0
 6112 0006 0D46     		mov	r5, r1
 6113 0008 0123     		movs	r3, #1
 6114 000a 01AA     		add	r2, sp, #4
 6115 000c 5B21     		movs	r1, #91
ARM GAS  C:\Temp\ccOH3Pt6.s 			page 103


 6116 000e FFF7FEFF 		bl	ism330dhcx_read_reg
 6117 0012 08B1     		cbz	r0, .L744
 6118              	.L741:
 6119 0014 03B0     		add	sp, sp, #12
 6120              		@ sp needed
 6121 0016 30BD     		pop	{r4, r5, pc}
 6122              	.L744:
 6123 0018 9DF80430 		ldrb	r3, [sp, #4]	@ zero_extendqisi2
 6124 001c 65F38613 		bfi	r3, r5, #6, #1
 6125 0020 8DF80430 		strb	r3, [sp, #4]
 6126 0024 0123     		movs	r3, #1
 6127 0026 01AA     		add	r2, sp, #4
 6128 0028 5B21     		movs	r1, #91
 6129 002a 2046     		mov	r0, r4
 6130 002c FFF7FEFF 		bl	ism330dhcx_write_reg
 6131 0030 F0E7     		b	.L741
 6133              		.section	.text.ism330dhcx_xl_usr_offset_on_wkup_get,"ax",%progbits
 6134              		.align	1
 6135              		.global	ism330dhcx_xl_usr_offset_on_wkup_get
 6136              		.syntax unified
 6137              		.thumb
 6138              		.thumb_func
 6140              	ism330dhcx_xl_usr_offset_on_wkup_get:
 6141              		@ args = 0, pretend = 0, frame = 8
 6142              		@ frame_needed = 0, uses_anonymous_args = 0
 6143 0000 10B5     		push	{r4, lr}
 6144 0002 82B0     		sub	sp, sp, #8
 6145 0004 0C46     		mov	r4, r1
 6146 0006 0123     		movs	r3, #1
 6147 0008 01AA     		add	r2, sp, #4
 6148 000a 5B21     		movs	r1, #91
 6149 000c FFF7FEFF 		bl	ism330dhcx_read_reg
 6150 0010 9DF80430 		ldrb	r3, [sp, #4]	@ zero_extendqisi2
 6151 0014 C3F38013 		ubfx	r3, r3, #6, #1
 6152 0018 2370     		strb	r3, [r4]
 6153 001a 02B0     		add	sp, sp, #8
 6154              		@ sp needed
 6155 001c 10BD     		pop	{r4, pc}
 6157              		.section	.text.ism330dhcx_wkup_dur_set,"ax",%progbits
 6158              		.align	1
 6159              		.global	ism330dhcx_wkup_dur_set
 6160              		.syntax unified
 6161              		.thumb
 6162              		.thumb_func
 6164              	ism330dhcx_wkup_dur_set:
 6165              		@ args = 0, pretend = 0, frame = 8
 6166              		@ frame_needed = 0, uses_anonymous_args = 0
 6167 0000 30B5     		push	{r4, r5, lr}
 6168 0002 83B0     		sub	sp, sp, #12
 6169 0004 0446     		mov	r4, r0
 6170 0006 0D46     		mov	r5, r1
 6171 0008 0123     		movs	r3, #1
 6172 000a 01AA     		add	r2, sp, #4
 6173 000c 5C21     		movs	r1, #92
 6174 000e FFF7FEFF 		bl	ism330dhcx_read_reg
 6175 0012 08B1     		cbz	r0, .L750
 6176              	.L747:
ARM GAS  C:\Temp\ccOH3Pt6.s 			page 104


 6177 0014 03B0     		add	sp, sp, #12
 6178              		@ sp needed
 6179 0016 30BD     		pop	{r4, r5, pc}
 6180              	.L750:
 6181 0018 9DF80430 		ldrb	r3, [sp, #4]	@ zero_extendqisi2
 6182 001c 65F34613 		bfi	r3, r5, #5, #2
 6183 0020 8DF80430 		strb	r3, [sp, #4]
 6184 0024 0123     		movs	r3, #1
 6185 0026 01AA     		add	r2, sp, #4
 6186 0028 5C21     		movs	r1, #92
 6187 002a 2046     		mov	r0, r4
 6188 002c FFF7FEFF 		bl	ism330dhcx_write_reg
 6189 0030 F0E7     		b	.L747
 6191              		.section	.text.ism330dhcx_wkup_dur_get,"ax",%progbits
 6192              		.align	1
 6193              		.global	ism330dhcx_wkup_dur_get
 6194              		.syntax unified
 6195              		.thumb
 6196              		.thumb_func
 6198              	ism330dhcx_wkup_dur_get:
 6199              		@ args = 0, pretend = 0, frame = 8
 6200              		@ frame_needed = 0, uses_anonymous_args = 0
 6201 0000 10B5     		push	{r4, lr}
 6202 0002 82B0     		sub	sp, sp, #8
 6203 0004 0C46     		mov	r4, r1
 6204 0006 0123     		movs	r3, #1
 6205 0008 01AA     		add	r2, sp, #4
 6206 000a 5C21     		movs	r1, #92
 6207 000c FFF7FEFF 		bl	ism330dhcx_read_reg
 6208 0010 9DF80430 		ldrb	r3, [sp, #4]	@ zero_extendqisi2
 6209 0014 C3F34113 		ubfx	r3, r3, #5, #2
 6210 0018 2370     		strb	r3, [r4]
 6211 001a 02B0     		add	sp, sp, #8
 6212              		@ sp needed
 6213 001c 10BD     		pop	{r4, pc}
 6215              		.section	.text.ism330dhcx_gy_sleep_mode_set,"ax",%progbits
 6216              		.align	1
 6217              		.global	ism330dhcx_gy_sleep_mode_set
 6218              		.syntax unified
 6219              		.thumb
 6220              		.thumb_func
 6222              	ism330dhcx_gy_sleep_mode_set:
 6223              		@ args = 0, pretend = 0, frame = 8
 6224              		@ frame_needed = 0, uses_anonymous_args = 0
 6225 0000 30B5     		push	{r4, r5, lr}
 6226 0002 83B0     		sub	sp, sp, #12
 6227 0004 0446     		mov	r4, r0
 6228 0006 0D46     		mov	r5, r1
 6229 0008 0123     		movs	r3, #1
 6230 000a 01AA     		add	r2, sp, #4
 6231 000c 1321     		movs	r1, #19
 6232 000e FFF7FEFF 		bl	ism330dhcx_read_reg
 6233 0012 08B1     		cbz	r0, .L756
 6234              	.L753:
 6235 0014 03B0     		add	sp, sp, #12
 6236              		@ sp needed
 6237 0016 30BD     		pop	{r4, r5, pc}
ARM GAS  C:\Temp\ccOH3Pt6.s 			page 105


 6238              	.L756:
 6239 0018 9DF80430 		ldrb	r3, [sp, #4]	@ zero_extendqisi2
 6240 001c 65F38613 		bfi	r3, r5, #6, #1
 6241 0020 8DF80430 		strb	r3, [sp, #4]
 6242 0024 0123     		movs	r3, #1
 6243 0026 01AA     		add	r2, sp, #4
 6244 0028 1321     		movs	r1, #19
 6245 002a 2046     		mov	r0, r4
 6246 002c FFF7FEFF 		bl	ism330dhcx_write_reg
 6247 0030 F0E7     		b	.L753
 6249              		.section	.text.ism330dhcx_gy_sleep_mode_get,"ax",%progbits
 6250              		.align	1
 6251              		.global	ism330dhcx_gy_sleep_mode_get
 6252              		.syntax unified
 6253              		.thumb
 6254              		.thumb_func
 6256              	ism330dhcx_gy_sleep_mode_get:
 6257              		@ args = 0, pretend = 0, frame = 8
 6258              		@ frame_needed = 0, uses_anonymous_args = 0
 6259 0000 10B5     		push	{r4, lr}
 6260 0002 82B0     		sub	sp, sp, #8
 6261 0004 0C46     		mov	r4, r1
 6262 0006 0123     		movs	r3, #1
 6263 0008 01AA     		add	r2, sp, #4
 6264 000a 1321     		movs	r1, #19
 6265 000c FFF7FEFF 		bl	ism330dhcx_read_reg
 6266 0010 9DF80430 		ldrb	r3, [sp, #4]	@ zero_extendqisi2
 6267 0014 C3F38013 		ubfx	r3, r3, #6, #1
 6268 0018 2370     		strb	r3, [r4]
 6269 001a 02B0     		add	sp, sp, #8
 6270              		@ sp needed
 6271 001c 10BD     		pop	{r4, pc}
 6273              		.section	.text.ism330dhcx_act_pin_notification_set,"ax",%progbits
 6274              		.align	1
 6275              		.global	ism330dhcx_act_pin_notification_set
 6276              		.syntax unified
 6277              		.thumb
 6278              		.thumb_func
 6280              	ism330dhcx_act_pin_notification_set:
 6281              		@ args = 0, pretend = 0, frame = 8
 6282              		@ frame_needed = 0, uses_anonymous_args = 0
 6283 0000 30B5     		push	{r4, r5, lr}
 6284 0002 83B0     		sub	sp, sp, #12
 6285 0004 0446     		mov	r4, r0
 6286 0006 0D46     		mov	r5, r1
 6287 0008 0123     		movs	r3, #1
 6288 000a 01AA     		add	r2, sp, #4
 6289 000c 5621     		movs	r1, #86
 6290 000e FFF7FEFF 		bl	ism330dhcx_read_reg
 6291 0012 08B1     		cbz	r0, .L762
 6292              	.L759:
 6293 0014 03B0     		add	sp, sp, #12
 6294              		@ sp needed
 6295 0016 30BD     		pop	{r4, r5, pc}
 6296              	.L762:
 6297 0018 9DF80430 		ldrb	r3, [sp, #4]	@ zero_extendqisi2
 6298 001c 65F34513 		bfi	r3, r5, #5, #1
ARM GAS  C:\Temp\ccOH3Pt6.s 			page 106


 6299 0020 8DF80430 		strb	r3, [sp, #4]
 6300 0024 0123     		movs	r3, #1
 6301 0026 01AA     		add	r2, sp, #4
 6302 0028 5621     		movs	r1, #86
 6303 002a 2046     		mov	r0, r4
 6304 002c FFF7FEFF 		bl	ism330dhcx_write_reg
 6305 0030 F0E7     		b	.L759
 6307              		.section	.text.ism330dhcx_act_pin_notification_get,"ax",%progbits
 6308              		.align	1
 6309              		.global	ism330dhcx_act_pin_notification_get
 6310              		.syntax unified
 6311              		.thumb
 6312              		.thumb_func
 6314              	ism330dhcx_act_pin_notification_get:
 6315              		@ args = 0, pretend = 0, frame = 8
 6316              		@ frame_needed = 0, uses_anonymous_args = 0
 6317 0000 10B5     		push	{r4, lr}
 6318 0002 82B0     		sub	sp, sp, #8
 6319 0004 0C46     		mov	r4, r1
 6320 0006 0123     		movs	r3, #1
 6321 0008 01AA     		add	r2, sp, #4
 6322 000a 5621     		movs	r1, #86
 6323 000c FFF7FEFF 		bl	ism330dhcx_read_reg
 6324 0010 9DF80430 		ldrb	r3, [sp, #4]	@ zero_extendqisi2
 6325 0014 C3F34012 		ubfx	r2, r3, #5, #1
 6326 0018 13F0200F 		tst	r3, #32
 6327 001c 03D0     		beq	.L764
 6328 001e 32B9     		cbnz	r2, .L765
 6329 0020 0023     		movs	r3, #0
 6330 0022 2370     		strb	r3, [r4]
 6331 0024 01E0     		b	.L763
 6332              	.L764:
 6333 0026 0023     		movs	r3, #0
 6334 0028 2370     		strb	r3, [r4]
 6335              	.L763:
 6336 002a 02B0     		add	sp, sp, #8
 6337              		@ sp needed
 6338 002c 10BD     		pop	{r4, pc}
 6339              	.L765:
 6340 002e 0123     		movs	r3, #1
 6341 0030 2370     		strb	r3, [r4]
 6342 0032 FAE7     		b	.L763
 6344              		.section	.text.ism330dhcx_act_mode_set,"ax",%progbits
 6345              		.align	1
 6346              		.global	ism330dhcx_act_mode_set
 6347              		.syntax unified
 6348              		.thumb
 6349              		.thumb_func
 6351              	ism330dhcx_act_mode_set:
 6352              		@ args = 0, pretend = 0, frame = 8
 6353              		@ frame_needed = 0, uses_anonymous_args = 0
 6354 0000 30B5     		push	{r4, r5, lr}
 6355 0002 83B0     		sub	sp, sp, #12
 6356 0004 0446     		mov	r4, r0
 6357 0006 0D46     		mov	r5, r1
 6358 0008 0123     		movs	r3, #1
 6359 000a 01AA     		add	r2, sp, #4
ARM GAS  C:\Temp\ccOH3Pt6.s 			page 107


 6360 000c 5821     		movs	r1, #88
 6361 000e FFF7FEFF 		bl	ism330dhcx_read_reg
 6362 0012 08B1     		cbz	r0, .L773
 6363              	.L770:
 6364 0014 03B0     		add	sp, sp, #12
 6365              		@ sp needed
 6366 0016 30BD     		pop	{r4, r5, pc}
 6367              	.L773:
 6368 0018 9DF80430 		ldrb	r3, [sp, #4]	@ zero_extendqisi2
 6369 001c 65F34613 		bfi	r3, r5, #5, #2
 6370 0020 8DF80430 		strb	r3, [sp, #4]
 6371 0024 0123     		movs	r3, #1
 6372 0026 01AA     		add	r2, sp, #4
 6373 0028 5821     		movs	r1, #88
 6374 002a 2046     		mov	r0, r4
 6375 002c FFF7FEFF 		bl	ism330dhcx_write_reg
 6376 0030 F0E7     		b	.L770
 6378              		.section	.text.ism330dhcx_act_mode_get,"ax",%progbits
 6379              		.align	1
 6380              		.global	ism330dhcx_act_mode_get
 6381              		.syntax unified
 6382              		.thumb
 6383              		.thumb_func
 6385              	ism330dhcx_act_mode_get:
 6386              		@ args = 0, pretend = 0, frame = 8
 6387              		@ frame_needed = 0, uses_anonymous_args = 0
 6388 0000 10B5     		push	{r4, lr}
 6389 0002 82B0     		sub	sp, sp, #8
 6390 0004 0C46     		mov	r4, r1
 6391 0006 0123     		movs	r3, #1
 6392 0008 01AA     		add	r2, sp, #4
 6393 000a 5821     		movs	r1, #88
 6394 000c FFF7FEFF 		bl	ism330dhcx_read_reg
 6395 0010 9DF80430 		ldrb	r3, [sp, #4]	@ zero_extendqisi2
 6396 0014 C3F34113 		ubfx	r3, r3, #5, #2
 6397 0018 032B     		cmp	r3, #3
 6398 001a 10D8     		bhi	.L775
 6399 001c DFE803F0 		tbb	[pc, r3]
 6400              	.L777:
 6401 0020 02       		.byte	(.L780-.L777)/2
 6402 0021 06       		.byte	(.L779-.L777)/2
 6403 0022 09       		.byte	(.L778-.L777)/2
 6404 0023 0C       		.byte	(.L776-.L777)/2
 6405              		.p2align 1
 6406              	.L780:
 6407 0024 0023     		movs	r3, #0
 6408 0026 2370     		strb	r3, [r4]
 6409              	.L774:
 6410 0028 02B0     		add	sp, sp, #8
 6411              		@ sp needed
 6412 002a 10BD     		pop	{r4, pc}
 6413              	.L779:
 6414 002c 0123     		movs	r3, #1
 6415 002e 2370     		strb	r3, [r4]
 6416 0030 FAE7     		b	.L774
 6417              	.L778:
 6418 0032 0223     		movs	r3, #2
ARM GAS  C:\Temp\ccOH3Pt6.s 			page 108


 6419 0034 2370     		strb	r3, [r4]
 6420 0036 F7E7     		b	.L774
 6421              	.L776:
 6422 0038 0323     		movs	r3, #3
 6423 003a 2370     		strb	r3, [r4]
 6424 003c F4E7     		b	.L774
 6425              	.L775:
 6426 003e 0023     		movs	r3, #0
 6427 0040 2370     		strb	r3, [r4]
 6428 0042 F1E7     		b	.L774
 6430              		.section	.text.ism330dhcx_act_sleep_dur_set,"ax",%progbits
 6431              		.align	1
 6432              		.global	ism330dhcx_act_sleep_dur_set
 6433              		.syntax unified
 6434              		.thumb
 6435              		.thumb_func
 6437              	ism330dhcx_act_sleep_dur_set:
 6438              		@ args = 0, pretend = 0, frame = 8
 6439              		@ frame_needed = 0, uses_anonymous_args = 0
 6440 0000 30B5     		push	{r4, r5, lr}
 6441 0002 83B0     		sub	sp, sp, #12
 6442 0004 0446     		mov	r4, r0
 6443 0006 0D46     		mov	r5, r1
 6444 0008 0123     		movs	r3, #1
 6445 000a 01AA     		add	r2, sp, #4
 6446 000c 5C21     		movs	r1, #92
 6447 000e FFF7FEFF 		bl	ism330dhcx_read_reg
 6448 0012 08B1     		cbz	r0, .L786
 6449              	.L783:
 6450 0014 03B0     		add	sp, sp, #12
 6451              		@ sp needed
 6452 0016 30BD     		pop	{r4, r5, pc}
 6453              	.L786:
 6454 0018 9DF80430 		ldrb	r3, [sp, #4]	@ zero_extendqisi2
 6455 001c 65F30303 		bfi	r3, r5, #0, #4
 6456 0020 8DF80430 		strb	r3, [sp, #4]
 6457 0024 0123     		movs	r3, #1
 6458 0026 01AA     		add	r2, sp, #4
 6459 0028 5C21     		movs	r1, #92
 6460 002a 2046     		mov	r0, r4
 6461 002c FFF7FEFF 		bl	ism330dhcx_write_reg
 6462 0030 F0E7     		b	.L783
 6464              		.section	.text.ism330dhcx_act_sleep_dur_get,"ax",%progbits
 6465              		.align	1
 6466              		.global	ism330dhcx_act_sleep_dur_get
 6467              		.syntax unified
 6468              		.thumb
 6469              		.thumb_func
 6471              	ism330dhcx_act_sleep_dur_get:
 6472              		@ args = 0, pretend = 0, frame = 8
 6473              		@ frame_needed = 0, uses_anonymous_args = 0
 6474 0000 10B5     		push	{r4, lr}
 6475 0002 82B0     		sub	sp, sp, #8
 6476 0004 0C46     		mov	r4, r1
 6477 0006 0123     		movs	r3, #1
 6478 0008 01AA     		add	r2, sp, #4
 6479 000a 5C21     		movs	r1, #92
ARM GAS  C:\Temp\ccOH3Pt6.s 			page 109


 6480 000c FFF7FEFF 		bl	ism330dhcx_read_reg
 6481 0010 9DF80430 		ldrb	r3, [sp, #4]	@ zero_extendqisi2
 6482 0014 C3F30303 		ubfx	r3, r3, #0, #4
 6483 0018 2370     		strb	r3, [r4]
 6484 001a 02B0     		add	sp, sp, #8
 6485              		@ sp needed
 6486 001c 10BD     		pop	{r4, pc}
 6488              		.section	.text.ism330dhcx_tap_detection_on_z_set,"ax",%progbits
 6489              		.align	1
 6490              		.global	ism330dhcx_tap_detection_on_z_set
 6491              		.syntax unified
 6492              		.thumb
 6493              		.thumb_func
 6495              	ism330dhcx_tap_detection_on_z_set:
 6496              		@ args = 0, pretend = 0, frame = 8
 6497              		@ frame_needed = 0, uses_anonymous_args = 0
 6498 0000 30B5     		push	{r4, r5, lr}
 6499 0002 83B0     		sub	sp, sp, #12
 6500 0004 0446     		mov	r4, r0
 6501 0006 0D46     		mov	r5, r1
 6502 0008 0123     		movs	r3, #1
 6503 000a 01AA     		add	r2, sp, #4
 6504 000c 5621     		movs	r1, #86
 6505 000e FFF7FEFF 		bl	ism330dhcx_read_reg
 6506 0012 08B1     		cbz	r0, .L792
 6507              	.L789:
 6508 0014 03B0     		add	sp, sp, #12
 6509              		@ sp needed
 6510 0016 30BD     		pop	{r4, r5, pc}
 6511              	.L792:
 6512 0018 9DF80430 		ldrb	r3, [sp, #4]	@ zero_extendqisi2
 6513 001c 65F34103 		bfi	r3, r5, #1, #1
 6514 0020 8DF80430 		strb	r3, [sp, #4]
 6515 0024 0123     		movs	r3, #1
 6516 0026 01AA     		add	r2, sp, #4
 6517 0028 5621     		movs	r1, #86
 6518 002a 2046     		mov	r0, r4
 6519 002c FFF7FEFF 		bl	ism330dhcx_write_reg
 6520 0030 F0E7     		b	.L789
 6522              		.section	.text.ism330dhcx_tap_detection_on_z_get,"ax",%progbits
 6523              		.align	1
 6524              		.global	ism330dhcx_tap_detection_on_z_get
 6525              		.syntax unified
 6526              		.thumb
 6527              		.thumb_func
 6529              	ism330dhcx_tap_detection_on_z_get:
 6530              		@ args = 0, pretend = 0, frame = 8
 6531              		@ frame_needed = 0, uses_anonymous_args = 0
 6532 0000 10B5     		push	{r4, lr}
 6533 0002 82B0     		sub	sp, sp, #8
 6534 0004 0C46     		mov	r4, r1
 6535 0006 0123     		movs	r3, #1
 6536 0008 01AA     		add	r2, sp, #4
 6537 000a 5621     		movs	r1, #86
 6538 000c FFF7FEFF 		bl	ism330dhcx_read_reg
 6539 0010 9DF80430 		ldrb	r3, [sp, #4]	@ zero_extendqisi2
 6540 0014 C3F34003 		ubfx	r3, r3, #1, #1
ARM GAS  C:\Temp\ccOH3Pt6.s 			page 110


 6541 0018 2370     		strb	r3, [r4]
 6542 001a 02B0     		add	sp, sp, #8
 6543              		@ sp needed
 6544 001c 10BD     		pop	{r4, pc}
 6546              		.section	.text.ism330dhcx_tap_detection_on_y_set,"ax",%progbits
 6547              		.align	1
 6548              		.global	ism330dhcx_tap_detection_on_y_set
 6549              		.syntax unified
 6550              		.thumb
 6551              		.thumb_func
 6553              	ism330dhcx_tap_detection_on_y_set:
 6554              		@ args = 0, pretend = 0, frame = 8
 6555              		@ frame_needed = 0, uses_anonymous_args = 0
 6556 0000 30B5     		push	{r4, r5, lr}
 6557 0002 83B0     		sub	sp, sp, #12
 6558 0004 0446     		mov	r4, r0
 6559 0006 0D46     		mov	r5, r1
 6560 0008 0123     		movs	r3, #1
 6561 000a 01AA     		add	r2, sp, #4
 6562 000c 5621     		movs	r1, #86
 6563 000e FFF7FEFF 		bl	ism330dhcx_read_reg
 6564 0012 08B1     		cbz	r0, .L798
 6565              	.L795:
 6566 0014 03B0     		add	sp, sp, #12
 6567              		@ sp needed
 6568 0016 30BD     		pop	{r4, r5, pc}
 6569              	.L798:
 6570 0018 9DF80430 		ldrb	r3, [sp, #4]	@ zero_extendqisi2
 6571 001c 65F38203 		bfi	r3, r5, #2, #1
 6572 0020 8DF80430 		strb	r3, [sp, #4]
 6573 0024 0123     		movs	r3, #1
