ARM GAS  C:\Temp\ccoM4vSl.s 			page 1


   1              		.cpu cortex-m4
   2              		.arch armv7e-m
   3              		.fpu fpv4-sp-d16
   4              		.eabi_attribute 27, 1
   5              		.eabi_attribute 28, 1
   6              		.eabi_attribute 20, 1
   7              		.eabi_attribute 21, 1
   8              		.eabi_attribute 23, 3
   9              		.eabi_attribute 24, 1
  10              		.eabi_attribute 25, 1
  11              		.eabi_attribute 26, 1
  12              		.eabi_attribute 30, 1
  13              		.eabi_attribute 34, 1
  14              		.eabi_attribute 18, 4
  15              		.file	"stm32f4xx_it.c"
  16              		.text
  17              		.section	.text.__NVIC_SystemReset,"ax",%progbits
  18              		.align	1
  19              		.syntax unified
  20              		.thumb
  21              		.thumb_func
  23              	__NVIC_SystemReset:
  24              		@ Volatile: function does not return.
  25              		@ args = 0, pretend = 0, frame = 0
  26              		@ frame_needed = 0, uses_anonymous_args = 0
  27              		@ link register save eliminated.
  28              		.syntax unified
  29              	@ 271 "Drivers/CMSIS/Include/cmsis_gcc.h" 1
  30 0000 BFF34F8F 		dsb 0xF
  31              	@ 0 "" 2
  32              		.thumb
  33              		.syntax unified
  34 0004 0549     		ldr	r1, .L3
  35 0006 CA68     		ldr	r2, [r1, #12]
  36 0008 02F4E062 		and	r2, r2, #1792
  37 000c 044B     		ldr	r3, .L3+4
  38 000e 1343     		orrs	r3, r3, r2
  39 0010 CB60     		str	r3, [r1, #12]
  40              		.syntax unified
  41              	@ 271 "Drivers/CMSIS/Include/cmsis_gcc.h" 1
  42 0012 BFF34F8F 		dsb 0xF
  43              	@ 0 "" 2
  44              		.thumb
  45              		.syntax unified
  46              	.L2:
  47              		.syntax unified
  48              	@ 1949 "Drivers/CMSIS/Include/core_cm4.h" 1
  49 0016 00BF     		nop
  50              	@ 0 "" 2
  51              		.thumb
  52              		.syntax unified
  53 0018 FDE7     		b	.L2
  54              	.L4:
  55 001a 00BF     		.align	2
  56              	.L3:
  57 001c 00ED00E0 		.word	-536810240
  58 0020 0400FA05 		.word	100270084
ARM GAS  C:\Temp\ccoM4vSl.s 			page 2


  60              		.section	.text.NMI_Handler,"ax",%progbits
  61              		.align	1
  62              		.global	NMI_Handler
  63              		.syntax unified
  64              		.thumb
  65              		.thumb_func
  67              	NMI_Handler:
  68              		@ Volatile: function does not return.
  69              		@ args = 0, pretend = 0, frame = 0
  70              		@ frame_needed = 0, uses_anonymous_args = 0
  71              		@ link register save eliminated.
  72              	.L6:
  73 0000 FEE7     		b	.L6
  75              		.section	.text.HardFault_Handler,"ax",%progbits
  76              		.align	1
  77              		.global	HardFault_Handler
  78              		.syntax unified
  79              		.thumb
  80              		.thumb_func
  82              	HardFault_Handler:
  83              		@ Volatile: function does not return.
  84              		@ args = 0, pretend = 0, frame = 0
  85              		@ frame_needed = 0, uses_anonymous_args = 0
  86 0000 08B5     		push	{r3, lr}
  87 0002 054C     		ldr	r4, .L9
  88 0004 0022     		movs	r2, #0
  89 0006 2021     		movs	r1, #32
  90 0008 2046     		mov	r0, r4
  91 000a FFF7FEFF 		bl	HAL_GPIO_WritePin
  92 000e 0023     		movs	r3, #0
  93 0010 6361     		str	r3, [r4, #20]
  94 0012 FFF7FEFF 		bl	__NVIC_SystemReset
  95              	.L10:
  96 0016 00BF     		.align	2
  97              	.L9:
  98 0018 00000240 		.word	1073872896
 100              		.section	.text.MemManage_Handler,"ax",%progbits
 101              		.align	1
 102              		.global	MemManage_Handler
 103              		.syntax unified
 104              		.thumb
 105              		.thumb_func
 107              	MemManage_Handler:
 108              		@ Volatile: function does not return.
 109              		@ args = 0, pretend = 0, frame = 0
 110              		@ frame_needed = 0, uses_anonymous_args = 0
 111              		@ link register save eliminated.
 112              	.L12:
 113 0000 FEE7     		b	.L12
 115              		.section	.text.BusFault_Handler,"ax",%progbits
 116              		.align	1
 117              		.global	BusFault_Handler
 118              		.syntax unified
 119              		.thumb
 120              		.thumb_func
 122              	BusFault_Handler:
 123              		@ Volatile: function does not return.
ARM GAS  C:\Temp\ccoM4vSl.s 			page 3


 124              		@ args = 0, pretend = 0, frame = 0
 125              		@ frame_needed = 0, uses_anonymous_args = 0
 126              		@ link register save eliminated.
 127              	.L14:
 128 0000 FEE7     		b	.L14
 130              		.section	.text.UsageFault_Handler,"ax",%progbits
 131              		.align	1
 132              		.global	UsageFault_Handler
 133              		.syntax unified
 134              		.thumb
 135              		.thumb_func
 137              	UsageFault_Handler:
 138              		@ Volatile: function does not return.
 139              		@ args = 0, pretend = 0, frame = 0
 140              		@ frame_needed = 0, uses_anonymous_args = 0
 141              		@ link register save eliminated.
 142              	.L16:
 143 0000 FEE7     		b	.L16
 145              		.section	.text.SVC_Handler,"ax",%progbits
 146              		.align	1
 147              		.global	SVC_Handler
 148              		.syntax unified
 149              		.thumb
 150              		.thumb_func
 152              	SVC_Handler:
 153              		@ args = 0, pretend = 0, frame = 0
 154              		@ frame_needed = 0, uses_anonymous_args = 0
 155              		@ link register save eliminated.
 156 0000 7047     		bx	lr
 158              		.section	.text.DebugMon_Handler,"ax",%progbits
 159              		.align	1
 160              		.global	DebugMon_Handler
 161              		.syntax unified
 162              		.thumb
 163              		.thumb_func
 165              	DebugMon_Handler:
 166              		@ args = 0, pretend = 0, frame = 0
 167              		@ frame_needed = 0, uses_anonymous_args = 0
 168              		@ link register save eliminated.
 169 0000 7047     		bx	lr
 171              		.section	.text.PendSV_Handler,"ax",%progbits
 172              		.align	1
 173              		.global	PendSV_Handler
 174              		.syntax unified
 175              		.thumb
 176              		.thumb_func
 178              	PendSV_Handler:
 179              		@ args = 0, pretend = 0, frame = 0
 180              		@ frame_needed = 0, uses_anonymous_args = 0
 181              		@ link register save eliminated.
 182 0000 7047     		bx	lr
 184              		.section	.text.SysTick_Handler,"ax",%progbits
 185              		.align	1
 186              		.global	SysTick_Handler
 187              		.syntax unified
 188              		.thumb
 189              		.thumb_func
ARM GAS  C:\Temp\ccoM4vSl.s 			page 4


 191              	SysTick_Handler:
 192              		@ args = 0, pretend = 0, frame = 0
 193              		@ frame_needed = 0, uses_anonymous_args = 0
 194 0000 08B5     		push	{r3, lr}
 195 0002 FFF7FEFF 		bl	HAL_IncTick
 196 0006 08BD     		pop	{r3, pc}
 198              		.section	.text.EXTI4_IRQHandler,"ax",%progbits
 199              		.align	1
 200              		.global	EXTI4_IRQHandler
 201              		.syntax unified
 202              		.thumb
 203              		.thumb_func
 205              	EXTI4_IRQHandler:
 206              		@ args = 0, pretend = 0, frame = 0
 207              		@ frame_needed = 0, uses_anonymous_args = 0
 208 0000 08B5     		push	{r3, lr}
 209 0002 1020     		movs	r0, #16
 210 0004 FFF7FEFF 		bl	HAL_GPIO_EXTI_IRQHandler
 211 0008 08BD     		pop	{r3, pc}
 213              		.section	.text.DMA1_Stream0_IRQHandler,"ax",%progbits
 214              		.align	1
 215              		.global	DMA1_Stream0_IRQHandler
 216              		.syntax unified
 217              		.thumb
 218              		.thumb_func
 220              	DMA1_Stream0_IRQHandler:
 221              		@ args = 0, pretend = 0, frame = 0
 222              		@ frame_needed = 0, uses_anonymous_args = 0
 223 0000 08B5     		push	{r3, lr}
 224 0002 0248     		ldr	r0, .L26
 225 0004 FFF7FEFF 		bl	HAL_DMA_IRQHandler
 226 0008 08BD     		pop	{r3, pc}
 227              	.L27:
 228 000a 00BF     		.align	2
 229              	.L26:
 230 000c 00000000 		.word	hdma_i2c1_rx
 232              		.section	.text.DMA1_Stream1_IRQHandler,"ax",%progbits
 233              		.align	1
 234              		.global	DMA1_Stream1_IRQHandler
 235              		.syntax unified
 236              		.thumb
 237              		.thumb_func
 239              	DMA1_Stream1_IRQHandler:
 240              		@ args = 0, pretend = 0, frame = 0
 241              		@ frame_needed = 0, uses_anonymous_args = 0
 242 0000 08B5     		push	{r3, lr}
 243 0002 0248     		ldr	r0, .L30
 244 0004 FFF7FEFF 		bl	HAL_DMA_IRQHandler
 245 0008 08BD     		pop	{r3, pc}
 246              	.L31:
 247 000a 00BF     		.align	2
 248              	.L30:
 249 000c 00000000 		.word	hdma_i2c1_tx
 251              		.section	.text.DMA1_Stream6_IRQHandler,"ax",%progbits
 252              		.align	1
 253              		.global	DMA1_Stream6_IRQHandler
 254              		.syntax unified
ARM GAS  C:\Temp\ccoM4vSl.s 			page 5


 255              		.thumb
 256              		.thumb_func
 258              	DMA1_Stream6_IRQHandler:
 259              		@ args = 0, pretend = 0, frame = 0
 260              		@ frame_needed = 0, uses_anonymous_args = 0
 261 0000 08B5     		push	{r3, lr}
 262 0002 0248     		ldr	r0, .L34
 263 0004 FFF7FEFF 		bl	HAL_DMA_IRQHandler
 264 0008 08BD     		pop	{r3, pc}
 265              	.L35:
 266 000a 00BF     		.align	2
 267              	.L34:
 268 000c 00000000 		.word	hdma_usart2_tx
 270              		.section	.text.TIM2_IRQHandler,"ax",%progbits
 271              		.align	1
 272              		.global	TIM2_IRQHandler
 273              		.syntax unified
 274              		.thumb
 275              		.thumb_func
 277              	TIM2_IRQHandler:
 278              		@ args = 0, pretend = 0, frame = 0
 279              		@ frame_needed = 0, uses_anonymous_args = 0
 280 0000 10B5     		push	{r4, lr}
 281 0002 094C     		ldr	r4, .L38
 282 0004 0123     		movs	r3, #1
 283 0006 2370     		strb	r3, [r4]
 284 0008 084A     		ldr	r2, .L38+4
 285 000a 1368     		ldr	r3, [r2]
 286 000c 0133     		adds	r3, r3, #1
 287 000e 1360     		str	r3, [r2]
 288 0010 2021     		movs	r1, #32
 289 0012 0748     		ldr	r0, .L38+8
 290 0014 FFF7FEFF 		bl	HAL_GPIO_TogglePin
 291 0018 FFF7FEFF 		bl	sendToSimulink
 292 001c 0023     		movs	r3, #0
 293 001e 2370     		strb	r3, [r4]
 294 0020 0448     		ldr	r0, .L38+12
 295 0022 FFF7FEFF 		bl	HAL_TIM_IRQHandler
 296 0026 10BD     		pop	{r4, pc}
 297              	.L39:
 298              		.align	2
 299              	.L38:
 300 0028 00000000 		.word	clearToSend
 301 002c 00000000 		.word	counter
 302 0030 00000240 		.word	1073872896
 303 0034 00000000 		.word	htim2
 305              		.section	.text.TIM3_IRQHandler,"ax",%progbits
 306              		.align	1
 307              		.global	TIM3_IRQHandler
 308              		.syntax unified
 309              		.thumb
 310              		.thumb_func
 312              	TIM3_IRQHandler:
 313              		@ args = 0, pretend = 0, frame = 0
 314              		@ frame_needed = 0, uses_anonymous_args = 0
 315 0000 08B5     		push	{r3, lr}
 316 0002 034B     		ldr	r3, .L42
ARM GAS  C:\Temp\ccoM4vSl.s 			page 6


 317 0004 0122     		movs	r2, #1
 318 0006 1A70     		strb	r2, [r3]
 319 0008 0248     		ldr	r0, .L42+4
 320 000a FFF7FEFF 		bl	HAL_TIM_IRQHandler
 321 000e 08BD     		pop	{r3, pc}
 322              	.L43:
 323              		.align	2
 324              	.L42:
 325 0010 00000000 		.word	clearToGetL1
 326 0014 00000000 		.word	htim3
 328              		.section	.text.EXTI15_10_IRQHandler,"ax",%progbits
 329              		.align	1
 330              		.global	EXTI15_10_IRQHandler
 331              		.syntax unified
 332              		.thumb
 333              		.thumb_func
 335              	EXTI15_10_IRQHandler:
 336              		@ args = 0, pretend = 0, frame = 0
 337              		@ frame_needed = 0, uses_anonymous_args = 0
 338 0000 08B5     		push	{r3, lr}
 339 0002 4FF40050 		mov	r0, #8192
 340 0006 FFF7FEFF 		bl	HAL_GPIO_EXTI_IRQHandler
 341 000a 08BD     		pop	{r3, pc}
 343              		.ident	"GCC: (xPack GNU Arm Embedded GCC x86_64) 12.3.1 20230626"
ARM GAS  C:\Temp\ccoM4vSl.s 			page 7

